ARM GAS  /tmp/ccnAz4KJ.s 			page 1


   1              		.cpu cortex-m7
   2              		.eabi_attribute 28, 1
   3              		.eabi_attribute 20, 1
   4              		.eabi_attribute 21, 1
   5              		.eabi_attribute 23, 3
   6              		.eabi_attribute 24, 1
   7              		.eabi_attribute 25, 1
   8              		.eabi_attribute 26, 1
   9              		.eabi_attribute 30, 2
  10              		.eabi_attribute 34, 1
  11              		.eabi_attribute 18, 4
  12              		.file	"formantosc.cpp"
  13              		.text
  14              	.Ltext0:
  15              		.cfi_sections	.debug_frame
  16              		.section	.text._ZN7daisysp10OscillatorD2Ev,"axG",%progbits,_ZN7daisysp10OscillatorD5Ev,comdat
  17              		.align	1
  18              		.p2align 2,,3
  19              		.weak	_ZN7daisysp10OscillatorD2Ev
  20              		.arch armv7e-m
  21              		.syntax unified
  22              		.thumb
  23              		.thumb_func
  24              		.fpu fpv5-d16
  26              	_ZN7daisysp10OscillatorD2Ev:
  27              	.LVL0:
  28              	.LFB2797:
  29              		.file 1 "../../DaisySP/Source/Synthesis/oscillator.h"
   1:../../DaisySP/Source/Synthesis/oscillator.h **** #pragma once
   2:../../DaisySP/Source/Synthesis/oscillator.h **** #ifndef DSY_OSCILLATOR_H
   3:../../DaisySP/Source/Synthesis/oscillator.h **** #define DSY_OSCILLATOR_H
   4:../../DaisySP/Source/Synthesis/oscillator.h **** #include <stdint.h>
   5:../../DaisySP/Source/Synthesis/oscillator.h **** #include "Utility/dsp.h"
   6:../../DaisySP/Source/Synthesis/oscillator.h **** #ifdef __cplusplus
   7:../../DaisySP/Source/Synthesis/oscillator.h **** 
   8:../../DaisySP/Source/Synthesis/oscillator.h **** namespace daisysp
   9:../../DaisySP/Source/Synthesis/oscillator.h **** {
  10:../../DaisySP/Source/Synthesis/oscillator.h **** /** Synthesis of several waveforms, including polyBLEP bandlimited waveforms.
  11:../../DaisySP/Source/Synthesis/oscillator.h **** */
  12:../../DaisySP/Source/Synthesis/oscillator.h **** class Oscillator
  13:../../DaisySP/Source/Synthesis/oscillator.h **** {
  14:../../DaisySP/Source/Synthesis/oscillator.h ****   public:
  15:../../DaisySP/Source/Synthesis/oscillator.h ****     Oscillator() {}
  16:../../DaisySP/Source/Synthesis/oscillator.h ****     ~Oscillator() {}
  30              		.loc 1 16 5 view -0
  31              		.cfi_startproc
  32              		@ args = 0, pretend = 0, frame = 0
  33              		@ frame_needed = 0, uses_anonymous_args = 0
  34              		@ link register save eliminated.
  35              		.loc 1 16 20 is_stmt 0 view .LVU1
  36 0000 7047     		bx	lr
  37              		.cfi_endproc
  38              	.LFE2797:
  40              		.weak	_ZN7daisysp10OscillatorD1Ev
  41              		.thumb_set _ZN7daisysp10OscillatorD1Ev,_ZN7daisysp10OscillatorD2Ev
  42 0002 00BF     		.section	.text._ZN7daisysp5MetroD2Ev,"axG",%progbits,_ZN7daisysp5MetroD5Ev,comdat
  43              		.align	1
ARM GAS  /tmp/ccnAz4KJ.s 			page 2


  44              		.p2align 2,,3
  45              		.weak	_ZN7daisysp5MetroD2Ev
  46              		.syntax unified
  47              		.thumb
  48              		.thumb_func
  49              		.fpu fpv5-d16
  51              	_ZN7daisysp5MetroD2Ev:
  52              	.LVL1:
  53              	.LFB3332:
  54              		.file 2 "../../DaisySP/Source/Utility/metro.h"
   1:../../DaisySP/Source/Utility/metro.h **** #pragma once
   2:../../DaisySP/Source/Utility/metro.h **** #ifndef DSY_METRO_H
   3:../../DaisySP/Source/Utility/metro.h **** #define DSY_METRO_H
   4:../../DaisySP/Source/Utility/metro.h **** #include <stdint.h>
   5:../../DaisySP/Source/Utility/metro.h **** #ifdef __cplusplus
   6:../../DaisySP/Source/Utility/metro.h **** 
   7:../../DaisySP/Source/Utility/metro.h **** namespace daisysp
   8:../../DaisySP/Source/Utility/metro.h **** {
   9:../../DaisySP/Source/Utility/metro.h **** /** Creates a clock signal at a specific frequency.
  10:../../DaisySP/Source/Utility/metro.h **** */
  11:../../DaisySP/Source/Utility/metro.h **** class Metro
  12:../../DaisySP/Source/Utility/metro.h **** {
  13:../../DaisySP/Source/Utility/metro.h ****   public:
  14:../../DaisySP/Source/Utility/metro.h ****     Metro() {}
  15:../../DaisySP/Source/Utility/metro.h ****     ~Metro() {}
  55              		.loc 2 15 5 is_stmt 1 view -0
  56              		.cfi_startproc
  57              		@ args = 0, pretend = 0, frame = 0
  58              		@ frame_needed = 0, uses_anonymous_args = 0
  59              		@ link register save eliminated.
  60              		.loc 2 15 15 is_stmt 0 view .LVU3
  61 0000 7047     		bx	lr
  62              		.cfi_endproc
  63              	.LFE3332:
  65              		.weak	_ZN7daisysp5MetroD1Ev
  66              		.thumb_set _ZN7daisysp5MetroD1Ev,_ZN7daisysp5MetroD2Ev
  67 0002 00BF     		.section	.text._ZN5daisy9DaisySeedD2Ev,"axG",%progbits,_ZN5daisy9DaisySeedD5Ev,comdat
  68              		.align	1
  69              		.p2align 2,,3
  70              		.weak	_ZN5daisy9DaisySeedD2Ev
  71              		.syntax unified
  72              		.thumb
  73              		.thumb_func
  74              		.fpu fpv5-d16
  76              	_ZN5daisy9DaisySeedD2Ev:
  77              	.LVL2:
  78              	.LFB4207:
  79              		.file 3 "../../libdaisy/src/daisy_seed.h"
   1:../../libdaisy/src/daisy_seed.h **** #pragma once
   2:../../libdaisy/src/daisy_seed.h **** #ifndef DSY_SEED_H
   3:../../libdaisy/src/daisy_seed.h **** #define DSY_SEED_H
   4:../../libdaisy/src/daisy_seed.h **** 
   5:../../libdaisy/src/daisy_seed.h **** #include "daisy.h"
   6:../../libdaisy/src/daisy_seed.h **** 
   7:../../libdaisy/src/daisy_seed.h **** //Uncomment this out if you're still using the rev2 hardware
   8:../../libdaisy/src/daisy_seed.h **** //#define SEED_REV2
   9:../../libdaisy/src/daisy_seed.h **** 
ARM GAS  /tmp/ccnAz4KJ.s 			page 3


  10:../../libdaisy/src/daisy_seed.h **** namespace daisy
  11:../../libdaisy/src/daisy_seed.h **** {
  12:../../libdaisy/src/daisy_seed.h **** /**
  13:../../libdaisy/src/daisy_seed.h ****    @brief This is the higher-level interface for the Daisy board. \n 
  14:../../libdaisy/src/daisy_seed.h ****     All basic peripheral configuration/initialization is setup here. \n
  15:../../libdaisy/src/daisy_seed.h **** 
  16:../../libdaisy/src/daisy_seed.h ****    @ingroup boards
  17:../../libdaisy/src/daisy_seed.h **** */
  18:../../libdaisy/src/daisy_seed.h **** class DaisySeed
  19:../../libdaisy/src/daisy_seed.h **** {
  20:../../libdaisy/src/daisy_seed.h ****   public:
  21:../../libdaisy/src/daisy_seed.h ****     DaisySeed() {}
  22:../../libdaisy/src/daisy_seed.h ****     ~DaisySeed() {}
  80              		.loc 3 22 5 is_stmt 1 view -0
  81              		.cfi_startproc
  82              		@ args = 0, pretend = 0, frame = 0
  83              		@ frame_needed = 0, uses_anonymous_args = 0
  84              		@ link register save eliminated.
  85              	.LBB73:
  86              	.LBI73:
  87              		.file 4 "../../libdaisy/src/sys/system.h"
   1:../../libdaisy/src/sys/system.h **** #ifndef DSY_SYSTEM_H
   2:../../libdaisy/src/sys/system.h **** #define DSY_SYSTEM_H
   3:../../libdaisy/src/sys/system.h **** 
   4:../../libdaisy/src/sys/system.h **** #ifndef UNIT_TEST // for unit tests, a dummy implementation is provided below
   5:../../libdaisy/src/sys/system.h **** 
   6:../../libdaisy/src/sys/system.h **** #include <cstdint>
   7:../../libdaisy/src/sys/system.h **** #include "per/tim.h"
   8:../../libdaisy/src/sys/system.h **** 
   9:../../libdaisy/src/sys/system.h **** namespace daisy
  10:../../libdaisy/src/sys/system.h **** {
  11:../../libdaisy/src/sys/system.h **** /** A handle for interacting with the Core System. 
  12:../../libdaisy/src/sys/system.h ****  ** This includes the Clock tree, MPU, global DMA initialization,
  13:../../libdaisy/src/sys/system.h ****  ** cache handling, and any other necessary global initiailzation
  14:../../libdaisy/src/sys/system.h ****  **
  15:../../libdaisy/src/sys/system.h ****  ** @author shensley
  16:../../libdaisy/src/sys/system.h ****  ** @addtogroup system
  17:../../libdaisy/src/sys/system.h ****  */
  18:../../libdaisy/src/sys/system.h **** class System
  19:../../libdaisy/src/sys/system.h **** {
  20:../../libdaisy/src/sys/system.h ****   public:
  21:../../libdaisy/src/sys/system.h ****     /** Contains settings for initializing the System */
  22:../../libdaisy/src/sys/system.h ****     struct Config
  23:../../libdaisy/src/sys/system.h ****     {
  24:../../libdaisy/src/sys/system.h ****         /** Specifies the system clock frequency that feeds APB/AHB clocks, etc. */
  25:../../libdaisy/src/sys/system.h ****         enum class SysClkFreq
  26:../../libdaisy/src/sys/system.h ****         {
  27:../../libdaisy/src/sys/system.h ****             FREQ_400MHZ,
  28:../../libdaisy/src/sys/system.h ****             FREQ_480MHZ,
  29:../../libdaisy/src/sys/system.h ****         };
  30:../../libdaisy/src/sys/system.h **** 
  31:../../libdaisy/src/sys/system.h ****         /** Method to call on the struct to set to defaults
  32:../../libdaisy/src/sys/system.h ****          ** CPU Freq set to 400MHz
  33:../../libdaisy/src/sys/system.h ****          ** Cache Enabled 
  34:../../libdaisy/src/sys/system.h ****          ** */
  35:../../libdaisy/src/sys/system.h ****         void Defaults()
  36:../../libdaisy/src/sys/system.h ****         {
ARM GAS  /tmp/ccnAz4KJ.s 			page 4


  37:../../libdaisy/src/sys/system.h ****             cpu_freq   = SysClkFreq::FREQ_400MHZ;
  38:../../libdaisy/src/sys/system.h ****             use_dcache = true;
  39:../../libdaisy/src/sys/system.h ****             use_icache = true;
  40:../../libdaisy/src/sys/system.h ****         }
  41:../../libdaisy/src/sys/system.h **** 
  42:../../libdaisy/src/sys/system.h ****         /** Method to call on the struct to set to boost mode:
  43:../../libdaisy/src/sys/system.h ****          ** CPU Freq set to 480MHz
  44:../../libdaisy/src/sys/system.h ****          ** Cache Enabled 
  45:../../libdaisy/src/sys/system.h ****          ** */
  46:../../libdaisy/src/sys/system.h ****         void Boost()
  47:../../libdaisy/src/sys/system.h ****         {
  48:../../libdaisy/src/sys/system.h ****             cpu_freq   = SysClkFreq::FREQ_480MHZ;
  49:../../libdaisy/src/sys/system.h ****             use_dcache = true;
  50:../../libdaisy/src/sys/system.h ****             use_icache = true;
  51:../../libdaisy/src/sys/system.h ****         }
  52:../../libdaisy/src/sys/system.h **** 
  53:../../libdaisy/src/sys/system.h ****         SysClkFreq cpu_freq;
  54:../../libdaisy/src/sys/system.h ****         bool       use_dcache;
  55:../../libdaisy/src/sys/system.h ****         bool       use_icache;
  56:../../libdaisy/src/sys/system.h ****     };
  57:../../libdaisy/src/sys/system.h **** 
  58:../../libdaisy/src/sys/system.h ****     System() {}
  59:../../libdaisy/src/sys/system.h ****     ~System() {}
  88              		.loc 4 59 5 view .LVU5
  89              		.loc 4 59 5 is_stmt 0 view .LVU6
  90              	.LBE73:
  91              	.LBB74:
  92              	.LBI74:
  93              		.file 5 "../../libdaisy/src/hid/usb.h"
   1:../../libdaisy/src/hid/usb.h **** #pragma once
   2:../../libdaisy/src/hid/usb.h **** #ifndef DSY_HID_USB_H
   3:../../libdaisy/src/hid/usb.h **** #define DSY_HID_USB_H
   4:../../libdaisy/src/hid/usb.h **** #include <stdint.h>
   5:../../libdaisy/src/hid/usb.h **** #include <stdlib.h>
   6:../../libdaisy/src/hid/usb.h **** 
   7:../../libdaisy/src/hid/usb.h **** namespace daisy
   8:../../libdaisy/src/hid/usb.h **** /** @addtogroup externals
   9:../../libdaisy/src/hid/usb.h ****     @{
  10:../../libdaisy/src/hid/usb.h **** */
  11:../../libdaisy/src/hid/usb.h **** 
  12:../../libdaisy/src/hid/usb.h **** {
  13:../../libdaisy/src/hid/usb.h **** /** 
  14:../../libdaisy/src/hid/usb.h ****     @brief Interface for initializing and using the USB Peripherals on the daisy
  15:../../libdaisy/src/hid/usb.h ****     @author Stephen Hensley
  16:../../libdaisy/src/hid/usb.h ****     @date December 2019
  17:../../libdaisy/src/hid/usb.h **** */
  18:../../libdaisy/src/hid/usb.h **** class UsbHandle
  19:../../libdaisy/src/hid/usb.h **** {
  20:../../libdaisy/src/hid/usb.h ****   public:
  21:../../libdaisy/src/hid/usb.h ****     /** Return values for USBHandle Functions */
  22:../../libdaisy/src/hid/usb.h ****     enum class Result
  23:../../libdaisy/src/hid/usb.h ****     {
  24:../../libdaisy/src/hid/usb.h ****         OK,
  25:../../libdaisy/src/hid/usb.h ****         ERR,
  26:../../libdaisy/src/hid/usb.h ****     };
  27:../../libdaisy/src/hid/usb.h **** 
  28:../../libdaisy/src/hid/usb.h ****     /** Specified which of the two USB Peripherals to initialize. */
ARM GAS  /tmp/ccnAz4KJ.s 			page 5


  29:../../libdaisy/src/hid/usb.h ****     enum UsbPeriph
  30:../../libdaisy/src/hid/usb.h ****     {
  31:../../libdaisy/src/hid/usb.h ****         FS_INTERNAL, /**< Internal pin */
  32:../../libdaisy/src/hid/usb.h ****         FS_EXTERNAL, /**< FS External D+ pin is Pin 38 (GPIO32). FS External D- pin is Pin 37 (GPIO
  33:../../libdaisy/src/hid/usb.h ****         FS_BOTH,     /**< Both */
  34:../../libdaisy/src/hid/usb.h ****     };
  35:../../libdaisy/src/hid/usb.h **** 
  36:../../libdaisy/src/hid/usb.h **** 
  37:../../libdaisy/src/hid/usb.h ****     /** Function called upon reception of a buffer */
  38:../../libdaisy/src/hid/usb.h ****     typedef void (*ReceiveCallback)(uint8_t* buff, uint32_t* len);
  39:../../libdaisy/src/hid/usb.h **** 
  40:../../libdaisy/src/hid/usb.h ****     UsbHandle() {}
  41:../../libdaisy/src/hid/usb.h **** 
  42:../../libdaisy/src/hid/usb.h ****     ~UsbHandle() {}
  94              		.loc 5 42 5 is_stmt 1 view .LVU7
  95              		.loc 5 42 5 is_stmt 0 view .LVU8
  96              	.LBE74:
  97              	.LBB75:
  98              	.LBI75:
  99              		.file 6 "../../libdaisy/src/per/adc.h"
   1:../../libdaisy/src/per/adc.h **** #pragma once
   2:../../libdaisy/src/per/adc.h **** #ifndef DSY_ADC_H
   3:../../libdaisy/src/per/adc.h **** #define DSY_ADC_H /**< Macro */
   4:../../libdaisy/src/per/adc.h **** #include <stdint.h>
   5:../../libdaisy/src/per/adc.h **** #include <stdlib.h>
   6:../../libdaisy/src/per/adc.h **** #include "daisy_core.h"
   7:../../libdaisy/src/per/adc.h **** #include "per/gpio.h"
   8:../../libdaisy/src/per/adc.h **** 
   9:../../libdaisy/src/per/adc.h **** #define DSY_ADC_MAX_CHANNELS 14 /**< Maximum number of ADC channels */
  10:../../libdaisy/src/per/adc.h **** 
  11:../../libdaisy/src/per/adc.h **** namespace daisy
  12:../../libdaisy/src/per/adc.h **** {
  13:../../libdaisy/src/per/adc.h **** /** @addtogroup analog_digital_conversion
  14:../../libdaisy/src/per/adc.h ****     @{
  15:../../libdaisy/src/per/adc.h **** */
  16:../../libdaisy/src/per/adc.h **** 
  17:../../libdaisy/src/per/adc.h **** /* While there may not be many configuration options here,
  18:../../libdaisy/src/per/adc.h **** using a struct like this allows us to add more configuration
  19:../../libdaisy/src/per/adc.h **** later without breaking existing functionality.
  20:../../libdaisy/src/per/adc.h **** */
  21:../../libdaisy/src/per/adc.h **** 
  22:../../libdaisy/src/per/adc.h **** /** Configuration Structure for a given channel */
  23:../../libdaisy/src/per/adc.h **** struct AdcChannelConfig
  24:../../libdaisy/src/per/adc.h **** {
  25:../../libdaisy/src/per/adc.h ****     /** Which pin to use for multiplexing */
  26:../../libdaisy/src/per/adc.h ****     enum MuxPin
  27:../../libdaisy/src/per/adc.h ****     {
  28:../../libdaisy/src/per/adc.h ****         MUX_SEL_0,    /**< & */
  29:../../libdaisy/src/per/adc.h ****         MUX_SEL_1,    /**< & */
  30:../../libdaisy/src/per/adc.h ****         MUX_SEL_2,    /**< & */
  31:../../libdaisy/src/per/adc.h ****         MUX_SEL_LAST, /**< & */
  32:../../libdaisy/src/per/adc.h ****     };
  33:../../libdaisy/src/per/adc.h **** 
  34:../../libdaisy/src/per/adc.h ****     /** Initializes a single ADC pin as an ADC. 
  35:../../libdaisy/src/per/adc.h ****     \param pin Pin to init.
  36:../../libdaisy/src/per/adc.h ****      */
  37:../../libdaisy/src/per/adc.h ****     void InitSingle(dsy_gpio_pin pin);
ARM GAS  /tmp/ccnAz4KJ.s 			page 6


  38:../../libdaisy/src/per/adc.h **** 
  39:../../libdaisy/src/per/adc.h ****     /** 
  40:../../libdaisy/src/per/adc.h ****     Initializes a single ADC pin as a Multiplexed ADC.
  41:../../libdaisy/src/per/adc.h ****     Requires a CD405X Multiplexer connected to the pin.
  42:../../libdaisy/src/per/adc.h ****     You only need to supply the mux pins that are required,
  43:../../libdaisy/src/per/adc.h ****     e.g. a 4052 mux would only require mux_0 and mux_1.
  44:../../libdaisy/src/per/adc.h ****     Internal Callbacks handle the pin addressing.
  45:../../libdaisy/src/per/adc.h ****     \param mux_channels must be 1-8
  46:../../libdaisy/src/per/adc.h ****     \param mux_0 First mux pin
  47:../../libdaisy/src/per/adc.h ****     \param mux_1 Second mux pin
  48:../../libdaisy/src/per/adc.h ****     \param mux_2 Third mux pin
  49:../../libdaisy/src/per/adc.h ****     \param adc_pin &
  50:../../libdaisy/src/per/adc.h ****     */
  51:../../libdaisy/src/per/adc.h ****     void InitMux(dsy_gpio_pin adc_pin,
  52:../../libdaisy/src/per/adc.h ****                  size_t       mux_channels,
  53:../../libdaisy/src/per/adc.h ****                  dsy_gpio_pin mux_0,
  54:../../libdaisy/src/per/adc.h ****                  dsy_gpio_pin mux_1 = {DSY_GPIOX, 0},
  55:../../libdaisy/src/per/adc.h ****                  dsy_gpio_pin mux_2 = {DSY_GPIOX, 0});
  56:../../libdaisy/src/per/adc.h **** 
  57:../../libdaisy/src/per/adc.h ****     dsy_gpio pin_;                   /**< & */
  58:../../libdaisy/src/per/adc.h ****     dsy_gpio mux_pin_[MUX_SEL_LAST]; /**< & */
  59:../../libdaisy/src/per/adc.h ****     uint8_t  mux_channels_;          /**< & */
  60:../../libdaisy/src/per/adc.h **** };
  61:../../libdaisy/src/per/adc.h **** 
  62:../../libdaisy/src/per/adc.h **** /**
  63:../../libdaisy/src/per/adc.h ****    Handler for analog to digital conversion
  64:../../libdaisy/src/per/adc.h **** */
  65:../../libdaisy/src/per/adc.h **** class AdcHandle
  66:../../libdaisy/src/per/adc.h **** {
  67:../../libdaisy/src/per/adc.h ****   public:
  68:../../libdaisy/src/per/adc.h ****     /** Supported oversampling amounts */
  69:../../libdaisy/src/per/adc.h ****     enum OverSampling
  70:../../libdaisy/src/per/adc.h ****     {
  71:../../libdaisy/src/per/adc.h ****         OVS_NONE, /**< & */
  72:../../libdaisy/src/per/adc.h ****         OVS_4,    /**< & */
  73:../../libdaisy/src/per/adc.h ****         OVS_8,    /**< & */
  74:../../libdaisy/src/per/adc.h ****         OVS_16,   /**< & */
  75:../../libdaisy/src/per/adc.h ****         OVS_32,   /**< & */
  76:../../libdaisy/src/per/adc.h ****         OVS_64,   /**< & */
  77:../../libdaisy/src/per/adc.h ****         OVS_128,  /**< & */
  78:../../libdaisy/src/per/adc.h ****         OVS_256,  /**< & */
  79:../../libdaisy/src/per/adc.h ****         OVS_512,  /**< & */
  80:../../libdaisy/src/per/adc.h ****         OVS_1024, /**< & */
  81:../../libdaisy/src/per/adc.h ****         OVS_LAST, /**< & */
  82:../../libdaisy/src/per/adc.h ****     };
  83:../../libdaisy/src/per/adc.h **** 
  84:../../libdaisy/src/per/adc.h ****     AdcHandle() {}
  85:../../libdaisy/src/per/adc.h ****     ~AdcHandle() {}
 100              		.loc 6 85 5 is_stmt 1 view .LVU9
 101              		.loc 6 85 5 is_stmt 0 view .LVU10
 102              	.LBE75:
 103              	.LBB76:
 104              	.LBI76:
 105              		.file 7 "../../libdaisy/src/hid/audio.h"
   1:../../libdaisy/src/hid/audio.h **** #ifndef DSY_AUDIO_H
   2:../../libdaisy/src/hid/audio.h **** #define DSY_AUDIO_H /**< & */
   3:../../libdaisy/src/hid/audio.h **** 
ARM GAS  /tmp/ccnAz4KJ.s 			page 7


   4:../../libdaisy/src/hid/audio.h **** #include "per/sai.h"
   5:../../libdaisy/src/hid/audio.h **** 
   6:../../libdaisy/src/hid/audio.h **** namespace daisy
   7:../../libdaisy/src/hid/audio.h **** {
   8:../../libdaisy/src/hid/audio.h **** class AudioHandle
   9:../../libdaisy/src/hid/audio.h **** {
  10:../../libdaisy/src/hid/audio.h ****   public:
  11:../../libdaisy/src/hid/audio.h ****     /** Manually configurable details about the Audio Engine */
  12:../../libdaisy/src/hid/audio.h ****     /** TODO: Figure out how to get samplerate in here. */
  13:../../libdaisy/src/hid/audio.h ****     struct Config
  14:../../libdaisy/src/hid/audio.h ****     {
  15:../../libdaisy/src/hid/audio.h ****         size_t                        blocksize;
  16:../../libdaisy/src/hid/audio.h ****         SaiHandle::Config::SampleRate samplerate;
  17:../../libdaisy/src/hid/audio.h ****         float                         postgain;
  18:../../libdaisy/src/hid/audio.h ****     };
  19:../../libdaisy/src/hid/audio.h **** 
  20:../../libdaisy/src/hid/audio.h ****     enum class Result
  21:../../libdaisy/src/hid/audio.h ****     {
  22:../../libdaisy/src/hid/audio.h ****         OK,
  23:../../libdaisy/src/hid/audio.h ****         ERR,
  24:../../libdaisy/src/hid/audio.h ****     };
  25:../../libdaisy/src/hid/audio.h **** 
  26:../../libdaisy/src/hid/audio.h ****     /** Non-Interleaving input buffer
  27:../../libdaisy/src/hid/audio.h ****      * Buffer arranged by float[chn][sample] 
  28:../../libdaisy/src/hid/audio.h ****      * const so that the user can't modify the input
  29:../../libdaisy/src/hid/audio.h ****     */
  30:../../libdaisy/src/hid/audio.h ****     typedef const float* const* InputBuffer;
  31:../../libdaisy/src/hid/audio.h **** 
  32:../../libdaisy/src/hid/audio.h ****     /** Non-Interleaving output buffer
  33:../../libdaisy/src/hid/audio.h ****      * Arranged by float[chn][sample] 
  34:../../libdaisy/src/hid/audio.h ****     */
  35:../../libdaisy/src/hid/audio.h ****     typedef float** OutputBuffer;
  36:../../libdaisy/src/hid/audio.h **** 
  37:../../libdaisy/src/hid/audio.h ****     /** Type for a Non-Interleaving audio callback 
  38:../../libdaisy/src/hid/audio.h ****    * Non-Interleaving audio callbacks in daisy will be of this type
  39:../../libdaisy/src/hid/audio.h ****   */
  40:../../libdaisy/src/hid/audio.h ****     typedef void (*AudioCallback)(InputBuffer  in,
  41:../../libdaisy/src/hid/audio.h ****                                   OutputBuffer out,
  42:../../libdaisy/src/hid/audio.h ****                                   size_t       size);
  43:../../libdaisy/src/hid/audio.h **** 
  44:../../libdaisy/src/hid/audio.h ****     /** Interleaving Input buffer
  45:../../libdaisy/src/hid/audio.h ****      ** audio is prepared as { L0, R0, L1, R1, . . . LN, RN }]
  46:../../libdaisy/src/hid/audio.h ****      ** this is const, as the user shouldn't modify it
  47:../../libdaisy/src/hid/audio.h ****     */
  48:../../libdaisy/src/hid/audio.h ****     typedef const float* InterleavingInputBuffer;
  49:../../libdaisy/src/hid/audio.h **** 
  50:../../libdaisy/src/hid/audio.h ****     /** Interleaving Output buffer 
  51:../../libdaisy/src/hid/audio.h ****      ** audio is prepared as { L0, R0, L1, R1, . . . LN, RN }
  52:../../libdaisy/src/hid/audio.h ****     */
  53:../../libdaisy/src/hid/audio.h ****     typedef float* InterleavingOutputBuffer;
  54:../../libdaisy/src/hid/audio.h **** 
  55:../../libdaisy/src/hid/audio.h ****     /** Interleaving Audio Callback 
  56:../../libdaisy/src/hid/audio.h ****    * Interleaving audio callbacks in daisy must be of this type
  57:../../libdaisy/src/hid/audio.h ****   */
  58:../../libdaisy/src/hid/audio.h ****     typedef void (*InterleavingAudioCallback)(InterleavingInputBuffer  in,
  59:../../libdaisy/src/hid/audio.h ****                                               InterleavingOutputBuffer out,
  60:../../libdaisy/src/hid/audio.h ****                                               size_t                   size);
ARM GAS  /tmp/ccnAz4KJ.s 			page 8


  61:../../libdaisy/src/hid/audio.h **** 
  62:../../libdaisy/src/hid/audio.h ****     AudioHandle() : pimpl_(nullptr) {}
  63:../../libdaisy/src/hid/audio.h ****     ~AudioHandle() {}
 106              		.loc 7 63 5 is_stmt 1 view .LVU11
 107              		.loc 7 63 5 is_stmt 0 view .LVU12
 108              	.LBE76:
 109              		.loc 3 22 19 view .LVU13
 110 0000 7047     		bx	lr
 111              		.cfi_endproc
 112              	.LFE4207:
 114              		.weak	_ZN5daisy9DaisySeedD1Ev
 115              		.thumb_set _ZN5daisy9DaisySeedD1Ev,_ZN5daisy9DaisySeedD2Ev
 116 0002 00BF     		.section	.text.__tcf_0,"ax",%progbits
 117              		.align	1
 118              		.p2align 2,,3
 119              		.syntax unified
 120              		.thumb
 121              		.thumb_func
 122              		.fpu fpv5-d16
 124              	__tcf_0:
 125              	.LFB4759:
 126              		.file 8 "formantosc.cpp"
   1:formantosc.cpp **** #include "daisysp.h"
   2:formantosc.cpp **** #include "daisy_seed.h"
   3:formantosc.cpp **** 
   4:formantosc.cpp **** using namespace daisysp;
   5:formantosc.cpp **** using namespace daisy;
   6:formantosc.cpp **** 
   7:formantosc.cpp **** static DaisySeed         seed;
   8:formantosc.cpp **** static FormantOscillator form[2];
 127              		.loc 8 8 26 is_stmt 1 view -0
 128              		.cfi_startproc
 129              		@ args = 0, pretend = 0, frame = 0
 130              		@ frame_needed = 0, uses_anonymous_args = 0
 131              		@ link register save eliminated.
 132              		.loc 8 8 26 is_stmt 0 view .LVU15
 133 0000 7047     		bx	lr
 134              		.cfi_endproc
 135              	.LFE4759:
 137 0002 00BF     		.section	.text._ZL13AudioCallbackPKfPfj,"ax",%progbits
 138              		.align	1
 139              		.p2align 2,,3
 140              		.syntax unified
 141              		.thumb
 142              		.thumb_func
 143              		.fpu fpv5-d16
 145              	_ZL13AudioCallbackPKfPfj:
 146              	.LVL3:
 147              	.LFB4212:
   9:formantosc.cpp **** static Metro             tick;
  10:formantosc.cpp **** static Oscillator        lfo;
  11:formantosc.cpp **** 
  12:formantosc.cpp **** float freqs[3][2] = {{390, 2300}, {610, 1900}, {820, 1530}};
  13:formantosc.cpp **** int   idx         = 0;
  14:formantosc.cpp **** 
  15:formantosc.cpp **** static void AudioCallback(AudioHandle::InterleavingInputBuffer  in,
  16:formantosc.cpp ****                           AudioHandle::InterleavingOutputBuffer out,
ARM GAS  /tmp/ccnAz4KJ.s 			page 9


  17:formantosc.cpp ****                           size_t                                size)
  18:formantosc.cpp **** {
 148              		.loc 8 18 1 is_stmt 1 view -0
 149              		.cfi_startproc
 150              		@ args = 0, pretend = 0, frame = 0
 151              		@ frame_needed = 0, uses_anonymous_args = 0
  19:formantosc.cpp ****     for(size_t i = 0; i < size; i += 2)
 152              		.loc 8 19 5 view .LVU17
 153              	.LBB77:
 154              		.loc 8 19 25 view .LVU18
 155 0000 002A     		cmp	r2, #0
 156 0002 55D0     		beq	.L18
 157 0004 013A     		subs	r2, r2, #1
 158              	.LVL4:
 159              		.loc 8 19 25 is_stmt 0 view .LVU19
 160              	.LBE77:
  18:formantosc.cpp ****     for(size_t i = 0; i < size; i += 2)
 161              		.loc 8 18 1 view .LVU20
 162 0006 2DE9F041 		push	{r4, r5, r6, r7, r8, lr}
 163              		.cfi_def_cfa_offset 24
 164              		.cfi_offset 4, -24
 165              		.cfi_offset 5, -20
 166              		.cfi_offset 6, -16
 167              		.cfi_offset 7, -12
 168              		.cfi_offset 8, -8
 169              		.cfi_offset 14, -4
 170 000a 0C46     		mov	r4, r1
 171              	.LBB78:
 172              		.loc 8 19 16 view .LVU21
 173 000c 0026     		movs	r6, #0
 174 000e 294D     		ldr	r5, .L21
 175 0010 22F00108 		bic	r8, r2, #1
 176 0014 284F     		ldr	r7, .L21+4
 177              	.LBE78:
  18:formantosc.cpp ****     for(size_t i = 0; i < size; i += 2)
 178              		.loc 8 18 1 view .LVU22
 179 0016 2DED028B 		vpush.64	{d8}
 180              		.cfi_def_cfa_offset 32
 181              		.cfi_offset 80, -32
 182              		.cfi_offset 81, -28
 183              	.LVL5:
 184              	.L9:
 185              	.LBB79:
  20:formantosc.cpp ****     {
  21:formantosc.cpp ****         if(tick.Process())
 186              		.loc 8 21 9 is_stmt 1 view .LVU23
 187              		.loc 8 21 24 is_stmt 0 view .LVU24
 188 001a 2848     		ldr	r0, .L21+8
 189 001c FFF7FEFF 		bl	_ZN7daisysp5Metro7ProcessEv
 190              	.LVL6:
  22:formantosc.cpp ****         {
  23:formantosc.cpp ****             idx = (idx + 1) % 3;
 191              		.loc 8 23 13 is_stmt 1 view .LVU25
  24:formantosc.cpp ****         }
  25:formantosc.cpp **** 
  26:formantosc.cpp ****         form[0].SetPhaseShift(lfo.Process());
 192              		.loc 8 26 9 view .LVU26
ARM GAS  /tmp/ccnAz4KJ.s 			page 10


  21:formantosc.cpp ****         {
 193              		.loc 8 21 24 is_stmt 0 view .LVU27
 194 0020 0246     		mov	r2, r0
  23:formantosc.cpp ****         }
 195              		.loc 8 23 29 view .LVU28
 196 0022 274B     		ldr	r3, .L21+12
 197              		.loc 8 26 30 view .LVU29
 198 0024 2748     		ldr	r0, .L21+16
  21:formantosc.cpp ****         {
 199              		.loc 8 21 9 view .LVU30
 200 0026 4AB1     		cbz	r2, .L8
  23:formantosc.cpp ****         }
 201              		.loc 8 23 24 view .LVU31
 202 0028 2A68     		ldr	r2, [r5]
 203 002a 0132     		adds	r2, r2, #1
  23:formantosc.cpp ****         }
 204              		.loc 8 23 29 view .LVU32
 205 002c 83FB0213 		smull	r1, r3, r3, r2
 206 0030 A3EBE273 		sub	r3, r3, r2, asr #31
 207 0034 03EB4303 		add	r3, r3, r3, lsl #1
 208 0038 D31A     		subs	r3, r2, r3
  23:formantosc.cpp ****         }
 209              		.loc 8 23 17 view .LVU33
 210 003a 2B60     		str	r3, [r5]
 211              	.L8:
 212              		.loc 8 26 30 discriminator 2 view .LVU34
 213 003c FFF7FEFF 		bl	_ZN7daisysp10Oscillator7ProcessEv
 214              	.LVL7:
 215 0040 2148     		ldr	r0, .L21+20
 216 0042 FFF7FEFF 		bl	_ZN7daisysp17FormantOscillator13SetPhaseShiftEf
 217              	.LVL8:
  27:formantosc.cpp ****         form[1].SetPhaseShift(lfo.Process());
 218              		.loc 8 27 9 is_stmt 1 discriminator 2 view .LVU35
 219              		.loc 8 27 30 is_stmt 0 discriminator 2 view .LVU36
 220 0046 1F48     		ldr	r0, .L21+16
 221 0048 FFF7FEFF 		bl	_ZN7daisysp10Oscillator7ProcessEv
 222              	.LVL9:
 223 004c 1F48     		ldr	r0, .L21+24
 224 004e FFF7FEFF 		bl	_ZN7daisysp17FormantOscillator13SetPhaseShiftEf
 225              	.LVL10:
  28:formantosc.cpp **** 
  29:formantosc.cpp ****         form[0].SetFormantFreq(freqs[idx][0]);
 226              		.loc 8 29 9 is_stmt 1 discriminator 2 view .LVU37
 227              		.loc 8 29 31 is_stmt 0 discriminator 2 view .LVU38
 228 0052 2B68     		ldr	r3, [r5]
 229 0054 1C48     		ldr	r0, .L21+20
 230 0056 07EBC303 		add	r3, r7, r3, lsl #3
 231 005a 93ED000A 		vldr.32	s0, [r3]
 232 005e FFF7FEFF 		bl	_ZN7daisysp17FormantOscillator14SetFormantFreqEf
 233              	.LVL11:
  30:formantosc.cpp ****         form[1].SetFormantFreq(freqs[idx][1]);
 234              		.loc 8 30 9 is_stmt 1 discriminator 2 view .LVU39
 235              		.loc 8 30 31 is_stmt 0 discriminator 2 view .LVU40
 236 0062 2B68     		ldr	r3, [r5]
 237 0064 1948     		ldr	r0, .L21+24
 238 0066 07EBC303 		add	r3, r7, r3, lsl #3
 239 006a 93ED010A 		vldr.32	s0, [r3, #4]
ARM GAS  /tmp/ccnAz4KJ.s 			page 11


 240 006e FFF7FEFF 		bl	_ZN7daisysp17FormantOscillator14SetFormantFreqEf
 241              	.LVL12:
  31:formantosc.cpp ****         out[i] = out[i + 1]
 242              		.loc 8 31 9 is_stmt 1 discriminator 2 view .LVU41
  32:formantosc.cpp ****             = (form[0].Process() * .6f + form[1].Process() * .4f);
 243              		.loc 8 32 31 is_stmt 0 discriminator 2 view .LVU42
 244 0072 1548     		ldr	r0, .L21+20
 245 0074 FFF7FEFF 		bl	_ZN7daisysp17FormantOscillator7ProcessEv
 246              	.LVL13:
 247              		.loc 8 32 57 discriminator 2 view .LVU43
 248 0078 1448     		ldr	r0, .L21+24
 249              		.loc 8 32 31 discriminator 2 view .LVU44
 250 007a B0EE408A 		vmov.f32	s16, s0
 251              		.loc 8 32 57 discriminator 2 view .LVU45
 252 007e FFF7FEFF 		bl	_ZN7daisysp17FormantOscillator7ProcessEv
 253              	.LVL14:
 254              		.loc 8 32 60 discriminator 2 view .LVU46
 255 0082 DFED137A 		vldr.32	s15, .L21+28
  31:formantosc.cpp ****         out[i] = out[i + 1]
 256              		.loc 8 31 16 discriminator 2 view .LVU47
 257 0086 2246     		mov	r2, r4
 258              		.loc 8 32 40 discriminator 2 view .LVU48
 259 0088 9FED127A 		vldr.32	s14, .L21+32
  19:formantosc.cpp ****     {
 260              		.loc 8 19 35 discriminator 2 view .LVU49
 261 008c B31C     		adds	r3, r6, #2
 262              		.loc 8 32 60 discriminator 2 view .LVU50
 263 008e 60EE277A 		vmul.f32	s15, s0, s15
  19:formantosc.cpp ****     {
 264              		.loc 8 19 25 discriminator 2 view .LVU51
 265 0092 4645     		cmp	r6, r8
  31:formantosc.cpp ****         out[i] = out[i + 1]
 266              		.loc 8 31 16 discriminator 2 view .LVU52
 267 0094 04F10804 		add	r4, r4, #8
 268 0098 1E46     		mov	r6, r3
 269              	.LVL15:
 270              		.loc 8 32 40 discriminator 2 view .LVU53
 271 009a E8EE077A 		vfma.f32	s15, s16, s14
 272              		.loc 8 32 13 discriminator 2 view .LVU54
 273 009e 44ED017A 		vstr.32	s15, [r4, #-4]
  31:formantosc.cpp ****         out[i] = out[i + 1]
 274              		.loc 8 31 16 discriminator 2 view .LVU55
 275 00a2 C2ED007A 		vstr.32	s15, [r2]
  19:formantosc.cpp ****     {
 276              		.loc 8 19 5 is_stmt 1 discriminator 2 view .LVU56
 277              	.LVL16:
  19:formantosc.cpp ****     {
 278              		.loc 8 19 25 discriminator 2 view .LVU57
 279 00a6 B8D1     		bne	.L9
 280              	.LBE79:
  33:formantosc.cpp ****     }
  34:formantosc.cpp **** }
 281              		.loc 8 34 1 is_stmt 0 view .LVU58
 282 00a8 BDEC028B 		vldm	sp!, {d8}
 283              		.cfi_restore 80
 284              		.cfi_restore 81
 285              		.cfi_def_cfa_offset 24
ARM GAS  /tmp/ccnAz4KJ.s 			page 12


 286 00ac BDE8F081 		pop	{r4, r5, r6, r7, r8, pc}
 287              	.LVL17:
 288              	.L18:
 289              		.cfi_def_cfa_offset 0
 290              		.cfi_restore 4
 291              		.cfi_restore 5
 292              		.cfi_restore 6
 293              		.cfi_restore 7
 294              		.cfi_restore 8
 295              		.cfi_restore 14
 296              		.loc 8 34 1 view .LVU59
 297 00b0 7047     		bx	lr
 298              	.L22:
 299 00b2 00BF     		.align	2
 300              	.L21:
 301 00b4 00000000 		.word	.LANCHOR1
 302 00b8 00000000 		.word	.LANCHOR4
 303 00bc 00000000 		.word	.LANCHOR0
 304 00c0 56555555 		.word	1431655766
 305 00c4 00000000 		.word	.LANCHOR2
 306 00c8 00000000 		.word	.LANCHOR3
 307 00cc 20000000 		.word	.LANCHOR3+32
 308 00d0 CDCCCC3E 		.word	1053609165
 309 00d4 9A99193F 		.word	1058642330
 310              		.cfi_endproc
 311              	.LFE4212:
 313              		.section	.text.startup.main,"ax",%progbits
 314              		.align	1
 315              		.p2align 2,,3
 316              		.global	main
 317              		.syntax unified
 318              		.thumb
 319              		.thumb_func
 320              		.fpu fpv5-d16
 322              	main:
 323              	.LFB4213:
  35:formantosc.cpp **** 
  36:formantosc.cpp **** int main(void)
  37:formantosc.cpp **** {
 324              		.loc 8 37 1 is_stmt 1 view -0
 325              		.cfi_startproc
 326              		@ args = 0, pretend = 0, frame = 0
 327              		@ frame_needed = 0, uses_anonymous_args = 0
  38:formantosc.cpp ****     // initialize seed hardware and oscillator daisysp module
  39:formantosc.cpp ****     float sample_rate;
 328              		.loc 8 39 5 view .LVU61
  40:formantosc.cpp ****     seed.Configure();
 329              		.loc 8 40 5 view .LVU62
  37:formantosc.cpp ****     // initialize seed hardware and oscillator daisysp module
 330              		.loc 8 37 1 is_stmt 0 view .LVU63
 331 0000 10B5     		push	{r4, lr}
 332              		.cfi_def_cfa_offset 8
 333              		.cfi_offset 4, -8
 334              		.cfi_offset 14, -4
 335              		.loc 8 40 19 view .LVU64
 336 0002 2B48     		ldr	r0, .L26
 337              	.LBB80:
ARM GAS  /tmp/ccnAz4KJ.s 			page 13


 338              	.LBB81:
  17:../../DaisySP/Source/Synthesis/oscillator.h ****     /** Choices for output waveforms, POLYBLEP are appropriately labeled. Others are naive forms.
  18:../../DaisySP/Source/Synthesis/oscillator.h ****     */
  19:../../DaisySP/Source/Synthesis/oscillator.h ****     enum
  20:../../DaisySP/Source/Synthesis/oscillator.h ****     {
  21:../../DaisySP/Source/Synthesis/oscillator.h ****         WAVE_SIN,
  22:../../DaisySP/Source/Synthesis/oscillator.h ****         WAVE_TRI,
  23:../../DaisySP/Source/Synthesis/oscillator.h ****         WAVE_SAW,
  24:../../DaisySP/Source/Synthesis/oscillator.h ****         WAVE_RAMP,
  25:../../DaisySP/Source/Synthesis/oscillator.h ****         WAVE_SQUARE,
  26:../../DaisySP/Source/Synthesis/oscillator.h ****         WAVE_POLYBLEP_TRI,
  27:../../DaisySP/Source/Synthesis/oscillator.h ****         WAVE_POLYBLEP_SAW,
  28:../../DaisySP/Source/Synthesis/oscillator.h ****         WAVE_POLYBLEP_SQUARE,
  29:../../DaisySP/Source/Synthesis/oscillator.h ****         WAVE_LAST,
  30:../../DaisySP/Source/Synthesis/oscillator.h ****     };
  31:../../DaisySP/Source/Synthesis/oscillator.h **** 
  32:../../DaisySP/Source/Synthesis/oscillator.h **** 
  33:../../DaisySP/Source/Synthesis/oscillator.h ****     /** Initializes the Oscillator
  34:../../DaisySP/Source/Synthesis/oscillator.h **** 
  35:../../DaisySP/Source/Synthesis/oscillator.h ****         \param sample_rate - sample rate of the audio engine being run, and the frequency that the 
  36:../../DaisySP/Source/Synthesis/oscillator.h **** 
  37:../../DaisySP/Source/Synthesis/oscillator.h ****         Defaults:
  38:../../DaisySP/Source/Synthesis/oscillator.h ****         - freq_ = 100 Hz
  39:../../DaisySP/Source/Synthesis/oscillator.h ****         - amp_ = 0.5
  40:../../DaisySP/Source/Synthesis/oscillator.h ****         - waveform_ = sine wave.
  41:../../DaisySP/Source/Synthesis/oscillator.h ****     */
  42:../../DaisySP/Source/Synthesis/oscillator.h ****     void Init(float sample_rate)
  43:../../DaisySP/Source/Synthesis/oscillator.h ****     {
  44:../../DaisySP/Source/Synthesis/oscillator.h ****         sr_        = sample_rate;
 339              		.loc 1 44 20 view .LVU65
 340 0004 2B4C     		ldr	r4, .L26+4
 341              	.LBE81:
 342              	.LBE80:
  37:formantosc.cpp ****     // initialize seed hardware and oscillator daisysp module
 343              		.loc 8 37 1 view .LVU66
 344 0006 2DED028B 		vpush.64	{d8}
 345              		.cfi_def_cfa_offset 16
 346              		.cfi_offset 80, -16
 347              		.cfi_offset 81, -12
 348              		.loc 8 40 19 view .LVU67
 349 000a FFF7FEFF 		bl	_ZN5daisy9DaisySeed9ConfigureEv
 350              	.LVL18:
  41:formantosc.cpp ****     seed.Init();
 351              		.loc 8 41 5 is_stmt 1 view .LVU68
 352              		.loc 8 41 14 is_stmt 0 view .LVU69
 353 000e 0021     		movs	r1, #0
 354 0010 2748     		ldr	r0, .L26
 355              	.LBB85:
 356              	.LBB82:
  45:../../DaisySP/Source/Synthesis/oscillator.h ****         sr_recip_  = 1.0f / sample_rate;
 357              		.loc 1 45 27 view .LVU70
 358 0012 F7EE008A 		vmov.f32	s17, #1.0e+0
 359              	.LBE82:
 360              	.LBE85:
 361              		.loc 8 41 14 view .LVU71
 362 0016 FFF7FEFF 		bl	_ZN5daisy9DaisySeed4InitEb
 363              	.LVL19:
ARM GAS  /tmp/ccnAz4KJ.s 			page 14


  42:formantosc.cpp ****     sample_rate = seed.AudioSampleRate();
 364              		.loc 8 42 5 is_stmt 1 view .LVU72
 365              		.loc 8 42 39 is_stmt 0 view .LVU73
 366 001a 2548     		ldr	r0, .L26
 367 001c FFF7FEFF 		bl	_ZN5daisy9DaisySeed15AudioSampleRateEv
 368              	.LVL20:
 369 0020 B0EE408A 		vmov.f32	s16, s0
 370              	.LVL21:
  43:formantosc.cpp **** 
  44:formantosc.cpp ****     form[0].Init(sample_rate);
 371              		.loc 8 44 5 is_stmt 1 view .LVU74
 372              		.loc 8 44 17 is_stmt 0 view .LVU75
 373 0024 2448     		ldr	r0, .L26+8
 374 0026 FFF7FEFF 		bl	_ZN7daisysp17FormantOscillator4InitEf
 375              	.LVL22:
  45:formantosc.cpp ****     form[0].SetCarrierFreq(200.f);
 376              		.loc 8 45 5 is_stmt 1 view .LVU76
 377              		.loc 8 45 27 is_stmt 0 view .LVU77
 378 002a 9FED240A 		vldr.32	s0, .L26+12
 379 002e 2248     		ldr	r0, .L26+8
 380 0030 FFF7FEFF 		bl	_ZN7daisysp17FormantOscillator14SetCarrierFreqEf
 381              	.LVL23:
  46:formantosc.cpp **** 
  47:formantosc.cpp ****     form[1].Init(sample_rate);
 382              		.loc 8 47 5 is_stmt 1 view .LVU78
 383              		.loc 8 47 17 is_stmt 0 view .LVU79
 384 0034 B0EE480A 		vmov.f32	s0, s16
 385 0038 2148     		ldr	r0, .L26+16
 386 003a FFF7FEFF 		bl	_ZN7daisysp17FormantOscillator4InitEf
 387              	.LVL24:
  48:formantosc.cpp ****     form[1].SetCarrierFreq(200.f);
 388              		.loc 8 48 5 is_stmt 1 view .LVU80
 389              		.loc 8 48 27 is_stmt 0 view .LVU81
 390 003e 9FED1F0A 		vldr.32	s0, .L26+12
 391 0042 1F48     		ldr	r0, .L26+16
 392 0044 FFF7FEFF 		bl	_ZN7daisysp17FormantOscillator14SetCarrierFreqEf
 393              	.LVL25:
  49:formantosc.cpp **** 
  50:formantosc.cpp ****     lfo.Init(sample_rate);
 394              		.loc 8 50 5 is_stmt 1 view .LVU82
 395              	.LBB86:
 396              	.LBI80:
  42:../../DaisySP/Source/Synthesis/oscillator.h ****     {
 397              		.loc 1 42 10 view .LVU83
 398              	.LBB83:
  44:../../DaisySP/Source/Synthesis/oscillator.h ****         sr_recip_  = 1.0f / sample_rate;
 399              		.loc 1 44 9 view .LVU84
 400              		.loc 1 45 27 is_stmt 0 view .LVU85
 401 0048 C8EE887A 		vdiv.f32	s15, s17, s16
  46:../../DaisySP/Source/Synthesis/oscillator.h ****         freq_      = 100.0f;
  47:../../DaisySP/Source/Synthesis/oscillator.h ****         amp_       = 0.5f;
  48:../../DaisySP/Source/Synthesis/oscillator.h ****         phase_     = 0.0f;
 402              		.loc 1 48 20 view .LVU86
 403 004c 0022     		movs	r2, #0
  47:../../DaisySP/Source/Synthesis/oscillator.h ****         phase_     = 0.0f;
 404              		.loc 1 47 20 view .LVU87
 405 004e 4FF07C53 		mov	r3, #1056964608
ARM GAS  /tmp/ccnAz4KJ.s 			page 15


  46:../../DaisySP/Source/Synthesis/oscillator.h ****         freq_      = 100.0f;
 406              		.loc 1 46 20 view .LVU88
 407 0052 9FED1C0A 		vldr.32	s0, .L26+20
  49:../../DaisySP/Source/Synthesis/oscillator.h ****         phase_inc_ = CalcPhaseInc(freq_);
 408              		.loc 1 49 34 view .LVU89
 409 0056 2046     		mov	r0, r4
  48:../../DaisySP/Source/Synthesis/oscillator.h ****         phase_inc_ = CalcPhaseInc(freq_);
 410              		.loc 1 48 20 view .LVU90
 411 0058 6261     		str	r2, [r4, #20]	@ float
  47:../../DaisySP/Source/Synthesis/oscillator.h ****         phase_     = 0.0f;
 412              		.loc 1 47 20 view .LVU91
 413 005a 6360     		str	r3, [r4, #4]	@ float
  44:../../DaisySP/Source/Synthesis/oscillator.h ****         sr_recip_  = 1.0f / sample_rate;
 414              		.loc 1 44 20 view .LVU92
 415 005c 84ED038A 		vstr.32	s16, [r4, #12]
  45:../../DaisySP/Source/Synthesis/oscillator.h ****         freq_      = 100.0f;
 416              		.loc 1 45 9 is_stmt 1 view .LVU93
  46:../../DaisySP/Source/Synthesis/oscillator.h ****         amp_       = 0.5f;
 417              		.loc 1 46 20 is_stmt 0 view .LVU94
 418 0060 84ED020A 		vstr.32	s0, [r4, #8]
  45:../../DaisySP/Source/Synthesis/oscillator.h ****         freq_      = 100.0f;
 419              		.loc 1 45 20 view .LVU95
 420 0064 C4ED047A 		vstr.32	s15, [r4, #16]
  46:../../DaisySP/Source/Synthesis/oscillator.h ****         amp_       = 0.5f;
 421              		.loc 1 46 9 is_stmt 1 view .LVU96
  47:../../DaisySP/Source/Synthesis/oscillator.h ****         phase_     = 0.0f;
 422              		.loc 1 47 9 view .LVU97
  48:../../DaisySP/Source/Synthesis/oscillator.h ****         phase_inc_ = CalcPhaseInc(freq_);
 423              		.loc 1 48 9 view .LVU98
 424              		.loc 1 49 9 view .LVU99
 425              		.loc 1 49 34 is_stmt 0 view .LVU100
 426 0068 FFF7FEFF 		bl	_ZN7daisysp10Oscillator12CalcPhaseIncEf
 427              	.LVL26:
 428 006c F0EE407A 		vmov.f32	s15, s0
  50:../../DaisySP/Source/Synthesis/oscillator.h ****         waveform_  = WAVE_SIN;
 429              		.loc 1 50 20 view .LVU101
 430 0070 0022     		movs	r2, #0
  51:../../DaisySP/Source/Synthesis/oscillator.h ****         eoc_       = true;
  52:../../DaisySP/Source/Synthesis/oscillator.h ****         eor_       = true;
 431              		.loc 1 52 20 view .LVU102
 432 0072 40F20113 		movw	r3, #257
 433              	.LBE83:
 434              	.LBE86:
 435              	.LBB87:
 436              	.LBB88:
  53:../../DaisySP/Source/Synthesis/oscillator.h ****     }
  54:../../DaisySP/Source/Synthesis/oscillator.h **** 
  55:../../DaisySP/Source/Synthesis/oscillator.h **** 
  56:../../DaisySP/Source/Synthesis/oscillator.h ****     /** Changes the frequency of the Oscillator, and recalculates phase increment.
  57:../../DaisySP/Source/Synthesis/oscillator.h ****     */
  58:../../DaisySP/Source/Synthesis/oscillator.h ****     inline void SetFreq(const float f)
  59:../../DaisySP/Source/Synthesis/oscillator.h ****     {
  60:../../DaisySP/Source/Synthesis/oscillator.h ****         freq_      = f;
 437              		.loc 1 60 20 view .LVU103
 438 0076 9FED140A 		vldr.32	s0, .L26+24
  61:../../DaisySP/Source/Synthesis/oscillator.h ****         phase_inc_ = CalcPhaseInc(f);
 439              		.loc 1 61 34 view .LVU104
ARM GAS  /tmp/ccnAz4KJ.s 			page 16


 440 007a 2046     		mov	r0, r4
 441              	.LBE88:
 442              	.LBE87:
 443              	.LBB92:
 444              	.LBB84:
  50:../../DaisySP/Source/Synthesis/oscillator.h ****         eoc_       = true;
 445              		.loc 1 50 20 view .LVU105
 446 007c 2270     		strb	r2, [r4]
  49:../../DaisySP/Source/Synthesis/oscillator.h ****         waveform_  = WAVE_SIN;
 447              		.loc 1 49 20 view .LVU106
 448 007e C4ED067A 		vstr.32	s15, [r4, #24]
  50:../../DaisySP/Source/Synthesis/oscillator.h ****         eoc_       = true;
 449              		.loc 1 50 9 is_stmt 1 view .LVU107
  51:../../DaisySP/Source/Synthesis/oscillator.h ****         eor_       = true;
 450              		.loc 1 51 9 view .LVU108
  52:../../DaisySP/Source/Synthesis/oscillator.h ****     }
 451              		.loc 1 52 9 view .LVU109
  52:../../DaisySP/Source/Synthesis/oscillator.h ****     }
 452              		.loc 1 52 20 is_stmt 0 view .LVU110
 453 0082 A384     		strh	r3, [r4, #36]	@ movhi
 454              	.LVL27:
  52:../../DaisySP/Source/Synthesis/oscillator.h ****     }
 455              		.loc 1 52 20 view .LVU111
 456              	.LBE84:
 457              	.LBE92:
  51:formantosc.cpp ****     lfo.SetAmp(1.f);
 458              		.loc 8 51 5 is_stmt 1 view .LVU112
 459              	.LBB93:
 460              	.LBI93:
  62:../../DaisySP/Source/Synthesis/oscillator.h ****     }
  63:../../DaisySP/Source/Synthesis/oscillator.h **** 
  64:../../DaisySP/Source/Synthesis/oscillator.h **** 
  65:../../DaisySP/Source/Synthesis/oscillator.h ****     /** Sets the amplitude of the waveform.
  66:../../DaisySP/Source/Synthesis/oscillator.h ****     */
  67:../../DaisySP/Source/Synthesis/oscillator.h ****     inline void SetAmp(const float a) { amp_ = a; }
 461              		.loc 1 67 17 view .LVU113
 462              	.LBB94:
 463              		.loc 1 67 41 view .LVU114
 464              		.loc 1 67 41 is_stmt 0 view .LVU115
 465              	.LBE94:
 466              	.LBE93:
  52:formantosc.cpp ****     lfo.SetFreq(.2f);
 467              		.loc 8 52 5 is_stmt 1 view .LVU116
 468              	.LBB96:
 469              	.LBI87:
  58:../../DaisySP/Source/Synthesis/oscillator.h ****     {
 470              		.loc 1 58 17 view .LVU117
 471              	.LBB89:
  60:../../DaisySP/Source/Synthesis/oscillator.h ****         phase_inc_ = CalcPhaseInc(f);
 472              		.loc 1 60 9 view .LVU118
 473              	.LBE89:
 474              	.LBE96:
 475              	.LBB97:
 476              	.LBB95:
 477              		.loc 1 67 46 is_stmt 0 view .LVU119
 478 0084 C4ED018A 		vstr.32	s17, [r4, #4]
 479              	.LBE95:
ARM GAS  /tmp/ccnAz4KJ.s 			page 17


 480              	.LBE97:
 481              	.LBB98:
 482              	.LBB90:
  60:../../DaisySP/Source/Synthesis/oscillator.h ****         phase_inc_ = CalcPhaseInc(f);
 483              		.loc 1 60 20 view .LVU120
 484 0088 84ED020A 		vstr.32	s0, [r4, #8]
  61:../../DaisySP/Source/Synthesis/oscillator.h ****     }
 485              		.loc 1 61 9 is_stmt 1 view .LVU121
  61:../../DaisySP/Source/Synthesis/oscillator.h ****     }
 486              		.loc 1 61 34 is_stmt 0 view .LVU122
 487 008c FFF7FEFF 		bl	_ZN7daisysp10Oscillator12CalcPhaseIncEf
 488              	.LVL28:
 489 0090 F0EE407A 		vmov.f32	s15, s0
 490              	.LBE90:
 491              	.LBE98:
  53:formantosc.cpp **** 
  54:formantosc.cpp ****     tick.Init(1.f, sample_rate);
 492              		.loc 8 54 14 view .LVU123
 493 0094 0D48     		ldr	r0, .L26+28
 494 0096 F0EE480A 		vmov.f32	s1, s16
 495 009a B0EE680A 		vmov.f32	s0, s17
 496              	.LBB99:
 497              	.LBB91:
  61:../../DaisySP/Source/Synthesis/oscillator.h ****     }
 498              		.loc 1 61 20 view .LVU124
 499 009e C4ED067A 		vstr.32	s15, [r4, #24]
 500              	.LVL29:
  61:../../DaisySP/Source/Synthesis/oscillator.h ****     }
 501              		.loc 1 61 20 view .LVU125
 502              	.LBE91:
 503              	.LBE99:
 504              		.loc 8 54 5 is_stmt 1 view .LVU126
 505              		.loc 8 54 14 is_stmt 0 view .LVU127
 506 00a2 FFF7FEFF 		bl	_ZN7daisysp5Metro4InitEff
 507              	.LVL30:
  55:formantosc.cpp **** 
  56:formantosc.cpp ****     // start callback
  57:formantosc.cpp ****     seed.StartAudio(AudioCallback);
 508              		.loc 8 57 5 is_stmt 1 view .LVU128
 509              		.loc 8 57 20 is_stmt 0 view .LVU129
 510 00a6 0A49     		ldr	r1, .L26+32
 511 00a8 0148     		ldr	r0, .L26
 512 00aa FFF7FEFF 		bl	_ZN5daisy9DaisySeed10StartAudioEPFvPKfPfjE
 513              	.LVL31:
 514              	.L24:
  58:formantosc.cpp **** 
  59:formantosc.cpp ****     while(1) {}
 515              		.loc 8 59 5 is_stmt 1 discriminator 1 view .LVU130
 516              		.loc 8 59 5 discriminator 1 view .LVU131
 517              		.loc 8 59 5 discriminator 1 view .LVU132
 518              		.loc 8 59 5 discriminator 1 view .LVU133
 519 00ae FEE7     		b	.L24
 520              	.L27:
 521              		.align	2
 522              	.L26:
 523 00b0 00000000 		.word	.LANCHOR5
 524 00b4 00000000 		.word	.LANCHOR2
ARM GAS  /tmp/ccnAz4KJ.s 			page 18


 525 00b8 00000000 		.word	.LANCHOR3
 526 00bc 00004843 		.word	1128792064
 527 00c0 20000000 		.word	.LANCHOR3+32
 528 00c4 0000C842 		.word	1120403456
 529 00c8 CDCC4C3E 		.word	1045220557
 530 00cc 00000000 		.word	.LANCHOR0
 531 00d0 00000000 		.word	_ZL13AudioCallbackPKfPfj
 532              		.cfi_endproc
 533              	.LFE4213:
 535              		.section	.text.startup._GLOBAL__sub_I_freqs,"ax",%progbits
 536              		.align	1
 537              		.p2align 2,,3
 538              		.syntax unified
 539              		.thumb
 540              		.thumb_func
 541              		.fpu fpv5-d16
 543              	_GLOBAL__sub_I_freqs:
 544              	.LFB4760:
  60:formantosc.cpp **** }
 545              		.loc 8 60 1 view -0
 546              		.cfi_startproc
 547              		@ args = 0, pretend = 0, frame = 0
 548              		@ frame_needed = 0, uses_anonymous_args = 0
 549              	.LBB120:
 550              	.LBI120:
 551              		.loc 8 60 1 view .LVU135
 552              	.LVL32:
 553              	.LBB121:
 554              	.LBB122:
 555              	.LBI122:
  21:../../libdaisy/src/daisy_seed.h ****     ~DaisySeed() {}
 556              		.loc 3 21 5 view .LVU136
 557              	.LBB123:
 558              	.LBB124:
 559              	.LBI124:
  62:../../libdaisy/src/hid/audio.h ****     ~AudioHandle() {}
 560              		.loc 7 62 5 view .LVU137
 561              	.LBE124:
 562              	.LBE123:
 563              	.LBE122:
 564              	.LBE121:
 565              	.LBE120:
 566              		.loc 8 60 1 is_stmt 0 view .LVU138
 567 0000 10B5     		push	{r4, lr}
 568              		.cfi_def_cfa_offset 8
 569              		.cfi_offset 4, -8
 570              		.cfi_offset 14, -4
 571              	.LBB145:
 572              	.LBB143:
 573              	.LBB139:
 574              	.LBB137:
 575              	.LBB129:
 576              	.LBB125:
 577              	.LBB126:
  62:../../libdaisy/src/hid/audio.h ****     ~AudioHandle() {}
 578              		.loc 7 62 35 view .LVU139
 579 0002 0C48     		ldr	r0, .L30
ARM GAS  /tmp/ccnAz4KJ.s 			page 19


 580 0004 0024     		movs	r4, #0
 581              	.LBE126:
 582              	.LBE125:
 583              	.LBE129:
 584              	.LBE137:
 585              	.LBE139:
   7:formantosc.cpp **** static FormantOscillator form[2];
 586              		.loc 8 7 26 view .LVU140
 587 0006 0C4A     		ldr	r2, .L30+4
 588 0008 0C49     		ldr	r1, .L30+8
 589              	.LBB140:
 590              	.LBB138:
 591              	.LBB130:
 592              	.LBB128:
 593              	.LBB127:
  62:../../libdaisy/src/hid/audio.h ****     ~AudioHandle() {}
 594              		.loc 7 62 35 view .LVU141
 595 000a 4461     		str	r4, [r0, #20]
 596              	.LVL33:
  62:../../libdaisy/src/hid/audio.h ****     ~AudioHandle() {}
 597              		.loc 7 62 35 view .LVU142
 598              	.LBE127:
 599              	.LBE128:
 600              	.LBE130:
 601              	.LBB131:
 602              	.LBI131:
  84:../../libdaisy/src/per/adc.h ****     ~AdcHandle() {}
 603              		.loc 6 84 5 is_stmt 1 view .LVU143
  84:../../libdaisy/src/per/adc.h ****     ~AdcHandle() {}
 604              		.loc 6 84 5 is_stmt 0 view .LVU144
 605              	.LBE131:
 606              	.LBB132:
 607              	.LBI132:
 608              		.file 9 "../../libdaisy/src/per/dac.h"
   1:../../libdaisy/src/per/dac.h **** #pragma once
   2:../../libdaisy/src/per/dac.h **** #ifndef DSY_DAC_H
   3:../../libdaisy/src/per/dac.h **** #define DSY_DAC_H
   4:../../libdaisy/src/per/dac.h **** 
   5:../../libdaisy/src/per/dac.h **** #include "daisy_core.h"
   6:../../libdaisy/src/per/dac.h **** 
   7:../../libdaisy/src/per/dac.h **** namespace daisy
   8:../../libdaisy/src/per/dac.h **** {
   9:../../libdaisy/src/per/dac.h **** /** DAC handle for Built-in DAC Peripheral 
  10:../../libdaisy/src/per/dac.h ****  ** 
  11:../../libdaisy/src/per/dac.h ****  ** For now only Normal Mode is supported,
  12:../../libdaisy/src/per/dac.h ****  ** Sample and hold mode provides reduced power consumption, but requires a bit more setup.
  13:../../libdaisy/src/per/dac.h ****  **
  14:../../libdaisy/src/per/dac.h ****  ** For now connecting the DAC through other internal periphearls is also not supported.
  15:../../libdaisy/src/per/dac.h ****  **
  16:../../libdaisy/src/per/dac.h ****  ** Since the DAC channels have dedicated pins we don't need to pass in a pin config like with
  17:../../libdaisy/src/per/dac.h ****  ** other modules. However, it is still important to not try to use the DAC pins for anything else.
  18:../../libdaisy/src/per/dac.h ****  ** DAC Channel 1 is on PA4, and DAC Channel 2 is on PA5
  19:../../libdaisy/src/per/dac.h ****  ***/
  20:../../libdaisy/src/per/dac.h **** class DacHandle
  21:../../libdaisy/src/per/dac.h **** {
  22:../../libdaisy/src/per/dac.h ****   public:
  23:../../libdaisy/src/per/dac.h ****     /** Return Values for the DacHandle class */
ARM GAS  /tmp/ccnAz4KJ.s 			page 20


  24:../../libdaisy/src/per/dac.h ****     enum class Result
  25:../../libdaisy/src/per/dac.h ****     {
  26:../../libdaisy/src/per/dac.h ****         OK,
  27:../../libdaisy/src/per/dac.h ****         ERR,
  28:../../libdaisy/src/per/dac.h ****     };
  29:../../libdaisy/src/per/dac.h **** 
  30:../../libdaisy/src/per/dac.h ****     /** Selects which channel(s) will be configured for use. */
  31:../../libdaisy/src/per/dac.h ****     enum class Channel
  32:../../libdaisy/src/per/dac.h ****     {
  33:../../libdaisy/src/per/dac.h ****         ONE,
  34:../../libdaisy/src/per/dac.h ****         TWO,
  35:../../libdaisy/src/per/dac.h ****         BOTH,
  36:../../libdaisy/src/per/dac.h ****     };
  37:../../libdaisy/src/per/dac.h **** 
  38:../../libdaisy/src/per/dac.h ****     /** Sets the Mode for the DAC channels.
  39:../../libdaisy/src/per/dac.h ****      **
  40:../../libdaisy/src/per/dac.h ****      ** Polling mode uses the blocking mode to transmit a single value at a time.
  41:../../libdaisy/src/per/dac.h ****      **
  42:../../libdaisy/src/per/dac.h ****      ** DMA mode uses a buffer, and periodically transmits it triggering a 
  43:../../libdaisy/src/per/dac.h ****      ** callback to fill the buffer when it is ready for more samples.
  44:../../libdaisy/src/per/dac.h ****      ***/
  45:../../libdaisy/src/per/dac.h ****     enum class Mode
  46:../../libdaisy/src/per/dac.h ****     {
  47:../../libdaisy/src/per/dac.h ****         POLLING,
  48:../../libdaisy/src/per/dac.h ****         DMA,
  49:../../libdaisy/src/per/dac.h ****     };
  50:../../libdaisy/src/per/dac.h **** 
  51:../../libdaisy/src/per/dac.h ****     /** Sets the number of bits per sample transmitted out of the DAC.
  52:../../libdaisy/src/per/dac.h ****      ** The output range will be: 0V - VDDA
  53:../../libdaisy/src/per/dac.h ****      ** The resolution will be roughly: bitdepth / (VDDA - 0V) 
  54:../../libdaisy/src/per/dac.h ****      ***/
  55:../../libdaisy/src/per/dac.h ****     enum class BitDepth
  56:../../libdaisy/src/per/dac.h ****     {
  57:../../libdaisy/src/per/dac.h ****         BITS_8,
  58:../../libdaisy/src/per/dac.h ****         BITS_12
  59:../../libdaisy/src/per/dac.h ****     };
  60:../../libdaisy/src/per/dac.h **** 
  61:../../libdaisy/src/per/dac.h ****     /** Sets whether the DAC output is buffered for higher drive ability. */
  62:../../libdaisy/src/per/dac.h ****     enum class BufferState
  63:../../libdaisy/src/per/dac.h ****     {
  64:../../libdaisy/src/per/dac.h ****         ENABLED,
  65:../../libdaisy/src/per/dac.h ****         DISABLED,
  66:../../libdaisy/src/per/dac.h ****     };
  67:../../libdaisy/src/per/dac.h **** 
  68:../../libdaisy/src/per/dac.h ****     /** Configuration structure for initializing the DAC structure. */
  69:../../libdaisy/src/per/dac.h ****     struct Config
  70:../../libdaisy/src/per/dac.h ****     {
  71:../../libdaisy/src/per/dac.h ****         /** Target Samplerate in Hz used to configure the internal 
  72:../../libdaisy/src/per/dac.h ****          ** timebase for DMA mode. Does nothing in POLLING mode.
  73:../../libdaisy/src/per/dac.h ****          ** If the value is 0 at Init time this will default to 48000Hz 
  74:../../libdaisy/src/per/dac.h ****          ** otherwise the driver will attempt meet the target.*/
  75:../../libdaisy/src/per/dac.h ****         uint32_t target_samplerate;
  76:../../libdaisy/src/per/dac.h **** 
  77:../../libdaisy/src/per/dac.h ****         Channel     chn;
  78:../../libdaisy/src/per/dac.h ****         Mode        mode;
  79:../../libdaisy/src/per/dac.h ****         BitDepth    bitdepth;
  80:../../libdaisy/src/per/dac.h ****         BufferState buff_state;
ARM GAS  /tmp/ccnAz4KJ.s 			page 21


  81:../../libdaisy/src/per/dac.h ****     };
  82:../../libdaisy/src/per/dac.h **** 
  83:../../libdaisy/src/per/dac.h ****     DacHandle() : pimpl_(nullptr) {}
 609              		.loc 9 83 5 is_stmt 1 view .LVU145
 610              	.LBB133:
 611              	.LBB134:
 612              		.loc 9 83 33 is_stmt 0 view .LVU146
 613 000c 0462     		str	r4, [r0, #32]
 614              	.LVL34:
 615              		.loc 9 83 33 view .LVU147
 616              	.LBE134:
 617              	.LBE133:
 618              	.LBE132:
 619              	.LBB135:
 620              	.LBI135:
  40:../../libdaisy/src/hid/usb.h **** 
 621              		.loc 5 40 5 is_stmt 1 view .LVU148
  40:../../libdaisy/src/hid/usb.h **** 
 622              		.loc 5 40 5 is_stmt 0 view .LVU149
 623              	.LBE135:
 624              	.LBB136:
 625              	.LBI136:
  58:../../libdaisy/src/sys/system.h ****     ~System() {}
 626              		.loc 4 58 5 is_stmt 1 view .LVU150
  58:../../libdaisy/src/sys/system.h ****     ~System() {}
 627              		.loc 4 58 5 is_stmt 0 view .LVU151
 628              	.LBE136:
 629              	.LBE138:
 630              	.LBE140:
   7:formantosc.cpp **** static FormantOscillator form[2];
 631              		.loc 8 7 26 view .LVU152
 632 000e FFF7FEFF 		bl	__aeabi_atexit
 633              	.LVL35:
   8:formantosc.cpp **** static Metro             tick;
 634              		.loc 8 8 32 is_stmt 1 view .LVU153
   8:formantosc.cpp **** static Metro             tick;
 635              		.loc 8 8 26 is_stmt 0 view .LVU154
 636 0012 094A     		ldr	r2, .L30+4
 637 0014 2046     		mov	r0, r4
 638 0016 0A49     		ldr	r1, .L30+12
 639 0018 FFF7FEFF 		bl	__aeabi_atexit
 640              	.LVL36:
 641              	.LBB141:
 642              	.LBI141:
  14:../../DaisySP/Source/Utility/metro.h ****     ~Metro() {}
 643              		.loc 2 14 5 is_stmt 1 view .LVU155
  14:../../DaisySP/Source/Utility/metro.h ****     ~Metro() {}
 644              		.loc 2 14 5 is_stmt 0 view .LVU156
 645              	.LBE141:
   9:formantosc.cpp **** static Oscillator        lfo;
 646              		.loc 8 9 26 view .LVU157
 647 001c 064A     		ldr	r2, .L30+4
 648 001e 0949     		ldr	r1, .L30+16
 649 0020 0948     		ldr	r0, .L30+20
 650 0022 FFF7FEFF 		bl	__aeabi_atexit
 651              	.LVL37:
 652              	.LBB142:
ARM GAS  /tmp/ccnAz4KJ.s 			page 22


 653              	.LBI142:
  15:../../DaisySP/Source/Synthesis/oscillator.h ****     ~Oscillator() {}
 654              		.loc 1 15 5 is_stmt 1 view .LVU158
  15:../../DaisySP/Source/Synthesis/oscillator.h ****     ~Oscillator() {}
 655              		.loc 1 15 5 is_stmt 0 view .LVU159
 656              	.LBE142:
  10:formantosc.cpp **** 
 657              		.loc 8 10 26 view .LVU160
 658 0026 044A     		ldr	r2, .L30+4
 659 0028 0849     		ldr	r1, .L30+24
 660 002a 0948     		ldr	r0, .L30+28
 661              	.LBE143:
 662              	.LBE145:
 663              		.loc 8 60 1 view .LVU161
 664 002c BDE81040 		pop	{r4, lr}
 665              		.cfi_restore 14
 666              		.cfi_restore 4
 667              		.cfi_def_cfa_offset 0
 668              	.LBB146:
 669              	.LBB144:
  10:formantosc.cpp **** 
 670              		.loc 8 10 26 view .LVU162
 671 0030 FFF7FEBF 		b	__aeabi_atexit
 672              	.LVL38:
 673              	.L31:
 674              		.align	2
 675              	.L30:
 676 0034 00000000 		.word	.LANCHOR5
 677 0038 00000000 		.word	__dso_handle
 678 003c 00000000 		.word	_ZN5daisy9DaisySeedD1Ev
 679 0040 00000000 		.word	__tcf_0
 680 0044 00000000 		.word	_ZN7daisysp5MetroD1Ev
 681 0048 00000000 		.word	.LANCHOR0
 682 004c 00000000 		.word	_ZN7daisysp10OscillatorD1Ev
 683 0050 00000000 		.word	.LANCHOR2
 684              	.LBE144:
 685              	.LBE146:
 686              		.cfi_endproc
 687              	.LFE4760:
 689              		.section	.init_array,"aw",%init_array
 690              		.align	2
 691 0000 00000000 		.word	_GLOBAL__sub_I_freqs(target1)
 692              		.global	idx
 693              		.global	freqs
 694              		.section	.bss._ZL3lfo,"aw",%nobits
 695              		.align	2
 696              		.set	.LANCHOR2,. + 0
 699              	_ZL3lfo:
 700 0000 00000000 		.space	40
 700      00000000 
 700      00000000 
 700      00000000 
 700      00000000 
 701              		.section	.bss._ZL4form,"aw",%nobits
 702              		.align	2
 703              		.set	.LANCHOR3,. + 0
 706              	_ZL4form:
ARM GAS  /tmp/ccnAz4KJ.s 			page 23


 707 0000 00000000 		.space	64
 707      00000000 
 707      00000000 
 707      00000000 
 707      00000000 
 708              		.section	.bss._ZL4seed,"aw",%nobits
 709              		.align	2
 710              		.set	.LANCHOR5,. + 0
 713              	_ZL4seed:
 714 0000 00000000 		.space	60
 714      00000000 
 714      00000000 
 714      00000000 
 714      00000000 
 715              		.section	.bss._ZL4tick,"aw",%nobits
 716              		.align	2
 717              		.set	.LANCHOR0,. + 0
 720              	_ZL4tick:
 721 0000 00000000 		.space	16
 721      00000000 
 721      00000000 
 721      00000000 
 722              		.section	.bss.idx,"aw",%nobits
 723              		.align	2
 724              		.set	.LANCHOR1,. + 0
 727              	idx:
 728 0000 00000000 		.space	4
 729              		.section	.data.freqs,"aw"
 730              		.align	2
 731              		.set	.LANCHOR4,. + 0
 734              	freqs:
 735 0000 0000C343 		.word	1136852992
 736 0004 00C00F45 		.word	1158660096
 737 0008 00801844 		.word	1142456320
 738 000c 0080ED44 		.word	1156415488
 739 0010 00004D44 		.word	1145896960
 740 0014 0040BF44 		.word	1153384448
 741              		.text
 742              	.Letext0:
 743              		.file 10 "/usr/lib/gcc/arm-none-eabi/9.2.1/include/stdint.h"
 744              		.file 11 "../../libdaisy/Drivers/CMSIS/Include/core_cm7.h"
 745              		.file 12 "../../libdaisy/Drivers/CMSIS/Device/ST/STM32H7xx/Include/system_stm32h7xx.h"
 746              		.file 13 "/usr/lib/gcc/arm-none-eabi/9.2.1/include/stddef.h"
 747              		.file 14 "/usr/include/newlib/c++/9.2.1/cmath"
 748              		.file 15 "/usr/include/newlib/c++/9.2.1/bits/std_abs.h"
 749              		.file 16 "/usr/include/newlib/c++/9.2.1/cstdint"
 750              		.file 17 "/usr/include/newlib/c++/9.2.1/cstdlib"
 751              		.file 18 "/usr/include/newlib/c++/9.2.1/type_traits"
 752              		.file 19 "/usr/include/newlib/c++/9.2.1/arm-none-eabi/thumb/v7e-m+dp/hard/bits/c++config.h"
 753              		.file 20 "/usr/include/newlib/c++/9.2.1/bits/stl_pair.h"
 754              		.file 21 "/usr/include/newlib/c++/9.2.1/debug/debug.h"
 755              		.file 22 "/usr/include/newlib/c++/9.2.1/cwchar"
 756              		.file 23 "/usr/include/newlib/c++/9.2.1/bits/exception_ptr.h"
 757              		.file 24 "/usr/include/newlib/c++/9.2.1/new"
 758              		.file 25 "/usr/include/newlib/c++/9.2.1/clocale"
 759              		.file 26 "/usr/include/newlib/c++/9.2.1/cstdio"
 760              		.file 27 "/usr/include/newlib/c++/9.2.1/bits/basic_string.h"
ARM GAS  /tmp/ccnAz4KJ.s 			page 24


 761              		.file 28 "/usr/include/newlib/c++/9.2.1/bits/uniform_int_dist.h"
 762              		.file 29 "/usr/include/newlib/c++/9.2.1/bits/random.h"
 763              		.file 30 "/usr/include/newlib/c++/9.2.1/cstring"
 764              		.file 31 "/usr/include/newlib/c++/9.2.1/bits/algorithmfwd.h"
 765              		.file 32 "/usr/include/newlib/c++/9.2.1/cstdarg"
 766              		.file 33 "/usr/include/newlib/c++/9.2.1/bits/predefined_ops.h"
 767              		.file 34 "/usr/include/newlib/c++/9.2.1/ext/new_allocator.h"
 768              		.file 35 "/usr/include/newlib/c++/9.2.1/ext/numeric_traits.h"
 769              		.file 36 "/usr/include/newlib/sys/_types.h"
 770              		.file 37 "<built-in>"
 771              		.file 38 "/usr/include/newlib/sys/reent.h"
 772              		.file 39 "/usr/include/newlib/sys/lock.h"
 773              		.file 40 "/usr/include/newlib/math.h"
 774              		.file 41 "/usr/include/newlib/stdlib.h"
 775              		.file 42 "/usr/include/newlib/c++/9.2.1/math.h"
 776              		.file 43 "../../libdaisy/Drivers/STM32H7xx_HAL_Driver/Inc/stm32h7xx_hal_def.h"
 777              		.file 44 "../../libdaisy/Drivers/STM32H7xx_HAL_Driver/Inc/stm32h7xx_hal_flash.h"
 778              		.file 45 "../../DaisySP/Source/Control/adenv.h"
 779              		.file 46 "../../DaisySP/Source/Utility/dsp.h"
 780              		.file 47 "../../DaisySP/Source/Synthesis/formantosc.h"
 781              		.file 48 "/usr/lib/gcc/arm-none-eabi/9.2.1/include/stdarg.h"
 782              		.file 49 "/usr/include/newlib/wchar.h"
 783              		.file 50 "/usr/include/newlib/locale.h"
 784              		.file 51 "/usr/include/newlib/ctype.h"
 785              		.file 52 "/usr/include/newlib/stdio.h"
 786              		.file 53 "/usr/include/newlib/sys/errno.h"
 787              		.file 54 "/usr/include/newlib/c++/9.2.1/stdlib.h"
 788              		.file 55 "/usr/include/newlib/string.h"
 789              		.file 56 "../../libdaisy/src/daisy_core.h"
 790              		.file 57 "../../libdaisy/src/per/tim.h"
 791              		.file 58 "../../libdaisy/src/per/sai.h"
 792              		.file 59 "../../libdaisy/src/util/wav_format.h"
 793              		.file 60 "../../libdaisy/src/per/qspi.h"
 794              		.file 61 "../../libdaisy/src/per/gpio.h"
 795              		.file 62 "../../libdaisy/src/dev/sdram.h"
 796              		.file 63 "/usr/include/newlib/sys/unistd.h"
 797              		.file 64 "../../libdaisy/src/util/oled_fonts.h"
 798              		.file 65 "../../libdaisy/Middlewares/Third_Party/FatFs/src/integer.h"
 799              		.file 66 "../../libdaisy/Middlewares/Third_Party/FatFs/src/ff.h"
 800              		.file 67 "../../libdaisy/Middlewares/Third_Party/FatFs/src/diskio.h"
 801              		.file 68 "../../libdaisy/Middlewares/Third_Party/FatFs/src/ff_gen_drv.h"
 802              		.file 69 "../../libdaisy/src/util/sd_diskio.h"
 803              		.file 70 "../../libdaisy/src/sys/fatfs.h"
 804              		.file 71 "../../libdaisy/src/dev/sr_595.h"
ARM GAS  /tmp/ccnAz4KJ.s 			page 25

