ARM GAS  /tmp/ccTKQK5e.s 			page 1


   1              		.cpu cortex-m7
   2              		.eabi_attribute 28, 1
   3              		.eabi_attribute 20, 1
   4              		.eabi_attribute 21, 1
   5              		.eabi_attribute 23, 3
   6              		.eabi_attribute 24, 1
   7              		.eabi_attribute 25, 1
   8              		.eabi_attribute 26, 1
   9              		.eabi_attribute 30, 2
  10              		.eabi_attribute 34, 1
  11              		.eabi_attribute 18, 4
  12              		.file	"SDMMC.cpp"
  13              		.text
  14              	.Ltext0:
  15              		.cfi_sections	.debug_frame
  16              		.section	.text._ZN5daisy12SdmmcHandlerD2Ev,"axG",%progbits,_ZN5daisy12SdmmcHandlerD5Ev,comdat
  17              		.align	1
  18              		.p2align 2,,3
  19              		.weak	_ZN5daisy12SdmmcHandlerD2Ev
  20              		.arch armv7e-m
  21              		.syntax unified
  22              		.thumb
  23              		.thumb_func
  24              		.fpu fpv5-d16
  26              	_ZN5daisy12SdmmcHandlerD2Ev:
  27              	.LVL0:
  28              	.LFB1641:
  29              		.file 1 "../../libdaisy/src/per/sdmmc.h"
   1:../../libdaisy/src/per/sdmmc.h **** /*
   2:../../libdaisy/src/per/sdmmc.h **** TODO: 
   3:../../libdaisy/src/per/sdmmc.h **** - Implement configuration (currently all settings are fixed).
   4:../../libdaisy/src/per/sdmmc.h **** */
   5:../../libdaisy/src/per/sdmmc.h **** #pragma once
   6:../../libdaisy/src/per/sdmmc.h **** #ifndef DSY_SDMMC_H
   7:../../libdaisy/src/per/sdmmc.h **** #define DSY_SDMMC_H /**< macro */
   8:../../libdaisy/src/per/sdmmc.h **** 
   9:../../libdaisy/src/per/sdmmc.h **** #include <stdint.h>
  10:../../libdaisy/src/per/sdmmc.h **** 
  11:../../libdaisy/src/per/sdmmc.h **** 
  12:../../libdaisy/src/per/sdmmc.h **** namespace daisy
  13:../../libdaisy/src/per/sdmmc.h **** {
  14:../../libdaisy/src/per/sdmmc.h **** /** @addtogroup other
  15:../../libdaisy/src/per/sdmmc.h ****     @{
  16:../../libdaisy/src/per/sdmmc.h ****     */
  17:../../libdaisy/src/per/sdmmc.h **** 
  18:../../libdaisy/src/per/sdmmc.h **** /** Configuration for interfacing with SD cards.
  19:../../libdaisy/src/per/sdmmc.h ****  *  Currently only supports operation using FatFS filesystem
  20:../../libdaisy/src/per/sdmmc.h ****  * 
  21:../../libdaisy/src/per/sdmmc.h ****  *  Only SDMMC1 is supported at this time.
  22:../../libdaisy/src/per/sdmmc.h ****  *
  23:../../libdaisy/src/per/sdmmc.h ****  *  Pins are fixed to the following:
  24:../../libdaisy/src/per/sdmmc.h ****  *  PC12 - SDMMC1 CK
  25:../../libdaisy/src/per/sdmmc.h ****  *  PD2  - SDMMC1 CMD
  26:../../libdaisy/src/per/sdmmc.h ****  *  PC8  - SDMMC1 D0
  27:../../libdaisy/src/per/sdmmc.h ****  *  PC9  - SDMMC1 D1 (optional)
  28:../../libdaisy/src/per/sdmmc.h ****  *  PC10 - SDMMC1 D2 (optional)
  29:../../libdaisy/src/per/sdmmc.h ****  *  PC11 - SDMMC1 D3 (optional)
ARM GAS  /tmp/ccTKQK5e.s 			page 2


  30:../../libdaisy/src/per/sdmmc.h **** */
  31:../../libdaisy/src/per/sdmmc.h **** class SdmmcHandler
  32:../../libdaisy/src/per/sdmmc.h **** {
  33:../../libdaisy/src/per/sdmmc.h ****   public:
  34:../../libdaisy/src/per/sdmmc.h ****     /** Return values for the SdmmcHandler class */
  35:../../libdaisy/src/per/sdmmc.h ****     enum class Result
  36:../../libdaisy/src/per/sdmmc.h ****     {
  37:../../libdaisy/src/per/sdmmc.h ****         OK,
  38:../../libdaisy/src/per/sdmmc.h ****         ERROR,
  39:../../libdaisy/src/per/sdmmc.h ****     };
  40:../../libdaisy/src/per/sdmmc.h **** 
  41:../../libdaisy/src/per/sdmmc.h ****     /** Sets whether 4-bit mode or 1-bit mode is used for the SDMMC */
  42:../../libdaisy/src/per/sdmmc.h ****     enum class BusWidth
  43:../../libdaisy/src/per/sdmmc.h ****     {
  44:../../libdaisy/src/per/sdmmc.h ****         BITS_1, /**< Only 1 bit of data per clock is transferred */
  45:../../libdaisy/src/per/sdmmc.h ****         BITS_4, /**< 4-bits of parallel data for each clock pulse */
  46:../../libdaisy/src/per/sdmmc.h ****     };
  47:../../libdaisy/src/per/sdmmc.h **** 
  48:../../libdaisy/src/per/sdmmc.h ****     /** 
  49:../../libdaisy/src/per/sdmmc.h ****     Sets the desired clock speed of the SD card bus. \n 
  50:../../libdaisy/src/per/sdmmc.h ****     Initialization is always done at or below 400kHz, and then the user speed is set.
  51:../../libdaisy/src/per/sdmmc.h ****     */
  52:../../libdaisy/src/per/sdmmc.h ****     enum class Speed
  53:../../libdaisy/src/per/sdmmc.h ****     {
  54:../../libdaisy/src/per/sdmmc.h ****         SLOW, /**< 400kHz, initialization  performed at this rate, before moving to user value */
  55:../../libdaisy/src/per/sdmmc.h ****         MEDIUM_SLOW, /**< 12.5MHz - half of standard rate */
  56:../../libdaisy/src/per/sdmmc.h ****         STANDARD,    /**< 25MHz - DS (Default Speed for SDMMC) */
  57:../../libdaisy/src/per/sdmmc.h ****         FAST,        /**< 50MHz - HS (High Speed signaling) */
  58:../../libdaisy/src/per/sdmmc.h ****         VERY_FAST, /**< 100MHz - SDR50 Overclocked rate for maximum transfer rates */
  59:../../libdaisy/src/per/sdmmc.h ****     };
  60:../../libdaisy/src/per/sdmmc.h **** 
  61:../../libdaisy/src/per/sdmmc.h ****     struct Config
  62:../../libdaisy/src/per/sdmmc.h ****     {
  63:../../libdaisy/src/per/sdmmc.h ****         Speed    speed;
  64:../../libdaisy/src/per/sdmmc.h ****         BusWidth width;
  65:../../libdaisy/src/per/sdmmc.h ****         bool
  66:../../libdaisy/src/per/sdmmc.h ****             clock_powersave; /**< When true, the clock will stop between transfers to save power. *
  67:../../libdaisy/src/per/sdmmc.h **** 
  68:../../libdaisy/src/per/sdmmc.h ****         /** Configures settings to their default settings */
  69:../../libdaisy/src/per/sdmmc.h ****         void Defaults()
  70:../../libdaisy/src/per/sdmmc.h ****         {
  71:../../libdaisy/src/per/sdmmc.h ****             speed           = Speed::FAST;
  72:../../libdaisy/src/per/sdmmc.h ****             width           = BusWidth::BITS_4;
  73:../../libdaisy/src/per/sdmmc.h ****             clock_powersave = false;
  74:../../libdaisy/src/per/sdmmc.h ****         }
  75:../../libdaisy/src/per/sdmmc.h ****     };
  76:../../libdaisy/src/per/sdmmc.h **** 
  77:../../libdaisy/src/per/sdmmc.h ****     SdmmcHandler() {}
  78:../../libdaisy/src/per/sdmmc.h ****     ~SdmmcHandler() {}
  30              		.loc 1 78 5 view -0
  31              		.cfi_startproc
  32              		@ args = 0, pretend = 0, frame = 0
  33              		@ frame_needed = 0, uses_anonymous_args = 0
  34              		@ link register save eliminated.
  35              		.loc 1 78 22 is_stmt 0 view .LVU1
  36 0000 7047     		bx	lr
  37              		.cfi_endproc
ARM GAS  /tmp/ccTKQK5e.s 			page 3


  38              	.LFE1641:
  40              		.weak	_ZN5daisy12SdmmcHandlerD1Ev
  41              		.thumb_set _ZN5daisy12SdmmcHandlerD1Ev,_ZN5daisy12SdmmcHandlerD2Ev
  42 0002 00BF     		.section	.text._ZN5daisy9DaisySeedD2Ev,"axG",%progbits,_ZN5daisy9DaisySeedD5Ev,comdat
  43              		.align	1
  44              		.p2align 2,,3
  45              		.weak	_ZN5daisy9DaisySeedD2Ev
  46              		.syntax unified
  47              		.thumb
  48              		.thumb_func
  49              		.fpu fpv5-d16
  51              	_ZN5daisy9DaisySeedD2Ev:
  52              	.LVL1:
  53              	.LFB2037:
  54              		.file 2 "../../libdaisy/src/daisy_seed.h"
   1:../../libdaisy/src/daisy_seed.h **** #pragma once
   2:../../libdaisy/src/daisy_seed.h **** #ifndef DSY_SEED_H
   3:../../libdaisy/src/daisy_seed.h **** #define DSY_SEED_H
   4:../../libdaisy/src/daisy_seed.h **** 
   5:../../libdaisy/src/daisy_seed.h **** #include "daisy.h"
   6:../../libdaisy/src/daisy_seed.h **** 
   7:../../libdaisy/src/daisy_seed.h **** //Uncomment this out if you're still using the rev2 hardware
   8:../../libdaisy/src/daisy_seed.h **** //#define SEED_REV2
   9:../../libdaisy/src/daisy_seed.h **** 
  10:../../libdaisy/src/daisy_seed.h **** namespace daisy
  11:../../libdaisy/src/daisy_seed.h **** {
  12:../../libdaisy/src/daisy_seed.h **** /**
  13:../../libdaisy/src/daisy_seed.h ****    @brief This is the higher-level interface for the Daisy board. \n 
  14:../../libdaisy/src/daisy_seed.h ****     All basic peripheral configuration/initialization is setup here. \n
  15:../../libdaisy/src/daisy_seed.h **** 
  16:../../libdaisy/src/daisy_seed.h ****    @ingroup boards
  17:../../libdaisy/src/daisy_seed.h **** */
  18:../../libdaisy/src/daisy_seed.h **** class DaisySeed
  19:../../libdaisy/src/daisy_seed.h **** {
  20:../../libdaisy/src/daisy_seed.h ****   public:
  21:../../libdaisy/src/daisy_seed.h ****     DaisySeed() {}
  22:../../libdaisy/src/daisy_seed.h ****     ~DaisySeed() {}
  55              		.loc 2 22 5 is_stmt 1 view -0
  56              		.cfi_startproc
  57              		@ args = 0, pretend = 0, frame = 0
  58              		@ frame_needed = 0, uses_anonymous_args = 0
  59              		@ link register save eliminated.
  60              	.LBB59:
  61              	.LBI59:
  62              		.file 3 "../../libdaisy/src/sys/system.h"
   1:../../libdaisy/src/sys/system.h **** #ifndef DSY_SYSTEM_H
   2:../../libdaisy/src/sys/system.h **** #define DSY_SYSTEM_H
   3:../../libdaisy/src/sys/system.h **** 
   4:../../libdaisy/src/sys/system.h **** #ifndef UNIT_TEST // for unit tests, a dummy implementation is provided below
   5:../../libdaisy/src/sys/system.h **** 
   6:../../libdaisy/src/sys/system.h **** #include <cstdint>
   7:../../libdaisy/src/sys/system.h **** #include "per/tim.h"
   8:../../libdaisy/src/sys/system.h **** 
   9:../../libdaisy/src/sys/system.h **** namespace daisy
  10:../../libdaisy/src/sys/system.h **** {
  11:../../libdaisy/src/sys/system.h **** /** A handle for interacting with the Core System. 
  12:../../libdaisy/src/sys/system.h ****  ** This includes the Clock tree, MPU, global DMA initialization,
ARM GAS  /tmp/ccTKQK5e.s 			page 4


  13:../../libdaisy/src/sys/system.h ****  ** cache handling, and any other necessary global initiailzation
  14:../../libdaisy/src/sys/system.h ****  **
  15:../../libdaisy/src/sys/system.h ****  ** @author shensley
  16:../../libdaisy/src/sys/system.h ****  ** @addtogroup system
  17:../../libdaisy/src/sys/system.h ****  */
  18:../../libdaisy/src/sys/system.h **** class System
  19:../../libdaisy/src/sys/system.h **** {
  20:../../libdaisy/src/sys/system.h ****   public:
  21:../../libdaisy/src/sys/system.h ****     /** Contains settings for initializing the System */
  22:../../libdaisy/src/sys/system.h ****     struct Config
  23:../../libdaisy/src/sys/system.h ****     {
  24:../../libdaisy/src/sys/system.h ****         /** Specifies the system clock frequency that feeds APB/AHB clocks, etc. */
  25:../../libdaisy/src/sys/system.h ****         enum class SysClkFreq
  26:../../libdaisy/src/sys/system.h ****         {
  27:../../libdaisy/src/sys/system.h ****             FREQ_400MHZ,
  28:../../libdaisy/src/sys/system.h ****             FREQ_480MHZ,
  29:../../libdaisy/src/sys/system.h ****         };
  30:../../libdaisy/src/sys/system.h **** 
  31:../../libdaisy/src/sys/system.h ****         /** Method to call on the struct to set to defaults
  32:../../libdaisy/src/sys/system.h ****          ** CPU Freq set to 400MHz
  33:../../libdaisy/src/sys/system.h ****          ** Cache Enabled 
  34:../../libdaisy/src/sys/system.h ****          ** */
  35:../../libdaisy/src/sys/system.h ****         void Defaults()
  36:../../libdaisy/src/sys/system.h ****         {
  37:../../libdaisy/src/sys/system.h ****             cpu_freq   = SysClkFreq::FREQ_400MHZ;
  38:../../libdaisy/src/sys/system.h ****             use_dcache = true;
  39:../../libdaisy/src/sys/system.h ****             use_icache = true;
  40:../../libdaisy/src/sys/system.h ****         }
  41:../../libdaisy/src/sys/system.h **** 
  42:../../libdaisy/src/sys/system.h ****         /** Method to call on the struct to set to boost mode:
  43:../../libdaisy/src/sys/system.h ****          ** CPU Freq set to 480MHz
  44:../../libdaisy/src/sys/system.h ****          ** Cache Enabled 
  45:../../libdaisy/src/sys/system.h ****          ** */
  46:../../libdaisy/src/sys/system.h ****         void Boost()
  47:../../libdaisy/src/sys/system.h ****         {
  48:../../libdaisy/src/sys/system.h ****             cpu_freq   = SysClkFreq::FREQ_480MHZ;
  49:../../libdaisy/src/sys/system.h ****             use_dcache = true;
  50:../../libdaisy/src/sys/system.h ****             use_icache = true;
  51:../../libdaisy/src/sys/system.h ****         }
  52:../../libdaisy/src/sys/system.h **** 
  53:../../libdaisy/src/sys/system.h ****         SysClkFreq cpu_freq;
  54:../../libdaisy/src/sys/system.h ****         bool       use_dcache;
  55:../../libdaisy/src/sys/system.h ****         bool       use_icache;
  56:../../libdaisy/src/sys/system.h ****     };
  57:../../libdaisy/src/sys/system.h **** 
  58:../../libdaisy/src/sys/system.h ****     System() {}
  59:../../libdaisy/src/sys/system.h ****     ~System() {}
  63              		.loc 3 59 5 view .LVU3
  64              		.loc 3 59 5 is_stmt 0 view .LVU4
  65              	.LBE59:
  66              	.LBB60:
  67              	.LBI60:
  68              		.file 4 "../../libdaisy/src/hid/usb.h"
   1:../../libdaisy/src/hid/usb.h **** #pragma once
   2:../../libdaisy/src/hid/usb.h **** #ifndef DSY_HID_USB_H
   3:../../libdaisy/src/hid/usb.h **** #define DSY_HID_USB_H
   4:../../libdaisy/src/hid/usb.h **** #include <stdint.h>
ARM GAS  /tmp/ccTKQK5e.s 			page 5


   5:../../libdaisy/src/hid/usb.h **** #include <stdlib.h>
   6:../../libdaisy/src/hid/usb.h **** 
   7:../../libdaisy/src/hid/usb.h **** namespace daisy
   8:../../libdaisy/src/hid/usb.h **** /** @addtogroup externals
   9:../../libdaisy/src/hid/usb.h ****     @{
  10:../../libdaisy/src/hid/usb.h **** */
  11:../../libdaisy/src/hid/usb.h **** 
  12:../../libdaisy/src/hid/usb.h **** {
  13:../../libdaisy/src/hid/usb.h **** /** 
  14:../../libdaisy/src/hid/usb.h ****     @brief Interface for initializing and using the USB Peripherals on the daisy
  15:../../libdaisy/src/hid/usb.h ****     @author Stephen Hensley
  16:../../libdaisy/src/hid/usb.h ****     @date December 2019
  17:../../libdaisy/src/hid/usb.h **** */
  18:../../libdaisy/src/hid/usb.h **** class UsbHandle
  19:../../libdaisy/src/hid/usb.h **** {
  20:../../libdaisy/src/hid/usb.h ****   public:
  21:../../libdaisy/src/hid/usb.h ****     /** Return values for USBHandle Functions */
  22:../../libdaisy/src/hid/usb.h ****     enum class Result
  23:../../libdaisy/src/hid/usb.h ****     {
  24:../../libdaisy/src/hid/usb.h ****         OK,
  25:../../libdaisy/src/hid/usb.h ****         ERR,
  26:../../libdaisy/src/hid/usb.h ****     };
  27:../../libdaisy/src/hid/usb.h **** 
  28:../../libdaisy/src/hid/usb.h ****     /** Specified which of the two USB Peripherals to initialize. */
  29:../../libdaisy/src/hid/usb.h ****     enum UsbPeriph
  30:../../libdaisy/src/hid/usb.h ****     {
  31:../../libdaisy/src/hid/usb.h ****         FS_INTERNAL, /**< Internal pin */
  32:../../libdaisy/src/hid/usb.h ****         FS_EXTERNAL, /**< FS External D+ pin is Pin 38 (GPIO32). FS External D- pin is Pin 37 (GPIO
  33:../../libdaisy/src/hid/usb.h ****         FS_BOTH,     /**< Both */
  34:../../libdaisy/src/hid/usb.h ****     };
  35:../../libdaisy/src/hid/usb.h **** 
  36:../../libdaisy/src/hid/usb.h **** 
  37:../../libdaisy/src/hid/usb.h ****     /** Function called upon reception of a buffer */
  38:../../libdaisy/src/hid/usb.h ****     typedef void (*ReceiveCallback)(uint8_t* buff, uint32_t* len);
  39:../../libdaisy/src/hid/usb.h **** 
  40:../../libdaisy/src/hid/usb.h ****     UsbHandle() {}
  41:../../libdaisy/src/hid/usb.h **** 
  42:../../libdaisy/src/hid/usb.h ****     ~UsbHandle() {}
  69              		.loc 4 42 5 is_stmt 1 view .LVU5
  70              		.loc 4 42 5 is_stmt 0 view .LVU6
  71              	.LBE60:
  72              	.LBB61:
  73              	.LBI61:
  74              		.file 5 "../../libdaisy/src/per/adc.h"
   1:../../libdaisy/src/per/adc.h **** #pragma once
   2:../../libdaisy/src/per/adc.h **** #ifndef DSY_ADC_H
   3:../../libdaisy/src/per/adc.h **** #define DSY_ADC_H /**< Macro */
   4:../../libdaisy/src/per/adc.h **** #include <stdint.h>
   5:../../libdaisy/src/per/adc.h **** #include <stdlib.h>
   6:../../libdaisy/src/per/adc.h **** #include "daisy_core.h"
   7:../../libdaisy/src/per/adc.h **** #include "per/gpio.h"
   8:../../libdaisy/src/per/adc.h **** 
   9:../../libdaisy/src/per/adc.h **** #define DSY_ADC_MAX_CHANNELS 14 /**< Maximum number of ADC channels */
  10:../../libdaisy/src/per/adc.h **** 
  11:../../libdaisy/src/per/adc.h **** namespace daisy
  12:../../libdaisy/src/per/adc.h **** {
  13:../../libdaisy/src/per/adc.h **** /** @addtogroup analog_digital_conversion
ARM GAS  /tmp/ccTKQK5e.s 			page 6


  14:../../libdaisy/src/per/adc.h ****     @{
  15:../../libdaisy/src/per/adc.h **** */
  16:../../libdaisy/src/per/adc.h **** 
  17:../../libdaisy/src/per/adc.h **** /* While there may not be many configuration options here,
  18:../../libdaisy/src/per/adc.h **** using a struct like this allows us to add more configuration
  19:../../libdaisy/src/per/adc.h **** later without breaking existing functionality.
  20:../../libdaisy/src/per/adc.h **** */
  21:../../libdaisy/src/per/adc.h **** 
  22:../../libdaisy/src/per/adc.h **** /** Configuration Structure for a given channel */
  23:../../libdaisy/src/per/adc.h **** struct AdcChannelConfig
  24:../../libdaisy/src/per/adc.h **** {
  25:../../libdaisy/src/per/adc.h ****     /** Which pin to use for multiplexing */
  26:../../libdaisy/src/per/adc.h ****     enum MuxPin
  27:../../libdaisy/src/per/adc.h ****     {
  28:../../libdaisy/src/per/adc.h ****         MUX_SEL_0,    /**< & */
  29:../../libdaisy/src/per/adc.h ****         MUX_SEL_1,    /**< & */
  30:../../libdaisy/src/per/adc.h ****         MUX_SEL_2,    /**< & */
  31:../../libdaisy/src/per/adc.h ****         MUX_SEL_LAST, /**< & */
  32:../../libdaisy/src/per/adc.h ****     };
  33:../../libdaisy/src/per/adc.h **** 
  34:../../libdaisy/src/per/adc.h ****     /** Initializes a single ADC pin as an ADC. 
  35:../../libdaisy/src/per/adc.h ****     \param pin Pin to init.
  36:../../libdaisy/src/per/adc.h ****      */
  37:../../libdaisy/src/per/adc.h ****     void InitSingle(dsy_gpio_pin pin);
  38:../../libdaisy/src/per/adc.h **** 
  39:../../libdaisy/src/per/adc.h ****     /** 
  40:../../libdaisy/src/per/adc.h ****     Initializes a single ADC pin as a Multiplexed ADC.
  41:../../libdaisy/src/per/adc.h ****     Requires a CD405X Multiplexer connected to the pin.
  42:../../libdaisy/src/per/adc.h ****     You only need to supply the mux pins that are required,
  43:../../libdaisy/src/per/adc.h ****     e.g. a 4052 mux would only require mux_0 and mux_1.
  44:../../libdaisy/src/per/adc.h ****     Internal Callbacks handle the pin addressing.
  45:../../libdaisy/src/per/adc.h ****     \param mux_channels must be 1-8
  46:../../libdaisy/src/per/adc.h ****     \param mux_0 First mux pin
  47:../../libdaisy/src/per/adc.h ****     \param mux_1 Second mux pin
  48:../../libdaisy/src/per/adc.h ****     \param mux_2 Third mux pin
  49:../../libdaisy/src/per/adc.h ****     \param adc_pin &
  50:../../libdaisy/src/per/adc.h ****     */
  51:../../libdaisy/src/per/adc.h ****     void InitMux(dsy_gpio_pin adc_pin,
  52:../../libdaisy/src/per/adc.h ****                  size_t       mux_channels,
  53:../../libdaisy/src/per/adc.h ****                  dsy_gpio_pin mux_0,
  54:../../libdaisy/src/per/adc.h ****                  dsy_gpio_pin mux_1 = {DSY_GPIOX, 0},
  55:../../libdaisy/src/per/adc.h ****                  dsy_gpio_pin mux_2 = {DSY_GPIOX, 0});
  56:../../libdaisy/src/per/adc.h **** 
  57:../../libdaisy/src/per/adc.h ****     dsy_gpio pin_;                   /**< & */
  58:../../libdaisy/src/per/adc.h ****     dsy_gpio mux_pin_[MUX_SEL_LAST]; /**< & */
  59:../../libdaisy/src/per/adc.h ****     uint8_t  mux_channels_;          /**< & */
  60:../../libdaisy/src/per/adc.h **** };
  61:../../libdaisy/src/per/adc.h **** 
  62:../../libdaisy/src/per/adc.h **** /**
  63:../../libdaisy/src/per/adc.h ****    Handler for analog to digital conversion
  64:../../libdaisy/src/per/adc.h **** */
  65:../../libdaisy/src/per/adc.h **** class AdcHandle
  66:../../libdaisy/src/per/adc.h **** {
  67:../../libdaisy/src/per/adc.h ****   public:
  68:../../libdaisy/src/per/adc.h ****     /** Supported oversampling amounts */
  69:../../libdaisy/src/per/adc.h ****     enum OverSampling
  70:../../libdaisy/src/per/adc.h ****     {
ARM GAS  /tmp/ccTKQK5e.s 			page 7


  71:../../libdaisy/src/per/adc.h ****         OVS_NONE, /**< & */
  72:../../libdaisy/src/per/adc.h ****         OVS_4,    /**< & */
  73:../../libdaisy/src/per/adc.h ****         OVS_8,    /**< & */
  74:../../libdaisy/src/per/adc.h ****         OVS_16,   /**< & */
  75:../../libdaisy/src/per/adc.h ****         OVS_32,   /**< & */
  76:../../libdaisy/src/per/adc.h ****         OVS_64,   /**< & */
  77:../../libdaisy/src/per/adc.h ****         OVS_128,  /**< & */
  78:../../libdaisy/src/per/adc.h ****         OVS_256,  /**< & */
  79:../../libdaisy/src/per/adc.h ****         OVS_512,  /**< & */
  80:../../libdaisy/src/per/adc.h ****         OVS_1024, /**< & */
  81:../../libdaisy/src/per/adc.h ****         OVS_LAST, /**< & */
  82:../../libdaisy/src/per/adc.h ****     };
  83:../../libdaisy/src/per/adc.h **** 
  84:../../libdaisy/src/per/adc.h ****     AdcHandle() {}
  85:../../libdaisy/src/per/adc.h ****     ~AdcHandle() {}
  75              		.loc 5 85 5 is_stmt 1 view .LVU7
  76              		.loc 5 85 5 is_stmt 0 view .LVU8
  77              	.LBE61:
  78              	.LBB62:
  79              	.LBI62:
  80              		.file 6 "../../libdaisy/src/hid/audio.h"
   1:../../libdaisy/src/hid/audio.h **** #ifndef DSY_AUDIO_H
   2:../../libdaisy/src/hid/audio.h **** #define DSY_AUDIO_H /**< & */
   3:../../libdaisy/src/hid/audio.h **** 
   4:../../libdaisy/src/hid/audio.h **** #include "per/sai.h"
   5:../../libdaisy/src/hid/audio.h **** 
   6:../../libdaisy/src/hid/audio.h **** namespace daisy
   7:../../libdaisy/src/hid/audio.h **** {
   8:../../libdaisy/src/hid/audio.h **** class AudioHandle
   9:../../libdaisy/src/hid/audio.h **** {
  10:../../libdaisy/src/hid/audio.h ****   public:
  11:../../libdaisy/src/hid/audio.h ****     /** Manually configurable details about the Audio Engine */
  12:../../libdaisy/src/hid/audio.h ****     /** TODO: Figure out how to get samplerate in here. */
  13:../../libdaisy/src/hid/audio.h ****     struct Config
  14:../../libdaisy/src/hid/audio.h ****     {
  15:../../libdaisy/src/hid/audio.h ****         size_t                        blocksize;
  16:../../libdaisy/src/hid/audio.h ****         SaiHandle::Config::SampleRate samplerate;
  17:../../libdaisy/src/hid/audio.h ****         float                         postgain;
  18:../../libdaisy/src/hid/audio.h ****     };
  19:../../libdaisy/src/hid/audio.h **** 
  20:../../libdaisy/src/hid/audio.h ****     enum class Result
  21:../../libdaisy/src/hid/audio.h ****     {
  22:../../libdaisy/src/hid/audio.h ****         OK,
  23:../../libdaisy/src/hid/audio.h ****         ERR,
  24:../../libdaisy/src/hid/audio.h ****     };
  25:../../libdaisy/src/hid/audio.h **** 
  26:../../libdaisy/src/hid/audio.h ****     /** Non-Interleaving input buffer
  27:../../libdaisy/src/hid/audio.h ****      * Buffer arranged by float[chn][sample] 
  28:../../libdaisy/src/hid/audio.h ****      * const so that the user can't modify the input
  29:../../libdaisy/src/hid/audio.h ****     */
  30:../../libdaisy/src/hid/audio.h ****     typedef const float* const* InputBuffer;
  31:../../libdaisy/src/hid/audio.h **** 
  32:../../libdaisy/src/hid/audio.h ****     /** Non-Interleaving output buffer
  33:../../libdaisy/src/hid/audio.h ****      * Arranged by float[chn][sample] 
  34:../../libdaisy/src/hid/audio.h ****     */
  35:../../libdaisy/src/hid/audio.h ****     typedef float** OutputBuffer;
  36:../../libdaisy/src/hid/audio.h **** 
ARM GAS  /tmp/ccTKQK5e.s 			page 8


  37:../../libdaisy/src/hid/audio.h ****     /** Type for a Non-Interleaving audio callback 
  38:../../libdaisy/src/hid/audio.h ****    * Non-Interleaving audio callbacks in daisy will be of this type
  39:../../libdaisy/src/hid/audio.h ****   */
  40:../../libdaisy/src/hid/audio.h ****     typedef void (*AudioCallback)(InputBuffer  in,
  41:../../libdaisy/src/hid/audio.h ****                                   OutputBuffer out,
  42:../../libdaisy/src/hid/audio.h ****                                   size_t       size);
  43:../../libdaisy/src/hid/audio.h **** 
  44:../../libdaisy/src/hid/audio.h ****     /** Interleaving Input buffer
  45:../../libdaisy/src/hid/audio.h ****      ** audio is prepared as { L0, R0, L1, R1, . . . LN, RN }]
  46:../../libdaisy/src/hid/audio.h ****      ** this is const, as the user shouldn't modify it
  47:../../libdaisy/src/hid/audio.h ****     */
  48:../../libdaisy/src/hid/audio.h ****     typedef const float* InterleavingInputBuffer;
  49:../../libdaisy/src/hid/audio.h **** 
  50:../../libdaisy/src/hid/audio.h ****     /** Interleaving Output buffer 
  51:../../libdaisy/src/hid/audio.h ****      ** audio is prepared as { L0, R0, L1, R1, . . . LN, RN }
  52:../../libdaisy/src/hid/audio.h ****     */
  53:../../libdaisy/src/hid/audio.h ****     typedef float* InterleavingOutputBuffer;
  54:../../libdaisy/src/hid/audio.h **** 
  55:../../libdaisy/src/hid/audio.h ****     /** Interleaving Audio Callback 
  56:../../libdaisy/src/hid/audio.h ****    * Interleaving audio callbacks in daisy must be of this type
  57:../../libdaisy/src/hid/audio.h ****   */
  58:../../libdaisy/src/hid/audio.h ****     typedef void (*InterleavingAudioCallback)(InterleavingInputBuffer  in,
  59:../../libdaisy/src/hid/audio.h ****                                               InterleavingOutputBuffer out,
  60:../../libdaisy/src/hid/audio.h ****                                               size_t                   size);
  61:../../libdaisy/src/hid/audio.h **** 
  62:../../libdaisy/src/hid/audio.h ****     AudioHandle() : pimpl_(nullptr) {}
  63:../../libdaisy/src/hid/audio.h ****     ~AudioHandle() {}
  81              		.loc 6 63 5 is_stmt 1 view .LVU9
  82              		.loc 6 63 5 is_stmt 0 view .LVU10
  83              	.LBE62:
  84              		.loc 2 22 19 view .LVU11
  85 0000 7047     		bx	lr
  86              		.cfi_endproc
  87              	.LFE2037:
  89              		.weak	_ZN5daisy9DaisySeedD1Ev
  90              		.thumb_set _ZN5daisy9DaisySeedD1Ev,_ZN5daisy9DaisySeedD2Ev
  91 0002 00BF     		.section	.rodata.main.str1.4,"aMS",%progbits,1
  92              		.align	2
  93              	.LC0:
  94 0000 44616973 		.ascii	"Daisy...Testing...\0121...\0122...\0123...\012\000"
  94      792E2E2E 
  94      54657374 
  94      696E672E 
  94      2E2E0A31 
  95 0023 00       		.align	2
  96              	.LC1:
  97 0024 74657374 		.ascii	"test.txt\000"
  97      2E747874 
  97      00
  98              		.section	.text.startup.main,"ax",%progbits
  99              		.align	1
 100              		.p2align 2,,3
 101              		.global	main
 102              		.syntax unified
 103              		.thumb
 104              		.thumb_func
 105              		.fpu fpv5-d16
ARM GAS  /tmp/ccTKQK5e.s 			page 9


 107              	main:
 108              	.LFB2042:
 109              		.file 7 "SDMMC.cpp"
   1:SDMMC.cpp     **** // This example uses fatfs to access files via SD Card.
   2:SDMMC.cpp     **** //
   3:SDMMC.cpp     **** // A File test.txt is created with the contentt of outbuff.
   4:SDMMC.cpp     **** // The file is then read back in to inbuff.
   5:SDMMC.cpp     **** // If there is any failure, or what was read does not match
   6:SDMMC.cpp     **** // what was written, execution will halt at the breakpoint.
   7:SDMMC.cpp     **** // Otherwise, the Seed's onboard LED will begin to blink.
   8:SDMMC.cpp     **** //
   9:SDMMC.cpp     **** // FATFS is not bundled into the libdaisy, and therefore needs
  10:SDMMC.cpp     **** // to be included in the project to work
  11:SDMMC.cpp     **** //
  12:SDMMC.cpp     **** // The SD implementation of libdaisy is subject to change,
  13:SDMMC.cpp     **** // however wrapping fatfs into libdaisy would be a substantial
  14:SDMMC.cpp     **** // chunk of work, and FatFs itself is a pretty familiar interface.
  15:SDMMC.cpp     **** //
  16:SDMMC.cpp     **** // This particular project will work as long as the following Middleware
  17:SDMMC.cpp     **** // files are included in the project (alongside libdaisy).
  18:SDMMC.cpp     **** // Sources/headers within: libdaisy/Middlewares/Third_Party/FatFs/src/
  19:SDMMC.cpp     **** // options: ccsbcs.c (in src/options within the above path)
  20:SDMMC.cpp     **** //
  21:SDMMC.cpp     **** // The SD card is currently configured to run with 4-bits and a 12MHz clock frequency.
  22:SDMMC.cpp     **** //
  23:SDMMC.cpp     **** #include <stdio.h>
  24:SDMMC.cpp     **** #include <string.h>
  25:SDMMC.cpp     **** #include "daisy_seed.h"
  26:SDMMC.cpp     **** #include "fatfs.h"
  27:SDMMC.cpp     **** 
  28:SDMMC.cpp     **** #define TEST_FILE_NAME "test.txt"
  29:SDMMC.cpp     **** 
  30:SDMMC.cpp     **** using namespace daisy;
  31:SDMMC.cpp     **** 
  32:SDMMC.cpp     **** static DaisySeed hw;
  33:SDMMC.cpp     **** 
  34:SDMMC.cpp     **** SdmmcHandler sd;
  35:SDMMC.cpp     **** 
  36:SDMMC.cpp     **** int main(void)
  37:SDMMC.cpp     **** {
 110              		.loc 7 37 1 is_stmt 1 view -0
 111              		.cfi_startproc
 112              		@ args = 0, pretend = 0, frame = 1048
 113              		@ frame_needed = 0, uses_anonymous_args = 0
  38:SDMMC.cpp     ****     // Vars and buffs.
  39:SDMMC.cpp     ****     char   outbuff[512];
 114              		.loc 7 39 5 view .LVU13
  40:SDMMC.cpp     ****     char   inbuff[512];
 115              		.loc 7 40 5 view .LVU14
  41:SDMMC.cpp     ****     size_t len, failcnt, byteswritten;
 116              		.loc 7 41 5 view .LVU15
  42:SDMMC.cpp     ****     sprintf(outbuff, "Daisy...Testing...\n1...\n2...\n3...\n");
 117              		.loc 7 42 5 view .LVU16
  37:SDMMC.cpp     ****     // Vars and buffs.
 118              		.loc 7 37 1 is_stmt 0 view .LVU17
 119 0000 30B5     		push	{r4, r5, lr}
 120              		.cfi_def_cfa_offset 12
ARM GAS  /tmp/ccTKQK5e.s 			page 10


 121              		.cfi_offset 4, -12
 122              		.cfi_offset 5, -8
 123              		.cfi_offset 14, -4
 124              		.loc 7 42 12 view .LVU18
 125 0002 334D     		ldr	r5, .L19
  37:SDMMC.cpp     ****     // Vars and buffs.
 126              		.loc 7 37 1 view .LVU19
 127 0004 ADF21C4D 		subw	sp, sp, #1052
 128              		.cfi_def_cfa_offset 1064
 129              		.loc 7 42 12 view .LVU20
 130 0008 0FCD     		ldmia	r5!, {r0, r1, r2, r3}
 131 000a 06AC     		add	r4, sp, #24
 132 000c 0FC4     		stmia	r4!, {r0, r1, r2, r3}
 133 000e 0FCD     		ldmia	r5!, {r0, r1, r2, r3}
 134 0010 2D68     		ldr	r5, [r5]
 135 0012 0FC4     		stmia	r4!, {r0, r1, r2, r3}
 136 0014 2B0C     		lsrs	r3, r5, #16
  43:SDMMC.cpp     ****     memset(inbuff, 0, 512);
 137              		.loc 7 43 11 view .LVU21
 138 0016 4FF40072 		mov	r2, #512
  42:SDMMC.cpp     ****     sprintf(outbuff, "Daisy...Testing...\n1...\n2...\n3...\n");
 139              		.loc 7 42 12 view .LVU22
 140 001a 24F8025B 		strh	r5, [r4], #2	@ movhi
 141              		.loc 7 43 11 view .LVU23
 142 001e 0021     		movs	r1, #0
  42:SDMMC.cpp     ****     sprintf(outbuff, "Daisy...Testing...\n1...\n2...\n3...\n");
 143              		.loc 7 42 12 view .LVU24
 144 0020 2370     		strb	r3, [r4]
 145              		.loc 7 43 5 is_stmt 1 view .LVU25
 146              		.loc 7 43 11 is_stmt 0 view .LVU26
 147 0022 86A8     		add	r0, sp, #536
 148 0024 FFF7FEFF 		bl	memset
 149              	.LVL2:
  44:SDMMC.cpp     ****     len     = strlen(outbuff);
 150              		.loc 7 44 5 is_stmt 1 view .LVU27
  45:SDMMC.cpp     ****     failcnt = 0;
 151              		.loc 7 45 5 view .LVU28
  46:SDMMC.cpp     **** 
  47:SDMMC.cpp     ****     // Init hardware
  48:SDMMC.cpp     ****     hw.Init();
 152              		.loc 7 48 5 view .LVU29
 153              		.loc 7 48 12 is_stmt 0 view .LVU30
 154 0028 0021     		movs	r1, #0
 155 002a 2A48     		ldr	r0, .L19+4
 156              	.LBB63:
 157              	.LBB64:
  72:../../libdaisy/src/per/sdmmc.h ****             clock_powersave = false;
 158              		.loc 1 72 29 view .LVU31
 159 002c 0125     		movs	r5, #1
 160              	.LBE64:
 161              	.LBE63:
 162              		.loc 7 48 12 view .LVU32
 163 002e FFF7FEFF 		bl	_ZN5daisy9DaisySeed4InitEb
 164              	.LVL3:
  49:SDMMC.cpp     **** 
  50:SDMMC.cpp     ****     // Init SD Card
  51:SDMMC.cpp     ****     SdmmcHandler::Config sd_cfg;
ARM GAS  /tmp/ccTKQK5e.s 			page 11


 165              		.loc 7 51 5 is_stmt 1 view .LVU33
  52:SDMMC.cpp     ****     sd_cfg.Defaults();
 166              		.loc 7 52 5 view .LVU34
 167              	.LBB67:
 168              	.LBI63:
  69:../../libdaisy/src/per/sdmmc.h ****         {
 169              		.loc 1 69 14 view .LVU35
 170              	.LBB65:
  71:../../libdaisy/src/per/sdmmc.h ****             width           = BusWidth::BITS_4;
 171              		.loc 1 71 13 view .LVU36
  73:../../libdaisy/src/per/sdmmc.h ****         }
 172              		.loc 1 73 29 is_stmt 0 view .LVU37
 173 0032 0023     		movs	r3, #0
  71:../../libdaisy/src/per/sdmmc.h ****             width           = BusWidth::BITS_4;
 174              		.loc 1 71 29 view .LVU38
 175 0034 0322     		movs	r2, #3
 176              	.LBE65:
 177              	.LBE67:
  53:SDMMC.cpp     ****     sd.Init(sd_cfg);
 178              		.loc 7 53 12 view .LVU39
 179 0036 03A9     		add	r1, sp, #12
 180              	.LVL4:
 181              		.loc 7 53 12 view .LVU40
 182 0038 2748     		ldr	r0, .L19+8
 183              	.LBB68:
 184              	.LBB66:
  73:../../libdaisy/src/per/sdmmc.h ****         }
 185              		.loc 1 73 29 view .LVU41
 186 003a 8DF81430 		strb	r3, [sp, #20]
  71:../../libdaisy/src/per/sdmmc.h ****             width           = BusWidth::BITS_4;
 187              		.loc 1 71 29 view .LVU42
 188 003e 0392     		str	r2, [sp, #12]
  72:../../libdaisy/src/per/sdmmc.h ****             clock_powersave = false;
 189              		.loc 1 72 13 is_stmt 1 view .LVU43
  72:../../libdaisy/src/per/sdmmc.h ****             clock_powersave = false;
 190              		.loc 1 72 29 is_stmt 0 view .LVU44
 191 0040 0495     		str	r5, [sp, #16]
  73:../../libdaisy/src/per/sdmmc.h ****         }
 192              		.loc 1 73 13 is_stmt 1 view .LVU45
 193              	.LVL5:
  73:../../libdaisy/src/per/sdmmc.h ****         }
 194              		.loc 1 73 13 is_stmt 0 view .LVU46
 195              	.LBE66:
 196              	.LBE68:
 197              		.loc 7 53 5 is_stmt 1 view .LVU47
 198              		.loc 7 53 12 is_stmt 0 view .LVU48
 199 0042 FFF7FEFF 		bl	_ZN5daisy12SdmmcHandler4InitERKNS0_6ConfigE
 200              	.LVL6:
  54:SDMMC.cpp     **** 
  55:SDMMC.cpp     ****     // Links libdaisy i/o to fatfs driver.
  56:SDMMC.cpp     ****     dsy_fatfs_init();
 201              		.loc 7 56 5 is_stmt 1 view .LVU49
 202              		.loc 7 56 19 is_stmt 0 view .LVU50
 203 0046 FFF7FEFF 		bl	dsy_fatfs_init
 204              	.LVL7:
  57:SDMMC.cpp     **** 
  58:SDMMC.cpp     ****     // Mount SD Card
ARM GAS  /tmp/ccTKQK5e.s 			page 12


  59:SDMMC.cpp     ****     f_mount(&SDFatFS, SDPath, 1);
 205              		.loc 7 59 5 is_stmt 1 view .LVU51
 206              		.loc 7 59 12 is_stmt 0 view .LVU52
 207 004a 2A46     		mov	r2, r5
 208 004c 2349     		ldr	r1, .L19+12
 209 004e 2448     		ldr	r0, .L19+16
 210 0050 FFF7FEFF 		bl	f_mount
 211              	.LVL8:
  60:SDMMC.cpp     **** 
  61:SDMMC.cpp     ****     // Open and write the test file to the SD Card.
  62:SDMMC.cpp     ****     if(f_open(&SDFile, TEST_FILE_NAME, (FA_CREATE_ALWAYS) | (FA_WRITE))
 212              		.loc 7 62 5 is_stmt 1 view .LVU53
 213              		.loc 7 62 14 is_stmt 0 view .LVU54
 214 0054 0A22     		movs	r2, #10
 215 0056 2349     		ldr	r1, .L19+20
 216 0058 2348     		ldr	r0, .L19+24
 217 005a FFF7FEFF 		bl	f_open
 218              	.LVL9:
  63:SDMMC.cpp     ****        == FR_OK)
  64:SDMMC.cpp     ****     {
  65:SDMMC.cpp     ****         f_write(&SDFile, outbuff, len, &byteswritten);
 219              		.loc 7 65 16 view .LVU55
 220 005e 02AB     		add	r3, sp, #8
  62:SDMMC.cpp     ****        == FR_OK)
 221              		.loc 7 62 5 view .LVU56
 222 0060 10B3     		cbz	r0, .L16
 223              	.L5:
  66:SDMMC.cpp     ****         f_close(&SDFile);
  67:SDMMC.cpp     ****     }
  68:SDMMC.cpp     **** 
  69:SDMMC.cpp     ****     // Read back the test file from the SD Card.
  70:SDMMC.cpp     ****     if(f_open(&SDFile, TEST_FILE_NAME, FA_READ) == FR_OK)
 224              		.loc 7 70 5 is_stmt 1 view .LVU57
 225              		.loc 7 70 14 is_stmt 0 view .LVU58
 226 0062 0122     		movs	r2, #1
 227 0064 1F49     		ldr	r1, .L19+20
 228 0066 2048     		ldr	r0, .L19+24
 229 0068 0193     		str	r3, [sp, #4]
 230 006a FFF7FEFF 		bl	f_open
 231              	.LVL10:
 232              		.loc 7 70 5 view .LVU59
 233 006e 019B     		ldr	r3, [sp, #4]
 234 0070 28B3     		cbz	r0, .L18
 235              	.L6:
  71:SDMMC.cpp     ****     {
  72:SDMMC.cpp     ****         f_read(&SDFile, inbuff, len, &byteswritten);
  73:SDMMC.cpp     ****         f_close(&SDFile);
  74:SDMMC.cpp     ****     }
  75:SDMMC.cpp     **** 
  76:SDMMC.cpp     ****     // Check for sameness.
  77:SDMMC.cpp     ****     for(size_t i = 0; i < len; i++)
 236              		.loc 7 77 5 is_stmt 1 view .LVU60
 237              	.LVL11:
 238              	.LBB69:
 239              		.loc 7 77 25 view .LVU61
 240              		.loc 7 77 25 is_stmt 0 view .LVU62
 241 0072 86AB     		add	r3, sp, #536
ARM GAS  /tmp/ccTKQK5e.s 			page 13


 242 0074 06AA     		add	r2, sp, #24
 243 0076 0DF23A20 		addw	r0, sp, #570
 244              	.LBE69:
  45:SDMMC.cpp     **** 
 245              		.loc 7 45 13 view .LVU63
 246 007a 0021     		movs	r1, #0
 247              	.LVL12:
 248              	.L8:
 249              	.LBB70:
  78:SDMMC.cpp     ****     {
  79:SDMMC.cpp     ****         if(inbuff[i] != outbuff[i])
 250              		.loc 7 79 9 is_stmt 1 view .LVU64
  80:SDMMC.cpp     ****         {
  81:SDMMC.cpp     ****             failcnt++;
 251              		.loc 7 81 13 view .LVU65
  79:SDMMC.cpp     ****         {
 252              		.loc 7 79 20 is_stmt 0 view .LVU66
 253 007c 13F8015B 		ldrb	r5, [r3], #1	@ zero_extendqisi2
 254              	.LVL13:
  79:SDMMC.cpp     ****         {
 255              		.loc 7 79 34 view .LVU67
 256 0080 12F8014B 		ldrb	r4, [r2], #1	@ zero_extendqisi2
  79:SDMMC.cpp     ****         {
 257              		.loc 7 79 9 view .LVU68
 258 0084 A542     		cmp	r5, r4
 259              		.loc 7 81 20 view .LVU69
 260 0086 18BF     		it	ne
 261 0088 0131     		addne	r1, r1, #1
 262              	.LVL14:
  77:SDMMC.cpp     ****     {
 263              		.loc 7 77 5 is_stmt 1 view .LVU70
  77:SDMMC.cpp     ****     {
 264              		.loc 7 77 25 view .LVU71
 265 008a 8342     		cmp	r3, r0
 266 008c F6D1     		bne	.L8
 267              	.LBE70:
  82:SDMMC.cpp     ****         }
  83:SDMMC.cpp     ****     }
  84:SDMMC.cpp     ****     // If what was read does not match
  85:SDMMC.cpp     ****     // what was written execution will stop.
  86:SDMMC.cpp     ****     if(failcnt)
 268              		.loc 7 86 5 view .LVU72
 269 008e 01B1     		cbz	r1, .L9
  87:SDMMC.cpp     ****     {
  88:SDMMC.cpp     ****         asm("bkpt 255");
 270              		.loc 7 88 9 view .LVU73
 271              		.loc 7 88 24 is_stmt 0 view .LVU74
 272              		.syntax unified
 273              	@ 88 "SDMMC.cpp" 1
 274 0090 FFBE     		bkpt 255
 275              	@ 0 "" 2
 276              		.thumb
 277              		.syntax unified
 278              	.L9:
  45:SDMMC.cpp     **** 
 279              		.loc 7 45 13 discriminator 1 view .LVU75
 280 0092 0124     		movs	r4, #1
ARM GAS  /tmp/ccTKQK5e.s 			page 14


 281              	.LVL15:
 282              	.L10:
  89:SDMMC.cpp     ****     }
  90:SDMMC.cpp     ****     bool ledstate;
  91:SDMMC.cpp     ****     ledstate = true;
  92:SDMMC.cpp     ****     // Otherwise the onboard LED will begin to blink.
  93:SDMMC.cpp     ****     for(;;)
 283              		.loc 7 93 5 is_stmt 1 discriminator 1 view .LVU76
  94:SDMMC.cpp     ****     {
  95:SDMMC.cpp     ****         System::Delay(250);
 284              		.loc 7 95 9 discriminator 1 view .LVU77
 285              		.loc 7 95 22 is_stmt 0 discriminator 1 view .LVU78
 286 0094 FA20     		movs	r0, #250
 287 0096 FFF7FEFF 		bl	_ZN5daisy6System5DelayEm
 288              	.LVL16:
  96:SDMMC.cpp     ****         hw.SetLed(ledstate);
 289              		.loc 7 96 9 is_stmt 1 discriminator 1 view .LVU79
 290              		.loc 7 96 18 is_stmt 0 discriminator 1 view .LVU80
 291 009a 2146     		mov	r1, r4
 292 009c 0D48     		ldr	r0, .L19+4
  97:SDMMC.cpp     ****         ledstate = !ledstate;
 293              		.loc 7 97 18 discriminator 1 view .LVU81
 294 009e 84F00104 		eor	r4, r4, #1
 295              	.LVL17:
  96:SDMMC.cpp     ****         hw.SetLed(ledstate);
 296              		.loc 7 96 18 discriminator 1 view .LVU82
 297 00a2 FFF7FEFF 		bl	_ZN5daisy9DaisySeed6SetLedEb
 298              	.LVL18:
 299              		.loc 7 97 9 is_stmt 1 discriminator 1 view .LVU83
  93:SDMMC.cpp     ****     {
 300              		.loc 7 93 5 discriminator 1 view .LVU84
 301 00a6 F5E7     		b	.L10
 302              	.LVL19:
 303              	.L16:
  65:SDMMC.cpp     ****         f_close(&SDFile);
 304              		.loc 7 65 9 view .LVU85
  65:SDMMC.cpp     ****         f_close(&SDFile);
 305              		.loc 7 65 16 is_stmt 0 view .LVU86
 306 00a8 2222     		movs	r2, #34
 307 00aa 06A9     		add	r1, sp, #24
 308 00ac 0E48     		ldr	r0, .L19+24
 309 00ae 0193     		str	r3, [sp, #4]
 310 00b0 FFF7FEFF 		bl	f_write
 311              	.LVL20:
  66:SDMMC.cpp     ****     }
 312              		.loc 7 66 9 is_stmt 1 view .LVU87
  66:SDMMC.cpp     ****     }
 313              		.loc 7 66 16 is_stmt 0 view .LVU88
 314 00b4 0C48     		ldr	r0, .L19+24
 315 00b6 FFF7FEFF 		bl	f_close
 316              	.LVL21:
 317 00ba 019B     		ldr	r3, [sp, #4]
 318 00bc D1E7     		b	.L5
 319              	.L18:
  72:SDMMC.cpp     ****         f_close(&SDFile);
 320              		.loc 7 72 9 is_stmt 1 view .LVU89
  72:SDMMC.cpp     ****         f_close(&SDFile);
ARM GAS  /tmp/ccTKQK5e.s 			page 15


 321              		.loc 7 72 15 is_stmt 0 view .LVU90
 322 00be 2222     		movs	r2, #34
 323 00c0 86A9     		add	r1, sp, #536
 324 00c2 0948     		ldr	r0, .L19+24
 325 00c4 FFF7FEFF 		bl	f_read
 326              	.LVL22:
  73:SDMMC.cpp     ****     }
 327              		.loc 7 73 9 is_stmt 1 view .LVU91
  73:SDMMC.cpp     ****     }
 328              		.loc 7 73 16 is_stmt 0 view .LVU92
 329 00c8 0748     		ldr	r0, .L19+24
 330 00ca FFF7FEFF 		bl	f_close
 331              	.LVL23:
 332 00ce D0E7     		b	.L6
 333              	.L20:
 334              		.align	2
 335              	.L19:
 336 00d0 00000000 		.word	.LC0
 337 00d4 00000000 		.word	.LANCHOR0
 338 00d8 00000000 		.word	.LANCHOR1
 339 00dc 00000000 		.word	SDPath
 340 00e0 00000000 		.word	SDFatFS
 341 00e4 24000000 		.word	.LC1
 342 00e8 00000000 		.word	SDFile
 343              		.cfi_endproc
 344              	.LFE2042:
 346              		.section	.text.startup._GLOBAL__sub_I_sd,"ax",%progbits
 347              		.align	1
 348              		.p2align 2,,3
 349              		.syntax unified
 350              		.thumb
 351              		.thumb_func
 352              		.fpu fpv5-d16
 354              	_GLOBAL__sub_I_sd:
 355              	.LFB2058:
  98:SDMMC.cpp     ****     }
  99:SDMMC.cpp     **** }
 356              		.loc 7 99 1 is_stmt 1 view -0
 357              		.cfi_startproc
 358              		@ args = 0, pretend = 0, frame = 0
 359              		@ frame_needed = 0, uses_anonymous_args = 0
 360              	.LBB87:
 361              	.LBI87:
 362              		.loc 7 99 1 view .LVU94
 363              	.LVL24:
 364              	.LBB88:
 365              	.LBB89:
 366              	.LBI89:
  21:../../libdaisy/src/daisy_seed.h ****     ~DaisySeed() {}
 367              		.loc 2 21 5 view .LVU95
 368              	.LBB90:
 369              	.LBB91:
 370              	.LBI91:
  62:../../libdaisy/src/hid/audio.h ****     ~AudioHandle() {}
 371              		.loc 6 62 5 view .LVU96
 372              	.LBE91:
 373              	.LBE90:
ARM GAS  /tmp/ccTKQK5e.s 			page 16


 374              	.LBE89:
 375              	.LBE88:
 376              	.LBE87:
 377              		.loc 7 99 1 is_stmt 0 view .LVU97
 378 0000 08B5     		push	{r3, lr}
 379              		.cfi_def_cfa_offset 8
 380              		.cfi_offset 3, -8
 381              		.cfi_offset 14, -4
 382              	.LBB111:
 383              	.LBB109:
 384              	.LBB106:
 385              	.LBB104:
 386              	.LBB96:
 387              	.LBB92:
 388              	.LBB93:
  62:../../libdaisy/src/hid/audio.h ****     ~AudioHandle() {}
 389              		.loc 6 62 35 view .LVU98
 390 0002 0748     		ldr	r0, .L23
 391 0004 0023     		movs	r3, #0
 392              	.LBE93:
 393              	.LBE92:
 394              	.LBE96:
 395              	.LBE104:
 396              	.LBE106:
  32:SDMMC.cpp     **** 
 397              		.loc 7 32 18 view .LVU99
 398 0006 074A     		ldr	r2, .L23+4
 399 0008 0749     		ldr	r1, .L23+8
 400              	.LBB107:
 401              	.LBB105:
 402              	.LBB97:
 403              	.LBB95:
 404              	.LBB94:
  62:../../libdaisy/src/hid/audio.h ****     ~AudioHandle() {}
 405              		.loc 6 62 35 view .LVU100
 406 000a 4361     		str	r3, [r0, #20]
 407              	.LVL25:
  62:../../libdaisy/src/hid/audio.h ****     ~AudioHandle() {}
 408              		.loc 6 62 35 view .LVU101
 409              	.LBE94:
 410              	.LBE95:
 411              	.LBE97:
 412              	.LBB98:
 413              	.LBI98:
  84:../../libdaisy/src/per/adc.h ****     ~AdcHandle() {}
 414              		.loc 5 84 5 is_stmt 1 view .LVU102
  84:../../libdaisy/src/per/adc.h ****     ~AdcHandle() {}
 415              		.loc 5 84 5 is_stmt 0 view .LVU103
 416              	.LBE98:
 417              	.LBB99:
 418              	.LBI99:
 419              		.file 8 "../../libdaisy/src/per/dac.h"
   1:../../libdaisy/src/per/dac.h **** #pragma once
   2:../../libdaisy/src/per/dac.h **** #ifndef DSY_DAC_H
   3:../../libdaisy/src/per/dac.h **** #define DSY_DAC_H
   4:../../libdaisy/src/per/dac.h **** 
   5:../../libdaisy/src/per/dac.h **** #include "daisy_core.h"
ARM GAS  /tmp/ccTKQK5e.s 			page 17


   6:../../libdaisy/src/per/dac.h **** 
   7:../../libdaisy/src/per/dac.h **** namespace daisy
   8:../../libdaisy/src/per/dac.h **** {
   9:../../libdaisy/src/per/dac.h **** /** DAC handle for Built-in DAC Peripheral 
  10:../../libdaisy/src/per/dac.h ****  ** 
  11:../../libdaisy/src/per/dac.h ****  ** For now only Normal Mode is supported,
  12:../../libdaisy/src/per/dac.h ****  ** Sample and hold mode provides reduced power consumption, but requires a bit more setup.
  13:../../libdaisy/src/per/dac.h ****  **
  14:../../libdaisy/src/per/dac.h ****  ** For now connecting the DAC through other internal periphearls is also not supported.
  15:../../libdaisy/src/per/dac.h ****  **
  16:../../libdaisy/src/per/dac.h ****  ** Since the DAC channels have dedicated pins we don't need to pass in a pin config like with
  17:../../libdaisy/src/per/dac.h ****  ** other modules. However, it is still important to not try to use the DAC pins for anything else.
  18:../../libdaisy/src/per/dac.h ****  ** DAC Channel 1 is on PA4, and DAC Channel 2 is on PA5
  19:../../libdaisy/src/per/dac.h ****  ***/
  20:../../libdaisy/src/per/dac.h **** class DacHandle
  21:../../libdaisy/src/per/dac.h **** {
  22:../../libdaisy/src/per/dac.h ****   public:
  23:../../libdaisy/src/per/dac.h ****     /** Return Values for the DacHandle class */
  24:../../libdaisy/src/per/dac.h ****     enum class Result
  25:../../libdaisy/src/per/dac.h ****     {
  26:../../libdaisy/src/per/dac.h ****         OK,
  27:../../libdaisy/src/per/dac.h ****         ERR,
  28:../../libdaisy/src/per/dac.h ****     };
  29:../../libdaisy/src/per/dac.h **** 
  30:../../libdaisy/src/per/dac.h ****     /** Selects which channel(s) will be configured for use. */
  31:../../libdaisy/src/per/dac.h ****     enum class Channel
  32:../../libdaisy/src/per/dac.h ****     {
  33:../../libdaisy/src/per/dac.h ****         ONE,
  34:../../libdaisy/src/per/dac.h ****         TWO,
  35:../../libdaisy/src/per/dac.h ****         BOTH,
  36:../../libdaisy/src/per/dac.h ****     };
  37:../../libdaisy/src/per/dac.h **** 
  38:../../libdaisy/src/per/dac.h ****     /** Sets the Mode for the DAC channels.
  39:../../libdaisy/src/per/dac.h ****      **
  40:../../libdaisy/src/per/dac.h ****      ** Polling mode uses the blocking mode to transmit a single value at a time.
  41:../../libdaisy/src/per/dac.h ****      **
  42:../../libdaisy/src/per/dac.h ****      ** DMA mode uses a buffer, and periodically transmits it triggering a 
  43:../../libdaisy/src/per/dac.h ****      ** callback to fill the buffer when it is ready for more samples.
  44:../../libdaisy/src/per/dac.h ****      ***/
  45:../../libdaisy/src/per/dac.h ****     enum class Mode
  46:../../libdaisy/src/per/dac.h ****     {
  47:../../libdaisy/src/per/dac.h ****         POLLING,
  48:../../libdaisy/src/per/dac.h ****         DMA,
  49:../../libdaisy/src/per/dac.h ****     };
  50:../../libdaisy/src/per/dac.h **** 
  51:../../libdaisy/src/per/dac.h ****     /** Sets the number of bits per sample transmitted out of the DAC.
  52:../../libdaisy/src/per/dac.h ****      ** The output range will be: 0V - VDDA
  53:../../libdaisy/src/per/dac.h ****      ** The resolution will be roughly: bitdepth / (VDDA - 0V) 
  54:../../libdaisy/src/per/dac.h ****      ***/
  55:../../libdaisy/src/per/dac.h ****     enum class BitDepth
  56:../../libdaisy/src/per/dac.h ****     {
  57:../../libdaisy/src/per/dac.h ****         BITS_8,
  58:../../libdaisy/src/per/dac.h ****         BITS_12
  59:../../libdaisy/src/per/dac.h ****     };
  60:../../libdaisy/src/per/dac.h **** 
  61:../../libdaisy/src/per/dac.h ****     /** Sets whether the DAC output is buffered for higher drive ability. */
  62:../../libdaisy/src/per/dac.h ****     enum class BufferState
ARM GAS  /tmp/ccTKQK5e.s 			page 18


  63:../../libdaisy/src/per/dac.h ****     {
  64:../../libdaisy/src/per/dac.h ****         ENABLED,
  65:../../libdaisy/src/per/dac.h ****         DISABLED,
  66:../../libdaisy/src/per/dac.h ****     };
  67:../../libdaisy/src/per/dac.h **** 
  68:../../libdaisy/src/per/dac.h ****     /** Configuration structure for initializing the DAC structure. */
  69:../../libdaisy/src/per/dac.h ****     struct Config
  70:../../libdaisy/src/per/dac.h ****     {
  71:../../libdaisy/src/per/dac.h ****         /** Target Samplerate in Hz used to configure the internal 
  72:../../libdaisy/src/per/dac.h ****          ** timebase for DMA mode. Does nothing in POLLING mode.
  73:../../libdaisy/src/per/dac.h ****          ** If the value is 0 at Init time this will default to 48000Hz 
  74:../../libdaisy/src/per/dac.h ****          ** otherwise the driver will attempt meet the target.*/
  75:../../libdaisy/src/per/dac.h ****         uint32_t target_samplerate;
  76:../../libdaisy/src/per/dac.h **** 
  77:../../libdaisy/src/per/dac.h ****         Channel     chn;
  78:../../libdaisy/src/per/dac.h ****         Mode        mode;
  79:../../libdaisy/src/per/dac.h ****         BitDepth    bitdepth;
  80:../../libdaisy/src/per/dac.h ****         BufferState buff_state;
  81:../../libdaisy/src/per/dac.h ****     };
  82:../../libdaisy/src/per/dac.h **** 
  83:../../libdaisy/src/per/dac.h ****     DacHandle() : pimpl_(nullptr) {}
 420              		.loc 8 83 5 is_stmt 1 view .LVU104
 421              	.LBB100:
 422              	.LBB101:
 423              		.loc 8 83 33 is_stmt 0 view .LVU105
 424 000c 0362     		str	r3, [r0, #32]
 425              	.LVL26:
 426              		.loc 8 83 33 view .LVU106
 427              	.LBE101:
 428              	.LBE100:
 429              	.LBE99:
 430              	.LBB102:
 431              	.LBI102:
  40:../../libdaisy/src/hid/usb.h **** 
 432              		.loc 4 40 5 is_stmt 1 view .LVU107
  40:../../libdaisy/src/hid/usb.h **** 
 433              		.loc 4 40 5 is_stmt 0 view .LVU108
 434              	.LBE102:
 435              	.LBB103:
 436              	.LBI103:
  58:../../libdaisy/src/sys/system.h ****     ~System() {}
 437              		.loc 3 58 5 is_stmt 1 view .LVU109
  58:../../libdaisy/src/sys/system.h ****     ~System() {}
 438              		.loc 3 58 5 is_stmt 0 view .LVU110
 439              	.LBE103:
 440              	.LBE105:
 441              	.LBE107:
  32:SDMMC.cpp     **** 
 442              		.loc 7 32 18 view .LVU111
 443 000e FFF7FEFF 		bl	__aeabi_atexit
 444              	.LVL27:
 445              	.LBB108:
 446              	.LBI108:
  77:../../libdaisy/src/per/sdmmc.h ****     ~SdmmcHandler() {}
 447              		.loc 1 77 5 is_stmt 1 view .LVU112
  77:../../libdaisy/src/per/sdmmc.h ****     ~SdmmcHandler() {}
 448              		.loc 1 77 5 is_stmt 0 view .LVU113
ARM GAS  /tmp/ccTKQK5e.s 			page 19


 449              	.LBE108:
  34:SDMMC.cpp     **** 
 450              		.loc 7 34 14 view .LVU114
 451 0012 044A     		ldr	r2, .L23+4
 452 0014 0549     		ldr	r1, .L23+12
 453 0016 0648     		ldr	r0, .L23+16
 454              	.LBE109:
 455              	.LBE111:
 456              		.loc 7 99 1 view .LVU115
 457 0018 BDE80840 		pop	{r3, lr}
 458              		.cfi_restore 14
 459              		.cfi_restore 3
 460              		.cfi_def_cfa_offset 0
 461              	.LBB112:
 462              	.LBB110:
  34:SDMMC.cpp     **** 
 463              		.loc 7 34 14 view .LVU116
 464 001c FFF7FEBF 		b	__aeabi_atexit
 465              	.LVL28:
 466              	.L24:
 467              		.align	2
 468              	.L23:
 469 0020 00000000 		.word	.LANCHOR0
 470 0024 00000000 		.word	__dso_handle
 471 0028 00000000 		.word	_ZN5daisy9DaisySeedD1Ev
 472 002c 00000000 		.word	_ZN5daisy12SdmmcHandlerD1Ev
 473 0030 00000000 		.word	.LANCHOR1
 474              	.LBE110:
 475              	.LBE112:
 476              		.cfi_endproc
 477              	.LFE2058:
 479              		.section	.init_array,"aw",%init_array
 480              		.align	2
 481 0000 00000000 		.word	_GLOBAL__sub_I_sd(target1)
 482              		.global	sd
 483              		.section	.bss._ZL2hw,"aw",%nobits
 484              		.align	2
 485              		.set	.LANCHOR0,. + 0
 488              	_ZL2hw:
 489 0000 00000000 		.space	60
 489      00000000 
 489      00000000 
 489      00000000 
 489      00000000 
 490              		.section	.bss.sd,"aw",%nobits
 491              		.align	2
 492              		.set	.LANCHOR1,. + 0
 495              	sd:
 496 0000 00       		.space	1
 497              		.text
 498              	.Letext0:
 499              		.file 9 "/usr/lib/gcc/arm-none-eabi/9.2.1/include/stdint.h"
 500              		.file 10 "../../libdaisy/Drivers/CMSIS/Include/core_cm7.h"
 501              		.file 11 "../../libdaisy/Drivers/CMSIS/Device/ST/STM32H7xx/Include/system_stm32h7xx.h"
 502              		.file 12 "/usr/lib/gcc/arm-none-eabi/9.2.1/include/stddef.h"
 503              		.file 13 "/usr/include/newlib/c++/9.2.1/cmath"
 504              		.file 14 "/usr/include/newlib/c++/9.2.1/bits/std_abs.h"
ARM GAS  /tmp/ccTKQK5e.s 			page 20


 505              		.file 15 "/usr/include/newlib/c++/9.2.1/cstdlib"
 506              		.file 16 "/usr/include/newlib/c++/9.2.1/cstdint"
 507              		.file 17 "/usr/include/newlib/c++/9.2.1/type_traits"
 508              		.file 18 "/usr/include/newlib/c++/9.2.1/bits/stl_pair.h"
 509              		.file 19 "/usr/include/newlib/c++/9.2.1/debug/debug.h"
 510              		.file 20 "/usr/include/newlib/c++/9.2.1/arm-none-eabi/thumb/v7e-m+dp/hard/bits/c++config.h"
 511              		.file 21 "/usr/include/newlib/c++/9.2.1/bits/algorithmfwd.h"
 512              		.file 22 "/usr/include/newlib/c++/9.2.1/bits/exception_ptr.h"
 513              		.file 23 "/usr/include/newlib/c++/9.2.1/new"
 514              		.file 24 "/usr/include/newlib/c++/9.2.1/cstdarg"
 515              		.file 25 "/usr/include/newlib/c++/9.2.1/cstdio"
 516              		.file 26 "/usr/include/newlib/c++/9.2.1/bits/predefined_ops.h"
 517              		.file 27 "/usr/include/newlib/c++/9.2.1/ext/numeric_traits.h"
 518              		.file 28 "/usr/include/newlib/sys/_types.h"
 519              		.file 29 "<built-in>"
 520              		.file 30 "/usr/include/newlib/sys/reent.h"
 521              		.file 31 "/usr/include/newlib/sys/lock.h"
 522              		.file 32 "/usr/include/newlib/math.h"
 523              		.file 33 "/usr/include/newlib/stdlib.h"
 524              		.file 34 "/usr/include/newlib/c++/9.2.1/math.h"
 525              		.file 35 "../../libdaisy/Drivers/STM32H7xx_HAL_Driver/Inc/stm32h7xx_hal_def.h"
 526              		.file 36 "../../libdaisy/Drivers/STM32H7xx_HAL_Driver/Inc/stm32h7xx_hal_flash.h"
 527              		.file 37 "/usr/lib/gcc/arm-none-eabi/9.2.1/include/stdarg.h"
 528              		.file 38 "/usr/include/newlib/stdio.h"
 529              		.file 39 "/usr/include/newlib/c++/9.2.1/stdlib.h"
 530              		.file 40 "../../libdaisy/src/daisy_core.h"
 531              		.file 41 "../../libdaisy/src/per/tim.h"
 532              		.file 42 "../../libdaisy/src/per/sai.h"
 533              		.file 43 "../../libdaisy/src/util/wav_format.h"
 534              		.file 44 "../../libdaisy/src/per/qspi.h"
 535              		.file 45 "../../libdaisy/src/per/gpio.h"
 536              		.file 46 "../../libdaisy/src/dev/sdram.h"
 537              		.file 47 "/usr/include/newlib/sys/unistd.h"
 538              		.file 48 "../../libdaisy/src/util/oled_fonts.h"
 539              		.file 49 "../../libdaisy/Middlewares/Third_Party/FatFs/src/integer.h"
 540              		.file 50 "../../libdaisy/Middlewares/Third_Party/FatFs/src/ff.h"
 541              		.file 51 "../../libdaisy/Middlewares/Third_Party/FatFs/src/diskio.h"
 542              		.file 52 "../../libdaisy/Middlewares/Third_Party/FatFs/src/ff_gen_drv.h"
 543              		.file 53 "../../libdaisy/src/util/sd_diskio.h"
 544              		.file 54 "../../libdaisy/src/sys/fatfs.h"
 545              		.file 55 "../../libdaisy/src/dev/sr_595.h"
ARM GAS  /tmp/ccTKQK5e.s 			page 21

