ARM GAS  /tmp/ccZhYDze.s 			page 1


   1              		.cpu cortex-m7
   2              		.eabi_attribute 28, 1
   3              		.eabi_attribute 20, 1
   4              		.eabi_attribute 21, 1
   5              		.eabi_attribute 23, 3
   6              		.eabi_attribute 24, 1
   7              		.eabi_attribute 25, 1
   8              		.eabi_attribute 26, 1
   9              		.eabi_attribute 30, 2
  10              		.eabi_attribute 34, 1
  11              		.eabi_attribute 18, 4
  12              		.file	"ex_verb.cpp"
  13              		.text
  14              	.Ltext0:
  15              		.cfi_sections	.debug_frame
  16              		.section	.text._ZN7daisysp8ReverbScD2Ev,"axG",%progbits,_ZN7daisysp8ReverbScD5Ev,comdat
  17              		.align	1
  18              		.p2align 2,,3
  19              		.weak	_ZN7daisysp8ReverbScD2Ev
  20              		.arch armv7e-m
  21              		.syntax unified
  22              		.thumb
  23              		.thumb_func
  24              		.fpu fpv5-d16
  26              	_ZN7daisysp8ReverbScD2Ev:
  27              	.LVL0:
  28              	.LFB3000:
  29              		.file 1 "../../DaisySP/Source/Effects/reverbsc.h"
   1:../../DaisySP/Source/Effects/reverbsc.h **** #pragma once
   2:../../DaisySP/Source/Effects/reverbsc.h **** #ifndef DSYSP_REVERBSC_H
   3:../../DaisySP/Source/Effects/reverbsc.h **** #define DSYSP_REVERBSC_H
   4:../../DaisySP/Source/Effects/reverbsc.h **** 
   5:../../DaisySP/Source/Effects/reverbsc.h **** #define DSY_REVERBSC_MAX_SIZE 98936
   6:../../DaisySP/Source/Effects/reverbsc.h **** 
   7:../../DaisySP/Source/Effects/reverbsc.h **** namespace daisysp
   8:../../DaisySP/Source/Effects/reverbsc.h **** {
   9:../../DaisySP/Source/Effects/reverbsc.h **** /**Delay line for internal reverb use
  10:../../DaisySP/Source/Effects/reverbsc.h **** */
  11:../../DaisySP/Source/Effects/reverbsc.h **** typedef struct
  12:../../DaisySP/Source/Effects/reverbsc.h **** {
  13:../../DaisySP/Source/Effects/reverbsc.h ****     int    write_pos;         /**< write position */
  14:../../DaisySP/Source/Effects/reverbsc.h ****     int    buffer_size;       /**< buffer size */
  15:../../DaisySP/Source/Effects/reverbsc.h ****     int    read_pos;          /**< read position */
  16:../../DaisySP/Source/Effects/reverbsc.h ****     int    read_pos_frac;     /**< fractional component of read pos */
  17:../../DaisySP/Source/Effects/reverbsc.h ****     int    read_pos_frac_inc; /**< increment for fractional */
  18:../../DaisySP/Source/Effects/reverbsc.h ****     int    dummy;             /**<  dummy var */
  19:../../DaisySP/Source/Effects/reverbsc.h ****     int    seed_val;          /**< randseed */
  20:../../DaisySP/Source/Effects/reverbsc.h ****     int    rand_line_cnt;     /**< number of random lines */
  21:../../DaisySP/Source/Effects/reverbsc.h ****     float  filter_state;      /**< state of filter */
  22:../../DaisySP/Source/Effects/reverbsc.h ****     float *buf;               /**< buffer ptr */
  23:../../DaisySP/Source/Effects/reverbsc.h **** } ReverbScDl;
  24:../../DaisySP/Source/Effects/reverbsc.h **** 
  25:../../DaisySP/Source/Effects/reverbsc.h **** /** Stereo Reverb
  26:../../DaisySP/Source/Effects/reverbsc.h **** 
  27:../../DaisySP/Source/Effects/reverbsc.h **** Reverb SC:               Ported from csound/soundpipe
  28:../../DaisySP/Source/Effects/reverbsc.h **** 
  29:../../DaisySP/Source/Effects/reverbsc.h **** Original author(s):        Sean Costello, Istvan Varga
ARM GAS  /tmp/ccZhYDze.s 			page 2


  30:../../DaisySP/Source/Effects/reverbsc.h **** 
  31:../../DaisySP/Source/Effects/reverbsc.h **** Year:                    1999, 2005
  32:../../DaisySP/Source/Effects/reverbsc.h **** 
  33:../../DaisySP/Source/Effects/reverbsc.h **** Ported to soundpipe by:  Paul Batchelor
  34:../../DaisySP/Source/Effects/reverbsc.h **** 
  35:../../DaisySP/Source/Effects/reverbsc.h **** Ported by:                Stephen Hensley
  36:../../DaisySP/Source/Effects/reverbsc.h **** */
  37:../../DaisySP/Source/Effects/reverbsc.h **** class ReverbSc
  38:../../DaisySP/Source/Effects/reverbsc.h **** {
  39:../../DaisySP/Source/Effects/reverbsc.h ****   public:
  40:../../DaisySP/Source/Effects/reverbsc.h ****     ReverbSc() {}
  41:../../DaisySP/Source/Effects/reverbsc.h ****     ~ReverbSc() {}
  30              		.loc 1 41 5 view -0
  31              		.cfi_startproc
  32              		@ args = 0, pretend = 0, frame = 0
  33              		@ frame_needed = 0, uses_anonymous_args = 0
  34              		@ link register save eliminated.
  35              		.loc 1 41 18 is_stmt 0 view .LVU1
  36 0000 7047     		bx	lr
  37              		.cfi_endproc
  38              	.LFE3000:
  40              		.weak	_ZN7daisysp8ReverbScD1Ev
  41              		.thumb_set _ZN7daisysp8ReverbScD1Ev,_ZN7daisysp8ReverbScD2Ev
  42 0002 00BF     		.section	.text._ZN5daisy9ParameterD2Ev,"axG",%progbits,_ZN5daisy9ParameterD5Ev,comdat
  43              		.align	1
  44              		.p2align 2,,3
  45              		.weak	_ZN5daisy9ParameterD2Ev
  46              		.syntax unified
  47              		.thumb
  48              		.thumb_func
  49              		.fpu fpv5-d16
  51              	_ZN5daisy9ParameterD2Ev:
  52              	.LVL1:
  53              	.LFB3778:
  54              		.file 2 "../../libdaisy/src/hid/parameter.h"
   1:../../libdaisy/src/hid/parameter.h **** #pragma once
   2:../../libdaisy/src/hid/parameter.h **** #include <stdint.h>
   3:../../libdaisy/src/hid/parameter.h **** #include "hid/ctrl.h"
   4:../../libdaisy/src/hid/parameter.h **** 
   5:../../libdaisy/src/hid/parameter.h **** namespace daisy
   6:../../libdaisy/src/hid/parameter.h **** {
   7:../../libdaisy/src/hid/parameter.h **** /** @addtogroup controls
   8:../../libdaisy/src/hid/parameter.h ****     @{
   9:../../libdaisy/src/hid/parameter.h **** */
  10:../../libdaisy/src/hid/parameter.h **** 
  11:../../libdaisy/src/hid/parameter.h **** /**      Simple parameter mapping tool that takes a 0-1 input from an hid_ctrl. */
  12:../../libdaisy/src/hid/parameter.h **** class Parameter
  13:../../libdaisy/src/hid/parameter.h **** {
  14:../../libdaisy/src/hid/parameter.h ****   public:
  15:../../libdaisy/src/hid/parameter.h ****     /** Curves are applied to the output signal */
  16:../../libdaisy/src/hid/parameter.h ****     enum Curve
  17:../../libdaisy/src/hid/parameter.h ****     {
  18:../../libdaisy/src/hid/parameter.h ****         LINEAR,      /**< Linear curve */
  19:../../libdaisy/src/hid/parameter.h ****         EXPONENTIAL, /**< Exponential curve */
  20:../../libdaisy/src/hid/parameter.h ****         LOGARITHMIC, /**<  Logarithmic curve */
  21:../../libdaisy/src/hid/parameter.h ****         CUBE,        /**< Cubic curve */
  22:../../libdaisy/src/hid/parameter.h ****         LAST,        /**< Final enum element. */
ARM GAS  /tmp/ccZhYDze.s 			page 3


  23:../../libdaisy/src/hid/parameter.h ****     };
  24:../../libdaisy/src/hid/parameter.h ****     /** Constructor */
  25:../../libdaisy/src/hid/parameter.h ****     Parameter() {}
  26:../../libdaisy/src/hid/parameter.h ****     /** Destructor */
  27:../../libdaisy/src/hid/parameter.h ****     ~Parameter() {}
  55              		.loc 2 27 5 is_stmt 1 view -0
  56              		.cfi_startproc
  57              		@ args = 0, pretend = 0, frame = 0
  58              		@ frame_needed = 0, uses_anonymous_args = 0
  59              		@ link register save eliminated.
  60              	.LBB605:
  61              	.LBI605:
  62              		.file 3 "../../libdaisy/src/hid/ctrl.h"
   1:../../libdaisy/src/hid/ctrl.h **** #pragma once
   2:../../libdaisy/src/hid/ctrl.h **** #ifndef DSY_KNOB_H
   3:../../libdaisy/src/hid/ctrl.h **** #define DSY_KNOB_H /**< & */
   4:../../libdaisy/src/hid/ctrl.h **** #include <stdint.h>
   5:../../libdaisy/src/hid/ctrl.h **** 
   6:../../libdaisy/src/hid/ctrl.h **** #ifdef __cplusplus
   7:../../libdaisy/src/hid/ctrl.h **** namespace daisy
   8:../../libdaisy/src/hid/ctrl.h **** {
   9:../../libdaisy/src/hid/ctrl.h **** /**
  10:../../libdaisy/src/hid/ctrl.h ****     @brief Hardware Interface for control inputs \n 
  11:../../libdaisy/src/hid/ctrl.h ****     Primarily designed for ADC input controls such as \n 
  12:../../libdaisy/src/hid/ctrl.h ****     potentiometers, and control voltage. \n 
  13:../../libdaisy/src/hid/ctrl.h ****     @author Stephen Hensley
  14:../../libdaisy/src/hid/ctrl.h ****     @date November 2019
  15:../../libdaisy/src/hid/ctrl.h ****     @ingroup controls
  16:../../libdaisy/src/hid/ctrl.h **** */
  17:../../libdaisy/src/hid/ctrl.h **** class AnalogControl
  18:../../libdaisy/src/hid/ctrl.h **** {
  19:../../libdaisy/src/hid/ctrl.h ****   public:
  20:../../libdaisy/src/hid/ctrl.h ****     /** Constructor */
  21:../../libdaisy/src/hid/ctrl.h ****     AnalogControl() {}
  22:../../libdaisy/src/hid/ctrl.h ****     /** destructor */
  23:../../libdaisy/src/hid/ctrl.h ****     ~AnalogControl() {}
  63              		.loc 3 23 5 view .LVU3
  64              		.loc 3 23 5 is_stmt 0 view .LVU4
  65              	.LBE605:
  66              		.loc 2 27 19 view .LVU5
  67 0000 7047     		bx	lr
  68              		.cfi_endproc
  69              	.LFE3778:
  71              		.weak	_ZN5daisy9ParameterD1Ev
  72              		.thumb_set _ZN5daisy9ParameterD1Ev,_ZN5daisy9ParameterD2Ev
  73 0002 00BF     		.section	.text._ZN5daisy10DaisyPatchD2Ev,"axG",%progbits,_ZN5daisy10DaisyPatchD5Ev,comdat
  74              		.align	1
  75              		.p2align 2,,3
  76              		.weak	_ZN5daisy10DaisyPatchD2Ev
  77              		.syntax unified
  78              		.thumb
  79              		.thumb_func
  80              		.fpu fpv5-d16
  82              	_ZN5daisy10DaisyPatchD2Ev:
  83              	.LVL2:
  84              	.LFB4230:
  85              		.file 4 "../../libdaisy/src/daisy_patch.h"
ARM GAS  /tmp/ccZhYDze.s 			page 4


   1:../../libdaisy/src/daisy_patch.h **** #pragma once
   2:../../libdaisy/src/daisy_patch.h **** #ifndef DSY_PATCH_BSP_H
   3:../../libdaisy/src/daisy_patch.h **** #define DSY_PATCH_BSP_H
   4:../../libdaisy/src/daisy_patch.h **** #include "daisy_seed.h"
   5:../../libdaisy/src/daisy_patch.h **** #include "dev/oled_ssd130x.h"
   6:../../libdaisy/src/daisy_patch.h **** 
   7:../../libdaisy/src/daisy_patch.h **** namespace daisy
   8:../../libdaisy/src/daisy_patch.h **** {
   9:../../libdaisy/src/daisy_patch.h **** /**
  10:../../libdaisy/src/daisy_patch.h ****     @brief Class that handles initializing all of the hardware specific to the Daisy Patch Board. \
  11:../../libdaisy/src/daisy_patch.h ****     Helper funtions are also in place to provide easy access to built-in controls and peripherals.
  12:../../libdaisy/src/daisy_patch.h ****     @author Stephen Hensley
  13:../../libdaisy/src/daisy_patch.h ****     @date November 2019
  14:../../libdaisy/src/daisy_patch.h ****     @ingroup boards
  15:../../libdaisy/src/daisy_patch.h **** */
  16:../../libdaisy/src/daisy_patch.h **** class DaisyPatch
  17:../../libdaisy/src/daisy_patch.h **** {
  18:../../libdaisy/src/daisy_patch.h ****   public:
  19:../../libdaisy/src/daisy_patch.h ****     /** Enum of Ctrls to represent the four CV/Knob combos on the Patch
  20:../../libdaisy/src/daisy_patch.h ****      */
  21:../../libdaisy/src/daisy_patch.h ****     enum Ctrl
  22:../../libdaisy/src/daisy_patch.h ****     {
  23:../../libdaisy/src/daisy_patch.h ****         CTRL_1,    /**< */
  24:../../libdaisy/src/daisy_patch.h ****         CTRL_2,    /**< */
  25:../../libdaisy/src/daisy_patch.h ****         CTRL_3,    /**< */
  26:../../libdaisy/src/daisy_patch.h ****         CTRL_4,    /**< */
  27:../../libdaisy/src/daisy_patch.h ****         CTRL_LAST, /**< */
  28:../../libdaisy/src/daisy_patch.h ****     };
  29:../../libdaisy/src/daisy_patch.h **** 
  30:../../libdaisy/src/daisy_patch.h ****     /** Daisy patch gate inputs */
  31:../../libdaisy/src/daisy_patch.h ****     enum GateInput
  32:../../libdaisy/src/daisy_patch.h ****     {
  33:../../libdaisy/src/daisy_patch.h ****         GATE_IN_1,    /**< */
  34:../../libdaisy/src/daisy_patch.h ****         GATE_IN_2,    /** <*/
  35:../../libdaisy/src/daisy_patch.h ****         GATE_IN_LAST, /**< */
  36:../../libdaisy/src/daisy_patch.h ****     };
  37:../../libdaisy/src/daisy_patch.h **** 
  38:../../libdaisy/src/daisy_patch.h ****     /** Constructor */
  39:../../libdaisy/src/daisy_patch.h ****     DaisyPatch() {}
  40:../../libdaisy/src/daisy_patch.h ****     /** Destructor */
  41:../../libdaisy/src/daisy_patch.h ****     ~DaisyPatch() {}
  86              		.loc 4 41 5 is_stmt 1 view -0
  87              		.cfi_startproc
  88              		@ args = 0, pretend = 0, frame = 0
  89              		@ frame_needed = 0, uses_anonymous_args = 0
  90              		@ link register save eliminated.
  91              	.LBB606:
  92              	.LBI606:
  93              		.file 5 "../../libdaisy/src/hid/disp/oled_display.h"
   1:../../libdaisy/src/hid/disp/oled_display.h **** #pragma once
   2:../../libdaisy/src/hid/disp/oled_display.h **** #ifndef DSY_OLED_DISPLAY_H
   3:../../libdaisy/src/hid/disp/oled_display.h **** #define DSY_OLED_DISPLAY_H /**< Macro */
   4:../../libdaisy/src/hid/disp/oled_display.h **** 
   5:../../libdaisy/src/hid/disp/oled_display.h **** #include "display.h"
   6:../../libdaisy/src/hid/disp/oled_display.h **** 
   7:../../libdaisy/src/hid/disp/oled_display.h **** namespace daisy
   8:../../libdaisy/src/hid/disp/oled_display.h **** {
ARM GAS  /tmp/ccZhYDze.s 			page 5


   9:../../libdaisy/src/hid/disp/oled_display.h **** /** 
  10:../../libdaisy/src/hid/disp/oled_display.h ****  * This class is for drawing to a monochrome OLED display. 
  11:../../libdaisy/src/hid/disp/oled_display.h **** */
  12:../../libdaisy/src/hid/disp/oled_display.h **** template <typename DisplayDriver>
  13:../../libdaisy/src/hid/disp/oled_display.h **** class OledDisplay : public OneBitGraphicsDisplayImpl<OledDisplay<DisplayDriver>>
  14:../../libdaisy/src/hid/disp/oled_display.h **** {
  15:../../libdaisy/src/hid/disp/oled_display.h ****   public:
  16:../../libdaisy/src/hid/disp/oled_display.h ****     OledDisplay() {}
  17:../../libdaisy/src/hid/disp/oled_display.h ****     virtual ~OledDisplay() {}
  94              		.loc 5 17 13 view .LVU7
  95              	.LBB607:
  96              	.LBI607:
  97              		.file 6 "../../libdaisy/src/hid/disp/display.h"
   1:../../libdaisy/src/hid/disp/display.h **** #pragma once
   2:../../libdaisy/src/hid/disp/display.h **** #ifndef DSY_DISPLAY_H
   3:../../libdaisy/src/hid/disp/display.h **** #define DSY_DISPLAY_H /**< Macro */
   4:../../libdaisy/src/hid/disp/display.h **** #include <cmath>
   5:../../libdaisy/src/hid/disp/display.h **** #include "util/oled_fonts.h"
   6:../../libdaisy/src/hid/disp/display.h **** #include "daisy_core.h"
   7:../../libdaisy/src/hid/disp/display.h **** #include "graphics_common.h"
   8:../../libdaisy/src/hid/disp/display.h **** 
   9:../../libdaisy/src/hid/disp/display.h **** #ifndef deg2rad
  10:../../libdaisy/src/hid/disp/display.h **** #define deg2rad(deg) ((deg)*3.141592 / 180.0)
  11:../../libdaisy/src/hid/disp/display.h **** #endif
  12:../../libdaisy/src/hid/disp/display.h **** 
  13:../../libdaisy/src/hid/disp/display.h **** namespace daisy
  14:../../libdaisy/src/hid/disp/display.h **** {
  15:../../libdaisy/src/hid/disp/display.h **** /** 
  16:../../libdaisy/src/hid/disp/display.h ****  * This interface is used as a base class for all types of 1bit-per-pixel
  17:../../libdaisy/src/hid/disp/display.h ****  * graphics displays.
  18:../../libdaisy/src/hid/disp/display.h **** */
  19:../../libdaisy/src/hid/disp/display.h **** class OneBitGraphicsDisplay
  20:../../libdaisy/src/hid/disp/display.h **** {
  21:../../libdaisy/src/hid/disp/display.h ****   public:
  22:../../libdaisy/src/hid/disp/display.h ****     OneBitGraphicsDisplay() {}
  23:../../libdaisy/src/hid/disp/display.h ****     virtual ~OneBitGraphicsDisplay() {}
  24:../../libdaisy/src/hid/disp/display.h **** 
  25:../../libdaisy/src/hid/disp/display.h ****     virtual uint16_t Height() const = 0;
  26:../../libdaisy/src/hid/disp/display.h ****     virtual uint16_t Width() const  = 0;
  27:../../libdaisy/src/hid/disp/display.h **** 
  28:../../libdaisy/src/hid/disp/display.h ****     Rectangle GetBounds() const
  29:../../libdaisy/src/hid/disp/display.h ****     {
  30:../../libdaisy/src/hid/disp/display.h ****         return Rectangle(int16_t(Width()), int16_t(Height()));
  31:../../libdaisy/src/hid/disp/display.h ****     }
  32:../../libdaisy/src/hid/disp/display.h **** 
  33:../../libdaisy/src/hid/disp/display.h **** 
  34:../../libdaisy/src/hid/disp/display.h ****     size_t CurrentX() { return currentX_; };
  35:../../libdaisy/src/hid/disp/display.h ****     size_t CurrentY() { return currentY_; };
  36:../../libdaisy/src/hid/disp/display.h **** 
  37:../../libdaisy/src/hid/disp/display.h ****     /** 
  38:../../libdaisy/src/hid/disp/display.h ****     Fills the entire display with either on/off.
  39:../../libdaisy/src/hid/disp/display.h ****     \param on Sets on or off.
  40:../../libdaisy/src/hid/disp/display.h ****     */
  41:../../libdaisy/src/hid/disp/display.h ****     virtual void Fill(bool on) = 0;
  42:../../libdaisy/src/hid/disp/display.h **** 
  43:../../libdaisy/src/hid/disp/display.h ****     /**
  44:../../libdaisy/src/hid/disp/display.h ****     Sets the pixel at the specified coordinate to be on/off.
ARM GAS  /tmp/ccZhYDze.s 			page 6


  45:../../libdaisy/src/hid/disp/display.h ****     \param x   x Coordinate
  46:../../libdaisy/src/hid/disp/display.h ****     \param y   y coordinate
  47:../../libdaisy/src/hid/disp/display.h ****     \param on  on or off
  48:../../libdaisy/src/hid/disp/display.h ****     */
  49:../../libdaisy/src/hid/disp/display.h ****     virtual void DrawPixel(uint_fast8_t x, uint_fast8_t y, bool on) = 0;
  50:../../libdaisy/src/hid/disp/display.h **** 
  51:../../libdaisy/src/hid/disp/display.h ****     /**
  52:../../libdaisy/src/hid/disp/display.h ****     Draws a line from (x1, y1) to (y1, y2)
  53:../../libdaisy/src/hid/disp/display.h ****     \param x1  x Coordinate of the starting point
  54:../../libdaisy/src/hid/disp/display.h ****     \param y1  y Coordinate of the starting point
  55:../../libdaisy/src/hid/disp/display.h ****     \param x2  x Coordinate of the ending point
  56:../../libdaisy/src/hid/disp/display.h ****     \param y2  y Coordinate of the ending point
  57:../../libdaisy/src/hid/disp/display.h ****     \param on  on or off
  58:../../libdaisy/src/hid/disp/display.h ****     */
  59:../../libdaisy/src/hid/disp/display.h ****     virtual void DrawLine(uint_fast8_t x1,
  60:../../libdaisy/src/hid/disp/display.h ****                           uint_fast8_t y1,
  61:../../libdaisy/src/hid/disp/display.h ****                           uint_fast8_t x2,
  62:../../libdaisy/src/hid/disp/display.h ****                           uint_fast8_t y2,
  63:../../libdaisy/src/hid/disp/display.h ****                           bool         on)
  64:../../libdaisy/src/hid/disp/display.h ****         = 0;
  65:../../libdaisy/src/hid/disp/display.h **** 
  66:../../libdaisy/src/hid/disp/display.h ****     /**
  67:../../libdaisy/src/hid/disp/display.h ****     Draws a rectangle based on two coordinates.
  68:../../libdaisy/src/hid/disp/display.h ****     \param x1 x Coordinate of the first point
  69:../../libdaisy/src/hid/disp/display.h ****     \param y1 y Coordinate of the first point
  70:../../libdaisy/src/hid/disp/display.h ****     \param x2 x Coordinate of the second point
  71:../../libdaisy/src/hid/disp/display.h ****     \param y2 y Coordinate of the second point
  72:../../libdaisy/src/hid/disp/display.h ****     \param on on or off
  73:../../libdaisy/src/hid/disp/display.h ****     \param fill fill the rectangle or draw only the outline
  74:../../libdaisy/src/hid/disp/display.h ****     */
  75:../../libdaisy/src/hid/disp/display.h ****     virtual void DrawRect(uint_fast8_t x1,
  76:../../libdaisy/src/hid/disp/display.h ****                           uint_fast8_t y1,
  77:../../libdaisy/src/hid/disp/display.h ****                           uint_fast8_t x2,
  78:../../libdaisy/src/hid/disp/display.h ****                           uint_fast8_t y2,
  79:../../libdaisy/src/hid/disp/display.h ****                           bool         on,
  80:../../libdaisy/src/hid/disp/display.h ****                           bool         fill = false)
  81:../../libdaisy/src/hid/disp/display.h ****         = 0;
  82:../../libdaisy/src/hid/disp/display.h **** 
  83:../../libdaisy/src/hid/disp/display.h ****     /**
  84:../../libdaisy/src/hid/disp/display.h ****     Draws a rectangle.
  85:../../libdaisy/src/hid/disp/display.h ****     \param rect the rectangle
  86:../../libdaisy/src/hid/disp/display.h ****     \param on   on or off
  87:../../libdaisy/src/hid/disp/display.h ****     \param fill fill the rectangle or draw only the outline
  88:../../libdaisy/src/hid/disp/display.h ****     */
  89:../../libdaisy/src/hid/disp/display.h ****     void DrawRect(const Rectangle& rect, bool on, bool fill = false)
  90:../../libdaisy/src/hid/disp/display.h ****     {
  91:../../libdaisy/src/hid/disp/display.h ****         DrawRect(rect.GetX(),
  92:../../libdaisy/src/hid/disp/display.h ****                  rect.GetY(),
  93:../../libdaisy/src/hid/disp/display.h ****                  rect.GetRight(),
  94:../../libdaisy/src/hid/disp/display.h ****                  rect.GetBottom(),
  95:../../libdaisy/src/hid/disp/display.h ****                  on,
  96:../../libdaisy/src/hid/disp/display.h ****                  fill);
  97:../../libdaisy/src/hid/disp/display.h ****     }
  98:../../libdaisy/src/hid/disp/display.h **** 
  99:../../libdaisy/src/hid/disp/display.h ****     /**
 100:../../libdaisy/src/hid/disp/display.h ****     Draws an arc around the specified coordinate
 101:../../libdaisy/src/hid/disp/display.h ****     \param x           x Coordinate of the center of the arc
ARM GAS  /tmp/ccZhYDze.s 			page 7


 102:../../libdaisy/src/hid/disp/display.h ****     \param y           y Coordinate of the center of the arc
 103:../../libdaisy/src/hid/disp/display.h ****     \param radius      radius of the arc
 104:../../libdaisy/src/hid/disp/display.h ****     \param start_angle angle where to start the arc
 105:../../libdaisy/src/hid/disp/display.h ****     \param sweep       total angle of the arc
 106:../../libdaisy/src/hid/disp/display.h ****     \param on  on or off
 107:../../libdaisy/src/hid/disp/display.h ****     */
 108:../../libdaisy/src/hid/disp/display.h ****     virtual void DrawArc(uint_fast8_t x,
 109:../../libdaisy/src/hid/disp/display.h ****                          uint_fast8_t y,
 110:../../libdaisy/src/hid/disp/display.h ****                          uint_fast8_t radius,
 111:../../libdaisy/src/hid/disp/display.h ****                          int_fast16_t start_angle,
 112:../../libdaisy/src/hid/disp/display.h ****                          int_fast16_t sweep,
 113:../../libdaisy/src/hid/disp/display.h ****                          bool         on)
 114:../../libdaisy/src/hid/disp/display.h ****         = 0;
 115:../../libdaisy/src/hid/disp/display.h **** 
 116:../../libdaisy/src/hid/disp/display.h ****     /**
 117:../../libdaisy/src/hid/disp/display.h ****     Draws a circle around the specified coordinate
 118:../../libdaisy/src/hid/disp/display.h ****     \param x           x Coordinate of the center of the circle
 119:../../libdaisy/src/hid/disp/display.h ****     \param y           y Coordinate of the center of the circle
 120:../../libdaisy/src/hid/disp/display.h ****     \param radius      radius of the circle
 121:../../libdaisy/src/hid/disp/display.h ****     \param on  on or off
 122:../../libdaisy/src/hid/disp/display.h ****     */
 123:../../libdaisy/src/hid/disp/display.h ****     void
 124:../../libdaisy/src/hid/disp/display.h ****     DrawCircle(uint_fast8_t x, uint_fast8_t y, uint_fast8_t radius, bool on)
 125:../../libdaisy/src/hid/disp/display.h ****     {
 126:../../libdaisy/src/hid/disp/display.h ****         DrawArc(x, y, radius, 0, 360, on);
 127:../../libdaisy/src/hid/disp/display.h ****     };
 128:../../libdaisy/src/hid/disp/display.h **** 
 129:../../libdaisy/src/hid/disp/display.h ****     /** 
 130:../../libdaisy/src/hid/disp/display.h ****     Writes the character with the specific FontDef
 131:../../libdaisy/src/hid/disp/display.h ****     to the display buffer at the current Cursor position.
 132:../../libdaisy/src/hid/disp/display.h ****     \param ch character to be written
 133:../../libdaisy/src/hid/disp/display.h ****     \param font font to be written in
 134:../../libdaisy/src/hid/disp/display.h ****     \param on    on or off
 135:../../libdaisy/src/hid/disp/display.h ****     \return &
 136:../../libdaisy/src/hid/disp/display.h ****     */
 137:../../libdaisy/src/hid/disp/display.h ****     virtual char WriteChar(char ch, FontDef font, bool on) = 0;
 138:../../libdaisy/src/hid/disp/display.h **** 
 139:../../libdaisy/src/hid/disp/display.h ****     /** 
 140:../../libdaisy/src/hid/disp/display.h ****     Similar to WriteChar, except it will handle an entire String.
 141:../../libdaisy/src/hid/disp/display.h ****     Wrapping does not happen automatically, so the width
 142:../../libdaisy/src/hid/disp/display.h ****     of the string must be kept within the dimensions of the screen.
 143:../../libdaisy/src/hid/disp/display.h ****     \param str string to be written
 144:../../libdaisy/src/hid/disp/display.h ****     \param font font to use
 145:../../libdaisy/src/hid/disp/display.h ****     \param on  on or off
 146:../../libdaisy/src/hid/disp/display.h ****     \return &
 147:../../libdaisy/src/hid/disp/display.h ****     */
 148:../../libdaisy/src/hid/disp/display.h ****     virtual char WriteString(const char* str, FontDef font, bool on) = 0;
 149:../../libdaisy/src/hid/disp/display.h **** 
 150:../../libdaisy/src/hid/disp/display.h ****     /** 
 151:../../libdaisy/src/hid/disp/display.h ****     Similar to WriteString but justified within a bounding box.
 152:../../libdaisy/src/hid/disp/display.h ****     \param str          string to be written
 153:../../libdaisy/src/hid/disp/display.h ****     \param font         font to use
 154:../../libdaisy/src/hid/disp/display.h ****     \param boundingBox  the bounding box to draw the text in
 155:../../libdaisy/src/hid/disp/display.h ****     \param alignment    the alignment to use
 156:../../libdaisy/src/hid/disp/display.h ****     \param on           on or off
 157:../../libdaisy/src/hid/disp/display.h ****     \return The rectangle that was drawn to
 158:../../libdaisy/src/hid/disp/display.h ****     */
ARM GAS  /tmp/ccZhYDze.s 			page 8


 159:../../libdaisy/src/hid/disp/display.h ****     virtual Rectangle WriteStringAligned(const char*    str,
 160:../../libdaisy/src/hid/disp/display.h ****                                          const FontDef& font,
 161:../../libdaisy/src/hid/disp/display.h ****                                          Rectangle      boundingBox,
 162:../../libdaisy/src/hid/disp/display.h ****                                          Alignment      alignment,
 163:../../libdaisy/src/hid/disp/display.h ****                                          bool           on)
 164:../../libdaisy/src/hid/disp/display.h ****         = 0;
 165:../../libdaisy/src/hid/disp/display.h **** 
 166:../../libdaisy/src/hid/disp/display.h ****     /** 
 167:../../libdaisy/src/hid/disp/display.h ****     Moves the 'Cursor' position used for WriteChar, and WriteStr to the specified coordinate.
 168:../../libdaisy/src/hid/disp/display.h ****     \param x x pos
 169:../../libdaisy/src/hid/disp/display.h ****     \param y y pos
 170:../../libdaisy/src/hid/disp/display.h ****     */
 171:../../libdaisy/src/hid/disp/display.h ****     void SetCursor(uint16_t x, uint16_t y)
 172:../../libdaisy/src/hid/disp/display.h ****     {
 173:../../libdaisy/src/hid/disp/display.h ****         currentX_ = (x >= Width()) ? Width() - 1 : x;
 174:../../libdaisy/src/hid/disp/display.h ****         currentY_ = (y >= Height()) ? Height() - 1 : y;
 175:../../libdaisy/src/hid/disp/display.h ****     }
 176:../../libdaisy/src/hid/disp/display.h **** 
 177:../../libdaisy/src/hid/disp/display.h ****     /** 
 178:../../libdaisy/src/hid/disp/display.h ****     Writes the current display buffer to the OLED device using SPI or I2C depending on 
 179:../../libdaisy/src/hid/disp/display.h ****     how the object was initialized.
 180:../../libdaisy/src/hid/disp/display.h ****     */
 181:../../libdaisy/src/hid/disp/display.h ****     virtual void Update() = 0;
 182:../../libdaisy/src/hid/disp/display.h **** 
 183:../../libdaisy/src/hid/disp/display.h ****   protected:
 184:../../libdaisy/src/hid/disp/display.h ****     uint16_t currentX_;
 185:../../libdaisy/src/hid/disp/display.h ****     uint16_t currentY_;
 186:../../libdaisy/src/hid/disp/display.h **** };
 187:../../libdaisy/src/hid/disp/display.h **** 
 188:../../libdaisy/src/hid/disp/display.h **** /** This class is intended as a intermediary class for your actual implementation of the OneBitGrap
 189:../../libdaisy/src/hid/disp/display.h ****  *  interface. It uses the CRTP design pattern where the template argument is the child class. It p
 190:../../libdaisy/src/hid/disp/display.h ****  *  implementations for most of the functions, except DrawPixel(), Update() and Fill(), which you'l
 191:../../libdaisy/src/hid/disp/display.h ****  *  to provide in your child class.
 192:../../libdaisy/src/hid/disp/display.h ****  *  The main goal of this class is to provide common drawing functions without relying on massive a
 193:../../libdaisy/src/hid/disp/display.h ****  *  virtual function calls that would result in a performance loss. To achieve this, any drawing fu
 194:../../libdaisy/src/hid/disp/display.h ****  *  is implemented here and internally calls other drawing functions (e.g. DrawRect() which interna
 195:../../libdaisy/src/hid/disp/display.h ****  *  DrawPixel() and DrawLine()) makes these calls via the qualified name of these functions to expl
 196:../../libdaisy/src/hid/disp/display.h ****  *  suppress the virtual dispatch mechanism like this:
 197:../../libdaisy/src/hid/disp/display.h ****  * 
 198:../../libdaisy/src/hid/disp/display.h ****  *      ChildType::DrawPixel(...); // no virtual function call; direct call into the child class fu
 199:../../libdaisy/src/hid/disp/display.h ****  *  
 200:../../libdaisy/src/hid/disp/display.h ****  *  To create a custom OneBitGraphicsDisplay implementation, you can 
 201:../../libdaisy/src/hid/disp/display.h ****  *  A) inherit from OneBitGraphicsDisplay directly and provide all the drawing functions yourself
 202:../../libdaisy/src/hid/disp/display.h ****  *  B) Inherit from OneBitGraphicsDisplayImpl and only provide DrawPixel(), Fill() and Update()
 203:../../libdaisy/src/hid/disp/display.h ****  *     like this:
 204:../../libdaisy/src/hid/disp/display.h ****  *  
 205:../../libdaisy/src/hid/disp/display.h ****  *      class MyDisplayClass : public OneBitGraphicsDisplayImpl<MyDisplayClass> 
 206:../../libdaisy/src/hid/disp/display.h ****  *      {
 207:../../libdaisy/src/hid/disp/display.h ****  *      public:
 208:../../libdaisy/src/hid/disp/display.h ****  *          void Fill() override { ... };
 209:../../libdaisy/src/hid/disp/display.h ****  *          void DrawPixel(uint_fast8_t x, uint_fast8_t y, bool on) override { ... };
 210:../../libdaisy/src/hid/disp/display.h ****  *          void Update() override { ... }
 211:../../libdaisy/src/hid/disp/display.h ****  *      };
 212:../../libdaisy/src/hid/disp/display.h ****  *  
 213:../../libdaisy/src/hid/disp/display.h ****  */
 214:../../libdaisy/src/hid/disp/display.h **** template <class ChildType>
 215:../../libdaisy/src/hid/disp/display.h **** class OneBitGraphicsDisplayImpl : public OneBitGraphicsDisplay
ARM GAS  /tmp/ccZhYDze.s 			page 9


 216:../../libdaisy/src/hid/disp/display.h **** {
 217:../../libdaisy/src/hid/disp/display.h ****   public:
 218:../../libdaisy/src/hid/disp/display.h ****     OneBitGraphicsDisplayImpl() {}
 219:../../libdaisy/src/hid/disp/display.h ****     virtual ~OneBitGraphicsDisplayImpl() {}
  98              		.loc 6 219 13 view .LVU8
  99              	.LBB608:
 100              	.LBI608:
  23:../../libdaisy/src/hid/disp/display.h **** 
 101              		.loc 6 23 13 view .LVU9
  23:../../libdaisy/src/hid/disp/display.h **** 
 102              		.loc 6 23 13 is_stmt 0 view .LVU10
 103              	.LBE608:
 104              	.LBE607:
 105              	.LBE606:
 106              	.LBB609:
 107              	.LBI609:
 108              		.file 7 "../../libdaisy/src/hid/midi.h"
   1:../../libdaisy/src/hid/midi.h **** #pragma once
   2:../../libdaisy/src/hid/midi.h **** #ifndef DSY_MIDI_H
   3:../../libdaisy/src/hid/midi.h **** #define DSY_MIDI_H
   4:../../libdaisy/src/hid/midi.h **** 
   5:../../libdaisy/src/hid/midi.h **** // TODO: make this adjustable
   6:../../libdaisy/src/hid/midi.h **** #define SYSEX_BUFFER_LEN 128
   7:../../libdaisy/src/hid/midi.h **** 
   8:../../libdaisy/src/hid/midi.h **** #include <stdint.h>
   9:../../libdaisy/src/hid/midi.h **** #include <stdlib.h>
  10:../../libdaisy/src/hid/midi.h **** #include "per/uart.h"
  11:../../libdaisy/src/hid/midi.h **** #include "util/ringbuffer.h"
  12:../../libdaisy/src/hid/midi.h **** #include "hid/MidiEvent.h"
  13:../../libdaisy/src/hid/midi.h **** #include "sys/system.h"
  14:../../libdaisy/src/hid/midi.h **** 
  15:../../libdaisy/src/hid/midi.h **** namespace daisy
  16:../../libdaisy/src/hid/midi.h **** {
  17:../../libdaisy/src/hid/midi.h **** /** @addtogroup external 
  18:../../libdaisy/src/hid/midi.h ****     @{ 
  19:../../libdaisy/src/hid/midi.h **** */
  20:../../libdaisy/src/hid/midi.h **** 
  21:../../libdaisy/src/hid/midi.h **** class MidiUartTransport
  22:../../libdaisy/src/hid/midi.h **** {
  23:../../libdaisy/src/hid/midi.h ****   public:
  24:../../libdaisy/src/hid/midi.h ****     MidiUartTransport() {}
  25:../../libdaisy/src/hid/midi.h ****     ~MidiUartTransport() {}
  26:../../libdaisy/src/hid/midi.h **** 
  27:../../libdaisy/src/hid/midi.h ****     struct Config
  28:../../libdaisy/src/hid/midi.h ****     {
  29:../../libdaisy/src/hid/midi.h ****         UartHandler::Config::Peripheral periph;
  30:../../libdaisy/src/hid/midi.h ****         dsy_gpio_pin                    rx;
  31:../../libdaisy/src/hid/midi.h ****         dsy_gpio_pin                    tx;
  32:../../libdaisy/src/hid/midi.h **** 
  33:../../libdaisy/src/hid/midi.h ****         Config()
  34:../../libdaisy/src/hid/midi.h ****         {
  35:../../libdaisy/src/hid/midi.h ****             periph = UartHandler::Config::Peripheral::USART_1;
  36:../../libdaisy/src/hid/midi.h ****             rx     = {DSY_GPIOB, 7};
  37:../../libdaisy/src/hid/midi.h ****             tx     = {DSY_GPIOB, 6};
  38:../../libdaisy/src/hid/midi.h ****         }
  39:../../libdaisy/src/hid/midi.h ****     };
  40:../../libdaisy/src/hid/midi.h **** 
ARM GAS  /tmp/ccZhYDze.s 			page 10


  41:../../libdaisy/src/hid/midi.h ****     inline void Init(Config config)
  42:../../libdaisy/src/hid/midi.h ****     {
  43:../../libdaisy/src/hid/midi.h ****         UartHandler::Config uart_config;
  44:../../libdaisy/src/hid/midi.h **** 
  45:../../libdaisy/src/hid/midi.h ****         //defaults
  46:../../libdaisy/src/hid/midi.h ****         uart_config.baudrate   = 31250;
  47:../../libdaisy/src/hid/midi.h ****         uart_config.stopbits   = UartHandler::Config::StopBits::BITS_1;
  48:../../libdaisy/src/hid/midi.h ****         uart_config.parity     = UartHandler::Config::Parity::NONE;
  49:../../libdaisy/src/hid/midi.h ****         uart_config.mode       = UartHandler::Config::Mode::TX_RX;
  50:../../libdaisy/src/hid/midi.h ****         uart_config.wordlength = UartHandler::Config::WordLength::BITS_8;
  51:../../libdaisy/src/hid/midi.h **** 
  52:../../libdaisy/src/hid/midi.h ****         //user settings
  53:../../libdaisy/src/hid/midi.h ****         uart_config.periph        = config.periph;
  54:../../libdaisy/src/hid/midi.h ****         uart_config.pin_config.rx = config.rx;
  55:../../libdaisy/src/hid/midi.h ****         uart_config.pin_config.tx = config.tx;
  56:../../libdaisy/src/hid/midi.h **** 
  57:../../libdaisy/src/hid/midi.h ****         uart_.Init(uart_config);
  58:../../libdaisy/src/hid/midi.h ****     }
  59:../../libdaisy/src/hid/midi.h **** 
  60:../../libdaisy/src/hid/midi.h ****     inline void    StartRx() { uart_.StartRx(); }
  61:../../libdaisy/src/hid/midi.h ****     inline size_t  Readable() { return uart_.Readable(); }
  62:../../libdaisy/src/hid/midi.h ****     inline uint8_t Rx() { return uart_.PopRx(); }
  63:../../libdaisy/src/hid/midi.h ****     inline bool    RxActive() { return uart_.RxActive(); }
  64:../../libdaisy/src/hid/midi.h ****     inline void    FlushRx() { uart_.FlushRx(); }
  65:../../libdaisy/src/hid/midi.h ****     inline void    Tx(uint8_t* buff, size_t size) { uart_.PollTx(buff, size); }
  66:../../libdaisy/src/hid/midi.h **** 
  67:../../libdaisy/src/hid/midi.h ****   private:
  68:../../libdaisy/src/hid/midi.h ****     UartHandler uart_;
  69:../../libdaisy/src/hid/midi.h **** };
  70:../../libdaisy/src/hid/midi.h **** 
  71:../../libdaisy/src/hid/midi.h **** /** 
  72:../../libdaisy/src/hid/midi.h ****     @brief Simple MIDI Handler \n 
  73:../../libdaisy/src/hid/midi.h ****     Parses bytes from an input into valid MidiEvents. \n 
  74:../../libdaisy/src/hid/midi.h ****     The MidiEvents fill a FIFO queue that the user can pop messages from.
  75:../../libdaisy/src/hid/midi.h ****     @author shensley
  76:../../libdaisy/src/hid/midi.h ****     @date March 2020
  77:../../libdaisy/src/hid/midi.h **** */
  78:../../libdaisy/src/hid/midi.h **** template <typename Transport>
  79:../../libdaisy/src/hid/midi.h **** class MidiHandler
  80:../../libdaisy/src/hid/midi.h **** {
  81:../../libdaisy/src/hid/midi.h ****   public:
  82:../../libdaisy/src/hid/midi.h ****     MidiHandler() {}
  83:../../libdaisy/src/hid/midi.h ****     ~MidiHandler() {}
 109              		.loc 7 83 5 is_stmt 1 view .LVU11
 110              	.LBB610:
 111              	.LBI610:
  25:../../libdaisy/src/hid/midi.h **** 
 112              		.loc 7 25 5 view .LVU12
  25:../../libdaisy/src/hid/midi.h **** 
 113              		.loc 7 25 5 is_stmt 0 view .LVU13
 114              	.LBE610:
 115              	.LBE609:
 116              	.LBB611:
 117              	.LBI611:
 118              		.file 8 "../../libdaisy/src/hid/encoder.h"
   1:../../libdaisy/src/hid/encoder.h **** #pragma once
   2:../../libdaisy/src/hid/encoder.h **** #ifndef DSY_ENCODER_H
ARM GAS  /tmp/ccZhYDze.s 			page 11


   3:../../libdaisy/src/hid/encoder.h **** #define DSY_ENCODER_H
   4:../../libdaisy/src/hid/encoder.h **** #include "daisy_core.h"
   5:../../libdaisy/src/hid/encoder.h **** #include "per/gpio.h"
   6:../../libdaisy/src/hid/encoder.h **** #include "hid/switch.h"
   7:../../libdaisy/src/hid/encoder.h **** 
   8:../../libdaisy/src/hid/encoder.h **** namespace daisy
   9:../../libdaisy/src/hid/encoder.h **** {
  10:../../libdaisy/src/hid/encoder.h **** /** 
  11:../../libdaisy/src/hid/encoder.h ****     @brief Generic Class for handling Quadrature Encoders \n 
  12:../../libdaisy/src/hid/encoder.h ****     Inspired/influenced by Mutable Instruments (pichenettes) Encoder classes
  13:../../libdaisy/src/hid/encoder.h ****     @author Stephen Hensley
  14:../../libdaisy/src/hid/encoder.h ****     @date December 2019
  15:../../libdaisy/src/hid/encoder.h ****     @ingroup controls
  16:../../libdaisy/src/hid/encoder.h **** */
  17:../../libdaisy/src/hid/encoder.h **** class Encoder
  18:../../libdaisy/src/hid/encoder.h **** {
  19:../../libdaisy/src/hid/encoder.h ****   public:
  20:../../libdaisy/src/hid/encoder.h ****     Encoder() {}
  21:../../libdaisy/src/hid/encoder.h ****     ~Encoder() {}
 119              		.loc 8 21 5 is_stmt 1 view .LVU14
 120              	.LBB612:
 121              	.LBI612:
 122              		.file 9 "../../libdaisy/src/hid/switch.h"
   1:../../libdaisy/src/hid/switch.h **** #pragma once
   2:../../libdaisy/src/hid/switch.h **** #ifndef DSY_SWITCH_H
   3:../../libdaisy/src/hid/switch.h **** #define DSY_SWITCH_H
   4:../../libdaisy/src/hid/switch.h **** #include "daisy_core.h"
   5:../../libdaisy/src/hid/switch.h **** #include "per/gpio.h"
   6:../../libdaisy/src/hid/switch.h **** 
   7:../../libdaisy/src/hid/switch.h **** namespace daisy
   8:../../libdaisy/src/hid/switch.h **** {
   9:../../libdaisy/src/hid/switch.h **** /** 
  10:../../libdaisy/src/hid/switch.h ****     Generic Class for handling momentary/latching switches \n 
  11:../../libdaisy/src/hid/switch.h ****     Inspired/influenced by Mutable Instruments (pichenettes) Switch classes
  12:../../libdaisy/src/hid/switch.h ****     @author Stephen Hensley
  13:../../libdaisy/src/hid/switch.h ****     @date December 2019
  14:../../libdaisy/src/hid/switch.h ****     @ingroup controls
  15:../../libdaisy/src/hid/switch.h **** */
  16:../../libdaisy/src/hid/switch.h **** class Switch
  17:../../libdaisy/src/hid/switch.h **** {
  18:../../libdaisy/src/hid/switch.h ****   public:
  19:../../libdaisy/src/hid/switch.h ****     /** Specifies the expected behavior of the switch */
  20:../../libdaisy/src/hid/switch.h ****     enum Type
  21:../../libdaisy/src/hid/switch.h ****     {
  22:../../libdaisy/src/hid/switch.h ****         TYPE_TOGGLE,    /**< & */
  23:../../libdaisy/src/hid/switch.h ****         TYPE_MOMENTARY, /**< & */
  24:../../libdaisy/src/hid/switch.h ****     };
  25:../../libdaisy/src/hid/switch.h ****     /** Specifies whether the pressed is HIGH or LOW. */
  26:../../libdaisy/src/hid/switch.h ****     enum Polarity
  27:../../libdaisy/src/hid/switch.h ****     {
  28:../../libdaisy/src/hid/switch.h ****         POLARITY_NORMAL,   /**< & */
  29:../../libdaisy/src/hid/switch.h ****         POLARITY_INVERTED, /**< & */
  30:../../libdaisy/src/hid/switch.h ****     };
  31:../../libdaisy/src/hid/switch.h **** 
  32:../../libdaisy/src/hid/switch.h ****     /** Specifies whether to use built-in Pull Up/Down resistors to hold button at a given state wh
  33:../../libdaisy/src/hid/switch.h ****     enum Pull
  34:../../libdaisy/src/hid/switch.h ****     {
ARM GAS  /tmp/ccZhYDze.s 			page 12


  35:../../libdaisy/src/hid/switch.h ****         PULL_UP,   /**< & */
  36:../../libdaisy/src/hid/switch.h ****         PULL_DOWN, /**< & */
  37:../../libdaisy/src/hid/switch.h ****         PULL_NONE, /**< & */
  38:../../libdaisy/src/hid/switch.h ****     };
  39:../../libdaisy/src/hid/switch.h **** 
  40:../../libdaisy/src/hid/switch.h ****     Switch() {}
  41:../../libdaisy/src/hid/switch.h ****     ~Switch() {}
 123              		.loc 9 41 5 view .LVU15
 124              		.loc 9 41 5 is_stmt 0 view .LVU16
 125              	.LBE612:
 126              	.LBE611:
 127              	.LBB613:
 128              	.LBI613:
 129              		.file 10 "../../libdaisy/src/daisy_seed.h"
   1:../../libdaisy/src/daisy_seed.h **** #pragma once
   2:../../libdaisy/src/daisy_seed.h **** #ifndef DSY_SEED_H
   3:../../libdaisy/src/daisy_seed.h **** #define DSY_SEED_H
   4:../../libdaisy/src/daisy_seed.h **** 
   5:../../libdaisy/src/daisy_seed.h **** #include "daisy.h"
   6:../../libdaisy/src/daisy_seed.h **** 
   7:../../libdaisy/src/daisy_seed.h **** //Uncomment this out if you're still using the rev2 hardware
   8:../../libdaisy/src/daisy_seed.h **** //#define SEED_REV2
   9:../../libdaisy/src/daisy_seed.h **** 
  10:../../libdaisy/src/daisy_seed.h **** namespace daisy
  11:../../libdaisy/src/daisy_seed.h **** {
  12:../../libdaisy/src/daisy_seed.h **** /**
  13:../../libdaisy/src/daisy_seed.h ****    @brief This is the higher-level interface for the Daisy board. \n 
  14:../../libdaisy/src/daisy_seed.h ****     All basic peripheral configuration/initialization is setup here. \n
  15:../../libdaisy/src/daisy_seed.h **** 
  16:../../libdaisy/src/daisy_seed.h ****    @ingroup boards
  17:../../libdaisy/src/daisy_seed.h **** */
  18:../../libdaisy/src/daisy_seed.h **** class DaisySeed
  19:../../libdaisy/src/daisy_seed.h **** {
  20:../../libdaisy/src/daisy_seed.h ****   public:
  21:../../libdaisy/src/daisy_seed.h ****     DaisySeed() {}
  22:../../libdaisy/src/daisy_seed.h ****     ~DaisySeed() {}
 130              		.loc 10 22 5 is_stmt 1 view .LVU17
 131              	.LBB614:
 132              	.LBI614:
 133              		.file 11 "../../libdaisy/src/sys/system.h"
   1:../../libdaisy/src/sys/system.h **** #ifndef DSY_SYSTEM_H
   2:../../libdaisy/src/sys/system.h **** #define DSY_SYSTEM_H
   3:../../libdaisy/src/sys/system.h **** 
   4:../../libdaisy/src/sys/system.h **** #ifndef UNIT_TEST // for unit tests, a dummy implementation is provided below
   5:../../libdaisy/src/sys/system.h **** 
   6:../../libdaisy/src/sys/system.h **** #include <cstdint>
   7:../../libdaisy/src/sys/system.h **** #include "per/tim.h"
   8:../../libdaisy/src/sys/system.h **** 
   9:../../libdaisy/src/sys/system.h **** namespace daisy
  10:../../libdaisy/src/sys/system.h **** {
  11:../../libdaisy/src/sys/system.h **** /** A handle for interacting with the Core System. 
  12:../../libdaisy/src/sys/system.h ****  ** This includes the Clock tree, MPU, global DMA initialization,
  13:../../libdaisy/src/sys/system.h ****  ** cache handling, and any other necessary global initiailzation
  14:../../libdaisy/src/sys/system.h ****  **
  15:../../libdaisy/src/sys/system.h ****  ** @author shensley
  16:../../libdaisy/src/sys/system.h ****  ** @addtogroup system
  17:../../libdaisy/src/sys/system.h ****  */
ARM GAS  /tmp/ccZhYDze.s 			page 13


  18:../../libdaisy/src/sys/system.h **** class System
  19:../../libdaisy/src/sys/system.h **** {
  20:../../libdaisy/src/sys/system.h ****   public:
  21:../../libdaisy/src/sys/system.h ****     /** Contains settings for initializing the System */
  22:../../libdaisy/src/sys/system.h ****     struct Config
  23:../../libdaisy/src/sys/system.h ****     {
  24:../../libdaisy/src/sys/system.h ****         /** Specifies the system clock frequency that feeds APB/AHB clocks, etc. */
  25:../../libdaisy/src/sys/system.h ****         enum class SysClkFreq
  26:../../libdaisy/src/sys/system.h ****         {
  27:../../libdaisy/src/sys/system.h ****             FREQ_400MHZ,
  28:../../libdaisy/src/sys/system.h ****             FREQ_480MHZ,
  29:../../libdaisy/src/sys/system.h ****         };
  30:../../libdaisy/src/sys/system.h **** 
  31:../../libdaisy/src/sys/system.h ****         /** Method to call on the struct to set to defaults
  32:../../libdaisy/src/sys/system.h ****          ** CPU Freq set to 400MHz
  33:../../libdaisy/src/sys/system.h ****          ** Cache Enabled 
  34:../../libdaisy/src/sys/system.h ****          ** */
  35:../../libdaisy/src/sys/system.h ****         void Defaults()
  36:../../libdaisy/src/sys/system.h ****         {
  37:../../libdaisy/src/sys/system.h ****             cpu_freq   = SysClkFreq::FREQ_400MHZ;
  38:../../libdaisy/src/sys/system.h ****             use_dcache = true;
  39:../../libdaisy/src/sys/system.h ****             use_icache = true;
  40:../../libdaisy/src/sys/system.h ****         }
  41:../../libdaisy/src/sys/system.h **** 
  42:../../libdaisy/src/sys/system.h ****         /** Method to call on the struct to set to boost mode:
  43:../../libdaisy/src/sys/system.h ****          ** CPU Freq set to 480MHz
  44:../../libdaisy/src/sys/system.h ****          ** Cache Enabled 
  45:../../libdaisy/src/sys/system.h ****          ** */
  46:../../libdaisy/src/sys/system.h ****         void Boost()
  47:../../libdaisy/src/sys/system.h ****         {
  48:../../libdaisy/src/sys/system.h ****             cpu_freq   = SysClkFreq::FREQ_480MHZ;
  49:../../libdaisy/src/sys/system.h ****             use_dcache = true;
  50:../../libdaisy/src/sys/system.h ****             use_icache = true;
  51:../../libdaisy/src/sys/system.h ****         }
  52:../../libdaisy/src/sys/system.h **** 
  53:../../libdaisy/src/sys/system.h ****         SysClkFreq cpu_freq;
  54:../../libdaisy/src/sys/system.h ****         bool       use_dcache;
  55:../../libdaisy/src/sys/system.h ****         bool       use_icache;
  56:../../libdaisy/src/sys/system.h ****     };
  57:../../libdaisy/src/sys/system.h **** 
  58:../../libdaisy/src/sys/system.h ****     System() {}
  59:../../libdaisy/src/sys/system.h ****     ~System() {}
 134              		.loc 11 59 5 view .LVU18
 135              		.loc 11 59 5 is_stmt 0 view .LVU19
 136              	.LBE614:
 137              	.LBB615:
 138              	.LBI615:
 139              		.file 12 "../../libdaisy/src/hid/usb.h"
   1:../../libdaisy/src/hid/usb.h **** #pragma once
   2:../../libdaisy/src/hid/usb.h **** #ifndef DSY_HID_USB_H
   3:../../libdaisy/src/hid/usb.h **** #define DSY_HID_USB_H
   4:../../libdaisy/src/hid/usb.h **** #include <stdint.h>
   5:../../libdaisy/src/hid/usb.h **** #include <stdlib.h>
   6:../../libdaisy/src/hid/usb.h **** 
   7:../../libdaisy/src/hid/usb.h **** namespace daisy
   8:../../libdaisy/src/hid/usb.h **** /** @addtogroup externals
   9:../../libdaisy/src/hid/usb.h ****     @{
ARM GAS  /tmp/ccZhYDze.s 			page 14


  10:../../libdaisy/src/hid/usb.h **** */
  11:../../libdaisy/src/hid/usb.h **** 
  12:../../libdaisy/src/hid/usb.h **** {
  13:../../libdaisy/src/hid/usb.h **** /** 
  14:../../libdaisy/src/hid/usb.h ****     @brief Interface for initializing and using the USB Peripherals on the daisy
  15:../../libdaisy/src/hid/usb.h ****     @author Stephen Hensley
  16:../../libdaisy/src/hid/usb.h ****     @date December 2019
  17:../../libdaisy/src/hid/usb.h **** */
  18:../../libdaisy/src/hid/usb.h **** class UsbHandle
  19:../../libdaisy/src/hid/usb.h **** {
  20:../../libdaisy/src/hid/usb.h ****   public:
  21:../../libdaisy/src/hid/usb.h ****     /** Return values for USBHandle Functions */
  22:../../libdaisy/src/hid/usb.h ****     enum class Result
  23:../../libdaisy/src/hid/usb.h ****     {
  24:../../libdaisy/src/hid/usb.h ****         OK,
  25:../../libdaisy/src/hid/usb.h ****         ERR,
  26:../../libdaisy/src/hid/usb.h ****     };
  27:../../libdaisy/src/hid/usb.h **** 
  28:../../libdaisy/src/hid/usb.h ****     /** Specified which of the two USB Peripherals to initialize. */
  29:../../libdaisy/src/hid/usb.h ****     enum UsbPeriph
  30:../../libdaisy/src/hid/usb.h ****     {
  31:../../libdaisy/src/hid/usb.h ****         FS_INTERNAL, /**< Internal pin */
  32:../../libdaisy/src/hid/usb.h ****         FS_EXTERNAL, /**< FS External D+ pin is Pin 38 (GPIO32). FS External D- pin is Pin 37 (GPIO
  33:../../libdaisy/src/hid/usb.h ****         FS_BOTH,     /**< Both */
  34:../../libdaisy/src/hid/usb.h ****     };
  35:../../libdaisy/src/hid/usb.h **** 
  36:../../libdaisy/src/hid/usb.h **** 
  37:../../libdaisy/src/hid/usb.h ****     /** Function called upon reception of a buffer */
  38:../../libdaisy/src/hid/usb.h ****     typedef void (*ReceiveCallback)(uint8_t* buff, uint32_t* len);
  39:../../libdaisy/src/hid/usb.h **** 
  40:../../libdaisy/src/hid/usb.h ****     UsbHandle() {}
  41:../../libdaisy/src/hid/usb.h **** 
  42:../../libdaisy/src/hid/usb.h ****     ~UsbHandle() {}
 140              		.loc 12 42 5 is_stmt 1 view .LVU20
 141              		.loc 12 42 5 is_stmt 0 view .LVU21
 142              	.LBE615:
 143              	.LBB616:
 144              	.LBI616:
 145              		.file 13 "../../libdaisy/src/per/adc.h"
   1:../../libdaisy/src/per/adc.h **** #pragma once
   2:../../libdaisy/src/per/adc.h **** #ifndef DSY_ADC_H
   3:../../libdaisy/src/per/adc.h **** #define DSY_ADC_H /**< Macro */
   4:../../libdaisy/src/per/adc.h **** #include <stdint.h>
   5:../../libdaisy/src/per/adc.h **** #include <stdlib.h>
   6:../../libdaisy/src/per/adc.h **** #include "daisy_core.h"
   7:../../libdaisy/src/per/adc.h **** #include "per/gpio.h"
   8:../../libdaisy/src/per/adc.h **** 
   9:../../libdaisy/src/per/adc.h **** #define DSY_ADC_MAX_CHANNELS 14 /**< Maximum number of ADC channels */
  10:../../libdaisy/src/per/adc.h **** 
  11:../../libdaisy/src/per/adc.h **** namespace daisy
  12:../../libdaisy/src/per/adc.h **** {
  13:../../libdaisy/src/per/adc.h **** /** @addtogroup analog_digital_conversion
  14:../../libdaisy/src/per/adc.h ****     @{
  15:../../libdaisy/src/per/adc.h **** */
  16:../../libdaisy/src/per/adc.h **** 
  17:../../libdaisy/src/per/adc.h **** /* While there may not be many configuration options here,
  18:../../libdaisy/src/per/adc.h **** using a struct like this allows us to add more configuration
ARM GAS  /tmp/ccZhYDze.s 			page 15


  19:../../libdaisy/src/per/adc.h **** later without breaking existing functionality.
  20:../../libdaisy/src/per/adc.h **** */
  21:../../libdaisy/src/per/adc.h **** 
  22:../../libdaisy/src/per/adc.h **** /** Configuration Structure for a given channel */
  23:../../libdaisy/src/per/adc.h **** struct AdcChannelConfig
  24:../../libdaisy/src/per/adc.h **** {
  25:../../libdaisy/src/per/adc.h ****     /** Which pin to use for multiplexing */
  26:../../libdaisy/src/per/adc.h ****     enum MuxPin
  27:../../libdaisy/src/per/adc.h ****     {
  28:../../libdaisy/src/per/adc.h ****         MUX_SEL_0,    /**< & */
  29:../../libdaisy/src/per/adc.h ****         MUX_SEL_1,    /**< & */
  30:../../libdaisy/src/per/adc.h ****         MUX_SEL_2,    /**< & */
  31:../../libdaisy/src/per/adc.h ****         MUX_SEL_LAST, /**< & */
  32:../../libdaisy/src/per/adc.h ****     };
  33:../../libdaisy/src/per/adc.h **** 
  34:../../libdaisy/src/per/adc.h ****     /** Initializes a single ADC pin as an ADC. 
  35:../../libdaisy/src/per/adc.h ****     \param pin Pin to init.
  36:../../libdaisy/src/per/adc.h ****      */
  37:../../libdaisy/src/per/adc.h ****     void InitSingle(dsy_gpio_pin pin);
  38:../../libdaisy/src/per/adc.h **** 
  39:../../libdaisy/src/per/adc.h ****     /** 
  40:../../libdaisy/src/per/adc.h ****     Initializes a single ADC pin as a Multiplexed ADC.
  41:../../libdaisy/src/per/adc.h ****     Requires a CD405X Multiplexer connected to the pin.
  42:../../libdaisy/src/per/adc.h ****     You only need to supply the mux pins that are required,
  43:../../libdaisy/src/per/adc.h ****     e.g. a 4052 mux would only require mux_0 and mux_1.
  44:../../libdaisy/src/per/adc.h ****     Internal Callbacks handle the pin addressing.
  45:../../libdaisy/src/per/adc.h ****     \param mux_channels must be 1-8
  46:../../libdaisy/src/per/adc.h ****     \param mux_0 First mux pin
  47:../../libdaisy/src/per/adc.h ****     \param mux_1 Second mux pin
  48:../../libdaisy/src/per/adc.h ****     \param mux_2 Third mux pin
  49:../../libdaisy/src/per/adc.h ****     \param adc_pin &
  50:../../libdaisy/src/per/adc.h ****     */
  51:../../libdaisy/src/per/adc.h ****     void InitMux(dsy_gpio_pin adc_pin,
  52:../../libdaisy/src/per/adc.h ****                  size_t       mux_channels,
  53:../../libdaisy/src/per/adc.h ****                  dsy_gpio_pin mux_0,
  54:../../libdaisy/src/per/adc.h ****                  dsy_gpio_pin mux_1 = {DSY_GPIOX, 0},
  55:../../libdaisy/src/per/adc.h ****                  dsy_gpio_pin mux_2 = {DSY_GPIOX, 0});
  56:../../libdaisy/src/per/adc.h **** 
  57:../../libdaisy/src/per/adc.h ****     dsy_gpio pin_;                   /**< & */
  58:../../libdaisy/src/per/adc.h ****     dsy_gpio mux_pin_[MUX_SEL_LAST]; /**< & */
  59:../../libdaisy/src/per/adc.h ****     uint8_t  mux_channels_;          /**< & */
  60:../../libdaisy/src/per/adc.h **** };
  61:../../libdaisy/src/per/adc.h **** 
  62:../../libdaisy/src/per/adc.h **** /**
  63:../../libdaisy/src/per/adc.h ****    Handler for analog to digital conversion
  64:../../libdaisy/src/per/adc.h **** */
  65:../../libdaisy/src/per/adc.h **** class AdcHandle
  66:../../libdaisy/src/per/adc.h **** {
  67:../../libdaisy/src/per/adc.h ****   public:
  68:../../libdaisy/src/per/adc.h ****     /** Supported oversampling amounts */
  69:../../libdaisy/src/per/adc.h ****     enum OverSampling
  70:../../libdaisy/src/per/adc.h ****     {
  71:../../libdaisy/src/per/adc.h ****         OVS_NONE, /**< & */
  72:../../libdaisy/src/per/adc.h ****         OVS_4,    /**< & */
  73:../../libdaisy/src/per/adc.h ****         OVS_8,    /**< & */
  74:../../libdaisy/src/per/adc.h ****         OVS_16,   /**< & */
  75:../../libdaisy/src/per/adc.h ****         OVS_32,   /**< & */
ARM GAS  /tmp/ccZhYDze.s 			page 16


  76:../../libdaisy/src/per/adc.h ****         OVS_64,   /**< & */
  77:../../libdaisy/src/per/adc.h ****         OVS_128,  /**< & */
  78:../../libdaisy/src/per/adc.h ****         OVS_256,  /**< & */
  79:../../libdaisy/src/per/adc.h ****         OVS_512,  /**< & */
  80:../../libdaisy/src/per/adc.h ****         OVS_1024, /**< & */
  81:../../libdaisy/src/per/adc.h ****         OVS_LAST, /**< & */
  82:../../libdaisy/src/per/adc.h ****     };
  83:../../libdaisy/src/per/adc.h **** 
  84:../../libdaisy/src/per/adc.h ****     AdcHandle() {}
  85:../../libdaisy/src/per/adc.h ****     ~AdcHandle() {}
 146              		.loc 13 85 5 is_stmt 1 view .LVU22
 147              		.loc 13 85 5 is_stmt 0 view .LVU23
 148              	.LBE616:
 149              	.LBB617:
 150              	.LBI617:
 151              		.file 14 "../../libdaisy/src/hid/audio.h"
   1:../../libdaisy/src/hid/audio.h **** #ifndef DSY_AUDIO_H
   2:../../libdaisy/src/hid/audio.h **** #define DSY_AUDIO_H /**< & */
   3:../../libdaisy/src/hid/audio.h **** 
   4:../../libdaisy/src/hid/audio.h **** #include "per/sai.h"
   5:../../libdaisy/src/hid/audio.h **** 
   6:../../libdaisy/src/hid/audio.h **** namespace daisy
   7:../../libdaisy/src/hid/audio.h **** {
   8:../../libdaisy/src/hid/audio.h **** class AudioHandle
   9:../../libdaisy/src/hid/audio.h **** {
  10:../../libdaisy/src/hid/audio.h ****   public:
  11:../../libdaisy/src/hid/audio.h ****     /** Manually configurable details about the Audio Engine */
  12:../../libdaisy/src/hid/audio.h ****     /** TODO: Figure out how to get samplerate in here. */
  13:../../libdaisy/src/hid/audio.h ****     struct Config
  14:../../libdaisy/src/hid/audio.h ****     {
  15:../../libdaisy/src/hid/audio.h ****         size_t                        blocksize;
  16:../../libdaisy/src/hid/audio.h ****         SaiHandle::Config::SampleRate samplerate;
  17:../../libdaisy/src/hid/audio.h ****         float                         postgain;
  18:../../libdaisy/src/hid/audio.h ****     };
  19:../../libdaisy/src/hid/audio.h **** 
  20:../../libdaisy/src/hid/audio.h ****     enum class Result
  21:../../libdaisy/src/hid/audio.h ****     {
  22:../../libdaisy/src/hid/audio.h ****         OK,
  23:../../libdaisy/src/hid/audio.h ****         ERR,
  24:../../libdaisy/src/hid/audio.h ****     };
  25:../../libdaisy/src/hid/audio.h **** 
  26:../../libdaisy/src/hid/audio.h ****     /** Non-Interleaving input buffer
  27:../../libdaisy/src/hid/audio.h ****      * Buffer arranged by float[chn][sample] 
  28:../../libdaisy/src/hid/audio.h ****      * const so that the user can't modify the input
  29:../../libdaisy/src/hid/audio.h ****     */
  30:../../libdaisy/src/hid/audio.h ****     typedef const float* const* InputBuffer;
  31:../../libdaisy/src/hid/audio.h **** 
  32:../../libdaisy/src/hid/audio.h ****     /** Non-Interleaving output buffer
  33:../../libdaisy/src/hid/audio.h ****      * Arranged by float[chn][sample] 
  34:../../libdaisy/src/hid/audio.h ****     */
  35:../../libdaisy/src/hid/audio.h ****     typedef float** OutputBuffer;
  36:../../libdaisy/src/hid/audio.h **** 
  37:../../libdaisy/src/hid/audio.h ****     /** Type for a Non-Interleaving audio callback 
  38:../../libdaisy/src/hid/audio.h ****    * Non-Interleaving audio callbacks in daisy will be of this type
  39:../../libdaisy/src/hid/audio.h ****   */
  40:../../libdaisy/src/hid/audio.h ****     typedef void (*AudioCallback)(InputBuffer  in,
  41:../../libdaisy/src/hid/audio.h ****                                   OutputBuffer out,
ARM GAS  /tmp/ccZhYDze.s 			page 17


  42:../../libdaisy/src/hid/audio.h ****                                   size_t       size);
  43:../../libdaisy/src/hid/audio.h **** 
  44:../../libdaisy/src/hid/audio.h ****     /** Interleaving Input buffer
  45:../../libdaisy/src/hid/audio.h ****      ** audio is prepared as { L0, R0, L1, R1, . . . LN, RN }]
  46:../../libdaisy/src/hid/audio.h ****      ** this is const, as the user shouldn't modify it
  47:../../libdaisy/src/hid/audio.h ****     */
  48:../../libdaisy/src/hid/audio.h ****     typedef const float* InterleavingInputBuffer;
  49:../../libdaisy/src/hid/audio.h **** 
  50:../../libdaisy/src/hid/audio.h ****     /** Interleaving Output buffer 
  51:../../libdaisy/src/hid/audio.h ****      ** audio is prepared as { L0, R0, L1, R1, . . . LN, RN }
  52:../../libdaisy/src/hid/audio.h ****     */
  53:../../libdaisy/src/hid/audio.h ****     typedef float* InterleavingOutputBuffer;
  54:../../libdaisy/src/hid/audio.h **** 
  55:../../libdaisy/src/hid/audio.h ****     /** Interleaving Audio Callback 
  56:../../libdaisy/src/hid/audio.h ****    * Interleaving audio callbacks in daisy must be of this type
  57:../../libdaisy/src/hid/audio.h ****   */
  58:../../libdaisy/src/hid/audio.h ****     typedef void (*InterleavingAudioCallback)(InterleavingInputBuffer  in,
  59:../../libdaisy/src/hid/audio.h ****                                               InterleavingOutputBuffer out,
  60:../../libdaisy/src/hid/audio.h ****                                               size_t                   size);
  61:../../libdaisy/src/hid/audio.h **** 
  62:../../libdaisy/src/hid/audio.h ****     AudioHandle() : pimpl_(nullptr) {}
  63:../../libdaisy/src/hid/audio.h ****     ~AudioHandle() {}
 152              		.loc 14 63 5 is_stmt 1 view .LVU24
 153              		.loc 14 63 5 is_stmt 0 view .LVU25
 154              	.LBE617:
 155              	.LBE613:
 156              		.loc 4 41 20 view .LVU26
 157 0000 7047     		bx	lr
 158              		.cfi_endproc
 159              	.LFE4230:
 161              		.weak	_ZN5daisy10DaisyPatchD1Ev
 162              		.thumb_set _ZN5daisy10DaisyPatchD1Ev,_ZN5daisy10DaisyPatchD2Ev
 163 0002 00BF     		.section	.text._ZN5daisy11OledDisplayINS_13SSD130xDriverILj128ELj64ENS_24SSD130x4WireSpiTransportE
 164              		.align	1
 165              		.p2align 2,,3
 166              		.weak	_ZN5daisy11OledDisplayINS_13SSD130xDriverILj128ELj64ENS_24SSD130x4WireSpiTransportEEEED2Ev
 167              		.syntax unified
 168              		.thumb
 169              		.thumb_func
 170              		.fpu fpv5-d16
 172              	_ZN5daisy11OledDisplayINS_13SSD130xDriverILj128ELj64ENS_24SSD130x4WireSpiTransportEEEED2Ev:
 173              	.LVL3:
 174              	.LFB4550:
 175              		.loc 5 17 13 is_stmt 1 view -0
 176              		.cfi_startproc
 177              		@ args = 0, pretend = 0, frame = 0
 178              		@ frame_needed = 0, uses_anonymous_args = 0
 179              		@ link register save eliminated.
 180              	.LBB618:
 181              	.LBI618:
 182              		.loc 6 219 13 view .LVU28
 183              	.LBB619:
 184              	.LBI619:
  23:../../libdaisy/src/hid/disp/display.h **** 
 185              		.loc 6 23 13 view .LVU29
  23:../../libdaisy/src/hid/disp/display.h **** 
 186              		.loc 6 23 13 is_stmt 0 view .LVU30
ARM GAS  /tmp/ccZhYDze.s 			page 18


 187              	.LBE619:
 188              	.LBE618:
 189              		.loc 5 17 29 view .LVU31
 190 0000 7047     		bx	lr
 191              		.cfi_endproc
 192              	.LFE4550:
 194              		.weak	_ZN5daisy11OledDisplayINS_13SSD130xDriverILj128ELj64ENS_24SSD130x4WireSpiTransportEEEED1Ev
 195              		.thumb_set _ZN5daisy11OledDisplayINS_13SSD130xDriverILj128ELj64ENS_24SSD130x4WireSpiTransportEEEED
 196 0002 00BF     		.section	.text.__tcf_0,"ax",%progbits
 197              		.align	1
 198              		.p2align 2,,3
 199              		.syntax unified
 200              		.thumb
 201              		.thumb_func
 202              		.fpu fpv5-d16
 204              	__tcf_0:
 205              	.LFB4820:
 206              		.file 15 "ex_verb.cpp"
   1:ex_verb.cpp   **** #include "daisysp.h"
   2:ex_verb.cpp   **** #include "daisy_patch.h"
   3:ex_verb.cpp   **** #include <string>
   4:ex_verb.cpp   **** 
   5:ex_verb.cpp   **** using namespace daisy;
   6:ex_verb.cpp   **** using namespace daisysp;
   7:ex_verb.cpp   **** static DaisyPatch patch;
   8:ex_verb.cpp   **** static ReverbSc   verb;
   9:ex_verb.cpp   **** static DcBlock    blk[2];
 207              		.loc 15 9 19 is_stmt 1 view -0
 208              		.cfi_startproc
 209              		@ args = 0, pretend = 0, frame = 0
 210              		@ frame_needed = 0, uses_anonymous_args = 0
 211              		@ link register save eliminated.
 212              		.loc 15 9 19 is_stmt 0 view .LVU33
 213 0000 7047     		bx	lr
 214              		.cfi_endproc
 215              	.LFE4820:
 217 0002 00BF     		.section	.text._ZNK5daisy11OledDisplayINS_13SSD130xDriverILj128ELj64ENS_24SSD130x4WireSpiTransport
 218              		.align	1
 219              		.p2align 2,,3
 220              		.weak	_ZNK5daisy11OledDisplayINS_13SSD130xDriverILj128ELj64ENS_24SSD130x4WireSpiTransportEEEE6Heig
 221              		.syntax unified
 222              		.thumb
 223              		.thumb_func
 224              		.fpu fpv5-d16
 226              	_ZNK5daisy11OledDisplayINS_13SSD130xDriverILj128ELj64ENS_24SSD130x4WireSpiTransportEEEE6HeightEv:
 227              	.LVL4:
 228              	.LFB4821:
  18:../../libdaisy/src/hid/disp/oled_display.h **** 
  19:../../libdaisy/src/hid/disp/oled_display.h ****     struct Config
  20:../../libdaisy/src/hid/disp/oled_display.h ****     {
  21:../../libdaisy/src/hid/disp/oled_display.h ****         typename DisplayDriver::Config driver_config;
  22:../../libdaisy/src/hid/disp/oled_display.h ****     };
  23:../../libdaisy/src/hid/disp/oled_display.h **** 
  24:../../libdaisy/src/hid/disp/oled_display.h ****     void Init(Config config) { driver_.Init(config.driver_config); }
  25:../../libdaisy/src/hid/disp/oled_display.h **** 
  26:../../libdaisy/src/hid/disp/oled_display.h ****     uint16_t Height() const override { return driver_.Height(); }
 229              		.loc 5 26 14 is_stmt 1 view -0
ARM GAS  /tmp/ccZhYDze.s 			page 19


 230              		.cfi_startproc
 231              		@ args = 0, pretend = 0, frame = 0
 232              		@ frame_needed = 0, uses_anonymous_args = 0
 233              		@ link register save eliminated.
 234              		.loc 5 26 65 is_stmt 0 view .LVU35
 235 0000 4020     		movs	r0, #64
 236              	.LVL5:
 237              		.loc 5 26 65 view .LVU36
 238 0002 7047     		bx	lr
 239              		.cfi_endproc
 240              	.LFE4821:
 242              		.section	.text._ZNK5daisy11OledDisplayINS_13SSD130xDriverILj128ELj64ENS_24SSD130x4WireSpiTransport
 243              		.align	1
 244              		.p2align 2,,3
 245              		.weak	_ZNK5daisy11OledDisplayINS_13SSD130xDriverILj128ELj64ENS_24SSD130x4WireSpiTransportEEEE5Widt
 246              		.syntax unified
 247              		.thumb
 248              		.thumb_func
 249              		.fpu fpv5-d16
 251              	_ZNK5daisy11OledDisplayINS_13SSD130xDriverILj128ELj64ENS_24SSD130x4WireSpiTransportEEEE5WidthEv:
 252              	.LVL6:
 253              	.LFB4822:
  27:../../libdaisy/src/hid/disp/oled_display.h ****     uint16_t Width() const override { return driver_.Width(); }
 254              		.loc 5 27 14 is_stmt 1 view -0
 255              		.cfi_startproc
 256              		@ args = 0, pretend = 0, frame = 0
 257              		@ frame_needed = 0, uses_anonymous_args = 0
 258              		@ link register save eliminated.
 259              		.loc 5 27 63 is_stmt 0 view .LVU38
 260 0000 8020     		movs	r0, #128
 261              	.LVL7:
 262              		.loc 5 27 63 view .LVU39
 263 0002 7047     		bx	lr
 264              		.cfi_endproc
 265              	.LFE4822:
 267              		.section	.text._ZN5daisy11OledDisplayINS_13SSD130xDriverILj128ELj64ENS_24SSD130x4WireSpiTransportE
 268              		.align	1
 269              		.p2align 2,,3
 270              		.weak	_ZN5daisy11OledDisplayINS_13SSD130xDriverILj128ELj64ENS_24SSD130x4WireSpiTransportEEEE4FillE
 271              		.syntax unified
 272              		.thumb
 273              		.thumb_func
 274              		.fpu fpv5-d16
 276              	_ZN5daisy11OledDisplayINS_13SSD130xDriverILj128ELj64ENS_24SSD130x4WireSpiTransportEEEE4FillEb:
 277              	.LVL8:
 278              	.LFB4823:
  28:../../libdaisy/src/hid/disp/oled_display.h **** 
  29:../../libdaisy/src/hid/disp/oled_display.h ****     /** 
  30:../../libdaisy/src/hid/disp/oled_display.h ****     Fills the entire display with either on/off.
  31:../../libdaisy/src/hid/disp/oled_display.h ****     \param on Sets on or off.
  32:../../libdaisy/src/hid/disp/oled_display.h ****     */
  33:../../libdaisy/src/hid/disp/oled_display.h ****     void Fill(bool on) override { driver_.Fill(on); }
 279              		.loc 5 33 10 is_stmt 1 view -0
 280              		.cfi_startproc
 281              		@ args = 0, pretend = 0, frame = 0
 282              		@ frame_needed = 0, uses_anonymous_args = 0
 283              		@ link register save eliminated.
ARM GAS  /tmp/ccZhYDze.s 			page 20


 284              	.LBB620:
 285              	.LBI620:
 286              		.file 16 "../../libdaisy/src/dev/oled_ssd130x.h"
   1:../../libdaisy/src/dev/oled_ssd130x.h **** #pragma once
   2:../../libdaisy/src/dev/oled_ssd130x.h **** #ifndef SA_OLED_SSD130X_H
   3:../../libdaisy/src/dev/oled_ssd130x.h **** #define SA_OLED_SSD130X_H /**< & */
   4:../../libdaisy/src/dev/oled_ssd130x.h **** 
   5:../../libdaisy/src/dev/oled_ssd130x.h **** #include "per/i2c.h"
   6:../../libdaisy/src/dev/oled_ssd130x.h **** #include "per/spi.h"
   7:../../libdaisy/src/dev/oled_ssd130x.h **** #include "per/gpio.h"
   8:../../libdaisy/src/dev/oled_ssd130x.h **** #include "sys/system.h"
   9:../../libdaisy/src/dev/oled_ssd130x.h **** 
  10:../../libdaisy/src/dev/oled_ssd130x.h **** namespace daisy
  11:../../libdaisy/src/dev/oled_ssd130x.h **** {
  12:../../libdaisy/src/dev/oled_ssd130x.h **** /**
  13:../../libdaisy/src/dev/oled_ssd130x.h ****  * I2C Transport for SSD1306 / SSD1309 OLED display devices
  14:../../libdaisy/src/dev/oled_ssd130x.h ****  */
  15:../../libdaisy/src/dev/oled_ssd130x.h **** class SSD130xI2CTransport
  16:../../libdaisy/src/dev/oled_ssd130x.h **** {
  17:../../libdaisy/src/dev/oled_ssd130x.h ****   public:
  18:../../libdaisy/src/dev/oled_ssd130x.h ****     struct Config
  19:../../libdaisy/src/dev/oled_ssd130x.h ****     {
  20:../../libdaisy/src/dev/oled_ssd130x.h ****         I2CHandle::Config i2c_config;
  21:../../libdaisy/src/dev/oled_ssd130x.h ****         uint8_t           i2c_address;
  22:../../libdaisy/src/dev/oled_ssd130x.h ****         void              Defaults()
  23:../../libdaisy/src/dev/oled_ssd130x.h ****         {
  24:../../libdaisy/src/dev/oled_ssd130x.h ****             i2c_config.periph         = I2CHandle::Config::Peripheral::I2C_1;
  25:../../libdaisy/src/dev/oled_ssd130x.h ****             i2c_config.speed          = I2CHandle::Config::Speed::I2C_1MHZ;
  26:../../libdaisy/src/dev/oled_ssd130x.h ****             i2c_config.mode           = I2CHandle::Config::Mode::I2C_MASTER;
  27:../../libdaisy/src/dev/oled_ssd130x.h ****             i2c_config.pin_config.scl = {DSY_GPIOB, 8};
  28:../../libdaisy/src/dev/oled_ssd130x.h ****             i2c_config.pin_config.sda = {DSY_GPIOB, 9};
  29:../../libdaisy/src/dev/oled_ssd130x.h ****             i2c_address               = 0x3C;
  30:../../libdaisy/src/dev/oled_ssd130x.h ****         }
  31:../../libdaisy/src/dev/oled_ssd130x.h ****     };
  32:../../libdaisy/src/dev/oled_ssd130x.h ****     void Init(const Config& config)
  33:../../libdaisy/src/dev/oled_ssd130x.h ****     {
  34:../../libdaisy/src/dev/oled_ssd130x.h ****         i2c_address_ = config.i2c_address;
  35:../../libdaisy/src/dev/oled_ssd130x.h ****         i2c_.Init(config.i2c_config);
  36:../../libdaisy/src/dev/oled_ssd130x.h ****     };
  37:../../libdaisy/src/dev/oled_ssd130x.h ****     void SendCommand(uint8_t cmd)
  38:../../libdaisy/src/dev/oled_ssd130x.h ****     {
  39:../../libdaisy/src/dev/oled_ssd130x.h ****         uint8_t buf[2] = {0X00, cmd};
  40:../../libdaisy/src/dev/oled_ssd130x.h ****         i2c_.TransmitBlocking(i2c_address_, buf, 2, 1000);
  41:../../libdaisy/src/dev/oled_ssd130x.h ****     };
  42:../../libdaisy/src/dev/oled_ssd130x.h **** 
  43:../../libdaisy/src/dev/oled_ssd130x.h ****     void SendData(uint8_t* buff, size_t size)
  44:../../libdaisy/src/dev/oled_ssd130x.h ****     {
  45:../../libdaisy/src/dev/oled_ssd130x.h ****         for(size_t i = 0; i < size; i++)
  46:../../libdaisy/src/dev/oled_ssd130x.h ****         {
  47:../../libdaisy/src/dev/oled_ssd130x.h ****             uint8_t buf[2] = {0X40, buff[i]};
  48:../../libdaisy/src/dev/oled_ssd130x.h ****             i2c_.TransmitBlocking(i2c_address_, buf, 2, 1000);
  49:../../libdaisy/src/dev/oled_ssd130x.h ****         }
  50:../../libdaisy/src/dev/oled_ssd130x.h ****     };
  51:../../libdaisy/src/dev/oled_ssd130x.h **** 
  52:../../libdaisy/src/dev/oled_ssd130x.h ****   private:
  53:../../libdaisy/src/dev/oled_ssd130x.h ****     daisy::I2CHandle i2c_;
  54:../../libdaisy/src/dev/oled_ssd130x.h ****     uint8_t          i2c_address_;
ARM GAS  /tmp/ccZhYDze.s 			page 21


  55:../../libdaisy/src/dev/oled_ssd130x.h **** };
  56:../../libdaisy/src/dev/oled_ssd130x.h **** 
  57:../../libdaisy/src/dev/oled_ssd130x.h **** /**
  58:../../libdaisy/src/dev/oled_ssd130x.h ****  * 4 Wire SPI Transport for SSD1306 / SSD1309 OLED display devices
  59:../../libdaisy/src/dev/oled_ssd130x.h ****  */
  60:../../libdaisy/src/dev/oled_ssd130x.h **** class SSD130x4WireSpiTransport
  61:../../libdaisy/src/dev/oled_ssd130x.h **** {
  62:../../libdaisy/src/dev/oled_ssd130x.h ****   public:
  63:../../libdaisy/src/dev/oled_ssd130x.h ****     struct Config
  64:../../libdaisy/src/dev/oled_ssd130x.h ****     {
  65:../../libdaisy/src/dev/oled_ssd130x.h ****         struct
  66:../../libdaisy/src/dev/oled_ssd130x.h ****         {
  67:../../libdaisy/src/dev/oled_ssd130x.h ****             dsy_gpio_pin dc;    /**< & */
  68:../../libdaisy/src/dev/oled_ssd130x.h ****             dsy_gpio_pin reset; /**< & */
  69:../../libdaisy/src/dev/oled_ssd130x.h ****         } pin_config;
  70:../../libdaisy/src/dev/oled_ssd130x.h ****         void Defaults()
  71:../../libdaisy/src/dev/oled_ssd130x.h ****         {
  72:../../libdaisy/src/dev/oled_ssd130x.h ****             pin_config.dc    = {DSY_GPIOB, 4};
  73:../../libdaisy/src/dev/oled_ssd130x.h ****             pin_config.reset = {DSY_GPIOB, 15};
  74:../../libdaisy/src/dev/oled_ssd130x.h ****         }
  75:../../libdaisy/src/dev/oled_ssd130x.h ****     };
  76:../../libdaisy/src/dev/oled_ssd130x.h ****     void Init(const Config& config)
  77:../../libdaisy/src/dev/oled_ssd130x.h ****     {
  78:../../libdaisy/src/dev/oled_ssd130x.h ****         // Initialize both GPIO
  79:../../libdaisy/src/dev/oled_ssd130x.h ****         pin_dc_.mode = DSY_GPIO_MODE_OUTPUT_PP;
  80:../../libdaisy/src/dev/oled_ssd130x.h ****         pin_dc_.pin  = config.pin_config.dc;
  81:../../libdaisy/src/dev/oled_ssd130x.h ****         dsy_gpio_init(&pin_dc_);
  82:../../libdaisy/src/dev/oled_ssd130x.h ****         pin_reset_.mode = DSY_GPIO_MODE_OUTPUT_PP;
  83:../../libdaisy/src/dev/oled_ssd130x.h ****         pin_reset_.pin  = config.pin_config.reset;
  84:../../libdaisy/src/dev/oled_ssd130x.h ****         dsy_gpio_init(&pin_reset_);
  85:../../libdaisy/src/dev/oled_ssd130x.h ****         // Initialize SPI
  86:../../libdaisy/src/dev/oled_ssd130x.h ****         SpiHandle::Config spi_config;
  87:../../libdaisy/src/dev/oled_ssd130x.h ****         spi_config.periph    = SpiHandle::Config::Peripheral::SPI_1;
  88:../../libdaisy/src/dev/oled_ssd130x.h ****         spi_config.mode      = SpiHandle::Config::Mode::MASTER;
  89:../../libdaisy/src/dev/oled_ssd130x.h ****         spi_config.direction = SpiHandle::Config::Direction::TWO_LINES_TX_ONLY;
  90:../../libdaisy/src/dev/oled_ssd130x.h ****         spi_config.datasize  = 8;
  91:../../libdaisy/src/dev/oled_ssd130x.h ****         spi_config.clock_polarity = SpiHandle::Config::ClockPolarity::LOW;
  92:../../libdaisy/src/dev/oled_ssd130x.h ****         spi_config.clock_phase    = SpiHandle::Config::ClockPhase::ONE_EDGE;
  93:../../libdaisy/src/dev/oled_ssd130x.h ****         spi_config.nss            = SpiHandle::Config::NSS::HARD_OUTPUT;
  94:../../libdaisy/src/dev/oled_ssd130x.h ****         spi_config.baud_prescaler = SpiHandle::Config::BaudPrescaler::PS_8;
  95:../../libdaisy/src/dev/oled_ssd130x.h **** 
  96:../../libdaisy/src/dev/oled_ssd130x.h ****         spi_config.pin_config.sclk = {DSY_GPIOG, 11};
  97:../../libdaisy/src/dev/oled_ssd130x.h ****         spi_config.pin_config.miso = {DSY_GPIOX, 0};
  98:../../libdaisy/src/dev/oled_ssd130x.h ****         spi_config.pin_config.mosi = {DSY_GPIOB, 5};
  99:../../libdaisy/src/dev/oled_ssd130x.h ****         spi_config.pin_config.nss  = {DSY_GPIOG, 10};
 100:../../libdaisy/src/dev/oled_ssd130x.h **** 
 101:../../libdaisy/src/dev/oled_ssd130x.h ****         spi_.Init(spi_config);
 102:../../libdaisy/src/dev/oled_ssd130x.h **** 
 103:../../libdaisy/src/dev/oled_ssd130x.h ****         // Reset and Configure OLED.
 104:../../libdaisy/src/dev/oled_ssd130x.h ****         dsy_gpio_write(&pin_reset_, 0);
 105:../../libdaisy/src/dev/oled_ssd130x.h ****         System::Delay(10);
 106:../../libdaisy/src/dev/oled_ssd130x.h ****         dsy_gpio_write(&pin_reset_, 1);
 107:../../libdaisy/src/dev/oled_ssd130x.h ****         System::Delay(10);
 108:../../libdaisy/src/dev/oled_ssd130x.h ****     };
 109:../../libdaisy/src/dev/oled_ssd130x.h ****     void SendCommand(uint8_t cmd)
 110:../../libdaisy/src/dev/oled_ssd130x.h ****     {
 111:../../libdaisy/src/dev/oled_ssd130x.h ****         dsy_gpio_write(&pin_dc_, 0);
ARM GAS  /tmp/ccZhYDze.s 			page 22


 112:../../libdaisy/src/dev/oled_ssd130x.h ****         spi_.BlockingTransmit(&cmd, 1);
 113:../../libdaisy/src/dev/oled_ssd130x.h ****     };
 114:../../libdaisy/src/dev/oled_ssd130x.h **** 
 115:../../libdaisy/src/dev/oled_ssd130x.h ****     void SendData(uint8_t* buff, size_t size)
 116:../../libdaisy/src/dev/oled_ssd130x.h ****     {
 117:../../libdaisy/src/dev/oled_ssd130x.h ****         dsy_gpio_write(&pin_dc_, 1);
 118:../../libdaisy/src/dev/oled_ssd130x.h ****         spi_.BlockingTransmit(buff, size);
 119:../../libdaisy/src/dev/oled_ssd130x.h ****     };
 120:../../libdaisy/src/dev/oled_ssd130x.h **** 
 121:../../libdaisy/src/dev/oled_ssd130x.h ****   private:
 122:../../libdaisy/src/dev/oled_ssd130x.h ****     SpiHandle spi_;
 123:../../libdaisy/src/dev/oled_ssd130x.h ****     dsy_gpio  pin_reset_;
 124:../../libdaisy/src/dev/oled_ssd130x.h ****     dsy_gpio  pin_dc_;
 125:../../libdaisy/src/dev/oled_ssd130x.h **** };
 126:../../libdaisy/src/dev/oled_ssd130x.h **** 
 127:../../libdaisy/src/dev/oled_ssd130x.h **** 
 128:../../libdaisy/src/dev/oled_ssd130x.h **** /**
 129:../../libdaisy/src/dev/oled_ssd130x.h ****  * A driver implementation for the SSD1306/SSD1309
 130:../../libdaisy/src/dev/oled_ssd130x.h ****  */
 131:../../libdaisy/src/dev/oled_ssd130x.h **** template <size_t width, size_t height, typename Transport>
 132:../../libdaisy/src/dev/oled_ssd130x.h **** class SSD130xDriver
 133:../../libdaisy/src/dev/oled_ssd130x.h **** {
 134:../../libdaisy/src/dev/oled_ssd130x.h ****   public:
 135:../../libdaisy/src/dev/oled_ssd130x.h ****     struct Config
 136:../../libdaisy/src/dev/oled_ssd130x.h ****     {
 137:../../libdaisy/src/dev/oled_ssd130x.h ****         typename Transport::Config transport_config;
 138:../../libdaisy/src/dev/oled_ssd130x.h ****     };
 139:../../libdaisy/src/dev/oled_ssd130x.h **** 
 140:../../libdaisy/src/dev/oled_ssd130x.h ****     void Init(Config config)
 141:../../libdaisy/src/dev/oled_ssd130x.h ****     {
 142:../../libdaisy/src/dev/oled_ssd130x.h ****         transport_.Init(config.transport_config);
 143:../../libdaisy/src/dev/oled_ssd130x.h **** 
 144:../../libdaisy/src/dev/oled_ssd130x.h ****         // Init routine...
 145:../../libdaisy/src/dev/oled_ssd130x.h **** 
 146:../../libdaisy/src/dev/oled_ssd130x.h ****         // Display Off
 147:../../libdaisy/src/dev/oled_ssd130x.h ****         transport_.SendCommand(0xaE);
 148:../../libdaisy/src/dev/oled_ssd130x.h ****         // Dimension dependent commands...
 149:../../libdaisy/src/dev/oled_ssd130x.h ****         switch(height)
 150:../../libdaisy/src/dev/oled_ssd130x.h ****         {
 151:../../libdaisy/src/dev/oled_ssd130x.h ****             case 16:
 152:../../libdaisy/src/dev/oled_ssd130x.h ****                 // Display Clock Divide Ratio
 153:../../libdaisy/src/dev/oled_ssd130x.h ****                 transport_.SendCommand(0xD5);
 154:../../libdaisy/src/dev/oled_ssd130x.h ****                 transport_.SendCommand(0x60);
 155:../../libdaisy/src/dev/oled_ssd130x.h ****                 // Multiplex Ratio
 156:../../libdaisy/src/dev/oled_ssd130x.h ****                 transport_.SendCommand(0xA8);
 157:../../libdaisy/src/dev/oled_ssd130x.h ****                 transport_.SendCommand(0x0F);
 158:../../libdaisy/src/dev/oled_ssd130x.h ****                 // COM Pins
 159:../../libdaisy/src/dev/oled_ssd130x.h ****                 transport_.SendCommand(0xDA);
 160:../../libdaisy/src/dev/oled_ssd130x.h ****                 transport_.SendCommand(0x02);
 161:../../libdaisy/src/dev/oled_ssd130x.h ****                 break;
 162:../../libdaisy/src/dev/oled_ssd130x.h ****             case 32:
 163:../../libdaisy/src/dev/oled_ssd130x.h ****                 // Display Clock Divide Ratio
 164:../../libdaisy/src/dev/oled_ssd130x.h ****                 transport_.SendCommand(0xD5);
 165:../../libdaisy/src/dev/oled_ssd130x.h ****                 transport_.SendCommand(0x80);
 166:../../libdaisy/src/dev/oled_ssd130x.h ****                 // Multiplex Ratio
 167:../../libdaisy/src/dev/oled_ssd130x.h ****                 transport_.SendCommand(0xA8);
 168:../../libdaisy/src/dev/oled_ssd130x.h ****                 transport_.SendCommand(0x1F);
ARM GAS  /tmp/ccZhYDze.s 			page 23


 169:../../libdaisy/src/dev/oled_ssd130x.h ****                 // COM Pins
 170:../../libdaisy/src/dev/oled_ssd130x.h ****                 transport_.SendCommand(0xDA);
 171:../../libdaisy/src/dev/oled_ssd130x.h ****                 if(width == 64)
 172:../../libdaisy/src/dev/oled_ssd130x.h ****                 {
 173:../../libdaisy/src/dev/oled_ssd130x.h ****                     transport_.SendCommand(0x12);
 174:../../libdaisy/src/dev/oled_ssd130x.h ****                 }
 175:../../libdaisy/src/dev/oled_ssd130x.h ****                 else
 176:../../libdaisy/src/dev/oled_ssd130x.h ****                 {
 177:../../libdaisy/src/dev/oled_ssd130x.h ****                     transport_.SendCommand(0x02);
 178:../../libdaisy/src/dev/oled_ssd130x.h ****                 }
 179:../../libdaisy/src/dev/oled_ssd130x.h **** 
 180:../../libdaisy/src/dev/oled_ssd130x.h ****                 break;
 181:../../libdaisy/src/dev/oled_ssd130x.h ****             case 48:
 182:../../libdaisy/src/dev/oled_ssd130x.h ****                 // Display Clock Divide Ratio
 183:../../libdaisy/src/dev/oled_ssd130x.h ****                 transport_.SendCommand(0xD5);
 184:../../libdaisy/src/dev/oled_ssd130x.h ****                 transport_.SendCommand(0x80);
 185:../../libdaisy/src/dev/oled_ssd130x.h ****                 // Multiplex Ratio
 186:../../libdaisy/src/dev/oled_ssd130x.h ****                 transport_.SendCommand(0xA8);
 187:../../libdaisy/src/dev/oled_ssd130x.h ****                 transport_.SendCommand(0x2F);
 188:../../libdaisy/src/dev/oled_ssd130x.h ****                 // COM Pins
 189:../../libdaisy/src/dev/oled_ssd130x.h ****                 transport_.SendCommand(0xDA);
 190:../../libdaisy/src/dev/oled_ssd130x.h ****                 transport_.SendCommand(0x12);
 191:../../libdaisy/src/dev/oled_ssd130x.h ****                 break;
 192:../../libdaisy/src/dev/oled_ssd130x.h ****             default: // 128
 193:../../libdaisy/src/dev/oled_ssd130x.h ****                 // Display Clock Divide Ratio
 194:../../libdaisy/src/dev/oled_ssd130x.h ****                 transport_.SendCommand(0xD5);
 195:../../libdaisy/src/dev/oled_ssd130x.h ****                 transport_.SendCommand(0x80);
 196:../../libdaisy/src/dev/oled_ssd130x.h ****                 // Multiplex Ratio
 197:../../libdaisy/src/dev/oled_ssd130x.h ****                 transport_.SendCommand(0xA8);
 198:../../libdaisy/src/dev/oled_ssd130x.h ****                 transport_.SendCommand(0x3F);
 199:../../libdaisy/src/dev/oled_ssd130x.h ****                 // COM Pins
 200:../../libdaisy/src/dev/oled_ssd130x.h ****                 transport_.SendCommand(0xDA);
 201:../../libdaisy/src/dev/oled_ssd130x.h ****                 transport_.SendCommand(0x12);
 202:../../libdaisy/src/dev/oled_ssd130x.h ****                 break;
 203:../../libdaisy/src/dev/oled_ssd130x.h ****         }
 204:../../libdaisy/src/dev/oled_ssd130x.h **** 
 205:../../libdaisy/src/dev/oled_ssd130x.h ****         // Display Offset
 206:../../libdaisy/src/dev/oled_ssd130x.h ****         transport_.SendCommand(0xD3);
 207:../../libdaisy/src/dev/oled_ssd130x.h ****         transport_.SendCommand(0x00);
 208:../../libdaisy/src/dev/oled_ssd130x.h ****         // Start Line Address
 209:../../libdaisy/src/dev/oled_ssd130x.h ****         transport_.SendCommand(0x40);
 210:../../libdaisy/src/dev/oled_ssd130x.h ****         // Normal Display
 211:../../libdaisy/src/dev/oled_ssd130x.h ****         transport_.SendCommand(0xA6);
 212:../../libdaisy/src/dev/oled_ssd130x.h ****         // All On Resume
 213:../../libdaisy/src/dev/oled_ssd130x.h ****         transport_.SendCommand(0xA4);
 214:../../libdaisy/src/dev/oled_ssd130x.h ****         // Charge Pump
 215:../../libdaisy/src/dev/oled_ssd130x.h ****         transport_.SendCommand(0x8D);
 216:../../libdaisy/src/dev/oled_ssd130x.h ****         transport_.SendCommand(0x14);
 217:../../libdaisy/src/dev/oled_ssd130x.h ****         // Set Segment Remap
 218:../../libdaisy/src/dev/oled_ssd130x.h ****         transport_.SendCommand(0xA1);
 219:../../libdaisy/src/dev/oled_ssd130x.h ****         // COM Output Scan Direction
 220:../../libdaisy/src/dev/oled_ssd130x.h ****         transport_.SendCommand(0xC8);
 221:../../libdaisy/src/dev/oled_ssd130x.h ****         // Contrast Control
 222:../../libdaisy/src/dev/oled_ssd130x.h ****         transport_.SendCommand(0x81);
 223:../../libdaisy/src/dev/oled_ssd130x.h ****         transport_.SendCommand(0x8F);
 224:../../libdaisy/src/dev/oled_ssd130x.h ****         // Pre Charge
 225:../../libdaisy/src/dev/oled_ssd130x.h ****         transport_.SendCommand(0xD9);
ARM GAS  /tmp/ccZhYDze.s 			page 24


 226:../../libdaisy/src/dev/oled_ssd130x.h ****         transport_.SendCommand(0x25);
 227:../../libdaisy/src/dev/oled_ssd130x.h ****         // VCOM Detect
 228:../../libdaisy/src/dev/oled_ssd130x.h ****         transport_.SendCommand(0xDB);
 229:../../libdaisy/src/dev/oled_ssd130x.h ****         transport_.SendCommand(0x34);
 230:../../libdaisy/src/dev/oled_ssd130x.h **** 
 231:../../libdaisy/src/dev/oled_ssd130x.h **** 
 232:../../libdaisy/src/dev/oled_ssd130x.h ****         // Display On
 233:../../libdaisy/src/dev/oled_ssd130x.h ****         transport_.SendCommand(0xAF); //--turn on oled panel
 234:../../libdaisy/src/dev/oled_ssd130x.h ****     };
 235:../../libdaisy/src/dev/oled_ssd130x.h **** 
 236:../../libdaisy/src/dev/oled_ssd130x.h ****     size_t Width() const { return width; };
 237:../../libdaisy/src/dev/oled_ssd130x.h ****     size_t Height() const { return height; };
 238:../../libdaisy/src/dev/oled_ssd130x.h **** 
 239:../../libdaisy/src/dev/oled_ssd130x.h ****     void DrawPixel(uint_fast8_t x, uint_fast8_t y, bool on)
 240:../../libdaisy/src/dev/oled_ssd130x.h ****     {
 241:../../libdaisy/src/dev/oled_ssd130x.h ****         if(x >= width || y >= height)
 242:../../libdaisy/src/dev/oled_ssd130x.h ****             return;
 243:../../libdaisy/src/dev/oled_ssd130x.h ****         if(on)
 244:../../libdaisy/src/dev/oled_ssd130x.h ****             buffer_[x + (y / 8) * width] |= (1 << (y % 8));
 245:../../libdaisy/src/dev/oled_ssd130x.h ****         else
 246:../../libdaisy/src/dev/oled_ssd130x.h ****             buffer_[x + (y / 8) * width] &= ~(1 << (y % 8));
 247:../../libdaisy/src/dev/oled_ssd130x.h ****     }
 248:../../libdaisy/src/dev/oled_ssd130x.h **** 
 249:../../libdaisy/src/dev/oled_ssd130x.h ****     void Fill(bool on)
 287              		.loc 16 249 10 view .LVU41
 288              	.LBB621:
 250:../../libdaisy/src/dev/oled_ssd130x.h ****     {
 251:../../libdaisy/src/dev/oled_ssd130x.h ****         for(size_t i = 0; i < sizeof(buffer_); i++)
 289              		.loc 16 251 29 view .LVU42
 290 0000 4942     		rsbs	r1, r1, #0
 291              	.LVL9:
 292              		.loc 16 251 29 is_stmt 0 view .LVU43
 293 0002 00F11303 		add	r3, r0, #19
 294 0006 00F21342 		addw	r2, r0, #1043
 295 000a C9B2     		uxtb	r1, r1
 296              	.LVL10:
 297              	.L10:
 252:../../libdaisy/src/dev/oled_ssd130x.h ****         {
 253:../../libdaisy/src/dev/oled_ssd130x.h ****             buffer_[i] = on ? 0xff : 0x00;
 298              		.loc 16 253 13 view .LVU44
 299 000c 03F8011F 		strb	r1, [r3, #1]!
 300              	.LVL11:
 251:../../libdaisy/src/dev/oled_ssd130x.h ****         {
 301              		.loc 16 251 9 is_stmt 1 view .LVU45
 251:../../libdaisy/src/dev/oled_ssd130x.h ****         {
 302              		.loc 16 251 29 view .LVU46
 303 0010 9342     		cmp	r3, r2
 304 0012 FBD1     		bne	.L10
 305              	.LBE621:
 306              	.LBE620:
 307              		.loc 5 33 53 is_stmt 0 view .LVU47
 308 0014 7047     		bx	lr
 309              		.cfi_endproc
 310              	.LFE4823:
 312 0016 00BF     		.section	.text._ZL12VerbCallbackPKPKfPPfj,"ax",%progbits
 313              		.align	1
 314              		.p2align 2,,3
ARM GAS  /tmp/ccZhYDze.s 			page 25


 315              		.syntax unified
 316              		.thumb
 317              		.thumb_func
 318              		.fpu fpv5-d16
 320              	_ZL12VerbCallbackPKPKfPPfj:
 321              	.LVL12:
 322              	.LFB4233:
  10:ex_verb.cpp   **** Parameter         lpParam;
  11:ex_verb.cpp   **** static float      drylevel, send;
  12:ex_verb.cpp   **** 
  13:ex_verb.cpp   **** static void VerbCallback(AudioHandle::InputBuffer  in,
  14:ex_verb.cpp   ****                          AudioHandle::OutputBuffer out,
  15:ex_verb.cpp   ****                          size_t                    size)
  16:ex_verb.cpp   **** {
 323              		.loc 15 16 1 is_stmt 1 view -0
 324              		.cfi_startproc
 325              		@ args = 0, pretend = 0, frame = 16
 326              		@ frame_needed = 0, uses_anonymous_args = 0
  17:ex_verb.cpp   ****     float dryL, dryR, wetL, wetR, sendL, sendR;
 327              		.loc 15 17 5 view .LVU49
  18:ex_verb.cpp   ****     patch.ProcessAnalogControls();
 328              		.loc 15 18 5 view .LVU50
  16:ex_verb.cpp   ****     float dryL, dryR, wetL, wetR, sendL, sendR;
 329              		.loc 15 16 1 is_stmt 0 view .LVU51
 330 0000 2DE9F04F 		push	{r4, r5, r6, r7, r8, r9, r10, fp, lr}
 331              		.cfi_def_cfa_offset 36
 332              		.cfi_offset 4, -36
 333              		.cfi_offset 5, -32
 334              		.cfi_offset 6, -28
 335              		.cfi_offset 7, -24
 336              		.cfi_offset 8, -20
 337              		.cfi_offset 9, -16
 338              		.cfi_offset 10, -12
 339              		.cfi_offset 11, -8
 340              		.cfi_offset 14, -4
 341 0004 9346     		mov	fp, r2
 342 0006 0746     		mov	r7, r0
 343              		.loc 15 18 32 view .LVU52
 344 0008 3E48     		ldr	r0, .L20
 345              	.LVL13:
  16:ex_verb.cpp   ****     float dryL, dryR, wetL, wetR, sendL, sendR;
 346              		.loc 15 16 1 view .LVU53
 347 000a 0E46     		mov	r6, r1
 348 000c 2DED028B 		vpush.64	{d8}
 349              		.cfi_def_cfa_offset 44
 350              		.cfi_offset 80, -44
 351              		.cfi_offset 81, -40
 352 0010 87B0     		sub	sp, sp, #28
 353              		.cfi_def_cfa_offset 72
 354              		.loc 15 18 32 view .LVU54
 355 0012 FFF7FEFF 		bl	_ZN5daisy10DaisyPatch21ProcessAnalogControlsEv
 356              	.LVL14:
  19:ex_verb.cpp   ****     for(size_t i = 0; i < size; i++)
 357              		.loc 15 19 5 is_stmt 1 view .LVU55
 358              	.LBB622:
 359              		.loc 15 19 25 view .LVU56
 360 0016 BBF1000F 		cmp	fp, #0
ARM GAS  /tmp/ccZhYDze.s 			page 26


 361 001a 6DD0     		beq	.L12
 362              		.loc 15 19 16 is_stmt 0 view .LVU57
 363 001c 0024     		movs	r4, #0
 364 001e DFF8FCA0 		ldr	r10, .L20+24
 365 0022 DFF8FC90 		ldr	r9, .L20+28
 366 0026 DFF8E880 		ldr	r8, .L20+12
 367              	.LVL15:
 368              	.L14:
  20:ex_verb.cpp   ****     {
  21:ex_verb.cpp   ****         // read some controls
  22:ex_verb.cpp   ****         drylevel = patch.GetKnobValue(patch.CTRL_1);
 369              		.loc 15 22 9 is_stmt 1 discriminator 2 view .LVU58
 370              		.loc 15 22 38 is_stmt 0 discriminator 2 view .LVU59
 371 002a 0021     		movs	r1, #0
 372 002c 3548     		ldr	r0, .L20
 373 002e FFF7FEFF 		bl	_ZN5daisy10DaisyPatch12GetKnobValueENS0_4CtrlE
 374              	.LVL16:
  23:ex_verb.cpp   ****         send     = patch.GetKnobValue(patch.CTRL_2);
 375              		.loc 15 23 38 discriminator 2 view .LVU60
 376 0032 0121     		movs	r1, #1
 377 0034 3348     		ldr	r0, .L20
  22:ex_verb.cpp   ****         send     = patch.GetKnobValue(patch.CTRL_2);
 378              		.loc 15 22 18 discriminator 2 view .LVU61
 379 0036 8AED000A 		vstr.32	s0, [r10]
 380              		.loc 15 23 9 is_stmt 1 discriminator 2 view .LVU62
 381              		.loc 15 23 38 is_stmt 0 discriminator 2 view .LVU63
 382 003a FFF7FEFF 		bl	_ZN5daisy10DaisyPatch12GetKnobValueENS0_4CtrlE
 383              	.LVL17:
  24:ex_verb.cpp   ****         verb.SetFeedback(patch.GetKnobValue(patch.CTRL_3) * .94f);
 384              		.loc 15 24 44 discriminator 2 view .LVU64
 385 003e 0221     		movs	r1, #2
 386 0040 3048     		ldr	r0, .L20
  23:ex_verb.cpp   ****         send     = patch.GetKnobValue(patch.CTRL_2);
 387              		.loc 15 23 18 discriminator 2 view .LVU65
 388 0042 89ED000A 		vstr.32	s0, [r9]
 389              		.loc 15 24 9 is_stmt 1 discriminator 2 view .LVU66
 390 0046 04FA01F5 		lsl	r5, r4, r1
 391              		.loc 15 24 44 is_stmt 0 discriminator 2 view .LVU67
 392 004a FFF7FEFF 		bl	_ZN5daisy10DaisyPatch12GetKnobValueENS0_4CtrlE
 393              	.LVL18:
 394              	.LBB623:
 395              	.LBI623:
  42:../../DaisySP/Source/Effects/reverbsc.h ****     /** Initializes the reverb module, and sets the sample_rate at which the Process function will 
  43:../../DaisySP/Source/Effects/reverbsc.h ****         Returns 0 if all good, or 1 if it runs out of delay times exceed maximum allowed.
  44:../../DaisySP/Source/Effects/reverbsc.h ****     */
  45:../../DaisySP/Source/Effects/reverbsc.h ****     int Init(float sample_rate);
  46:../../DaisySP/Source/Effects/reverbsc.h **** 
  47:../../DaisySP/Source/Effects/reverbsc.h ****     /** Process the input through the reverb, and updates values of out1, and out2 with the new pro
  48:../../DaisySP/Source/Effects/reverbsc.h ****     */
  49:../../DaisySP/Source/Effects/reverbsc.h ****     int Process(const float &in1, const float &in2, float *out1, float *out2);
  50:../../DaisySP/Source/Effects/reverbsc.h **** 
  51:../../DaisySP/Source/Effects/reverbsc.h ****     /** controls the reverb time. reverb tail becomes infinite when set to 1.0
  52:../../DaisySP/Source/Effects/reverbsc.h ****         \param fb - sets reverb time. range: 0.0 to 1.0
  53:../../DaisySP/Source/Effects/reverbsc.h ****     */
  54:../../DaisySP/Source/Effects/reverbsc.h ****     inline void SetFeedback(const float &fb) { feedback_ = fb; }
 396              		.loc 1 54 17 is_stmt 1 discriminator 2 view .LVU68
 397              	.LBB624:
ARM GAS  /tmp/ccZhYDze.s 			page 27


 398              		.loc 1 54 48 discriminator 2 view .LVU69
 399              	.LBE624:
 400              	.LBE623:
 401              		.loc 15 24 59 is_stmt 0 discriminator 2 view .LVU70
 402 004e DFED2E7A 		vldr.32	s15, .L20+4
  25:ex_verb.cpp   ****         verb.SetLpFreq(lpParam.Process());
 403              		.loc 15 25 39 discriminator 2 view .LVU71
 404 0052 2E48     		ldr	r0, .L20+8
  24:ex_verb.cpp   ****         verb.SetFeedback(patch.GetKnobValue(patch.CTRL_3) * .94f);
 405              		.loc 15 24 59 discriminator 2 view .LVU72
 406 0054 20EE270A 		vmul.f32	s0, s0, s15
 407              	.LBB626:
 408              	.LBB625:
 409              		.loc 1 54 58 discriminator 2 view .LVU73
 410 0058 88ED000A 		vstr.32	s0, [r8]
 411              	.LBE625:
 412              	.LBE626:
 413              		.loc 15 25 9 is_stmt 1 discriminator 2 view .LVU74
 414              		.loc 15 25 39 is_stmt 0 discriminator 2 view .LVU75
 415 005c FFF7FEFF 		bl	_ZN5daisy9Parameter7ProcessEv
 416              	.LVL19:
 417              	.LBB627:
 418              	.LBI627:
  55:../../DaisySP/Source/Effects/reverbsc.h ****     /** controls the internal dampening filter's cutoff frequency.
  56:../../DaisySP/Source/Effects/reverbsc.h ****         \param freq - low pass frequency. range: 0.0 to sample_rate / 2
  57:../../DaisySP/Source/Effects/reverbsc.h ****     */
  58:../../DaisySP/Source/Effects/reverbsc.h ****     inline void SetLpFreq(const float &freq) { lpfreq_ = freq; }
 419              		.loc 1 58 17 is_stmt 1 discriminator 2 view .LVU76
 420              	.LBB628:
 421              		.loc 1 58 48 discriminator 2 view .LVU77
 422              	.LBE628:
 423              	.LBE627:
  26:ex_verb.cpp   **** 
  27:ex_verb.cpp   ****         // Read Inputs (only stereo in are used)
  28:ex_verb.cpp   ****         dryL = in[0][i];
  29:ex_verb.cpp   ****         dryR = in[1][i];
  30:ex_verb.cpp   **** 
  31:ex_verb.cpp   ****         // Send Signal to Reverb
  32:ex_verb.cpp   ****         sendL = dryL * send;
 424              		.loc 15 32 22 is_stmt 0 discriminator 2 view .LVU78
 425 0060 D9ED007A 		vldr.32	s15, [r9]
  33:ex_verb.cpp   ****         sendR = dryR * send;
  34:ex_verb.cpp   ****         verb.Process(sendL, sendR, &wetL, &wetR);
 426              		.loc 15 34 21 discriminator 2 view .LVU79
 427 0064 03A8     		add	r0, sp, #12
 428 0066 02AB     		add	r3, sp, #8
  29:ex_verb.cpp   **** 
 429              		.loc 15 29 14 discriminator 2 view .LVU80
 430 0068 D7E90021 		ldrd	r2, r1, [r7]
 431              	.LBB630:
 432              	.LBB629:
 433              		.loc 1 58 56 discriminator 2 view .LVU81
 434 006c 88ED010A 		vstr.32	s0, [r8, #4]
 435              	.LBE629:
 436              	.LBE630:
  28:ex_verb.cpp   ****         dryR = in[1][i];
 437              		.loc 15 28 9 is_stmt 1 discriminator 2 view .LVU82
ARM GAS  /tmp/ccZhYDze.s 			page 28


  28:ex_verb.cpp   ****         dryR = in[1][i];
 438              		.loc 15 28 14 is_stmt 0 discriminator 2 view .LVU83
 439 0070 02EB8402 		add	r2, r2, r4, lsl #2
  29:ex_verb.cpp   **** 
 440              		.loc 15 29 14 discriminator 2 view .LVU84
 441 0074 01EB8401 		add	r1, r1, r4, lsl #2
  19:ex_verb.cpp   ****     {
 442              		.loc 15 19 5 discriminator 2 view .LVU85
 443 0078 0134     		adds	r4, r4, #1
 444              	.LVL20:
  28:ex_verb.cpp   ****         dryR = in[1][i];
 445              		.loc 15 28 14 discriminator 2 view .LVU86
 446 007a D2ED008A 		vldr.32	s17, [r2]
 447              	.LVL21:
  29:ex_verb.cpp   **** 
 448              		.loc 15 29 9 is_stmt 1 discriminator 2 view .LVU87
 449              		.loc 15 34 21 is_stmt 0 discriminator 2 view .LVU88
 450 007e 05AA     		add	r2, sp, #20
  29:ex_verb.cpp   **** 
 451              		.loc 15 29 14 discriminator 2 view .LVU89
 452 0080 91ED008A 		vldr.32	s16, [r1]
 453              	.LVL22:
  32:ex_verb.cpp   ****         sendR = dryR * send;
 454              		.loc 15 32 9 is_stmt 1 discriminator 2 view .LVU90
 455              		.loc 15 34 21 is_stmt 0 discriminator 2 view .LVU91
 456 0084 04A9     		add	r1, sp, #16
  32:ex_verb.cpp   ****         sendR = dryR * send;
 457              		.loc 15 32 22 discriminator 2 view .LVU92
 458 0086 27EEA87A 		vmul.f32	s14, s15, s17
 459              		.loc 15 34 21 discriminator 2 view .LVU93
 460 008a 0090     		str	r0, [sp]
  33:ex_verb.cpp   ****         verb.Process(sendL, sendR, &wetL, &wetR);
 461              		.loc 15 33 22 discriminator 2 view .LVU94
 462 008c 67EE887A 		vmul.f32	s15, s15, s16
 463              		.loc 15 34 21 discriminator 2 view .LVU95
 464 0090 1F48     		ldr	r0, .L20+12
  32:ex_verb.cpp   ****         sendR = dryR * send;
 465              		.loc 15 32 15 discriminator 2 view .LVU96
 466 0092 8DED047A 		vstr.32	s14, [sp, #16]
  33:ex_verb.cpp   ****         verb.Process(sendL, sendR, &wetL, &wetR);
 467              		.loc 15 33 9 is_stmt 1 discriminator 2 view .LVU97
  33:ex_verb.cpp   ****         verb.Process(sendL, sendR, &wetL, &wetR);
 468              		.loc 15 33 15 is_stmt 0 discriminator 2 view .LVU98
 469 0096 CDED057A 		vstr.32	s15, [sp, #20]
 470              		.loc 15 34 9 is_stmt 1 discriminator 2 view .LVU99
 471              		.loc 15 34 21 is_stmt 0 discriminator 2 view .LVU100
 472 009a FFF7FEFF 		bl	_ZN7daisysp8ReverbSc7ProcessERKfS2_PfS3_
 473              	.LVL23:
  35:ex_verb.cpp   **** 
  36:ex_verb.cpp   ****         // Dc Block
  37:ex_verb.cpp   ****         wetL = blk[0].Process(wetL);
 474              		.loc 15 37 9 is_stmt 1 discriminator 2 view .LVU101
 475              		.loc 15 37 30 is_stmt 0 discriminator 2 view .LVU102
 476 009e 1D48     		ldr	r0, .L20+16
 477 00a0 9DED020A 		vldr.32	s0, [sp, #8]
 478 00a4 FFF7FEFF 		bl	_ZN7daisysp7DcBlock7ProcessEf
 479              	.LVL24:
ARM GAS  /tmp/ccZhYDze.s 			page 29


 480 00a8 F0EE407A 		vmov.f32	s15, s0
  38:ex_verb.cpp   ****         wetR = blk[1].Process(wetR);
 481              		.loc 15 38 30 discriminator 2 view .LVU103
 482 00ac 1A48     		ldr	r0, .L20+20
 483 00ae 9DED030A 		vldr.32	s0, [sp, #12]
  37:ex_verb.cpp   ****         wetR = blk[1].Process(wetR);
 484              		.loc 15 37 14 discriminator 2 view .LVU104
 485 00b2 CDED027A 		vstr.32	s15, [sp, #8]
 486              		.loc 15 38 9 is_stmt 1 discriminator 2 view .LVU105
 487              		.loc 15 38 30 is_stmt 0 discriminator 2 view .LVU106
 488 00b6 FFF7FEFF 		bl	_ZN7daisysp7DcBlock7ProcessEf
 489              	.LVL25:
  39:ex_verb.cpp   **** 
  40:ex_verb.cpp   ****         // Out 1 and 2 are Mixed
  41:ex_verb.cpp   ****         out[0][i] = (dryL * drylevel) + wetL;
 490              		.loc 15 41 39 discriminator 2 view .LVU107
 491 00ba DDED027A 		vldr.32	s15, [sp, #8]
  19:ex_verb.cpp   ****     {
 492              		.loc 15 19 25 discriminator 2 view .LVU108
 493 00be A345     		cmp	fp, r4
 494              		.loc 15 41 27 discriminator 2 view .LVU109
 495 00c0 9AED007A 		vldr.32	s14, [r10]
 496              		.loc 15 41 17 discriminator 2 view .LVU110
 497 00c4 3168     		ldr	r1, [r6]
 498              		.loc 15 41 39 discriminator 2 view .LVU111
 499 00c6 E7EE287A 		vfma.f32	s15, s14, s17
  38:ex_verb.cpp   **** 
 500              		.loc 15 38 14 discriminator 2 view .LVU112
 501 00ca 8DED030A 		vstr.32	s0, [sp, #12]
 502              		.loc 15 41 9 is_stmt 1 discriminator 2 view .LVU113
 503              		.loc 15 41 17 is_stmt 0 discriminator 2 view .LVU114
 504 00ce 2944     		add	r1, r1, r5
  42:ex_verb.cpp   ****         out[1][i] = (dryR * drylevel) + wetR;
  43:ex_verb.cpp   **** 
  44:ex_verb.cpp   ****         // Out 3 and 4 are just wet
  45:ex_verb.cpp   ****         out[2][i] = wetL;
 505              		.loc 15 45 19 discriminator 2 view .LVU115
 506 00d0 D6E90132 		ldrd	r3, r2, [r6, #4]
  42:ex_verb.cpp   ****         out[1][i] = (dryR * drylevel) + wetR;
 507              		.loc 15 42 17 discriminator 2 view .LVU116
 508 00d4 03EB0500 		add	r0, r3, r5
  46:ex_verb.cpp   ****         out[3][i] = wetR;
 509              		.loc 15 46 19 discriminator 2 view .LVU117
 510 00d8 F368     		ldr	r3, [r6, #12]
  41:ex_verb.cpp   ****         out[1][i] = (dryR * drylevel) + wetR;
 511              		.loc 15 41 19 discriminator 2 view .LVU118
 512 00da C1ED007A 		vstr.32	s15, [r1]
  42:ex_verb.cpp   ****         out[1][i] = (dryR * drylevel) + wetR;
 513              		.loc 15 42 9 is_stmt 1 discriminator 2 view .LVU119
  45:ex_verb.cpp   ****         out[3][i] = wetR;
 514              		.loc 15 45 19 is_stmt 0 discriminator 2 view .LVU120
 515 00de 2A44     		add	r2, r2, r5
  42:ex_verb.cpp   **** 
 516              		.loc 15 42 39 discriminator 2 view .LVU121
 517 00e0 DDED037A 		vldr.32	s15, [sp, #12]
 518              		.loc 15 46 19 discriminator 2 view .LVU122
 519 00e4 1D44     		add	r5, r5, r3
ARM GAS  /tmp/ccZhYDze.s 			page 30


  42:ex_verb.cpp   **** 
 520              		.loc 15 42 39 discriminator 2 view .LVU123
 521 00e6 E7EE087A 		vfma.f32	s15, s14, s16
  42:ex_verb.cpp   **** 
 522              		.loc 15 42 19 discriminator 2 view .LVU124
 523 00ea C0ED007A 		vstr.32	s15, [r0]
  45:ex_verb.cpp   ****         out[3][i] = wetR;
 524              		.loc 15 45 9 is_stmt 1 discriminator 2 view .LVU125
  45:ex_verb.cpp   ****         out[3][i] = wetR;
 525              		.loc 15 45 19 is_stmt 0 discriminator 2 view .LVU126
 526 00ee 029B     		ldr	r3, [sp, #8]	@ float
 527 00f0 1360     		str	r3, [r2]	@ float
 528              		.loc 15 46 9 is_stmt 1 discriminator 2 view .LVU127
 529              		.loc 15 46 19 is_stmt 0 discriminator 2 view .LVU128
 530 00f2 039B     		ldr	r3, [sp, #12]	@ float
 531 00f4 2B60     		str	r3, [r5]	@ float
  19:ex_verb.cpp   ****     {
 532              		.loc 15 19 5 is_stmt 1 discriminator 2 view .LVU129
 533              	.LVL26:
  19:ex_verb.cpp   ****     {
 534              		.loc 15 19 25 discriminator 2 view .LVU130
 535 00f6 98D1     		bne	.L14
 536              	.LVL27:
 537              	.L12:
  19:ex_verb.cpp   ****     {
 538              		.loc 15 19 25 is_stmt 0 discriminator 2 view .LVU131
 539              	.LBE622:
  47:ex_verb.cpp   ****     }
  48:ex_verb.cpp   **** }
 540              		.loc 15 48 1 view .LVU132
 541 00f8 07B0     		add	sp, sp, #28
 542              		.cfi_def_cfa_offset 44
 543              		@ sp needed
 544 00fa BDEC028B 		vldm	sp!, {d8}
 545              		.cfi_restore 80
 546              		.cfi_restore 81
 547              		.cfi_def_cfa_offset 36
 548 00fe BDE8F08F 		pop	{r4, r5, r6, r7, r8, r9, r10, fp, pc}
 549              	.LVL28:
 550              	.L21:
 551              		.loc 15 48 1 view .LVU133
 552 0102 00BF     		.align	2
 553              	.L20:
 554 0104 00000000 		.word	_ZL5patch
 555 0108 D7A3703F 		.word	1064346583
 556 010c 00000000 		.word	.LANCHOR2
 557 0110 00000000 		.word	_ZL4verb
 558 0114 00000000 		.word	.LANCHOR3
 559 0118 0C000000 		.word	.LANCHOR3+12
 560 011c 00000000 		.word	.LANCHOR0
 561 0120 00000000 		.word	.LANCHOR1
 562              		.cfi_endproc
 563              	.LFE4233:
 565              		.section	.text._ZN5daisy11OledDisplayINS_13SSD130xDriverILj128ELj64ENS_24SSD130x4WireSpiTransportE
 566              		.align	1
 567              		.p2align 2,,3
 568              		.weak	_ZN5daisy11OledDisplayINS_13SSD130xDriverILj128ELj64ENS_24SSD130x4WireSpiTransportEEEED0Ev
ARM GAS  /tmp/ccZhYDze.s 			page 31


 569              		.syntax unified
 570              		.thumb
 571              		.thumb_func
 572              		.fpu fpv5-d16
 574              	_ZN5daisy11OledDisplayINS_13SSD130xDriverILj128ELj64ENS_24SSD130x4WireSpiTransportEEEED0Ev:
 575              	.LVL29:
 576              	.LFB4552:
  17:../../libdaisy/src/hid/disp/oled_display.h **** 
 577              		.loc 5 17 13 is_stmt 1 view -0
 578              		.cfi_startproc
 579              		@ args = 0, pretend = 0, frame = 0
 580              		@ frame_needed = 0, uses_anonymous_args = 0
  17:../../libdaisy/src/hid/disp/oled_display.h **** 
 581              		.loc 5 17 13 is_stmt 0 view .LVU135
 582 0000 10B5     		push	{r4, lr}
 583              		.cfi_def_cfa_offset 8
 584              		.cfi_offset 4, -8
 585              		.cfi_offset 14, -4
  17:../../libdaisy/src/hid/disp/oled_display.h **** 
 586              		.loc 5 17 13 view .LVU136
 587 0002 0446     		mov	r4, r0
 588              	.LVL30:
 589              	.LBB631:
 590              	.LBI631:
  17:../../libdaisy/src/hid/disp/oled_display.h **** 
 591              		.loc 5 17 13 is_stmt 1 view .LVU137
 592              	.LBB632:
 593              	.LBI632:
 594              		.loc 6 219 13 view .LVU138
 595              	.LBB633:
 596              	.LBI633:
  23:../../libdaisy/src/hid/disp/display.h **** 
 597              		.loc 6 23 13 view .LVU139
  23:../../libdaisy/src/hid/disp/display.h **** 
 598              		.loc 6 23 13 is_stmt 0 view .LVU140
 599              	.LBE633:
 600              	.LBE632:
 601              	.LBE631:
  17:../../libdaisy/src/hid/disp/oled_display.h **** 
 602              		.loc 5 17 29 view .LVU141
 603 0004 40F21441 		movw	r1, #1044
 604 0008 FFF7FEFF 		bl	_ZdlPvj
 605              	.LVL31:
  17:../../libdaisy/src/hid/disp/oled_display.h **** 
 606              		.loc 5 17 29 view .LVU142
 607 000c 2046     		mov	r0, r4
 608 000e 10BD     		pop	{r4, pc}
  17:../../libdaisy/src/hid/disp/oled_display.h **** 
 609              		.loc 5 17 29 view .LVU143
 610              		.cfi_endproc
 611              	.LFE4552:
 613              		.section	.text._ZN5daisy11OledDisplayINS_13SSD130xDriverILj128ELj64ENS_24SSD130x4WireSpiTransportE
 614              		.align	1
 615              		.p2align 2,,3
 616              		.weak	_ZN5daisy11OledDisplayINS_13SSD130xDriverILj128ELj64ENS_24SSD130x4WireSpiTransportEEEE6Updat
 617              		.syntax unified
 618              		.thumb
ARM GAS  /tmp/ccZhYDze.s 			page 32


 619              		.thumb_func
 620              		.fpu fpv5-d16
 622              	_ZN5daisy11OledDisplayINS_13SSD130xDriverILj128ELj64ENS_24SSD130x4WireSpiTransportEEEE6UpdateEv:
 623              	.LVL32:
 624              	.LFB4555:
  34:../../libdaisy/src/hid/disp/oled_display.h **** 
  35:../../libdaisy/src/hid/disp/oled_display.h ****     /**
  36:../../libdaisy/src/hid/disp/oled_display.h ****     Sets the pixel at the specified coordinate to be on/off.
  37:../../libdaisy/src/hid/disp/oled_display.h ****     \param x   x Coordinate
  38:../../libdaisy/src/hid/disp/oled_display.h ****     \param y   y coordinate
  39:../../libdaisy/src/hid/disp/oled_display.h ****     \param on  on or off
  40:../../libdaisy/src/hid/disp/oled_display.h ****     */
  41:../../libdaisy/src/hid/disp/oled_display.h ****     void DrawPixel(uint_fast8_t x, uint_fast8_t y, bool on) override
  42:../../libdaisy/src/hid/disp/oled_display.h ****     {
  43:../../libdaisy/src/hid/disp/oled_display.h ****         driver_.DrawPixel(x, y, on);
  44:../../libdaisy/src/hid/disp/oled_display.h ****     }
  45:../../libdaisy/src/hid/disp/oled_display.h **** 
  46:../../libdaisy/src/hid/disp/oled_display.h ****     /** 
  47:../../libdaisy/src/hid/disp/oled_display.h ****     Writes the current display buffer to the OLED device using SPI or I2C depending on 
  48:../../libdaisy/src/hid/disp/oled_display.h ****     how the object was initialized.
  49:../../libdaisy/src/hid/disp/oled_display.h ****     */
  50:../../libdaisy/src/hid/disp/oled_display.h ****     void Update() override { driver_.Update(); }
 625              		.loc 5 50 10 is_stmt 1 view -0
 626              		.cfi_startproc
 627              		@ args = 0, pretend = 0, frame = 8
 628              		@ frame_needed = 0, uses_anonymous_args = 0
 629              	.LBB644:
 630              	.LBI644:
 254:../../libdaisy/src/dev/oled_ssd130x.h ****         }
 255:../../libdaisy/src/dev/oled_ssd130x.h ****     };
 256:../../libdaisy/src/dev/oled_ssd130x.h **** 
 257:../../libdaisy/src/dev/oled_ssd130x.h ****     /**
 258:../../libdaisy/src/dev/oled_ssd130x.h ****      * Update the display 
 259:../../libdaisy/src/dev/oled_ssd130x.h ****     */
 260:../../libdaisy/src/dev/oled_ssd130x.h ****     void Update()
 631              		.loc 16 260 10 view .LVU145
 632              	.LBB645:
 261:../../libdaisy/src/dev/oled_ssd130x.h ****     {
 262:../../libdaisy/src/dev/oled_ssd130x.h ****         uint8_t i;
 263:../../libdaisy/src/dev/oled_ssd130x.h ****         uint8_t high_column_addr;
 264:../../libdaisy/src/dev/oled_ssd130x.h ****         switch(height)
 265:../../libdaisy/src/dev/oled_ssd130x.h ****         {
 266:../../libdaisy/src/dev/oled_ssd130x.h ****             case 32: high_column_addr = 0x12; break;
 267:../../libdaisy/src/dev/oled_ssd130x.h **** 
 268:../../libdaisy/src/dev/oled_ssd130x.h ****             default: high_column_addr = 0x10; break;
 269:../../libdaisy/src/dev/oled_ssd130x.h ****         }
 270:../../libdaisy/src/dev/oled_ssd130x.h ****         for(i = 0; i < (height / 8); i++)
 633              		.loc 16 270 22 view .LVU146
 634              	.LBE645:
 635              	.LBE644:
 636              		.loc 5 50 10 is_stmt 0 view .LVU147
 637 0000 2DE9F041 		push	{r4, r5, r6, r7, r8, lr}
 638              		.cfi_def_cfa_offset 24
 639              		.cfi_offset 4, -24
 640              		.cfi_offset 5, -20
 641              		.cfi_offset 6, -16
 642              		.cfi_offset 7, -12
ARM GAS  /tmp/ccZhYDze.s 			page 33


 643              		.cfi_offset 8, -8
 644              		.cfi_offset 14, -4
 645 0004 B025     		movs	r5, #176
 646 0006 82B0     		sub	sp, sp, #8
 647              		.cfi_def_cfa_offset 32
 648 0008 00F10807 		add	r7, r0, #8
 649 000c 00F11006 		add	r6, r0, #16
 650 0010 00F11404 		add	r4, r0, #20
 651              	.LVL33:
 652              	.L25:
 653              	.LBB658:
 654              	.LBB657:
 655              	.LBB646:
 656              	.LBB647:
 111:../../libdaisy/src/dev/oled_ssd130x.h ****         spi_.BlockingTransmit(&cmd, 1);
 657              		.loc 16 111 23 view .LVU148
 658 0014 0021     		movs	r1, #0
 659 0016 3046     		mov	r0, r6
 660 0018 8DF80750 		strb	r5, [sp, #7]
 661              	.LVL34:
 111:../../libdaisy/src/dev/oled_ssd130x.h ****         spi_.BlockingTransmit(&cmd, 1);
 662              		.loc 16 111 23 view .LVU149
 663              	.LBE647:
 664              	.LBI646:
 109:../../libdaisy/src/dev/oled_ssd130x.h ****     {
 665              		.loc 16 109 10 is_stmt 1 view .LVU150
 666              	.LBB648:
 111:../../libdaisy/src/dev/oled_ssd130x.h ****         spi_.BlockingTransmit(&cmd, 1);
 667              		.loc 16 111 9 view .LVU151
 668 001c 0135     		adds	r5, r5, #1
 669              	.LVL35:
 111:../../libdaisy/src/dev/oled_ssd130x.h ****         spi_.BlockingTransmit(&cmd, 1);
 670              		.loc 16 111 9 is_stmt 0 view .LVU152
 671 001e 8846     		mov	r8, r1
 111:../../libdaisy/src/dev/oled_ssd130x.h ****         spi_.BlockingTransmit(&cmd, 1);
 672              		.loc 16 111 23 view .LVU153
 673 0020 FFF7FEFF 		bl	dsy_gpio_write
 674              	.LVL36:
 112:../../libdaisy/src/dev/oled_ssd130x.h ****     };
 675              		.loc 16 112 9 is_stmt 1 view .LVU154
 112:../../libdaisy/src/dev/oled_ssd130x.h ****     };
 676              		.loc 16 112 30 is_stmt 0 view .LVU155
 677 0024 6423     		movs	r3, #100
 678 0026 0122     		movs	r2, #1
 679 0028 0DF10701 		add	r1, sp, #7
 680 002c 3846     		mov	r0, r7
 681 002e FFF7FEFF 		bl	_ZN5daisy9SpiHandle16BlockingTransmitEPhjm
 682              	.LVL37:
 112:../../libdaisy/src/dev/oled_ssd130x.h ****     };
 683              		.loc 16 112 30 view .LVU156
 684              	.LBE648:
 685              	.LBE646:
 686              	.LBB649:
 687              	.LBB650:
 111:../../libdaisy/src/dev/oled_ssd130x.h ****         spi_.BlockingTransmit(&cmd, 1);
 688              		.loc 16 111 23 view .LVU157
 689 0032 4146     		mov	r1, r8
ARM GAS  /tmp/ccZhYDze.s 			page 34


 690 0034 3046     		mov	r0, r6
 691 0036 8DF80780 		strb	r8, [sp, #7]
 692              	.LVL38:
 111:../../libdaisy/src/dev/oled_ssd130x.h ****         spi_.BlockingTransmit(&cmd, 1);
 693              		.loc 16 111 23 view .LVU158
 694              	.LBE650:
 695              	.LBI649:
 109:../../libdaisy/src/dev/oled_ssd130x.h ****     {
 696              		.loc 16 109 10 is_stmt 1 view .LVU159
 697              	.LBB651:
 111:../../libdaisy/src/dev/oled_ssd130x.h ****         spi_.BlockingTransmit(&cmd, 1);
 698              		.loc 16 111 9 view .LVU160
 111:../../libdaisy/src/dev/oled_ssd130x.h ****         spi_.BlockingTransmit(&cmd, 1);
 699              		.loc 16 111 23 is_stmt 0 view .LVU161
 700 003a FFF7FEFF 		bl	dsy_gpio_write
 701              	.LVL39:
 112:../../libdaisy/src/dev/oled_ssd130x.h ****     };
 702              		.loc 16 112 9 is_stmt 1 view .LVU162
 112:../../libdaisy/src/dev/oled_ssd130x.h ****     };
 703              		.loc 16 112 30 is_stmt 0 view .LVU163
 704 003e 0122     		movs	r2, #1
 705 0040 6423     		movs	r3, #100
 706 0042 0DF10701 		add	r1, sp, #7
 707 0046 3846     		mov	r0, r7
 708 0048 EDB2     		uxtb	r5, r5
 709 004a FFF7FEFF 		bl	_ZN5daisy9SpiHandle16BlockingTransmitEPhjm
 710              	.LVL40:
 112:../../libdaisy/src/dev/oled_ssd130x.h ****     };
 711              		.loc 16 112 30 view .LVU164
 712 004e 1023     		movs	r3, #16
 713              	.LBE651:
 714              	.LBE649:
 715              	.LBB652:
 716              	.LBB653:
 111:../../libdaisy/src/dev/oled_ssd130x.h ****         spi_.BlockingTransmit(&cmd, 1);
 717              		.loc 16 111 23 view .LVU165
 718 0050 4146     		mov	r1, r8
 719 0052 3046     		mov	r0, r6
 720 0054 8DF80730 		strb	r3, [sp, #7]
 721              	.LVL41:
 111:../../libdaisy/src/dev/oled_ssd130x.h ****         spi_.BlockingTransmit(&cmd, 1);
 722              		.loc 16 111 23 view .LVU166
 723              	.LBE653:
 724              	.LBI652:
 109:../../libdaisy/src/dev/oled_ssd130x.h ****     {
 725              		.loc 16 109 10 is_stmt 1 view .LVU167
 726              	.LBB654:
 111:../../libdaisy/src/dev/oled_ssd130x.h ****         spi_.BlockingTransmit(&cmd, 1);
 727              		.loc 16 111 9 view .LVU168
 111:../../libdaisy/src/dev/oled_ssd130x.h ****         spi_.BlockingTransmit(&cmd, 1);
 728              		.loc 16 111 23 is_stmt 0 view .LVU169
 729 0058 FFF7FEFF 		bl	dsy_gpio_write
 730              	.LVL42:
 112:../../libdaisy/src/dev/oled_ssd130x.h ****     };
 731              		.loc 16 112 9 is_stmt 1 view .LVU170
 112:../../libdaisy/src/dev/oled_ssd130x.h ****     };
 732              		.loc 16 112 30 is_stmt 0 view .LVU171
ARM GAS  /tmp/ccZhYDze.s 			page 35


 733 005c 6423     		movs	r3, #100
 734 005e 0122     		movs	r2, #1
 735 0060 0DF10701 		add	r1, sp, #7
 736 0064 3846     		mov	r0, r7
 737 0066 FFF7FEFF 		bl	_ZN5daisy9SpiHandle16BlockingTransmitEPhjm
 738              	.LVL43:
 112:../../libdaisy/src/dev/oled_ssd130x.h ****     };
 739              		.loc 16 112 30 view .LVU172
 740              	.LBE654:
 741              	.LBE652:
 742              	.LBB655:
 743              	.LBI655:
 115:../../libdaisy/src/dev/oled_ssd130x.h ****     {
 744              		.loc 16 115 10 is_stmt 1 view .LVU173
 745              	.LBB656:
 117:../../libdaisy/src/dev/oled_ssd130x.h ****         spi_.BlockingTransmit(buff, size);
 746              		.loc 16 117 9 view .LVU174
 117:../../libdaisy/src/dev/oled_ssd130x.h ****         spi_.BlockingTransmit(buff, size);
 747              		.loc 16 117 23 is_stmt 0 view .LVU175
 748 006a 0121     		movs	r1, #1
 749 006c 3046     		mov	r0, r6
 750 006e FFF7FEFF 		bl	dsy_gpio_write
 751              	.LVL44:
 118:../../libdaisy/src/dev/oled_ssd130x.h ****     };
 752              		.loc 16 118 9 is_stmt 1 view .LVU176
 118:../../libdaisy/src/dev/oled_ssd130x.h ****     };
 753              		.loc 16 118 30 is_stmt 0 view .LVU177
 754 0072 8022     		movs	r2, #128
 755 0074 2146     		mov	r1, r4
 756 0076 6423     		movs	r3, #100
 757 0078 3846     		mov	r0, r7
 758 007a 1444     		add	r4, r4, r2
 759              	.LVL45:
 118:../../libdaisy/src/dev/oled_ssd130x.h ****     };
 760              		.loc 16 118 30 view .LVU178
 761 007c FFF7FEFF 		bl	_ZN5daisy9SpiHandle16BlockingTransmitEPhjm
 762              	.LVL46:
 118:../../libdaisy/src/dev/oled_ssd130x.h ****     };
 763              		.loc 16 118 30 view .LVU179
 764              	.LBE656:
 765              	.LBE655:
 766              		.loc 16 270 9 is_stmt 1 view .LVU180
 767              		.loc 16 270 22 view .LVU181
 768 0080 B82D     		cmp	r5, #184
 769 0082 C7D1     		bne	.L25
 770              	.LBE657:
 771              	.LBE658:
 772              		.loc 5 50 48 is_stmt 0 view .LVU182
 773 0084 02B0     		add	sp, sp, #8
 774              		.cfi_def_cfa_offset 24
 775              		@ sp needed
 776 0086 BDE8F081 		pop	{r4, r5, r6, r7, r8, pc}
 777              		.loc 5 50 48 view .LVU183
 778              		.cfi_endproc
 779              	.LFE4555:
 781 008a 00BF     		.section	.text._ZN5daisy25OneBitGraphicsDisplayImplINS_11OledDisplayINS_13SSD130xDriverILj128ELj64
 782              		.align	1
ARM GAS  /tmp/ccZhYDze.s 			page 36


 783              		.p2align 2,,3
 784              		.weak	_ZN5daisy25OneBitGraphicsDisplayImplINS_11OledDisplayINS_13SSD130xDriverILj128ELj64ENS_24SSD
 785              		.syntax unified
 786              		.thumb
 787              		.thumb_func
 788              		.fpu fpv5-d16
 790              	_ZN5daisy25OneBitGraphicsDisplayImplINS_11OledDisplayINS_13SSD130xDriverILj128ELj64ENS_24SSD130x4Wi
 791              	.LVL47:
 792              	.LFB4554:
 220:../../libdaisy/src/hid/disp/display.h **** 
 221:../../libdaisy/src/hid/disp/display.h ****     void DrawLine(uint_fast8_t x1,
 222:../../libdaisy/src/hid/disp/display.h ****                   uint_fast8_t y1,
 223:../../libdaisy/src/hid/disp/display.h ****                   uint_fast8_t x2,
 224:../../libdaisy/src/hid/disp/display.h ****                   uint_fast8_t y2,
 225:../../libdaisy/src/hid/disp/display.h ****                   bool         on) override
 226:../../libdaisy/src/hid/disp/display.h ****     {
 227:../../libdaisy/src/hid/disp/display.h ****         int_fast16_t deltaX = abs((int_fast16_t)x2 - (int_fast16_t)x1);
 228:../../libdaisy/src/hid/disp/display.h ****         int_fast16_t deltaY = abs((int_fast16_t)y2 - (int_fast16_t)y1);
 229:../../libdaisy/src/hid/disp/display.h ****         int_fast16_t signX  = ((x1 < x2) ? 1 : -1);
 230:../../libdaisy/src/hid/disp/display.h ****         int_fast16_t signY  = ((y1 < y2) ? 1 : -1);
 231:../../libdaisy/src/hid/disp/display.h ****         int_fast16_t error  = deltaX - deltaY;
 232:../../libdaisy/src/hid/disp/display.h ****         int_fast16_t error2;
 233:../../libdaisy/src/hid/disp/display.h **** 
 234:../../libdaisy/src/hid/disp/display.h ****         // If we write "ChildType::DrawPixel(x2, y2, on);", we end up with
 235:../../libdaisy/src/hid/disp/display.h ****         // all sorts of weird compiler errors when the Child class is a template
 236:../../libdaisy/src/hid/disp/display.h ****         // class. The only way around this is to use this very verbose syntax:
 237:../../libdaisy/src/hid/disp/display.h ****         ((ChildType*)(this))->ChildType::DrawPixel(x2, y2, on);
 238:../../libdaisy/src/hid/disp/display.h **** 
 239:../../libdaisy/src/hid/disp/display.h ****         while((x1 != x2) || (y1 != y2))
 240:../../libdaisy/src/hid/disp/display.h ****         {
 241:../../libdaisy/src/hid/disp/display.h ****             ((ChildType*)(this))->ChildType::DrawPixel(x1, y1, on);
 242:../../libdaisy/src/hid/disp/display.h ****             error2 = error * 2;
 243:../../libdaisy/src/hid/disp/display.h ****             if(error2 > -deltaY)
 244:../../libdaisy/src/hid/disp/display.h ****             {
 245:../../libdaisy/src/hid/disp/display.h ****                 error -= deltaY;
 246:../../libdaisy/src/hid/disp/display.h ****                 x1 += signX;
 247:../../libdaisy/src/hid/disp/display.h ****             }
 248:../../libdaisy/src/hid/disp/display.h **** 
 249:../../libdaisy/src/hid/disp/display.h ****             if(error2 < deltaX)
 250:../../libdaisy/src/hid/disp/display.h ****             {
 251:../../libdaisy/src/hid/disp/display.h ****                 error += deltaX;
 252:../../libdaisy/src/hid/disp/display.h ****                 y1 += signY;
 253:../../libdaisy/src/hid/disp/display.h ****             }
 254:../../libdaisy/src/hid/disp/display.h ****         }
 255:../../libdaisy/src/hid/disp/display.h ****     }
 256:../../libdaisy/src/hid/disp/display.h **** 
 257:../../libdaisy/src/hid/disp/display.h ****     void DrawRect(uint_fast8_t x1,
 258:../../libdaisy/src/hid/disp/display.h ****                   uint_fast8_t y1,
 259:../../libdaisy/src/hid/disp/display.h ****                   uint_fast8_t x2,
 260:../../libdaisy/src/hid/disp/display.h ****                   uint_fast8_t y2,
 261:../../libdaisy/src/hid/disp/display.h ****                   bool         on,
 262:../../libdaisy/src/hid/disp/display.h ****                   bool         fill = false) override
 263:../../libdaisy/src/hid/disp/display.h ****     {
 264:../../libdaisy/src/hid/disp/display.h ****         if(fill)
 265:../../libdaisy/src/hid/disp/display.h ****         {
 266:../../libdaisy/src/hid/disp/display.h ****             for(uint_fast8_t x = x1; x <= x2; x++)
 267:../../libdaisy/src/hid/disp/display.h ****             {
ARM GAS  /tmp/ccZhYDze.s 			page 37


 268:../../libdaisy/src/hid/disp/display.h ****                 for(uint_fast8_t y = y1; y <= y2; y++)
 269:../../libdaisy/src/hid/disp/display.h ****                 {
 270:../../libdaisy/src/hid/disp/display.h ****                     ((ChildType*)(this))->ChildType::DrawPixel(x, y, on);
 271:../../libdaisy/src/hid/disp/display.h ****                 }
 272:../../libdaisy/src/hid/disp/display.h ****             }
 273:../../libdaisy/src/hid/disp/display.h ****         }
 274:../../libdaisy/src/hid/disp/display.h ****         else
 275:../../libdaisy/src/hid/disp/display.h ****         {
 276:../../libdaisy/src/hid/disp/display.h ****             ((ChildType*)(this))->ChildType::DrawLine(x1, y1, x2, y1, on);
 277:../../libdaisy/src/hid/disp/display.h ****             ((ChildType*)(this))->ChildType::DrawLine(x2, y1, x2, y2, on);
 278:../../libdaisy/src/hid/disp/display.h ****             ((ChildType*)(this))->ChildType::DrawLine(x2, y2, x1, y2, on);
 279:../../libdaisy/src/hid/disp/display.h ****             ((ChildType*)(this))->ChildType::DrawLine(x1, y2, x1, y1, on);
 280:../../libdaisy/src/hid/disp/display.h ****         }
 281:../../libdaisy/src/hid/disp/display.h ****     }
 282:../../libdaisy/src/hid/disp/display.h **** 
 283:../../libdaisy/src/hid/disp/display.h ****     void DrawArc(uint_fast8_t x,
 284:../../libdaisy/src/hid/disp/display.h ****                  uint_fast8_t y,
 285:../../libdaisy/src/hid/disp/display.h ****                  uint_fast8_t radius,
 286:../../libdaisy/src/hid/disp/display.h ****                  int_fast16_t start_angle,
 287:../../libdaisy/src/hid/disp/display.h ****                  int_fast16_t sweep,
 288:../../libdaisy/src/hid/disp/display.h ****                  bool         on) override
 289:../../libdaisy/src/hid/disp/display.h ****     {
 290:../../libdaisy/src/hid/disp/display.h ****         // Values to calculate the circle
 291:../../libdaisy/src/hid/disp/display.h ****         int_fast16_t t_x, t_y, err, e2;
 292:../../libdaisy/src/hid/disp/display.h **** 
 293:../../libdaisy/src/hid/disp/display.h ****         // Temporary values to speed up comparisons
 294:../../libdaisy/src/hid/disp/display.h ****         float t_sxy, t_syx, t_sxny, t_synx;
 295:../../libdaisy/src/hid/disp/display.h ****         float t_exy, t_eyx, t_exny, t_eynx;
 296:../../libdaisy/src/hid/disp/display.h **** 
 297:../../libdaisy/src/hid/disp/display.h ****         float start_angle_rad, end_angle_rad;
 298:../../libdaisy/src/hid/disp/display.h ****         float start_x, start_y, end_x, end_y;
 299:../../libdaisy/src/hid/disp/display.h **** 
 300:../../libdaisy/src/hid/disp/display.h ****         bool d1, d2, d3, d4;
 301:../../libdaisy/src/hid/disp/display.h **** 
 302:../../libdaisy/src/hid/disp/display.h ****         d1 = d2 = d3 = d4 = true;
 303:../../libdaisy/src/hid/disp/display.h **** 
 304:../../libdaisy/src/hid/disp/display.h ****         bool circle = false;
 305:../../libdaisy/src/hid/disp/display.h **** 
 306:../../libdaisy/src/hid/disp/display.h ****         if(sweep < 0)
 307:../../libdaisy/src/hid/disp/display.h ****         {
 308:../../libdaisy/src/hid/disp/display.h ****             start_angle += sweep;
 309:../../libdaisy/src/hid/disp/display.h ****             sweep = -sweep;
 310:../../libdaisy/src/hid/disp/display.h ****         }
 311:../../libdaisy/src/hid/disp/display.h **** 
 312:../../libdaisy/src/hid/disp/display.h ****         start_angle_rad = deg2rad(start_angle);
 313:../../libdaisy/src/hid/disp/display.h ****         end_angle_rad   = deg2rad(start_angle + sweep);
 314:../../libdaisy/src/hid/disp/display.h **** 
 315:../../libdaisy/src/hid/disp/display.h ****         start_x = cos(start_angle_rad) * radius;
 316:../../libdaisy/src/hid/disp/display.h ****         start_y = -sin(start_angle_rad) * radius;
 317:../../libdaisy/src/hid/disp/display.h ****         end_x   = cos(end_angle_rad) * radius;
 318:../../libdaisy/src/hid/disp/display.h ****         end_y   = -sin(end_angle_rad) * radius;
 319:../../libdaisy/src/hid/disp/display.h **** 
 320:../../libdaisy/src/hid/disp/display.h ****         // Check if start and endpoint are very near
 321:../../libdaisy/src/hid/disp/display.h ****         if((end_x - start_x) * (end_x - start_x)
 322:../../libdaisy/src/hid/disp/display.h ****                + (end_y - start_y) * (end_y - start_y)
 323:../../libdaisy/src/hid/disp/display.h ****            < 2.0f)
 324:../../libdaisy/src/hid/disp/display.h ****         {
ARM GAS  /tmp/ccZhYDze.s 			page 38


 325:../../libdaisy/src/hid/disp/display.h ****             if(sweep > 180)
 326:../../libdaisy/src/hid/disp/display.h ****                 circle = true;
 327:../../libdaisy/src/hid/disp/display.h ****             else
 328:../../libdaisy/src/hid/disp/display.h ****                 // Nothing to draw
 329:../../libdaisy/src/hid/disp/display.h ****                 return;
 330:../../libdaisy/src/hid/disp/display.h ****         }
 331:../../libdaisy/src/hid/disp/display.h **** 
 332:../../libdaisy/src/hid/disp/display.h ****         t_x = -radius;
 333:../../libdaisy/src/hid/disp/display.h ****         t_y = 0;
 334:../../libdaisy/src/hid/disp/display.h ****         err = 2 - 2 * radius;
 335:../../libdaisy/src/hid/disp/display.h **** 
 336:../../libdaisy/src/hid/disp/display.h ****         do
 337:../../libdaisy/src/hid/disp/display.h ****         {
 338:../../libdaisy/src/hid/disp/display.h ****             if(!circle)
 339:../../libdaisy/src/hid/disp/display.h ****             {
 340:../../libdaisy/src/hid/disp/display.h ****                 t_sxy  = start_x * t_y;
 341:../../libdaisy/src/hid/disp/display.h ****                 t_syx  = start_y * t_x;
 342:../../libdaisy/src/hid/disp/display.h ****                 t_sxny = start_x * -t_y;
 343:../../libdaisy/src/hid/disp/display.h ****                 t_synx = start_y * -t_x;
 344:../../libdaisy/src/hid/disp/display.h ****                 t_exy  = end_x * t_y;
 345:../../libdaisy/src/hid/disp/display.h ****                 t_eyx  = end_y * t_x;
 346:../../libdaisy/src/hid/disp/display.h ****                 t_exny = end_x * -t_y;
 347:../../libdaisy/src/hid/disp/display.h ****                 t_eynx = end_y * -t_x;
 348:../../libdaisy/src/hid/disp/display.h **** 
 349:../../libdaisy/src/hid/disp/display.h ****                 if(sweep > 180)
 350:../../libdaisy/src/hid/disp/display.h ****                 {
 351:../../libdaisy/src/hid/disp/display.h ****                     d1 = (t_sxy - t_synx < 0 || t_exy - t_eynx > 0);
 352:../../libdaisy/src/hid/disp/display.h ****                     d2 = (t_sxy - t_syx < 0 || t_exy - t_eyx > 0);
 353:../../libdaisy/src/hid/disp/display.h ****                     d3 = (t_sxny - t_syx < 0 || t_exny - t_eyx > 0);
 354:../../libdaisy/src/hid/disp/display.h ****                     d4 = (t_sxny - t_synx < 0 || t_exny - t_eynx > 0);
 355:../../libdaisy/src/hid/disp/display.h ****                 }
 356:../../libdaisy/src/hid/disp/display.h ****                 else
 357:../../libdaisy/src/hid/disp/display.h ****                 {
 358:../../libdaisy/src/hid/disp/display.h ****                     d1 = (t_sxy - t_synx < 0 && t_exy - t_eynx > 0);
 359:../../libdaisy/src/hid/disp/display.h ****                     d2 = (t_sxy - t_syx < 0 && t_exy - t_eyx > 0);
 360:../../libdaisy/src/hid/disp/display.h ****                     d3 = (t_sxny - t_syx < 0 && t_exny - t_eyx > 0);
 361:../../libdaisy/src/hid/disp/display.h ****                     d4 = (t_sxny - t_synx < 0 && t_exny - t_eynx > 0);
 362:../../libdaisy/src/hid/disp/display.h ****                 }
 363:../../libdaisy/src/hid/disp/display.h ****             }
 364:../../libdaisy/src/hid/disp/display.h **** 
 365:../../libdaisy/src/hid/disp/display.h ****             if(d1)
 366:../../libdaisy/src/hid/disp/display.h ****                 ((ChildType*)(this))
 367:../../libdaisy/src/hid/disp/display.h ****                     ->ChildType::DrawPixel(x - t_x, y + t_y, on);
 368:../../libdaisy/src/hid/disp/display.h ****             if(d2)
 369:../../libdaisy/src/hid/disp/display.h ****                 ((ChildType*)(this))
 370:../../libdaisy/src/hid/disp/display.h ****                     ->ChildType::DrawPixel(x + t_x, y + t_y, on);
 371:../../libdaisy/src/hid/disp/display.h ****             if(d3)
 372:../../libdaisy/src/hid/disp/display.h ****                 ((ChildType*)(this))
 373:../../libdaisy/src/hid/disp/display.h ****                     ->ChildType::DrawPixel(x + t_x, y - t_y, on);
 374:../../libdaisy/src/hid/disp/display.h ****             if(d4)
 375:../../libdaisy/src/hid/disp/display.h ****                 ((ChildType*)(this))
 376:../../libdaisy/src/hid/disp/display.h ****                     ->ChildType::DrawPixel(x - t_x, y - t_y, on);
 377:../../libdaisy/src/hid/disp/display.h **** 
 378:../../libdaisy/src/hid/disp/display.h ****             e2 = err;
 379:../../libdaisy/src/hid/disp/display.h ****             if(e2 <= t_y)
 380:../../libdaisy/src/hid/disp/display.h ****             {
 381:../../libdaisy/src/hid/disp/display.h ****                 t_y++;
ARM GAS  /tmp/ccZhYDze.s 			page 39


 382:../../libdaisy/src/hid/disp/display.h ****                 err = err + (t_y * 2 + 1);
 383:../../libdaisy/src/hid/disp/display.h ****                 if(-t_x == t_y && e2 <= t_x)
 384:../../libdaisy/src/hid/disp/display.h ****                 {
 385:../../libdaisy/src/hid/disp/display.h ****                     e2 = 0;
 386:../../libdaisy/src/hid/disp/display.h ****                 }
 387:../../libdaisy/src/hid/disp/display.h ****             }
 388:../../libdaisy/src/hid/disp/display.h ****             if(e2 > t_x)
 389:../../libdaisy/src/hid/disp/display.h ****             {
 390:../../libdaisy/src/hid/disp/display.h ****                 t_x++;
 391:../../libdaisy/src/hid/disp/display.h ****                 err = err + (t_x * 2 + 1);
 392:../../libdaisy/src/hid/disp/display.h ****             }
 393:../../libdaisy/src/hid/disp/display.h ****         } while(t_x <= 0);
 394:../../libdaisy/src/hid/disp/display.h ****     }
 395:../../libdaisy/src/hid/disp/display.h **** 
 396:../../libdaisy/src/hid/disp/display.h ****     char WriteChar(char ch, FontDef font, bool on) override
 397:../../libdaisy/src/hid/disp/display.h ****     {
 398:../../libdaisy/src/hid/disp/display.h ****         uint32_t i, b, j;
 399:../../libdaisy/src/hid/disp/display.h **** 
 400:../../libdaisy/src/hid/disp/display.h ****         // Check if character is valid
 401:../../libdaisy/src/hid/disp/display.h ****         if(ch < 32 || ch > 126)
 402:../../libdaisy/src/hid/disp/display.h ****             return 0;
 403:../../libdaisy/src/hid/disp/display.h **** 
 404:../../libdaisy/src/hid/disp/display.h ****         // Check remaining space on current line
 405:../../libdaisy/src/hid/disp/display.h ****         if(Width() < (currentX_ + font.FontWidth)
 406:../../libdaisy/src/hid/disp/display.h ****            || Height() < (currentY_ + font.FontHeight))
 407:../../libdaisy/src/hid/disp/display.h ****         {
 408:../../libdaisy/src/hid/disp/display.h ****             // Not enough space on current line
 409:../../libdaisy/src/hid/disp/display.h ****             return 0;
 410:../../libdaisy/src/hid/disp/display.h ****         }
 411:../../libdaisy/src/hid/disp/display.h **** 
 412:../../libdaisy/src/hid/disp/display.h ****         // Use the font to write
 413:../../libdaisy/src/hid/disp/display.h ****         for(i = 0; i < font.FontHeight; i++)
 414:../../libdaisy/src/hid/disp/display.h ****         {
 415:../../libdaisy/src/hid/disp/display.h ****             b = font.data[(ch - 32) * font.FontHeight + i];
 416:../../libdaisy/src/hid/disp/display.h ****             for(j = 0; j < font.FontWidth; j++)
 417:../../libdaisy/src/hid/disp/display.h ****             {
 418:../../libdaisy/src/hid/disp/display.h ****                 if((b << j) & 0x8000)
 419:../../libdaisy/src/hid/disp/display.h ****                 {
 420:../../libdaisy/src/hid/disp/display.h ****                     ((ChildType*)(this))
 421:../../libdaisy/src/hid/disp/display.h ****                         ->ChildType::DrawPixel(
 422:../../libdaisy/src/hid/disp/display.h ****                             currentX_ + j, (currentY_ + i), on);
 423:../../libdaisy/src/hid/disp/display.h ****                 }
 424:../../libdaisy/src/hid/disp/display.h ****                 else
 425:../../libdaisy/src/hid/disp/display.h ****                 {
 426:../../libdaisy/src/hid/disp/display.h ****                     ((ChildType*)(this))
 427:../../libdaisy/src/hid/disp/display.h ****                         ->ChildType::DrawPixel(
 428:../../libdaisy/src/hid/disp/display.h ****                             currentX_ + j, (currentY_ + i), !on);
 429:../../libdaisy/src/hid/disp/display.h ****                 }
 430:../../libdaisy/src/hid/disp/display.h ****             }
 431:../../libdaisy/src/hid/disp/display.h ****         }
 432:../../libdaisy/src/hid/disp/display.h **** 
 433:../../libdaisy/src/hid/disp/display.h ****         // The current space is now taken
 434:../../libdaisy/src/hid/disp/display.h ****         SetCursor(currentX_ + font.FontWidth, currentY_);
 435:../../libdaisy/src/hid/disp/display.h **** 
 436:../../libdaisy/src/hid/disp/display.h ****         // Return written char for validation
 437:../../libdaisy/src/hid/disp/display.h ****         return ch;
 438:../../libdaisy/src/hid/disp/display.h ****     }
ARM GAS  /tmp/ccZhYDze.s 			page 40


 439:../../libdaisy/src/hid/disp/display.h **** 
 440:../../libdaisy/src/hid/disp/display.h ****     char WriteString(const char* str, FontDef font, bool on) override
 793              		.loc 6 440 10 is_stmt 1 view -0
 794              		.cfi_startproc
 795              		@ args = 4, pretend = 0, frame = 32
 796              		@ frame_needed = 0, uses_anonymous_args = 0
 797              		.loc 6 440 10 is_stmt 0 view .LVU185
 798 0000 2DE9F04F 		push	{r4, r5, r6, r7, r8, r9, r10, fp, lr}
 799              		.cfi_def_cfa_offset 36
 800              		.cfi_offset 4, -36
 801              		.cfi_offset 5, -32
 802              		.cfi_offset 6, -28
 803              		.cfi_offset 7, -24
 804              		.cfi_offset 8, -20
 805              		.cfi_offset 9, -16
 806              		.cfi_offset 10, -12
 807              		.cfi_offset 11, -8
 808              		.cfi_offset 14, -4
 809 0004 89B0     		sub	sp, sp, #36
 810              		.cfi_def_cfa_offset 72
 811              		.loc 6 440 10 view .LVU186
 812 0006 8B46     		mov	fp, r1
 441:../../libdaisy/src/hid/disp/display.h ****     {
 442:../../libdaisy/src/hid/disp/display.h ****         // Write until null-byte
 443:../../libdaisy/src/hid/disp/display.h ****         while(*str)
 813              		.loc 6 443 9 is_stmt 1 view .LVU187
 814 0008 91F80090 		ldrb	r9, [r1]	@ zero_extendqisi2
 440:../../libdaisy/src/hid/disp/display.h ****     {
 815              		.loc 6 440 10 is_stmt 0 view .LVU188
 816 000c 9DF84840 		ldrb	r4, [sp, #72]	@ zero_extendqisi2
 817 0010 08A9     		add	r1, sp, #32
 818              	.LVL48:
 440:../../libdaisy/src/hid/disp/display.h ****     {
 819              		.loc 6 440 10 view .LVU189
 820 0012 0494     		str	r4, [sp, #16]
 821 0014 01E90C00 		stmdb	r1, {r2, r3}
 822              		.loc 6 443 9 view .LVU190
 823 0018 B9F1000F 		cmp	r9, #0
 824 001c 00F0B780 		beq	.L52
 825 0020 9DF81930 		ldrb	r3, [sp, #25]	@ zero_extendqisi2
 826 0024 8046     		mov	r8, r0
 827 0026 9DF818A0 		ldrb	r10, [sp, #24]	@ zero_extendqisi2
 828 002a 4D46     		mov	r5, r9
 829 002c 0193     		str	r3, [sp, #4]
 830 002e 079B     		ldr	r3, [sp, #28]
 831 0030 0593     		str	r3, [sp, #20]
 832              	.LVL49:
 833              	.L53:
 834              	.LBB687:
 835              	.LBI687:
 396:../../libdaisy/src/hid/disp/display.h ****     {
 836              		.loc 6 396 10 is_stmt 1 view .LVU191
 837              	.LBB688:
 401:../../libdaisy/src/hid/disp/display.h ****             return 0;
 838              		.loc 6 401 20 is_stmt 0 view .LVU192
 839 0032 A5F12004 		sub	r4, r5, #32
 401:../../libdaisy/src/hid/disp/display.h ****             return 0;
ARM GAS  /tmp/ccZhYDze.s 			page 41


 840              		.loc 6 401 9 view .LVU193
 841 0036 E3B2     		uxtb	r3, r4
 842 0038 5E2B     		cmp	r3, #94
 843 003a 00F2AC80 		bhi	.L34
 405:../../libdaisy/src/hid/disp/display.h ****            || Height() < (currentY_ + font.FontHeight))
 844              		.loc 6 405 17 view .LVU194
 845 003e D8F80030 		ldr	r3, [r8]
 846 0042 654A     		ldr	r2, .L74
 847 0044 DB68     		ldr	r3, [r3, #12]
 848 0046 9342     		cmp	r3, r2
 849 0048 40F0A780 		bne	.L67
 850 004c 8020     		movs	r0, #128
 851              	.L33:
 405:../../libdaisy/src/hid/disp/display.h ****            || Height() < (currentY_ + font.FontHeight))
 852              		.loc 6 405 23 view .LVU195
 853 004e B8F80430 		ldrh	r3, [r8, #4]
 405:../../libdaisy/src/hid/disp/display.h ****            || Height() < (currentY_ + font.FontHeight))
 854              		.loc 6 405 33 view .LVU196
 855 0052 5344     		add	r3, r3, r10
 406:../../libdaisy/src/hid/disp/display.h ****         {
 856              		.loc 6 406 12 view .LVU197
 857 0054 8342     		cmp	r3, r0
 858 0056 00F39E80 		bgt	.L34
 406:../../libdaisy/src/hid/disp/display.h ****         {
 859              		.loc 6 406 21 view .LVU198
 860 005a D8F80030 		ldr	r3, [r8]
 861 005e 5F4A     		ldr	r2, .L74+4
 862 0060 9B68     		ldr	r3, [r3, #8]
 863 0062 9342     		cmp	r3, r2
 864 0064 40F09C80 		bne	.L68
 865 0068 4020     		movs	r0, #64
 866              	.L35:
 406:../../libdaisy/src/hid/disp/display.h ****         {
 867              		.loc 6 406 27 view .LVU199
 868 006a B8F80610 		ldrh	r1, [r8, #6]
 406:../../libdaisy/src/hid/disp/display.h ****         {
 869              		.loc 6 406 37 view .LVU200
 870 006e 019A     		ldr	r2, [sp, #4]
 406:../../libdaisy/src/hid/disp/display.h ****         {
 871              		.loc 6 406 27 view .LVU201
 872 0070 0091     		str	r1, [sp]
 406:../../libdaisy/src/hid/disp/display.h ****         {
 873              		.loc 6 406 37 view .LVU202
 874 0072 8B18     		adds	r3, r1, r2
 406:../../libdaisy/src/hid/disp/display.h ****         {
 875              		.loc 6 406 12 view .LVU203
 876 0074 8342     		cmp	r3, r0
 877 0076 00F38E80 		bgt	.L34
 878              	.LVL50:
 413:../../libdaisy/src/hid/disp/display.h ****         {
 879              		.loc 6 413 22 is_stmt 1 view .LVU204
 880 007a 1046     		mov	r0, r2
 881 007c 002A     		cmp	r2, #0
 882 007e 00F09A80 		beq	.L36
 415:../../libdaisy/src/hid/disp/display.h ****             for(j = 0; j < font.FontWidth; j++)
 883              		.loc 6 415 37 is_stmt 0 view .LVU205
 884 0082 1346     		mov	r3, r2
ARM GAS  /tmp/ccZhYDze.s 			page 42


 885 0084 6FF00046 		mvn	r6, #-2147483648
 886 0088 B8F80470 		ldrh	r7, [r8, #4]
 887 008c 03FB04F3 		mul	r3, r3, r4
 888 0090 059C     		ldr	r4, [sp, #20]
 889 0092 BE46     		mov	lr, r7
 890 0094 CDF80CB0 		str	fp, [sp, #12]
 891 0098 1E44     		add	r6, r6, r3
 892 009a A21E     		subs	r2, r4, #2
 893 009c 0344     		add	r3, r3, r0
 894 009e 5746     		mov	r7, r10
 895 00a0 04EB4606 		add	r6, r4, r6, lsl #1
 896 00a4 DDF81090 		ldr	r9, [sp, #16]
 897 00a8 02EB4303 		add	r3, r2, r3, lsl #1
 898 00ac 0295     		str	r5, [sp, #8]
 899 00ae 9B46     		mov	fp, r3
 900              	.LVL51:
 901              	.L39:
 415:../../libdaisy/src/hid/disp/display.h ****             for(j = 0; j < font.FontWidth; j++)
 902              		.loc 6 415 13 view .LVU206
 903 00b0 36F802AF 		ldrh	r10, [r6, #2]!
 904              	.LVL52:
 416:../../libdaisy/src/hid/disp/display.h ****             {
 905              		.loc 6 416 26 is_stmt 1 view .LVU207
 906 00b4 A7B3     		cbz	r7, .L44
 907              	.LBB689:
 908              	.LBB690:
 909              	.LBB691:
 910              	.LBB692:
 911              	.LBB693:
 246:../../libdaisy/src/dev/oled_ssd130x.h ****     }
 912              		.loc 16 246 49 is_stmt 0 view .LVU208
 913 00b6 0124     		movs	r4, #1
 246:../../libdaisy/src/dev/oled_ssd130x.h ****     }
 914              		.loc 16 246 55 view .LVU209
 915 00b8 01F00702 		and	r2, r1, #7
 246:../../libdaisy/src/dev/oled_ssd130x.h ****     }
 916              		.loc 16 246 28 view .LVU210
 917 00bc C808     		lsrs	r0, r1, #3
 918 00be 0EF11403 		add	r3, lr, #20
 246:../../libdaisy/src/dev/oled_ssd130x.h ****     }
 919              		.loc 16 246 49 view .LVU211
 920 00c2 04FA02F2 		lsl	r2, r4, r2
 921 00c6 7446     		mov	r4, lr
 922 00c8 03EBC013 		add	r3, r3, r0, lsl #7
 923              	.LBE693:
 924              	.LBE692:
 925              	.LBE691:
 926              	.LBE690:
 927              	.LBE689:
 416:../../libdaisy/src/hid/disp/display.h ****             {
 928              		.loc 6 416 19 view .LVU212
 929 00cc 0020     		movs	r0, #0
 930              	.LBB711:
 931              	.LBB706:
 932              	.LBB701:
 933              	.LBB697:
 934              	.LBB694:
ARM GAS  /tmp/ccZhYDze.s 			page 43


 246:../../libdaisy/src/dev/oled_ssd130x.h ****     }
 935              		.loc 16 246 42 view .LVU213
 936 00ce 52B2     		sxtb	r2, r2
 937 00d0 4344     		add	r3, r3, r8
 938 00d2 6FEA020C 		mvn	ip, r2
 939 00d6 0EE0     		b	.L45
 940              	.LVL53:
 941              	.L69:
 246:../../libdaisy/src/dev/oled_ssd130x.h ****     }
 942              		.loc 16 246 42 view .LVU214
 943              	.LBE694:
 944              	.LBE697:
 945              	.LBE701:
 946              	.LBE706:
 947              	.LBE711:
 948              	.LBB712:
 949              	.LBI712:
  41:../../libdaisy/src/hid/disp/oled_display.h ****     {
 950              		.loc 5 41 10 is_stmt 1 view .LVU215
 951              	.LBB713:
 952              	.LBI713:
 239:../../libdaisy/src/dev/oled_ssd130x.h ****     {
 953              		.loc 16 239 10 view .LVU216
 954              	.LBB714:
 241:../../libdaisy/src/dev/oled_ssd130x.h ****             return;
 955              		.loc 16 241 9 is_stmt 0 view .LVU217
 956 00d8 7F2C     		cmp	r4, #127
 957 00da 07D8     		bhi	.L41
 958 00dc 3F29     		cmp	r1, #63
 959 00de 05D8     		bhi	.L41
 244:../../libdaisy/src/dev/oled_ssd130x.h ****         else
 960              		.loc 16 244 42 view .LVU218
 961 00e0 1D78     		ldrb	r5, [r3]	@ zero_extendqisi2
 243:../../libdaisy/src/dev/oled_ssd130x.h ****             buffer_[x + (y / 8) * width] |= (1 << (y % 8));
 962              		.loc 16 243 9 view .LVU219
 963 00e2 B9F1000F 		cmp	r9, #0
 964 00e6 12D0     		beq	.L43
 965              	.L66:
 243:../../libdaisy/src/dev/oled_ssd130x.h ****             buffer_[x + (y / 8) * width] |= (1 << (y % 8));
 966              		.loc 16 243 9 view .LVU220
 967              	.LBE714:
 968              	.LBE713:
 969              	.LBE712:
 970              	.LBB715:
 971              	.LBB707:
 972              	.LBB702:
 244:../../libdaisy/src/dev/oled_ssd130x.h ****         else
 973              		.loc 16 244 42 view .LVU221
 974 00e8 1543     		orrs	r5, r5, r2
 244:../../libdaisy/src/dev/oled_ssd130x.h ****         else
 975              		.loc 16 244 13 view .LVU222
 976 00ea 1D70     		strb	r5, [r3]
 977              	.L41:
 978              	.LBE702:
 979              	.LBE707:
 980              	.LBE715:
 416:../../libdaisy/src/hid/disp/display.h ****             {
ARM GAS  /tmp/ccZhYDze.s 			page 44


 981              		.loc 6 416 13 is_stmt 1 view .LVU223
 982 00ec 0130     		adds	r0, r0, #1
 983              	.LVL54:
 416:../../libdaisy/src/hid/disp/display.h ****             {
 984              		.loc 6 416 26 view .LVU224
 985 00ee 0133     		adds	r3, r3, #1
 986 00f0 0134     		adds	r4, r4, #1
 987 00f2 B842     		cmp	r0, r7
 988 00f4 14D0     		beq	.L44
 989              	.LVL55:
 990              	.L45:
 418:../../libdaisy/src/hid/disp/display.h ****                 {
 991              		.loc 6 418 23 is_stmt 0 view .LVU225
 992 00f6 0AFA00F5 		lsl	r5, r10, r0
 418:../../libdaisy/src/hid/disp/display.h ****                 {
 993              		.loc 6 418 17 view .LVU226
 994 00fa 2D04     		lsls	r5, r5, #16
 995 00fc ECD4     		bmi	.L69
 996              	.LVL56:
 997              	.LBB716:
 998              	.LBI689:
  41:../../libdaisy/src/hid/disp/oled_display.h ****     {
 999              		.loc 5 41 10 is_stmt 1 view .LVU227
 1000              	.LBB708:
 1001              	.LBI690:
 239:../../libdaisy/src/dev/oled_ssd130x.h ****     {
 1002              		.loc 16 239 10 view .LVU228
 1003              	.LBB703:
 241:../../libdaisy/src/dev/oled_ssd130x.h ****             return;
 1004              		.loc 16 241 9 is_stmt 0 view .LVU229
 1005 00fe 7F2C     		cmp	r4, #127
 1006 0100 F4D8     		bhi	.L41
 1007 0102 3F29     		cmp	r1, #63
 1008 0104 F2D8     		bhi	.L41
 244:../../libdaisy/src/dev/oled_ssd130x.h ****         else
 1009              		.loc 16 244 42 view .LVU230
 1010 0106 1D78     		ldrb	r5, [r3]	@ zero_extendqisi2
 243:../../libdaisy/src/dev/oled_ssd130x.h ****             buffer_[x + (y / 8) * width] |= (1 << (y % 8));
 1011              		.loc 16 243 9 view .LVU231
 1012 0108 B9F1000F 		cmp	r9, #0
 1013 010c ECD0     		beq	.L66
 1014              	.L43:
 1015              	.LVL57:
 1016              	.LBB698:
 1017              	.LBI692:
 239:../../libdaisy/src/dev/oled_ssd130x.h ****     {
 1018              		.loc 16 239 10 is_stmt 1 view .LVU232
 239:../../libdaisy/src/dev/oled_ssd130x.h ****     {
 1019              		.loc 16 239 10 is_stmt 0 view .LVU233
 1020              	.LBE698:
 1021              	.LBE703:
 1022              	.LBE708:
 1023              	.LBE716:
 416:../../libdaisy/src/hid/disp/display.h ****             {
 1024              		.loc 6 416 13 view .LVU234
 1025 010e 0130     		adds	r0, r0, #1
 1026              	.LVL58:
ARM GAS  /tmp/ccZhYDze.s 			page 45


 1027              	.LBB717:
 1028              	.LBB709:
 1029              	.LBB704:
 1030              	.LBB699:
 1031              	.LBB695:
 246:../../libdaisy/src/dev/oled_ssd130x.h ****     }
 1032              		.loc 16 246 42 view .LVU235
 1033 0110 0CEA0505 		and	r5, ip, r5
 1034 0114 0133     		adds	r3, r3, #1
 1035 0116 0134     		adds	r4, r4, #1
 1036              	.LBE695:
 1037              	.LBE699:
 1038              	.LBE704:
 1039              	.LBE709:
 1040              	.LBE717:
 416:../../libdaisy/src/hid/disp/display.h ****             {
 1041              		.loc 6 416 26 view .LVU236
 1042 0118 B842     		cmp	r0, r7
 1043              	.LBB718:
 1044              	.LBB710:
 1045              	.LBB705:
 1046              	.LBB700:
 1047              	.LBB696:
 246:../../libdaisy/src/dev/oled_ssd130x.h ****     }
 1048              		.loc 16 246 13 view .LVU237
 1049 011a 03F8015C 		strb	r5, [r3, #-1]
 246:../../libdaisy/src/dev/oled_ssd130x.h ****     }
 1050              		.loc 16 246 13 view .LVU238
 1051              	.LBE696:
 1052              	.LBE700:
 1053              	.LBE705:
 1054              	.LBE710:
 1055              	.LBE718:
 416:../../libdaisy/src/hid/disp/display.h ****             {
 1056              		.loc 6 416 13 is_stmt 1 view .LVU239
 1057              	.LVL59:
 416:../../libdaisy/src/hid/disp/display.h ****             {
 1058              		.loc 6 416 26 view .LVU240
 1059 011e EAD1     		bne	.L45
 1060              	.LVL60:
 1061              	.L44:
 413:../../libdaisy/src/hid/disp/display.h ****         {
 1062              		.loc 6 413 9 view .LVU241
 413:../../libdaisy/src/hid/disp/display.h ****         {
 1063              		.loc 6 413 22 view .LVU242
 1064 0120 5E45     		cmp	r6, fp
 1065 0122 01F10101 		add	r1, r1, #1
 1066 0126 C3D1     		bne	.L39
 1067 0128 BA46     		mov	r10, r7
 1068              	.LVL61:
 413:../../libdaisy/src/hid/disp/display.h ****         {
 1069              		.loc 6 413 22 is_stmt 0 view .LVU243
 1070 012a 029D     		ldr	r5, [sp, #8]
 1071 012c 7746     		mov	r7, lr
 1072 012e DDF80CB0 		ldr	fp, [sp, #12]
 1073              	.L38:
 1074              	.LBB719:
ARM GAS  /tmp/ccZhYDze.s 			page 46


 1075              	.LBB720:
 173:../../libdaisy/src/hid/disp/display.h ****         currentY_ = (y >= Height()) ? Height() - 1 : y;
 1076              		.loc 6 173 33 view .LVU244
 1077 0132 D8F80020 		ldr	r2, [r8]
 1078              	.LBE720:
 1079              	.LBE719:
 434:../../libdaisy/src/hid/disp/display.h **** 
 1080              		.loc 6 434 18 view .LVU245
 1081 0136 5744     		add	r7, r7, r10
 1082 0138 2749     		ldr	r1, .L74
 1083              	.LBB724:
 1084              	.LBB721:
 173:../../libdaisy/src/hid/disp/display.h ****         currentY_ = (y >= Height()) ? Height() - 1 : y;
 1085              		.loc 6 173 33 view .LVU246
 1086 013a D368     		ldr	r3, [r2, #12]
 1087              	.LBE721:
 1088              	.LBE724:
 434:../../libdaisy/src/hid/disp/display.h **** 
 1089              		.loc 6 434 18 view .LVU247
 1090 013c BFB2     		uxth	r7, r7
 1091              	.LVL62:
 1092              	.LBB725:
 1093              	.LBI719:
 171:../../libdaisy/src/hid/disp/display.h ****     {
 1094              		.loc 6 171 10 is_stmt 1 view .LVU248
 1095              	.LBB722:
 173:../../libdaisy/src/hid/disp/display.h ****         currentY_ = (y >= Height()) ? Height() - 1 : y;
 1096              		.loc 6 173 9 view .LVU249
 1097 013e 8B42     		cmp	r3, r1
 1098 0140 34D1     		bne	.L70
 173:../../libdaisy/src/hid/disp/display.h ****         currentY_ = (y >= Height()) ? Height() - 1 : y;
 1099              		.loc 6 173 33 is_stmt 0 view .LVU250
 1100 0142 8020     		movs	r0, #128
 1101              	.L46:
 173:../../libdaisy/src/hid/disp/display.h ****         currentY_ = (y >= Height()) ? Height() - 1 : y;
 1102              		.loc 6 173 19 view .LVU251
 1103 0144 8742     		cmp	r7, r0
 1104 0146 04D3     		bcc	.L47
 173:../../libdaisy/src/hid/disp/display.h ****         currentY_ = (y >= Height()) ? Height() - 1 : y;
 1105              		.loc 6 173 44 view .LVU252
 1106 0148 D368     		ldr	r3, [r2, #12]
 1107 014a 2349     		ldr	r1, .L74
 1108 014c 8B42     		cmp	r3, r1
 1109 014e 3BD1     		bne	.L71
 1110 0150 7F27     		movs	r7, #127
 1111              	.LVL63:
 1112              	.L47:
 174:../../libdaisy/src/hid/disp/display.h ****     }
 1113              		.loc 6 174 34 view .LVU253
 1114 0152 9368     		ldr	r3, [r2, #8]
 1115 0154 214A     		ldr	r2, .L74+4
 173:../../libdaisy/src/hid/disp/display.h ****         currentY_ = (y >= Height()) ? Height() - 1 : y;
 1116              		.loc 6 173 19 view .LVU254
 1117 0156 A8F80470 		strh	r7, [r8, #4]	@ movhi
 174:../../libdaisy/src/hid/disp/display.h ****     }
 1118              		.loc 6 174 9 is_stmt 1 view .LVU255
 1119 015a 9342     		cmp	r3, r2
ARM GAS  /tmp/ccZhYDze.s 			page 47


 1120 015c 23D1     		bne	.L72
 174:../../libdaisy/src/hid/disp/display.h ****     }
 1121              		.loc 6 174 34 is_stmt 0 view .LVU256
 1122 015e 4020     		movs	r0, #64
 1123              	.L49:
 174:../../libdaisy/src/hid/disp/display.h ****     }
 1124              		.loc 6 174 19 view .LVU257
 1125 0160 009B     		ldr	r3, [sp]
 1126 0162 8342     		cmp	r3, r0
 1127 0164 07D3     		bcc	.L50
 174:../../libdaisy/src/hid/disp/display.h ****     }
 1128              		.loc 6 174 46 view .LVU258
 1129 0166 D8F80030 		ldr	r3, [r8]
 1130 016a 1C4A     		ldr	r2, .L74+4
 1131 016c 9B68     		ldr	r3, [r3, #8]
 1132 016e 9342     		cmp	r3, r2
 1133 0170 24D1     		bne	.L73
 1134 0172 3F23     		movs	r3, #63
 1135 0174 0093     		str	r3, [sp]
 1136              	.LVL64:
 1137              	.L50:
 174:../../libdaisy/src/hid/disp/display.h ****     }
 1138              		.loc 6 174 19 view .LVU259
 1139 0176 009B     		ldr	r3, [sp]
 1140 0178 A8F80630 		strh	r3, [r8, #6]	@ movhi
 1141              	.LVL65:
 1142              	.L32:
 174:../../libdaisy/src/hid/disp/display.h ****     }
 1143              		.loc 6 174 19 view .LVU260
 1144              	.LBE722:
 1145              	.LBE725:
 1146              	.LBE688:
 1147              	.LBE687:
 444:../../libdaisy/src/hid/disp/display.h ****         {
 445:../../libdaisy/src/hid/disp/display.h ****             if(((ChildType*)(this))->ChildType::WriteChar(*str, font, on)
 446:../../libdaisy/src/hid/disp/display.h ****                != *str)
 1148              		.loc 6 446 16 view .LVU261
 1149 017c 9BF80000 		ldrb	r0, [fp]	@ zero_extendqisi2
 445:../../libdaisy/src/hid/disp/display.h ****                != *str)
 1150              		.loc 6 445 13 view .LVU262
 1151 0180 A842     		cmp	r0, r5
 1152 0182 05D1     		bne	.L30
 1153              	.LVL66:
 443:../../libdaisy/src/hid/disp/display.h ****         {
 1154              		.loc 6 443 9 is_stmt 1 view .LVU263
 1155 0184 1BF8015F 		ldrb	r5, [fp, #1]!	@ zero_extendqisi2
 1156              	.LVL67:
 443:../../libdaisy/src/hid/disp/display.h ****         {
 1157              		.loc 6 443 9 is_stmt 0 view .LVU264
 1158 0188 002D     		cmp	r5, #0
 1159 018a 7FF452AF 		bne	.L53
 1160              	.LVL68:
 1161              	.L52:
 1162              	.LBB729:
 1163              	.LBB727:
 402:../../libdaisy/src/hid/disp/display.h **** 
 1164              		.loc 6 402 20 view .LVU265
ARM GAS  /tmp/ccZhYDze.s 			page 48


 1165 018e 0020     		movs	r0, #0
 1166              	.LVL69:
 1167              	.L30:
 402:../../libdaisy/src/hid/disp/display.h **** 
 1168              		.loc 6 402 20 view .LVU266
 1169              	.LBE727:
 1170              	.LBE729:
 447:../../libdaisy/src/hid/disp/display.h ****             {
 448:../../libdaisy/src/hid/disp/display.h ****                 // Char could not be written
 449:../../libdaisy/src/hid/disp/display.h ****                 return *str;
 450:../../libdaisy/src/hid/disp/display.h ****             }
 451:../../libdaisy/src/hid/disp/display.h **** 
 452:../../libdaisy/src/hid/disp/display.h ****             // Next char
 453:../../libdaisy/src/hid/disp/display.h ****             str++;
 454:../../libdaisy/src/hid/disp/display.h ****         }
 455:../../libdaisy/src/hid/disp/display.h **** 
 456:../../libdaisy/src/hid/disp/display.h ****         // Everything ok
 457:../../libdaisy/src/hid/disp/display.h ****         return *str;
 458:../../libdaisy/src/hid/disp/display.h ****     }
 1171              		.loc 6 458 5 view .LVU267
 1172 0190 09B0     		add	sp, sp, #36
 1173              		.cfi_remember_state
 1174              		.cfi_def_cfa_offset 36
 1175              		@ sp needed
 1176 0192 BDE8F08F 		pop	{r4, r5, r6, r7, r8, r9, r10, fp, pc}
 1177              	.LVL70:
 1178              	.L34:
 1179              		.cfi_restore_state
 1180              	.LBB730:
 1181              	.LBB728:
 402:../../libdaisy/src/hid/disp/display.h **** 
 1182              		.loc 6 402 20 view .LVU268
 1183 0196 0025     		movs	r5, #0
 1184              	.LVL71:
 402:../../libdaisy/src/hid/disp/display.h **** 
 1185              		.loc 6 402 20 view .LVU269
 1186 0198 F0E7     		b	.L32
 1187              	.LVL72:
 1188              	.L67:
 405:../../libdaisy/src/hid/disp/display.h ****            || Height() < (currentY_ + font.FontHeight))
 1189              		.loc 6 405 17 view .LVU270
 1190 019a 4046     		mov	r0, r8
 1191 019c 9847     		blx	r3
 1192              	.LVL73:
 1193 019e 56E7     		b	.L33
 1194              	.L68:
 406:../../libdaisy/src/hid/disp/display.h ****         {
 1195              		.loc 6 406 21 view .LVU271
 1196 01a0 4046     		mov	r0, r8
 1197 01a2 9847     		blx	r3
 1198              	.LVL74:
 1199 01a4 61E7     		b	.L35
 1200              	.LVL75:
 1201              	.L72:
 1202              	.LBB726:
 1203              	.LBB723:
 174:../../libdaisy/src/hid/disp/display.h ****     }
ARM GAS  /tmp/ccZhYDze.s 			page 49


 1204              		.loc 6 174 33 view .LVU272
 1205 01a6 4046     		mov	r0, r8
 1206 01a8 9847     		blx	r3
 1207              	.LVL76:
 1208 01aa D9E7     		b	.L49
 1209              	.LVL77:
 1210              	.L70:
 173:../../libdaisy/src/hid/disp/display.h ****         currentY_ = (y >= Height()) ? Height() - 1 : y;
 1211              		.loc 6 173 32 view .LVU273
 1212 01ac 4046     		mov	r0, r8
 1213 01ae 9847     		blx	r3
 1214              	.LVL78:
 1215 01b0 D8F80020 		ldr	r2, [r8]
 1216 01b4 C6E7     		b	.L46
 1217              	.LVL79:
 1218              	.L36:
 173:../../libdaisy/src/hid/disp/display.h ****         currentY_ = (y >= Height()) ? Height() - 1 : y;
 1219              		.loc 6 173 32 view .LVU274
 1220 01b6 B8F80470 		ldrh	r7, [r8, #4]
 1221 01ba BAE7     		b	.L38
 1222              	.LVL80:
 1223              	.L73:
 174:../../libdaisy/src/hid/disp/display.h ****     }
 1224              		.loc 6 174 45 view .LVU275
 1225 01bc 4046     		mov	r0, r8
 1226 01be 9847     		blx	r3
 1227              	.LVL81:
 1228 01c0 0138     		subs	r0, r0, #1
 1229 01c2 83B2     		uxth	r3, r0
 1230 01c4 0093     		str	r3, [sp]
 1231              	.LVL82:
 174:../../libdaisy/src/hid/disp/display.h ****     }
 1232              		.loc 6 174 45 view .LVU276
 1233 01c6 D6E7     		b	.L50
 1234              	.LVL83:
 1235              	.L71:
 173:../../libdaisy/src/hid/disp/display.h ****         currentY_ = (y >= Height()) ? Height() - 1 : y;
 1236              		.loc 6 173 43 view .LVU277
 1237 01c8 4046     		mov	r0, r8
 1238 01ca 9847     		blx	r3
 1239              	.LVL84:
 1240 01cc 0138     		subs	r0, r0, #1
 1241 01ce D8F80020 		ldr	r2, [r8]
 1242 01d2 87B2     		uxth	r7, r0
 1243              	.LVL85:
 173:../../libdaisy/src/hid/disp/display.h ****         currentY_ = (y >= Height()) ? Height() - 1 : y;
 1244              		.loc 6 173 43 view .LVU278
 1245 01d4 BDE7     		b	.L47
 1246              	.L75:
 1247 01d6 00BF     		.align	2
 1248              	.L74:
 1249 01d8 00000000 		.word	_ZNK5daisy11OledDisplayINS_13SSD130xDriverILj128ELj64ENS_24SSD130x4WireSpiTransportEEEE5Widt
 1250 01dc 00000000 		.word	_ZNK5daisy11OledDisplayINS_13SSD130xDriverILj128ELj64ENS_24SSD130x4WireSpiTransportEEEE6Heig
 1251              	.LBE723:
 1252              	.LBE726:
 1253              	.LBE728:
 1254              	.LBE730:
ARM GAS  /tmp/ccZhYDze.s 			page 50


 1255              		.cfi_endproc
 1256              	.LFE4554:
 1258              		.section	.text._ZN5daisy25OneBitGraphicsDisplayImplINS_11OledDisplayINS_13SSD130xDriverILj128ELj64
 1259              		.align	1
 1260              		.p2align 2,,3
 1261              		.weak	_ZN5daisy25OneBitGraphicsDisplayImplINS_11OledDisplayINS_13SSD130xDriverILj128ELj64ENS_24SSD
 1262              		.syntax unified
 1263              		.thumb
 1264              		.thumb_func
 1265              		.fpu fpv5-d16
 1267              	_ZN5daisy25OneBitGraphicsDisplayImplINS_11OledDisplayINS_13SSD130xDriverILj128ELj64ENS_24SSD130x4Wi
 1268              	.LVL86:
 1269              	.LFB4681:
 396:../../libdaisy/src/hid/disp/display.h ****     {
 1270              		.loc 6 396 10 is_stmt 1 view -0
 1271              		.cfi_startproc
 1272              		@ args = 4, pretend = 0, frame = 16
 1273              		@ frame_needed = 0, uses_anonymous_args = 0
 396:../../libdaisy/src/hid/disp/display.h ****     {
 1274              		.loc 6 396 10 is_stmt 0 view .LVU280
 1275 0000 2DE9F04F 		push	{r4, r5, r6, r7, r8, r9, r10, fp, lr}
 1276              		.cfi_def_cfa_offset 36
 1277              		.cfi_offset 4, -36
 1278              		.cfi_offset 5, -32
 1279              		.cfi_offset 6, -28
 1280              		.cfi_offset 7, -24
 1281              		.cfi_offset 8, -20
 1282              		.cfi_offset 9, -16
 1283              		.cfi_offset 10, -12
 1284              		.cfi_offset 11, -8
 1285              		.cfi_offset 14, -4
 1286 0004 85B0     		sub	sp, sp, #20
 1287              		.cfi_def_cfa_offset 56
 1288              	.LVL87:
 401:../../libdaisy/src/hid/disp/display.h ****             return 0;
 1289              		.loc 6 401 20 view .LVU281
 1290 0006 A1F12004 		sub	r4, r1, #32
 396:../../libdaisy/src/hid/disp/display.h ****     {
 1291              		.loc 6 396 10 view .LVU282
 1292 000a 0091     		str	r1, [sp]
 1293 000c 04A9     		add	r1, sp, #16
 1294              	.LVL88:
 396:../../libdaisy/src/hid/disp/display.h ****     {
 1295              		.loc 6 396 10 view .LVU283
 1296 000e 9DF83880 		ldrb	r8, [sp, #56]	@ zero_extendqisi2
 1297 0012 01E90C00 		stmdb	r1, {r2, r3}
 1298              	.LVL89:
 401:../../libdaisy/src/hid/disp/display.h ****             return 0;
 1299              		.loc 6 401 9 view .LVU284
 1300 0016 E3B2     		uxtb	r3, r4
 1301 0018 5E2B     		cmp	r3, #94
 1302 001a 00F29480 		bhi	.L80
 405:../../libdaisy/src/hid/disp/display.h ****            || Height() < (currentY_ + font.FontHeight))
 1303              		.loc 6 405 17 view .LVU285
 1304 001e 0368     		ldr	r3, [r0]
 1305 0020 8146     		mov	r9, r0
 1306 0022 5E4A     		ldr	r2, .L116
ARM GAS  /tmp/ccZhYDze.s 			page 51


 1307 0024 DB68     		ldr	r3, [r3, #12]
 1308 0026 9DF80860 		ldrb	r6, [sp, #8]	@ zero_extendqisi2
 1309 002a 9342     		cmp	r3, r2
 1310 002c 9DF80950 		ldrb	r5, [sp, #9]	@ zero_extendqisi2
 1311 0030 40F09380 		bne	.L107
 1312 0034 8022     		movs	r2, #128
 1313              	.LVL90:
 1314              	.L79:
 405:../../libdaisy/src/hid/disp/display.h ****            || Height() < (currentY_ + font.FontHeight))
 1315              		.loc 6 405 23 view .LVU286
 1316 0036 B9F80430 		ldrh	r3, [r9, #4]
 405:../../libdaisy/src/hid/disp/display.h ****            || Height() < (currentY_ + font.FontHeight))
 1317              		.loc 6 405 33 view .LVU287
 1318 003a 3344     		add	r3, r3, r6
 406:../../libdaisy/src/hid/disp/display.h ****         {
 1319              		.loc 6 406 12 view .LVU288
 1320 003c 9342     		cmp	r3, r2
 1321 003e 00F38280 		bgt	.L80
 406:../../libdaisy/src/hid/disp/display.h ****         {
 1322              		.loc 6 406 21 discriminator 2 view .LVU289
 1323 0042 D9F80030 		ldr	r3, [r9]
 1324 0046 564A     		ldr	r2, .L116+4
 1325 0048 9B68     		ldr	r3, [r3, #8]
 1326 004a 9342     		cmp	r3, r2
 1327 004c 40F08980 		bne	.L108
 406:../../libdaisy/src/hid/disp/display.h ****         {
 1328              		.loc 6 406 21 view .LVU290
 1329 0050 4023     		movs	r3, #64
 1330              	.L81:
 406:../../libdaisy/src/hid/disp/display.h ****         {
 1331              		.loc 6 406 27 discriminator 2 view .LVU291
 1332 0052 B9F80610 		ldrh	r1, [r9, #6]
 406:../../libdaisy/src/hid/disp/display.h ****         {
 1333              		.loc 6 406 37 discriminator 2 view .LVU292
 1334 0056 4A19     		adds	r2, r1, r5
 406:../../libdaisy/src/hid/disp/display.h ****         {
 1335              		.loc 6 406 27 discriminator 2 view .LVU293
 1336 0058 0191     		str	r1, [sp, #4]
 406:../../libdaisy/src/hid/disp/display.h ****         {
 1337              		.loc 6 406 12 discriminator 2 view .LVU294
 1338 005a 9A42     		cmp	r2, r3
 1339 005c 73DC     		bgt	.L80
 1340              	.LVL91:
 413:../../libdaisy/src/hid/disp/display.h ****         {
 1341              		.loc 6 413 22 is_stmt 1 view .LVU295
 1342 005e 002D     		cmp	r5, #0
 1343 0060 00F08C80 		beq	.L82
 415:../../libdaisy/src/hid/disp/display.h ****             for(j = 0; j < font.FontWidth; j++)
 1344              		.loc 6 415 37 is_stmt 0 view .LVU296
 1345 0064 05FB04F4 		mul	r4, r5, r4
 415:../../libdaisy/src/hid/disp/display.h ****             for(j = 0; j < font.FontWidth; j++)
 1346              		.loc 6 415 22 view .LVU297
 1347 0068 039A     		ldr	r2, [sp, #12]
 1348 006a 6FF00043 		mvn	r3, #-2147483648
 1349 006e B9F804A0 		ldrh	r10, [r9, #4]
 1350 0072 2544     		add	r5, r5, r4
 1351 0074 A2F1020B 		sub	fp, r2, #2
ARM GAS  /tmp/ccZhYDze.s 			page 52


 1352 0078 2344     		add	r3, r3, r4
 1353 007a 0BEB450B 		add	fp, fp, r5, lsl #1
 1354 007e 0D46     		mov	r5, r1
 1355 0080 02EB430E 		add	lr, r2, r3, lsl #1
 1356              	.LVL92:
 1357              	.L85:
 415:../../libdaisy/src/hid/disp/display.h ****             for(j = 0; j < font.FontWidth; j++)
 1358              		.loc 6 415 13 view .LVU298
 1359 0084 3EF8024F 		ldrh	r4, [lr, #2]!
 1360              	.LVL93:
 416:../../libdaisy/src/hid/disp/display.h ****             {
 1361              		.loc 6 416 26 is_stmt 1 view .LVU299
 1362 0088 A6B3     		cbz	r6, .L90
 1363              	.LBB761:
 1364              	.LBB762:
 1365              	.LBB763:
 1366              	.LBB764:
 1367              	.LBB765:
 246:../../libdaisy/src/dev/oled_ssd130x.h ****     }
 1368              		.loc 16 246 55 is_stmt 0 view .LVU300
 1369 008a 05F00703 		and	r3, r5, #7
 246:../../libdaisy/src/dev/oled_ssd130x.h ****     }
 1370              		.loc 16 246 49 view .LVU301
 1371 008e 0127     		movs	r7, #1
 246:../../libdaisy/src/dev/oled_ssd130x.h ****     }
 1372              		.loc 16 246 28 view .LVU302
 1373 0090 E808     		lsrs	r0, r5, #3
 246:../../libdaisy/src/dev/oled_ssd130x.h ****     }
 1374              		.loc 16 246 42 view .LVU303
 1375 0092 4146     		mov	r1, r8
 246:../../libdaisy/src/dev/oled_ssd130x.h ****     }
 1376              		.loc 16 246 49 view .LVU304
 1377 0094 9F40     		lsls	r7, r7, r3
 1378              	.LBE765:
 1379              	.LBE764:
 1380              	.LBE763:
 1381              	.LBE762:
 1382              	.LBE761:
 416:../../libdaisy/src/hid/disp/display.h ****             {
 1383              		.loc 6 416 19 view .LVU305
 1384 0096 0022     		movs	r2, #0
 1385 0098 0AEBC013 		add	r3, r10, r0, lsl #7
 1386              	.LBB783:
 1387              	.LBB778:
 1388              	.LBB773:
 1389              	.LBB769:
 1390              	.LBB766:
 246:../../libdaisy/src/dev/oled_ssd130x.h ****     }
 1391              		.loc 16 246 42 view .LVU306
 1392 009c 7FB2     		sxtb	r7, r7
 1393 009e 4B44     		add	r3, r3, r9
 1394 00a0 09EBC010 		add	r0, r9, r0, lsl #7
 1395 00a4 6FEA070C 		mvn	ip, r7
 1396 00a8 B846     		mov	r8, r7
 1397 00aa 0F46     		mov	r7, r1
 1398 00ac 0CE0     		b	.L91
 1399              	.LVL94:
ARM GAS  /tmp/ccZhYDze.s 			page 53


 1400              	.L110:
 246:../../libdaisy/src/dev/oled_ssd130x.h ****     }
 1401              		.loc 16 246 42 view .LVU307
 1402              	.LBE766:
 1403              	.LBE769:
 1404              	.LBE773:
 1405              	.LBE778:
 1406              	.LBE783:
 1407              	.LBB784:
 1408              	.LBI784:
  41:../../libdaisy/src/hid/disp/oled_display.h ****     {
 1409              		.loc 5 41 10 is_stmt 1 view .LVU308
 1410              	.LBB785:
 1411              	.LBI785:
 239:../../libdaisy/src/dev/oled_ssd130x.h ****     {
 1412              		.loc 16 239 10 view .LVU309
 1413              	.LBB786:
 241:../../libdaisy/src/dev/oled_ssd130x.h ****             return;
 1414              		.loc 16 241 9 is_stmt 0 view .LVU310
 1415 00ae 7F29     		cmp	r1, #127
 1416 00b0 06D8     		bhi	.L87
 1417 00b2 3F2D     		cmp	r5, #63
 1418 00b4 04D8     		bhi	.L87
 244:../../libdaisy/src/dev/oled_ssd130x.h ****         else
 1419              		.loc 16 244 42 view .LVU311
 1420 00b6 197D     		ldrb	r1, [r3, #20]	@ zero_extendqisi2
 243:../../libdaisy/src/dev/oled_ssd130x.h ****             buffer_[x + (y / 8) * width] |= (1 << (y % 8));
 1421              		.loc 16 243 9 view .LVU312
 1422 00b8 A7B1     		cbz	r7, .L89
 1423              	.L106:
 243:../../libdaisy/src/dev/oled_ssd130x.h ****             buffer_[x + (y / 8) * width] |= (1 << (y % 8));
 1424              		.loc 16 243 9 view .LVU313
 1425              	.LBE786:
 1426              	.LBE785:
 1427              	.LBE784:
 1428              	.LBB789:
 1429              	.LBB779:
 1430              	.LBB774:
 244:../../libdaisy/src/dev/oled_ssd130x.h ****         else
 1431              		.loc 16 244 42 view .LVU314
 1432 00ba 48EA0101 		orr	r1, r8, r1
 244:../../libdaisy/src/dev/oled_ssd130x.h ****         else
 1433              		.loc 16 244 13 view .LVU315
 1434 00be 1975     		strb	r1, [r3, #20]
 1435              	.L87:
 1436              	.LBE774:
 1437              	.LBE779:
 1438              	.LBE789:
 416:../../libdaisy/src/hid/disp/display.h ****             {
 1439              		.loc 6 416 13 is_stmt 1 discriminator 2 view .LVU316
 1440 00c0 0132     		adds	r2, r2, #1
 1441              	.LVL95:
 416:../../libdaisy/src/hid/disp/display.h ****             {
 1442              		.loc 6 416 26 discriminator 2 view .LVU317
 1443 00c2 0133     		adds	r3, r3, #1
 1444 00c4 9642     		cmp	r6, r2
 1445 00c6 14D0     		beq	.L109
ARM GAS  /tmp/ccZhYDze.s 			page 54


 1446              	.LVL96:
 1447              	.L91:
 418:../../libdaisy/src/hid/disp/display.h ****                 {
 1448              		.loc 6 418 23 is_stmt 0 view .LVU318
 1449 00c8 04FA02F1 		lsl	r1, r4, r2
 418:../../libdaisy/src/hid/disp/display.h ****                 {
 1450              		.loc 6 418 17 view .LVU319
 1451 00cc 11F4004F 		tst	r1, #32768
 1452              	.LBB790:
 1453              	.LBB788:
 1454              	.LBB787:
 241:../../libdaisy/src/dev/oled_ssd130x.h ****             return;
 1455              		.loc 16 241 14 view .LVU320
 1456 00d0 A3EB0001 		sub	r1, r3, r0
 1457              	.LBE787:
 1458              	.LBE788:
 1459              	.LBE790:
 418:../../libdaisy/src/hid/disp/display.h ****                 {
 1460              		.loc 6 418 17 view .LVU321
 1461 00d4 EBD1     		bne	.L110
 1462              	.LVL97:
 1463              	.LBB791:
 1464              	.LBI761:
  41:../../libdaisy/src/hid/disp/oled_display.h ****     {
 1465              		.loc 5 41 10 is_stmt 1 view .LVU322
 1466              	.LBB780:
 1467              	.LBI762:
 239:../../libdaisy/src/dev/oled_ssd130x.h ****     {
 1468              		.loc 16 239 10 view .LVU323
 1469              	.LBB775:
 241:../../libdaisy/src/dev/oled_ssd130x.h ****             return;
 1470              		.loc 16 241 9 is_stmt 0 view .LVU324
 1471 00d6 7F29     		cmp	r1, #127
 1472 00d8 F2D8     		bhi	.L87
 1473 00da 3F2D     		cmp	r5, #63
 1474 00dc F0D8     		bhi	.L87
 244:../../libdaisy/src/dev/oled_ssd130x.h ****         else
 1475              		.loc 16 244 42 view .LVU325
 1476 00de 197D     		ldrb	r1, [r3, #20]	@ zero_extendqisi2
 243:../../libdaisy/src/dev/oled_ssd130x.h ****             buffer_[x + (y / 8) * width] |= (1 << (y % 8));
 1477              		.loc 16 243 9 view .LVU326
 1478 00e0 002F     		cmp	r7, #0
 1479 00e2 EAD0     		beq	.L106
 1480              	.L89:
 1481              	.LVL98:
 1482              	.LBB770:
 1483              	.LBI764:
 239:../../libdaisy/src/dev/oled_ssd130x.h ****     {
 1484              		.loc 16 239 10 is_stmt 1 view .LVU327
 239:../../libdaisy/src/dev/oled_ssd130x.h ****     {
 1485              		.loc 16 239 10 is_stmt 0 view .LVU328
 1486              	.LBE770:
 1487              	.LBE775:
 1488              	.LBE780:
 1489              	.LBE791:
 416:../../libdaisy/src/hid/disp/display.h ****             {
 1490              		.loc 6 416 13 view .LVU329
ARM GAS  /tmp/ccZhYDze.s 			page 55


 1491 00e4 0132     		adds	r2, r2, #1
 1492              	.LVL99:
 1493              	.LBB792:
 1494              	.LBB781:
 1495              	.LBB776:
 1496              	.LBB771:
 1497              	.LBB767:
 246:../../libdaisy/src/dev/oled_ssd130x.h ****     }
 1498              		.loc 16 246 42 view .LVU330
 1499 00e6 0CEA0101 		and	r1, ip, r1
 1500 00ea 0133     		adds	r3, r3, #1
 1501              	.LBE767:
 1502              	.LBE771:
 1503              	.LBE776:
 1504              	.LBE781:
 1505              	.LBE792:
 416:../../libdaisy/src/hid/disp/display.h ****             {
 1506              		.loc 6 416 26 view .LVU331
 1507 00ec 9642     		cmp	r6, r2
 1508              	.LBB793:
 1509              	.LBB782:
 1510              	.LBB777:
 1511              	.LBB772:
 1512              	.LBB768:
 246:../../libdaisy/src/dev/oled_ssd130x.h ****     }
 1513              		.loc 16 246 13 view .LVU332
 1514 00ee D974     		strb	r1, [r3, #19]
 246:../../libdaisy/src/dev/oled_ssd130x.h ****     }
 1515              		.loc 16 246 13 view .LVU333
 1516              	.LBE768:
 1517              	.LBE772:
 1518              	.LBE777:
 1519              	.LBE782:
 1520              	.LBE793:
 416:../../libdaisy/src/hid/disp/display.h ****             {
 1521              		.loc 6 416 13 is_stmt 1 view .LVU334
 1522              	.LVL100:
 416:../../libdaisy/src/hid/disp/display.h ****             {
 1523              		.loc 6 416 26 view .LVU335
 1524 00f0 EAD1     		bne	.L91
 1525              	.L109:
 416:../../libdaisy/src/hid/disp/display.h ****             {
 1526              		.loc 6 416 26 is_stmt 0 view .LVU336
 1527 00f2 B846     		mov	r8, r7
 1528              	.LVL101:
 1529              	.L90:
 413:../../libdaisy/src/hid/disp/display.h ****         {
 1530              		.loc 6 413 9 is_stmt 1 view .LVU337
 413:../../libdaisy/src/hid/disp/display.h ****         {
 1531              		.loc 6 413 22 view .LVU338
 1532 00f4 F345     		cmp	fp, lr
 1533 00f6 05F10105 		add	r5, r5, #1
 1534 00fa C3D1     		bne	.L85
 1535              	.LVL102:
 1536              	.L84:
 1537              	.LBB794:
 1538              	.LBB795:
ARM GAS  /tmp/ccZhYDze.s 			page 56


 173:../../libdaisy/src/hid/disp/display.h ****         currentY_ = (y >= Height()) ? Height() - 1 : y;
 1539              		.loc 6 173 33 is_stmt 0 view .LVU339
 1540 00fc D9F80030 		ldr	r3, [r9]
 1541              	.LBE795:
 1542              	.LBE794:
 434:../../libdaisy/src/hid/disp/display.h **** 
 1543              		.loc 6 434 18 view .LVU340
 1544 0100 0AEB0604 		add	r4, r10, r6
 1545 0104 2549     		ldr	r1, .L116
 1546              	.LBB800:
 1547              	.LBB796:
 173:../../libdaisy/src/hid/disp/display.h ****         currentY_ = (y >= Height()) ? Height() - 1 : y;
 1548              		.loc 6 173 33 view .LVU341
 1549 0106 DA68     		ldr	r2, [r3, #12]
 1550              	.LBE796:
 1551              	.LBE800:
 434:../../libdaisy/src/hid/disp/display.h **** 
 1552              		.loc 6 434 18 view .LVU342
 1553 0108 A4B2     		uxth	r4, r4
 1554              	.LVL103:
 1555              	.LBB801:
 1556              	.LBI794:
 171:../../libdaisy/src/hid/disp/display.h ****     {
 1557              		.loc 6 171 10 is_stmt 1 view .LVU343
 1558              	.LBB797:
 173:../../libdaisy/src/hid/disp/display.h ****         currentY_ = (y >= Height()) ? Height() - 1 : y;
 1559              		.loc 6 173 9 view .LVU344
 1560 010a 8A42     		cmp	r2, r1
 1561 010c 31D1     		bne	.L111
 173:../../libdaisy/src/hid/disp/display.h ****         currentY_ = (y >= Height()) ? Height() - 1 : y;
 1562              		.loc 6 173 33 is_stmt 0 view .LVU345
 1563 010e 8020     		movs	r0, #128
 1564              	.L92:
 173:../../libdaisy/src/hid/disp/display.h ****         currentY_ = (y >= Height()) ? Height() - 1 : y;
 1565              		.loc 6 173 19 view .LVU346
 1566 0110 8442     		cmp	r4, r0
 1567 0112 1CD2     		bcs	.L112
 1568              	.LVL104:
 1569              	.L93:
 174:../../libdaisy/src/hid/disp/display.h ****     }
 1570              		.loc 6 174 34 view .LVU347
 1571 0114 9B68     		ldr	r3, [r3, #8]
 1572 0116 224A     		ldr	r2, .L116+4
 173:../../libdaisy/src/hid/disp/display.h ****         currentY_ = (y >= Height()) ? Height() - 1 : y;
 1573              		.loc 6 173 19 view .LVU348
 1574 0118 A9F80440 		strh	r4, [r9, #4]	@ movhi
 174:../../libdaisy/src/hid/disp/display.h ****     }
 1575              		.loc 6 174 9 is_stmt 1 view .LVU349
 1576 011c 9342     		cmp	r3, r2
 1577 011e 25D1     		bne	.L113
 174:../../libdaisy/src/hid/disp/display.h ****     }
 1578              		.loc 6 174 34 is_stmt 0 view .LVU350
 1579 0120 4020     		movs	r0, #64
 1580              	.L95:
 174:../../libdaisy/src/hid/disp/display.h ****     }
 1581              		.loc 6 174 19 view .LVU351
 1582 0122 019B     		ldr	r3, [sp, #4]
ARM GAS  /tmp/ccZhYDze.s 			page 57


 1583 0124 8342     		cmp	r3, r0
 1584 0126 07D3     		bcc	.L96
 174:../../libdaisy/src/hid/disp/display.h ****     }
 1585              		.loc 6 174 46 view .LVU352
 1586 0128 D9F80030 		ldr	r3, [r9]
 1587 012c 1C4A     		ldr	r2, .L116+4
 1588 012e 9B68     		ldr	r3, [r3, #8]
 1589 0130 9342     		cmp	r3, r2
 1590 0132 2DD1     		bne	.L114
 1591 0134 3F23     		movs	r3, #63
 1592 0136 0193     		str	r3, [sp, #4]
 1593              	.LVL105:
 1594              	.L96:
 174:../../libdaisy/src/hid/disp/display.h ****     }
 1595              		.loc 6 174 19 view .LVU353
 1596 0138 DDE90003 		ldrd	r0, r3, [sp]
 1597 013c A9F80630 		strh	r3, [r9, #6]	@ movhi
 1598              	.LVL106:
 174:../../libdaisy/src/hid/disp/display.h ****     }
 1599              		.loc 6 174 19 view .LVU354
 1600              	.LBE797:
 1601              	.LBE801:
 438:../../libdaisy/src/hid/disp/display.h **** 
 1602              		.loc 6 438 5 view .LVU355
 1603 0140 05B0     		add	sp, sp, #20
 1604              		.cfi_remember_state
 1605              		.cfi_def_cfa_offset 36
 1606              		@ sp needed
 1607 0142 BDE8F08F 		pop	{r4, r5, r6, r7, r8, r9, r10, fp, pc}
 1608              	.LVL107:
 1609              	.L80:
 1610              		.cfi_restore_state
 402:../../libdaisy/src/hid/disp/display.h **** 
 1611              		.loc 6 402 20 view .LVU356
 1612 0146 0020     		movs	r0, #0
 438:../../libdaisy/src/hid/disp/display.h **** 
 1613              		.loc 6 438 5 view .LVU357
 1614 0148 05B0     		add	sp, sp, #20
 1615              		.cfi_remember_state
 1616              		.cfi_def_cfa_offset 36
 1617              		@ sp needed
 1618 014a BDE8F08F 		pop	{r4, r5, r6, r7, r8, r9, r10, fp, pc}
 1619              	.LVL108:
 1620              	.L112:
 1621              		.cfi_restore_state
 1622              	.LBB802:
 1623              	.LBB798:
 173:../../libdaisy/src/hid/disp/display.h ****         currentY_ = (y >= Height()) ? Height() - 1 : y;
 1624              		.loc 6 173 44 view .LVU358
 1625 014e DA68     		ldr	r2, [r3, #12]
 1626 0150 1249     		ldr	r1, .L116
 1627 0152 8A42     		cmp	r2, r1
 1628 0154 15D1     		bne	.L115
 1629 0156 7F24     		movs	r4, #127
 1630              	.LVL109:
 173:../../libdaisy/src/hid/disp/display.h ****         currentY_ = (y >= Height()) ? Height() - 1 : y;
 1631              		.loc 6 173 44 view .LVU359
ARM GAS  /tmp/ccZhYDze.s 			page 58


 1632 0158 DCE7     		b	.L93
 1633              	.LVL110:
 1634              	.L107:
 173:../../libdaisy/src/hid/disp/display.h ****         currentY_ = (y >= Height()) ? Height() - 1 : y;
 1635              		.loc 6 173 44 view .LVU360
 1636              	.LBE798:
 1637              	.LBE802:
 405:../../libdaisy/src/hid/disp/display.h ****            || Height() < (currentY_ + font.FontHeight))
 1638              		.loc 6 405 17 view .LVU361
 1639 015a 9847     		blx	r3
 1640              	.LVL111:
 405:../../libdaisy/src/hid/disp/display.h ****            || Height() < (currentY_ + font.FontHeight))
 1641              		.loc 6 405 17 view .LVU362
 1642 015c 0246     		mov	r2, r0
 1643 015e 0190     		str	r0, [sp, #4]
 1644 0160 69E7     		b	.L79
 1645              	.L108:
 406:../../libdaisy/src/hid/disp/display.h ****         {
 1646              		.loc 6 406 21 discriminator 2 view .LVU363
 1647 0162 4846     		mov	r0, r9
 1648 0164 9847     		blx	r3
 1649              	.LVL112:
 1650 0166 0346     		mov	r3, r0
 1651 0168 0190     		str	r0, [sp, #4]
 1652 016a 72E7     		b	.L81
 1653              	.LVL113:
 1654              	.L113:
 1655              	.LBB803:
 1656              	.LBB799:
 174:../../libdaisy/src/hid/disp/display.h ****     }
 1657              		.loc 6 174 33 view .LVU364
 1658 016c 4846     		mov	r0, r9
 1659 016e 9847     		blx	r3
 1660              	.LVL114:
 1661 0170 D7E7     		b	.L95
 1662              	.LVL115:
 1663              	.L111:
 173:../../libdaisy/src/hid/disp/display.h ****         currentY_ = (y >= Height()) ? Height() - 1 : y;
 1664              		.loc 6 173 32 view .LVU365
 1665 0172 4846     		mov	r0, r9
 1666 0174 9047     		blx	r2
 1667              	.LVL116:
 1668 0176 D9F80030 		ldr	r3, [r9]
 1669 017a C9E7     		b	.L92
 1670              	.LVL117:
 1671              	.L82:
 173:../../libdaisy/src/hid/disp/display.h ****         currentY_ = (y >= Height()) ? Height() - 1 : y;
 1672              		.loc 6 173 32 view .LVU366
 1673 017c B9F804A0 		ldrh	r10, [r9, #4]
 1674 0180 BCE7     		b	.L84
 1675              	.LVL118:
 1676              	.L115:
 173:../../libdaisy/src/hid/disp/display.h ****         currentY_ = (y >= Height()) ? Height() - 1 : y;
 1677              		.loc 6 173 43 view .LVU367
 1678 0182 4846     		mov	r0, r9
 1679 0184 9047     		blx	r2
 1680              	.LVL119:
ARM GAS  /tmp/ccZhYDze.s 			page 59


 1681 0186 0138     		subs	r0, r0, #1
 1682 0188 D9F80030 		ldr	r3, [r9]
 1683 018c 84B2     		uxth	r4, r0
 1684              	.LVL120:
 173:../../libdaisy/src/hid/disp/display.h ****         currentY_ = (y >= Height()) ? Height() - 1 : y;
 1685              		.loc 6 173 43 view .LVU368
 1686 018e C1E7     		b	.L93
 1687              	.L114:
 174:../../libdaisy/src/hid/disp/display.h ****     }
 1688              		.loc 6 174 45 view .LVU369
 1689 0190 4846     		mov	r0, r9
 1690 0192 9847     		blx	r3
 1691              	.LVL121:
 1692 0194 0138     		subs	r0, r0, #1
 1693 0196 83B2     		uxth	r3, r0
 1694 0198 0193     		str	r3, [sp, #4]
 1695              	.LVL122:
 174:../../libdaisy/src/hid/disp/display.h ****     }
 1696              		.loc 6 174 45 view .LVU370
 1697 019a CDE7     		b	.L96
 1698              	.L117:
 1699              		.align	2
 1700              	.L116:
 1701 019c 00000000 		.word	_ZNK5daisy11OledDisplayINS_13SSD130xDriverILj128ELj64ENS_24SSD130x4WireSpiTransportEEEE5Widt
 1702 01a0 00000000 		.word	_ZNK5daisy11OledDisplayINS_13SSD130xDriverILj128ELj64ENS_24SSD130x4WireSpiTransportEEEE6Heig
 1703              	.LBE799:
 1704              	.LBE803:
 1705              		.cfi_endproc
 1706              	.LFE4681:
 1708              		.section	.text._ZN5daisy25OneBitGraphicsDisplayImplINS_11OledDisplayINS_13SSD130xDriverILj128ELj64
 1709              		.align	1
 1710              		.p2align 2,,3
 1711              		.weak	_ZN5daisy25OneBitGraphicsDisplayImplINS_11OledDisplayINS_13SSD130xDriverILj128ELj64ENS_24SSD
 1712              		.syntax unified
 1713              		.thumb
 1714              		.thumb_func
 1715              		.fpu fpv5-d16
 1717              	_ZN5daisy25OneBitGraphicsDisplayImplINS_11OledDisplayINS_13SSD130xDriverILj128ELj64ENS_24SSD130x4Wi
 1718              	.LVL123:
 1719              	.LFB4827:
 459:../../libdaisy/src/hid/disp/display.h **** 
 460:../../libdaisy/src/hid/disp/display.h ****     Rectangle WriteStringAligned(const char*    str,
 1720              		.loc 6 460 15 is_stmt 1 view -0
 1721              		.cfi_startproc
 1722              		@ args = 12, pretend = 0, frame = 40
 1723              		@ frame_needed = 0, uses_anonymous_args = 0
 1724              		.loc 6 460 15 is_stmt 0 view .LVU372
 1725 0000 2DE9F04F 		push	{r4, r5, r6, r7, r8, r9, r10, fp, lr}
 1726              		.cfi_def_cfa_offset 36
 1727              		.cfi_offset 4, -36
 1728              		.cfi_offset 5, -32
 1729              		.cfi_offset 6, -28
 1730              		.cfi_offset 7, -24
 1731              		.cfi_offset 8, -20
 1732              		.cfi_offset 9, -16
 1733              		.cfi_offset 10, -12
 1734              		.cfi_offset 11, -8
ARM GAS  /tmp/ccZhYDze.s 			page 60


 1735              		.cfi_offset 14, -4
 1736 0004 0C46     		mov	r4, r1
 1737 0006 8BB0     		sub	sp, sp, #44
 1738              		.cfi_def_cfa_offset 80
 1739              	.LBB938:
 1740              	.LBB939:
 1741              	.LBB940:
 1742              	.LBB941:
 461:../../libdaisy/src/hid/disp/display.h ****                                  const FontDef& font,
 462:../../libdaisy/src/hid/disp/display.h ****                                  Rectangle      boundingBox,
 463:../../libdaisy/src/hid/disp/display.h ****                                  Alignment      alignment,
 464:../../libdaisy/src/hid/disp/display.h ****                                  bool           on) override
 465:../../libdaisy/src/hid/disp/display.h ****     {
 466:../../libdaisy/src/hid/disp/display.h ****         const auto alignedRect
 467:../../libdaisy/src/hid/disp/display.h ****             = GetTextRect(str, font).AlignedWithin(boundingBox, alignment);
 468:../../libdaisy/src/hid/disp/display.h ****         SetCursor(alignedRect.GetX(), alignedRect.GetY());
 469:../../libdaisy/src/hid/disp/display.h ****         ((ChildType*)(this))->ChildType::WriteString(str, font, on);
 470:../../libdaisy/src/hid/disp/display.h ****         return alignedRect;
 471:../../libdaisy/src/hid/disp/display.h ****     }
 472:../../libdaisy/src/hid/disp/display.h **** 
 473:../../libdaisy/src/hid/disp/display.h ****   private:
 474:../../libdaisy/src/hid/disp/display.h ****     uint32_t strlen(const char* string)
 475:../../libdaisy/src/hid/disp/display.h ****     {
 476:../../libdaisy/src/hid/disp/display.h ****         uint32_t result = 0;
 477:../../libdaisy/src/hid/disp/display.h ****         while(*string++ != '\0')
 1743              		.loc 6 477 25 view .LVU373
 1744 0008 1146     		mov	r1, r2
 1745              	.LVL124:
 1746              		.loc 6 477 25 view .LVU374
 1747              	.LBE941:
 1748              	.LBE940:
 1749              	.LBE939:
 1750              	.LBE938:
 460:../../libdaisy/src/hid/disp/display.h ****                                  const FontDef& font,
 1751              		.loc 6 460 15 view .LVU375
 1752 000a 9046     		mov	r8, r2
 1753 000c 0990     		str	r0, [sp, #36]
 1754 000e 1D46     		mov	r5, r3
 1755              	.LVL125:
 1756              	.LBB956:
 1757              	.LBI938:
 478:../../libdaisy/src/hid/disp/display.h ****             result++;
 479:../../libdaisy/src/hid/disp/display.h ****         return result;
 480:../../libdaisy/src/hid/disp/display.h ****     }
 481:../../libdaisy/src/hid/disp/display.h **** 
 482:../../libdaisy/src/hid/disp/display.h ****     Rectangle GetTextRect(const char* text, const FontDef& font)
 1758              		.loc 6 482 15 is_stmt 1 view .LVU376
 1759              	.LBB952:
 1760              	.LBB945:
 1761              	.LBB942:
 477:../../libdaisy/src/hid/disp/display.h ****             result++;
 1762              		.loc 6 477 25 view .LVU377
 477:../../libdaisy/src/hid/disp/display.h ****             result++;
 1763              		.loc 6 477 25 is_stmt 0 view .LVU378
 1764              	.LBE942:
 1765              	.LBE945:
 1766              	.LBE952:
ARM GAS  /tmp/ccZhYDze.s 			page 61


 1767              	.LBE956:
 460:../../libdaisy/src/hid/disp/display.h ****                                  const FontDef& font,
 1768              		.loc 6 460 15 view .LVU379
 1769 0010 9DF85800 		ldrb	r0, [sp, #88]	@ zero_extendqisi2
 1770              	.LVL126:
 1771              	.LBB957:
 1772              	.LBB953:
 1773              	.LBB946:
 1774              	.LBB943:
 477:../../libdaisy/src/hid/disp/display.h ****             result++;
 1775              		.loc 6 477 25 view .LVU380
 1776 0014 11F8012B 		ldrb	r2, [r1], #1	@ zero_extendqisi2
 1777              	.LVL127:
 477:../../libdaisy/src/hid/disp/display.h ****             result++;
 1778              		.loc 6 477 25 view .LVU381
 1779              	.LBE943:
 1780              	.LBE946:
 1781              	.LBE953:
 1782              	.LBE957:
 460:../../libdaisy/src/hid/disp/display.h ****                                  const FontDef& font,
 1783              		.loc 6 460 15 view .LVU382
 1784 0018 0890     		str	r0, [sp, #32]
 1785 001a DDE91463 		ldrd	r6, r3, [sp, #80]
 1786              	.LVL128:
 1787              	.LBB958:
 1788              	.LBB954:
 1789              	.LBB947:
 1790              	.LBB944:
 477:../../libdaisy/src/hid/disp/display.h ****             result++;
 1791              		.loc 6 477 25 view .LVU383
 1792 001e 32B1     		cbz	r2, .L119
 476:../../libdaisy/src/hid/disp/display.h ****         while(*string++ != '\0')
 1793              		.loc 6 476 18 view .LVU384
 1794 0020 0022     		movs	r2, #0
 1795              	.LVL129:
 1796              	.L120:
 477:../../libdaisy/src/hid/disp/display.h ****             result++;
 1797              		.loc 6 477 25 view .LVU385
 1798 0022 11F8010B 		ldrb	r0, [r1], #1	@ zero_extendqisi2
 1799              	.LVL130:
 478:../../libdaisy/src/hid/disp/display.h ****             result++;
 1800              		.loc 6 478 13 view .LVU386
 1801 0026 0132     		adds	r2, r2, #1
 1802              	.LVL131:
 477:../../libdaisy/src/hid/disp/display.h ****             result++;
 1803              		.loc 6 477 25 is_stmt 1 view .LVU387
 1804 0028 0028     		cmp	r0, #0
 1805 002a FAD1     		bne	.L120
 1806 002c 92B2     		uxth	r2, r2
 1807              	.LVL132:
 1808              	.L119:
 477:../../libdaisy/src/hid/disp/display.h ****             result++;
 1809              		.loc 6 477 25 is_stmt 0 view .LVU388
 1810              	.LBE944:
 1811              	.LBE947:
 483:../../libdaisy/src/hid/disp/display.h ****     {
 484:../../libdaisy/src/hid/disp/display.h ****         const auto numChars = strlen(text);
ARM GAS  /tmp/ccZhYDze.s 			page 62


 485:../../libdaisy/src/hid/disp/display.h ****         return {int16_t(numChars * font.FontWidth), font.FontHeight};
 1812              		.loc 6 485 68 view .LVU389
 1813 002e 2978     		ldrb	r1, [r5]	@ zero_extendqisi2
 1814              		.loc 6 485 58 view .LVU390
 1815 0030 6878     		ldrb	r0, [r5, #1]	@ zero_extendqisi2
 1816              		.loc 6 485 68 view .LVU391
 1817 0032 11FB02F2 		smulbb	r2, r1, r2
 1818 0036 01B2     		sxth	r1, r0
 1819              	.LVL133:
 1820              	.LBB948:
 1821              	.LBI948:
 1822              		.file 17 "../../libdaisy/src/hid/disp/graphics_common.h"
   1:../../libdaisy/src/hid/disp/graphics_common.h **** #pragma once
   2:../../libdaisy/src/hid/disp/graphics_common.h **** 
   3:../../libdaisy/src/hid/disp/graphics_common.h **** #include <cstdint>
   4:../../libdaisy/src/hid/disp/graphics_common.h **** 
   5:../../libdaisy/src/hid/disp/graphics_common.h **** namespace daisy
   6:../../libdaisy/src/hid/disp/graphics_common.h **** {
   7:../../libdaisy/src/hid/disp/graphics_common.h **** /** Justifications */
   8:../../libdaisy/src/hid/disp/graphics_common.h **** enum class Alignment
   9:../../libdaisy/src/hid/disp/graphics_common.h **** {
  10:../../libdaisy/src/hid/disp/graphics_common.h ****     centered,
  11:../../libdaisy/src/hid/disp/graphics_common.h ****     topLeft,
  12:../../libdaisy/src/hid/disp/graphics_common.h ****     topCentered,
  13:../../libdaisy/src/hid/disp/graphics_common.h ****     topRight,
  14:../../libdaisy/src/hid/disp/graphics_common.h ****     bottomLeft,
  15:../../libdaisy/src/hid/disp/graphics_common.h ****     bottomCentered,
  16:../../libdaisy/src/hid/disp/graphics_common.h ****     bottomRight,
  17:../../libdaisy/src/hid/disp/graphics_common.h ****     centeredLeft,
  18:../../libdaisy/src/hid/disp/graphics_common.h ****     centeredRight
  19:../../libdaisy/src/hid/disp/graphics_common.h **** };
  20:../../libdaisy/src/hid/disp/graphics_common.h **** 
  21:../../libdaisy/src/hid/disp/graphics_common.h **** class Rectangle
  22:../../libdaisy/src/hid/disp/graphics_common.h **** {
  23:../../libdaisy/src/hid/disp/graphics_common.h ****   public:
  24:../../libdaisy/src/hid/disp/graphics_common.h ****     Rectangle() : x_(0), y_(0), width_(0), height_(0) {}
  25:../../libdaisy/src/hid/disp/graphics_common.h **** 
  26:../../libdaisy/src/hid/disp/graphics_common.h ****     Rectangle(int16_t width, int16_t height)
 1823              		.loc 17 26 5 is_stmt 1 view .LVU392
 1824              	.LBB949:
 1825              	.LBI949:
  27:../../libdaisy/src/hid/disp/graphics_common.h ****     : x_(0), y_(0), width_(max(0, width)), height_(max(0, height))
  28:../../libdaisy/src/hid/disp/graphics_common.h ****     {
  29:../../libdaisy/src/hid/disp/graphics_common.h ****     }
  30:../../libdaisy/src/hid/disp/graphics_common.h **** 
  31:../../libdaisy/src/hid/disp/graphics_common.h ****     Rectangle(int16_t x, int16_t y, int16_t width, int16_t height)
  32:../../libdaisy/src/hid/disp/graphics_common.h ****     : x_(x), y_(y), width_(max(0, width)), height_(max(0, height))
  33:../../libdaisy/src/hid/disp/graphics_common.h ****     {
  34:../../libdaisy/src/hid/disp/graphics_common.h ****     }
  35:../../libdaisy/src/hid/disp/graphics_common.h **** 
  36:../../libdaisy/src/hid/disp/graphics_common.h ****     Rectangle(const Rectangle& other) { *this = other; }
  37:../../libdaisy/src/hid/disp/graphics_common.h **** 
  38:../../libdaisy/src/hid/disp/graphics_common.h ****     Rectangle& operator=(const Rectangle& other)
  39:../../libdaisy/src/hid/disp/graphics_common.h ****     {
  40:../../libdaisy/src/hid/disp/graphics_common.h ****         x_      = other.x_;
  41:../../libdaisy/src/hid/disp/graphics_common.h ****         y_      = other.y_;
  42:../../libdaisy/src/hid/disp/graphics_common.h ****         width_  = other.width_;
ARM GAS  /tmp/ccZhYDze.s 			page 63


  43:../../libdaisy/src/hid/disp/graphics_common.h ****         height_ = other.height_;
  44:../../libdaisy/src/hid/disp/graphics_common.h ****         return *this;
  45:../../libdaisy/src/hid/disp/graphics_common.h ****     }
  46:../../libdaisy/src/hid/disp/graphics_common.h **** 
  47:../../libdaisy/src/hid/disp/graphics_common.h ****     bool operator==(const Rectangle& other) const
  48:../../libdaisy/src/hid/disp/graphics_common.h ****     {
  49:../../libdaisy/src/hid/disp/graphics_common.h ****         return (x_ == other.x_) && (y_ == other.y_) && (width_ == other.width_)
  50:../../libdaisy/src/hid/disp/graphics_common.h ****                && (height_ == other.height_);
  51:../../libdaisy/src/hid/disp/graphics_common.h ****     }
  52:../../libdaisy/src/hid/disp/graphics_common.h ****     bool operator!=(const Rectangle& other) const { return !(*this == other); }
  53:../../libdaisy/src/hid/disp/graphics_common.h **** 
  54:../../libdaisy/src/hid/disp/graphics_common.h ****     bool IsEmpty() const { return (width_ <= 0) || (height_ <= 0); }
  55:../../libdaisy/src/hid/disp/graphics_common.h **** 
  56:../../libdaisy/src/hid/disp/graphics_common.h ****     int16_t GetX() const { return x_; }
  57:../../libdaisy/src/hid/disp/graphics_common.h ****     int16_t GetY() const { return y_; }
  58:../../libdaisy/src/hid/disp/graphics_common.h ****     int16_t GetWidth() const { return width_; }
  59:../../libdaisy/src/hid/disp/graphics_common.h ****     int16_t GetHeight() const { return height_; }
  60:../../libdaisy/src/hid/disp/graphics_common.h ****     int16_t GetRight() const { return x_ + width_; }
  61:../../libdaisy/src/hid/disp/graphics_common.h ****     int16_t GetBottom() const { return y_ + height_; }
  62:../../libdaisy/src/hid/disp/graphics_common.h ****     int16_t GetCenterX() const { return x_ + width_ / 2; }
  63:../../libdaisy/src/hid/disp/graphics_common.h ****     int16_t GetCenterY() const { return y_ + height_ / 2; }
  64:../../libdaisy/src/hid/disp/graphics_common.h **** 
  65:../../libdaisy/src/hid/disp/graphics_common.h ****     Rectangle WithX(int16_t x) const { return {x, y_, width_, height_}; }
  66:../../libdaisy/src/hid/disp/graphics_common.h ****     Rectangle WithY(int16_t y) const { return {x_, y, width_, height_}; }
  67:../../libdaisy/src/hid/disp/graphics_common.h ****     Rectangle WithWidth(int16_t width) const
  68:../../libdaisy/src/hid/disp/graphics_common.h ****     {
  69:../../libdaisy/src/hid/disp/graphics_common.h ****         return {x_, y_, width, height_};
  70:../../libdaisy/src/hid/disp/graphics_common.h ****     }
  71:../../libdaisy/src/hid/disp/graphics_common.h ****     Rectangle WithHeight(int16_t height) const
  72:../../libdaisy/src/hid/disp/graphics_common.h ****     {
  73:../../libdaisy/src/hid/disp/graphics_common.h ****         return {x_, y_, width_, height};
  74:../../libdaisy/src/hid/disp/graphics_common.h ****     }
  75:../../libdaisy/src/hid/disp/graphics_common.h ****     Rectangle WithSize(int16_t width, int16_t height) const
  76:../../libdaisy/src/hid/disp/graphics_common.h ****     {
  77:../../libdaisy/src/hid/disp/graphics_common.h ****         return {x_, y_, width, height};
  78:../../libdaisy/src/hid/disp/graphics_common.h ****     }
  79:../../libdaisy/src/hid/disp/graphics_common.h ****     Rectangle WithWidthKeepingCenter(int16_t width) const
  80:../../libdaisy/src/hid/disp/graphics_common.h ****     {
  81:../../libdaisy/src/hid/disp/graphics_common.h ****         return Rectangle(x_, y_, width, height_)
  82:../../libdaisy/src/hid/disp/graphics_common.h ****             .WithCenter(GetCenterX(), GetCenterY());
  83:../../libdaisy/src/hid/disp/graphics_common.h ****     }
  84:../../libdaisy/src/hid/disp/graphics_common.h ****     Rectangle WithHeightKeepingCenter(int16_t height) const
  85:../../libdaisy/src/hid/disp/graphics_common.h ****     {
  86:../../libdaisy/src/hid/disp/graphics_common.h ****         return Rectangle(x_, y_, width_, height)
  87:../../libdaisy/src/hid/disp/graphics_common.h ****             .WithCenter(GetCenterX(), GetCenterY());
  88:../../libdaisy/src/hid/disp/graphics_common.h ****     }
  89:../../libdaisy/src/hid/disp/graphics_common.h ****     Rectangle WithSizeKeepingCenter(int16_t width, int16_t height) const
  90:../../libdaisy/src/hid/disp/graphics_common.h ****     {
  91:../../libdaisy/src/hid/disp/graphics_common.h ****         return Rectangle(x_, y_, width, height)
  92:../../libdaisy/src/hid/disp/graphics_common.h ****             .WithCenter(GetCenterX(), GetCenterY());
  93:../../libdaisy/src/hid/disp/graphics_common.h ****     }
  94:../../libdaisy/src/hid/disp/graphics_common.h **** 
  95:../../libdaisy/src/hid/disp/graphics_common.h ****     Rectangle Reduced(int16_t sizeToReduce) const
  96:../../libdaisy/src/hid/disp/graphics_common.h ****     {
  97:../../libdaisy/src/hid/disp/graphics_common.h ****         return {int16_t(x_ + sizeToReduce),
  98:../../libdaisy/src/hid/disp/graphics_common.h ****                 int16_t(y_ + sizeToReduce),
  99:../../libdaisy/src/hid/disp/graphics_common.h ****                 int16_t(width_ - 2 * sizeToReduce),
ARM GAS  /tmp/ccZhYDze.s 			page 64


 100:../../libdaisy/src/hid/disp/graphics_common.h ****                 int16_t(height_ - 2 * sizeToReduce)};
 101:../../libdaisy/src/hid/disp/graphics_common.h ****     }
 102:../../libdaisy/src/hid/disp/graphics_common.h ****     Rectangle Reduced(int16_t xToReduce, int16_t yToReduce) const
 103:../../libdaisy/src/hid/disp/graphics_common.h ****     {
 104:../../libdaisy/src/hid/disp/graphics_common.h ****         return {int16_t(x_ + xToReduce),
 105:../../libdaisy/src/hid/disp/graphics_common.h ****                 int16_t(y_ + yToReduce),
 106:../../libdaisy/src/hid/disp/graphics_common.h ****                 int16_t(width_ - 2 * xToReduce),
 107:../../libdaisy/src/hid/disp/graphics_common.h ****                 int16_t(height_ - 2 * yToReduce)};
 108:../../libdaisy/src/hid/disp/graphics_common.h ****     }
 109:../../libdaisy/src/hid/disp/graphics_common.h **** 
 110:../../libdaisy/src/hid/disp/graphics_common.h ****     Rectangle Translated(int16_t x, int16_t y) const
 111:../../libdaisy/src/hid/disp/graphics_common.h ****     {
 112:../../libdaisy/src/hid/disp/graphics_common.h ****         return {int16_t(x_ + x), int16_t(y_ + y), width_, height_};
 113:../../libdaisy/src/hid/disp/graphics_common.h ****     }
 114:../../libdaisy/src/hid/disp/graphics_common.h **** 
 115:../../libdaisy/src/hid/disp/graphics_common.h ****     Rectangle WithLeft(int16_t left) const
 116:../../libdaisy/src/hid/disp/graphics_common.h ****     {
 117:../../libdaisy/src/hid/disp/graphics_common.h ****         const auto newWidth = int16_t((x_ - left) + width_);
 118:../../libdaisy/src/hid/disp/graphics_common.h ****         return {left, y_, newWidth, height_};
 119:../../libdaisy/src/hid/disp/graphics_common.h ****     }
 120:../../libdaisy/src/hid/disp/graphics_common.h **** 
 121:../../libdaisy/src/hid/disp/graphics_common.h ****     Rectangle WithRight(int16_t right) const
 122:../../libdaisy/src/hid/disp/graphics_common.h ****     {
 123:../../libdaisy/src/hid/disp/graphics_common.h ****         const auto newWidth = int16_t(right - x_);
 124:../../libdaisy/src/hid/disp/graphics_common.h ****         return {x_, y_, newWidth, height_};
 125:../../libdaisy/src/hid/disp/graphics_common.h ****     }
 126:../../libdaisy/src/hid/disp/graphics_common.h **** 
 127:../../libdaisy/src/hid/disp/graphics_common.h ****     Rectangle WithTop(int16_t top) const
 128:../../libdaisy/src/hid/disp/graphics_common.h ****     {
 129:../../libdaisy/src/hid/disp/graphics_common.h ****         const auto newHeight = int16_t((y_ - top) + height_);
 130:../../libdaisy/src/hid/disp/graphics_common.h ****         return {x_, top, width_, newHeight};
 131:../../libdaisy/src/hid/disp/graphics_common.h ****     }
 132:../../libdaisy/src/hid/disp/graphics_common.h **** 
 133:../../libdaisy/src/hid/disp/graphics_common.h ****     Rectangle WithBottom(int16_t bottom) const
 134:../../libdaisy/src/hid/disp/graphics_common.h ****     {
 135:../../libdaisy/src/hid/disp/graphics_common.h ****         const auto newHeight = int16_t(bottom - y_);
 136:../../libdaisy/src/hid/disp/graphics_common.h ****         return {x_, y_, width_, newHeight};
 137:../../libdaisy/src/hid/disp/graphics_common.h ****     }
 138:../../libdaisy/src/hid/disp/graphics_common.h **** 
 139:../../libdaisy/src/hid/disp/graphics_common.h ****     Rectangle WithTrimmedLeft(int16_t pxToTrim) const
 140:../../libdaisy/src/hid/disp/graphics_common.h ****     {
 141:../../libdaisy/src/hid/disp/graphics_common.h ****         return {
 142:../../libdaisy/src/hid/disp/graphics_common.h ****             int16_t(x_ + pxToTrim), y_, int16_t(width_ - pxToTrim), height_};
 143:../../libdaisy/src/hid/disp/graphics_common.h ****     }
 144:../../libdaisy/src/hid/disp/graphics_common.h **** 
 145:../../libdaisy/src/hid/disp/graphics_common.h ****     Rectangle WithTrimmedRight(int16_t pxToTrim) const
 146:../../libdaisy/src/hid/disp/graphics_common.h ****     {
 147:../../libdaisy/src/hid/disp/graphics_common.h ****         return {x_, y_, int16_t(width_ - pxToTrim), height_};
 148:../../libdaisy/src/hid/disp/graphics_common.h ****     }
 149:../../libdaisy/src/hid/disp/graphics_common.h **** 
 150:../../libdaisy/src/hid/disp/graphics_common.h ****     Rectangle WithTrimmedTop(int16_t pxToTrim) const
 151:../../libdaisy/src/hid/disp/graphics_common.h ****     {
 152:../../libdaisy/src/hid/disp/graphics_common.h ****         return {
 153:../../libdaisy/src/hid/disp/graphics_common.h ****             x_, int16_t(y_ + pxToTrim), width_, int16_t(height_ - pxToTrim)};
 154:../../libdaisy/src/hid/disp/graphics_common.h ****     }
 155:../../libdaisy/src/hid/disp/graphics_common.h **** 
 156:../../libdaisy/src/hid/disp/graphics_common.h ****     Rectangle WithTrimmedBottom(int16_t pxToTrim) const
ARM GAS  /tmp/ccZhYDze.s 			page 65


 157:../../libdaisy/src/hid/disp/graphics_common.h ****     {
 158:../../libdaisy/src/hid/disp/graphics_common.h ****         return {x_, y_, width_, int16_t(height_ - pxToTrim)};
 159:../../libdaisy/src/hid/disp/graphics_common.h ****     }
 160:../../libdaisy/src/hid/disp/graphics_common.h **** 
 161:../../libdaisy/src/hid/disp/graphics_common.h ****     Rectangle WithCenterX(int16_t centerX) const
 162:../../libdaisy/src/hid/disp/graphics_common.h ****     {
 163:../../libdaisy/src/hid/disp/graphics_common.h ****         return {int16_t(x_ + centerX - GetCenterX()), y_, width_, height_};
 164:../../libdaisy/src/hid/disp/graphics_common.h ****     }
 165:../../libdaisy/src/hid/disp/graphics_common.h **** 
 166:../../libdaisy/src/hid/disp/graphics_common.h ****     Rectangle WithCenterY(int16_t centerY) const
 167:../../libdaisy/src/hid/disp/graphics_common.h ****     {
 168:../../libdaisy/src/hid/disp/graphics_common.h ****         return {x_, int16_t(y_ + centerY - GetCenterY()), width_, height_};
 169:../../libdaisy/src/hid/disp/graphics_common.h ****     }
 170:../../libdaisy/src/hid/disp/graphics_common.h **** 
 171:../../libdaisy/src/hid/disp/graphics_common.h ****     Rectangle WithCenter(int16_t centerX, int16_t centerY) const
 172:../../libdaisy/src/hid/disp/graphics_common.h ****     {
 173:../../libdaisy/src/hid/disp/graphics_common.h ****         return {int16_t(x_ + centerX - GetCenterX()),
 174:../../libdaisy/src/hid/disp/graphics_common.h ****                 int16_t(y_ + centerY - GetCenterY()),
 175:../../libdaisy/src/hid/disp/graphics_common.h ****                 width_,
 176:../../libdaisy/src/hid/disp/graphics_common.h ****                 height_};
 177:../../libdaisy/src/hid/disp/graphics_common.h ****     }
 178:../../libdaisy/src/hid/disp/graphics_common.h **** 
 179:../../libdaisy/src/hid/disp/graphics_common.h ****     Rectangle RemoveFromLeft(int16_t pxToRemove)
 180:../../libdaisy/src/hid/disp/graphics_common.h ****     {
 181:../../libdaisy/src/hid/disp/graphics_common.h ****         const auto result = this->WithWidth(min(pxToRemove, width_));
 182:../../libdaisy/src/hid/disp/graphics_common.h ****         x_ += min(pxToRemove, width_);
 183:../../libdaisy/src/hid/disp/graphics_common.h ****         width_ = max(int16_t(width_ - pxToRemove), 0);
 184:../../libdaisy/src/hid/disp/graphics_common.h ****         return result;
 185:../../libdaisy/src/hid/disp/graphics_common.h ****     }
 186:../../libdaisy/src/hid/disp/graphics_common.h **** 
 187:../../libdaisy/src/hid/disp/graphics_common.h ****     Rectangle RemoveFromRight(int16_t pxToRemove)
 188:../../libdaisy/src/hid/disp/graphics_common.h ****     {
 189:../../libdaisy/src/hid/disp/graphics_common.h ****         const auto canRemove = min(pxToRemove, width_);
 190:../../libdaisy/src/hid/disp/graphics_common.h ****         width_ -= canRemove;
 191:../../libdaisy/src/hid/disp/graphics_common.h ****         return {int16_t(x_ + width_), y_, canRemove, height_};
 192:../../libdaisy/src/hid/disp/graphics_common.h ****     }
 193:../../libdaisy/src/hid/disp/graphics_common.h **** 
 194:../../libdaisy/src/hid/disp/graphics_common.h ****     Rectangle RemoveFromTop(int16_t pxToRemove)
 195:../../libdaisy/src/hid/disp/graphics_common.h ****     {
 196:../../libdaisy/src/hid/disp/graphics_common.h ****         const auto result = this->WithHeight(min(pxToRemove, height_));
 197:../../libdaisy/src/hid/disp/graphics_common.h ****         y_ += min(pxToRemove, height_);
 198:../../libdaisy/src/hid/disp/graphics_common.h ****         height_ = max(height_ - pxToRemove, 0);
 199:../../libdaisy/src/hid/disp/graphics_common.h ****         return result;
 200:../../libdaisy/src/hid/disp/graphics_common.h ****     }
 201:../../libdaisy/src/hid/disp/graphics_common.h **** 
 202:../../libdaisy/src/hid/disp/graphics_common.h ****     Rectangle RemoveFromBottom(int16_t pxToRemove)
 203:../../libdaisy/src/hid/disp/graphics_common.h ****     {
 204:../../libdaisy/src/hid/disp/graphics_common.h ****         const auto canRemove = min(pxToRemove, height_);
 205:../../libdaisy/src/hid/disp/graphics_common.h ****         height_ -= canRemove;
 206:../../libdaisy/src/hid/disp/graphics_common.h ****         return {x_, int16_t(y_ + height_), width_, canRemove};
 207:../../libdaisy/src/hid/disp/graphics_common.h ****     }
 208:../../libdaisy/src/hid/disp/graphics_common.h **** 
 209:../../libdaisy/src/hid/disp/graphics_common.h ****     Rectangle AlignedWithin(const Rectangle& other, Alignment alignment) const
 210:../../libdaisy/src/hid/disp/graphics_common.h ****     {
 211:../../libdaisy/src/hid/disp/graphics_common.h ****         switch(alignment)
 212:../../libdaisy/src/hid/disp/graphics_common.h ****         {
 213:../../libdaisy/src/hid/disp/graphics_common.h ****             case Alignment::topLeft:
ARM GAS  /tmp/ccZhYDze.s 			page 66


 214:../../libdaisy/src/hid/disp/graphics_common.h ****                 return {other.x_, other.y_, width_, height_};
 215:../../libdaisy/src/hid/disp/graphics_common.h ****             case Alignment::topRight:
 216:../../libdaisy/src/hid/disp/graphics_common.h ****                 return {int16_t(other.GetRight() - width_),
 217:../../libdaisy/src/hid/disp/graphics_common.h ****                         other.y_,
 218:../../libdaisy/src/hid/disp/graphics_common.h ****                         width_,
 219:../../libdaisy/src/hid/disp/graphics_common.h ****                         height_};
 220:../../libdaisy/src/hid/disp/graphics_common.h ****             case Alignment::topCentered:
 221:../../libdaisy/src/hid/disp/graphics_common.h ****                 return {int16_t(x_ + (other.GetCenterX() - GetCenterX())),
 222:../../libdaisy/src/hid/disp/graphics_common.h ****                         other.y_,
 223:../../libdaisy/src/hid/disp/graphics_common.h ****                         width_,
 224:../../libdaisy/src/hid/disp/graphics_common.h ****                         height_};
 225:../../libdaisy/src/hid/disp/graphics_common.h ****             case Alignment::bottomLeft:
 226:../../libdaisy/src/hid/disp/graphics_common.h ****                 return {other.x_,
 227:../../libdaisy/src/hid/disp/graphics_common.h ****                         int16_t(other.GetBottom() - height_),
 228:../../libdaisy/src/hid/disp/graphics_common.h ****                         width_,
 229:../../libdaisy/src/hid/disp/graphics_common.h ****                         height_};
 230:../../libdaisy/src/hid/disp/graphics_common.h ****             case Alignment::bottomRight:
 231:../../libdaisy/src/hid/disp/graphics_common.h ****                 return {int16_t(other.GetRight() - width_),
 232:../../libdaisy/src/hid/disp/graphics_common.h ****                         int16_t(other.GetBottom() - height_),
 233:../../libdaisy/src/hid/disp/graphics_common.h ****                         width_,
 234:../../libdaisy/src/hid/disp/graphics_common.h ****                         height_};
 235:../../libdaisy/src/hid/disp/graphics_common.h ****             case Alignment::bottomCentered:
 236:../../libdaisy/src/hid/disp/graphics_common.h ****                 return {int16_t(x_ + (other.GetCenterX() - GetCenterX())),
 237:../../libdaisy/src/hid/disp/graphics_common.h ****                         int16_t(other.GetBottom() - height_),
 238:../../libdaisy/src/hid/disp/graphics_common.h ****                         width_,
 239:../../libdaisy/src/hid/disp/graphics_common.h ****                         height_};
 240:../../libdaisy/src/hid/disp/graphics_common.h ****             case Alignment::centeredLeft:
 241:../../libdaisy/src/hid/disp/graphics_common.h ****                 return {other.x_,
 242:../../libdaisy/src/hid/disp/graphics_common.h ****                         int16_t(y_ + (other.GetCenterY() - GetCenterY())),
 243:../../libdaisy/src/hid/disp/graphics_common.h ****                         width_,
 244:../../libdaisy/src/hid/disp/graphics_common.h ****                         height_};
 245:../../libdaisy/src/hid/disp/graphics_common.h ****             case Alignment::centeredRight:
 246:../../libdaisy/src/hid/disp/graphics_common.h ****                 return {int16_t(other.GetRight() - width_),
 247:../../libdaisy/src/hid/disp/graphics_common.h ****                         int16_t(y_ + (other.GetCenterY() - GetCenterY())),
 248:../../libdaisy/src/hid/disp/graphics_common.h ****                         width_,
 249:../../libdaisy/src/hid/disp/graphics_common.h ****                         height_};
 250:../../libdaisy/src/hid/disp/graphics_common.h ****             case Alignment::centered:
 251:../../libdaisy/src/hid/disp/graphics_common.h ****                 return {int16_t(x_ + (other.GetCenterX() - GetCenterX())),
 252:../../libdaisy/src/hid/disp/graphics_common.h ****                         int16_t(y_ + (other.GetCenterY() - GetCenterY())),
 253:../../libdaisy/src/hid/disp/graphics_common.h ****                         width_,
 254:../../libdaisy/src/hid/disp/graphics_common.h ****                         height_};
 255:../../libdaisy/src/hid/disp/graphics_common.h ****             default: return {};
 256:../../libdaisy/src/hid/disp/graphics_common.h ****         }
 257:../../libdaisy/src/hid/disp/graphics_common.h ****     }
 258:../../libdaisy/src/hid/disp/graphics_common.h **** 
 259:../../libdaisy/src/hid/disp/graphics_common.h ****   private:
 260:../../libdaisy/src/hid/disp/graphics_common.h ****     int16_t x_, y_, width_, height_;
 261:../../libdaisy/src/hid/disp/graphics_common.h ****     int16_t max(int16_t a, int16_t b) { return (a > b) ? a : b; }
 1826              		.loc 17 261 13 view .LVU393
 1827              		.loc 17 261 13 is_stmt 0 view .LVU394
 1828              	.LBE949:
 1829              	.LBE948:
 1830              	.LBE954:
 1831              	.LBE958:
 1832              		.loc 17 261 41 is_stmt 1 view .LVU395
 1833 0038 12B2     		sxth	r2, r2
 1834 003a 22EAE272 		bic	r2, r2, r2, asr #31
ARM GAS  /tmp/ccZhYDze.s 			page 67


 1835              	.LVL134:
 1836              	.LBB959:
 1837              	.LBB955:
 1838              	.LBB951:
 1839              	.LBB950:
 1840              	.LBI950:
 1841              		.loc 17 261 13 view .LVU396
 1842              		.loc 17 261 13 is_stmt 0 view .LVU397
 1843              	.LBE950:
 1844              	.LBE951:
 1845              	.LBE955:
 1846              	.LBE959:
 1847              		.loc 17 261 41 is_stmt 1 view .LVU398
 1848              	.LBB960:
 1849              	.LBI960:
 209:../../libdaisy/src/hid/disp/graphics_common.h ****     {
 1850              		.loc 17 209 15 view .LVU399
 1851              	.LBB961:
 211:../../libdaisy/src/hid/disp/graphics_common.h ****         {
 1852              		.loc 17 211 9 view .LVU400
 1853 003e 082B     		cmp	r3, #8
 1854 0040 00F2AD81 		bhi	.L121
 1855 0044 DFE813F0 		tbh	[pc, r3, lsl #1]
 1856              	.L123:
 1857 0048 0001     		.2byte	(.L131-.L123)/2
 1858 004a 1201     		.2byte	(.L130-.L123)/2
 1859 004c 1E01     		.2byte	(.L129-.L123)/2
 1860 004e 3201     		.2byte	(.L128-.L123)/2
 1861 0050 4001     		.2byte	(.L127-.L123)/2
 1862 0052 5001     		.2byte	(.L126-.L123)/2
 1863 0054 6B01     		.2byte	(.L125-.L123)/2
 1864 0056 7801     		.2byte	(.L124-.L123)/2
 1865 0058 0900     		.2byte	(.L122-.L123)/2
 1866              		.p2align 1
 1867              	.L122:
 245:../../libdaisy/src/hid/disp/graphics_common.h ****                 return {int16_t(other.GetRight() - width_),
 1868              		.loc 17 245 13 view .LVU401
 246:../../libdaisy/src/hid/disp/graphics_common.h ****                         int16_t(y_ + (other.GetCenterY() - GetCenterY())),
 1869              		.loc 17 246 17 view .LVU402
 1870              	.LBB962:
 1871              	.LBI962:
  60:../../libdaisy/src/hid/disp/graphics_common.h ****     int16_t GetBottom() const { return y_ + height_; }
 1872              		.loc 17 60 13 view .LVU403
 1873              	.LVL135:
 1874              	.LBB963:
  60:../../libdaisy/src/hid/disp/graphics_common.h ****     int16_t GetBottom() const { return y_ + height_; }
 1875              		.loc 17 60 32 view .LVU404
  60:../../libdaisy/src/hid/disp/graphics_common.h ****     int16_t GetBottom() const { return y_ + height_; }
 1876              		.loc 17 60 42 is_stmt 0 view .LVU405
 1877 005a 3788     		ldrh	r7, [r6]
 1878 005c B088     		ldrh	r0, [r6, #4]
 1879              	.LBE963:
 1880              	.LBE962:
 1881              	.LBB965:
 1882              	.LBB966:
  63:../../libdaisy/src/hid/disp/graphics_common.h **** 
 1883              		.loc 17 63 54 view .LVU406
ARM GAS  /tmp/ccZhYDze.s 			page 68


 1884 005e B6F90630 		ldrsh	r3, [r6, #6]
 1885              	.LVL136:
  63:../../libdaisy/src/hid/disp/graphics_common.h **** 
 1886              		.loc 17 63 54 view .LVU407
 1887              	.LBE966:
 1888              	.LBE965:
 1889              	.LBB970:
 1890              	.LBB964:
  60:../../libdaisy/src/hid/disp/graphics_common.h ****     int16_t GetBottom() const { return y_ + height_; }
 1891              		.loc 17 60 42 view .LVU408
 1892 0062 0744     		add	r7, r7, r0
 1893              	.LBE964:
 1894              	.LBE970:
 1895              	.LBB971:
 1896              	.LBB967:
  63:../../libdaisy/src/hid/disp/graphics_common.h **** 
 1897              		.loc 17 63 54 view .LVU409
 1898 0064 002B     		cmp	r3, #0
 1899              	.LBE967:
 1900              	.LBE971:
 246:../../libdaisy/src/hid/disp/graphics_common.h ****                         int16_t(y_ + (other.GetCenterY() - GetCenterY())),
 1901              		.loc 17 246 50 view .LVU410
 1902 0066 A7EB0207 		sub	r7, r7, r2
 1903 006a BFB2     		uxth	r7, r7
 1904              	.LBB972:
 1905              	.LBI965:
  63:../../libdaisy/src/hid/disp/graphics_common.h **** 
 1906              		.loc 17 63 13 is_stmt 1 view .LVU411
 1907              	.LVL137:
 1908              	.LBB968:
  63:../../libdaisy/src/hid/disp/graphics_common.h **** 
 1909              		.loc 17 63 34 view .LVU412
  63:../../libdaisy/src/hid/disp/graphics_common.h **** 
 1910              		.loc 17 63 34 is_stmt 0 view .LVU413
 1911              	.LBE968:
 1912              	.LBE972:
 1913              	.LBB973:
 1914              	.LBI973:
  63:../../libdaisy/src/hid/disp/graphics_common.h **** 
 1915              		.loc 17 63 13 is_stmt 1 view .LVU414
 1916              	.LBB974:
  63:../../libdaisy/src/hid/disp/graphics_common.h **** 
 1917              		.loc 17 63 34 view .LVU415
 1918              	.LBE974:
 1919              	.LBE973:
 1920              	.LBB975:
 1921              	.LBB969:
  63:../../libdaisy/src/hid/disp/graphics_common.h **** 
 1922              		.loc 17 63 54 is_stmt 0 view .LVU416
 1923 006c C0F2FC80 		blt	.L195
 1924              	.LVL138:
 1925              	.L138:
  63:../../libdaisy/src/hid/disp/graphics_common.h **** 
 1926              		.loc 17 63 54 view .LVU417
 1927              	.LBE969:
 1928              	.LBE975:
 1929              	.LBB976:
ARM GAS  /tmp/ccZhYDze.s 			page 69


 1930              	.LBB977:
  63:../../libdaisy/src/hid/disp/graphics_common.h **** 
 1931              		.loc 17 63 44 view .LVU418
 1932 0070 B6F802C0 		ldrh	ip, [r6, #2]
 1933              	.LBE977:
 1934              	.LBE976:
 1935              	.LBB983:
 1936              	.LBB984:
 1937              	.LBB985:
  32:../../libdaisy/src/hid/disp/graphics_common.h ****     {
 1938              		.loc 17 32 66 view .LVU419
 1939 0074 0998     		ldr	r0, [sp, #36]
 1940              	.LBE985:
 1941              	.LBE984:
 1942              	.LBE983:
 1943              	.LBB994:
 1944              	.LBB978:
  63:../../libdaisy/src/hid/disp/graphics_common.h **** 
 1945              		.loc 17 63 44 view .LVU420
 1946 0076 0CEB6306 		add	r6, ip, r3, asr #1
 1947              	.LVL139:
  63:../../libdaisy/src/hid/disp/graphics_common.h **** 
 1948              		.loc 17 63 44 view .LVU421
 1949              	.LBE978:
 1950              	.LBE994:
 1951              	.LBB995:
 1952              	.LBB991:
 1953              	.LBB988:
  32:../../libdaisy/src/hid/disp/graphics_common.h ****     {
 1954              		.loc 17 32 66 view .LVU422
 1955 007a 0346     		mov	r3, r0
 1956 007c 0780     		strh	r7, [r0]	@ movhi
 1957              	.L193:
  32:../../libdaisy/src/hid/disp/graphics_common.h ****     {
 1958              		.loc 17 32 66 view .LVU423
 1959 007e 8280     		strh	r2, [r0, #4]	@ movhi
 1960 0080 D980     		strh	r1, [r3, #6]	@ movhi
 1961              	.LBE988:
 1962              	.LBE991:
 1963              	.LBE995:
 252:../../libdaisy/src/hid/disp/graphics_common.h ****                         width_,
 1964              		.loc 17 252 58 view .LVU424
 1965 0082 A6EB5101 		sub	r1, r6, r1, lsr #1
 1966 0086 8EB2     		uxth	r6, r1
 1967              	.LVL140:
 1968              	.LBB996:
 1969              	.LBI983:
  31:../../libdaisy/src/hid/disp/graphics_common.h ****     : x_(x), y_(y), width_(max(0, width)), height_(max(0, height))
 1970              		.loc 17 31 5 is_stmt 1 view .LVU425
 1971              	.LBB992:
 1972              	.LBB989:
  32:../../libdaisy/src/hid/disp/graphics_common.h ****     {
 1973              		.loc 17 32 66 is_stmt 0 view .LVU426
 1974 0088 5E80     		strh	r6, [r3, #2]	@ movhi
 1975              	.LVL141:
 1976              	.LBB986:
 1977              	.LBI986:
ARM GAS  /tmp/ccZhYDze.s 			page 70


 1978              		.loc 17 261 13 is_stmt 1 view .LVU427
 1979              		.loc 17 261 13 is_stmt 0 view .LVU428
 1980              	.LBE986:
 1981              	.LBE989:
 1982              	.LBE992:
 1983              	.LBE996:
 1984              	.LBE961:
 1985              	.LBE960:
 1986              		.loc 17 261 41 is_stmt 1 view .LVU429
 1987              	.LBB1181:
 1988              	.LBB1166:
 1989              	.LBB997:
 1990              	.LBB993:
 1991              	.LBB990:
 1992              	.LBB987:
 1993              	.LBI987:
 1994              		.loc 17 261 13 view .LVU430
 1995              		.loc 17 261 13 is_stmt 0 view .LVU431
 1996              	.LBE987:
 1997              	.LBE990:
 1998              	.LBE993:
 1999              	.LBE997:
 2000              	.LBE1166:
 2001              	.LBE1181:
 2002              		.loc 17 261 41 is_stmt 1 view .LVU432
 2003              	.L132:
  56:../../libdaisy/src/hid/disp/graphics_common.h ****     int16_t GetY() const { return y_; }
 2004              		.loc 17 56 28 view .LVU433
  57:../../libdaisy/src/hid/disp/graphics_common.h ****     int16_t GetWidth() const { return width_; }
 2005              		.loc 17 57 28 view .LVU434
 2006              	.LBB1182:
 2007              	.LBI1182:
 171:../../libdaisy/src/hid/disp/display.h ****     {
 2008              		.loc 6 171 10 view .LVU435
 2009              	.LBB1183:
 173:../../libdaisy/src/hid/disp/display.h ****         currentY_ = (y >= Height()) ? Height() - 1 : y;
 2010              		.loc 6 173 9 view .LVU436
 2011 008a B64A     		ldr	r2, .L205
 173:../../libdaisy/src/hid/disp/display.h ****         currentY_ = (y >= Height()) ? Height() - 1 : y;
 2012              		.loc 6 173 33 is_stmt 0 view .LVU437
 2013 008c 2368     		ldr	r3, [r4]
 2014 008e 1146     		mov	r1, r2
 2015 0090 0192     		str	r2, [sp, #4]
 2016 0092 DA68     		ldr	r2, [r3, #12]
 2017 0094 8A42     		cmp	r2, r1
 2018 0096 40F08F81 		bne	.L140
 2019 009a 8020     		movs	r0, #128
 2020              	.LVL142:
 2021              	.L141:
 173:../../libdaisy/src/hid/disp/display.h ****         currentY_ = (y >= Height()) ? Height() - 1 : y;
 2022              		.loc 6 173 19 view .LVU438
 2023 009c B842     		cmp	r0, r7
 2024 009e 05D8     		bhi	.L142
 173:../../libdaisy/src/hid/disp/display.h ****         currentY_ = (y >= Height()) ? Height() - 1 : y;
 2025              		.loc 6 173 44 view .LVU439
 2026 00a0 DA68     		ldr	r2, [r3, #12]
 2027 00a2 0199     		ldr	r1, [sp, #4]
ARM GAS  /tmp/ccZhYDze.s 			page 71


 2028 00a4 8A42     		cmp	r2, r1
 2029 00a6 40F09A81 		bne	.L196
 2030 00aa 7F27     		movs	r7, #127
 2031              	.L142:
 174:../../libdaisy/src/hid/disp/display.h ****     }
 2032              		.loc 6 174 34 view .LVU440
 2033 00ac 9B68     		ldr	r3, [r3, #8]
 2034 00ae AE4A     		ldr	r2, .L205+4
 173:../../libdaisy/src/hid/disp/display.h ****         currentY_ = (y >= Height()) ? Height() - 1 : y;
 2035              		.loc 6 173 19 view .LVU441
 2036 00b0 A780     		strh	r7, [r4, #4]	@ movhi
 174:../../libdaisy/src/hid/disp/display.h ****     }
 2037              		.loc 6 174 9 is_stmt 1 view .LVU442
 2038 00b2 9342     		cmp	r3, r2
 2039 00b4 0392     		str	r2, [sp, #12]
 2040 00b6 40F08A81 		bne	.L172
 174:../../libdaisy/src/hid/disp/display.h ****     }
 2041              		.loc 6 174 34 is_stmt 0 view .LVU443
 2042 00ba 4020     		movs	r0, #64
 2043              	.L144:
 174:../../libdaisy/src/hid/disp/display.h ****     }
 2044              		.loc 6 174 19 view .LVU444
 2045 00bc B042     		cmp	r0, r6
 2046 00be 06D8     		bhi	.L146
 174:../../libdaisy/src/hid/disp/display.h ****     }
 2047              		.loc 6 174 46 view .LVU445
 2048 00c0 2368     		ldr	r3, [r4]
 2049 00c2 039A     		ldr	r2, [sp, #12]
 2050 00c4 9B68     		ldr	r3, [r3, #8]
 2051 00c6 9342     		cmp	r3, r2
 2052 00c8 40F08481 		bne	.L197
 2053 00cc 3F26     		movs	r6, #63
 2054              	.L146:
 174:../../libdaisy/src/hid/disp/display.h ****     }
 2055              		.loc 6 174 46 view .LVU446
 2056 00ce 6B78     		ldrb	r3, [r5, #1]	@ zero_extendqisi2
 174:../../libdaisy/src/hid/disp/display.h ****     }
 2057              		.loc 6 174 19 view .LVU447
 2058 00d0 E680     		strh	r6, [r4, #6]	@ movhi
 2059              	.LVL143:
 174:../../libdaisy/src/hid/disp/display.h ****     }
 2060              		.loc 6 174 19 view .LVU448
 2061 00d2 0493     		str	r3, [sp, #16]
 2062              	.LBE1183:
 2063              	.LBE1182:
 2064              	.LBB1187:
 2065              	.LBB1188:
 443:../../libdaisy/src/hid/disp/display.h ****         {
 2066              		.loc 6 443 9 view .LVU449
 2067 00d4 98F80060 		ldrb	r6, [r8]	@ zero_extendqisi2
 2068 00d8 6B68     		ldr	r3, [r5, #4]
 2069 00da 95F800B0 		ldrb	fp, [r5]	@ zero_extendqisi2
 2070              	.LVL144:
 443:../../libdaisy/src/hid/disp/display.h ****         {
 2071              		.loc 6 443 9 view .LVU450
 2072 00de 0793     		str	r3, [sp, #28]
 2073              	.LVL145:
ARM GAS  /tmp/ccZhYDze.s 			page 72


 443:../../libdaisy/src/hid/disp/display.h ****         {
 2074              		.loc 6 443 9 view .LVU451
 2075              	.LBE1188:
 2076              	.LBI1187:
 440:../../libdaisy/src/hid/disp/display.h ****     {
 2077              		.loc 6 440 10 is_stmt 1 view .LVU452
 2078              	.LBB1231:
 443:../../libdaisy/src/hid/disp/display.h ****         {
 2079              		.loc 6 443 9 view .LVU453
 2080 00e0 002E     		cmp	r6, #0
 2081 00e2 00F0AD80 		beq	.L118
 2082              	.LVL146:
 2083              	.L148:
 2084              	.LBB1189:
 2085              	.LBI1189:
 396:../../libdaisy/src/hid/disp/display.h ****     {
 2086              		.loc 6 396 10 view .LVU454
 2087              	.LBB1190:
 401:../../libdaisy/src/hid/disp/display.h ****             return 0;
 2088              		.loc 6 401 20 is_stmt 0 view .LVU455
 2089 00e6 A6F12005 		sub	r5, r6, #32
 401:../../libdaisy/src/hid/disp/display.h ****             return 0;
 2090              		.loc 6 401 9 view .LVU456
 2091 00ea EBB2     		uxtb	r3, r5
 2092 00ec 5E2B     		cmp	r3, #94
 2093 00ee 00F23481 		bhi	.L152
 405:../../libdaisy/src/hid/disp/display.h ****            || Height() < (currentY_ + font.FontHeight))
 2094              		.loc 6 405 17 view .LVU457
 2095 00f2 2368     		ldr	r3, [r4]
 2096 00f4 019A     		ldr	r2, [sp, #4]
 2097 00f6 DB68     		ldr	r3, [r3, #12]
 2098 00f8 9342     		cmp	r3, r2
 2099 00fa 40F03081 		bne	.L198
 2100 00fe 8020     		movs	r0, #128
 2101              	.L151:
 405:../../libdaisy/src/hid/disp/display.h ****            || Height() < (currentY_ + font.FontHeight))
 2102              		.loc 6 405 23 view .LVU458
 2103 0100 A388     		ldrh	r3, [r4, #4]
 405:../../libdaisy/src/hid/disp/display.h ****            || Height() < (currentY_ + font.FontHeight))
 2104              		.loc 6 405 33 view .LVU459
 2105 0102 5B44     		add	r3, r3, fp
 406:../../libdaisy/src/hid/disp/display.h ****         {
 2106              		.loc 6 406 12 view .LVU460
 2107 0104 9842     		cmp	r0, r3
 2108 0106 C0F22881 		blt	.L152
 406:../../libdaisy/src/hid/disp/display.h ****         {
 2109              		.loc 6 406 21 view .LVU461
 2110 010a 2368     		ldr	r3, [r4]
 2111 010c 039A     		ldr	r2, [sp, #12]
 2112 010e 9B68     		ldr	r3, [r3, #8]
 2113 0110 9342     		cmp	r3, r2
 2114 0112 40F02B81 		bne	.L199
 2115 0116 4020     		movs	r0, #64
 2116              	.L153:
 406:../../libdaisy/src/hid/disp/display.h ****         {
 2117              		.loc 6 406 27 view .LVU462
 2118 0118 E188     		ldrh	r1, [r4, #6]
ARM GAS  /tmp/ccZhYDze.s 			page 73


 406:../../libdaisy/src/hid/disp/display.h ****         {
 2119              		.loc 6 406 37 view .LVU463
 2120 011a 049A     		ldr	r2, [sp, #16]
 406:../../libdaisy/src/hid/disp/display.h ****         {
 2121              		.loc 6 406 27 view .LVU464
 2122 011c 0291     		str	r1, [sp, #8]
 406:../../libdaisy/src/hid/disp/display.h ****         {
 2123              		.loc 6 406 37 view .LVU465
 2124 011e 8B18     		adds	r3, r1, r2
 406:../../libdaisy/src/hid/disp/display.h ****         {
 2125              		.loc 6 406 12 view .LVU466
 2126 0120 9842     		cmp	r0, r3
 2127 0122 C0F21A81 		blt	.L152
 2128              	.LVL147:
 413:../../libdaisy/src/hid/disp/display.h ****         {
 2129              		.loc 6 413 22 is_stmt 1 view .LVU467
 2130 0126 1046     		mov	r0, r2
 2131 0128 002A     		cmp	r2, #0
 2132 012a 00F02981 		beq	.L154
 415:../../libdaisy/src/hid/disp/display.h ****             for(j = 0; j < font.FontWidth; j++)
 2133              		.loc 6 415 37 is_stmt 0 view .LVU468
 2134 012e 1346     		mov	r3, r2
 2135 0130 6FF00047 		mvn	r7, #-2147483648
 2136 0134 B4F804C0 		ldrh	ip, [r4, #4]
 2137 0138 03FB05F3 		mul	r3, r3, r5
 2138 013c 079D     		ldr	r5, [sp, #28]
 2139 013e CDF81880 		str	r8, [sp, #24]
 2140 0142 AA1E     		subs	r2, r5, #2
 2141 0144 1F44     		add	r7, r7, r3
 2142 0146 0344     		add	r3, r3, r0
 2143 0148 DDF82090 		ldr	r9, [sp, #32]
 2144 014c 05EB4707 		add	r7, r5, r7, lsl #1
 2145 0150 0596     		str	r6, [sp, #20]
 2146 0152 02EB4303 		add	r3, r2, r3, lsl #1
 2147 0156 2246     		mov	r2, r4
 2148 0158 5C46     		mov	r4, fp
 2149              	.LVL148:
 415:../../libdaisy/src/hid/disp/display.h ****             for(j = 0; j < font.FontWidth; j++)
 2150              		.loc 6 415 37 view .LVU469
 2151 015a 9846     		mov	r8, r3
 2152              	.LVL149:
 415:../../libdaisy/src/hid/disp/display.h ****             for(j = 0; j < font.FontWidth; j++)
 2153              		.loc 6 415 37 view .LVU470
 2154 015c 9346     		mov	fp, r2
 2155              	.LVL150:
 2156              	.L157:
 415:../../libdaisy/src/hid/disp/display.h ****             for(j = 0; j < font.FontWidth; j++)
 2157              		.loc 6 415 13 view .LVU471
 2158 015e 37F802AF 		ldrh	r10, [r7, #2]!
 2159              	.LVL151:
 416:../../libdaisy/src/hid/disp/display.h ****             {
 2160              		.loc 6 416 26 is_stmt 1 view .LVU472
 2161 0162 A4B3     		cbz	r4, .L162
 2162              	.LBB1191:
 2163              	.LBB1192:
 2164              	.LBB1193:
 2165              	.LBB1194:
ARM GAS  /tmp/ccZhYDze.s 			page 74


 2166              	.LBB1195:
 246:../../libdaisy/src/dev/oled_ssd130x.h ****     }
 2167              		.loc 16 246 49 is_stmt 0 view .LVU473
 2168 0164 0125     		movs	r5, #1
 246:../../libdaisy/src/dev/oled_ssd130x.h ****     }
 2169              		.loc 16 246 55 view .LVU474
 2170 0166 01F00702 		and	r2, r1, #7
 246:../../libdaisy/src/dev/oled_ssd130x.h ****     }
 2171              		.loc 16 246 28 view .LVU475
 2172 016a C808     		lsrs	r0, r1, #3
 2173 016c 0CF11403 		add	r3, ip, #20
 246:../../libdaisy/src/dev/oled_ssd130x.h ****     }
 2174              		.loc 16 246 49 view .LVU476
 2175 0170 05FA02F2 		lsl	r2, r5, r2
 2176 0174 6546     		mov	r5, ip
 2177 0176 03EBC013 		add	r3, r3, r0, lsl #7
 2178              	.LBE1195:
 2179              	.LBE1194:
 2180              	.LBE1193:
 2181              	.LBE1192:
 2182              	.LBE1191:
 416:../../libdaisy/src/hid/disp/display.h ****             {
 2183              		.loc 6 416 19 view .LVU477
 2184 017a 0020     		movs	r0, #0
 2185              	.LBB1213:
 2186              	.LBB1208:
 2187              	.LBB1203:
 2188              	.LBB1199:
 2189              	.LBB1196:
 246:../../libdaisy/src/dev/oled_ssd130x.h ****     }
 2190              		.loc 16 246 42 view .LVU478
 2191 017c 52B2     		sxtb	r2, r2
 2192 017e 5B44     		add	r3, r3, fp
 2193 0180 6FEA020E 		mvn	lr, r2
 2194 0184 0EE0     		b	.L163
 2195              	.LVL152:
 2196              	.L200:
 246:../../libdaisy/src/dev/oled_ssd130x.h ****     }
 2197              		.loc 16 246 42 view .LVU479
 2198              	.LBE1196:
 2199              	.LBE1199:
 2200              	.LBE1203:
 2201              	.LBE1208:
 2202              	.LBE1213:
 2203              	.LBB1214:
 2204              	.LBI1214:
  41:../../libdaisy/src/hid/disp/oled_display.h ****     {
 2205              		.loc 5 41 10 is_stmt 1 view .LVU480
 2206              	.LBB1215:
 2207              	.LBI1215:
 239:../../libdaisy/src/dev/oled_ssd130x.h ****     {
 2208              		.loc 16 239 10 view .LVU481
 2209              	.LBB1216:
 241:../../libdaisy/src/dev/oled_ssd130x.h ****             return;
 2210              		.loc 16 241 9 is_stmt 0 view .LVU482
 2211 0186 7F2D     		cmp	r5, #127
 2212 0188 07D8     		bhi	.L159
ARM GAS  /tmp/ccZhYDze.s 			page 75


 2213 018a 3F29     		cmp	r1, #63
 2214 018c 05D8     		bhi	.L159
 244:../../libdaisy/src/dev/oled_ssd130x.h ****         else
 2215              		.loc 16 244 42 view .LVU483
 2216 018e 1E78     		ldrb	r6, [r3]	@ zero_extendqisi2
 243:../../libdaisy/src/dev/oled_ssd130x.h ****             buffer_[x + (y / 8) * width] |= (1 << (y % 8));
 2217              		.loc 16 243 9 view .LVU484
 2218 0190 B9F1000F 		cmp	r9, #0
 2219 0194 12D0     		beq	.L161
 2220              	.L194:
 243:../../libdaisy/src/dev/oled_ssd130x.h ****             buffer_[x + (y / 8) * width] |= (1 << (y % 8));
 2221              		.loc 16 243 9 view .LVU485
 2222              	.LBE1216:
 2223              	.LBE1215:
 2224              	.LBE1214:
 2225              	.LBB1217:
 2226              	.LBB1209:
 2227              	.LBB1204:
 244:../../libdaisy/src/dev/oled_ssd130x.h ****         else
 2228              		.loc 16 244 42 view .LVU486
 2229 0196 1643     		orrs	r6, r6, r2
 244:../../libdaisy/src/dev/oled_ssd130x.h ****         else
 2230              		.loc 16 244 13 view .LVU487
 2231 0198 1E70     		strb	r6, [r3]
 2232              	.L159:
 2233              	.LBE1204:
 2234              	.LBE1209:
 2235              	.LBE1217:
 416:../../libdaisy/src/hid/disp/display.h ****             {
 2236              		.loc 6 416 13 is_stmt 1 view .LVU488
 2237 019a 0130     		adds	r0, r0, #1
 2238              	.LVL153:
 416:../../libdaisy/src/hid/disp/display.h ****             {
 2239              		.loc 6 416 26 view .LVU489
 2240 019c 0133     		adds	r3, r3, #1
 2241 019e 0135     		adds	r5, r5, #1
 2242 01a0 8442     		cmp	r4, r0
 2243 01a2 14D0     		beq	.L162
 2244              	.LVL154:
 2245              	.L163:
 418:../../libdaisy/src/hid/disp/display.h ****                 {
 2246              		.loc 6 418 23 is_stmt 0 view .LVU490
 2247 01a4 0AFA00F6 		lsl	r6, r10, r0
 418:../../libdaisy/src/hid/disp/display.h ****                 {
 2248              		.loc 6 418 17 view .LVU491
 2249 01a8 3604     		lsls	r6, r6, #16
 2250 01aa ECD4     		bmi	.L200
 2251              	.LVL155:
 2252              	.LBB1218:
 2253              	.LBI1191:
  41:../../libdaisy/src/hid/disp/oled_display.h ****     {
 2254              		.loc 5 41 10 is_stmt 1 view .LVU492
 2255              	.LBB1210:
 2256              	.LBI1192:
 239:../../libdaisy/src/dev/oled_ssd130x.h ****     {
 2257              		.loc 16 239 10 view .LVU493
 2258              	.LBB1205:
ARM GAS  /tmp/ccZhYDze.s 			page 76


 241:../../libdaisy/src/dev/oled_ssd130x.h ****             return;
 2259              		.loc 16 241 9 is_stmt 0 view .LVU494
 2260 01ac 7F2D     		cmp	r5, #127
 2261 01ae F4D8     		bhi	.L159
 2262 01b0 3F29     		cmp	r1, #63
 2263 01b2 F2D8     		bhi	.L159
 244:../../libdaisy/src/dev/oled_ssd130x.h ****         else
 2264              		.loc 16 244 42 view .LVU495
 2265 01b4 1E78     		ldrb	r6, [r3]	@ zero_extendqisi2
 243:../../libdaisy/src/dev/oled_ssd130x.h ****             buffer_[x + (y / 8) * width] |= (1 << (y % 8));
 2266              		.loc 16 243 9 view .LVU496
 2267 01b6 B9F1000F 		cmp	r9, #0
 2268 01ba ECD0     		beq	.L194
 2269              	.L161:
 2270              	.LVL156:
 2271              	.LBB1200:
 2272              	.LBI1194:
 239:../../libdaisy/src/dev/oled_ssd130x.h ****     {
 2273              		.loc 16 239 10 is_stmt 1 view .LVU497
 239:../../libdaisy/src/dev/oled_ssd130x.h ****     {
 2274              		.loc 16 239 10 is_stmt 0 view .LVU498
 2275              	.LBE1200:
 2276              	.LBE1205:
 2277              	.LBE1210:
 2278              	.LBE1218:
 416:../../libdaisy/src/hid/disp/display.h ****             {
 2279              		.loc 6 416 13 view .LVU499
 2280 01bc 0130     		adds	r0, r0, #1
 2281              	.LVL157:
 2282              	.LBB1219:
 2283              	.LBB1211:
 2284              	.LBB1206:
 2285              	.LBB1201:
 2286              	.LBB1197:
 246:../../libdaisy/src/dev/oled_ssd130x.h ****     }
 2287              		.loc 16 246 42 view .LVU500
 2288 01be 0EEA0606 		and	r6, lr, r6
 2289 01c2 0133     		adds	r3, r3, #1
 2290 01c4 0135     		adds	r5, r5, #1
 2291              	.LBE1197:
 2292              	.LBE1201:
 2293              	.LBE1206:
 2294              	.LBE1211:
 2295              	.LBE1219:
 416:../../libdaisy/src/hid/disp/display.h ****             {
 2296              		.loc 6 416 26 view .LVU501
 2297 01c6 8442     		cmp	r4, r0
 2298              	.LBB1220:
 2299              	.LBB1212:
 2300              	.LBB1207:
 2301              	.LBB1202:
 2302              	.LBB1198:
 246:../../libdaisy/src/dev/oled_ssd130x.h ****     }
 2303              		.loc 16 246 13 view .LVU502
 2304 01c8 03F8016C 		strb	r6, [r3, #-1]
 246:../../libdaisy/src/dev/oled_ssd130x.h ****     }
 2305              		.loc 16 246 13 view .LVU503
ARM GAS  /tmp/ccZhYDze.s 			page 77


 2306              	.LBE1198:
 2307              	.LBE1202:
 2308              	.LBE1207:
 2309              	.LBE1212:
 2310              	.LBE1220:
 416:../../libdaisy/src/hid/disp/display.h ****             {
 2311              		.loc 6 416 13 is_stmt 1 view .LVU504
 2312              	.LVL158:
 416:../../libdaisy/src/hid/disp/display.h ****             {
 2313              		.loc 6 416 26 view .LVU505
 2314 01cc EAD1     		bne	.L163
 2315              	.LVL159:
 2316              	.L162:
 413:../../libdaisy/src/hid/disp/display.h ****         {
 2317              		.loc 6 413 9 view .LVU506
 413:../../libdaisy/src/hid/disp/display.h ****         {
 2318              		.loc 6 413 22 view .LVU507
 2319 01ce B845     		cmp	r8, r7
 2320 01d0 01F10101 		add	r1, r1, #1
 2321 01d4 C3D1     		bne	.L157
 2322 01d6 5B46     		mov	r3, fp
 2323 01d8 059E     		ldr	r6, [sp, #20]
 2324 01da A346     		mov	fp, r4
 2325              	.LVL160:
 413:../../libdaisy/src/hid/disp/display.h ****         {
 2326              		.loc 6 413 22 is_stmt 0 view .LVU508
 2327 01dc DDF81880 		ldr	r8, [sp, #24]
 2328 01e0 1C46     		mov	r4, r3
 2329              	.LVL161:
 2330              	.L156:
 2331              	.LBB1221:
 2332              	.LBB1222:
 173:../../libdaisy/src/hid/disp/display.h ****         currentY_ = (y >= Height()) ? Height() - 1 : y;
 2333              		.loc 6 173 33 view .LVU509
 2334 01e2 2268     		ldr	r2, [r4]
 2335              	.LBE1222:
 2336              	.LBE1221:
 434:../../libdaisy/src/hid/disp/display.h **** 
 2337              		.loc 6 434 18 view .LVU510
 2338 01e4 DC44     		add	ip, ip, fp
 2339 01e6 0199     		ldr	r1, [sp, #4]
 2340              	.LBB1226:
 2341              	.LBB1223:
 173:../../libdaisy/src/hid/disp/display.h ****         currentY_ = (y >= Height()) ? Height() - 1 : y;
 2342              		.loc 6 173 33 view .LVU511
 2343 01e8 D368     		ldr	r3, [r2, #12]
 2344              	.LBE1223:
 2345              	.LBE1226:
 434:../../libdaisy/src/hid/disp/display.h **** 
 2346              		.loc 6 434 18 view .LVU512
 2347 01ea 1FFA8CF5 		uxth	r5, ip
 2348              	.LVL162:
 2349              	.LBB1227:
 2350              	.LBI1221:
 171:../../libdaisy/src/hid/disp/display.h ****     {
 2351              		.loc 6 171 10 is_stmt 1 view .LVU513
 2352              	.LBB1224:
ARM GAS  /tmp/ccZhYDze.s 			page 78


 173:../../libdaisy/src/hid/disp/display.h ****         currentY_ = (y >= Height()) ? Height() - 1 : y;
 2353              		.loc 6 173 9 view .LVU514
 2354 01ee 8B42     		cmp	r3, r1
 2355 01f0 40F0C280 		bne	.L201
 173:../../libdaisy/src/hid/disp/display.h ****         currentY_ = (y >= Height()) ? Height() - 1 : y;
 2356              		.loc 6 173 33 is_stmt 0 view .LVU515
 2357 01f4 8020     		movs	r0, #128
 2358              	.L164:
 173:../../libdaisy/src/hid/disp/display.h ****         currentY_ = (y >= Height()) ? Height() - 1 : y;
 2359              		.loc 6 173 19 view .LVU516
 2360 01f6 8542     		cmp	r5, r0
 2361 01f8 05D3     		bcc	.L165
 173:../../libdaisy/src/hid/disp/display.h ****         currentY_ = (y >= Height()) ? Height() - 1 : y;
 2362              		.loc 6 173 44 view .LVU517
 2363 01fa D368     		ldr	r3, [r2, #12]
 2364 01fc 0199     		ldr	r1, [sp, #4]
 2365 01fe 8B42     		cmp	r3, r1
 2366 0200 40F0C780 		bne	.L202
 2367 0204 7F25     		movs	r5, #127
 2368              	.LVL163:
 2369              	.L165:
 174:../../libdaisy/src/hid/disp/display.h ****     }
 2370              		.loc 6 174 34 view .LVU518
 2371 0206 9368     		ldr	r3, [r2, #8]
 2372 0208 039A     		ldr	r2, [sp, #12]
 173:../../libdaisy/src/hid/disp/display.h ****         currentY_ = (y >= Height()) ? Height() - 1 : y;
 2373              		.loc 6 173 19 view .LVU519
 2374 020a A580     		strh	r5, [r4, #4]	@ movhi
 174:../../libdaisy/src/hid/disp/display.h ****     }
 2375              		.loc 6 174 9 is_stmt 1 view .LVU520
 2376 020c 9342     		cmp	r3, r2
 2377 020e 40F0B080 		bne	.L203
 174:../../libdaisy/src/hid/disp/display.h ****     }
 2378              		.loc 6 174 34 is_stmt 0 view .LVU521
 2379 0212 4020     		movs	r0, #64
 2380              	.L167:
 174:../../libdaisy/src/hid/disp/display.h ****     }
 2381              		.loc 6 174 19 view .LVU522
 2382 0214 029B     		ldr	r3, [sp, #8]
 2383 0216 8342     		cmp	r3, r0
 2384 0218 07D3     		bcc	.L168
 174:../../libdaisy/src/hid/disp/display.h ****     }
 2385              		.loc 6 174 46 view .LVU523
 2386 021a 2368     		ldr	r3, [r4]
 2387 021c 039A     		ldr	r2, [sp, #12]
 2388 021e 9B68     		ldr	r3, [r3, #8]
 2389 0220 9342     		cmp	r3, r2
 2390 0222 40F0B080 		bne	.L204
 2391 0226 3F23     		movs	r3, #63
 2392 0228 0293     		str	r3, [sp, #8]
 2393              	.LVL164:
 2394              	.L168:
 174:../../libdaisy/src/hid/disp/display.h ****     }
 2395              		.loc 6 174 19 view .LVU524
 2396 022a 029B     		ldr	r3, [sp, #8]
 2397 022c E380     		strh	r3, [r4, #6]	@ movhi
 2398              	.LVL165:
ARM GAS  /tmp/ccZhYDze.s 			page 79


 2399              	.L150:
 174:../../libdaisy/src/hid/disp/display.h ****     }
