ARM GAS  /tmp/ccZhYDze.s 			page 1


   1              		.cpu cortex-m7
   2              		.eabi_attribute 28, 1
   3              		.eabi_attribute 20, 1
   4              		.eabi_attribute 21, 1
   5              		.eabi_attribute 23, 3
   6              		.eabi_attribute 24, 1
   7              		.eabi_attribute 25, 1
   8              		.eabi_attribute 26, 1
   9              		.eabi_attribute 30, 2
  10              		.eabi_attribute 34, 1
  11              		.eabi_attribute 18, 4
  12              		.file	"ex_verb.cpp"
  13              		.text
  14              	.Ltext0:
  15              		.cfi_sections	.debug_frame
  16              		.section	.text._ZN7daisysp8ReverbScD2Ev,"axG",%progbits,_ZN7daisysp8ReverbScD5Ev,comdat
  17              		.align	1
  18              		.p2align 2,,3
  19              		.weak	_ZN7daisysp8ReverbScD2Ev
  20              		.arch armv7e-m
  21              		.syntax unified
  22              		.thumb
  23              		.thumb_func
  24              		.fpu fpv5-d16
  26              	_ZN7daisysp8ReverbScD2Ev:
  27              	.LVL0:
  28              	.LFB3000:
  29              		.file 1 "../../DaisySP/Source/Effects/reverbsc.h"
   1:../../DaisySP/Source/Effects/reverbsc.h **** #pragma once
   2:../../DaisySP/Source/Effects/reverbsc.h **** #ifndef DSYSP_REVERBSC_H
   3:../../DaisySP/Source/Effects/reverbsc.h **** #define DSYSP_REVERBSC_H
   4:../../DaisySP/Source/Effects/reverbsc.h **** 
   5:../../DaisySP/Source/Effects/reverbsc.h **** #define DSY_REVERBSC_MAX_SIZE 98936
   6:../../DaisySP/Source/Effects/reverbsc.h **** 
   7:../../DaisySP/Source/Effects/reverbsc.h **** namespace daisysp
   8:../../DaisySP/Source/Effects/reverbsc.h **** {
   9:../../DaisySP/Source/Effects/reverbsc.h **** /**Delay line for internal reverb use
  10:../../DaisySP/Source/Effects/reverbsc.h **** */
  11:../../DaisySP/Source/Effects/reverbsc.h **** typedef struct
  12:../../DaisySP/Source/Effects/reverbsc.h **** {
  13:../../DaisySP/Source/Effects/reverbsc.h ****     int    write_pos;         /**< write position */
  14:../../DaisySP/Source/Effects/reverbsc.h ****     int    buffer_size;       /**< buffer size */
  15:../../DaisySP/Source/Effects/reverbsc.h ****     int    read_pos;          /**< read position */
  16:../../DaisySP/Source/Effects/reverbsc.h ****     int    read_pos_frac;     /**< fractional component of read pos */
  17:../../DaisySP/Source/Effects/reverbsc.h ****     int    read_pos_frac_inc; /**< increment for fractional */
  18:../../DaisySP/Source/Effects/reverbsc.h ****     int    dummy;             /**<  dummy var */
  19:../../DaisySP/Source/Effects/reverbsc.h ****     int    seed_val;          /**< randseed */
  20:../../DaisySP/Source/Effects/reverbsc.h ****     int    rand_line_cnt;     /**< number of random lines */
  21:../../DaisySP/Source/Effects/reverbsc.h ****     float  filter_state;      /**< state of filter */
  22:../../DaisySP/Source/Effects/reverbsc.h ****     float *buf;               /**< buffer ptr */
  23:../../DaisySP/Source/Effects/reverbsc.h **** } ReverbScDl;
  24:../../DaisySP/Source/Effects/reverbsc.h **** 
  25:../../DaisySP/Source/Effects/reverbsc.h **** /** Stereo Reverb
  26:../../DaisySP/Source/Effects/reverbsc.h **** 
  27:../../DaisySP/Source/Effects/reverbsc.h **** Reverb SC:               Ported from csound/soundpipe
  28:../../DaisySP/Source/Effects/reverbsc.h **** 
  29:../../DaisySP/Source/Effects/reverbsc.h **** Original author(s):        Sean Costello, Istvan Varga
ARM GAS  /tmp/ccZhYDze.s 			page 2


  30:../../DaisySP/Source/Effects/reverbsc.h **** 
  31:../../DaisySP/Source/Effects/reverbsc.h **** Year:                    1999, 2005
  32:../../DaisySP/Source/Effects/reverbsc.h **** 
  33:../../DaisySP/Source/Effects/reverbsc.h **** Ported to soundpipe by:  Paul Batchelor
  34:../../DaisySP/Source/Effects/reverbsc.h **** 
  35:../../DaisySP/Source/Effects/reverbsc.h **** Ported by:                Stephen Hensley
  36:../../DaisySP/Source/Effects/reverbsc.h **** */
  37:../../DaisySP/Source/Effects/reverbsc.h **** class ReverbSc
  38:../../DaisySP/Source/Effects/reverbsc.h **** {
  39:../../DaisySP/Source/Effects/reverbsc.h ****   public:
  40:../../DaisySP/Source/Effects/reverbsc.h ****     ReverbSc() {}
  41:../../DaisySP/Source/Effects/reverbsc.h ****     ~ReverbSc() {}
  30              		.loc 1 41 5 view -0
  31              		.cfi_startproc
  32              		@ args = 0, pretend = 0, frame = 0
  33              		@ frame_needed = 0, uses_anonymous_args = 0
  34              		@ link register save eliminated.
  35              		.loc 1 41 18 is_stmt 0 view .LVU1
  36 0000 7047     		bx	lr
  37              		.cfi_endproc
  38              	.LFE3000:
  40              		.weak	_ZN7daisysp8ReverbScD1Ev
  41              		.thumb_set _ZN7daisysp8ReverbScD1Ev,_ZN7daisysp8ReverbScD2Ev
  42 0002 00BF     		.section	.text._ZN5daisy9ParameterD2Ev,"axG",%progbits,_ZN5daisy9ParameterD5Ev,comdat
  43              		.align	1
  44              		.p2align 2,,3
  45              		.weak	_ZN5daisy9ParameterD2Ev
  46              		.syntax unified
  47              		.thumb
  48              		.thumb_func
  49              		.fpu fpv5-d16
  51              	_ZN5daisy9ParameterD2Ev:
  52              	.LVL1:
  53              	.LFB3778:
  54              		.file 2 "../../libdaisy/src/hid/parameter.h"
   1:../../libdaisy/src/hid/parameter.h **** #pragma once
   2:../../libdaisy/src/hid/parameter.h **** #include <stdint.h>
   3:../../libdaisy/src/hid/parameter.h **** #include "hid/ctrl.h"
   4:../../libdaisy/src/hid/parameter.h **** 
   5:../../libdaisy/src/hid/parameter.h **** namespace daisy
   6:../../libdaisy/src/hid/parameter.h **** {
   7:../../libdaisy/src/hid/parameter.h **** /** @addtogroup controls
   8:../../libdaisy/src/hid/parameter.h ****     @{
   9:../../libdaisy/src/hid/parameter.h **** */
  10:../../libdaisy/src/hid/parameter.h **** 
  11:../../libdaisy/src/hid/parameter.h **** /**      Simple parameter mapping tool that takes a 0-1 input from an hid_ctrl. */
  12:../../libdaisy/src/hid/parameter.h **** class Parameter
  13:../../libdaisy/src/hid/parameter.h **** {
  14:../../libdaisy/src/hid/parameter.h ****   public:
  15:../../libdaisy/src/hid/parameter.h ****     /** Curves are applied to the output signal */
  16:../../libdaisy/src/hid/parameter.h ****     enum Curve
  17:../../libdaisy/src/hid/parameter.h ****     {
  18:../../libdaisy/src/hid/parameter.h ****         LINEAR,      /**< Linear curve */
  19:../../libdaisy/src/hid/parameter.h ****         EXPONENTIAL, /**< Exponential curve */
  20:../../libdaisy/src/hid/parameter.h ****         LOGARITHMIC, /**<  Logarithmic curve */
  21:../../libdaisy/src/hid/parameter.h ****         CUBE,        /**< Cubic curve */
  22:../../libdaisy/src/hid/parameter.h ****         LAST,        /**< Final enum element. */
ARM GAS  /tmp/ccZhYDze.s 			page 3


  23:../../libdaisy/src/hid/parameter.h ****     };
  24:../../libdaisy/src/hid/parameter.h ****     /** Constructor */
  25:../../libdaisy/src/hid/parameter.h ****     Parameter() {}
  26:../../libdaisy/src/hid/parameter.h ****     /** Destructor */
  27:../../libdaisy/src/hid/parameter.h ****     ~Parameter() {}
  55              		.loc 2 27 5 is_stmt 1 view -0
  56              		.cfi_startproc
  57              		@ args = 0, pretend = 0, frame = 0
  58              		@ frame_needed = 0, uses_anonymous_args = 0
  59              		@ link register save eliminated.
  60              	.LBB605:
  61              	.LBI605:
  62              		.file 3 "../../libdaisy/src/hid/ctrl.h"
   1:../../libdaisy/src/hid/ctrl.h **** #pragma once
   2:../../libdaisy/src/hid/ctrl.h **** #ifndef DSY_KNOB_H
   3:../../libdaisy/src/hid/ctrl.h **** #define DSY_KNOB_H /**< & */
   4:../../libdaisy/src/hid/ctrl.h **** #include <stdint.h>
   5:../../libdaisy/src/hid/ctrl.h **** 
   6:../../libdaisy/src/hid/ctrl.h **** #ifdef __cplusplus
   7:../../libdaisy/src/hid/ctrl.h **** namespace daisy
   8:../../libdaisy/src/hid/ctrl.h **** {
   9:../../libdaisy/src/hid/ctrl.h **** /**
  10:../../libdaisy/src/hid/ctrl.h ****     @brief Hardware Interface for control inputs \n 
  11:../../libdaisy/src/hid/ctrl.h ****     Primarily designed for ADC input controls such as \n 
  12:../../libdaisy/src/hid/ctrl.h ****     potentiometers, and control voltage. \n 
  13:../../libdaisy/src/hid/ctrl.h ****     @author Stephen Hensley
  14:../../libdaisy/src/hid/ctrl.h ****     @date November 2019
  15:../../libdaisy/src/hid/ctrl.h ****     @ingroup controls
  16:../../libdaisy/src/hid/ctrl.h **** */
  17:../../libdaisy/src/hid/ctrl.h **** class AnalogControl
  18:../../libdaisy/src/hid/ctrl.h **** {
  19:../../libdaisy/src/hid/ctrl.h ****   public:
  20:../../libdaisy/src/hid/ctrl.h ****     /** Constructor */
  21:../../libdaisy/src/hid/ctrl.h ****     AnalogControl() {}
  22:../../libdaisy/src/hid/ctrl.h ****     /** destructor */
  23:../../libdaisy/src/hid/ctrl.h ****     ~AnalogControl() {}
  63              		.loc 3 23 5 view .LVU3
  64              		.loc 3 23 5 is_stmt 0 view .LVU4
  65              	.LBE605:
  66              		.loc 2 27 19 view .LVU5
  67 0000 7047     		bx	lr
  68              		.cfi_endproc
  69              	.LFE3778:
  71              		.weak	_ZN5daisy9ParameterD1Ev
  72              		.thumb_set _ZN5daisy9ParameterD1Ev,_ZN5daisy9ParameterD2Ev
  73 0002 00BF     		.section	.text._ZN5daisy10DaisyPatchD2Ev,"axG",%progbits,_ZN5daisy10DaisyPatchD5Ev,comdat
  74              		.align	1
  75              		.p2align 2,,3
  76              		.weak	_ZN5daisy10DaisyPatchD2Ev
  77              		.syntax unified
  78              		.thumb
  79              		.thumb_func
  80              		.fpu fpv5-d16
  82              	_ZN5daisy10DaisyPatchD2Ev:
  83              	.LVL2:
  84              	.LFB4230:
  85              		.file 4 "../../libdaisy/src/daisy_patch.h"
ARM GAS  /tmp/ccZhYDze.s 			page 4


   1:../../libdaisy/src/daisy_patch.h **** #pragma once
   2:../../libdaisy/src/daisy_patch.h **** #ifndef DSY_PATCH_BSP_H
   3:../../libdaisy/src/daisy_patch.h **** #define DSY_PATCH_BSP_H
   4:../../libdaisy/src/daisy_patch.h **** #include "daisy_seed.h"
   5:../../libdaisy/src/daisy_patch.h **** #include "dev/oled_ssd130x.h"
   6:../../libdaisy/src/daisy_patch.h **** 
   7:../../libdaisy/src/daisy_patch.h **** namespace daisy
   8:../../libdaisy/src/daisy_patch.h **** {
   9:../../libdaisy/src/daisy_patch.h **** /**
  10:../../libdaisy/src/daisy_patch.h ****     @brief Class that handles initializing all of the hardware specific to the Daisy Patch Board. \
  11:../../libdaisy/src/daisy_patch.h ****     Helper funtions are also in place to provide easy access to built-in controls and peripherals.
  12:../../libdaisy/src/daisy_patch.h ****     @author Stephen Hensley
  13:../../libdaisy/src/daisy_patch.h ****     @date November 2019
  14:../../libdaisy/src/daisy_patch.h ****     @ingroup boards
  15:../../libdaisy/src/daisy_patch.h **** */
  16:../../libdaisy/src/daisy_patch.h **** class DaisyPatch
  17:../../libdaisy/src/daisy_patch.h **** {
  18:../../libdaisy/src/daisy_patch.h ****   public:
  19:../../libdaisy/src/daisy_patch.h ****     /** Enum of Ctrls to represent the four CV/Knob combos on the Patch
  20:../../libdaisy/src/daisy_patch.h ****      */
  21:../../libdaisy/src/daisy_patch.h ****     enum Ctrl
  22:../../libdaisy/src/daisy_patch.h ****     {
  23:../../libdaisy/src/daisy_patch.h ****         CTRL_1,    /**< */
  24:../../libdaisy/src/daisy_patch.h ****         CTRL_2,    /**< */
  25:../../libdaisy/src/daisy_patch.h ****         CTRL_3,    /**< */
  26:../../libdaisy/src/daisy_patch.h ****         CTRL_4,    /**< */
  27:../../libdaisy/src/daisy_patch.h ****         CTRL_LAST, /**< */
  28:../../libdaisy/src/daisy_patch.h ****     };
  29:../../libdaisy/src/daisy_patch.h **** 
  30:../../libdaisy/src/daisy_patch.h ****     /** Daisy patch gate inputs */
  31:../../libdaisy/src/daisy_patch.h ****     enum GateInput
  32:../../libdaisy/src/daisy_patch.h ****     {
  33:../../libdaisy/src/daisy_patch.h ****         GATE_IN_1,    /**< */
  34:../../libdaisy/src/daisy_patch.h ****         GATE_IN_2,    /** <*/
  35:../../libdaisy/src/daisy_patch.h ****         GATE_IN_LAST, /**< */
  36:../../libdaisy/src/daisy_patch.h ****     };
  37:../../libdaisy/src/daisy_patch.h **** 
  38:../../libdaisy/src/daisy_patch.h ****     /** Constructor */
  39:../../libdaisy/src/daisy_patch.h ****     DaisyPatch() {}
  40:../../libdaisy/src/daisy_patch.h ****     /** Destructor */
  41:../../libdaisy/src/daisy_patch.h ****     ~DaisyPatch() {}
  86              		.loc 4 41 5 is_stmt 1 view -0
  87              		.cfi_startproc
  88              		@ args = 0, pretend = 0, frame = 0
  89              		@ frame_needed = 0, uses_anonymous_args = 0
  90              		@ link register save eliminated.
  91              	.LBB606:
  92              	.LBI606:
  93              		.file 5 "../../libdaisy/src/hid/disp/oled_display.h"
   1:../../libdaisy/src/hid/disp/oled_display.h **** #pragma once
   2:../../libdaisy/src/hid/disp/oled_display.h **** #ifndef DSY_OLED_DISPLAY_H
   3:../../libdaisy/src/hid/disp/oled_display.h **** #define DSY_OLED_DISPLAY_H /**< Macro */
   4:../../libdaisy/src/hid/disp/oled_display.h **** 
   5:../../libdaisy/src/hid/disp/oled_display.h **** #include "display.h"
   6:../../libdaisy/src/hid/disp/oled_display.h **** 
   7:../../libdaisy/src/hid/disp/oled_display.h **** namespace daisy
   8:../../libdaisy/src/hid/disp/oled_display.h **** {
ARM GAS  /tmp/ccZhYDze.s 			page 5


   9:../../libdaisy/src/hid/disp/oled_display.h **** /** 
  10:../../libdaisy/src/hid/disp/oled_display.h ****  * This class is for drawing to a monochrome OLED display. 
  11:../../libdaisy/src/hid/disp/oled_display.h **** */
  12:../../libdaisy/src/hid/disp/oled_display.h **** template <typename DisplayDriver>
  13:../../libdaisy/src/hid/disp/oled_display.h **** class OledDisplay : public OneBitGraphicsDisplayImpl<OledDisplay<DisplayDriver>>
  14:../../libdaisy/src/hid/disp/oled_display.h **** {
  15:../../libdaisy/src/hid/disp/oled_display.h ****   public:
  16:../../libdaisy/src/hid/disp/oled_display.h ****     OledDisplay() {}
  17:../../libdaisy/src/hid/disp/oled_display.h ****     virtual ~OledDisplay() {}
  94              		.loc 5 17 13 view .LVU7
  95              	.LBB607:
  96              	.LBI607:
  97              		.file 6 "../../libdaisy/src/hid/disp/display.h"
   1:../../libdaisy/src/hid/disp/display.h **** #pragma once
   2:../../libdaisy/src/hid/disp/display.h **** #ifndef DSY_DISPLAY_H
   3:../../libdaisy/src/hid/disp/display.h **** #define DSY_DISPLAY_H /**< Macro */
   4:../../libdaisy/src/hid/disp/display.h **** #include <cmath>
   5:../../libdaisy/src/hid/disp/display.h **** #include "util/oled_fonts.h"
   6:../../libdaisy/src/hid/disp/display.h **** #include "daisy_core.h"
   7:../../libdaisy/src/hid/disp/display.h **** #include "graphics_common.h"
   8:../../libdaisy/src/hid/disp/display.h **** 
   9:../../libdaisy/src/hid/disp/display.h **** #ifndef deg2rad
  10:../../libdaisy/src/hid/disp/display.h **** #define deg2rad(deg) ((deg)*3.141592 / 180.0)
  11:../../libdaisy/src/hid/disp/display.h **** #endif
  12:../../libdaisy/src/hid/disp/display.h **** 
  13:../../libdaisy/src/hid/disp/display.h **** namespace daisy
  14:../../libdaisy/src/hid/disp/display.h **** {
  15:../../libdaisy/src/hid/disp/display.h **** /** 
  16:../../libdaisy/src/hid/disp/display.h ****  * This interface is used as a base class for all types of 1bit-per-pixel
  17:../../libdaisy/src/hid/disp/display.h ****  * graphics displays.
  18:../../libdaisy/src/hid/disp/display.h **** */
  19:../../libdaisy/src/hid/disp/display.h **** class OneBitGraphicsDisplay
  20:../../libdaisy/src/hid/disp/display.h **** {
  21:../../libdaisy/src/hid/disp/display.h ****   public:
  22:../../libdaisy/src/hid/disp/display.h ****     OneBitGraphicsDisplay() {}
  23:../../libdaisy/src/hid/disp/display.h ****     virtual ~OneBitGraphicsDisplay() {}
  24:../../libdaisy/src/hid/disp/display.h **** 
  25:../../libdaisy/src/hid/disp/display.h ****     virtual uint16_t Height() const = 0;
  26:../../libdaisy/src/hid/disp/display.h ****     virtual uint16_t Width() const  = 0;
  27:../../libdaisy/src/hid/disp/display.h **** 
  28:../../libdaisy/src/hid/disp/display.h ****     Rectangle GetBounds() const
  29:../../libdaisy/src/hid/disp/display.h ****     {
  30:../../libdaisy/src/hid/disp/display.h ****         return Rectangle(int16_t(Width()), int16_t(Height()));
  31:../../libdaisy/src/hid/disp/display.h ****     }
  32:../../libdaisy/src/hid/disp/display.h **** 
  33:../../libdaisy/src/hid/disp/display.h **** 
  34:../../libdaisy/src/hid/disp/display.h ****     size_t CurrentX() { return currentX_; };
  35:../../libdaisy/src/hid/disp/display.h ****     size_t CurrentY() { return currentY_; };
  36:../../libdaisy/src/hid/disp/display.h **** 
  37:../../libdaisy/src/hid/disp/display.h ****     /** 
  38:../../libdaisy/src/hid/disp/display.h ****     Fills the entire display with either on/off.
  39:../../libdaisy/src/hid/disp/display.h ****     \param on Sets on or off.
  40:../../libdaisy/src/hid/disp/display.h ****     */
  41:../../libdaisy/src/hid/disp/display.h ****     virtual void Fill(bool on) = 0;
  42:../../libdaisy/src/hid/disp/display.h **** 
  43:../../libdaisy/src/hid/disp/display.h ****     /**
  44:../../libdaisy/src/hid/disp/display.h ****     Sets the pixel at the specified coordinate to be on/off.
ARM GAS  /tmp/ccZhYDze.s 			page 6


  45:../../libdaisy/src/hid/disp/display.h ****     \param x   x Coordinate
  46:../../libdaisy/src/hid/disp/display.h ****     \param y   y coordinate
  47:../../libdaisy/src/hid/disp/display.h ****     \param on  on or off
  48:../../libdaisy/src/hid/disp/display.h ****     */
  49:../../libdaisy/src/hid/disp/display.h ****     virtual void DrawPixel(uint_fast8_t x, uint_fast8_t y, bool on) = 0;
  50:../../libdaisy/src/hid/disp/display.h **** 
  51:../../libdaisy/src/hid/disp/display.h ****     /**
  52:../../libdaisy/src/hid/disp/display.h ****     Draws a line from (x1, y1) to (y1, y2)
  53:../../libdaisy/src/hid/disp/display.h ****     \param x1  x Coordinate of the starting point
  54:../../libdaisy/src/hid/disp/display.h ****     \param y1  y Coordinate of the starting point
  55:../../libdaisy/src/hid/disp/display.h ****     \param x2  x Coordinate of the ending point
  56:../../libdaisy/src/hid/disp/display.h ****     \param y2  y Coordinate of the ending point
  57:../../libdaisy/src/hid/disp/display.h ****     \param on  on or off
  58:../../libdaisy/src/hid/disp/display.h ****     */
  59:../../libdaisy/src/hid/disp/display.h ****     virtual void DrawLine(uint_fast8_t x1,
  60:../../libdaisy/src/hid/disp/display.h ****                           uint_fast8_t y1,
  61:../../libdaisy/src/hid/disp/display.h ****                           uint_fast8_t x2,
  62:../../libdaisy/src/hid/disp/display.h ****                           uint_fast8_t y2,
  63:../../libdaisy/src/hid/disp/display.h ****                           bool         on)
  64:../../libdaisy/src/hid/disp/display.h ****         = 0;
  65:../../libdaisy/src/hid/disp/display.h **** 
  66:../../libdaisy/src/hid/disp/display.h ****     /**
  67:../../libdaisy/src/hid/disp/display.h ****     Draws a rectangle based on two coordinates.
  68:../../libdaisy/src/hid/disp/display.h ****     \param x1 x Coordinate of the first point
  69:../../libdaisy/src/hid/disp/display.h ****     \param y1 y Coordinate of the first point
  70:../../libdaisy/src/hid/disp/display.h ****     \param x2 x Coordinate of the second point
  71:../../libdaisy/src/hid/disp/display.h ****     \param y2 y Coordinate of the second point
  72:../../libdaisy/src/hid/disp/display.h ****     \param on on or off
  73:../../libdaisy/src/hid/disp/display.h ****     \param fill fill the rectangle or draw only the outline
  74:../../libdaisy/src/hid/disp/display.h ****     */
  75:../../libdaisy/src/hid/disp/display.h ****     virtual void DrawRect(uint_fast8_t x1,
  76:../../libdaisy/src/hid/disp/display.h ****                           uint_fast8_t y1,
  77:../../libdaisy/src/hid/disp/display.h ****                           uint_fast8_t x2,
  78:../../libdaisy/src/hid/disp/display.h ****                           uint_fast8_t y2,
  79:../../libdaisy/src/hid/disp/display.h ****                           bool         on,
  80:../../libdaisy/src/hid/disp/display.h ****                           bool         fill = false)
  81:../../libdaisy/src/hid/disp/display.h ****         = 0;
  82:../../libdaisy/src/hid/disp/display.h **** 
  83:../../libdaisy/src/hid/disp/display.h ****     /**
  84:../../libdaisy/src/hid/disp/display.h ****     Draws a rectangle.
  85:../../libdaisy/src/hid/disp/display.h ****     \param rect the rectangle
  86:../../libdaisy/src/hid/disp/display.h ****     \param on   on or off
  87:../../libdaisy/src/hid/disp/display.h ****     \param fill fill the rectangle or draw only the outline
  88:../../libdaisy/src/hid/disp/display.h ****     */
  89:../../libdaisy/src/hid/disp/display.h ****     void DrawRect(const Rectangle& rect, bool on, bool fill = false)
  90:../../libdaisy/src/hid/disp/display.h ****     {
  91:../../libdaisy/src/hid/disp/display.h ****         DrawRect(rect.GetX(),
  92:../../libdaisy/src/hid/disp/display.h ****                  rect.GetY(),
  93:../../libdaisy/src/hid/disp/display.h ****                  rect.GetRight(),
  94:../../libdaisy/src/hid/disp/display.h ****                  rect.GetBottom(),
  95:../../libdaisy/src/hid/disp/display.h ****                  on,
  96:../../libdaisy/src/hid/disp/display.h ****                  fill);
  97:../../libdaisy/src/hid/disp/display.h ****     }
  98:../../libdaisy/src/hid/disp/display.h **** 
  99:../../libdaisy/src/hid/disp/display.h ****     /**
 100:../../libdaisy/src/hid/disp/display.h ****     Draws an arc around the specified coordinate
 101:../../libdaisy/src/hid/disp/display.h ****     \param x           x Coordinate of the center of the arc
ARM GAS  /tmp/ccZhYDze.s 			page 7


 102:../../libdaisy/src/hid/disp/display.h ****     \param y           y Coordinate of the center of the arc
 103:../../libdaisy/src/hid/disp/display.h ****     \param radius      radius of the arc
 104:../../libdaisy/src/hid/disp/display.h ****     \param start_angle angle where to start the arc
 105:../../libdaisy/src/hid/disp/display.h ****     \param sweep       total angle of the arc
 106:../../libdaisy/src/hid/disp/display.h ****     \param on  on or off
 107:../../libdaisy/src/hid/disp/display.h ****     */
 108:../../libdaisy/src/hid/disp/display.h ****     virtual void DrawArc(uint_fast8_t x,
 109:../../libdaisy/src/hid/disp/display.h ****                          uint_fast8_t y,
 110:../../libdaisy/src/hid/disp/display.h ****                          uint_fast8_t radius,
 111:../../libdaisy/src/hid/disp/display.h ****                          int_fast16_t start_angle,
 112:../../libdaisy/src/hid/disp/display.h ****                          int_fast16_t sweep,
 113:../../libdaisy/src/hid/disp/display.h ****                          bool         on)
 114:../../libdaisy/src/hid/disp/display.h ****         = 0;
 115:../../libdaisy/src/hid/disp/display.h **** 
 116:../../libdaisy/src/hid/disp/display.h ****     /**
 117:../../libdaisy/src/hid/disp/display.h ****     Draws a circle around the specified coordinate
 118:../../libdaisy/src/hid/disp/display.h ****     \param x           x Coordinate of the center of the circle
 119:../../libdaisy/src/hid/disp/display.h ****     \param y           y Coordinate of the center of the circle
 120:../../libdaisy/src/hid/disp/display.h ****     \param radius      radius of the circle
 121:../../libdaisy/src/hid/disp/display.h ****     \param on  on or off
 122:../../libdaisy/src/hid/disp/display.h ****     */
 123:../../libdaisy/src/hid/disp/display.h ****     void
 124:../../libdaisy/src/hid/disp/display.h ****     DrawCircle(uint_fast8_t x, uint_fast8_t y, uint_fast8_t radius, bool on)
 125:../../libdaisy/src/hid/disp/display.h ****     {
 126:../../libdaisy/src/hid/disp/display.h ****         DrawArc(x, y, radius, 0, 360, on);
 127:../../libdaisy/src/hid/disp/display.h ****     };
 128:../../libdaisy/src/hid/disp/display.h **** 
 129:../../libdaisy/src/hid/disp/display.h ****     /** 
 130:../../libdaisy/src/hid/disp/display.h ****     Writes the character with the specific FontDef
 131:../../libdaisy/src/hid/disp/display.h ****     to the display buffer at the current Cursor position.
 132:../../libdaisy/src/hid/disp/display.h ****     \param ch character to be written
 133:../../libdaisy/src/hid/disp/display.h ****     \param font font to be written in
 134:../../libdaisy/src/hid/disp/display.h ****     \param on    on or off
 135:../../libdaisy/src/hid/disp/display.h ****     \return &
 136:../../libdaisy/src/hid/disp/display.h ****     */
 137:../../libdaisy/src/hid/disp/display.h ****     virtual char WriteChar(char ch, FontDef font, bool on) = 0;
 138:../../libdaisy/src/hid/disp/display.h **** 
 139:../../libdaisy/src/hid/disp/display.h ****     /** 
 140:../../libdaisy/src/hid/disp/display.h ****     Similar to WriteChar, except it will handle an entire String.
 141:../../libdaisy/src/hid/disp/display.h ****     Wrapping does not happen automatically, so the width
 142:../../libdaisy/src/hid/disp/display.h ****     of the string must be kept within the dimensions of the screen.
 143:../../libdaisy/src/hid/disp/display.h ****     \param str string to be written
 144:../../libdaisy/src/hid/disp/display.h ****     \param font font to use
 145:../../libdaisy/src/hid/disp/display.h ****     \param on  on or off
 146:../../libdaisy/src/hid/disp/display.h ****     \return &
 147:../../libdaisy/src/hid/disp/display.h ****     */
 148:../../libdaisy/src/hid/disp/display.h ****     virtual char WriteString(const char* str, FontDef font, bool on) = 0;
 149:../../libdaisy/src/hid/disp/display.h **** 
 150:../../libdaisy/src/hid/disp/display.h ****     /** 
 151:../../libdaisy/src/hid/disp/display.h ****     Similar to WriteString but justified within a bounding box.
 152:../../libdaisy/src/hid/disp/display.h ****     \param str          string to be written
 153:../../libdaisy/src/hid/disp/display.h ****     \param font         font to use
 154:../../libdaisy/src/hid/disp/display.h ****     \param boundingBox  the bounding box to draw the text in
 155:../../libdaisy/src/hid/disp/display.h ****     \param alignment    the alignment to use
 156:../../libdaisy/src/hid/disp/display.h ****     \param on           on or off
 157:../../libdaisy/src/hid/disp/display.h ****     \return The rectangle that was drawn to
 158:../../libdaisy/src/hid/disp/display.h ****     */
ARM GAS  /tmp/ccZhYDze.s 			page 8


 159:../../libdaisy/src/hid/disp/display.h ****     virtual Rectangle WriteStringAligned(const char*    str,
 160:../../libdaisy/src/hid/disp/display.h ****                                          const FontDef& font,
 161:../../libdaisy/src/hid/disp/display.h ****                                          Rectangle      boundingBox,
 162:../../libdaisy/src/hid/disp/display.h ****                                          Alignment      alignment,
 163:../../libdaisy/src/hid/disp/display.h ****                                          bool           on)
 164:../../libdaisy/src/hid/disp/display.h ****         = 0;
 165:../../libdaisy/src/hid/disp/display.h **** 
 166:../../libdaisy/src/hid/disp/display.h ****     /** 
 167:../../libdaisy/src/hid/disp/display.h ****     Moves the 'Cursor' position used for WriteChar, and WriteStr to the specified coordinate.
 168:../../libdaisy/src/hid/disp/display.h ****     \param x x pos
 169:../../libdaisy/src/hid/disp/display.h ****     \param y y pos
 170:../../libdaisy/src/hid/disp/display.h ****     */
 171:../../libdaisy/src/hid/disp/display.h ****     void SetCursor(uint16_t x, uint16_t y)
 172:../../libdaisy/src/hid/disp/display.h ****     {
 173:../../libdaisy/src/hid/disp/display.h ****         currentX_ = (x >= Width()) ? Width() - 1 : x;
 174:../../libdaisy/src/hid/disp/display.h ****         currentY_ = (y >= Height()) ? Height() - 1 : y;
 175:../../libdaisy/src/hid/disp/display.h ****     }
 176:../../libdaisy/src/hid/disp/display.h **** 
 177:../../libdaisy/src/hid/disp/display.h ****     /** 
 178:../../libdaisy/src/hid/disp/display.h ****     Writes the current display buffer to the OLED device using SPI or I2C depending on 
 179:../../libdaisy/src/hid/disp/display.h ****     how the object was initialized.
 180:../../libdaisy/src/hid/disp/display.h ****     */
 181:../../libdaisy/src/hid/disp/display.h ****     virtual void Update() = 0;
 182:../../libdaisy/src/hid/disp/display.h **** 
 183:../../libdaisy/src/hid/disp/display.h ****   protected:
 184:../../libdaisy/src/hid/disp/display.h ****     uint16_t currentX_;
 185:../../libdaisy/src/hid/disp/display.h ****     uint16_t currentY_;
 186:../../libdaisy/src/hid/disp/display.h **** };
 187:../../libdaisy/src/hid/disp/display.h **** 
 188:../../libdaisy/src/hid/disp/display.h **** /** This class is intended as a intermediary class for your actual implementation of the OneBitGrap
 189:../../libdaisy/src/hid/disp/display.h ****  *  interface. It uses the CRTP design pattern where the template argument is the child class. It p
 190:../../libdaisy/src/hid/disp/display.h ****  *  implementations for most of the functions, except DrawPixel(), Update() and Fill(), which you'l
 191:../../libdaisy/src/hid/disp/display.h ****  *  to provide in your child class.
 192:../../libdaisy/src/hid/disp/display.h ****  *  The main goal of this class is to provide common drawing functions without relying on massive a
 193:../../libdaisy/src/hid/disp/display.h ****  *  virtual function calls that would result in a performance loss. To achieve this, any drawing fu
 194:../../libdaisy/src/hid/disp/display.h ****  *  is implemented here and internally calls other drawing functions (e.g. DrawRect() which interna
 195:../../libdaisy/src/hid/disp/display.h ****  *  DrawPixel() and DrawLine()) makes these calls via the qualified name of these functions to expl
 196:../../libdaisy/src/hid/disp/display.h ****  *  suppress the virtual dispatch mechanism like this:
 197:../../libdaisy/src/hid/disp/display.h ****  * 
 198:../../libdaisy/src/hid/disp/display.h ****  *      ChildType::DrawPixel(...); // no virtual function call; direct call into the child class fu
 199:../../libdaisy/src/hid/disp/display.h ****  *  
 200:../../libdaisy/src/hid/disp/display.h ****  *  To create a custom OneBitGraphicsDisplay implementation, you can 
 201:../../libdaisy/src/hid/disp/display.h ****  *  A) inherit from OneBitGraphicsDisplay directly and provide all the drawing functions yourself
 202:../../libdaisy/src/hid/disp/display.h ****  *  B) Inherit from OneBitGraphicsDisplayImpl and only provide DrawPixel(), Fill() and Update()
 203:../../libdaisy/src/hid/disp/display.h ****  *     like this:
 204:../../libdaisy/src/hid/disp/display.h ****  *  
 205:../../libdaisy/src/hid/disp/display.h ****  *      class MyDisplayClass : public OneBitGraphicsDisplayImpl<MyDisplayClass> 
 206:../../libdaisy/src/hid/disp/display.h ****  *      {
 207:../../libdaisy/src/hid/disp/display.h ****  *      public:
 208:../../libdaisy/src/hid/disp/display.h ****  *          void Fill() override { ... };
 209:../../libdaisy/src/hid/disp/display.h ****  *          void DrawPixel(uint_fast8_t x, uint_fast8_t y, bool on) override { ... };
 210:../../libdaisy/src/hid/disp/display.h ****  *          void Update() override { ... }
 211:../../libdaisy/src/hid/disp/display.h ****  *      };
 212:../../libdaisy/src/hid/disp/display.h ****  *  
 213:../../libdaisy/src/hid/disp/display.h ****  */
 214:../../libdaisy/src/hid/disp/display.h **** template <class ChildType>
 215:../../libdaisy/src/hid/disp/display.h **** class OneBitGraphicsDisplayImpl : public OneBitGraphicsDisplay
ARM GAS  /tmp/ccZhYDze.s 			page 9


 216:../../libdaisy/src/hid/disp/display.h **** {
 217:../../libdaisy/src/hid/disp/display.h ****   public:
 218:../../libdaisy/src/hid/disp/display.h ****     OneBitGraphicsDisplayImpl() {}
 219:../../libdaisy/src/hid/disp/display.h ****     virtual ~OneBitGraphicsDisplayImpl() {}
  98              		.loc 6 219 13 view .LVU8
  99              	.LBB608:
 100              	.LBI608:
  23:../../libdaisy/src/hid/disp/display.h **** 
 101              		.loc 6 23 13 view .LVU9
  23:../../libdaisy/src/hid/disp/display.h **** 
 102              		.loc 6 23 13 is_stmt 0 view .LVU10
 103              	.LBE608:
 104              	.LBE607:
 105              	.LBE606:
 106              	.LBB609:
 107              	.LBI609:
 108              		.file 7 "../../libdaisy/src/hid/midi.h"
   1:../../libdaisy/src/hid/midi.h **** #pragma once
   2:../../libdaisy/src/hid/midi.h **** #ifndef DSY_MIDI_H
   3:../../libdaisy/src/hid/midi.h **** #define DSY_MIDI_H
   4:../../libdaisy/src/hid/midi.h **** 
   5:../../libdaisy/src/hid/midi.h **** // TODO: make this adjustable
   6:../../libdaisy/src/hid/midi.h **** #define SYSEX_BUFFER_LEN 128
   7:../../libdaisy/src/hid/midi.h **** 
   8:../../libdaisy/src/hid/midi.h **** #include <stdint.h>
   9:../../libdaisy/src/hid/midi.h **** #include <stdlib.h>
  10:../../libdaisy/src/hid/midi.h **** #include "per/uart.h"
  11:../../libdaisy/src/hid/midi.h **** #include "util/ringbuffer.h"
  12:../../libdaisy/src/hid/midi.h **** #include "hid/MidiEvent.h"
  13:../../libdaisy/src/hid/midi.h **** #include "sys/system.h"
  14:../../libdaisy/src/hid/midi.h **** 
  15:../../libdaisy/src/hid/midi.h **** namespace daisy
  16:../../libdaisy/src/hid/midi.h **** {
  17:../../libdaisy/src/hid/midi.h **** /** @addtogroup external 
  18:../../libdaisy/src/hid/midi.h ****     @{ 
  19:../../libdaisy/src/hid/midi.h **** */
  20:../../libdaisy/src/hid/midi.h **** 
  21:../../libdaisy/src/hid/midi.h **** class MidiUartTransport
  22:../../libdaisy/src/hid/midi.h **** {
  23:../../libdaisy/src/hid/midi.h ****   public:
  24:../../libdaisy/src/hid/midi.h ****     MidiUartTransport() {}
  25:../../libdaisy/src/hid/midi.h ****     ~MidiUartTransport() {}
  26:../../libdaisy/src/hid/midi.h **** 
  27:../../libdaisy/src/hid/midi.h ****     struct Config
  28:../../libdaisy/src/hid/midi.h ****     {
  29:../../libdaisy/src/hid/midi.h ****         UartHandler::Config::Peripheral periph;
  30:../../libdaisy/src/hid/midi.h ****         dsy_gpio_pin                    rx;
  31:../../libdaisy/src/hid/midi.h ****         dsy_gpio_pin                    tx;
  32:../../libdaisy/src/hid/midi.h **** 
  33:../../libdaisy/src/hid/midi.h ****         Config()
  34:../../libdaisy/src/hid/midi.h ****         {
  35:../../libdaisy/src/hid/midi.h ****             periph = UartHandler::Config::Peripheral::USART_1;
  36:../../libdaisy/src/hid/midi.h ****             rx     = {DSY_GPIOB, 7};
  37:../../libdaisy/src/hid/midi.h ****             tx     = {DSY_GPIOB, 6};
  38:../../libdaisy/src/hid/midi.h ****         }
  39:../../libdaisy/src/hid/midi.h ****     };
  40:../../libdaisy/src/hid/midi.h **** 
ARM GAS  /tmp/ccZhYDze.s 			page 10


  41:../../libdaisy/src/hid/midi.h ****     inline void Init(Config config)
  42:../../libdaisy/src/hid/midi.h ****     {
  43:../../libdaisy/src/hid/midi.h ****         UartHandler::Config uart_config;
  44:../../libdaisy/src/hid/midi.h **** 
  45:../../libdaisy/src/hid/midi.h ****         //defaults
  46:../../libdaisy/src/hid/midi.h ****         uart_config.baudrate   = 31250;
  47:../../libdaisy/src/hid/midi.h ****         uart_config.stopbits   = UartHandler::Config::StopBits::BITS_1;
  48:../../libdaisy/src/hid/midi.h ****         uart_config.parity     = UartHandler::Config::Parity::NONE;
  49:../../libdaisy/src/hid/midi.h ****         uart_config.mode       = UartHandler::Config::Mode::TX_RX;
  50:../../libdaisy/src/hid/midi.h ****         uart_config.wordlength = UartHandler::Config::WordLength::BITS_8;
  51:../../libdaisy/src/hid/midi.h **** 
  52:../../libdaisy/src/hid/midi.h ****         //user settings
  53:../../libdaisy/src/hid/midi.h ****         uart_config.periph        = config.periph;
  54:../../libdaisy/src/hid/midi.h ****         uart_config.pin_config.rx = config.rx;
  55:../../libdaisy/src/hid/midi.h ****         uart_config.pin_config.tx = config.tx;
  56:../../libdaisy/src/hid/midi.h **** 
  57:../../libdaisy/src/hid/midi.h ****         uart_.Init(uart_config);
  58:../../libdaisy/src/hid/midi.h ****     }
  59:../../libdaisy/src/hid/midi.h **** 
  60:../../libdaisy/src/hid/midi.h ****     inline void    StartRx() { uart_.StartRx(); }
  61:../../libdaisy/src/hid/midi.h ****     inline size_t  Readable() { return uart_.Readable(); }
  62:../../libdaisy/src/hid/midi.h ****     inline uint8_t Rx() { return uart_.PopRx(); }
  63:../../libdaisy/src/hid/midi.h ****     inline bool    RxActive() { return uart_.RxActive(); }
  64:../../libdaisy/src/hid/midi.h ****     inline void    FlushRx() { uart_.FlushRx(); }
  65:../../libdaisy/src/hid/midi.h ****     inline void    Tx(uint8_t* buff, size_t size) { uart_.PollTx(buff, size); }
  66:../../libdaisy/src/hid/midi.h **** 
  67:../../libdaisy/src/hid/midi.h ****   private:
  68:../../libdaisy/src/hid/midi.h ****     UartHandler uart_;
  69:../../libdaisy/src/hid/midi.h **** };
  70:../../libdaisy/src/hid/midi.h **** 
  71:../../libdaisy/src/hid/midi.h **** /** 
  72:../../libdaisy/src/hid/midi.h ****     @brief Simple MIDI Handler \n 
  73:../../libdaisy/src/hid/midi.h ****     Parses bytes from an input into valid MidiEvents. \n 
  74:../../libdaisy/src/hid/midi.h ****     The MidiEvents fill a FIFO queue that the user can pop messages from.
  75:../../libdaisy/src/hid/midi.h ****     @author shensley
  76:../../libdaisy/src/hid/midi.h ****     @date March 2020
  77:../../libdaisy/src/hid/midi.h **** */
  78:../../libdaisy/src/hid/midi.h **** template <typename Transport>
  79:../../libdaisy/src/hid/midi.h **** class MidiHandler
  80:../../libdaisy/src/hid/midi.h **** {
  81:../../libdaisy/src/hid/midi.h ****   public:
  82:../../libdaisy/src/hid/midi.h ****     MidiHandler() {}
  83:../../libdaisy/src/hid/midi.h ****     ~MidiHandler() {}
 109              		.loc 7 83 5 is_stmt 1 view .LVU11
 110              	.LBB610:
 111              	.LBI610:
  25:../../libdaisy/src/hid/midi.h **** 
 112              		.loc 7 25 5 view .LVU12
  25:../../libdaisy/src/hid/midi.h **** 
 113              		.loc 7 25 5 is_stmt 0 view .LVU13
 114              	.LBE610:
 115              	.LBE609:
 116              	.LBB611:
 117              	.LBI611:
 118              		.file 8 "../../libdaisy/src/hid/encoder.h"
   1:../../libdaisy/src/hid/encoder.h **** #pragma once
   2:../../libdaisy/src/hid/encoder.h **** #ifndef DSY_ENCODER_H
ARM GAS  /tmp/ccZhYDze.s 			page 11


   3:../../libdaisy/src/hid/encoder.h **** #define DSY_ENCODER_H
   4:../../libdaisy/src/hid/encoder.h **** #include "daisy_core.h"
   5:../../libdaisy/src/hid/encoder.h **** #include "per/gpio.h"
   6:../../libdaisy/src/hid/encoder.h **** #include "hid/switch.h"
   7:../../libdaisy/src/hid/encoder.h **** 
   8:../../libdaisy/src/hid/encoder.h **** namespace daisy
   9:../../libdaisy/src/hid/encoder.h **** {
  10:../../libdaisy/src/hid/encoder.h **** /** 
  11:../../libdaisy/src/hid/encoder.h ****     @brief Generic Class for handling Quadrature Encoders \n 
  12:../../libdaisy/src/hid/encoder.h ****     Inspired/influenced by Mutable Instruments (pichenettes) Encoder classes
  13:../../libdaisy/src/hid/encoder.h ****     @author Stephen Hensley
  14:../../libdaisy/src/hid/encoder.h ****     @date December 2019
  15:../../libdaisy/src/hid/encoder.h ****     @ingroup controls
  16:../../libdaisy/src/hid/encoder.h **** */
  17:../../libdaisy/src/hid/encoder.h **** class Encoder
  18:../../libdaisy/src/hid/encoder.h **** {
  19:../../libdaisy/src/hid/encoder.h ****   public:
  20:../../libdaisy/src/hid/encoder.h ****     Encoder() {}
  21:../../libdaisy/src/hid/encoder.h ****     ~Encoder() {}
 119              		.loc 8 21 5 is_stmt 1 view .LVU14
 120              	.LBB612:
 121              	.LBI612:
 122              		.file 9 "../../libdaisy/src/hid/switch.h"
   1:../../libdaisy/src/hid/switch.h **** #pragma once
   2:../../libdaisy/src/hid/switch.h **** #ifndef DSY_SWITCH_H
   3:../../libdaisy/src/hid/switch.h **** #define DSY_SWITCH_H
   4:../../libdaisy/src/hid/switch.h **** #include "daisy_core.h"
   5:../../libdaisy/src/hid/switch.h **** #include "per/gpio.h"
   6:../../libdaisy/src/hid/switch.h **** 
   7:../../libdaisy/src/hid/switch.h **** namespace daisy
   8:../../libdaisy/src/hid/switch.h **** {
   9:../../libdaisy/src/hid/switch.h **** /** 
  10:../../libdaisy/src/hid/switch.h ****     Generic Class for handling momentary/latching switches \n 
  11:../../libdaisy/src/hid/switch.h ****     Inspired/influenced by Mutable Instruments (pichenettes) Switch classes
  12:../../libdaisy/src/hid/switch.h ****     @author Stephen Hensley
  13:../../libdaisy/src/hid/switch.h ****     @date December 2019
  14:../../libdaisy/src/hid/switch.h ****     @ingroup controls
  15:../../libdaisy/src/hid/switch.h **** */
  16:../../libdaisy/src/hid/switch.h **** class Switch
  17:../../libdaisy/src/hid/switch.h **** {
  18:../../libdaisy/src/hid/switch.h ****   public:
  19:../../libdaisy/src/hid/switch.h ****     /** Specifies the expected behavior of the switch */
  20:../../libdaisy/src/hid/switch.h ****     enum Type
  21:../../libdaisy/src/hid/switch.h ****     {
  22:../../libdaisy/src/hid/switch.h ****         TYPE_TOGGLE,    /**< & */
  23:../../libdaisy/src/hid/switch.h ****         TYPE_MOMENTARY, /**< & */
  24:../../libdaisy/src/hid/switch.h ****     };
  25:../../libdaisy/src/hid/switch.h ****     /** Specifies whether the pressed is HIGH or LOW. */
  26:../../libdaisy/src/hid/switch.h ****     enum Polarity
  27:../../libdaisy/src/hid/switch.h ****     {
  28:../../libdaisy/src/hid/switch.h ****         POLARITY_NORMAL,   /**< & */
  29:../../libdaisy/src/hid/switch.h ****         POLARITY_INVERTED, /**< & */
  30:../../libdaisy/src/hid/switch.h ****     };
  31:../../libdaisy/src/hid/switch.h **** 
  32:../../libdaisy/src/hid/switch.h ****     /** Specifies whether to use built-in Pull Up/Down resistors to hold button at a given state wh
  33:../../libdaisy/src/hid/switch.h ****     enum Pull
  34:../../libdaisy/src/hid/switch.h ****     {
ARM GAS  /tmp/ccZhYDze.s 			page 12


  35:../../libdaisy/src/hid/switch.h ****         PULL_UP,   /**< & */
  36:../../libdaisy/src/hid/switch.h ****         PULL_DOWN, /**< & */
  37:../../libdaisy/src/hid/switch.h ****         PULL_NONE, /**< & */
  38:../../libdaisy/src/hid/switch.h ****     };
  39:../../libdaisy/src/hid/switch.h **** 
  40:../../libdaisy/src/hid/switch.h ****     Switch() {}
  41:../../libdaisy/src/hid/switch.h ****     ~Switch() {}
 123              		.loc 9 41 5 view .LVU15
 124              		.loc 9 41 5 is_stmt 0 view .LVU16
 125              	.LBE612:
 126              	.LBE611:
 127              	.LBB613:
 128              	.LBI613:
 129              		.file 10 "../../libdaisy/src/daisy_seed.h"
   1:../../libdaisy/src/daisy_seed.h **** #pragma once
   2:../../libdaisy/src/daisy_seed.h **** #ifndef DSY_SEED_H
   3:../../libdaisy/src/daisy_seed.h **** #define DSY_SEED_H
   4:../../libdaisy/src/daisy_seed.h **** 
   5:../../libdaisy/src/daisy_seed.h **** #include "daisy.h"
   6:../../libdaisy/src/daisy_seed.h **** 
   7:../../libdaisy/src/daisy_seed.h **** //Uncomment this out if you're still using the rev2 hardware
   8:../../libdaisy/src/daisy_seed.h **** //#define SEED_REV2
   9:../../libdaisy/src/daisy_seed.h **** 
  10:../../libdaisy/src/daisy_seed.h **** namespace daisy
  11:../../libdaisy/src/daisy_seed.h **** {
  12:../../libdaisy/src/daisy_seed.h **** /**
  13:../../libdaisy/src/daisy_seed.h ****    @brief This is the higher-level interface for the Daisy board. \n 
  14:../../libdaisy/src/daisy_seed.h ****     All basic peripheral configuration/initialization is setup here. \n
  15:../../libdaisy/src/daisy_seed.h **** 
  16:../../libdaisy/src/daisy_seed.h ****    @ingroup boards
  17:../../libdaisy/src/daisy_seed.h **** */
  18:../../libdaisy/src/daisy_seed.h **** class DaisySeed
  19:../../libdaisy/src/daisy_seed.h **** {
  20:../../libdaisy/src/daisy_seed.h ****   public:
  21:../../libdaisy/src/daisy_seed.h ****     DaisySeed() {}
  22:../../libdaisy/src/daisy_seed.h ****     ~DaisySeed() {}
 130              		.loc 10 22 5 is_stmt 1 view .LVU17
 131              	.LBB614:
 132              	.LBI614:
 133              		.file 11 "../../libdaisy/src/sys/system.h"
   1:../../libdaisy/src/sys/system.h **** #ifndef DSY_SYSTEM_H
   2:../../libdaisy/src/sys/system.h **** #define DSY_SYSTEM_H
   3:../../libdaisy/src/sys/system.h **** 
   4:../../libdaisy/src/sys/system.h **** #ifndef UNIT_TEST // for unit tests, a dummy implementation is provided below
   5:../../libdaisy/src/sys/system.h **** 
   6:../../libdaisy/src/sys/system.h **** #include <cstdint>
   7:../../libdaisy/src/sys/system.h **** #include "per/tim.h"
   8:../../libdaisy/src/sys/system.h **** 
   9:../../libdaisy/src/sys/system.h **** namespace daisy
  10:../../libdaisy/src/sys/system.h **** {
  11:../../libdaisy/src/sys/system.h **** /** A handle for interacting with the Core System. 
  12:../../libdaisy/src/sys/system.h ****  ** This includes the Clock tree, MPU, global DMA initialization,
  13:../../libdaisy/src/sys/system.h ****  ** cache handling, and any other necessary global initiailzation
  14:../../libdaisy/src/sys/system.h ****  **
  15:../../libdaisy/src/sys/system.h ****  ** @author shensley
  16:../../libdaisy/src/sys/system.h ****  ** @addtogroup system
  17:../../libdaisy/src/sys/system.h ****  */
ARM GAS  /tmp/ccZhYDze.s 			page 13


  18:../../libdaisy/src/sys/system.h **** class System
  19:../../libdaisy/src/sys/system.h **** {
  20:../../libdaisy/src/sys/system.h ****   public:
  21:../../libdaisy/src/sys/system.h ****     /** Contains settings for initializing the System */
  22:../../libdaisy/src/sys/system.h ****     struct Config
  23:../../libdaisy/src/sys/system.h ****     {
  24:../../libdaisy/src/sys/system.h ****         /** Specifies the system clock frequency that feeds APB/AHB clocks, etc. */
  25:../../libdaisy/src/sys/system.h ****         enum class SysClkFreq
  26:../../libdaisy/src/sys/system.h ****         {
  27:../../libdaisy/src/sys/system.h ****             FREQ_400MHZ,
  28:../../libdaisy/src/sys/system.h ****             FREQ_480MHZ,
  29:../../libdaisy/src/sys/system.h ****         };
  30:../../libdaisy/src/sys/system.h **** 
  31:../../libdaisy/src/sys/system.h ****         /** Method to call on the struct to set to defaults
  32:../../libdaisy/src/sys/system.h ****          ** CPU Freq set to 400MHz
  33:../../libdaisy/src/sys/system.h ****          ** Cache Enabled 
  34:../../libdaisy/src/sys/system.h ****          ** */
  35:../../libdaisy/src/sys/system.h ****         void Defaults()
  36:../../libdaisy/src/sys/system.h ****         {
  37:../../libdaisy/src/sys/system.h ****             cpu_freq   = SysClkFreq::FREQ_400MHZ;
  38:../../libdaisy/src/sys/system.h ****             use_dcache = true;
  39:../../libdaisy/src/sys/system.h ****             use_icache = true;
  40:../../libdaisy/src/sys/system.h ****         }
  41:../../libdaisy/src/sys/system.h **** 
  42:../../libdaisy/src/sys/system.h ****         /** Method to call on the struct to set to boost mode:
  43:../../libdaisy/src/sys/system.h ****          ** CPU Freq set to 480MHz
  44:../../libdaisy/src/sys/system.h ****          ** Cache Enabled 
  45:../../libdaisy/src/sys/system.h ****          ** */
  46:../../libdaisy/src/sys/system.h ****         void Boost()
  47:../../libdaisy/src/sys/system.h ****         {
  48:../../libdaisy/src/sys/system.h ****             cpu_freq   = SysClkFreq::FREQ_480MHZ;
  49:../../libdaisy/src/sys/system.h ****             use_dcache = true;
  50:../../libdaisy/src/sys/system.h ****             use_icache = true;
  51:../../libdaisy/src/sys/system.h ****         }
  52:../../libdaisy/src/sys/system.h **** 
  53:../../libdaisy/src/sys/system.h ****         SysClkFreq cpu_freq;
  54:../../libdaisy/src/sys/system.h ****         bool       use_dcache;
  55:../../libdaisy/src/sys/system.h ****         bool       use_icache;
  56:../../libdaisy/src/sys/system.h ****     };
  57:../../libdaisy/src/sys/system.h **** 
  58:../../libdaisy/src/sys/system.h ****     System() {}
  59:../../libdaisy/src/sys/system.h ****     ~System() {}
 134              		.loc 11 59 5 view .LVU18
 135              		.loc 11 59 5 is_stmt 0 view .LVU19
 136              	.LBE614:
 137              	.LBB615:
 138              	.LBI615:
 139              		.file 12 "../../libdaisy/src/hid/usb.h"
   1:../../libdaisy/src/hid/usb.h **** #pragma once
   2:../../libdaisy/src/hid/usb.h **** #ifndef DSY_HID_USB_H
   3:../../libdaisy/src/hid/usb.h **** #define DSY_HID_USB_H
   4:../../libdaisy/src/hid/usb.h **** #include <stdint.h>
   5:../../libdaisy/src/hid/usb.h **** #include <stdlib.h>
   6:../../libdaisy/src/hid/usb.h **** 
   7:../../libdaisy/src/hid/usb.h **** namespace daisy
   8:../../libdaisy/src/hid/usb.h **** /** @addtogroup externals
   9:../../libdaisy/src/hid/usb.h ****     @{
ARM GAS  /tmp/ccZhYDze.s 			page 14


  10:../../libdaisy/src/hid/usb.h **** */
  11:../../libdaisy/src/hid/usb.h **** 
  12:../../libdaisy/src/hid/usb.h **** {
  13:../../libdaisy/src/hid/usb.h **** /** 
  14:../../libdaisy/src/hid/usb.h ****     @brief Interface for initializing and using the USB Peripherals on the daisy
  15:../../libdaisy/src/hid/usb.h ****     @author Stephen Hensley
  16:../../libdaisy/src/hid/usb.h ****     @date December 2019
  17:../../libdaisy/src/hid/usb.h **** */
  18:../../libdaisy/src/hid/usb.h **** class UsbHandle
  19:../../libdaisy/src/hid/usb.h **** {
  20:../../libdaisy/src/hid/usb.h ****   public:
  21:../../libdaisy/src/hid/usb.h ****     /** Return values for USBHandle Functions */
  22:../../libdaisy/src/hid/usb.h ****     enum class Result
  23:../../libdaisy/src/hid/usb.h ****     {
  24:../../libdaisy/src/hid/usb.h ****         OK,
  25:../../libdaisy/src/hid/usb.h ****         ERR,
  26:../../libdaisy/src/hid/usb.h ****     };
  27:../../libdaisy/src/hid/usb.h **** 
  28:../../libdaisy/src/hid/usb.h ****     /** Specified which of the two USB Peripherals to initialize. */
  29:../../libdaisy/src/hid/usb.h ****     enum UsbPeriph
  30:../../libdaisy/src/hid/usb.h ****     {
  31:../../libdaisy/src/hid/usb.h ****         FS_INTERNAL, /**< Internal pin */
  32:../../libdaisy/src/hid/usb.h ****         FS_EXTERNAL, /**< FS External D+ pin is Pin 38 (GPIO32). FS External D- pin is Pin 37 (GPIO
  33:../../libdaisy/src/hid/usb.h ****         FS_BOTH,     /**< Both */
  34:../../libdaisy/src/hid/usb.h ****     };
  35:../../libdaisy/src/hid/usb.h **** 
  36:../../libdaisy/src/hid/usb.h **** 
  37:../../libdaisy/src/hid/usb.h ****     /** Function called upon reception of a buffer */
  38:../../libdaisy/src/hid/usb.h ****     typedef void (*ReceiveCallback)(uint8_t* buff, uint32_t* len);
  39:../../libdaisy/src/hid/usb.h **** 
  40:../../libdaisy/src/hid/usb.h ****     UsbHandle() {}
  41:../../libdaisy/src/hid/usb.h **** 
  42:../../libdaisy/src/hid/usb.h ****     ~UsbHandle() {}
 140              		.loc 12 42 5 is_stmt 1 view .LVU20
 141              		.loc 12 42 5 is_stmt 0 view .LVU21
 142              	.LBE615:
 143              	.LBB616:
 144              	.LBI616:
 145              		.file 13 "../../libdaisy/src/per/adc.h"
   1:../../libdaisy/src/per/adc.h **** #pragma once
   2:../../libdaisy/src/per/adc.h **** #ifndef DSY_ADC_H
   3:../../libdaisy/src/per/adc.h **** #define DSY_ADC_H /**< Macro */
   4:../../libdaisy/src/per/adc.h **** #include <stdint.h>
   5:../../libdaisy/src/per/adc.h **** #include <stdlib.h>
   6:../../libdaisy/src/per/adc.h **** #include "daisy_core.h"
   7:../../libdaisy/src/per/adc.h **** #include "per/gpio.h"
   8:../../libdaisy/src/per/adc.h **** 
   9:../../libdaisy/src/per/adc.h **** #define DSY_ADC_MAX_CHANNELS 14 /**< Maximum number of ADC channels */
  10:../../libdaisy/src/per/adc.h **** 
  11:../../libdaisy/src/per/adc.h **** namespace daisy
  12:../../libdaisy/src/per/adc.h **** {
  13:../../libdaisy/src/per/adc.h **** /** @addtogroup analog_digital_conversion
  14:../../libdaisy/src/per/adc.h ****     @{
  15:../../libdaisy/src/per/adc.h **** */
  16:../../libdaisy/src/per/adc.h **** 
  17:../../libdaisy/src/per/adc.h **** /* While there may not be many configuration options here,
  18:../../libdaisy/src/per/adc.h **** using a struct like this allows us to add more configuration
ARM GAS  /tmp/ccZhYDze.s 			page 15


  19:../../libdaisy/src/per/adc.h **** later without breaking existing functionality.
  20:../../libdaisy/src/per/adc.h **** */
  21:../../libdaisy/src/per/adc.h **** 
  22:../../libdaisy/src/per/adc.h **** /** Configuration Structure for a given channel */
  23:../../libdaisy/src/per/adc.h **** struct AdcChannelConfig
  24:../../libdaisy/src/per/adc.h **** {
  25:../../libdaisy/src/per/adc.h ****     /** Which pin to use for multiplexing */
  26:../../libdaisy/src/per/adc.h ****     enum MuxPin
  27:../../libdaisy/src/per/adc.h ****     {
  28:../../libdaisy/src/per/adc.h ****         MUX_SEL_0,    /**< & */
  29:../../libdaisy/src/per/adc.h ****         MUX_SEL_1,    /**< & */
  30:../../libdaisy/src/per/adc.h ****         MUX_SEL_2,    /**< & */
  31:../../libdaisy/src/per/adc.h ****         MUX_SEL_LAST, /**< & */
  32:../../libdaisy/src/per/adc.h ****     };
  33:../../libdaisy/src/per/adc.h **** 
  34:../../libdaisy/src/per/adc.h ****     /** Initializes a single ADC pin as an ADC. 
  35:../../libdaisy/src/per/adc.h ****     \param pin Pin to init.
  36:../../libdaisy/src/per/adc.h ****      */
  37:../../libdaisy/src/per/adc.h ****     void InitSingle(dsy_gpio_pin pin);
  38:../../libdaisy/src/per/adc.h **** 
  39:../../libdaisy/src/per/adc.h ****     /** 
  40:../../libdaisy/src/per/adc.h ****     Initializes a single ADC pin as a Multiplexed ADC.
  41:../../libdaisy/src/per/adc.h ****     Requires a CD405X Multiplexer connected to the pin.
  42:../../libdaisy/src/per/adc.h ****     You only need to supply the mux pins that are required,
  43:../../libdaisy/src/per/adc.h ****     e.g. a 4052 mux would only require mux_0 and mux_1.
  44:../../libdaisy/src/per/adc.h ****     Internal Callbacks handle the pin addressing.
  45:../../libdaisy/src/per/adc.h ****     \param mux_channels must be 1-8
  46:../../libdaisy/src/per/adc.h ****     \param mux_0 First mux pin
  47:../../libdaisy/src/per/adc.h ****     \param mux_1 Second mux pin
  48:../../libdaisy/src/per/adc.h ****     \param mux_2 Third mux pin
  49:../../libdaisy/src/per/adc.h ****     \param adc_pin &
  50:../../libdaisy/src/per/adc.h ****     */
  51:../../libdaisy/src/per/adc.h ****     void InitMux(dsy_gpio_pin adc_pin,
  52:../../libdaisy/src/per/adc.h ****                  size_t       mux_channels,
  53:../../libdaisy/src/per/adc.h ****                  dsy_gpio_pin mux_0,
  54:../../libdaisy/src/per/adc.h ****                  dsy_gpio_pin mux_1 = {DSY_GPIOX, 0},
  55:../../libdaisy/src/per/adc.h ****                  dsy_gpio_pin mux_2 = {DSY_GPIOX, 0});
  56:../../libdaisy/src/per/adc.h **** 
  57:../../libdaisy/src/per/adc.h ****     dsy_gpio pin_;                   /**< & */
  58:../../libdaisy/src/per/adc.h ****     dsy_gpio mux_pin_[MUX_SEL_LAST]; /**< & */
  59:../../libdaisy/src/per/adc.h ****     uint8_t  mux_channels_;          /**< & */
  60:../../libdaisy/src/per/adc.h **** };
  61:../../libdaisy/src/per/adc.h **** 
  62:../../libdaisy/src/per/adc.h **** /**
  63:../../libdaisy/src/per/adc.h ****    Handler for analog to digital conversion
  64:../../libdaisy/src/per/adc.h **** */
  65:../../libdaisy/src/per/adc.h **** class AdcHandle
  66:../../libdaisy/src/per/adc.h **** {
  67:../../libdaisy/src/per/adc.h ****   public:
  68:../../libdaisy/src/per/adc.h ****     /** Supported oversampling amounts */
  69:../../libdaisy/src/per/adc.h ****     enum OverSampling
  70:../../libdaisy/src/per/adc.h ****     {
  71:../../libdaisy/src/per/adc.h ****         OVS_NONE, /**< & */
  72:../../libdaisy/src/per/adc.h ****         OVS_4,    /**< & */
  73:../../libdaisy/src/per/adc.h ****         OVS_8,    /**< & */
  74:../../libdaisy/src/per/adc.h ****         OVS_16,   /**< & */
  75:../../libdaisy/src/per/adc.h ****         OVS_32,   /**< & */
ARM GAS  /tmp/ccZhYDze.s 			page 16


  76:../../libdaisy/src/per/adc.h ****         OVS_64,   /**< & */
  77:../../libdaisy/src/per/adc.h ****         OVS_128,  /**< & */
  78:../../libdaisy/src/per/adc.h ****         OVS_256,  /**< & */
  79:../../libdaisy/src/per/adc.h ****         OVS_512,  /**< & */
  80:../../libdaisy/src/per/adc.h ****         OVS_1024, /**< & */
  81:../../libdaisy/src/per/adc.h ****         OVS_LAST, /**< & */
  82:../../libdaisy/src/per/adc.h ****     };
  83:../../libdaisy/src/per/adc.h **** 
  84:../../libdaisy/src/per/adc.h ****     AdcHandle() {}
  85:../../libdaisy/src/per/adc.h ****     ~AdcHandle() {}
 146              		.loc 13 85 5 is_stmt 1 view .LVU22
 147              		.loc 13 85 5 is_stmt 0 view .LVU23
 148              	.LBE616:
 149              	.LBB617:
 150              	.LBI617:
 151              		.file 14 "../../libdaisy/src/hid/audio.h"
   1:../../libdaisy/src/hid/audio.h **** #ifndef DSY_AUDIO_H
   2:../../libdaisy/src/hid/audio.h **** #define DSY_AUDIO_H /**< & */
   3:../../libdaisy/src/hid/audio.h **** 
   4:../../libdaisy/src/hid/audio.h **** #include "per/sai.h"
   5:../../libdaisy/src/hid/audio.h **** 
   6:../../libdaisy/src/hid/audio.h **** namespace daisy
   7:../../libdaisy/src/hid/audio.h **** {
   8:../../libdaisy/src/hid/audio.h **** class AudioHandle
   9:../../libdaisy/src/hid/audio.h **** {
  10:../../libdaisy/src/hid/audio.h ****   public:
  11:../../libdaisy/src/hid/audio.h ****     /** Manually configurable details about the Audio Engine */
  12:../../libdaisy/src/hid/audio.h ****     /** TODO: Figure out how to get samplerate in here. */
  13:../../libdaisy/src/hid/audio.h ****     struct Config
  14:../../libdaisy/src/hid/audio.h ****     {
  15:../../libdaisy/src/hid/audio.h ****         size_t                        blocksize;
  16:../../libdaisy/src/hid/audio.h ****         SaiHandle::Config::SampleRate samplerate;
  17:../../libdaisy/src/hid/audio.h ****         float                         postgain;
  18:../../libdaisy/src/hid/audio.h ****     };
  19:../../libdaisy/src/hid/audio.h **** 
  20:../../libdaisy/src/hid/audio.h ****     enum class Result
  21:../../libdaisy/src/hid/audio.h ****     {
  22:../../libdaisy/src/hid/audio.h ****         OK,
  23:../../libdaisy/src/hid/audio.h ****         ERR,
  24:../../libdaisy/src/hid/audio.h ****     };
  25:../../libdaisy/src/hid/audio.h **** 
  26:../../libdaisy/src/hid/audio.h ****     /** Non-Interleaving input buffer
  27:../../libdaisy/src/hid/audio.h ****      * Buffer arranged by float[chn][sample] 
  28:../../libdaisy/src/hid/audio.h ****      * const so that the user can't modify the input
  29:../../libdaisy/src/hid/audio.h ****     */
  30:../../libdaisy/src/hid/audio.h ****     typedef const float* const* InputBuffer;
  31:../../libdaisy/src/hid/audio.h **** 
  32:../../libdaisy/src/hid/audio.h ****     /** Non-Interleaving output buffer
  33:../../libdaisy/src/hid/audio.h ****      * Arranged by float[chn][sample] 
  34:../../libdaisy/src/hid/audio.h ****     */
  35:../../libdaisy/src/hid/audio.h ****     typedef float** OutputBuffer;
  36:../../libdaisy/src/hid/audio.h **** 
  37:../../libdaisy/src/hid/audio.h ****     /** Type for a Non-Interleaving audio callback 
  38:../../libdaisy/src/hid/audio.h ****    * Non-Interleaving audio callbacks in daisy will be of this type
  39:../../libdaisy/src/hid/audio.h ****   */
  40:../../libdaisy/src/hid/audio.h ****     typedef void (*AudioCallback)(InputBuffer  in,
  41:../../libdaisy/src/hid/audio.h ****                                   OutputBuffer out,
ARM GAS  /tmp/ccZhYDze.s 			page 17


  42:../../libdaisy/src/hid/audio.h ****                                   size_t       size);
  43:../../libdaisy/src/hid/audio.h **** 
  44:../../libdaisy/src/hid/audio.h ****     /** Interleaving Input buffer
  45:../../libdaisy/src/hid/audio.h ****      ** audio is prepared as { L0, R0, L1, R1, . . . LN, RN }]
  46:../../libdaisy/src/hid/audio.h ****      ** this is const, as the user shouldn't modify it
  47:../../libdaisy/src/hid/audio.h ****     */
  48:../../libdaisy/src/hid/audio.h ****     typedef const float* InterleavingInputBuffer;
  49:../../libdaisy/src/hid/audio.h **** 
  50:../../libdaisy/src/hid/audio.h ****     /** Interleaving Output buffer 
  51:../../libdaisy/src/hid/audio.h ****      ** audio is prepared as { L0, R0, L1, R1, . . . LN, RN }
  52:../../libdaisy/src/hid/audio.h ****     */
  53:../../libdaisy/src/hid/audio.h ****     typedef float* InterleavingOutputBuffer;
  54:../../libdaisy/src/hid/audio.h **** 
  55:../../libdaisy/src/hid/audio.h ****     /** Interleaving Audio Callback 
  56:../../libdaisy/src/hid/audio.h ****    * Interleaving audio callbacks in daisy must be of this type
  57:../../libdaisy/src/hid/audio.h ****   */
  58:../../libdaisy/src/hid/audio.h ****     typedef void (*InterleavingAudioCallback)(InterleavingInputBuffer  in,
  59:../../libdaisy/src/hid/audio.h ****                                               InterleavingOutputBuffer out,
  60:../../libdaisy/src/hid/audio.h ****                                               size_t                   size);
  61:../../libdaisy/src/hid/audio.h **** 
  62:../../libdaisy/src/hid/audio.h ****     AudioHandle() : pimpl_(nullptr) {}
  63:../../libdaisy/src/hid/audio.h ****     ~AudioHandle() {}
 152              		.loc 14 63 5 is_stmt 1 view .LVU24
 153              		.loc 14 63 5 is_stmt 0 view .LVU25
 154              	.LBE617:
 155              	.LBE613:
 156              		.loc 4 41 20 view .LVU26
 157 0000 7047     		bx	lr
 158              		.cfi_endproc
 159              	.LFE4230:
 161              		.weak	_ZN5daisy10DaisyPatchD1Ev
 162              		.thumb_set _ZN5daisy10DaisyPatchD1Ev,_ZN5daisy10DaisyPatchD2Ev
 163 0002 00BF     		.section	.text._ZN5daisy11OledDisplayINS_13SSD130xDriverILj128ELj64ENS_24SSD130x4WireSpiTransportE
 164              		.align	1
 165              		.p2align 2,,3
 166              		.weak	_ZN5daisy11OledDisplayINS_13SSD130xDriverILj128ELj64ENS_24SSD130x4WireSpiTransportEEEED2Ev
 167              		.syntax unified
 168              		.thumb
 169              		.thumb_func
 170              		.fpu fpv5-d16
 172              	_ZN5daisy11OledDisplayINS_13SSD130xDriverILj128ELj64ENS_24SSD130x4WireSpiTransportEEEED2Ev:
 173              	.LVL3:
 174              	.LFB4550:
 175              		.loc 5 17 13 is_stmt 1 view -0
 176              		.cfi_startproc
 177              		@ args = 0, pretend = 0, frame = 0
 178              		@ frame_needed = 0, uses_anonymous_args = 0
 179              		@ link register save eliminated.
 180              	.LBB618:
 181              	.LBI618:
 182              		.loc 6 219 13 view .LVU28
 183              	.LBB619:
 184              	.LBI619:
  23:../../libdaisy/src/hid/disp/display.h **** 
 185              		.loc 6 23 13 view .LVU29
  23:../../libdaisy/src/hid/disp/display.h **** 
 186              		.loc 6 23 13 is_stmt 0 view .LVU30
ARM GAS  /tmp/ccZhYDze.s 			page 18


 187              	.LBE619:
 188              	.LBE618:
 189              		.loc 5 17 29 view .LVU31
 190 0000 7047     		bx	lr
 191              		.cfi_endproc
 192              	.LFE4550:
 194              		.weak	_ZN5daisy11OledDisplayINS_13SSD130xDriverILj128ELj64ENS_24SSD130x4WireSpiTransportEEEED1Ev
 195              		.thumb_set _ZN5daisy11OledDisplayINS_13SSD130xDriverILj128ELj64ENS_24SSD130x4WireSpiTransportEEEED
 196 0002 00BF     		.section	.text.__tcf_0,"ax",%progbits
 197              		.align	1
 198              		.p2align 2,,3
 199              		.syntax unified
 200              		.thumb
 201              		.thumb_func
 202              		.fpu fpv5-d16
 204              	__tcf_0:
 205              	.LFB4820:
 206              		.file 15 "ex_verb.cpp"
   1:ex_verb.cpp   **** #include "daisysp.h"
   2:ex_verb.cpp   **** #include "daisy_patch.h"
   3:ex_verb.cpp   **** #include <string>
   4:ex_verb.cpp   **** 
   5:ex_verb.cpp   **** using namespace daisy;
   6:ex_verb.cpp   **** using namespace daisysp;
   7:ex_verb.cpp   **** static DaisyPatch patch;
   8:ex_verb.cpp   **** static ReverbSc   verb;
   9:ex_verb.cpp   **** static DcBlock    blk[2];
 207              		.loc 15 9 19 is_stmt 1 view -0
 208              		.cfi_startproc
 209              		@ args = 0, pretend = 0, frame = 0
 210              		@ frame_needed = 0, uses_anonymous_args = 0
 211              		@ link register save eliminated.
 212              		.loc 15 9 19 is_stmt 0 view .LVU33
 213 0000 7047     		bx	lr
 214              		.cfi_endproc
 215              	.LFE4820:
 217 0002 00BF     		.section	.text._ZNK5daisy11OledDisplayINS_13SSD130xDriverILj128ELj64ENS_24SSD130x4WireSpiTransport
 218              		.align	1
 219              		.p2align 2,,3
 220              		.weak	_ZNK5daisy11OledDisplayINS_13SSD130xDriverILj128ELj64ENS_24SSD130x4WireSpiTransportEEEE6Heig
 221              		.syntax unified
 222              		.thumb
 223              		.thumb_func
 224              		.fpu fpv5-d16
 226              	_ZNK5daisy11OledDisplayINS_13SSD130xDriverILj128ELj64ENS_24SSD130x4WireSpiTransportEEEE6HeightEv:
 227              	.LVL4:
 228              	.LFB4821:
  18:../../libdaisy/src/hid/disp/oled_display.h **** 
  19:../../libdaisy/src/hid/disp/oled_display.h ****     struct Config
  20:../../libdaisy/src/hid/disp/oled_display.h ****     {
  21:../../libdaisy/src/hid/disp/oled_display.h ****         typename DisplayDriver::Config driver_config;
  22:../../libdaisy/src/hid/disp/oled_display.h ****     };
  23:../../libdaisy/src/hid/disp/oled_display.h **** 
  24:../../libdaisy/src/hid/disp/oled_display.h ****     void Init(Config config) { driver_.Init(config.driver_config); }
  25:../../libdaisy/src/hid/disp/oled_display.h **** 
  26:../../libdaisy/src/hid/disp/oled_display.h ****     uint16_t Height() const override { return driver_.Height(); }
 229              		.loc 5 26 14 is_stmt 1 view -0
ARM GAS  /tmp/ccZhYDze.s 			page 19


 230              		.cfi_startproc
 231              		@ args = 0, pretend = 0, frame = 0
 232              		@ frame_needed = 0, uses_anonymous_args = 0
 233              		@ link register save eliminated.
 234              		.loc 5 26 65 is_stmt 0 view .LVU35
 235 0000 4020     		movs	r0, #64
 236              	.LVL5:
 237              		.loc 5 26 65 view .LVU36
 238 0002 7047     		bx	lr
 239              		.cfi_endproc
 240              	.LFE4821:
 242              		.section	.text._ZNK5daisy11OledDisplayINS_13SSD130xDriverILj128ELj64ENS_24SSD130x4WireSpiTransport
 243              		.align	1
 244              		.p2align 2,,3
 245              		.weak	_ZNK5daisy11OledDisplayINS_13SSD130xDriverILj128ELj64ENS_24SSD130x4WireSpiTransportEEEE5Widt
 246              		.syntax unified
 247              		.thumb
 248              		.thumb_func
 249              		.fpu fpv5-d16
 251              	_ZNK5daisy11OledDisplayINS_13SSD130xDriverILj128ELj64ENS_24SSD130x4WireSpiTransportEEEE5WidthEv:
 252              	.LVL6:
 253              	.LFB4822:
  27:../../libdaisy/src/hid/disp/oled_display.h ****     uint16_t Width() const override { return driver_.Width(); }
 254              		.loc 5 27 14 is_stmt 1 view -0
 255              		.cfi_startproc
 256              		@ args = 0, pretend = 0, frame = 0
 257              		@ frame_needed = 0, uses_anonymous_args = 0
 258              		@ link register save eliminated.
 259              		.loc 5 27 63 is_stmt 0 view .LVU38
 260 0000 8020     		movs	r0, #128
 261              	.LVL7:
 262              		.loc 5 27 63 view .LVU39
 263 0002 7047     		bx	lr
 264              		.cfi_endproc
 265              	.LFE4822:
 267              		.section	.text._ZN5daisy11OledDisplayINS_13SSD130xDriverILj128ELj64ENS_24SSD130x4WireSpiTransportE
 268              		.align	1
 269              		.p2align 2,,3
 270              		.weak	_ZN5daisy11OledDisplayINS_13SSD130xDriverILj128ELj64ENS_24SSD130x4WireSpiTransportEEEE4FillE
 271              		.syntax unified
 272              		.thumb
 273              		.thumb_func
 274              		.fpu fpv5-d16
 276              	_ZN5daisy11OledDisplayINS_13SSD130xDriverILj128ELj64ENS_24SSD130x4WireSpiTransportEEEE4FillEb:
 277              	.LVL8:
 278              	.LFB4823:
  28:../../libdaisy/src/hid/disp/oled_display.h **** 
  29:../../libdaisy/src/hid/disp/oled_display.h ****     /** 
  30:../../libdaisy/src/hid/disp/oled_display.h ****     Fills the entire display with either on/off.
  31:../../libdaisy/src/hid/disp/oled_display.h ****     \param on Sets on or off.
  32:../../libdaisy/src/hid/disp/oled_display.h ****     */
  33:../../libdaisy/src/hid/disp/oled_display.h ****     void Fill(bool on) override { driver_.Fill(on); }
 279              		.loc 5 33 10 is_stmt 1 view -0
 280              		.cfi_startproc
 281              		@ args = 0, pretend = 0, frame = 0
 282              		@ frame_needed = 0, uses_anonymous_args = 0
 283              		@ link register save eliminated.
ARM GAS  /tmp/ccZhYDze.s 			page 20


 284              	.LBB620:
 285              	.LBI620:
 286              		.file 16 "../../libdaisy/src/dev/oled_ssd130x.h"
   1:../../libdaisy/src/dev/oled_ssd130x.h **** #pragma once
   2:../../libdaisy/src/dev/oled_ssd130x.h **** #ifndef SA_OLED_SSD130X_H
   3:../../libdaisy/src/dev/oled_ssd130x.h **** #define SA_OLED_SSD130X_H /**< & */
   4:../../libdaisy/src/dev/oled_ssd130x.h **** 
   5:../../libdaisy/src/dev/oled_ssd130x.h **** #include "per/i2c.h"
   6:../../libdaisy/src/dev/oled_ssd130x.h **** #include "per/spi.h"
   7:../../libdaisy/src/dev/oled_ssd130x.h **** #include "per/gpio.h"
   8:../../libdaisy/src/dev/oled_ssd130x.h **** #include "sys/system.h"
   9:../../libdaisy/src/dev/oled_ssd130x.h **** 
  10:../../libdaisy/src/dev/oled_ssd130x.h **** namespace daisy
  11:../../libdaisy/src/dev/oled_ssd130x.h **** {
  12:../../libdaisy/src/dev/oled_ssd130x.h **** /**
  13:../../libdaisy/src/dev/oled_ssd130x.h ****  * I2C Transport for SSD1306 / SSD1309 OLED display devices
  14:../../libdaisy/src/dev/oled_ssd130x.h ****  */
  15:../../libdaisy/src/dev/oled_ssd130x.h **** class SSD130xI2CTransport
  16:../../libdaisy/src/dev/oled_ssd130x.h **** {
  17:../../libdaisy/src/dev/oled_ssd130x.h ****   public:
  18:../../libdaisy/src/dev/oled_ssd130x.h ****     struct Config
  19:../../libdaisy/src/dev/oled_ssd130x.h ****     {
  20:../../libdaisy/src/dev/oled_ssd130x.h ****         I2CHandle::Config i2c_config;
  21:../../libdaisy/src/dev/oled_ssd130x.h ****         uint8_t           i2c_address;
  22:../../libdaisy/src/dev/oled_ssd130x.h ****         void              Defaults()
  23:../../libdaisy/src/dev/oled_ssd130x.h ****         {
  24:../../libdaisy/src/dev/oled_ssd130x.h ****             i2c_config.periph         = I2CHandle::Config::Peripheral::I2C_1;
  25:../../libdaisy/src/dev/oled_ssd130x.h ****             i2c_config.speed          = I2CHandle::Config::Speed::I2C_1MHZ;
  26:../../libdaisy/src/dev/oled_ssd130x.h ****             i2c_config.mode           = I2CHandle::Config::Mode::I2C_MASTER;
  27:../../libdaisy/src/dev/oled_ssd130x.h ****             i2c_config.pin_config.scl = {DSY_GPIOB, 8};
  28:../../libdaisy/src/dev/oled_ssd130x.h ****             i2c_config.pin_config.sda = {DSY_GPIOB, 9};
  29:../../libdaisy/src/dev/oled_ssd130x.h ****             i2c_address               = 0x3C;
  30:../../libdaisy/src/dev/oled_ssd130x.h ****         }
  31:../../libdaisy/src/dev/oled_ssd130x.h ****     };
  32:../../libdaisy/src/dev/oled_ssd130x.h ****     void Init(const Config& config)
  33:../../libdaisy/src/dev/oled_ssd130x.h ****     {
  34:../../libdaisy/src/dev/oled_ssd130x.h ****         i2c_address_ = config.i2c_address;
  35:../../libdaisy/src/dev/oled_ssd130x.h ****         i2c_.Init(config.i2c_config);
  36:../../libdaisy/src/dev/oled_ssd130x.h ****     };
  37:../../libdaisy/src/dev/oled_ssd130x.h ****     void SendCommand(uint8_t cmd)
  38:../../libdaisy/src/dev/oled_ssd130x.h ****     {
  39:../../libdaisy/src/dev/oled_ssd130x.h ****         uint8_t buf[2] = {0X00, cmd};
  40:../../libdaisy/src/dev/oled_ssd130x.h ****         i2c_.TransmitBlocking(i2c_address_, buf, 2, 1000);
  41:../../libdaisy/src/dev/oled_ssd130x.h ****     };
  42:../../libdaisy/src/dev/oled_ssd130x.h **** 
  43:../../libdaisy/src/dev/oled_ssd130x.h ****     void SendData(uint8_t* buff, size_t size)
  44:../../libdaisy/src/dev/oled_ssd130x.h ****     {
  45:../../libdaisy/src/dev/oled_ssd130x.h ****         for(size_t i = 0; i < size; i++)
  46:../../libdaisy/src/dev/oled_ssd130x.h ****         {
  47:../../libdaisy/src/dev/oled_ssd130x.h ****             uint8_t buf[2] = {0X40, buff[i]};
  48:../../libdaisy/src/dev/oled_ssd130x.h ****             i2c_.TransmitBlocking(i2c_address_, buf, 2, 1000);
  49:../../libdaisy/src/dev/oled_ssd130x.h ****         }
  50:../../libdaisy/src/dev/oled_ssd130x.h ****     };
  51:../../libdaisy/src/dev/oled_ssd130x.h **** 
  52:../../libdaisy/src/dev/oled_ssd130x.h ****   private:
  53:../../libdaisy/src/dev/oled_ssd130x.h ****     daisy::I2CHandle i2c_;
  54:../../libdaisy/src/dev/oled_ssd130x.h ****     uint8_t          i2c_address_;
ARM GAS  /tmp/ccZhYDze.s 			page 21


  55:../../libdaisy/src/dev/oled_ssd130x.h **** };
  56:../../libdaisy/src/dev/oled_ssd130x.h **** 
  57:../../libdaisy/src/dev/oled_ssd130x.h **** /**
  58:../../libdaisy/src/dev/oled_ssd130x.h ****  * 4 Wire SPI Transport for SSD1306 / SSD1309 OLED display devices
  59:../../libdaisy/src/dev/oled_ssd130x.h ****  */
  60:../../libdaisy/src/dev/oled_ssd130x.h **** class SSD130x4WireSpiTransport
  61:../../libdaisy/src/dev/oled_ssd130x.h **** {
  62:../../libdaisy/src/dev/oled_ssd130x.h ****   public:
  63:../../libdaisy/src/dev/oled_ssd130x.h ****     struct Config
  64:../../libdaisy/src/dev/oled_ssd130x.h ****     {
  65:../../libdaisy/src/dev/oled_ssd130x.h ****         struct
  66:../../libdaisy/src/dev/oled_ssd130x.h ****         {
  67:../../libdaisy/src/dev/oled_ssd130x.h ****             dsy_gpio_pin dc;    /**< & */
  68:../../libdaisy/src/dev/oled_ssd130x.h ****             dsy_gpio_pin reset; /**< & */
  69:../../libdaisy/src/dev/oled_ssd130x.h ****         } pin_config;
  70:../../libdaisy/src/dev/oled_ssd130x.h ****         void Defaults()
  71:../../libdaisy/src/dev/oled_ssd130x.h ****         {
  72:../../libdaisy/src/dev/oled_ssd130x.h ****             pin_config.dc    = {DSY_GPIOB, 4};
  73:../../libdaisy/src/dev/oled_ssd130x.h ****             pin_config.reset = {DSY_GPIOB, 15};
  74:../../libdaisy/src/dev/oled_ssd130x.h ****         }
  75:../../libdaisy/src/dev/oled_ssd130x.h ****     };
  76:../../libdaisy/src/dev/oled_ssd130x.h ****     void Init(const Config& config)
  77:../../libdaisy/src/dev/oled_ssd130x.h ****     {
  78:../../libdaisy/src/dev/oled_ssd130x.h ****         // Initialize both GPIO
  79:../../libdaisy/src/dev/oled_ssd130x.h ****         pin_dc_.mode = DSY_GPIO_MODE_OUTPUT_PP;
  80:../../libdaisy/src/dev/oled_ssd130x.h ****         pin_dc_.pin  = config.pin_config.dc;
  81:../../libdaisy/src/dev/oled_ssd130x.h ****         dsy_gpio_init(&pin_dc_);
  82:../../libdaisy/src/dev/oled_ssd130x.h ****         pin_reset_.mode = DSY_GPIO_MODE_OUTPUT_PP;
  83:../../libdaisy/src/dev/oled_ssd130x.h ****         pin_reset_.pin  = config.pin_config.reset;
  84:../../libdaisy/src/dev/oled_ssd130x.h ****         dsy_gpio_init(&pin_reset_);
  85:../../libdaisy/src/dev/oled_ssd130x.h ****         // Initialize SPI
  86:../../libdaisy/src/dev/oled_ssd130x.h ****         SpiHandle::Config spi_config;
  87:../../libdaisy/src/dev/oled_ssd130x.h ****         spi_config.periph    = SpiHandle::Config::Peripheral::SPI_1;
  88:../../libdaisy/src/dev/oled_ssd130x.h ****         spi_config.mode      = SpiHandle::Config::Mode::MASTER;
  89:../../libdaisy/src/dev/oled_ssd130x.h ****         spi_config.direction = SpiHandle::Config::Direction::TWO_LINES_TX_ONLY;
  90:../../libdaisy/src/dev/oled_ssd130x.h ****         spi_config.datasize  = 8;
  91:../../libdaisy/src/dev/oled_ssd130x.h ****         spi_config.clock_polarity = SpiHandle::Config::ClockPolarity::LOW;
  92:../../libdaisy/src/dev/oled_ssd130x.h ****         spi_config.clock_phase    = SpiHandle::Config::ClockPhase::ONE_EDGE;
  93:../../libdaisy/src/dev/oled_ssd130x.h ****         spi_config.nss            = SpiHandle::Config::NSS::HARD_OUTPUT;
  94:../../libdaisy/src/dev/oled_ssd130x.h ****         spi_config.baud_prescaler = SpiHandle::Config::BaudPrescaler::PS_8;
  95:../../libdaisy/src/dev/oled_ssd130x.h **** 
  96:../../libdaisy/src/dev/oled_ssd130x.h ****         spi_config.pin_config.sclk = {DSY_GPIOG, 11};
  97:../../libdaisy/src/dev/oled_ssd130x.h ****         spi_config.pin_config.miso = {DSY_GPIOX, 0};
  98:../../libdaisy/src/dev/oled_ssd130x.h ****         spi_config.pin_config.mosi = {DSY_GPIOB, 5};
  99:../../libdaisy/src/dev/oled_ssd130x.h ****         spi_config.pin_config.nss  = {DSY_GPIOG, 10};
 100:../../libdaisy/src/dev/oled_ssd130x.h **** 
 101:../../libdaisy/src/dev/oled_ssd130x.h ****         spi_.Init(spi_config);
 102:../../libdaisy/src/dev/oled_ssd130x.h **** 
 103:../../libdaisy/src/dev/oled_ssd130x.h ****         // Reset and Configure OLED.
 104:../../libdaisy/src/dev/oled_ssd130x.h ****         dsy_gpio_write(&pin_reset_, 0);
 105:../../libdaisy/src/dev/oled_ssd130x.h ****         System::Delay(10);
 106:../../libdaisy/src/dev/oled_ssd130x.h ****         dsy_gpio_write(&pin_reset_, 1);
 107:../../libdaisy/src/dev/oled_ssd130x.h ****         System::Delay(10);
 108:../../libdaisy/src/dev/oled_ssd130x.h ****     };
 109:../../libdaisy/src/dev/oled_ssd130x.h ****     void SendCommand(uint8_t cmd)
 110:../../libdaisy/src/dev/oled_ssd130x.h ****     {
 111:../../libdaisy/src/dev/oled_ssd130x.h ****         dsy_gpio_write(&pin_dc_, 0);
ARM GAS  /tmp/ccZhYDze.s 			page 22


 112:../../libdaisy/src/dev/oled_ssd130x.h ****         spi_.BlockingTransmit(&cmd, 1);
 113:../../libdaisy/src/dev/oled_ssd130x.h ****     };
 114:../../libdaisy/src/dev/oled_ssd130x.h **** 
 115:../../libdaisy/src/dev/oled_ssd130x.h ****     void SendData(uint8_t* buff, size_t size)
 116:../../libdaisy/src/dev/oled_ssd130x.h ****     {
 117:../../libdaisy/src/dev/oled_ssd130x.h ****         dsy_gpio_write(&pin_dc_, 1);
 118:../../libdaisy/src/dev/oled_ssd130x.h ****         spi_.BlockingTransmit(buff, size);
 119:../../libdaisy/src/dev/oled_ssd130x.h ****     };
 120:../../libdaisy/src/dev/oled_ssd130x.h **** 
 121:../../libdaisy/src/dev/oled_ssd130x.h ****   private:
 122:../../libdaisy/src/dev/oled_ssd130x.h ****     SpiHandle spi_;
 123:../../libdaisy/src/dev/oled_ssd130x.h ****     dsy_gpio  pin_reset_;
 124:../../libdaisy/src/dev/oled_ssd130x.h ****     dsy_gpio  pin_dc_;
 125:../../libdaisy/src/dev/oled_ssd130x.h **** };
 126:../../libdaisy/src/dev/oled_ssd130x.h **** 
 127:../../libdaisy/src/dev/oled_ssd130x.h **** 
 128:../../libdaisy/src/dev/oled_ssd130x.h **** /**
 129:../../libdaisy/src/dev/oled_ssd130x.h ****  * A driver implementation for the SSD1306/SSD1309
 130:../../libdaisy/src/dev/oled_ssd130x.h ****  */
 131:../../libdaisy/src/dev/oled_ssd130x.h **** template <size_t width, size_t height, typename Transport>
 132:../../libdaisy/src/dev/oled_ssd130x.h **** class SSD130xDriver
 133:../../libdaisy/src/dev/oled_ssd130x.h **** {
 134:../../libdaisy/src/dev/oled_ssd130x.h ****   public:
 135:../../libdaisy/src/dev/oled_ssd130x.h ****     struct Config
 136:../../libdaisy/src/dev/oled_ssd130x.h ****     {
 137:../../libdaisy/src/dev/oled_ssd130x.h ****         typename Transport::Config transport_config;
 138:../../libdaisy/src/dev/oled_ssd130x.h ****     };
 139:../../libdaisy/src/dev/oled_ssd130x.h **** 
 140:../../libdaisy/src/dev/oled_ssd130x.h ****     void Init(Config config)
 141:../../libdaisy/src/dev/oled_ssd130x.h ****     {
 142:../../libdaisy/src/dev/oled_ssd130x.h ****         transport_.Init(config.transport_config);
 143:../../libdaisy/src/dev/oled_ssd130x.h **** 
 144:../../libdaisy/src/dev/oled_ssd130x.h ****         // Init routine...
 145:../../libdaisy/src/dev/oled_ssd130x.h **** 
 146:../../libdaisy/src/dev/oled_ssd130x.h ****         // Display Off
 147:../../libdaisy/src/dev/oled_ssd130x.h ****         transport_.SendCommand(0xaE);
 148:../../libdaisy/src/dev/oled_ssd130x.h ****         // Dimension dependent commands...
 149:../../libdaisy/src/dev/oled_ssd130x.h ****         switch(height)
 150:../../libdaisy/src/dev/oled_ssd130x.h ****         {
 151:../../libdaisy/src/dev/oled_ssd130x.h ****             case 16:
 152:../../libdaisy/src/dev/oled_ssd130x.h ****                 // Display Clock Divide Ratio
 153:../../libdaisy/src/dev/oled_ssd130x.h ****                 transport_.SendCommand(0xD5);
 154:../../libdaisy/src/dev/oled_ssd130x.h ****                 transport_.SendCommand(0x60);
 155:../../libdaisy/src/dev/oled_ssd130x.h ****                 // Multiplex Ratio
 156:../../libdaisy/src/dev/oled_ssd130x.h ****                 transport_.SendCommand(0xA8);
 157:../../libdaisy/src/dev/oled_ssd130x.h ****                 transport_.SendCommand(0x0F);
 158:../../libdaisy/src/dev/oled_ssd130x.h ****                 // COM Pins
 159:../../libdaisy/src/dev/oled_ssd130x.h ****                 transport_.SendCommand(0xDA);
 160:../../libdaisy/src/dev/oled_ssd130x.h ****                 transport_.SendCommand(0x02);
 161:../../libdaisy/src/dev/oled_ssd130x.h ****                 break;
 162:../../libdaisy/src/dev/oled_ssd130x.h ****             case 32:
 163:../../libdaisy/src/dev/oled_ssd130x.h ****                 // Display Clock Divide Ratio
 164:../../libdaisy/src/dev/oled_ssd130x.h ****                 transport_.SendCommand(0xD5);
 165:../../libdaisy/src/dev/oled_ssd130x.h ****                 transport_.SendCommand(0x80);
 166:../../libdaisy/src/dev/oled_ssd130x.h ****                 // Multiplex Ratio
 167:../../libdaisy/src/dev/oled_ssd130x.h ****                 transport_.SendCommand(0xA8);
 168:../../libdaisy/src/dev/oled_ssd130x.h ****                 transport_.SendCommand(0x1F);
ARM GAS  /tmp/ccZhYDze.s 			page 23


 169:../../libdaisy/src/dev/oled_ssd130x.h ****                 // COM Pins
 170:../../libdaisy/src/dev/oled_ssd130x.h ****                 transport_.SendCommand(0xDA);
 171:../../libdaisy/src/dev/oled_ssd130x.h ****                 if(width == 64)
 172:../../libdaisy/src/dev/oled_ssd130x.h ****                 {
 173:../../libdaisy/src/dev/oled_ssd130x.h ****                     transport_.SendCommand(0x12);
 174:../../libdaisy/src/dev/oled_ssd130x.h ****                 }
 175:../../libdaisy/src/dev/oled_ssd130x.h ****                 else
 176:../../libdaisy/src/dev/oled_ssd130x.h ****                 {
 177:../../libdaisy/src/dev/oled_ssd130x.h ****                     transport_.SendCommand(0x02);
 178:../../libdaisy/src/dev/oled_ssd130x.h ****                 }
 179:../../libdaisy/src/dev/oled_ssd130x.h **** 
 180:../../libdaisy/src/dev/oled_ssd130x.h ****                 break;
 181:../../libdaisy/src/dev/oled_ssd130x.h ****             case 48:
 182:../../libdaisy/src/dev/oled_ssd130x.h ****                 // Display Clock Divide Ratio
 183:../../libdaisy/src/dev/oled_ssd130x.h ****                 transport_.SendCommand(0xD5);
 184:../../libdaisy/src/dev/oled_ssd130x.h ****                 transport_.SendCommand(0x80);
 185:../../libdaisy/src/dev/oled_ssd130x.h ****                 // Multiplex Ratio
 186:../../libdaisy/src/dev/oled_ssd130x.h ****                 transport_.SendCommand(0xA8);
 187:../../libdaisy/src/dev/oled_ssd130x.h ****                 transport_.SendCommand(0x2F);
 188:../../libdaisy/src/dev/oled_ssd130x.h ****                 // COM Pins
 189:../../libdaisy/src/dev/oled_ssd130x.h ****                 transport_.SendCommand(0xDA);
 190:../../libdaisy/src/dev/oled_ssd130x.h ****                 transport_.SendCommand(0x12);
 191:../../libdaisy/src/dev/oled_ssd130x.h ****                 break;
 192:../../libdaisy/src/dev/oled_ssd130x.h ****             default: // 128
 193:../../libdaisy/src/dev/oled_ssd130x.h ****                 // Display Clock Divide Ratio
 194:../../libdaisy/src/dev/oled_ssd130x.h ****                 transport_.SendCommand(0xD5);
 195:../../libdaisy/src/dev/oled_ssd130x.h ****                 transport_.SendCommand(0x80);
 196:../../libdaisy/src/dev/oled_ssd130x.h ****                 // Multiplex Ratio
 197:../../libdaisy/src/dev/oled_ssd130x.h ****                 transport_.SendCommand(0xA8);
 198:../../libdaisy/src/dev/oled_ssd130x.h ****                 transport_.SendCommand(0x3F);
 199:../../libdaisy/src/dev/oled_ssd130x.h ****                 // COM Pins
 200:../../libdaisy/src/dev/oled_ssd130x.h ****                 transport_.SendCommand(0xDA);
 201:../../libdaisy/src/dev/oled_ssd130x.h ****                 transport_.SendCommand(0x12);
 202:../../libdaisy/src/dev/oled_ssd130x.h ****                 break;
 203:../../libdaisy/src/dev/oled_ssd130x.h ****         }
 204:../../libdaisy/src/dev/oled_ssd130x.h **** 
 205:../../libdaisy/src/dev/oled_ssd130x.h ****         // Display Offset
 206:../../libdaisy/src/dev/oled_ssd130x.h ****         transport_.SendCommand(0xD3);
 207:../../libdaisy/src/dev/oled_ssd130x.h ****         transport_.SendCommand(0x00);
 208:../../libdaisy/src/dev/oled_ssd130x.h ****         // Start Line Address
 209:../../libdaisy/src/dev/oled_ssd130x.h ****         transport_.SendCommand(0x40);
 210:../../libdaisy/src/dev/oled_ssd130x.h ****         // Normal Display
 211:../../libdaisy/src/dev/oled_ssd130x.h ****         transport_.SendCommand(0xA6);
 212:../../libdaisy/src/dev/oled_ssd130x.h ****         // All On Resume
 213:../../libdaisy/src/dev/oled_ssd130x.h ****         transport_.SendCommand(0xA4);
 214:../../libdaisy/src/dev/oled_ssd130x.h ****         // Charge Pump
 215:../../libdaisy/src/dev/oled_ssd130x.h ****         transport_.SendCommand(0x8D);
 216:../../libdaisy/src/dev/oled_ssd130x.h ****         transport_.SendCommand(0x14);
 217:../../libdaisy/src/dev/oled_ssd130x.h ****         // Set Segment Remap
 218:../../libdaisy/src/dev/oled_ssd130x.h ****         transport_.SendCommand(0xA1);
 219:../../libdaisy/src/dev/oled_ssd130x.h ****         // COM Output Scan Direction
 220:../../libdaisy/src/dev/oled_ssd130x.h ****         transport_.SendCommand(0xC8);
 221:../../libdaisy/src/dev/oled_ssd130x.h ****         // Contrast Control
 222:../../libdaisy/src/dev/oled_ssd130x.h ****         transport_.SendCommand(0x81);
 223:../../libdaisy/src/dev/oled_ssd130x.h ****         transport_.SendCommand(0x8F);
 224:../../libdaisy/src/dev/oled_ssd130x.h ****         // Pre Charge
 225:../../libdaisy/src/dev/oled_ssd130x.h ****         transport_.SendCommand(0xD9);
ARM GAS  /tmp/ccZhYDze.s 			page 24


 226:../../libdaisy/src/dev/oled_ssd130x.h ****         transport_.SendCommand(0x25);
 227:../../libdaisy/src/dev/oled_ssd130x.h ****         // VCOM Detect
 228:../../libdaisy/src/dev/oled_ssd130x.h ****         transport_.SendCommand(0xDB);
 229:../../libdaisy/src/dev/oled_ssd130x.h ****         transport_.SendCommand(0x34);
 230:../../libdaisy/src/dev/oled_ssd130x.h **** 
 231:../../libdaisy/src/dev/oled_ssd130x.h **** 
 232:../../libdaisy/src/dev/oled_ssd130x.h ****         // Display On
 233:../../libdaisy/src/dev/oled_ssd130x.h ****         transport_.SendCommand(0xAF); //--turn on oled panel
 234:../../libdaisy/src/dev/oled_ssd130x.h ****     };
 235:../../libdaisy/src/dev/oled_ssd130x.h **** 
 236:../../libdaisy/src/dev/oled_ssd130x.h ****     size_t Width() const { return width; };
 237:../../libdaisy/src/dev/oled_ssd130x.h ****     size_t Height() const { return height; };
 238:../../libdaisy/src/dev/oled_ssd130x.h **** 
 239:../../libdaisy/src/dev/oled_ssd130x.h ****     void DrawPixel(uint_fast8_t x, uint_fast8_t y, bool on)
 240:../../libdaisy/src/dev/oled_ssd130x.h ****     {
 241:../../libdaisy/src/dev/oled_ssd130x.h ****         if(x >= width || y >= height)
 242:../../libdaisy/src/dev/oled_ssd130x.h ****             return;
 243:../../libdaisy/src/dev/oled_ssd130x.h ****         if(on)
 244:../../libdaisy/src/dev/oled_ssd130x.h ****             buffer_[x + (y / 8) * width] |= (1 << (y % 8));
 245:../../libdaisy/src/dev/oled_ssd130x.h ****         else
 246:../../libdaisy/src/dev/oled_ssd130x.h ****             buffer_[x + (y / 8) * width] &= ~(1 << (y % 8));
 247:../../libdaisy/src/dev/oled_ssd130x.h ****     }
 248:../../libdaisy/src/dev/oled_ssd130x.h **** 
 249:../../libdaisy/src/dev/oled_ssd130x.h ****     void Fill(bool on)
 287              		.loc 16 249 10 view .LVU41
 288              	.LBB621:
 250:../../libdaisy/src/dev/oled_ssd130x.h ****     {
 251:../../libdaisy/src/dev/oled_ssd130x.h ****         for(size_t i = 0; i < sizeof(buffer_); i++)
 289              		.loc 16 251 29 view .LVU42
 290 0000 4942     		rsbs	r1, r1, #0
 291              	.LVL9:
 292              		.loc 16 251 29 is_stmt 0 view .LVU43
 293 0002 00F11303 		add	r3, r0, #19
 294 0006 00F21342 		addw	r2, r0, #1043
 295 000a C9B2     		uxtb	r1, r1
 296              	.LVL10:
 297              	.L10:
 252:../../libdaisy/src/dev/oled_ssd130x.h ****         {
 253:../../libdaisy/src/dev/oled_ssd130x.h ****             buffer_[i] = on ? 0xff : 0x00;
 298              		.loc 16 253 13 view .LVU44
 299 000c 03F8011F 		strb	r1, [r3, #1]!
 300              	.LVL11:
 251:../../libdaisy/src/dev/oled_ssd130x.h ****         {
 301              		.loc 16 251 9 is_stmt 1 view .LVU45
 251:../../libdaisy/src/dev/oled_ssd130x.h ****         {
 302              		.loc 16 251 29 view .LVU46
 303 0010 9342     		cmp	r3, r2
 304 0012 FBD1     		bne	.L10
 305              	.LBE621:
 306              	.LBE620:
 307              		.loc 5 33 53 is_stmt 0 view .LVU47
 308 0014 7047     		bx	lr
 309              		.cfi_endproc
 310              	.LFE4823:
 312 0016 00BF     		.section	.text._ZL12VerbCallbackPKPKfPPfj,"ax",%progbits
 313              		.align	1
 314              		.p2align 2,,3
ARM GAS  /tmp/ccZhYDze.s 			page 25


 315              		.syntax unified
 316              		.thumb
 317              		.thumb_func
 318              		.fpu fpv5-d16
 320              	_ZL12VerbCallbackPKPKfPPfj:
 321              	.LVL12:
 322              	.LFB4233:
  10:ex_verb.cpp   **** Parameter         lpParam;
  11:ex_verb.cpp   **** static float      drylevel, send;
  12:ex_verb.cpp   **** 
  13:ex_verb.cpp   **** static void VerbCallback(AudioHandle::InputBuffer  in,
  14:ex_verb.cpp   ****                          AudioHandle::OutputBuffer out,
  15:ex_verb.cpp   ****                          size_t                    size)
  16:ex_verb.cpp   **** {
 323              		.loc 15 16 1 is_stmt 1 view -0
 324              		.cfi_startproc
 325              		@ args = 0, pretend = 0, frame = 16
 326              		@ frame_needed = 0, uses_anonymous_args = 0
  17:ex_verb.cpp   ****     float dryL, dryR, wetL, wetR, sendL, sendR;
 327              		.loc 15 17 5 view .LVU49
  18:ex_verb.cpp   ****     patch.ProcessAnalogControls();
 328              		.loc 15 18 5 view .LVU50
  16:ex_verb.cpp   ****     float dryL, dryR, wetL, wetR, sendL, sendR;
 329              		.loc 15 16 1 is_stmt 0 view .LVU51
 330 0000 2DE9F04F 		push	{r4, r5, r6, r7, r8, r9, r10, fp, lr}
 331              		.cfi_def_cfa_offset 36
 332              		.cfi_offset 4, -36
 333              		.cfi_offset 5, -32
 334              		.cfi_offset 6, -28
 335              		.cfi_offset 7, -24
 336              		.cfi_offset 8, -20
 337              		.cfi_offset 9, -16
 338              		.cfi_offset 10, -12
 339              		.cfi_offset 11, -8
 340              		.cfi_offset 14, -4
 341 0004 9346     		mov	fp, r2
 342 0006 0746     		mov	r7, r0
 343              		.loc 15 18 32 view .LVU52
 344 0008 3E48     		ldr	r0, .L20
 345              	.LVL13:
  16:ex_verb.cpp   ****     float dryL, dryR, wetL, wetR, sendL, sendR;
 346              		.loc 15 16 1 view .LVU53
 347 000a 0E46     		mov	r6, r1
 348 000c 2DED028B 		vpush.64	{d8}
 349              		.cfi_def_cfa_offset 44
 350              		.cfi_offset 80, -44
 351              		.cfi_offset 81, -40
 352 0010 87B0     		sub	sp, sp, #28
 353              		.cfi_def_cfa_offset 72
 354              		.loc 15 18 32 view .LVU54
 355 0012 FFF7FEFF 		bl	_ZN5daisy10DaisyPatch21ProcessAnalogControlsEv
 356              	.LVL14:
  19:ex_verb.cpp   ****     for(size_t i = 0; i < size; i++)
 357              		.loc 15 19 5 is_stmt 1 view .LVU55
 358              	.LBB622:
 359              		.loc 15 19 25 view .LVU56
 360 0016 BBF1000F 		cmp	fp, #0
ARM GAS  /tmp/ccZhYDze.s 			page 26


 361 001a 6DD0     		beq	.L12
 362              		.loc 15 19 16 is_stmt 0 view .LVU57
 363 001c 0024     		movs	r4, #0
 364 001e DFF8FCA0 		ldr	r10, .L20+24
 365 0022 DFF8FC90 		ldr	r9, .L20+28
 366 0026 DFF8E880 		ldr	r8, .L20+12
 367              	.LVL15:
 368              	.L14:
  20:ex_verb.cpp   ****     {
  21:ex_verb.cpp   ****         // read some controls
  22:ex_verb.cpp   ****         drylevel = patch.GetKnobValue(patch.CTRL_1);
 369              		.loc 15 22 9 is_stmt 1 discriminator 2 view .LVU58
 370              		.loc 15 22 38 is_stmt 0 discriminator 2 view .LVU59
 371 002a 0021     		movs	r1, #0
 372 002c 3548     		ldr	r0, .L20
 373 002e FFF7FEFF 		bl	_ZN5daisy10DaisyPatch12GetKnobValueENS0_4CtrlE
 374              	.LVL16:
  23:ex_verb.cpp   ****         send     = patch.GetKnobValue(patch.CTRL_2);
 375              		.loc 15 23 38 discriminator 2 view .LVU60
 376 0032 0121     		movs	r1, #1
 377 0034 3348     		ldr	r0, .L20
  22:ex_verb.cpp   ****         send     = patch.GetKnobValue(patch.CTRL_2);
 378              		.loc 15 22 18 discriminator 2 view .LVU61
 379 0036 8AED000A 		vstr.32	s0, [r10]
 380              		.loc 15 23 9 is_stmt 1 discriminator 2 view .LVU62
 381              		.loc 15 23 38 is_stmt 0 discriminator 2 view .LVU63
 382 003a FFF7FEFF 		bl	_ZN5daisy10DaisyPatch12GetKnobValueENS0_4CtrlE
 383              	.LVL17:
  24:ex_verb.cpp   ****         verb.SetFeedback(patch.GetKnobValue(patch.CTRL_3) * .94f);
 384              		.loc 15 24 44 discriminator 2 view .LVU64
 385 003e 0221     		movs	r1, #2
 386 0040 3048     		ldr	r0, .L20
  23:ex_verb.cpp   ****         send     = patch.GetKnobValue(patch.CTRL_2);
 387              		.loc 15 23 18 discriminator 2 view .LVU65
 388 0042 89ED000A 		vstr.32	s0, [r9]
 389              		.loc 15 24 9 is_stmt 1 discriminator 2 view .LVU66
 390 0046 04FA01F5 		lsl	r5, r4, r1
 391              		.loc 15 24 44 is_stmt 0 discriminator 2 view .LVU67
 392 004a FFF7FEFF 		bl	_ZN5daisy10DaisyPatch12GetKnobValueENS0_4CtrlE
 393              	.LVL18:
 394              	.LBB623:
 395              	.LBI623:
  42:../../DaisySP/Source/Effects/reverbsc.h ****     /** Initializes the reverb module, and sets the sample_rate at which the Process function will 
  43:../../DaisySP/Source/Effects/reverbsc.h ****         Returns 0 if all good, or 1 if it runs out of delay times exceed maximum allowed.
  44:../../DaisySP/Source/Effects/reverbsc.h ****     */
  45:../../DaisySP/Source/Effects/reverbsc.h ****     int Init(float sample_rate);
  46:../../DaisySP/Source/Effects/reverbsc.h **** 
  47:../../DaisySP/Source/Effects/reverbsc.h ****     /** Process the input through the reverb, and updates values of out1, and out2 with the new pro
  48:../../DaisySP/Source/Effects/reverbsc.h ****     */
  49:../../DaisySP/Source/Effects/reverbsc.h ****     int Process(const float &in1, const float &in2, float *out1, float *out2);
  50:../../DaisySP/Source/Effects/reverbsc.h **** 
  51:../../DaisySP/Source/Effects/reverbsc.h ****     /** controls the reverb time. reverb tail becomes infinite when set to 1.0
  52:../../DaisySP/Source/Effects/reverbsc.h ****         \param fb - sets reverb time. range: 0.0 to 1.0
  53:../../DaisySP/Source/Effects/reverbsc.h ****     */
  54:../../DaisySP/Source/Effects/reverbsc.h ****     inline void SetFeedback(const float &fb) { feedback_ = fb; }
 396              		.loc 1 54 17 is_stmt 1 discriminator 2 view .LVU68
 397              	.LBB624:
ARM GAS  /tmp/ccZhYDze.s 			page 27


 398              		.loc 1 54 48 discriminator 2 view .LVU69
 399              	.LBE624:
 400              	.LBE623:
 401              		.loc 15 24 59 is_stmt 0 discriminator 2 view .LVU70
 402 004e DFED2E7A 		vldr.32	s15, .L20+4
  25:ex_verb.cpp   ****         verb.SetLpFreq(lpParam.Process());
 403              		.loc 15 25 39 discriminator 2 view .LVU71
 404 0052 2E48     		ldr	r0, .L20+8
  24:ex_verb.cpp   ****         verb.SetFeedback(patch.GetKnobValue(patch.CTRL_3) * .94f);
 405              		.loc 15 24 59 discriminator 2 view .LVU72
 406 0054 20EE270A 		vmul.f32	s0, s0, s15
 407              	.LBB626:
 408              	.LBB625:
 409              		.loc 1 54 58 discriminator 2 view .LVU73
 410 0058 88ED000A 		vstr.32	s0, [r8]
 411              	.LBE625:
 412              	.LBE626:
 413              		.loc 15 25 9 is_stmt 1 discriminator 2 view .LVU74
 414              		.loc 15 25 39 is_stmt 0 discriminator 2 view .LVU75
 415 005c FFF7FEFF 		bl	_ZN5daisy9Parameter7ProcessEv
 416              	.LVL19:
 417              	.LBB627:
 418              	.LBI627:
  55:../../DaisySP/Source/Effects/reverbsc.h ****     /** controls the internal dampening filter's cutoff frequency.
  56:../../DaisySP/Source/Effects/reverbsc.h ****         \param freq - low pass frequency. range: 0.0 to sample_rate / 2
  57:../../DaisySP/Source/Effects/reverbsc.h ****     */
  58:../../DaisySP/Source/Effects/reverbsc.h ****     inline void SetLpFreq(const float &freq) { lpfreq_ = freq; }
 419              		.loc 1 58 17 is_stmt 1 discriminator 2 view .LVU76
 420              	.LBB628:
 421              		.loc 1 58 48 discriminator 2 view .LVU77
 422              	.LBE628:
 423              	.LBE627:
  26:ex_verb.cpp   **** 
  27:ex_verb.cpp   ****         // Read Inputs (only stereo in are used)
  28:ex_verb.cpp   ****         dryL = in[0][i];
  29:ex_verb.cpp   ****         dryR = in[1][i];
  30:ex_verb.cpp   **** 
  31:ex_verb.cpp   ****         // Send Signal to Reverb
  32:ex_verb.cpp   ****         sendL = dryL * send;
 424              		.loc 15 32 22 is_stmt 0 discriminator 2 view .LVU78
 425 0060 D9ED007A 		vldr.32	s15, [r9]
  33:ex_verb.cpp   ****         sendR = dryR * send;
  34:ex_verb.cpp   ****         verb.Process(sendL, sendR, &wetL, &wetR);
 426              		.loc 15 34 21 discriminator 2 view .LVU79
 427 0064 03A8     		add	r0, sp, #12
 428 0066 02AB     		add	r3, sp, #8
  29:ex_verb.cpp   **** 
 429              		.loc 15 29 14 discriminator 2 view .LVU80
 430 0068 D7E90021 		ldrd	r2, r1, [r7]
 431              	.LBB630:
 432              	.LBB629:
 433              		.loc 1 58 56 discriminator 2 view .LVU81
 434 006c 88ED010A 		vstr.32	s0, [r8, #4]
 435              	.LBE629:
 436              	.LBE630:
  28:ex_verb.cpp   ****         dryR = in[1][i];
 437              		.loc 15 28 9 is_stmt 1 discriminator 2 view .LVU82
ARM GAS  /tmp/ccZhYDze.s 			page 28


  28:ex_verb.cpp   ****         dryR = in[1][i];
 438              		.loc 15 28 14 is_stmt 0 discriminator 2 view .LVU83
 439 0070 02EB8402 		add	r2, r2, r4, lsl #2
  29:ex_verb.cpp   **** 
 440              		.loc 15 29 14 discriminator 2 view .LVU84
 441 0074 01EB8401 		add	r1, r1, r4, lsl #2
  19:ex_verb.cpp   ****     {
 442              		.loc 15 19 5 discriminator 2 view .LVU85
 443 0078 0134     		adds	r4, r4, #1
 444              	.LVL20:
  28:ex_verb.cpp   ****         dryR = in[1][i];
 445              		.loc 15 28 14 discriminator 2 view .LVU86
 446 007a D2ED008A 		vldr.32	s17, [r2]
 447              	.LVL21:
  29:ex_verb.cpp   **** 
 448              		.loc 15 29 9 is_stmt 1 discriminator 2 view .LVU87
 449              		.loc 15 34 21 is_stmt 0 discriminator 2 view .LVU88
 450 007e 05AA     		add	r2, sp, #20
  29:ex_verb.cpp   **** 
 451              		.loc 15 29 14 discriminator 2 view .LVU89
 452 0080 91ED008A 		vldr.32	s16, [r1]
 453              	.LVL22:
  32:ex_verb.cpp   ****         sendR = dryR * send;
 454              		.loc 15 32 9 is_stmt 1 discriminator 2 view .LVU90
 455              		.loc 15 34 21 is_stmt 0 discriminator 2 view .LVU91
 456 0084 04A9     		add	r1, sp, #16
  32:ex_verb.cpp   ****         sendR = dryR * send;
 457              		.loc 15 32 22 discriminator 2 view .LVU92
 458 0086 27EEA87A 		vmul.f32	s14, s15, s17
 459              		.loc 15 34 21 discriminator 2 view .LVU93
 460 008a 0090     		str	r0, [sp]
  33:ex_verb.cpp   ****         verb.Process(sendL, sendR, &wetL, &wetR);
 461              		.loc 15 33 22 discriminator 2 view .LVU94
 462 008c 67EE887A 		vmul.f32	s15, s15, s16
 463              		.loc 15 34 21 discriminator 2 view .LVU95
 464 0090 1F48     		ldr	r0, .L20+12
  32:ex_verb.cpp   ****         sendR = dryR * send;
 465              		.loc 15 32 15 discriminator 2 view .LVU96
 466 0092 8DED047A 		vstr.32	s14, [sp, #16]
  33:ex_verb.cpp   ****         verb.Process(sendL, sendR, &wetL, &wetR);
 467              		.loc 15 33 9 is_stmt 1 discriminator 2 view .LVU97
  33:ex_verb.cpp   ****         verb.Process(sendL, sendR, &wetL, &wetR);
 468              		.loc 15 33 15 is_stmt 0 discriminator 2 view .LVU98
 469 0096 CDED057A 		vstr.32	s15, [sp, #20]
 470              		.loc 15 34 9 is_stmt 1 discriminator 2 view .LVU99
 471              		.loc 15 34 21 is_stmt 0 discriminator 2 view .LVU100
 472 009a FFF7FEFF 		bl	_ZN7daisysp8ReverbSc7ProcessERKfS2_PfS3_
 473              	.LVL23:
  35:ex_verb.cpp   **** 
  36:ex_verb.cpp   ****         // Dc Block
  37:ex_verb.cpp   ****         wetL = blk[0].Process(wetL);
 474              		.loc 15 37 9 is_stmt 1 discriminator 2 view .LVU101
 475              		.loc 15 37 30 is_stmt 0 discriminator 2 view .LVU102
 476 009e 1D48     		ldr	r0, .L20+16
 477 00a0 9DED020A 		vldr.32	s0, [sp, #8]
 478 00a4 FFF7FEFF 		bl	_ZN7daisysp7DcBlock7ProcessEf
 479              	.LVL24:
ARM GAS  /tmp/ccZhYDze.s 			page 29


 480 00a8 F0EE407A 		vmov.f32	s15, s0
  38:ex_verb.cpp   ****         wetR = blk[1].Process(wetR);
 481              		.loc 15 38 30 discriminator 2 view .LVU103
 482 00ac 1A48     		ldr	r0, .L20+20
 483 00ae 9DED030A 		vldr.32	s0, [sp, #12]
  37:ex_verb.cpp   ****         wetR = blk[1].Process(wetR);
 484              		.loc 15 37 14 discriminator 2 view .LVU104
 485 00b2 CDED027A 		vstr.32	s15, [sp, #8]
 486              		.loc 15 38 9 is_stmt 1 discriminator 2 view .LVU105
 487              		.loc 15 38 30 is_stmt 0 discriminator 2 view .LVU106
 488 00b6 FFF7FEFF 		bl	_ZN7daisysp7DcBlock7ProcessEf
 489              	.LVL25:
  39:ex_verb.cpp   **** 
  40:ex_verb.cpp   ****         // Out 1 and 2 are Mixed
  41:ex_verb.cpp   ****         out[0][i] = (dryL * drylevel) + wetL;
 490              		.loc 15 41 39 discriminator 2 view .LVU107
 491 00ba DDED027A 		vldr.32	s15, [sp, #8]
  19:ex_verb.cpp   ****     {
 492              		.loc 15 19 25 discriminator 2 view .LVU108
 493 00be A345     		cmp	fp, r4
 494              		.loc 15 41 27 discriminator 2 view .LVU109
 495 00c0 9AED007A 		vldr.32	s14, [r10]
 496              		.loc 15 41 17 discriminator 2 view .LVU110
 497 00c4 3168     		ldr	r1, [r6]
 498              		.loc 15 41 39 discriminator 2 view .LVU111
 499 00c6 E7EE287A 		vfma.f32	s15, s14, s17
  38:ex_verb.cpp   **** 
 500              		.loc 15 38 14 discriminator 2 view .LVU112
 501 00ca 8DED030A 		vstr.32	s0, [sp, #12]
 502              		.loc 15 41 9 is_stmt 1 discriminator 2 view .LVU113
 503              		.loc 15 41 17 is_stmt 0 discriminator 2 view .LVU114
 504 00ce 2944     		add	r1, r1, r5
  42:ex_verb.cpp   ****         out[1][i] = (dryR * drylevel) + wetR;
  43:ex_verb.cpp   **** 
  44:ex_verb.cpp   ****         // Out 3 and 4 are just wet
  45:ex_verb.cpp   ****         out[2][i] = wetL;
 505              		.loc 15 45 19 discriminator 2 view .LVU115
 506 00d0 D6E90132 		ldrd	r3, r2, [r6, #4]
  42:ex_verb.cpp   ****         out[1][i] = (dryR * drylevel) + wetR;
 507              		.loc 15 42 17 discriminator 2 view .LVU116
 508 00d4 03EB0500 		add	r0, r3, r5
  46:ex_verb.cpp   ****         out[3][i] = wetR;
 509              		.loc 15 46 19 discriminator 2 view .LVU117
 510 00d8 F368     		ldr	r3, [r6, #12]
  41:ex_verb.cpp   ****         out[1][i] = (dryR * drylevel) + wetR;
 511              		.loc 15 41 19 discriminator 2 view .LVU118
 512 00da C1ED007A 		vstr.32	s15, [r1]
  42:ex_verb.cpp   ****         out[1][i] = (dryR * drylevel) + wetR;
 513              		.loc 15 42 9 is_stmt 1 discriminator 2 view .LVU119
  45:ex_verb.cpp   ****         out[3][i] = wetR;
 514              		.loc 15 45 19 is_stmt 0 discriminator 2 view .LVU120
 515 00de 2A44     		add	r2, r2, r5
  42:ex_verb.cpp   **** 
 516              		.loc 15 42 39 discriminator 2 view .LVU121
 517 00e0 DDED037A 		vldr.32	s15, [sp, #12]
 518              		.loc 15 46 19 discriminator 2 view .LVU122
 519 00e4 1D44     		add	r5, r5, r3
ARM GAS  /tmp/ccZhYDze.s 			page 30


  42:ex_verb.cpp   **** 
 520              		.loc 15 42 39 discriminator 2 view .LVU123
 521 00e6 E7EE087A 		vfma.f32	s15, s14, s16
  42:ex_verb.cpp   **** 
 522              		.loc 15 42 19 discriminator 2 view .LVU124
 523 00ea C0ED007A 		vstr.32	s15, [r0]
  45:ex_verb.cpp   ****         out[3][i] = wetR;
 524              		.loc 15 45 9 is_stmt 1 discriminator 2 view .LVU125
  45:ex_verb.cpp   ****         out[3][i] = wetR;
 525              		.loc 15 45 19 is_stmt 0 discriminator 2 view .LVU126
 526 00ee 029B     		ldr	r3, [sp, #8]	@ float
 527 00f0 1360     		str	r3, [r2]	@ float
 528              		.loc 15 46 9 is_stmt 1 discriminator 2 view .LVU127
 529              		.loc 15 46 19 is_stmt 0 discriminator 2 view .LVU128
 530 00f2 039B     		ldr	r3, [sp, #12]	@ float
 531 00f4 2B60     		str	r3, [r5]	@ float
  19:ex_verb.cpp   ****     {
 532              		.loc 15 19 5 is_stmt 1 discriminator 2 view .LVU129
 533              	.LVL26:
  19:ex_verb.cpp   ****     {
 534              		.loc 15 19 25 discriminator 2 view .LVU130
 535 00f6 98D1     		bne	.L14
 536              	.LVL27:
 537              	.L12:
  19:ex_verb.cpp   ****     {
 538              		.loc 15 19 25 is_stmt 0 discriminator 2 view .LVU131
 539              	.LBE622:
  47:ex_verb.cpp   ****     }
  48:ex_verb.cpp   **** }
 540              		.loc 15 48 1 view .LVU132
 541 00f8 07B0     		add	sp, sp, #28
 542              		.cfi_def_cfa_offset 44
 543              		@ sp needed
 544 00fa BDEC028B 		vldm	sp!, {d8}
 545              		.cfi_restore 80
 546              		.cfi_restore 81
 547              		.cfi_def_cfa_offset 36
 548 00fe BDE8F08F 		pop	{r4, r5, r6, r7, r8, r9, r10, fp, pc}
 549              	.LVL28:
 550              	.L21:
 551              		.loc 15 48 1 view .LVU133
 552 0102 00BF     		.align	2
 553              	.L20:
 554 0104 00000000 		.word	_ZL5patch
 555 0108 D7A3703F 		.word	1064346583
 556 010c 00000000 		.word	.LANCHOR2
 557 0110 00000000 		.word	_ZL4verb
 558 0114 00000000 		.word	.LANCHOR3
 559 0118 0C000000 		.word	.LANCHOR3+12
 560 011c 00000000 		.word	.LANCHOR0
 561 0120 00000000 		.word	.LANCHOR1
 562              		.cfi_endproc
 563              	.LFE4233:
 565              		.section	.text._ZN5daisy11OledDisplayINS_13SSD130xDriverILj128ELj64ENS_24SSD130x4WireSpiTransportE
 566              		.align	1
 567              		.p2align 2,,3
 568              		.weak	_ZN5daisy11OledDisplayINS_13SSD130xDriverILj128ELj64ENS_24SSD130x4WireSpiTransportEEEED0Ev
ARM GAS  /tmp/ccZhYDze.s 			page 31


 569              		.syntax unified
 570              		.thumb
 571              		.thumb_func
 572              		.fpu fpv5-d16
 574              	_ZN5daisy11OledDisplayINS_13SSD130xDriverILj128ELj64ENS_24SSD130x4WireSpiTransportEEEED0Ev:
 575              	.LVL29:
 576              	.LFB4552:
  17:../../libdaisy/src/hid/disp/oled_display.h **** 
 577              		.loc 5 17 13 is_stmt 1 view -0
 578              		.cfi_startproc
 579              		@ args = 0, pretend = 0, frame = 0
 580              		@ frame_needed = 0, uses_anonymous_args = 0
  17:../../libdaisy/src/hid/disp/oled_display.h **** 
 581              		.loc 5 17 13 is_stmt 0 view .LVU135
 582 0000 10B5     		push	{r4, lr}
 583              		.cfi_def_cfa_offset 8
 584              		.cfi_offset 4, -8
 585              		.cfi_offset 14, -4
  17:../../libdaisy/src/hid/disp/oled_display.h **** 
 586              		.loc 5 17 13 view .LVU136
 587 0002 0446     		mov	r4, r0
 588              	.LVL30:
 589              	.LBB631:
 590              	.LBI631:
  17:../../libdaisy/src/hid/disp/oled_display.h **** 
 591              		.loc 5 17 13 is_stmt 1 view .LVU137
 592              	.LBB632:
 593              	.LBI632:
 594              		.loc 6 219 13 view .LVU138
 595              	.LBB633:
 596              	.LBI633:
  23:../../libdaisy/src/hid/disp/display.h **** 
 597              		.loc 6 23 13 view .LVU139
  23:../../libdaisy/src/hid/disp/display.h **** 
 598              		.loc 6 23 13 is_stmt 0 view .LVU140
 599              	.LBE633:
 600              	.LBE632:
 601              	.LBE631:
  17:../../libdaisy/src/hid/disp/oled_display.h **** 
 602              		.loc 5 17 29 view .LVU141
 603 0004 40F21441 		movw	r1, #1044
 604 0008 FFF7FEFF 		bl	_ZdlPvj
 605              	.LVL31:
  17:../../libdaisy/src/hid/disp/oled_display.h **** 
 606              		.loc 5 17 29 view .LVU142
 607 000c 2046     		mov	r0, r4
 608 000e 10BD     		pop	{r4, pc}
  17:../../libdaisy/src/hid/disp/oled_display.h **** 
 609              		.loc 5 17 29 view .LVU143
 610              		.cfi_endproc
 611              	.LFE4552:
 613              		.section	.text._ZN5daisy11OledDisplayINS_13SSD130xDriverILj128ELj64ENS_24SSD130x4WireSpiTransportE
 614              		.align	1
 615              		.p2align 2,,3
 616              		.weak	_ZN5daisy11OledDisplayINS_13SSD130xDriverILj128ELj64ENS_24SSD130x4WireSpiTransportEEEE6Updat
 617              		.syntax unified
 618              		.thumb
ARM GAS  /tmp/ccZhYDze.s 			page 32


 619              		.thumb_func
 620              		.fpu fpv5-d16
 622              	_ZN5daisy11OledDisplayINS_13SSD130xDriverILj128ELj64ENS_24SSD130x4WireSpiTransportEEEE6UpdateEv:
 623              	.LVL32:
 624              	.LFB4555:
  34:../../libdaisy/src/hid/disp/oled_display.h **** 
  35:../../libdaisy/src/hid/disp/oled_display.h ****     /**
  36:../../libdaisy/src/hid/disp/oled_display.h ****     Sets the pixel at the specified coordinate to be on/off.
  37:../../libdaisy/src/hid/disp/oled_display.h ****     \param x   x Coordinate
  38:../../libdaisy/src/hid/disp/oled_display.h ****     \param y   y coordinate
  39:../../libdaisy/src/hid/disp/oled_display.h ****     \param on  on or off
  40:../../libdaisy/src/hid/disp/oled_display.h ****     */
  41:../../libdaisy/src/hid/disp/oled_display.h ****     void DrawPixel(uint_fast8_t x, uint_fast8_t y, bool on) override
  42:../../libdaisy/src/hid/disp/oled_display.h ****     {
  43:../../libdaisy/src/hid/disp/oled_display.h ****         driver_.DrawPixel(x, y, on);
  44:../../libdaisy/src/hid/disp/oled_display.h ****     }
  45:../../libdaisy/src/hid/disp/oled_display.h **** 
  46:../../libdaisy/src/hid/disp/oled_display.h ****     /** 
  47:../../libdaisy/src/hid/disp/oled_display.h ****     Writes the current display buffer to the OLED device using SPI or I2C depending on 
  48:../../libdaisy/src/hid/disp/oled_display.h ****     how the object was initialized.
  49:../../libdaisy/src/hid/disp/oled_display.h ****     */
  50:../../libdaisy/src/hid/disp/oled_display.h ****     void Update() override { driver_.Update(); }
 625              		.loc 5 50 10 is_stmt 1 view -0
 626              		.cfi_startproc
 627              		@ args = 0, pretend = 0, frame = 8
 628              		@ frame_needed = 0, uses_anonymous_args = 0
 629              	.LBB644:
 630              	.LBI644:
 254:../../libdaisy/src/dev/oled_ssd130x.h ****         }
 255:../../libdaisy/src/dev/oled_ssd130x.h ****     };
 256:../../libdaisy/src/dev/oled_ssd130x.h **** 
 257:../../libdaisy/src/dev/oled_ssd130x.h ****     /**
 258:../../libdaisy/src/dev/oled_ssd130x.h ****      * Update the display 
 259:../../libdaisy/src/dev/oled_ssd130x.h ****     */
 260:../../libdaisy/src/dev/oled_ssd130x.h ****     void Update()
 631              		.loc 16 260 10 view .LVU145
 632              	.LBB645:
 261:../../libdaisy/src/dev/oled_ssd130x.h ****     {
 262:../../libdaisy/src/dev/oled_ssd130x.h ****         uint8_t i;
 263:../../libdaisy/src/dev/oled_ssd130x.h ****         uint8_t high_column_addr;
 264:../../libdaisy/src/dev/oled_ssd130x.h ****         switch(height)
 265:../../libdaisy/src/dev/oled_ssd130x.h ****         {
 266:../../libdaisy/src/dev/oled_ssd130x.h ****             case 32: high_column_addr = 0x12; break;
 267:../../libdaisy/src/dev/oled_ssd130x.h **** 
 268:../../libdaisy/src/dev/oled_ssd130x.h ****             default: high_column_addr = 0x10; break;
 269:../../libdaisy/src/dev/oled_ssd130x.h ****         }
 270:../../libdaisy/src/dev/oled_ssd130x.h ****         for(i = 0; i < (height / 8); i++)
 633              		.loc 16 270 22 view .LVU146
 634              	.LBE645:
 635              	.LBE644:
 636              		.loc 5 50 10 is_stmt 0 view .LVU147
 637 0000 2DE9F041 		push	{r4, r5, r6, r7, r8, lr}
 638              		.cfi_def_cfa_offset 24
 639              		.cfi_offset 4, -24
 640              		.cfi_offset 5, -20
 641              		.cfi_offset 6, -16
 642              		.cfi_offset 7, -12
ARM GAS  /tmp/ccZhYDze.s 			page 33


 643              		.cfi_offset 8, -8
 644              		.cfi_offset 14, -4
 645 0004 B025     		movs	r5, #176
 646 0006 82B0     		sub	sp, sp, #8
 647              		.cfi_def_cfa_offset 32
 648 0008 00F10807 		add	r7, r0, #8
 649 000c 00F11006 		add	r6, r0, #16
 650 0010 00F11404 		add	r4, r0, #20
 651              	.LVL33:
 652              	.L25:
 653              	.LBB658:
 654              	.LBB657:
 655              	.LBB646:
 656              	.LBB647:
 111:../../libdaisy/src/dev/oled_ssd130x.h ****         spi_.BlockingTransmit(&cmd, 1);
 657              		.loc 16 111 23 view .LVU148
 658 0014 0021     		movs	r1, #0
 659 0016 3046     		mov	r0, r6
 660 0018 8DF80750 		strb	r5, [sp, #7]
 661              	.LVL34:
 111:../../libdaisy/src/dev/oled_ssd130x.h ****         spi_.BlockingTransmit(&cmd, 1);
 662              		.loc 16 111 23 view .LVU149
 663              	.LBE647:
 664              	.LBI646:
 109:../../libdaisy/src/dev/oled_ssd130x.h ****     {
 665              		.loc 16 109 10 is_stmt 1 view .LVU150
 666              	.LBB648:
 111:../../libdaisy/src/dev/oled_ssd130x.h ****         spi_.BlockingTransmit(&cmd, 1);
 667              		.loc 16 111 9 view .LVU151
 668 001c 0135     		adds	r5, r5, #1
 669              	.LVL35:
 111:../../libdaisy/src/dev/oled_ssd130x.h ****         spi_.BlockingTransmit(&cmd, 1);
 670              		.loc 16 111 9 is_stmt 0 view .LVU152
 671 001e 8846     		mov	r8, r1
 111:../../libdaisy/src/dev/oled_ssd130x.h ****         spi_.BlockingTransmit(&cmd, 1);
 672              		.loc 16 111 23 view .LVU153
 673 0020 FFF7FEFF 		bl	dsy_gpio_write
 674              	.LVL36:
 112:../../libdaisy/src/dev/oled_ssd130x.h ****     };
 675              		.loc 16 112 9 is_stmt 1 view .LVU154
 112:../../libdaisy/src/dev/oled_ssd130x.h ****     };
 676              		.loc 16 112 30 is_stmt 0 view .LVU155
 677 0024 6423     		movs	r3, #100
 678 0026 0122     		movs	r2, #1
 679 0028 0DF10701 		add	r1, sp, #7
 680 002c 3846     		mov	r0, r7
 681 002e FFF7FEFF 		bl	_ZN5daisy9SpiHandle16BlockingTransmitEPhjm
 682              	.LVL37:
 112:../../libdaisy/src/dev/oled_ssd130x.h ****     };
 683              		.loc 16 112 30 view .LVU156
 684              	.LBE648:
 685              	.LBE646:
 686              	.LBB649:
 687              	.LBB650:
 111:../../libdaisy/src/dev/oled_ssd130x.h ****         spi_.BlockingTransmit(&cmd, 1);
 688              		.loc 16 111 23 view .LVU157
 689 0032 4146     		mov	r1, r8
ARM GAS  /tmp/ccZhYDze.s 			page 34


 690 0034 3046     		mov	r0, r6
 691 0036 8DF80780 		strb	r8, [sp, #7]
 692              	.LVL38:
 111:../../libdaisy/src/dev/oled_ssd130x.h ****         spi_.BlockingTransmit(&cmd, 1);
 693              		.loc 16 111 23 view .LVU158
 694              	.LBE650:
 695              	.LBI649:
 109:../../libdaisy/src/dev/oled_ssd130x.h ****     {
 696              		.loc 16 109 10 is_stmt 1 view .LVU159
 697              	.LBB651:
 111:../../libdaisy/src/dev/oled_ssd130x.h ****         spi_.BlockingTransmit(&cmd, 1);
 698              		.loc 16 111 9 view .LVU160
 111:../../libdaisy/src/dev/oled_ssd130x.h ****         spi_.BlockingTransmit(&cmd, 1);
 699              		.loc 16 111 23 is_stmt 0 view .LVU161
 700 003a FFF7FEFF 		bl	dsy_gpio_write
 701              	.LVL39:
 112:../../libdaisy/src/dev/oled_ssd130x.h ****     };
 702              		.loc 16 112 9 is_stmt 1 view .LVU162
 112:../../libdaisy/src/dev/oled_ssd130x.h ****     };
 703              		.loc 16 112 30 is_stmt 0 view .LVU163
 704 003e 0122     		movs	r2, #1
 705 0040 6423     		movs	r3, #100
 706 0042 0DF10701 		add	r1, sp, #7
 707 0046 3846     		mov	r0, r7
 708 0048 EDB2     		uxtb	r5, r5
 709 004a FFF7FEFF 		bl	_ZN5daisy9SpiHandle16BlockingTransmitEPhjm
 710              	.LVL40:
 112:../../libdaisy/src/dev/oled_ssd130x.h ****     };
 711              		.loc 16 112 30 view .LVU164
 712 004e 1023     		movs	r3, #16
 713              	.LBE651:
 714              	.LBE649:
 715              	.LBB652:
 716              	.LBB653:
 111:../../libdaisy/src/dev/oled_ssd130x.h ****         spi_.BlockingTransmit(&cmd, 1);
 717              		.loc 16 111 23 view .LVU165
 718 0050 4146     		mov	r1, r8
 719 0052 3046     		mov	r0, r6
 720 0054 8DF80730 		strb	r3, [sp, #7]
 721              	.LVL41:
 111:../../libdaisy/src/dev/oled_ssd130x.h ****         spi_.BlockingTransmit(&cmd, 1);
 722              		.loc 16 111 23 view .LVU166
 723              	.LBE653:
 724              	.LBI652:
 109:../../libdaisy/src/dev/oled_ssd130x.h ****     {
 725              		.loc 16 109 10 is_stmt 1 view .LVU167
 726              	.LBB654:
 111:../../libdaisy/src/dev/oled_ssd130x.h ****         spi_.BlockingTransmit(&cmd, 1);
 727              		.loc 16 111 9 view .LVU168
 111:../../libdaisy/src/dev/oled_ssd130x.h ****         spi_.BlockingTransmit(&cmd, 1);
 728              		.loc 16 111 23 is_stmt 0 view .LVU169
 729 0058 FFF7FEFF 		bl	dsy_gpio_write
 730              	.LVL42:
 112:../../libdaisy/src/dev/oled_ssd130x.h ****     };
 731              		.loc 16 112 9 is_stmt 1 view .LVU170
 112:../../libdaisy/src/dev/oled_ssd130x.h ****     };
 732              		.loc 16 112 30 is_stmt 0 view .LVU171
ARM GAS  /tmp/ccZhYDze.s 			page 35


 733 005c 6423     		movs	r3, #100
 734 005e 0122     		movs	r2, #1
 735 0060 0DF10701 		add	r1, sp, #7
 736 0064 3846     		mov	r0, r7
 737 0066 FFF7FEFF 		bl	_ZN5daisy9SpiHandle16BlockingTransmitEPhjm
 738              	.LVL43:
 112:../../libdaisy/src/dev/oled_ssd130x.h ****     };
 739              		.loc 16 112 30 view .LVU172
 740              	.LBE654:
 741              	.LBE652:
 742              	.LBB655:
 743              	.LBI655:
 115:../../libdaisy/src/dev/oled_ssd130x.h ****     {
 744              		.loc 16 115 10 is_stmt 1 view .LVU173
 745              	.LBB656:
 117:../../libdaisy/src/dev/oled_ssd130x.h ****         spi_.BlockingTransmit(buff, size);
 746              		.loc 16 117 9 view .LVU174
 117:../../libdaisy/src/dev/oled_ssd130x.h ****         spi_.BlockingTransmit(buff, size);
 747              		.loc 16 117 23 is_stmt 0 view .LVU175
 748 006a 0121     		movs	r1, #1
 749 006c 3046     		mov	r0, r6
 750 006e FFF7FEFF 		bl	dsy_gpio_write
 751              	.LVL44:
 118:../../libdaisy/src/dev/oled_ssd130x.h ****     };
 752              		.loc 16 118 9 is_stmt 1 view .LVU176
 118:../../libdaisy/src/dev/oled_ssd130x.h ****     };
 753              		.loc 16 118 30 is_stmt 0 view .LVU177
 754 0072 8022     		movs	r2, #128
 755 0074 2146     		mov	r1, r4
 756 0076 6423     		movs	r3, #100
 757 0078 3846     		mov	r0, r7
 758 007a 1444     		add	r4, r4, r2
 759              	.LVL45:
 118:../../libdaisy/src/dev/oled_ssd130x.h ****     };
 760              		.loc 16 118 30 view .LVU178
 761 007c FFF7FEFF 		bl	_ZN5daisy9SpiHandle16BlockingTransmitEPhjm
 762              	.LVL46:
 118:../../libdaisy/src/dev/oled_ssd130x.h ****     };
 763              		.loc 16 118 30 view .LVU179
 764              	.LBE656:
 765              	.LBE655:
 766              		.loc 16 270 9 is_stmt 1 view .LVU180
 767              		.loc 16 270 22 view .LVU181
 768 0080 B82D     		cmp	r5, #184
 769 0082 C7D1     		bne	.L25
 770              	.LBE657:
 771              	.LBE658:
 772              		.loc 5 50 48 is_stmt 0 view .LVU182
 773 0084 02B0     		add	sp, sp, #8
 774              		.cfi_def_cfa_offset 24
 775              		@ sp needed
 776 0086 BDE8F081 		pop	{r4, r5, r6, r7, r8, pc}
 777              		.loc 5 50 48 view .LVU183
 778              		.cfi_endproc
 779              	.LFE4555:
 781 008a 00BF     		.section	.text._ZN5daisy25OneBitGraphicsDisplayImplINS_11OledDisplayINS_13SSD130xDriverILj128ELj64
 782              		.align	1
ARM GAS  /tmp/ccZhYDze.s 			page 36


 783              		.p2align 2,,3
 784              		.weak	_ZN5daisy25OneBitGraphicsDisplayImplINS_11OledDisplayINS_13SSD130xDriverILj128ELj64ENS_24SSD
 785              		.syntax unified
 786              		.thumb
 787              		.thumb_func
 788              		.fpu fpv5-d16
 790              	_ZN5daisy25OneBitGraphicsDisplayImplINS_11OledDisplayINS_13SSD130xDriverILj128ELj64ENS_24SSD130x4Wi
 791              	.LVL47:
 792              	.LFB4554:
 220:../../libdaisy/src/hid/disp/display.h **** 
 221:../../libdaisy/src/hid/disp/display.h ****     void DrawLine(uint_fast8_t x1,
 222:../../libdaisy/src/hid/disp/display.h ****                   uint_fast8_t y1,
 223:../../libdaisy/src/hid/disp/display.h ****                   uint_fast8_t x2,
 224:../../libdaisy/src/hid/disp/display.h ****                   uint_fast8_t y2,
 225:../../libdaisy/src/hid/disp/display.h ****                   bool         on) override
 226:../../libdaisy/src/hid/disp/display.h ****     {
 227:../../libdaisy/src/hid/disp/display.h ****         int_fast16_t deltaX = abs((int_fast16_t)x2 - (int_fast16_t)x1);
 228:../../libdaisy/src/hid/disp/display.h ****         int_fast16_t deltaY = abs((int_fast16_t)y2 - (int_fast16_t)y1);
 229:../../libdaisy/src/hid/disp/display.h ****         int_fast16_t signX  = ((x1 < x2) ? 1 : -1);
 230:../../libdaisy/src/hid/disp/display.h ****         int_fast16_t signY  = ((y1 < y2) ? 1 : -1);
 231:../../libdaisy/src/hid/disp/display.h ****         int_fast16_t error  = deltaX - deltaY;
 232:../../libdaisy/src/hid/disp/display.h ****         int_fast16_t error2;
 233:../../libdaisy/src/hid/disp/display.h **** 
 234:../../libdaisy/src/hid/disp/display.h ****         // If we write "ChildType::DrawPixel(x2, y2, on);", we end up with
 235:../../libdaisy/src/hid/disp/display.h ****         // all sorts of weird compiler errors when the Child class is a template
 236:../../libdaisy/src/hid/disp/display.h ****         // class. The only way around this is to use this very verbose syntax:
 237:../../libdaisy/src/hid/disp/display.h ****         ((ChildType*)(this))->ChildType::DrawPixel(x2, y2, on);
 238:../../libdaisy/src/hid/disp/display.h **** 
 239:../../libdaisy/src/hid/disp/display.h ****         while((x1 != x2) || (y1 != y2))
 240:../../libdaisy/src/hid/disp/display.h ****         {
 241:../../libdaisy/src/hid/disp/display.h ****             ((ChildType*)(this))->ChildType::DrawPixel(x1, y1, on);
 242:../../libdaisy/src/hid/disp/display.h ****             error2 = error * 2;
 243:../../libdaisy/src/hid/disp/display.h ****             if(error2 > -deltaY)
 244:../../libdaisy/src/hid/disp/display.h ****             {
 245:../../libdaisy/src/hid/disp/display.h ****                 error -= deltaY;
 246:../../libdaisy/src/hid/disp/display.h ****                 x1 += signX;
 247:../../libdaisy/src/hid/disp/display.h ****             }
 248:../../libdaisy/src/hid/disp/display.h **** 
 249:../../libdaisy/src/hid/disp/display.h ****             if(error2 < deltaX)
 250:../../libdaisy/src/hid/disp/display.h ****             {
 251:../../libdaisy/src/hid/disp/display.h ****                 error += deltaX;
 252:../../libdaisy/src/hid/disp/display.h ****                 y1 += signY;
 253:../../libdaisy/src/hid/disp/display.h ****             }
 254:../../libdaisy/src/hid/disp/display.h ****         }
 255:../../libdaisy/src/hid/disp/display.h ****     }
 256:../../libdaisy/src/hid/disp/display.h **** 
 257:../../libdaisy/src/hid/disp/display.h ****     void DrawRect(uint_fast8_t x1,
 258:../../libdaisy/src/hid/disp/display.h ****                   uint_fast8_t y1,
 259:../../libdaisy/src/hid/disp/display.h ****                   uint_fast8_t x2,
 260:../../libdaisy/src/hid/disp/display.h ****                   uint_fast8_t y2,
 261:../../libdaisy/src/hid/disp/display.h ****                   bool         on,
 262:../../libdaisy/src/hid/disp/display.h ****                   bool         fill = false) override
 263:../../libdaisy/src/hid/disp/display.h ****     {
 264:../../libdaisy/src/hid/disp/display.h ****         if(fill)
 265:../../libdaisy/src/hid/disp/display.h ****         {
 266:../../libdaisy/src/hid/disp/display.h ****             for(uint_fast8_t x = x1; x <= x2; x++)
 267:../../libdaisy/src/hid/disp/display.h ****             {
ARM GAS  /tmp/ccZhYDze.s 			page 37


 268:../../libdaisy/src/hid/disp/display.h ****                 for(uint_fast8_t y = y1; y <= y2; y++)
 269:../../libdaisy/src/hid/disp/display.h ****                 {
 270:../../libdaisy/src/hid/disp/display.h ****                     ((ChildType*)(this))->ChildType::DrawPixel(x, y, on);
 271:../../libdaisy/src/hid/disp/display.h ****                 }
 272:../../libdaisy/src/hid/disp/display.h ****             }
 273:../../libdaisy/src/hid/disp/display.h ****         }
 274:../../libdaisy/src/hid/disp/display.h ****         else
 275:../../libdaisy/src/hid/disp/display.h ****         {
 276:../../libdaisy/src/hid/disp/display.h ****             ((ChildType*)(this))->ChildType::DrawLine(x1, y1, x2, y1, on);
 277:../../libdaisy/src/hid/disp/display.h ****             ((ChildType*)(this))->ChildType::DrawLine(x2, y1, x2, y2, on);
 278:../../libdaisy/src/hid/disp/display.h ****             ((ChildType*)(this))->ChildType::DrawLine(x2, y2, x1, y2, on);
 279:../../libdaisy/src/hid/disp/display.h ****             ((ChildType*)(this))->ChildType::DrawLine(x1, y2, x1, y1, on);
 280:../../libdaisy/src/hid/disp/display.h ****         }
 281:../../libdaisy/src/hid/disp/display.h ****     }
 282:../../libdaisy/src/hid/disp/display.h **** 
 283:../../libdaisy/src/hid/disp/display.h ****     void DrawArc(uint_fast8_t x,
 284:../../libdaisy/src/hid/disp/display.h ****                  uint_fast8_t y,
 285:../../libdaisy/src/hid/disp/display.h ****                  uint_fast8_t radius,
 286:../../libdaisy/src/hid/disp/display.h ****                  int_fast16_t start_angle,
 287:../../libdaisy/src/hid/disp/display.h ****                  int_fast16_t sweep,
 288:../../libdaisy/src/hid/disp/display.h ****                  bool         on) override
 289:../../libdaisy/src/hid/disp/display.h ****     {
 290:../../libdaisy/src/hid/disp/display.h ****         // Values to calculate the circle
 291:../../libdaisy/src/hid/disp/display.h ****         int_fast16_t t_x, t_y, err, e2;
 292:../../libdaisy/src/hid/disp/display.h **** 
 293:../../libdaisy/src/hid/disp/display.h ****         // Temporary values to speed up comparisons
 294:../../libdaisy/src/hid/disp/display.h ****         float t_sxy, t_syx, t_sxny, t_synx;
 295:../../libdaisy/src/hid/disp/display.h ****         float t_exy, t_eyx, t_exny, t_eynx;
 296:../../libdaisy/src/hid/disp/display.h **** 
 297:../../libdaisy/src/hid/disp/display.h ****         float start_angle_rad, end_angle_rad;
 298:../../libdaisy/src/hid/disp/display.h ****         float start_x, start_y, end_x, end_y;
 299:../../libdaisy/src/hid/disp/display.h **** 
 300:../../libdaisy/src/hid/disp/display.h ****         bool d1, d2, d3, d4;
 301:../../libdaisy/src/hid/disp/display.h **** 
 302:../../libdaisy/src/hid/disp/display.h ****         d1 = d2 = d3 = d4 = true;
 303:../../libdaisy/src/hid/disp/display.h **** 
 304:../../libdaisy/src/hid/disp/display.h ****         bool circle = false;
 305:../../libdaisy/src/hid/disp/display.h **** 
 306:../../libdaisy/src/hid/disp/display.h ****         if(sweep < 0)
 307:../../libdaisy/src/hid/disp/display.h ****         {
 308:../../libdaisy/src/hid/disp/display.h ****             start_angle += sweep;
 309:../../libdaisy/src/hid/disp/display.h ****             sweep = -sweep;
 310:../../libdaisy/src/hid/disp/display.h ****         }
 311:../../libdaisy/src/hid/disp/display.h **** 
 312:../../libdaisy/src/hid/disp/display.h ****         start_angle_rad = deg2rad(start_angle);
 313:../../libdaisy/src/hid/disp/display.h ****         end_angle_rad   = deg2rad(start_angle + sweep);
 314:../../libdaisy/src/hid/disp/display.h **** 
 315:../../libdaisy/src/hid/disp/display.h ****         start_x = cos(start_angle_rad) * radius;
 316:../../libdaisy/src/hid/disp/display.h ****         start_y = -sin(start_angle_rad) * radius;
 317:../../libdaisy/src/hid/disp/display.h ****         end_x   = cos(end_angle_rad) * radius;
 318:../../libdaisy/src/hid/disp/display.h ****         end_y   = -sin(end_angle_rad) * radius;
 319:../../libdaisy/src/hid/disp/display.h **** 
 320:../../libdaisy/src/hid/disp/display.h ****         // Check if start and endpoint are very near
 321:../../libdaisy/src/hid/disp/display.h ****         if((end_x - start_x) * (end_x - start_x)
 322:../../libdaisy/src/hid/disp/display.h ****                + (end_y - start_y) * (end_y - start_y)
 323:../../libdaisy/src/hid/disp/display.h ****            < 2.0f)
 324:../../libdaisy/src/hid/disp/display.h ****         {
ARM GAS  /tmp/ccZhYDze.s 			page 38


 325:../../libdaisy/src/hid/disp/display.h ****             if(sweep > 180)
 326:../../libdaisy/src/hid/disp/display.h ****                 circle = true;
 327:../../libdaisy/src/hid/disp/display.h ****             else
 328:../../libdaisy/src/hid/disp/display.h ****                 // Nothing to draw
 329:../../libdaisy/src/hid/disp/display.h ****                 return;
 330:../../libdaisy/src/hid/disp/display.h ****         }
 331:../../libdaisy/src/hid/disp/display.h **** 
 332:../../libdaisy/src/hid/disp/display.h ****         t_x = -radius;
 333:../../libdaisy/src/hid/disp/display.h ****         t_y = 0;
 334:../../libdaisy/src/hid/disp/display.h ****         err = 2 - 2 * radius;
 335:../../libdaisy/src/hid/disp/display.h **** 
 336:../../libdaisy/src/hid/disp/display.h ****         do
 337:../../libdaisy/src/hid/disp/display.h ****         {
 338:../../libdaisy/src/hid/disp/display.h ****             if(!circle)
 339:../../libdaisy/src/hid/disp/display.h ****             {
 340:../../libdaisy/src/hid/disp/display.h ****                 t_sxy  = start_x * t_y;
 341:../../libdaisy/src/hid/disp/display.h ****                 t_syx  = start_y * t_x;
 342:../../libdaisy/src/hid/disp/display.h ****                 t_sxny = start_x * -t_y;
 343:../../libdaisy/src/hid/disp/display.h ****                 t_synx = start_y * -t_x;
 344:../../libdaisy/src/hid/disp/display.h ****                 t_exy  = end_x * t_y;
 345:../../libdaisy/src/hid/disp/display.h ****                 t_eyx  = end_y * t_x;
 346:../../libdaisy/src/hid/disp/display.h ****                 t_exny = end_x * -t_y;
 347:../../libdaisy/src/hid/disp/display.h ****                 t_eynx = end_y * -t_x;
 348:../../libdaisy/src/hid/disp/display.h **** 
 349:../../libdaisy/src/hid/disp/display.h ****                 if(sweep > 180)
 350:../../libdaisy/src/hid/disp/display.h ****                 {
 351:../../libdaisy/src/hid/disp/display.h ****                     d1 = (t_sxy - t_synx < 0 || t_exy - t_eynx > 0);
 352:../../libdaisy/src/hid/disp/display.h ****                     d2 = (t_sxy - t_syx < 0 || t_exy - t_eyx > 0);
 353:../../libdaisy/src/hid/disp/display.h ****                     d3 = (t_sxny - t_syx < 0 || t_exny - t_eyx > 0);
 354:../../libdaisy/src/hid/disp/display.h ****                     d4 = (t_sxny - t_synx < 0 || t_exny - t_eynx > 0);
 355:../../libdaisy/src/hid/disp/display.h ****                 }
 356:../../libdaisy/src/hid/disp/display.h ****                 else
 357:../../libdaisy/src/hid/disp/display.h ****                 {
 358:../../libdaisy/src/hid/disp/display.h ****                     d1 = (t_sxy - t_synx < 0 && t_exy - t_eynx > 0);
 359:../../libdaisy/src/hid/disp/display.h ****                     d2 = (t_sxy - t_syx < 0 && t_exy - t_eyx > 0);
 360:../../libdaisy/src/hid/disp/display.h ****                     d3 = (t_sxny - t_syx < 0 && t_exny - t_eyx > 0);
 361:../../libdaisy/src/hid/disp/display.h ****                     d4 = (t_sxny - t_synx < 0 && t_exny - t_eynx > 0);
 362:../../libdaisy/src/hid/disp/display.h ****                 }
 363:../../libdaisy/src/hid/disp/display.h ****             }
 364:../../libdaisy/src/hid/disp/display.h **** 
 365:../../libdaisy/src/hid/disp/display.h ****             if(d1)
 366:../../libdaisy/src/hid/disp/display.h ****                 ((ChildType*)(this))
 367:../../libdaisy/src/hid/disp/display.h ****                     ->ChildType::DrawPixel(x - t_x, y + t_y, on);
 368:../../libdaisy/src/hid/disp/display.h ****             if(d2)
 369:../../libdaisy/src/hid/disp/display.h ****                 ((ChildType*)(this))
 370:../../libdaisy/src/hid/disp/display.h ****                     ->ChildType::DrawPixel(x + t_x, y + t_y, on);
 371:../../libdaisy/src/hid/disp/display.h ****             if(d3)
 372:../../libdaisy/src/hid/disp/display.h ****                 ((ChildType*)(this))
 373:../../libdaisy/src/hid/disp/display.h ****                     ->ChildType::DrawPixel(x + t_x, y - t_y, on);
 374:../../libdaisy/src/hid/disp/display.h ****             if(d4)
 375:../../libdaisy/src/hid/disp/display.h ****                 ((ChildType*)(this))
 376:../../libdaisy/src/hid/disp/display.h ****                     ->ChildType::DrawPixel(x - t_x, y - t_y, on);
 377:../../libdaisy/src/hid/disp/display.h **** 
 378:../../libdaisy/src/hid/disp/display.h ****             e2 = err;
 379:../../libdaisy/src/hid/disp/display.h ****             if(e2 <= t_y)
 380:../../libdaisy/src/hid/disp/display.h ****             {
 381:../../libdaisy/src/hid/disp/display.h ****                 t_y++;
ARM GAS  /tmp/ccZhYDze.s 			page 39


 382:../../libdaisy/src/hid/disp/display.h ****                 err = err + (t_y * 2 + 1);
 383:../../libdaisy/src/hid/disp/display.h ****                 if(-t_x == t_y && e2 <= t_x)
 384:../../libdaisy/src/hid/disp/display.h ****                 {
 385:../../libdaisy/src/hid/disp/display.h ****                     e2 = 0;
 386:../../libdaisy/src/hid/disp/display.h ****                 }
 387:../../libdaisy/src/hid/disp/display.h ****             }
 388:../../libdaisy/src/hid/disp/display.h ****             if(e2 > t_x)
 389:../../libdaisy/src/hid/disp/display.h ****             {
 390:../../libdaisy/src/hid/disp/display.h ****                 t_x++;
 391:../../libdaisy/src/hid/disp/display.h ****                 err = err + (t_x * 2 + 1);
 392:../../libdaisy/src/hid/disp/display.h ****             }
 393:../../libdaisy/src/hid/disp/display.h ****         } while(t_x <= 0);
 394:../../libdaisy/src/hid/disp/display.h ****     }
 395:../../libdaisy/src/hid/disp/display.h **** 
 396:../../libdaisy/src/hid/disp/display.h ****     char WriteChar(char ch, FontDef font, bool on) override
 397:../../libdaisy/src/hid/disp/display.h ****     {
 398:../../libdaisy/src/hid/disp/display.h ****         uint32_t i, b, j;
 399:../../libdaisy/src/hid/disp/display.h **** 
 400:../../libdaisy/src/hid/disp/display.h ****         // Check if character is valid
 401:../../libdaisy/src/hid/disp/display.h ****         if(ch < 32 || ch > 126)
 402:../../libdaisy/src/hid/disp/display.h ****             return 0;
 403:../../libdaisy/src/hid/disp/display.h **** 
 404:../../libdaisy/src/hid/disp/display.h ****         // Check remaining space on current line
 405:../../libdaisy/src/hid/disp/display.h ****         if(Width() < (currentX_ + font.FontWidth)
 406:../../libdaisy/src/hid/disp/display.h ****            || Height() < (currentY_ + font.FontHeight))
 407:../../libdaisy/src/hid/disp/display.h ****         {
 408:../../libdaisy/src/hid/disp/display.h ****             // Not enough space on current line
 409:../../libdaisy/src/hid/disp/display.h ****             return 0;
 410:../../libdaisy/src/hid/disp/display.h ****         }
 411:../../libdaisy/src/hid/disp/display.h **** 
 412:../../libdaisy/src/hid/disp/display.h ****         // Use the font to write
 413:../../libdaisy/src/hid/disp/display.h ****         for(i = 0; i < font.FontHeight; i++)
 414:../../libdaisy/src/hid/disp/display.h ****         {
 415:../../libdaisy/src/hid/disp/display.h ****             b = font.data[(ch - 32) * font.FontHeight + i];
 416:../../libdaisy/src/hid/disp/display.h ****             for(j = 0; j < font.FontWidth; j++)
 417:../../libdaisy/src/hid/disp/display.h ****             {
 418:../../libdaisy/src/hid/disp/display.h ****                 if((b << j) & 0x8000)
 419:../../libdaisy/src/hid/disp/display.h ****                 {
 420:../../libdaisy/src/hid/disp/display.h ****                     ((ChildType*)(this))
 421:../../libdaisy/src/hid/disp/display.h ****                         ->ChildType::DrawPixel(
 422:../../libdaisy/src/hid/disp/display.h ****                             currentX_ + j, (currentY_ + i), on);
 423:../../libdaisy/src/hid/disp/display.h ****                 }
 424:../../libdaisy/src/hid/disp/display.h ****                 else
 425:../../libdaisy/src/hid/disp/display.h ****                 {
 426:../../libdaisy/src/hid/disp/display.h ****                     ((ChildType*)(this))
 427:../../libdaisy/src/hid/disp/display.h ****                         ->ChildType::DrawPixel(
 428:../../libdaisy/src/hid/disp/display.h ****                             currentX_ + j, (currentY_ + i), !on);
 429:../../libdaisy/src/hid/disp/display.h ****                 }
 430:../../libdaisy/src/hid/disp/display.h ****             }
 431:../../libdaisy/src/hid/disp/display.h ****         }
 432:../../libdaisy/src/hid/disp/display.h **** 
 433:../../libdaisy/src/hid/disp/display.h ****         // The current space is now taken
 434:../../libdaisy/src/hid/disp/display.h ****         SetCursor(currentX_ + font.FontWidth, currentY_);
 435:../../libdaisy/src/hid/disp/display.h **** 
 436:../../libdaisy/src/hid/disp/display.h ****         // Return written char for validation
 437:../../libdaisy/src/hid/disp/display.h ****         return ch;
 438:../../libdaisy/src/hid/disp/display.h ****     }
ARM GAS  /tmp/ccZhYDze.s 			page 40


 439:../../libdaisy/src/hid/disp/display.h **** 
 440:../../libdaisy/src/hid/disp/display.h ****     char WriteString(const char* str, FontDef font, bool on) override
 793              		.loc 6 440 10 is_stmt 1 view -0
 794              		.cfi_startproc
 795              		@ args = 4, pretend = 0, frame = 32
 796              		@ frame_needed = 0, uses_anonymous_args = 0
 797              		.loc 6 440 10 is_stmt 0 view .LVU185
 798 0000 2DE9F04F 		push	{r4, r5, r6, r7, r8, r9, r10, fp, lr}
 799              		.cfi_def_cfa_offset 36
 800              		.cfi_offset 4, -36
 801              		.cfi_offset 5, -32
 802              		.cfi_offset 6, -28
 803              		.cfi_offset 7, -24
 804              		.cfi_offset 8, -20
 805              		.cfi_offset 9, -16
 806              		.cfi_offset 10, -12
 807              		.cfi_offset 11, -8
 808              		.cfi_offset 14, -4
 809 0004 89B0     		sub	sp, sp, #36
 810              		.cfi_def_cfa_offset 72
 811              		.loc 6 440 10 view .LVU186
 812 0006 8B46     		mov	fp, r1
 441:../../libdaisy/src/hid/disp/display.h ****     {
 442:../../libdaisy/src/hid/disp/display.h ****         // Write until null-byte
 443:../../libdaisy/src/hid/disp/display.h ****         while(*str)
 813              		.loc 6 443 9 is_stmt 1 view .LVU187
 814 0008 91F80090 		ldrb	r9, [r1]	@ zero_extendqisi2
 440:../../libdaisy/src/hid/disp/display.h ****     {
 815              		.loc 6 440 10 is_stmt 0 view .LVU188
 816 000c 9DF84840 		ldrb	r4, [sp, #72]	@ zero_extendqisi2
 817 0010 08A9     		add	r1, sp, #32
 818              	.LVL48:
 440:../../libdaisy/src/hid/disp/display.h ****     {
 819              		.loc 6 440 10 view .LVU189
 820 0012 0494     		str	r4, [sp, #16]
 821 0014 01E90C00 		stmdb	r1, {r2, r3}
 822              		.loc 6 443 9 view .LVU190
 823 0018 B9F1000F 		cmp	r9, #0
 824 001c 00F0B780 		beq	.L52
 825 0020 9DF81930 		ldrb	r3, [sp, #25]	@ zero_extendqisi2
 826 0024 8046     		mov	r8, r0
 827 0026 9DF818A0 		ldrb	r10, [sp, #24]	@ zero_extendqisi2
 828 002a 4D46     		mov	r5, r9
 829 002c 0193     		str	r3, [sp, #4]
 830 002e 079B     		ldr	r3, [sp, #28]
 831 0030 0593     		str	r3, [sp, #20]
 832              	.LVL49:
 833              	.L53:
 834              	.LBB687:
 835              	.LBI687:
 396:../../libdaisy/src/hid/disp/display.h ****     {
 836              		.loc 6 396 10 is_stmt 1 view .LVU191
 837              	.LBB688:
 401:../../libdaisy/src/hid/disp/display.h ****             return 0;
 838              		.loc 6 401 20 is_stmt 0 view .LVU192
 839 0032 A5F12004 		sub	r4, r5, #32
 401:../../libdaisy/src/hid/disp/display.h ****             return 0;
ARM GAS  /tmp/ccZhYDze.s 			page 41


 840              		.loc 6 401 9 view .LVU193
 841 0036 E3B2     		uxtb	r3, r4
 842 0038 5E2B     		cmp	r3, #94
 843 003a 00F2AC80 		bhi	.L34
 405:../../libdaisy/src/hid/disp/display.h ****            || Height() < (currentY_ + font.FontHeight))
 844              		.loc 6 405 17 view .LVU194
 845 003e D8F80030 		ldr	r3, [r8]
 846 0042 654A     		ldr	r2, .L74
 847 0044 DB68     		ldr	r3, [r3, #12]
 848 0046 9342     		cmp	r3, r2
 849 0048 40F0A780 		bne	.L67
 850 004c 8020     		movs	r0, #128
 851              	.L33:
 405:../../libdaisy/src/hid/disp/display.h ****            || Height() < (currentY_ + font.FontHeight))
 852              		.loc 6 405 23 view .LVU195
 853 004e B8F80430 		ldrh	r3, [r8, #4]
 405:../../libdaisy/src/hid/disp/display.h ****            || Height() < (currentY_ + font.FontHeight))
 854              		.loc 6 405 33 view .LVU196
 855 0052 5344     		add	r3, r3, r10
 406:../../libdaisy/src/hid/disp/display.h ****         {
 856              		.loc 6 406 12 view .LVU197
 857 0054 8342     		cmp	r3, r0
 858 0056 00F39E80 		bgt	.L34
 406:../../libdaisy/src/hid/disp/display.h ****         {
 859              		.loc 6 406 21 view .LVU198
 860 005a D8F80030 		ldr	r3, [r8]
 861 005e 5F4A     		ldr	r2, .L74+4
 862 0060 9B68     		ldr	r3, [r3, #8]
 863 0062 9342     		cmp	r3, r2
 864 0064 40F09C80 		bne	.L68
 865 0068 4020     		movs	r0, #64
 866              	.L35:
 406:../../libdaisy/src/hid/disp/display.h ****         {
 867              		.loc 6 406 27 view .LVU199
 868 006a B8F80610 		ldrh	r1, [r8, #6]
 406:../../libdaisy/src/hid/disp/display.h ****         {
 869              		.loc 6 406 37 view .LVU200
 870 006e 019A     		ldr	r2, [sp, #4]
 406:../../libdaisy/src/hid/disp/display.h ****         {
 871              		.loc 6 406 27 view .LVU201
 872 0070 0091     		str	r1, [sp]
 406:../../libdaisy/src/hid/disp/display.h ****         {
 873              		.loc 6 406 37 view .LVU202
 874 0072 8B18     		adds	r3, r1, r2
 406:../../libdaisy/src/hid/disp/display.h ****         {
 875              		.loc 6 406 12 view .LVU203
 876 0074 8342     		cmp	r3, r0
 877 0076 00F38E80 		bgt	.L34
 878              	.LVL50:
 413:../../libdaisy/src/hid/disp/display.h ****         {
 879              		.loc 6 413 22 is_stmt 1 view .LVU204
 880 007a 1046     		mov	r0, r2
 881 007c 002A     		cmp	r2, #0
 882 007e 00F09A80 		beq	.L36
 415:../../libdaisy/src/hid/disp/display.h ****             for(j = 0; j < font.FontWidth; j++)
 883              		.loc 6 415 37 is_stmt 0 view .LVU205
 884 0082 1346     		mov	r3, r2
ARM GAS  /tmp/ccZhYDze.s 			page 42


 885 0084 6FF00046 		mvn	r6, #-2147483648
 886 0088 B8F80470 		ldrh	r7, [r8, #4]
 887 008c 03FB04F3 		mul	r3, r3, r4
 888 0090 059C     		ldr	r4, [sp, #20]
 889 0092 BE46     		mov	lr, r7
 890 0094 CDF80CB0 		str	fp, [sp, #12]
 891 0098 1E44     		add	r6, r6, r3
 892 009a A21E     		subs	r2, r4, #2
 893 009c 0344     		add	r3, r3, r0
 894 009e 5746     		mov	r7, r10
 895 00a0 04EB4606 		add	r6, r4, r6, lsl #1
 896 00a4 DDF81090 		ldr	r9, [sp, #16]
 897 00a8 02EB4303 		add	r3, r2, r3, lsl #1
 898 00ac 0295     		str	r5, [sp, #8]
 899 00ae 9B46     		mov	fp, r3
 900              	.LVL51:
 901              	.L39:
 415:../../libdaisy/src/hid/disp/display.h ****             for(j = 0; j < font.FontWidth; j++)
 902              		.loc 6 415 13 view .LVU206
 903 00b0 36F802AF 		ldrh	r10, [r6, #2]!
 904              	.LVL52:
 416:../../libdaisy/src/hid/disp/display.h ****             {
 905              		.loc 6 416 26 is_stmt 1 view .LVU207
 906 00b4 A7B3     		cbz	r7, .L44
 907              	.LBB689:
 908              	.LBB690:
 909              	.LBB691:
 910              	.LBB692:
 911              	.LBB693:
 246:../../libdaisy/src/dev/oled_ssd130x.h ****     }
 912              		.loc 16 246 49 is_stmt 0 view .LVU208
 913 00b6 0124     		movs	r4, #1
 246:../../libdaisy/src/dev/oled_ssd130x.h ****     }
 914              		.loc 16 246 55 view .LVU209
 915 00b8 01F00702 		and	r2, r1, #7
 246:../../libdaisy/src/dev/oled_ssd130x.h ****     }
 916              		.loc 16 246 28 view .LVU210
 917 00bc C808     		lsrs	r0, r1, #3
 918 00be 0EF11403 		add	r3, lr, #20
 246:../../libdaisy/src/dev/oled_ssd130x.h ****     }
 919              		.loc 16 246 49 view .LVU211
 920 00c2 04FA02F2 		lsl	r2, r4, r2
 921 00c6 7446     		mov	r4, lr
 922 00c8 03EBC013 		add	r3, r3, r0, lsl #7
 923              	.LBE693:
 924              	.LBE692:
 925              	.LBE691:
 926              	.LBE690:
 927              	.LBE689:
 416:../../libdaisy/src/hid/disp/display.h ****             {
 928              		.loc 6 416 19 view .LVU212
 929 00cc 0020     		movs	r0, #0
 930              	.LBB711:
 931              	.LBB706:
 932              	.LBB701:
 933              	.LBB697:
 934              	.LBB694:
ARM GAS  /tmp/ccZhYDze.s 			page 43


 246:../../libdaisy/src/dev/oled_ssd130x.h ****     }
 935              		.loc 16 246 42 view .LVU213
 936 00ce 52B2     		sxtb	r2, r2
 937 00d0 4344     		add	r3, r3, r8
 938 00d2 6FEA020C 		mvn	ip, r2
 939 00d6 0EE0     		b	.L45
 940              	.LVL53:
 941              	.L69:
 246:../../libdaisy/src/dev/oled_ssd130x.h ****     }
 942              		.loc 16 246 42 view .LVU214
 943              	.LBE694:
 944              	.LBE697:
 945              	.LBE701:
 946              	.LBE706:
 947              	.LBE711:
 948              	.LBB712:
 949              	.LBI712:
  41:../../libdaisy/src/hid/disp/oled_display.h ****     {
 950              		.loc 5 41 10 is_stmt 1 view .LVU215
 951              	.LBB713:
 952              	.LBI713:
 239:../../libdaisy/src/dev/oled_ssd130x.h ****     {
 953              		.loc 16 239 10 view .LVU216
 954              	.LBB714:
 241:../../libdaisy/src/dev/oled_ssd130x.h ****             return;
 955              		.loc 16 241 9 is_stmt 0 view .LVU217
 956 00d8 7F2C     		cmp	r4, #127
 957 00da 07D8     		bhi	.L41
 958 00dc 3F29     		cmp	r1, #63
 959 00de 05D8     		bhi	.L41
 244:../../libdaisy/src/dev/oled_ssd130x.h ****         else
 960              		.loc 16 244 42 view .LVU218
 961 00e0 1D78     		ldrb	r5, [r3]	@ zero_extendqisi2
 243:../../libdaisy/src/dev/oled_ssd130x.h ****             buffer_[x + (y / 8) * width] |= (1 << (y % 8));
 962              		.loc 16 243 9 view .LVU219
 963 00e2 B9F1000F 		cmp	r9, #0
 964 00e6 12D0     		beq	.L43
 965              	.L66:
 243:../../libdaisy/src/dev/oled_ssd130x.h ****             buffer_[x + (y / 8) * width] |= (1 << (y % 8));
 966              		.loc 16 243 9 view .LVU220
 967              	.LBE714:
 968              	.LBE713:
 969              	.LBE712:
 970              	.LBB715:
 971              	.LBB707:
 972              	.LBB702:
 244:../../libdaisy/src/dev/oled_ssd130x.h ****         else
 973              		.loc 16 244 42 view .LVU221
 974 00e8 1543     		orrs	r5, r5, r2
 244:../../libdaisy/src/dev/oled_ssd130x.h ****         else
 975              		.loc 16 244 13 view .LVU222
 976 00ea 1D70     		strb	r5, [r3]
 977              	.L41:
 978              	.LBE702:
 979              	.LBE707:
 980              	.LBE715:
 416:../../libdaisy/src/hid/disp/display.h ****             {
ARM GAS  /tmp/ccZhYDze.s 			page 44


 981              		.loc 6 416 13 is_stmt 1 view .LVU223
 982 00ec 0130     		adds	r0, r0, #1
 983              	.LVL54:
 416:../../libdaisy/src/hid/disp/display.h ****             {
 984              		.loc 6 416 26 view .LVU224
 985 00ee 0133     		adds	r3, r3, #1
 986 00f0 0134     		adds	r4, r4, #1
 987 00f2 B842     		cmp	r0, r7
 988 00f4 14D0     		beq	.L44
 989              	.LVL55:
 990              	.L45:
 418:../../libdaisy/src/hid/disp/display.h ****                 {
 991              		.loc 6 418 23 is_stmt 0 view .LVU225
 992 00f6 0AFA00F5 		lsl	r5, r10, r0
 418:../../libdaisy/src/hid/disp/display.h ****                 {
 993              		.loc 6 418 17 view .LVU226
 994 00fa 2D04     		lsls	r5, r5, #16
 995 00fc ECD4     		bmi	.L69
 996              	.LVL56:
 997              	.LBB716:
 998              	.LBI689:
  41:../../libdaisy/src/hid/disp/oled_display.h ****     {
 999              		.loc 5 41 10 is_stmt 1 view .LVU227
 1000              	.LBB708:
 1001              	.LBI690:
 239:../../libdaisy/src/dev/oled_ssd130x.h ****     {
 1002              		.loc 16 239 10 view .LVU228
 1003              	.LBB703:
 241:../../libdaisy/src/dev/oled_ssd130x.h ****             return;
 1004              		.loc 16 241 9 is_stmt 0 view .LVU229
 1005 00fe 7F2C     		cmp	r4, #127
 1006 0100 F4D8     		bhi	.L41
 1007 0102 3F29     		cmp	r1, #63
 1008 0104 F2D8     		bhi	.L41
 244:../../libdaisy/src/dev/oled_ssd130x.h ****         else
 1009              		.loc 16 244 42 view .LVU230
 1010 0106 1D78     		ldrb	r5, [r3]	@ zero_extendqisi2
 243:../../libdaisy/src/dev/oled_ssd130x.h ****             buffer_[x + (y / 8) * width] |= (1 << (y % 8));
 1011              		.loc 16 243 9 view .LVU231
 1012 0108 B9F1000F 		cmp	r9, #0
 1013 010c ECD0     		beq	.L66
 1014              	.L43:
 1015              	.LVL57:
 1016              	.LBB698:
 1017              	.LBI692:
 239:../../libdaisy/src/dev/oled_ssd130x.h ****     {
 1018              		.loc 16 239 10 is_stmt 1 view .LVU232
 239:../../libdaisy/src/dev/oled_ssd130x.h ****     {
 1019              		.loc 16 239 10 is_stmt 0 view .LVU233
 1020              	.LBE698:
 1021              	.LBE703:
 1022              	.LBE708:
 1023              	.LBE716:
 416:../../libdaisy/src/hid/disp/display.h ****             {
 1024              		.loc 6 416 13 view .LVU234
 1025 010e 0130     		adds	r0, r0, #1
 1026              	.LVL58:
ARM GAS  /tmp/ccZhYDze.s 			page 45


 1027              	.LBB717:
 1028              	.LBB709:
 1029              	.LBB704:
 1030              	.LBB699:
 1031              	.LBB695:
 246:../../libdaisy/src/dev/oled_ssd130x.h ****     }
 1032              		.loc 16 246 42 view .LVU235
 1033 0110 0CEA0505 		and	r5, ip, r5
 1034 0114 0133     		adds	r3, r3, #1
 1035 0116 0134     		adds	r4, r4, #1
 1036              	.LBE695:
 1037              	.LBE699:
 1038              	.LBE704:
 1039              	.LBE709:
 1040              	.LBE717:
 416:../../libdaisy/src/hid/disp/display.h ****             {
 1041              		.loc 6 416 26 view .LVU236
 1042 0118 B842     		cmp	r0, r7
 1043              	.LBB718:
 1044              	.LBB710:
 1045              	.LBB705:
 1046              	.LBB700:
 1047              	.LBB696:
 246:../../libdaisy/src/dev/oled_ssd130x.h ****     }
 1048              		.loc 16 246 13 view .LVU237
 1049 011a 03F8015C 		strb	r5, [r3, #-1]
 246:../../libdaisy/src/dev/oled_ssd130x.h ****     }
 1050              		.loc 16 246 13 view .LVU238
 1051              	.LBE696:
 1052              	.LBE700:
 1053              	.LBE705:
 1054              	.LBE710:
 1055              	.LBE718:
 416:../../libdaisy/src/hid/disp/display.h ****             {
 1056              		.loc 6 416 13 is_stmt 1 view .LVU239
 1057              	.LVL59:
 416:../../libdaisy/src/hid/disp/display.h ****             {
 1058              		.loc 6 416 26 view .LVU240
 1059 011e EAD1     		bne	.L45
 1060              	.LVL60:
 1061              	.L44:
 413:../../libdaisy/src/hid/disp/display.h ****         {
 1062              		.loc 6 413 9 view .LVU241
 413:../../libdaisy/src/hid/disp/display.h ****         {
 1063              		.loc 6 413 22 view .LVU242
 1064 0120 5E45     		cmp	r6, fp
 1065 0122 01F10101 		add	r1, r1, #1
 1066 0126 C3D1     		bne	.L39
 1067 0128 BA46     		mov	r10, r7
 1068              	.LVL61:
 413:../../libdaisy/src/hid/disp/display.h ****         {
 1069              		.loc 6 413 22 is_stmt 0 view .LVU243
 1070 012a 029D     		ldr	r5, [sp, #8]
 1071 012c 7746     		mov	r7, lr
 1072 012e DDF80CB0 		ldr	fp, [sp, #12]
 1073              	.L38:
 1074              	.LBB719:
ARM GAS  /tmp/ccZhYDze.s 			page 46


 1075              	.LBB720:
 173:../../libdaisy/src/hid/disp/display.h ****         currentY_ = (y >= Height()) ? Height() - 1 : y;
 1076              		.loc 6 173 33 view .LVU244
 1077 0132 D8F80020 		ldr	r2, [r8]
 1078              	.LBE720:
 1079              	.LBE719:
 434:../../libdaisy/src/hid/disp/display.h **** 
 1080              		.loc 6 434 18 view .LVU245
 1081 0136 5744     		add	r7, r7, r10
 1082 0138 2749     		ldr	r1, .L74
 1083              	.LBB724:
 1084              	.LBB721:
 173:../../libdaisy/src/hid/disp/display.h ****         currentY_ = (y >= Height()) ? Height() - 1 : y;
 1085              		.loc 6 173 33 view .LVU246
 1086 013a D368     		ldr	r3, [r2, #12]
 1087              	.LBE721:
 1088              	.LBE724:
 434:../../libdaisy/src/hid/disp/display.h **** 
 1089              		.loc 6 434 18 view .LVU247
 1090 013c BFB2     		uxth	r7, r7
 1091              	.LVL62:
 1092              	.LBB725:
 1093              	.LBI719:
 171:../../libdaisy/src/hid/disp/display.h ****     {
 1094              		.loc 6 171 10 is_stmt 1 view .LVU248
 1095              	.LBB722:
 173:../../libdaisy/src/hid/disp/display.h ****         currentY_ = (y >= Height()) ? Height() - 1 : y;
 1096              		.loc 6 173 9 view .LVU249
 1097 013e 8B42     		cmp	r3, r1
 1098 0140 34D1     		bne	.L70
 173:../../libdaisy/src/hid/disp/display.h ****         currentY_ = (y >= Height()) ? Height() - 1 : y;
 1099              		.loc 6 173 33 is_stmt 0 view .LVU250
 1100 0142 8020     		movs	r0, #128
 1101              	.L46:
 173:../../libdaisy/src/hid/disp/display.h ****         currentY_ = (y >= Height()) ? Height() - 1 : y;
 1102              		.loc 6 173 19 view .LVU251
 1103 0144 8742     		cmp	r7, r0
 1104 0146 04D3     		bcc	.L47
 173:../../libdaisy/src/hid/disp/display.h ****         currentY_ = (y >= Height()) ? Height() - 1 : y;
 1105              		.loc 6 173 44 view .LVU252
 1106 0148 D368     		ldr	r3, [r2, #12]
 1107 014a 2349     		ldr	r1, .L74
 1108 014c 8B42     		cmp	r3, r1
 1109 014e 3BD1     		bne	.L71
 1110 0150 7F27     		movs	r7, #127
 1111              	.LVL63:
 1112              	.L47:
 174:../../libdaisy/src/hid/disp/display.h ****     }
 1113              		.loc 6 174 34 view .LVU253
 1114 0152 9368     		ldr	r3, [r2, #8]
 1115 0154 214A     		ldr	r2, .L74+4
 173:../../libdaisy/src/hid/disp/display.h ****         currentY_ = (y >= Height()) ? Height() - 1 : y;
 1116              		.loc 6 173 19 view .LVU254
 1117 0156 A8F80470 		strh	r7, [r8, #4]	@ movhi
 174:../../libdaisy/src/hid/disp/display.h ****     }
 1118              		.loc 6 174 9 is_stmt 1 view .LVU255
 1119 015a 9342     		cmp	r3, r2
ARM GAS  /tmp/ccZhYDze.s 			page 47


 1120 015c 23D1     		bne	.L72
 174:../../libdaisy/src/hid/disp/display.h ****     }
 1121              		.loc 6 174 34 is_stmt 0 view .LVU256
 1122 015e 4020     		movs	r0, #64
 1123              	.L49:
 174:../../libdaisy/src/hid/disp/display.h ****     }
 1124              		.loc 6 174 19 view .LVU257
 1125 0160 009B     		ldr	r3, [sp]
 1126 0162 8342     		cmp	r3, r0
 1127 0164 07D3     		bcc	.L50
 174:../../libdaisy/src/hid/disp/display.h ****     }
 1128              		.loc 6 174 46 view .LVU258
 1129 0166 D8F80030 		ldr	r3, [r8]
 1130 016a 1C4A     		ldr	r2, .L74+4
 1131 016c 9B68     		ldr	r3, [r3, #8]
 1132 016e 9342     		cmp	r3, r2
 1133 0170 24D1     		bne	.L73
 1134 0172 3F23     		movs	r3, #63
 1135 0174 0093     		str	r3, [sp]
 1136              	.LVL64:
 1137              	.L50:
 174:../../libdaisy/src/hid/disp/display.h ****     }
 1138              		.loc 6 174 19 view .LVU259
 1139 0176 009B     		ldr	r3, [sp]
 1140 0178 A8F80630 		strh	r3, [r8, #6]	@ movhi
 1141              	.LVL65:
 1142              	.L32:
 174:../../libdaisy/src/hid/disp/display.h ****     }
 1143              		.loc 6 174 19 view .LVU260
 1144              	.LBE722:
 1145              	.LBE725:
 1146              	.LBE688:
 1147              	.LBE687:
 444:../../libdaisy/src/hid/disp/display.h ****         {
 445:../../libdaisy/src/hid/disp/display.h ****             if(((ChildType*)(this))->ChildType::WriteChar(*str, font, on)
 446:../../libdaisy/src/hid/disp/display.h ****                != *str)
 1148              		.loc 6 446 16 view .LVU261
 1149 017c 9BF80000 		ldrb	r0, [fp]	@ zero_extendqisi2
 445:../../libdaisy/src/hid/disp/display.h ****                != *str)
 1150              		.loc 6 445 13 view .LVU262
 1151 0180 A842     		cmp	r0, r5
 1152 0182 05D1     		bne	.L30
 1153              	.LVL66:
 443:../../libdaisy/src/hid/disp/display.h ****         {
 1154              		.loc 6 443 9 is_stmt 1 view .LVU263
 1155 0184 1BF8015F 		ldrb	r5, [fp, #1]!	@ zero_extendqisi2
 1156              	.LVL67:
 443:../../libdaisy/src/hid/disp/display.h ****         {
 1157              		.loc 6 443 9 is_stmt 0 view .LVU264
 1158 0188 002D     		cmp	r5, #0
 1159 018a 7FF452AF 		bne	.L53
 1160              	.LVL68:
 1161              	.L52:
 1162              	.LBB729:
 1163              	.LBB727:
 402:../../libdaisy/src/hid/disp/display.h **** 
 1164              		.loc 6 402 20 view .LVU265
ARM GAS  /tmp/ccZhYDze.s 			page 48


 1165 018e 0020     		movs	r0, #0
 1166              	.LVL69:
 1167              	.L30:
 402:../../libdaisy/src/hid/disp/display.h **** 
 1168              		.loc 6 402 20 view .LVU266
 1169              	.LBE727:
 1170              	.LBE729:
 447:../../libdaisy/src/hid/disp/display.h ****             {
 448:../../libdaisy/src/hid/disp/display.h ****                 // Char could not be written
 449:../../libdaisy/src/hid/disp/display.h ****                 return *str;
 450:../../libdaisy/src/hid/disp/display.h ****             }
 451:../../libdaisy/src/hid/disp/display.h **** 
 452:../../libdaisy/src/hid/disp/display.h ****             // Next char
 453:../../libdaisy/src/hid/disp/display.h ****             str++;
 454:../../libdaisy/src/hid/disp/display.h ****         }
 455:../../libdaisy/src/hid/disp/display.h **** 
 456:../../libdaisy/src/hid/disp/display.h ****         // Everything ok
 457:../../libdaisy/src/hid/disp/display.h ****         return *str;
 458:../../libdaisy/src/hid/disp/display.h ****     }
 1171              		.loc 6 458 5 view .LVU267
 1172 0190 09B0     		add	sp, sp, #36
 1173              		.cfi_remember_state
 1174              		.cfi_def_cfa_offset 36
 1175              		@ sp needed
 1176 0192 BDE8F08F 		pop	{r4, r5, r6, r7, r8, r9, r10, fp, pc}
 1177              	.LVL70:
 1178              	.L34:
 1179              		.cfi_restore_state
 1180              	.LBB730:
 1181              	.LBB728:
 402:../../libdaisy/src/hid/disp/display.h **** 
 1182              		.loc 6 402 20 view .LVU268
 1183 0196 0025     		movs	r5, #0
 1184              	.LVL71:
 402:../../libdaisy/src/hid/disp/display.h **** 
 1185              		.loc 6 402 20 view .LVU269
 1186 0198 F0E7     		b	.L32
 1187              	.LVL72:
 1188              	.L67:
 405:../../libdaisy/src/hid/disp/display.h ****            || Height() < (currentY_ + font.FontHeight))
 1189              		.loc 6 405 17 view .LVU270
 1190 019a 4046     		mov	r0, r8
 1191 019c 9847     		blx	r3
 1192              	.LVL73:
 1193 019e 56E7     		b	.L33
 1194              	.L68:
 406:../../libdaisy/src/hid/disp/display.h ****         {
 1195              		.loc 6 406 21 view .LVU271
 1196 01a0 4046     		mov	r0, r8
 1197 01a2 9847     		blx	r3
 1198              	.LVL74:
 1199 01a4 61E7     		b	.L35
 1200              	.LVL75:
 1201              	.L72:
 1202              	.LBB726:
 1203              	.LBB723:
 174:../../libdaisy/src/hid/disp/display.h ****     }
ARM GAS  /tmp/ccZhYDze.s 			page 49


 1204              		.loc 6 174 33 view .LVU272
 1205 01a6 4046     		mov	r0, r8
 1206 01a8 9847     		blx	r3
 1207              	.LVL76:
 1208 01aa D9E7     		b	.L49
 1209              	.LVL77:
 1210              	.L70:
 173:../../libdaisy/src/hid/disp/display.h ****         currentY_ = (y >= Height()) ? Height() - 1 : y;
 1211              		.loc 6 173 32 view .LVU273
 1212 01ac 4046     		mov	r0, r8
 1213 01ae 9847     		blx	r3
 1214              	.LVL78:
 1215 01b0 D8F80020 		ldr	r2, [r8]
 1216 01b4 C6E7     		b	.L46
 1217              	.LVL79:
 1218              	.L36:
 173:../../libdaisy/src/hid/disp/display.h ****         currentY_ = (y >= Height()) ? Height() - 1 : y;
 1219              		.loc 6 173 32 view .LVU274
 1220 01b6 B8F80470 		ldrh	r7, [r8, #4]
 1221 01ba BAE7     		b	.L38
 1222              	.LVL80:
 1223              	.L73:
 174:../../libdaisy/src/hid/disp/display.h ****     }
 1224              		.loc 6 174 45 view .LVU275
 1225 01bc 4046     		mov	r0, r8
 1226 01be 9847     		blx	r3
 1227              	.LVL81:
 1228 01c0 0138     		subs	r0, r0, #1
 1229 01c2 83B2     		uxth	r3, r0
 1230 01c4 0093     		str	r3, [sp]
 1231              	.LVL82:
 174:../../libdaisy/src/hid/disp/display.h ****     }
 1232              		.loc 6 174 45 view .LVU276
 1233 01c6 D6E7     		b	.L50
 1234              	.LVL83:
 1235              	.L71:
 173:../../libdaisy/src/hid/disp/display.h ****         currentY_ = (y >= Height()) ? Height() - 1 : y;
 1236              		.loc 6 173 43 view .LVU277
 1237 01c8 4046     		mov	r0, r8
 1238 01ca 9847     		blx	r3
 1239              	.LVL84:
 1240 01cc 0138     		subs	r0, r0, #1
 1241 01ce D8F80020 		ldr	r2, [r8]
 1242 01d2 87B2     		uxth	r7, r0
 1243              	.LVL85:
 173:../../libdaisy/src/hid/disp/display.h ****         currentY_ = (y >= Height()) ? Height() - 1 : y;
 1244              		.loc 6 173 43 view .LVU278
 1245 01d4 BDE7     		b	.L47
 1246              	.L75:
 1247 01d6 00BF     		.align	2
 1248              	.L74:
 1249 01d8 00000000 		.word	_ZNK5daisy11OledDisplayINS_13SSD130xDriverILj128ELj64ENS_24SSD130x4WireSpiTransportEEEE5Widt
 1250 01dc 00000000 		.word	_ZNK5daisy11OledDisplayINS_13SSD130xDriverILj128ELj64ENS_24SSD130x4WireSpiTransportEEEE6Heig
 1251              	.LBE723:
 1252              	.LBE726:
 1253              	.LBE728:
 1254              	.LBE730:
ARM GAS  /tmp/ccZhYDze.s 			page 50


 1255              		.cfi_endproc
 1256              	.LFE4554:
 1258              		.section	.text._ZN5daisy25OneBitGraphicsDisplayImplINS_11OledDisplayINS_13SSD130xDriverILj128ELj64
 1259              		.align	1
 1260              		.p2align 2,,3
 1261              		.weak	_ZN5daisy25OneBitGraphicsDisplayImplINS_11OledDisplayINS_13SSD130xDriverILj128ELj64ENS_24SSD
 1262              		.syntax unified
 1263              		.thumb
 1264              		.thumb_func
 1265              		.fpu fpv5-d16
 1267              	_ZN5daisy25OneBitGraphicsDisplayImplINS_11OledDisplayINS_13SSD130xDriverILj128ELj64ENS_24SSD130x4Wi
 1268              	.LVL86:
 1269              	.LFB4681:
 396:../../libdaisy/src/hid/disp/display.h ****     {
 1270              		.loc 6 396 10 is_stmt 1 view -0
 1271              		.cfi_startproc
 1272              		@ args = 4, pretend = 0, frame = 16
 1273              		@ frame_needed = 0, uses_anonymous_args = 0
 396:../../libdaisy/src/hid/disp/display.h ****     {
 1274              		.loc 6 396 10 is_stmt 0 view .LVU280
 1275 0000 2DE9F04F 		push	{r4, r5, r6, r7, r8, r9, r10, fp, lr}
 1276              		.cfi_def_cfa_offset 36
 1277              		.cfi_offset 4, -36
 1278              		.cfi_offset 5, -32
 1279              		.cfi_offset 6, -28
 1280              		.cfi_offset 7, -24
 1281              		.cfi_offset 8, -20
 1282              		.cfi_offset 9, -16
 1283              		.cfi_offset 10, -12
 1284              		.cfi_offset 11, -8
 1285              		.cfi_offset 14, -4
 1286 0004 85B0     		sub	sp, sp, #20
 1287              		.cfi_def_cfa_offset 56
 1288              	.LVL87:
 401:../../libdaisy/src/hid/disp/display.h ****             return 0;
 1289              		.loc 6 401 20 view .LVU281
 1290 0006 A1F12004 		sub	r4, r1, #32
 396:../../libdaisy/src/hid/disp/display.h ****     {
 1291              		.loc 6 396 10 view .LVU282
 1292 000a 0091     		str	r1, [sp]
 1293 000c 04A9     		add	r1, sp, #16
 1294              	.LVL88:
 396:../../libdaisy/src/hid/disp/display.h ****     {
 1295              		.loc 6 396 10 view .LVU283
 1296 000e 9DF83880 		ldrb	r8, [sp, #56]	@ zero_extendqisi2
 1297 0012 01E90C00 		stmdb	r1, {r2, r3}
 1298              	.LVL89:
 401:../../libdaisy/src/hid/disp/display.h ****             return 0;
 1299              		.loc 6 401 9 view .LVU284
 1300 0016 E3B2     		uxtb	r3, r4
 1301 0018 5E2B     		cmp	r3, #94
 1302 001a 00F29480 		bhi	.L80
 405:../../libdaisy/src/hid/disp/display.h ****            || Height() < (currentY_ + font.FontHeight))
 1303              		.loc 6 405 17 view .LVU285
 1304 001e 0368     		ldr	r3, [r0]
 1305 0020 8146     		mov	r9, r0
 1306 0022 5E4A     		ldr	r2, .L116
ARM GAS  /tmp/ccZhYDze.s 			page 51


 1307 0024 DB68     		ldr	r3, [r3, #12]
 1308 0026 9DF80860 		ldrb	r6, [sp, #8]	@ zero_extendqisi2
 1309 002a 9342     		cmp	r3, r2
 1310 002c 9DF80950 		ldrb	r5, [sp, #9]	@ zero_extendqisi2
 1311 0030 40F09380 		bne	.L107
 1312 0034 8022     		movs	r2, #128
 1313              	.LVL90:
 1314              	.L79:
 405:../../libdaisy/src/hid/disp/display.h ****            || Height() < (currentY_ + font.FontHeight))
 1315              		.loc 6 405 23 view .LVU286
 1316 0036 B9F80430 		ldrh	r3, [r9, #4]
 405:../../libdaisy/src/hid/disp/display.h ****            || Height() < (currentY_ + font.FontHeight))
 1317              		.loc 6 405 33 view .LVU287
 1318 003a 3344     		add	r3, r3, r6
 406:../../libdaisy/src/hid/disp/display.h ****         {
 1319              		.loc 6 406 12 view .LVU288
 1320 003c 9342     		cmp	r3, r2
 1321 003e 00F38280 		bgt	.L80
 406:../../libdaisy/src/hid/disp/display.h ****         {
 1322              		.loc 6 406 21 discriminator 2 view .LVU289
 1323 0042 D9F80030 		ldr	r3, [r9]
 1324 0046 564A     		ldr	r2, .L116+4
 1325 0048 9B68     		ldr	r3, [r3, #8]
 1326 004a 9342     		cmp	r3, r2
 1327 004c 40F08980 		bne	.L108
 406:../../libdaisy/src/hid/disp/display.h ****         {
 1328              		.loc 6 406 21 view .LVU290
 1329 0050 4023     		movs	r3, #64
 1330              	.L81:
 406:../../libdaisy/src/hid/disp/display.h ****         {
 1331              		.loc 6 406 27 discriminator 2 view .LVU291
 1332 0052 B9F80610 		ldrh	r1, [r9, #6]
 406:../../libdaisy/src/hid/disp/display.h ****         {
 1333              		.loc 6 406 37 discriminator 2 view .LVU292
 1334 0056 4A19     		adds	r2, r1, r5
 406:../../libdaisy/src/hid/disp/display.h ****         {
 1335              		.loc 6 406 27 discriminator 2 view .LVU293
 1336 0058 0191     		str	r1, [sp, #4]
 406:../../libdaisy/src/hid/disp/display.h ****         {
 1337              		.loc 6 406 12 discriminator 2 view .LVU294
 1338 005a 9A42     		cmp	r2, r3
 1339 005c 73DC     		bgt	.L80
 1340              	.LVL91:
 413:../../libdaisy/src/hid/disp/display.h ****         {
 1341              		.loc 6 413 22 is_stmt 1 view .LVU295
 1342 005e 002D     		cmp	r5, #0
 1343 0060 00F08C80 		beq	.L82
 415:../../libdaisy/src/hid/disp/display.h ****             for(j = 0; j < font.FontWidth; j++)
 1344              		.loc 6 415 37 is_stmt 0 view .LVU296
 1345 0064 05FB04F4 		mul	r4, r5, r4
 415:../../libdaisy/src/hid/disp/display.h ****             for(j = 0; j < font.FontWidth; j++)
 1346              		.loc 6 415 22 view .LVU297
 1347 0068 039A     		ldr	r2, [sp, #12]
 1348 006a 6FF00043 		mvn	r3, #-2147483648
 1349 006e B9F804A0 		ldrh	r10, [r9, #4]
 1350 0072 2544     		add	r5, r5, r4
 1351 0074 A2F1020B 		sub	fp, r2, #2
ARM GAS  /tmp/ccZhYDze.s 			page 52


 1352 0078 2344     		add	r3, r3, r4
 1353 007a 0BEB450B 		add	fp, fp, r5, lsl #1
 1354 007e 0D46     		mov	r5, r1
 1355 0080 02EB430E 		add	lr, r2, r3, lsl #1
 1356              	.LVL92:
 1357              	.L85:
 415:../../libdaisy/src/hid/disp/display.h ****             for(j = 0; j < font.FontWidth; j++)
 1358              		.loc 6 415 13 view .LVU298
 1359 0084 3EF8024F 		ldrh	r4, [lr, #2]!
 1360              	.LVL93:
 416:../../libdaisy/src/hid/disp/display.h ****             {
 1361              		.loc 6 416 26 is_stmt 1 view .LVU299
 1362 0088 A6B3     		cbz	r6, .L90
 1363              	.LBB761:
 1364              	.LBB762:
 1365              	.LBB763:
 1366              	.LBB764:
 1367              	.LBB765:
 246:../../libdaisy/src/dev/oled_ssd130x.h ****     }
 1368              		.loc 16 246 55 is_stmt 0 view .LVU300
 1369 008a 05F00703 		and	r3, r5, #7
 246:../../libdaisy/src/dev/oled_ssd130x.h ****     }
 1370              		.loc 16 246 49 view .LVU301
 1371 008e 0127     		movs	r7, #1
 246:../../libdaisy/src/dev/oled_ssd130x.h ****     }
 1372              		.loc 16 246 28 view .LVU302
 1373 0090 E808     		lsrs	r0, r5, #3
 246:../../libdaisy/src/dev/oled_ssd130x.h ****     }
 1374              		.loc 16 246 42 view .LVU303
 1375 0092 4146     		mov	r1, r8
 246:../../libdaisy/src/dev/oled_ssd130x.h ****     }
 1376              		.loc 16 246 49 view .LVU304
 1377 0094 9F40     		lsls	r7, r7, r3
 1378              	.LBE765:
 1379              	.LBE764:
 1380              	.LBE763:
 1381              	.LBE762:
 1382              	.LBE761:
 416:../../libdaisy/src/hid/disp/display.h ****             {
 1383              		.loc 6 416 19 view .LVU305
 1384 0096 0022     		movs	r2, #0
 1385 0098 0AEBC013 		add	r3, r10, r0, lsl #7
 1386              	.LBB783:
 1387              	.LBB778:
 1388              	.LBB773:
 1389              	.LBB769:
 1390              	.LBB766:
 246:../../libdaisy/src/dev/oled_ssd130x.h ****     }
 1391              		.loc 16 246 42 view .LVU306
 1392 009c 7FB2     		sxtb	r7, r7
 1393 009e 4B44     		add	r3, r3, r9
 1394 00a0 09EBC010 		add	r0, r9, r0, lsl #7
 1395 00a4 6FEA070C 		mvn	ip, r7
 1396 00a8 B846     		mov	r8, r7
 1397 00aa 0F46     		mov	r7, r1
 1398 00ac 0CE0     		b	.L91
 1399              	.LVL94:
ARM GAS  /tmp/ccZhYDze.s 			page 53


 1400              	.L110:
 246:../../libdaisy/src/dev/oled_ssd130x.h ****     }
 1401              		.loc 16 246 42 view .LVU307
 1402              	.LBE766:
 1403              	.LBE769:
 1404              	.LBE773:
 1405              	.LBE778:
 1406              	.LBE783:
 1407              	.LBB784:
 1408              	.LBI784:
  41:../../libdaisy/src/hid/disp/oled_display.h ****     {
 1409              		.loc 5 41 10 is_stmt 1 view .LVU308
 1410              	.LBB785:
 1411              	.LBI785:
 239:../../libdaisy/src/dev/oled_ssd130x.h ****     {
 1412              		.loc 16 239 10 view .LVU309
 1413              	.LBB786:
 241:../../libdaisy/src/dev/oled_ssd130x.h ****             return;
 1414              		.loc 16 241 9 is_stmt 0 view .LVU310
 1415 00ae 7F29     		cmp	r1, #127
 1416 00b0 06D8     		bhi	.L87
 1417 00b2 3F2D     		cmp	r5, #63
 1418 00b4 04D8     		bhi	.L87
 244:../../libdaisy/src/dev/oled_ssd130x.h ****         else
 1419              		.loc 16 244 42 view .LVU311
 1420 00b6 197D     		ldrb	r1, [r3, #20]	@ zero_extendqisi2
 243:../../libdaisy/src/dev/oled_ssd130x.h ****             buffer_[x + (y / 8) * width] |= (1 << (y % 8));
 1421              		.loc 16 243 9 view .LVU312
 1422 00b8 A7B1     		cbz	r7, .L89
 1423              	.L106:
 243:../../libdaisy/src/dev/oled_ssd130x.h ****             buffer_[x + (y / 8) * width] |= (1 << (y % 8));
 1424              		.loc 16 243 9 view .LVU313
 1425              	.LBE786:
 1426              	.LBE785:
 1427              	.LBE784:
 1428              	.LBB789:
 1429              	.LBB779:
 1430              	.LBB774:
 244:../../libdaisy/src/dev/oled_ssd130x.h ****         else
 1431              		.loc 16 244 42 view .LVU314
 1432 00ba 48EA0101 		orr	r1, r8, r1
 244:../../libdaisy/src/dev/oled_ssd130x.h ****         else
 1433              		.loc 16 244 13 view .LVU315
 1434 00be 1975     		strb	r1, [r3, #20]
 1435              	.L87:
 1436              	.LBE774:
 1437              	.LBE779:
 1438              	.LBE789:
 416:../../libdaisy/src/hid/disp/display.h ****             {
 1439              		.loc 6 416 13 is_stmt 1 discriminator 2 view .LVU316
 1440 00c0 0132     		adds	r2, r2, #1
 1441              	.LVL95:
 416:../../libdaisy/src/hid/disp/display.h ****             {
 1442              		.loc 6 416 26 discriminator 2 view .LVU317
 1443 00c2 0133     		adds	r3, r3, #1
 1444 00c4 9642     		cmp	r6, r2
 1445 00c6 14D0     		beq	.L109
ARM GAS  /tmp/ccZhYDze.s 			page 54


 1446              	.LVL96:
 1447              	.L91:
 418:../../libdaisy/src/hid/disp/display.h ****                 {
 1448              		.loc 6 418 23 is_stmt 0 view .LVU318
 1449 00c8 04FA02F1 		lsl	r1, r4, r2
 418:../../libdaisy/src/hid/disp/display.h ****                 {
 1450              		.loc 6 418 17 view .LVU319
 1451 00cc 11F4004F 		tst	r1, #32768
 1452              	.LBB790:
 1453              	.LBB788:
 1454              	.LBB787:
 241:../../libdaisy/src/dev/oled_ssd130x.h ****             return;
 1455              		.loc 16 241 14 view .LVU320
 1456 00d0 A3EB0001 		sub	r1, r3, r0
 1457              	.LBE787:
 1458              	.LBE788:
 1459              	.LBE790:
 418:../../libdaisy/src/hid/disp/display.h ****                 {
 1460              		.loc 6 418 17 view .LVU321
 1461 00d4 EBD1     		bne	.L110
 1462              	.LVL97:
 1463              	.LBB791:
 1464              	.LBI761:
  41:../../libdaisy/src/hid/disp/oled_display.h ****     {
 1465              		.loc 5 41 10 is_stmt 1 view .LVU322
 1466              	.LBB780:
 1467              	.LBI762:
 239:../../libdaisy/src/dev/oled_ssd130x.h ****     {
 1468              		.loc 16 239 10 view .LVU323
 1469              	.LBB775:
 241:../../libdaisy/src/dev/oled_ssd130x.h ****             return;
 1470              		.loc 16 241 9 is_stmt 0 view .LVU324
 1471 00d6 7F29     		cmp	r1, #127
 1472 00d8 F2D8     		bhi	.L87
 1473 00da 3F2D     		cmp	r5, #63
 1474 00dc F0D8     		bhi	.L87
 244:../../libdaisy/src/dev/oled_ssd130x.h ****         else
 1475              		.loc 16 244 42 view .LVU325
 1476 00de 197D     		ldrb	r1, [r3, #20]	@ zero_extendqisi2
 243:../../libdaisy/src/dev/oled_ssd130x.h ****             buffer_[x + (y / 8) * width] |= (1 << (y % 8));
 1477              		.loc 16 243 9 view .LVU326
 1478 00e0 002F     		cmp	r7, #0
 1479 00e2 EAD0     		beq	.L106
 1480              	.L89:
 1481              	.LVL98:
 1482              	.LBB770:
 1483              	.LBI764:
 239:../../libdaisy/src/dev/oled_ssd130x.h ****     {
 1484              		.loc 16 239 10 is_stmt 1 view .LVU327
 239:../../libdaisy/src/dev/oled_ssd130x.h ****     {
 1485              		.loc 16 239 10 is_stmt 0 view .LVU328
 1486              	.LBE770:
 1487              	.LBE775:
 1488              	.LBE780:
 1489              	.LBE791:
 416:../../libdaisy/src/hid/disp/display.h ****             {
 1490              		.loc 6 416 13 view .LVU329
ARM GAS  /tmp/ccZhYDze.s 			page 55


 1491 00e4 0132     		adds	r2, r2, #1
 1492              	.LVL99:
 1493              	.LBB792:
 1494              	.LBB781:
 1495              	.LBB776:
 1496              	.LBB771:
 1497              	.LBB767:
 246:../../libdaisy/src/dev/oled_ssd130x.h ****     }
 1498              		.loc 16 246 42 view .LVU330
 1499 00e6 0CEA0101 		and	r1, ip, r1
 1500 00ea 0133     		adds	r3, r3, #1
 1501              	.LBE767:
 1502              	.LBE771:
 1503              	.LBE776:
 1504              	.LBE781:
 1505              	.LBE792:
 416:../../libdaisy/src/hid/disp/display.h ****             {
 1506              		.loc 6 416 26 view .LVU331
 1507 00ec 9642     		cmp	r6, r2
 1508              	.LBB793:
 1509              	.LBB782:
 1510              	.LBB777:
 1511              	.LBB772:
 1512              	.LBB768:
 246:../../libdaisy/src/dev/oled_ssd130x.h ****     }
 1513              		.loc 16 246 13 view .LVU332
 1514 00ee D974     		strb	r1, [r3, #19]
 246:../../libdaisy/src/dev/oled_ssd130x.h ****     }
 1515              		.loc 16 246 13 view .LVU333
 1516              	.LBE768:
 1517              	.LBE772:
 1518              	.LBE777:
 1519              	.LBE782:
 1520              	.LBE793:
 416:../../libdaisy/src/hid/disp/display.h ****             {
 1521              		.loc 6 416 13 is_stmt 1 view .LVU334
 1522              	.LVL100:
 416:../../libdaisy/src/hid/disp/display.h ****             {
 1523              		.loc 6 416 26 view .LVU335
 1524 00f0 EAD1     		bne	.L91
 1525              	.L109:
 416:../../libdaisy/src/hid/disp/display.h ****             {
 1526              		.loc 6 416 26 is_stmt 0 view .LVU336
 1527 00f2 B846     		mov	r8, r7
 1528              	.LVL101:
 1529              	.L90:
 413:../../libdaisy/src/hid/disp/display.h ****         {
 1530              		.loc 6 413 9 is_stmt 1 view .LVU337
 413:../../libdaisy/src/hid/disp/display.h ****         {
 1531              		.loc 6 413 22 view .LVU338
 1532 00f4 F345     		cmp	fp, lr
 1533 00f6 05F10105 		add	r5, r5, #1
 1534 00fa C3D1     		bne	.L85
 1535              	.LVL102:
 1536              	.L84:
 1537              	.LBB794:
 1538              	.LBB795:
ARM GAS  /tmp/ccZhYDze.s 			page 56


 173:../../libdaisy/src/hid/disp/display.h ****         currentY_ = (y >= Height()) ? Height() - 1 : y;
 1539              		.loc 6 173 33 is_stmt 0 view .LVU339
 1540 00fc D9F80030 		ldr	r3, [r9]
 1541              	.LBE795:
 1542              	.LBE794:
 434:../../libdaisy/src/hid/disp/display.h **** 
 1543              		.loc 6 434 18 view .LVU340
 1544 0100 0AEB0604 		add	r4, r10, r6
 1545 0104 2549     		ldr	r1, .L116
 1546              	.LBB800:
 1547              	.LBB796:
 173:../../libdaisy/src/hid/disp/display.h ****         currentY_ = (y >= Height()) ? Height() - 1 : y;
 1548              		.loc 6 173 33 view .LVU341
 1549 0106 DA68     		ldr	r2, [r3, #12]
 1550              	.LBE796:
 1551              	.LBE800:
 434:../../libdaisy/src/hid/disp/display.h **** 
 1552              		.loc 6 434 18 view .LVU342
 1553 0108 A4B2     		uxth	r4, r4
 1554              	.LVL103:
 1555              	.LBB801:
 1556              	.LBI794:
 171:../../libdaisy/src/hid/disp/display.h ****     {
 1557              		.loc 6 171 10 is_stmt 1 view .LVU343
 1558              	.LBB797:
 173:../../libdaisy/src/hid/disp/display.h ****         currentY_ = (y >= Height()) ? Height() - 1 : y;
 1559              		.loc 6 173 9 view .LVU344
 1560 010a 8A42     		cmp	r2, r1
 1561 010c 31D1     		bne	.L111
 173:../../libdaisy/src/hid/disp/display.h ****         currentY_ = (y >= Height()) ? Height() - 1 : y;
 1562              		.loc 6 173 33 is_stmt 0 view .LVU345
 1563 010e 8020     		movs	r0, #128
 1564              	.L92:
 173:../../libdaisy/src/hid/disp/display.h ****         currentY_ = (y >= Height()) ? Height() - 1 : y;
 1565              		.loc 6 173 19 view .LVU346
 1566 0110 8442     		cmp	r4, r0
 1567 0112 1CD2     		bcs	.L112
 1568              	.LVL104:
 1569              	.L93:
 174:../../libdaisy/src/hid/disp/display.h ****     }
 1570              		.loc 6 174 34 view .LVU347
 1571 0114 9B68     		ldr	r3, [r3, #8]
 1572 0116 224A     		ldr	r2, .L116+4
 173:../../libdaisy/src/hid/disp/display.h ****         currentY_ = (y >= Height()) ? Height() - 1 : y;
 1573              		.loc 6 173 19 view .LVU348
 1574 0118 A9F80440 		strh	r4, [r9, #4]	@ movhi
 174:../../libdaisy/src/hid/disp/display.h ****     }
 1575              		.loc 6 174 9 is_stmt 1 view .LVU349
 1576 011c 9342     		cmp	r3, r2
 1577 011e 25D1     		bne	.L113
 174:../../libdaisy/src/hid/disp/display.h ****     }
 1578              		.loc 6 174 34 is_stmt 0 view .LVU350
 1579 0120 4020     		movs	r0, #64
 1580              	.L95:
 174:../../libdaisy/src/hid/disp/display.h ****     }
 1581              		.loc 6 174 19 view .LVU351
 1582 0122 019B     		ldr	r3, [sp, #4]
ARM GAS  /tmp/ccZhYDze.s 			page 57


 1583 0124 8342     		cmp	r3, r0
 1584 0126 07D3     		bcc	.L96
 174:../../libdaisy/src/hid/disp/display.h ****     }
 1585              		.loc 6 174 46 view .LVU352
 1586 0128 D9F80030 		ldr	r3, [r9]
 1587 012c 1C4A     		ldr	r2, .L116+4
 1588 012e 9B68     		ldr	r3, [r3, #8]
 1589 0130 9342     		cmp	r3, r2
 1590 0132 2DD1     		bne	.L114
 1591 0134 3F23     		movs	r3, #63
 1592 0136 0193     		str	r3, [sp, #4]
 1593              	.LVL105:
 1594              	.L96:
 174:../../libdaisy/src/hid/disp/display.h ****     }
 1595              		.loc 6 174 19 view .LVU353
 1596 0138 DDE90003 		ldrd	r0, r3, [sp]
 1597 013c A9F80630 		strh	r3, [r9, #6]	@ movhi
 1598              	.LVL106:
 174:../../libdaisy/src/hid/disp/display.h ****     }
 1599              		.loc 6 174 19 view .LVU354
 1600              	.LBE797:
 1601              	.LBE801:
 438:../../libdaisy/src/hid/disp/display.h **** 
 1602              		.loc 6 438 5 view .LVU355
 1603 0140 05B0     		add	sp, sp, #20
 1604              		.cfi_remember_state
 1605              		.cfi_def_cfa_offset 36
 1606              		@ sp needed
 1607 0142 BDE8F08F 		pop	{r4, r5, r6, r7, r8, r9, r10, fp, pc}
 1608              	.LVL107:
 1609              	.L80:
 1610              		.cfi_restore_state
 402:../../libdaisy/src/hid/disp/display.h **** 
 1611              		.loc 6 402 20 view .LVU356
 1612 0146 0020     		movs	r0, #0
 438:../../libdaisy/src/hid/disp/display.h **** 
 1613              		.loc 6 438 5 view .LVU357
 1614 0148 05B0     		add	sp, sp, #20
 1615              		.cfi_remember_state
 1616              		.cfi_def_cfa_offset 36
 1617              		@ sp needed
 1618 014a BDE8F08F 		pop	{r4, r5, r6, r7, r8, r9, r10, fp, pc}
 1619              	.LVL108:
 1620              	.L112:
 1621              		.cfi_restore_state
 1622              	.LBB802:
 1623              	.LBB798:
 173:../../libdaisy/src/hid/disp/display.h ****         currentY_ = (y >= Height()) ? Height() - 1 : y;
 1624              		.loc 6 173 44 view .LVU358
 1625 014e DA68     		ldr	r2, [r3, #12]
 1626 0150 1249     		ldr	r1, .L116
 1627 0152 8A42     		cmp	r2, r1
 1628 0154 15D1     		bne	.L115
 1629 0156 7F24     		movs	r4, #127
 1630              	.LVL109:
 173:../../libdaisy/src/hid/disp/display.h ****         currentY_ = (y >= Height()) ? Height() - 1 : y;
 1631              		.loc 6 173 44 view .LVU359
ARM GAS  /tmp/ccZhYDze.s 			page 58


 1632 0158 DCE7     		b	.L93
 1633              	.LVL110:
 1634              	.L107:
 173:../../libdaisy/src/hid/disp/display.h ****         currentY_ = (y >= Height()) ? Height() - 1 : y;
 1635              		.loc 6 173 44 view .LVU360
 1636              	.LBE798:
 1637              	.LBE802:
 405:../../libdaisy/src/hid/disp/display.h ****            || Height() < (currentY_ + font.FontHeight))
 1638              		.loc 6 405 17 view .LVU361
 1639 015a 9847     		blx	r3
 1640              	.LVL111:
 405:../../libdaisy/src/hid/disp/display.h ****            || Height() < (currentY_ + font.FontHeight))
 1641              		.loc 6 405 17 view .LVU362
 1642 015c 0246     		mov	r2, r0
 1643 015e 0190     		str	r0, [sp, #4]
 1644 0160 69E7     		b	.L79
 1645              	.L108:
 406:../../libdaisy/src/hid/disp/display.h ****         {
 1646              		.loc 6 406 21 discriminator 2 view .LVU363
 1647 0162 4846     		mov	r0, r9
 1648 0164 9847     		blx	r3
 1649              	.LVL112:
 1650 0166 0346     		mov	r3, r0
 1651 0168 0190     		str	r0, [sp, #4]
 1652 016a 72E7     		b	.L81
 1653              	.LVL113:
 1654              	.L113:
 1655              	.LBB803:
 1656              	.LBB799:
 174:../../libdaisy/src/hid/disp/display.h ****     }
 1657              		.loc 6 174 33 view .LVU364
 1658 016c 4846     		mov	r0, r9
 1659 016e 9847     		blx	r3
 1660              	.LVL114:
 1661 0170 D7E7     		b	.L95
 1662              	.LVL115:
 1663              	.L111:
 173:../../libdaisy/src/hid/disp/display.h ****         currentY_ = (y >= Height()) ? Height() - 1 : y;
 1664              		.loc 6 173 32 view .LVU365
 1665 0172 4846     		mov	r0, r9
 1666 0174 9047     		blx	r2
 1667              	.LVL116:
 1668 0176 D9F80030 		ldr	r3, [r9]
 1669 017a C9E7     		b	.L92
 1670              	.LVL117:
 1671              	.L82:
 173:../../libdaisy/src/hid/disp/display.h ****         currentY_ = (y >= Height()) ? Height() - 1 : y;
 1672              		.loc 6 173 32 view .LVU366
 1673 017c B9F804A0 		ldrh	r10, [r9, #4]
 1674 0180 BCE7     		b	.L84
 1675              	.LVL118:
 1676              	.L115:
 173:../../libdaisy/src/hid/disp/display.h ****         currentY_ = (y >= Height()) ? Height() - 1 : y;
 1677              		.loc 6 173 43 view .LVU367
 1678 0182 4846     		mov	r0, r9
 1679 0184 9047     		blx	r2
 1680              	.LVL119:
ARM GAS  /tmp/ccZhYDze.s 			page 59


 1681 0186 0138     		subs	r0, r0, #1
 1682 0188 D9F80030 		ldr	r3, [r9]
 1683 018c 84B2     		uxth	r4, r0
 1684              	.LVL120:
 173:../../libdaisy/src/hid/disp/display.h ****         currentY_ = (y >= Height()) ? Height() - 1 : y;
 1685              		.loc 6 173 43 view .LVU368
 1686 018e C1E7     		b	.L93
 1687              	.L114:
 174:../../libdaisy/src/hid/disp/display.h ****     }
 1688              		.loc 6 174 45 view .LVU369
 1689 0190 4846     		mov	r0, r9
 1690 0192 9847     		blx	r3
 1691              	.LVL121:
 1692 0194 0138     		subs	r0, r0, #1
 1693 0196 83B2     		uxth	r3, r0
 1694 0198 0193     		str	r3, [sp, #4]
 1695              	.LVL122:
 174:../../libdaisy/src/hid/disp/display.h ****     }
 1696              		.loc 6 174 45 view .LVU370
 1697 019a CDE7     		b	.L96
 1698              	.L117:
 1699              		.align	2
 1700              	.L116:
 1701 019c 00000000 		.word	_ZNK5daisy11OledDisplayINS_13SSD130xDriverILj128ELj64ENS_24SSD130x4WireSpiTransportEEEE5Widt
 1702 01a0 00000000 		.word	_ZNK5daisy11OledDisplayINS_13SSD130xDriverILj128ELj64ENS_24SSD130x4WireSpiTransportEEEE6Heig
 1703              	.LBE799:
 1704              	.LBE803:
 1705              		.cfi_endproc
 1706              	.LFE4681:
 1708              		.section	.text._ZN5daisy25OneBitGraphicsDisplayImplINS_11OledDisplayINS_13SSD130xDriverILj128ELj64
 1709              		.align	1
 1710              		.p2align 2,,3
 1711              		.weak	_ZN5daisy25OneBitGraphicsDisplayImplINS_11OledDisplayINS_13SSD130xDriverILj128ELj64ENS_24SSD
 1712              		.syntax unified
 1713              		.thumb
 1714              		.thumb_func
 1715              		.fpu fpv5-d16
 1717              	_ZN5daisy25OneBitGraphicsDisplayImplINS_11OledDisplayINS_13SSD130xDriverILj128ELj64ENS_24SSD130x4Wi
 1718              	.LVL123:
 1719              	.LFB4827:
 459:../../libdaisy/src/hid/disp/display.h **** 
 460:../../libdaisy/src/hid/disp/display.h ****     Rectangle WriteStringAligned(const char*    str,
 1720              		.loc 6 460 15 is_stmt 1 view -0
 1721              		.cfi_startproc
 1722              		@ args = 12, pretend = 0, frame = 40
 1723              		@ frame_needed = 0, uses_anonymous_args = 0
 1724              		.loc 6 460 15 is_stmt 0 view .LVU372
 1725 0000 2DE9F04F 		push	{r4, r5, r6, r7, r8, r9, r10, fp, lr}
 1726              		.cfi_def_cfa_offset 36
 1727              		.cfi_offset 4, -36
 1728              		.cfi_offset 5, -32
 1729              		.cfi_offset 6, -28
 1730              		.cfi_offset 7, -24
 1731              		.cfi_offset 8, -20
 1732              		.cfi_offset 9, -16
 1733              		.cfi_offset 10, -12
 1734              		.cfi_offset 11, -8
ARM GAS  /tmp/ccZhYDze.s 			page 60


 1735              		.cfi_offset 14, -4
 1736 0004 0C46     		mov	r4, r1
 1737 0006 8BB0     		sub	sp, sp, #44
 1738              		.cfi_def_cfa_offset 80
 1739              	.LBB938:
 1740              	.LBB939:
 1741              	.LBB940:
 1742              	.LBB941:
 461:../../libdaisy/src/hid/disp/display.h ****                                  const FontDef& font,
 462:../../libdaisy/src/hid/disp/display.h ****                                  Rectangle      boundingBox,
 463:../../libdaisy/src/hid/disp/display.h ****                                  Alignment      alignment,
 464:../../libdaisy/src/hid/disp/display.h ****                                  bool           on) override
 465:../../libdaisy/src/hid/disp/display.h ****     {
 466:../../libdaisy/src/hid/disp/display.h ****         const auto alignedRect
 467:../../libdaisy/src/hid/disp/display.h ****             = GetTextRect(str, font).AlignedWithin(boundingBox, alignment);
 468:../../libdaisy/src/hid/disp/display.h ****         SetCursor(alignedRect.GetX(), alignedRect.GetY());
 469:../../libdaisy/src/hid/disp/display.h ****         ((ChildType*)(this))->ChildType::WriteString(str, font, on);
 470:../../libdaisy/src/hid/disp/display.h ****         return alignedRect;
 471:../../libdaisy/src/hid/disp/display.h ****     }
 472:../../libdaisy/src/hid/disp/display.h **** 
 473:../../libdaisy/src/hid/disp/display.h ****   private:
 474:../../libdaisy/src/hid/disp/display.h ****     uint32_t strlen(const char* string)
 475:../../libdaisy/src/hid/disp/display.h ****     {
 476:../../libdaisy/src/hid/disp/display.h ****         uint32_t result = 0;
 477:../../libdaisy/src/hid/disp/display.h ****         while(*string++ != '\0')
 1743              		.loc 6 477 25 view .LVU373
 1744 0008 1146     		mov	r1, r2
 1745              	.LVL124:
 1746              		.loc 6 477 25 view .LVU374
 1747              	.LBE941:
 1748              	.LBE940:
 1749              	.LBE939:
 1750              	.LBE938:
 460:../../libdaisy/src/hid/disp/display.h ****                                  const FontDef& font,
 1751              		.loc 6 460 15 view .LVU375
 1752 000a 9046     		mov	r8, r2
 1753 000c 0990     		str	r0, [sp, #36]
 1754 000e 1D46     		mov	r5, r3
 1755              	.LVL125:
 1756              	.LBB956:
 1757              	.LBI938:
 478:../../libdaisy/src/hid/disp/display.h ****             result++;
 479:../../libdaisy/src/hid/disp/display.h ****         return result;
 480:../../libdaisy/src/hid/disp/display.h ****     }
 481:../../libdaisy/src/hid/disp/display.h **** 
 482:../../libdaisy/src/hid/disp/display.h ****     Rectangle GetTextRect(const char* text, const FontDef& font)
 1758              		.loc 6 482 15 is_stmt 1 view .LVU376
 1759              	.LBB952:
 1760              	.LBB945:
 1761              	.LBB942:
 477:../../libdaisy/src/hid/disp/display.h ****             result++;
 1762              		.loc 6 477 25 view .LVU377
 477:../../libdaisy/src/hid/disp/display.h ****             result++;
 1763              		.loc 6 477 25 is_stmt 0 view .LVU378
 1764              	.LBE942:
 1765              	.LBE945:
 1766              	.LBE952:
ARM GAS  /tmp/ccZhYDze.s 			page 61


 1767              	.LBE956:
 460:../../libdaisy/src/hid/disp/display.h ****                                  const FontDef& font,
 1768              		.loc 6 460 15 view .LVU379
 1769 0010 9DF85800 		ldrb	r0, [sp, #88]	@ zero_extendqisi2
 1770              	.LVL126:
 1771              	.LBB957:
 1772              	.LBB953:
 1773              	.LBB946:
 1774              	.LBB943:
 477:../../libdaisy/src/hid/disp/display.h ****             result++;
 1775              		.loc 6 477 25 view .LVU380
 1776 0014 11F8012B 		ldrb	r2, [r1], #1	@ zero_extendqisi2
 1777              	.LVL127:
 477:../../libdaisy/src/hid/disp/display.h ****             result++;
 1778              		.loc 6 477 25 view .LVU381
 1779              	.LBE943:
 1780              	.LBE946:
 1781              	.LBE953:
 1782              	.LBE957:
 460:../../libdaisy/src/hid/disp/display.h ****                                  const FontDef& font,
 1783              		.loc 6 460 15 view .LVU382
 1784 0018 0890     		str	r0, [sp, #32]
 1785 001a DDE91463 		ldrd	r6, r3, [sp, #80]
 1786              	.LVL128:
 1787              	.LBB958:
 1788              	.LBB954:
 1789              	.LBB947:
 1790              	.LBB944:
 477:../../libdaisy/src/hid/disp/display.h ****             result++;
 1791              		.loc 6 477 25 view .LVU383
 1792 001e 32B1     		cbz	r2, .L119
 476:../../libdaisy/src/hid/disp/display.h ****         while(*string++ != '\0')
 1793              		.loc 6 476 18 view .LVU384
 1794 0020 0022     		movs	r2, #0
 1795              	.LVL129:
 1796              	.L120:
 477:../../libdaisy/src/hid/disp/display.h ****             result++;
 1797              		.loc 6 477 25 view .LVU385
 1798 0022 11F8010B 		ldrb	r0, [r1], #1	@ zero_extendqisi2
 1799              	.LVL130:
 478:../../libdaisy/src/hid/disp/display.h ****             result++;
 1800              		.loc 6 478 13 view .LVU386
 1801 0026 0132     		adds	r2, r2, #1
 1802              	.LVL131:
 477:../../libdaisy/src/hid/disp/display.h ****             result++;
 1803              		.loc 6 477 25 is_stmt 1 view .LVU387
 1804 0028 0028     		cmp	r0, #0
 1805 002a FAD1     		bne	.L120
 1806 002c 92B2     		uxth	r2, r2
 1807              	.LVL132:
 1808              	.L119:
 477:../../libdaisy/src/hid/disp/display.h ****             result++;
 1809              		.loc 6 477 25 is_stmt 0 view .LVU388
 1810              	.LBE944:
 1811              	.LBE947:
 483:../../libdaisy/src/hid/disp/display.h ****     {
 484:../../libdaisy/src/hid/disp/display.h ****         const auto numChars = strlen(text);
ARM GAS  /tmp/ccZhYDze.s 			page 62


 485:../../libdaisy/src/hid/disp/display.h ****         return {int16_t(numChars * font.FontWidth), font.FontHeight};
 1812              		.loc 6 485 68 view .LVU389
 1813 002e 2978     		ldrb	r1, [r5]	@ zero_extendqisi2
 1814              		.loc 6 485 58 view .LVU390
 1815 0030 6878     		ldrb	r0, [r5, #1]	@ zero_extendqisi2
 1816              		.loc 6 485 68 view .LVU391
 1817 0032 11FB02F2 		smulbb	r2, r1, r2
 1818 0036 01B2     		sxth	r1, r0
 1819              	.LVL133:
 1820              	.LBB948:
 1821              	.LBI948:
 1822              		.file 17 "../../libdaisy/src/hid/disp/graphics_common.h"
   1:../../libdaisy/src/hid/disp/graphics_common.h **** #pragma once
   2:../../libdaisy/src/hid/disp/graphics_common.h **** 
   3:../../libdaisy/src/hid/disp/graphics_common.h **** #include <cstdint>
   4:../../libdaisy/src/hid/disp/graphics_common.h **** 
   5:../../libdaisy/src/hid/disp/graphics_common.h **** namespace daisy
   6:../../libdaisy/src/hid/disp/graphics_common.h **** {
   7:../../libdaisy/src/hid/disp/graphics_common.h **** /** Justifications */
   8:../../libdaisy/src/hid/disp/graphics_common.h **** enum class Alignment
   9:../../libdaisy/src/hid/disp/graphics_common.h **** {
  10:../../libdaisy/src/hid/disp/graphics_common.h ****     centered,
  11:../../libdaisy/src/hid/disp/graphics_common.h ****     topLeft,
  12:../../libdaisy/src/hid/disp/graphics_common.h ****     topCentered,
  13:../../libdaisy/src/hid/disp/graphics_common.h ****     topRight,
  14:../../libdaisy/src/hid/disp/graphics_common.h ****     bottomLeft,
  15:../../libdaisy/src/hid/disp/graphics_common.h ****     bottomCentered,
  16:../../libdaisy/src/hid/disp/graphics_common.h ****     bottomRight,
  17:../../libdaisy/src/hid/disp/graphics_common.h ****     centeredLeft,
  18:../../libdaisy/src/hid/disp/graphics_common.h ****     centeredRight
  19:../../libdaisy/src/hid/disp/graphics_common.h **** };
  20:../../libdaisy/src/hid/disp/graphics_common.h **** 
  21:../../libdaisy/src/hid/disp/graphics_common.h **** class Rectangle
  22:../../libdaisy/src/hid/disp/graphics_common.h **** {
  23:../../libdaisy/src/hid/disp/graphics_common.h ****   public:
  24:../../libdaisy/src/hid/disp/graphics_common.h ****     Rectangle() : x_(0), y_(0), width_(0), height_(0) {}
  25:../../libdaisy/src/hid/disp/graphics_common.h **** 
  26:../../libdaisy/src/hid/disp/graphics_common.h ****     Rectangle(int16_t width, int16_t height)
 1823              		.loc 17 26 5 is_stmt 1 view .LVU392
 1824              	.LBB949:
 1825              	.LBI949:
  27:../../libdaisy/src/hid/disp/graphics_common.h ****     : x_(0), y_(0), width_(max(0, width)), height_(max(0, height))
  28:../../libdaisy/src/hid/disp/graphics_common.h ****     {
  29:../../libdaisy/src/hid/disp/graphics_common.h ****     }
  30:../../libdaisy/src/hid/disp/graphics_common.h **** 
  31:../../libdaisy/src/hid/disp/graphics_common.h ****     Rectangle(int16_t x, int16_t y, int16_t width, int16_t height)
  32:../../libdaisy/src/hid/disp/graphics_common.h ****     : x_(x), y_(y), width_(max(0, width)), height_(max(0, height))
  33:../../libdaisy/src/hid/disp/graphics_common.h ****     {
  34:../../libdaisy/src/hid/disp/graphics_common.h ****     }
  35:../../libdaisy/src/hid/disp/graphics_common.h **** 
  36:../../libdaisy/src/hid/disp/graphics_common.h ****     Rectangle(const Rectangle& other) { *this = other; }
  37:../../libdaisy/src/hid/disp/graphics_common.h **** 
  38:../../libdaisy/src/hid/disp/graphics_common.h ****     Rectangle& operator=(const Rectangle& other)
  39:../../libdaisy/src/hid/disp/graphics_common.h ****     {
  40:../../libdaisy/src/hid/disp/graphics_common.h ****         x_      = other.x_;
  41:../../libdaisy/src/hid/disp/graphics_common.h ****         y_      = other.y_;
  42:../../libdaisy/src/hid/disp/graphics_common.h ****         width_  = other.width_;
ARM GAS  /tmp/ccZhYDze.s 			page 63


  43:../../libdaisy/src/hid/disp/graphics_common.h ****         height_ = other.height_;
  44:../../libdaisy/src/hid/disp/graphics_common.h ****         return *this;
  45:../../libdaisy/src/hid/disp/graphics_common.h ****     }
  46:../../libdaisy/src/hid/disp/graphics_common.h **** 
  47:../../libdaisy/src/hid/disp/graphics_common.h ****     bool operator==(const Rectangle& other) const
  48:../../libdaisy/src/hid/disp/graphics_common.h ****     {
  49:../../libdaisy/src/hid/disp/graphics_common.h ****         return (x_ == other.x_) && (y_ == other.y_) && (width_ == other.width_)
  50:../../libdaisy/src/hid/disp/graphics_common.h ****                && (height_ == other.height_);
  51:../../libdaisy/src/hid/disp/graphics_common.h ****     }
  52:../../libdaisy/src/hid/disp/graphics_common.h ****     bool operator!=(const Rectangle& other) const { return !(*this == other); }
  53:../../libdaisy/src/hid/disp/graphics_common.h **** 
  54:../../libdaisy/src/hid/disp/graphics_common.h ****     bool IsEmpty() const { return (width_ <= 0) || (height_ <= 0); }
  55:../../libdaisy/src/hid/disp/graphics_common.h **** 
  56:../../libdaisy/src/hid/disp/graphics_common.h ****     int16_t GetX() const { return x_; }
  57:../../libdaisy/src/hid/disp/graphics_common.h ****     int16_t GetY() const { return y_; }
  58:../../libdaisy/src/hid/disp/graphics_common.h ****     int16_t GetWidth() const { return width_; }
  59:../../libdaisy/src/hid/disp/graphics_common.h ****     int16_t GetHeight() const { return height_; }
  60:../../libdaisy/src/hid/disp/graphics_common.h ****     int16_t GetRight() const { return x_ + width_; }
  61:../../libdaisy/src/hid/disp/graphics_common.h ****     int16_t GetBottom() const { return y_ + height_; }
  62:../../libdaisy/src/hid/disp/graphics_common.h ****     int16_t GetCenterX() const { return x_ + width_ / 2; }
  63:../../libdaisy/src/hid/disp/graphics_common.h ****     int16_t GetCenterY() const { return y_ + height_ / 2; }
  64:../../libdaisy/src/hid/disp/graphics_common.h **** 
  65:../../libdaisy/src/hid/disp/graphics_common.h ****     Rectangle WithX(int16_t x) const { return {x, y_, width_, height_}; }
  66:../../libdaisy/src/hid/disp/graphics_common.h ****     Rectangle WithY(int16_t y) const { return {x_, y, width_, height_}; }
  67:../../libdaisy/src/hid/disp/graphics_common.h ****     Rectangle WithWidth(int16_t width) const
  68:../../libdaisy/src/hid/disp/graphics_common.h ****     {
  69:../../libdaisy/src/hid/disp/graphics_common.h ****         return {x_, y_, width, height_};
  70:../../libdaisy/src/hid/disp/graphics_common.h ****     }
  71:../../libdaisy/src/hid/disp/graphics_common.h ****     Rectangle WithHeight(int16_t height) const
  72:../../libdaisy/src/hid/disp/graphics_common.h ****     {
  73:../../libdaisy/src/hid/disp/graphics_common.h ****         return {x_, y_, width_, height};
  74:../../libdaisy/src/hid/disp/graphics_common.h ****     }
  75:../../libdaisy/src/hid/disp/graphics_common.h ****     Rectangle WithSize(int16_t width, int16_t height) const
  76:../../libdaisy/src/hid/disp/graphics_common.h ****     {
  77:../../libdaisy/src/hid/disp/graphics_common.h ****         return {x_, y_, width, height};
  78:../../libdaisy/src/hid/disp/graphics_common.h ****     }
  79:../../libdaisy/src/hid/disp/graphics_common.h ****     Rectangle WithWidthKeepingCenter(int16_t width) const
  80:../../libdaisy/src/hid/disp/graphics_common.h ****     {
  81:../../libdaisy/src/hid/disp/graphics_common.h ****         return Rectangle(x_, y_, width, height_)
  82:../../libdaisy/src/hid/disp/graphics_common.h ****             .WithCenter(GetCenterX(), GetCenterY());
  83:../../libdaisy/src/hid/disp/graphics_common.h ****     }
  84:../../libdaisy/src/hid/disp/graphics_common.h ****     Rectangle WithHeightKeepingCenter(int16_t height) const
  85:../../libdaisy/src/hid/disp/graphics_common.h ****     {
  86:../../libdaisy/src/hid/disp/graphics_common.h ****         return Rectangle(x_, y_, width_, height)
  87:../../libdaisy/src/hid/disp/graphics_common.h ****             .WithCenter(GetCenterX(), GetCenterY());
  88:../../libdaisy/src/hid/disp/graphics_common.h ****     }
  89:../../libdaisy/src/hid/disp/graphics_common.h ****     Rectangle WithSizeKeepingCenter(int16_t width, int16_t height) const
  90:../../libdaisy/src/hid/disp/graphics_common.h ****     {
  91:../../libdaisy/src/hid/disp/graphics_common.h ****         return Rectangle(x_, y_, width, height)
  92:../../libdaisy/src/hid/disp/graphics_common.h ****             .WithCenter(GetCenterX(), GetCenterY());
  93:../../libdaisy/src/hid/disp/graphics_common.h ****     }
  94:../../libdaisy/src/hid/disp/graphics_common.h **** 
  95:../../libdaisy/src/hid/disp/graphics_common.h ****     Rectangle Reduced(int16_t sizeToReduce) const
  96:../../libdaisy/src/hid/disp/graphics_common.h ****     {
  97:../../libdaisy/src/hid/disp/graphics_common.h ****         return {int16_t(x_ + sizeToReduce),
  98:../../libdaisy/src/hid/disp/graphics_common.h ****                 int16_t(y_ + sizeToReduce),
  99:../../libdaisy/src/hid/disp/graphics_common.h ****                 int16_t(width_ - 2 * sizeToReduce),
ARM GAS  /tmp/ccZhYDze.s 			page 64


 100:../../libdaisy/src/hid/disp/graphics_common.h ****                 int16_t(height_ - 2 * sizeToReduce)};
 101:../../libdaisy/src/hid/disp/graphics_common.h ****     }
 102:../../libdaisy/src/hid/disp/graphics_common.h ****     Rectangle Reduced(int16_t xToReduce, int16_t yToReduce) const
 103:../../libdaisy/src/hid/disp/graphics_common.h ****     {
 104:../../libdaisy/src/hid/disp/graphics_common.h ****         return {int16_t(x_ + xToReduce),
 105:../../libdaisy/src/hid/disp/graphics_common.h ****                 int16_t(y_ + yToReduce),
 106:../../libdaisy/src/hid/disp/graphics_common.h ****                 int16_t(width_ - 2 * xToReduce),
 107:../../libdaisy/src/hid/disp/graphics_common.h ****                 int16_t(height_ - 2 * yToReduce)};
 108:../../libdaisy/src/hid/disp/graphics_common.h ****     }
 109:../../libdaisy/src/hid/disp/graphics_common.h **** 
 110:../../libdaisy/src/hid/disp/graphics_common.h ****     Rectangle Translated(int16_t x, int16_t y) const
 111:../../libdaisy/src/hid/disp/graphics_common.h ****     {
 112:../../libdaisy/src/hid/disp/graphics_common.h ****         return {int16_t(x_ + x), int16_t(y_ + y), width_, height_};
 113:../../libdaisy/src/hid/disp/graphics_common.h ****     }
 114:../../libdaisy/src/hid/disp/graphics_common.h **** 
 115:../../libdaisy/src/hid/disp/graphics_common.h ****     Rectangle WithLeft(int16_t left) const
 116:../../libdaisy/src/hid/disp/graphics_common.h ****     {
 117:../../libdaisy/src/hid/disp/graphics_common.h ****         const auto newWidth = int16_t((x_ - left) + width_);
 118:../../libdaisy/src/hid/disp/graphics_common.h ****         return {left, y_, newWidth, height_};
 119:../../libdaisy/src/hid/disp/graphics_common.h ****     }
 120:../../libdaisy/src/hid/disp/graphics_common.h **** 
 121:../../libdaisy/src/hid/disp/graphics_common.h ****     Rectangle WithRight(int16_t right) const
 122:../../libdaisy/src/hid/disp/graphics_common.h ****     {
 123:../../libdaisy/src/hid/disp/graphics_common.h ****         const auto newWidth = int16_t(right - x_);
 124:../../libdaisy/src/hid/disp/graphics_common.h ****         return {x_, y_, newWidth, height_};
 125:../../libdaisy/src/hid/disp/graphics_common.h ****     }
 126:../../libdaisy/src/hid/disp/graphics_common.h **** 
 127:../../libdaisy/src/hid/disp/graphics_common.h ****     Rectangle WithTop(int16_t top) const
 128:../../libdaisy/src/hid/disp/graphics_common.h ****     {
 129:../../libdaisy/src/hid/disp/graphics_common.h ****         const auto newHeight = int16_t((y_ - top) + height_);
 130:../../libdaisy/src/hid/disp/graphics_common.h ****         return {x_, top, width_, newHeight};
 131:../../libdaisy/src/hid/disp/graphics_common.h ****     }
 132:../../libdaisy/src/hid/disp/graphics_common.h **** 
 133:../../libdaisy/src/hid/disp/graphics_common.h ****     Rectangle WithBottom(int16_t bottom) const
 134:../../libdaisy/src/hid/disp/graphics_common.h ****     {
 135:../../libdaisy/src/hid/disp/graphics_common.h ****         const auto newHeight = int16_t(bottom - y_);
 136:../../libdaisy/src/hid/disp/graphics_common.h ****         return {x_, y_, width_, newHeight};
 137:../../libdaisy/src/hid/disp/graphics_common.h ****     }
 138:../../libdaisy/src/hid/disp/graphics_common.h **** 
 139:../../libdaisy/src/hid/disp/graphics_common.h ****     Rectangle WithTrimmedLeft(int16_t pxToTrim) const
 140:../../libdaisy/src/hid/disp/graphics_common.h ****     {
 141:../../libdaisy/src/hid/disp/graphics_common.h ****         return {
 142:../../libdaisy/src/hid/disp/graphics_common.h ****             int16_t(x_ + pxToTrim), y_, int16_t(width_ - pxToTrim), height_};
 143:../../libdaisy/src/hid/disp/graphics_common.h ****     }
 144:../../libdaisy/src/hid/disp/graphics_common.h **** 
 145:../../libdaisy/src/hid/disp/graphics_common.h ****     Rectangle WithTrimmedRight(int16_t pxToTrim) const
 146:../../libdaisy/src/hid/disp/graphics_common.h ****     {
 147:../../libdaisy/src/hid/disp/graphics_common.h ****         return {x_, y_, int16_t(width_ - pxToTrim), height_};
 148:../../libdaisy/src/hid/disp/graphics_common.h ****     }
 149:../../libdaisy/src/hid/disp/graphics_common.h **** 
 150:../../libdaisy/src/hid/disp/graphics_common.h ****     Rectangle WithTrimmedTop(int16_t pxToTrim) const
 151:../../libdaisy/src/hid/disp/graphics_common.h ****     {
 152:../../libdaisy/src/hid/disp/graphics_common.h ****         return {
 153:../../libdaisy/src/hid/disp/graphics_common.h ****             x_, int16_t(y_ + pxToTrim), width_, int16_t(height_ - pxToTrim)};
 154:../../libdaisy/src/hid/disp/graphics_common.h ****     }
 155:../../libdaisy/src/hid/disp/graphics_common.h **** 
 156:../../libdaisy/src/hid/disp/graphics_common.h ****     Rectangle WithTrimmedBottom(int16_t pxToTrim) const
ARM GAS  /tmp/ccZhYDze.s 			page 65


 157:../../libdaisy/src/hid/disp/graphics_common.h ****     {
 158:../../libdaisy/src/hid/disp/graphics_common.h ****         return {x_, y_, width_, int16_t(height_ - pxToTrim)};
 159:../../libdaisy/src/hid/disp/graphics_common.h ****     }
 160:../../libdaisy/src/hid/disp/graphics_common.h **** 
 161:../../libdaisy/src/hid/disp/graphics_common.h ****     Rectangle WithCenterX(int16_t centerX) const
 162:../../libdaisy/src/hid/disp/graphics_common.h ****     {
 163:../../libdaisy/src/hid/disp/graphics_common.h ****         return {int16_t(x_ + centerX - GetCenterX()), y_, width_, height_};
 164:../../libdaisy/src/hid/disp/graphics_common.h ****     }
 165:../../libdaisy/src/hid/disp/graphics_common.h **** 
 166:../../libdaisy/src/hid/disp/graphics_common.h ****     Rectangle WithCenterY(int16_t centerY) const
 167:../../libdaisy/src/hid/disp/graphics_common.h ****     {
 168:../../libdaisy/src/hid/disp/graphics_common.h ****         return {x_, int16_t(y_ + centerY - GetCenterY()), width_, height_};
 169:../../libdaisy/src/hid/disp/graphics_common.h ****     }
 170:../../libdaisy/src/hid/disp/graphics_common.h **** 
 171:../../libdaisy/src/hid/disp/graphics_common.h ****     Rectangle WithCenter(int16_t centerX, int16_t centerY) const
 172:../../libdaisy/src/hid/disp/graphics_common.h ****     {
 173:../../libdaisy/src/hid/disp/graphics_common.h ****         return {int16_t(x_ + centerX - GetCenterX()),
 174:../../libdaisy/src/hid/disp/graphics_common.h ****                 int16_t(y_ + centerY - GetCenterY()),
 175:../../libdaisy/src/hid/disp/graphics_common.h ****                 width_,
 176:../../libdaisy/src/hid/disp/graphics_common.h ****                 height_};
 177:../../libdaisy/src/hid/disp/graphics_common.h ****     }
 178:../../libdaisy/src/hid/disp/graphics_common.h **** 
 179:../../libdaisy/src/hid/disp/graphics_common.h ****     Rectangle RemoveFromLeft(int16_t pxToRemove)
 180:../../libdaisy/src/hid/disp/graphics_common.h ****     {
 181:../../libdaisy/src/hid/disp/graphics_common.h ****         const auto result = this->WithWidth(min(pxToRemove, width_));
 182:../../libdaisy/src/hid/disp/graphics_common.h ****         x_ += min(pxToRemove, width_);
 183:../../libdaisy/src/hid/disp/graphics_common.h ****         width_ = max(int16_t(width_ - pxToRemove), 0);
 184:../../libdaisy/src/hid/disp/graphics_common.h ****         return result;
 185:../../libdaisy/src/hid/disp/graphics_common.h ****     }
 186:../../libdaisy/src/hid/disp/graphics_common.h **** 
 187:../../libdaisy/src/hid/disp/graphics_common.h ****     Rectangle RemoveFromRight(int16_t pxToRemove)
 188:../../libdaisy/src/hid/disp/graphics_common.h ****     {
 189:../../libdaisy/src/hid/disp/graphics_common.h ****         const auto canRemove = min(pxToRemove, width_);
 190:../../libdaisy/src/hid/disp/graphics_common.h ****         width_ -= canRemove;
 191:../../libdaisy/src/hid/disp/graphics_common.h ****         return {int16_t(x_ + width_), y_, canRemove, height_};
 192:../../libdaisy/src/hid/disp/graphics_common.h ****     }
 193:../../libdaisy/src/hid/disp/graphics_common.h **** 
 194:../../libdaisy/src/hid/disp/graphics_common.h ****     Rectangle RemoveFromTop(int16_t pxToRemove)
 195:../../libdaisy/src/hid/disp/graphics_common.h ****     {
 196:../../libdaisy/src/hid/disp/graphics_common.h ****         const auto result = this->WithHeight(min(pxToRemove, height_));
 197:../../libdaisy/src/hid/disp/graphics_common.h ****         y_ += min(pxToRemove, height_);
 198:../../libdaisy/src/hid/disp/graphics_common.h ****         height_ = max(height_ - pxToRemove, 0);
 199:../../libdaisy/src/hid/disp/graphics_common.h ****         return result;
 200:../../libdaisy/src/hid/disp/graphics_common.h ****     }
 201:../../libdaisy/src/hid/disp/graphics_common.h **** 
 202:../../libdaisy/src/hid/disp/graphics_common.h ****     Rectangle RemoveFromBottom(int16_t pxToRemove)
 203:../../libdaisy/src/hid/disp/graphics_common.h ****     {
 204:../../libdaisy/src/hid/disp/graphics_common.h ****         const auto canRemove = min(pxToRemove, height_);
 205:../../libdaisy/src/hid/disp/graphics_common.h ****         height_ -= canRemove;
 206:../../libdaisy/src/hid/disp/graphics_common.h ****         return {x_, int16_t(y_ + height_), width_, canRemove};
 207:../../libdaisy/src/hid/disp/graphics_common.h ****     }
 208:../../libdaisy/src/hid/disp/graphics_common.h **** 
 209:../../libdaisy/src/hid/disp/graphics_common.h ****     Rectangle AlignedWithin(const Rectangle& other, Alignment alignment) const
 210:../../libdaisy/src/hid/disp/graphics_common.h ****     {
 211:../../libdaisy/src/hid/disp/graphics_common.h ****         switch(alignment)
 212:../../libdaisy/src/hid/disp/graphics_common.h ****         {
 213:../../libdaisy/src/hid/disp/graphics_common.h ****             case Alignment::topLeft:
ARM GAS  /tmp/ccZhYDze.s 			page 66


 214:../../libdaisy/src/hid/disp/graphics_common.h ****                 return {other.x_, other.y_, width_, height_};
 215:../../libdaisy/src/hid/disp/graphics_common.h ****             case Alignment::topRight:
 216:../../libdaisy/src/hid/disp/graphics_common.h ****                 return {int16_t(other.GetRight() - width_),
 217:../../libdaisy/src/hid/disp/graphics_common.h ****                         other.y_,
 218:../../libdaisy/src/hid/disp/graphics_common.h ****                         width_,
 219:../../libdaisy/src/hid/disp/graphics_common.h ****                         height_};
 220:../../libdaisy/src/hid/disp/graphics_common.h ****             case Alignment::topCentered:
 221:../../libdaisy/src/hid/disp/graphics_common.h ****                 return {int16_t(x_ + (other.GetCenterX() - GetCenterX())),
 222:../../libdaisy/src/hid/disp/graphics_common.h ****                         other.y_,
 223:../../libdaisy/src/hid/disp/graphics_common.h ****                         width_,
 224:../../libdaisy/src/hid/disp/graphics_common.h ****                         height_};
 225:../../libdaisy/src/hid/disp/graphics_common.h ****             case Alignment::bottomLeft:
 226:../../libdaisy/src/hid/disp/graphics_common.h ****                 return {other.x_,
 227:../../libdaisy/src/hid/disp/graphics_common.h ****                         int16_t(other.GetBottom() - height_),
 228:../../libdaisy/src/hid/disp/graphics_common.h ****                         width_,
 229:../../libdaisy/src/hid/disp/graphics_common.h ****                         height_};
 230:../../libdaisy/src/hid/disp/graphics_common.h ****             case Alignment::bottomRight:
 231:../../libdaisy/src/hid/disp/graphics_common.h ****                 return {int16_t(other.GetRight() - width_),
 232:../../libdaisy/src/hid/disp/graphics_common.h ****                         int16_t(other.GetBottom() - height_),
 233:../../libdaisy/src/hid/disp/graphics_common.h ****                         width_,
 234:../../libdaisy/src/hid/disp/graphics_common.h ****                         height_};
 235:../../libdaisy/src/hid/disp/graphics_common.h ****             case Alignment::bottomCentered:
 236:../../libdaisy/src/hid/disp/graphics_common.h ****                 return {int16_t(x_ + (other.GetCenterX() - GetCenterX())),
 237:../../libdaisy/src/hid/disp/graphics_common.h ****                         int16_t(other.GetBottom() - height_),
 238:../../libdaisy/src/hid/disp/graphics_common.h ****                         width_,
 239:../../libdaisy/src/hid/disp/graphics_common.h ****                         height_};
 240:../../libdaisy/src/hid/disp/graphics_common.h ****             case Alignment::centeredLeft:
 241:../../libdaisy/src/hid/disp/graphics_common.h ****                 return {other.x_,
 242:../../libdaisy/src/hid/disp/graphics_common.h ****                         int16_t(y_ + (other.GetCenterY() - GetCenterY())),
 243:../../libdaisy/src/hid/disp/graphics_common.h ****                         width_,
 244:../../libdaisy/src/hid/disp/graphics_common.h ****                         height_};
 245:../../libdaisy/src/hid/disp/graphics_common.h ****             case Alignment::centeredRight:
 246:../../libdaisy/src/hid/disp/graphics_common.h ****                 return {int16_t(other.GetRight() - width_),
 247:../../libdaisy/src/hid/disp/graphics_common.h ****                         int16_t(y_ + (other.GetCenterY() - GetCenterY())),
 248:../../libdaisy/src/hid/disp/graphics_common.h ****                         width_,
 249:../../libdaisy/src/hid/disp/graphics_common.h ****                         height_};
 250:../../libdaisy/src/hid/disp/graphics_common.h ****             case Alignment::centered:
 251:../../libdaisy/src/hid/disp/graphics_common.h ****                 return {int16_t(x_ + (other.GetCenterX() - GetCenterX())),
 252:../../libdaisy/src/hid/disp/graphics_common.h ****                         int16_t(y_ + (other.GetCenterY() - GetCenterY())),
 253:../../libdaisy/src/hid/disp/graphics_common.h ****                         width_,
 254:../../libdaisy/src/hid/disp/graphics_common.h ****                         height_};
 255:../../libdaisy/src/hid/disp/graphics_common.h ****             default: return {};
 256:../../libdaisy/src/hid/disp/graphics_common.h ****         }
 257:../../libdaisy/src/hid/disp/graphics_common.h ****     }
 258:../../libdaisy/src/hid/disp/graphics_common.h **** 
 259:../../libdaisy/src/hid/disp/graphics_common.h ****   private:
 260:../../libdaisy/src/hid/disp/graphics_common.h ****     int16_t x_, y_, width_, height_;
 261:../../libdaisy/src/hid/disp/graphics_common.h ****     int16_t max(int16_t a, int16_t b) { return (a > b) ? a : b; }
 1826              		.loc 17 261 13 view .LVU393
 1827              		.loc 17 261 13 is_stmt 0 view .LVU394
 1828              	.LBE949:
 1829              	.LBE948:
 1830              	.LBE954:
 1831              	.LBE958:
 1832              		.loc 17 261 41 is_stmt 1 view .LVU395
 1833 0038 12B2     		sxth	r2, r2
 1834 003a 22EAE272 		bic	r2, r2, r2, asr #31
ARM GAS  /tmp/ccZhYDze.s 			page 67


 1835              	.LVL134:
 1836              	.LBB959:
 1837              	.LBB955:
 1838              	.LBB951:
 1839              	.LBB950:
 1840              	.LBI950:
 1841              		.loc 17 261 13 view .LVU396
 1842              		.loc 17 261 13 is_stmt 0 view .LVU397
 1843              	.LBE950:
 1844              	.LBE951:
 1845              	.LBE955:
 1846              	.LBE959:
 1847              		.loc 17 261 41 is_stmt 1 view .LVU398
 1848              	.LBB960:
 1849              	.LBI960:
 209:../../libdaisy/src/hid/disp/graphics_common.h ****     {
 1850              		.loc 17 209 15 view .LVU399
 1851              	.LBB961:
 211:../../libdaisy/src/hid/disp/graphics_common.h ****         {
 1852              		.loc 17 211 9 view .LVU400
 1853 003e 082B     		cmp	r3, #8
 1854 0040 00F2AD81 		bhi	.L121
 1855 0044 DFE813F0 		tbh	[pc, r3, lsl #1]
 1856              	.L123:
 1857 0048 0001     		.2byte	(.L131-.L123)/2
 1858 004a 1201     		.2byte	(.L130-.L123)/2
 1859 004c 1E01     		.2byte	(.L129-.L123)/2
 1860 004e 3201     		.2byte	(.L128-.L123)/2
 1861 0050 4001     		.2byte	(.L127-.L123)/2
 1862 0052 5001     		.2byte	(.L126-.L123)/2
 1863 0054 6B01     		.2byte	(.L125-.L123)/2
 1864 0056 7801     		.2byte	(.L124-.L123)/2
 1865 0058 0900     		.2byte	(.L122-.L123)/2
 1866              		.p2align 1
 1867              	.L122:
 245:../../libdaisy/src/hid/disp/graphics_common.h ****                 return {int16_t(other.GetRight() - width_),
 1868              		.loc 17 245 13 view .LVU401
 246:../../libdaisy/src/hid/disp/graphics_common.h ****                         int16_t(y_ + (other.GetCenterY() - GetCenterY())),
 1869              		.loc 17 246 17 view .LVU402
 1870              	.LBB962:
 1871              	.LBI962:
  60:../../libdaisy/src/hid/disp/graphics_common.h ****     int16_t GetBottom() const { return y_ + height_; }
 1872              		.loc 17 60 13 view .LVU403
 1873              	.LVL135:
 1874              	.LBB963:
  60:../../libdaisy/src/hid/disp/graphics_common.h ****     int16_t GetBottom() const { return y_ + height_; }
 1875              		.loc 17 60 32 view .LVU404
  60:../../libdaisy/src/hid/disp/graphics_common.h ****     int16_t GetBottom() const { return y_ + height_; }
 1876              		.loc 17 60 42 is_stmt 0 view .LVU405
 1877 005a 3788     		ldrh	r7, [r6]
 1878 005c B088     		ldrh	r0, [r6, #4]
 1879              	.LBE963:
 1880              	.LBE962:
 1881              	.LBB965:
 1882              	.LBB966:
  63:../../libdaisy/src/hid/disp/graphics_common.h **** 
 1883              		.loc 17 63 54 view .LVU406
ARM GAS  /tmp/ccZhYDze.s 			page 68


 1884 005e B6F90630 		ldrsh	r3, [r6, #6]
 1885              	.LVL136:
  63:../../libdaisy/src/hid/disp/graphics_common.h **** 
 1886              		.loc 17 63 54 view .LVU407
 1887              	.LBE966:
 1888              	.LBE965:
 1889              	.LBB970:
 1890              	.LBB964:
  60:../../libdaisy/src/hid/disp/graphics_common.h ****     int16_t GetBottom() const { return y_ + height_; }
 1891              		.loc 17 60 42 view .LVU408
 1892 0062 0744     		add	r7, r7, r0
 1893              	.LBE964:
 1894              	.LBE970:
 1895              	.LBB971:
 1896              	.LBB967:
  63:../../libdaisy/src/hid/disp/graphics_common.h **** 
 1897              		.loc 17 63 54 view .LVU409
 1898 0064 002B     		cmp	r3, #0
 1899              	.LBE967:
 1900              	.LBE971:
 246:../../libdaisy/src/hid/disp/graphics_common.h ****                         int16_t(y_ + (other.GetCenterY() - GetCenterY())),
 1901              		.loc 17 246 50 view .LVU410
 1902 0066 A7EB0207 		sub	r7, r7, r2
 1903 006a BFB2     		uxth	r7, r7
 1904              	.LBB972:
 1905              	.LBI965:
  63:../../libdaisy/src/hid/disp/graphics_common.h **** 
 1906              		.loc 17 63 13 is_stmt 1 view .LVU411
 1907              	.LVL137:
 1908              	.LBB968:
  63:../../libdaisy/src/hid/disp/graphics_common.h **** 
 1909              		.loc 17 63 34 view .LVU412
  63:../../libdaisy/src/hid/disp/graphics_common.h **** 
 1910              		.loc 17 63 34 is_stmt 0 view .LVU413
 1911              	.LBE968:
 1912              	.LBE972:
 1913              	.LBB973:
 1914              	.LBI973:
  63:../../libdaisy/src/hid/disp/graphics_common.h **** 
 1915              		.loc 17 63 13 is_stmt 1 view .LVU414
 1916              	.LBB974:
  63:../../libdaisy/src/hid/disp/graphics_common.h **** 
 1917              		.loc 17 63 34 view .LVU415
 1918              	.LBE974:
 1919              	.LBE973:
 1920              	.LBB975:
 1921              	.LBB969:
  63:../../libdaisy/src/hid/disp/graphics_common.h **** 
 1922              		.loc 17 63 54 is_stmt 0 view .LVU416
 1923 006c C0F2FC80 		blt	.L195
 1924              	.LVL138:
 1925              	.L138:
  63:../../libdaisy/src/hid/disp/graphics_common.h **** 
 1926              		.loc 17 63 54 view .LVU417
 1927              	.LBE969:
 1928              	.LBE975:
 1929              	.LBB976:
ARM GAS  /tmp/ccZhYDze.s 			page 69


 1930              	.LBB977:
  63:../../libdaisy/src/hid/disp/graphics_common.h **** 
 1931              		.loc 17 63 44 view .LVU418
 1932 0070 B6F802C0 		ldrh	ip, [r6, #2]
 1933              	.LBE977:
 1934              	.LBE976:
 1935              	.LBB983:
 1936              	.LBB984:
 1937              	.LBB985:
  32:../../libdaisy/src/hid/disp/graphics_common.h ****     {
 1938              		.loc 17 32 66 view .LVU419
 1939 0074 0998     		ldr	r0, [sp, #36]
 1940              	.LBE985:
 1941              	.LBE984:
 1942              	.LBE983:
 1943              	.LBB994:
 1944              	.LBB978:
  63:../../libdaisy/src/hid/disp/graphics_common.h **** 
 1945              		.loc 17 63 44 view .LVU420
 1946 0076 0CEB6306 		add	r6, ip, r3, asr #1
 1947              	.LVL139:
  63:../../libdaisy/src/hid/disp/graphics_common.h **** 
 1948              		.loc 17 63 44 view .LVU421
 1949              	.LBE978:
 1950              	.LBE994:
 1951              	.LBB995:
 1952              	.LBB991:
 1953              	.LBB988:
  32:../../libdaisy/src/hid/disp/graphics_common.h ****     {
 1954              		.loc 17 32 66 view .LVU422
 1955 007a 0346     		mov	r3, r0
 1956 007c 0780     		strh	r7, [r0]	@ movhi
 1957              	.L193:
  32:../../libdaisy/src/hid/disp/graphics_common.h ****     {
 1958              		.loc 17 32 66 view .LVU423
 1959 007e 8280     		strh	r2, [r0, #4]	@ movhi
 1960 0080 D980     		strh	r1, [r3, #6]	@ movhi
 1961              	.LBE988:
 1962              	.LBE991:
 1963              	.LBE995:
 252:../../libdaisy/src/hid/disp/graphics_common.h ****                         width_,
 1964              		.loc 17 252 58 view .LVU424
 1965 0082 A6EB5101 		sub	r1, r6, r1, lsr #1
 1966 0086 8EB2     		uxth	r6, r1
 1967              	.LVL140:
 1968              	.LBB996:
 1969              	.LBI983:
  31:../../libdaisy/src/hid/disp/graphics_common.h ****     : x_(x), y_(y), width_(max(0, width)), height_(max(0, height))
 1970              		.loc 17 31 5 is_stmt 1 view .LVU425
 1971              	.LBB992:
 1972              	.LBB989:
  32:../../libdaisy/src/hid/disp/graphics_common.h ****     {
 1973              		.loc 17 32 66 is_stmt 0 view .LVU426
 1974 0088 5E80     		strh	r6, [r3, #2]	@ movhi
 1975              	.LVL141:
 1976              	.LBB986:
 1977              	.LBI986:
ARM GAS  /tmp/ccZhYDze.s 			page 70


 1978              		.loc 17 261 13 is_stmt 1 view .LVU427
 1979              		.loc 17 261 13 is_stmt 0 view .LVU428
 1980              	.LBE986:
 1981              	.LBE989:
 1982              	.LBE992:
 1983              	.LBE996:
 1984              	.LBE961:
 1985              	.LBE960:
 1986              		.loc 17 261 41 is_stmt 1 view .LVU429
 1987              	.LBB1181:
 1988              	.LBB1166:
 1989              	.LBB997:
 1990              	.LBB993:
 1991              	.LBB990:
 1992              	.LBB987:
 1993              	.LBI987:
 1994              		.loc 17 261 13 view .LVU430
 1995              		.loc 17 261 13 is_stmt 0 view .LVU431
 1996              	.LBE987:
 1997              	.LBE990:
 1998              	.LBE993:
 1999              	.LBE997:
 2000              	.LBE1166:
 2001              	.LBE1181:
 2002              		.loc 17 261 41 is_stmt 1 view .LVU432
 2003              	.L132:
  56:../../libdaisy/src/hid/disp/graphics_common.h ****     int16_t GetY() const { return y_; }
 2004              		.loc 17 56 28 view .LVU433
  57:../../libdaisy/src/hid/disp/graphics_common.h ****     int16_t GetWidth() const { return width_; }
 2005              		.loc 17 57 28 view .LVU434
 2006              	.LBB1182:
 2007              	.LBI1182:
 171:../../libdaisy/src/hid/disp/display.h ****     {
 2008              		.loc 6 171 10 view .LVU435
 2009              	.LBB1183:
 173:../../libdaisy/src/hid/disp/display.h ****         currentY_ = (y >= Height()) ? Height() - 1 : y;
 2010              		.loc 6 173 9 view .LVU436
 2011 008a B64A     		ldr	r2, .L205
 173:../../libdaisy/src/hid/disp/display.h ****         currentY_ = (y >= Height()) ? Height() - 1 : y;
 2012              		.loc 6 173 33 is_stmt 0 view .LVU437
 2013 008c 2368     		ldr	r3, [r4]
 2014 008e 1146     		mov	r1, r2
 2015 0090 0192     		str	r2, [sp, #4]
 2016 0092 DA68     		ldr	r2, [r3, #12]
 2017 0094 8A42     		cmp	r2, r1
 2018 0096 40F08F81 		bne	.L140
 2019 009a 8020     		movs	r0, #128
 2020              	.LVL142:
 2021              	.L141:
 173:../../libdaisy/src/hid/disp/display.h ****         currentY_ = (y >= Height()) ? Height() - 1 : y;
 2022              		.loc 6 173 19 view .LVU438
 2023 009c B842     		cmp	r0, r7
 2024 009e 05D8     		bhi	.L142
 173:../../libdaisy/src/hid/disp/display.h ****         currentY_ = (y >= Height()) ? Height() - 1 : y;
 2025              		.loc 6 173 44 view .LVU439
 2026 00a0 DA68     		ldr	r2, [r3, #12]
 2027 00a2 0199     		ldr	r1, [sp, #4]
ARM GAS  /tmp/ccZhYDze.s 			page 71


 2028 00a4 8A42     		cmp	r2, r1
 2029 00a6 40F09A81 		bne	.L196
 2030 00aa 7F27     		movs	r7, #127
 2031              	.L142:
 174:../../libdaisy/src/hid/disp/display.h ****     }
 2032              		.loc 6 174 34 view .LVU440
 2033 00ac 9B68     		ldr	r3, [r3, #8]
 2034 00ae AE4A     		ldr	r2, .L205+4
 173:../../libdaisy/src/hid/disp/display.h ****         currentY_ = (y >= Height()) ? Height() - 1 : y;
 2035              		.loc 6 173 19 view .LVU441
 2036 00b0 A780     		strh	r7, [r4, #4]	@ movhi
 174:../../libdaisy/src/hid/disp/display.h ****     }
 2037              		.loc 6 174 9 is_stmt 1 view .LVU442
 2038 00b2 9342     		cmp	r3, r2
 2039 00b4 0392     		str	r2, [sp, #12]
 2040 00b6 40F08A81 		bne	.L172
 174:../../libdaisy/src/hid/disp/display.h ****     }
 2041              		.loc 6 174 34 is_stmt 0 view .LVU443
 2042 00ba 4020     		movs	r0, #64
 2043              	.L144:
 174:../../libdaisy/src/hid/disp/display.h ****     }
 2044              		.loc 6 174 19 view .LVU444
 2045 00bc B042     		cmp	r0, r6
 2046 00be 06D8     		bhi	.L146
 174:../../libdaisy/src/hid/disp/display.h ****     }
 2047              		.loc 6 174 46 view .LVU445
 2048 00c0 2368     		ldr	r3, [r4]
 2049 00c2 039A     		ldr	r2, [sp, #12]
 2050 00c4 9B68     		ldr	r3, [r3, #8]
 2051 00c6 9342     		cmp	r3, r2
 2052 00c8 40F08481 		bne	.L197
 2053 00cc 3F26     		movs	r6, #63
 2054              	.L146:
 174:../../libdaisy/src/hid/disp/display.h ****     }
 2055              		.loc 6 174 46 view .LVU446
 2056 00ce 6B78     		ldrb	r3, [r5, #1]	@ zero_extendqisi2
 174:../../libdaisy/src/hid/disp/display.h ****     }
 2057              		.loc 6 174 19 view .LVU447
 2058 00d0 E680     		strh	r6, [r4, #6]	@ movhi
 2059              	.LVL143:
 174:../../libdaisy/src/hid/disp/display.h ****     }
 2060              		.loc 6 174 19 view .LVU448
 2061 00d2 0493     		str	r3, [sp, #16]
 2062              	.LBE1183:
 2063              	.LBE1182:
 2064              	.LBB1187:
 2065              	.LBB1188:
 443:../../libdaisy/src/hid/disp/display.h ****         {
 2066              		.loc 6 443 9 view .LVU449
 2067 00d4 98F80060 		ldrb	r6, [r8]	@ zero_extendqisi2
 2068 00d8 6B68     		ldr	r3, [r5, #4]
 2069 00da 95F800B0 		ldrb	fp, [r5]	@ zero_extendqisi2
 2070              	.LVL144:
 443:../../libdaisy/src/hid/disp/display.h ****         {
 2071              		.loc 6 443 9 view .LVU450
 2072 00de 0793     		str	r3, [sp, #28]
 2073              	.LVL145:
ARM GAS  /tmp/ccZhYDze.s 			page 72


 443:../../libdaisy/src/hid/disp/display.h ****         {
 2074              		.loc 6 443 9 view .LVU451
 2075              	.LBE1188:
 2076              	.LBI1187:
 440:../../libdaisy/src/hid/disp/display.h ****     {
 2077              		.loc 6 440 10 is_stmt 1 view .LVU452
 2078              	.LBB1231:
 443:../../libdaisy/src/hid/disp/display.h ****         {
 2079              		.loc 6 443 9 view .LVU453
 2080 00e0 002E     		cmp	r6, #0
 2081 00e2 00F0AD80 		beq	.L118
 2082              	.LVL146:
 2083              	.L148:
 2084              	.LBB1189:
 2085              	.LBI1189:
 396:../../libdaisy/src/hid/disp/display.h ****     {
 2086              		.loc 6 396 10 view .LVU454
 2087              	.LBB1190:
 401:../../libdaisy/src/hid/disp/display.h ****             return 0;
 2088              		.loc 6 401 20 is_stmt 0 view .LVU455
 2089 00e6 A6F12005 		sub	r5, r6, #32
 401:../../libdaisy/src/hid/disp/display.h ****             return 0;
 2090              		.loc 6 401 9 view .LVU456
 2091 00ea EBB2     		uxtb	r3, r5
 2092 00ec 5E2B     		cmp	r3, #94
 2093 00ee 00F23481 		bhi	.L152
 405:../../libdaisy/src/hid/disp/display.h ****            || Height() < (currentY_ + font.FontHeight))
 2094              		.loc 6 405 17 view .LVU457
 2095 00f2 2368     		ldr	r3, [r4]
 2096 00f4 019A     		ldr	r2, [sp, #4]
 2097 00f6 DB68     		ldr	r3, [r3, #12]
 2098 00f8 9342     		cmp	r3, r2
 2099 00fa 40F03081 		bne	.L198
 2100 00fe 8020     		movs	r0, #128
 2101              	.L151:
 405:../../libdaisy/src/hid/disp/display.h ****            || Height() < (currentY_ + font.FontHeight))
 2102              		.loc 6 405 23 view .LVU458
 2103 0100 A388     		ldrh	r3, [r4, #4]
 405:../../libdaisy/src/hid/disp/display.h ****            || Height() < (currentY_ + font.FontHeight))
 2104              		.loc 6 405 33 view .LVU459
 2105 0102 5B44     		add	r3, r3, fp
 406:../../libdaisy/src/hid/disp/display.h ****         {
 2106              		.loc 6 406 12 view .LVU460
 2107 0104 9842     		cmp	r0, r3
 2108 0106 C0F22881 		blt	.L152
 406:../../libdaisy/src/hid/disp/display.h ****         {
 2109              		.loc 6 406 21 view .LVU461
 2110 010a 2368     		ldr	r3, [r4]
 2111 010c 039A     		ldr	r2, [sp, #12]
 2112 010e 9B68     		ldr	r3, [r3, #8]
 2113 0110 9342     		cmp	r3, r2
 2114 0112 40F02B81 		bne	.L199
 2115 0116 4020     		movs	r0, #64
 2116              	.L153:
 406:../../libdaisy/src/hid/disp/display.h ****         {
 2117              		.loc 6 406 27 view .LVU462
 2118 0118 E188     		ldrh	r1, [r4, #6]
ARM GAS  /tmp/ccZhYDze.s 			page 73


 406:../../libdaisy/src/hid/disp/display.h ****         {
 2119              		.loc 6 406 37 view .LVU463
 2120 011a 049A     		ldr	r2, [sp, #16]
 406:../../libdaisy/src/hid/disp/display.h ****         {
 2121              		.loc 6 406 27 view .LVU464
 2122 011c 0291     		str	r1, [sp, #8]
 406:../../libdaisy/src/hid/disp/display.h ****         {
 2123              		.loc 6 406 37 view .LVU465
 2124 011e 8B18     		adds	r3, r1, r2
 406:../../libdaisy/src/hid/disp/display.h ****         {
 2125              		.loc 6 406 12 view .LVU466
 2126 0120 9842     		cmp	r0, r3
 2127 0122 C0F21A81 		blt	.L152
 2128              	.LVL147:
 413:../../libdaisy/src/hid/disp/display.h ****         {
 2129              		.loc 6 413 22 is_stmt 1 view .LVU467
 2130 0126 1046     		mov	r0, r2
 2131 0128 002A     		cmp	r2, #0
 2132 012a 00F02981 		beq	.L154
 415:../../libdaisy/src/hid/disp/display.h ****             for(j = 0; j < font.FontWidth; j++)
 2133              		.loc 6 415 37 is_stmt 0 view .LVU468
 2134 012e 1346     		mov	r3, r2
 2135 0130 6FF00047 		mvn	r7, #-2147483648
 2136 0134 B4F804C0 		ldrh	ip, [r4, #4]
 2137 0138 03FB05F3 		mul	r3, r3, r5
 2138 013c 079D     		ldr	r5, [sp, #28]
 2139 013e CDF81880 		str	r8, [sp, #24]
 2140 0142 AA1E     		subs	r2, r5, #2
 2141 0144 1F44     		add	r7, r7, r3
 2142 0146 0344     		add	r3, r3, r0
 2143 0148 DDF82090 		ldr	r9, [sp, #32]
 2144 014c 05EB4707 		add	r7, r5, r7, lsl #1
 2145 0150 0596     		str	r6, [sp, #20]
 2146 0152 02EB4303 		add	r3, r2, r3, lsl #1
 2147 0156 2246     		mov	r2, r4
 2148 0158 5C46     		mov	r4, fp
 2149              	.LVL148:
 415:../../libdaisy/src/hid/disp/display.h ****             for(j = 0; j < font.FontWidth; j++)
 2150              		.loc 6 415 37 view .LVU469
 2151 015a 9846     		mov	r8, r3
 2152              	.LVL149:
 415:../../libdaisy/src/hid/disp/display.h ****             for(j = 0; j < font.FontWidth; j++)
 2153              		.loc 6 415 37 view .LVU470
 2154 015c 9346     		mov	fp, r2
 2155              	.LVL150:
 2156              	.L157:
 415:../../libdaisy/src/hid/disp/display.h ****             for(j = 0; j < font.FontWidth; j++)
 2157              		.loc 6 415 13 view .LVU471
 2158 015e 37F802AF 		ldrh	r10, [r7, #2]!
 2159              	.LVL151:
 416:../../libdaisy/src/hid/disp/display.h ****             {
 2160              		.loc 6 416 26 is_stmt 1 view .LVU472
 2161 0162 A4B3     		cbz	r4, .L162
 2162              	.LBB1191:
 2163              	.LBB1192:
 2164              	.LBB1193:
 2165              	.LBB1194:
ARM GAS  /tmp/ccZhYDze.s 			page 74


 2166              	.LBB1195:
 246:../../libdaisy/src/dev/oled_ssd130x.h ****     }
 2167              		.loc 16 246 49 is_stmt 0 view .LVU473
 2168 0164 0125     		movs	r5, #1
 246:../../libdaisy/src/dev/oled_ssd130x.h ****     }
 2169              		.loc 16 246 55 view .LVU474
 2170 0166 01F00702 		and	r2, r1, #7
 246:../../libdaisy/src/dev/oled_ssd130x.h ****     }
 2171              		.loc 16 246 28 view .LVU475
 2172 016a C808     		lsrs	r0, r1, #3
 2173 016c 0CF11403 		add	r3, ip, #20
 246:../../libdaisy/src/dev/oled_ssd130x.h ****     }
 2174              		.loc 16 246 49 view .LVU476
 2175 0170 05FA02F2 		lsl	r2, r5, r2
 2176 0174 6546     		mov	r5, ip
 2177 0176 03EBC013 		add	r3, r3, r0, lsl #7
 2178              	.LBE1195:
 2179              	.LBE1194:
 2180              	.LBE1193:
 2181              	.LBE1192:
 2182              	.LBE1191:
 416:../../libdaisy/src/hid/disp/display.h ****             {
 2183              		.loc 6 416 19 view .LVU477
 2184 017a 0020     		movs	r0, #0
 2185              	.LBB1213:
 2186              	.LBB1208:
 2187              	.LBB1203:
 2188              	.LBB1199:
 2189              	.LBB1196:
 246:../../libdaisy/src/dev/oled_ssd130x.h ****     }
 2190              		.loc 16 246 42 view .LVU478
 2191 017c 52B2     		sxtb	r2, r2
 2192 017e 5B44     		add	r3, r3, fp
 2193 0180 6FEA020E 		mvn	lr, r2
 2194 0184 0EE0     		b	.L163
 2195              	.LVL152:
 2196              	.L200:
 246:../../libdaisy/src/dev/oled_ssd130x.h ****     }
 2197              		.loc 16 246 42 view .LVU479
 2198              	.LBE1196:
 2199              	.LBE1199:
 2200              	.LBE1203:
 2201              	.LBE1208:
 2202              	.LBE1213:
 2203              	.LBB1214:
 2204              	.LBI1214:
  41:../../libdaisy/src/hid/disp/oled_display.h ****     {
 2205              		.loc 5 41 10 is_stmt 1 view .LVU480
 2206              	.LBB1215:
 2207              	.LBI1215:
 239:../../libdaisy/src/dev/oled_ssd130x.h ****     {
 2208              		.loc 16 239 10 view .LVU481
 2209              	.LBB1216:
 241:../../libdaisy/src/dev/oled_ssd130x.h ****             return;
 2210              		.loc 16 241 9 is_stmt 0 view .LVU482
 2211 0186 7F2D     		cmp	r5, #127
 2212 0188 07D8     		bhi	.L159
ARM GAS  /tmp/ccZhYDze.s 			page 75


 2213 018a 3F29     		cmp	r1, #63
 2214 018c 05D8     		bhi	.L159
 244:../../libdaisy/src/dev/oled_ssd130x.h ****         else
 2215              		.loc 16 244 42 view .LVU483
 2216 018e 1E78     		ldrb	r6, [r3]	@ zero_extendqisi2
 243:../../libdaisy/src/dev/oled_ssd130x.h ****             buffer_[x + (y / 8) * width] |= (1 << (y % 8));
 2217              		.loc 16 243 9 view .LVU484
 2218 0190 B9F1000F 		cmp	r9, #0
 2219 0194 12D0     		beq	.L161
 2220              	.L194:
 243:../../libdaisy/src/dev/oled_ssd130x.h ****             buffer_[x + (y / 8) * width] |= (1 << (y % 8));
 2221              		.loc 16 243 9 view .LVU485
 2222              	.LBE1216:
 2223              	.LBE1215:
 2224              	.LBE1214:
 2225              	.LBB1217:
 2226              	.LBB1209:
 2227              	.LBB1204:
 244:../../libdaisy/src/dev/oled_ssd130x.h ****         else
 2228              		.loc 16 244 42 view .LVU486
 2229 0196 1643     		orrs	r6, r6, r2
 244:../../libdaisy/src/dev/oled_ssd130x.h ****         else
 2230              		.loc 16 244 13 view .LVU487
 2231 0198 1E70     		strb	r6, [r3]
 2232              	.L159:
 2233              	.LBE1204:
 2234              	.LBE1209:
 2235              	.LBE1217:
 416:../../libdaisy/src/hid/disp/display.h ****             {
 2236              		.loc 6 416 13 is_stmt 1 view .LVU488
 2237 019a 0130     		adds	r0, r0, #1
 2238              	.LVL153:
 416:../../libdaisy/src/hid/disp/display.h ****             {
 2239              		.loc 6 416 26 view .LVU489
 2240 019c 0133     		adds	r3, r3, #1
 2241 019e 0135     		adds	r5, r5, #1
 2242 01a0 8442     		cmp	r4, r0
 2243 01a2 14D0     		beq	.L162
 2244              	.LVL154:
 2245              	.L163:
 418:../../libdaisy/src/hid/disp/display.h ****                 {
 2246              		.loc 6 418 23 is_stmt 0 view .LVU490
 2247 01a4 0AFA00F6 		lsl	r6, r10, r0
 418:../../libdaisy/src/hid/disp/display.h ****                 {
 2248              		.loc 6 418 17 view .LVU491
 2249 01a8 3604     		lsls	r6, r6, #16
 2250 01aa ECD4     		bmi	.L200
 2251              	.LVL155:
 2252              	.LBB1218:
 2253              	.LBI1191:
  41:../../libdaisy/src/hid/disp/oled_display.h ****     {
 2254              		.loc 5 41 10 is_stmt 1 view .LVU492
 2255              	.LBB1210:
 2256              	.LBI1192:
 239:../../libdaisy/src/dev/oled_ssd130x.h ****     {
 2257              		.loc 16 239 10 view .LVU493
 2258              	.LBB1205:
ARM GAS  /tmp/ccZhYDze.s 			page 76


 241:../../libdaisy/src/dev/oled_ssd130x.h ****             return;
 2259              		.loc 16 241 9 is_stmt 0 view .LVU494
 2260 01ac 7F2D     		cmp	r5, #127
 2261 01ae F4D8     		bhi	.L159
 2262 01b0 3F29     		cmp	r1, #63
 2263 01b2 F2D8     		bhi	.L159
 244:../../libdaisy/src/dev/oled_ssd130x.h ****         else
 2264              		.loc 16 244 42 view .LVU495
 2265 01b4 1E78     		ldrb	r6, [r3]	@ zero_extendqisi2
 243:../../libdaisy/src/dev/oled_ssd130x.h ****             buffer_[x + (y / 8) * width] |= (1 << (y % 8));
 2266              		.loc 16 243 9 view .LVU496
 2267 01b6 B9F1000F 		cmp	r9, #0
 2268 01ba ECD0     		beq	.L194
 2269              	.L161:
 2270              	.LVL156:
 2271              	.LBB1200:
 2272              	.LBI1194:
 239:../../libdaisy/src/dev/oled_ssd130x.h ****     {
 2273              		.loc 16 239 10 is_stmt 1 view .LVU497
 239:../../libdaisy/src/dev/oled_ssd130x.h ****     {
 2274              		.loc 16 239 10 is_stmt 0 view .LVU498
 2275              	.LBE1200:
 2276              	.LBE1205:
 2277              	.LBE1210:
 2278              	.LBE1218:
 416:../../libdaisy/src/hid/disp/display.h ****             {
 2279              		.loc 6 416 13 view .LVU499
 2280 01bc 0130     		adds	r0, r0, #1
 2281              	.LVL157:
 2282              	.LBB1219:
 2283              	.LBB1211:
 2284              	.LBB1206:
 2285              	.LBB1201:
 2286              	.LBB1197:
 246:../../libdaisy/src/dev/oled_ssd130x.h ****     }
 2287              		.loc 16 246 42 view .LVU500
 2288 01be 0EEA0606 		and	r6, lr, r6
 2289 01c2 0133     		adds	r3, r3, #1
 2290 01c4 0135     		adds	r5, r5, #1
 2291              	.LBE1197:
 2292              	.LBE1201:
 2293              	.LBE1206:
 2294              	.LBE1211:
 2295              	.LBE1219:
 416:../../libdaisy/src/hid/disp/display.h ****             {
 2296              		.loc 6 416 26 view .LVU501
 2297 01c6 8442     		cmp	r4, r0
 2298              	.LBB1220:
 2299              	.LBB1212:
 2300              	.LBB1207:
 2301              	.LBB1202:
 2302              	.LBB1198:
 246:../../libdaisy/src/dev/oled_ssd130x.h ****     }
 2303              		.loc 16 246 13 view .LVU502
 2304 01c8 03F8016C 		strb	r6, [r3, #-1]
 246:../../libdaisy/src/dev/oled_ssd130x.h ****     }
 2305              		.loc 16 246 13 view .LVU503
ARM GAS  /tmp/ccZhYDze.s 			page 77


 2306              	.LBE1198:
 2307              	.LBE1202:
 2308              	.LBE1207:
 2309              	.LBE1212:
 2310              	.LBE1220:
 416:../../libdaisy/src/hid/disp/display.h ****             {
 2311              		.loc 6 416 13 is_stmt 1 view .LVU504
 2312              	.LVL158:
 416:../../libdaisy/src/hid/disp/display.h ****             {
 2313              		.loc 6 416 26 view .LVU505
 2314 01cc EAD1     		bne	.L163
 2315              	.LVL159:
 2316              	.L162:
 413:../../libdaisy/src/hid/disp/display.h ****         {
 2317              		.loc 6 413 9 view .LVU506
 413:../../libdaisy/src/hid/disp/display.h ****         {
 2318              		.loc 6 413 22 view .LVU507
 2319 01ce B845     		cmp	r8, r7
 2320 01d0 01F10101 		add	r1, r1, #1
 2321 01d4 C3D1     		bne	.L157
 2322 01d6 5B46     		mov	r3, fp
 2323 01d8 059E     		ldr	r6, [sp, #20]
 2324 01da A346     		mov	fp, r4
 2325              	.LVL160:
 413:../../libdaisy/src/hid/disp/display.h ****         {
 2326              		.loc 6 413 22 is_stmt 0 view .LVU508
 2327 01dc DDF81880 		ldr	r8, [sp, #24]
 2328 01e0 1C46     		mov	r4, r3
 2329              	.LVL161:
 2330              	.L156:
 2331              	.LBB1221:
 2332              	.LBB1222:
 173:../../libdaisy/src/hid/disp/display.h ****         currentY_ = (y >= Height()) ? Height() - 1 : y;
 2333              		.loc 6 173 33 view .LVU509
 2334 01e2 2268     		ldr	r2, [r4]
 2335              	.LBE1222:
 2336              	.LBE1221:
 434:../../libdaisy/src/hid/disp/display.h **** 
 2337              		.loc 6 434 18 view .LVU510
 2338 01e4 DC44     		add	ip, ip, fp
 2339 01e6 0199     		ldr	r1, [sp, #4]
 2340              	.LBB1226:
 2341              	.LBB1223:
 173:../../libdaisy/src/hid/disp/display.h ****         currentY_ = (y >= Height()) ? Height() - 1 : y;
 2342              		.loc 6 173 33 view .LVU511
 2343 01e8 D368     		ldr	r3, [r2, #12]
 2344              	.LBE1223:
 2345              	.LBE1226:
 434:../../libdaisy/src/hid/disp/display.h **** 
 2346              		.loc 6 434 18 view .LVU512
 2347 01ea 1FFA8CF5 		uxth	r5, ip
 2348              	.LVL162:
 2349              	.LBB1227:
 2350              	.LBI1221:
 171:../../libdaisy/src/hid/disp/display.h ****     {
 2351              		.loc 6 171 10 is_stmt 1 view .LVU513
 2352              	.LBB1224:
ARM GAS  /tmp/ccZhYDze.s 			page 78


 173:../../libdaisy/src/hid/disp/display.h ****         currentY_ = (y >= Height()) ? Height() - 1 : y;
 2353              		.loc 6 173 9 view .LVU514
 2354 01ee 8B42     		cmp	r3, r1
 2355 01f0 40F0C280 		bne	.L201
 173:../../libdaisy/src/hid/disp/display.h ****         currentY_ = (y >= Height()) ? Height() - 1 : y;
 2356              		.loc 6 173 33 is_stmt 0 view .LVU515
 2357 01f4 8020     		movs	r0, #128
 2358              	.L164:
 173:../../libdaisy/src/hid/disp/display.h ****         currentY_ = (y >= Height()) ? Height() - 1 : y;
 2359              		.loc 6 173 19 view .LVU516
 2360 01f6 8542     		cmp	r5, r0
 2361 01f8 05D3     		bcc	.L165
 173:../../libdaisy/src/hid/disp/display.h ****         currentY_ = (y >= Height()) ? Height() - 1 : y;
 2362              		.loc 6 173 44 view .LVU517
 2363 01fa D368     		ldr	r3, [r2, #12]
 2364 01fc 0199     		ldr	r1, [sp, #4]
 2365 01fe 8B42     		cmp	r3, r1
 2366 0200 40F0C780 		bne	.L202
 2367 0204 7F25     		movs	r5, #127
 2368              	.LVL163:
 2369              	.L165:
 174:../../libdaisy/src/hid/disp/display.h ****     }
 2370              		.loc 6 174 34 view .LVU518
 2371 0206 9368     		ldr	r3, [r2, #8]
 2372 0208 039A     		ldr	r2, [sp, #12]
 173:../../libdaisy/src/hid/disp/display.h ****         currentY_ = (y >= Height()) ? Height() - 1 : y;
 2373              		.loc 6 173 19 view .LVU519
 2374 020a A580     		strh	r5, [r4, #4]	@ movhi
 174:../../libdaisy/src/hid/disp/display.h ****     }
 2375              		.loc 6 174 9 is_stmt 1 view .LVU520
 2376 020c 9342     		cmp	r3, r2
 2377 020e 40F0B080 		bne	.L203
 174:../../libdaisy/src/hid/disp/display.h ****     }
 2378              		.loc 6 174 34 is_stmt 0 view .LVU521
 2379 0212 4020     		movs	r0, #64
 2380              	.L167:
 174:../../libdaisy/src/hid/disp/display.h ****     }
 2381              		.loc 6 174 19 view .LVU522
 2382 0214 029B     		ldr	r3, [sp, #8]
 2383 0216 8342     		cmp	r3, r0
 2384 0218 07D3     		bcc	.L168
 174:../../libdaisy/src/hid/disp/display.h ****     }
 2385              		.loc 6 174 46 view .LVU523
 2386 021a 2368     		ldr	r3, [r4]
 2387 021c 039A     		ldr	r2, [sp, #12]
 2388 021e 9B68     		ldr	r3, [r3, #8]
 2389 0220 9342     		cmp	r3, r2
 2390 0222 40F0B080 		bne	.L204
 2391 0226 3F23     		movs	r3, #63
 2392 0228 0293     		str	r3, [sp, #8]
 2393              	.LVL164:
 2394              	.L168:
 174:../../libdaisy/src/hid/disp/display.h ****     }
 2395              		.loc 6 174 19 view .LVU524
 2396 022a 029B     		ldr	r3, [sp, #8]
 2397 022c E380     		strh	r3, [r4, #6]	@ movhi
 2398              	.LVL165:
ARM GAS  /tmp/ccZhYDze.s 			page 79


 2399              	.L150:
 174:../../libdaisy/src/hid/disp/display.h ****     }
 2400              		.loc 6 174 19 view .LVU525
 2401              	.LBE1224:
 2402              	.LBE1227:
 2403              	.LBE1190:
 2404              	.LBE1189:
 445:../../libdaisy/src/hid/disp/display.h ****                != *str)
 2405              		.loc 6 445 13 view .LVU526
 2406 022e 98F80030 		ldrb	r3, [r8]	@ zero_extendqisi2
 2407 0232 B342     		cmp	r3, r6
 2408 0234 04D1     		bne	.L118
 2409              	.LVL166:
 443:../../libdaisy/src/hid/disp/display.h ****         {
 2410              		.loc 6 443 9 is_stmt 1 view .LVU527
 2411 0236 18F8016F 		ldrb	r6, [r8, #1]!	@ zero_extendqisi2
 2412              	.LVL167:
 443:../../libdaisy/src/hid/disp/display.h ****         {
 2413              		.loc 6 443 9 is_stmt 0 view .LVU528
 2414 023a 002E     		cmp	r6, #0
 2415 023c 7FF453AF 		bne	.L148
 2416              	.LVL168:
 2417              	.L118:
 443:../../libdaisy/src/hid/disp/display.h ****         {
 2418              		.loc 6 443 9 view .LVU529
 2419              	.LBE1231:
 2420              	.LBE1187:
 471:../../libdaisy/src/hid/disp/display.h **** 
 2421              		.loc 6 471 5 view .LVU530
 2422 0240 0998     		ldr	r0, [sp, #36]
 2423 0242 0BB0     		add	sp, sp, #44
 2424              		.cfi_remember_state
 2425              		.cfi_def_cfa_offset 36
 2426              		@ sp needed
 2427 0244 BDE8F08F 		pop	{r4, r5, r6, r7, r8, r9, r10, fp, pc}
 2428              	.LVL169:
 2429              	.L131:
 2430              		.cfi_restore_state
 2431              	.LBB1233:
 2432              	.LBB1167:
 250:../../libdaisy/src/hid/disp/graphics_common.h ****                 return {int16_t(x_ + (other.GetCenterX() - GetCenterX())),
 2433              		.loc 17 250 13 is_stmt 1 view .LVU531
 251:../../libdaisy/src/hid/disp/graphics_common.h ****                         int16_t(y_ + (other.GetCenterY() - GetCenterY())),
 2434              		.loc 17 251 17 view .LVU532
 2435              	.LBB998:
 2436              	.LBI998:
  62:../../libdaisy/src/hid/disp/graphics_common.h ****     int16_t GetCenterY() const { return y_ + height_ / 2; }
 2437              		.loc 17 62 13 view .LVU533
 2438              	.LBB999:
  62:../../libdaisy/src/hid/disp/graphics_common.h ****     int16_t GetCenterY() const { return y_ + height_ / 2; }
 2439              		.loc 17 62 34 view .LVU534
  62:../../libdaisy/src/hid/disp/graphics_common.h ****     int16_t GetCenterY() const { return y_ + height_ / 2; }
 2440              		.loc 17 62 34 is_stmt 0 view .LVU535
 2441              	.LBE999:
 2442              	.LBE998:
 2443              	.LBB1003:
 2444              	.LBI1003:
ARM GAS  /tmp/ccZhYDze.s 			page 80


  62:../../libdaisy/src/hid/disp/graphics_common.h ****     int16_t GetCenterY() const { return y_ + height_ / 2; }
 2445              		.loc 17 62 13 is_stmt 1 view .LVU536
 2446              	.LBB1004:
  62:../../libdaisy/src/hid/disp/graphics_common.h ****     int16_t GetCenterY() const { return y_ + height_ / 2; }
 2447              		.loc 17 62 34 view .LVU537
 2448              	.LBE1004:
 2449              	.LBE1003:
 2450              	.LBB1005:
 2451              	.LBB1000:
  62:../../libdaisy/src/hid/disp/graphics_common.h ****     int16_t GetCenterY() const { return y_ + height_ / 2; }
 2452              		.loc 17 62 53 is_stmt 0 view .LVU538
 2453 0248 B6F90400 		ldrsh	r0, [r6, #4]
  62:../../libdaisy/src/hid/disp/graphics_common.h ****     int16_t GetCenterY() const { return y_ + height_ / 2; }
 2454              		.loc 17 62 44 view .LVU539
 2455 024c 3788     		ldrh	r7, [r6]
  62:../../libdaisy/src/hid/disp/graphics_common.h ****     int16_t GetCenterY() const { return y_ + height_ / 2; }
 2456              		.loc 17 62 53 view .LVU540
 2457 024e 0028     		cmp	r0, #0
 2458              	.LBE1000:
 2459              	.LBE1005:
 2460              	.LBB1006:
 2461              	.LBB979:
  63:../../libdaisy/src/hid/disp/graphics_common.h **** 
 2462              		.loc 17 63 54 view .LVU541
 2463 0250 B6F90630 		ldrsh	r3, [r6, #6]
 2464              	.LVL170:
  63:../../libdaisy/src/hid/disp/graphics_common.h **** 
 2465              		.loc 17 63 54 view .LVU542
 2466              	.LBE979:
 2467              	.LBE1006:
 2468              	.LBB1007:
 2469              	.LBB1001:
  62:../../libdaisy/src/hid/disp/graphics_common.h ****     int16_t GetCenterY() const { return y_ + height_ / 2; }
 2470              		.loc 17 62 53 view .LVU543
 2471 0254 B8BF     		it	lt
 2472 0256 0130     		addlt	r0, r0, #1
 2473              	.LBE1001:
 2474              	.LBE1007:
 2475              	.LBB1008:
 2476              	.LBB980:
  63:../../libdaisy/src/hid/disp/graphics_common.h **** 
 2477              		.loc 17 63 54 view .LVU544
 2478 0258 002B     		cmp	r3, #0
 2479              	.LBE980:
 2480              	.LBE1008:
 2481              	.LBB1009:
 2482              	.LBB1002:
  62:../../libdaisy/src/hid/disp/graphics_common.h ****     int16_t GetCenterY() const { return y_ + height_ / 2; }
 2483              		.loc 17 62 44 view .LVU545
 2484 025a 07EB6007 		add	r7, r7, r0, asr #1
 2485              	.LBE1002:
 2486              	.LBE1009:
 251:../../libdaisy/src/hid/disp/graphics_common.h ****                         int16_t(y_ + (other.GetCenterY() - GetCenterY())),
 2487              		.loc 17 251 58 view .LVU546
 2488 025e A7EB6207 		sub	r7, r7, r2, asr #1
 2489 0262 BFB2     		uxth	r7, r7
 2490              	.LBB1010:
ARM GAS  /tmp/ccZhYDze.s 			page 81


 2491              	.LBI976:
  63:../../libdaisy/src/hid/disp/graphics_common.h **** 
 2492              		.loc 17 63 13 is_stmt 1 view .LVU547
 2493              	.LVL171:
 2494              	.LBB981:
  63:../../libdaisy/src/hid/disp/graphics_common.h **** 
 2495              		.loc 17 63 34 view .LVU548
  63:../../libdaisy/src/hid/disp/graphics_common.h **** 
 2496              		.loc 17 63 34 is_stmt 0 view .LVU549
 2497              	.LBE981:
 2498              	.LBE1010:
 2499              	.LBB1011:
 2500              	.LBI1011:
  63:../../libdaisy/src/hid/disp/graphics_common.h **** 
 2501              		.loc 17 63 13 is_stmt 1 view .LVU550
 2502              	.LBB1012:
  63:../../libdaisy/src/hid/disp/graphics_common.h **** 
 2503              		.loc 17 63 34 view .LVU551
 2504              	.LBE1012:
 2505              	.LBE1011:
 2506              	.LBB1013:
 2507              	.LBB982:
  63:../../libdaisy/src/hid/disp/graphics_common.h **** 
 2508              		.loc 17 63 54 is_stmt 0 view .LVU552
 2509 0264 BFF604AF 		bge	.L138
 2510              	.LVL172:
 2511              	.L195:
  63:../../libdaisy/src/hid/disp/graphics_common.h **** 
 2512              		.loc 17 63 54 view .LVU553
 2513 0268 0133     		adds	r3, r3, #1
 2514 026a 01E7     		b	.L138
 2515              	.LVL173:
 2516              	.L130:
  63:../../libdaisy/src/hid/disp/graphics_common.h **** 
 2517              		.loc 17 63 54 view .LVU554
 2518              	.LBE982:
 2519              	.LBE1013:
 213:../../libdaisy/src/hid/disp/graphics_common.h ****                 return {other.x_, other.y_, width_, height_};
 2520              		.loc 17 213 13 is_stmt 1 view .LVU555
 214:../../libdaisy/src/hid/disp/graphics_common.h ****             case Alignment::topRight:
 2521              		.loc 17 214 17 view .LVU556
 214:../../libdaisy/src/hid/disp/graphics_common.h ****             case Alignment::topRight:
 2522              		.loc 17 214 31 is_stmt 0 view .LVU557
 2523 026c B6F90070 		ldrsh	r7, [r6]
 2524              	.LBB1014:
 2525              	.LBB1015:
 2526              	.LBB1016:
  32:../../libdaisy/src/hid/disp/graphics_common.h ****     {
 2527              		.loc 17 32 66 view .LVU558
 2528 0270 099B     		ldr	r3, [sp, #36]
 2529              	.LVL174:
  32:../../libdaisy/src/hid/disp/graphics_common.h ****     {
 2530              		.loc 17 32 66 view .LVU559
 2531              	.LBE1016:
 2532              	.LBE1015:
 2533              	.LBE1014:
 214:../../libdaisy/src/hid/disp/graphics_common.h ****             case Alignment::topRight:
ARM GAS  /tmp/ccZhYDze.s 			page 82


 2534              		.loc 17 214 41 view .LVU560
 2535 0272 B6F90260 		ldrsh	r6, [r6, #2]
 2536              	.LVL175:
 2537              	.LBB1025:
 2538              	.LBI1014:
  31:../../libdaisy/src/hid/disp/graphics_common.h ****     : x_(x), y_(y), width_(max(0, width)), height_(max(0, height))
 2539              		.loc 17 31 5 is_stmt 1 view .LVU561
 2540              	.LBB1022:
 2541              	.LBB1019:
  32:../../libdaisy/src/hid/disp/graphics_common.h ****     {
 2542              		.loc 17 32 66 is_stmt 0 view .LVU562
 2543 0276 1F80     		strh	r7, [r3]	@ movhi
 2544 0278 BFB2     		uxth	r7, r7
 2545              	.LVL176:
  32:../../libdaisy/src/hid/disp/graphics_common.h ****     {
 2546              		.loc 17 32 66 view .LVU563
 2547 027a 5E80     		strh	r6, [r3, #2]	@ movhi
 2548              	.LVL177:
 2549              	.LBB1017:
 2550              	.LBI1017:
 2551              		.loc 17 261 13 is_stmt 1 view .LVU564
 2552              		.loc 17 261 13 is_stmt 0 view .LVU565
 2553              	.LBE1017:
 2554              	.LBE1019:
 2555              	.LBE1022:
 2556              	.LBE1025:
 2557              	.LBE1167:
 2558              	.LBE1233:
 2559              		.loc 17 261 41 is_stmt 1 view .LVU566
 2560              		.loc 17 261 41 is_stmt 0 view .LVU567
 2561 027c B6B2     		uxth	r6, r6
 2562              	.LVL178:
 2563              	.LBB1234:
 2564              	.LBB1168:
 2565              	.LBB1026:
 2566              	.LBB1023:
 2567              	.LBB1020:
  32:../../libdaisy/src/hid/disp/graphics_common.h ****     {
 2568              		.loc 17 32 66 view .LVU568
 2569 027e 9A80     		strh	r2, [r3, #4]	@ movhi
 2570              	.LVL179:
 2571              	.LBB1018:
 2572              	.LBI1018:
 2573              		.loc 17 261 13 is_stmt 1 view .LVU569
 2574              		.loc 17 261 13 is_stmt 0 view .LVU570
 2575              	.LBE1018:
 2576              	.LBE1020:
 2577              	.LBE1023:
 2578              	.LBE1026:
 2579              	.LBE1168:
 2580              	.LBE1234:
 2581              		.loc 17 261 41 is_stmt 1 view .LVU571
 2582              	.LBB1235:
 2583              	.LBB1169:
 2584              	.LBB1027:
 2585              	.LBB1024:
 2586              	.LBB1021:
ARM GAS  /tmp/ccZhYDze.s 			page 83


  32:../../libdaisy/src/hid/disp/graphics_common.h ****     {
 2587              		.loc 17 32 66 is_stmt 0 view .LVU572
 2588 0280 D980     		strh	r1, [r3, #6]	@ movhi
 2589              	.LBE1021:
  34:../../libdaisy/src/hid/disp/graphics_common.h **** 
 2590              		.loc 17 34 5 view .LVU573
 2591 0282 02E7     		b	.L132
 2592              	.LVL180:
 2593              	.L129:
  34:../../libdaisy/src/hid/disp/graphics_common.h **** 
 2594              		.loc 17 34 5 view .LVU574
 2595              	.LBE1024:
 2596              	.LBE1027:
 220:../../libdaisy/src/hid/disp/graphics_common.h ****                 return {int16_t(x_ + (other.GetCenterX() - GetCenterX())),
 2597              		.loc 17 220 13 is_stmt 1 view .LVU575
 221:../../libdaisy/src/hid/disp/graphics_common.h ****                         other.y_,
 2598              		.loc 17 221 17 view .LVU576
 2599              	.LBB1028:
 2600              	.LBI1028:
  62:../../libdaisy/src/hid/disp/graphics_common.h ****     int16_t GetCenterY() const { return y_ + height_ / 2; }
 2601              		.loc 17 62 13 view .LVU577
 2602              	.LBB1029:
  62:../../libdaisy/src/hid/disp/graphics_common.h ****     int16_t GetCenterY() const { return y_ + height_ / 2; }
 2603              		.loc 17 62 34 view .LVU578
  62:../../libdaisy/src/hid/disp/graphics_common.h ****     int16_t GetCenterY() const { return y_ + height_ / 2; }
 2604              		.loc 17 62 34 is_stmt 0 view .LVU579
 2605              	.LBE1029:
 2606              	.LBE1028:
 2607              	.LBB1032:
 2608              	.LBI1032:
  62:../../libdaisy/src/hid/disp/graphics_common.h ****     int16_t GetCenterY() const { return y_ + height_ / 2; }
 2609              		.loc 17 62 13 is_stmt 1 view .LVU580
 2610              	.LBB1033:
  62:../../libdaisy/src/hid/disp/graphics_common.h ****     int16_t GetCenterY() const { return y_ + height_ / 2; }
 2611              		.loc 17 62 34 view .LVU581
 2612              	.LBE1033:
 2613              	.LBE1032:
 2614              	.LBB1034:
 2615              	.LBB1030:
  62:../../libdaisy/src/hid/disp/graphics_common.h ****     int16_t GetCenterY() const { return y_ + height_ / 2; }
 2616              		.loc 17 62 53 is_stmt 0 view .LVU582
 2617 0284 B6F90430 		ldrsh	r3, [r6, #4]
 2618              	.LVL181:
  62:../../libdaisy/src/hid/disp/graphics_common.h ****     int16_t GetCenterY() const { return y_ + height_ / 2; }
 2619              		.loc 17 62 44 view .LVU583
 2620 0288 3788     		ldrh	r7, [r6]
  62:../../libdaisy/src/hid/disp/graphics_common.h ****     int16_t GetCenterY() const { return y_ + height_ / 2; }
 2621              		.loc 17 62 53 view .LVU584
 2622 028a 002B     		cmp	r3, #0
 2623              	.LBE1030:
 2624              	.LBE1034:
 222:../../libdaisy/src/hid/disp/graphics_common.h ****                         width_,
 2625              		.loc 17 222 31 view .LVU585
 2626 028c B6F90260 		ldrsh	r6, [r6, #2]
 2627              	.LVL182:
 2628              	.LBB1035:
 2629              	.LBB1031:
ARM GAS  /tmp/ccZhYDze.s 			page 84


  62:../../libdaisy/src/hid/disp/graphics_common.h ****     int16_t GetCenterY() const { return y_ + height_ / 2; }
 2630              		.loc 17 62 53 view .LVU586
 2631 0290 B8BF     		it	lt
 2632 0292 0133     		addlt	r3, r3, #1
  62:../../libdaisy/src/hid/disp/graphics_common.h ****     int16_t GetCenterY() const { return y_ + height_ / 2; }
 2633              		.loc 17 62 44 view .LVU587
 2634 0294 07EB6307 		add	r7, r7, r3, asr #1
 2635              	.LBE1031:
 2636              	.LBE1035:
 2637              	.LBB1036:
 2638              	.LBB1037:
 2639              	.LBB1038:
  32:../../libdaisy/src/hid/disp/graphics_common.h ****     {
 2640              		.loc 17 32 66 view .LVU588
 2641 0298 099B     		ldr	r3, [sp, #36]
 2642 029a 9A80     		strh	r2, [r3, #4]	@ movhi
 2643              	.LBE1038:
 2644              	.LBE1037:
 2645              	.LBE1036:
 221:../../libdaisy/src/hid/disp/graphics_common.h ****                         other.y_,
 2646              		.loc 17 221 58 view .LVU589
 2647 029c A7EB6202 		sub	r2, r7, r2, asr #1
 2648              	.LBB1049:
 2649              	.LBB1045:
 2650              	.LBB1041:
  32:../../libdaisy/src/hid/disp/graphics_common.h ****     {
 2651              		.loc 17 32 66 view .LVU590
 2652 02a0 5E80     		strh	r6, [r3, #2]	@ movhi
 2653 02a2 B6B2     		uxth	r6, r6
 2654              	.LBE1041:
 2655              	.LBE1045:
 2656              	.LBE1049:
 221:../../libdaisy/src/hid/disp/graphics_common.h ****                         other.y_,
 2657              		.loc 17 221 58 view .LVU591
 2658 02a4 97B2     		uxth	r7, r2
 2659              	.LVL183:
 2660              	.LBB1050:
 2661              	.LBI1036:
  31:../../libdaisy/src/hid/disp/graphics_common.h ****     : x_(x), y_(y), width_(max(0, width)), height_(max(0, height))
 2662              		.loc 17 31 5 is_stmt 1 view .LVU592
 2663              	.LBB1046:
 2664              	.LBB1042:
 2665              	.LBB1039:
 2666              	.LBI1039:
 2667              		.loc 17 261 13 view .LVU593
 2668              		.loc 17 261 13 is_stmt 0 view .LVU594
 2669              	.LBE1039:
 2670              	.LBE1042:
 2671              	.LBE1046:
 2672              	.LBE1050:
 2673              	.LBE1169:
 2674              	.LBE1235:
 2675              		.loc 17 261 41 is_stmt 1 view .LVU595
 2676              	.LBB1236:
 2677              	.LBB1170:
 2678              	.LBB1051:
 2679              	.LBB1047:
ARM GAS  /tmp/ccZhYDze.s 			page 85


 2680              	.LBB1043:
 2681              	.LBB1040:
 2682              	.LBI1040:
 2683              		.loc 17 261 13 view .LVU596
 2684              		.loc 17 261 13 is_stmt 0 view .LVU597
 2685              	.LBE1040:
 2686              	.LBE1043:
 2687              	.LBE1047:
 2688              	.LBE1051:
 2689              	.LBE1170:
 2690              	.LBE1236:
 2691              		.loc 17 261 41 is_stmt 1 view .LVU598
 2692              	.LBB1237:
 2693              	.LBB1171:
 2694              	.LBB1052:
 2695              	.LBB1048:
 2696              	.LBB1044:
  32:../../libdaisy/src/hid/disp/graphics_common.h ****     {
 2697              		.loc 17 32 66 is_stmt 0 view .LVU599
 2698 02a6 D980     		strh	r1, [r3, #6]	@ movhi
 2699 02a8 1F80     		strh	r7, [r3]	@ movhi
 2700              	.LBE1044:
  34:../../libdaisy/src/hid/disp/graphics_common.h **** 
 2701              		.loc 17 34 5 view .LVU600
 2702 02aa EEE6     		b	.L132
 2703              	.LVL184:
 2704              	.L128:
  34:../../libdaisy/src/hid/disp/graphics_common.h **** 
 2705              		.loc 17 34 5 view .LVU601
 2706              	.LBE1048:
 2707              	.LBE1052:
 215:../../libdaisy/src/hid/disp/graphics_common.h ****                 return {int16_t(other.GetRight() - width_),
 2708              		.loc 17 215 13 is_stmt 1 view .LVU602
 216:../../libdaisy/src/hid/disp/graphics_common.h ****                         other.y_,
 2709              		.loc 17 216 17 view .LVU603
 2710              	.LBB1053:
 2711              	.LBI1053:
  60:../../libdaisy/src/hid/disp/graphics_common.h ****     int16_t GetBottom() const { return y_ + height_; }
 2712              		.loc 17 60 13 view .LVU604
 2713              	.LBB1054:
  60:../../libdaisy/src/hid/disp/graphics_common.h ****     int16_t GetBottom() const { return y_ + height_; }
 2714              		.loc 17 60 32 view .LVU605
  60:../../libdaisy/src/hid/disp/graphics_common.h ****     int16_t GetBottom() const { return y_ + height_; }
 2715              		.loc 17 60 42 is_stmt 0 view .LVU606
 2716 02ac B388     		ldrh	r3, [r6, #4]
 2717              	.LVL185:
  60:../../libdaisy/src/hid/disp/graphics_common.h ****     int16_t GetBottom() const { return y_ + height_; }
 2718              		.loc 17 60 42 view .LVU607
 2719 02ae 3788     		ldrh	r7, [r6]
 2720              	.LBE1054:
 2721              	.LBE1053:
 217:../../libdaisy/src/hid/disp/graphics_common.h ****                         width_,
 2722              		.loc 17 217 31 view .LVU608
 2723 02b0 B6F90260 		ldrsh	r6, [r6, #2]
 2724              	.LVL186:
 2725              	.LBB1056:
 2726              	.LBB1055:
ARM GAS  /tmp/ccZhYDze.s 			page 86


  60:../../libdaisy/src/hid/disp/graphics_common.h ****     int16_t GetBottom() const { return y_ + height_; }
 2727              		.loc 17 60 42 view .LVU609
 2728 02b4 1F44     		add	r7, r7, r3
 2729              	.LBE1055:
 2730              	.LBE1056:
 2731              	.LBB1057:
 2732              	.LBB1058:
 2733              	.LBB1059:
  32:../../libdaisy/src/hid/disp/graphics_common.h ****     {
 2734              		.loc 17 32 66 view .LVU610
 2735 02b6 099B     		ldr	r3, [sp, #36]
 2736 02b8 9A80     		strh	r2, [r3, #4]	@ movhi
 2737              	.LBE1059:
 2738              	.LBE1058:
 2739              	.LBE1057:
 216:../../libdaisy/src/hid/disp/graphics_common.h ****                         other.y_,
 2740              		.loc 17 216 50 view .LVU611
 2741 02ba BA1A     		subs	r2, r7, r2
 2742              	.LBB1070:
 2743              	.LBB1066:
 2744              	.LBB1062:
  32:../../libdaisy/src/hid/disp/graphics_common.h ****     {
 2745              		.loc 17 32 66 view .LVU612
 2746 02bc 5E80     		strh	r6, [r3, #2]	@ movhi
 2747 02be B6B2     		uxth	r6, r6
 2748              	.LBE1062:
 2749              	.LBE1066:
 2750              	.LBE1070:
 216:../../libdaisy/src/hid/disp/graphics_common.h ****                         other.y_,
 2751              		.loc 17 216 50 view .LVU613
 2752 02c0 97B2     		uxth	r7, r2
 2753              	.LVL187:
 2754              	.LBB1071:
 2755              	.LBI1057:
  31:../../libdaisy/src/hid/disp/graphics_common.h ****     : x_(x), y_(y), width_(max(0, width)), height_(max(0, height))
 2756              		.loc 17 31 5 is_stmt 1 view .LVU614
 2757              	.LBB1067:
 2758              	.LBB1063:
 2759              	.LBB1060:
 2760              	.LBI1060:
 2761              		.loc 17 261 13 view .LVU615
 2762              		.loc 17 261 13 is_stmt 0 view .LVU616
 2763              	.LBE1060:
 2764              	.LBE1063:
 2765              	.LBE1067:
 2766              	.LBE1071:
 2767              	.LBE1171:
 2768              	.LBE1237:
 2769              		.loc 17 261 41 is_stmt 1 view .LVU617
 2770              	.LBB1238:
 2771              	.LBB1172:
 2772              	.LBB1072:
 2773              	.LBB1068:
 2774              	.LBB1064:
 2775              	.LBB1061:
 2776              	.LBI1061:
 2777              		.loc 17 261 13 view .LVU618
ARM GAS  /tmp/ccZhYDze.s 			page 87


 2778              		.loc 17 261 13 is_stmt 0 view .LVU619
 2779              	.LBE1061:
 2780              	.LBE1064:
 2781              	.LBE1068:
 2782              	.LBE1072:
 2783              	.LBE1172:
 2784              	.LBE1238:
 2785              		.loc 17 261 41 is_stmt 1 view .LVU620
 2786              	.LBB1239:
 2787              	.LBB1173:
 2788              	.LBB1073:
 2789              	.LBB1069:
 2790              	.LBB1065:
  32:../../libdaisy/src/hid/disp/graphics_common.h ****     {
 2791              		.loc 17 32 66 is_stmt 0 view .LVU621
 2792 02c2 D980     		strh	r1, [r3, #6]	@ movhi
 2793 02c4 1F80     		strh	r7, [r3]	@ movhi
 2794              	.LBE1065:
  34:../../libdaisy/src/hid/disp/graphics_common.h **** 
 2795              		.loc 17 34 5 view .LVU622
 2796 02c6 E0E6     		b	.L132
 2797              	.LVL188:
 2798              	.L127:
  34:../../libdaisy/src/hid/disp/graphics_common.h **** 
 2799              		.loc 17 34 5 view .LVU623
 2800              	.LBE1069:
 2801              	.LBE1073:
 225:../../libdaisy/src/hid/disp/graphics_common.h ****                 return {other.x_,
 2802              		.loc 17 225 13 is_stmt 1 view .LVU624
 226:../../libdaisy/src/hid/disp/graphics_common.h ****                         int16_t(other.GetBottom() - height_),
 2803              		.loc 17 226 17 view .LVU625
 2804              	.LBB1074:
 2805              	.LBB1075:
  61:../../libdaisy/src/hid/disp/graphics_common.h ****     int16_t GetCenterX() const { return x_ + width_ / 2; }
 2806              		.loc 17 61 43 is_stmt 0 view .LVU626
 2807 02c8 7388     		ldrh	r3, [r6, #2]
 2808              	.LVL189:
  61:../../libdaisy/src/hid/disp/graphics_common.h ****     int16_t GetCenterX() const { return x_ + width_ / 2; }
 2809              		.loc 17 61 43 view .LVU627
 2810 02ca B6F806C0 		ldrh	ip, [r6, #6]
 2811              	.LBE1075:
 2812              	.LBE1074:
 226:../../libdaisy/src/hid/disp/graphics_common.h ****                         int16_t(other.GetBottom() - height_),
 2813              		.loc 17 226 31 view .LVU628
 2814 02ce B6F90070 		ldrsh	r7, [r6]
 2815              	.LBB1077:
 2816              	.LBI1074:
  61:../../libdaisy/src/hid/disp/graphics_common.h ****     int16_t GetCenterX() const { return x_ + width_ / 2; }
 2817              		.loc 17 61 13 is_stmt 1 view .LVU629
 2818              	.LVL190:
 2819              	.LBB1076:
  61:../../libdaisy/src/hid/disp/graphics_common.h ****     int16_t GetCenterX() const { return x_ + width_ / 2; }
 2820              		.loc 17 61 33 view .LVU630
  61:../../libdaisy/src/hid/disp/graphics_common.h ****     int16_t GetCenterX() const { return x_ + width_ / 2; }
 2821              		.loc 17 61 43 is_stmt 0 view .LVU631
 2822 02d2 9C44     		add	ip, ip, r3
 2823              	.LBE1076:
ARM GAS  /tmp/ccZhYDze.s 			page 88


 2824              	.LBE1077:
 2825              	.LBB1078:
 2826              	.LBB1079:
 2827              	.LBB1080:
  32:../../libdaisy/src/hid/disp/graphics_common.h ****     {
 2828              		.loc 17 32 66 view .LVU632
 2829 02d4 099B     		ldr	r3, [sp, #36]
 2830              	.LBE1080:
 2831              	.LBE1079:
 2832              	.LBE1078:
 227:../../libdaisy/src/hid/disp/graphics_common.h ****                         width_,
 2833              		.loc 17 227 51 view .LVU633
 2834 02d6 ACEB0000 		sub	r0, ip, r0
 2835              	.LBB1090:
 2836              	.LBB1086:
 2837              	.LBB1083:
  32:../../libdaisy/src/hid/disp/graphics_common.h ****     {
 2838              		.loc 17 32 66 view .LVU634
 2839 02da 1F80     		strh	r7, [r3]	@ movhi
 2840 02dc 9A80     		strh	r2, [r3, #4]	@ movhi
 2841 02de BFB2     		uxth	r7, r7
 2842              	.LBE1083:
 2843              	.LBE1086:
 2844              	.LBE1090:
 227:../../libdaisy/src/hid/disp/graphics_common.h ****                         width_,
 2845              		.loc 17 227 51 view .LVU635
 2846 02e0 86B2     		uxth	r6, r0
 2847              	.LVL191:
 2848              	.LBB1091:
 2849              	.LBI1078:
  31:../../libdaisy/src/hid/disp/graphics_common.h ****     : x_(x), y_(y), width_(max(0, width)), height_(max(0, height))
 2850              		.loc 17 31 5 is_stmt 1 view .LVU636
 2851              	.LBB1087:
 2852              	.LBB1084:
  32:../../libdaisy/src/hid/disp/graphics_common.h ****     {
 2853              		.loc 17 32 66 is_stmt 0 view .LVU637
 2854 02e2 D980     		strh	r1, [r3, #6]	@ movhi
 2855 02e4 5E80     		strh	r6, [r3, #2]	@ movhi
 2856              	.LVL192:
 2857              	.LBB1081:
 2858              	.LBI1081:
 2859              		.loc 17 261 13 is_stmt 1 view .LVU638
 2860              		.loc 17 261 13 is_stmt 0 view .LVU639
 2861              	.LBE1081:
 2862              	.LBE1084:
 2863              	.LBE1087:
 2864              	.LBE1091:
 2865              	.LBE1173:
 2866              	.LBE1239:
 2867              		.loc 17 261 41 is_stmt 1 view .LVU640
 2868              	.LBB1240:
 2869              	.LBB1174:
 2870              	.LBB1092:
 2871              	.LBB1088:
 2872              	.LBB1085:
 2873              	.LBB1082:
 2874              	.LBI1082:
ARM GAS  /tmp/ccZhYDze.s 			page 89


 2875              		.loc 17 261 13 view .LVU641
 2876              		.loc 17 261 13 is_stmt 0 view .LVU642
 2877              	.LBE1082:
 2878              	.LBE1085:
 2879              	.LBE1088:
 2880              	.LBE1092:
 2881              	.LBE1174:
 2882              	.LBE1240:
 2883              		.loc 17 261 41 is_stmt 1 view .LVU643
 2884              	.LBB1241:
 2885              	.LBB1175:
 2886              	.LBB1093:
 2887              	.LBB1089:
  34:../../libdaisy/src/hid/disp/graphics_common.h **** 
 2888              		.loc 17 34 5 is_stmt 0 view .LVU644
 2889 02e6 D0E6     		b	.L132
 2890              	.LVL193:
 2891              	.L126:
  34:../../libdaisy/src/hid/disp/graphics_common.h **** 
 2892              		.loc 17 34 5 view .LVU645
 2893              	.LBE1089:
 2894              	.LBE1093:
 235:../../libdaisy/src/hid/disp/graphics_common.h ****                 return {int16_t(x_ + (other.GetCenterX() - GetCenterX())),
 2895              		.loc 17 235 13 is_stmt 1 view .LVU646
 236:../../libdaisy/src/hid/disp/graphics_common.h ****                         int16_t(other.GetBottom() - height_),
 2896              		.loc 17 236 17 view .LVU647
 2897              	.LBB1094:
 2898              	.LBI1094:
  62:../../libdaisy/src/hid/disp/graphics_common.h ****     int16_t GetCenterY() const { return y_ + height_ / 2; }
 2899              		.loc 17 62 13 view .LVU648
 2900              	.LBB1095:
  62:../../libdaisy/src/hid/disp/graphics_common.h ****     int16_t GetCenterY() const { return y_ + height_ / 2; }
 2901              		.loc 17 62 34 view .LVU649
  62:../../libdaisy/src/hid/disp/graphics_common.h ****     int16_t GetCenterY() const { return y_ + height_ / 2; }
 2902              		.loc 17 62 34 is_stmt 0 view .LVU650
 2903              	.LBE1095:
 2904              	.LBE1094:
 2905              	.LBB1099:
 2906              	.LBI1099:
  62:../../libdaisy/src/hid/disp/graphics_common.h ****     int16_t GetCenterY() const { return y_ + height_ / 2; }
 2907              		.loc 17 62 13 is_stmt 1 view .LVU651
 2908              	.LBB1100:
  62:../../libdaisy/src/hid/disp/graphics_common.h ****     int16_t GetCenterY() const { return y_ + height_ / 2; }
 2909              		.loc 17 62 34 view .LVU652
 2910              	.LBE1100:
 2911              	.LBE1099:
 2912              	.LBB1101:
 2913              	.LBB1096:
  62:../../libdaisy/src/hid/disp/graphics_common.h ****     int16_t GetCenterY() const { return y_ + height_ / 2; }
 2914              		.loc 17 62 53 is_stmt 0 view .LVU653
 2915 02e8 B6F904C0 		ldrsh	ip, [r6, #4]
  62:../../libdaisy/src/hid/disp/graphics_common.h ****     int16_t GetCenterY() const { return y_ + height_ / 2; }
 2916              		.loc 17 62 44 view .LVU654
 2917 02ec 3788     		ldrh	r7, [r6]
  62:../../libdaisy/src/hid/disp/graphics_common.h ****     int16_t GetCenterY() const { return y_ + height_ / 2; }
 2918              		.loc 17 62 53 view .LVU655
 2919 02ee BCF1000F 		cmp	ip, #0
ARM GAS  /tmp/ccZhYDze.s 			page 90


 2920              	.LBE1096:
 2921              	.LBE1101:
 2922              	.LBB1102:
 2923              	.LBB1103:
  61:../../libdaisy/src/hid/disp/graphics_common.h ****     int16_t GetCenterX() const { return x_ + width_ / 2; }
 2924              		.loc 17 61 43 view .LVU656
 2925 02f2 7388     		ldrh	r3, [r6, #2]
 2926              	.LVL194:
  61:../../libdaisy/src/hid/disp/graphics_common.h ****     int16_t GetCenterX() const { return x_ + width_ / 2; }
 2927              		.loc 17 61 43 view .LVU657
 2928 02f4 B6F806E0 		ldrh	lr, [r6, #6]
 2929              	.LBE1103:
 2930              	.LBE1102:
 2931              	.LBB1106:
 2932              	.LBB1097:
  62:../../libdaisy/src/hid/disp/graphics_common.h ****     int16_t GetCenterY() const { return y_ + height_ / 2; }
 2933              		.loc 17 62 53 view .LVU658
 2934 02f8 B8BF     		it	lt
 2935 02fa 0CF1010C 		addlt	ip, ip, #1
 2936              	.LBE1097:
 2937              	.LBE1106:
 2938              	.LBB1107:
 2939              	.LBB1108:
 2940              	.LBB1109:
  32:../../libdaisy/src/hid/disp/graphics_common.h ****     {
 2941              		.loc 17 32 66 view .LVU659
 2942 02fe 099E     		ldr	r6, [sp, #36]
 2943              	.LVL195:
  32:../../libdaisy/src/hid/disp/graphics_common.h ****     {
 2944              		.loc 17 32 66 view .LVU660
 2945              	.LBE1109:
 2946              	.LBE1108:
 2947              	.LBE1107:
 2948              	.LBB1121:
 2949              	.LBB1098:
  62:../../libdaisy/src/hid/disp/graphics_common.h ****     int16_t GetCenterY() const { return y_ + height_ / 2; }
 2950              		.loc 17 62 44 view .LVU661
 2951 0300 07EB6C07 		add	r7, r7, ip, asr #1
 2952              	.LBE1098:
 2953              	.LBE1121:
 2954              	.LBB1122:
 2955              	.LBB1116:
 2956              	.LBB1112:
  32:../../libdaisy/src/hid/disp/graphics_common.h ****     {
 2957              		.loc 17 32 66 view .LVU662
 2958 0304 B280     		strh	r2, [r6, #4]	@ movhi
 2959              	.LBE1112:
 2960              	.LBE1116:
 2961              	.LBE1122:
 2962              	.LBB1123:
 2963              	.LBB1104:
  61:../../libdaisy/src/hid/disp/graphics_common.h ****     int16_t GetCenterX() const { return x_ + width_ / 2; }
 2964              		.loc 17 61 43 view .LVU663
 2965 0306 0EEB0306 		add	r6, lr, r3
 2966              	.LBE1104:
 2967              	.LBE1123:
 236:../../libdaisy/src/hid/disp/graphics_common.h ****                         int16_t(other.GetBottom() - height_),
ARM GAS  /tmp/ccZhYDze.s 			page 91


 2968              		.loc 17 236 58 view .LVU664
 2969 030a A7EB6202 		sub	r2, r7, r2, asr #1
 2970              	.LVL196:
 2971              	.L192:
 237:../../libdaisy/src/hid/disp/graphics_common.h ****                         width_,
 2972              		.loc 17 237 51 view .LVU665
 2973 030e 301A     		subs	r0, r6, r0
 2974              	.LBB1124:
 2975              	.LBB1117:
 2976              	.LBB1113:
  32:../../libdaisy/src/hid/disp/graphics_common.h ****     {
 2977              		.loc 17 32 66 view .LVU666
 2978 0310 099B     		ldr	r3, [sp, #36]
 2979              	.LBE1113:
 2980              	.LBE1117:
 2981              	.LBE1124:
 236:../../libdaisy/src/hid/disp/graphics_common.h ****                         int16_t(other.GetBottom() - height_),
 2982              		.loc 17 236 58 view .LVU667
 2983 0312 97B2     		uxth	r7, r2
 2984              	.LBB1125:
 2985              	.LBI1102:
  61:../../libdaisy/src/hid/disp/graphics_common.h ****     int16_t GetCenterX() const { return x_ + width_ / 2; }
 2986              		.loc 17 61 13 is_stmt 1 view .LVU668
 2987              	.LVL197:
 2988              	.LBB1105:
  61:../../libdaisy/src/hid/disp/graphics_common.h ****     int16_t GetCenterX() const { return x_ + width_ / 2; }
 2989              		.loc 17 61 33 view .LVU669
 2990              	.LBE1105:
 2991              	.LBE1125:
 237:../../libdaisy/src/hid/disp/graphics_common.h ****                         width_,
 2992              		.loc 17 237 51 is_stmt 0 view .LVU670
 2993 0314 86B2     		uxth	r6, r0
 2994              	.LVL198:
 2995              	.LBB1126:
 2996              	.LBI1107:
  31:../../libdaisy/src/hid/disp/graphics_common.h ****     : x_(x), y_(y), width_(max(0, width)), height_(max(0, height))
 2997              		.loc 17 31 5 is_stmt 1 view .LVU671
 2998              	.LBB1118:
 2999              	.LBB1114:
  32:../../libdaisy/src/hid/disp/graphics_common.h ****     {
 3000              		.loc 17 32 66 is_stmt 0 view .LVU672
 3001 0316 D980     		strh	r1, [r3, #6]	@ movhi
 3002 0318 1F80     		strh	r7, [r3]	@ movhi
 3003 031a 5E80     		strh	r6, [r3, #2]	@ movhi
 3004              	.LVL199:
 3005              	.LBB1110:
 3006              	.LBI1110:
 3007              		.loc 17 261 13 is_stmt 1 view .LVU673
 3008              		.loc 17 261 13 is_stmt 0 view .LVU674
 3009              	.LBE1110:
 3010              	.LBE1114:
 3011              	.LBE1118:
 3012              	.LBE1126:
 3013              	.LBE1175:
 3014              	.LBE1241:
 3015              		.loc 17 261 41 is_stmt 1 view .LVU675
 3016              	.LBB1242:
ARM GAS  /tmp/ccZhYDze.s 			page 92


 3017              	.LBB1176:
 3018              	.LBB1127:
 3019              	.LBB1119:
 3020              	.LBB1115:
 3021              	.LBB1111:
 3022              	.LBI1111:
 3023              		.loc 17 261 13 view .LVU676
 3024              		.loc 17 261 13 is_stmt 0 view .LVU677
 3025              	.LBE1111:
 3026              	.LBE1115:
 3027              	.LBE1119:
 3028              	.LBE1127:
 3029              	.LBE1176:
 3030              	.LBE1242:
 3031              		.loc 17 261 41 is_stmt 1 view .LVU678
 3032              	.LBB1243:
 3033              	.LBB1177:
 3034              	.LBB1128:
 3035              	.LBB1120:
  34:../../libdaisy/src/hid/disp/graphics_common.h **** 
 3036              		.loc 17 34 5 is_stmt 0 view .LVU679
 3037 031c B5E6     		b	.L132
 3038              	.LVL200:
 3039              	.L125:
  34:../../libdaisy/src/hid/disp/graphics_common.h **** 
 3040              		.loc 17 34 5 view .LVU680
 3041              	.LBE1120:
 3042              	.LBE1128:
 230:../../libdaisy/src/hid/disp/graphics_common.h ****                 return {int16_t(other.GetRight() - width_),
 3043              		.loc 17 230 13 is_stmt 1 view .LVU681
 231:../../libdaisy/src/hid/disp/graphics_common.h ****                         int16_t(other.GetBottom() - height_),
 3044              		.loc 17 231 17 view .LVU682
 3045              	.LBB1129:
 3046              	.LBI1129:
  60:../../libdaisy/src/hid/disp/graphics_common.h ****     int16_t GetBottom() const { return y_ + height_; }
 3047              		.loc 17 60 13 view .LVU683
 3048              	.LBB1130:
  60:../../libdaisy/src/hid/disp/graphics_common.h ****     int16_t GetBottom() const { return y_ + height_; }
 3049              		.loc 17 60 32 view .LVU684
  60:../../libdaisy/src/hid/disp/graphics_common.h ****     int16_t GetBottom() const { return y_ + height_; }
 3050              		.loc 17 60 42 is_stmt 0 view .LVU685
 3051 031e B6F804C0 		ldrh	ip, [r6, #4]
 3052 0322 3788     		ldrh	r7, [r6]
 3053              	.LBE1130:
 3054              	.LBE1129:
 3055              	.LBB1132:
 3056              	.LBB1133:
  61:../../libdaisy/src/hid/disp/graphics_common.h ****     int16_t GetCenterX() const { return x_ + width_ / 2; }
 3057              		.loc 17 61 43 view .LVU686
 3058 0324 7388     		ldrh	r3, [r6, #2]
 3059              	.LVL201:
  61:../../libdaisy/src/hid/disp/graphics_common.h ****     int16_t GetCenterX() const { return x_ + width_ / 2; }
 3060              		.loc 17 61 43 view .LVU687
 3061 0326 B6F806E0 		ldrh	lr, [r6, #6]
 3062              	.LBE1133:
 3063              	.LBE1132:
 3064              	.LBB1135:
ARM GAS  /tmp/ccZhYDze.s 			page 93


 3065              	.LBB1131:
  60:../../libdaisy/src/hid/disp/graphics_common.h ****     int16_t GetBottom() const { return y_ + height_; }
 3066              		.loc 17 60 42 view .LVU688
 3067 032a 6744     		add	r7, r7, ip
 3068              	.LBE1131:
 3069              	.LBE1135:
 3070              	.LBB1136:
 3071              	.LBB1137:
 3072              	.LBB1138:
  32:../../libdaisy/src/hid/disp/graphics_common.h ****     {
 3073              		.loc 17 32 66 view .LVU689
 3074 032c 099E     		ldr	r6, [sp, #36]
 3075              	.LVL202:
  32:../../libdaisy/src/hid/disp/graphics_common.h ****     {
 3076              		.loc 17 32 66 view .LVU690
 3077 032e B280     		strh	r2, [r6, #4]	@ movhi
 3078              	.LBE1138:
 3079              	.LBE1137:
 3080              	.LBE1136:
 3081              	.LBB1139:
 3082              	.LBB1134:
  61:../../libdaisy/src/hid/disp/graphics_common.h ****     int16_t GetCenterX() const { return x_ + width_ / 2; }
 3083              		.loc 17 61 43 view .LVU691
 3084 0330 0EEB0306 		add	r6, lr, r3
 3085              	.LBE1134:
 3086              	.LBE1139:
 231:../../libdaisy/src/hid/disp/graphics_common.h ****                         int16_t(other.GetBottom() - height_),
 3087              		.loc 17 231 50 view .LVU692
 3088 0334 BA1A     		subs	r2, r7, r2
 3089 0336 EAE7     		b	.L192
 3090              	.LVL203:
 3091              	.L124:
 240:../../libdaisy/src/hid/disp/graphics_common.h ****                 return {other.x_,
 3092              		.loc 17 240 13 is_stmt 1 view .LVU693
 241:../../libdaisy/src/hid/disp/graphics_common.h ****                         int16_t(y_ + (other.GetCenterY() - GetCenterY())),
 3093              		.loc 17 241 17 view .LVU694
 3094              	.LBB1140:
 3095              	.LBB1141:
  63:../../libdaisy/src/hid/disp/graphics_common.h **** 
 3096              		.loc 17 63 54 is_stmt 0 view .LVU695
 3097 0338 B6F90630 		ldrsh	r3, [r6, #6]
 3098              	.LVL204:
  63:../../libdaisy/src/hid/disp/graphics_common.h **** 
 3099              		.loc 17 63 54 view .LVU696
 3100              	.LBE1141:
 3101              	.LBE1140:
 241:../../libdaisy/src/hid/disp/graphics_common.h ****                         int16_t(y_ + (other.GetCenterY() - GetCenterY())),
 3102              		.loc 17 241 31 view .LVU697
 3103 033c B6F90000 		ldrsh	r0, [r6]
 3104              	.LBB1146:
 3105              	.LBI1140:
  63:../../libdaisy/src/hid/disp/graphics_common.h **** 
 3106              		.loc 17 63 13 is_stmt 1 view .LVU698
 3107              	.LVL205:
 3108              	.LBB1142:
  63:../../libdaisy/src/hid/disp/graphics_common.h **** 
 3109              		.loc 17 63 34 view .LVU699
ARM GAS  /tmp/ccZhYDze.s 			page 94


  63:../../libdaisy/src/hid/disp/graphics_common.h **** 
 3110              		.loc 17 63 34 is_stmt 0 view .LVU700
 3111              	.LBE1142:
 3112              	.LBE1146:
 3113              	.LBB1147:
 3114              	.LBI1147:
  63:../../libdaisy/src/hid/disp/graphics_common.h **** 
 3115              		.loc 17 63 13 is_stmt 1 view .LVU701
 3116              	.LBB1148:
  63:../../libdaisy/src/hid/disp/graphics_common.h **** 
 3117              		.loc 17 63 34 view .LVU702
 3118              	.LBE1148:
 3119              	.LBE1147:
 3120              	.LBB1149:
 3121              	.LBB1143:
  63:../../libdaisy/src/hid/disp/graphics_common.h **** 
 3122              		.loc 17 63 54 is_stmt 0 view .LVU703
 3123 0340 002B     		cmp	r3, #0
  63:../../libdaisy/src/hid/disp/graphics_common.h **** 
 3124              		.loc 17 63 44 view .LVU704
 3125 0342 B6F802C0 		ldrh	ip, [r6, #2]
 3126              	.LBE1143:
 3127              	.LBE1149:
 3128              	.LBB1150:
 3129              	.LBB1151:
 3130              	.LBB1152:
  32:../../libdaisy/src/hid/disp/graphics_common.h ****     {
 3131              		.loc 17 32 66 view .LVU705
 3132 0346 099E     		ldr	r6, [sp, #36]
 3133              	.LVL206:
  32:../../libdaisy/src/hid/disp/graphics_common.h ****     {
 3134              		.loc 17 32 66 view .LVU706
 3135 0348 87B2     		uxth	r7, r0
 3136              	.LBE1152:
 3137              	.LBE1151:
 3138              	.LBE1150:
 3139              	.LBB1157:
 3140              	.LBB1144:
  63:../../libdaisy/src/hid/disp/graphics_common.h **** 
 3141              		.loc 17 63 54 view .LVU707
 3142 034a B8BF     		it	lt
 3143 034c 0133     		addlt	r3, r3, #1
 3144              	.LBE1144:
 3145              	.LBE1157:
 3146              	.LBB1158:
 3147              	.LBB1155:
 3148              	.LBB1153:
  32:../../libdaisy/src/hid/disp/graphics_common.h ****     {
 3149              		.loc 17 32 66 view .LVU708
 3150 034e 3080     		strh	r0, [r6]	@ movhi
 3151              	.LBE1153:
 3152              	.LBE1155:
 3153              	.LBE1158:
 3154              	.LBB1159:
 3155              	.LBB1145:
  63:../../libdaisy/src/hid/disp/graphics_common.h **** 
 3156              		.loc 17 63 44 view .LVU709
ARM GAS  /tmp/ccZhYDze.s 			page 95


 3157 0350 0CEB6306 		add	r6, ip, r3, asr #1
 3158              	.LBE1145:
 3159              	.LBE1159:
 3160              	.LBB1160:
 3161              	.LBB1156:
 3162              	.LBB1154:
  32:../../libdaisy/src/hid/disp/graphics_common.h ****     {
 3163              		.loc 17 32 66 view .LVU710
 3164 0354 099B     		ldr	r3, [sp, #36]
 3165 0356 1846     		mov	r0, r3
 3166 0358 91E6     		b	.L193
 3167              	.LVL207:
 3168              	.L152:
  32:../../libdaisy/src/hid/disp/graphics_common.h ****     {
 3169              		.loc 17 32 66 view .LVU711
 3170              	.LBE1154:
 3171              	.LBE1156:
 3172              	.LBE1160:
 3173              	.LBE1177:
 3174              	.LBE1243:
 3175              	.LBB1244:
 3176              	.LBB1232:
 3177              	.LBB1230:
 3178              	.LBB1229:
 402:../../libdaisy/src/hid/disp/display.h **** 
 3179              		.loc 6 402 20 view .LVU712
 3180 035a 0026     		movs	r6, #0
 3181              	.LVL208:
 402:../../libdaisy/src/hid/disp/display.h **** 
 3182              		.loc 6 402 20 view .LVU713
 3183 035c 67E7     		b	.L150
 3184              	.LVL209:
 3185              	.L198:
 405:../../libdaisy/src/hid/disp/display.h ****            || Height() < (currentY_ + font.FontHeight))
 3186              		.loc 6 405 17 view .LVU714
 3187 035e 2046     		mov	r0, r4
 3188 0360 9847     		blx	r3
 3189              	.LVL210:
 3190 0362 CDE6     		b	.L151
 3191              	.L206:
 3192              		.align	2
 3193              	.L205:
 3194 0364 00000000 		.word	_ZNK5daisy11OledDisplayINS_13SSD130xDriverILj128ELj64ENS_24SSD130x4WireSpiTransportEEEE5Widt
 3195 0368 00000000 		.word	_ZNK5daisy11OledDisplayINS_13SSD130xDriverILj128ELj64ENS_24SSD130x4WireSpiTransportEEEE6Heig
 3196              	.L199:
 406:../../libdaisy/src/hid/disp/display.h ****         {
 3197              		.loc 6 406 21 view .LVU715
 3198 036c 2046     		mov	r0, r4
 3199 036e 9847     		blx	r3
 3200              	.LVL211:
 3201 0370 D2E6     		b	.L153
 3202              	.LVL212:
 3203              	.L203:
 3204              	.LBB1228:
 3205              	.LBB1225:
 174:../../libdaisy/src/hid/disp/display.h ****     }
 3206              		.loc 6 174 33 view .LVU716
ARM GAS  /tmp/ccZhYDze.s 			page 96


 3207 0372 2046     		mov	r0, r4
 3208 0374 9847     		blx	r3
 3209              	.LVL213:
 3210 0376 4DE7     		b	.L167
 3211              	.LVL214:
 3212              	.L201:
 173:../../libdaisy/src/hid/disp/display.h ****         currentY_ = (y >= Height()) ? Height() - 1 : y;
 3213              		.loc 6 173 32 view .LVU717
 3214 0378 2046     		mov	r0, r4
 3215 037a 9847     		blx	r3
 3216              	.LVL215:
 3217 037c 2268     		ldr	r2, [r4]
 3218 037e 3AE7     		b	.L164
 3219              	.LVL216:
 3220              	.L154:
 173:../../libdaisy/src/hid/disp/display.h ****         currentY_ = (y >= Height()) ? Height() - 1 : y;
 3221              		.loc 6 173 32 view .LVU718
 3222 0380 B4F804C0 		ldrh	ip, [r4, #4]
 3223 0384 2DE7     		b	.L156
 3224              	.LVL217:
 3225              	.L204:
 174:../../libdaisy/src/hid/disp/display.h ****     }
 3226              		.loc 6 174 45 view .LVU719
 3227 0386 2046     		mov	r0, r4
 3228 0388 9847     		blx	r3
 3229              	.LVL218:
 3230 038a 0138     		subs	r0, r0, #1
 3231 038c 83B2     		uxth	r3, r0
 3232 038e 0293     		str	r3, [sp, #8]
 3233              	.LVL219:
 174:../../libdaisy/src/hid/disp/display.h ****     }
 3234              		.loc 6 174 45 view .LVU720
 3235 0390 4BE7     		b	.L168
 3236              	.LVL220:
 3237              	.L202:
 173:../../libdaisy/src/hid/disp/display.h ****         currentY_ = (y >= Height()) ? Height() - 1 : y;
 3238              		.loc 6 173 43 view .LVU721
 3239 0392 2046     		mov	r0, r4
 3240 0394 9847     		blx	r3
 3241              	.LVL221:
 3242 0396 0138     		subs	r0, r0, #1
 3243 0398 2268     		ldr	r2, [r4]
 3244 039a 85B2     		uxth	r5, r0
 3245              	.LVL222:
 173:../../libdaisy/src/hid/disp/display.h ****         currentY_ = (y >= Height()) ? Height() - 1 : y;
 3246              		.loc 6 173 43 view .LVU722
 3247 039c 33E7     		b	.L165
 3248              	.LVL223:
 3249              	.L121:
 173:../../libdaisy/src/hid/disp/display.h ****         currentY_ = (y >= Height()) ? Height() - 1 : y;
 3250              		.loc 6 173 43 view .LVU723
 3251              	.LBE1225:
 3252              	.LBE1228:
 3253              	.LBE1229:
 3254              	.LBE1230:
 3255              	.LBE1232:
 3256              	.LBE1244:
ARM GAS  /tmp/ccZhYDze.s 			page 97


 3257              	.LBB1245:
 3258              	.LBB1178:
 255:../../libdaisy/src/hid/disp/graphics_common.h ****         }
 3259              		.loc 17 255 13 is_stmt 1 view .LVU724
 255:../../libdaisy/src/hid/disp/graphics_common.h ****         }
 3260              		.loc 17 255 22 view .LVU725
 3261              	.LBB1161:
 3262              	.LBI1161:
  24:../../libdaisy/src/hid/disp/graphics_common.h **** 
 3263              		.loc 17 24 5 view .LVU726
 3264              	.LBE1161:
 3265              	.LBE1178:
 3266              	.LBE1245:
 3267              	.LBB1246:
 3268              	.LBB1184:
 173:../../libdaisy/src/hid/disp/display.h ****         currentY_ = (y >= Height()) ? Height() - 1 : y;
 3269              		.loc 6 173 33 is_stmt 0 view .LVU727
 3270 039e 2368     		ldr	r3, [r4]
 3271              	.LVL224:
 173:../../libdaisy/src/hid/disp/display.h ****         currentY_ = (y >= Height()) ? Height() - 1 : y;
 3272              		.loc 6 173 33 view .LVU728
 3273              	.LBE1184:
 3274              	.LBE1246:
 3275              	.LBB1247:
 3276              	.LBB1179:
 3277              	.LBB1164:
 3278              	.LBB1162:
  24:../../libdaisy/src/hid/disp/graphics_common.h **** 
 3279              		.loc 17 24 53 view .LVU729
 3280 03a0 0026     		movs	r6, #0
 3281              	.LVL225:
  24:../../libdaisy/src/hid/disp/graphics_common.h **** 
 3282              		.loc 17 24 53 view .LVU730
 3283 03a2 124F     		ldr	r7, .L207
 3284              	.LBE1162:
 3285              	.LBE1164:
 3286              	.LBE1179:
 3287              	.LBE1247:
 3288              	.LBB1248:
 3289              	.LBB1185:
 173:../../libdaisy/src/hid/disp/display.h ****         currentY_ = (y >= Height()) ? Height() - 1 : y;
 3290              		.loc 6 173 33 view .LVU731
 3291 03a4 DA68     		ldr	r2, [r3, #12]
 3292              	.LBE1185:
 3293              	.LBE1248:
 3294              	.LBB1249:
 3295              	.LBB1180:
 3296              	.LBB1165:
 3297              	.LBB1163:
  24:../../libdaisy/src/hid/disp/graphics_common.h **** 
 3298              		.loc 17 24 53 view .LVU732
 3299 03a6 0999     		ldr	r1, [sp, #36]
 3300 03a8 BA42     		cmp	r2, r7
 3301 03aa 0197     		str	r7, [sp, #4]
 3302 03ac 0E80     		strh	r6, [r1]	@ movhi
 3303 03ae 4E80     		strh	r6, [r1, #2]	@ movhi
 3304 03b0 8E80     		strh	r6, [r1, #4]	@ movhi
ARM GAS  /tmp/ccZhYDze.s 			page 98


 3305 03b2 CE80     		strh	r6, [r1, #6]	@ movhi
 3306              	.LVL226:
  24:../../libdaisy/src/hid/disp/graphics_common.h **** 
 3307              		.loc 17 24 53 view .LVU733
 3308              	.LBE1163:
 3309              	.LBE1165:
 3310              	.LBE1180:
 3311              	.LBE1249:
  56:../../libdaisy/src/hid/disp/graphics_common.h ****     int16_t GetY() const { return y_; }
 3312              		.loc 17 56 28 is_stmt 1 view .LVU734
  57:../../libdaisy/src/hid/disp/graphics_common.h ****     int16_t GetWidth() const { return width_; }
 3313              		.loc 17 57 28 view .LVU735
 3314              	.LBB1250:
 171:../../libdaisy/src/hid/disp/display.h ****     {
 3315              		.loc 6 171 10 view .LVU736
 3316              	.LBB1186:
 173:../../libdaisy/src/hid/disp/display.h ****         currentY_ = (y >= Height()) ? Height() - 1 : y;
 3317              		.loc 6 173 9 view .LVU737
 3318 03b4 04D0     		beq	.L139
 173:../../libdaisy/src/hid/disp/display.h ****         currentY_ = (y >= Height()) ? Height() - 1 : y;
 3319              		.loc 6 173 33 is_stmt 0 view .LVU738
 3320 03b6 3746     		mov	r7, r6
 3321              	.LVL227:
 3322              	.L140:
 173:../../libdaisy/src/hid/disp/display.h ****         currentY_ = (y >= Height()) ? Height() - 1 : y;
 3323              		.loc 6 173 32 view .LVU739
 3324 03b8 2046     		mov	r0, r4
 3325 03ba 9047     		blx	r2
 3326              	.LVL228:
 3327 03bc 2368     		ldr	r3, [r4]
 3328 03be 6DE6     		b	.L141
 3329              	.LVL229:
 3330              	.L139:
 174:../../libdaisy/src/hid/disp/display.h ****     }
 3331              		.loc 6 174 34 view .LVU740
 3332 03c0 9B68     		ldr	r3, [r3, #8]
 3333 03c2 0B4A     		ldr	r2, .L207+4
 173:../../libdaisy/src/hid/disp/display.h ****         currentY_ = (y >= Height()) ? Height() - 1 : y;
 3334              		.loc 6 173 19 view .LVU741
 3335 03c4 A680     		strh	r6, [r4, #4]	@ movhi
 174:../../libdaisy/src/hid/disp/display.h ****     }
 3336              		.loc 6 174 9 is_stmt 1 view .LVU742
 3337 03c6 9342     		cmp	r3, r2
 3338 03c8 0392     		str	r2, [sp, #12]
 3339 03ca 3FF480AE 		beq	.L146
 3340              	.LVL230:
 3341              	.L172:
 174:../../libdaisy/src/hid/disp/display.h ****     }
 3342              		.loc 6 174 33 is_stmt 0 view .LVU743
 3343 03ce 2046     		mov	r0, r4
 3344 03d0 9847     		blx	r3
 3345              	.LVL231:
 3346 03d2 73E6     		b	.L144
 3347              	.L197:
 174:../../libdaisy/src/hid/disp/display.h ****     }
 3348              		.loc 6 174 45 view .LVU744
 3349 03d4 2046     		mov	r0, r4
ARM GAS  /tmp/ccZhYDze.s 			page 99


 3350 03d6 9847     		blx	r3
 3351              	.LVL232:
 3352 03d8 0138     		subs	r0, r0, #1
 3353 03da 86B2     		uxth	r6, r0
 3354 03dc 77E6     		b	.L146
 3355              	.L196:
 173:../../libdaisy/src/hid/disp/display.h ****         currentY_ = (y >= Height()) ? Height() - 1 : y;
 3356              		.loc 6 173 43 view .LVU745
 3357 03de 2046     		mov	r0, r4
 3358 03e0 9047     		blx	r2
 3359              	.LVL233:
 3360 03e2 0138     		subs	r0, r0, #1
 3361 03e4 2368     		ldr	r3, [r4]
 3362 03e6 87B2     		uxth	r7, r0
 3363 03e8 60E6     		b	.L142
 3364              	.L208:
 3365 03ea 00BF     		.align	2
 3366              	.L207:
 3367 03ec 00000000 		.word	_ZNK5daisy11OledDisplayINS_13SSD130xDriverILj128ELj64ENS_24SSD130x4WireSpiTransportEEEE5Widt
 3368 03f0 00000000 		.word	_ZNK5daisy11OledDisplayINS_13SSD130xDriverILj128ELj64ENS_24SSD130x4WireSpiTransportEEEE6Heig
 3369              	.LBE1186:
 3370              	.LBE1250:
 3371              		.cfi_endproc
 3372              	.LFE4827:
 3374              		.section	.text._ZN5daisy11OledDisplayINS_13SSD130xDriverILj128ELj64ENS_24SSD130x4WireSpiTransportE
 3375              		.align	1
 3376              		.p2align 2,,3
 3377              		.weak	_ZN5daisy11OledDisplayINS_13SSD130xDriverILj128ELj64ENS_24SSD130x4WireSpiTransportEEEE9DrawP
 3378              		.syntax unified
 3379              		.thumb
 3380              		.thumb_func
 3381              		.fpu fpv5-d16
 3383              	_ZN5daisy11OledDisplayINS_13SSD130xDriverILj128ELj64ENS_24SSD130x4WireSpiTransportEEEE9DrawPixelEjj
 3384              	.LVL234:
 3385              	.LFB4719:
  41:../../libdaisy/src/hid/disp/oled_display.h ****     {
 3386              		.loc 5 41 10 is_stmt 1 view -0
 3387              		.cfi_startproc
 3388              		@ args = 0, pretend = 0, frame = 0
 3389              		@ frame_needed = 0, uses_anonymous_args = 0
 3390              		@ link register save eliminated.
 3391              	.LBB1255:
 3392              	.LBI1255:
 239:../../libdaisy/src/dev/oled_ssd130x.h ****     {
 3393              		.loc 16 239 10 view .LVU747
 3394              	.LBB1256:
 241:../../libdaisy/src/dev/oled_ssd130x.h ****             return;
 3395              		.loc 16 241 9 is_stmt 0 view .LVU748
 3396 0000 7F29     		cmp	r1, #127
 3397 0002 21D8     		bhi	.L213
 3398 0004 3F2A     		cmp	r2, #63
 3399 0006 1FD8     		bhi	.L213
 3400              	.LBE1256:
 3401              	.LBE1255:
  41:../../libdaisy/src/hid/disp/oled_display.h ****     {
 3402              		.loc 5 41 10 view .LVU749
 3403 0008 10B4     		push	{r4}
ARM GAS  /tmp/ccZhYDze.s 			page 100


 3404              		.cfi_def_cfa_offset 4
 3405              		.cfi_offset 4, -4
 3406              	.LBB1261:
 3407              	.LBB1259:
 243:../../libdaisy/src/dev/oled_ssd130x.h ****             buffer_[x + (y / 8) * width] |= (1 << (y % 8));
 3408              		.loc 16 243 9 view .LVU750
 3409 000a 73B9     		cbnz	r3, .L216
 3410              	.LVL235:
 3411              	.LBB1257:
 3412              	.LBI1257:
 239:../../libdaisy/src/dev/oled_ssd130x.h ****     {
 3413              		.loc 16 239 10 is_stmt 1 view .LVU751
 3414              	.LBB1258:
 246:../../libdaisy/src/dev/oled_ssd130x.h ****     }
 3415              		.loc 16 246 28 is_stmt 0 view .LVU752
 3416 000c D308     		lsrs	r3, r2, #3
 3417              	.LVL236:
 246:../../libdaisy/src/dev/oled_ssd130x.h ****     }
 3418              		.loc 16 246 49 view .LVU753
 3419 000e 0124     		movs	r4, #1
 246:../../libdaisy/src/dev/oled_ssd130x.h ****     }
 3420              		.loc 16 246 55 view .LVU754
 3421 0010 02F00702 		and	r2, r2, #7
 3422              	.LVL237:
 246:../../libdaisy/src/dev/oled_ssd130x.h ****     }
 3423              		.loc 16 246 42 view .LVU755
 3424 0014 01EBC313 		add	r3, r1, r3, lsl #7
 246:../../libdaisy/src/dev/oled_ssd130x.h ****     }
 3425              		.loc 16 246 49 view .LVU756
 3426 0018 9440     		lsls	r4, r4, r2
 246:../../libdaisy/src/dev/oled_ssd130x.h ****     }
 3427              		.loc 16 246 13 view .LVU757
 3428 001a C118     		adds	r1, r0, r3
 3429              	.LVL238:
 246:../../libdaisy/src/dev/oled_ssd130x.h ****     }
 3430              		.loc 16 246 42 view .LVU758
 3431 001c 0A7D     		ldrb	r2, [r1, #20]	@ zero_extendqisi2
 3432 001e 22EA0402 		bic	r2, r2, r4
 246:../../libdaisy/src/dev/oled_ssd130x.h ****     }
 3433              		.loc 16 246 13 view .LVU759
 3434 0022 0A75     		strb	r2, [r1, #20]
 3435              	.LVL239:
 246:../../libdaisy/src/dev/oled_ssd130x.h ****     }
 3436              		.loc 16 246 13 view .LVU760
 3437              	.LBE1258:
 3438              	.LBE1257:
 3439              	.LBE1259:
 3440              	.LBE1261:
  44:../../libdaisy/src/hid/disp/oled_display.h **** 
 3441              		.loc 5 44 5 view .LVU761
 3442 0024 5DF8044B 		ldr	r4, [sp], #4
 3443              		.cfi_remember_state
 3444              		.cfi_restore 4
 3445              		.cfi_def_cfa_offset 0
 3446 0028 7047     		bx	lr
 3447              	.LVL240:
 3448              	.L216:
ARM GAS  /tmp/ccZhYDze.s 			page 101


 3449              		.cfi_restore_state
 3450              	.LBB1262:
 3451              	.LBB1260:
 244:../../libdaisy/src/dev/oled_ssd130x.h ****         else
 3452              		.loc 16 244 28 view .LVU762
 3453 002a D408     		lsrs	r4, r2, #3
 244:../../libdaisy/src/dev/oled_ssd130x.h ****         else
 3454              		.loc 16 244 48 view .LVU763
 3455 002c 0123     		movs	r3, #1
 3456              	.LVL241:
 244:../../libdaisy/src/dev/oled_ssd130x.h ****         else
 3457              		.loc 16 244 54 view .LVU764
 3458 002e 02F00702 		and	r2, r2, #7
 3459              	.LVL242:
 244:../../libdaisy/src/dev/oled_ssd130x.h ****         else
 3460              		.loc 16 244 42 view .LVU765
 3461 0032 01EBC414 		add	r4, r1, r4, lsl #7
 244:../../libdaisy/src/dev/oled_ssd130x.h ****         else
 3462              		.loc 16 244 48 view .LVU766
 3463 0036 03FA02F2 		lsl	r2, r3, r2
 244:../../libdaisy/src/dev/oled_ssd130x.h ****         else
 3464              		.loc 16 244 13 view .LVU767
 3465 003a 0119     		adds	r1, r0, r4
 3466              	.LVL243:
 244:../../libdaisy/src/dev/oled_ssd130x.h ****         else
 3467              		.loc 16 244 42 view .LVU768
 3468 003c 0B7D     		ldrb	r3, [r1, #20]	@ zero_extendqisi2
 3469 003e 1A43     		orrs	r2, r2, r3
 244:../../libdaisy/src/dev/oled_ssd130x.h ****         else
 3470              		.loc 16 244 13 view .LVU769
 3471 0040 0A75     		strb	r2, [r1, #20]
 3472              	.LBE1260:
 3473              	.LBE1262:
  44:../../libdaisy/src/hid/disp/oled_display.h **** 
 3474              		.loc 5 44 5 view .LVU770
 3475 0042 5DF8044B 		ldr	r4, [sp], #4
 3476              		.cfi_restore 4
 3477              		.cfi_def_cfa_offset 0
 3478 0046 7047     		bx	lr
 3479              	.LVL244:
 3480              	.L213:
  44:../../libdaisy/src/hid/disp/oled_display.h **** 
 3481              		.loc 5 44 5 view .LVU771
 3482 0048 7047     		bx	lr
 3483              		.cfi_endproc
 3484              	.LFE4719:
 3486 004a 00BF     		.section	.text._ZN5daisy25OneBitGraphicsDisplayImplINS_11OledDisplayINS_13SSD130xDriverILj128ELj64
 3487              		.align	1
 3488              		.p2align 2,,3
 3489              		.weak	_ZN5daisy25OneBitGraphicsDisplayImplINS_11OledDisplayINS_13SSD130xDriverILj128ELj64ENS_24SSD
 3490              		.syntax unified
 3491              		.thumb
 3492              		.thumb_func
 3493              		.fpu fpv5-d16
 3495              	_ZN5daisy25OneBitGraphicsDisplayImplINS_11OledDisplayINS_13SSD130xDriverILj128ELj64ENS_24SSD130x4Wi
 3496              	.LVL245:
 3497              	.LFB4824:
ARM GAS  /tmp/ccZhYDze.s 			page 102


 221:../../libdaisy/src/hid/disp/display.h ****                   uint_fast8_t y1,
 3498              		.loc 6 221 10 is_stmt 1 view -0
 3499              		.cfi_startproc
 3500              		@ args = 8, pretend = 0, frame = 8
 3501              		@ frame_needed = 0, uses_anonymous_args = 0
 221:../../libdaisy/src/hid/disp/display.h ****                   uint_fast8_t y1,
 3502              		.loc 6 221 10 is_stmt 0 view .LVU773
 3503 0000 2DE9F04F 		push	{r4, r5, r6, r7, r8, r9, r10, fp, lr}
 3504              		.cfi_def_cfa_offset 36
 3505              		.cfi_offset 4, -36
 3506              		.cfi_offset 5, -32
 3507              		.cfi_offset 6, -28
 3508              		.cfi_offset 7, -24
 3509              		.cfi_offset 8, -20
 3510              		.cfi_offset 9, -16
 3511              		.cfi_offset 10, -12
 3512              		.cfi_offset 11, -8
 3513              		.cfi_offset 14, -4
 3514 0004 83B0     		sub	sp, sp, #12
 3515              		.cfi_def_cfa_offset 48
 227:../../libdaisy/src/hid/disp/display.h ****         int_fast16_t deltaY = abs((int_fast16_t)y2 - (int_fast16_t)y1);
 3516              		.loc 6 227 52 view .LVU774
 3517 0006 5E1A     		subs	r6, r3, r1
 221:../../libdaisy/src/hid/disp/display.h ****                   uint_fast8_t y1,
 3518              		.loc 6 221 10 view .LVU775
 3519 0008 0C9F     		ldr	r7, [sp, #48]
 3520 000a 9DF83480 		ldrb	r8, [sp, #52]	@ zero_extendqisi2
 228:../../libdaisy/src/hid/disp/display.h ****         int_fast16_t signX  = ((x1 < x2) ? 1 : -1);
 3521              		.loc 6 228 52 view .LVU776
 3522 000e A7EB020E 		sub	lr, r7, r2
 228:../../libdaisy/src/hid/disp/display.h ****         int_fast16_t signX  = ((x1 < x2) ? 1 : -1);
 3523              		.loc 6 228 22 view .LVU777
 3524 0012 BEF1000F 		cmp	lr, #0
 3525 0016 B8BF     		it	lt
 3526 0018 CEF1000E 		rsblt	lr, lr, #0
 229:../../libdaisy/src/hid/disp/display.h ****         int_fast16_t signY  = ((y1 < y2) ? 1 : -1);
 3527              		.loc 6 229 22 view .LVU778
 3528 001c 8B42     		cmp	r3, r1
 3529 001e 8CBF     		ite	hi
 3530 0020 4FF00109 		movhi	r9, #1
 3531 0024 4FF0FF39 		movls	r9, #-1
 227:../../libdaisy/src/hid/disp/display.h ****         int_fast16_t deltaY = abs((int_fast16_t)y2 - (int_fast16_t)y1);
 3532              		.loc 6 227 22 view .LVU779
 3533 0028 002E     		cmp	r6, #0
 3534 002a B8BF     		it	lt
 3535 002c 7642     		rsblt	r6, r6, #0
 3536              	.LVL246:
 230:../../libdaisy/src/hid/disp/display.h ****         int_fast16_t error  = deltaX - deltaY;
 3537              		.loc 6 230 22 view .LVU780
 3538 002e 9742     		cmp	r7, r2
 231:../../libdaisy/src/hid/disp/display.h ****         int_fast16_t error2;
 3539              		.loc 6 231 22 view .LVU781
 3540 0030 A6EB0E04 		sub	r4, r6, lr
 230:../../libdaisy/src/hid/disp/display.h ****         int_fast16_t error  = deltaX - deltaY;
 3541              		.loc 6 230 22 view .LVU782
 3542 0034 4FD8     		bhi	.L219
 3543              	.LVL247:
ARM GAS  /tmp/ccZhYDze.s 			page 103


 3544              	.LBB1279:
 3545              	.LBI1279:
  41:../../libdaisy/src/hid/disp/oled_display.h ****     {
 3546              		.loc 5 41 10 is_stmt 1 discriminator 4 view .LVU783
 3547              	.LBB1280:
 3548              	.LBI1280:
 239:../../libdaisy/src/dev/oled_ssd130x.h ****     {
 3549              		.loc 16 239 10 discriminator 4 view .LVU784
 3550              	.LBE1280:
 3551              	.LBE1279:
 230:../../libdaisy/src/hid/disp/display.h ****         int_fast16_t error  = deltaX - deltaY;
 3552              		.loc 6 230 22 is_stmt 0 discriminator 4 view .LVU785
 3553 0036 4FF0FF35 		mov	r5, #-1
 3554              	.LBB1296:
 3555              	.LBB1290:
 3556              	.LBB1281:
 241:../../libdaisy/src/dev/oled_ssd130x.h ****             return;
 3557              		.loc 16 241 9 discriminator 4 view .LVU786
 3558 003a 7F2B     		cmp	r3, #127
 3559              	.LBE1281:
 3560              	.LBE1290:
 3561              	.LBE1296:
 230:../../libdaisy/src/hid/disp/display.h ****         int_fast16_t error  = deltaX - deltaY;
 3562              		.loc 6 230 22 discriminator 4 view .LVU787
 3563 003c 0195     		str	r5, [sp, #4]
 3564              	.LBB1297:
 3565              	.LBB1291:
 3566              	.LBB1286:
 241:../../libdaisy/src/dev/oled_ssd130x.h ****             return;
 3567              		.loc 16 241 9 discriminator 4 view .LVU788
 3568 003e 14D8     		bhi	.L220
 3569 0040 3F2F     		cmp	r7, #63
 3570 0042 12D8     		bhi	.L220
 3571              	.LVL248:
 3572              	.L231:
 244:../../libdaisy/src/dev/oled_ssd130x.h ****         else
 3573              		.loc 16 244 28 view .LVU789
 3574 0044 FD08     		lsrs	r5, r7, #3
 244:../../libdaisy/src/dev/oled_ssd130x.h ****         else
 3575              		.loc 16 244 54 view .LVU790
 3576 0046 07F0070C 		and	ip, r7, #7
 244:../../libdaisy/src/dev/oled_ssd130x.h ****         else
 3577              		.loc 16 244 48 view .LVU791
 3578 004a 4FF0010A 		mov	r10, #1
 244:../../libdaisy/src/dev/oled_ssd130x.h ****         else
 3579              		.loc 16 244 42 view .LVU792
 3580 004e 03EBC515 		add	r5, r3, r5, lsl #7
 243:../../libdaisy/src/dev/oled_ssd130x.h ****             buffer_[x + (y / 8) * width] |= (1 << (y % 8));
 3581              		.loc 16 243 9 view .LVU793
 3582 0052 B8F1000F 		cmp	r8, #0
 3583 0056 45D0     		beq	.L221
 244:../../libdaisy/src/dev/oled_ssd130x.h ****         else
 3584              		.loc 16 244 13 view .LVU794
 3585 0058 0544     		add	r5, r5, r0
 244:../../libdaisy/src/dev/oled_ssd130x.h ****         else
 3586              		.loc 16 244 48 view .LVU795
 3587 005a 0AFA0CFC 		lsl	ip, r10, ip
ARM GAS  /tmp/ccZhYDze.s 			page 104


 244:../../libdaisy/src/dev/oled_ssd130x.h ****         else
 3588              		.loc 16 244 42 view .LVU796
 3589 005e 95F814A0 		ldrb	r10, [r5, #20]	@ zero_extendqisi2
 3590 0062 4CEA0A0C 		orr	ip, ip, r10
 244:../../libdaisy/src/dev/oled_ssd130x.h ****         else
 3591              		.loc 16 244 13 view .LVU797
 3592 0066 85F814C0 		strb	ip, [r5, #20]
 3593              	.L220:
 3594              	.LVL249:
 244:../../libdaisy/src/dev/oled_ssd130x.h ****         else
 3595              		.loc 16 244 13 view .LVU798
 3596              	.LBE1286:
 3597              	.LBE1291:
 3598              	.LBE1297:
 239:../../libdaisy/src/hid/disp/display.h ****         {
 3599              		.loc 6 239 26 is_stmt 1 view .LVU799
 3600 006a 9742     		cmp	r7, r2
 3601 006c 01D1     		bne	.L224
 3602              	.L243:
 239:../../libdaisy/src/hid/disp/display.h ****         {
 3603              		.loc 6 239 26 is_stmt 0 view .LVU800
 3604 006e 8B42     		cmp	r3, r1
 3605 0070 29D0     		beq	.L217
 3606              	.L224:
 3607              	.LVL250:
 239:../../libdaisy/src/hid/disp/display.h ****         {
 3608              		.loc 6 239 26 view .LVU801
 3609 0072 CEF1000C 		rsb	ip, lr, #0
 3610              	.L226:
 3611              	.LVL251:
 3612              	.LBB1298:
 3613              	.LBI1298:
  41:../../libdaisy/src/hid/disp/oled_display.h ****     {
 3614              		.loc 5 41 10 is_stmt 1 view .LVU802
 3615              	.LBB1299:
 3616              	.LBI1299:
 239:../../libdaisy/src/dev/oled_ssd130x.h ****     {
 3617              		.loc 16 239 10 view .LVU803
 3618              	.LBB1300:
 241:../../libdaisy/src/dev/oled_ssd130x.h ****             return;
 3619              		.loc 16 241 9 is_stmt 0 view .LVU804
 3620 0076 7F29     		cmp	r1, #127
 3621 0078 14D8     		bhi	.L227
 3622 007a 3F2A     		cmp	r2, #63
 3623 007c 12D8     		bhi	.L227
 244:../../libdaisy/src/dev/oled_ssd130x.h ****         else
 3624              		.loc 16 244 28 view .LVU805
 3625 007e D508     		lsrs	r5, r2, #3
 244:../../libdaisy/src/dev/oled_ssd130x.h ****         else
 3626              		.loc 16 244 48 view .LVU806
 3627 0080 4FF0010B 		mov	fp, #1
 244:../../libdaisy/src/dev/oled_ssd130x.h ****         else
 3628              		.loc 16 244 54 view .LVU807
 3629 0084 02F0070A 		and	r10, r2, #7
 244:../../libdaisy/src/dev/oled_ssd130x.h ****         else
 3630              		.loc 16 244 42 view .LVU808
 3631 0088 01EBC515 		add	r5, r1, r5, lsl #7
ARM GAS  /tmp/ccZhYDze.s 			page 105


 244:../../libdaisy/src/dev/oled_ssd130x.h ****         else
 3632              		.loc 16 244 48 view .LVU809
 3633 008c 0BFA0AFA 		lsl	r10, fp, r10
 244:../../libdaisy/src/dev/oled_ssd130x.h ****         else
 3634              		.loc 16 244 13 view .LVU810
 3635 0090 0544     		add	r5, r5, r0
 244:../../libdaisy/src/dev/oled_ssd130x.h ****         else
 3636              		.loc 16 244 42 view .LVU811
 3637 0092 95F814B0 		ldrb	fp, [r5, #20]	@ zero_extendqisi2
 243:../../libdaisy/src/dev/oled_ssd130x.h ****             buffer_[x + (y / 8) * width] |= (1 << (y % 8));
 3638              		.loc 16 243 9 view .LVU812
 3639 0096 B8F1000F 		cmp	r8, #0
 3640 009a 17D0     		beq	.L228
 244:../../libdaisy/src/dev/oled_ssd130x.h ****         else
 3641              		.loc 16 244 42 view .LVU813
 3642 009c 4AEA0B0A 		orr	r10, r10, fp
 244:../../libdaisy/src/dev/oled_ssd130x.h ****         else
 3643              		.loc 16 244 13 view .LVU814
 3644 00a0 85F814A0 		strb	r10, [r5, #20]
 3645              	.L227:
 3646              	.LVL252:
 244:../../libdaisy/src/dev/oled_ssd130x.h ****         else
 3647              		.loc 16 244 13 view .LVU815
 3648              	.LBE1300:
 3649              	.LBE1299:
 3650              	.LBE1298:
 243:../../libdaisy/src/hid/disp/display.h ****             {
 3651              		.loc 6 243 13 view .LVU816
 3652 00a4 BCEB440F 		cmp	ip, r4, lsl #1
 242:../../libdaisy/src/hid/disp/display.h ****             if(error2 > -deltaY)
 3653              		.loc 6 242 13 view .LVU817
 3654 00a8 4FEA4405 		lsl	r5, r4, #1
 3655              	.LVL253:
 243:../../libdaisy/src/hid/disp/display.h ****             {
 3656              		.loc 6 243 13 view .LVU818
 3657 00ac 02DA     		bge	.L229
 245:../../libdaisy/src/hid/disp/display.h ****                 x1 += signX;
 3658              		.loc 6 245 17 view .LVU819
 3659 00ae A4EB0E04 		sub	r4, r4, lr
 3660              	.LVL254:
 246:../../libdaisy/src/hid/disp/display.h ****             }
 3661              		.loc 6 246 17 view .LVU820
 3662 00b2 4944     		add	r1, r1, r9
 3663              	.LVL255:
 3664              	.L229:
 249:../../libdaisy/src/hid/disp/display.h ****             {
 3665              		.loc 6 249 13 view .LVU821
 3666 00b4 AE42     		cmp	r6, r5
 3667 00b6 02DD     		ble	.L230
 252:../../libdaisy/src/hid/disp/display.h ****             }
 3668              		.loc 6 252 17 view .LVU822
 3669 00b8 019D     		ldr	r5, [sp, #4]
 3670              	.LVL256:
 251:../../libdaisy/src/hid/disp/display.h ****                 y1 += signY;
 3671              		.loc 6 251 17 view .LVU823
 3672 00ba 3444     		add	r4, r4, r6
 3673              	.LVL257:
ARM GAS  /tmp/ccZhYDze.s 			page 106


 252:../../libdaisy/src/hid/disp/display.h ****             }
 3674              		.loc 6 252 17 view .LVU824
 3675 00bc 2A44     		add	r2, r2, r5
 3676              	.LVL258:
 3677              	.L230:
 239:../../libdaisy/src/hid/disp/display.h ****         {
 3678              		.loc 6 239 26 is_stmt 1 view .LVU825
 3679 00be 9942     		cmp	r1, r3
 3680 00c0 D9D1     		bne	.L226
 239:../../libdaisy/src/hid/disp/display.h ****         {
 3681              		.loc 6 239 26 is_stmt 0 view .LVU826
 3682 00c2 9742     		cmp	r7, r2
 3683 00c4 D7D1     		bne	.L226
 3684              	.L217:
 255:../../libdaisy/src/hid/disp/display.h **** 
 3685              		.loc 6 255 5 view .LVU827
 3686 00c6 03B0     		add	sp, sp, #12
 3687              		.cfi_remember_state
 3688              		.cfi_def_cfa_offset 36
 3689              		@ sp needed
 3690 00c8 BDE8F08F 		pop	{r4, r5, r6, r7, r8, r9, r10, fp, pc}
 3691              	.LVL259:
 3692              	.L228:
 3693              		.cfi_restore_state
 3694              	.LBB1305:
 3695              	.LBB1304:
 3696              	.LBB1303:
 3697              	.LBB1301:
 3698              	.LBI1301:
 239:../../libdaisy/src/dev/oled_ssd130x.h ****     {
 3699              		.loc 16 239 10 is_stmt 1 view .LVU828
 3700              	.LBB1302:
 246:../../libdaisy/src/dev/oled_ssd130x.h ****     }
 3701              		.loc 16 246 42 is_stmt 0 view .LVU829
 3702 00cc 2BEA0A0A 		bic	r10, fp, r10
 246:../../libdaisy/src/dev/oled_ssd130x.h ****     }
 3703              		.loc 16 246 13 view .LVU830
 3704 00d0 85F814A0 		strb	r10, [r5, #20]
 3705 00d4 E6E7     		b	.L227
 3706              	.LVL260:
 3707              	.L219:
 246:../../libdaisy/src/dev/oled_ssd130x.h ****     }
 3708              		.loc 16 246 13 view .LVU831
 3709              	.LBE1302:
 3710              	.LBE1301:
 3711              	.LBE1303:
 3712              	.LBE1304:
 3713              	.LBE1305:
 3714              	.LBB1306:
  41:../../libdaisy/src/hid/disp/oled_display.h ****     {
 3715              		.loc 5 41 10 is_stmt 1 view .LVU832
 3716              	.LBB1292:
 239:../../libdaisy/src/dev/oled_ssd130x.h ****     {
 3717              		.loc 16 239 10 view .LVU833
 3718              	.LBE1292:
 3719              	.LBE1306:
 230:../../libdaisy/src/hid/disp/display.h ****         int_fast16_t error  = deltaX - deltaY;
ARM GAS  /tmp/ccZhYDze.s 			page 107


 3720              		.loc 6 230 22 is_stmt 0 view .LVU834
 3721 00d6 0125     		movs	r5, #1
 3722              	.LBB1307:
 3723              	.LBB1293:
 3724              	.LBB1287:
 241:../../libdaisy/src/dev/oled_ssd130x.h ****             return;
 3725              		.loc 16 241 9 view .LVU835
 3726 00d8 7F2B     		cmp	r3, #127
 3727              	.LBE1287:
 3728              	.LBE1293:
 3729              	.LBE1307:
 230:../../libdaisy/src/hid/disp/display.h ****         int_fast16_t error  = deltaX - deltaY;
 3730              		.loc 6 230 22 view .LVU836
 3731 00da 0195     		str	r5, [sp, #4]
 3732              	.LBB1308:
 3733              	.LBB1294:
 3734              	.LBB1288:
 241:../../libdaisy/src/dev/oled_ssd130x.h ****             return;
 3735              		.loc 16 241 9 view .LVU837
 3736 00dc C9D8     		bhi	.L224
 3737 00de 3F2F     		cmp	r7, #63
 3738 00e0 B0D9     		bls	.L231
 3739 00e2 C6E7     		b	.L224
 3740              	.LVL261:
 3741              	.L221:
 3742              	.LBB1282:
 3743              	.LBI1282:
 239:../../libdaisy/src/dev/oled_ssd130x.h ****     {
 3744              		.loc 16 239 10 is_stmt 1 view .LVU838
 3745              	.LBB1283:
 246:../../libdaisy/src/dev/oled_ssd130x.h ****     }
 3746              		.loc 16 246 13 is_stmt 0 view .LVU839
 3747 00e4 0544     		add	r5, r5, r0
 246:../../libdaisy/src/dev/oled_ssd130x.h ****     }
 3748              		.loc 16 246 49 view .LVU840
 3749 00e6 0AFA0CFA 		lsl	r10, r10, ip
 3750              	.LBE1283:
 3751              	.LBE1282:
 3752              	.LBE1288:
 3753              	.LBE1294:
 3754              	.LBE1308:
 239:../../libdaisy/src/hid/disp/display.h ****         {
 3755              		.loc 6 239 26 view .LVU841
 3756 00ea 9742     		cmp	r7, r2
 3757              	.LBB1309:
 3758              	.LBB1295:
 3759              	.LBB1289:
 3760              	.LBB1285:
 3761              	.LBB1284:
 246:../../libdaisy/src/dev/oled_ssd130x.h ****     }
 3762              		.loc 16 246 42 view .LVU842
 3763 00ec 95F814C0 		ldrb	ip, [r5, #20]	@ zero_extendqisi2
 3764 00f0 2CEA0A0C 		bic	ip, ip, r10
 246:../../libdaisy/src/dev/oled_ssd130x.h ****     }
 3765              		.loc 16 246 13 view .LVU843
 3766 00f4 85F814C0 		strb	ip, [r5, #20]
 3767              	.LVL262:
ARM GAS  /tmp/ccZhYDze.s 			page 108


 246:../../libdaisy/src/dev/oled_ssd130x.h ****     }
 3768              		.loc 16 246 13 view .LVU844
 3769              	.LBE1284:
 3770              	.LBE1285:
 3771              	.LBE1289:
 3772              	.LBE1295:
 3773              	.LBE1309:
 239:../../libdaisy/src/hid/disp/display.h ****         {
 3774              		.loc 6 239 26 is_stmt 1 view .LVU845
 3775 00f8 B9D0     		beq	.L243
 3776 00fa BAE7     		b	.L224
 3777              		.cfi_endproc
 3778              	.LFE4824:
 3780              		.section	.text._ZN5daisy25OneBitGraphicsDisplayImplINS_11OledDisplayINS_13SSD130xDriverILj128ELj64
 3781              		.align	1
 3782              		.p2align 2,,3
 3783              		.weak	_ZN5daisy25OneBitGraphicsDisplayImplINS_11OledDisplayINS_13SSD130xDriverILj128ELj64ENS_24SSD
 3784              		.syntax unified
 3785              		.thumb
 3786              		.thumb_func
 3787              		.fpu fpv5-d16
 3789              	_ZN5daisy25OneBitGraphicsDisplayImplINS_11OledDisplayINS_13SSD130xDriverILj128ELj64ENS_24SSD130x4Wi
 3790              	.LVL263:
 3791              	.LFB4826:
 283:../../libdaisy/src/hid/disp/display.h ****                  uint_fast8_t y,
 3792              		.loc 6 283 10 view -0
 3793              		.cfi_startproc
 3794              		@ args = 12, pretend = 0, frame = 16
 3795              		@ frame_needed = 0, uses_anonymous_args = 0
 283:../../libdaisy/src/hid/disp/display.h ****                  uint_fast8_t y,
 3796              		.loc 6 283 10 is_stmt 0 view .LVU847
 3797 0000 2DE9F04F 		push	{r4, r5, r6, r7, r8, r9, r10, fp, lr}
 3798              		.cfi_def_cfa_offset 36
 3799              		.cfi_offset 4, -36
 3800              		.cfi_offset 5, -32
 3801              		.cfi_offset 6, -28
 3802              		.cfi_offset 7, -24
 3803              		.cfi_offset 8, -20
 3804              		.cfi_offset 9, -16
 3805              		.cfi_offset 10, -12
 3806              		.cfi_offset 11, -8
 3807              		.cfi_offset 14, -4
 3808 0004 2DED068B 		vpush.64	{d8, d9, d10}
 3809              		.cfi_def_cfa_offset 60
 3810              		.cfi_offset 80, -60
 3811              		.cfi_offset 81, -56
 3812              		.cfi_offset 82, -52
 3813              		.cfi_offset 83, -48
 3814              		.cfi_offset 84, -44
 3815              		.cfi_offset 85, -40
 3816 0008 85B0     		sub	sp, sp, #20
 3817              		.cfi_def_cfa_offset 80
 283:../../libdaisy/src/hid/disp/display.h ****                  uint_fast8_t y,
 3818              		.loc 6 283 10 view .LVU848
 3819 000a 1C46     		mov	r4, r3
 3820 000c 0F46     		mov	r7, r1
 3821 000e 9046     		mov	r8, r2
ARM GAS  /tmp/ccZhYDze.s 			page 109


 3822 0010 9DF85830 		ldrb	r3, [sp, #88]	@ zero_extendqisi2
 3823              	.LVL264:
 283:../../libdaisy/src/hid/disp/display.h ****                  uint_fast8_t y,
 3824              		.loc 6 283 10 view .LVU849
 3825 0014 0390     		str	r0, [sp, #12]
 3826 0016 0293     		str	r3, [sp, #8]
 306:../../libdaisy/src/hid/disp/display.h ****         {
 3827              		.loc 6 306 9 view .LVU850
 3828 0018 159B     		ldr	r3, [sp, #84]
 3829 001a 002B     		cmp	r3, #0
 3830 001c C0F2F281 		blt	.L245
 3831 0020 149A     		ldr	r2, [sp, #80]
 3832              	.LVL265:
 306:../../libdaisy/src/hid/disp/display.h ****         {
 3833              		.loc 6 306 9 view .LVU851
 3834 0022 1344     		add	r3, r3, r2
 3835 0024 06EE103A 		vmov	s12, r3	@ int
 3836              	.LVL266:
 3837              	.L246:
 312:../../libdaisy/src/hid/disp/display.h ****         end_angle_rad   = deg2rad(start_angle + sweep);
 3838              		.loc 6 312 27 view .LVU852
 3839 0028 DDED147A 		vldr.32	s15, [sp, #80]	@ int
 313:../../libdaisy/src/hid/disp/display.h **** 
 3840              		.loc 6 313 27 view .LVU853
 3841 002c B8EEC66B 		vcvt.f64.s32	d6, s12
 312:../../libdaisy/src/hid/disp/display.h ****         end_angle_rad   = deg2rad(start_angle + sweep);
 3842              		.loc 6 312 27 view .LVU854
 3843 0030 9FEDD54B 		vldr.64	d4, .L319
 3844 0034 B8EEE77B 		vcvt.f64.s32	d7, s15
 3845 0038 9FEDD55B 		vldr.64	d5, .L319+8
 3846 003c 27EE047B 		vmul.f64	d7, d7, d4
 313:../../libdaisy/src/hid/disp/display.h **** 
 3847              		.loc 6 313 27 view .LVU855
 3848 0040 26EE046B 		vmul.f64	d6, d6, d4
 312:../../libdaisy/src/hid/disp/display.h ****         end_angle_rad   = deg2rad(start_angle + sweep);
 3849              		.loc 6 312 27 view .LVU856
 3850 0044 87EE050B 		vdiv.f64	d0, d7, d5
 313:../../libdaisy/src/hid/disp/display.h **** 
 3851              		.loc 6 313 27 view .LVU857
 3852 0048 86EE05AB 		vdiv.f64	d10, d6, d5
 312:../../libdaisy/src/hid/disp/display.h ****         end_angle_rad   = deg2rad(start_angle + sweep);
 3853              		.loc 6 312 9 view .LVU858
 3854 004c F7EEC08B 		vcvt.f32.f64	s17, d0
 3855              	.LVL267:
 3856              	.LBB1342:
 3857              	.LBB1343:
 3858              		.file 18 "/usr/include/newlib/c++/9.2.1/cmath"
   1:/usr/include/newlib/c++/9.2.1/cmath **** // -*- C++ -*- C forwarding header.
   2:/usr/include/newlib/c++/9.2.1/cmath **** 
   3:/usr/include/newlib/c++/9.2.1/cmath **** // Copyright (C) 1997-2019 Free Software Foundation, Inc.
   4:/usr/include/newlib/c++/9.2.1/cmath **** //
   5:/usr/include/newlib/c++/9.2.1/cmath **** // This file is part of the GNU ISO C++ Library.  This library is free
   6:/usr/include/newlib/c++/9.2.1/cmath **** // software; you can redistribute it and/or modify it under the
   7:/usr/include/newlib/c++/9.2.1/cmath **** // terms of the GNU General Public License as published by the
   8:/usr/include/newlib/c++/9.2.1/cmath **** // Free Software Foundation; either version 3, or (at your option)
   9:/usr/include/newlib/c++/9.2.1/cmath **** // any later version.
  10:/usr/include/newlib/c++/9.2.1/cmath **** 
ARM GAS  /tmp/ccZhYDze.s 			page 110


  11:/usr/include/newlib/c++/9.2.1/cmath **** // This library is distributed in the hope that it will be useful,
  12:/usr/include/newlib/c++/9.2.1/cmath **** // but WITHOUT ANY WARRANTY; without even the implied warranty of
  13:/usr/include/newlib/c++/9.2.1/cmath **** // MERCHANTABILITY or FITNESS FOR A PARTICULAR PURPOSE.  See the
  14:/usr/include/newlib/c++/9.2.1/cmath **** // GNU General Public License for more details.
  15:/usr/include/newlib/c++/9.2.1/cmath **** 
  16:/usr/include/newlib/c++/9.2.1/cmath **** // Under Section 7 of GPL version 3, you are granted additional
  17:/usr/include/newlib/c++/9.2.1/cmath **** // permissions described in the GCC Runtime Library Exception, version
  18:/usr/include/newlib/c++/9.2.1/cmath **** // 3.1, as published by the Free Software Foundation.
  19:/usr/include/newlib/c++/9.2.1/cmath **** 
  20:/usr/include/newlib/c++/9.2.1/cmath **** // You should have received a copy of the GNU General Public License and
  21:/usr/include/newlib/c++/9.2.1/cmath **** // a copy of the GCC Runtime Library Exception along with this program;
  22:/usr/include/newlib/c++/9.2.1/cmath **** // see the files COPYING3 and COPYING.RUNTIME respectively.  If not, see
  23:/usr/include/newlib/c++/9.2.1/cmath **** // <http://www.gnu.org/licenses/>.
  24:/usr/include/newlib/c++/9.2.1/cmath **** 
  25:/usr/include/newlib/c++/9.2.1/cmath **** /** @file include/cmath
  26:/usr/include/newlib/c++/9.2.1/cmath ****  *  This is a Standard C++ Library file.  You should @c \#include this file
  27:/usr/include/newlib/c++/9.2.1/cmath ****  *  in your programs, rather than any of the @a *.h implementation files.
  28:/usr/include/newlib/c++/9.2.1/cmath ****  *
  29:/usr/include/newlib/c++/9.2.1/cmath ****  *  This is the C++ version of the Standard C Library header @c math.h,
  30:/usr/include/newlib/c++/9.2.1/cmath ****  *  and its contents are (mostly) the same as that header, but are all
  31:/usr/include/newlib/c++/9.2.1/cmath ****  *  contained in the namespace @c std (except for names which are defined
  32:/usr/include/newlib/c++/9.2.1/cmath ****  *  as macros in C).
  33:/usr/include/newlib/c++/9.2.1/cmath ****  */
  34:/usr/include/newlib/c++/9.2.1/cmath **** 
  35:/usr/include/newlib/c++/9.2.1/cmath **** //
  36:/usr/include/newlib/c++/9.2.1/cmath **** // ISO C++ 14882: 26.5  C library
  37:/usr/include/newlib/c++/9.2.1/cmath **** //
  38:/usr/include/newlib/c++/9.2.1/cmath **** 
  39:/usr/include/newlib/c++/9.2.1/cmath **** #pragma GCC system_header
  40:/usr/include/newlib/c++/9.2.1/cmath **** 
  41:/usr/include/newlib/c++/9.2.1/cmath **** #include <bits/c++config.h>
  42:/usr/include/newlib/c++/9.2.1/cmath **** #include <bits/cpp_type_traits.h>
  43:/usr/include/newlib/c++/9.2.1/cmath **** #include <ext/type_traits.h>
  44:/usr/include/newlib/c++/9.2.1/cmath **** #define _GLIBCXX_INCLUDE_NEXT_C_HEADERS
  45:/usr/include/newlib/c++/9.2.1/cmath **** #include_next <math.h>
  46:/usr/include/newlib/c++/9.2.1/cmath **** #undef _GLIBCXX_INCLUDE_NEXT_C_HEADERS
  47:/usr/include/newlib/c++/9.2.1/cmath **** #include <bits/std_abs.h>
  48:/usr/include/newlib/c++/9.2.1/cmath **** 
  49:/usr/include/newlib/c++/9.2.1/cmath **** #ifndef _GLIBCXX_CMATH
  50:/usr/include/newlib/c++/9.2.1/cmath **** #define _GLIBCXX_CMATH 1
  51:/usr/include/newlib/c++/9.2.1/cmath **** 
  52:/usr/include/newlib/c++/9.2.1/cmath **** // Get rid of those macros defined in <math.h> in lieu of real functions.
  53:/usr/include/newlib/c++/9.2.1/cmath **** #undef div
  54:/usr/include/newlib/c++/9.2.1/cmath **** #undef acos
  55:/usr/include/newlib/c++/9.2.1/cmath **** #undef asin
  56:/usr/include/newlib/c++/9.2.1/cmath **** #undef atan
  57:/usr/include/newlib/c++/9.2.1/cmath **** #undef atan2
  58:/usr/include/newlib/c++/9.2.1/cmath **** #undef ceil
  59:/usr/include/newlib/c++/9.2.1/cmath **** #undef cos
  60:/usr/include/newlib/c++/9.2.1/cmath **** #undef cosh
  61:/usr/include/newlib/c++/9.2.1/cmath **** #undef exp
  62:/usr/include/newlib/c++/9.2.1/cmath **** #undef fabs
  63:/usr/include/newlib/c++/9.2.1/cmath **** #undef floor
  64:/usr/include/newlib/c++/9.2.1/cmath **** #undef fmod
  65:/usr/include/newlib/c++/9.2.1/cmath **** #undef frexp
  66:/usr/include/newlib/c++/9.2.1/cmath **** #undef ldexp
  67:/usr/include/newlib/c++/9.2.1/cmath **** #undef log
ARM GAS  /tmp/ccZhYDze.s 			page 111


  68:/usr/include/newlib/c++/9.2.1/cmath **** #undef log10
  69:/usr/include/newlib/c++/9.2.1/cmath **** #undef modf
  70:/usr/include/newlib/c++/9.2.1/cmath **** #undef pow
  71:/usr/include/newlib/c++/9.2.1/cmath **** #undef sin
  72:/usr/include/newlib/c++/9.2.1/cmath **** #undef sinh
  73:/usr/include/newlib/c++/9.2.1/cmath **** #undef sqrt
  74:/usr/include/newlib/c++/9.2.1/cmath **** #undef tan
  75:/usr/include/newlib/c++/9.2.1/cmath **** #undef tanh
  76:/usr/include/newlib/c++/9.2.1/cmath **** 
  77:/usr/include/newlib/c++/9.2.1/cmath **** extern "C++"
  78:/usr/include/newlib/c++/9.2.1/cmath **** {
  79:/usr/include/newlib/c++/9.2.1/cmath **** namespace std _GLIBCXX_VISIBILITY(default)
  80:/usr/include/newlib/c++/9.2.1/cmath **** {
  81:/usr/include/newlib/c++/9.2.1/cmath **** _GLIBCXX_BEGIN_NAMESPACE_VERSION
  82:/usr/include/newlib/c++/9.2.1/cmath **** 
  83:/usr/include/newlib/c++/9.2.1/cmath ****   using ::acos;
  84:/usr/include/newlib/c++/9.2.1/cmath **** 
  85:/usr/include/newlib/c++/9.2.1/cmath **** #ifndef __CORRECT_ISO_CPP_MATH_H_PROTO
  86:/usr/include/newlib/c++/9.2.1/cmath ****   inline _GLIBCXX_CONSTEXPR float
  87:/usr/include/newlib/c++/9.2.1/cmath ****   acos(float __x)
  88:/usr/include/newlib/c++/9.2.1/cmath ****   { return __builtin_acosf(__x); }
  89:/usr/include/newlib/c++/9.2.1/cmath **** 
  90:/usr/include/newlib/c++/9.2.1/cmath ****   inline _GLIBCXX_CONSTEXPR long double
  91:/usr/include/newlib/c++/9.2.1/cmath ****   acos(long double __x)
  92:/usr/include/newlib/c++/9.2.1/cmath ****   { return __builtin_acosl(__x); }
  93:/usr/include/newlib/c++/9.2.1/cmath **** #endif
  94:/usr/include/newlib/c++/9.2.1/cmath **** 
  95:/usr/include/newlib/c++/9.2.1/cmath ****   template<typename _Tp>
  96:/usr/include/newlib/c++/9.2.1/cmath ****     inline _GLIBCXX_CONSTEXPR
  97:/usr/include/newlib/c++/9.2.1/cmath ****     typename __gnu_cxx::__enable_if<__is_integer<_Tp>::__value, 
  98:/usr/include/newlib/c++/9.2.1/cmath ****                                     double>::__type
  99:/usr/include/newlib/c++/9.2.1/cmath ****     acos(_Tp __x)
 100:/usr/include/newlib/c++/9.2.1/cmath ****     { return __builtin_acos(__x); }
 101:/usr/include/newlib/c++/9.2.1/cmath **** 
 102:/usr/include/newlib/c++/9.2.1/cmath ****   using ::asin;
 103:/usr/include/newlib/c++/9.2.1/cmath **** 
 104:/usr/include/newlib/c++/9.2.1/cmath **** #ifndef __CORRECT_ISO_CPP_MATH_H_PROTO
 105:/usr/include/newlib/c++/9.2.1/cmath ****   inline _GLIBCXX_CONSTEXPR float
 106:/usr/include/newlib/c++/9.2.1/cmath ****   asin(float __x)
 107:/usr/include/newlib/c++/9.2.1/cmath ****   { return __builtin_asinf(__x); }
 108:/usr/include/newlib/c++/9.2.1/cmath **** 
 109:/usr/include/newlib/c++/9.2.1/cmath ****   inline _GLIBCXX_CONSTEXPR long double
 110:/usr/include/newlib/c++/9.2.1/cmath ****   asin(long double __x)
 111:/usr/include/newlib/c++/9.2.1/cmath ****   { return __builtin_asinl(__x); }
 112:/usr/include/newlib/c++/9.2.1/cmath **** #endif
 113:/usr/include/newlib/c++/9.2.1/cmath **** 
 114:/usr/include/newlib/c++/9.2.1/cmath ****   template<typename _Tp>
 115:/usr/include/newlib/c++/9.2.1/cmath ****     inline _GLIBCXX_CONSTEXPR
 116:/usr/include/newlib/c++/9.2.1/cmath ****     typename __gnu_cxx::__enable_if<__is_integer<_Tp>::__value,
 117:/usr/include/newlib/c++/9.2.1/cmath ****                                     double>::__type
 118:/usr/include/newlib/c++/9.2.1/cmath ****     asin(_Tp __x)
 119:/usr/include/newlib/c++/9.2.1/cmath ****     { return __builtin_asin(__x); }
 120:/usr/include/newlib/c++/9.2.1/cmath **** 
 121:/usr/include/newlib/c++/9.2.1/cmath ****   using ::atan;
 122:/usr/include/newlib/c++/9.2.1/cmath **** 
 123:/usr/include/newlib/c++/9.2.1/cmath **** #ifndef __CORRECT_ISO_CPP_MATH_H_PROTO
 124:/usr/include/newlib/c++/9.2.1/cmath ****   inline _GLIBCXX_CONSTEXPR float
ARM GAS  /tmp/ccZhYDze.s 			page 112


 125:/usr/include/newlib/c++/9.2.1/cmath ****   atan(float __x)
 126:/usr/include/newlib/c++/9.2.1/cmath ****   { return __builtin_atanf(__x); }
 127:/usr/include/newlib/c++/9.2.1/cmath **** 
 128:/usr/include/newlib/c++/9.2.1/cmath ****   inline _GLIBCXX_CONSTEXPR long double
 129:/usr/include/newlib/c++/9.2.1/cmath ****   atan(long double __x)
 130:/usr/include/newlib/c++/9.2.1/cmath ****   { return __builtin_atanl(__x); }
 131:/usr/include/newlib/c++/9.2.1/cmath **** #endif
 132:/usr/include/newlib/c++/9.2.1/cmath **** 
 133:/usr/include/newlib/c++/9.2.1/cmath ****   template<typename _Tp>
 134:/usr/include/newlib/c++/9.2.1/cmath ****     inline _GLIBCXX_CONSTEXPR
 135:/usr/include/newlib/c++/9.2.1/cmath ****     typename __gnu_cxx::__enable_if<__is_integer<_Tp>::__value,
 136:/usr/include/newlib/c++/9.2.1/cmath ****                                     double>::__type
 137:/usr/include/newlib/c++/9.2.1/cmath ****     atan(_Tp __x)
 138:/usr/include/newlib/c++/9.2.1/cmath ****     { return __builtin_atan(__x); }
 139:/usr/include/newlib/c++/9.2.1/cmath **** 
 140:/usr/include/newlib/c++/9.2.1/cmath ****   using ::atan2;
 141:/usr/include/newlib/c++/9.2.1/cmath **** 
 142:/usr/include/newlib/c++/9.2.1/cmath **** #ifndef __CORRECT_ISO_CPP_MATH_H_PROTO
 143:/usr/include/newlib/c++/9.2.1/cmath ****   inline _GLIBCXX_CONSTEXPR float
 144:/usr/include/newlib/c++/9.2.1/cmath ****   atan2(float __y, float __x)
 145:/usr/include/newlib/c++/9.2.1/cmath ****   { return __builtin_atan2f(__y, __x); }
 146:/usr/include/newlib/c++/9.2.1/cmath **** 
 147:/usr/include/newlib/c++/9.2.1/cmath ****   inline _GLIBCXX_CONSTEXPR long double
 148:/usr/include/newlib/c++/9.2.1/cmath ****   atan2(long double __y, long double __x)
 149:/usr/include/newlib/c++/9.2.1/cmath ****   { return __builtin_atan2l(__y, __x); }
 150:/usr/include/newlib/c++/9.2.1/cmath **** #endif
 151:/usr/include/newlib/c++/9.2.1/cmath **** 
 152:/usr/include/newlib/c++/9.2.1/cmath ****   template<typename _Tp, typename _Up>
 153:/usr/include/newlib/c++/9.2.1/cmath ****     inline _GLIBCXX_CONSTEXPR
 154:/usr/include/newlib/c++/9.2.1/cmath ****     typename __gnu_cxx::__promote_2<_Tp, _Up>::__type
 155:/usr/include/newlib/c++/9.2.1/cmath ****     atan2(_Tp __y, _Up __x)
 156:/usr/include/newlib/c++/9.2.1/cmath ****     {
 157:/usr/include/newlib/c++/9.2.1/cmath ****       typedef typename __gnu_cxx::__promote_2<_Tp, _Up>::__type __type;
 158:/usr/include/newlib/c++/9.2.1/cmath ****       return atan2(__type(__y), __type(__x));
 159:/usr/include/newlib/c++/9.2.1/cmath ****     }
 160:/usr/include/newlib/c++/9.2.1/cmath **** 
 161:/usr/include/newlib/c++/9.2.1/cmath ****   using ::ceil;
 162:/usr/include/newlib/c++/9.2.1/cmath **** 
 163:/usr/include/newlib/c++/9.2.1/cmath **** #ifndef __CORRECT_ISO_CPP_MATH_H_PROTO
 164:/usr/include/newlib/c++/9.2.1/cmath ****   inline _GLIBCXX_CONSTEXPR float
 165:/usr/include/newlib/c++/9.2.1/cmath ****   ceil(float __x)
 166:/usr/include/newlib/c++/9.2.1/cmath ****   { return __builtin_ceilf(__x); }
 167:/usr/include/newlib/c++/9.2.1/cmath **** 
 168:/usr/include/newlib/c++/9.2.1/cmath ****   inline _GLIBCXX_CONSTEXPR long double
 169:/usr/include/newlib/c++/9.2.1/cmath ****   ceil(long double __x)
 170:/usr/include/newlib/c++/9.2.1/cmath ****   { return __builtin_ceill(__x); }
 171:/usr/include/newlib/c++/9.2.1/cmath **** #endif
 172:/usr/include/newlib/c++/9.2.1/cmath **** 
 173:/usr/include/newlib/c++/9.2.1/cmath ****   template<typename _Tp>
 174:/usr/include/newlib/c++/9.2.1/cmath ****     inline _GLIBCXX_CONSTEXPR
 175:/usr/include/newlib/c++/9.2.1/cmath ****     typename __gnu_cxx::__enable_if<__is_integer<_Tp>::__value, 
 176:/usr/include/newlib/c++/9.2.1/cmath ****                                     double>::__type
 177:/usr/include/newlib/c++/9.2.1/cmath ****     ceil(_Tp __x)
 178:/usr/include/newlib/c++/9.2.1/cmath ****     { return __builtin_ceil(__x); }
 179:/usr/include/newlib/c++/9.2.1/cmath **** 
 180:/usr/include/newlib/c++/9.2.1/cmath ****   using ::cos;
 181:/usr/include/newlib/c++/9.2.1/cmath **** 
ARM GAS  /tmp/ccZhYDze.s 			page 113


 182:/usr/include/newlib/c++/9.2.1/cmath **** #ifndef __CORRECT_ISO_CPP_MATH_H_PROTO
 183:/usr/include/newlib/c++/9.2.1/cmath ****   inline _GLIBCXX_CONSTEXPR float
 184:/usr/include/newlib/c++/9.2.1/cmath ****   cos(float __x)
 185:/usr/include/newlib/c++/9.2.1/cmath ****   { return __builtin_cosf(__x); }
 3859              		.loc 18 185 26 view .LVU859
 3860 0050 B0EE680A 		vmov.f32	s0, s17
 3861 0054 FFF7FEFF 		bl	cosf
 3862              	.LVL268:
 3863              		.loc 18 185 26 view .LVU860
 3864              	.LBE1343:
 3865              	.LBE1342:
 313:../../libdaisy/src/hid/disp/display.h **** 
 3866              		.loc 6 313 9 view .LVU861
 3867 0058 B7EECAAB 		vcvt.f32.f64	s20, d10
 3868              	.LVL269:
 3869              	.LBB1346:
 3870              	.LBI1342:
 184:/usr/include/newlib/c++/9.2.1/cmath ****   { return __builtin_cosf(__x); }
 3871              		.loc 18 184 3 is_stmt 1 view .LVU862
 3872              	.LBB1344:
 3873              		.loc 18 185 5 view .LVU863
 3874              		.loc 18 185 5 is_stmt 0 view .LVU864
 3875              	.LBE1344:
 3876              	.LBE1346:
 315:../../libdaisy/src/hid/disp/display.h ****         start_y = -sin(start_angle_rad) * radius;
 3877              		.loc 6 315 9 view .LVU865
 3878 005c 07EE904A 		vmov	s15, r4	@ int
 3879              	.LBB1347:
 3880              	.LBB1345:
 3881              		.loc 18 185 26 view .LVU866
 3882 0060 B0EE408A 		vmov.f32	s16, s0
 3883              	.LBE1345:
 3884              	.LBE1347:
 3885              	.LBB1348:
 3886              	.LBB1349:
 186:/usr/include/newlib/c++/9.2.1/cmath **** 
 187:/usr/include/newlib/c++/9.2.1/cmath ****   inline _GLIBCXX_CONSTEXPR long double
 188:/usr/include/newlib/c++/9.2.1/cmath ****   cos(long double __x)
 189:/usr/include/newlib/c++/9.2.1/cmath ****   { return __builtin_cosl(__x); }
 190:/usr/include/newlib/c++/9.2.1/cmath **** #endif
 191:/usr/include/newlib/c++/9.2.1/cmath **** 
 192:/usr/include/newlib/c++/9.2.1/cmath ****   template<typename _Tp>
 193:/usr/include/newlib/c++/9.2.1/cmath ****     inline _GLIBCXX_CONSTEXPR
 194:/usr/include/newlib/c++/9.2.1/cmath ****     typename __gnu_cxx::__enable_if<__is_integer<_Tp>::__value,
 195:/usr/include/newlib/c++/9.2.1/cmath ****                                     double>::__type
 196:/usr/include/newlib/c++/9.2.1/cmath ****     cos(_Tp __x)
 197:/usr/include/newlib/c++/9.2.1/cmath ****     { return __builtin_cos(__x); }
 198:/usr/include/newlib/c++/9.2.1/cmath **** 
 199:/usr/include/newlib/c++/9.2.1/cmath ****   using ::cosh;
 200:/usr/include/newlib/c++/9.2.1/cmath **** 
 201:/usr/include/newlib/c++/9.2.1/cmath **** #ifndef __CORRECT_ISO_CPP_MATH_H_PROTO
 202:/usr/include/newlib/c++/9.2.1/cmath ****   inline _GLIBCXX_CONSTEXPR float
 203:/usr/include/newlib/c++/9.2.1/cmath ****   cosh(float __x)
 204:/usr/include/newlib/c++/9.2.1/cmath ****   { return __builtin_coshf(__x); }
 205:/usr/include/newlib/c++/9.2.1/cmath **** 
 206:/usr/include/newlib/c++/9.2.1/cmath ****   inline _GLIBCXX_CONSTEXPR long double
 207:/usr/include/newlib/c++/9.2.1/cmath ****   cosh(long double __x)
ARM GAS  /tmp/ccZhYDze.s 			page 114


 208:/usr/include/newlib/c++/9.2.1/cmath ****   { return __builtin_coshl(__x); }
 209:/usr/include/newlib/c++/9.2.1/cmath **** #endif
 210:/usr/include/newlib/c++/9.2.1/cmath **** 
 211:/usr/include/newlib/c++/9.2.1/cmath ****   template<typename _Tp>
 212:/usr/include/newlib/c++/9.2.1/cmath ****     inline _GLIBCXX_CONSTEXPR
 213:/usr/include/newlib/c++/9.2.1/cmath ****     typename __gnu_cxx::__enable_if<__is_integer<_Tp>::__value,
 214:/usr/include/newlib/c++/9.2.1/cmath ****                                     double>::__type
 215:/usr/include/newlib/c++/9.2.1/cmath ****     cosh(_Tp __x)
 216:/usr/include/newlib/c++/9.2.1/cmath ****     { return __builtin_cosh(__x); }
 217:/usr/include/newlib/c++/9.2.1/cmath **** 
 218:/usr/include/newlib/c++/9.2.1/cmath ****   using ::exp;
 219:/usr/include/newlib/c++/9.2.1/cmath **** 
 220:/usr/include/newlib/c++/9.2.1/cmath **** #ifndef __CORRECT_ISO_CPP_MATH_H_PROTO
 221:/usr/include/newlib/c++/9.2.1/cmath ****   inline _GLIBCXX_CONSTEXPR float
 222:/usr/include/newlib/c++/9.2.1/cmath ****   exp(float __x)
 223:/usr/include/newlib/c++/9.2.1/cmath ****   { return __builtin_expf(__x); }
 224:/usr/include/newlib/c++/9.2.1/cmath **** 
 225:/usr/include/newlib/c++/9.2.1/cmath ****   inline _GLIBCXX_CONSTEXPR long double
 226:/usr/include/newlib/c++/9.2.1/cmath ****   exp(long double __x)
 227:/usr/include/newlib/c++/9.2.1/cmath ****   { return __builtin_expl(__x); }
 228:/usr/include/newlib/c++/9.2.1/cmath **** #endif
 229:/usr/include/newlib/c++/9.2.1/cmath **** 
 230:/usr/include/newlib/c++/9.2.1/cmath ****   template<typename _Tp>
 231:/usr/include/newlib/c++/9.2.1/cmath ****     inline _GLIBCXX_CONSTEXPR
 232:/usr/include/newlib/c++/9.2.1/cmath ****     typename __gnu_cxx::__enable_if<__is_integer<_Tp>::__value,
 233:/usr/include/newlib/c++/9.2.1/cmath ****                                     double>::__type
 234:/usr/include/newlib/c++/9.2.1/cmath ****     exp(_Tp __x)
 235:/usr/include/newlib/c++/9.2.1/cmath ****     { return __builtin_exp(__x); }
 236:/usr/include/newlib/c++/9.2.1/cmath **** 
 237:/usr/include/newlib/c++/9.2.1/cmath ****   using ::fabs;
 238:/usr/include/newlib/c++/9.2.1/cmath **** 
 239:/usr/include/newlib/c++/9.2.1/cmath **** #ifndef __CORRECT_ISO_CPP_MATH_H_PROTO
 240:/usr/include/newlib/c++/9.2.1/cmath ****   inline _GLIBCXX_CONSTEXPR float
 241:/usr/include/newlib/c++/9.2.1/cmath ****   fabs(float __x)
 242:/usr/include/newlib/c++/9.2.1/cmath ****   { return __builtin_fabsf(__x); }
 243:/usr/include/newlib/c++/9.2.1/cmath **** 
 244:/usr/include/newlib/c++/9.2.1/cmath ****   inline _GLIBCXX_CONSTEXPR long double
 245:/usr/include/newlib/c++/9.2.1/cmath ****   fabs(long double __x)
 246:/usr/include/newlib/c++/9.2.1/cmath ****   { return __builtin_fabsl(__x); }
 247:/usr/include/newlib/c++/9.2.1/cmath **** #endif
 248:/usr/include/newlib/c++/9.2.1/cmath **** 
 249:/usr/include/newlib/c++/9.2.1/cmath ****   template<typename _Tp>
 250:/usr/include/newlib/c++/9.2.1/cmath ****     inline _GLIBCXX_CONSTEXPR
 251:/usr/include/newlib/c++/9.2.1/cmath ****     typename __gnu_cxx::__enable_if<__is_integer<_Tp>::__value,
 252:/usr/include/newlib/c++/9.2.1/cmath ****                                     double>::__type
 253:/usr/include/newlib/c++/9.2.1/cmath ****     fabs(_Tp __x)
 254:/usr/include/newlib/c++/9.2.1/cmath ****     { return __builtin_fabs(__x); }
 255:/usr/include/newlib/c++/9.2.1/cmath **** 
 256:/usr/include/newlib/c++/9.2.1/cmath ****   using ::floor;
 257:/usr/include/newlib/c++/9.2.1/cmath **** 
 258:/usr/include/newlib/c++/9.2.1/cmath **** #ifndef __CORRECT_ISO_CPP_MATH_H_PROTO
 259:/usr/include/newlib/c++/9.2.1/cmath ****   inline _GLIBCXX_CONSTEXPR float
 260:/usr/include/newlib/c++/9.2.1/cmath ****   floor(float __x)
 261:/usr/include/newlib/c++/9.2.1/cmath ****   { return __builtin_floorf(__x); }
 262:/usr/include/newlib/c++/9.2.1/cmath **** 
 263:/usr/include/newlib/c++/9.2.1/cmath ****   inline _GLIBCXX_CONSTEXPR long double
 264:/usr/include/newlib/c++/9.2.1/cmath ****   floor(long double __x)
ARM GAS  /tmp/ccZhYDze.s 			page 115


 265:/usr/include/newlib/c++/9.2.1/cmath ****   { return __builtin_floorl(__x); }
 266:/usr/include/newlib/c++/9.2.1/cmath **** #endif
 267:/usr/include/newlib/c++/9.2.1/cmath **** 
 268:/usr/include/newlib/c++/9.2.1/cmath ****   template<typename _Tp>
 269:/usr/include/newlib/c++/9.2.1/cmath ****     inline _GLIBCXX_CONSTEXPR
 270:/usr/include/newlib/c++/9.2.1/cmath ****     typename __gnu_cxx::__enable_if<__is_integer<_Tp>::__value,
 271:/usr/include/newlib/c++/9.2.1/cmath ****                                     double>::__type
 272:/usr/include/newlib/c++/9.2.1/cmath ****     floor(_Tp __x)
 273:/usr/include/newlib/c++/9.2.1/cmath ****     { return __builtin_floor(__x); }
 274:/usr/include/newlib/c++/9.2.1/cmath **** 
 275:/usr/include/newlib/c++/9.2.1/cmath ****   using ::fmod;
 276:/usr/include/newlib/c++/9.2.1/cmath **** 
 277:/usr/include/newlib/c++/9.2.1/cmath **** #ifndef __CORRECT_ISO_CPP_MATH_H_PROTO
 278:/usr/include/newlib/c++/9.2.1/cmath ****   inline _GLIBCXX_CONSTEXPR float
 279:/usr/include/newlib/c++/9.2.1/cmath ****   fmod(float __x, float __y)
 280:/usr/include/newlib/c++/9.2.1/cmath ****   { return __builtin_fmodf(__x, __y); }
 281:/usr/include/newlib/c++/9.2.1/cmath **** 
 282:/usr/include/newlib/c++/9.2.1/cmath ****   inline _GLIBCXX_CONSTEXPR long double
 283:/usr/include/newlib/c++/9.2.1/cmath ****   fmod(long double __x, long double __y)
 284:/usr/include/newlib/c++/9.2.1/cmath ****   { return __builtin_fmodl(__x, __y); }
 285:/usr/include/newlib/c++/9.2.1/cmath **** #endif
 286:/usr/include/newlib/c++/9.2.1/cmath **** 
 287:/usr/include/newlib/c++/9.2.1/cmath ****   template<typename _Tp, typename _Up>
 288:/usr/include/newlib/c++/9.2.1/cmath ****     inline _GLIBCXX_CONSTEXPR
 289:/usr/include/newlib/c++/9.2.1/cmath ****     typename __gnu_cxx::__promote_2<_Tp, _Up>::__type
 290:/usr/include/newlib/c++/9.2.1/cmath ****     fmod(_Tp __x, _Up __y)
 291:/usr/include/newlib/c++/9.2.1/cmath ****     {
 292:/usr/include/newlib/c++/9.2.1/cmath ****       typedef typename __gnu_cxx::__promote_2<_Tp, _Up>::__type __type;
 293:/usr/include/newlib/c++/9.2.1/cmath ****       return fmod(__type(__x), __type(__y));
 294:/usr/include/newlib/c++/9.2.1/cmath ****     }
 295:/usr/include/newlib/c++/9.2.1/cmath **** 
 296:/usr/include/newlib/c++/9.2.1/cmath ****   using ::frexp;
 297:/usr/include/newlib/c++/9.2.1/cmath **** 
 298:/usr/include/newlib/c++/9.2.1/cmath **** #ifndef __CORRECT_ISO_CPP_MATH_H_PROTO
 299:/usr/include/newlib/c++/9.2.1/cmath ****   inline float
 300:/usr/include/newlib/c++/9.2.1/cmath ****   frexp(float __x, int* __exp)
 301:/usr/include/newlib/c++/9.2.1/cmath ****   { return __builtin_frexpf(__x, __exp); }
 302:/usr/include/newlib/c++/9.2.1/cmath **** 
 303:/usr/include/newlib/c++/9.2.1/cmath ****   inline long double
 304:/usr/include/newlib/c++/9.2.1/cmath ****   frexp(long double __x, int* __exp)
 305:/usr/include/newlib/c++/9.2.1/cmath ****   { return __builtin_frexpl(__x, __exp); }
 306:/usr/include/newlib/c++/9.2.1/cmath **** #endif
 307:/usr/include/newlib/c++/9.2.1/cmath **** 
 308:/usr/include/newlib/c++/9.2.1/cmath ****   template<typename _Tp>
 309:/usr/include/newlib/c++/9.2.1/cmath ****     inline _GLIBCXX_CONSTEXPR
 310:/usr/include/newlib/c++/9.2.1/cmath ****     typename __gnu_cxx::__enable_if<__is_integer<_Tp>::__value, 
 311:/usr/include/newlib/c++/9.2.1/cmath ****                                     double>::__type
 312:/usr/include/newlib/c++/9.2.1/cmath ****     frexp(_Tp __x, int* __exp)
 313:/usr/include/newlib/c++/9.2.1/cmath ****     { return __builtin_frexp(__x, __exp); }
 314:/usr/include/newlib/c++/9.2.1/cmath **** 
 315:/usr/include/newlib/c++/9.2.1/cmath ****   using ::ldexp;
 316:/usr/include/newlib/c++/9.2.1/cmath **** 
 317:/usr/include/newlib/c++/9.2.1/cmath **** #ifndef __CORRECT_ISO_CPP_MATH_H_PROTO
 318:/usr/include/newlib/c++/9.2.1/cmath ****   inline _GLIBCXX_CONSTEXPR float
 319:/usr/include/newlib/c++/9.2.1/cmath ****   ldexp(float __x, int __exp)
 320:/usr/include/newlib/c++/9.2.1/cmath ****   { return __builtin_ldexpf(__x, __exp); }
 321:/usr/include/newlib/c++/9.2.1/cmath **** 
ARM GAS  /tmp/ccZhYDze.s 			page 116


 322:/usr/include/newlib/c++/9.2.1/cmath ****   inline _GLIBCXX_CONSTEXPR long double
 323:/usr/include/newlib/c++/9.2.1/cmath ****   ldexp(long double __x, int __exp)
 324:/usr/include/newlib/c++/9.2.1/cmath ****   { return __builtin_ldexpl(__x, __exp); }
 325:/usr/include/newlib/c++/9.2.1/cmath **** #endif
 326:/usr/include/newlib/c++/9.2.1/cmath **** 
 327:/usr/include/newlib/c++/9.2.1/cmath ****   template<typename _Tp>
 328:/usr/include/newlib/c++/9.2.1/cmath ****     inline _GLIBCXX_CONSTEXPR
 329:/usr/include/newlib/c++/9.2.1/cmath ****     typename __gnu_cxx::__enable_if<__is_integer<_Tp>::__value, 
 330:/usr/include/newlib/c++/9.2.1/cmath ****                                     double>::__type
 331:/usr/include/newlib/c++/9.2.1/cmath ****     ldexp(_Tp __x, int __exp)
 332:/usr/include/newlib/c++/9.2.1/cmath ****     { return __builtin_ldexp(__x, __exp); }
 333:/usr/include/newlib/c++/9.2.1/cmath **** 
 334:/usr/include/newlib/c++/9.2.1/cmath ****   using ::log;
 335:/usr/include/newlib/c++/9.2.1/cmath **** 
 336:/usr/include/newlib/c++/9.2.1/cmath **** #ifndef __CORRECT_ISO_CPP_MATH_H_PROTO
 337:/usr/include/newlib/c++/9.2.1/cmath ****   inline _GLIBCXX_CONSTEXPR float
 338:/usr/include/newlib/c++/9.2.1/cmath ****   log(float __x)
 339:/usr/include/newlib/c++/9.2.1/cmath ****   { return __builtin_logf(__x); }
 340:/usr/include/newlib/c++/9.2.1/cmath **** 
 341:/usr/include/newlib/c++/9.2.1/cmath ****   inline _GLIBCXX_CONSTEXPR long double
 342:/usr/include/newlib/c++/9.2.1/cmath ****   log(long double __x)
 343:/usr/include/newlib/c++/9.2.1/cmath ****   { return __builtin_logl(__x); }
 344:/usr/include/newlib/c++/9.2.1/cmath **** #endif
 345:/usr/include/newlib/c++/9.2.1/cmath **** 
 346:/usr/include/newlib/c++/9.2.1/cmath ****   template<typename _Tp>
 347:/usr/include/newlib/c++/9.2.1/cmath ****     inline _GLIBCXX_CONSTEXPR
 348:/usr/include/newlib/c++/9.2.1/cmath ****     typename __gnu_cxx::__enable_if<__is_integer<_Tp>::__value, 
 349:/usr/include/newlib/c++/9.2.1/cmath ****                                     double>::__type
 350:/usr/include/newlib/c++/9.2.1/cmath ****     log(_Tp __x)
 351:/usr/include/newlib/c++/9.2.1/cmath ****     { return __builtin_log(__x); }
 352:/usr/include/newlib/c++/9.2.1/cmath **** 
 353:/usr/include/newlib/c++/9.2.1/cmath ****   using ::log10;
 354:/usr/include/newlib/c++/9.2.1/cmath **** 
 355:/usr/include/newlib/c++/9.2.1/cmath **** #ifndef __CORRECT_ISO_CPP_MATH_H_PROTO
 356:/usr/include/newlib/c++/9.2.1/cmath ****   inline _GLIBCXX_CONSTEXPR float
 357:/usr/include/newlib/c++/9.2.1/cmath ****   log10(float __x)
 358:/usr/include/newlib/c++/9.2.1/cmath ****   { return __builtin_log10f(__x); }
 359:/usr/include/newlib/c++/9.2.1/cmath **** 
 360:/usr/include/newlib/c++/9.2.1/cmath ****   inline _GLIBCXX_CONSTEXPR long double
 361:/usr/include/newlib/c++/9.2.1/cmath ****   log10(long double __x)
 362:/usr/include/newlib/c++/9.2.1/cmath ****   { return __builtin_log10l(__x); }
 363:/usr/include/newlib/c++/9.2.1/cmath **** #endif
 364:/usr/include/newlib/c++/9.2.1/cmath **** 
 365:/usr/include/newlib/c++/9.2.1/cmath ****   template<typename _Tp>
 366:/usr/include/newlib/c++/9.2.1/cmath ****     inline _GLIBCXX_CONSTEXPR
 367:/usr/include/newlib/c++/9.2.1/cmath ****     typename __gnu_cxx::__enable_if<__is_integer<_Tp>::__value,
 368:/usr/include/newlib/c++/9.2.1/cmath ****                                     double>::__type
 369:/usr/include/newlib/c++/9.2.1/cmath ****     log10(_Tp __x)
 370:/usr/include/newlib/c++/9.2.1/cmath ****     { return __builtin_log10(__x); }
 371:/usr/include/newlib/c++/9.2.1/cmath **** 
 372:/usr/include/newlib/c++/9.2.1/cmath ****   using ::modf;
 373:/usr/include/newlib/c++/9.2.1/cmath **** 
 374:/usr/include/newlib/c++/9.2.1/cmath **** #ifndef __CORRECT_ISO_CPP_MATH_H_PROTO
 375:/usr/include/newlib/c++/9.2.1/cmath ****   inline float
 376:/usr/include/newlib/c++/9.2.1/cmath ****   modf(float __x, float* __iptr)
 377:/usr/include/newlib/c++/9.2.1/cmath ****   { return __builtin_modff(__x, __iptr); }
 378:/usr/include/newlib/c++/9.2.1/cmath **** 
ARM GAS  /tmp/ccZhYDze.s 			page 117


 379:/usr/include/newlib/c++/9.2.1/cmath ****   inline long double
 380:/usr/include/newlib/c++/9.2.1/cmath ****   modf(long double __x, long double* __iptr)
 381:/usr/include/newlib/c++/9.2.1/cmath ****   { return __builtin_modfl(__x, __iptr); }
 382:/usr/include/newlib/c++/9.2.1/cmath **** #endif
 383:/usr/include/newlib/c++/9.2.1/cmath **** 
 384:/usr/include/newlib/c++/9.2.1/cmath ****   using ::pow;
 385:/usr/include/newlib/c++/9.2.1/cmath **** 
 386:/usr/include/newlib/c++/9.2.1/cmath **** #ifndef __CORRECT_ISO_CPP_MATH_H_PROTO
 387:/usr/include/newlib/c++/9.2.1/cmath ****   inline _GLIBCXX_CONSTEXPR float
 388:/usr/include/newlib/c++/9.2.1/cmath ****   pow(float __x, float __y)
 389:/usr/include/newlib/c++/9.2.1/cmath ****   { return __builtin_powf(__x, __y); }
 390:/usr/include/newlib/c++/9.2.1/cmath **** 
 391:/usr/include/newlib/c++/9.2.1/cmath ****   inline _GLIBCXX_CONSTEXPR long double
 392:/usr/include/newlib/c++/9.2.1/cmath ****   pow(long double __x, long double __y)
 393:/usr/include/newlib/c++/9.2.1/cmath ****   { return __builtin_powl(__x, __y); }
 394:/usr/include/newlib/c++/9.2.1/cmath **** 
 395:/usr/include/newlib/c++/9.2.1/cmath **** #if __cplusplus < 201103L
 396:/usr/include/newlib/c++/9.2.1/cmath ****   // _GLIBCXX_RESOLVE_LIB_DEFECTS
 397:/usr/include/newlib/c++/9.2.1/cmath ****   // DR 550. What should the return type of pow(float,int) be?
 398:/usr/include/newlib/c++/9.2.1/cmath ****   inline double
 399:/usr/include/newlib/c++/9.2.1/cmath ****   pow(double __x, int __i)
 400:/usr/include/newlib/c++/9.2.1/cmath ****   { return __builtin_powi(__x, __i); }
 401:/usr/include/newlib/c++/9.2.1/cmath **** 
 402:/usr/include/newlib/c++/9.2.1/cmath ****   inline float
 403:/usr/include/newlib/c++/9.2.1/cmath ****   pow(float __x, int __n)
 404:/usr/include/newlib/c++/9.2.1/cmath ****   { return __builtin_powif(__x, __n); }
 405:/usr/include/newlib/c++/9.2.1/cmath **** 
 406:/usr/include/newlib/c++/9.2.1/cmath ****   inline long double
 407:/usr/include/newlib/c++/9.2.1/cmath ****   pow(long double __x, int __n)
 408:/usr/include/newlib/c++/9.2.1/cmath ****   { return __builtin_powil(__x, __n); }
 409:/usr/include/newlib/c++/9.2.1/cmath **** #endif
 410:/usr/include/newlib/c++/9.2.1/cmath **** #endif
 411:/usr/include/newlib/c++/9.2.1/cmath **** 
 412:/usr/include/newlib/c++/9.2.1/cmath ****   template<typename _Tp, typename _Up>
 413:/usr/include/newlib/c++/9.2.1/cmath ****     inline _GLIBCXX_CONSTEXPR
 414:/usr/include/newlib/c++/9.2.1/cmath ****     typename __gnu_cxx::__promote_2<_Tp, _Up>::__type
 415:/usr/include/newlib/c++/9.2.1/cmath ****     pow(_Tp __x, _Up __y)
 416:/usr/include/newlib/c++/9.2.1/cmath ****     {
 417:/usr/include/newlib/c++/9.2.1/cmath ****       typedef typename __gnu_cxx::__promote_2<_Tp, _Up>::__type __type;
 418:/usr/include/newlib/c++/9.2.1/cmath ****       return pow(__type(__x), __type(__y));
 419:/usr/include/newlib/c++/9.2.1/cmath ****     }
 420:/usr/include/newlib/c++/9.2.1/cmath **** 
 421:/usr/include/newlib/c++/9.2.1/cmath ****   using ::sin;
 422:/usr/include/newlib/c++/9.2.1/cmath **** 
 423:/usr/include/newlib/c++/9.2.1/cmath **** #ifndef __CORRECT_ISO_CPP_MATH_H_PROTO
 424:/usr/include/newlib/c++/9.2.1/cmath ****   inline _GLIBCXX_CONSTEXPR float
 425:/usr/include/newlib/c++/9.2.1/cmath ****   sin(float __x)
 426:/usr/include/newlib/c++/9.2.1/cmath ****   { return __builtin_sinf(__x); }
 3887              		.loc 18 426 26 view .LVU867
 3888 0064 B0EE680A 		vmov.f32	s0, s17
 3889              	.LBE1349:
 3890              	.LBE1348:
 315:../../libdaisy/src/hid/disp/display.h ****         start_y = -sin(start_angle_rad) * radius;
 3891              		.loc 6 315 9 view .LVU868
 3892 0068 F8EE679A 		vcvt.f32.u32	s19, s15
 3893              	.LBB1352:
 3894              	.LBB1350:
ARM GAS  /tmp/ccZhYDze.s 			page 118


 3895              		.loc 18 426 26 view .LVU869
 3896 006c FFF7FEFF 		bl	sinf
 3897              	.LVL270:
 3898 0070 F0EE408A 		vmov.f32	s17, s0
 3899              	.LVL271:
 3900              		.loc 18 426 26 view .LVU870
 3901              	.LBE1350:
 3902              	.LBE1352:
 3903              	.LBB1353:
 3904              	.LBB1354:
 185:/usr/include/newlib/c++/9.2.1/cmath **** 
 3905              		.loc 18 185 26 view .LVU871
 3906 0074 B0EE4A0A 		vmov.f32	s0, s20
 3907 0078 FFF7FEFF 		bl	cosf
 3908              	.LVL272:
 3909 007c B0EE409A 		vmov.f32	s18, s0
 3910              	.LBE1354:
 3911              	.LBE1353:
 3912              	.LBB1356:
 3913              	.LBB1357:
 3914              		.loc 18 426 26 view .LVU872
 3915 0080 B0EE4A0A 		vmov.f32	s0, s20
 3916 0084 FFF7FEFF 		bl	sinf
 3917              	.LVL273:
 3918              	.LBE1357:
 3919              	.LBE1356:
 316:../../libdaisy/src/hid/disp/display.h ****         end_x   = cos(end_angle_rad) * radius;
 3920              		.loc 6 316 9 view .LVU873
 3921 0088 68EEE98A 		vnmul.f32	s17, s17, s19
 318:../../libdaisy/src/hid/disp/display.h **** 
 3922              		.loc 6 318 9 view .LVU874
 3923 008c 20EE690A 		vnmul.f32	s0, s0, s19
 315:../../libdaisy/src/hid/disp/display.h ****         start_y = -sin(start_angle_rad) * radius;
 3924              		.loc 6 315 9 view .LVU875
 3925 0090 29EE888A 		vmul.f32	s16, s19, s16
 3926              	.LVL274:
 3927              	.LBB1359:
 3928              	.LBI1348:
 425:/usr/include/newlib/c++/9.2.1/cmath ****   { return __builtin_sinf(__x); }
 3929              		.loc 18 425 3 is_stmt 1 view .LVU876
 3930              	.LBB1351:
 3931              		.loc 18 426 5 view .LVU877
 3932              		.loc 18 426 5 is_stmt 0 view .LVU878
 3933              	.LBE1351:
 3934              	.LBE1359:
 3935              	.LBB1360:
 3936              	.LBI1353:
 184:/usr/include/newlib/c++/9.2.1/cmath ****   { return __builtin_cosf(__x); }
 3937              		.loc 18 184 3 is_stmt 1 view .LVU879
 3938              	.LBB1355:
 185:/usr/include/newlib/c++/9.2.1/cmath **** 
 3939              		.loc 18 185 5 view .LVU880
 185:/usr/include/newlib/c++/9.2.1/cmath **** 
 3940              		.loc 18 185 5 is_stmt 0 view .LVU881
 3941              	.LBE1355:
 3942              	.LBE1360:
 317:../../libdaisy/src/hid/disp/display.h ****         end_y   = -sin(end_angle_rad) * radius;
ARM GAS  /tmp/ccZhYDze.s 			page 119


 3943              		.loc 6 317 9 view .LVU882
 3944 0094 29EE899A 		vmul.f32	s18, s19, s18
 3945              	.LVL275:
 3946              	.LBB1361:
 3947              	.LBI1356:
 425:/usr/include/newlib/c++/9.2.1/cmath ****   { return __builtin_sinf(__x); }
 3948              		.loc 18 425 3 is_stmt 1 view .LVU883
 3949              	.LBB1358:
 3950              		.loc 18 426 5 view .LVU884
 3951              		.loc 18 426 5 is_stmt 0 view .LVU885
 3952              	.LBE1358:
 3953              	.LBE1361:
 322:../../libdaisy/src/hid/disp/display.h ****            < 2.0f)
 3954              		.loc 6 322 25 view .LVU886
 3955 0098 70EE687A 		vsub.f32	s15, s0, s17
 321:../../libdaisy/src/hid/disp/display.h ****                + (end_y - start_y) * (end_y - start_y)
 3956              		.loc 6 321 9 view .LVU887
 3957 009c F0EE006A 		vmov.f32	s13, #2.0e+0
 321:../../libdaisy/src/hid/disp/display.h ****                + (end_y - start_y) * (end_y - start_y)
 3958              		.loc 6 321 19 view .LVU888
 3959 00a0 39EE487A 		vsub.f32	s14, s18, s16
 322:../../libdaisy/src/hid/disp/display.h ****            < 2.0f)
 3960              		.loc 6 322 36 view .LVU889
 3961 00a4 67EEA77A 		vmul.f32	s15, s15, s15
 322:../../libdaisy/src/hid/disp/display.h ****            < 2.0f)
 3962              		.loc 6 322 16 view .LVU890
 3963 00a8 E7EE077A 		vfma.f32	s15, s14, s14
 321:../../libdaisy/src/hid/disp/display.h ****                + (end_y - start_y) * (end_y - start_y)
 3964              		.loc 6 321 9 view .LVU891
 3965 00ac F4EEE67A 		vcmpe.f32	s15, s13
 3966 00b0 F1EE10FA 		vmrs	APSR_nzcv, FPSCR
 3967 00b4 06D5     		bpl	.L303
 325:../../libdaisy/src/hid/disp/display.h ****                 circle = true;
 3968              		.loc 6 325 13 view .LVU892
 3969 00b6 159B     		ldr	r3, [sp, #84]
 3970 00b8 B42B     		cmp	r3, #180
 3971 00ba 40F3EE80 		ble	.L244
 326:../../libdaisy/src/hid/disp/display.h ****             else
 3972              		.loc 6 326 17 view .LVU893
 3973 00be 4FF0010E 		mov	lr, #1
 3974 00c2 01E0     		b	.L247
 3975              	.L303:
 304:../../libdaisy/src/hid/disp/display.h **** 
 3976              		.loc 6 304 14 view .LVU894
 3977 00c4 4FF0000E 		mov	lr, #0
 3978              	.L247:
 3979              	.LVL276:
 302:../../libdaisy/src/hid/disp/display.h **** 
 3980              		.loc 6 302 9 view .LVU895
 3981 00c8 0126     		movs	r6, #1
 334:../../libdaisy/src/hid/disp/display.h **** 
 3982              		.loc 6 334 17 view .LVU896
 3983 00ca C4F10103 		rsb	r3, r4, #1
 302:../../libdaisy/src/hid/disp/display.h **** 
 3984              		.loc 6 302 9 view .LVU897
 3985 00ce 3A46     		mov	r2, r7
 332:../../libdaisy/src/hid/disp/display.h ****         t_y = 0;
ARM GAS  /tmp/ccZhYDze.s 			page 120


 3986              		.loc 6 332 9 view .LVU898
 3987 00d0 6042     		rsbs	r0, r4, #0
 3988              	.LVL277:
 334:../../libdaisy/src/hid/disp/display.h **** 
 3989              		.loc 6 334 17 view .LVU899
 3990 00d2 B340     		lsls	r3, r3, r6
 3991              	.LVL278:
 333:../../libdaisy/src/hid/disp/display.h ****         err = 2 - 2 * radius;
 3992              		.loc 6 333 9 view .LVU900
 3993 00d4 0024     		movs	r4, #0
 3994              	.LVL279:
 302:../../libdaisy/src/hid/disp/display.h **** 
 3995              		.loc 6 302 9 view .LVU901
 3996 00d6 3146     		mov	r1, r6
 3997 00d8 3746     		mov	r7, r6
 3998              	.LVL280:
 302:../../libdaisy/src/hid/disp/display.h **** 
 3999              		.loc 6 302 9 view .LVU902
 4000 00da 9446     		mov	ip, r2
 4001 00dc 0196     		str	r6, [sp, #4]
 4002              	.LVL281:
 4003              	.L273:
 338:../../libdaisy/src/hid/disp/display.h ****             {
 4004              		.loc 6 338 13 view .LVU903
 4005 00de BEF1000F 		cmp	lr, #0
 4006 00e2 6AD1     		bne	.L249
 343:../../libdaisy/src/hid/disp/display.h ****                 t_exy  = end_x * t_y;
 4007              		.loc 6 343 34 view .LVU904
 4008 00e4 4242     		rsbs	r2, r0, #0
 340:../../libdaisy/src/hid/disp/display.h ****                 t_syx  = start_y * t_x;
 4009              		.loc 6 340 17 view .LVU905
 4010 00e6 06EE904A 		vmov	s13, r4	@ int
 342:../../libdaisy/src/hid/disp/display.h ****                 t_synx = start_y * -t_x;
 4011              		.loc 6 342 34 view .LVU906
 4012 00ea 6142     		rsbs	r1, r4, #0
 4013              	.LVL282:
 343:../../libdaisy/src/hid/disp/display.h ****                 t_exy  = end_x * t_y;
 4014              		.loc 6 343 34 view .LVU907
 4015 00ec 07EE102A 		vmov	s14, r2	@ int
 340:../../libdaisy/src/hid/disp/display.h ****                 t_syx  = start_y * t_x;
 4016              		.loc 6 340 17 view .LVU908
 4017 00f0 F8EEE66A 		vcvt.f32.s32	s13, s13
 342:../../libdaisy/src/hid/disp/display.h ****                 t_synx = start_y * -t_x;
 4018              		.loc 6 342 34 view .LVU909
 4019 00f4 07EE901A 		vmov	s15, r1	@ int
 349:../../libdaisy/src/hid/disp/display.h ****                 {
 4020              		.loc 6 349 17 view .LVU910
 4021 00f8 159A     		ldr	r2, [sp, #84]
 343:../../libdaisy/src/hid/disp/display.h ****                 t_exy  = end_x * t_y;
 4022              		.loc 6 343 34 view .LVU911
 4023 00fa B8EEC77A 		vcvt.f32.s32	s14, s14
 340:../../libdaisy/src/hid/disp/display.h ****                 t_syx  = start_y * t_x;
 4024              		.loc 6 340 17 view .LVU912
 4025 00fe 66EE884A 		vmul.f32	s9, s13, s16
 4026              	.LVL283:
 349:../../libdaisy/src/hid/disp/display.h ****                 {
 4027              		.loc 6 349 17 view .LVU913
ARM GAS  /tmp/ccZhYDze.s 			page 121


 4028 0102 B42A     		cmp	r2, #180
 344:../../libdaisy/src/hid/disp/display.h ****                 t_eyx  = end_y * t_x;
 4029              		.loc 6 344 17 view .LVU914
 4030 0104 26EE896A 		vmul.f32	s12, s13, s18
 341:../../libdaisy/src/hid/disp/display.h ****                 t_sxny = start_x * -t_y;
 4031              		.loc 6 341 17 view .LVU915
 4032 0108 06EE900A 		vmov	s13, r0	@ int
 343:../../libdaisy/src/hid/disp/display.h ****                 t_exy  = end_x * t_y;
 4033              		.loc 6 343 17 view .LVU916
 4034 010c 27EE284A 		vmul.f32	s8, s14, s17
 342:../../libdaisy/src/hid/disp/display.h ****                 t_synx = start_y * -t_x;
 4035              		.loc 6 342 34 view .LVU917
 4036 0110 F8EEE77A 		vcvt.f32.s32	s15, s15
 341:../../libdaisy/src/hid/disp/display.h ****                 t_sxny = start_x * -t_y;
 4037              		.loc 6 341 17 view .LVU918
 4038 0114 F8EEE66A 		vcvt.f32.s32	s13, s13
 351:../../libdaisy/src/hid/disp/display.h ****                     d2 = (t_sxy - t_syx < 0 || t_exy - t_eyx > 0);
 4039              		.loc 6 351 33 view .LVU919
 4040 0118 74EEC43A 		vsub.f32	s7, s9, s8
 342:../../libdaisy/src/hid/disp/display.h ****                 t_synx = start_y * -t_x;
 4041              		.loc 6 342 17 view .LVU920
 4042 011c 67EE885A 		vmul.f32	s11, s15, s16
 341:../../libdaisy/src/hid/disp/display.h ****                 t_sxny = start_x * -t_y;
 4043              		.loc 6 341 17 view .LVU921
 4044 0120 26EEA85A 		vmul.f32	s10, s13, s17
 4045              	.LVL284:
 346:../../libdaisy/src/hid/disp/display.h ****                 t_eynx = end_y * -t_x;
 4046              		.loc 6 346 17 view .LVU922
 4047 0124 67EE897A 		vmul.f32	s15, s15, s18
 347:../../libdaisy/src/hid/disp/display.h **** 
 4048              		.loc 6 347 17 view .LVU923
 4049 0128 27EE007A 		vmul.f32	s14, s14, s0
 345:../../libdaisy/src/hid/disp/display.h ****                 t_exny = end_x * -t_y;
 4050              		.loc 6 345 17 view .LVU924
 4051 012c 66EE806A 		vmul.f32	s13, s13, s0
 4052              	.LVL285:
 351:../../libdaisy/src/hid/disp/display.h ****                     d2 = (t_sxy - t_syx < 0 || t_exy - t_eyx > 0);
 4053              		.loc 6 351 46 view .LVU925
 4054 0130 F5EEC03A 		vcmpe.f32	s7, #0
 349:../../libdaisy/src/hid/disp/display.h ****                 {
 4055              		.loc 6 349 17 view .LVU926
 4056 0134 40F3DC80 		ble	.L250
 351:../../libdaisy/src/hid/disp/display.h ****                     d2 = (t_sxy - t_syx < 0 || t_exy - t_eyx > 0);
 4057              		.loc 6 351 46 view .LVU927
 4058 0138 F1EE10FA 		vmrs	APSR_nzcv, FPSCR
 4059 013c 00F14D81 		bmi	.L276
 351:../../libdaisy/src/hid/disp/display.h ****                     d2 = (t_sxy - t_syx < 0 || t_exy - t_eyx > 0);
 4060              		.loc 6 351 55 discriminator 2 view .LVU928
 4061 0140 76EE473A 		vsub.f32	s7, s12, s14
 352:../../libdaisy/src/hid/disp/display.h ****                     d3 = (t_sxny - t_syx < 0 || t_exny - t_eyx > 0);
 4062              		.loc 6 352 33 discriminator 2 view .LVU929
 4063 0144 74EEC54A 		vsub.f32	s9, s9, s10
 4064              	.LVL286:
 351:../../libdaisy/src/hid/disp/display.h ****                     d2 = (t_sxy - t_syx < 0 || t_exy - t_eyx > 0);
 4065              		.loc 6 351 46 discriminator 2 view .LVU930
 4066 0148 F5EEC03A 		vcmpe.f32	s7, #0
 4067 014c F1EE10FA 		vmrs	APSR_nzcv, FPSCR
ARM GAS  /tmp/ccZhYDze.s 			page 122


 352:../../libdaisy/src/hid/disp/display.h ****                     d3 = (t_sxny - t_syx < 0 || t_exny - t_eyx > 0);
 4068              		.loc 6 352 45 discriminator 2 view .LVU931
 4069 0150 F5EEC04A 		vcmpe.f32	s9, #0
 351:../../libdaisy/src/hid/disp/display.h ****                     d2 = (t_sxy - t_syx < 0 || t_exy - t_eyx > 0);
 4070              		.loc 6 351 46 discriminator 2 view .LVU932
 4071 0154 CCBF     		ite	gt
 4072 0156 0122     		movgt	r2, #1
 4073 0158 0022     		movle	r2, #0
 352:../../libdaisy/src/hid/disp/display.h ****                     d3 = (t_sxny - t_syx < 0 || t_exny - t_eyx > 0);
 4074              		.loc 6 352 45 discriminator 2 view .LVU933
 4075 015a F1EE10FA 		vmrs	APSR_nzcv, FPSCR
 351:../../libdaisy/src/hid/disp/display.h ****                     d2 = (t_sxy - t_syx < 0 || t_exy - t_eyx > 0);
 4076              		.loc 6 351 46 discriminator 2 view .LVU934
 4077 015e 0192     		str	r2, [sp, #4]
 4078              	.LVL287:
 352:../../libdaisy/src/hid/disp/display.h ****                     d3 = (t_sxny - t_syx < 0 || t_exny - t_eyx > 0);
 4079              		.loc 6 352 45 discriminator 2 view .LVU935
 4080 0160 00F14581 		bmi	.L277
 4081              	.L317:
 352:../../libdaisy/src/hid/disp/display.h ****                     d3 = (t_sxny - t_syx < 0 || t_exny - t_eyx > 0);
 4082              		.loc 6 352 54 discriminator 2 view .LVU936
 4083 0164 36EE666A 		vsub.f32	s12, s12, s13
 4084              	.LVL288:
 353:../../libdaisy/src/hid/disp/display.h ****                     d4 = (t_sxny - t_synx < 0 || t_exny - t_eynx > 0);
 4085              		.loc 6 353 34 discriminator 2 view .LVU937
 4086 0168 35EEC55A 		vsub.f32	s10, s11, s10
 4087              	.LVL289:
 352:../../libdaisy/src/hid/disp/display.h ****                     d3 = (t_sxny - t_syx < 0 || t_exny - t_eyx > 0);
 4088              		.loc 6 352 45 discriminator 2 view .LVU938
 4089 016c B5EEC06A 		vcmpe.f32	s12, #0
 4090 0170 F1EE10FA 		vmrs	APSR_nzcv, FPSCR
 353:../../libdaisy/src/hid/disp/display.h ****                     d4 = (t_sxny - t_synx < 0 || t_exny - t_eynx > 0);
 4091              		.loc 6 353 46 discriminator 2 view .LVU939
 4092 0174 B5EEC05A 		vcmpe.f32	s10, #0
 352:../../libdaisy/src/hid/disp/display.h ****                     d3 = (t_sxny - t_syx < 0 || t_exny - t_eyx > 0);
 4093              		.loc 6 352 45 discriminator 2 view .LVU940
 4094 0178 CCBF     		ite	gt
 4095 017a 0121     		movgt	r1, #1
 4096 017c 0021     		movle	r1, #0
 4097              	.LVL290:
 353:../../libdaisy/src/hid/disp/display.h ****                     d4 = (t_sxny - t_synx < 0 || t_exny - t_eynx > 0);
 4098              		.loc 6 353 46 discriminator 2 view .LVU941
 4099 017e F1EE10FA 		vmrs	APSR_nzcv, FPSCR
 4100 0182 00F13D81 		bmi	.L278
 4101              	.L318:
 353:../../libdaisy/src/hid/disp/display.h ****                     d4 = (t_sxny - t_synx < 0 || t_exny - t_eynx > 0);
 4102              		.loc 6 353 56 discriminator 2 view .LVU942
 4103 0186 77EEE66A 		vsub.f32	s13, s15, s13
 4104              	.LVL291:
 353:../../libdaisy/src/hid/disp/display.h ****                     d4 = (t_sxny - t_synx < 0 || t_exny - t_eynx > 0);
 4105              		.loc 6 353 46 discriminator 2 view .LVU943
 4106 018a F5EEC06A 		vcmpe.f32	s13, #0
 4107 018e F1EE10FA 		vmrs	APSR_nzcv, FPSCR
 4108 0192 CCBF     		ite	gt
 4109 0194 0126     		movgt	r6, #1
 4110              	.LVL292:
 353:../../libdaisy/src/hid/disp/display.h ****                     d4 = (t_sxny - t_synx < 0 || t_exny - t_eynx > 0);
ARM GAS  /tmp/ccZhYDze.s 			page 123


 4111              		.loc 6 353 46 discriminator 2 view .LVU944
 4112 0196 0026     		movle	r6, #0
 4113              	.L253:
 4114              	.LVL293:
 354:../../libdaisy/src/hid/disp/display.h ****                 }
 4115              		.loc 6 354 34 discriminator 6 view .LVU945
 4116 0198 75EEC45A 		vsub.f32	s11, s11, s8
 4117              	.LVL294:
 354:../../libdaisy/src/hid/disp/display.h ****                 }
 4118              		.loc 6 354 47 discriminator 6 view .LVU946
 4119 019c F5EEC05A 		vcmpe.f32	s11, #0
 4120 01a0 F1EE10FA 		vmrs	APSR_nzcv, FPSCR
 4121 01a4 00F11781 		bmi	.L279
 4122              	.L309:
 361:../../libdaisy/src/hid/disp/display.h ****                 }
 4123              		.loc 6 361 57 discriminator 1 view .LVU947
 4124 01a8 77EEC77A 		vsub.f32	s15, s15, s14
 4125              	.LVL295:
 361:../../libdaisy/src/hid/disp/display.h ****                 }
 4126              		.loc 6 361 47 discriminator 1 view .LVU948
 4127 01ac F5EEC07A 		vcmpe.f32	s15, #0
 4128 01b0 F1EE10FA 		vmrs	APSR_nzcv, FPSCR
 4129 01b4 CCBF     		ite	gt
 4130 01b6 0127     		movgt	r7, #1
 4131              	.LVL296:
 361:../../libdaisy/src/hid/disp/display.h ****                 }
 4132              		.loc 6 361 47 discriminator 1 view .LVU949
 4133 01b8 0027     		movle	r7, #0
 4134              	.LVL297:
 4135              	.L249:
 365:../../libdaisy/src/hid/disp/display.h ****                 ((ChildType*)(this))
 4136              		.loc 6 365 13 view .LVU950
 4137 01ba 019A     		ldr	r2, [sp, #4]
 4138 01bc F2B1     		cbz	r2, .L261
 366:../../libdaisy/src/hid/disp/display.h ****                     ->ChildType::DrawPixel(x - t_x, y + t_y, on);
 4139              		.loc 6 366 17 view .LVU951
 4140 01be ACEB0009 		sub	r9, ip, r0
 4141 01c2 04EB0805 		add	r5, r4, r8
 4142              	.LVL298:
 4143              	.LBB1362:
 4144              	.LBI1362:
  41:../../libdaisy/src/hid/disp/oled_display.h ****     {
 4145              		.loc 5 41 10 is_stmt 1 view .LVU952
 4146              	.LBB1363:
 4147              	.LBI1363:
 239:../../libdaisy/src/dev/oled_ssd130x.h ****     {
 4148              		.loc 16 239 10 view .LVU953
 4149              	.LBB1364:
 241:../../libdaisy/src/dev/oled_ssd130x.h ****             return;
 4150              		.loc 16 241 9 is_stmt 0 view .LVU954
 4151 01c6 B9F17F0F 		cmp	r9, #127
 4152 01ca 17D8     		bhi	.L261
 4153 01cc 3F2D     		cmp	r5, #63
 4154 01ce 15D8     		bhi	.L261
 244:../../libdaisy/src/dev/oled_ssd130x.h ****         else
 4155              		.loc 16 244 28 view .LVU955
 4156 01d0 4FEAD50A 		lsr	r10, r5, #3
ARM GAS  /tmp/ccZhYDze.s 			page 124


 244:../../libdaisy/src/dev/oled_ssd130x.h ****         else
 4157              		.loc 16 244 48 view .LVU956
 4158 01d4 4FF0010B 		mov	fp, #1
 244:../../libdaisy/src/dev/oled_ssd130x.h ****         else
 4159              		.loc 16 244 54 view .LVU957
 4160 01d8 05F00705 		and	r5, r5, #7
 4161              	.LVL299:
 243:../../libdaisy/src/dev/oled_ssd130x.h ****             buffer_[x + (y / 8) * width] |= (1 << (y % 8));
 4162              		.loc 16 243 9 view .LVU958
 4163 01dc 029A     		ldr	r2, [sp, #8]
 244:../../libdaisy/src/dev/oled_ssd130x.h ****         else
 4164              		.loc 16 244 42 view .LVU959
 4165 01de 09EBCA19 		add	r9, r9, r10, lsl #7
 4166              	.LVL300:
 244:../../libdaisy/src/dev/oled_ssd130x.h ****         else
 4167              		.loc 16 244 48 view .LVU960
 4168 01e2 0BFA05F5 		lsl	r5, fp, r5
 243:../../libdaisy/src/dev/oled_ssd130x.h ****             buffer_[x + (y / 8) * width] |= (1 << (y % 8));
 4169              		.loc 16 243 9 view .LVU961
 4170 01e6 002A     		cmp	r2, #0
 4171 01e8 00F0C280 		beq	.L262
 244:../../libdaisy/src/dev/oled_ssd130x.h ****         else
 4172              		.loc 16 244 13 view .LVU962
 4173 01ec 039A     		ldr	r2, [sp, #12]
 4174 01ee 9144     		add	r9, r9, r2
 244:../../libdaisy/src/dev/oled_ssd130x.h ****         else
 4175              		.loc 16 244 42 view .LVU963
 4176 01f0 99F814B0 		ldrb	fp, [r9, #20]	@ zero_extendqisi2
 4177 01f4 45EA0B05 		orr	r5, r5, fp
 244:../../libdaisy/src/dev/oled_ssd130x.h ****         else
 4178              		.loc 16 244 13 view .LVU964
 4179 01f8 89F81450 		strb	r5, [r9, #20]
 4180              	.LVL301:
 4181              	.L261:
 244:../../libdaisy/src/dev/oled_ssd130x.h ****         else
 4182              		.loc 16 244 13 view .LVU965
 4183              	.LBE1364:
 4184              	.LBE1363:
 4185              	.LBE1362:
 368:../../libdaisy/src/hid/disp/display.h ****                 ((ChildType*)(this))
 4186              		.loc 6 368 13 view .LVU966
 4187 01fc F1B1     		cbz	r1, .L263
 4188              	.L316:
 369:../../libdaisy/src/hid/disp/display.h ****                     ->ChildType::DrawPixel(x + t_x, y + t_y, on);
 4189              		.loc 6 369 17 view .LVU967
 4190 01fe 00EB0C09 		add	r9, r0, ip
 4191 0202 04EB0805 		add	r5, r4, r8
 4192              	.LVL302:
 4193              	.LBB1369:
 4194              	.LBI1369:
  41:../../libdaisy/src/hid/disp/oled_display.h ****     {
 4195              		.loc 5 41 10 is_stmt 1 view .LVU968
 4196              	.LBB1370:
 4197              	.LBI1370:
 239:../../libdaisy/src/dev/oled_ssd130x.h ****     {
 4198              		.loc 16 239 10 view .LVU969
 4199              	.LBB1371:
ARM GAS  /tmp/ccZhYDze.s 			page 125


 241:../../libdaisy/src/dev/oled_ssd130x.h ****             return;
 4200              		.loc 16 241 9 is_stmt 0 view .LVU970
 4201 0206 B9F17F0F 		cmp	r9, #127
 4202 020a 17D8     		bhi	.L263
 4203 020c 3F2D     		cmp	r5, #63
 4204 020e 15D8     		bhi	.L263
 244:../../libdaisy/src/dev/oled_ssd130x.h ****         else
 4205              		.loc 16 244 28 view .LVU971
 4206 0210 4FEAD50A 		lsr	r10, r5, #3
 244:../../libdaisy/src/dev/oled_ssd130x.h ****         else
 4207              		.loc 16 244 48 view .LVU972
 4208 0214 4FF0010B 		mov	fp, #1
 244:../../libdaisy/src/dev/oled_ssd130x.h ****         else
 4209              		.loc 16 244 54 view .LVU973
 4210 0218 05F00705 		and	r5, r5, #7
 4211              	.LVL303:
 243:../../libdaisy/src/dev/oled_ssd130x.h ****             buffer_[x + (y / 8) * width] |= (1 << (y % 8));
 4212              		.loc 16 243 9 view .LVU974
 4213 021c 029A     		ldr	r2, [sp, #8]
 244:../../libdaisy/src/dev/oled_ssd130x.h ****         else
 4214              		.loc 16 244 42 view .LVU975
 4215 021e 09EBCA19 		add	r9, r9, r10, lsl #7
 4216              	.LVL304:
 244:../../libdaisy/src/dev/oled_ssd130x.h ****         else
 4217              		.loc 16 244 48 view .LVU976
 4218 0222 0BFA05F5 		lsl	r5, fp, r5
 243:../../libdaisy/src/dev/oled_ssd130x.h ****             buffer_[x + (y / 8) * width] |= (1 << (y % 8));
 4219              		.loc 16 243 9 view .LVU977
 4220 0226 002A     		cmp	r2, #0
 4221 0228 00F08E80 		beq	.L264
 244:../../libdaisy/src/dev/oled_ssd130x.h ****         else
 4222              		.loc 16 244 13 view .LVU978
 4223 022c 039A     		ldr	r2, [sp, #12]
 4224 022e 9144     		add	r9, r9, r2
 244:../../libdaisy/src/dev/oled_ssd130x.h ****         else
 4225              		.loc 16 244 42 view .LVU979
 4226 0230 99F814B0 		ldrb	fp, [r9, #20]	@ zero_extendqisi2
 4227 0234 45EA0B05 		orr	r5, r5, fp
 244:../../libdaisy/src/dev/oled_ssd130x.h ****         else
 4228              		.loc 16 244 13 view .LVU980
 4229 0238 89F81450 		strb	r5, [r9, #20]
 4230              	.LVL305:
 4231              	.L263:
 244:../../libdaisy/src/dev/oled_ssd130x.h ****         else
 4232              		.loc 16 244 13 view .LVU981
 4233              	.LBE1371:
 4234              	.LBE1370:
 4235              	.LBE1369:
 371:../../libdaisy/src/hid/disp/display.h ****                 ((ChildType*)(this))
 4236              		.loc 6 371 13 view .LVU982
 4237 023c EEB1     		cbz	r6, .L265
 4238              	.L315:
 372:../../libdaisy/src/hid/disp/display.h ****                     ->ChildType::DrawPixel(x + t_x, y - t_y, on);
 4239              		.loc 6 372 17 view .LVU983
 4240 023e 00EB0C09 		add	r9, r0, ip
 4241 0242 A8EB0405 		sub	r5, r8, r4
 4242              	.LVL306:
ARM GAS  /tmp/ccZhYDze.s 			page 126


 4243              	.LBB1376:
 4244              	.LBI1376:
  41:../../libdaisy/src/hid/disp/oled_display.h ****     {
 4245              		.loc 5 41 10 is_stmt 1 view .LVU984
 4246              	.LBB1377:
 4247              	.LBI1377:
 239:../../libdaisy/src/dev/oled_ssd130x.h ****     {
 4248              		.loc 16 239 10 view .LVU985
 4249              	.LBB1378:
 241:../../libdaisy/src/dev/oled_ssd130x.h ****             return;
 4250              		.loc 16 241 9 is_stmt 0 view .LVU986
 4251 0246 B9F17F0F 		cmp	r9, #127
 4252 024a 16D8     		bhi	.L265
 4253 024c 3F2D     		cmp	r5, #63
 4254 024e 14D8     		bhi	.L265
 244:../../libdaisy/src/dev/oled_ssd130x.h ****         else
 4255              		.loc 16 244 28 view .LVU987
 4256 0250 4FEAD50A 		lsr	r10, r5, #3
 244:../../libdaisy/src/dev/oled_ssd130x.h ****         else
 4257              		.loc 16 244 48 view .LVU988
 4258 0254 4FF0010B 		mov	fp, #1
 244:../../libdaisy/src/dev/oled_ssd130x.h ****         else
 4259              		.loc 16 244 54 view .LVU989
 4260 0258 05F00705 		and	r5, r5, #7
 4261              	.LVL307:
 243:../../libdaisy/src/dev/oled_ssd130x.h ****             buffer_[x + (y / 8) * width] |= (1 << (y % 8));
 4262              		.loc 16 243 9 view .LVU990
 4263 025c 029A     		ldr	r2, [sp, #8]
 244:../../libdaisy/src/dev/oled_ssd130x.h ****         else
 4264              		.loc 16 244 42 view .LVU991
 4265 025e 09EBCA19 		add	r9, r9, r10, lsl #7
 4266              	.LVL308:
 244:../../libdaisy/src/dev/oled_ssd130x.h ****         else
 4267              		.loc 16 244 48 view .LVU992
 4268 0262 0BFA05F5 		lsl	r5, fp, r5
 243:../../libdaisy/src/dev/oled_ssd130x.h ****             buffer_[x + (y / 8) * width] |= (1 << (y % 8));
 4269              		.loc 16 243 9 view .LVU993
 4270 0266 002A     		cmp	r2, #0
 4271 0268 65D0     		beq	.L266
 244:../../libdaisy/src/dev/oled_ssd130x.h ****         else
 4272              		.loc 16 244 13 view .LVU994
 4273 026a 039A     		ldr	r2, [sp, #12]
 4274 026c 9144     		add	r9, r9, r2
 244:../../libdaisy/src/dev/oled_ssd130x.h ****         else
 4275              		.loc 16 244 42 view .LVU995
 4276 026e 99F814B0 		ldrb	fp, [r9, #20]	@ zero_extendqisi2
 4277 0272 45EA0B05 		orr	r5, r5, fp
 244:../../libdaisy/src/dev/oled_ssd130x.h ****         else
 4278              		.loc 16 244 13 view .LVU996
 4279 0276 89F81450 		strb	r5, [r9, #20]
 4280              	.LVL309:
 4281              	.L265:
 244:../../libdaisy/src/dev/oled_ssd130x.h ****         else
 4282              		.loc 16 244 13 view .LVU997
 4283              	.LBE1378:
 4284              	.LBE1377:
 4285              	.LBE1376:
ARM GAS  /tmp/ccZhYDze.s 			page 127


 374:../../libdaisy/src/hid/disp/display.h ****                 ((ChildType*)(this))
 4286              		.loc 6 374 13 view .LVU998
 4287 027a D7B9     		cbnz	r7, .L310
 4288              	.L267:
 4289              	.LVL310:
 379:../../libdaisy/src/hid/disp/display.h ****             {
 4290              		.loc 6 379 13 view .LVU999
 4291 027c 9C42     		cmp	r4, r3
 4292 027e 16DB     		blt	.L284
 381:../../libdaisy/src/hid/disp/display.h ****                 err = err + (t_y * 2 + 1);
 4293              		.loc 6 381 17 view .LVU1000
 4294 0280 0134     		adds	r4, r4, #1
 4295              	.LVL311:
 382:../../libdaisy/src/hid/disp/display.h ****                 if(-t_x == t_y && e2 <= t_x)
 4296              		.loc 6 382 38 view .LVU1001
 4297 0282 03EB4405 		add	r5, r3, r4, lsl #1
 383:../../libdaisy/src/hid/disp/display.h ****                 {
 4298              		.loc 6 383 17 view .LVU1002
 4299 0286 C442     		cmn	r4, r0
 382:../../libdaisy/src/hid/disp/display.h ****                 if(-t_x == t_y && e2 <= t_x)
 4300              		.loc 6 382 17 view .LVU1003
 4301 0288 05F10105 		add	r5, r5, #1
 4302              	.LVL312:
 383:../../libdaisy/src/hid/disp/display.h ****                 {
 4303              		.loc 6 383 17 view .LVU1004
 4304 028c 4FD0     		beq	.L311
 4305              	.LVL313:
 4306              	.L269:
 388:../../libdaisy/src/hid/disp/display.h ****             {
 4307              		.loc 6 388 13 view .LVU1005
 4308 028e 9842     		cmp	r0, r3
 4309 0290 08DB     		blt	.L270
 388:../../libdaisy/src/hid/disp/display.h ****             {
 4310              		.loc 6 388 13 view .LVU1006
 4311 0292 2B46     		mov	r3, r5
 4312              	.LVL314:
 4313              	.L271:
 393:../../libdaisy/src/hid/disp/display.h ****     }
 4314              		.loc 6 393 21 is_stmt 1 view .LVU1007
 4315 0294 0028     		cmp	r0, #0
 4316 0296 7FF722AF 		ble	.L273
 4317              	.LVL315:
 4318              	.L244:
 394:../../libdaisy/src/hid/disp/display.h **** 
 4319              		.loc 6 394 5 is_stmt 0 view .LVU1008
 4320 029a 05B0     		add	sp, sp, #20
 4321              		.cfi_remember_state
 4322              		.cfi_def_cfa_offset 60
 4323              		@ sp needed
 4324 029c BDEC068B 		vldm	sp!, {d8-d10}
 4325              		.cfi_restore 84
 4326              		.cfi_restore 85
 4327              		.cfi_restore 82
 4328              		.cfi_restore 83
 4329              		.cfi_restore 80
 4330              		.cfi_restore 81
 4331              		.cfi_def_cfa_offset 36
ARM GAS  /tmp/ccZhYDze.s 			page 128


 4332              	.LVL316:
 394:../../libdaisy/src/hid/disp/display.h **** 
 4333              		.loc 6 394 5 view .LVU1009
 4334 02a0 BDE8F08F 		pop	{r4, r5, r6, r7, r8, r9, r10, fp, pc}
 4335              	.LVL317:
 4336              	.L270:
 4337              		.cfi_restore_state
 390:../../libdaisy/src/hid/disp/display.h ****                 err = err + (t_x * 2 + 1);
 4338              		.loc 6 390 17 view .LVU1010
 4339 02a4 0130     		adds	r0, r0, #1
 4340              	.LVL318:
 391:../../libdaisy/src/hid/disp/display.h ****             }
 4341              		.loc 6 391 38 view .LVU1011
 4342 02a6 05EB4003 		add	r3, r5, r0, lsl #1
 391:../../libdaisy/src/hid/disp/display.h ****             }
 4343              		.loc 6 391 17 view .LVU1012
 4344 02aa 0133     		adds	r3, r3, #1
 4345              	.LVL319:
 391:../../libdaisy/src/hid/disp/display.h ****             }
 4346              		.loc 6 391 17 view .LVU1013
 4347 02ac F2E7     		b	.L271
 4348              	.LVL320:
 4349              	.L284:
 391:../../libdaisy/src/hid/disp/display.h ****             }
 4350              		.loc 6 391 17 view .LVU1014
 4351 02ae 1D46     		mov	r5, r3
 4352 02b0 EDE7     		b	.L269
 4353              	.LVL321:
 4354              	.L310:
 375:../../libdaisy/src/hid/disp/display.h ****                     ->ChildType::DrawPixel(x - t_x, y - t_y, on);
 4355              		.loc 6 375 17 view .LVU1015
 4356 02b2 ACEB0009 		sub	r9, ip, r0
 4357 02b6 A8EB0405 		sub	r5, r8, r4
 4358              	.LVL322:
 4359              	.LBB1383:
 4360              	.LBI1383:
  41:../../libdaisy/src/hid/disp/oled_display.h ****     {
 4361              		.loc 5 41 10 is_stmt 1 view .LVU1016
 4362              	.LBB1384:
 4363              	.LBI1384:
 239:../../libdaisy/src/dev/oled_ssd130x.h ****     {
 4364              		.loc 16 239 10 view .LVU1017
 4365              	.LBB1385:
 241:../../libdaisy/src/dev/oled_ssd130x.h ****             return;
 4366              		.loc 16 241 9 is_stmt 0 view .LVU1018
 4367 02ba B9F17F0F 		cmp	r9, #127
 4368 02be DDD8     		bhi	.L267
 4369 02c0 3F2D     		cmp	r5, #63
 4370 02c2 DBD8     		bhi	.L267
 244:../../libdaisy/src/dev/oled_ssd130x.h ****         else
 4371              		.loc 16 244 28 view .LVU1019
 4372 02c4 4FEAD50A 		lsr	r10, r5, #3
 244:../../libdaisy/src/dev/oled_ssd130x.h ****         else
 4373              		.loc 16 244 48 view .LVU1020
 4374 02c8 4FF0010B 		mov	fp, #1
 244:../../libdaisy/src/dev/oled_ssd130x.h ****         else
 4375              		.loc 16 244 54 view .LVU1021
ARM GAS  /tmp/ccZhYDze.s 			page 129


 4376 02cc 05F00705 		and	r5, r5, #7
 4377              	.LVL323:
 243:../../libdaisy/src/dev/oled_ssd130x.h ****             buffer_[x + (y / 8) * width] |= (1 << (y % 8));
 4378              		.loc 16 243 9 view .LVU1022
 4379 02d0 029A     		ldr	r2, [sp, #8]
 244:../../libdaisy/src/dev/oled_ssd130x.h ****         else
 4380              		.loc 16 244 42 view .LVU1023
 4381 02d2 09EBCA19 		add	r9, r9, r10, lsl #7
 4382              	.LVL324:
 244:../../libdaisy/src/dev/oled_ssd130x.h ****         else
 4383              		.loc 16 244 48 view .LVU1024
 4384 02d6 0BFA05F5 		lsl	r5, fp, r5
 243:../../libdaisy/src/dev/oled_ssd130x.h ****             buffer_[x + (y / 8) * width] |= (1 << (y % 8));
 4385              		.loc 16 243 9 view .LVU1025
 4386 02da 002A     		cmp	r2, #0
 4387 02dc 3FD0     		beq	.L268
 244:../../libdaisy/src/dev/oled_ssd130x.h ****         else
 4388              		.loc 16 244 13 view .LVU1026
 4389 02de 039A     		ldr	r2, [sp, #12]
 4390 02e0 9144     		add	r9, r9, r2
 244:../../libdaisy/src/dev/oled_ssd130x.h ****         else
 4391              		.loc 16 244 42 view .LVU1027
 4392 02e2 99F814B0 		ldrb	fp, [r9, #20]	@ zero_extendqisi2
 4393 02e6 45EA0B05 		orr	r5, r5, fp
 244:../../libdaisy/src/dev/oled_ssd130x.h ****         else
 4394              		.loc 16 244 13 view .LVU1028
 4395 02ea 89F81450 		strb	r5, [r9, #20]
 4396 02ee C5E7     		b	.L267
 4397              	.LVL325:
 4398              	.L250:
 244:../../libdaisy/src/dev/oled_ssd130x.h ****         else
 4399              		.loc 16 244 13 view .LVU1029
 4400              	.LBE1385:
 4401              	.LBE1384:
 4402              	.LBE1383:
 358:../../libdaisy/src/hid/disp/display.h ****                     d2 = (t_sxy - t_syx < 0 && t_exy - t_eyx > 0);
 4403              		.loc 6 358 46 view .LVU1030
 4404 02f0 F1EE10FA 		vmrs	APSR_nzcv, FPSCR
 4405 02f4 64D4     		bmi	.L312
 4406 02f6 CDF804E0 		str	lr, [sp, #4]
 4407              	.LVL326:
 4408              	.L254:
 359:../../libdaisy/src/hid/disp/display.h ****                     d3 = (t_sxny - t_syx < 0 && t_exny - t_eyx > 0);
 4409              		.loc 6 359 33 discriminator 6 view .LVU1031
 4410 02fa 74EEC54A 		vsub.f32	s9, s9, s10
 4411              	.LVL327:
 359:../../libdaisy/src/hid/disp/display.h ****                     d3 = (t_sxny - t_syx < 0 && t_exny - t_eyx > 0);
 4412              		.loc 6 359 45 discriminator 6 view .LVU1032
 4413 02fe F5EEC04A 		vcmpe.f32	s9, #0
 4414 0302 F1EE10FA 		vmrs	APSR_nzcv, FPSCR
 4415 0306 51D4     		bmi	.L313
 359:../../libdaisy/src/hid/disp/display.h ****                     d3 = (t_sxny - t_syx < 0 && t_exny - t_eyx > 0);
 4416              		.loc 6 359 45 view .LVU1033
 4417 0308 0021     		movs	r1, #0
 4418              	.LVL328:
 4419              	.L256:
 360:../../libdaisy/src/hid/disp/display.h ****                     d4 = (t_sxny - t_synx < 0 && t_exny - t_eynx > 0);
ARM GAS  /tmp/ccZhYDze.s 			page 130


 4420              		.loc 6 360 34 discriminator 6 view .LVU1034
 4421 030a 35EEC55A 		vsub.f32	s10, s11, s10
 4422              	.LVL329:
 360:../../libdaisy/src/hid/disp/display.h ****                     d4 = (t_sxny - t_synx < 0 && t_exny - t_eynx > 0);
 4423              		.loc 6 360 46 discriminator 6 view .LVU1035
 4424 030e B5EEC05A 		vcmpe.f32	s10, #0
 4425 0312 F1EE10FA 		vmrs	APSR_nzcv, FPSCR
 4426 0316 3FD4     		bmi	.L314
 360:../../libdaisy/src/hid/disp/display.h ****                     d4 = (t_sxny - t_synx < 0 && t_exny - t_eynx > 0);
 4427              		.loc 6 360 46 view .LVU1036
 4428 0318 0026     		movs	r6, #0
 4429              	.LVL330:
 4430              	.L258:
 361:../../libdaisy/src/hid/disp/display.h ****                 }
 4431              		.loc 6 361 34 discriminator 6 view .LVU1037
 4432 031a 75EEC45A 		vsub.f32	s11, s11, s8
 4433              	.LVL331:
 361:../../libdaisy/src/hid/disp/display.h ****                 }
 4434              		.loc 6 361 47 discriminator 6 view .LVU1038
 4435 031e F5EEC05A 		vcmpe.f32	s11, #0
 4436 0322 F1EE10FA 		vmrs	APSR_nzcv, FPSCR
 4437 0326 3FF53FAF 		bmi	.L309
 361:../../libdaisy/src/hid/disp/display.h ****                 }
 4438              		.loc 6 361 47 view .LVU1039
 4439 032a 0027     		movs	r7, #0
 4440              	.LVL332:
 361:../../libdaisy/src/hid/disp/display.h ****                 }
 4441              		.loc 6 361 47 view .LVU1040
 4442 032c 45E7     		b	.L249
 4443              	.LVL333:
 4444              	.L311:
 383:../../libdaisy/src/hid/disp/display.h ****                 {
 4445              		.loc 6 383 32 discriminator 1 view .LVU1041
 4446 032e 9842     		cmp	r0, r3
 4447 0330 B8DB     		blt	.L270
 385:../../libdaisy/src/hid/disp/display.h ****                 }
 4448              		.loc 6 385 21 view .LVU1042
 4449 0332 0023     		movs	r3, #0
 4450              	.LVL334:
 385:../../libdaisy/src/hid/disp/display.h ****                 }
 4451              		.loc 6 385 21 view .LVU1043
 4452 0334 ABE7     		b	.L269
 4453              	.LVL335:
 4454              	.L266:
 4455              	.LBB1390:
 4456              	.LBB1382:
 4457              	.LBB1381:
 4458              	.LBB1379:
 4459              	.LBI1379:
 239:../../libdaisy/src/dev/oled_ssd130x.h ****     {
 4460              		.loc 16 239 10 is_stmt 1 view .LVU1044
 4461              	.LBB1380:
 246:../../libdaisy/src/dev/oled_ssd130x.h ****     }
 4462              		.loc 16 246 13 is_stmt 0 view .LVU1045
 4463 0336 039A     		ldr	r2, [sp, #12]
 4464 0338 9144     		add	r9, r9, r2
 4465              	.LVL336:
ARM GAS  /tmp/ccZhYDze.s 			page 131


 246:../../libdaisy/src/dev/oled_ssd130x.h ****     }
 4466              		.loc 16 246 42 view .LVU1046
 4467 033a 99F814B0 		ldrb	fp, [r9, #20]	@ zero_extendqisi2
 4468 033e 2BEA0505 		bic	r5, fp, r5
 4469              	.LVL337:
 246:../../libdaisy/src/dev/oled_ssd130x.h ****     }
 4470              		.loc 16 246 13 view .LVU1047
 4471 0342 89F81450 		strb	r5, [r9, #20]
 4472 0346 98E7     		b	.L265
 4473              	.LVL338:
 4474              	.L264:
 246:../../libdaisy/src/dev/oled_ssd130x.h ****     }
 4475              		.loc 16 246 13 view .LVU1048
 4476              	.LBE1380:
 4477              	.LBE1379:
 4478              	.LBE1381:
 4479              	.LBE1382:
 4480              	.LBE1390:
 4481              	.LBB1391:
 4482              	.LBB1375:
 4483              	.LBB1374:
 4484              	.LBB1372:
 4485              	.LBI1372:
 239:../../libdaisy/src/dev/oled_ssd130x.h ****     {
 4486              		.loc 16 239 10 is_stmt 1 view .LVU1049
 4487              	.LBB1373:
 246:../../libdaisy/src/dev/oled_ssd130x.h ****     }
 4488              		.loc 16 246 13 is_stmt 0 view .LVU1050
 4489 0348 039A     		ldr	r2, [sp, #12]
 4490 034a 9144     		add	r9, r9, r2
 4491              	.LVL339:
 246:../../libdaisy/src/dev/oled_ssd130x.h ****     }
 4492              		.loc 16 246 42 view .LVU1051
 4493 034c 99F814B0 		ldrb	fp, [r9, #20]	@ zero_extendqisi2
 4494 0350 2BEA0505 		bic	r5, fp, r5
 4495              	.LVL340:
 246:../../libdaisy/src/dev/oled_ssd130x.h ****     }
 4496              		.loc 16 246 13 view .LVU1052
 4497 0354 89F81450 		strb	r5, [r9, #20]
 4498              	.LVL341:
 246:../../libdaisy/src/dev/oled_ssd130x.h ****     }
 4499              		.loc 16 246 13 view .LVU1053
 4500              	.LBE1373:
 4501              	.LBE1372:
 4502              	.LBE1374:
 4503              	.LBE1375:
 4504              	.LBE1391:
 371:../../libdaisy/src/hid/disp/display.h ****                 ((ChildType*)(this))
 4505              		.loc 6 371 13 view .LVU1054
 4506 0358 002E     		cmp	r6, #0
 4507 035a 8ED0     		beq	.L265
 4508 035c 6FE7     		b	.L315
 4509              	.LVL342:
 4510              	.L268:
 4511              	.LBB1392:
 4512              	.LBB1389:
 4513              	.LBB1388:
ARM GAS  /tmp/ccZhYDze.s 			page 132


 4514              	.LBB1386:
 4515              	.LBI1386:
 239:../../libdaisy/src/dev/oled_ssd130x.h ****     {
 4516              		.loc 16 239 10 is_stmt 1 view .LVU1055
 4517              	.LBB1387:
 246:../../libdaisy/src/dev/oled_ssd130x.h ****     }
 4518              		.loc 16 246 13 is_stmt 0 view .LVU1056
 4519 035e 039A     		ldr	r2, [sp, #12]
 4520 0360 9144     		add	r9, r9, r2
 4521              	.LVL343:
 246:../../libdaisy/src/dev/oled_ssd130x.h ****     }
 4522              		.loc 16 246 42 view .LVU1057
 4523 0362 99F814B0 		ldrb	fp, [r9, #20]	@ zero_extendqisi2
 4524 0366 2BEA0505 		bic	r5, fp, r5
 4525              	.LVL344:
 246:../../libdaisy/src/dev/oled_ssd130x.h ****     }
 4526              		.loc 16 246 13 view .LVU1058
 4527 036a 89F81450 		strb	r5, [r9, #20]
 4528 036e 85E7     		b	.L267
 4529              	.LVL345:
 4530              	.L262:
 246:../../libdaisy/src/dev/oled_ssd130x.h ****     }
 4531              		.loc 16 246 13 view .LVU1059
 4532              	.LBE1387:
 4533              	.LBE1386:
 4534              	.LBE1388:
 4535              	.LBE1389:
 4536              	.LBE1392:
 4537              	.LBB1393:
 4538              	.LBB1368:
 4539              	.LBB1367:
 4540              	.LBB1365:
 4541              	.LBI1365:
 239:../../libdaisy/src/dev/oled_ssd130x.h ****     {
 4542              		.loc 16 239 10 is_stmt 1 view .LVU1060
 4543              	.LBB1366:
 246:../../libdaisy/src/dev/oled_ssd130x.h ****     }
 4544              		.loc 16 246 13 is_stmt 0 view .LVU1061
 4545 0370 039A     		ldr	r2, [sp, #12]
 4546 0372 9144     		add	r9, r9, r2
 4547              	.LVL346:
 246:../../libdaisy/src/dev/oled_ssd130x.h ****     }
 4548              		.loc 16 246 42 view .LVU1062
 4549 0374 99F814B0 		ldrb	fp, [r9, #20]	@ zero_extendqisi2
 4550 0378 2BEA0505 		bic	r5, fp, r5
 4551              	.LVL347:
 246:../../libdaisy/src/dev/oled_ssd130x.h ****     }
 4552              		.loc 16 246 13 view .LVU1063
 4553 037c 89F81450 		strb	r5, [r9, #20]
 4554              	.LVL348:
 246:../../libdaisy/src/dev/oled_ssd130x.h ****     }
 4555              		.loc 16 246 13 view .LVU1064
 4556              	.LBE1366:
 4557              	.LBE1365:
 4558              	.LBE1367:
 4559              	.LBE1368:
 4560              	.LBE1393:
ARM GAS  /tmp/ccZhYDze.s 			page 133


 368:../../libdaisy/src/hid/disp/display.h ****                 ((ChildType*)(this))
 4561              		.loc 6 368 13 view .LVU1065
 4562 0380 0029     		cmp	r1, #0
 4563 0382 3FF45BAF 		beq	.L263
 4564 0386 3AE7     		b	.L316
 4565              	.L320:
 4566              		.align	3
 4567              	.L319:
 4568 0388 7A008BFC 		.word	4236968058
 4569 038c FA210940 		.word	1074340346
 4570 0390 00000000 		.word	0
 4571 0394 00806640 		.word	1080459264
 4572              	.LVL349:
 4573              	.L314:
 360:../../libdaisy/src/hid/disp/display.h ****                     d4 = (t_sxny - t_synx < 0 && t_exny - t_eynx > 0);
 4574              		.loc 6 360 56 discriminator 1 view .LVU1066
 4575 0398 77EEE66A 		vsub.f32	s13, s15, s13
 4576              	.LVL350:
 360:../../libdaisy/src/hid/disp/display.h ****                     d4 = (t_sxny - t_synx < 0 && t_exny - t_eynx > 0);
 4577              		.loc 6 360 46 discriminator 1 view .LVU1067
 4578 039c F5EEC06A 		vcmpe.f32	s13, #0
 4579 03a0 F1EE10FA 		vmrs	APSR_nzcv, FPSCR
 4580 03a4 CCBF     		ite	gt
 4581 03a6 0126     		movgt	r6, #1
 4582              	.LVL351:
 360:../../libdaisy/src/hid/disp/display.h ****                     d4 = (t_sxny - t_synx < 0 && t_exny - t_eynx > 0);
 4583              		.loc 6 360 46 discriminator 1 view .LVU1068
 4584 03a8 0026     		movle	r6, #0
 4585 03aa B6E7     		b	.L258
 4586              	.LVL352:
 4587              	.L313:
 359:../../libdaisy/src/hid/disp/display.h ****                     d3 = (t_sxny - t_syx < 0 && t_exny - t_eyx > 0);
 4588              		.loc 6 359 54 discriminator 1 view .LVU1069
 4589 03ac 36EE666A 		vsub.f32	s12, s12, s13
 4590              	.LVL353:
 359:../../libdaisy/src/hid/disp/display.h ****                     d3 = (t_sxny - t_syx < 0 && t_exny - t_eyx > 0);
 4591              		.loc 6 359 45 discriminator 1 view .LVU1070
 4592 03b0 B5EEC06A 		vcmpe.f32	s12, #0
 4593 03b4 F1EE10FA 		vmrs	APSR_nzcv, FPSCR
 4594 03b8 CCBF     		ite	gt
 4595 03ba 0121     		movgt	r1, #1
 4596 03bc 0021     		movle	r1, #0
 4597 03be A4E7     		b	.L256
 4598              	.LVL354:
 4599              	.L312:
 358:../../libdaisy/src/hid/disp/display.h ****                     d2 = (t_sxy - t_syx < 0 && t_exy - t_eyx > 0);
 4600              		.loc 6 358 55 discriminator 1 view .LVU1071
 4601 03c0 76EE473A 		vsub.f32	s7, s12, s14
 358:../../libdaisy/src/hid/disp/display.h ****                     d2 = (t_sxy - t_syx < 0 && t_exy - t_eyx > 0);
 4602              		.loc 6 358 46 discriminator 1 view .LVU1072
 4603 03c4 F5EEC03A 		vcmpe.f32	s7, #0
 4604 03c8 F1EE10FA 		vmrs	APSR_nzcv, FPSCR
 4605 03cc CCBF     		ite	gt
 4606 03ce 0122     		movgt	r2, #1
 4607 03d0 0022     		movle	r2, #0
 4608 03d2 0192     		str	r2, [sp, #4]
 4609              	.LVL355:
ARM GAS  /tmp/ccZhYDze.s 			page 134


 358:../../libdaisy/src/hid/disp/display.h ****                     d2 = (t_sxy - t_syx < 0 && t_exy - t_eyx > 0);
 4610              		.loc 6 358 46 discriminator 1 view .LVU1073
 4611 03d4 91E7     		b	.L254
 4612              	.LVL356:
 4613              	.L279:
 354:../../libdaisy/src/hid/disp/display.h ****                 }
 4614              		.loc 6 354 47 view .LVU1074
 4615 03d6 0127     		movs	r7, #1
 4616              	.LVL357:
 354:../../libdaisy/src/hid/disp/display.h ****                 }
 4617              		.loc 6 354 47 view .LVU1075
 4618 03d8 EFE6     		b	.L249
 4619              	.LVL358:
 4620              	.L276:
 352:../../libdaisy/src/hid/disp/display.h ****                     d3 = (t_sxny - t_syx < 0 || t_exny - t_eyx > 0);
 4621              		.loc 6 352 33 view .LVU1076
 4622 03da 74EEC54A 		vsub.f32	s9, s9, s10
 4623              	.LVL359:
 351:../../libdaisy/src/hid/disp/display.h ****                     d2 = (t_sxy - t_syx < 0 || t_exy - t_eyx > 0);
 4624              		.loc 6 351 46 view .LVU1077
 4625 03de 0122     		movs	r2, #1
 4626 03e0 0192     		str	r2, [sp, #4]
 4627              	.LVL360:
 352:../../libdaisy/src/hid/disp/display.h ****                     d3 = (t_sxny - t_syx < 0 || t_exny - t_eyx > 0);
 4628              		.loc 6 352 45 view .LVU1078
 4629 03e2 F5EEC04A 		vcmpe.f32	s9, #0
 4630 03e6 F1EE10FA 		vmrs	APSR_nzcv, FPSCR
 4631 03ea 7FF5BBAE 		bpl	.L317
 4632              	.L277:
 353:../../libdaisy/src/hid/disp/display.h ****                     d4 = (t_sxny - t_synx < 0 || t_exny - t_eynx > 0);
 4633              		.loc 6 353 34 view .LVU1079
 4634 03ee 35EEC55A 		vsub.f32	s10, s11, s10
 4635              	.LVL361:
 352:../../libdaisy/src/hid/disp/display.h ****                     d3 = (t_sxny - t_syx < 0 || t_exny - t_eyx > 0);
 4636              		.loc 6 352 45 view .LVU1080
 4637 03f2 0121     		movs	r1, #1
 4638              	.LVL362:
 353:../../libdaisy/src/hid/disp/display.h ****                     d4 = (t_sxny - t_synx < 0 || t_exny - t_eynx > 0);
 4639              		.loc 6 353 46 view .LVU1081
 4640 03f4 B5EEC05A 		vcmpe.f32	s10, #0
 4641 03f8 F1EE10FA 		vmrs	APSR_nzcv, FPSCR
 4642 03fc 7FF5C3AE 		bpl	.L318
 4643              	.LVL363:
 4644              	.L278:
 353:../../libdaisy/src/hid/disp/display.h ****                     d4 = (t_sxny - t_synx < 0 || t_exny - t_eynx > 0);
 4645              		.loc 6 353 46 view .LVU1082
 4646 0400 0126     		movs	r6, #1
 4647              	.LVL364:
 353:../../libdaisy/src/hid/disp/display.h ****                     d4 = (t_sxny - t_synx < 0 || t_exny - t_eynx > 0);
 4648              		.loc 6 353 46 view .LVU1083
 4649 0402 C9E6     		b	.L253
 4650              	.LVL365:
 4651              	.L245:
 308:../../libdaisy/src/hid/disp/display.h ****             sweep = -sweep;
 4652              		.loc 6 308 13 view .LVU1084
 4653 0404 DDE91423 		ldrd	r2, r3, [sp, #80]
 4654              	.LVL366:
ARM GAS  /tmp/ccZhYDze.s 			page 135


 308:../../libdaisy/src/hid/disp/display.h ****             sweep = -sweep;
 4655              		.loc 6 308 13 view .LVU1085
 4656 0408 1344     		add	r3, r3, r2
 4657              	.LVL367:
 308:../../libdaisy/src/hid/disp/display.h ****             sweep = -sweep;
 4658              		.loc 6 308 13 view .LVU1086
 4659 040a 06EE102A 		vmov	s12, r2	@ int
 4660 040e 1493     		str	r3, [sp, #80]
 4661 0410 159B     		ldr	r3, [sp, #84]
 4662              	.LVL368:
 308:../../libdaisy/src/hid/disp/display.h ****             sweep = -sweep;
 4663              		.loc 6 308 13 view .LVU1087
 4664 0412 5B42     		rsbs	r3, r3, #0
 4665 0414 1593     		str	r3, [sp, #84]
 4666              	.LVL369:
 308:../../libdaisy/src/hid/disp/display.h ****             sweep = -sweep;
 4667              		.loc 6 308 13 view .LVU1088
 4668 0416 07E6     		b	.L246
 4669              		.cfi_endproc
 4670              	.LFE4826:
 4672              		.section	.text._ZN5daisy25OneBitGraphicsDisplayImplINS_11OledDisplayINS_13SSD130xDriverILj128ELj64
 4673              		.align	1
 4674              		.p2align 2,,3
 4675              		.weak	_ZN5daisy25OneBitGraphicsDisplayImplINS_11OledDisplayINS_13SSD130xDriverILj128ELj64ENS_24SSD
 4676              		.syntax unified
 4677              		.thumb
 4678              		.thumb_func
 4679              		.fpu fpv5-d16
 4681              	_ZN5daisy25OneBitGraphicsDisplayImplINS_11OledDisplayINS_13SSD130xDriverILj128ELj64ENS_24SSD130x4Wi
 4682              	.LVL370:
 4683              	.LFB4825:
 257:../../libdaisy/src/hid/disp/display.h ****                   uint_fast8_t y1,
 4684              		.loc 6 257 10 is_stmt 1 view -0
 4685              		.cfi_startproc
 4686              		@ args = 12, pretend = 0, frame = 24
 4687              		@ frame_needed = 0, uses_anonymous_args = 0
 257:../../libdaisy/src/hid/disp/display.h ****                   uint_fast8_t y1,
 4688              		.loc 6 257 10 is_stmt 0 view .LVU1090
 4689 0000 2DE9F04F 		push	{r4, r5, r6, r7, r8, r9, r10, fp, lr}
 4690              		.cfi_def_cfa_offset 36
 4691              		.cfi_offset 4, -36
 4692              		.cfi_offset 5, -32
 4693              		.cfi_offset 6, -28
 4694              		.cfi_offset 7, -24
 4695              		.cfi_offset 8, -20
 4696              		.cfi_offset 9, -16
 4697              		.cfi_offset 10, -12
 4698              		.cfi_offset 11, -8
 4699              		.cfi_offset 14, -4
 4700 0004 87B0     		sub	sp, sp, #28
 4701              		.cfi_def_cfa_offset 64
 257:../../libdaisy/src/hid/disp/display.h ****                   uint_fast8_t y1,
 4702              		.loc 6 257 10 view .LVU1091
 4703 0006 9DF84860 		ldrb	r6, [sp, #72]	@ zero_extendqisi2
 4704 000a 109C     		ldr	r4, [sp, #64]
 4705 000c 9DF84450 		ldrb	r5, [sp, #68]	@ zero_extendqisi2
 4706 0010 0196     		str	r6, [sp, #4]
ARM GAS  /tmp/ccZhYDze.s 			page 136


 4707              	.LBB1466:
 264:../../libdaisy/src/hid/disp/display.h ****         {
 4708              		.loc 6 264 9 view .LVU1092
 4709 0012 9EB3     		cbz	r6, .L322
 4710              	.LVL371:
 4711              	.LBB1467:
 266:../../libdaisy/src/hid/disp/display.h ****             {
 4712              		.loc 6 266 40 is_stmt 1 view .LVU1093
 4713 0014 9942     		cmp	r1, r3
 4714 0016 2ED8     		bhi	.L321
 4715 0018 9A46     		mov	r10, r3
 4716              	.LVL372:
 4717              	.L325:
 4718              	.LBB1468:
 268:../../libdaisy/src/hid/disp/display.h ****                 {
 4719              		.loc 6 268 44 view .LVU1094
 4720 001a A242     		cmp	r2, r4
 4721 001c 28D8     		bhi	.L328
 268:../../libdaisy/src/hid/disp/display.h ****                 {
 4722              		.loc 6 268 44 is_stmt 0 view .LVU1095
 4723 001e 7F29     		cmp	r1, #127
 4724 0020 1646     		mov	r6, r2
 4725 0022 94BF     		ite	ls
 4726 0024 0023     		movls	r3, #0
 4727 0026 0123     		movhi	r3, #1
 4728 0028 08E0     		b	.L329
 4729              	.LVL373:
 4730              	.L411:
 4731              	.LBB1469:
 4732              	.LBB1470:
 4733              	.LBB1471:
 244:../../libdaisy/src/dev/oled_ssd130x.h ****         else
 4734              		.loc 16 244 42 view .LVU1096
 4735 002a 9CF81490 		ldrb	r9, [ip, #20]	@ zero_extendqisi2
 4736 002e 4EEA090E 		orr	lr, lr, r9
 244:../../libdaisy/src/dev/oled_ssd130x.h ****         else
 4737              		.loc 16 244 13 view .LVU1097
 4738 0032 8CF814E0 		strb	lr, [ip, #20]
 4739              	.LVL374:
 4740              	.L326:
 244:../../libdaisy/src/dev/oled_ssd130x.h ****         else
 4741              		.loc 16 244 13 view .LVU1098
 4742              	.LBE1471:
 4743              	.LBE1470:
 4744              	.LBE1469:
 268:../../libdaisy/src/hid/disp/display.h ****                 {
 4745              		.loc 6 268 17 is_stmt 1 view .LVU1099
 4746 0036 0136     		adds	r6, r6, #1
 4747              	.LVL375:
 268:../../libdaisy/src/hid/disp/display.h ****                 {
 4748              		.loc 6 268 44 view .LVU1100
 4749 0038 B442     		cmp	r4, r6
 4750 003a 19D3     		bcc	.L328
 4751              	.L329:
 4752              	.LVL376:
 4753              	.LBB1485:
 4754              	.LBI1469:
ARM GAS  /tmp/ccZhYDze.s 			page 137


  41:../../libdaisy/src/hid/disp/oled_display.h ****     {
 4755              		.loc 5 41 10 view .LVU1101
 4756              	.LBB1482:
 4757              	.LBI1470:
 239:../../libdaisy/src/dev/oled_ssd130x.h ****     {
 4758              		.loc 16 239 10 view .LVU1102
 4759              	.LBB1479:
 241:../../libdaisy/src/dev/oled_ssd130x.h ****             return;
 4760              		.loc 16 241 9 is_stmt 0 view .LVU1103
 4761 003c 3F2E     		cmp	r6, #63
 4762 003e FAD8     		bhi	.L326
 241:../../libdaisy/src/dev/oled_ssd130x.h ****             return;
 4763              		.loc 16 241 9 view .LVU1104
 4764 0040 002B     		cmp	r3, #0
 4765 0042 F8D1     		bne	.L326
 4766              	.LVL377:
 4767              	.LBB1472:
 4768              	.LBI1472:
 239:../../libdaisy/src/dev/oled_ssd130x.h ****     {
 4769              		.loc 16 239 10 is_stmt 1 view .LVU1105
 239:../../libdaisy/src/dev/oled_ssd130x.h ****     {
 4770              		.loc 16 239 10 is_stmt 0 view .LVU1106
 4771              	.LBE1472:
 244:../../libdaisy/src/dev/oled_ssd130x.h ****         else
 4772              		.loc 16 244 28 view .LVU1107
 4773 0044 4FEAD60C 		lsr	ip, r6, #3
 244:../../libdaisy/src/dev/oled_ssd130x.h ****         else
 4774              		.loc 16 244 54 view .LVU1108
 4775 0048 06F0070E 		and	lr, r6, #7
 244:../../libdaisy/src/dev/oled_ssd130x.h ****         else
 4776              		.loc 16 244 48 view .LVU1109
 4777 004c 4FF00109 		mov	r9, #1
 244:../../libdaisy/src/dev/oled_ssd130x.h ****         else
 4778              		.loc 16 244 42 view .LVU1110
 4779 0050 01EBCC1C 		add	ip, r1, ip, lsl #7
 244:../../libdaisy/src/dev/oled_ssd130x.h ****         else
 4780              		.loc 16 244 48 view .LVU1111
 4781 0054 09FA0EFE 		lsl	lr, r9, lr
 244:../../libdaisy/src/dev/oled_ssd130x.h ****         else
 4782              		.loc 16 244 13 view .LVU1112
 4783 0058 8444     		add	ip, ip, r0
 243:../../libdaisy/src/dev/oled_ssd130x.h ****             buffer_[x + (y / 8) * width] |= (1 << (y % 8));
 4784              		.loc 16 243 9 view .LVU1113
 4785 005a 002D     		cmp	r5, #0
 4786 005c E5D1     		bne	.L411
 4787              	.LBB1476:
 4788              	.LBB1473:
 246:../../libdaisy/src/dev/oled_ssd130x.h ****     }
 4789              		.loc 16 246 42 view .LVU1114
 4790 005e 9CF814B0 		ldrb	fp, [ip, #20]	@ zero_extendqisi2
 4791              	.LBE1473:
 4792              	.LBE1476:
 4793              	.LBE1479:
 4794              	.LBE1482:
 4795              	.LBE1485:
 268:../../libdaisy/src/hid/disp/display.h ****                 {
 4796              		.loc 6 268 17 view .LVU1115
ARM GAS  /tmp/ccZhYDze.s 			page 138


 4797 0062 0136     		adds	r6, r6, #1
 4798              	.LVL378:
 4799              	.LBB1486:
 4800              	.LBB1483:
 4801              	.LBB1480:
 4802              	.LBB1477:
 4803              	.LBB1474:
 246:../../libdaisy/src/dev/oled_ssd130x.h ****     }
 4804              		.loc 16 246 42 view .LVU1116
 4805 0064 2BEA0E08 		bic	r8, fp, lr
 4806              	.LBE1474:
 4807              	.LBE1477:
 4808              	.LBE1480:
 4809              	.LBE1483:
 4810              	.LBE1486:
 268:../../libdaisy/src/hid/disp/display.h ****                 {
 4811              		.loc 6 268 44 view .LVU1117
 4812 0068 B442     		cmp	r4, r6
 4813              	.LBB1487:
 4814              	.LBB1484:
 4815              	.LBB1481:
 4816              	.LBB1478:
 4817              	.LBB1475:
 246:../../libdaisy/src/dev/oled_ssd130x.h ****     }
 4818              		.loc 16 246 13 view .LVU1118
 4819 006a 8CF81480 		strb	r8, [ip, #20]
 4820              	.LVL379:
 246:../../libdaisy/src/dev/oled_ssd130x.h ****     }
 4821              		.loc 16 246 13 view .LVU1119
 4822              	.LBE1475:
 4823              	.LBE1478:
 4824              	.LBE1481:
 4825              	.LBE1484:
 4826              	.LBE1487:
 268:../../libdaisy/src/hid/disp/display.h ****                 {
 4827              		.loc 6 268 17 is_stmt 1 view .LVU1120
 268:../../libdaisy/src/hid/disp/display.h ****                 {
 4828              		.loc 6 268 44 view .LVU1121
 4829 006e E5D2     		bcs	.L329
 4830              	.LVL380:
 4831              	.L328:
 268:../../libdaisy/src/hid/disp/display.h ****                 {
 4832              		.loc 6 268 44 is_stmt 0 view .LVU1122
 4833              	.LBE1468:
 266:../../libdaisy/src/hid/disp/display.h ****             {
 4834              		.loc 6 266 13 is_stmt 1 view .LVU1123
 4835 0070 0131     		adds	r1, r1, #1
 4836              	.LVL381:
 266:../../libdaisy/src/hid/disp/display.h ****             {
 4837              		.loc 6 266 40 view .LVU1124
 4838 0072 8A45     		cmp	r10, r1
 4839 0074 D1D2     		bcs	.L325
 4840              	.LVL382:
 4841              	.L321:
 266:../../libdaisy/src/hid/disp/display.h ****             {
 4842              		.loc 6 266 40 is_stmt 0 view .LVU1125
 4843              	.LBE1467:
ARM GAS  /tmp/ccZhYDze.s 			page 139


 4844              	.LBE1466:
 281:../../libdaisy/src/hid/disp/display.h **** 
 4845              		.loc 6 281 5 view .LVU1126
 4846 0076 07B0     		add	sp, sp, #28
 4847              		.cfi_remember_state
 4848              		.cfi_def_cfa_offset 36
 4849              		@ sp needed
 4850 0078 BDE8F08F 		pop	{r4, r5, r6, r7, r8, r9, r10, fp, pc}
 4851              	.LVL383:
 4852              	.L322:
 4853              		.cfi_restore_state
 4854              	.LBB1488:
 4855              	.LBI1488:
 257:../../libdaisy/src/hid/disp/display.h ****                   uint_fast8_t y1,
 4856              		.loc 6 257 10 is_stmt 1 view .LVU1127
 4857              	.LBB1489:
 4858              	.LBI1489:
 221:../../libdaisy/src/hid/disp/display.h ****                   uint_fast8_t y1,
 4859              		.loc 6 221 10 view .LVU1128
 4860              	.LBB1490:
 227:../../libdaisy/src/hid/disp/display.h ****         int_fast16_t deltaY = abs((int_fast16_t)y2 - (int_fast16_t)y1);
 4861              		.loc 6 227 52 is_stmt 0 view .LVU1129
 4862 007c A3EB0108 		sub	r8, r3, r1
 227:../../libdaisy/src/hid/disp/display.h ****         int_fast16_t deltaY = abs((int_fast16_t)y2 - (int_fast16_t)y1);
 4863              		.loc 6 227 22 view .LVU1130
 4864 0080 B8F1000F 		cmp	r8, #0
 4865 0084 B8BF     		it	lt
 4866 0086 C8F10008 		rsblt	r8, r8, #0
 4867              	.LVL384:
 229:../../libdaisy/src/hid/disp/display.h ****         int_fast16_t signY  = ((y1 < y2) ? 1 : -1);
 4868              		.loc 6 229 22 view .LVU1131
 4869 008a 9942     		cmp	r1, r3
 4870 008c 80F05481 		bcs	.L412
 4871              	.LVL385:
 4872              	.LBB1491:
 4873              	.LBI1491:
  41:../../libdaisy/src/hid/disp/oled_display.h ****     {
 4874              		.loc 5 41 10 is_stmt 1 view .LVU1132
 4875              	.LBB1492:
 4876              	.LBI1492:
 239:../../libdaisy/src/dev/oled_ssd130x.h ****     {
 4877              		.loc 16 239 10 view .LVU1133
 4878              	.LBB1493:
 241:../../libdaisy/src/dev/oled_ssd130x.h ****             return;
 4879              		.loc 16 241 28 is_stmt 0 view .LVU1134
 4880 0090 3F2A     		cmp	r2, #63
 4881              	.LBE1493:
 4882              	.LBE1492:
 4883              	.LBE1491:
 229:../../libdaisy/src/hid/disp/display.h ****         int_fast16_t signY  = ((y1 < y2) ? 1 : -1);
 4884              		.loc 6 229 22 view .LVU1135
 4885 0092 4FF00109 		mov	r9, #1
 4886              	.LBB1502:
 4887              	.LBB1499:
 4888              	.LBB1496:
 241:../../libdaisy/src/dev/oled_ssd130x.h ****             return;
 4889              		.loc 16 241 28 view .LVU1136
ARM GAS  /tmp/ccZhYDze.s 			page 140


 4890 0096 94BF     		ite	ls
 4891 0098 0026     		movls	r6, #0
 4892 009a 0126     		movhi	r6, #1
 241:../../libdaisy/src/dev/oled_ssd130x.h ****             return;
 4893              		.loc 16 241 14 view .LVU1137
 4894 009c 7F2B     		cmp	r3, #127
 241:../../libdaisy/src/dev/oled_ssd130x.h ****             return;
 4895              		.loc 16 241 28 view .LVU1138
 4896 009e 0296     		str	r6, [sp, #8]
 241:../../libdaisy/src/dev/oled_ssd130x.h ****             return;
 4897              		.loc 16 241 14 view .LVU1139
 4898 00a0 94BF     		ite	ls
 4899 00a2 0027     		movls	r7, #0
 4900 00a4 0127     		movhi	r7, #1
 4901 00a6 0097     		str	r7, [sp]
 241:../../libdaisy/src/dev/oled_ssd130x.h ****             return;
 4902              		.loc 16 241 9 view .LVU1140
 4903 00a8 DEB9     		cbnz	r6, .L334
 4904 00aa D7B9     		cbnz	r7, .L334
 243:../../libdaisy/src/dev/oled_ssd130x.h ****             buffer_[x + (y / 8) * width] |= (1 << (y % 8));
 4905              		.loc 16 243 9 view .LVU1141
 4906 00ac 002D     		cmp	r5, #0
 4907 00ae 00F05881 		beq	.L332
 4908              	.LVL386:
 4909              	.L415:
 243:../../libdaisy/src/dev/oled_ssd130x.h ****             buffer_[x + (y / 8) * width] |= (1 << (y % 8));
 4910              		.loc 16 243 9 view .LVU1142
 4911 00b2 0026     		movs	r6, #0
 244:../../libdaisy/src/dev/oled_ssd130x.h ****         else
 4912              		.loc 16 244 28 view .LVU1143
 4913 00b4 4FEAD20E 		lsr	lr, r2, #3
 244:../../libdaisy/src/dev/oled_ssd130x.h ****         else
 4914              		.loc 16 244 48 view .LVU1144
 4915 00b8 4FF0010C 		mov	ip, #1
 244:../../libdaisy/src/dev/oled_ssd130x.h ****         else
 4916              		.loc 16 244 54 view .LVU1145
 4917 00bc 02F00707 		and	r7, r2, #7
 244:../../libdaisy/src/dev/oled_ssd130x.h ****         else
 4918              		.loc 16 244 42 view .LVU1146
 4919 00c0 03EBCE1E 		add	lr, r3, lr, lsl #7
 4920 00c4 0296     		str	r6, [sp, #8]
 4921 00c6 0026     		movs	r6, #0
 244:../../libdaisy/src/dev/oled_ssd130x.h ****         else
 4922              		.loc 16 244 48 view .LVU1147
 4923 00c8 0CFA07F7 		lsl	r7, ip, r7
 4924 00cc 0096     		str	r6, [sp]
 244:../../libdaisy/src/dev/oled_ssd130x.h ****         else
 4925              		.loc 16 244 13 view .LVU1148
 4926 00ce 0EEB0006 		add	r6, lr, r0
 244:../../libdaisy/src/dev/oled_ssd130x.h ****         else
 4927              		.loc 16 244 42 view .LVU1149
 4928 00d2 96F814C0 		ldrb	ip, [r6, #20]	@ zero_extendqisi2
 4929 00d6 47EA0C07 		orr	r7, r7, ip
 244:../../libdaisy/src/dev/oled_ssd130x.h ****         else
 4930              		.loc 16 244 13 view .LVU1150
 4931 00da 3775     		strb	r7, [r6, #20]
 4932              	.L331:
ARM GAS  /tmp/ccZhYDze.s 			page 141


 4933              	.LVL387:
 244:../../libdaisy/src/dev/oled_ssd130x.h ****         else
 4934              		.loc 16 244 13 view .LVU1151
 4935              	.LBE1496:
 4936              	.LBE1499:
 4937              	.LBE1502:
 239:../../libdaisy/src/hid/disp/display.h ****         {
 4938              		.loc 6 239 26 is_stmt 1 view .LVU1152
 4939 00dc 9942     		cmp	r1, r3
 4940 00de 00F09781 		beq	.L413
 4941              	.L334:
 4942              	.LVL388:
 227:../../libdaisy/src/hid/disp/display.h ****         int_fast16_t deltaY = abs((int_fast16_t)y2 - (int_fast16_t)y1);
 4943              		.loc 6 227 22 is_stmt 0 view .LVU1153
 4944 00e2 C446     		mov	ip, r8
 4945 00e4 1646     		mov	r6, r2
 4946 00e6 0F46     		mov	r7, r1
 4947              	.L336:
 4948              	.LVL389:
 4949              	.LBB1503:
 4950              	.LBI1503:
  41:../../libdaisy/src/hid/disp/oled_display.h ****     {
 4951              		.loc 5 41 10 is_stmt 1 view .LVU1154
 4952              	.LBB1504:
 4953              	.LBI1504:
 239:../../libdaisy/src/dev/oled_ssd130x.h ****     {
 4954              		.loc 16 239 10 view .LVU1155
 4955              	.LBB1505:
 241:../../libdaisy/src/dev/oled_ssd130x.h ****             return;
 4956              		.loc 16 241 9 is_stmt 0 view .LVU1156
 4957 00e8 7F2F     		cmp	r7, #127
 4958 00ea 15D8     		bhi	.L337
 4959 00ec 3F2E     		cmp	r6, #63
 4960 00ee 13D8     		bhi	.L337
 244:../../libdaisy/src/dev/oled_ssd130x.h ****         else
 4961              		.loc 16 244 28 view .LVU1157
 4962 00f0 4FEAD60E 		lsr	lr, r6, #3
 244:../../libdaisy/src/dev/oled_ssd130x.h ****         else
 4963              		.loc 16 244 48 view .LVU1158
 4964 00f4 4FF0010B 		mov	fp, #1
 244:../../libdaisy/src/dev/oled_ssd130x.h ****         else
 4965              		.loc 16 244 54 view .LVU1159
 4966 00f8 06F0070A 		and	r10, r6, #7
 244:../../libdaisy/src/dev/oled_ssd130x.h ****         else
 4967              		.loc 16 244 42 view .LVU1160
 4968 00fc 07EBCE1E 		add	lr, r7, lr, lsl #7
 244:../../libdaisy/src/dev/oled_ssd130x.h ****         else
 4969              		.loc 16 244 48 view .LVU1161
 4970 0100 0BFA0AFA 		lsl	r10, fp, r10
 244:../../libdaisy/src/dev/oled_ssd130x.h ****         else
 4971              		.loc 16 244 13 view .LVU1162
 4972 0104 8644     		add	lr, lr, r0
 244:../../libdaisy/src/dev/oled_ssd130x.h ****         else
 4973              		.loc 16 244 42 view .LVU1163
 4974 0106 9EF814B0 		ldrb	fp, [lr, #20]	@ zero_extendqisi2
 243:../../libdaisy/src/dev/oled_ssd130x.h ****             buffer_[x + (y / 8) * width] |= (1 << (y % 8));
 4975              		.loc 16 243 9 view .LVU1164
ARM GAS  /tmp/ccZhYDze.s 			page 142


 4976 010a 002D     		cmp	r5, #0
 4977 010c 00F04581 		beq	.L338
 244:../../libdaisy/src/dev/oled_ssd130x.h ****         else
 4978              		.loc 16 244 42 view .LVU1165
 4979 0110 4AEA0B0A 		orr	r10, r10, fp
 244:../../libdaisy/src/dev/oled_ssd130x.h ****         else
 4980              		.loc 16 244 13 view .LVU1166
 4981 0114 8EF814A0 		strb	r10, [lr, #20]
 4982              	.L337:
 4983              	.LVL390:
 244:../../libdaisy/src/dev/oled_ssd130x.h ****         else
 4984              		.loc 16 244 13 view .LVU1167
 4985              	.LBE1505:
 4986              	.LBE1504:
 4987              	.LBE1503:
 243:../../libdaisy/src/hid/disp/display.h ****             {
 4988              		.loc 6 243 13 view .LVU1168
 4989 0118 5FEA4C0E 		lsls	lr, ip, #1
 4990              	.LVL391:
 246:../../libdaisy/src/hid/disp/display.h ****             }
 4991              		.loc 6 246 17 view .LVU1169
 4992 011c 18BF     		it	ne
 4993 011e 4F44     		addne	r7, r7, r9
 4994              	.LVL392:
 249:../../libdaisy/src/hid/disp/display.h ****             {
 4995              		.loc 6 249 13 view .LVU1170
 4996 0120 F045     		cmp	r8, lr
 4997 0122 01DD     		ble	.L340
 251:../../libdaisy/src/hid/disp/display.h ****                 y1 += signY;
 4998              		.loc 6 251 17 view .LVU1171
 4999 0124 C444     		add	ip, ip, r8
 5000              	.LVL393:
 252:../../libdaisy/src/hid/disp/display.h ****             }
 5001              		.loc 6 252 17 view .LVU1172
 5002 0126 013E     		subs	r6, r6, #1
 5003              	.LVL394:
 5004              	.L340:
 239:../../libdaisy/src/hid/disp/display.h ****         {
 5005              		.loc 6 239 26 is_stmt 1 view .LVU1173
 5006 0128 BB42     		cmp	r3, r7
 5007 012a DDD1     		bne	.L336
 239:../../libdaisy/src/hid/disp/display.h ****         {
 5008              		.loc 6 239 26 is_stmt 0 view .LVU1174
 5009 012c B242     		cmp	r2, r6
 5010 012e DBD1     		bne	.L336
 5011 0130 0026     		movs	r6, #0
 5012              	.LVL395:
 239:../../libdaisy/src/hid/disp/display.h ****         {
 5013              		.loc 6 239 26 view .LVU1175
 5014 0132 0496     		str	r6, [sp, #16]
 5015              	.LVL396:
 5016              	.L333:
 239:../../libdaisy/src/hid/disp/display.h ****         {
 5017              		.loc 6 239 26 view .LVU1176
 5018              	.LBE1490:
 5019              	.LBE1489:
 5020              	.LBB1516:
ARM GAS  /tmp/ccZhYDze.s 			page 143


 5021              	.LBI1516:
 221:../../libdaisy/src/hid/disp/display.h ****                   uint_fast8_t y1,
 5022              		.loc 6 221 10 is_stmt 1 view .LVU1177
 5023              	.LBB1517:
 228:../../libdaisy/src/hid/disp/display.h ****         int_fast16_t signX  = ((x1 < x2) ? 1 : -1);
 5024              		.loc 6 228 52 is_stmt 0 view .LVU1178
 5025 0134 A4EB0209 		sub	r9, r4, r2
 228:../../libdaisy/src/hid/disp/display.h ****         int_fast16_t signX  = ((x1 < x2) ? 1 : -1);
 5026              		.loc 6 228 22 view .LVU1179
 5027 0138 B9F1000F 		cmp	r9, #0
 5028 013c B8BF     		it	lt
 5029 013e C9F10009 		rsblt	r9, r9, #0
 5030              	.LVL397:
 5031              	.LBB1518:
 5032              	.LBB1519:
 5033              	.LBB1520:
 241:../../libdaisy/src/dev/oled_ssd130x.h ****             return;
 5034              		.loc 16 241 28 view .LVU1180
 5035 0142 3F2C     		cmp	r4, #63
 5036 0144 94BF     		ite	ls
 5037 0146 0026     		movls	r6, #0
 5038 0148 0126     		movhi	r6, #1
 5039              	.LBE1520:
 5040              	.LBE1519:
 5041              	.LBE1518:
 230:../../libdaisy/src/hid/disp/display.h ****         int_fast16_t error  = deltaX - deltaY;
 5042              		.loc 6 230 22 view .LVU1181
 5043 014a A242     		cmp	r2, r4
 231:../../libdaisy/src/hid/disp/display.h ****         int_fast16_t error2;
 5044              		.loc 6 231 22 view .LVU1182
 5045 014c C9F10008 		rsb	r8, r9, #0
 5046              	.LBB1533:
 5047              	.LBB1528:
 5048              	.LBB1523:
 241:../../libdaisy/src/dev/oled_ssd130x.h ****             return;
 5049              		.loc 16 241 28 view .LVU1183
 5050 0150 0396     		str	r6, [sp, #12]
 5051              	.LBE1523:
 5052              	.LBE1528:
 5053              	.LBE1533:
 230:../../libdaisy/src/hid/disp/display.h ****         int_fast16_t error  = deltaX - deltaY;
 5054              		.loc 6 230 22 view .LVU1184
 5055 0152 C0F03181 		bcc	.L341
 5056              	.LVL398:
 5057              	.LBB1534:
 5058              	.LBI1518:
  41:../../libdaisy/src/hid/disp/oled_display.h ****     {
 5059              		.loc 5 41 10 is_stmt 1 view .LVU1185
 5060              	.LBB1529:
 5061              	.LBI1519:
 239:../../libdaisy/src/dev/oled_ssd130x.h ****     {
 5062              		.loc 16 239 10 view .LVU1186
 5063              	.LBB1524:
 241:../../libdaisy/src/dev/oled_ssd130x.h ****             return;
 5064              		.loc 16 241 9 is_stmt 0 view .LVU1187
 5065 0156 002E     		cmp	r6, #0
 5066 0158 40F05381 		bne	.L376
ARM GAS  /tmp/ccZhYDze.s 			page 144


 5067 015c 009E     		ldr	r6, [sp]
 5068 015e 002E     		cmp	r6, #0
 5069 0160 40F04F81 		bne	.L376
 5070              	.LBE1524:
 5071              	.LBE1529:
 5072              	.LBE1534:
 230:../../libdaisy/src/hid/disp/display.h ****         int_fast16_t error  = deltaX - deltaY;
 5073              		.loc 6 230 22 view .LVU1188
 5074 0164 4FF0FF36 		mov	r6, #-1
 5075 0168 0096     		str	r6, [sp]
 5076              	.LBB1535:
 5077              	.LBB1530:
 5078              	.LBB1525:
 243:../../libdaisy/src/dev/oled_ssd130x.h ****             buffer_[x + (y / 8) * width] |= (1 << (y % 8));
 5079              		.loc 16 243 9 view .LVU1189
 5080 016a 002D     		cmp	r5, #0
 5081 016c 00F02C81 		beq	.L343
 5082              	.LVL399:
 5083              	.L416:
 243:../../libdaisy/src/dev/oled_ssd130x.h ****             buffer_[x + (y / 8) * width] |= (1 << (y % 8));
 5084              		.loc 16 243 9 view .LVU1190
 5085 0170 0026     		movs	r6, #0
 244:../../libdaisy/src/dev/oled_ssd130x.h ****         else
 5086              		.loc 16 244 28 view .LVU1191
 5087 0172 4FEAD40E 		lsr	lr, r4, #3
 244:../../libdaisy/src/dev/oled_ssd130x.h ****         else
 5088              		.loc 16 244 48 view .LVU1192
 5089 0176 4FF0010C 		mov	ip, #1
 244:../../libdaisy/src/dev/oled_ssd130x.h ****         else
 5090              		.loc 16 244 54 view .LVU1193
 5091 017a 04F00707 		and	r7, r4, #7
 5092 017e 0396     		str	r6, [sp, #12]
 244:../../libdaisy/src/dev/oled_ssd130x.h ****         else
 5093              		.loc 16 244 42 view .LVU1194
 5094 0180 03EBCE16 		add	r6, r3, lr, lsl #7
 244:../../libdaisy/src/dev/oled_ssd130x.h ****         else
 5095              		.loc 16 244 48 view .LVU1195
 5096 0184 0CFA07F7 		lsl	r7, ip, r7
 244:../../libdaisy/src/dev/oled_ssd130x.h ****         else
 5097              		.loc 16 244 13 view .LVU1196
 5098 0188 0644     		add	r6, r6, r0
 244:../../libdaisy/src/dev/oled_ssd130x.h ****         else
 5099              		.loc 16 244 42 view .LVU1197
 5100 018a 96F814C0 		ldrb	ip, [r6, #20]	@ zero_extendqisi2
 5101 018e 47EA0C07 		orr	r7, r7, ip
 244:../../libdaisy/src/dev/oled_ssd130x.h ****         else
 5102              		.loc 16 244 13 view .LVU1198
 5103 0192 3775     		strb	r7, [r6, #20]
 5104              	.L342:
 5105              	.LVL400:
 244:../../libdaisy/src/dev/oled_ssd130x.h ****         else
 5106              		.loc 16 244 13 view .LVU1199
 5107              	.LBE1525:
 5108              	.LBE1530:
 5109              	.LBE1535:
 239:../../libdaisy/src/hid/disp/display.h ****         {
 5110              		.loc 6 239 26 is_stmt 1 view .LVU1200
ARM GAS  /tmp/ccZhYDze.s 			page 145


 5111 0194 A242     		cmp	r2, r4
 5112 0196 00F03E81 		beq	.L414
 5113              	.L345:
 5114              	.LVL401:
 230:../../libdaisy/src/hid/disp/display.h ****         int_fast16_t error  = deltaX - deltaY;
 5115              		.loc 6 230 22 is_stmt 0 view .LVU1201
 5116 019a C446     		mov	ip, r8
 5117 019c 1646     		mov	r6, r2
 5118 019e 1F46     		mov	r7, r3
 5119 01a0 0592     		str	r2, [sp, #20]
 5120              	.LVL402:
 5121              	.L347:
 5122              	.LBB1536:
 5123              	.LBI1536:
  41:../../libdaisy/src/hid/disp/oled_display.h ****     {
 5124              		.loc 5 41 10 is_stmt 1 view .LVU1202
 5125              	.LBB1537:
 5126              	.LBI1537:
 239:../../libdaisy/src/dev/oled_ssd130x.h ****     {
 5127              		.loc 16 239 10 view .LVU1203
 5128              	.LBB1538:
 241:../../libdaisy/src/dev/oled_ssd130x.h ****             return;
 5129              		.loc 16 241 9 is_stmt 0 view .LVU1204
 5130 01a2 7F2F     		cmp	r7, #127
 5131 01a4 15D8     		bhi	.L348
 5132 01a6 3F2E     		cmp	r6, #63
 5133 01a8 13D8     		bhi	.L348
 244:../../libdaisy/src/dev/oled_ssd130x.h ****         else
 5134              		.loc 16 244 28 view .LVU1205
 5135 01aa 4FEAD60E 		lsr	lr, r6, #3
 244:../../libdaisy/src/dev/oled_ssd130x.h ****         else
 5136              		.loc 16 244 48 view .LVU1206
 5137 01ae 4FF0010B 		mov	fp, #1
 244:../../libdaisy/src/dev/oled_ssd130x.h ****         else
 5138              		.loc 16 244 54 view .LVU1207
 5139 01b2 06F0070A 		and	r10, r6, #7
 244:../../libdaisy/src/dev/oled_ssd130x.h ****         else
 5140              		.loc 16 244 42 view .LVU1208
 5141 01b6 07EBCE1E 		add	lr, r7, lr, lsl #7
 244:../../libdaisy/src/dev/oled_ssd130x.h ****         else
 5142              		.loc 16 244 48 view .LVU1209
 5143 01ba 0BFA0AFA 		lsl	r10, fp, r10
 244:../../libdaisy/src/dev/oled_ssd130x.h ****         else
 5144              		.loc 16 244 13 view .LVU1210
 5145 01be 8644     		add	lr, lr, r0
 244:../../libdaisy/src/dev/oled_ssd130x.h ****         else
 5146              		.loc 16 244 42 view .LVU1211
 5147 01c0 9EF814B0 		ldrb	fp, [lr, #20]	@ zero_extendqisi2
 243:../../libdaisy/src/dev/oled_ssd130x.h ****             buffer_[x + (y / 8) * width] |= (1 << (y % 8));
 5148              		.loc 16 243 9 view .LVU1212
 5149 01c4 002D     		cmp	r5, #0
 5150 01c6 00F0ED80 		beq	.L349
 244:../../libdaisy/src/dev/oled_ssd130x.h ****         else
 5151              		.loc 16 244 42 view .LVU1213
 5152 01ca 4AEA0B0A 		orr	r10, r10, fp
 244:../../libdaisy/src/dev/oled_ssd130x.h ****         else
 5153              		.loc 16 244 13 view .LVU1214
ARM GAS  /tmp/ccZhYDze.s 			page 146


 5154 01ce 8EF814A0 		strb	r10, [lr, #20]
 5155              	.L348:
 5156              	.LVL403:
 244:../../libdaisy/src/dev/oled_ssd130x.h ****         else
 5157              		.loc 16 244 13 view .LVU1215
 5158              	.LBE1538:
 5159              	.LBE1537:
 5160              	.LBE1536:
 243:../../libdaisy/src/hid/disp/display.h ****             {
 5161              		.loc 6 243 13 view .LVU1216
 5162 01d2 B8EB4C0F 		cmp	r8, ip, lsl #1
 242:../../libdaisy/src/hid/disp/display.h ****             if(error2 > -deltaY)
 5163              		.loc 6 242 13 view .LVU1217
 5164 01d6 4FEA4C0E 		lsl	lr, ip, #1
 5165              	.LVL404:
 243:../../libdaisy/src/hid/disp/display.h ****             {
 5166              		.loc 6 243 13 view .LVU1218
 5167 01da 02DA     		bge	.L350
 245:../../libdaisy/src/hid/disp/display.h ****                 x1 += signX;
 5168              		.loc 6 245 17 view .LVU1219
 5169 01dc ACEB090C 		sub	ip, ip, r9
 5170              	.LVL405:
 246:../../libdaisy/src/hid/disp/display.h ****             }
 5171              		.loc 6 246 17 view .LVU1220
 5172 01e0 013F     		subs	r7, r7, #1
 5173              	.LVL406:
 5174              	.L350:
 249:../../libdaisy/src/hid/disp/display.h ****             {
 5175              		.loc 6 249 13 view .LVU1221
 5176 01e2 BEF1000F 		cmp	lr, #0
 5177 01e6 01D0     		beq	.L351
 252:../../libdaisy/src/hid/disp/display.h ****             }
 5178              		.loc 6 252 17 view .LVU1222
 5179 01e8 009A     		ldr	r2, [sp]
 5180 01ea 1644     		add	r6, r6, r2
 5181              	.LVL407:
 5182              	.L351:
 239:../../libdaisy/src/hid/disp/display.h ****         {
 5183              		.loc 6 239 26 is_stmt 1 view .LVU1223
 5184 01ec BB42     		cmp	r3, r7
 5185 01ee D8D1     		bne	.L347
 239:../../libdaisy/src/hid/disp/display.h ****         {
 5186              		.loc 6 239 26 is_stmt 0 view .LVU1224
 5187 01f0 B442     		cmp	r4, r6
 5188 01f2 D6D1     		bne	.L347
 5189 01f4 059A     		ldr	r2, [sp, #20]
 5190              	.LVL408:
 5191              	.L344:
 239:../../libdaisy/src/hid/disp/display.h ****         {
 5192              		.loc 6 239 26 view .LVU1225
 5193              	.LBE1517:
 5194              	.LBE1516:
 5195              	.LBB1550:
 5196              	.LBI1550:
 221:../../libdaisy/src/hid/disp/display.h ****                   uint_fast8_t y1,
 5197              		.loc 6 221 10 is_stmt 1 view .LVU1226
 5198              	.LBB1551:
ARM GAS  /tmp/ccZhYDze.s 			page 147


 5199              	.LBB1552:
 5200              	.LBB1553:
 5201              	.LBB1554:
 241:../../libdaisy/src/dev/oled_ssd130x.h ****             return;
 5202              		.loc 16 241 14 is_stmt 0 view .LVU1227
 5203 01f6 7F29     		cmp	r1, #127
 5204              	.LBE1554:
 5205              	.LBE1553:
 5206              	.LBE1552:
 227:../../libdaisy/src/hid/disp/display.h ****         int_fast16_t deltaY = abs((int_fast16_t)y2 - (int_fast16_t)y1);
 5207              		.loc 6 227 52 view .LVU1228
 5208 01f8 A1EB030E 		sub	lr, r1, r3
 5209              	.LBB1563:
 5210              	.LBB1560:
 5211              	.LBB1557:
 241:../../libdaisy/src/dev/oled_ssd130x.h ****             return;
 5212              		.loc 16 241 14 view .LVU1229
 5213 01fc 94BF     		ite	ls
 5214 01fe 4FF00009 		movls	r9, #0
 5215 0202 4FF00109 		movhi	r9, #1
 5216              	.LBE1557:
 5217              	.LBE1560:
 5218              	.LBE1563:
 229:../../libdaisy/src/hid/disp/display.h ****         int_fast16_t signY  = ((y1 < y2) ? 1 : -1);
 5219              		.loc 6 229 22 view .LVU1230
 5220 0206 9942     		cmp	r1, r3
 5221 0208 8CBF     		ite	hi
 5222 020a 4FF00108 		movhi	r8, #1
 5223 020e 4FF0FF38 		movls	r8, #-1
 227:../../libdaisy/src/hid/disp/display.h ****         int_fast16_t deltaY = abs((int_fast16_t)y2 - (int_fast16_t)y1);
 5224              		.loc 6 227 22 view .LVU1231
 5225 0212 BEF1000F 		cmp	lr, #0
 5226 0216 B8BF     		it	lt
 5227 0218 CEF1000E 		rsblt	lr, lr, #0
 5228              	.LVL409:
 5229              	.LBB1564:
 5230              	.LBI1552:
  41:../../libdaisy/src/hid/disp/oled_display.h ****     {
 5231              		.loc 5 41 10 is_stmt 1 view .LVU1232
 5232              	.LBB1561:
 5233              	.LBI1553:
 239:../../libdaisy/src/dev/oled_ssd130x.h ****     {
 5234              		.loc 16 239 10 view .LVU1233
 5235              	.LBB1558:
 241:../../libdaisy/src/dev/oled_ssd130x.h ****             return;
 5236              		.loc 16 241 9 is_stmt 0 view .LVU1234
 5237 021c B9F1000F 		cmp	r9, #0
 5238 0220 13D1     		bne	.L353
 5239 0222 039E     		ldr	r6, [sp, #12]
 5240 0224 8EB9     		cbnz	r6, .L353
 244:../../libdaisy/src/dev/oled_ssd130x.h ****         else
 5241              		.loc 16 244 28 view .LVU1235
 5242 0226 E608     		lsrs	r6, r4, #3
 244:../../libdaisy/src/dev/oled_ssd130x.h ****         else
 5243              		.loc 16 244 48 view .LVU1236
 5244 0228 4FF0010C 		mov	ip, #1
 244:../../libdaisy/src/dev/oled_ssd130x.h ****         else
ARM GAS  /tmp/ccZhYDze.s 			page 148


 5245              		.loc 16 244 54 view .LVU1237
 5246 022c 04F00707 		and	r7, r4, #7
 244:../../libdaisy/src/dev/oled_ssd130x.h ****         else
 5247              		.loc 16 244 42 view .LVU1238
 5248 0230 01EBC616 		add	r6, r1, r6, lsl #7
 244:../../libdaisy/src/dev/oled_ssd130x.h ****         else
 5249              		.loc 16 244 48 view .LVU1239
 5250 0234 0CFA07F7 		lsl	r7, ip, r7
 244:../../libdaisy/src/dev/oled_ssd130x.h ****         else
 5251              		.loc 16 244 13 view .LVU1240
 5252 0238 0644     		add	r6, r6, r0
 244:../../libdaisy/src/dev/oled_ssd130x.h ****         else
 5253              		.loc 16 244 42 view .LVU1241
 5254 023a 96F814C0 		ldrb	ip, [r6, #20]	@ zero_extendqisi2
 243:../../libdaisy/src/dev/oled_ssd130x.h ****             buffer_[x + (y / 8) * width] |= (1 << (y % 8));
 5255              		.loc 16 243 9 view .LVU1242
 5256 023e 002D     		cmp	r5, #0
 5257 0240 00F0DB80 		beq	.L354
 244:../../libdaisy/src/dev/oled_ssd130x.h ****         else
 5258              		.loc 16 244 42 view .LVU1243
 5259 0244 47EA0C07 		orr	r7, r7, ip
 244:../../libdaisy/src/dev/oled_ssd130x.h ****         else
 5260              		.loc 16 244 13 view .LVU1244
 5261 0248 3775     		strb	r7, [r6, #20]
 5262              	.L353:
 5263              	.LVL410:
 244:../../libdaisy/src/dev/oled_ssd130x.h ****         else
 5264              		.loc 16 244 13 view .LVU1245
 5265              	.LBE1558:
 5266              	.LBE1561:
 5267              	.LBE1564:
 239:../../libdaisy/src/hid/disp/display.h ****         {
 5268              		.loc 6 239 26 is_stmt 1 view .LVU1246
 5269 024a 049E     		ldr	r6, [sp, #16]
 5270 024c 2EBB     		cbnz	r6, .L355
 227:../../libdaisy/src/hid/disp/display.h ****         int_fast16_t deltaY = abs((int_fast16_t)y2 - (int_fast16_t)y1);
 5271              		.loc 6 227 22 is_stmt 0 view .LVU1247
 5272 024e 7746     		mov	r7, lr
 239:../../libdaisy/src/hid/disp/display.h ****         {
 5273              		.loc 6 239 26 view .LVU1248
 5274 0250 2646     		mov	r6, r4
 5275              	.LVL411:
 5276              	.L356:
 5277              	.LBB1565:
 5278              	.LBI1565:
  41:../../libdaisy/src/hid/disp/oled_display.h ****     {
 5279              		.loc 5 41 10 is_stmt 1 view .LVU1249
 5280              	.LBB1566:
 5281              	.LBI1566:
 239:../../libdaisy/src/dev/oled_ssd130x.h ****     {
 5282              		.loc 16 239 10 view .LVU1250
 5283              	.LBB1567:
 241:../../libdaisy/src/dev/oled_ssd130x.h ****             return;
 5284              		.loc 16 241 9 is_stmt 0 view .LVU1251
 5285 0252 7F2B     		cmp	r3, #127
 5286 0254 15D8     		bhi	.L358
 241:../../libdaisy/src/dev/oled_ssd130x.h ****             return;
ARM GAS  /tmp/ccZhYDze.s 			page 149


 5287              		.loc 16 241 9 view .LVU1252
 5288 0256 3F2E     		cmp	r6, #63
 5289 0258 13D8     		bhi	.L358
 244:../../libdaisy/src/dev/oled_ssd130x.h ****         else
 5290              		.loc 16 244 28 view .LVU1253
 5291 025a 4FEAD60C 		lsr	ip, r6, #3
 244:../../libdaisy/src/dev/oled_ssd130x.h ****         else
 5292              		.loc 16 244 48 view .LVU1254
 5293 025e 4FF0010B 		mov	fp, #1
 244:../../libdaisy/src/dev/oled_ssd130x.h ****         else
 5294              		.loc 16 244 54 view .LVU1255
 5295 0262 06F0070A 		and	r10, r6, #7
 244:../../libdaisy/src/dev/oled_ssd130x.h ****         else
 5296              		.loc 16 244 42 view .LVU1256
 5297 0266 03EBCC1C 		add	ip, r3, ip, lsl #7
 244:../../libdaisy/src/dev/oled_ssd130x.h ****         else
 5298              		.loc 16 244 48 view .LVU1257
 5299 026a 0BFA0AFA 		lsl	r10, fp, r10
 244:../../libdaisy/src/dev/oled_ssd130x.h ****         else
 5300              		.loc 16 244 13 view .LVU1258
 5301 026e 8444     		add	ip, ip, r0
 244:../../libdaisy/src/dev/oled_ssd130x.h ****         else
 5302              		.loc 16 244 42 view .LVU1259
 5303 0270 9CF814B0 		ldrb	fp, [ip, #20]	@ zero_extendqisi2
 243:../../libdaisy/src/dev/oled_ssd130x.h ****             buffer_[x + (y / 8) * width] |= (1 << (y % 8));
 5304              		.loc 16 243 9 view .LVU1260
 5305 0274 002D     		cmp	r5, #0
 5306 0276 00F09A80 		beq	.L359
 244:../../libdaisy/src/dev/oled_ssd130x.h ****         else
 5307              		.loc 16 244 42 view .LVU1261
 5308 027a 4AEA0B0A 		orr	r10, r10, fp
 244:../../libdaisy/src/dev/oled_ssd130x.h ****         else
 5309              		.loc 16 244 13 view .LVU1262
 5310 027e 8CF814A0 		strb	r10, [ip, #20]
 5311              	.L358:
 5312              	.LVL412:
 244:../../libdaisy/src/dev/oled_ssd130x.h ****         else
 5313              		.loc 16 244 13 view .LVU1263
 5314              	.LBE1567:
 5315              	.LBE1566:
 5316              	.LBE1565:
 243:../../libdaisy/src/hid/disp/display.h ****             {
 5317              		.loc 6 243 13 view .LVU1264
 5318 0282 5FEA470C 		lsls	ip, r7, #1
 5319              	.LVL413:
 246:../../libdaisy/src/hid/disp/display.h ****             }
 5320              		.loc 6 246 17 view .LVU1265
 5321 0286 18BF     		it	ne
 5322 0288 4344     		addne	r3, r3, r8
 5323              	.LVL414:
 249:../../libdaisy/src/hid/disp/display.h ****             {
 5324              		.loc 6 249 13 view .LVU1266
 5325 028a E645     		cmp	lr, ip
 5326 028c 01DD     		ble	.L361
 251:../../libdaisy/src/hid/disp/display.h ****                 y1 += signY;
 5327              		.loc 6 251 17 view .LVU1267
 5328 028e 7744     		add	r7, r7, lr
ARM GAS  /tmp/ccZhYDze.s 			page 150


 5329              	.LVL415:
 252:../../libdaisy/src/hid/disp/display.h ****             }
 5330              		.loc 6 252 17 view .LVU1268
 5331 0290 013E     		subs	r6, r6, #1
 5332              	.LVL416:
 5333              	.L361:
 239:../../libdaisy/src/hid/disp/display.h ****         {
 5334              		.loc 6 239 26 is_stmt 1 view .LVU1269
 5335 0292 9942     		cmp	r1, r3
 5336 0294 DDD1     		bne	.L356
 239:../../libdaisy/src/hid/disp/display.h ****         {
 5337              		.loc 6 239 26 is_stmt 0 view .LVU1270
 5338 0296 B442     		cmp	r4, r6
 5339 0298 DBD1     		bne	.L356
 5340              	.LVL417:
 5341              	.L355:
 239:../../libdaisy/src/hid/disp/display.h ****         {
 5342              		.loc 6 239 26 view .LVU1271
 5343              	.LBE1551:
 5344              	.LBE1550:
 5345              	.LBB1576:
 5346              	.LBI1576:
 221:../../libdaisy/src/hid/disp/display.h ****                   uint_fast8_t y1,
 5347              		.loc 6 221 10 is_stmt 1 view .LVU1272
 5348              	.LBB1577:
 228:../../libdaisy/src/hid/disp/display.h ****         int_fast16_t signX  = ((x1 < x2) ? 1 : -1);
 5349              		.loc 6 228 52 is_stmt 0 view .LVU1273
 5350 029a A2EB040E 		sub	lr, r2, r4
 230:../../libdaisy/src/hid/disp/display.h ****         int_fast16_t error  = deltaX - deltaY;
 5351              		.loc 6 230 22 view .LVU1274
 5352 029e A242     		cmp	r2, r4
 5353 02a0 8CBF     		ite	hi
 5354 02a2 4FF00108 		movhi	r8, #1
 5355 02a6 4FF0FF38 		movls	r8, #-1
 5356              	.LVL418:
 228:../../libdaisy/src/hid/disp/display.h ****         int_fast16_t signX  = ((x1 < x2) ? 1 : -1);
 5357              		.loc 6 228 22 view .LVU1275
 5358 02aa BEF1000F 		cmp	lr, #0
 5359 02ae B8BF     		it	lt
 5360 02b0 CEF1000E 		rsblt	lr, lr, #0
 5361              	.LVL419:
 231:../../libdaisy/src/hid/disp/display.h ****         int_fast16_t error2;
 5362              		.loc 6 231 22 view .LVU1276
 5363 02b4 CEF1000C 		rsb	ip, lr, #0
 5364              	.LVL420:
 5365              	.LBB1578:
 5366              	.LBI1578:
  41:../../libdaisy/src/hid/disp/oled_display.h ****     {
 5367              		.loc 5 41 10 is_stmt 1 view .LVU1277
 5368              	.LBB1579:
 5369              	.LBI1579:
 239:../../libdaisy/src/dev/oled_ssd130x.h ****     {
 5370              		.loc 16 239 10 view .LVU1278
 5371              	.LBB1580:
 241:../../libdaisy/src/dev/oled_ssd130x.h ****             return;
 5372              		.loc 16 241 9 is_stmt 0 view .LVU1279
 5373 02b8 B9F1000F 		cmp	r9, #0
ARM GAS  /tmp/ccZhYDze.s 			page 151


 5374 02bc 0FD1     		bne	.L363
 5375 02be 029B     		ldr	r3, [sp, #8]
 5376 02c0 6BB9     		cbnz	r3, .L363
 244:../../libdaisy/src/dev/oled_ssd130x.h ****         else
 5377              		.loc 16 244 28 view .LVU1280
 5378 02c2 D308     		lsrs	r3, r2, #3
 244:../../libdaisy/src/dev/oled_ssd130x.h ****         else
 5379              		.loc 16 244 54 view .LVU1281
 5380 02c4 02F00707 		and	r7, r2, #7
 244:../../libdaisy/src/dev/oled_ssd130x.h ****         else
 5381              		.loc 16 244 48 view .LVU1282
 5382 02c8 0126     		movs	r6, #1
 244:../../libdaisy/src/dev/oled_ssd130x.h ****         else
 5383              		.loc 16 244 42 view .LVU1283
 5384 02ca 01EBC313 		add	r3, r1, r3, lsl #7
 243:../../libdaisy/src/dev/oled_ssd130x.h ****             buffer_[x + (y / 8) * width] |= (1 << (y % 8));
 5385              		.loc 16 243 9 view .LVU1284
 5386 02ce 002D     		cmp	r5, #0
 5387 02d0 00F08B80 		beq	.L364
 244:../../libdaisy/src/dev/oled_ssd130x.h ****         else
 5388              		.loc 16 244 13 view .LVU1285
 5389 02d4 0344     		add	r3, r3, r0
 244:../../libdaisy/src/dev/oled_ssd130x.h ****         else
 5390              		.loc 16 244 48 view .LVU1286
 5391 02d6 BE40     		lsls	r6, r6, r7
 244:../../libdaisy/src/dev/oled_ssd130x.h ****         else
 5392              		.loc 16 244 42 view .LVU1287
 5393 02d8 1F7D     		ldrb	r7, [r3, #20]	@ zero_extendqisi2
 5394 02da 3E43     		orrs	r6, r6, r7
 244:../../libdaisy/src/dev/oled_ssd130x.h ****         else
 5395              		.loc 16 244 13 view .LVU1288
 5396 02dc 1E75     		strb	r6, [r3, #20]
 5397              	.L363:
 5398              	.LVL421:
 244:../../libdaisy/src/dev/oled_ssd130x.h ****         else
 5399              		.loc 16 244 13 view .LVU1289
 5400              	.LBE1580:
 5401              	.LBE1579:
 5402              	.LBE1578:
 239:../../libdaisy/src/hid/disp/display.h ****         {
 5403              		.loc 6 239 26 is_stmt 1 view .LVU1290
 5404 02de 019B     		ldr	r3, [sp, #4]
 5405 02e0 002B     		cmp	r3, #0
 5406 02e2 7FF4C8AE 		bne	.L321
 5407 02e6 6646     		mov	r6, ip
 5408 02e8 0B46     		mov	r3, r1
 5409              	.LVL422:
 5410              	.L365:
 5411              	.LBB1585:
 5412              	.LBI1585:
  41:../../libdaisy/src/hid/disp/oled_display.h ****     {
 5413              		.loc 5 41 10 view .LVU1291
 5414              	.LBB1586:
 5415              	.LBI1586:
 239:../../libdaisy/src/dev/oled_ssd130x.h ****     {
 5416              		.loc 16 239 10 view .LVU1292
 5417              	.LBB1587:
ARM GAS  /tmp/ccZhYDze.s 			page 152


 241:../../libdaisy/src/dev/oled_ssd130x.h ****             return;
 5418              		.loc 16 241 9 is_stmt 0 view .LVU1293
 5419 02ea 7F2B     		cmp	r3, #127
 5420 02ec 13D8     		bhi	.L367
 241:../../libdaisy/src/dev/oled_ssd130x.h ****             return;
 5421              		.loc 16 241 9 view .LVU1294
 5422 02ee 3F2C     		cmp	r4, #63
 5423 02f0 11D8     		bhi	.L367
 244:../../libdaisy/src/dev/oled_ssd130x.h ****         else
 5424              		.loc 16 244 28 view .LVU1295
 5425 02f2 E708     		lsrs	r7, r4, #3
 244:../../libdaisy/src/dev/oled_ssd130x.h ****         else
 5426              		.loc 16 244 54 view .LVU1296
 5427 02f4 04F0070A 		and	r10, r4, #7
 244:../../libdaisy/src/dev/oled_ssd130x.h ****         else
 5428              		.loc 16 244 48 view .LVU1297
 5429 02f8 4FF00109 		mov	r9, #1
 244:../../libdaisy/src/dev/oled_ssd130x.h ****         else
 5430              		.loc 16 244 42 view .LVU1298
 5431 02fc 03EBC717 		add	r7, r3, r7, lsl #7
 243:../../libdaisy/src/dev/oled_ssd130x.h ****             buffer_[x + (y / 8) * width] |= (1 << (y % 8));
 5432              		.loc 16 243 9 view .LVU1299
 5433 0300 002D     		cmp	r5, #0
 5434 0302 40D0     		beq	.L368
 244:../../libdaisy/src/dev/oled_ssd130x.h ****         else
 5435              		.loc 16 244 13 view .LVU1300
 5436 0304 0744     		add	r7, r7, r0
 244:../../libdaisy/src/dev/oled_ssd130x.h ****         else
 5437              		.loc 16 244 48 view .LVU1301
 5438 0306 09FA0AF9 		lsl	r9, r9, r10
 244:../../libdaisy/src/dev/oled_ssd130x.h ****         else
 5439              		.loc 16 244 42 view .LVU1302
 5440 030a 97F814A0 		ldrb	r10, [r7, #20]	@ zero_extendqisi2
 5441 030e 49EA0A09 		orr	r9, r9, r10
 244:../../libdaisy/src/dev/oled_ssd130x.h ****         else
 5442              		.loc 16 244 13 view .LVU1303
 5443 0312 87F81490 		strb	r9, [r7, #20]
 5444              	.L367:
 5445              	.LVL423:
 244:../../libdaisy/src/dev/oled_ssd130x.h ****         else
 5446              		.loc 16 244 13 view .LVU1304
 5447              	.LBE1587:
 5448              	.LBE1586:
 5449              	.LBE1585:
 243:../../libdaisy/src/hid/disp/display.h ****             {
 5450              		.loc 6 243 13 view .LVU1305
 5451 0316 BCEB460F 		cmp	ip, r6, lsl #1
 242:../../libdaisy/src/hid/disp/display.h ****             if(error2 > -deltaY)
 5452              		.loc 6 242 13 view .LVU1306
 5453 031a 4FEA4607 		lsl	r7, r6, #1
 5454              	.LVL424:
 243:../../libdaisy/src/hid/disp/display.h ****             {
 5455              		.loc 6 243 13 view .LVU1307
 5456 031e 02DA     		bge	.L369
 245:../../libdaisy/src/hid/disp/display.h ****                 x1 += signX;
 5457              		.loc 6 245 17 view .LVU1308
 5458 0320 A6EB0E06 		sub	r6, r6, lr
ARM GAS  /tmp/ccZhYDze.s 			page 153


 5459              	.LVL425:
 246:../../libdaisy/src/hid/disp/display.h ****             }
 5460              		.loc 6 246 17 view .LVU1309
 5461 0324 013B     		subs	r3, r3, #1
 5462              	.LVL426:
 5463              	.L369:
 249:../../libdaisy/src/hid/disp/display.h ****             {
 5464              		.loc 6 249 13 view .LVU1310
 5465 0326 07B1     		cbz	r7, .L370
 252:../../libdaisy/src/hid/disp/display.h ****             }
 5466              		.loc 6 252 17 view .LVU1311
 5467 0328 4444     		add	r4, r4, r8
 5468              	.LVL427:
 5469              	.L370:
 239:../../libdaisy/src/hid/disp/display.h ****         {
 5470              		.loc 6 239 26 is_stmt 1 view .LVU1312
 5471 032a 9942     		cmp	r1, r3
 5472 032c DDD1     		bne	.L365
 239:../../libdaisy/src/hid/disp/display.h ****         {
 5473              		.loc 6 239 26 is_stmt 0 view .LVU1313
 5474 032e A242     		cmp	r2, r4
 5475 0330 DBD1     		bne	.L365
 5476              	.LBE1577:
 5477              	.LBE1576:
 5478              	.LBE1488:
 281:../../libdaisy/src/hid/disp/display.h **** 
 5479              		.loc 6 281 5 view .LVU1314
 5480 0332 07B0     		add	sp, sp, #28
 5481              		.cfi_remember_state
 5482              		.cfi_def_cfa_offset 36
 5483              		@ sp needed
 5484 0334 BDE8F08F 		pop	{r4, r5, r6, r7, r8, r9, r10, fp, pc}
 5485              	.LVL428:
 5486              	.L412:
 5487              		.cfi_restore_state
 5488              	.LBB1607:
 5489              	.LBB1596:
 5490              	.LBB1513:
 5491              	.LBB1510:
  41:../../libdaisy/src/hid/disp/oled_display.h ****     {
 5492              		.loc 5 41 10 is_stmt 1 view .LVU1315
 5493              	.LBB1500:
 239:../../libdaisy/src/dev/oled_ssd130x.h ****     {
 5494              		.loc 16 239 10 view .LVU1316
 5495              	.LBB1497:
 241:../../libdaisy/src/dev/oled_ssd130x.h ****             return;
 5496              		.loc 16 241 14 is_stmt 0 view .LVU1317
 5497 0338 7F2B     		cmp	r3, #127
 5498              	.LBE1497:
 5499              	.LBE1500:
 5500              	.LBE1510:
 229:../../libdaisy/src/hid/disp/display.h ****         int_fast16_t signY  = ((y1 < y2) ? 1 : -1);
 5501              		.loc 6 229 22 view .LVU1318
 5502 033a 4FF0FF39 		mov	r9, #-1
 5503              	.LBB1511:
 5504              	.LBB1501:
 5505              	.LBB1498:
ARM GAS  /tmp/ccZhYDze.s 			page 154


 241:../../libdaisy/src/dev/oled_ssd130x.h ****             return;
 5506              		.loc 16 241 14 view .LVU1319
 5507 033e 94BF     		ite	ls
 5508 0340 0026     		movls	r6, #0
 5509 0342 0126     		movhi	r6, #1
 241:../../libdaisy/src/dev/oled_ssd130x.h ****             return;
 5510              		.loc 16 241 28 view .LVU1320
 5511 0344 3F2A     		cmp	r2, #63
 241:../../libdaisy/src/dev/oled_ssd130x.h ****             return;
 5512              		.loc 16 241 14 view .LVU1321
 5513 0346 0096     		str	r6, [sp]
 241:../../libdaisy/src/dev/oled_ssd130x.h ****             return;
 5514              		.loc 16 241 28 view .LVU1322
 5515 0348 94BF     		ite	ls
 5516 034a 0027     		movls	r7, #0
 5517 034c 0127     		movhi	r7, #1
 5518 034e 0297     		str	r7, [sp, #8]
 241:../../libdaisy/src/dev/oled_ssd130x.h ****             return;
 5519              		.loc 16 241 9 view .LVU1323
 5520 0350 002E     		cmp	r6, #0
 5521 0352 7FF4C3AE 		bne	.L331
 5522 0356 002F     		cmp	r7, #0
 5523 0358 7FF4C0AE 		bne	.L331
 243:../../libdaisy/src/dev/oled_ssd130x.h ****             buffer_[x + (y / 8) * width] |= (1 << (y % 8));
 5524              		.loc 16 243 9 view .LVU1324
 5525 035c 002D     		cmp	r5, #0
 5526 035e 7FF4A8AE 		bne	.L415
 5527              	.LVL429:
 5528              	.L332:
 5529              	.LBB1494:
 5530              	.LBI1494:
 239:../../libdaisy/src/dev/oled_ssd130x.h ****     {
 5531              		.loc 16 239 10 is_stmt 1 view .LVU1325
 5532              	.LBB1495:
 246:../../libdaisy/src/dev/oled_ssd130x.h ****     }
 5533              		.loc 16 246 28 is_stmt 0 view .LVU1326
 5534 0362 D608     		lsrs	r6, r2, #3
 246:../../libdaisy/src/dev/oled_ssd130x.h ****     }
 5535              		.loc 16 246 49 view .LVU1327
 5536 0364 4FF0010C 		mov	ip, #1
 246:../../libdaisy/src/dev/oled_ssd130x.h ****     }
 5537              		.loc 16 246 55 view .LVU1328
 5538 0368 02F00707 		and	r7, r2, #7
 246:../../libdaisy/src/dev/oled_ssd130x.h ****     }
 5539              		.loc 16 246 13 view .LVU1329
 5540 036c 0295     		str	r5, [sp, #8]
 246:../../libdaisy/src/dev/oled_ssd130x.h ****     }
 5541              		.loc 16 246 42 view .LVU1330
 5542 036e 03EBC616 		add	r6, r3, r6, lsl #7
 246:../../libdaisy/src/dev/oled_ssd130x.h ****     }
 5543              		.loc 16 246 13 view .LVU1331
 5544 0372 0095     		str	r5, [sp]
 246:../../libdaisy/src/dev/oled_ssd130x.h ****     }
 5545              		.loc 16 246 49 view .LVU1332
 5546 0374 0CFA07F7 		lsl	r7, ip, r7
 246:../../libdaisy/src/dev/oled_ssd130x.h ****     }
 5547              		.loc 16 246 13 view .LVU1333
ARM GAS  /tmp/ccZhYDze.s 			page 155


 5548 0378 0644     		add	r6, r6, r0
 246:../../libdaisy/src/dev/oled_ssd130x.h ****     }
 5549              		.loc 16 246 42 view .LVU1334
 5550 037a 96F814C0 		ldrb	ip, [r6, #20]	@ zero_extendqisi2
 5551 037e 2CEA0707 		bic	r7, ip, r7
 246:../../libdaisy/src/dev/oled_ssd130x.h ****     }
 5552              		.loc 16 246 13 view .LVU1335
 5553 0382 3775     		strb	r7, [r6, #20]
 5554 0384 AAE6     		b	.L331
 5555              	.LVL430:
 5556              	.L368:
 246:../../libdaisy/src/dev/oled_ssd130x.h ****     }
 5557              		.loc 16 246 13 view .LVU1336
 5558              	.LBE1495:
 5559              	.LBE1494:
 5560              	.LBE1498:
 5561              	.LBE1501:
 5562              	.LBE1511:
 5563              	.LBE1513:
 5564              	.LBE1596:
 5565              	.LBB1597:
 5566              	.LBB1594:
 5567              	.LBB1592:
 5568              	.LBB1591:
 5569              	.LBB1590:
 5570              	.LBB1588:
 5571              	.LBI1588:
 239:../../libdaisy/src/dev/oled_ssd130x.h ****     {
 5572              		.loc 16 239 10 is_stmt 1 view .LVU1337
 5573              	.LBB1589:
 246:../../libdaisy/src/dev/oled_ssd130x.h ****     }
 5574              		.loc 16 246 13 is_stmt 0 view .LVU1338
 5575 0386 0744     		add	r7, r7, r0
 246:../../libdaisy/src/dev/oled_ssd130x.h ****     }
 5576              		.loc 16 246 49 view .LVU1339
 5577 0388 09FA0AFA 		lsl	r10, r9, r10
 246:../../libdaisy/src/dev/oled_ssd130x.h ****     }
 5578              		.loc 16 246 42 view .LVU1340
 5579 038c 97F81490 		ldrb	r9, [r7, #20]	@ zero_extendqisi2
 5580 0390 29EA0A09 		bic	r9, r9, r10
 246:../../libdaisy/src/dev/oled_ssd130x.h ****     }
 5581              		.loc 16 246 13 view .LVU1341
 5582 0394 87F81490 		strb	r9, [r7, #20]
 5583 0398 BDE7     		b	.L367
 5584              	.LVL431:
 5585              	.L338:
 246:../../libdaisy/src/dev/oled_ssd130x.h ****     }
 5586              		.loc 16 246 13 view .LVU1342
 5587              	.LBE1589:
 5588              	.LBE1588:
 5589              	.LBE1590:
 5590              	.LBE1591:
 5591              	.LBE1592:
 5592              	.LBE1594:
 5593              	.LBE1597:
 5594              	.LBB1598:
 5595              	.LBB1514:
ARM GAS  /tmp/ccZhYDze.s 			page 156


 5596              	.LBB1512:
 5597              	.LBB1509:
 5598              	.LBB1508:
 5599              	.LBB1506:
 5600              	.LBI1506:
 239:../../libdaisy/src/dev/oled_ssd130x.h ****     {
 5601              		.loc 16 239 10 is_stmt 1 view .LVU1343
 5602              	.LBB1507:
 246:../../libdaisy/src/dev/oled_ssd130x.h ****     }
 5603              		.loc 16 246 42 is_stmt 0 view .LVU1344
 5604 039a 2BEA0A0A 		bic	r10, fp, r10
 246:../../libdaisy/src/dev/oled_ssd130x.h ****     }
 5605              		.loc 16 246 13 view .LVU1345
 5606 039e 8EF814A0 		strb	r10, [lr, #20]
 5607 03a2 B9E6     		b	.L337
 5608              	.LVL432:
 5609              	.L349:
 246:../../libdaisy/src/dev/oled_ssd130x.h ****     }
 5610              		.loc 16 246 13 view .LVU1346
 5611              	.LBE1507:
 5612              	.LBE1506:
 5613              	.LBE1508:
 5614              	.LBE1509:
 5615              	.LBE1512:
 5616              	.LBE1514:
 5617              	.LBE1598:
 5618              	.LBB1599:
 5619              	.LBB1546:
 5620              	.LBB1543:
 5621              	.LBB1542:
 5622              	.LBB1541:
 5623              	.LBB1539:
 5624              	.LBI1539:
 239:../../libdaisy/src/dev/oled_ssd130x.h ****     {
 5625              		.loc 16 239 10 is_stmt 1 view .LVU1347
 5626              	.LBB1540:
 246:../../libdaisy/src/dev/oled_ssd130x.h ****     }
 5627              		.loc 16 246 42 is_stmt 0 view .LVU1348
 5628 03a4 2BEA0A0A 		bic	r10, fp, r10
 246:../../libdaisy/src/dev/oled_ssd130x.h ****     }
 5629              		.loc 16 246 13 view .LVU1349
 5630 03a8 8EF814A0 		strb	r10, [lr, #20]
 5631 03ac 11E7     		b	.L348
 5632              	.LVL433:
 5633              	.L359:
 246:../../libdaisy/src/dev/oled_ssd130x.h ****     }
 5634              		.loc 16 246 13 view .LVU1350
 5635              	.LBE1540:
 5636              	.LBE1539:
 5637              	.LBE1541:
 5638              	.LBE1542:
 5639              	.LBE1543:
 5640              	.LBE1546:
 5641              	.LBE1599:
 5642              	.LBB1600:
 5643              	.LBB1574:
 5644              	.LBB1572:
ARM GAS  /tmp/ccZhYDze.s 			page 157


 5645              	.LBB1571:
 5646              	.LBB1570:
 5647              	.LBB1568:
 5648              	.LBI1568:
 239:../../libdaisy/src/dev/oled_ssd130x.h ****     {
 5649              		.loc 16 239 10 is_stmt 1 view .LVU1351
 5650              	.LBB1569:
 246:../../libdaisy/src/dev/oled_ssd130x.h ****     }
 5651              		.loc 16 246 42 is_stmt 0 view .LVU1352
 5652 03ae 2BEA0A0A 		bic	r10, fp, r10
 246:../../libdaisy/src/dev/oled_ssd130x.h ****     }
 5653              		.loc 16 246 13 view .LVU1353
 5654 03b2 8CF814A0 		strb	r10, [ip, #20]
 5655 03b6 64E7     		b	.L358
 5656              	.LVL434:
 5657              	.L341:
 246:../../libdaisy/src/dev/oled_ssd130x.h ****     }
 5658              		.loc 16 246 13 view .LVU1354
 5659              	.LBE1569:
 5660              	.LBE1568:
 5661              	.LBE1570:
 5662              	.LBE1571:
 5663              	.LBE1572:
 5664              	.LBE1574:
 5665              	.LBE1600:
 5666              	.LBB1601:
 5667              	.LBB1547:
 5668              	.LBB1544:
  41:../../libdaisy/src/hid/disp/oled_display.h ****     {
 5669              		.loc 5 41 10 is_stmt 1 view .LVU1355
 5670              	.LBB1531:
 239:../../libdaisy/src/dev/oled_ssd130x.h ****     {
 5671              		.loc 16 239 10 view .LVU1356
 5672              	.LBB1526:
 241:../../libdaisy/src/dev/oled_ssd130x.h ****             return;
 5673              		.loc 16 241 9 is_stmt 0 view .LVU1357
 5674 03b8 3EBB     		cbnz	r6, .L380
 5675 03ba 009E     		ldr	r6, [sp]
 5676 03bc 2EBB     		cbnz	r6, .L380
 5677              	.LBE1526:
 5678              	.LBE1531:
 5679              	.LBE1544:
 230:../../libdaisy/src/hid/disp/display.h ****         int_fast16_t error  = deltaX - deltaY;
 5680              		.loc 6 230 22 view .LVU1358
 5681 03be 0126     		movs	r6, #1
 5682 03c0 0096     		str	r6, [sp]
 5683              	.LBB1545:
 5684              	.LBB1532:
 5685              	.LBB1527:
 243:../../libdaisy/src/dev/oled_ssd130x.h ****             buffer_[x + (y / 8) * width] |= (1 << (y % 8));
 5686              		.loc 16 243 9 view .LVU1359
 5687 03c2 002D     		cmp	r5, #0
 5688 03c4 7FF4D4AE 		bne	.L416
 5689              	.LVL435:
 5690              	.L343:
 5691              	.LBB1521:
 5692              	.LBI1521:
ARM GAS  /tmp/ccZhYDze.s 			page 158


 239:../../libdaisy/src/dev/oled_ssd130x.h ****     {
 5693              		.loc 16 239 10 is_stmt 1 view .LVU1360
 5694              	.LBB1522:
 246:../../libdaisy/src/dev/oled_ssd130x.h ****     }
 5695              		.loc 16 246 28 is_stmt 0 view .LVU1361
 5696 03c8 E608     		lsrs	r6, r4, #3
 246:../../libdaisy/src/dev/oled_ssd130x.h ****     }
 5697              		.loc 16 246 49 view .LVU1362
 5698 03ca 4FF0010C 		mov	ip, #1
 246:../../libdaisy/src/dev/oled_ssd130x.h ****     }
 5699              		.loc 16 246 55 view .LVU1363
 5700 03ce 04F00707 		and	r7, r4, #7
 246:../../libdaisy/src/dev/oled_ssd130x.h ****     }
 5701              		.loc 16 246 13 view .LVU1364
 5702 03d2 0395     		str	r5, [sp, #12]
 246:../../libdaisy/src/dev/oled_ssd130x.h ****     }
 5703              		.loc 16 246 42 view .LVU1365
 5704 03d4 03EBC616 		add	r6, r3, r6, lsl #7
 246:../../libdaisy/src/dev/oled_ssd130x.h ****     }
 5705              		.loc 16 246 49 view .LVU1366
 5706 03d8 0CFA07F7 		lsl	r7, ip, r7
 246:../../libdaisy/src/dev/oled_ssd130x.h ****     }
 5707              		.loc 16 246 13 view .LVU1367
 5708 03dc 0644     		add	r6, r6, r0
 246:../../libdaisy/src/dev/oled_ssd130x.h ****     }
 5709              		.loc 16 246 42 view .LVU1368
 5710 03de 96F814C0 		ldrb	ip, [r6, #20]	@ zero_extendqisi2
 5711 03e2 2CEA0707 		bic	r7, ip, r7
 246:../../libdaisy/src/dev/oled_ssd130x.h ****     }
 5712              		.loc 16 246 13 view .LVU1369
 5713 03e6 3775     		strb	r7, [r6, #20]
 5714 03e8 D4E6     		b	.L342
 5715              	.LVL436:
 5716              	.L364:
 246:../../libdaisy/src/dev/oled_ssd130x.h ****     }
 5717              		.loc 16 246 13 view .LVU1370
 5718              	.LBE1522:
 5719              	.LBE1521:
 5720              	.LBE1527:
 5721              	.LBE1532:
 5722              	.LBE1545:
 5723              	.LBE1547:
 5724              	.LBE1601:
 5725              	.LBB1602:
 5726              	.LBB1595:
 5727              	.LBB1593:
 5728              	.LBB1584:
 5729              	.LBB1583:
 5730              	.LBB1581:
 5731              	.LBI1581:
 239:../../libdaisy/src/dev/oled_ssd130x.h ****     {
 5732              		.loc 16 239 10 is_stmt 1 view .LVU1371
 5733              	.LBB1582:
 246:../../libdaisy/src/dev/oled_ssd130x.h ****     }
 5734              		.loc 16 246 13 is_stmt 0 view .LVU1372
 5735 03ea 0344     		add	r3, r3, r0
 246:../../libdaisy/src/dev/oled_ssd130x.h ****     }
ARM GAS  /tmp/ccZhYDze.s 			page 159


 5736              		.loc 16 246 49 view .LVU1373
 5737 03ec 06FA07F7 		lsl	r7, r6, r7
 246:../../libdaisy/src/dev/oled_ssd130x.h ****     }
 5738              		.loc 16 246 42 view .LVU1374
 5739 03f0 1E7D     		ldrb	r6, [r3, #20]	@ zero_extendqisi2
 5740 03f2 26EA0706 		bic	r6, r6, r7
 246:../../libdaisy/src/dev/oled_ssd130x.h ****     }
 5741              		.loc 16 246 13 view .LVU1375
 5742 03f6 1E75     		strb	r6, [r3, #20]
 5743 03f8 71E7     		b	.L363
 5744              	.LVL437:
 5745              	.L354:
 246:../../libdaisy/src/dev/oled_ssd130x.h ****     }
 5746              		.loc 16 246 13 view .LVU1376
 5747              	.LBE1582:
 5748              	.LBE1581:
 5749              	.LBE1583:
 5750              	.LBE1584:
 5751              	.LBE1593:
 5752              	.LBE1595:
 5753              	.LBE1602:
 5754              	.LBB1603:
 5755              	.LBB1575:
 5756              	.LBB1573:
 5757              	.LBB1562:
 5758              	.LBB1559:
 5759              	.LBB1555:
 5760              	.LBI1555:
 239:../../libdaisy/src/dev/oled_ssd130x.h ****     {
 5761              		.loc 16 239 10 is_stmt 1 view .LVU1377
 5762              	.LBB1556:
 246:../../libdaisy/src/dev/oled_ssd130x.h ****     }
 5763              		.loc 16 246 42 is_stmt 0 view .LVU1378
 5764 03fa 2CEA0707 		bic	r7, ip, r7
 246:../../libdaisy/src/dev/oled_ssd130x.h ****     }
 5765              		.loc 16 246 13 view .LVU1379
 5766 03fe 3775     		strb	r7, [r6, #20]
 5767 0400 23E7     		b	.L353
 5768              	.LVL438:
 5769              	.L376:
 246:../../libdaisy/src/dev/oled_ssd130x.h ****     }
 5770              		.loc 16 246 13 view .LVU1380
 5771              	.LBE1556:
 5772              	.LBE1555:
 5773              	.LBE1559:
 5774              	.LBE1562:
 5775              	.LBE1573:
 5776              	.LBE1575:
 5777              	.LBE1603:
 5778              	.LBB1604:
 5779              	.LBB1548:
 230:../../libdaisy/src/hid/disp/display.h ****         int_fast16_t error  = deltaX - deltaY;
 5780              		.loc 6 230 22 view .LVU1381
 5781 0402 4FF0FF36 		mov	r6, #-1
 5782 0406 0096     		str	r6, [sp]
 5783 0408 C4E6     		b	.L342
 5784              	.LVL439:
ARM GAS  /tmp/ccZhYDze.s 			page 160


 5785              	.L380:
 230:../../libdaisy/src/hid/disp/display.h ****         int_fast16_t error  = deltaX - deltaY;
 5786              		.loc 6 230 22 view .LVU1382
 5787 040a 0126     		movs	r6, #1
 5788 040c 0096     		str	r6, [sp]
 5789 040e C4E6     		b	.L345
 5790              	.LVL440:
 5791              	.L413:
 230:../../libdaisy/src/hid/disp/display.h ****         int_fast16_t error  = deltaX - deltaY;
 5792              		.loc 6 230 22 view .LVU1383
 5793              	.LBE1548:
 5794              	.LBE1604:
 5795              	.LBB1605:
 5796              	.LBB1515:
 239:../../libdaisy/src/hid/disp/display.h ****         {
 5797              		.loc 6 239 19 view .LVU1384
 5798 0410 0126     		movs	r6, #1
 5799 0412 0496     		str	r6, [sp, #16]
 5800 0414 8EE6     		b	.L333
 5801              	.LVL441:
 5802              	.L414:
 239:../../libdaisy/src/hid/disp/display.h ****         {
 5803              		.loc 6 239 19 view .LVU1385
 5804              	.LBE1515:
 5805              	.LBE1605:
 5806              	.LBB1606:
 5807              	.LBB1549:
 239:../../libdaisy/src/hid/disp/display.h ****         {
 5808              		.loc 6 239 33 view .LVU1386
 5809 0416 0126     		movs	r6, #1
 5810 0418 0196     		str	r6, [sp, #4]
 5811 041a ECE6     		b	.L344
 5812              	.LBE1549:
 5813              	.LBE1606:
 5814              	.LBE1607:
 5815              		.cfi_endproc
 5816              	.LFE4825:
 5818              		.section	.text._Z10UpdateOledv,"ax",%progbits
 5819              		.align	1
 5820              		.p2align 2,,3
 5821              		.global	_Z10UpdateOledv
 5822              		.syntax unified
 5823              		.thumb
 5824              		.thumb_func
 5825              		.fpu fpv5-d16
 5827              	_Z10UpdateOledv:
 5828              	.LFB4235:
  49:ex_verb.cpp   **** 
  50:ex_verb.cpp   **** void UpdateOled();
  51:ex_verb.cpp   **** 
  52:ex_verb.cpp   **** int main(void)
  53:ex_verb.cpp   **** {
  54:ex_verb.cpp   ****     float samplerate;
  55:ex_verb.cpp   ****     patch.Init();
  56:ex_verb.cpp   ****     samplerate = patch.AudioSampleRate();
  57:ex_verb.cpp   **** 
  58:ex_verb.cpp   ****     verb.Init(samplerate);
ARM GAS  /tmp/ccZhYDze.s 			page 161


  59:ex_verb.cpp   ****     verb.SetFeedback(0.85f);
  60:ex_verb.cpp   ****     verb.SetLpFreq(18000.0f);
  61:ex_verb.cpp   **** 
  62:ex_verb.cpp   ****     blk[0].Init(samplerate);
  63:ex_verb.cpp   ****     blk[1].Init(samplerate);
  64:ex_verb.cpp   **** 
  65:ex_verb.cpp   ****     lpParam.Init(patch.controls[3], 20, 20000, Parameter::LOGARITHMIC);
  66:ex_verb.cpp   **** 
  67:ex_verb.cpp   ****     //briefly display the module name
  68:ex_verb.cpp   ****     std::string str  = "Stereo Reverb";
  69:ex_verb.cpp   ****     char*       cstr = &str[0];
  70:ex_verb.cpp   ****     patch.display.WriteString(cstr, Font_7x10, true);
  71:ex_verb.cpp   ****     patch.display.Update();
  72:ex_verb.cpp   ****     patch.DelayMs(1000);
  73:ex_verb.cpp   **** 
  74:ex_verb.cpp   ****     patch.StartAdc();
  75:ex_verb.cpp   ****     patch.StartAudio(VerbCallback);
  76:ex_verb.cpp   **** 
  77:ex_verb.cpp   ****     while(1)
  78:ex_verb.cpp   ****     {
  79:ex_verb.cpp   ****         UpdateOled();
  80:ex_verb.cpp   ****     }
  81:ex_verb.cpp   **** }
  82:ex_verb.cpp   **** 
  83:ex_verb.cpp   **** void UpdateOled()
  84:ex_verb.cpp   **** {
 5829              		.loc 15 84 1 is_stmt 1 view -0
 5830              		.cfi_startproc
 5831              		@ args = 0, pretend = 0, frame = 0
 5832              		@ frame_needed = 0, uses_anonymous_args = 0
 5833              		@ link register save eliminated.
  85:ex_verb.cpp   ****     patch.DisplayControls(false);
 5834              		.loc 15 85 5 view .LVU1388
 5835              		.loc 15 85 26 is_stmt 0 view .LVU1389
 5836 0000 0021     		movs	r1, #0
 5837 0002 0148     		ldr	r0, .L418
 5838 0004 FFF7FEBF 		b	_ZN5daisy10DaisyPatch15DisplayControlsEb
 5839              	.LVL442:
 5840              	.L419:
 5841              		.align	2
 5842              	.L418:
 5843 0008 00000000 		.word	_ZL5patch
 5844              		.cfi_endproc
 5845              	.LFE4235:
 5847              		.section	.text._ZN5daisy13SSD130xDriverILj128ELj64ENS_24SSD130x4WireSpiTransportEE6UpdateEv,"axG",
 5848              		.align	1
 5849              		.p2align 2,,3
 5850              		.weak	_ZN5daisy13SSD130xDriverILj128ELj64ENS_24SSD130x4WireSpiTransportEE6UpdateEv
 5851              		.syntax unified
 5852              		.thumb
 5853              		.thumb_func
 5854              		.fpu fpv5-d16
 5856              	_ZN5daisy13SSD130xDriverILj128ELj64ENS_24SSD130x4WireSpiTransportEE6UpdateEv:
 5857              	.LVL443:
 5858              	.LFB4682:
 260:../../libdaisy/src/dev/oled_ssd130x.h ****     {
 5859              		.loc 16 260 10 is_stmt 1 view -0
ARM GAS  /tmp/ccZhYDze.s 			page 162


 5860              		.cfi_startproc
 5861              		@ args = 0, pretend = 0, frame = 8
 5862              		@ frame_needed = 0, uses_anonymous_args = 0
 5863              		.loc 16 270 22 view .LVU1391
 260:../../libdaisy/src/dev/oled_ssd130x.h ****     {
 5864              		.loc 16 260 10 is_stmt 0 view .LVU1392
 5865 0000 2DE9F041 		push	{r4, r5, r6, r7, r8, lr}
 5866              		.cfi_def_cfa_offset 24
 5867              		.cfi_offset 4, -24
 5868              		.cfi_offset 5, -20
 5869              		.cfi_offset 6, -16
 5870              		.cfi_offset 7, -12
 5871              		.cfi_offset 8, -8
 5872              		.cfi_offset 14, -4
 5873 0004 B024     		movs	r4, #176
 5874 0006 82B0     		sub	sp, sp, #8
 5875              		.cfi_def_cfa_offset 32
 260:../../libdaisy/src/dev/oled_ssd130x.h ****     {
 5876              		.loc 16 260 10 view .LVU1393
 5877 0008 0546     		mov	r5, r0
 5878 000a 00F10806 		add	r6, r0, #8
 5879 000e 00F10C08 		add	r8, r0, #12
 5880              	.LVL444:
 5881              	.L421:
 5882              	.LBB1616:
 5883              	.LBB1617:
 111:../../libdaisy/src/dev/oled_ssd130x.h ****         spi_.BlockingTransmit(&cmd, 1);
 5884              		.loc 16 111 23 discriminator 2 view .LVU1394
 5885 0012 0021     		movs	r1, #0
 5886 0014 3046     		mov	r0, r6
 5887 0016 8DF80740 		strb	r4, [sp, #7]
 5888              	.LVL445:
 111:../../libdaisy/src/dev/oled_ssd130x.h ****         spi_.BlockingTransmit(&cmd, 1);
 5889              		.loc 16 111 23 discriminator 2 view .LVU1395
 5890              	.LBE1617:
 5891              	.LBI1616:
 109:../../libdaisy/src/dev/oled_ssd130x.h ****     {
 5892              		.loc 16 109 10 is_stmt 1 discriminator 2 view .LVU1396
 5893              	.LBB1618:
 111:../../libdaisy/src/dev/oled_ssd130x.h ****         spi_.BlockingTransmit(&cmd, 1);
 5894              		.loc 16 111 9 discriminator 2 view .LVU1397
 5895 001a 0134     		adds	r4, r4, #1
 5896              	.LVL446:
 111:../../libdaisy/src/dev/oled_ssd130x.h ****         spi_.BlockingTransmit(&cmd, 1);
 5897              		.loc 16 111 9 is_stmt 0 discriminator 2 view .LVU1398
 5898 001c 0F46     		mov	r7, r1
 111:../../libdaisy/src/dev/oled_ssd130x.h ****         spi_.BlockingTransmit(&cmd, 1);
 5899              		.loc 16 111 23 discriminator 2 view .LVU1399
 5900 001e FFF7FEFF 		bl	dsy_gpio_write
 5901              	.LVL447:
 112:../../libdaisy/src/dev/oled_ssd130x.h ****     };
 5902              		.loc 16 112 9 is_stmt 1 discriminator 2 view .LVU1400
 112:../../libdaisy/src/dev/oled_ssd130x.h ****     };
 5903              		.loc 16 112 30 is_stmt 0 discriminator 2 view .LVU1401
 5904 0022 6423     		movs	r3, #100
 5905 0024 0122     		movs	r2, #1
 5906 0026 0DF10701 		add	r1, sp, #7
ARM GAS  /tmp/ccZhYDze.s 			page 163


 5907 002a 2846     		mov	r0, r5
 5908 002c FFF7FEFF 		bl	_ZN5daisy9SpiHandle16BlockingTransmitEPhjm
 5909              	.LVL448:
 112:../../libdaisy/src/dev/oled_ssd130x.h ****     };
 5910              		.loc 16 112 30 discriminator 2 view .LVU1402
 5911              	.LBE1618:
 5912              	.LBE1616:
 5913              	.LBB1619:
 5914              	.LBB1620:
 111:../../libdaisy/src/dev/oled_ssd130x.h ****         spi_.BlockingTransmit(&cmd, 1);
 5915              		.loc 16 111 23 discriminator 2 view .LVU1403
 5916 0030 3946     		mov	r1, r7
 5917 0032 3046     		mov	r0, r6
 5918 0034 8DF80770 		strb	r7, [sp, #7]
 5919              	.LVL449:
 111:../../libdaisy/src/dev/oled_ssd130x.h ****         spi_.BlockingTransmit(&cmd, 1);
 5920              		.loc 16 111 23 discriminator 2 view .LVU1404
 5921              	.LBE1620:
 5922              	.LBI1619:
 109:../../libdaisy/src/dev/oled_ssd130x.h ****     {
 5923              		.loc 16 109 10 is_stmt 1 discriminator 2 view .LVU1405
 5924              	.LBB1621:
 111:../../libdaisy/src/dev/oled_ssd130x.h ****         spi_.BlockingTransmit(&cmd, 1);
 5925              		.loc 16 111 9 discriminator 2 view .LVU1406
 111:../../libdaisy/src/dev/oled_ssd130x.h ****         spi_.BlockingTransmit(&cmd, 1);
 5926              		.loc 16 111 23 is_stmt 0 discriminator 2 view .LVU1407
 5927 0038 FFF7FEFF 		bl	dsy_gpio_write
 5928              	.LVL450:
 112:../../libdaisy/src/dev/oled_ssd130x.h ****     };
 5929              		.loc 16 112 9 is_stmt 1 discriminator 2 view .LVU1408
 112:../../libdaisy/src/dev/oled_ssd130x.h ****     };
 5930              		.loc 16 112 30 is_stmt 0 discriminator 2 view .LVU1409
 5931 003c 0122     		movs	r2, #1
 5932 003e 6423     		movs	r3, #100
 5933 0040 0DF10701 		add	r1, sp, #7
 5934 0044 2846     		mov	r0, r5
 5935 0046 E4B2     		uxtb	r4, r4
 5936 0048 FFF7FEFF 		bl	_ZN5daisy9SpiHandle16BlockingTransmitEPhjm
 5937              	.LVL451:
 112:../../libdaisy/src/dev/oled_ssd130x.h ****     };
 5938              		.loc 16 112 30 discriminator 2 view .LVU1410
 5939 004c 1023     		movs	r3, #16
 5940              	.LBE1621:
 5941              	.LBE1619:
 5942              	.LBB1622:
 5943              	.LBB1623:
 111:../../libdaisy/src/dev/oled_ssd130x.h ****         spi_.BlockingTransmit(&cmd, 1);
 5944              		.loc 16 111 23 discriminator 2 view .LVU1411
 5945 004e 3946     		mov	r1, r7
 5946 0050 3046     		mov	r0, r6
 5947 0052 8DF80730 		strb	r3, [sp, #7]
 5948              	.LVL452:
 111:../../libdaisy/src/dev/oled_ssd130x.h ****         spi_.BlockingTransmit(&cmd, 1);
 5949              		.loc 16 111 23 discriminator 2 view .LVU1412
 5950              	.LBE1623:
 5951              	.LBI1622:
 109:../../libdaisy/src/dev/oled_ssd130x.h ****     {
ARM GAS  /tmp/ccZhYDze.s 			page 164


 5952              		.loc 16 109 10 is_stmt 1 discriminator 2 view .LVU1413
 5953              	.LBB1624:
 111:../../libdaisy/src/dev/oled_ssd130x.h ****         spi_.BlockingTransmit(&cmd, 1);
 5954              		.loc 16 111 9 discriminator 2 view .LVU1414
 111:../../libdaisy/src/dev/oled_ssd130x.h ****         spi_.BlockingTransmit(&cmd, 1);
 5955              		.loc 16 111 23 is_stmt 0 discriminator 2 view .LVU1415
 5956 0056 FFF7FEFF 		bl	dsy_gpio_write
 5957              	.LVL453:
 112:../../libdaisy/src/dev/oled_ssd130x.h ****     };
 5958              		.loc 16 112 9 is_stmt 1 discriminator 2 view .LVU1416
 112:../../libdaisy/src/dev/oled_ssd130x.h ****     };
 5959              		.loc 16 112 30 is_stmt 0 discriminator 2 view .LVU1417
 5960 005a 6423     		movs	r3, #100
 5961 005c 0122     		movs	r2, #1
 5962 005e 0DF10701 		add	r1, sp, #7
 5963 0062 2846     		mov	r0, r5
 5964 0064 FFF7FEFF 		bl	_ZN5daisy9SpiHandle16BlockingTransmitEPhjm
 5965              	.LVL454:
 112:../../libdaisy/src/dev/oled_ssd130x.h ****     };
 5966              		.loc 16 112 30 discriminator 2 view .LVU1418
 5967              	.LBE1624:
 5968              	.LBE1622:
 5969              	.LBB1625:
 5970              	.LBI1625:
 115:../../libdaisy/src/dev/oled_ssd130x.h ****     {
 5971              		.loc 16 115 10 is_stmt 1 discriminator 2 view .LVU1419
 5972              	.LBB1626:
 117:../../libdaisy/src/dev/oled_ssd130x.h ****         spi_.BlockingTransmit(buff, size);
 5973              		.loc 16 117 9 discriminator 2 view .LVU1420
 117:../../libdaisy/src/dev/oled_ssd130x.h ****         spi_.BlockingTransmit(buff, size);
 5974              		.loc 16 117 23 is_stmt 0 discriminator 2 view .LVU1421
 5975 0068 0121     		movs	r1, #1
 5976 006a 3046     		mov	r0, r6
 5977 006c FFF7FEFF 		bl	dsy_gpio_write
 5978              	.LVL455:
 118:../../libdaisy/src/dev/oled_ssd130x.h ****     };
 5979              		.loc 16 118 9 is_stmt 1 discriminator 2 view .LVU1422
 118:../../libdaisy/src/dev/oled_ssd130x.h ****     };
 5980              		.loc 16 118 30 is_stmt 0 discriminator 2 view .LVU1423
 5981 0070 8022     		movs	r2, #128
 5982 0072 4146     		mov	r1, r8
 5983 0074 6423     		movs	r3, #100
 5984 0076 2846     		mov	r0, r5
 5985 0078 9044     		add	r8, r8, r2
 5986              	.LVL456:
 118:../../libdaisy/src/dev/oled_ssd130x.h ****     };
 5987              		.loc 16 118 30 discriminator 2 view .LVU1424
 5988 007a FFF7FEFF 		bl	_ZN5daisy9SpiHandle16BlockingTransmitEPhjm
 5989              	.LVL457:
 118:../../libdaisy/src/dev/oled_ssd130x.h ****     };
 5990              		.loc 16 118 30 discriminator 2 view .LVU1425
 5991              	.LBE1626:
 5992              	.LBE1625:
 5993              		.loc 16 270 9 is_stmt 1 discriminator 2 view .LVU1426
 5994              		.loc 16 270 22 discriminator 2 view .LVU1427
 5995 007e B82C     		cmp	r4, #184
 5996 0080 C7D1     		bne	.L421
ARM GAS  /tmp/ccZhYDze.s 			page 165


 271:../../libdaisy/src/dev/oled_ssd130x.h ****         {
 272:../../libdaisy/src/dev/oled_ssd130x.h ****             transport_.SendCommand(0xB0 + i);
 273:../../libdaisy/src/dev/oled_ssd130x.h ****             transport_.SendCommand(0x00);
 274:../../libdaisy/src/dev/oled_ssd130x.h ****             transport_.SendCommand(high_column_addr);
 275:../../libdaisy/src/dev/oled_ssd130x.h ****             transport_.SendData(&buffer_[width * i], width);
 276:../../libdaisy/src/dev/oled_ssd130x.h ****         }
 277:../../libdaisy/src/dev/oled_ssd130x.h ****     };
 5997              		.loc 16 277 5 is_stmt 0 view .LVU1428
 5998 0082 02B0     		add	sp, sp, #8
 5999              		.cfi_def_cfa_offset 24
 6000              		@ sp needed
 6001 0084 BDE8F081 		pop	{r4, r5, r6, r7, r8, pc}
 6002              		.loc 16 277 5 view .LVU1429
 6003              		.cfi_endproc
 6004              	.LFE4682:
 6006              		.section	.rodata.main.str1.4,"aMS",%progbits,1
 6007              		.align	2
 6008              	.LC2:
 6009 0000 53746572 		.ascii	"Stereo Reverb\000"
 6009      656F2052 
 6009      65766572 
 6009      6200
 6010              		.section	.text.startup.main,"ax",%progbits
 6011              		.align	1
 6012              		.p2align 2,,3
 6013              		.global	main
 6014              		.syntax unified
 6015              		.thumb
 6016              		.thumb_func
 6017              		.fpu fpv5-d16
 6019              	main:
 6020              	.LFB4234:
  53:ex_verb.cpp   ****     float samplerate;
 6021              		.loc 15 53 1 is_stmt 1 view -0
 6022              		.cfi_startproc
 6023              		@ args = 0, pretend = 0, frame = 32
 6024              		@ frame_needed = 0, uses_anonymous_args = 0
  54:ex_verb.cpp   ****     patch.Init();
 6025              		.loc 15 54 5 view .LVU1431
  55:ex_verb.cpp   ****     samplerate = patch.AudioSampleRate();
 6026              		.loc 15 55 5 view .LVU1432
  53:ex_verb.cpp   ****     float samplerate;
 6027              		.loc 15 53 1 is_stmt 0 view .LVU1433
 6028 0000 F0B5     		push	{r4, r5, r6, r7, lr}
 6029              		.cfi_def_cfa_offset 20
 6030              		.cfi_offset 4, -20
 6031              		.cfi_offset 5, -16
 6032              		.cfi_offset 6, -12
 6033              		.cfi_offset 7, -8
 6034              		.cfi_offset 14, -4
  55:ex_verb.cpp   ****     samplerate = patch.AudioSampleRate();
 6035              		.loc 15 55 15 view .LVU1434
 6036 0002 0021     		movs	r1, #0
  58:ex_verb.cpp   ****     verb.SetFeedback(0.85f);
 6037              		.loc 15 58 14 view .LVU1435
 6038 0004 2D4D     		ldr	r5, .L427
  55:ex_verb.cpp   ****     samplerate = patch.AudioSampleRate();
ARM GAS  /tmp/ccZhYDze.s 			page 166


 6039              		.loc 15 55 15 view .LVU1436
 6040 0006 2E48     		ldr	r0, .L427+4
  65:ex_verb.cpp   **** 
 6041              		.loc 15 65 34 view .LVU1437
 6042 0008 2E4C     		ldr	r4, .L427+8
  70:ex_verb.cpp   ****     patch.display.Update();
 6043              		.loc 15 70 30 view .LVU1438
 6044 000a 2F4F     		ldr	r7, .L427+12
  53:ex_verb.cpp   ****     float samplerate;
 6045              		.loc 15 53 1 view .LVU1439
 6046 000c 2DED028B 		vpush.64	{d8}
 6047              		.cfi_def_cfa_offset 28
 6048              		.cfi_offset 80, -28
 6049              		.cfi_offset 81, -24
 6050 0010 8BB0     		sub	sp, sp, #44
 6051              		.cfi_def_cfa_offset 72
  55:ex_verb.cpp   ****     samplerate = patch.AudioSampleRate();
 6052              		.loc 15 55 15 view .LVU1440
 6053 0012 FFF7FEFF 		bl	_ZN5daisy10DaisyPatch4InitEb
 6054              	.LVL458:
  56:ex_verb.cpp   **** 
 6055              		.loc 15 56 5 is_stmt 1 view .LVU1441
  56:ex_verb.cpp   **** 
 6056              		.loc 15 56 39 is_stmt 0 view .LVU1442
 6057 0016 2A48     		ldr	r0, .L427+4
 6058 0018 FFF7FEFF 		bl	_ZN5daisy10DaisyPatch15AudioSampleRateEv
 6059              	.LVL459:
  58:ex_verb.cpp   ****     verb.SetFeedback(0.85f);
 6060              		.loc 15 58 14 view .LVU1443
 6061 001c 2846     		mov	r0, r5
  56:ex_verb.cpp   **** 
 6062              		.loc 15 56 39 view .LVU1444
 6063 001e B0EE408A 		vmov.f32	s16, s0
 6064              	.LVL460:
  58:ex_verb.cpp   ****     verb.SetFeedback(0.85f);
 6065              		.loc 15 58 5 is_stmt 1 view .LVU1445
  58:ex_verb.cpp   ****     verb.SetFeedback(0.85f);
 6066              		.loc 15 58 14 is_stmt 0 view .LVU1446
 6067 0022 FFF7FEFF 		bl	_ZN7daisysp8ReverbSc4InitEf
 6068              	.LVL461:
  59:ex_verb.cpp   ****     verb.SetLpFreq(18000.0f);
 6069              		.loc 15 59 5 is_stmt 1 view .LVU1447
 6070              	.LBB1684:
 6071              	.LBI1684:
  54:../../DaisySP/Source/Effects/reverbsc.h ****     /** controls the internal dampening filter's cutoff frequency.
 6072              		.loc 1 54 17 view .LVU1448
 6073              	.LBB1685:
  54:../../DaisySP/Source/Effects/reverbsc.h ****     /** controls the internal dampening filter's cutoff frequency.
 6074              		.loc 1 54 48 view .LVU1449
  54:../../DaisySP/Source/Effects/reverbsc.h ****     /** controls the internal dampening filter's cutoff frequency.
 6075              		.loc 1 54 58 is_stmt 0 view .LVU1450
 6076 0026 294A     		ldr	r2, .L427+16
 6077              	.LBE1685:
 6078              	.LBE1684:
 6079              	.LBB1687:
 6080              	.LBB1688:
 6081              	.LBB1689:
ARM GAS  /tmp/ccZhYDze.s 			page 167


 6082              	.LBB1690:
 6083              	.LBB1691:
 6084              		.file 19 "/usr/include/newlib/c++/9.2.1/bits/basic_string.h"
   1:/usr/include/newlib/c++/9.2.1/bits/basic_string.h **** // Components for manipulating sequences of characters -*- C++ -*-
   2:/usr/include/newlib/c++/9.2.1/bits/basic_string.h **** 
   3:/usr/include/newlib/c++/9.2.1/bits/basic_string.h **** // Copyright (C) 1997-2019 Free Software Foundation, Inc.
   4:/usr/include/newlib/c++/9.2.1/bits/basic_string.h **** //
   5:/usr/include/newlib/c++/9.2.1/bits/basic_string.h **** // This file is part of the GNU ISO C++ Library.  This library is free
   6:/usr/include/newlib/c++/9.2.1/bits/basic_string.h **** // software; you can redistribute it and/or modify it under the
   7:/usr/include/newlib/c++/9.2.1/bits/basic_string.h **** // terms of the GNU General Public License as published by the
   8:/usr/include/newlib/c++/9.2.1/bits/basic_string.h **** // Free Software Foundation; either version 3, or (at your option)
   9:/usr/include/newlib/c++/9.2.1/bits/basic_string.h **** // any later version.
  10:/usr/include/newlib/c++/9.2.1/bits/basic_string.h **** 
  11:/usr/include/newlib/c++/9.2.1/bits/basic_string.h **** // This library is distributed in the hope that it will be useful,
  12:/usr/include/newlib/c++/9.2.1/bits/basic_string.h **** // but WITHOUT ANY WARRANTY; without even the implied warranty of
  13:/usr/include/newlib/c++/9.2.1/bits/basic_string.h **** // MERCHANTABILITY or FITNESS FOR A PARTICULAR PURPOSE.  See the
  14:/usr/include/newlib/c++/9.2.1/bits/basic_string.h **** // GNU General Public License for more details.
  15:/usr/include/newlib/c++/9.2.1/bits/basic_string.h **** 
  16:/usr/include/newlib/c++/9.2.1/bits/basic_string.h **** // Under Section 7 of GPL version 3, you are granted additional
  17:/usr/include/newlib/c++/9.2.1/bits/basic_string.h **** // permissions described in the GCC Runtime Library Exception, version
  18:/usr/include/newlib/c++/9.2.1/bits/basic_string.h **** // 3.1, as published by the Free Software Foundation.
  19:/usr/include/newlib/c++/9.2.1/bits/basic_string.h **** 
  20:/usr/include/newlib/c++/9.2.1/bits/basic_string.h **** // You should have received a copy of the GNU General Public License and
  21:/usr/include/newlib/c++/9.2.1/bits/basic_string.h **** // a copy of the GCC Runtime Library Exception along with this program;
  22:/usr/include/newlib/c++/9.2.1/bits/basic_string.h **** // see the files COPYING3 and COPYING.RUNTIME respectively.  If not, see
  23:/usr/include/newlib/c++/9.2.1/bits/basic_string.h **** // <http://www.gnu.org/licenses/>.
  24:/usr/include/newlib/c++/9.2.1/bits/basic_string.h **** 
  25:/usr/include/newlib/c++/9.2.1/bits/basic_string.h **** /** @file bits/basic_string.h
  26:/usr/include/newlib/c++/9.2.1/bits/basic_string.h ****  *  This is an internal header file, included by other library headers.
  27:/usr/include/newlib/c++/9.2.1/bits/basic_string.h ****  *  Do not attempt to use it directly. @headername{string}
  28:/usr/include/newlib/c++/9.2.1/bits/basic_string.h ****  */
  29:/usr/include/newlib/c++/9.2.1/bits/basic_string.h **** 
  30:/usr/include/newlib/c++/9.2.1/bits/basic_string.h **** //
  31:/usr/include/newlib/c++/9.2.1/bits/basic_string.h **** // ISO C++ 14882: 21 Strings library
  32:/usr/include/newlib/c++/9.2.1/bits/basic_string.h **** //
  33:/usr/include/newlib/c++/9.2.1/bits/basic_string.h **** 
  34:/usr/include/newlib/c++/9.2.1/bits/basic_string.h **** #ifndef _BASIC_STRING_H
  35:/usr/include/newlib/c++/9.2.1/bits/basic_string.h **** #define _BASIC_STRING_H 1
  36:/usr/include/newlib/c++/9.2.1/bits/basic_string.h **** 
  37:/usr/include/newlib/c++/9.2.1/bits/basic_string.h **** #pragma GCC system_header
  38:/usr/include/newlib/c++/9.2.1/bits/basic_string.h **** 
  39:/usr/include/newlib/c++/9.2.1/bits/basic_string.h **** #include <ext/atomicity.h>
  40:/usr/include/newlib/c++/9.2.1/bits/basic_string.h **** #include <ext/alloc_traits.h>
  41:/usr/include/newlib/c++/9.2.1/bits/basic_string.h **** #include <debug/debug.h>
  42:/usr/include/newlib/c++/9.2.1/bits/basic_string.h **** 
  43:/usr/include/newlib/c++/9.2.1/bits/basic_string.h **** #if __cplusplus >= 201103L
  44:/usr/include/newlib/c++/9.2.1/bits/basic_string.h **** #include <initializer_list>
  45:/usr/include/newlib/c++/9.2.1/bits/basic_string.h **** #endif
  46:/usr/include/newlib/c++/9.2.1/bits/basic_string.h **** 
  47:/usr/include/newlib/c++/9.2.1/bits/basic_string.h **** #if __cplusplus >= 201703L
  48:/usr/include/newlib/c++/9.2.1/bits/basic_string.h **** # include <string_view>
  49:/usr/include/newlib/c++/9.2.1/bits/basic_string.h **** #endif
  50:/usr/include/newlib/c++/9.2.1/bits/basic_string.h **** 
  51:/usr/include/newlib/c++/9.2.1/bits/basic_string.h **** 
  52:/usr/include/newlib/c++/9.2.1/bits/basic_string.h **** namespace std _GLIBCXX_VISIBILITY(default)
  53:/usr/include/newlib/c++/9.2.1/bits/basic_string.h **** {
  54:/usr/include/newlib/c++/9.2.1/bits/basic_string.h **** _GLIBCXX_BEGIN_NAMESPACE_VERSION
ARM GAS  /tmp/ccZhYDze.s 			page 168


  55:/usr/include/newlib/c++/9.2.1/bits/basic_string.h **** 
  56:/usr/include/newlib/c++/9.2.1/bits/basic_string.h **** #if _GLIBCXX_USE_CXX11_ABI
  57:/usr/include/newlib/c++/9.2.1/bits/basic_string.h **** _GLIBCXX_BEGIN_NAMESPACE_CXX11
  58:/usr/include/newlib/c++/9.2.1/bits/basic_string.h ****   /**
  59:/usr/include/newlib/c++/9.2.1/bits/basic_string.h ****    *  @class basic_string basic_string.h <string>
  60:/usr/include/newlib/c++/9.2.1/bits/basic_string.h ****    *  @brief  Managing sequences of characters and character-like objects.
  61:/usr/include/newlib/c++/9.2.1/bits/basic_string.h ****    *
  62:/usr/include/newlib/c++/9.2.1/bits/basic_string.h ****    *  @ingroup strings
  63:/usr/include/newlib/c++/9.2.1/bits/basic_string.h ****    *  @ingroup sequences
  64:/usr/include/newlib/c++/9.2.1/bits/basic_string.h ****    *
  65:/usr/include/newlib/c++/9.2.1/bits/basic_string.h ****    *  @tparam _CharT  Type of character
  66:/usr/include/newlib/c++/9.2.1/bits/basic_string.h ****    *  @tparam _Traits  Traits for character type, defaults to
  67:/usr/include/newlib/c++/9.2.1/bits/basic_string.h ****    *                   char_traits<_CharT>.
  68:/usr/include/newlib/c++/9.2.1/bits/basic_string.h ****    *  @tparam _Alloc  Allocator type, defaults to allocator<_CharT>.
  69:/usr/include/newlib/c++/9.2.1/bits/basic_string.h ****    *
  70:/usr/include/newlib/c++/9.2.1/bits/basic_string.h ****    *  Meets the requirements of a <a href="tables.html#65">container</a>, a
  71:/usr/include/newlib/c++/9.2.1/bits/basic_string.h ****    *  <a href="tables.html#66">reversible container</a>, and a
  72:/usr/include/newlib/c++/9.2.1/bits/basic_string.h ****    *  <a href="tables.html#67">sequence</a>.  Of the
  73:/usr/include/newlib/c++/9.2.1/bits/basic_string.h ****    *  <a href="tables.html#68">optional sequence requirements</a>, only
  74:/usr/include/newlib/c++/9.2.1/bits/basic_string.h ****    *  @c push_back, @c at, and @c %array access are supported.
  75:/usr/include/newlib/c++/9.2.1/bits/basic_string.h ****    */
  76:/usr/include/newlib/c++/9.2.1/bits/basic_string.h ****   template<typename _CharT, typename _Traits, typename _Alloc>
  77:/usr/include/newlib/c++/9.2.1/bits/basic_string.h ****     class basic_string
  78:/usr/include/newlib/c++/9.2.1/bits/basic_string.h ****     {
  79:/usr/include/newlib/c++/9.2.1/bits/basic_string.h ****       typedef typename __gnu_cxx::__alloc_traits<_Alloc>::template
  80:/usr/include/newlib/c++/9.2.1/bits/basic_string.h **** 	rebind<_CharT>::other _Char_alloc_type;
  81:/usr/include/newlib/c++/9.2.1/bits/basic_string.h ****       typedef __gnu_cxx::__alloc_traits<_Char_alloc_type> _Alloc_traits;
  82:/usr/include/newlib/c++/9.2.1/bits/basic_string.h **** 
  83:/usr/include/newlib/c++/9.2.1/bits/basic_string.h ****       // Types:
  84:/usr/include/newlib/c++/9.2.1/bits/basic_string.h ****     public:
  85:/usr/include/newlib/c++/9.2.1/bits/basic_string.h ****       typedef _Traits					traits_type;
  86:/usr/include/newlib/c++/9.2.1/bits/basic_string.h ****       typedef typename _Traits::char_type		value_type;
  87:/usr/include/newlib/c++/9.2.1/bits/basic_string.h ****       typedef _Char_alloc_type				allocator_type;
  88:/usr/include/newlib/c++/9.2.1/bits/basic_string.h ****       typedef typename _Alloc_traits::size_type		size_type;
  89:/usr/include/newlib/c++/9.2.1/bits/basic_string.h ****       typedef typename _Alloc_traits::difference_type	difference_type;
  90:/usr/include/newlib/c++/9.2.1/bits/basic_string.h ****       typedef typename _Alloc_traits::reference		reference;
  91:/usr/include/newlib/c++/9.2.1/bits/basic_string.h ****       typedef typename _Alloc_traits::const_reference	const_reference;
  92:/usr/include/newlib/c++/9.2.1/bits/basic_string.h ****       typedef typename _Alloc_traits::pointer		pointer;
  93:/usr/include/newlib/c++/9.2.1/bits/basic_string.h ****       typedef typename _Alloc_traits::const_pointer	const_pointer;
  94:/usr/include/newlib/c++/9.2.1/bits/basic_string.h ****       typedef __gnu_cxx::__normal_iterator<pointer, basic_string>  iterator;
  95:/usr/include/newlib/c++/9.2.1/bits/basic_string.h ****       typedef __gnu_cxx::__normal_iterator<const_pointer, basic_string>
  96:/usr/include/newlib/c++/9.2.1/bits/basic_string.h **** 							const_iterator;
  97:/usr/include/newlib/c++/9.2.1/bits/basic_string.h ****       typedef std::reverse_iterator<const_iterator>	const_reverse_iterator;
  98:/usr/include/newlib/c++/9.2.1/bits/basic_string.h ****       typedef std::reverse_iterator<iterator>		reverse_iterator;
  99:/usr/include/newlib/c++/9.2.1/bits/basic_string.h **** 
 100:/usr/include/newlib/c++/9.2.1/bits/basic_string.h ****       ///  Value returned by various member functions when they fail.
 101:/usr/include/newlib/c++/9.2.1/bits/basic_string.h ****       static const size_type	npos = static_cast<size_type>(-1);
 102:/usr/include/newlib/c++/9.2.1/bits/basic_string.h **** 
 103:/usr/include/newlib/c++/9.2.1/bits/basic_string.h ****     protected:
 104:/usr/include/newlib/c++/9.2.1/bits/basic_string.h ****       // type used for positions in insert, erase etc.
 105:/usr/include/newlib/c++/9.2.1/bits/basic_string.h **** #if __cplusplus < 201103L
 106:/usr/include/newlib/c++/9.2.1/bits/basic_string.h ****       typedef iterator __const_iterator;
 107:/usr/include/newlib/c++/9.2.1/bits/basic_string.h **** #else
 108:/usr/include/newlib/c++/9.2.1/bits/basic_string.h ****       typedef const_iterator __const_iterator;
 109:/usr/include/newlib/c++/9.2.1/bits/basic_string.h **** #endif
 110:/usr/include/newlib/c++/9.2.1/bits/basic_string.h **** 
 111:/usr/include/newlib/c++/9.2.1/bits/basic_string.h ****     private:
ARM GAS  /tmp/ccZhYDze.s 			page 169


 112:/usr/include/newlib/c++/9.2.1/bits/basic_string.h **** #if __cplusplus >= 201703L
 113:/usr/include/newlib/c++/9.2.1/bits/basic_string.h ****       // A helper type for avoiding boiler-plate.
 114:/usr/include/newlib/c++/9.2.1/bits/basic_string.h ****       typedef basic_string_view<_CharT, _Traits> __sv_type;
 115:/usr/include/newlib/c++/9.2.1/bits/basic_string.h **** 
 116:/usr/include/newlib/c++/9.2.1/bits/basic_string.h ****       template<typename _Tp, typename _Res>
 117:/usr/include/newlib/c++/9.2.1/bits/basic_string.h **** 	using _If_sv = enable_if_t<
 118:/usr/include/newlib/c++/9.2.1/bits/basic_string.h **** 	  __and_<is_convertible<const _Tp&, __sv_type>,
 119:/usr/include/newlib/c++/9.2.1/bits/basic_string.h **** 		 __not_<is_convertible<const _Tp*, const basic_string*>>,
 120:/usr/include/newlib/c++/9.2.1/bits/basic_string.h **** 		 __not_<is_convertible<const _Tp&, const _CharT*>>>::value,
 121:/usr/include/newlib/c++/9.2.1/bits/basic_string.h **** 	  _Res>;
 122:/usr/include/newlib/c++/9.2.1/bits/basic_string.h **** 
 123:/usr/include/newlib/c++/9.2.1/bits/basic_string.h ****       // Allows an implicit conversion to __sv_type.
 124:/usr/include/newlib/c++/9.2.1/bits/basic_string.h ****       static __sv_type
 125:/usr/include/newlib/c++/9.2.1/bits/basic_string.h ****       _S_to_string_view(__sv_type __svt) noexcept
 126:/usr/include/newlib/c++/9.2.1/bits/basic_string.h ****       { return __svt; }
 127:/usr/include/newlib/c++/9.2.1/bits/basic_string.h **** 
 128:/usr/include/newlib/c++/9.2.1/bits/basic_string.h ****       // Wraps a string_view by explicit conversion and thus
 129:/usr/include/newlib/c++/9.2.1/bits/basic_string.h ****       // allows to add an internal constructor that does not
 130:/usr/include/newlib/c++/9.2.1/bits/basic_string.h ****       // participate in overload resolution when a string_view
 131:/usr/include/newlib/c++/9.2.1/bits/basic_string.h ****       // is provided.
 132:/usr/include/newlib/c++/9.2.1/bits/basic_string.h ****       struct __sv_wrapper
 133:/usr/include/newlib/c++/9.2.1/bits/basic_string.h ****       {
 134:/usr/include/newlib/c++/9.2.1/bits/basic_string.h **** 	explicit __sv_wrapper(__sv_type __sv) noexcept : _M_sv(__sv) { }
 135:/usr/include/newlib/c++/9.2.1/bits/basic_string.h **** 	__sv_type _M_sv;
 136:/usr/include/newlib/c++/9.2.1/bits/basic_string.h ****       };
 137:/usr/include/newlib/c++/9.2.1/bits/basic_string.h **** 
 138:/usr/include/newlib/c++/9.2.1/bits/basic_string.h ****       /**
 139:/usr/include/newlib/c++/9.2.1/bits/basic_string.h ****        *  @brief  Only internally used: Construct string from a string view
 140:/usr/include/newlib/c++/9.2.1/bits/basic_string.h ****        *          wrapper.
 141:/usr/include/newlib/c++/9.2.1/bits/basic_string.h ****        *  @param  __svw  string view wrapper.
 142:/usr/include/newlib/c++/9.2.1/bits/basic_string.h ****        *  @param  __a  Allocator to use.
 143:/usr/include/newlib/c++/9.2.1/bits/basic_string.h ****        */
 144:/usr/include/newlib/c++/9.2.1/bits/basic_string.h ****       explicit
 145:/usr/include/newlib/c++/9.2.1/bits/basic_string.h ****       basic_string(__sv_wrapper __svw, const _Alloc& __a)
 146:/usr/include/newlib/c++/9.2.1/bits/basic_string.h ****       : basic_string(__svw._M_sv.data(), __svw._M_sv.size(), __a) { }
 147:/usr/include/newlib/c++/9.2.1/bits/basic_string.h **** #endif
 148:/usr/include/newlib/c++/9.2.1/bits/basic_string.h **** 
 149:/usr/include/newlib/c++/9.2.1/bits/basic_string.h ****       // Use empty-base optimization: http://www.cantrip.org/emptyopt.html
 150:/usr/include/newlib/c++/9.2.1/bits/basic_string.h ****       struct _Alloc_hider : allocator_type // TODO check __is_final
 151:/usr/include/newlib/c++/9.2.1/bits/basic_string.h ****       {
 152:/usr/include/newlib/c++/9.2.1/bits/basic_string.h **** #if __cplusplus < 201103L
 153:/usr/include/newlib/c++/9.2.1/bits/basic_string.h **** 	_Alloc_hider(pointer __dat, const _Alloc& __a = _Alloc())
 154:/usr/include/newlib/c++/9.2.1/bits/basic_string.h **** 	: allocator_type(__a), _M_p(__dat) { }
 155:/usr/include/newlib/c++/9.2.1/bits/basic_string.h **** #else
 156:/usr/include/newlib/c++/9.2.1/bits/basic_string.h **** 	_Alloc_hider(pointer __dat, const _Alloc& __a)
 157:/usr/include/newlib/c++/9.2.1/bits/basic_string.h **** 	: allocator_type(__a), _M_p(__dat) { }
 6085              		.loc 19 157 35 view .LVU1451
 6086 0028 04AE     		add	r6, sp, #16
 6087              	.LBE1691:
 6088              	.LBE1690:
 6089              	.LBE1689:
 6090              	.LBE1688:
 6091              	.LBE1687:
 6092              	.LBB1767:
 6093              	.LBB1768:
 6094              		.loc 1 58 56 view .LVU1452
 6095 002a 294B     		ldr	r3, .L427+20
ARM GAS  /tmp/ccZhYDze.s 			page 170


 6096              	.LBE1768:
 6097              	.LBE1767:
 6098              	.LBB1771:
 6099              	.LBB1686:
  54:../../DaisySP/Source/Effects/reverbsc.h ****     /** controls the internal dampening filter's cutoff frequency.
 6100              		.loc 1 54 58 view .LVU1453
 6101 002c 2A60     		str	r2, [r5]	@ float
 6102              	.LBE1686:
 6103              	.LBE1771:
  60:ex_verb.cpp   **** 
 6104              		.loc 15 60 5 is_stmt 1 view .LVU1454
 6105              	.LBB1772:
 6106              	.LBI1767:
 6107              		.loc 1 58 17 view .LVU1455
 6108              	.LVL462:
 6109              	.LBB1769:
 6110              		.loc 1 58 48 view .LVU1456
 6111              	.LBE1769:
 6112              	.LBE1772:
  62:ex_verb.cpp   ****     blk[1].Init(samplerate);
 6113              		.loc 15 62 16 is_stmt 0 view .LVU1457
 6114 002e B0EE480A 		vmov.f32	s0, s16
 6115              	.LBB1773:
 6116              	.LBB1770:
 6117              		.loc 1 58 56 view .LVU1458
 6118 0032 6B60     		str	r3, [r5, #4]	@ float
 6119              	.LBE1770:
 6120              	.LBE1773:
  62:ex_verb.cpp   ****     blk[1].Init(samplerate);
 6121              		.loc 15 62 5 is_stmt 1 view .LVU1459
  65:ex_verb.cpp   **** 
 6122              		.loc 15 65 34 is_stmt 0 view .LVU1460
 6123 0034 02AD     		add	r5, sp, #8
  62:ex_verb.cpp   ****     blk[1].Init(samplerate);
 6124              		.loc 15 62 16 view .LVU1461
 6125 0036 2748     		ldr	r0, .L427+24
 6126 0038 FFF7FEFF 		bl	_ZN7daisysp7DcBlock4InitEf
 6127              	.LVL463:
  63:ex_verb.cpp   **** 
 6128              		.loc 15 63 5 is_stmt 1 view .LVU1462
  63:ex_verb.cpp   **** 
 6129              		.loc 15 63 16 is_stmt 0 view .LVU1463
 6130 003c B0EE480A 		vmov.f32	s0, s16
 6131 0040 2548     		ldr	r0, .L427+28
 6132 0042 FFF7FEFF 		bl	_ZN7daisysp7DcBlock4InitEf
 6133              	.LVL464:
  65:ex_verb.cpp   **** 
 6134              		.loc 15 65 5 is_stmt 1 view .LVU1464
  65:ex_verb.cpp   **** 
 6135              		.loc 15 65 17 is_stmt 0 view .LVU1465
 6136 0046 B3EE040A 		vmov.f32	s0, #2.0e+1
 6137 004a DFED240A 		vldr.32	s1, .L427+32
  65:ex_verb.cpp   **** 
 6138              		.loc 15 65 34 view .LVU1466
 6139 004e 0FCC     		ldmia	r4!, {r0, r1, r2, r3}
 6140 0050 0FC5     		stmia	r5!, {r0, r1, r2, r3}
 6141 0052 94E80F00 		ldm	r4, {r0, r1, r2, r3}
ARM GAS  /tmp/ccZhYDze.s 			page 171


 6142 0056 85E80F00 		stm	r5, {r0, r1, r2, r3}
  65:ex_verb.cpp   **** 
 6143              		.loc 15 65 17 view .LVU1467
 6144 005a 0222     		movs	r2, #2
 6145 005c 02A9     		add	r1, sp, #8
 6146 005e 2048     		ldr	r0, .L427+36
 6147              	.LBB1774:
 6148              	.LBB1761:
 6149              	.LBB1698:
 6150              	.LBB1699:
 6151              	.LBB1700:
 6152              	.LBB1701:
 6153              	.LBB1702:
 6154              	.LBB1703:
 6155              	.LBB1704:
 6156              	.LBB1705:
 6157              	.LBB1706:
 6158              	.LBB1707:
 6159              	.LBB1708:
 6160              		.file 20 "/usr/include/newlib/c++/9.2.1/bits/char_traits.h"
   1:/usr/include/newlib/c++/9.2.1/bits/char_traits.h **** // Character Traits for use by standard string and iostream -*- C++ -*-
   2:/usr/include/newlib/c++/9.2.1/bits/char_traits.h **** 
   3:/usr/include/newlib/c++/9.2.1/bits/char_traits.h **** // Copyright (C) 1997-2019 Free Software Foundation, Inc.
   4:/usr/include/newlib/c++/9.2.1/bits/char_traits.h **** //
   5:/usr/include/newlib/c++/9.2.1/bits/char_traits.h **** // This file is part of the GNU ISO C++ Library.  This library is free
   6:/usr/include/newlib/c++/9.2.1/bits/char_traits.h **** // software; you can redistribute it and/or modify it under the
   7:/usr/include/newlib/c++/9.2.1/bits/char_traits.h **** // terms of the GNU General Public License as published by the
   8:/usr/include/newlib/c++/9.2.1/bits/char_traits.h **** // Free Software Foundation; either version 3, or (at your option)
   9:/usr/include/newlib/c++/9.2.1/bits/char_traits.h **** // any later version.
  10:/usr/include/newlib/c++/9.2.1/bits/char_traits.h **** 
  11:/usr/include/newlib/c++/9.2.1/bits/char_traits.h **** // This library is distributed in the hope that it will be useful,
  12:/usr/include/newlib/c++/9.2.1/bits/char_traits.h **** // but WITHOUT ANY WARRANTY; without even the implied warranty of
  13:/usr/include/newlib/c++/9.2.1/bits/char_traits.h **** // MERCHANTABILITY or FITNESS FOR A PARTICULAR PURPOSE.  See the
  14:/usr/include/newlib/c++/9.2.1/bits/char_traits.h **** // GNU General Public License for more details.
  15:/usr/include/newlib/c++/9.2.1/bits/char_traits.h **** 
  16:/usr/include/newlib/c++/9.2.1/bits/char_traits.h **** // Under Section 7 of GPL version 3, you are granted additional
  17:/usr/include/newlib/c++/9.2.1/bits/char_traits.h **** // permissions described in the GCC Runtime Library Exception, version
  18:/usr/include/newlib/c++/9.2.1/bits/char_traits.h **** // 3.1, as published by the Free Software Foundation.
  19:/usr/include/newlib/c++/9.2.1/bits/char_traits.h **** 
  20:/usr/include/newlib/c++/9.2.1/bits/char_traits.h **** // You should have received a copy of the GNU General Public License and
  21:/usr/include/newlib/c++/9.2.1/bits/char_traits.h **** // a copy of the GCC Runtime Library Exception along with this program;
  22:/usr/include/newlib/c++/9.2.1/bits/char_traits.h **** // see the files COPYING3 and COPYING.RUNTIME respectively.  If not, see
  23:/usr/include/newlib/c++/9.2.1/bits/char_traits.h **** // <http://www.gnu.org/licenses/>.
  24:/usr/include/newlib/c++/9.2.1/bits/char_traits.h **** 
  25:/usr/include/newlib/c++/9.2.1/bits/char_traits.h **** /** @file bits/char_traits.h
  26:/usr/include/newlib/c++/9.2.1/bits/char_traits.h ****  *  This is an internal header file, included by other library headers.
  27:/usr/include/newlib/c++/9.2.1/bits/char_traits.h ****  *  Do not attempt to use it directly. @headername{string}
  28:/usr/include/newlib/c++/9.2.1/bits/char_traits.h ****  */
  29:/usr/include/newlib/c++/9.2.1/bits/char_traits.h **** 
  30:/usr/include/newlib/c++/9.2.1/bits/char_traits.h **** //
  31:/usr/include/newlib/c++/9.2.1/bits/char_traits.h **** // ISO C++ 14882: 21  Strings library
  32:/usr/include/newlib/c++/9.2.1/bits/char_traits.h **** //
  33:/usr/include/newlib/c++/9.2.1/bits/char_traits.h **** 
  34:/usr/include/newlib/c++/9.2.1/bits/char_traits.h **** #ifndef _CHAR_TRAITS_H
  35:/usr/include/newlib/c++/9.2.1/bits/char_traits.h **** #define _CHAR_TRAITS_H 1
  36:/usr/include/newlib/c++/9.2.1/bits/char_traits.h **** 
  37:/usr/include/newlib/c++/9.2.1/bits/char_traits.h **** #pragma GCC system_header
ARM GAS  /tmp/ccZhYDze.s 			page 172


  38:/usr/include/newlib/c++/9.2.1/bits/char_traits.h **** 
  39:/usr/include/newlib/c++/9.2.1/bits/char_traits.h **** #include <bits/stl_algobase.h>  // std::copy, std::fill_n
  40:/usr/include/newlib/c++/9.2.1/bits/char_traits.h **** #include <bits/postypes.h>      // For streampos
  41:/usr/include/newlib/c++/9.2.1/bits/char_traits.h **** #include <cwchar>               // For WEOF, wmemmove, wmemset, etc.
  42:/usr/include/newlib/c++/9.2.1/bits/char_traits.h **** 
  43:/usr/include/newlib/c++/9.2.1/bits/char_traits.h **** #ifndef _GLIBCXX_ALWAYS_INLINE
  44:/usr/include/newlib/c++/9.2.1/bits/char_traits.h **** # define _GLIBCXX_ALWAYS_INLINE inline __attribute__((__always_inline__))
  45:/usr/include/newlib/c++/9.2.1/bits/char_traits.h **** #endif
  46:/usr/include/newlib/c++/9.2.1/bits/char_traits.h **** 
  47:/usr/include/newlib/c++/9.2.1/bits/char_traits.h **** namespace __gnu_cxx _GLIBCXX_VISIBILITY(default)
  48:/usr/include/newlib/c++/9.2.1/bits/char_traits.h **** {
  49:/usr/include/newlib/c++/9.2.1/bits/char_traits.h **** _GLIBCXX_BEGIN_NAMESPACE_VERSION
  50:/usr/include/newlib/c++/9.2.1/bits/char_traits.h **** 
  51:/usr/include/newlib/c++/9.2.1/bits/char_traits.h ****   /**
  52:/usr/include/newlib/c++/9.2.1/bits/char_traits.h ****    *  @brief  Mapping from character type to associated types.
  53:/usr/include/newlib/c++/9.2.1/bits/char_traits.h ****    *
  54:/usr/include/newlib/c++/9.2.1/bits/char_traits.h ****    *  @note This is an implementation class for the generic version
  55:/usr/include/newlib/c++/9.2.1/bits/char_traits.h ****    *  of char_traits.  It defines int_type, off_type, pos_type, and
  56:/usr/include/newlib/c++/9.2.1/bits/char_traits.h ****    *  state_type.  By default these are unsigned long, streamoff,
  57:/usr/include/newlib/c++/9.2.1/bits/char_traits.h ****    *  streampos, and mbstate_t.  Users who need a different set of
  58:/usr/include/newlib/c++/9.2.1/bits/char_traits.h ****    *  types, but who don't need to change the definitions of any function
  59:/usr/include/newlib/c++/9.2.1/bits/char_traits.h ****    *  defined in char_traits, can specialize __gnu_cxx::_Char_types
  60:/usr/include/newlib/c++/9.2.1/bits/char_traits.h ****    *  while leaving __gnu_cxx::char_traits alone. */
  61:/usr/include/newlib/c++/9.2.1/bits/char_traits.h ****   template<typename _CharT>
  62:/usr/include/newlib/c++/9.2.1/bits/char_traits.h ****     struct _Char_types
  63:/usr/include/newlib/c++/9.2.1/bits/char_traits.h ****     {
  64:/usr/include/newlib/c++/9.2.1/bits/char_traits.h ****       typedef unsigned long   int_type;
  65:/usr/include/newlib/c++/9.2.1/bits/char_traits.h ****       typedef std::streampos  pos_type;
  66:/usr/include/newlib/c++/9.2.1/bits/char_traits.h ****       typedef std::streamoff  off_type;
  67:/usr/include/newlib/c++/9.2.1/bits/char_traits.h ****       typedef std::mbstate_t  state_type;
  68:/usr/include/newlib/c++/9.2.1/bits/char_traits.h ****     };
  69:/usr/include/newlib/c++/9.2.1/bits/char_traits.h **** 
  70:/usr/include/newlib/c++/9.2.1/bits/char_traits.h **** 
  71:/usr/include/newlib/c++/9.2.1/bits/char_traits.h ****   /**
  72:/usr/include/newlib/c++/9.2.1/bits/char_traits.h ****    *  @brief  Base class used to implement std::char_traits.
  73:/usr/include/newlib/c++/9.2.1/bits/char_traits.h ****    *
  74:/usr/include/newlib/c++/9.2.1/bits/char_traits.h ****    *  @note For any given actual character type, this definition is
  75:/usr/include/newlib/c++/9.2.1/bits/char_traits.h ****    *  probably wrong.  (Most of the member functions are likely to be
  76:/usr/include/newlib/c++/9.2.1/bits/char_traits.h ****    *  right, but the int_type and state_type typedefs, and the eof()
  77:/usr/include/newlib/c++/9.2.1/bits/char_traits.h ****    *  member function, are likely to be wrong.)  The reason this class
  78:/usr/include/newlib/c++/9.2.1/bits/char_traits.h ****    *  exists is so users can specialize it.  Classes in namespace std
  79:/usr/include/newlib/c++/9.2.1/bits/char_traits.h ****    *  may not be specialized for fundamental types, but classes in
  80:/usr/include/newlib/c++/9.2.1/bits/char_traits.h ****    *  namespace __gnu_cxx may be.
  81:/usr/include/newlib/c++/9.2.1/bits/char_traits.h ****    *
  82:/usr/include/newlib/c++/9.2.1/bits/char_traits.h ****    *  See https://gcc.gnu.org/onlinedocs/libstdc++/manual/strings.html#strings.string.character_typ
  83:/usr/include/newlib/c++/9.2.1/bits/char_traits.h ****    *  for advice on how to make use of this class for @a unusual character
  84:/usr/include/newlib/c++/9.2.1/bits/char_traits.h ****    *  types. Also, check out include/ext/pod_char_traits.h.  
  85:/usr/include/newlib/c++/9.2.1/bits/char_traits.h ****    */
  86:/usr/include/newlib/c++/9.2.1/bits/char_traits.h ****   template<typename _CharT>
  87:/usr/include/newlib/c++/9.2.1/bits/char_traits.h ****     struct char_traits
  88:/usr/include/newlib/c++/9.2.1/bits/char_traits.h ****     {
  89:/usr/include/newlib/c++/9.2.1/bits/char_traits.h ****       typedef _CharT                                    char_type;
  90:/usr/include/newlib/c++/9.2.1/bits/char_traits.h ****       typedef typename _Char_types<_CharT>::int_type    int_type;
  91:/usr/include/newlib/c++/9.2.1/bits/char_traits.h ****       typedef typename _Char_types<_CharT>::pos_type    pos_type;
  92:/usr/include/newlib/c++/9.2.1/bits/char_traits.h ****       typedef typename _Char_types<_CharT>::off_type    off_type;
  93:/usr/include/newlib/c++/9.2.1/bits/char_traits.h ****       typedef typename _Char_types<_CharT>::state_type  state_type;
  94:/usr/include/newlib/c++/9.2.1/bits/char_traits.h **** 
ARM GAS  /tmp/ccZhYDze.s 			page 173


  95:/usr/include/newlib/c++/9.2.1/bits/char_traits.h ****       static _GLIBCXX14_CONSTEXPR void
  96:/usr/include/newlib/c++/9.2.1/bits/char_traits.h ****       assign(char_type& __c1, const char_type& __c2)
  97:/usr/include/newlib/c++/9.2.1/bits/char_traits.h ****       { __c1 = __c2; }
  98:/usr/include/newlib/c++/9.2.1/bits/char_traits.h **** 
  99:/usr/include/newlib/c++/9.2.1/bits/char_traits.h ****       static _GLIBCXX_CONSTEXPR bool
 100:/usr/include/newlib/c++/9.2.1/bits/char_traits.h ****       eq(const char_type& __c1, const char_type& __c2)
 101:/usr/include/newlib/c++/9.2.1/bits/char_traits.h ****       { return __c1 == __c2; }
 102:/usr/include/newlib/c++/9.2.1/bits/char_traits.h **** 
 103:/usr/include/newlib/c++/9.2.1/bits/char_traits.h ****       static _GLIBCXX_CONSTEXPR bool
 104:/usr/include/newlib/c++/9.2.1/bits/char_traits.h ****       lt(const char_type& __c1, const char_type& __c2)
 105:/usr/include/newlib/c++/9.2.1/bits/char_traits.h ****       { return __c1 < __c2; }
 106:/usr/include/newlib/c++/9.2.1/bits/char_traits.h **** 
 107:/usr/include/newlib/c++/9.2.1/bits/char_traits.h ****       static _GLIBCXX14_CONSTEXPR int
 108:/usr/include/newlib/c++/9.2.1/bits/char_traits.h ****       compare(const char_type* __s1, const char_type* __s2, std::size_t __n);
 109:/usr/include/newlib/c++/9.2.1/bits/char_traits.h **** 
 110:/usr/include/newlib/c++/9.2.1/bits/char_traits.h ****       static _GLIBCXX14_CONSTEXPR std::size_t
 111:/usr/include/newlib/c++/9.2.1/bits/char_traits.h ****       length(const char_type* __s);
 112:/usr/include/newlib/c++/9.2.1/bits/char_traits.h **** 
 113:/usr/include/newlib/c++/9.2.1/bits/char_traits.h ****       static _GLIBCXX14_CONSTEXPR const char_type*
 114:/usr/include/newlib/c++/9.2.1/bits/char_traits.h ****       find(const char_type* __s, std::size_t __n, const char_type& __a);
 115:/usr/include/newlib/c++/9.2.1/bits/char_traits.h **** 
 116:/usr/include/newlib/c++/9.2.1/bits/char_traits.h ****       static char_type*
 117:/usr/include/newlib/c++/9.2.1/bits/char_traits.h ****       move(char_type* __s1, const char_type* __s2, std::size_t __n);
 118:/usr/include/newlib/c++/9.2.1/bits/char_traits.h **** 
 119:/usr/include/newlib/c++/9.2.1/bits/char_traits.h ****       static char_type*
 120:/usr/include/newlib/c++/9.2.1/bits/char_traits.h ****       copy(char_type* __s1, const char_type* __s2, std::size_t __n);
 121:/usr/include/newlib/c++/9.2.1/bits/char_traits.h **** 
 122:/usr/include/newlib/c++/9.2.1/bits/char_traits.h ****       static char_type*
 123:/usr/include/newlib/c++/9.2.1/bits/char_traits.h ****       assign(char_type* __s, std::size_t __n, char_type __a);
 124:/usr/include/newlib/c++/9.2.1/bits/char_traits.h **** 
 125:/usr/include/newlib/c++/9.2.1/bits/char_traits.h ****       static _GLIBCXX_CONSTEXPR char_type
 126:/usr/include/newlib/c++/9.2.1/bits/char_traits.h ****       to_char_type(const int_type& __c)
 127:/usr/include/newlib/c++/9.2.1/bits/char_traits.h ****       { return static_cast<char_type>(__c); }
 128:/usr/include/newlib/c++/9.2.1/bits/char_traits.h **** 
 129:/usr/include/newlib/c++/9.2.1/bits/char_traits.h ****       static _GLIBCXX_CONSTEXPR int_type
 130:/usr/include/newlib/c++/9.2.1/bits/char_traits.h ****       to_int_type(const char_type& __c)
 131:/usr/include/newlib/c++/9.2.1/bits/char_traits.h ****       { return static_cast<int_type>(__c); }
 132:/usr/include/newlib/c++/9.2.1/bits/char_traits.h **** 
 133:/usr/include/newlib/c++/9.2.1/bits/char_traits.h ****       static _GLIBCXX_CONSTEXPR bool
 134:/usr/include/newlib/c++/9.2.1/bits/char_traits.h ****       eq_int_type(const int_type& __c1, const int_type& __c2)
 135:/usr/include/newlib/c++/9.2.1/bits/char_traits.h ****       { return __c1 == __c2; }
 136:/usr/include/newlib/c++/9.2.1/bits/char_traits.h **** 
 137:/usr/include/newlib/c++/9.2.1/bits/char_traits.h ****       static _GLIBCXX_CONSTEXPR int_type
 138:/usr/include/newlib/c++/9.2.1/bits/char_traits.h ****       eof()
 139:/usr/include/newlib/c++/9.2.1/bits/char_traits.h ****       { return static_cast<int_type>(_GLIBCXX_STDIO_EOF); }
 140:/usr/include/newlib/c++/9.2.1/bits/char_traits.h **** 
 141:/usr/include/newlib/c++/9.2.1/bits/char_traits.h ****       static _GLIBCXX_CONSTEXPR int_type
 142:/usr/include/newlib/c++/9.2.1/bits/char_traits.h ****       not_eof(const int_type& __c)
 143:/usr/include/newlib/c++/9.2.1/bits/char_traits.h ****       { return !eq_int_type(__c, eof()) ? __c : to_int_type(char_type()); }
 144:/usr/include/newlib/c++/9.2.1/bits/char_traits.h ****     };
 145:/usr/include/newlib/c++/9.2.1/bits/char_traits.h **** 
 146:/usr/include/newlib/c++/9.2.1/bits/char_traits.h ****   template<typename _CharT>
 147:/usr/include/newlib/c++/9.2.1/bits/char_traits.h ****     _GLIBCXX14_CONSTEXPR int
 148:/usr/include/newlib/c++/9.2.1/bits/char_traits.h ****     char_traits<_CharT>::
 149:/usr/include/newlib/c++/9.2.1/bits/char_traits.h ****     compare(const char_type* __s1, const char_type* __s2, std::size_t __n)
 150:/usr/include/newlib/c++/9.2.1/bits/char_traits.h ****     {
 151:/usr/include/newlib/c++/9.2.1/bits/char_traits.h ****       for (std::size_t __i = 0; __i < __n; ++__i)
ARM GAS  /tmp/ccZhYDze.s 			page 174


 152:/usr/include/newlib/c++/9.2.1/bits/char_traits.h **** 	if (lt(__s1[__i], __s2[__i]))
 153:/usr/include/newlib/c++/9.2.1/bits/char_traits.h **** 	  return -1;
 154:/usr/include/newlib/c++/9.2.1/bits/char_traits.h **** 	else if (lt(__s2[__i], __s1[__i]))
 155:/usr/include/newlib/c++/9.2.1/bits/char_traits.h **** 	  return 1;
 156:/usr/include/newlib/c++/9.2.1/bits/char_traits.h ****       return 0;
 157:/usr/include/newlib/c++/9.2.1/bits/char_traits.h ****     }
 158:/usr/include/newlib/c++/9.2.1/bits/char_traits.h **** 
 159:/usr/include/newlib/c++/9.2.1/bits/char_traits.h ****   template<typename _CharT>
 160:/usr/include/newlib/c++/9.2.1/bits/char_traits.h ****     _GLIBCXX14_CONSTEXPR std::size_t
 161:/usr/include/newlib/c++/9.2.1/bits/char_traits.h ****     char_traits<_CharT>::
 162:/usr/include/newlib/c++/9.2.1/bits/char_traits.h ****     length(const char_type* __p)
 163:/usr/include/newlib/c++/9.2.1/bits/char_traits.h ****     {
 164:/usr/include/newlib/c++/9.2.1/bits/char_traits.h ****       std::size_t __i = 0;
 165:/usr/include/newlib/c++/9.2.1/bits/char_traits.h ****       while (!eq(__p[__i], char_type()))
 166:/usr/include/newlib/c++/9.2.1/bits/char_traits.h ****         ++__i;
 167:/usr/include/newlib/c++/9.2.1/bits/char_traits.h ****       return __i;
 168:/usr/include/newlib/c++/9.2.1/bits/char_traits.h ****     }
 169:/usr/include/newlib/c++/9.2.1/bits/char_traits.h **** 
 170:/usr/include/newlib/c++/9.2.1/bits/char_traits.h ****   template<typename _CharT>
 171:/usr/include/newlib/c++/9.2.1/bits/char_traits.h ****     _GLIBCXX14_CONSTEXPR const typename char_traits<_CharT>::char_type*
 172:/usr/include/newlib/c++/9.2.1/bits/char_traits.h ****     char_traits<_CharT>::
 173:/usr/include/newlib/c++/9.2.1/bits/char_traits.h ****     find(const char_type* __s, std::size_t __n, const char_type& __a)
 174:/usr/include/newlib/c++/9.2.1/bits/char_traits.h ****     {
 175:/usr/include/newlib/c++/9.2.1/bits/char_traits.h ****       for (std::size_t __i = 0; __i < __n; ++__i)
 176:/usr/include/newlib/c++/9.2.1/bits/char_traits.h ****         if (eq(__s[__i], __a))
 177:/usr/include/newlib/c++/9.2.1/bits/char_traits.h ****           return __s + __i;
 178:/usr/include/newlib/c++/9.2.1/bits/char_traits.h ****       return 0;
 179:/usr/include/newlib/c++/9.2.1/bits/char_traits.h ****     }
 180:/usr/include/newlib/c++/9.2.1/bits/char_traits.h **** 
 181:/usr/include/newlib/c++/9.2.1/bits/char_traits.h ****   template<typename _CharT>
 182:/usr/include/newlib/c++/9.2.1/bits/char_traits.h ****     typename char_traits<_CharT>::char_type*
 183:/usr/include/newlib/c++/9.2.1/bits/char_traits.h ****     char_traits<_CharT>::
 184:/usr/include/newlib/c++/9.2.1/bits/char_traits.h ****     move(char_type* __s1, const char_type* __s2, std::size_t __n)
 185:/usr/include/newlib/c++/9.2.1/bits/char_traits.h ****     {
 186:/usr/include/newlib/c++/9.2.1/bits/char_traits.h ****       if (__n == 0)
 187:/usr/include/newlib/c++/9.2.1/bits/char_traits.h **** 	return __s1;
 188:/usr/include/newlib/c++/9.2.1/bits/char_traits.h ****       return static_cast<_CharT*>(__builtin_memmove(__s1, __s2,
 189:/usr/include/newlib/c++/9.2.1/bits/char_traits.h **** 						    __n * sizeof(char_type)));
 190:/usr/include/newlib/c++/9.2.1/bits/char_traits.h ****     }
 191:/usr/include/newlib/c++/9.2.1/bits/char_traits.h **** 
 192:/usr/include/newlib/c++/9.2.1/bits/char_traits.h ****   template<typename _CharT>
 193:/usr/include/newlib/c++/9.2.1/bits/char_traits.h ****     typename char_traits<_CharT>::char_type*
 194:/usr/include/newlib/c++/9.2.1/bits/char_traits.h ****     char_traits<_CharT>::
 195:/usr/include/newlib/c++/9.2.1/bits/char_traits.h ****     copy(char_type* __s1, const char_type* __s2, std::size_t __n)
 196:/usr/include/newlib/c++/9.2.1/bits/char_traits.h ****     {
 197:/usr/include/newlib/c++/9.2.1/bits/char_traits.h ****       // NB: Inline std::copy so no recursive dependencies.
 198:/usr/include/newlib/c++/9.2.1/bits/char_traits.h ****       std::copy(__s2, __s2 + __n, __s1);
 199:/usr/include/newlib/c++/9.2.1/bits/char_traits.h ****       return __s1;
 200:/usr/include/newlib/c++/9.2.1/bits/char_traits.h ****     }
 201:/usr/include/newlib/c++/9.2.1/bits/char_traits.h **** 
 202:/usr/include/newlib/c++/9.2.1/bits/char_traits.h ****   template<typename _CharT>
 203:/usr/include/newlib/c++/9.2.1/bits/char_traits.h ****     typename char_traits<_CharT>::char_type*
 204:/usr/include/newlib/c++/9.2.1/bits/char_traits.h ****     char_traits<_CharT>::
 205:/usr/include/newlib/c++/9.2.1/bits/char_traits.h ****     assign(char_type* __s, std::size_t __n, char_type __a)
 206:/usr/include/newlib/c++/9.2.1/bits/char_traits.h ****     {
 207:/usr/include/newlib/c++/9.2.1/bits/char_traits.h ****       // NB: Inline std::fill_n so no recursive dependencies.
 208:/usr/include/newlib/c++/9.2.1/bits/char_traits.h ****       std::fill_n(__s, __n, __a);
ARM GAS  /tmp/ccZhYDze.s 			page 175


 209:/usr/include/newlib/c++/9.2.1/bits/char_traits.h ****       return __s;
 210:/usr/include/newlib/c++/9.2.1/bits/char_traits.h ****     }
 211:/usr/include/newlib/c++/9.2.1/bits/char_traits.h **** 
 212:/usr/include/newlib/c++/9.2.1/bits/char_traits.h **** _GLIBCXX_END_NAMESPACE_VERSION
 213:/usr/include/newlib/c++/9.2.1/bits/char_traits.h **** } // namespace
 214:/usr/include/newlib/c++/9.2.1/bits/char_traits.h **** 
 215:/usr/include/newlib/c++/9.2.1/bits/char_traits.h **** namespace std _GLIBCXX_VISIBILITY(default)
 216:/usr/include/newlib/c++/9.2.1/bits/char_traits.h **** {
 217:/usr/include/newlib/c++/9.2.1/bits/char_traits.h **** _GLIBCXX_BEGIN_NAMESPACE_VERSION
 218:/usr/include/newlib/c++/9.2.1/bits/char_traits.h **** 
 219:/usr/include/newlib/c++/9.2.1/bits/char_traits.h **** #if __cplusplus >= 201703L
 220:/usr/include/newlib/c++/9.2.1/bits/char_traits.h **** #define __cpp_lib_constexpr_char_traits 201611
 221:/usr/include/newlib/c++/9.2.1/bits/char_traits.h **** 
 222:/usr/include/newlib/c++/9.2.1/bits/char_traits.h ****   /**
 223:/usr/include/newlib/c++/9.2.1/bits/char_traits.h ****    *  @brief Determine whether the characters of a NULL-terminated
 224:/usr/include/newlib/c++/9.2.1/bits/char_traits.h ****    *  string are known at compile time.
 225:/usr/include/newlib/c++/9.2.1/bits/char_traits.h ****    *  @param  __s  The string.
 226:/usr/include/newlib/c++/9.2.1/bits/char_traits.h ****    *
 227:/usr/include/newlib/c++/9.2.1/bits/char_traits.h ****    *  Assumes that _CharT is a built-in character type.
 228:/usr/include/newlib/c++/9.2.1/bits/char_traits.h ****    */
 229:/usr/include/newlib/c++/9.2.1/bits/char_traits.h ****   template<typename _CharT>
 230:/usr/include/newlib/c++/9.2.1/bits/char_traits.h ****     static _GLIBCXX_ALWAYS_INLINE constexpr bool
 231:/usr/include/newlib/c++/9.2.1/bits/char_traits.h ****     __constant_string_p(const _CharT* __s)
 232:/usr/include/newlib/c++/9.2.1/bits/char_traits.h ****     {
 233:/usr/include/newlib/c++/9.2.1/bits/char_traits.h **** #ifdef _GLIBCXX_HAVE_BUILTIN_IS_CONSTANT_EVALUATED
 234:/usr/include/newlib/c++/9.2.1/bits/char_traits.h ****       (void) __s;
 235:/usr/include/newlib/c++/9.2.1/bits/char_traits.h ****       // In constexpr contexts all strings should be constant.
 236:/usr/include/newlib/c++/9.2.1/bits/char_traits.h ****       return __builtin_is_constant_evaluated();
 237:/usr/include/newlib/c++/9.2.1/bits/char_traits.h **** #else
 238:/usr/include/newlib/c++/9.2.1/bits/char_traits.h ****       while (__builtin_constant_p(*__s) && *__s)
 239:/usr/include/newlib/c++/9.2.1/bits/char_traits.h **** 	__s++;
 240:/usr/include/newlib/c++/9.2.1/bits/char_traits.h ****       return __builtin_constant_p(*__s);
 241:/usr/include/newlib/c++/9.2.1/bits/char_traits.h **** #endif
 242:/usr/include/newlib/c++/9.2.1/bits/char_traits.h ****     }
 243:/usr/include/newlib/c++/9.2.1/bits/char_traits.h **** 
 244:/usr/include/newlib/c++/9.2.1/bits/char_traits.h ****   /**
 245:/usr/include/newlib/c++/9.2.1/bits/char_traits.h ****    *  @brief Determine whether the characters of a character array are
 246:/usr/include/newlib/c++/9.2.1/bits/char_traits.h ****    *  known at compile time.
 247:/usr/include/newlib/c++/9.2.1/bits/char_traits.h ****    *  @param  __a  The character array.
 248:/usr/include/newlib/c++/9.2.1/bits/char_traits.h ****    *  @param  __n  Number of characters.
 249:/usr/include/newlib/c++/9.2.1/bits/char_traits.h ****    *
 250:/usr/include/newlib/c++/9.2.1/bits/char_traits.h ****    *  Assumes that _CharT is a built-in character type.
 251:/usr/include/newlib/c++/9.2.1/bits/char_traits.h ****    */
 252:/usr/include/newlib/c++/9.2.1/bits/char_traits.h ****   template<typename _CharT>
 253:/usr/include/newlib/c++/9.2.1/bits/char_traits.h ****     static _GLIBCXX_ALWAYS_INLINE constexpr bool
 254:/usr/include/newlib/c++/9.2.1/bits/char_traits.h ****     __constant_char_array_p(const _CharT* __a, size_t __n)
 255:/usr/include/newlib/c++/9.2.1/bits/char_traits.h ****     {
 256:/usr/include/newlib/c++/9.2.1/bits/char_traits.h **** #ifdef _GLIBCXX_HAVE_BUILTIN_IS_CONSTANT_EVALUATED
 257:/usr/include/newlib/c++/9.2.1/bits/char_traits.h ****       (void) __a;
 258:/usr/include/newlib/c++/9.2.1/bits/char_traits.h ****       (void) __n;
 259:/usr/include/newlib/c++/9.2.1/bits/char_traits.h ****       // In constexpr contexts all character arrays should be constant.
 260:/usr/include/newlib/c++/9.2.1/bits/char_traits.h ****       return __builtin_is_constant_evaluated();
 261:/usr/include/newlib/c++/9.2.1/bits/char_traits.h **** #else
 262:/usr/include/newlib/c++/9.2.1/bits/char_traits.h ****       size_t __i = 0;
 263:/usr/include/newlib/c++/9.2.1/bits/char_traits.h ****       while (__i < __n && __builtin_constant_p(__a[__i]))
 264:/usr/include/newlib/c++/9.2.1/bits/char_traits.h **** 	__i++;
 265:/usr/include/newlib/c++/9.2.1/bits/char_traits.h ****       return __i == __n;
ARM GAS  /tmp/ccZhYDze.s 			page 176


 266:/usr/include/newlib/c++/9.2.1/bits/char_traits.h **** #endif
 267:/usr/include/newlib/c++/9.2.1/bits/char_traits.h ****     }
 268:/usr/include/newlib/c++/9.2.1/bits/char_traits.h **** #endif
 269:/usr/include/newlib/c++/9.2.1/bits/char_traits.h **** 
 270:/usr/include/newlib/c++/9.2.1/bits/char_traits.h ****   // 21.1
 271:/usr/include/newlib/c++/9.2.1/bits/char_traits.h ****   /**
 272:/usr/include/newlib/c++/9.2.1/bits/char_traits.h ****    *  @brief  Basis for explicit traits specializations.
 273:/usr/include/newlib/c++/9.2.1/bits/char_traits.h ****    *
 274:/usr/include/newlib/c++/9.2.1/bits/char_traits.h ****    *  @note  For any given actual character type, this definition is
 275:/usr/include/newlib/c++/9.2.1/bits/char_traits.h ****    *  probably wrong.  Since this is just a thin wrapper around
 276:/usr/include/newlib/c++/9.2.1/bits/char_traits.h ****    *  __gnu_cxx::char_traits, it is possible to achieve a more
 277:/usr/include/newlib/c++/9.2.1/bits/char_traits.h ****    *  appropriate definition by specializing __gnu_cxx::char_traits.
 278:/usr/include/newlib/c++/9.2.1/bits/char_traits.h ****    *
 279:/usr/include/newlib/c++/9.2.1/bits/char_traits.h ****    *  See https://gcc.gnu.org/onlinedocs/libstdc++/manual/strings.html#strings.string.character_typ
 280:/usr/include/newlib/c++/9.2.1/bits/char_traits.h ****    *  for advice on how to make use of this class for @a unusual character
 281:/usr/include/newlib/c++/9.2.1/bits/char_traits.h ****    *  types. Also, check out include/ext/pod_char_traits.h.
 282:/usr/include/newlib/c++/9.2.1/bits/char_traits.h ****   */
 283:/usr/include/newlib/c++/9.2.1/bits/char_traits.h ****   template<class _CharT>
 284:/usr/include/newlib/c++/9.2.1/bits/char_traits.h ****     struct char_traits : public __gnu_cxx::char_traits<_CharT>
 285:/usr/include/newlib/c++/9.2.1/bits/char_traits.h ****     { };
 286:/usr/include/newlib/c++/9.2.1/bits/char_traits.h **** 
 287:/usr/include/newlib/c++/9.2.1/bits/char_traits.h **** 
 288:/usr/include/newlib/c++/9.2.1/bits/char_traits.h ****   /// 21.1.3.1  char_traits specializations
 289:/usr/include/newlib/c++/9.2.1/bits/char_traits.h ****   template<>
 290:/usr/include/newlib/c++/9.2.1/bits/char_traits.h ****     struct char_traits<char>
 291:/usr/include/newlib/c++/9.2.1/bits/char_traits.h ****     {
 292:/usr/include/newlib/c++/9.2.1/bits/char_traits.h ****       typedef char              char_type;
 293:/usr/include/newlib/c++/9.2.1/bits/char_traits.h ****       typedef int               int_type;
 294:/usr/include/newlib/c++/9.2.1/bits/char_traits.h ****       typedef streampos         pos_type;
 295:/usr/include/newlib/c++/9.2.1/bits/char_traits.h ****       typedef streamoff         off_type;
 296:/usr/include/newlib/c++/9.2.1/bits/char_traits.h ****       typedef mbstate_t         state_type;
 297:/usr/include/newlib/c++/9.2.1/bits/char_traits.h **** 
 298:/usr/include/newlib/c++/9.2.1/bits/char_traits.h ****       static _GLIBCXX17_CONSTEXPR void
 299:/usr/include/newlib/c++/9.2.1/bits/char_traits.h ****       assign(char_type& __c1, const char_type& __c2) _GLIBCXX_NOEXCEPT
 300:/usr/include/newlib/c++/9.2.1/bits/char_traits.h ****       { __c1 = __c2; }
 301:/usr/include/newlib/c++/9.2.1/bits/char_traits.h **** 
 302:/usr/include/newlib/c++/9.2.1/bits/char_traits.h ****       static _GLIBCXX_CONSTEXPR bool
 303:/usr/include/newlib/c++/9.2.1/bits/char_traits.h ****       eq(const char_type& __c1, const char_type& __c2) _GLIBCXX_NOEXCEPT
 304:/usr/include/newlib/c++/9.2.1/bits/char_traits.h ****       { return __c1 == __c2; }
 305:/usr/include/newlib/c++/9.2.1/bits/char_traits.h **** 
 306:/usr/include/newlib/c++/9.2.1/bits/char_traits.h ****       static _GLIBCXX_CONSTEXPR bool
 307:/usr/include/newlib/c++/9.2.1/bits/char_traits.h ****       lt(const char_type& __c1, const char_type& __c2) _GLIBCXX_NOEXCEPT
 308:/usr/include/newlib/c++/9.2.1/bits/char_traits.h ****       {
 309:/usr/include/newlib/c++/9.2.1/bits/char_traits.h **** 	// LWG 467.
 310:/usr/include/newlib/c++/9.2.1/bits/char_traits.h **** 	return (static_cast<unsigned char>(__c1)
 311:/usr/include/newlib/c++/9.2.1/bits/char_traits.h **** 		< static_cast<unsigned char>(__c2));
 312:/usr/include/newlib/c++/9.2.1/bits/char_traits.h ****       }
 313:/usr/include/newlib/c++/9.2.1/bits/char_traits.h **** 
 314:/usr/include/newlib/c++/9.2.1/bits/char_traits.h ****       static _GLIBCXX17_CONSTEXPR int
 315:/usr/include/newlib/c++/9.2.1/bits/char_traits.h ****       compare(const char_type* __s1, const char_type* __s2, size_t __n)
 316:/usr/include/newlib/c++/9.2.1/bits/char_traits.h ****       {
 317:/usr/include/newlib/c++/9.2.1/bits/char_traits.h **** 	if (__n == 0)
 318:/usr/include/newlib/c++/9.2.1/bits/char_traits.h **** 	  return 0;
 319:/usr/include/newlib/c++/9.2.1/bits/char_traits.h **** #if __cplusplus >= 201703L
 320:/usr/include/newlib/c++/9.2.1/bits/char_traits.h **** 	if (__builtin_constant_p(__n)
 321:/usr/include/newlib/c++/9.2.1/bits/char_traits.h **** 	    && __constant_char_array_p(__s1, __n)
 322:/usr/include/newlib/c++/9.2.1/bits/char_traits.h **** 	    && __constant_char_array_p(__s2, __n))
ARM GAS  /tmp/ccZhYDze.s 			page 177


 323:/usr/include/newlib/c++/9.2.1/bits/char_traits.h **** 	  return __gnu_cxx::char_traits<char_type>::compare(__s1, __s2, __n);
 324:/usr/include/newlib/c++/9.2.1/bits/char_traits.h **** #endif
 325:/usr/include/newlib/c++/9.2.1/bits/char_traits.h **** 	return __builtin_memcmp(__s1, __s2, __n);
 326:/usr/include/newlib/c++/9.2.1/bits/char_traits.h ****       }
 327:/usr/include/newlib/c++/9.2.1/bits/char_traits.h **** 
 328:/usr/include/newlib/c++/9.2.1/bits/char_traits.h ****       static _GLIBCXX17_CONSTEXPR size_t
 329:/usr/include/newlib/c++/9.2.1/bits/char_traits.h ****       length(const char_type* __s)
 330:/usr/include/newlib/c++/9.2.1/bits/char_traits.h ****       {
 331:/usr/include/newlib/c++/9.2.1/bits/char_traits.h **** #if __cplusplus >= 201703L
 332:/usr/include/newlib/c++/9.2.1/bits/char_traits.h **** 	if (__constant_string_p(__s))
 333:/usr/include/newlib/c++/9.2.1/bits/char_traits.h **** 	  return __gnu_cxx::char_traits<char_type>::length(__s);
 334:/usr/include/newlib/c++/9.2.1/bits/char_traits.h **** #endif
 335:/usr/include/newlib/c++/9.2.1/bits/char_traits.h **** 	return __builtin_strlen(__s);
 336:/usr/include/newlib/c++/9.2.1/bits/char_traits.h ****       }
 337:/usr/include/newlib/c++/9.2.1/bits/char_traits.h **** 
 338:/usr/include/newlib/c++/9.2.1/bits/char_traits.h ****       static _GLIBCXX17_CONSTEXPR const char_type*
 339:/usr/include/newlib/c++/9.2.1/bits/char_traits.h ****       find(const char_type* __s, size_t __n, const char_type& __a)
 340:/usr/include/newlib/c++/9.2.1/bits/char_traits.h ****       {
 341:/usr/include/newlib/c++/9.2.1/bits/char_traits.h **** 	if (__n == 0)
 342:/usr/include/newlib/c++/9.2.1/bits/char_traits.h **** 	  return 0;
 343:/usr/include/newlib/c++/9.2.1/bits/char_traits.h **** #if __cplusplus >= 201703L
 344:/usr/include/newlib/c++/9.2.1/bits/char_traits.h **** 	if (__builtin_constant_p(__n)
 345:/usr/include/newlib/c++/9.2.1/bits/char_traits.h **** 	    && __builtin_constant_p(__a)
 346:/usr/include/newlib/c++/9.2.1/bits/char_traits.h **** 	    && __constant_char_array_p(__s, __n))
 347:/usr/include/newlib/c++/9.2.1/bits/char_traits.h **** 	  return __gnu_cxx::char_traits<char_type>::find(__s, __n, __a);
 348:/usr/include/newlib/c++/9.2.1/bits/char_traits.h **** #endif
 349:/usr/include/newlib/c++/9.2.1/bits/char_traits.h **** 	return static_cast<const char_type*>(__builtin_memchr(__s, __a, __n));
 350:/usr/include/newlib/c++/9.2.1/bits/char_traits.h ****       }
 351:/usr/include/newlib/c++/9.2.1/bits/char_traits.h **** 
 352:/usr/include/newlib/c++/9.2.1/bits/char_traits.h ****       static char_type*
 353:/usr/include/newlib/c++/9.2.1/bits/char_traits.h ****       move(char_type* __s1, const char_type* __s2, size_t __n)
 354:/usr/include/newlib/c++/9.2.1/bits/char_traits.h ****       {
 355:/usr/include/newlib/c++/9.2.1/bits/char_traits.h **** 	if (__n == 0)
 356:/usr/include/newlib/c++/9.2.1/bits/char_traits.h **** 	  return __s1;
 357:/usr/include/newlib/c++/9.2.1/bits/char_traits.h **** 	return static_cast<char_type*>(__builtin_memmove(__s1, __s2, __n));
 358:/usr/include/newlib/c++/9.2.1/bits/char_traits.h ****       }
 359:/usr/include/newlib/c++/9.2.1/bits/char_traits.h **** 
 360:/usr/include/newlib/c++/9.2.1/bits/char_traits.h ****       static char_type*
 361:/usr/include/newlib/c++/9.2.1/bits/char_traits.h ****       copy(char_type* __s1, const char_type* __s2, size_t __n)
 362:/usr/include/newlib/c++/9.2.1/bits/char_traits.h ****       {
 363:/usr/include/newlib/c++/9.2.1/bits/char_traits.h **** 	if (__n == 0)
 364:/usr/include/newlib/c++/9.2.1/bits/char_traits.h **** 	  return __s1;
 365:/usr/include/newlib/c++/9.2.1/bits/char_traits.h **** 	return static_cast<char_type*>(__builtin_memcpy(__s1, __s2, __n));
 6161              		.loc 20 365 49 view .LVU1468
 6162 0060 3546     		mov	r5, r6
 6163              	.LBE1708:
 6164              	.LBE1707:
 6165              	.LBE1706:
 6166              	.LBE1705:
 6167              	.LBE1704:
 6168              	.LBE1703:
 6169              	.LBE1702:
 6170              	.LBE1701:
 6171              	.LBE1700:
 6172              	.LBE1699:
 6173              	.LBE1698:
 6174              	.LBE1761:
ARM GAS  /tmp/ccZhYDze.s 			page 178


 6175              	.LBE1774:
  65:ex_verb.cpp   **** 
 6176              		.loc 15 65 17 view .LVU1469
 6177 0062 FFF7FEFF 		bl	_ZN5daisy9Parameter4InitENS_13AnalogControlEffNS0_5CurveE
 6178              	.LVL465:
 6179              	.LBB1775:
 6180              	.LBI1775:
 6181              		.loc 3 23 5 is_stmt 1 view .LVU1470
 6182              		.loc 3 23 5 is_stmt 0 view .LVU1471
 6183              	.LBE1775:
  68:ex_verb.cpp   ****     char*       cstr = &str[0];
 6184              		.loc 15 68 5 is_stmt 1 view .LVU1472
 6185              	.LBB1776:
 6186              	.LBI1776:
 6187              		.file 21 "/usr/include/newlib/c++/9.2.1/bits/allocator.h"
   1:/usr/include/newlib/c++/9.2.1/bits/allocator.h **** // Allocators -*- C++ -*-
   2:/usr/include/newlib/c++/9.2.1/bits/allocator.h **** 
   3:/usr/include/newlib/c++/9.2.1/bits/allocator.h **** // Copyright (C) 2001-2019 Free Software Foundation, Inc.
   4:/usr/include/newlib/c++/9.2.1/bits/allocator.h **** //
   5:/usr/include/newlib/c++/9.2.1/bits/allocator.h **** // This file is part of the GNU ISO C++ Library.  This library is free
   6:/usr/include/newlib/c++/9.2.1/bits/allocator.h **** // software; you can redistribute it and/or modify it under the
   7:/usr/include/newlib/c++/9.2.1/bits/allocator.h **** // terms of the GNU General Public License as published by the
   8:/usr/include/newlib/c++/9.2.1/bits/allocator.h **** // Free Software Foundation; either version 3, or (at your option)
   9:/usr/include/newlib/c++/9.2.1/bits/allocator.h **** // any later version.
  10:/usr/include/newlib/c++/9.2.1/bits/allocator.h **** 
  11:/usr/include/newlib/c++/9.2.1/bits/allocator.h **** // This library is distributed in the hope that it will be useful,
  12:/usr/include/newlib/c++/9.2.1/bits/allocator.h **** // but WITHOUT ANY WARRANTY; without even the implied warranty of
  13:/usr/include/newlib/c++/9.2.1/bits/allocator.h **** // MERCHANTABILITY or FITNESS FOR A PARTICULAR PURPOSE.  See the
  14:/usr/include/newlib/c++/9.2.1/bits/allocator.h **** // GNU General Public License for more details.
  15:/usr/include/newlib/c++/9.2.1/bits/allocator.h **** 
  16:/usr/include/newlib/c++/9.2.1/bits/allocator.h **** // Under Section 7 of GPL version 3, you are granted additional
  17:/usr/include/newlib/c++/9.2.1/bits/allocator.h **** // permissions described in the GCC Runtime Library Exception, version
  18:/usr/include/newlib/c++/9.2.1/bits/allocator.h **** // 3.1, as published by the Free Software Foundation.
  19:/usr/include/newlib/c++/9.2.1/bits/allocator.h **** 
  20:/usr/include/newlib/c++/9.2.1/bits/allocator.h **** // You should have received a copy of the GNU General Public License and
  21:/usr/include/newlib/c++/9.2.1/bits/allocator.h **** // a copy of the GCC Runtime Library Exception along with this program;
  22:/usr/include/newlib/c++/9.2.1/bits/allocator.h **** // see the files COPYING3 and COPYING.RUNTIME respectively.  If not, see
  23:/usr/include/newlib/c++/9.2.1/bits/allocator.h **** // <http://www.gnu.org/licenses/>.
  24:/usr/include/newlib/c++/9.2.1/bits/allocator.h **** 
  25:/usr/include/newlib/c++/9.2.1/bits/allocator.h **** /*
  26:/usr/include/newlib/c++/9.2.1/bits/allocator.h ****  * Copyright (c) 1996-1997
  27:/usr/include/newlib/c++/9.2.1/bits/allocator.h ****  * Silicon Graphics Computer Systems, Inc.
  28:/usr/include/newlib/c++/9.2.1/bits/allocator.h ****  *
  29:/usr/include/newlib/c++/9.2.1/bits/allocator.h ****  * Permission to use, copy, modify, distribute and sell this software
  30:/usr/include/newlib/c++/9.2.1/bits/allocator.h ****  * and its documentation for any purpose is hereby granted without fee,
  31:/usr/include/newlib/c++/9.2.1/bits/allocator.h ****  * provided that the above copyright notice appear in all copies and
  32:/usr/include/newlib/c++/9.2.1/bits/allocator.h ****  * that both that copyright notice and this permission notice appear
  33:/usr/include/newlib/c++/9.2.1/bits/allocator.h ****  * in supporting documentation.  Silicon Graphics makes no
  34:/usr/include/newlib/c++/9.2.1/bits/allocator.h ****  * representations about the suitability of this software for any
  35:/usr/include/newlib/c++/9.2.1/bits/allocator.h ****  * purpose.  It is provided "as is" without express or implied warranty.
  36:/usr/include/newlib/c++/9.2.1/bits/allocator.h ****  */
  37:/usr/include/newlib/c++/9.2.1/bits/allocator.h **** 
  38:/usr/include/newlib/c++/9.2.1/bits/allocator.h **** /** @file bits/allocator.h
  39:/usr/include/newlib/c++/9.2.1/bits/allocator.h ****  *  This is an internal header file, included by other library headers.
  40:/usr/include/newlib/c++/9.2.1/bits/allocator.h ****  *  Do not attempt to use it directly. @headername{memory}
  41:/usr/include/newlib/c++/9.2.1/bits/allocator.h ****  */
  42:/usr/include/newlib/c++/9.2.1/bits/allocator.h **** 
ARM GAS  /tmp/ccZhYDze.s 			page 179


  43:/usr/include/newlib/c++/9.2.1/bits/allocator.h **** #ifndef _ALLOCATOR_H
  44:/usr/include/newlib/c++/9.2.1/bits/allocator.h **** #define _ALLOCATOR_H 1
  45:/usr/include/newlib/c++/9.2.1/bits/allocator.h **** 
  46:/usr/include/newlib/c++/9.2.1/bits/allocator.h **** #include <bits/c++allocator.h> // Define the base class to std::allocator.
  47:/usr/include/newlib/c++/9.2.1/bits/allocator.h **** #include <bits/memoryfwd.h>
  48:/usr/include/newlib/c++/9.2.1/bits/allocator.h **** #if __cplusplus >= 201103L
  49:/usr/include/newlib/c++/9.2.1/bits/allocator.h **** #include <type_traits>
  50:/usr/include/newlib/c++/9.2.1/bits/allocator.h **** #endif
  51:/usr/include/newlib/c++/9.2.1/bits/allocator.h **** 
  52:/usr/include/newlib/c++/9.2.1/bits/allocator.h **** #define __cpp_lib_incomplete_container_elements 201505
  53:/usr/include/newlib/c++/9.2.1/bits/allocator.h **** #if __cplusplus >= 201103L
  54:/usr/include/newlib/c++/9.2.1/bits/allocator.h **** # define __cpp_lib_allocator_is_always_equal 201411
  55:/usr/include/newlib/c++/9.2.1/bits/allocator.h **** #endif
  56:/usr/include/newlib/c++/9.2.1/bits/allocator.h **** 
  57:/usr/include/newlib/c++/9.2.1/bits/allocator.h **** namespace std _GLIBCXX_VISIBILITY(default)
  58:/usr/include/newlib/c++/9.2.1/bits/allocator.h **** {
  59:/usr/include/newlib/c++/9.2.1/bits/allocator.h **** _GLIBCXX_BEGIN_NAMESPACE_VERSION
  60:/usr/include/newlib/c++/9.2.1/bits/allocator.h **** 
  61:/usr/include/newlib/c++/9.2.1/bits/allocator.h ****   /**
  62:/usr/include/newlib/c++/9.2.1/bits/allocator.h ****    *  @addtogroup allocators
  63:/usr/include/newlib/c++/9.2.1/bits/allocator.h ****    *  @{
  64:/usr/include/newlib/c++/9.2.1/bits/allocator.h ****    */
  65:/usr/include/newlib/c++/9.2.1/bits/allocator.h **** 
  66:/usr/include/newlib/c++/9.2.1/bits/allocator.h ****   /// allocator<void> specialization.
  67:/usr/include/newlib/c++/9.2.1/bits/allocator.h ****   template<>
  68:/usr/include/newlib/c++/9.2.1/bits/allocator.h ****     class allocator<void>
  69:/usr/include/newlib/c++/9.2.1/bits/allocator.h ****     {
  70:/usr/include/newlib/c++/9.2.1/bits/allocator.h ****     public:
  71:/usr/include/newlib/c++/9.2.1/bits/allocator.h ****       typedef size_t      size_type;
  72:/usr/include/newlib/c++/9.2.1/bits/allocator.h ****       typedef ptrdiff_t   difference_type;
  73:/usr/include/newlib/c++/9.2.1/bits/allocator.h ****       typedef void*       pointer;
  74:/usr/include/newlib/c++/9.2.1/bits/allocator.h ****       typedef const void* const_pointer;
  75:/usr/include/newlib/c++/9.2.1/bits/allocator.h ****       typedef void        value_type;
  76:/usr/include/newlib/c++/9.2.1/bits/allocator.h **** 
  77:/usr/include/newlib/c++/9.2.1/bits/allocator.h ****       template<typename _Tp1>
  78:/usr/include/newlib/c++/9.2.1/bits/allocator.h **** 	struct rebind
  79:/usr/include/newlib/c++/9.2.1/bits/allocator.h **** 	{ typedef allocator<_Tp1> other; };
  80:/usr/include/newlib/c++/9.2.1/bits/allocator.h **** 
  81:/usr/include/newlib/c++/9.2.1/bits/allocator.h **** #if __cplusplus >= 201103L
  82:/usr/include/newlib/c++/9.2.1/bits/allocator.h ****       // _GLIBCXX_RESOLVE_LIB_DEFECTS
  83:/usr/include/newlib/c++/9.2.1/bits/allocator.h ****       // 2103. std::allocator propagate_on_container_move_assignment
  84:/usr/include/newlib/c++/9.2.1/bits/allocator.h ****       typedef true_type propagate_on_container_move_assignment;
  85:/usr/include/newlib/c++/9.2.1/bits/allocator.h **** 
  86:/usr/include/newlib/c++/9.2.1/bits/allocator.h ****       typedef true_type is_always_equal;
  87:/usr/include/newlib/c++/9.2.1/bits/allocator.h **** 
  88:/usr/include/newlib/c++/9.2.1/bits/allocator.h ****       template<typename _Up, typename... _Args>
  89:/usr/include/newlib/c++/9.2.1/bits/allocator.h **** 	void
  90:/usr/include/newlib/c++/9.2.1/bits/allocator.h **** 	construct(_Up* __p, _Args&&... __args)
  91:/usr/include/newlib/c++/9.2.1/bits/allocator.h **** 	noexcept(noexcept(::new((void *)__p)
  92:/usr/include/newlib/c++/9.2.1/bits/allocator.h **** 			    _Up(std::forward<_Args>(__args)...)))
  93:/usr/include/newlib/c++/9.2.1/bits/allocator.h **** 	{ ::new((void *)__p) _Up(std::forward<_Args>(__args)...); }
  94:/usr/include/newlib/c++/9.2.1/bits/allocator.h **** 
  95:/usr/include/newlib/c++/9.2.1/bits/allocator.h ****       template<typename _Up>
  96:/usr/include/newlib/c++/9.2.1/bits/allocator.h **** 	void
  97:/usr/include/newlib/c++/9.2.1/bits/allocator.h **** 	destroy(_Up* __p)
  98:/usr/include/newlib/c++/9.2.1/bits/allocator.h **** 	noexcept(noexcept(__p->~_Up()))
  99:/usr/include/newlib/c++/9.2.1/bits/allocator.h **** 	{ __p->~_Up(); }
ARM GAS  /tmp/ccZhYDze.s 			page 180


 100:/usr/include/newlib/c++/9.2.1/bits/allocator.h **** #endif
 101:/usr/include/newlib/c++/9.2.1/bits/allocator.h ****     };
 102:/usr/include/newlib/c++/9.2.1/bits/allocator.h **** 
 103:/usr/include/newlib/c++/9.2.1/bits/allocator.h ****   /**
 104:/usr/include/newlib/c++/9.2.1/bits/allocator.h ****    * @brief  The @a standard allocator, as per [20.4].
 105:/usr/include/newlib/c++/9.2.1/bits/allocator.h ****    *
 106:/usr/include/newlib/c++/9.2.1/bits/allocator.h ****    *  See https://gcc.gnu.org/onlinedocs/libstdc++/manual/memory.html#std.util.memory.allocator
 107:/usr/include/newlib/c++/9.2.1/bits/allocator.h ****    *  for further details.
 108:/usr/include/newlib/c++/9.2.1/bits/allocator.h ****    *
 109:/usr/include/newlib/c++/9.2.1/bits/allocator.h ****    *  @tparam  _Tp  Type of allocated object.
 110:/usr/include/newlib/c++/9.2.1/bits/allocator.h ****    */
 111:/usr/include/newlib/c++/9.2.1/bits/allocator.h ****   template<typename _Tp>
 112:/usr/include/newlib/c++/9.2.1/bits/allocator.h ****     class allocator : public __allocator_base<_Tp>
 113:/usr/include/newlib/c++/9.2.1/bits/allocator.h ****     {
 114:/usr/include/newlib/c++/9.2.1/bits/allocator.h ****    public:
 115:/usr/include/newlib/c++/9.2.1/bits/allocator.h ****       typedef size_t     size_type;
 116:/usr/include/newlib/c++/9.2.1/bits/allocator.h ****       typedef ptrdiff_t  difference_type;
 117:/usr/include/newlib/c++/9.2.1/bits/allocator.h ****       typedef _Tp*       pointer;
 118:/usr/include/newlib/c++/9.2.1/bits/allocator.h ****       typedef const _Tp* const_pointer;
 119:/usr/include/newlib/c++/9.2.1/bits/allocator.h ****       typedef _Tp&       reference;
 120:/usr/include/newlib/c++/9.2.1/bits/allocator.h ****       typedef const _Tp& const_reference;
 121:/usr/include/newlib/c++/9.2.1/bits/allocator.h ****       typedef _Tp        value_type;
 122:/usr/include/newlib/c++/9.2.1/bits/allocator.h **** 
 123:/usr/include/newlib/c++/9.2.1/bits/allocator.h ****       template<typename _Tp1>
 124:/usr/include/newlib/c++/9.2.1/bits/allocator.h **** 	struct rebind
 125:/usr/include/newlib/c++/9.2.1/bits/allocator.h **** 	{ typedef allocator<_Tp1> other; };
 126:/usr/include/newlib/c++/9.2.1/bits/allocator.h **** 
 127:/usr/include/newlib/c++/9.2.1/bits/allocator.h **** #if __cplusplus >= 201103L
 128:/usr/include/newlib/c++/9.2.1/bits/allocator.h ****       // _GLIBCXX_RESOLVE_LIB_DEFECTS
 129:/usr/include/newlib/c++/9.2.1/bits/allocator.h ****       // 2103. std::allocator propagate_on_container_move_assignment
 130:/usr/include/newlib/c++/9.2.1/bits/allocator.h ****       typedef true_type propagate_on_container_move_assignment;
 131:/usr/include/newlib/c++/9.2.1/bits/allocator.h **** 
 132:/usr/include/newlib/c++/9.2.1/bits/allocator.h ****       typedef true_type is_always_equal;
 133:/usr/include/newlib/c++/9.2.1/bits/allocator.h **** #endif
 134:/usr/include/newlib/c++/9.2.1/bits/allocator.h **** 
 135:/usr/include/newlib/c++/9.2.1/bits/allocator.h ****       // _GLIBCXX_RESOLVE_LIB_DEFECTS
 136:/usr/include/newlib/c++/9.2.1/bits/allocator.h ****       // 3035. std::allocator's constructors should be constexpr
 137:/usr/include/newlib/c++/9.2.1/bits/allocator.h ****       _GLIBCXX20_CONSTEXPR
 138:/usr/include/newlib/c++/9.2.1/bits/allocator.h ****       allocator() _GLIBCXX_NOTHROW { }
 6188              		.loc 21 138 7 view .LVU1473
 6189              	.LBB1777:
 6190              	.LBI1777:
 6191              		.file 22 "/usr/include/newlib/c++/9.2.1/ext/new_allocator.h"
   1:/usr/include/newlib/c++/9.2.1/ext/new_allocator.h **** // Allocator that wraps operator new -*- C++ -*-
   2:/usr/include/newlib/c++/9.2.1/ext/new_allocator.h **** 
   3:/usr/include/newlib/c++/9.2.1/ext/new_allocator.h **** // Copyright (C) 2001-2019 Free Software Foundation, Inc.
   4:/usr/include/newlib/c++/9.2.1/ext/new_allocator.h **** //
   5:/usr/include/newlib/c++/9.2.1/ext/new_allocator.h **** // This file is part of the GNU ISO C++ Library.  This library is free
   6:/usr/include/newlib/c++/9.2.1/ext/new_allocator.h **** // software; you can redistribute it and/or modify it under the
   7:/usr/include/newlib/c++/9.2.1/ext/new_allocator.h **** // terms of the GNU General Public License as published by the
   8:/usr/include/newlib/c++/9.2.1/ext/new_allocator.h **** // Free Software Foundation; either version 3, or (at your option)
   9:/usr/include/newlib/c++/9.2.1/ext/new_allocator.h **** // any later version.
  10:/usr/include/newlib/c++/9.2.1/ext/new_allocator.h **** 
  11:/usr/include/newlib/c++/9.2.1/ext/new_allocator.h **** // This library is distributed in the hope that it will be useful,
  12:/usr/include/newlib/c++/9.2.1/ext/new_allocator.h **** // but WITHOUT ANY WARRANTY; without even the implied warranty of
  13:/usr/include/newlib/c++/9.2.1/ext/new_allocator.h **** // MERCHANTABILITY or FITNESS FOR A PARTICULAR PURPOSE.  See the
  14:/usr/include/newlib/c++/9.2.1/ext/new_allocator.h **** // GNU General Public License for more details.
ARM GAS  /tmp/ccZhYDze.s 			page 181


  15:/usr/include/newlib/c++/9.2.1/ext/new_allocator.h **** 
  16:/usr/include/newlib/c++/9.2.1/ext/new_allocator.h **** // Under Section 7 of GPL version 3, you are granted additional
  17:/usr/include/newlib/c++/9.2.1/ext/new_allocator.h **** // permissions described in the GCC Runtime Library Exception, version
  18:/usr/include/newlib/c++/9.2.1/ext/new_allocator.h **** // 3.1, as published by the Free Software Foundation.
  19:/usr/include/newlib/c++/9.2.1/ext/new_allocator.h **** 
  20:/usr/include/newlib/c++/9.2.1/ext/new_allocator.h **** // You should have received a copy of the GNU General Public License and
  21:/usr/include/newlib/c++/9.2.1/ext/new_allocator.h **** // a copy of the GCC Runtime Library Exception along with this program;
  22:/usr/include/newlib/c++/9.2.1/ext/new_allocator.h **** // see the files COPYING3 and COPYING.RUNTIME respectively.  If not, see
  23:/usr/include/newlib/c++/9.2.1/ext/new_allocator.h **** // <http://www.gnu.org/licenses/>.
  24:/usr/include/newlib/c++/9.2.1/ext/new_allocator.h **** 
  25:/usr/include/newlib/c++/9.2.1/ext/new_allocator.h **** /** @file ext/new_allocator.h
  26:/usr/include/newlib/c++/9.2.1/ext/new_allocator.h ****  *  This file is a GNU extension to the Standard C++ Library.
  27:/usr/include/newlib/c++/9.2.1/ext/new_allocator.h ****  */
  28:/usr/include/newlib/c++/9.2.1/ext/new_allocator.h **** 
  29:/usr/include/newlib/c++/9.2.1/ext/new_allocator.h **** #ifndef _NEW_ALLOCATOR_H
  30:/usr/include/newlib/c++/9.2.1/ext/new_allocator.h **** #define _NEW_ALLOCATOR_H 1
  31:/usr/include/newlib/c++/9.2.1/ext/new_allocator.h **** 
  32:/usr/include/newlib/c++/9.2.1/ext/new_allocator.h **** #include <bits/c++config.h>
  33:/usr/include/newlib/c++/9.2.1/ext/new_allocator.h **** #include <new>
  34:/usr/include/newlib/c++/9.2.1/ext/new_allocator.h **** #include <bits/functexcept.h>
  35:/usr/include/newlib/c++/9.2.1/ext/new_allocator.h **** #include <bits/move.h>
  36:/usr/include/newlib/c++/9.2.1/ext/new_allocator.h **** #if __cplusplus >= 201103L
  37:/usr/include/newlib/c++/9.2.1/ext/new_allocator.h **** #include <type_traits>
  38:/usr/include/newlib/c++/9.2.1/ext/new_allocator.h **** #endif
  39:/usr/include/newlib/c++/9.2.1/ext/new_allocator.h **** 
  40:/usr/include/newlib/c++/9.2.1/ext/new_allocator.h **** namespace __gnu_cxx _GLIBCXX_VISIBILITY(default)
  41:/usr/include/newlib/c++/9.2.1/ext/new_allocator.h **** {
  42:/usr/include/newlib/c++/9.2.1/ext/new_allocator.h **** _GLIBCXX_BEGIN_NAMESPACE_VERSION
  43:/usr/include/newlib/c++/9.2.1/ext/new_allocator.h **** 
  44:/usr/include/newlib/c++/9.2.1/ext/new_allocator.h ****   using std::size_t;
  45:/usr/include/newlib/c++/9.2.1/ext/new_allocator.h ****   using std::ptrdiff_t;
  46:/usr/include/newlib/c++/9.2.1/ext/new_allocator.h **** 
  47:/usr/include/newlib/c++/9.2.1/ext/new_allocator.h ****   /**
  48:/usr/include/newlib/c++/9.2.1/ext/new_allocator.h ****    *  @brief  An allocator that uses global new, as per [20.4].
  49:/usr/include/newlib/c++/9.2.1/ext/new_allocator.h ****    *  @ingroup allocators
  50:/usr/include/newlib/c++/9.2.1/ext/new_allocator.h ****    *
  51:/usr/include/newlib/c++/9.2.1/ext/new_allocator.h ****    *  This is precisely the allocator defined in the C++ Standard.
  52:/usr/include/newlib/c++/9.2.1/ext/new_allocator.h ****    *    - all allocation calls operator new
  53:/usr/include/newlib/c++/9.2.1/ext/new_allocator.h ****    *    - all deallocation calls operator delete
  54:/usr/include/newlib/c++/9.2.1/ext/new_allocator.h ****    *
  55:/usr/include/newlib/c++/9.2.1/ext/new_allocator.h ****    *  @tparam  _Tp  Type of allocated object.
  56:/usr/include/newlib/c++/9.2.1/ext/new_allocator.h ****    */
  57:/usr/include/newlib/c++/9.2.1/ext/new_allocator.h ****   template<typename _Tp>
  58:/usr/include/newlib/c++/9.2.1/ext/new_allocator.h ****     class new_allocator
  59:/usr/include/newlib/c++/9.2.1/ext/new_allocator.h ****     {
  60:/usr/include/newlib/c++/9.2.1/ext/new_allocator.h ****     public:
  61:/usr/include/newlib/c++/9.2.1/ext/new_allocator.h ****       typedef size_t     size_type;
  62:/usr/include/newlib/c++/9.2.1/ext/new_allocator.h ****       typedef ptrdiff_t  difference_type;
  63:/usr/include/newlib/c++/9.2.1/ext/new_allocator.h ****       typedef _Tp*       pointer;
  64:/usr/include/newlib/c++/9.2.1/ext/new_allocator.h ****       typedef const _Tp* const_pointer;
  65:/usr/include/newlib/c++/9.2.1/ext/new_allocator.h ****       typedef _Tp&       reference;
  66:/usr/include/newlib/c++/9.2.1/ext/new_allocator.h ****       typedef const _Tp& const_reference;
  67:/usr/include/newlib/c++/9.2.1/ext/new_allocator.h ****       typedef _Tp        value_type;
  68:/usr/include/newlib/c++/9.2.1/ext/new_allocator.h **** 
  69:/usr/include/newlib/c++/9.2.1/ext/new_allocator.h ****       template<typename _Tp1>
  70:/usr/include/newlib/c++/9.2.1/ext/new_allocator.h **** 	struct rebind
  71:/usr/include/newlib/c++/9.2.1/ext/new_allocator.h **** 	{ typedef new_allocator<_Tp1> other; };
ARM GAS  /tmp/ccZhYDze.s 			page 182


  72:/usr/include/newlib/c++/9.2.1/ext/new_allocator.h **** 
  73:/usr/include/newlib/c++/9.2.1/ext/new_allocator.h **** #if __cplusplus >= 201103L
  74:/usr/include/newlib/c++/9.2.1/ext/new_allocator.h ****       // _GLIBCXX_RESOLVE_LIB_DEFECTS
  75:/usr/include/newlib/c++/9.2.1/ext/new_allocator.h ****       // 2103. propagate_on_container_move_assignment
  76:/usr/include/newlib/c++/9.2.1/ext/new_allocator.h ****       typedef std::true_type propagate_on_container_move_assignment;
  77:/usr/include/newlib/c++/9.2.1/ext/new_allocator.h **** #endif
  78:/usr/include/newlib/c++/9.2.1/ext/new_allocator.h **** 
  79:/usr/include/newlib/c++/9.2.1/ext/new_allocator.h ****       _GLIBCXX20_CONSTEXPR
  80:/usr/include/newlib/c++/9.2.1/ext/new_allocator.h ****       new_allocator() _GLIBCXX_USE_NOEXCEPT { }
 6192              		.loc 22 80 7 view .LVU1474
 6193              		.loc 22 80 7 is_stmt 0 view .LVU1475
 6194              	.LBE1777:
 6195              	.LBE1776:
 6196              	.LBB1778:
 6197              	.LBI1687:
 158:/usr/include/newlib/c++/9.2.1/bits/basic_string.h **** 
 159:/usr/include/newlib/c++/9.2.1/bits/basic_string.h **** 	_Alloc_hider(pointer __dat, _Alloc&& __a = _Alloc())
 160:/usr/include/newlib/c++/9.2.1/bits/basic_string.h **** 	: allocator_type(std::move(__a)), _M_p(__dat) { }
 161:/usr/include/newlib/c++/9.2.1/bits/basic_string.h **** #endif
 162:/usr/include/newlib/c++/9.2.1/bits/basic_string.h **** 
 163:/usr/include/newlib/c++/9.2.1/bits/basic_string.h **** 	pointer _M_p; // The actual data.
 164:/usr/include/newlib/c++/9.2.1/bits/basic_string.h ****       };
 165:/usr/include/newlib/c++/9.2.1/bits/basic_string.h **** 
 166:/usr/include/newlib/c++/9.2.1/bits/basic_string.h ****       _Alloc_hider	_M_dataplus;
 167:/usr/include/newlib/c++/9.2.1/bits/basic_string.h ****       size_type		_M_string_length;
 168:/usr/include/newlib/c++/9.2.1/bits/basic_string.h **** 
 169:/usr/include/newlib/c++/9.2.1/bits/basic_string.h ****       enum { _S_local_capacity = 15 / sizeof(_CharT) };
 170:/usr/include/newlib/c++/9.2.1/bits/basic_string.h **** 
 171:/usr/include/newlib/c++/9.2.1/bits/basic_string.h ****       union
 172:/usr/include/newlib/c++/9.2.1/bits/basic_string.h ****       {
 173:/usr/include/newlib/c++/9.2.1/bits/basic_string.h **** 	_CharT           _M_local_buf[_S_local_capacity + 1];
 174:/usr/include/newlib/c++/9.2.1/bits/basic_string.h **** 	size_type        _M_allocated_capacity;
 175:/usr/include/newlib/c++/9.2.1/bits/basic_string.h ****       };
 176:/usr/include/newlib/c++/9.2.1/bits/basic_string.h **** 
 177:/usr/include/newlib/c++/9.2.1/bits/basic_string.h ****       void
 178:/usr/include/newlib/c++/9.2.1/bits/basic_string.h ****       _M_data(pointer __p)
 179:/usr/include/newlib/c++/9.2.1/bits/basic_string.h ****       { _M_dataplus._M_p = __p; }
 180:/usr/include/newlib/c++/9.2.1/bits/basic_string.h **** 
 181:/usr/include/newlib/c++/9.2.1/bits/basic_string.h ****       void
 182:/usr/include/newlib/c++/9.2.1/bits/basic_string.h ****       _M_length(size_type __length)
 183:/usr/include/newlib/c++/9.2.1/bits/basic_string.h ****       { _M_string_length = __length; }
 184:/usr/include/newlib/c++/9.2.1/bits/basic_string.h **** 
 185:/usr/include/newlib/c++/9.2.1/bits/basic_string.h ****       pointer
 186:/usr/include/newlib/c++/9.2.1/bits/basic_string.h ****       _M_data() const
 187:/usr/include/newlib/c++/9.2.1/bits/basic_string.h ****       { return _M_dataplus._M_p; }
 188:/usr/include/newlib/c++/9.2.1/bits/basic_string.h **** 
 189:/usr/include/newlib/c++/9.2.1/bits/basic_string.h ****       pointer
 190:/usr/include/newlib/c++/9.2.1/bits/basic_string.h ****       _M_local_data()
 191:/usr/include/newlib/c++/9.2.1/bits/basic_string.h ****       {
 192:/usr/include/newlib/c++/9.2.1/bits/basic_string.h **** #if __cplusplus >= 201103L
 193:/usr/include/newlib/c++/9.2.1/bits/basic_string.h **** 	return std::pointer_traits<pointer>::pointer_to(*_M_local_buf);
 194:/usr/include/newlib/c++/9.2.1/bits/basic_string.h **** #else
 195:/usr/include/newlib/c++/9.2.1/bits/basic_string.h **** 	return pointer(_M_local_buf);
 196:/usr/include/newlib/c++/9.2.1/bits/basic_string.h **** #endif
 197:/usr/include/newlib/c++/9.2.1/bits/basic_string.h ****       }
 198:/usr/include/newlib/c++/9.2.1/bits/basic_string.h **** 
 199:/usr/include/newlib/c++/9.2.1/bits/basic_string.h ****       const_pointer
ARM GAS  /tmp/ccZhYDze.s 			page 183


 200:/usr/include/newlib/c++/9.2.1/bits/basic_string.h ****       _M_local_data() const
 201:/usr/include/newlib/c++/9.2.1/bits/basic_string.h ****       {
 202:/usr/include/newlib/c++/9.2.1/bits/basic_string.h **** #if __cplusplus >= 201103L
 203:/usr/include/newlib/c++/9.2.1/bits/basic_string.h **** 	return std::pointer_traits<const_pointer>::pointer_to(*_M_local_buf);
 204:/usr/include/newlib/c++/9.2.1/bits/basic_string.h **** #else
 205:/usr/include/newlib/c++/9.2.1/bits/basic_string.h **** 	return const_pointer(_M_local_buf);
 206:/usr/include/newlib/c++/9.2.1/bits/basic_string.h **** #endif
 207:/usr/include/newlib/c++/9.2.1/bits/basic_string.h ****       }
 208:/usr/include/newlib/c++/9.2.1/bits/basic_string.h **** 
 209:/usr/include/newlib/c++/9.2.1/bits/basic_string.h ****       void
 210:/usr/include/newlib/c++/9.2.1/bits/basic_string.h ****       _M_capacity(size_type __capacity)
 211:/usr/include/newlib/c++/9.2.1/bits/basic_string.h ****       { _M_allocated_capacity = __capacity; }
 212:/usr/include/newlib/c++/9.2.1/bits/basic_string.h **** 
 213:/usr/include/newlib/c++/9.2.1/bits/basic_string.h ****       void
 214:/usr/include/newlib/c++/9.2.1/bits/basic_string.h ****       _M_set_length(size_type __n)
 215:/usr/include/newlib/c++/9.2.1/bits/basic_string.h ****       {
 216:/usr/include/newlib/c++/9.2.1/bits/basic_string.h **** 	_M_length(__n);
 217:/usr/include/newlib/c++/9.2.1/bits/basic_string.h **** 	traits_type::assign(_M_data()[__n], _CharT());
 218:/usr/include/newlib/c++/9.2.1/bits/basic_string.h ****       }
 219:/usr/include/newlib/c++/9.2.1/bits/basic_string.h **** 
 220:/usr/include/newlib/c++/9.2.1/bits/basic_string.h ****       bool
 221:/usr/include/newlib/c++/9.2.1/bits/basic_string.h ****       _M_is_local() const
 222:/usr/include/newlib/c++/9.2.1/bits/basic_string.h ****       { return _M_data() == _M_local_data(); }
 223:/usr/include/newlib/c++/9.2.1/bits/basic_string.h **** 
 224:/usr/include/newlib/c++/9.2.1/bits/basic_string.h ****       // Create & Destroy
 225:/usr/include/newlib/c++/9.2.1/bits/basic_string.h ****       pointer
 226:/usr/include/newlib/c++/9.2.1/bits/basic_string.h ****       _M_create(size_type&, size_type);
 227:/usr/include/newlib/c++/9.2.1/bits/basic_string.h **** 
 228:/usr/include/newlib/c++/9.2.1/bits/basic_string.h ****       void
 229:/usr/include/newlib/c++/9.2.1/bits/basic_string.h ****       _M_dispose()
 230:/usr/include/newlib/c++/9.2.1/bits/basic_string.h ****       {
 231:/usr/include/newlib/c++/9.2.1/bits/basic_string.h **** 	if (!_M_is_local())
 232:/usr/include/newlib/c++/9.2.1/bits/basic_string.h **** 	  _M_destroy(_M_allocated_capacity);
 233:/usr/include/newlib/c++/9.2.1/bits/basic_string.h ****       }
 234:/usr/include/newlib/c++/9.2.1/bits/basic_string.h **** 
 235:/usr/include/newlib/c++/9.2.1/bits/basic_string.h ****       void
 236:/usr/include/newlib/c++/9.2.1/bits/basic_string.h ****       _M_destroy(size_type __size) throw()
 237:/usr/include/newlib/c++/9.2.1/bits/basic_string.h ****       { _Alloc_traits::deallocate(_M_get_allocator(), _M_data(), __size + 1); }
 238:/usr/include/newlib/c++/9.2.1/bits/basic_string.h **** 
 239:/usr/include/newlib/c++/9.2.1/bits/basic_string.h ****       // _M_construct_aux is used to implement the 21.3.1 para 15 which
 240:/usr/include/newlib/c++/9.2.1/bits/basic_string.h ****       // requires special behaviour if _InIterator is an integral type
 241:/usr/include/newlib/c++/9.2.1/bits/basic_string.h ****       template<typename _InIterator>
 242:/usr/include/newlib/c++/9.2.1/bits/basic_string.h ****         void
 243:/usr/include/newlib/c++/9.2.1/bits/basic_string.h ****         _M_construct_aux(_InIterator __beg, _InIterator __end,
 244:/usr/include/newlib/c++/9.2.1/bits/basic_string.h **** 			 std::__false_type)
 245:/usr/include/newlib/c++/9.2.1/bits/basic_string.h **** 	{
 246:/usr/include/newlib/c++/9.2.1/bits/basic_string.h ****           typedef typename iterator_traits<_InIterator>::iterator_category _Tag;
 247:/usr/include/newlib/c++/9.2.1/bits/basic_string.h ****           _M_construct(__beg, __end, _Tag());
 248:/usr/include/newlib/c++/9.2.1/bits/basic_string.h **** 	}
 249:/usr/include/newlib/c++/9.2.1/bits/basic_string.h **** 
 250:/usr/include/newlib/c++/9.2.1/bits/basic_string.h ****       // _GLIBCXX_RESOLVE_LIB_DEFECTS
 251:/usr/include/newlib/c++/9.2.1/bits/basic_string.h ****       // 438. Ambiguity in the "do the right thing" clause
 252:/usr/include/newlib/c++/9.2.1/bits/basic_string.h ****       template<typename _Integer>
 253:/usr/include/newlib/c++/9.2.1/bits/basic_string.h ****         void
 254:/usr/include/newlib/c++/9.2.1/bits/basic_string.h ****         _M_construct_aux(_Integer __beg, _Integer __end, std::__true_type)
 255:/usr/include/newlib/c++/9.2.1/bits/basic_string.h **** 	{ _M_construct_aux_2(static_cast<size_type>(__beg), __end); }
 256:/usr/include/newlib/c++/9.2.1/bits/basic_string.h **** 
ARM GAS  /tmp/ccZhYDze.s 			page 184


 257:/usr/include/newlib/c++/9.2.1/bits/basic_string.h ****       void
 258:/usr/include/newlib/c++/9.2.1/bits/basic_string.h ****       _M_construct_aux_2(size_type __req, _CharT __c)
 259:/usr/include/newlib/c++/9.2.1/bits/basic_string.h ****       { _M_construct(__req, __c); }
 260:/usr/include/newlib/c++/9.2.1/bits/basic_string.h **** 
 261:/usr/include/newlib/c++/9.2.1/bits/basic_string.h ****       template<typename _InIterator>
 262:/usr/include/newlib/c++/9.2.1/bits/basic_string.h ****         void
 263:/usr/include/newlib/c++/9.2.1/bits/basic_string.h ****         _M_construct(_InIterator __beg, _InIterator __end)
 264:/usr/include/newlib/c++/9.2.1/bits/basic_string.h **** 	{
 265:/usr/include/newlib/c++/9.2.1/bits/basic_string.h **** 	  typedef typename std::__is_integer<_InIterator>::__type _Integral;
 266:/usr/include/newlib/c++/9.2.1/bits/basic_string.h **** 	  _M_construct_aux(__beg, __end, _Integral());
 267:/usr/include/newlib/c++/9.2.1/bits/basic_string.h ****         }
 268:/usr/include/newlib/c++/9.2.1/bits/basic_string.h **** 
 269:/usr/include/newlib/c++/9.2.1/bits/basic_string.h ****       // For Input Iterators, used in istreambuf_iterators, etc.
 270:/usr/include/newlib/c++/9.2.1/bits/basic_string.h ****       template<typename _InIterator>
 271:/usr/include/newlib/c++/9.2.1/bits/basic_string.h ****         void
 272:/usr/include/newlib/c++/9.2.1/bits/basic_string.h ****         _M_construct(_InIterator __beg, _InIterator __end,
 273:/usr/include/newlib/c++/9.2.1/bits/basic_string.h **** 		     std::input_iterator_tag);
 274:/usr/include/newlib/c++/9.2.1/bits/basic_string.h **** 
 275:/usr/include/newlib/c++/9.2.1/bits/basic_string.h ****       // For forward_iterators up to random_access_iterators, used for
 276:/usr/include/newlib/c++/9.2.1/bits/basic_string.h ****       // string::iterator, _CharT*, etc.
 277:/usr/include/newlib/c++/9.2.1/bits/basic_string.h ****       template<typename _FwdIterator>
 278:/usr/include/newlib/c++/9.2.1/bits/basic_string.h ****         void
 279:/usr/include/newlib/c++/9.2.1/bits/basic_string.h ****         _M_construct(_FwdIterator __beg, _FwdIterator __end,
 280:/usr/include/newlib/c++/9.2.1/bits/basic_string.h **** 		     std::forward_iterator_tag);
 281:/usr/include/newlib/c++/9.2.1/bits/basic_string.h **** 
 282:/usr/include/newlib/c++/9.2.1/bits/basic_string.h ****       void
 283:/usr/include/newlib/c++/9.2.1/bits/basic_string.h ****       _M_construct(size_type __req, _CharT __c);
 284:/usr/include/newlib/c++/9.2.1/bits/basic_string.h **** 
 285:/usr/include/newlib/c++/9.2.1/bits/basic_string.h ****       allocator_type&
 286:/usr/include/newlib/c++/9.2.1/bits/basic_string.h ****       _M_get_allocator()
 287:/usr/include/newlib/c++/9.2.1/bits/basic_string.h ****       { return _M_dataplus; }
 288:/usr/include/newlib/c++/9.2.1/bits/basic_string.h **** 
 289:/usr/include/newlib/c++/9.2.1/bits/basic_string.h ****       const allocator_type&
 290:/usr/include/newlib/c++/9.2.1/bits/basic_string.h ****       _M_get_allocator() const
 291:/usr/include/newlib/c++/9.2.1/bits/basic_string.h ****       { return _M_dataplus; }
 292:/usr/include/newlib/c++/9.2.1/bits/basic_string.h **** 
 293:/usr/include/newlib/c++/9.2.1/bits/basic_string.h ****     private:
 294:/usr/include/newlib/c++/9.2.1/bits/basic_string.h **** 
 295:/usr/include/newlib/c++/9.2.1/bits/basic_string.h **** #ifdef _GLIBCXX_DISAMBIGUATE_REPLACE_INST
 296:/usr/include/newlib/c++/9.2.1/bits/basic_string.h ****       // The explicit instantiations in misc-inst.cc require this due to
 297:/usr/include/newlib/c++/9.2.1/bits/basic_string.h ****       // https://gcc.gnu.org/bugzilla/show_bug.cgi?id=64063
 298:/usr/include/newlib/c++/9.2.1/bits/basic_string.h ****       template<typename _Tp, bool _Requires =
 299:/usr/include/newlib/c++/9.2.1/bits/basic_string.h **** 	       !__are_same<_Tp, _CharT*>::__value
 300:/usr/include/newlib/c++/9.2.1/bits/basic_string.h **** 	       && !__are_same<_Tp, const _CharT*>::__value
 301:/usr/include/newlib/c++/9.2.1/bits/basic_string.h **** 	       && !__are_same<_Tp, iterator>::__value
 302:/usr/include/newlib/c++/9.2.1/bits/basic_string.h **** 	       && !__are_same<_Tp, const_iterator>::__value>
 303:/usr/include/newlib/c++/9.2.1/bits/basic_string.h **** 	struct __enable_if_not_native_iterator
 304:/usr/include/newlib/c++/9.2.1/bits/basic_string.h **** 	{ typedef basic_string& __type; };
 305:/usr/include/newlib/c++/9.2.1/bits/basic_string.h ****       template<typename _Tp>
 306:/usr/include/newlib/c++/9.2.1/bits/basic_string.h **** 	struct __enable_if_not_native_iterator<_Tp, false> { };
 307:/usr/include/newlib/c++/9.2.1/bits/basic_string.h **** #endif
 308:/usr/include/newlib/c++/9.2.1/bits/basic_string.h **** 
 309:/usr/include/newlib/c++/9.2.1/bits/basic_string.h ****       size_type
 310:/usr/include/newlib/c++/9.2.1/bits/basic_string.h ****       _M_check(size_type __pos, const char* __s) const
 311:/usr/include/newlib/c++/9.2.1/bits/basic_string.h ****       {
 312:/usr/include/newlib/c++/9.2.1/bits/basic_string.h **** 	if (__pos > this->size())
 313:/usr/include/newlib/c++/9.2.1/bits/basic_string.h **** 	  __throw_out_of_range_fmt(__N("%s: __pos (which is %zu) > "
ARM GAS  /tmp/ccZhYDze.s 			page 185


 314:/usr/include/newlib/c++/9.2.1/bits/basic_string.h **** 				       "this->size() (which is %zu)"),
 315:/usr/include/newlib/c++/9.2.1/bits/basic_string.h **** 				   __s, __pos, this->size());
 316:/usr/include/newlib/c++/9.2.1/bits/basic_string.h **** 	return __pos;
 317:/usr/include/newlib/c++/9.2.1/bits/basic_string.h ****       }
 318:/usr/include/newlib/c++/9.2.1/bits/basic_string.h **** 
 319:/usr/include/newlib/c++/9.2.1/bits/basic_string.h ****       void
 320:/usr/include/newlib/c++/9.2.1/bits/basic_string.h ****       _M_check_length(size_type __n1, size_type __n2, const char* __s) const
 321:/usr/include/newlib/c++/9.2.1/bits/basic_string.h ****       {
 322:/usr/include/newlib/c++/9.2.1/bits/basic_string.h **** 	if (this->max_size() - (this->size() - __n1) < __n2)
 323:/usr/include/newlib/c++/9.2.1/bits/basic_string.h **** 	  __throw_length_error(__N(__s));
 324:/usr/include/newlib/c++/9.2.1/bits/basic_string.h ****       }
 325:/usr/include/newlib/c++/9.2.1/bits/basic_string.h **** 
 326:/usr/include/newlib/c++/9.2.1/bits/basic_string.h **** 
 327:/usr/include/newlib/c++/9.2.1/bits/basic_string.h ****       // NB: _M_limit doesn't check for a bad __pos value.
 328:/usr/include/newlib/c++/9.2.1/bits/basic_string.h ****       size_type
 329:/usr/include/newlib/c++/9.2.1/bits/basic_string.h ****       _M_limit(size_type __pos, size_type __off) const _GLIBCXX_NOEXCEPT
 330:/usr/include/newlib/c++/9.2.1/bits/basic_string.h ****       {
 331:/usr/include/newlib/c++/9.2.1/bits/basic_string.h **** 	const bool __testoff =  __off < this->size() - __pos;
 332:/usr/include/newlib/c++/9.2.1/bits/basic_string.h **** 	return __testoff ? __off : this->size() - __pos;
 333:/usr/include/newlib/c++/9.2.1/bits/basic_string.h ****       }
 334:/usr/include/newlib/c++/9.2.1/bits/basic_string.h **** 
 335:/usr/include/newlib/c++/9.2.1/bits/basic_string.h ****       // True if _Rep and source do not overlap.
 336:/usr/include/newlib/c++/9.2.1/bits/basic_string.h ****       bool
 337:/usr/include/newlib/c++/9.2.1/bits/basic_string.h ****       _M_disjunct(const _CharT* __s) const _GLIBCXX_NOEXCEPT
 338:/usr/include/newlib/c++/9.2.1/bits/basic_string.h ****       {
 339:/usr/include/newlib/c++/9.2.1/bits/basic_string.h **** 	return (less<const _CharT*>()(__s, _M_data())
 340:/usr/include/newlib/c++/9.2.1/bits/basic_string.h **** 		|| less<const _CharT*>()(_M_data() + this->size(), __s));
 341:/usr/include/newlib/c++/9.2.1/bits/basic_string.h ****       }
 342:/usr/include/newlib/c++/9.2.1/bits/basic_string.h **** 
 343:/usr/include/newlib/c++/9.2.1/bits/basic_string.h ****       // When __n = 1 way faster than the general multichar
 344:/usr/include/newlib/c++/9.2.1/bits/basic_string.h ****       // traits_type::copy/move/assign.
 345:/usr/include/newlib/c++/9.2.1/bits/basic_string.h ****       static void
 346:/usr/include/newlib/c++/9.2.1/bits/basic_string.h ****       _S_copy(_CharT* __d, const _CharT* __s, size_type __n)
 347:/usr/include/newlib/c++/9.2.1/bits/basic_string.h ****       {
 348:/usr/include/newlib/c++/9.2.1/bits/basic_string.h **** 	if (__n == 1)
 349:/usr/include/newlib/c++/9.2.1/bits/basic_string.h **** 	  traits_type::assign(*__d, *__s);
 350:/usr/include/newlib/c++/9.2.1/bits/basic_string.h **** 	else
 351:/usr/include/newlib/c++/9.2.1/bits/basic_string.h **** 	  traits_type::copy(__d, __s, __n);
 352:/usr/include/newlib/c++/9.2.1/bits/basic_string.h ****       }
 353:/usr/include/newlib/c++/9.2.1/bits/basic_string.h **** 
 354:/usr/include/newlib/c++/9.2.1/bits/basic_string.h ****       static void
 355:/usr/include/newlib/c++/9.2.1/bits/basic_string.h ****       _S_move(_CharT* __d, const _CharT* __s, size_type __n)
 356:/usr/include/newlib/c++/9.2.1/bits/basic_string.h ****       {
 357:/usr/include/newlib/c++/9.2.1/bits/basic_string.h **** 	if (__n == 1)
 358:/usr/include/newlib/c++/9.2.1/bits/basic_string.h **** 	  traits_type::assign(*__d, *__s);
 359:/usr/include/newlib/c++/9.2.1/bits/basic_string.h **** 	else
 360:/usr/include/newlib/c++/9.2.1/bits/basic_string.h **** 	  traits_type::move(__d, __s, __n);
 361:/usr/include/newlib/c++/9.2.1/bits/basic_string.h ****       }
 362:/usr/include/newlib/c++/9.2.1/bits/basic_string.h **** 
 363:/usr/include/newlib/c++/9.2.1/bits/basic_string.h ****       static void
 364:/usr/include/newlib/c++/9.2.1/bits/basic_string.h ****       _S_assign(_CharT* __d, size_type __n, _CharT __c)
 365:/usr/include/newlib/c++/9.2.1/bits/basic_string.h ****       {
 366:/usr/include/newlib/c++/9.2.1/bits/basic_string.h **** 	if (__n == 1)
 367:/usr/include/newlib/c++/9.2.1/bits/basic_string.h **** 	  traits_type::assign(*__d, __c);
 368:/usr/include/newlib/c++/9.2.1/bits/basic_string.h **** 	else
 369:/usr/include/newlib/c++/9.2.1/bits/basic_string.h **** 	  traits_type::assign(__d, __n, __c);
 370:/usr/include/newlib/c++/9.2.1/bits/basic_string.h ****       }
ARM GAS  /tmp/ccZhYDze.s 			page 186


 371:/usr/include/newlib/c++/9.2.1/bits/basic_string.h **** 
 372:/usr/include/newlib/c++/9.2.1/bits/basic_string.h ****       // _S_copy_chars is a separate template to permit specialization
 373:/usr/include/newlib/c++/9.2.1/bits/basic_string.h ****       // to optimize for the common case of pointers as iterators.
 374:/usr/include/newlib/c++/9.2.1/bits/basic_string.h ****       template<class _Iterator>
 375:/usr/include/newlib/c++/9.2.1/bits/basic_string.h ****         static void
 376:/usr/include/newlib/c++/9.2.1/bits/basic_string.h ****         _S_copy_chars(_CharT* __p, _Iterator __k1, _Iterator __k2)
 377:/usr/include/newlib/c++/9.2.1/bits/basic_string.h ****         {
 378:/usr/include/newlib/c++/9.2.1/bits/basic_string.h **** 	  for (; __k1 != __k2; ++__k1, (void)++__p)
 379:/usr/include/newlib/c++/9.2.1/bits/basic_string.h **** 	    traits_type::assign(*__p, *__k1); // These types are off.
 380:/usr/include/newlib/c++/9.2.1/bits/basic_string.h **** 	}
 381:/usr/include/newlib/c++/9.2.1/bits/basic_string.h **** 
 382:/usr/include/newlib/c++/9.2.1/bits/basic_string.h ****       static void
 383:/usr/include/newlib/c++/9.2.1/bits/basic_string.h ****       _S_copy_chars(_CharT* __p, iterator __k1, iterator __k2) _GLIBCXX_NOEXCEPT
 384:/usr/include/newlib/c++/9.2.1/bits/basic_string.h ****       { _S_copy_chars(__p, __k1.base(), __k2.base()); }
 385:/usr/include/newlib/c++/9.2.1/bits/basic_string.h **** 
 386:/usr/include/newlib/c++/9.2.1/bits/basic_string.h ****       static void
 387:/usr/include/newlib/c++/9.2.1/bits/basic_string.h ****       _S_copy_chars(_CharT* __p, const_iterator __k1, const_iterator __k2)
 388:/usr/include/newlib/c++/9.2.1/bits/basic_string.h ****       _GLIBCXX_NOEXCEPT
 389:/usr/include/newlib/c++/9.2.1/bits/basic_string.h ****       { _S_copy_chars(__p, __k1.base(), __k2.base()); }
 390:/usr/include/newlib/c++/9.2.1/bits/basic_string.h **** 
 391:/usr/include/newlib/c++/9.2.1/bits/basic_string.h ****       static void
 392:/usr/include/newlib/c++/9.2.1/bits/basic_string.h ****       _S_copy_chars(_CharT* __p, _CharT* __k1, _CharT* __k2) _GLIBCXX_NOEXCEPT
 393:/usr/include/newlib/c++/9.2.1/bits/basic_string.h ****       { _S_copy(__p, __k1, __k2 - __k1); }
 394:/usr/include/newlib/c++/9.2.1/bits/basic_string.h **** 
 395:/usr/include/newlib/c++/9.2.1/bits/basic_string.h ****       static void
 396:/usr/include/newlib/c++/9.2.1/bits/basic_string.h ****       _S_copy_chars(_CharT* __p, const _CharT* __k1, const _CharT* __k2)
 397:/usr/include/newlib/c++/9.2.1/bits/basic_string.h ****       _GLIBCXX_NOEXCEPT
 398:/usr/include/newlib/c++/9.2.1/bits/basic_string.h ****       { _S_copy(__p, __k1, __k2 - __k1); }
 399:/usr/include/newlib/c++/9.2.1/bits/basic_string.h **** 
 400:/usr/include/newlib/c++/9.2.1/bits/basic_string.h ****       static int
 401:/usr/include/newlib/c++/9.2.1/bits/basic_string.h ****       _S_compare(size_type __n1, size_type __n2) _GLIBCXX_NOEXCEPT
 402:/usr/include/newlib/c++/9.2.1/bits/basic_string.h ****       {
 403:/usr/include/newlib/c++/9.2.1/bits/basic_string.h **** 	const difference_type __d = difference_type(__n1 - __n2);
 404:/usr/include/newlib/c++/9.2.1/bits/basic_string.h **** 
 405:/usr/include/newlib/c++/9.2.1/bits/basic_string.h **** 	if (__d > __gnu_cxx::__numeric_traits<int>::__max)
 406:/usr/include/newlib/c++/9.2.1/bits/basic_string.h **** 	  return __gnu_cxx::__numeric_traits<int>::__max;
 407:/usr/include/newlib/c++/9.2.1/bits/basic_string.h **** 	else if (__d < __gnu_cxx::__numeric_traits<int>::__min)
 408:/usr/include/newlib/c++/9.2.1/bits/basic_string.h **** 	  return __gnu_cxx::__numeric_traits<int>::__min;
 409:/usr/include/newlib/c++/9.2.1/bits/basic_string.h **** 	else
 410:/usr/include/newlib/c++/9.2.1/bits/basic_string.h **** 	  return int(__d);
 411:/usr/include/newlib/c++/9.2.1/bits/basic_string.h ****       }
 412:/usr/include/newlib/c++/9.2.1/bits/basic_string.h **** 
 413:/usr/include/newlib/c++/9.2.1/bits/basic_string.h ****       void
 414:/usr/include/newlib/c++/9.2.1/bits/basic_string.h ****       _M_assign(const basic_string&);
 415:/usr/include/newlib/c++/9.2.1/bits/basic_string.h **** 
 416:/usr/include/newlib/c++/9.2.1/bits/basic_string.h ****       void
 417:/usr/include/newlib/c++/9.2.1/bits/basic_string.h ****       _M_mutate(size_type __pos, size_type __len1, const _CharT* __s,
 418:/usr/include/newlib/c++/9.2.1/bits/basic_string.h **** 		size_type __len2);
 419:/usr/include/newlib/c++/9.2.1/bits/basic_string.h **** 
 420:/usr/include/newlib/c++/9.2.1/bits/basic_string.h ****       void
 421:/usr/include/newlib/c++/9.2.1/bits/basic_string.h ****       _M_erase(size_type __pos, size_type __n);
 422:/usr/include/newlib/c++/9.2.1/bits/basic_string.h **** 
 423:/usr/include/newlib/c++/9.2.1/bits/basic_string.h ****     public:
 424:/usr/include/newlib/c++/9.2.1/bits/basic_string.h ****       // Construct/copy/destroy:
 425:/usr/include/newlib/c++/9.2.1/bits/basic_string.h ****       // NB: We overload ctors in some cases instead of using default
 426:/usr/include/newlib/c++/9.2.1/bits/basic_string.h ****       // arguments, per 17.4.4.4 para. 2 item 2.
 427:/usr/include/newlib/c++/9.2.1/bits/basic_string.h **** 
ARM GAS  /tmp/ccZhYDze.s 			page 187


 428:/usr/include/newlib/c++/9.2.1/bits/basic_string.h ****       /**
 429:/usr/include/newlib/c++/9.2.1/bits/basic_string.h ****        *  @brief  Default constructor creates an empty string.
 430:/usr/include/newlib/c++/9.2.1/bits/basic_string.h ****        */
 431:/usr/include/newlib/c++/9.2.1/bits/basic_string.h ****       basic_string()
 432:/usr/include/newlib/c++/9.2.1/bits/basic_string.h ****       _GLIBCXX_NOEXCEPT_IF(is_nothrow_default_constructible<_Alloc>::value)
 433:/usr/include/newlib/c++/9.2.1/bits/basic_string.h ****       : _M_dataplus(_M_local_data())
 434:/usr/include/newlib/c++/9.2.1/bits/basic_string.h ****       { _M_set_length(0); }
 435:/usr/include/newlib/c++/9.2.1/bits/basic_string.h **** 
 436:/usr/include/newlib/c++/9.2.1/bits/basic_string.h ****       /**
 437:/usr/include/newlib/c++/9.2.1/bits/basic_string.h ****        *  @brief  Construct an empty string using allocator @a a.
 438:/usr/include/newlib/c++/9.2.1/bits/basic_string.h ****        */
 439:/usr/include/newlib/c++/9.2.1/bits/basic_string.h ****       explicit
 440:/usr/include/newlib/c++/9.2.1/bits/basic_string.h ****       basic_string(const _Alloc& __a) _GLIBCXX_NOEXCEPT
 441:/usr/include/newlib/c++/9.2.1/bits/basic_string.h ****       : _M_dataplus(_M_local_data(), __a)
 442:/usr/include/newlib/c++/9.2.1/bits/basic_string.h ****       { _M_set_length(0); }
 443:/usr/include/newlib/c++/9.2.1/bits/basic_string.h **** 
 444:/usr/include/newlib/c++/9.2.1/bits/basic_string.h ****       /**
 445:/usr/include/newlib/c++/9.2.1/bits/basic_string.h ****        *  @brief  Construct string with copy of value of @a __str.
 446:/usr/include/newlib/c++/9.2.1/bits/basic_string.h ****        *  @param  __str  Source string.
 447:/usr/include/newlib/c++/9.2.1/bits/basic_string.h ****        */
 448:/usr/include/newlib/c++/9.2.1/bits/basic_string.h ****       basic_string(const basic_string& __str)
 449:/usr/include/newlib/c++/9.2.1/bits/basic_string.h ****       : _M_dataplus(_M_local_data(),
 450:/usr/include/newlib/c++/9.2.1/bits/basic_string.h **** 		    _Alloc_traits::_S_select_on_copy(__str._M_get_allocator()))
 451:/usr/include/newlib/c++/9.2.1/bits/basic_string.h ****       { _M_construct(__str._M_data(), __str._M_data() + __str.length()); }
 452:/usr/include/newlib/c++/9.2.1/bits/basic_string.h **** 
 453:/usr/include/newlib/c++/9.2.1/bits/basic_string.h ****       // _GLIBCXX_RESOLVE_LIB_DEFECTS
 454:/usr/include/newlib/c++/9.2.1/bits/basic_string.h ****       // 2583. no way to supply an allocator for basic_string(str, pos)
 455:/usr/include/newlib/c++/9.2.1/bits/basic_string.h ****       /**
 456:/usr/include/newlib/c++/9.2.1/bits/basic_string.h ****        *  @brief  Construct string as copy of a substring.
 457:/usr/include/newlib/c++/9.2.1/bits/basic_string.h ****        *  @param  __str  Source string.
 458:/usr/include/newlib/c++/9.2.1/bits/basic_string.h ****        *  @param  __pos  Index of first character to copy from.
 459:/usr/include/newlib/c++/9.2.1/bits/basic_string.h ****        *  @param  __a  Allocator to use.
 460:/usr/include/newlib/c++/9.2.1/bits/basic_string.h ****        */
 461:/usr/include/newlib/c++/9.2.1/bits/basic_string.h ****       basic_string(const basic_string& __str, size_type __pos,
 462:/usr/include/newlib/c++/9.2.1/bits/basic_string.h **** 		   const _Alloc& __a = _Alloc())
 463:/usr/include/newlib/c++/9.2.1/bits/basic_string.h ****       : _M_dataplus(_M_local_data(), __a)
 464:/usr/include/newlib/c++/9.2.1/bits/basic_string.h ****       {
 465:/usr/include/newlib/c++/9.2.1/bits/basic_string.h **** 	const _CharT* __start = __str._M_data()
 466:/usr/include/newlib/c++/9.2.1/bits/basic_string.h **** 	  + __str._M_check(__pos, "basic_string::basic_string");
 467:/usr/include/newlib/c++/9.2.1/bits/basic_string.h **** 	_M_construct(__start, __start + __str._M_limit(__pos, npos));
 468:/usr/include/newlib/c++/9.2.1/bits/basic_string.h ****       }
 469:/usr/include/newlib/c++/9.2.1/bits/basic_string.h **** 
 470:/usr/include/newlib/c++/9.2.1/bits/basic_string.h ****       /**
 471:/usr/include/newlib/c++/9.2.1/bits/basic_string.h ****        *  @brief  Construct string as copy of a substring.
 472:/usr/include/newlib/c++/9.2.1/bits/basic_string.h ****        *  @param  __str  Source string.
 473:/usr/include/newlib/c++/9.2.1/bits/basic_string.h ****        *  @param  __pos  Index of first character to copy from.
 474:/usr/include/newlib/c++/9.2.1/bits/basic_string.h ****        *  @param  __n  Number of characters to copy.
 475:/usr/include/newlib/c++/9.2.1/bits/basic_string.h ****        */
 476:/usr/include/newlib/c++/9.2.1/bits/basic_string.h ****       basic_string(const basic_string& __str, size_type __pos,
 477:/usr/include/newlib/c++/9.2.1/bits/basic_string.h **** 		   size_type __n)
 478:/usr/include/newlib/c++/9.2.1/bits/basic_string.h ****       : _M_dataplus(_M_local_data())
 479:/usr/include/newlib/c++/9.2.1/bits/basic_string.h ****       {
 480:/usr/include/newlib/c++/9.2.1/bits/basic_string.h **** 	const _CharT* __start = __str._M_data()
 481:/usr/include/newlib/c++/9.2.1/bits/basic_string.h **** 	  + __str._M_check(__pos, "basic_string::basic_string");
 482:/usr/include/newlib/c++/9.2.1/bits/basic_string.h **** 	_M_construct(__start, __start + __str._M_limit(__pos, __n));
 483:/usr/include/newlib/c++/9.2.1/bits/basic_string.h ****       }
 484:/usr/include/newlib/c++/9.2.1/bits/basic_string.h **** 
ARM GAS  /tmp/ccZhYDze.s 			page 188


 485:/usr/include/newlib/c++/9.2.1/bits/basic_string.h ****       /**
 486:/usr/include/newlib/c++/9.2.1/bits/basic_string.h ****        *  @brief  Construct string as copy of a substring.
 487:/usr/include/newlib/c++/9.2.1/bits/basic_string.h ****        *  @param  __str  Source string.
 488:/usr/include/newlib/c++/9.2.1/bits/basic_string.h ****        *  @param  __pos  Index of first character to copy from.
 489:/usr/include/newlib/c++/9.2.1/bits/basic_string.h ****        *  @param  __n  Number of characters to copy.
 490:/usr/include/newlib/c++/9.2.1/bits/basic_string.h ****        *  @param  __a  Allocator to use.
 491:/usr/include/newlib/c++/9.2.1/bits/basic_string.h ****        */
 492:/usr/include/newlib/c++/9.2.1/bits/basic_string.h ****       basic_string(const basic_string& __str, size_type __pos,
 493:/usr/include/newlib/c++/9.2.1/bits/basic_string.h **** 		   size_type __n, const _Alloc& __a)
 494:/usr/include/newlib/c++/9.2.1/bits/basic_string.h ****       : _M_dataplus(_M_local_data(), __a)
 495:/usr/include/newlib/c++/9.2.1/bits/basic_string.h ****       {
 496:/usr/include/newlib/c++/9.2.1/bits/basic_string.h **** 	const _CharT* __start
 497:/usr/include/newlib/c++/9.2.1/bits/basic_string.h **** 	  = __str._M_data() + __str._M_check(__pos, "string::string");
 498:/usr/include/newlib/c++/9.2.1/bits/basic_string.h **** 	_M_construct(__start, __start + __str._M_limit(__pos, __n));
 499:/usr/include/newlib/c++/9.2.1/bits/basic_string.h ****       }
 500:/usr/include/newlib/c++/9.2.1/bits/basic_string.h **** 
 501:/usr/include/newlib/c++/9.2.1/bits/basic_string.h ****       /**
 502:/usr/include/newlib/c++/9.2.1/bits/basic_string.h ****        *  @brief  Construct string initialized by a character %array.
 503:/usr/include/newlib/c++/9.2.1/bits/basic_string.h ****        *  @param  __s  Source character %array.
 504:/usr/include/newlib/c++/9.2.1/bits/basic_string.h ****        *  @param  __n  Number of characters to copy.
 505:/usr/include/newlib/c++/9.2.1/bits/basic_string.h ****        *  @param  __a  Allocator to use (default is default allocator).
 506:/usr/include/newlib/c++/9.2.1/bits/basic_string.h ****        *
 507:/usr/include/newlib/c++/9.2.1/bits/basic_string.h ****        *  NB: @a __s must have at least @a __n characters, &apos;\\0&apos;
 508:/usr/include/newlib/c++/9.2.1/bits/basic_string.h ****        *  has no special meaning.
 509:/usr/include/newlib/c++/9.2.1/bits/basic_string.h ****        */
 510:/usr/include/newlib/c++/9.2.1/bits/basic_string.h ****       basic_string(const _CharT* __s, size_type __n,
 511:/usr/include/newlib/c++/9.2.1/bits/basic_string.h **** 		   const _Alloc& __a = _Alloc())
 512:/usr/include/newlib/c++/9.2.1/bits/basic_string.h ****       : _M_dataplus(_M_local_data(), __a)
 513:/usr/include/newlib/c++/9.2.1/bits/basic_string.h ****       { _M_construct(__s, __s + __n); }
 514:/usr/include/newlib/c++/9.2.1/bits/basic_string.h **** 
 515:/usr/include/newlib/c++/9.2.1/bits/basic_string.h ****       /**
 516:/usr/include/newlib/c++/9.2.1/bits/basic_string.h ****        *  @brief  Construct string as copy of a C string.
 517:/usr/include/newlib/c++/9.2.1/bits/basic_string.h ****        *  @param  __s  Source C string.
 518:/usr/include/newlib/c++/9.2.1/bits/basic_string.h ****        *  @param  __a  Allocator to use (default is default allocator).
 519:/usr/include/newlib/c++/9.2.1/bits/basic_string.h ****        */
 520:/usr/include/newlib/c++/9.2.1/bits/basic_string.h **** #if __cpp_deduction_guides && ! defined _GLIBCXX_DEFINING_STRING_INSTANTIATIONS
 521:/usr/include/newlib/c++/9.2.1/bits/basic_string.h ****       // _GLIBCXX_RESOLVE_LIB_DEFECTS
 522:/usr/include/newlib/c++/9.2.1/bits/basic_string.h ****       // 3076. basic_string CTAD ambiguity
 523:/usr/include/newlib/c++/9.2.1/bits/basic_string.h ****       template<typename = _RequireAllocator<_Alloc>>
 524:/usr/include/newlib/c++/9.2.1/bits/basic_string.h **** #endif
 525:/usr/include/newlib/c++/9.2.1/bits/basic_string.h ****       basic_string(const _CharT* __s, const _Alloc& __a = _Alloc())
 6198              		.loc 19 525 7 is_stmt 1 view .LVU1476
 6199              	.LBB1762:
 6200              	.LBB1754:
 6201              	.LBI1754:
 190:/usr/include/newlib/c++/9.2.1/bits/basic_string.h ****       {
 6202              		.loc 19 190 7 view .LVU1477
 190:/usr/include/newlib/c++/9.2.1/bits/basic_string.h ****       {
 6203              		.loc 19 190 7 is_stmt 0 view .LVU1478
 6204              	.LBE1754:
 6205              	.LBB1755:
 6206              	.LBI1689:
 156:/usr/include/newlib/c++/9.2.1/bits/basic_string.h **** 	: allocator_type(__a), _M_p(__dat) { }
 6207              		.loc 19 156 2 is_stmt 1 view .LVU1479
 6208              	.LBB1696:
 6209              	.LBB1694:
 6210              	.LBB1692:
ARM GAS  /tmp/ccZhYDze.s 			page 189


 6211              	.LBI1692:
 139:/usr/include/newlib/c++/9.2.1/bits/allocator.h **** 
 140:/usr/include/newlib/c++/9.2.1/bits/allocator.h ****       _GLIBCXX20_CONSTEXPR
 141:/usr/include/newlib/c++/9.2.1/bits/allocator.h ****       allocator(const allocator& __a) _GLIBCXX_NOTHROW
 6212              		.loc 21 141 7 view .LVU1480
 6213              	.LBB1693:
 6214              	.LBI1693:
  81:/usr/include/newlib/c++/9.2.1/ext/new_allocator.h **** 
  82:/usr/include/newlib/c++/9.2.1/ext/new_allocator.h ****       _GLIBCXX20_CONSTEXPR
  83:/usr/include/newlib/c++/9.2.1/ext/new_allocator.h ****       new_allocator(const new_allocator&) _GLIBCXX_USE_NOEXCEPT { }
 6215              		.loc 22 83 7 view .LVU1481
 6216              		.loc 22 83 7 is_stmt 0 view .LVU1482
 6217              	.LBE1693:
 6218              	.LBE1692:
 6219              	.LBE1694:
 6220              	.LBE1696:
 6221              	.LBE1755:
 6222              	.LBE1762:
 6223              	.LBE1778:
  70:ex_verb.cpp   ****     patch.display.Update();
 6224              		.loc 15 70 30 view .LVU1483
 6225 0066 0122     		movs	r2, #1
 6226              	.LBB1779:
 6227              	.LBB1763:
 6228              	.LBB1756:
 6229              	.LBB1751:
 6230              	.LBB1748:
 6231              	.LBB1745:
 6232              	.LBB1742:
 6233              	.LBB1739:
 6234              	.LBB1721:
 6235              	.LBB1718:
 6236              	.LBB1715:
 6237              	.LBB1712:
 6238              	.LBB1709:
 6239              		.loc 20 365 49 view .LVU1484
 6240 0068 1E4B     		ldr	r3, .L427+40
 6241              	.LBE1709:
 6242              	.LBE1712:
 6243              	.LBE1715:
 6244              	.LBE1718:
 6245              	.LBE1721:
 6246              	.LBB1722:
 6247              	.LBB1723:
 6248              	.LBB1724:
 183:/usr/include/newlib/c++/9.2.1/bits/basic_string.h **** 
 6249              		.loc 19 183 9 view .LVU1485
 6250 006a 4FF00D0C 		mov	ip, #13
 6251              	.LBE1724:
 6252              	.LBE1723:
 6253              	.LBE1722:
 6254              	.LBE1739:
 6255              	.LBE1742:
 6256              	.LBE1745:
 6257              	.LBE1748:
 6258              	.LBE1751:
 6259              	.LBE1756:
ARM GAS  /tmp/ccZhYDze.s 			page 190


 6260              	.LBE1763:
 6261              	.LBE1779:
  70:ex_verb.cpp   ****     patch.display.Update();
 6262              		.loc 15 70 30 view .LVU1486
 6263 006e 0092     		str	r2, [sp]
 6264              	.LBB1780:
 6265              	.LBB1764:
 6266              	.LBB1757:
 6267              	.LBB1697:
 6268              	.LBB1695:
 157:/usr/include/newlib/c++/9.2.1/bits/basic_string.h **** 
 6269              		.loc 19 157 35 view .LVU1487
 6270 0070 0296     		str	r6, [sp, #8]
 6271              	.LVL466:
 157:/usr/include/newlib/c++/9.2.1/bits/basic_string.h **** 
 6272              		.loc 19 157 35 view .LVU1488
 6273              	.LBE1695:
 6274              	.LBE1697:
 6275              	.LBE1757:
 6276              	.LBB1758:
 6277              	.LBI1758:
 329:/usr/include/newlib/c++/9.2.1/bits/char_traits.h ****       {
 6278              		.loc 20 329 7 is_stmt 1 view .LVU1489
 6279              	.LBE1758:
 6280              	.LBE1764:
 6281              	.LBE1780:
 335:/usr/include/newlib/c++/9.2.1/bits/char_traits.h ****       }
 6282              		.loc 20 335 2 view .LVU1490
 6283              	.LBB1781:
 6284              	.LBB1765:
 6285              	.LBB1759:
 6286              	.LBI1698:
 263:/usr/include/newlib/c++/9.2.1/bits/basic_string.h **** 	{
 6287              		.loc 19 263 9 view .LVU1491
 6288              	.LBB1752:
 6289              	.LBB1749:
 6290              	.LBI1700:
 243:/usr/include/newlib/c++/9.2.1/bits/basic_string.h **** 			 std::__false_type)
 6291              		.loc 19 243 9 view .LVU1492
 6292              	.LBB1746:
 6293              	.LBB1743:
 6294              	.LBI1702:
 6295              		.file 23 "/usr/include/newlib/c++/9.2.1/bits/basic_string.tcc"
   1:/usr/include/newlib/c++/9.2.1/bits/basic_string.tcc **** // Components for manipulating sequences of characters -*- C++ -*-
   2:/usr/include/newlib/c++/9.2.1/bits/basic_string.tcc **** 
   3:/usr/include/newlib/c++/9.2.1/bits/basic_string.tcc **** // Copyright (C) 1997-2019 Free Software Foundation, Inc.
   4:/usr/include/newlib/c++/9.2.1/bits/basic_string.tcc **** //
   5:/usr/include/newlib/c++/9.2.1/bits/basic_string.tcc **** // This file is part of the GNU ISO C++ Library.  This library is free
   6:/usr/include/newlib/c++/9.2.1/bits/basic_string.tcc **** // software; you can redistribute it and/or modify it under the
   7:/usr/include/newlib/c++/9.2.1/bits/basic_string.tcc **** // terms of the GNU General Public License as published by the
   8:/usr/include/newlib/c++/9.2.1/bits/basic_string.tcc **** // Free Software Foundation; either version 3, or (at your option)
   9:/usr/include/newlib/c++/9.2.1/bits/basic_string.tcc **** // any later version.
  10:/usr/include/newlib/c++/9.2.1/bits/basic_string.tcc **** 
  11:/usr/include/newlib/c++/9.2.1/bits/basic_string.tcc **** // This library is distributed in the hope that it will be useful,
  12:/usr/include/newlib/c++/9.2.1/bits/basic_string.tcc **** // but WITHOUT ANY WARRANTY; without even the implied warranty of
  13:/usr/include/newlib/c++/9.2.1/bits/basic_string.tcc **** // MERCHANTABILITY or FITNESS FOR A PARTICULAR PURPOSE.  See the
  14:/usr/include/newlib/c++/9.2.1/bits/basic_string.tcc **** // GNU General Public License for more details.
ARM GAS  /tmp/ccZhYDze.s 			page 191


  15:/usr/include/newlib/c++/9.2.1/bits/basic_string.tcc **** 
  16:/usr/include/newlib/c++/9.2.1/bits/basic_string.tcc **** // Under Section 7 of GPL version 3, you are granted additional
  17:/usr/include/newlib/c++/9.2.1/bits/basic_string.tcc **** // permissions described in the GCC Runtime Library Exception, version
  18:/usr/include/newlib/c++/9.2.1/bits/basic_string.tcc **** // 3.1, as published by the Free Software Foundation.
  19:/usr/include/newlib/c++/9.2.1/bits/basic_string.tcc **** 
  20:/usr/include/newlib/c++/9.2.1/bits/basic_string.tcc **** // You should have received a copy of the GNU General Public License and
  21:/usr/include/newlib/c++/9.2.1/bits/basic_string.tcc **** // a copy of the GCC Runtime Library Exception along with this program;
  22:/usr/include/newlib/c++/9.2.1/bits/basic_string.tcc **** // see the files COPYING3 and COPYING.RUNTIME respectively.  If not, see
  23:/usr/include/newlib/c++/9.2.1/bits/basic_string.tcc **** // <http://www.gnu.org/licenses/>.
  24:/usr/include/newlib/c++/9.2.1/bits/basic_string.tcc **** 
  25:/usr/include/newlib/c++/9.2.1/bits/basic_string.tcc **** /** @file bits/basic_string.tcc
  26:/usr/include/newlib/c++/9.2.1/bits/basic_string.tcc ****  *  This is an internal header file, included by other library headers.
  27:/usr/include/newlib/c++/9.2.1/bits/basic_string.tcc ****  *  Do not attempt to use it directly. @headername{string}
  28:/usr/include/newlib/c++/9.2.1/bits/basic_string.tcc ****  */
  29:/usr/include/newlib/c++/9.2.1/bits/basic_string.tcc **** 
  30:/usr/include/newlib/c++/9.2.1/bits/basic_string.tcc **** //
  31:/usr/include/newlib/c++/9.2.1/bits/basic_string.tcc **** // ISO C++ 14882: 21  Strings library
  32:/usr/include/newlib/c++/9.2.1/bits/basic_string.tcc **** //
  33:/usr/include/newlib/c++/9.2.1/bits/basic_string.tcc **** 
  34:/usr/include/newlib/c++/9.2.1/bits/basic_string.tcc **** // Written by Jason Merrill based upon the specification by Takanori Adachi
  35:/usr/include/newlib/c++/9.2.1/bits/basic_string.tcc **** // in ANSI X3J16/94-0013R2.  Rewritten by Nathan Myers to ISO-14882.
  36:/usr/include/newlib/c++/9.2.1/bits/basic_string.tcc **** // Non-reference-counted implementation written by Paolo Carlini and
  37:/usr/include/newlib/c++/9.2.1/bits/basic_string.tcc **** // updated by Jonathan Wakely for ISO-14882-2011.
  38:/usr/include/newlib/c++/9.2.1/bits/basic_string.tcc **** 
  39:/usr/include/newlib/c++/9.2.1/bits/basic_string.tcc **** #ifndef _BASIC_STRING_TCC
  40:/usr/include/newlib/c++/9.2.1/bits/basic_string.tcc **** #define _BASIC_STRING_TCC 1
  41:/usr/include/newlib/c++/9.2.1/bits/basic_string.tcc **** 
  42:/usr/include/newlib/c++/9.2.1/bits/basic_string.tcc **** #pragma GCC system_header
  43:/usr/include/newlib/c++/9.2.1/bits/basic_string.tcc **** 
  44:/usr/include/newlib/c++/9.2.1/bits/basic_string.tcc **** #include <bits/cxxabi_forced.h>
  45:/usr/include/newlib/c++/9.2.1/bits/basic_string.tcc **** 
  46:/usr/include/newlib/c++/9.2.1/bits/basic_string.tcc **** namespace std _GLIBCXX_VISIBILITY(default)
  47:/usr/include/newlib/c++/9.2.1/bits/basic_string.tcc **** {
  48:/usr/include/newlib/c++/9.2.1/bits/basic_string.tcc **** _GLIBCXX_BEGIN_NAMESPACE_VERSION
  49:/usr/include/newlib/c++/9.2.1/bits/basic_string.tcc **** 
  50:/usr/include/newlib/c++/9.2.1/bits/basic_string.tcc **** #if _GLIBCXX_USE_CXX11_ABI
  51:/usr/include/newlib/c++/9.2.1/bits/basic_string.tcc **** 
  52:/usr/include/newlib/c++/9.2.1/bits/basic_string.tcc ****   template<typename _CharT, typename _Traits, typename _Alloc>
  53:/usr/include/newlib/c++/9.2.1/bits/basic_string.tcc ****     const typename basic_string<_CharT, _Traits, _Alloc>::size_type
  54:/usr/include/newlib/c++/9.2.1/bits/basic_string.tcc ****     basic_string<_CharT, _Traits, _Alloc>::npos;
  55:/usr/include/newlib/c++/9.2.1/bits/basic_string.tcc **** 
  56:/usr/include/newlib/c++/9.2.1/bits/basic_string.tcc ****   template<typename _CharT, typename _Traits, typename _Alloc>
  57:/usr/include/newlib/c++/9.2.1/bits/basic_string.tcc ****     void
  58:/usr/include/newlib/c++/9.2.1/bits/basic_string.tcc ****     basic_string<_CharT, _Traits, _Alloc>::
  59:/usr/include/newlib/c++/9.2.1/bits/basic_string.tcc ****     swap(basic_string& __s) _GLIBCXX_NOEXCEPT
  60:/usr/include/newlib/c++/9.2.1/bits/basic_string.tcc ****     {
  61:/usr/include/newlib/c++/9.2.1/bits/basic_string.tcc ****       if (this == &__s)
  62:/usr/include/newlib/c++/9.2.1/bits/basic_string.tcc **** 	return;
  63:/usr/include/newlib/c++/9.2.1/bits/basic_string.tcc **** 
  64:/usr/include/newlib/c++/9.2.1/bits/basic_string.tcc ****       _Alloc_traits::_S_on_swap(_M_get_allocator(), __s._M_get_allocator());
  65:/usr/include/newlib/c++/9.2.1/bits/basic_string.tcc **** 
  66:/usr/include/newlib/c++/9.2.1/bits/basic_string.tcc ****       if (_M_is_local())
  67:/usr/include/newlib/c++/9.2.1/bits/basic_string.tcc **** 	if (__s._M_is_local())
  68:/usr/include/newlib/c++/9.2.1/bits/basic_string.tcc **** 	  {
  69:/usr/include/newlib/c++/9.2.1/bits/basic_string.tcc **** 	    if (length() && __s.length())
  70:/usr/include/newlib/c++/9.2.1/bits/basic_string.tcc **** 	      {
  71:/usr/include/newlib/c++/9.2.1/bits/basic_string.tcc **** 		_CharT __tmp_data[_S_local_capacity + 1];
ARM GAS  /tmp/ccZhYDze.s 			page 192


  72:/usr/include/newlib/c++/9.2.1/bits/basic_string.tcc **** 		traits_type::copy(__tmp_data, __s._M_local_buf,
  73:/usr/include/newlib/c++/9.2.1/bits/basic_string.tcc **** 				  _S_local_capacity + 1);
  74:/usr/include/newlib/c++/9.2.1/bits/basic_string.tcc **** 		traits_type::copy(__s._M_local_buf, _M_local_buf,
  75:/usr/include/newlib/c++/9.2.1/bits/basic_string.tcc **** 				  _S_local_capacity + 1);
  76:/usr/include/newlib/c++/9.2.1/bits/basic_string.tcc **** 		traits_type::copy(_M_local_buf, __tmp_data,
  77:/usr/include/newlib/c++/9.2.1/bits/basic_string.tcc **** 				  _S_local_capacity + 1);
  78:/usr/include/newlib/c++/9.2.1/bits/basic_string.tcc **** 	      }
  79:/usr/include/newlib/c++/9.2.1/bits/basic_string.tcc **** 	    else if (__s.length())
  80:/usr/include/newlib/c++/9.2.1/bits/basic_string.tcc **** 	      {
  81:/usr/include/newlib/c++/9.2.1/bits/basic_string.tcc **** 		traits_type::copy(_M_local_buf, __s._M_local_buf,
  82:/usr/include/newlib/c++/9.2.1/bits/basic_string.tcc **** 				  _S_local_capacity + 1);
  83:/usr/include/newlib/c++/9.2.1/bits/basic_string.tcc **** 		_M_length(__s.length());
  84:/usr/include/newlib/c++/9.2.1/bits/basic_string.tcc **** 		__s._M_set_length(0);
  85:/usr/include/newlib/c++/9.2.1/bits/basic_string.tcc **** 		return;
  86:/usr/include/newlib/c++/9.2.1/bits/basic_string.tcc **** 	      }
  87:/usr/include/newlib/c++/9.2.1/bits/basic_string.tcc **** 	    else if (length())
  88:/usr/include/newlib/c++/9.2.1/bits/basic_string.tcc **** 	      {
  89:/usr/include/newlib/c++/9.2.1/bits/basic_string.tcc **** 		traits_type::copy(__s._M_local_buf, _M_local_buf,
  90:/usr/include/newlib/c++/9.2.1/bits/basic_string.tcc **** 				  _S_local_capacity + 1);
  91:/usr/include/newlib/c++/9.2.1/bits/basic_string.tcc **** 		__s._M_length(length());
  92:/usr/include/newlib/c++/9.2.1/bits/basic_string.tcc **** 		_M_set_length(0);
  93:/usr/include/newlib/c++/9.2.1/bits/basic_string.tcc **** 		return;
  94:/usr/include/newlib/c++/9.2.1/bits/basic_string.tcc **** 	      }
  95:/usr/include/newlib/c++/9.2.1/bits/basic_string.tcc **** 	  }
  96:/usr/include/newlib/c++/9.2.1/bits/basic_string.tcc **** 	else
  97:/usr/include/newlib/c++/9.2.1/bits/basic_string.tcc **** 	  {
  98:/usr/include/newlib/c++/9.2.1/bits/basic_string.tcc **** 	    const size_type __tmp_capacity = __s._M_allocated_capacity;
  99:/usr/include/newlib/c++/9.2.1/bits/basic_string.tcc **** 	    traits_type::copy(__s._M_local_buf, _M_local_buf,
 100:/usr/include/newlib/c++/9.2.1/bits/basic_string.tcc **** 			      _S_local_capacity + 1);
 101:/usr/include/newlib/c++/9.2.1/bits/basic_string.tcc **** 	    _M_data(__s._M_data());
 102:/usr/include/newlib/c++/9.2.1/bits/basic_string.tcc **** 	    __s._M_data(__s._M_local_buf);
 103:/usr/include/newlib/c++/9.2.1/bits/basic_string.tcc **** 	    _M_capacity(__tmp_capacity);
 104:/usr/include/newlib/c++/9.2.1/bits/basic_string.tcc **** 	  }
 105:/usr/include/newlib/c++/9.2.1/bits/basic_string.tcc ****       else
 106:/usr/include/newlib/c++/9.2.1/bits/basic_string.tcc **** 	{
 107:/usr/include/newlib/c++/9.2.1/bits/basic_string.tcc **** 	  const size_type __tmp_capacity = _M_allocated_capacity;
 108:/usr/include/newlib/c++/9.2.1/bits/basic_string.tcc **** 	  if (__s._M_is_local())
 109:/usr/include/newlib/c++/9.2.1/bits/basic_string.tcc **** 	    {
 110:/usr/include/newlib/c++/9.2.1/bits/basic_string.tcc **** 	      traits_type::copy(_M_local_buf, __s._M_local_buf,
 111:/usr/include/newlib/c++/9.2.1/bits/basic_string.tcc **** 				_S_local_capacity + 1);
 112:/usr/include/newlib/c++/9.2.1/bits/basic_string.tcc **** 	      __s._M_data(_M_data());
 113:/usr/include/newlib/c++/9.2.1/bits/basic_string.tcc **** 	      _M_data(_M_local_buf);
 114:/usr/include/newlib/c++/9.2.1/bits/basic_string.tcc **** 	    }
 115:/usr/include/newlib/c++/9.2.1/bits/basic_string.tcc **** 	  else
 116:/usr/include/newlib/c++/9.2.1/bits/basic_string.tcc **** 	    {
 117:/usr/include/newlib/c++/9.2.1/bits/basic_string.tcc **** 	      pointer __tmp_ptr = _M_data();
 118:/usr/include/newlib/c++/9.2.1/bits/basic_string.tcc **** 	      _M_data(__s._M_data());
 119:/usr/include/newlib/c++/9.2.1/bits/basic_string.tcc **** 	      __s._M_data(__tmp_ptr);
 120:/usr/include/newlib/c++/9.2.1/bits/basic_string.tcc **** 	      _M_capacity(__s._M_allocated_capacity);
 121:/usr/include/newlib/c++/9.2.1/bits/basic_string.tcc **** 	    }
 122:/usr/include/newlib/c++/9.2.1/bits/basic_string.tcc **** 	  __s._M_capacity(__tmp_capacity);
 123:/usr/include/newlib/c++/9.2.1/bits/basic_string.tcc **** 	}
 124:/usr/include/newlib/c++/9.2.1/bits/basic_string.tcc **** 
 125:/usr/include/newlib/c++/9.2.1/bits/basic_string.tcc ****       const size_type __tmp_length = length();
 126:/usr/include/newlib/c++/9.2.1/bits/basic_string.tcc ****       _M_length(__s.length());
 127:/usr/include/newlib/c++/9.2.1/bits/basic_string.tcc ****       __s._M_length(__tmp_length);
 128:/usr/include/newlib/c++/9.2.1/bits/basic_string.tcc ****     }
ARM GAS  /tmp/ccZhYDze.s 			page 193


 129:/usr/include/newlib/c++/9.2.1/bits/basic_string.tcc **** 
 130:/usr/include/newlib/c++/9.2.1/bits/basic_string.tcc ****   template<typename _CharT, typename _Traits, typename _Alloc>
 131:/usr/include/newlib/c++/9.2.1/bits/basic_string.tcc ****     typename basic_string<_CharT, _Traits, _Alloc>::pointer
 132:/usr/include/newlib/c++/9.2.1/bits/basic_string.tcc ****     basic_string<_CharT, _Traits, _Alloc>::
 133:/usr/include/newlib/c++/9.2.1/bits/basic_string.tcc ****     _M_create(size_type& __capacity, size_type __old_capacity)
 134:/usr/include/newlib/c++/9.2.1/bits/basic_string.tcc ****     {
 135:/usr/include/newlib/c++/9.2.1/bits/basic_string.tcc ****       // _GLIBCXX_RESOLVE_LIB_DEFECTS
 136:/usr/include/newlib/c++/9.2.1/bits/basic_string.tcc ****       // 83.  String::npos vs. string::max_size()
 137:/usr/include/newlib/c++/9.2.1/bits/basic_string.tcc ****       if (__capacity > max_size())
 138:/usr/include/newlib/c++/9.2.1/bits/basic_string.tcc **** 	std::__throw_length_error(__N("basic_string::_M_create"));
 139:/usr/include/newlib/c++/9.2.1/bits/basic_string.tcc **** 
 140:/usr/include/newlib/c++/9.2.1/bits/basic_string.tcc ****       // The below implements an exponential growth policy, necessary to
 141:/usr/include/newlib/c++/9.2.1/bits/basic_string.tcc ****       // meet amortized linear time requirements of the library: see
 142:/usr/include/newlib/c++/9.2.1/bits/basic_string.tcc ****       // http://gcc.gnu.org/ml/libstdc++/2001-07/msg00085.html.
 143:/usr/include/newlib/c++/9.2.1/bits/basic_string.tcc ****       if (__capacity > __old_capacity && __capacity < 2 * __old_capacity)
 144:/usr/include/newlib/c++/9.2.1/bits/basic_string.tcc **** 	{
 145:/usr/include/newlib/c++/9.2.1/bits/basic_string.tcc **** 	  __capacity = 2 * __old_capacity;
 146:/usr/include/newlib/c++/9.2.1/bits/basic_string.tcc **** 	  // Never allocate a string bigger than max_size.
 147:/usr/include/newlib/c++/9.2.1/bits/basic_string.tcc **** 	  if (__capacity > max_size())
 148:/usr/include/newlib/c++/9.2.1/bits/basic_string.tcc **** 	    __capacity = max_size();
 149:/usr/include/newlib/c++/9.2.1/bits/basic_string.tcc **** 	}
 150:/usr/include/newlib/c++/9.2.1/bits/basic_string.tcc **** 
 151:/usr/include/newlib/c++/9.2.1/bits/basic_string.tcc ****       // NB: Need an array of char_type[__capacity], plus a terminating
 152:/usr/include/newlib/c++/9.2.1/bits/basic_string.tcc ****       // null char_type() element.
 153:/usr/include/newlib/c++/9.2.1/bits/basic_string.tcc ****       return _Alloc_traits::allocate(_M_get_allocator(), __capacity + 1);
 154:/usr/include/newlib/c++/9.2.1/bits/basic_string.tcc ****     }
 155:/usr/include/newlib/c++/9.2.1/bits/basic_string.tcc **** 
 156:/usr/include/newlib/c++/9.2.1/bits/basic_string.tcc ****   // NB: This is the special case for Input Iterators, used in
 157:/usr/include/newlib/c++/9.2.1/bits/basic_string.tcc ****   // istreambuf_iterators, etc.
 158:/usr/include/newlib/c++/9.2.1/bits/basic_string.tcc ****   // Input Iterators have a cost structure very different from
 159:/usr/include/newlib/c++/9.2.1/bits/basic_string.tcc ****   // pointers, calling for a different coding style.
 160:/usr/include/newlib/c++/9.2.1/bits/basic_string.tcc ****   template<typename _CharT, typename _Traits, typename _Alloc>
 161:/usr/include/newlib/c++/9.2.1/bits/basic_string.tcc ****     template<typename _InIterator>
 162:/usr/include/newlib/c++/9.2.1/bits/basic_string.tcc ****       void
 163:/usr/include/newlib/c++/9.2.1/bits/basic_string.tcc ****       basic_string<_CharT, _Traits, _Alloc>::
 164:/usr/include/newlib/c++/9.2.1/bits/basic_string.tcc ****       _M_construct(_InIterator __beg, _InIterator __end,
 165:/usr/include/newlib/c++/9.2.1/bits/basic_string.tcc **** 		   std::input_iterator_tag)
 166:/usr/include/newlib/c++/9.2.1/bits/basic_string.tcc ****       {
 167:/usr/include/newlib/c++/9.2.1/bits/basic_string.tcc **** 	size_type __len = 0;
 168:/usr/include/newlib/c++/9.2.1/bits/basic_string.tcc **** 	size_type __capacity = size_type(_S_local_capacity);
 169:/usr/include/newlib/c++/9.2.1/bits/basic_string.tcc **** 
 170:/usr/include/newlib/c++/9.2.1/bits/basic_string.tcc **** 	while (__beg != __end && __len < __capacity)
 171:/usr/include/newlib/c++/9.2.1/bits/basic_string.tcc **** 	  {
 172:/usr/include/newlib/c++/9.2.1/bits/basic_string.tcc **** 	    _M_data()[__len++] = *__beg;
 173:/usr/include/newlib/c++/9.2.1/bits/basic_string.tcc **** 	    ++__beg;
 174:/usr/include/newlib/c++/9.2.1/bits/basic_string.tcc **** 	  }
 175:/usr/include/newlib/c++/9.2.1/bits/basic_string.tcc **** 
 176:/usr/include/newlib/c++/9.2.1/bits/basic_string.tcc **** 	__try
 177:/usr/include/newlib/c++/9.2.1/bits/basic_string.tcc **** 	  {
 178:/usr/include/newlib/c++/9.2.1/bits/basic_string.tcc **** 	    while (__beg != __end)
 179:/usr/include/newlib/c++/9.2.1/bits/basic_string.tcc **** 	      {
 180:/usr/include/newlib/c++/9.2.1/bits/basic_string.tcc **** 		if (__len == __capacity)
 181:/usr/include/newlib/c++/9.2.1/bits/basic_string.tcc **** 		  {
 182:/usr/include/newlib/c++/9.2.1/bits/basic_string.tcc **** 		    // Allocate more space.
 183:/usr/include/newlib/c++/9.2.1/bits/basic_string.tcc **** 		    __capacity = __len + 1;
 184:/usr/include/newlib/c++/9.2.1/bits/basic_string.tcc **** 		    pointer __another = _M_create(__capacity, __len);
 185:/usr/include/newlib/c++/9.2.1/bits/basic_string.tcc **** 		    this->_S_copy(__another, _M_data(), __len);
ARM GAS  /tmp/ccZhYDze.s 			page 194


 186:/usr/include/newlib/c++/9.2.1/bits/basic_string.tcc **** 		    _M_dispose();
 187:/usr/include/newlib/c++/9.2.1/bits/basic_string.tcc **** 		    _M_data(__another);
 188:/usr/include/newlib/c++/9.2.1/bits/basic_string.tcc **** 		    _M_capacity(__capacity);
 189:/usr/include/newlib/c++/9.2.1/bits/basic_string.tcc **** 		  }
 190:/usr/include/newlib/c++/9.2.1/bits/basic_string.tcc **** 		_M_data()[__len++] = *__beg;
 191:/usr/include/newlib/c++/9.2.1/bits/basic_string.tcc **** 		++__beg;
 192:/usr/include/newlib/c++/9.2.1/bits/basic_string.tcc **** 	      }
 193:/usr/include/newlib/c++/9.2.1/bits/basic_string.tcc **** 	  }
 194:/usr/include/newlib/c++/9.2.1/bits/basic_string.tcc **** 	__catch(...)
 195:/usr/include/newlib/c++/9.2.1/bits/basic_string.tcc **** 	  {
 196:/usr/include/newlib/c++/9.2.1/bits/basic_string.tcc **** 	    _M_dispose();
 197:/usr/include/newlib/c++/9.2.1/bits/basic_string.tcc **** 	    __throw_exception_again;
 198:/usr/include/newlib/c++/9.2.1/bits/basic_string.tcc **** 	  }
 199:/usr/include/newlib/c++/9.2.1/bits/basic_string.tcc **** 
 200:/usr/include/newlib/c++/9.2.1/bits/basic_string.tcc **** 	_M_set_length(__len);
 201:/usr/include/newlib/c++/9.2.1/bits/basic_string.tcc ****       }
 202:/usr/include/newlib/c++/9.2.1/bits/basic_string.tcc **** 
 203:/usr/include/newlib/c++/9.2.1/bits/basic_string.tcc ****   template<typename _CharT, typename _Traits, typename _Alloc>
 204:/usr/include/newlib/c++/9.2.1/bits/basic_string.tcc ****     template<typename _InIterator>
 205:/usr/include/newlib/c++/9.2.1/bits/basic_string.tcc ****       void
 206:/usr/include/newlib/c++/9.2.1/bits/basic_string.tcc ****       basic_string<_CharT, _Traits, _Alloc>::
 6296              		.loc 23 206 7 view .LVU1493
 6297              	.LBB1740:
 6298              	.LBB1734:
 6299              	.LBI1704:
 396:/usr/include/newlib/c++/9.2.1/bits/basic_string.h ****       _GLIBCXX_NOEXCEPT
 6300              		.loc 19 396 7 view .LVU1494
 6301              	.LBB1719:
 6302              	.LBI1705:
 346:/usr/include/newlib/c++/9.2.1/bits/basic_string.h ****       {
 6303              		.loc 19 346 7 view .LVU1495
 6304              	.LBB1716:
 6305              	.LBI1706:
 346:/usr/include/newlib/c++/9.2.1/bits/basic_string.h ****       {
 6306              		.loc 19 346 7 view .LVU1496
 6307              	.LBB1713:
 6308              	.LBI1707:
 361:/usr/include/newlib/c++/9.2.1/bits/char_traits.h ****       {
 6309              		.loc 20 361 7 view .LVU1497
 6310              	.LBB1710:
 363:/usr/include/newlib/c++/9.2.1/bits/char_traits.h **** 	  return __s1;
 6311              		.loc 20 363 2 view .LVU1498
 6312              		.loc 20 365 2 view .LVU1499
 6313              		.loc 20 365 49 is_stmt 0 view .LVU1500
 6314 0072 0FCB     		ldm	r3, {r0, r1, r2, r3}
 6315 0074 07C5     		stmia	r5!, {r0, r1, r2}
 6316              	.LVL467:
 6317              		.loc 20 365 49 view .LVU1501
 6318              	.LBE1710:
 6319              	.LBE1713:
 6320              	.LBE1716:
 6321              	.LBE1719:
 6322              	.LBE1734:
 6323              	.LBB1735:
 6324              	.LBB1726:
 6325              	.LBB1727:
 300:/usr/include/newlib/c++/9.2.1/bits/char_traits.h **** 
ARM GAS  /tmp/ccZhYDze.s 			page 195


 6326              		.loc 20 300 14 view .LVU1502
 6327 0076 0022     		movs	r2, #0
 6328              	.LBE1727:
 6329              	.LBE1726:
 6330              	.LBE1735:
 6331              	.LBB1736:
 6332              	.LBB1720:
 6333              	.LBB1717:
 6334              	.LBB1714:
 6335              	.LBB1711:
 6336              		.loc 20 365 49 view .LVU1503
 6337 0078 2B70     		strb	r3, [r5]
 6338              	.LVL468:
 6339              		.loc 20 365 49 view .LVU1504
 6340              	.LBE1711:
 6341              	.LBE1714:
 6342              	.LBE1717:
 6343              	.LBE1720:
 6344              	.LBE1736:
 6345              	.LBB1737:
 6346              	.LBI1722:
 214:/usr/include/newlib/c++/9.2.1/bits/basic_string.h ****       {
 6347              		.loc 19 214 7 is_stmt 1 view .LVU1505
 6348              	.LBB1730:
 6349              	.LBI1723:
 182:/usr/include/newlib/c++/9.2.1/bits/basic_string.h ****       { _M_string_length = __length; }
 6350              		.loc 19 182 7 view .LVU1506
 182:/usr/include/newlib/c++/9.2.1/bits/basic_string.h ****       { _M_string_length = __length; }
 6351              		.loc 19 182 7 is_stmt 0 view .LVU1507
 6352              	.LBE1730:
 6353              	.LBE1737:
 6354              	.LBE1740:
 6355              	.LBE1743:
 6356              	.LBE1746:
 6357              	.LBE1749:
 6358              	.LBE1752:
 6359              	.LBE1759:
 6360              	.LBE1765:
 6361              	.LBE1781:
  70:ex_verb.cpp   ****     patch.display.Update();
 6362              		.loc 15 70 30 view .LVU1508
 6363 007a 3146     		mov	r1, r6
 6364 007c 1A48     		ldr	r0, .L427+44
 6365              	.LBB1782:
 6366              	.LBB1766:
 6367              	.LBB1760:
 6368              	.LBB1753:
 6369              	.LBB1750:
 6370              	.LBB1747:
 6371              	.LBB1744:
 6372              	.LBB1741:
 6373              	.LBB1738:
 6374              	.LBB1731:
 6375              	.LBB1728:
 300:/usr/include/newlib/c++/9.2.1/bits/char_traits.h **** 
 6376              		.loc 20 300 14 view .LVU1509
 6377 007e 8DF81D20 		strb	r2, [sp, #29]
ARM GAS  /tmp/ccZhYDze.s 			page 196


 6378              	.LBE1728:
 6379              	.LBE1731:
 6380              	.LBB1732:
 6381              	.LBB1725:
 183:/usr/include/newlib/c++/9.2.1/bits/basic_string.h **** 
 6382              		.loc 19 183 9 view .LVU1510
 6383 0082 CDF80CC0 		str	ip, [sp, #12]
 6384              	.LVL469:
 183:/usr/include/newlib/c++/9.2.1/bits/basic_string.h **** 
 6385              		.loc 19 183 9 view .LVU1511
 6386              	.LBE1725:
 6387              	.LBE1732:
 6388              	.LBB1733:
 6389              	.LBI1726:
 299:/usr/include/newlib/c++/9.2.1/bits/char_traits.h ****       { __c1 = __c2; }
 6390              		.loc 20 299 7 is_stmt 1 view .LVU1512
 6391              	.LBB1729:
 300:/usr/include/newlib/c++/9.2.1/bits/char_traits.h **** 
 6392              		.loc 20 300 9 view .LVU1513
 300:/usr/include/newlib/c++/9.2.1/bits/char_traits.h **** 
 6393              		.loc 20 300 9 is_stmt 0 view .LVU1514
 6394              	.LBE1729:
 6395              	.LBE1733:
 6396              	.LBE1738:
 6397              	.LBE1741:
 6398              	.LBE1744:
 6399              	.LBE1747:
 6400              	.LBE1750:
 6401              	.LBE1753:
 6402              	.LBE1760:
 6403              	.LBE1766:
 6404              	.LBE1782:
 6405              	.LBB1783:
 6406              	.LBI1783:
 142:/usr/include/newlib/c++/9.2.1/bits/allocator.h ****       : __allocator_base<_Tp>(__a) { }
 143:/usr/include/newlib/c++/9.2.1/bits/allocator.h **** 
 144:/usr/include/newlib/c++/9.2.1/bits/allocator.h **** #if __cplusplus >= 201103L
 145:/usr/include/newlib/c++/9.2.1/bits/allocator.h ****       // Avoid implicit deprecation.
 146:/usr/include/newlib/c++/9.2.1/bits/allocator.h ****       allocator& operator=(const allocator&) = default;
 147:/usr/include/newlib/c++/9.2.1/bits/allocator.h **** #endif
 148:/usr/include/newlib/c++/9.2.1/bits/allocator.h **** 
 149:/usr/include/newlib/c++/9.2.1/bits/allocator.h ****       template<typename _Tp1>
 150:/usr/include/newlib/c++/9.2.1/bits/allocator.h **** 	_GLIBCXX20_CONSTEXPR
 151:/usr/include/newlib/c++/9.2.1/bits/allocator.h **** 	allocator(const allocator<_Tp1>&) _GLIBCXX_NOTHROW { }
 152:/usr/include/newlib/c++/9.2.1/bits/allocator.h **** 
 153:/usr/include/newlib/c++/9.2.1/bits/allocator.h ****       ~allocator() _GLIBCXX_NOTHROW { }
 6407              		.loc 21 153 7 is_stmt 1 view .LVU1515
 6408              	.LBB1784:
 6409              	.LBI1784:
  84:/usr/include/newlib/c++/9.2.1/ext/new_allocator.h **** 
  85:/usr/include/newlib/c++/9.2.1/ext/new_allocator.h ****       template<typename _Tp1>
  86:/usr/include/newlib/c++/9.2.1/ext/new_allocator.h **** 	_GLIBCXX20_CONSTEXPR
  87:/usr/include/newlib/c++/9.2.1/ext/new_allocator.h **** 	new_allocator(const new_allocator<_Tp1>&) _GLIBCXX_USE_NOEXCEPT { }
  88:/usr/include/newlib/c++/9.2.1/ext/new_allocator.h **** 
  89:/usr/include/newlib/c++/9.2.1/ext/new_allocator.h ****       ~new_allocator() _GLIBCXX_USE_NOEXCEPT { }
 6410              		.loc 22 89 7 view .LVU1516
 6411              		.loc 22 89 7 is_stmt 0 view .LVU1517
ARM GAS  /tmp/ccZhYDze.s 			page 197


 6412              	.LBE1784:
 6413              	.LBE1783:
  69:ex_verb.cpp   ****     patch.display.WriteString(cstr, Font_7x10, true);
 6414              		.loc 15 69 5 is_stmt 1 view .LVU1518
  70:ex_verb.cpp   ****     patch.display.Update();
 6415              		.loc 15 70 5 view .LVU1519
  70:ex_verb.cpp   ****     patch.display.Update();
 6416              		.loc 15 70 30 is_stmt 0 view .LVU1520
 6417 0086 97E80C00 		ldm	r7, {r2, r3}
 6418 008a FFF7FEFF 		bl	_ZN5daisy25OneBitGraphicsDisplayImplINS_11OledDisplayINS_13SSD130xDriverILj128ELj64ENS_24SSD130
 6419              	.LVL470:
  71:ex_verb.cpp   ****     patch.DelayMs(1000);
 6420              		.loc 15 71 5 is_stmt 1 view .LVU1521
 6421              	.LBB1785:
 6422              	.LBI1785:
 6423              		.loc 5 50 10 view .LVU1522
 6424              	.LBB1786:
 6425              		.loc 5 50 30 is_stmt 0 view .LVU1523
 6426 008e 1748     		ldr	r0, .L427+48
 6427 0090 FFF7FEFF 		bl	_ZN5daisy13SSD130xDriverILj128ELj64ENS_24SSD130x4WireSpiTransportEE6UpdateEv
 6428              	.LVL471:
 6429              		.loc 5 50 30 view .LVU1524
 6430              	.LBE1786:
 6431              	.LBE1785:
  72:ex_verb.cpp   **** 
 6432              		.loc 15 72 5 is_stmt 1 view .LVU1525
  72:ex_verb.cpp   **** 
 6433              		.loc 15 72 18 is_stmt 0 view .LVU1526
 6434 0094 4FF47A71 		mov	r1, #1000
 6435 0098 A4F1CC00 		sub	r0, r4, #204
 6436 009c FFF7FEFF 		bl	_ZN5daisy10DaisyPatch7DelayMsEj
 6437              	.LVL472:
  74:ex_verb.cpp   ****     patch.StartAudio(VerbCallback);
 6438              		.loc 15 74 5 is_stmt 1 view .LVU1527
  74:ex_verb.cpp   ****     patch.StartAudio(VerbCallback);
 6439              		.loc 15 74 19 is_stmt 0 view .LVU1528
 6440 00a0 A4F1CC00 		sub	r0, r4, #204
 6441 00a4 FFF7FEFF 		bl	_ZN5daisy10DaisyPatch8StartAdcEv
 6442              	.LVL473:
  75:ex_verb.cpp   **** 
 6443              		.loc 15 75 5 is_stmt 1 view .LVU1529
  75:ex_verb.cpp   **** 
 6444              		.loc 15 75 21 is_stmt 0 view .LVU1530
 6445 00a8 A4F1CC00 		sub	r0, r4, #204
 6446 00ac 1049     		ldr	r1, .L427+52
 6447 00ae FFF7FEFF 		bl	_ZN5daisy10DaisyPatch10StartAudioEPFvPKPKfPPfjE
 6448              	.LVL474:
 6449              	.L425:
  77:ex_verb.cpp   ****     {
 6450              		.loc 15 77 5 is_stmt 1 discriminator 1 view .LVU1531
  79:ex_verb.cpp   ****     }
 6451              		.loc 15 79 9 discriminator 1 view .LVU1532
 6452              	.LBB1787:
 6453              	.LBI1787:
  83:ex_verb.cpp   **** {
 6454              		.loc 15 83 6 discriminator 1 view .LVU1533
 6455              	.LBB1788:
ARM GAS  /tmp/ccZhYDze.s 			page 198


 6456              		.loc 15 85 5 discriminator 1 view .LVU1534
 6457              		.loc 15 85 26 is_stmt 0 discriminator 1 view .LVU1535
 6458 00b2 0021     		movs	r1, #0
 6459 00b4 0248     		ldr	r0, .L427+4
 6460 00b6 FFF7FEFF 		bl	_ZN5daisy10DaisyPatch15DisplayControlsEb
 6461              	.LVL475:
 6462 00ba FAE7     		b	.L425
 6463              	.L428:
 6464              		.align	2
 6465              	.L427:
 6466 00bc 00000000 		.word	_ZL4verb
 6467 00c0 00000000 		.word	_ZL5patch
 6468 00c4 BC000000 		.word	_ZL5patch+188
 6469 00c8 00000000 		.word	Font_7x10
 6470 00cc 9A99593F 		.word	1062836634
 6471 00d0 00A08C46 		.word	1183621120
 6472 00d4 00000000 		.word	.LANCHOR3
 6473 00d8 0C000000 		.word	.LANCHOR3+12
 6474 00dc 00409C46 		.word	1184645120
 6475 00e0 00000000 		.word	.LANCHOR2
 6476 00e4 00000000 		.word	.LC2
 6477 00e8 A4910000 		.word	_ZL5patch+37284
 6478 00ec AC910000 		.word	_ZL5patch+37292
 6479 00f0 00000000 		.word	_ZL12VerbCallbackPKPKfPPfj
 6480              	.LBE1788:
 6481              	.LBE1787:
 6482              		.cfi_endproc
 6483              	.LFE4234:
 6485              		.section	.text.startup._GLOBAL__sub_I_lpParam,"ax",%progbits
 6486              		.align	1
 6487              		.p2align 2,,3
 6488              		.syntax unified
 6489              		.thumb
 6490              		.thumb_func
 6491              		.fpu fpv5-d16
 6493              	_GLOBAL__sub_I_lpParam:
 6494              	.LFB4833:
  86:ex_verb.cpp   **** }
 6495              		.loc 15 86 1 is_stmt 1 view -0
 6496              		.cfi_startproc
 6497              		@ args = 0, pretend = 0, frame = 0
 6498              		@ frame_needed = 0, uses_anonymous_args = 0
 6499              	.LBB1846:
 6500              	.LBI1846:
 6501              		.loc 15 86 1 view .LVU1537
 6502              	.LVL476:
 6503              	.LBB1847:
 6504              	.LBB1848:
 6505              	.LBI1848:
  39:../../libdaisy/src/daisy_patch.h ****     /** Destructor */
 6506              		.loc 4 39 5 view .LVU1538
 6507              	.LBB1849:
 6508              	.LBB1850:
 6509              	.LBI1850:
  21:../../libdaisy/src/daisy_seed.h ****     ~DaisySeed() {}
 6510              		.loc 10 21 5 view .LVU1539
 6511              	.LBB1851:
ARM GAS  /tmp/ccZhYDze.s 			page 199


 6512              	.LBB1852:
 6513              	.LBI1852:
  62:../../libdaisy/src/hid/audio.h ****     ~AudioHandle() {}
 6514              		.loc 14 62 5 view .LVU1540
 6515              	.LBE1852:
 6516              	.LBE1851:
 6517              	.LBE1850:
 6518              	.LBE1849:
 6519              	.LBE1848:
 6520              	.LBE1847:
 6521              	.LBE1846:
 6522              		.loc 15 86 1 is_stmt 0 view .LVU1541
 6523 0000 F8B5     		push	{r3, r4, r5, r6, r7, lr}
 6524              		.cfi_def_cfa_offset 24
 6525              		.cfi_offset 3, -24
 6526              		.cfi_offset 4, -20
 6527              		.cfi_offset 5, -16
 6528              		.cfi_offset 6, -12
 6529              		.cfi_offset 7, -8
 6530              		.cfi_offset 14, -4
 6531              	.LBB1963:
 6532              	.LBB1960:
 6533              	.LBB1953:
 6534              	.LBB1950:
 6535              	.LBB1871:
 6536              	.LBB1872:
 6537              	.LBB1873:
 6538              	.LBB1874:
 6539              	.LBB1875:
 6540              	.LBB1876:
 6541              	.LBB1877:
  36:../../libdaisy/src/hid/midi.h ****             tx     = {DSY_GPIOB, 6};
 6542              		.loc 7 36 20 view .LVU1542
 6543 0002 1F4B     		ldr	r3, .L431
 6544 0004 49F29415 		movw	r5, #37268
 6545              	.LBE1877:
 6546              	.LBE1876:
 6547              	.LBE1875:
 6548              	.LBE1874:
 6549              	.LBE1873:
 6550              	.LBE1872:
 6551              	.LBE1871:
 6552              	.LBB1916:
 6553              	.LBB1868:
 6554              	.LBB1859:
 6555              	.LBB1853:
 6556              	.LBB1854:
  62:../../libdaisy/src/hid/audio.h ****     ~AudioHandle() {}
 6557              		.loc 14 62 35 view .LVU1543
 6558 0008 1E48     		ldr	r0, .L431+4
 6559              	.LBE1854:
 6560              	.LBE1853:
 6561              	.LBE1859:
 6562              	.LBE1868:
 6563              	.LBE1916:
 6564              	.LBB1917:
 6565              	.LBB1912:
ARM GAS  /tmp/ccZhYDze.s 			page 200


 6566              	.LBB1908:
 6567              	.LBB1890:
 6568              	.LBB1886:
 6569              	.LBB1882:
 6570              	.LBB1878:
  37:../../libdaisy/src/hid/midi.h ****         }
 6571              		.loc 7 37 20 view .LVU1544
 6572 000a 49F29611 		movw	r1, #37270
  36:../../libdaisy/src/hid/midi.h ****             tx     = {DSY_GPIOB, 6};
 6573              		.loc 7 36 20 view .LVU1545
 6574 000e 1E88     		ldrh	r6, [r3]
 6575              	.LBE1878:
 6576              	.LBE1882:
 6577              	.LBE1886:
 6578              	.LBE1890:
 6579              	.LBE1908:
 6580              	.LBE1912:
 6581              	.LBE1917:
 6582              	.LBB1918:
 6583              	.LBB1869:
 6584              	.LBB1860:
 6585              	.LBB1857:
 6586              	.LBB1855:
  62:../../libdaisy/src/hid/audio.h ****     ~AudioHandle() {}
 6587              		.loc 14 62 35 view .LVU1546
 6588 0010 0024     		movs	r4, #0
 6589              	.LBE1855:
 6590              	.LBE1857:
 6591              	.LBE1860:
 6592              	.LBE1869:
 6593              	.LBE1918:
 6594              	.LBB1919:
 6595              	.LBB1913:
 6596              	.LBB1909:
 6597              	.LBB1891:
 6598              	.LBB1887:
 6599              	.LBB1883:
 6600              	.LBB1879:
  37:../../libdaisy/src/hid/midi.h ****         }
 6601              		.loc 7 37 20 view .LVU1547
 6602 0012 9B88     		ldrh	r3, [r3, #4]
  35:../../libdaisy/src/hid/midi.h ****             rx     = {DSY_GPIOB, 7};
 6603              		.loc 7 35 20 view .LVU1548
 6604 0014 49F29017 		movw	r7, #37264
  36:../../libdaisy/src/hid/midi.h ****             tx     = {DSY_GPIOB, 6};
 6605              		.loc 7 36 20 view .LVU1549
 6606 0018 4653     		strh	r6, [r0, r5]	@ movhi
 6607              	.LBE1879:
 6608              	.LBE1883:
 6609              	.LBE1887:
 6610              	.LBE1891:
 6611              	.LBB1892:
 6612              	.LBB1893:
 6613              	.LBB1894:
 6614              	.LBB1895:
 6615              		.file 24 "../../libdaisy/src/per/uart.h"
   1:../../libdaisy/src/per/uart.h **** /* 
ARM GAS  /tmp/ccZhYDze.s 			page 201


   2:../../libdaisy/src/per/uart.h **** TODO
   3:../../libdaisy/src/per/uart.h **** - UART1 defaults to DMA, add flexible config for DMA on all periphs
   4:../../libdaisy/src/per/uart.h **** - Transmit function improvements.
   5:../../libdaisy/src/per/uart.h **** - Overflow handling, etc. for Rx Queue.
   6:../../libdaisy/src/per/uart.h **** */
   7:../../libdaisy/src/per/uart.h **** 
   8:../../libdaisy/src/per/uart.h **** #pragma once
   9:../../libdaisy/src/per/uart.h **** #ifndef DSY_UART_H
  10:../../libdaisy/src/per/uart.h **** #define DSY_UART_H /**< macro */
  11:../../libdaisy/src/per/uart.h **** #include "daisy_core.h"
  12:../../libdaisy/src/per/uart.h **** 
  13:../../libdaisy/src/per/uart.h **** 
  14:../../libdaisy/src/per/uart.h **** namespace daisy
  15:../../libdaisy/src/per/uart.h **** {
  16:../../libdaisy/src/per/uart.h **** /** @addtogroup serial
  17:../../libdaisy/src/per/uart.h ****     @{
  18:../../libdaisy/src/per/uart.h ****     */
  19:../../libdaisy/src/per/uart.h **** 
  20:../../libdaisy/src/per/uart.h **** /** 
  21:../../libdaisy/src/per/uart.h ****     Uart Peripheral
  22:../../libdaisy/src/per/uart.h ****     @author shensley
  23:../../libdaisy/src/per/uart.h ****     @date March 2020
  24:../../libdaisy/src/per/uart.h ****     */
  25:../../libdaisy/src/per/uart.h **** class UartHandler
  26:../../libdaisy/src/per/uart.h **** {
  27:../../libdaisy/src/per/uart.h ****   public:
  28:../../libdaisy/src/per/uart.h ****     struct Config
  29:../../libdaisy/src/per/uart.h ****     {
  30:../../libdaisy/src/per/uart.h ****         enum class Peripheral
  31:../../libdaisy/src/per/uart.h ****         {
  32:../../libdaisy/src/per/uart.h ****             USART_1,
  33:../../libdaisy/src/per/uart.h ****             USART_2,
  34:../../libdaisy/src/per/uart.h ****             USART_3,
  35:../../libdaisy/src/per/uart.h ****             UART_4,
  36:../../libdaisy/src/per/uart.h ****             UART_5,
  37:../../libdaisy/src/per/uart.h ****             USART_6,
  38:../../libdaisy/src/per/uart.h ****             UART_7,
  39:../../libdaisy/src/per/uart.h ****             UART_8,
  40:../../libdaisy/src/per/uart.h ****             LPUART_1,
  41:../../libdaisy/src/per/uart.h ****         };
  42:../../libdaisy/src/per/uart.h **** 
  43:../../libdaisy/src/per/uart.h ****         enum class StopBits
  44:../../libdaisy/src/per/uart.h ****         {
  45:../../libdaisy/src/per/uart.h ****             BITS_0_5,
  46:../../libdaisy/src/per/uart.h ****             BITS_1,
  47:../../libdaisy/src/per/uart.h ****             BITS_1_5,
  48:../../libdaisy/src/per/uart.h ****             BITS_2,
  49:../../libdaisy/src/per/uart.h ****         };
  50:../../libdaisy/src/per/uart.h **** 
  51:../../libdaisy/src/per/uart.h ****         enum class Parity
  52:../../libdaisy/src/per/uart.h ****         {
  53:../../libdaisy/src/per/uart.h ****             NONE,
  54:../../libdaisy/src/per/uart.h ****             EVEN,
  55:../../libdaisy/src/per/uart.h ****             ODD,
  56:../../libdaisy/src/per/uart.h ****         };
  57:../../libdaisy/src/per/uart.h **** 
  58:../../libdaisy/src/per/uart.h ****         enum class Mode
ARM GAS  /tmp/ccZhYDze.s 			page 202


  59:../../libdaisy/src/per/uart.h ****         {
  60:../../libdaisy/src/per/uart.h ****             RX,
  61:../../libdaisy/src/per/uart.h ****             TX,
  62:../../libdaisy/src/per/uart.h ****             TX_RX,
  63:../../libdaisy/src/per/uart.h ****         };
  64:../../libdaisy/src/per/uart.h **** 
  65:../../libdaisy/src/per/uart.h ****         enum class WordLength
  66:../../libdaisy/src/per/uart.h ****         {
  67:../../libdaisy/src/per/uart.h ****             BITS_7,
  68:../../libdaisy/src/per/uart.h ****             BITS_8,
  69:../../libdaisy/src/per/uart.h ****             BITS_9,
  70:../../libdaisy/src/per/uart.h ****         };
  71:../../libdaisy/src/per/uart.h **** 
  72:../../libdaisy/src/per/uart.h ****         struct
  73:../../libdaisy/src/per/uart.h ****         {
  74:../../libdaisy/src/per/uart.h ****             dsy_gpio_pin tx; /**< & */
  75:../../libdaisy/src/per/uart.h ****             dsy_gpio_pin rx; /**< & */
  76:../../libdaisy/src/per/uart.h ****         } pin_config;        /**< & */
  77:../../libdaisy/src/per/uart.h **** 
  78:../../libdaisy/src/per/uart.h ****         Peripheral periph;
  79:../../libdaisy/src/per/uart.h ****         StopBits   stopbits;
  80:../../libdaisy/src/per/uart.h ****         Parity     parity;
  81:../../libdaisy/src/per/uart.h ****         Mode       mode;
  82:../../libdaisy/src/per/uart.h ****         WordLength wordlength;
  83:../../libdaisy/src/per/uart.h ****         uint32_t   baudrate;
  84:../../libdaisy/src/per/uart.h ****     };
  85:../../libdaisy/src/per/uart.h **** 
  86:../../libdaisy/src/per/uart.h **** 
  87:../../libdaisy/src/per/uart.h ****     UartHandler() : pimpl_(nullptr) {}
 6616              		.loc 24 87 35 view .LVU1550
 6617 001a 49F29815 		movw	r5, #37272
 6618              	.LBE1895:
 6619              	.LBE1894:
 6620              	.LBE1893:
 6621              	.LBE1892:
 6622              	.LBB1900:
 6623              	.LBB1888:
 6624              	.LBB1884:
 6625              	.LBB1880:
  37:../../libdaisy/src/hid/midi.h ****         }
 6626              		.loc 7 37 20 view .LVU1551
 6627 001e 4352     		strh	r3, [r0, r1]	@ movhi
 6628              	.LBE1880:
 6629              	.LBE1884:
 6630              	.LBE1888:
 6631              	.LBE1900:
  82:../../libdaisy/src/hid/midi.h ****     ~MidiHandler() {}
 6632              		.loc 7 82 19 view .LVU1552
 6633 0020 4FF60F06 		movw	r6, #63503
 6634 0024 49F2A013 		movw	r3, #37280
 6635              	.LBB1901:
 6636              	.LBB1898:
 6637              	.LBB1897:
 6638              	.LBB1896:
 6639              		.loc 24 87 35 view .LVU1553
 6640 0028 4451     		str	r4, [r0, r5]
 6641              	.LBE1896:
ARM GAS  /tmp/ccZhYDze.s 			page 203


 6642              	.LBE1897:
 6643              	.LBE1898:
 6644              	.LBE1901:
  82:../../libdaisy/src/hid/midi.h ****     ~MidiHandler() {}
 6645              		.loc 7 82 19 view .LVU1554
 6646 002a 49F29C11 		movw	r1, #37276
 6647 002e 164D     		ldr	r5, .L431+8
 6648 0030 C652     		strh	r6, [r0, r3]	@ movhi
 6649 0032 49F2A213 		movw	r3, #37282
 6650 0036 0726     		movs	r6, #7
 6651 0038 4550     		str	r5, [r0, r1]
 6652              	.LBE1909:
 6653              	.LBE1913:
 6654              	.LBE1919:
 6655              	.LBB1920:
 6656              	.LBB1921:
 6657              	.LBB1922:
  16:../../libdaisy/src/hid/disp/oled_display.h ****     virtual ~OledDisplay() {}
 6658              		.loc 5 16 19 view .LVU1555
 6659 003a 49F2A411 		movw	r1, #37284
 6660 003e 134D     		ldr	r5, .L431+12
 6661              	.LBE1922:
 6662              	.LBE1921:
 6663              	.LBE1920:
 6664              	.LBB1942:
 6665              	.LBB1914:
 6666              	.LBB1910:
  82:../../libdaisy/src/hid/midi.h ****     ~MidiHandler() {}
 6667              		.loc 7 82 19 view .LVU1556
 6668 0040 C654     		strb	r6, [r0, r3]
 6669              	.LBE1910:
 6670              	.LBE1914:
 6671              	.LBE1942:
 6672              	.LBB1943:
 6673              	.LBB1940:
 6674              	.LBB1938:
 6675              	.LBB1923:
 6676              	.LBB1924:
 6677              	.LBB1925:
 6678              	.LBB1926:
 6679              	.LBB1927:
 6680              		.file 25 "../../libdaisy/src/per/spi.h"
   1:../../libdaisy/src/per/spi.h **** #pragma once
   2:../../libdaisy/src/per/spi.h **** #ifndef DSY_SPI_H
   3:../../libdaisy/src/per/spi.h **** #define DSY_SPI_H
   4:../../libdaisy/src/per/spi.h **** 
   5:../../libdaisy/src/per/spi.h **** #include "daisy_core.h"
   6:../../libdaisy/src/per/spi.h **** 
   7:../../libdaisy/src/per/spi.h **** /* TODO:
   8:../../libdaisy/src/per/spi.h **** - Add documentation
   9:../../libdaisy/src/per/spi.h **** - Add reception
  10:../../libdaisy/src/per/spi.h **** - Add IT
  11:../../libdaisy/src/per/spi.h **** - Add DMA
  12:../../libdaisy/src/per/spi.h **** */
  13:../../libdaisy/src/per/spi.h **** 
  14:../../libdaisy/src/per/spi.h **** namespace daisy
  15:../../libdaisy/src/per/spi.h **** {
ARM GAS  /tmp/ccZhYDze.s 			page 204


  16:../../libdaisy/src/per/spi.h **** /** @addtogroup serial
  17:../../libdaisy/src/per/spi.h **** @{
  18:../../libdaisy/src/per/spi.h **** */
  19:../../libdaisy/src/per/spi.h **** 
  20:../../libdaisy/src/per/spi.h **** /**  Handler for serial peripheral interface */
  21:../../libdaisy/src/per/spi.h **** class SpiHandle
  22:../../libdaisy/src/per/spi.h **** {
  23:../../libdaisy/src/per/spi.h ****   public:
  24:../../libdaisy/src/per/spi.h ****     struct Config
  25:../../libdaisy/src/per/spi.h ****     {
  26:../../libdaisy/src/per/spi.h ****         enum class Peripheral
  27:../../libdaisy/src/per/spi.h ****         {
  28:../../libdaisy/src/per/spi.h ****             SPI_1,
  29:../../libdaisy/src/per/spi.h ****             SPI_2,
  30:../../libdaisy/src/per/spi.h ****             SPI_3,
  31:../../libdaisy/src/per/spi.h ****             SPI_4,
  32:../../libdaisy/src/per/spi.h ****             SPI_5,
  33:../../libdaisy/src/per/spi.h ****             SPI_6,
  34:../../libdaisy/src/per/spi.h ****         };
  35:../../libdaisy/src/per/spi.h **** 
  36:../../libdaisy/src/per/spi.h ****         enum class Mode
  37:../../libdaisy/src/per/spi.h ****         {
  38:../../libdaisy/src/per/spi.h ****             MASTER,
  39:../../libdaisy/src/per/spi.h ****             SLAVE,
  40:../../libdaisy/src/per/spi.h ****         };
  41:../../libdaisy/src/per/spi.h **** 
  42:../../libdaisy/src/per/spi.h ****         enum class Direction
  43:../../libdaisy/src/per/spi.h ****         {
  44:../../libdaisy/src/per/spi.h ****             TWO_LINES,
  45:../../libdaisy/src/per/spi.h ****             TWO_LINES_TX_ONLY,
  46:../../libdaisy/src/per/spi.h ****             TWO_LINES_RX_ONLY,
  47:../../libdaisy/src/per/spi.h ****             ONE_LINE,
  48:../../libdaisy/src/per/spi.h ****         };
  49:../../libdaisy/src/per/spi.h **** 
  50:../../libdaisy/src/per/spi.h ****         enum class ClockPolarity
  51:../../libdaisy/src/per/spi.h ****         {
  52:../../libdaisy/src/per/spi.h ****             LOW,
  53:../../libdaisy/src/per/spi.h ****             HIGH,
  54:../../libdaisy/src/per/spi.h ****         };
  55:../../libdaisy/src/per/spi.h **** 
  56:../../libdaisy/src/per/spi.h ****         enum class ClockPhase
  57:../../libdaisy/src/per/spi.h ****         {
  58:../../libdaisy/src/per/spi.h ****             ONE_EDGE,
  59:../../libdaisy/src/per/spi.h ****             TWO_EDGE,
  60:../../libdaisy/src/per/spi.h ****         };
  61:../../libdaisy/src/per/spi.h **** 
  62:../../libdaisy/src/per/spi.h ****         enum class NSS
  63:../../libdaisy/src/per/spi.h ****         {
  64:../../libdaisy/src/per/spi.h ****             SOFT,
  65:../../libdaisy/src/per/spi.h ****             HARD_INPUT,
  66:../../libdaisy/src/per/spi.h ****             HARD_OUTPUT,
  67:../../libdaisy/src/per/spi.h ****         };
  68:../../libdaisy/src/per/spi.h **** 
  69:../../libdaisy/src/per/spi.h ****         enum class BaudPrescaler
  70:../../libdaisy/src/per/spi.h ****         {
  71:../../libdaisy/src/per/spi.h ****             PS_2,
  72:../../libdaisy/src/per/spi.h ****             PS_4,
ARM GAS  /tmp/ccZhYDze.s 			page 205


  73:../../libdaisy/src/per/spi.h ****             PS_8,
  74:../../libdaisy/src/per/spi.h ****             PS_16,
  75:../../libdaisy/src/per/spi.h ****             PS_32,
  76:../../libdaisy/src/per/spi.h ****             PS_64,
  77:../../libdaisy/src/per/spi.h ****             PS_128,
  78:../../libdaisy/src/per/spi.h ****             PS_256,
  79:../../libdaisy/src/per/spi.h ****         };
  80:../../libdaisy/src/per/spi.h **** 
  81:../../libdaisy/src/per/spi.h ****         struct
  82:../../libdaisy/src/per/spi.h ****         {
  83:../../libdaisy/src/per/spi.h ****             dsy_gpio_pin sclk; /**< & */
  84:../../libdaisy/src/per/spi.h ****             dsy_gpio_pin miso; /**< & */
  85:../../libdaisy/src/per/spi.h ****             dsy_gpio_pin mosi; /**< & */
  86:../../libdaisy/src/per/spi.h ****             dsy_gpio_pin nss;  /**< & */
  87:../../libdaisy/src/per/spi.h ****         } pin_config;
  88:../../libdaisy/src/per/spi.h **** 
  89:../../libdaisy/src/per/spi.h ****         Peripheral    periph;
  90:../../libdaisy/src/per/spi.h ****         Mode          mode;
  91:../../libdaisy/src/per/spi.h ****         Direction     direction;
  92:../../libdaisy/src/per/spi.h ****         unsigned long datasize;
  93:../../libdaisy/src/per/spi.h ****         ClockPolarity clock_polarity;
  94:../../libdaisy/src/per/spi.h ****         ClockPhase    clock_phase;
  95:../../libdaisy/src/per/spi.h ****         NSS           nss;
  96:../../libdaisy/src/per/spi.h ****         BaudPrescaler baud_prescaler;
  97:../../libdaisy/src/per/spi.h ****     };
  98:../../libdaisy/src/per/spi.h **** 
  99:../../libdaisy/src/per/spi.h ****     SpiHandle() : pimpl_(nullptr) {}
 6681              		.loc 25 99 33 view .LVU1557
 6682 0042 49F2AC13 		movw	r3, #37292
 6683              	.LBE1927:
 6684              	.LBE1926:
 6685              	.LBE1925:
 6686              	.LBE1924:
 6687              	.LBE1923:
  16:../../libdaisy/src/hid/disp/oled_display.h ****     virtual ~OledDisplay() {}
 6688              		.loc 5 16 19 view .LVU1558
 6689 0046 4550     		str	r5, [r0, r1]
 6690              	.LBB1934:
 6691              	.LBB1932:
 6692              	.LBB1930:
 6693              	.LBB1929:
 6694              	.LBB1928:
 6695              		.loc 25 99 33 view .LVU1559
 6696 0048 C450     		str	r4, [r0, r3]
 6697              	.LBE1928:
 6698              	.LBE1929:
 6699              	.LBE1930:
 6700              	.LBE1932:
 6701              	.LBE1934:
 6702              	.LBE1938:
 6703              	.LBE1940:
 6704              	.LBE1943:
 6705              	.LBE1950:
 6706              	.LBE1953:
   7:ex_verb.cpp   **** static ReverbSc   verb;
 6707              		.loc 15 7 19 view .LVU1560
 6708 004a 114A     		ldr	r2, .L431+16
ARM GAS  /tmp/ccZhYDze.s 			page 206


 6709 004c 1149     		ldr	r1, .L431+20
 6710              	.LBB1954:
 6711              	.LBB1951:
 6712              	.LBB1944:
 6713              	.LBB1870:
 6714              	.LBB1861:
 6715              	.LBB1858:
 6716              	.LBB1856:
  62:../../libdaisy/src/hid/audio.h ****     ~AudioHandle() {}
 6717              		.loc 14 62 35 view .LVU1561
 6718 004e 4461     		str	r4, [r0, #20]
 6719              	.LVL477:
  62:../../libdaisy/src/hid/audio.h ****     ~AudioHandle() {}
 6720              		.loc 14 62 35 view .LVU1562
 6721              	.LBE1856:
 6722              	.LBE1858:
 6723              	.LBE1861:
 6724              	.LBB1862:
 6725              	.LBI1862:
  84:../../libdaisy/src/per/adc.h ****     ~AdcHandle() {}
 6726              		.loc 13 84 5 is_stmt 1 view .LVU1563
  84:../../libdaisy/src/per/adc.h ****     ~AdcHandle() {}
 6727              		.loc 13 84 5 is_stmt 0 view .LVU1564
 6728              	.LBE1862:
 6729              	.LBB1863:
 6730              	.LBI1863:
 6731              		.file 26 "../../libdaisy/src/per/dac.h"
   1:../../libdaisy/src/per/dac.h **** #pragma once
   2:../../libdaisy/src/per/dac.h **** #ifndef DSY_DAC_H
   3:../../libdaisy/src/per/dac.h **** #define DSY_DAC_H
   4:../../libdaisy/src/per/dac.h **** 
   5:../../libdaisy/src/per/dac.h **** #include "daisy_core.h"
   6:../../libdaisy/src/per/dac.h **** 
   7:../../libdaisy/src/per/dac.h **** namespace daisy
   8:../../libdaisy/src/per/dac.h **** {
   9:../../libdaisy/src/per/dac.h **** /** DAC handle for Built-in DAC Peripheral 
  10:../../libdaisy/src/per/dac.h ****  ** 
  11:../../libdaisy/src/per/dac.h ****  ** For now only Normal Mode is supported,
  12:../../libdaisy/src/per/dac.h ****  ** Sample and hold mode provides reduced power consumption, but requires a bit more setup.
  13:../../libdaisy/src/per/dac.h ****  **
  14:../../libdaisy/src/per/dac.h ****  ** For now connecting the DAC through other internal periphearls is also not supported.
  15:../../libdaisy/src/per/dac.h ****  **
  16:../../libdaisy/src/per/dac.h ****  ** Since the DAC channels have dedicated pins we don't need to pass in a pin config like with
  17:../../libdaisy/src/per/dac.h ****  ** other modules. However, it is still important to not try to use the DAC pins for anything else.
  18:../../libdaisy/src/per/dac.h ****  ** DAC Channel 1 is on PA4, and DAC Channel 2 is on PA5
  19:../../libdaisy/src/per/dac.h ****  ***/
  20:../../libdaisy/src/per/dac.h **** class DacHandle
  21:../../libdaisy/src/per/dac.h **** {
  22:../../libdaisy/src/per/dac.h ****   public:
  23:../../libdaisy/src/per/dac.h ****     /** Return Values for the DacHandle class */
  24:../../libdaisy/src/per/dac.h ****     enum class Result
  25:../../libdaisy/src/per/dac.h ****     {
  26:../../libdaisy/src/per/dac.h ****         OK,
  27:../../libdaisy/src/per/dac.h ****         ERR,
  28:../../libdaisy/src/per/dac.h ****     };
  29:../../libdaisy/src/per/dac.h **** 
  30:../../libdaisy/src/per/dac.h ****     /** Selects which channel(s) will be configured for use. */
ARM GAS  /tmp/ccZhYDze.s 			page 207


  31:../../libdaisy/src/per/dac.h ****     enum class Channel
  32:../../libdaisy/src/per/dac.h ****     {
  33:../../libdaisy/src/per/dac.h ****         ONE,
  34:../../libdaisy/src/per/dac.h ****         TWO,
  35:../../libdaisy/src/per/dac.h ****         BOTH,
  36:../../libdaisy/src/per/dac.h ****     };
  37:../../libdaisy/src/per/dac.h **** 
  38:../../libdaisy/src/per/dac.h ****     /** Sets the Mode for the DAC channels.
  39:../../libdaisy/src/per/dac.h ****      **
  40:../../libdaisy/src/per/dac.h ****      ** Polling mode uses the blocking mode to transmit a single value at a time.
  41:../../libdaisy/src/per/dac.h ****      **
  42:../../libdaisy/src/per/dac.h ****      ** DMA mode uses a buffer, and periodically transmits it triggering a 
  43:../../libdaisy/src/per/dac.h ****      ** callback to fill the buffer when it is ready for more samples.
  44:../../libdaisy/src/per/dac.h ****      ***/
  45:../../libdaisy/src/per/dac.h ****     enum class Mode
  46:../../libdaisy/src/per/dac.h ****     {
  47:../../libdaisy/src/per/dac.h ****         POLLING,
  48:../../libdaisy/src/per/dac.h ****         DMA,
  49:../../libdaisy/src/per/dac.h ****     };
  50:../../libdaisy/src/per/dac.h **** 
  51:../../libdaisy/src/per/dac.h ****     /** Sets the number of bits per sample transmitted out of the DAC.
  52:../../libdaisy/src/per/dac.h ****      ** The output range will be: 0V - VDDA
  53:../../libdaisy/src/per/dac.h ****      ** The resolution will be roughly: bitdepth / (VDDA - 0V) 
  54:../../libdaisy/src/per/dac.h ****      ***/
  55:../../libdaisy/src/per/dac.h ****     enum class BitDepth
  56:../../libdaisy/src/per/dac.h ****     {
  57:../../libdaisy/src/per/dac.h ****         BITS_8,
  58:../../libdaisy/src/per/dac.h ****         BITS_12
  59:../../libdaisy/src/per/dac.h ****     };
  60:../../libdaisy/src/per/dac.h **** 
  61:../../libdaisy/src/per/dac.h ****     /** Sets whether the DAC output is buffered for higher drive ability. */
  62:../../libdaisy/src/per/dac.h ****     enum class BufferState
  63:../../libdaisy/src/per/dac.h ****     {
  64:../../libdaisy/src/per/dac.h ****         ENABLED,
  65:../../libdaisy/src/per/dac.h ****         DISABLED,
  66:../../libdaisy/src/per/dac.h ****     };
  67:../../libdaisy/src/per/dac.h **** 
  68:../../libdaisy/src/per/dac.h ****     /** Configuration structure for initializing the DAC structure. */
  69:../../libdaisy/src/per/dac.h ****     struct Config
  70:../../libdaisy/src/per/dac.h ****     {
  71:../../libdaisy/src/per/dac.h ****         /** Target Samplerate in Hz used to configure the internal 
  72:../../libdaisy/src/per/dac.h ****          ** timebase for DMA mode. Does nothing in POLLING mode.
  73:../../libdaisy/src/per/dac.h ****          ** If the value is 0 at Init time this will default to 48000Hz 
  74:../../libdaisy/src/per/dac.h ****          ** otherwise the driver will attempt meet the target.*/
  75:../../libdaisy/src/per/dac.h ****         uint32_t target_samplerate;
  76:../../libdaisy/src/per/dac.h **** 
  77:../../libdaisy/src/per/dac.h ****         Channel     chn;
  78:../../libdaisy/src/per/dac.h ****         Mode        mode;
  79:../../libdaisy/src/per/dac.h ****         BitDepth    bitdepth;
  80:../../libdaisy/src/per/dac.h ****         BufferState buff_state;
  81:../../libdaisy/src/per/dac.h ****     };
  82:../../libdaisy/src/per/dac.h **** 
  83:../../libdaisy/src/per/dac.h ****     DacHandle() : pimpl_(nullptr) {}
 6732              		.loc 26 83 5 is_stmt 1 view .LVU1565
 6733              	.LBB1864:
 6734              	.LBB1865:
 6735              		.loc 26 83 33 is_stmt 0 view .LVU1566
ARM GAS  /tmp/ccZhYDze.s 			page 208


 6736 0050 0462     		str	r4, [r0, #32]
 6737              	.LVL478:
 6738              		.loc 26 83 33 view .LVU1567
 6739              	.LBE1865:
 6740              	.LBE1864:
 6741              	.LBE1863:
 6742              	.LBB1866:
 6743              	.LBI1866:
  40:../../libdaisy/src/hid/usb.h **** 
 6744              		.loc 12 40 5 is_stmt 1 view .LVU1568
  40:../../libdaisy/src/hid/usb.h **** 
 6745              		.loc 12 40 5 is_stmt 0 view .LVU1569
 6746              	.LBE1866:
 6747              	.LBB1867:
 6748              	.LBI1867:
  58:../../libdaisy/src/sys/system.h ****     ~System() {}
 6749              		.loc 11 58 5 is_stmt 1 view .LVU1570
  58:../../libdaisy/src/sys/system.h ****     ~System() {}
 6750              		.loc 11 58 5 is_stmt 0 view .LVU1571
 6751              	.LBE1867:
 6752              	.LBE1870:
 6753              	.LBE1944:
 6754              	.LBB1945:
 6755              	.LBI1945:
  20:../../libdaisy/src/hid/encoder.h ****     ~Encoder() {}
 6756              		.loc 8 20 5 is_stmt 1 view .LVU1572
 6757              	.LBB1946:
 6758              	.LBB1947:
 6759              	.LBI1947:
  40:../../libdaisy/src/hid/switch.h ****     ~Switch() {}
 6760              		.loc 9 40 5 view .LVU1573
  40:../../libdaisy/src/hid/switch.h ****     ~Switch() {}
 6761              		.loc 9 40 5 is_stmt 0 view .LVU1574
 6762              	.LBE1947:
 6763              	.LBE1946:
 6764              	.LBE1945:
 6765              	.LBE1951:
 6766              	.LBE1954:
 6767              	.LBE1960:
 6768              	.LBE1963:
  39:../../libdaisy/src/daisy_patch.h ****     /** Destructor */
 6769              		.loc 4 39 18 is_stmt 1 view .LVU1575
  39:../../libdaisy/src/daisy_patch.h ****     /** Destructor */
 6770              		.loc 4 39 18 view .LVU1576
 6771              	.LBB1964:
 6772              	.LBB1961:
 6773              	.LBB1955:
 6774              	.LBB1952:
 6775              	.LBB1948:
 6776              	.LBI1871:
  82:../../libdaisy/src/hid/midi.h ****     ~MidiHandler() {}
 6777              		.loc 7 82 5 view .LVU1577
 6778              	.LBB1915:
 6779              	.LBB1911:
 6780              	.LBB1902:
 6781              	.LBI1902:
 6782              		.loc 24 87 5 view .LVU1578
ARM GAS  /tmp/ccZhYDze.s 			page 209


 6783              	.LBB1903:
 6784              	.LBB1904:
 6785              		.loc 24 87 35 is_stmt 0 view .LVU1579
 6786 0052 C0F8E840 		str	r4, [r0, #232]
 6787              	.LVL479:
 6788              		.loc 24 87 35 view .LVU1580
 6789              	.LBE1904:
 6790              	.LBE1903:
 6791              	.LBE1902:
 6792              	.LBB1905:
 6793              	.LBI1905:
 6794              		.file 27 "../../libdaisy/src/util/ringbuffer.h"
   1:../../libdaisy/src/util/ringbuffer.h **** #pragma once
   2:../../libdaisy/src/util/ringbuffer.h **** #ifndef DSY_RINGBUFFER_H
   3:../../libdaisy/src/util/ringbuffer.h **** #define DSY_RINGBUFFER_H
   4:../../libdaisy/src/util/ringbuffer.h **** 
   5:../../libdaisy/src/util/ringbuffer.h **** #include <algorithm>
   6:../../libdaisy/src/util/ringbuffer.h **** 
   7:../../libdaisy/src/util/ringbuffer.h **** namespace daisy
   8:../../libdaisy/src/util/ringbuffer.h **** {
   9:../../libdaisy/src/util/ringbuffer.h **** /** @addtogroup utility
  10:../../libdaisy/src/util/ringbuffer.h ****     @{
  11:../../libdaisy/src/util/ringbuffer.h **** */
  12:../../libdaisy/src/util/ringbuffer.h **** 
  13:../../libdaisy/src/util/ringbuffer.h **** /**
  14:../../libdaisy/src/util/ringbuffer.h **** Utility Ring Buffer \n 
  15:../../libdaisy/src/util/ringbuffer.h **** imported from pichenettes/stmlib
  16:../../libdaisy/src/util/ringbuffer.h **** */
  17:../../libdaisy/src/util/ringbuffer.h **** template <typename T, size_t size>
  18:../../libdaisy/src/util/ringbuffer.h **** class RingBuffer
  19:../../libdaisy/src/util/ringbuffer.h **** {
  20:../../libdaisy/src/util/ringbuffer.h ****   public:
  21:../../libdaisy/src/util/ringbuffer.h ****     RingBuffer() {}
 6795              		.loc 27 21 5 is_stmt 1 view .LVU1581
 6796              		.loc 27 21 5 is_stmt 0 view .LVU1582
 6797              	.LBE1905:
 6798              	.LBB1906:
 6799              	.LBI1874:
  84:../../libdaisy/src/hid/midi.h **** 
  85:../../libdaisy/src/hid/midi.h ****     struct Config
 6800              		.loc 7 85 12 is_stmt 1 view .LVU1583
 6801              	.LBB1889:
 6802              	.LBI1875:
  33:../../libdaisy/src/hid/midi.h ****         {
 6803              		.loc 7 33 9 view .LVU1584
 6804              	.LBB1885:
 6805              	.LBB1881:
  35:../../libdaisy/src/hid/midi.h ****             rx     = {DSY_GPIOB, 7};
 6806              		.loc 7 35 13 view .LVU1585
  35:../../libdaisy/src/hid/midi.h ****             rx     = {DSY_GPIOB, 7};
 6807              		.loc 7 35 20 is_stmt 0 view .LVU1586
 6808 0056 C451     		str	r4, [r0, r7]
  36:../../libdaisy/src/hid/midi.h ****             tx     = {DSY_GPIOB, 6};
 6809              		.loc 7 36 13 is_stmt 1 view .LVU1587
  37:../../libdaisy/src/hid/midi.h ****         }
 6810              		.loc 7 37 13 view .LVU1588
 6811              	.LVL480:
ARM GAS  /tmp/ccZhYDze.s 			page 210


  37:../../libdaisy/src/hid/midi.h ****         }
 6812              		.loc 7 37 13 is_stmt 0 view .LVU1589
 6813              	.LBE1881:
 6814              	.LBE1885:
 6815              	.LBE1889:
 6816              	.LBE1906:
 6817              	.LBB1907:
 6818              	.LBI1892:
  24:../../libdaisy/src/hid/midi.h ****     ~MidiUartTransport() {}
 6819              		.loc 7 24 5 is_stmt 1 view .LVU1590
 6820              	.LBB1899:
 6821              	.LBI1893:
 6822              		.loc 24 87 5 view .LVU1591
 6823              		.loc 24 87 5 is_stmt 0 view .LVU1592
 6824              	.LBE1899:
 6825              	.LBE1907:
 6826              	.LBE1911:
 6827              	.LBE1915:
 6828              	.LBE1948:
 6829              	.LBB1949:
 6830              	.LBI1920:
  16:../../libdaisy/src/hid/disp/oled_display.h ****     virtual ~OledDisplay() {}
 6831              		.loc 5 16 5 is_stmt 1 view .LVU1593
 6832              	.LBB1941:
 6833              	.LBB1939:
 6834              	.LBB1935:
 6835              	.LBI1935:
 218:../../libdaisy/src/hid/disp/display.h ****     virtual ~OneBitGraphicsDisplayImpl() {}
 6836              		.loc 6 218 5 view .LVU1594
 6837              	.LBB1936:
 6838              	.LBI1936:
  22:../../libdaisy/src/hid/disp/display.h ****     virtual ~OneBitGraphicsDisplay() {}
 6839              		.loc 6 22 5 view .LVU1595
  22:../../libdaisy/src/hid/disp/display.h ****     virtual ~OneBitGraphicsDisplay() {}
 6840              		.loc 6 22 5 is_stmt 0 view .LVU1596
 6841              	.LBE1936:
 6842              	.LBE1935:
 6843              	.LBB1937:
 6844              	.LBI1923:
 132:../../libdaisy/src/dev/oled_ssd130x.h **** {
 6845              		.loc 16 132 7 is_stmt 1 view .LVU1597
 6846              	.LBB1933:
 6847              	.LBI1924:
  60:../../libdaisy/src/dev/oled_ssd130x.h **** {
 6848              		.loc 16 60 7 view .LVU1598
 6849              	.LBB1931:
 6850              	.LBI1925:
 6851              		.loc 25 99 5 view .LVU1599
 6852              		.loc 25 99 5 is_stmt 0 view .LVU1600
 6853              	.LBE1931:
 6854              	.LBE1933:
 6855              	.LBE1937:
 6856              	.LBE1939:
 6857              	.LBE1941:
 6858              	.LBE1949:
 6859              	.LBE1952:
 6860              	.LBE1955:
ARM GAS  /tmp/ccZhYDze.s 			page 211


   7:ex_verb.cpp   **** static ReverbSc   verb;
 6861              		.loc 15 7 19 view .LVU1601
 6862 0058 FFF7FEFF 		bl	__aeabi_atexit
 6863              	.LVL481:
 6864              	.LBB1956:
 6865              	.LBI1956:
  40:../../DaisySP/Source/Effects/reverbsc.h ****     ~ReverbSc() {}
 6866              		.loc 1 40 5 is_stmt 1 view .LVU1602
  40:../../DaisySP/Source/Effects/reverbsc.h ****     ~ReverbSc() {}
 6867              		.loc 1 40 5 is_stmt 0 view .LVU1603
 6868              	.LBE1956:
   8:ex_verb.cpp   **** static DcBlock    blk[2];
 6869              		.loc 15 8 19 view .LVU1604
 6870 005c 0C4A     		ldr	r2, .L431+16
 6871 005e 0E49     		ldr	r1, .L431+24
 6872 0060 0E48     		ldr	r0, .L431+28
 6873 0062 FFF7FEFF 		bl	__aeabi_atexit
 6874              	.LVL482:
   9:ex_verb.cpp   **** Parameter         lpParam;
 6875              		.loc 15 9 24 is_stmt 1 view .LVU1605
   9:ex_verb.cpp   **** Parameter         lpParam;
 6876              		.loc 15 9 19 is_stmt 0 view .LVU1606
 6877 0066 0A4A     		ldr	r2, .L431+16
 6878 0068 2046     		mov	r0, r4
 6879 006a 0D49     		ldr	r1, .L431+32
 6880 006c FFF7FEFF 		bl	__aeabi_atexit
 6881              	.LVL483:
 6882              	.LBB1957:
 6883              	.LBI1957:
  25:../../libdaisy/src/hid/parameter.h ****     /** Destructor */
 6884              		.loc 2 25 5 is_stmt 1 view .LVU1607
 6885              	.LBB1958:
 6886              	.LBB1959:
 6887              	.LBI1959:
  21:../../libdaisy/src/hid/ctrl.h ****     /** destructor */
 6888              		.loc 3 21 5 view .LVU1608
  21:../../libdaisy/src/hid/ctrl.h ****     /** destructor */
 6889              		.loc 3 21 5 is_stmt 0 view .LVU1609
 6890              	.LBE1959:
 6891              	.LBE1958:
 6892              	.LBE1957:
  10:ex_verb.cpp   **** static float      drylevel, send;
 6893              		.loc 15 10 19 view .LVU1610
 6894 0070 074A     		ldr	r2, .L431+16
 6895 0072 0C49     		ldr	r1, .L431+36
 6896 0074 0C48     		ldr	r0, .L431+40
 6897              	.LBE1961:
 6898              	.LBE1964:
 6899              		.loc 15 86 1 view .LVU1611
 6900 0076 BDE8F840 		pop	{r3, r4, r5, r6, r7, lr}
 6901              		.cfi_restore 14
 6902              		.cfi_restore 7
 6903              		.cfi_restore 6
 6904              		.cfi_restore 5
 6905              		.cfi_restore 4
 6906              		.cfi_restore 3
 6907              		.cfi_def_cfa_offset 0
ARM GAS  /tmp/ccZhYDze.s 			page 212


 6908              	.LBB1965:
 6909              	.LBB1962:
  10:ex_verb.cpp   **** static float      drylevel, send;
 6910              		.loc 15 10 19 view .LVU1612
 6911 007a FFF7FEBF 		b	__aeabi_atexit
 6912              	.LVL484:
 6913              	.L432:
 6914 007e 00BF     		.align	2
 6915              	.L431:
 6916 0080 00000000 		.word	.LANCHOR4
 6917 0084 00000000 		.word	_ZL5patch
 6918 0088 80707FF0 		.word	-260083584
 6919 008c 08000000 		.word	_ZTVN5daisy11OledDisplayINS_13SSD130xDriverILj128ELj64ENS_24SSD130x4WireSpiTransportEEEEE+8
 6920 0090 00000000 		.word	__dso_handle
 6921 0094 00000000 		.word	_ZN5daisy10DaisyPatchD1Ev
 6922 0098 00000000 		.word	_ZN7daisysp8ReverbScD1Ev
 6923 009c 00000000 		.word	_ZL4verb
 6924 00a0 00000000 		.word	__tcf_0
 6925 00a4 00000000 		.word	_ZN5daisy9ParameterD1Ev
 6926 00a8 00000000 		.word	.LANCHOR2
 6927              	.LBE1962:
 6928              	.LBE1965:
 6929              		.cfi_endproc
 6930              	.LFE4833:
 6932              		.section	.init_array,"aw",%init_array
 6933              		.align	2
 6934 0000 00000000 		.word	_GLOBAL__sub_I_lpParam(target1)
 6935              		.weak	_ZTSN5daisy21OneBitGraphicsDisplayE
 6936              		.section	.rodata._ZTSN5daisy21OneBitGraphicsDisplayE,"aG",%progbits,_ZTSN5daisy21OneBitGraphicsDis
 6937              		.align	2
 6940              	_ZTSN5daisy21OneBitGraphicsDisplayE:
 6941 0000 4E356461 		.ascii	"N5daisy21OneBitGraphicsDisplayE\000"
 6941      69737932 
 6941      314F6E65 
 6941      42697447 
 6941      72617068 
 6942              		.weak	_ZTIN5daisy21OneBitGraphicsDisplayE
 6943              		.section	.rodata._ZTIN5daisy21OneBitGraphicsDisplayE,"aG",%progbits,_ZTIN5daisy21OneBitGraphicsDis
 6944              		.align	2
 6947              	_ZTIN5daisy21OneBitGraphicsDisplayE:
 6948 0000 08000000 		.word	_ZTVN10__cxxabiv117__class_type_infoE+8
 6949 0004 00000000 		.word	_ZTSN5daisy21OneBitGraphicsDisplayE
 6950              		.weak	_ZTSN5daisy25OneBitGraphicsDisplayImplINS_11OledDisplayINS_13SSD130xDriverILj128ELj64ENS_24S
 6951              		.section	.rodata._ZTSN5daisy25OneBitGraphicsDisplayImplINS_11OledDisplayINS_13SSD130xDriverILj128E
 6952              		.align	2
 6955              	_ZTSN5daisy25OneBitGraphicsDisplayImplINS_11OledDisplayINS_13SSD130xDriverILj128ELj64ENS_24SSD130x4
 6956 0000 4E356461 		.ascii	"N5daisy25OneBitGraphicsDisplayImplINS_11OledDisplay"
 6956      69737932 
 6956      354F6E65 
 6956      42697447 
 6956      72617068 
 6957 0033 494E535F 		.ascii	"INS_13SSD130xDriverILj128ELj64ENS_24SSD130x4WireSpi"
 6957      31335353 
 6957      44313330 
 6957      78447269 
 6957      76657249 
 6958 0066 5472616E 		.ascii	"TransportEEEEEEE\000"
ARM GAS  /tmp/ccZhYDze.s 			page 213


 6958      73706F72 
 6958      74454545 
 6958      45454545 
 6958      00
 6959              		.weak	_ZTIN5daisy25OneBitGraphicsDisplayImplINS_11OledDisplayINS_13SSD130xDriverILj128ELj64ENS_24S
 6960              		.section	.rodata._ZTIN5daisy25OneBitGraphicsDisplayImplINS_11OledDisplayINS_13SSD130xDriverILj128E
 6961              		.align	2
 6964              	_ZTIN5daisy25OneBitGraphicsDisplayImplINS_11OledDisplayINS_13SSD130xDriverILj128ELj64ENS_24SSD130x4
 6965 0000 08000000 		.word	_ZTVN10__cxxabiv120__si_class_type_infoE+8
 6966 0004 00000000 		.word	_ZTSN5daisy25OneBitGraphicsDisplayImplINS_11OledDisplayINS_13SSD130xDriverILj128ELj64ENS_24S
 6967 0008 00000000 		.word	_ZTIN5daisy21OneBitGraphicsDisplayE
 6968              		.weak	_ZTSN5daisy11OledDisplayINS_13SSD130xDriverILj128ELj64ENS_24SSD130x4WireSpiTransportEEEEE
 6969              		.section	.rodata._ZTSN5daisy11OledDisplayINS_13SSD130xDriverILj128ELj64ENS_24SSD130x4WireSpiTransp
 6970              		.align	2
 6973              	_ZTSN5daisy11OledDisplayINS_13SSD130xDriverILj128ELj64ENS_24SSD130x4WireSpiTransportEEEEE:
 6974 0000 4E356461 		.ascii	"N5daisy11OledDisplayINS_13SSD130xDriverILj128ELj64E"
 6974      69737931 
 6974      314F6C65 
 6974      64446973 
 6974      706C6179 
 6975 0033 4E535F32 		.ascii	"NS_24SSD130x4WireSpiTransportEEEEE\000"
 6975      34535344 
 6975      31333078 
 6975      34576972 
 6975      65537069 
 6976              		.weak	_ZTIN5daisy11OledDisplayINS_13SSD130xDriverILj128ELj64ENS_24SSD130x4WireSpiTransportEEEEE
 6977              		.section	.rodata._ZTIN5daisy11OledDisplayINS_13SSD130xDriverILj128ELj64ENS_24SSD130x4WireSpiTransp
 6978              		.align	2
 6981              	_ZTIN5daisy11OledDisplayINS_13SSD130xDriverILj128ELj64ENS_24SSD130x4WireSpiTransportEEEEE:
 6982 0000 08000000 		.word	_ZTVN10__cxxabiv120__si_class_type_infoE+8
 6983 0004 00000000 		.word	_ZTSN5daisy11OledDisplayINS_13SSD130xDriverILj128ELj64ENS_24SSD130x4WireSpiTransportEEEEE
 6984 0008 00000000 		.word	_ZTIN5daisy25OneBitGraphicsDisplayImplINS_11OledDisplayINS_13SSD130xDriverILj128ELj64ENS_24S
 6985              		.weak	_ZTVN5daisy11OledDisplayINS_13SSD130xDriverILj128ELj64ENS_24SSD130x4WireSpiTransportEEEEE
 6986              		.section	.rodata._ZTVN5daisy11OledDisplayINS_13SSD130xDriverILj128ELj64ENS_24SSD130x4WireSpiTransp
 6987              		.align	2
 6990              	_ZTVN5daisy11OledDisplayINS_13SSD130xDriverILj128ELj64ENS_24SSD130x4WireSpiTransportEEEEE:
 6991 0000 00000000 		.word	0
 6992 0004 00000000 		.word	_ZTIN5daisy11OledDisplayINS_13SSD130xDriverILj128ELj64ENS_24SSD130x4WireSpiTransportEEEEE
 6993 0008 00000000 		.word	_ZN5daisy11OledDisplayINS_13SSD130xDriverILj128ELj64ENS_24SSD130x4WireSpiTransportEEEED1Ev
 6994 000c 00000000 		.word	_ZN5daisy11OledDisplayINS_13SSD130xDriverILj128ELj64ENS_24SSD130x4WireSpiTransportEEEED0Ev
 6995 0010 00000000 		.word	_ZNK5daisy11OledDisplayINS_13SSD130xDriverILj128ELj64ENS_24SSD130x4WireSpiTransportEEEE6Heig
 6996 0014 00000000 		.word	_ZNK5daisy11OledDisplayINS_13SSD130xDriverILj128ELj64ENS_24SSD130x4WireSpiTransportEEEE5Widt
 6997 0018 00000000 		.word	_ZN5daisy11OledDisplayINS_13SSD130xDriverILj128ELj64ENS_24SSD130x4WireSpiTransportEEEE4FillE
 6998 001c 00000000 		.word	_ZN5daisy11OledDisplayINS_13SSD130xDriverILj128ELj64ENS_24SSD130x4WireSpiTransportEEEE9DrawP
 6999 0020 00000000 		.word	_ZN5daisy25OneBitGraphicsDisplayImplINS_11OledDisplayINS_13SSD130xDriverILj128ELj64ENS_24SSD
 7000 0024 00000000 		.word	_ZN5daisy25OneBitGraphicsDisplayImplINS_11OledDisplayINS_13SSD130xDriverILj128ELj64ENS_24SSD
 7001 0028 00000000 		.word	_ZN5daisy25OneBitGraphicsDisplayImplINS_11OledDisplayINS_13SSD130xDriverILj128ELj64ENS_24SSD
 7002 002c 00000000 		.word	_ZN5daisy25OneBitGraphicsDisplayImplINS_11OledDisplayINS_13SSD130xDriverILj128ELj64ENS_24SSD
 7003 0030 00000000 		.word	_ZN5daisy25OneBitGraphicsDisplayImplINS_11OledDisplayINS_13SSD130xDriverILj128ELj64ENS_24SSD
 7004 0034 00000000 		.word	_ZN5daisy25OneBitGraphicsDisplayImplINS_11OledDisplayINS_13SSD130xDriverILj128ELj64ENS_24SSD
 7005 0038 00000000 		.word	_ZN5daisy11OledDisplayINS_13SSD130xDriverILj128ELj64ENS_24SSD130x4WireSpiTransportEEEE6Updat
 7006              		.global	lpParam
 7007              		.section	.rodata
 7008              		.align	2
 7009              		.set	.LANCHOR4,. + 0
 7010              	.LC0:
 7011 0000 01       		.byte	1
ARM GAS  /tmp/ccZhYDze.s 			page 214


 7012 0001 07       		.byte	7
 7013 0002 0000     		.space	2
 7014              	.LC1:
 7015 0004 01       		.byte	1
 7016 0005 06       		.byte	6
 7017              		.section	.bss._ZL3blk,"aw",%nobits
 7018              		.align	2
 7019              		.set	.LANCHOR3,. + 0
 7022              	_ZL3blk:
 7023 0000 00000000 		.space	24
 7023      00000000 
 7023      00000000 
 7023      00000000 
 7023      00000000 
 7024              		.section	.bss._ZL4send,"aw",%nobits
 7025              		.align	2
 7026              		.set	.LANCHOR1,. + 0
 7029              	_ZL4send:
 7030 0000 00000000 		.space	4
 7031              		.section	.bss._ZL4verb,"aw",%nobits
 7032              		.align	2
 7035              	_ZL4verb:
 7036 0000 00000000 		.space	396100
 7036      00000000 
 7036      00000000 
 7036      00000000 
 7036      00000000 
 7037              		.section	.bss._ZL5patch,"aw",%nobits
 7038              		.align	2
 7041              	_ZL5patch:
 7042 0000 00000000 		.space	38340
 7042      00000000 
 7042      00000000 
 7042      00000000 
 7042      00000000 
 7043              		.section	.bss._ZL8drylevel,"aw",%nobits
 7044              		.align	2
 7045              		.set	.LANCHOR0,. + 0
 7048              	_ZL8drylevel:
 7049 0000 00000000 		.space	4
 7050              		.section	.bss.lpParam,"aw",%nobits
 7051              		.align	2
 7052              		.set	.LANCHOR2,. + 0
 7055              	lpParam:
 7056 0000 00000000 		.space	56
 7056      00000000 
 7056      00000000 
 7056      00000000 
 7056      00000000 
 7057              		.text
 7058              	.Letext0:
 7059              		.file 28 "/usr/lib/gcc/arm-none-eabi/9.2.1/include/stdint.h"
 7060              		.file 29 "../../libdaisy/Drivers/CMSIS/Include/core_cm7.h"
 7061              		.file 30 "../../libdaisy/Drivers/CMSIS/Device/ST/STM32H7xx/Include/system_stm32h7xx.h"
 7062              		.file 31 "/usr/lib/gcc/arm-none-eabi/9.2.1/include/stddef.h"
 7063              		.file 32 "/usr/include/newlib/c++/9.2.1/bits/std_abs.h"
 7064              		.file 33 "/usr/include/newlib/c++/9.2.1/cstdint"
ARM GAS  /tmp/ccZhYDze.s 			page 215


 7065              		.file 34 "/usr/include/newlib/c++/9.2.1/cstdlib"
 7066              		.file 35 "/usr/include/newlib/c++/9.2.1/type_traits"
 7067              		.file 36 "/usr/include/newlib/c++/9.2.1/arm-none-eabi/thumb/v7e-m+dp/hard/bits/c++config.h"
 7068              		.file 37 "/usr/include/newlib/c++/9.2.1/bits/stl_pair.h"
 7069              		.file 38 "/usr/include/newlib/c++/9.2.1/bits/cpp_type_traits.h"
 7070              		.file 39 "/usr/include/newlib/c++/9.2.1/bits/stl_iterator_base_types.h"
 7071              		.file 40 "/usr/include/newlib/c++/9.2.1/debug/debug.h"
 7072              		.file 41 "/usr/include/newlib/c++/9.2.1/cwchar"
 7073              		.file 42 "/usr/include/newlib/c++/9.2.1/bits/exception_ptr.h"
 7074              		.file 43 "/usr/include/newlib/c++/9.2.1/new"
 7075              		.file 44 "/usr/include/newlib/c++/9.2.1/clocale"
 7076              		.file 45 "/usr/include/newlib/c++/9.2.1/cstdio"
 7077              		.file 46 "/usr/include/newlib/c++/9.2.1/bits/alloc_traits.h"
 7078              		.file 47 "/usr/include/newlib/c++/9.2.1/initializer_list"
 7079              		.file 48 "/usr/include/newlib/c++/9.2.1/bits/stringfwd.h"
 7080              		.file 49 "/usr/include/newlib/c++/9.2.1/bits/uniform_int_dist.h"
 7081              		.file 50 "/usr/include/newlib/c++/9.2.1/bits/random.h"
 7082              		.file 51 "/usr/include/newlib/c++/9.2.1/cstring"
 7083              		.file 52 "/usr/include/newlib/c++/9.2.1/bits/algorithmfwd.h"
 7084              		.file 53 "/usr/include/newlib/c++/9.2.1/cstdarg"
 7085              		.file 54 "/usr/include/newlib/c++/9.2.1/bits/ptr_traits.h"
 7086              		.file 55 "/usr/include/newlib/c++/9.2.1/bits/stl_iterator_base_funcs.h"
 7087              		.file 56 "/usr/include/newlib/c++/9.2.1/bits/move.h"
 7088              		.file 57 "/usr/include/newlib/c++/9.2.1/bits/predefined_ops.h"
 7089              		.file 58 "/usr/include/newlib/c++/9.2.1/ext/numeric_traits.h"
 7090              		.file 59 "/usr/include/newlib/c++/9.2.1/ext/alloc_traits.h"
 7091              		.file 60 "/usr/include/newlib/c++/9.2.1/bits/stl_iterator.h"
 7092              		.file 61 "/usr/include/newlib/c++/9.2.1/ext/type_traits.h"
 7093              		.file 62 "/usr/include/newlib/sys/_types.h"
 7094              		.file 63 "/usr/include/newlib/sys/reent.h"
 7095              		.file 64 "/usr/include/newlib/sys/lock.h"
 7096              		.file 65 "/usr/include/newlib/math.h"
 7097              		.file 66 "/usr/include/newlib/stdlib.h"
 7098              		.file 67 "/usr/include/newlib/c++/9.2.1/math.h"
 7099              		.file 68 "../../libdaisy/Drivers/STM32H7xx_HAL_Driver/Inc/stm32h7xx_hal_def.h"
 7100              		.file 69 "../../libdaisy/Drivers/STM32H7xx_HAL_Driver/Inc/stm32h7xx_hal_flash.h"
 7101              		.file 70 "../../DaisySP/Source/Control/adenv.h"
 7102              		.file 71 "../../DaisySP/Source/Utility/dsp.h"
 7103              		.file 72 "../../DaisySP/Source/Utility/dcblock.h"
 7104              		.file 73 "/usr/lib/gcc/arm-none-eabi/9.2.1/include/stdarg.h"
 7105              		.file 74 "/usr/include/newlib/wchar.h"
 7106              		.file 75 "/usr/include/newlib/locale.h"
 7107              		.file 76 "/usr/include/newlib/ctype.h"
 7108              		.file 77 "/usr/include/newlib/stdio.h"
 7109              		.file 78 "/usr/include/newlib/sys/errno.h"
 7110              		.file 79 "/usr/include/newlib/c++/9.2.1/stdlib.h"
 7111              		.file 80 "/usr/include/newlib/string.h"
 7112              		.file 81 "../../libdaisy/src/daisy_core.h"
 7113              		.file 82 "../../libdaisy/src/per/tim.h"
 7114              		.file 83 "../../libdaisy/src/per/sai.h"
 7115              		.file 84 "../../libdaisy/src/hid/MidiEvent.h"
 7116              		.file 85 "../../libdaisy/src/hid/gatein.h"
 7117              		.file 86 "../../libdaisy/src/hid/logger_impl.h"
 7118              		.file 87 "../../libdaisy/src/util/wav_format.h"
 7119              		.file 88 "../../libdaisy/src/per/qspi.h"
 7120              		.file 89 "../../libdaisy/src/per/gpio.h"
 7121              		.file 90 "../../libdaisy/src/dev/sdram.h"
ARM GAS  /tmp/ccZhYDze.s 			page 216


 7122              		.file 91 "/usr/include/newlib/sys/unistd.h"
 7123              		.file 92 "../../libdaisy/src/util/oled_fonts.h"
 7124              		.file 93 "../../libdaisy/Middlewares/Third_Party/FatFs/src/integer.h"
 7125              		.file 94 "../../libdaisy/Middlewares/Third_Party/FatFs/src/ff.h"
 7126              		.file 95 "../../libdaisy/Middlewares/Third_Party/FatFs/src/diskio.h"
 7127              		.file 96 "../../libdaisy/Middlewares/Third_Party/FatFs/src/ff_gen_drv.h"
 7128              		.file 97 "../../libdaisy/src/util/sd_diskio.h"
 7129              		.file 98 "../../libdaisy/src/sys/fatfs.h"
 7130              		.file 99 "../../libdaisy/src/dev/sr_595.h"
 7131              		.file 100 "<built-in>"
ARM GAS  /tmp/ccZhYDze.s 			page 217


DEFINED SYMBOLS
                            *ABS*:0000000000000000 ex_verb.cpp
     /tmp/ccZhYDze.s:17     .text._ZN7daisysp8ReverbScD2Ev:0000000000000000 $t
     /tmp/ccZhYDze.s:26     .text._ZN7daisysp8ReverbScD2Ev:0000000000000000 _ZN7daisysp8ReverbScD2Ev
     /tmp/ccZhYDze.s:26     .text._ZN7daisysp8ReverbScD2Ev:0000000000000000 _ZN7daisysp8ReverbScD1Ev
     /tmp/ccZhYDze.s:43     .text._ZN5daisy9ParameterD2Ev:0000000000000000 $t
     /tmp/ccZhYDze.s:51     .text._ZN5daisy9ParameterD2Ev:0000000000000000 _ZN5daisy9ParameterD2Ev
     /tmp/ccZhYDze.s:51     .text._ZN5daisy9ParameterD2Ev:0000000000000000 _ZN5daisy9ParameterD1Ev
     /tmp/ccZhYDze.s:74     .text._ZN5daisy10DaisyPatchD2Ev:0000000000000000 $t
     /tmp/ccZhYDze.s:82     .text._ZN5daisy10DaisyPatchD2Ev:0000000000000000 _ZN5daisy10DaisyPatchD2Ev
     /tmp/ccZhYDze.s:82     .text._ZN5daisy10DaisyPatchD2Ev:0000000000000000 _ZN5daisy10DaisyPatchD1Ev
     /tmp/ccZhYDze.s:164    .text._ZN5daisy11OledDisplayINS_13SSD130xDriverILj128ELj64ENS_24SSD130x4WireSpiTransportEEEED2Ev:0000000000000000 $t
     /tmp/ccZhYDze.s:172    .text._ZN5daisy11OledDisplayINS_13SSD130xDriverILj128ELj64ENS_24SSD130x4WireSpiTransportEEEED2Ev:0000000000000000 _ZN5daisy11OledDisplayINS_13SSD130xDriverILj128ELj64ENS_24SSD130x4WireSpiTransportEEEED2Ev
     /tmp/ccZhYDze.s:172    .text._ZN5daisy11OledDisplayINS_13SSD130xDriverILj128ELj64ENS_24SSD130x4WireSpiTransportEEEED2Ev:0000000000000000 _ZN5daisy11OledDisplayINS_13SSD130xDriverILj128ELj64ENS_24SSD130x4WireSpiTransportEEEED1Ev
     /tmp/ccZhYDze.s:197    .text.__tcf_0:0000000000000000 $t
     /tmp/ccZhYDze.s:204    .text.__tcf_0:0000000000000000 __tcf_0
     /tmp/ccZhYDze.s:218    .text._ZNK5daisy11OledDisplayINS_13SSD130xDriverILj128ELj64ENS_24SSD130x4WireSpiTransportEEEE6HeightEv:0000000000000000 $t
     /tmp/ccZhYDze.s:226    .text._ZNK5daisy11OledDisplayINS_13SSD130xDriverILj128ELj64ENS_24SSD130x4WireSpiTransportEEEE6HeightEv:0000000000000000 _ZNK5daisy11OledDisplayINS_13SSD130xDriverILj128ELj64ENS_24SSD130x4WireSpiTransportEEEE6HeightEv
     /tmp/ccZhYDze.s:243    .text._ZNK5daisy11OledDisplayINS_13SSD130xDriverILj128ELj64ENS_24SSD130x4WireSpiTransportEEEE5WidthEv:0000000000000000 $t
     /tmp/ccZhYDze.s:251    .text._ZNK5daisy11OledDisplayINS_13SSD130xDriverILj128ELj64ENS_24SSD130x4WireSpiTransportEEEE5WidthEv:0000000000000000 _ZNK5daisy11OledDisplayINS_13SSD130xDriverILj128ELj64ENS_24SSD130x4WireSpiTransportEEEE5WidthEv
     /tmp/ccZhYDze.s:268    .text._ZN5daisy11OledDisplayINS_13SSD130xDriverILj128ELj64ENS_24SSD130x4WireSpiTransportEEEE4FillEb:0000000000000000 $t
     /tmp/ccZhYDze.s:276    .text._ZN5daisy11OledDisplayINS_13SSD130xDriverILj128ELj64ENS_24SSD130x4WireSpiTransportEEEE4FillEb:0000000000000000 _ZN5daisy11OledDisplayINS_13SSD130xDriverILj128ELj64ENS_24SSD130x4WireSpiTransportEEEE4FillEb
     /tmp/ccZhYDze.s:313    .text._ZL12VerbCallbackPKPKfPPfj:0000000000000000 $t
     /tmp/ccZhYDze.s:320    .text._ZL12VerbCallbackPKPKfPPfj:0000000000000000 _ZL12VerbCallbackPKPKfPPfj
     /tmp/ccZhYDze.s:554    .text._ZL12VerbCallbackPKPKfPPfj:0000000000000104 $d
     /tmp/ccZhYDze.s:7041   .bss._ZL5patch:0000000000000000 _ZL5patch
     /tmp/ccZhYDze.s:7035   .bss._ZL4verb:0000000000000000 _ZL4verb
     /tmp/ccZhYDze.s:566    .text._ZN5daisy11OledDisplayINS_13SSD130xDriverILj128ELj64ENS_24SSD130x4WireSpiTransportEEEED0Ev:0000000000000000 $t
     /tmp/ccZhYDze.s:574    .text._ZN5daisy11OledDisplayINS_13SSD130xDriverILj128ELj64ENS_24SSD130x4WireSpiTransportEEEED0Ev:0000000000000000 _ZN5daisy11OledDisplayINS_13SSD130xDriverILj128ELj64ENS_24SSD130x4WireSpiTransportEEEED0Ev
     /tmp/ccZhYDze.s:614    .text._ZN5daisy11OledDisplayINS_13SSD130xDriverILj128ELj64ENS_24SSD130x4WireSpiTransportEEEE6UpdateEv:0000000000000000 $t
     /tmp/ccZhYDze.s:622    .text._ZN5daisy11OledDisplayINS_13SSD130xDriverILj128ELj64ENS_24SSD130x4WireSpiTransportEEEE6UpdateEv:0000000000000000 _ZN5daisy11OledDisplayINS_13SSD130xDriverILj128ELj64ENS_24SSD130x4WireSpiTransportEEEE6UpdateEv
     /tmp/ccZhYDze.s:782    .text._ZN5daisy25OneBitGraphicsDisplayImplINS_11OledDisplayINS_13SSD130xDriverILj128ELj64ENS_24SSD130x4WireSpiTransportEEEEEE11WriteStringEPKc7FontDefb:0000000000000000 $t
     /tmp/ccZhYDze.s:790    .text._ZN5daisy25OneBitGraphicsDisplayImplINS_11OledDisplayINS_13SSD130xDriverILj128ELj64ENS_24SSD130x4WireSpiTransportEEEEEE11WriteStringEPKc7FontDefb:0000000000000000 _ZN5daisy25OneBitGraphicsDisplayImplINS_11OledDisplayINS_13SSD130xDriverILj128ELj64ENS_24SSD130x4WireSpiTransportEEEEEE11WriteStringEPKc7FontDefb
     /tmp/ccZhYDze.s:1249   .text._ZN5daisy25OneBitGraphicsDisplayImplINS_11OledDisplayINS_13SSD130xDriverILj128ELj64ENS_24SSD130x4WireSpiTransportEEEEEE11WriteStringEPKc7FontDefb:00000000000001d8 $d
     /tmp/ccZhYDze.s:1259   .text._ZN5daisy25OneBitGraphicsDisplayImplINS_11OledDisplayINS_13SSD130xDriverILj128ELj64ENS_24SSD130x4WireSpiTransportEEEEEE9WriteCharEc7FontDefb:0000000000000000 $t
     /tmp/ccZhYDze.s:1267   .text._ZN5daisy25OneBitGraphicsDisplayImplINS_11OledDisplayINS_13SSD130xDriverILj128ELj64ENS_24SSD130x4WireSpiTransportEEEEEE9WriteCharEc7FontDefb:0000000000000000 _ZN5daisy25OneBitGraphicsDisplayImplINS_11OledDisplayINS_13SSD130xDriverILj128ELj64ENS_24SSD130x4WireSpiTransportEEEEEE9WriteCharEc7FontDefb
     /tmp/ccZhYDze.s:1701   .text._ZN5daisy25OneBitGraphicsDisplayImplINS_11OledDisplayINS_13SSD130xDriverILj128ELj64ENS_24SSD130x4WireSpiTransportEEEEEE9WriteCharEc7FontDefb:000000000000019c $d
     /tmp/ccZhYDze.s:1709   .text._ZN5daisy25OneBitGraphicsDisplayImplINS_11OledDisplayINS_13SSD130xDriverILj128ELj64ENS_24SSD130x4WireSpiTransportEEEEEE18WriteStringAlignedEPKcRK7FontDefNS_9RectangleENS_9AlignmentEb:0000000000000000 $t
     /tmp/ccZhYDze.s:1717   .text._ZN5daisy25OneBitGraphicsDisplayImplINS_11OledDisplayINS_13SSD130xDriverILj128ELj64ENS_24SSD130x4WireSpiTransportEEEEEE18WriteStringAlignedEPKcRK7FontDefNS_9RectangleENS_9AlignmentEb:0000000000000000 _ZN5daisy25OneBitGraphicsDisplayImplINS_11OledDisplayINS_13SSD130xDriverILj128ELj64ENS_24SSD130x4WireSpiTransportEEEEEE18WriteStringAlignedEPKcRK7FontDefNS_9RectangleENS_9AlignmentEb
     /tmp/ccZhYDze.s:1857   .text._ZN5daisy25OneBitGraphicsDisplayImplINS_11OledDisplayINS_13SSD130xDriverILj128ELj64ENS_24SSD130x4WireSpiTransportEEEEEE18WriteStringAlignedEPKcRK7FontDefNS_9RectangleENS_9AlignmentEb:0000000000000048 $d
     /tmp/ccZhYDze.s:1866   .text._ZN5daisy25OneBitGraphicsDisplayImplINS_11OledDisplayINS_13SSD130xDriverILj128ELj64ENS_24SSD130x4WireSpiTransportEEEEEE18WriteStringAlignedEPKcRK7FontDefNS_9RectangleENS_9AlignmentEb:000000000000005a $t
     /tmp/ccZhYDze.s:3194   .text._ZN5daisy25OneBitGraphicsDisplayImplINS_11OledDisplayINS_13SSD130xDriverILj128ELj64ENS_24SSD130x4WireSpiTransportEEEEEE18WriteStringAlignedEPKcRK7FontDefNS_9RectangleENS_9AlignmentEb:0000000000000364 $d
     /tmp/ccZhYDze.s:3198   .text._ZN5daisy25OneBitGraphicsDisplayImplINS_11OledDisplayINS_13SSD130xDriverILj128ELj64ENS_24SSD130x4WireSpiTransportEEEEEE18WriteStringAlignedEPKcRK7FontDefNS_9RectangleENS_9AlignmentEb:000000000000036c $t
     /tmp/ccZhYDze.s:3367   .text._ZN5daisy25OneBitGraphicsDisplayImplINS_11OledDisplayINS_13SSD130xDriverILj128ELj64ENS_24SSD130x4WireSpiTransportEEEEEE18WriteStringAlignedEPKcRK7FontDefNS_9RectangleENS_9AlignmentEb:00000000000003ec $d
     /tmp/ccZhYDze.s:3375   .text._ZN5daisy11OledDisplayINS_13SSD130xDriverILj128ELj64ENS_24SSD130x4WireSpiTransportEEEE9DrawPixelEjjb:0000000000000000 $t
     /tmp/ccZhYDze.s:3383   .text._ZN5daisy11OledDisplayINS_13SSD130xDriverILj128ELj64ENS_24SSD130x4WireSpiTransportEEEE9DrawPixelEjjb:0000000000000000 _ZN5daisy11OledDisplayINS_13SSD130xDriverILj128ELj64ENS_24SSD130x4WireSpiTransportEEEE9DrawPixelEjjb
     /tmp/ccZhYDze.s:3487   .text._ZN5daisy25OneBitGraphicsDisplayImplINS_11OledDisplayINS_13SSD130xDriverILj128ELj64ENS_24SSD130x4WireSpiTransportEEEEEE8DrawLineEjjjjb:0000000000000000 $t
     /tmp/ccZhYDze.s:3495   .text._ZN5daisy25OneBitGraphicsDisplayImplINS_11OledDisplayINS_13SSD130xDriverILj128ELj64ENS_24SSD130x4WireSpiTransportEEEEEE8DrawLineEjjjjb:0000000000000000 _ZN5daisy25OneBitGraphicsDisplayImplINS_11OledDisplayINS_13SSD130xDriverILj128ELj64ENS_24SSD130x4WireSpiTransportEEEEEE8DrawLineEjjjjb
     /tmp/ccZhYDze.s:3781   .text._ZN5daisy25OneBitGraphicsDisplayImplINS_11OledDisplayINS_13SSD130xDriverILj128ELj64ENS_24SSD130x4WireSpiTransportEEEEEE7DrawArcEjjjiib:0000000000000000 $t
     /tmp/ccZhYDze.s:3789   .text._ZN5daisy25OneBitGraphicsDisplayImplINS_11OledDisplayINS_13SSD130xDriverILj128ELj64ENS_24SSD130x4WireSpiTransportEEEEEE7DrawArcEjjjiib:0000000000000000 _ZN5daisy25OneBitGraphicsDisplayImplINS_11OledDisplayINS_13SSD130xDriverILj128ELj64ENS_24SSD130x4WireSpiTransportEEEEEE7DrawArcEjjjiib
     /tmp/ccZhYDze.s:4568   .text._ZN5daisy25OneBitGraphicsDisplayImplINS_11OledDisplayINS_13SSD130xDriverILj128ELj64ENS_24SSD130x4WireSpiTransportEEEEEE7DrawArcEjjjiib:0000000000000388 $d
     /tmp/ccZhYDze.s:4575   .text._ZN5daisy25OneBitGraphicsDisplayImplINS_11OledDisplayINS_13SSD130xDriverILj128ELj64ENS_24SSD130x4WireSpiTransportEEEEEE7DrawArcEjjjiib:0000000000000398 $t
     /tmp/ccZhYDze.s:4673   .text._ZN5daisy25OneBitGraphicsDisplayImplINS_11OledDisplayINS_13SSD130xDriverILj128ELj64ENS_24SSD130x4WireSpiTransportEEEEEE8DrawRectEjjjjbb:0000000000000000 $t
     /tmp/ccZhYDze.s:4681   .text._ZN5daisy25OneBitGraphicsDisplayImplINS_11OledDisplayINS_13SSD130xDriverILj128ELj64ENS_24SSD130x4WireSpiTransportEEEEEE8DrawRectEjjjjbb:0000000000000000 _ZN5daisy25OneBitGraphicsDisplayImplINS_11OledDisplayINS_13SSD130xDriverILj128ELj64ENS_24SSD130x4WireSpiTransportEEEEEE8DrawRectEjjjjbb
     /tmp/ccZhYDze.s:5819   .text._Z10UpdateOledv:0000000000000000 $t
     /tmp/ccZhYDze.s:5827   .text._Z10UpdateOledv:0000000000000000 _Z10UpdateOledv
     /tmp/ccZhYDze.s:5843   .text._Z10UpdateOledv:0000000000000008 $d
ARM GAS  /tmp/ccZhYDze.s 			page 218


     /tmp/ccZhYDze.s:5848   .text._ZN5daisy13SSD130xDriverILj128ELj64ENS_24SSD130x4WireSpiTransportEE6UpdateEv:0000000000000000 $t
     /tmp/ccZhYDze.s:5856   .text._ZN5daisy13SSD130xDriverILj128ELj64ENS_24SSD130x4WireSpiTransportEE6UpdateEv:0000000000000000 _ZN5daisy13SSD130xDriverILj128ELj64ENS_24SSD130x4WireSpiTransportEE6UpdateEv
     /tmp/ccZhYDze.s:6007   .rodata.main.str1.4:0000000000000000 $d
     /tmp/ccZhYDze.s:6008   .rodata.main.str1.4:0000000000000000 .LC2
     /tmp/ccZhYDze.s:6011   .text.startup.main:0000000000000000 $t
     /tmp/ccZhYDze.s:6019   .text.startup.main:0000000000000000 main
     /tmp/ccZhYDze.s:6466   .text.startup.main:00000000000000bc $d
     /tmp/ccZhYDze.s:6486   .text.startup._GLOBAL__sub_I_lpParam:0000000000000000 $t
     /tmp/ccZhYDze.s:6493   .text.startup._GLOBAL__sub_I_lpParam:0000000000000000 _GLOBAL__sub_I_lpParam
     /tmp/ccZhYDze.s:6916   .text.startup._GLOBAL__sub_I_lpParam:0000000000000080 $d
     /tmp/ccZhYDze.s:6990   .rodata._ZTVN5daisy11OledDisplayINS_13SSD130xDriverILj128ELj64ENS_24SSD130x4WireSpiTransportEEEEE:0000000000000000 _ZTVN5daisy11OledDisplayINS_13SSD130xDriverILj128ELj64ENS_24SSD130x4WireSpiTransportEEEEE
     /tmp/ccZhYDze.s:6933   .init_array:0000000000000000 $d
     /tmp/ccZhYDze.s:6940   .rodata._ZTSN5daisy21OneBitGraphicsDisplayE:0000000000000000 _ZTSN5daisy21OneBitGraphicsDisplayE
     /tmp/ccZhYDze.s:6937   .rodata._ZTSN5daisy21OneBitGraphicsDisplayE:0000000000000000 $d
     /tmp/ccZhYDze.s:6947   .rodata._ZTIN5daisy21OneBitGraphicsDisplayE:0000000000000000 _ZTIN5daisy21OneBitGraphicsDisplayE
     /tmp/ccZhYDze.s:6944   .rodata._ZTIN5daisy21OneBitGraphicsDisplayE:0000000000000000 $d
     /tmp/ccZhYDze.s:6955   .rodata._ZTSN5daisy25OneBitGraphicsDisplayImplINS_11OledDisplayINS_13SSD130xDriverILj128ELj64ENS_24SSD130x4WireSpiTransportEEEEEEE:0000000000000000 _ZTSN5daisy25OneBitGraphicsDisplayImplINS_11OledDisplayINS_13SSD130xDriverILj128ELj64ENS_24SSD130x4WireSpiTransportEEEEEEE
     /tmp/ccZhYDze.s:6952   .rodata._ZTSN5daisy25OneBitGraphicsDisplayImplINS_11OledDisplayINS_13SSD130xDriverILj128ELj64ENS_24SSD130x4WireSpiTransportEEEEEEE:0000000000000000 $d
     /tmp/ccZhYDze.s:6964   .rodata._ZTIN5daisy25OneBitGraphicsDisplayImplINS_11OledDisplayINS_13SSD130xDriverILj128ELj64ENS_24SSD130x4WireSpiTransportEEEEEEE:0000000000000000 _ZTIN5daisy25OneBitGraphicsDisplayImplINS_11OledDisplayINS_13SSD130xDriverILj128ELj64ENS_24SSD130x4WireSpiTransportEEEEEEE
     /tmp/ccZhYDze.s:6961   .rodata._ZTIN5daisy25OneBitGraphicsDisplayImplINS_11OledDisplayINS_13SSD130xDriverILj128ELj64ENS_24SSD130x4WireSpiTransportEEEEEEE:0000000000000000 $d
     /tmp/ccZhYDze.s:6973   .rodata._ZTSN5daisy11OledDisplayINS_13SSD130xDriverILj128ELj64ENS_24SSD130x4WireSpiTransportEEEEE:0000000000000000 _ZTSN5daisy11OledDisplayINS_13SSD130xDriverILj128ELj64ENS_24SSD130x4WireSpiTransportEEEEE
     /tmp/ccZhYDze.s:6970   .rodata._ZTSN5daisy11OledDisplayINS_13SSD130xDriverILj128ELj64ENS_24SSD130x4WireSpiTransportEEEEE:0000000000000000 $d
     /tmp/ccZhYDze.s:6981   .rodata._ZTIN5daisy11OledDisplayINS_13SSD130xDriverILj128ELj64ENS_24SSD130x4WireSpiTransportEEEEE:0000000000000000 _ZTIN5daisy11OledDisplayINS_13SSD130xDriverILj128ELj64ENS_24SSD130x4WireSpiTransportEEEEE
     /tmp/ccZhYDze.s:6978   .rodata._ZTIN5daisy11OledDisplayINS_13SSD130xDriverILj128ELj64ENS_24SSD130x4WireSpiTransportEEEEE:0000000000000000 $d
     /tmp/ccZhYDze.s:6987   .rodata._ZTVN5daisy11OledDisplayINS_13SSD130xDriverILj128ELj64ENS_24SSD130x4WireSpiTransportEEEEE:0000000000000000 $d
     /tmp/ccZhYDze.s:7055   .bss.lpParam:0000000000000000 lpParam
     /tmp/ccZhYDze.s:7008   .rodata:0000000000000000 $d
     /tmp/ccZhYDze.s:7018   .bss._ZL3blk:0000000000000000 $d
     /tmp/ccZhYDze.s:7022   .bss._ZL3blk:0000000000000000 _ZL3blk
     /tmp/ccZhYDze.s:7025   .bss._ZL4send:0000000000000000 $d
     /tmp/ccZhYDze.s:7029   .bss._ZL4send:0000000000000000 _ZL4send
     /tmp/ccZhYDze.s:7032   .bss._ZL4verb:0000000000000000 $d
     /tmp/ccZhYDze.s:7038   .bss._ZL5patch:0000000000000000 $d
     /tmp/ccZhYDze.s:7044   .bss._ZL8drylevel:0000000000000000 $d
     /tmp/ccZhYDze.s:7048   .bss._ZL8drylevel:0000000000000000 _ZL8drylevel
     /tmp/ccZhYDze.s:7051   .bss.lpParam:0000000000000000 $d
                           .group:0000000000000000 _ZN7daisysp8ReverbScD5Ev
                           .group:0000000000000000 _ZN5daisy9ParameterD5Ev
                           .group:0000000000000000 _ZN5daisy10DaisyPatchD5Ev
                           .group:0000000000000000 _ZN5daisy11OledDisplayINS_13SSD130xDriverILj128ELj64ENS_24SSD130x4WireSpiTransportEEEED5Ev

UNDEFINED SYMBOLS
_ZN5daisy10DaisyPatch21ProcessAnalogControlsEv
_ZN5daisy10DaisyPatch12GetKnobValueENS0_4CtrlE
_ZN5daisy9Parameter7ProcessEv
_ZN7daisysp8ReverbSc7ProcessERKfS2_PfS3_
_ZN7daisysp7DcBlock7ProcessEf
_ZdlPvj
dsy_gpio_write
_ZN5daisy9SpiHandle16BlockingTransmitEPhjm
cosf
sinf
_ZN5daisy10DaisyPatch15DisplayControlsEb
_ZN5daisy10DaisyPatch4InitEb
_ZN5daisy10DaisyPatch15AudioSampleRateEv
_ZN7daisysp8ReverbSc4InitEf
_ZN7daisysp7DcBlock4InitEf
ARM GAS  /tmp/ccZhYDze.s 			page 219


_ZN5daisy9Parameter4InitENS_13AnalogControlEffNS0_5CurveE
_ZN5daisy10DaisyPatch7DelayMsEj
_ZN5daisy10DaisyPatch8StartAdcEv
_ZN5daisy10DaisyPatch10StartAudioEPFvPKPKfPPfjE
Font_7x10
__aeabi_atexit
__dso_handle
_ZTVN10__cxxabiv117__class_type_infoE
_ZTVN10__cxxabiv120__si_class_type_infoE
