ARM GAS  /tmp/cc3v7X8N.s 			page 1


   1              		.cpu cortex-m7
   2              		.eabi_attribute 28, 1
   3              		.eabi_attribute 20, 1
   4              		.eabi_attribute 21, 1
   5              		.eabi_attribute 23, 3
   6              		.eabi_attribute 24, 1
   7              		.eabi_attribute 25, 1
   8              		.eabi_attribute 26, 1
   9              		.eabi_attribute 30, 2
  10              		.eabi_attribute 34, 1
  11              		.eabi_attribute 18, 4
  12              		.file	"Noise.cpp"
  13              		.text
  14              	.Ltext0:
  15              		.cfi_sections	.debug_frame
  16              		.section	.text._ZN7daisysp10WhiteNoiseD2Ev,"axG",%progbits,_ZN7daisysp10WhiteNoiseD5Ev,comdat
  17              		.align	1
  18              		.p2align 2,,3
  19              		.weak	_ZN7daisysp10WhiteNoiseD2Ev
  20              		.arch armv7e-m
  21              		.syntax unified
  22              		.thumb
  23              		.thumb_func
  24              		.fpu fpv5-d16
  26              	_ZN7daisysp10WhiteNoiseD2Ev:
  27              	.LVL0:
  28              	.LFB3188:
  29              		.file 1 "../../DaisySP/Source/Noise/whitenoise.h"
   1:../../DaisySP/Source/Noise/whitenoise.h **** #pragma once
   2:../../DaisySP/Source/Noise/whitenoise.h **** #ifndef DSY_WHITENOISE_H
   3:../../DaisySP/Source/Noise/whitenoise.h **** #define DSY_WHITENOISE_H
   4:../../DaisySP/Source/Noise/whitenoise.h **** #include <stdint.h>
   5:../../DaisySP/Source/Noise/whitenoise.h **** #ifdef __cplusplus
   6:../../DaisySP/Source/Noise/whitenoise.h **** namespace daisysp
   7:../../DaisySP/Source/Noise/whitenoise.h **** {
   8:../../DaisySP/Source/Noise/whitenoise.h **** /** fast white noise generator
   9:../../DaisySP/Source/Noise/whitenoise.h **** 
  10:../../DaisySP/Source/Noise/whitenoise.h ****     I think this came from musicdsp.org at some point
  11:../../DaisySP/Source/Noise/whitenoise.h **** */
  12:../../DaisySP/Source/Noise/whitenoise.h **** class WhiteNoise
  13:../../DaisySP/Source/Noise/whitenoise.h **** {
  14:../../DaisySP/Source/Noise/whitenoise.h ****   public:
  15:../../DaisySP/Source/Noise/whitenoise.h ****     WhiteNoise() {}
  16:../../DaisySP/Source/Noise/whitenoise.h ****     ~WhiteNoise() {}
  30              		.loc 1 16 5 view -0
  31              		.cfi_startproc
  32              		@ args = 0, pretend = 0, frame = 0
  33              		@ frame_needed = 0, uses_anonymous_args = 0
  34              		@ link register save eliminated.
  35              		.loc 1 16 20 is_stmt 0 view .LVU1
  36 0000 7047     		bx	lr
  37              		.cfi_endproc
  38              	.LFE3188:
  40              		.weak	_ZN7daisysp10WhiteNoiseD1Ev
  41              		.thumb_set _ZN7daisysp10WhiteNoiseD1Ev,_ZN7daisysp10WhiteNoiseD2Ev
  42 0002 00BF     		.section	.text._ZN5daisy10DaisyPatchD2Ev,"axG",%progbits,_ZN5daisy10DaisyPatchD5Ev,comdat
  43              		.align	1
ARM GAS  /tmp/cc3v7X8N.s 			page 2


  44              		.p2align 2,,3
  45              		.weak	_ZN5daisy10DaisyPatchD2Ev
  46              		.syntax unified
  47              		.thumb
  48              		.thumb_func
  49              		.fpu fpv5-d16
  51              	_ZN5daisy10DaisyPatchD2Ev:
  52              	.LVL1:
  53              	.LFB4230:
  54              		.file 2 "../../libdaisy/src/daisy_patch.h"
   1:../../libdaisy/src/daisy_patch.h **** #pragma once
   2:../../libdaisy/src/daisy_patch.h **** #ifndef DSY_PATCH_BSP_H
   3:../../libdaisy/src/daisy_patch.h **** #define DSY_PATCH_BSP_H
   4:../../libdaisy/src/daisy_patch.h **** #include "daisy_seed.h"
   5:../../libdaisy/src/daisy_patch.h **** #include "dev/oled_ssd130x.h"
   6:../../libdaisy/src/daisy_patch.h **** 
   7:../../libdaisy/src/daisy_patch.h **** namespace daisy
   8:../../libdaisy/src/daisy_patch.h **** {
   9:../../libdaisy/src/daisy_patch.h **** /**
  10:../../libdaisy/src/daisy_patch.h ****     @brief Class that handles initializing all of the hardware specific to the Daisy Patch Board. \
  11:../../libdaisy/src/daisy_patch.h ****     Helper funtions are also in place to provide easy access to built-in controls and peripherals.
  12:../../libdaisy/src/daisy_patch.h ****     @author Stephen Hensley
  13:../../libdaisy/src/daisy_patch.h ****     @date November 2019
  14:../../libdaisy/src/daisy_patch.h ****     @ingroup boards
  15:../../libdaisy/src/daisy_patch.h **** */
  16:../../libdaisy/src/daisy_patch.h **** class DaisyPatch
  17:../../libdaisy/src/daisy_patch.h **** {
  18:../../libdaisy/src/daisy_patch.h ****   public:
  19:../../libdaisy/src/daisy_patch.h ****     /** Enum of Ctrls to represent the four CV/Knob combos on the Patch
  20:../../libdaisy/src/daisy_patch.h ****      */
  21:../../libdaisy/src/daisy_patch.h ****     enum Ctrl
  22:../../libdaisy/src/daisy_patch.h ****     {
  23:../../libdaisy/src/daisy_patch.h ****         CTRL_1,    /**< */
  24:../../libdaisy/src/daisy_patch.h ****         CTRL_2,    /**< */
  25:../../libdaisy/src/daisy_patch.h ****         CTRL_3,    /**< */
  26:../../libdaisy/src/daisy_patch.h ****         CTRL_4,    /**< */
  27:../../libdaisy/src/daisy_patch.h ****         CTRL_LAST, /**< */
  28:../../libdaisy/src/daisy_patch.h ****     };
  29:../../libdaisy/src/daisy_patch.h **** 
  30:../../libdaisy/src/daisy_patch.h ****     /** Daisy patch gate inputs */
  31:../../libdaisy/src/daisy_patch.h ****     enum GateInput
  32:../../libdaisy/src/daisy_patch.h ****     {
  33:../../libdaisy/src/daisy_patch.h ****         GATE_IN_1,    /**< */
  34:../../libdaisy/src/daisy_patch.h ****         GATE_IN_2,    /** <*/
  35:../../libdaisy/src/daisy_patch.h ****         GATE_IN_LAST, /**< */
  36:../../libdaisy/src/daisy_patch.h ****     };
  37:../../libdaisy/src/daisy_patch.h **** 
  38:../../libdaisy/src/daisy_patch.h ****     /** Constructor */
  39:../../libdaisy/src/daisy_patch.h ****     DaisyPatch() {}
  40:../../libdaisy/src/daisy_patch.h ****     /** Destructor */
  41:../../libdaisy/src/daisy_patch.h ****     ~DaisyPatch() {}
  55              		.loc 2 41 5 is_stmt 1 view -0
  56              		.cfi_startproc
  57              		@ args = 0, pretend = 0, frame = 0
  58              		@ frame_needed = 0, uses_anonymous_args = 0
  59              		@ link register save eliminated.
  60              	.LBB681:
ARM GAS  /tmp/cc3v7X8N.s 			page 3


  61              	.LBI681:
  62              		.file 3 "../../libdaisy/src/hid/disp/oled_display.h"
   1:../../libdaisy/src/hid/disp/oled_display.h **** #pragma once
   2:../../libdaisy/src/hid/disp/oled_display.h **** #ifndef DSY_OLED_DISPLAY_H
   3:../../libdaisy/src/hid/disp/oled_display.h **** #define DSY_OLED_DISPLAY_H /**< Macro */
   4:../../libdaisy/src/hid/disp/oled_display.h **** 
   5:../../libdaisy/src/hid/disp/oled_display.h **** #include "display.h"
   6:../../libdaisy/src/hid/disp/oled_display.h **** 
   7:../../libdaisy/src/hid/disp/oled_display.h **** namespace daisy
   8:../../libdaisy/src/hid/disp/oled_display.h **** {
   9:../../libdaisy/src/hid/disp/oled_display.h **** /** 
  10:../../libdaisy/src/hid/disp/oled_display.h ****  * This class is for drawing to a monochrome OLED display. 
  11:../../libdaisy/src/hid/disp/oled_display.h **** */
  12:../../libdaisy/src/hid/disp/oled_display.h **** template <typename DisplayDriver>
  13:../../libdaisy/src/hid/disp/oled_display.h **** class OledDisplay : public OneBitGraphicsDisplayImpl<OledDisplay<DisplayDriver>>
  14:../../libdaisy/src/hid/disp/oled_display.h **** {
  15:../../libdaisy/src/hid/disp/oled_display.h ****   public:
  16:../../libdaisy/src/hid/disp/oled_display.h ****     OledDisplay() {}
  17:../../libdaisy/src/hid/disp/oled_display.h ****     virtual ~OledDisplay() {}
  63              		.loc 3 17 13 view .LVU3
  64              	.LBB682:
  65              	.LBI682:
  66              		.file 4 "../../libdaisy/src/hid/disp/display.h"
   1:../../libdaisy/src/hid/disp/display.h **** #pragma once
   2:../../libdaisy/src/hid/disp/display.h **** #ifndef DSY_DISPLAY_H
   3:../../libdaisy/src/hid/disp/display.h **** #define DSY_DISPLAY_H /**< Macro */
   4:../../libdaisy/src/hid/disp/display.h **** #include <cmath>
   5:../../libdaisy/src/hid/disp/display.h **** #include "util/oled_fonts.h"
   6:../../libdaisy/src/hid/disp/display.h **** #include "daisy_core.h"
   7:../../libdaisy/src/hid/disp/display.h **** #include "graphics_common.h"
   8:../../libdaisy/src/hid/disp/display.h **** 
   9:../../libdaisy/src/hid/disp/display.h **** #ifndef deg2rad
  10:../../libdaisy/src/hid/disp/display.h **** #define deg2rad(deg) ((deg)*3.141592 / 180.0)
  11:../../libdaisy/src/hid/disp/display.h **** #endif
  12:../../libdaisy/src/hid/disp/display.h **** 
  13:../../libdaisy/src/hid/disp/display.h **** namespace daisy
  14:../../libdaisy/src/hid/disp/display.h **** {
  15:../../libdaisy/src/hid/disp/display.h **** /** 
  16:../../libdaisy/src/hid/disp/display.h ****  * This interface is used as a base class for all types of 1bit-per-pixel
  17:../../libdaisy/src/hid/disp/display.h ****  * graphics displays.
  18:../../libdaisy/src/hid/disp/display.h **** */
  19:../../libdaisy/src/hid/disp/display.h **** class OneBitGraphicsDisplay
  20:../../libdaisy/src/hid/disp/display.h **** {
  21:../../libdaisy/src/hid/disp/display.h ****   public:
  22:../../libdaisy/src/hid/disp/display.h ****     OneBitGraphicsDisplay() {}
  23:../../libdaisy/src/hid/disp/display.h ****     virtual ~OneBitGraphicsDisplay() {}
  24:../../libdaisy/src/hid/disp/display.h **** 
  25:../../libdaisy/src/hid/disp/display.h ****     virtual uint16_t Height() const = 0;
  26:../../libdaisy/src/hid/disp/display.h ****     virtual uint16_t Width() const  = 0;
  27:../../libdaisy/src/hid/disp/display.h **** 
  28:../../libdaisy/src/hid/disp/display.h ****     Rectangle GetBounds() const
  29:../../libdaisy/src/hid/disp/display.h ****     {
  30:../../libdaisy/src/hid/disp/display.h ****         return Rectangle(int16_t(Width()), int16_t(Height()));
  31:../../libdaisy/src/hid/disp/display.h ****     }
  32:../../libdaisy/src/hid/disp/display.h **** 
  33:../../libdaisy/src/hid/disp/display.h **** 
  34:../../libdaisy/src/hid/disp/display.h ****     size_t CurrentX() { return currentX_; };
ARM GAS  /tmp/cc3v7X8N.s 			page 4


  35:../../libdaisy/src/hid/disp/display.h ****     size_t CurrentY() { return currentY_; };
  36:../../libdaisy/src/hid/disp/display.h **** 
  37:../../libdaisy/src/hid/disp/display.h ****     /** 
  38:../../libdaisy/src/hid/disp/display.h ****     Fills the entire display with either on/off.
  39:../../libdaisy/src/hid/disp/display.h ****     \param on Sets on or off.
  40:../../libdaisy/src/hid/disp/display.h ****     */
  41:../../libdaisy/src/hid/disp/display.h ****     virtual void Fill(bool on) = 0;
  42:../../libdaisy/src/hid/disp/display.h **** 
  43:../../libdaisy/src/hid/disp/display.h ****     /**
  44:../../libdaisy/src/hid/disp/display.h ****     Sets the pixel at the specified coordinate to be on/off.
  45:../../libdaisy/src/hid/disp/display.h ****     \param x   x Coordinate
  46:../../libdaisy/src/hid/disp/display.h ****     \param y   y coordinate
  47:../../libdaisy/src/hid/disp/display.h ****     \param on  on or off
  48:../../libdaisy/src/hid/disp/display.h ****     */
  49:../../libdaisy/src/hid/disp/display.h ****     virtual void DrawPixel(uint_fast8_t x, uint_fast8_t y, bool on) = 0;
  50:../../libdaisy/src/hid/disp/display.h **** 
  51:../../libdaisy/src/hid/disp/display.h ****     /**
  52:../../libdaisy/src/hid/disp/display.h ****     Draws a line from (x1, y1) to (y1, y2)
  53:../../libdaisy/src/hid/disp/display.h ****     \param x1  x Coordinate of the starting point
  54:../../libdaisy/src/hid/disp/display.h ****     \param y1  y Coordinate of the starting point
  55:../../libdaisy/src/hid/disp/display.h ****     \param x2  x Coordinate of the ending point
  56:../../libdaisy/src/hid/disp/display.h ****     \param y2  y Coordinate of the ending point
  57:../../libdaisy/src/hid/disp/display.h ****     \param on  on or off
  58:../../libdaisy/src/hid/disp/display.h ****     */
  59:../../libdaisy/src/hid/disp/display.h ****     virtual void DrawLine(uint_fast8_t x1,
  60:../../libdaisy/src/hid/disp/display.h ****                           uint_fast8_t y1,
  61:../../libdaisy/src/hid/disp/display.h ****                           uint_fast8_t x2,
  62:../../libdaisy/src/hid/disp/display.h ****                           uint_fast8_t y2,
  63:../../libdaisy/src/hid/disp/display.h ****                           bool         on)
  64:../../libdaisy/src/hid/disp/display.h ****         = 0;
  65:../../libdaisy/src/hid/disp/display.h **** 
  66:../../libdaisy/src/hid/disp/display.h ****     /**
  67:../../libdaisy/src/hid/disp/display.h ****     Draws a rectangle based on two coordinates.
  68:../../libdaisy/src/hid/disp/display.h ****     \param x1 x Coordinate of the first point
  69:../../libdaisy/src/hid/disp/display.h ****     \param y1 y Coordinate of the first point
  70:../../libdaisy/src/hid/disp/display.h ****     \param x2 x Coordinate of the second point
  71:../../libdaisy/src/hid/disp/display.h ****     \param y2 y Coordinate of the second point
  72:../../libdaisy/src/hid/disp/display.h ****     \param on on or off
  73:../../libdaisy/src/hid/disp/display.h ****     \param fill fill the rectangle or draw only the outline
  74:../../libdaisy/src/hid/disp/display.h ****     */
  75:../../libdaisy/src/hid/disp/display.h ****     virtual void DrawRect(uint_fast8_t x1,
  76:../../libdaisy/src/hid/disp/display.h ****                           uint_fast8_t y1,
  77:../../libdaisy/src/hid/disp/display.h ****                           uint_fast8_t x2,
  78:../../libdaisy/src/hid/disp/display.h ****                           uint_fast8_t y2,
  79:../../libdaisy/src/hid/disp/display.h ****                           bool         on,
  80:../../libdaisy/src/hid/disp/display.h ****                           bool         fill = false)
  81:../../libdaisy/src/hid/disp/display.h ****         = 0;
  82:../../libdaisy/src/hid/disp/display.h **** 
  83:../../libdaisy/src/hid/disp/display.h ****     /**
  84:../../libdaisy/src/hid/disp/display.h ****     Draws a rectangle.
  85:../../libdaisy/src/hid/disp/display.h ****     \param rect the rectangle
  86:../../libdaisy/src/hid/disp/display.h ****     \param on   on or off
  87:../../libdaisy/src/hid/disp/display.h ****     \param fill fill the rectangle or draw only the outline
  88:../../libdaisy/src/hid/disp/display.h ****     */
  89:../../libdaisy/src/hid/disp/display.h ****     void DrawRect(const Rectangle& rect, bool on, bool fill = false)
  90:../../libdaisy/src/hid/disp/display.h ****     {
  91:../../libdaisy/src/hid/disp/display.h ****         DrawRect(rect.GetX(),
ARM GAS  /tmp/cc3v7X8N.s 			page 5


  92:../../libdaisy/src/hid/disp/display.h ****                  rect.GetY(),
  93:../../libdaisy/src/hid/disp/display.h ****                  rect.GetRight(),
  94:../../libdaisy/src/hid/disp/display.h ****                  rect.GetBottom(),
  95:../../libdaisy/src/hid/disp/display.h ****                  on,
  96:../../libdaisy/src/hid/disp/display.h ****                  fill);
  97:../../libdaisy/src/hid/disp/display.h ****     }
  98:../../libdaisy/src/hid/disp/display.h **** 
  99:../../libdaisy/src/hid/disp/display.h ****     /**
 100:../../libdaisy/src/hid/disp/display.h ****     Draws an arc around the specified coordinate
 101:../../libdaisy/src/hid/disp/display.h ****     \param x           x Coordinate of the center of the arc
 102:../../libdaisy/src/hid/disp/display.h ****     \param y           y Coordinate of the center of the arc
 103:../../libdaisy/src/hid/disp/display.h ****     \param radius      radius of the arc
 104:../../libdaisy/src/hid/disp/display.h ****     \param start_angle angle where to start the arc
 105:../../libdaisy/src/hid/disp/display.h ****     \param sweep       total angle of the arc
 106:../../libdaisy/src/hid/disp/display.h ****     \param on  on or off
 107:../../libdaisy/src/hid/disp/display.h ****     */
 108:../../libdaisy/src/hid/disp/display.h ****     virtual void DrawArc(uint_fast8_t x,
 109:../../libdaisy/src/hid/disp/display.h ****                          uint_fast8_t y,
 110:../../libdaisy/src/hid/disp/display.h ****                          uint_fast8_t radius,
 111:../../libdaisy/src/hid/disp/display.h ****                          int_fast16_t start_angle,
 112:../../libdaisy/src/hid/disp/display.h ****                          int_fast16_t sweep,
 113:../../libdaisy/src/hid/disp/display.h ****                          bool         on)
 114:../../libdaisy/src/hid/disp/display.h ****         = 0;
 115:../../libdaisy/src/hid/disp/display.h **** 
 116:../../libdaisy/src/hid/disp/display.h ****     /**
 117:../../libdaisy/src/hid/disp/display.h ****     Draws a circle around the specified coordinate
 118:../../libdaisy/src/hid/disp/display.h ****     \param x           x Coordinate of the center of the circle
 119:../../libdaisy/src/hid/disp/display.h ****     \param y           y Coordinate of the center of the circle
 120:../../libdaisy/src/hid/disp/display.h ****     \param radius      radius of the circle
 121:../../libdaisy/src/hid/disp/display.h ****     \param on  on or off
 122:../../libdaisy/src/hid/disp/display.h ****     */
 123:../../libdaisy/src/hid/disp/display.h ****     void
 124:../../libdaisy/src/hid/disp/display.h ****     DrawCircle(uint_fast8_t x, uint_fast8_t y, uint_fast8_t radius, bool on)
 125:../../libdaisy/src/hid/disp/display.h ****     {
 126:../../libdaisy/src/hid/disp/display.h ****         DrawArc(x, y, radius, 0, 360, on);
 127:../../libdaisy/src/hid/disp/display.h ****     };
 128:../../libdaisy/src/hid/disp/display.h **** 
 129:../../libdaisy/src/hid/disp/display.h ****     /** 
 130:../../libdaisy/src/hid/disp/display.h ****     Writes the character with the specific FontDef
 131:../../libdaisy/src/hid/disp/display.h ****     to the display buffer at the current Cursor position.
 132:../../libdaisy/src/hid/disp/display.h ****     \param ch character to be written
 133:../../libdaisy/src/hid/disp/display.h ****     \param font font to be written in
 134:../../libdaisy/src/hid/disp/display.h ****     \param on    on or off
 135:../../libdaisy/src/hid/disp/display.h ****     \return &
 136:../../libdaisy/src/hid/disp/display.h ****     */
 137:../../libdaisy/src/hid/disp/display.h ****     virtual char WriteChar(char ch, FontDef font, bool on) = 0;
 138:../../libdaisy/src/hid/disp/display.h **** 
 139:../../libdaisy/src/hid/disp/display.h ****     /** 
 140:../../libdaisy/src/hid/disp/display.h ****     Similar to WriteChar, except it will handle an entire String.
 141:../../libdaisy/src/hid/disp/display.h ****     Wrapping does not happen automatically, so the width
 142:../../libdaisy/src/hid/disp/display.h ****     of the string must be kept within the dimensions of the screen.
 143:../../libdaisy/src/hid/disp/display.h ****     \param str string to be written
 144:../../libdaisy/src/hid/disp/display.h ****     \param font font to use
 145:../../libdaisy/src/hid/disp/display.h ****     \param on  on or off
 146:../../libdaisy/src/hid/disp/display.h ****     \return &
 147:../../libdaisy/src/hid/disp/display.h ****     */
 148:../../libdaisy/src/hid/disp/display.h ****     virtual char WriteString(const char* str, FontDef font, bool on) = 0;
ARM GAS  /tmp/cc3v7X8N.s 			page 6


 149:../../libdaisy/src/hid/disp/display.h **** 
 150:../../libdaisy/src/hid/disp/display.h ****     /** 
 151:../../libdaisy/src/hid/disp/display.h ****     Similar to WriteString but justified within a bounding box.
 152:../../libdaisy/src/hid/disp/display.h ****     \param str          string to be written
 153:../../libdaisy/src/hid/disp/display.h ****     \param font         font to use
 154:../../libdaisy/src/hid/disp/display.h ****     \param boundingBox  the bounding box to draw the text in
 155:../../libdaisy/src/hid/disp/display.h ****     \param alignment    the alignment to use
 156:../../libdaisy/src/hid/disp/display.h ****     \param on           on or off
 157:../../libdaisy/src/hid/disp/display.h ****     \return The rectangle that was drawn to
 158:../../libdaisy/src/hid/disp/display.h ****     */
 159:../../libdaisy/src/hid/disp/display.h ****     virtual Rectangle WriteStringAligned(const char*    str,
 160:../../libdaisy/src/hid/disp/display.h ****                                          const FontDef& font,
 161:../../libdaisy/src/hid/disp/display.h ****                                          Rectangle      boundingBox,
 162:../../libdaisy/src/hid/disp/display.h ****                                          Alignment      alignment,
 163:../../libdaisy/src/hid/disp/display.h ****                                          bool           on)
 164:../../libdaisy/src/hid/disp/display.h ****         = 0;
 165:../../libdaisy/src/hid/disp/display.h **** 
 166:../../libdaisy/src/hid/disp/display.h ****     /** 
 167:../../libdaisy/src/hid/disp/display.h ****     Moves the 'Cursor' position used for WriteChar, and WriteStr to the specified coordinate.
 168:../../libdaisy/src/hid/disp/display.h ****     \param x x pos
 169:../../libdaisy/src/hid/disp/display.h ****     \param y y pos
 170:../../libdaisy/src/hid/disp/display.h ****     */
 171:../../libdaisy/src/hid/disp/display.h ****     void SetCursor(uint16_t x, uint16_t y)
 172:../../libdaisy/src/hid/disp/display.h ****     {
 173:../../libdaisy/src/hid/disp/display.h ****         currentX_ = (x >= Width()) ? Width() - 1 : x;
 174:../../libdaisy/src/hid/disp/display.h ****         currentY_ = (y >= Height()) ? Height() - 1 : y;
 175:../../libdaisy/src/hid/disp/display.h ****     }
 176:../../libdaisy/src/hid/disp/display.h **** 
 177:../../libdaisy/src/hid/disp/display.h ****     /** 
 178:../../libdaisy/src/hid/disp/display.h ****     Writes the current display buffer to the OLED device using SPI or I2C depending on 
 179:../../libdaisy/src/hid/disp/display.h ****     how the object was initialized.
 180:../../libdaisy/src/hid/disp/display.h ****     */
 181:../../libdaisy/src/hid/disp/display.h ****     virtual void Update() = 0;
 182:../../libdaisy/src/hid/disp/display.h **** 
 183:../../libdaisy/src/hid/disp/display.h ****   protected:
 184:../../libdaisy/src/hid/disp/display.h ****     uint16_t currentX_;
 185:../../libdaisy/src/hid/disp/display.h ****     uint16_t currentY_;
 186:../../libdaisy/src/hid/disp/display.h **** };
 187:../../libdaisy/src/hid/disp/display.h **** 
 188:../../libdaisy/src/hid/disp/display.h **** /** This class is intended as a intermediary class for your actual implementation of the OneBitGrap
 189:../../libdaisy/src/hid/disp/display.h ****  *  interface. It uses the CRTP design pattern where the template argument is the child class. It p
 190:../../libdaisy/src/hid/disp/display.h ****  *  implementations for most of the functions, except DrawPixel(), Update() and Fill(), which you'l
 191:../../libdaisy/src/hid/disp/display.h ****  *  to provide in your child class.
 192:../../libdaisy/src/hid/disp/display.h ****  *  The main goal of this class is to provide common drawing functions without relying on massive a
 193:../../libdaisy/src/hid/disp/display.h ****  *  virtual function calls that would result in a performance loss. To achieve this, any drawing fu
 194:../../libdaisy/src/hid/disp/display.h ****  *  is implemented here and internally calls other drawing functions (e.g. DrawRect() which interna
 195:../../libdaisy/src/hid/disp/display.h ****  *  DrawPixel() and DrawLine()) makes these calls via the qualified name of these functions to expl
 196:../../libdaisy/src/hid/disp/display.h ****  *  suppress the virtual dispatch mechanism like this:
 197:../../libdaisy/src/hid/disp/display.h ****  * 
 198:../../libdaisy/src/hid/disp/display.h ****  *      ChildType::DrawPixel(...); // no virtual function call; direct call into the child class fu
 199:../../libdaisy/src/hid/disp/display.h ****  *  
 200:../../libdaisy/src/hid/disp/display.h ****  *  To create a custom OneBitGraphicsDisplay implementation, you can 
 201:../../libdaisy/src/hid/disp/display.h ****  *  A) inherit from OneBitGraphicsDisplay directly and provide all the drawing functions yourself
 202:../../libdaisy/src/hid/disp/display.h ****  *  B) Inherit from OneBitGraphicsDisplayImpl and only provide DrawPixel(), Fill() and Update()
 203:../../libdaisy/src/hid/disp/display.h ****  *     like this:
 204:../../libdaisy/src/hid/disp/display.h ****  *  
 205:../../libdaisy/src/hid/disp/display.h ****  *      class MyDisplayClass : public OneBitGraphicsDisplayImpl<MyDisplayClass> 
ARM GAS  /tmp/cc3v7X8N.s 			page 7


 206:../../libdaisy/src/hid/disp/display.h ****  *      {
 207:../../libdaisy/src/hid/disp/display.h ****  *      public:
 208:../../libdaisy/src/hid/disp/display.h ****  *          void Fill() override { ... };
 209:../../libdaisy/src/hid/disp/display.h ****  *          void DrawPixel(uint_fast8_t x, uint_fast8_t y, bool on) override { ... };
 210:../../libdaisy/src/hid/disp/display.h ****  *          void Update() override { ... }
 211:../../libdaisy/src/hid/disp/display.h ****  *      };
 212:../../libdaisy/src/hid/disp/display.h ****  *  
 213:../../libdaisy/src/hid/disp/display.h ****  */
 214:../../libdaisy/src/hid/disp/display.h **** template <class ChildType>
 215:../../libdaisy/src/hid/disp/display.h **** class OneBitGraphicsDisplayImpl : public OneBitGraphicsDisplay
 216:../../libdaisy/src/hid/disp/display.h **** {
 217:../../libdaisy/src/hid/disp/display.h ****   public:
 218:../../libdaisy/src/hid/disp/display.h ****     OneBitGraphicsDisplayImpl() {}
 219:../../libdaisy/src/hid/disp/display.h ****     virtual ~OneBitGraphicsDisplayImpl() {}
  67              		.loc 4 219 13 view .LVU4
  68              	.LBB683:
  69              	.LBI683:
  23:../../libdaisy/src/hid/disp/display.h **** 
  70              		.loc 4 23 13 view .LVU5
  23:../../libdaisy/src/hid/disp/display.h **** 
  71              		.loc 4 23 13 is_stmt 0 view .LVU6
  72              	.LBE683:
  73              	.LBE682:
  74              	.LBE681:
  75              	.LBB684:
  76              	.LBI684:
  77              		.file 5 "../../libdaisy/src/hid/midi.h"
   1:../../libdaisy/src/hid/midi.h **** #pragma once
   2:../../libdaisy/src/hid/midi.h **** #ifndef DSY_MIDI_H
   3:../../libdaisy/src/hid/midi.h **** #define DSY_MIDI_H
   4:../../libdaisy/src/hid/midi.h **** 
   5:../../libdaisy/src/hid/midi.h **** // TODO: make this adjustable
   6:../../libdaisy/src/hid/midi.h **** #define SYSEX_BUFFER_LEN 128
   7:../../libdaisy/src/hid/midi.h **** 
   8:../../libdaisy/src/hid/midi.h **** #include <stdint.h>
   9:../../libdaisy/src/hid/midi.h **** #include <stdlib.h>
  10:../../libdaisy/src/hid/midi.h **** #include "per/uart.h"
  11:../../libdaisy/src/hid/midi.h **** #include "util/ringbuffer.h"
  12:../../libdaisy/src/hid/midi.h **** #include "hid/MidiEvent.h"
  13:../../libdaisy/src/hid/midi.h **** #include "sys/system.h"
  14:../../libdaisy/src/hid/midi.h **** 
  15:../../libdaisy/src/hid/midi.h **** namespace daisy
  16:../../libdaisy/src/hid/midi.h **** {
  17:../../libdaisy/src/hid/midi.h **** /** @addtogroup external 
  18:../../libdaisy/src/hid/midi.h ****     @{ 
  19:../../libdaisy/src/hid/midi.h **** */
  20:../../libdaisy/src/hid/midi.h **** 
  21:../../libdaisy/src/hid/midi.h **** class MidiUartTransport
  22:../../libdaisy/src/hid/midi.h **** {
  23:../../libdaisy/src/hid/midi.h ****   public:
  24:../../libdaisy/src/hid/midi.h ****     MidiUartTransport() {}
  25:../../libdaisy/src/hid/midi.h ****     ~MidiUartTransport() {}
  26:../../libdaisy/src/hid/midi.h **** 
  27:../../libdaisy/src/hid/midi.h ****     struct Config
  28:../../libdaisy/src/hid/midi.h ****     {
  29:../../libdaisy/src/hid/midi.h ****         UartHandler::Config::Peripheral periph;
  30:../../libdaisy/src/hid/midi.h ****         dsy_gpio_pin                    rx;
ARM GAS  /tmp/cc3v7X8N.s 			page 8


  31:../../libdaisy/src/hid/midi.h ****         dsy_gpio_pin                    tx;
  32:../../libdaisy/src/hid/midi.h **** 
  33:../../libdaisy/src/hid/midi.h ****         Config()
  34:../../libdaisy/src/hid/midi.h ****         {
  35:../../libdaisy/src/hid/midi.h ****             periph = UartHandler::Config::Peripheral::USART_1;
  36:../../libdaisy/src/hid/midi.h ****             rx     = {DSY_GPIOB, 7};
  37:../../libdaisy/src/hid/midi.h ****             tx     = {DSY_GPIOB, 6};
  38:../../libdaisy/src/hid/midi.h ****         }
  39:../../libdaisy/src/hid/midi.h ****     };
  40:../../libdaisy/src/hid/midi.h **** 
  41:../../libdaisy/src/hid/midi.h ****     inline void Init(Config config)
  42:../../libdaisy/src/hid/midi.h ****     {
  43:../../libdaisy/src/hid/midi.h ****         UartHandler::Config uart_config;
  44:../../libdaisy/src/hid/midi.h **** 
  45:../../libdaisy/src/hid/midi.h ****         //defaults
  46:../../libdaisy/src/hid/midi.h ****         uart_config.baudrate   = 31250;
  47:../../libdaisy/src/hid/midi.h ****         uart_config.stopbits   = UartHandler::Config::StopBits::BITS_1;
  48:../../libdaisy/src/hid/midi.h ****         uart_config.parity     = UartHandler::Config::Parity::NONE;
  49:../../libdaisy/src/hid/midi.h ****         uart_config.mode       = UartHandler::Config::Mode::TX_RX;
  50:../../libdaisy/src/hid/midi.h ****         uart_config.wordlength = UartHandler::Config::WordLength::BITS_8;
  51:../../libdaisy/src/hid/midi.h **** 
  52:../../libdaisy/src/hid/midi.h ****         //user settings
  53:../../libdaisy/src/hid/midi.h ****         uart_config.periph        = config.periph;
  54:../../libdaisy/src/hid/midi.h ****         uart_config.pin_config.rx = config.rx;
  55:../../libdaisy/src/hid/midi.h ****         uart_config.pin_config.tx = config.tx;
  56:../../libdaisy/src/hid/midi.h **** 
  57:../../libdaisy/src/hid/midi.h ****         uart_.Init(uart_config);
  58:../../libdaisy/src/hid/midi.h ****     }
  59:../../libdaisy/src/hid/midi.h **** 
  60:../../libdaisy/src/hid/midi.h ****     inline void    StartRx() { uart_.StartRx(); }
  61:../../libdaisy/src/hid/midi.h ****     inline size_t  Readable() { return uart_.Readable(); }
  62:../../libdaisy/src/hid/midi.h ****     inline uint8_t Rx() { return uart_.PopRx(); }
  63:../../libdaisy/src/hid/midi.h ****     inline bool    RxActive() { return uart_.RxActive(); }
  64:../../libdaisy/src/hid/midi.h ****     inline void    FlushRx() { uart_.FlushRx(); }
  65:../../libdaisy/src/hid/midi.h ****     inline void    Tx(uint8_t* buff, size_t size) { uart_.PollTx(buff, size); }
  66:../../libdaisy/src/hid/midi.h **** 
  67:../../libdaisy/src/hid/midi.h ****   private:
  68:../../libdaisy/src/hid/midi.h ****     UartHandler uart_;
  69:../../libdaisy/src/hid/midi.h **** };
  70:../../libdaisy/src/hid/midi.h **** 
  71:../../libdaisy/src/hid/midi.h **** /** 
  72:../../libdaisy/src/hid/midi.h ****     @brief Simple MIDI Handler \n 
  73:../../libdaisy/src/hid/midi.h ****     Parses bytes from an input into valid MidiEvents. \n 
  74:../../libdaisy/src/hid/midi.h ****     The MidiEvents fill a FIFO queue that the user can pop messages from.
  75:../../libdaisy/src/hid/midi.h ****     @author shensley
  76:../../libdaisy/src/hid/midi.h ****     @date March 2020
  77:../../libdaisy/src/hid/midi.h **** */
  78:../../libdaisy/src/hid/midi.h **** template <typename Transport>
  79:../../libdaisy/src/hid/midi.h **** class MidiHandler
  80:../../libdaisy/src/hid/midi.h **** {
  81:../../libdaisy/src/hid/midi.h ****   public:
  82:../../libdaisy/src/hid/midi.h ****     MidiHandler() {}
  83:../../libdaisy/src/hid/midi.h ****     ~MidiHandler() {}
  78              		.loc 5 83 5 is_stmt 1 view .LVU7
  79              	.LBB685:
  80              	.LBI685:
  25:../../libdaisy/src/hid/midi.h **** 
ARM GAS  /tmp/cc3v7X8N.s 			page 9


  81              		.loc 5 25 5 view .LVU8
  25:../../libdaisy/src/hid/midi.h **** 
  82              		.loc 5 25 5 is_stmt 0 view .LVU9
  83              	.LBE685:
  84              	.LBE684:
  85              	.LBB686:
  86              	.LBI686:
  87              		.file 6 "../../libdaisy/src/hid/encoder.h"
   1:../../libdaisy/src/hid/encoder.h **** #pragma once
   2:../../libdaisy/src/hid/encoder.h **** #ifndef DSY_ENCODER_H
   3:../../libdaisy/src/hid/encoder.h **** #define DSY_ENCODER_H
   4:../../libdaisy/src/hid/encoder.h **** #include "daisy_core.h"
   5:../../libdaisy/src/hid/encoder.h **** #include "per/gpio.h"
   6:../../libdaisy/src/hid/encoder.h **** #include "hid/switch.h"
   7:../../libdaisy/src/hid/encoder.h **** 
   8:../../libdaisy/src/hid/encoder.h **** namespace daisy
   9:../../libdaisy/src/hid/encoder.h **** {
  10:../../libdaisy/src/hid/encoder.h **** /** 
  11:../../libdaisy/src/hid/encoder.h ****     @brief Generic Class for handling Quadrature Encoders \n 
  12:../../libdaisy/src/hid/encoder.h ****     Inspired/influenced by Mutable Instruments (pichenettes) Encoder classes
  13:../../libdaisy/src/hid/encoder.h ****     @author Stephen Hensley
  14:../../libdaisy/src/hid/encoder.h ****     @date December 2019
  15:../../libdaisy/src/hid/encoder.h ****     @ingroup controls
  16:../../libdaisy/src/hid/encoder.h **** */
  17:../../libdaisy/src/hid/encoder.h **** class Encoder
  18:../../libdaisy/src/hid/encoder.h **** {
  19:../../libdaisy/src/hid/encoder.h ****   public:
  20:../../libdaisy/src/hid/encoder.h ****     Encoder() {}
  21:../../libdaisy/src/hid/encoder.h ****     ~Encoder() {}
  88              		.loc 6 21 5 is_stmt 1 view .LVU10
  89              	.LBB687:
  90              	.LBI687:
  91              		.file 7 "../../libdaisy/src/hid/switch.h"
   1:../../libdaisy/src/hid/switch.h **** #pragma once
   2:../../libdaisy/src/hid/switch.h **** #ifndef DSY_SWITCH_H
   3:../../libdaisy/src/hid/switch.h **** #define DSY_SWITCH_H
   4:../../libdaisy/src/hid/switch.h **** #include "daisy_core.h"
   5:../../libdaisy/src/hid/switch.h **** #include "per/gpio.h"
   6:../../libdaisy/src/hid/switch.h **** 
   7:../../libdaisy/src/hid/switch.h **** namespace daisy
   8:../../libdaisy/src/hid/switch.h **** {
   9:../../libdaisy/src/hid/switch.h **** /** 
  10:../../libdaisy/src/hid/switch.h ****     Generic Class for handling momentary/latching switches \n 
  11:../../libdaisy/src/hid/switch.h ****     Inspired/influenced by Mutable Instruments (pichenettes) Switch classes
  12:../../libdaisy/src/hid/switch.h ****     @author Stephen Hensley
  13:../../libdaisy/src/hid/switch.h ****     @date December 2019
  14:../../libdaisy/src/hid/switch.h ****     @ingroup controls
  15:../../libdaisy/src/hid/switch.h **** */
  16:../../libdaisy/src/hid/switch.h **** class Switch
  17:../../libdaisy/src/hid/switch.h **** {
  18:../../libdaisy/src/hid/switch.h ****   public:
  19:../../libdaisy/src/hid/switch.h ****     /** Specifies the expected behavior of the switch */
  20:../../libdaisy/src/hid/switch.h ****     enum Type
  21:../../libdaisy/src/hid/switch.h ****     {
  22:../../libdaisy/src/hid/switch.h ****         TYPE_TOGGLE,    /**< & */
  23:../../libdaisy/src/hid/switch.h ****         TYPE_MOMENTARY, /**< & */
  24:../../libdaisy/src/hid/switch.h ****     };
ARM GAS  /tmp/cc3v7X8N.s 			page 10


  25:../../libdaisy/src/hid/switch.h ****     /** Specifies whether the pressed is HIGH or LOW. */
  26:../../libdaisy/src/hid/switch.h ****     enum Polarity
  27:../../libdaisy/src/hid/switch.h ****     {
  28:../../libdaisy/src/hid/switch.h ****         POLARITY_NORMAL,   /**< & */
  29:../../libdaisy/src/hid/switch.h ****         POLARITY_INVERTED, /**< & */
  30:../../libdaisy/src/hid/switch.h ****     };
  31:../../libdaisy/src/hid/switch.h **** 
  32:../../libdaisy/src/hid/switch.h ****     /** Specifies whether to use built-in Pull Up/Down resistors to hold button at a given state wh
  33:../../libdaisy/src/hid/switch.h ****     enum Pull
  34:../../libdaisy/src/hid/switch.h ****     {
  35:../../libdaisy/src/hid/switch.h ****         PULL_UP,   /**< & */
  36:../../libdaisy/src/hid/switch.h ****         PULL_DOWN, /**< & */
  37:../../libdaisy/src/hid/switch.h ****         PULL_NONE, /**< & */
  38:../../libdaisy/src/hid/switch.h ****     };
  39:../../libdaisy/src/hid/switch.h **** 
  40:../../libdaisy/src/hid/switch.h ****     Switch() {}
  41:../../libdaisy/src/hid/switch.h ****     ~Switch() {}
  92              		.loc 7 41 5 view .LVU11
  93              		.loc 7 41 5 is_stmt 0 view .LVU12
  94              	.LBE687:
  95              	.LBE686:
  96              	.LBB688:
  97              	.LBI688:
  98              		.file 8 "../../libdaisy/src/daisy_seed.h"
   1:../../libdaisy/src/daisy_seed.h **** #pragma once
   2:../../libdaisy/src/daisy_seed.h **** #ifndef DSY_SEED_H
   3:../../libdaisy/src/daisy_seed.h **** #define DSY_SEED_H
   4:../../libdaisy/src/daisy_seed.h **** 
   5:../../libdaisy/src/daisy_seed.h **** #include "daisy.h"
   6:../../libdaisy/src/daisy_seed.h **** 
   7:../../libdaisy/src/daisy_seed.h **** //Uncomment this out if you're still using the rev2 hardware
   8:../../libdaisy/src/daisy_seed.h **** //#define SEED_REV2
   9:../../libdaisy/src/daisy_seed.h **** 
  10:../../libdaisy/src/daisy_seed.h **** namespace daisy
  11:../../libdaisy/src/daisy_seed.h **** {
  12:../../libdaisy/src/daisy_seed.h **** /**
  13:../../libdaisy/src/daisy_seed.h ****    @brief This is the higher-level interface for the Daisy board. \n 
  14:../../libdaisy/src/daisy_seed.h ****     All basic peripheral configuration/initialization is setup here. \n
  15:../../libdaisy/src/daisy_seed.h **** 
  16:../../libdaisy/src/daisy_seed.h ****    @ingroup boards
  17:../../libdaisy/src/daisy_seed.h **** */
  18:../../libdaisy/src/daisy_seed.h **** class DaisySeed
  19:../../libdaisy/src/daisy_seed.h **** {
  20:../../libdaisy/src/daisy_seed.h ****   public:
  21:../../libdaisy/src/daisy_seed.h ****     DaisySeed() {}
  22:../../libdaisy/src/daisy_seed.h ****     ~DaisySeed() {}
  99              		.loc 8 22 5 is_stmt 1 view .LVU13
 100              	.LBB689:
 101              	.LBI689:
 102              		.file 9 "../../libdaisy/src/sys/system.h"
   1:../../libdaisy/src/sys/system.h **** #ifndef DSY_SYSTEM_H
   2:../../libdaisy/src/sys/system.h **** #define DSY_SYSTEM_H
   3:../../libdaisy/src/sys/system.h **** 
   4:../../libdaisy/src/sys/system.h **** #ifndef UNIT_TEST // for unit tests, a dummy implementation is provided below
   5:../../libdaisy/src/sys/system.h **** 
   6:../../libdaisy/src/sys/system.h **** #include <cstdint>
   7:../../libdaisy/src/sys/system.h **** #include "per/tim.h"
ARM GAS  /tmp/cc3v7X8N.s 			page 11


   8:../../libdaisy/src/sys/system.h **** 
   9:../../libdaisy/src/sys/system.h **** namespace daisy
  10:../../libdaisy/src/sys/system.h **** {
  11:../../libdaisy/src/sys/system.h **** /** A handle for interacting with the Core System. 
  12:../../libdaisy/src/sys/system.h ****  ** This includes the Clock tree, MPU, global DMA initialization,
  13:../../libdaisy/src/sys/system.h ****  ** cache handling, and any other necessary global initiailzation
  14:../../libdaisy/src/sys/system.h ****  **
  15:../../libdaisy/src/sys/system.h ****  ** @author shensley
  16:../../libdaisy/src/sys/system.h ****  ** @addtogroup system
  17:../../libdaisy/src/sys/system.h ****  */
  18:../../libdaisy/src/sys/system.h **** class System
  19:../../libdaisy/src/sys/system.h **** {
  20:../../libdaisy/src/sys/system.h ****   public:
  21:../../libdaisy/src/sys/system.h ****     /** Contains settings for initializing the System */
  22:../../libdaisy/src/sys/system.h ****     struct Config
  23:../../libdaisy/src/sys/system.h ****     {
  24:../../libdaisy/src/sys/system.h ****         /** Specifies the system clock frequency that feeds APB/AHB clocks, etc. */
  25:../../libdaisy/src/sys/system.h ****         enum class SysClkFreq
  26:../../libdaisy/src/sys/system.h ****         {
  27:../../libdaisy/src/sys/system.h ****             FREQ_400MHZ,
  28:../../libdaisy/src/sys/system.h ****             FREQ_480MHZ,
  29:../../libdaisy/src/sys/system.h ****         };
  30:../../libdaisy/src/sys/system.h **** 
  31:../../libdaisy/src/sys/system.h ****         /** Method to call on the struct to set to defaults
  32:../../libdaisy/src/sys/system.h ****          ** CPU Freq set to 400MHz
  33:../../libdaisy/src/sys/system.h ****          ** Cache Enabled 
  34:../../libdaisy/src/sys/system.h ****          ** */
  35:../../libdaisy/src/sys/system.h ****         void Defaults()
  36:../../libdaisy/src/sys/system.h ****         {
  37:../../libdaisy/src/sys/system.h ****             cpu_freq   = SysClkFreq::FREQ_400MHZ;
  38:../../libdaisy/src/sys/system.h ****             use_dcache = true;
  39:../../libdaisy/src/sys/system.h ****             use_icache = true;
  40:../../libdaisy/src/sys/system.h ****         }
  41:../../libdaisy/src/sys/system.h **** 
  42:../../libdaisy/src/sys/system.h ****         /** Method to call on the struct to set to boost mode:
  43:../../libdaisy/src/sys/system.h ****          ** CPU Freq set to 480MHz
  44:../../libdaisy/src/sys/system.h ****          ** Cache Enabled 
  45:../../libdaisy/src/sys/system.h ****          ** */
  46:../../libdaisy/src/sys/system.h ****         void Boost()
  47:../../libdaisy/src/sys/system.h ****         {
  48:../../libdaisy/src/sys/system.h ****             cpu_freq   = SysClkFreq::FREQ_480MHZ;
  49:../../libdaisy/src/sys/system.h ****             use_dcache = true;
  50:../../libdaisy/src/sys/system.h ****             use_icache = true;
  51:../../libdaisy/src/sys/system.h ****         }
  52:../../libdaisy/src/sys/system.h **** 
  53:../../libdaisy/src/sys/system.h ****         SysClkFreq cpu_freq;
  54:../../libdaisy/src/sys/system.h ****         bool       use_dcache;
  55:../../libdaisy/src/sys/system.h ****         bool       use_icache;
  56:../../libdaisy/src/sys/system.h ****     };
  57:../../libdaisy/src/sys/system.h **** 
  58:../../libdaisy/src/sys/system.h ****     System() {}
  59:../../libdaisy/src/sys/system.h ****     ~System() {}
 103              		.loc 9 59 5 view .LVU14
 104              		.loc 9 59 5 is_stmt 0 view .LVU15
 105              	.LBE689:
 106              	.LBB690:
 107              	.LBI690:
ARM GAS  /tmp/cc3v7X8N.s 			page 12


 108              		.file 10 "../../libdaisy/src/hid/usb.h"
   1:../../libdaisy/src/hid/usb.h **** #pragma once
   2:../../libdaisy/src/hid/usb.h **** #ifndef DSY_HID_USB_H
   3:../../libdaisy/src/hid/usb.h **** #define DSY_HID_USB_H
   4:../../libdaisy/src/hid/usb.h **** #include <stdint.h>
   5:../../libdaisy/src/hid/usb.h **** #include <stdlib.h>
   6:../../libdaisy/src/hid/usb.h **** 
   7:../../libdaisy/src/hid/usb.h **** namespace daisy
   8:../../libdaisy/src/hid/usb.h **** /** @addtogroup externals
   9:../../libdaisy/src/hid/usb.h ****     @{
  10:../../libdaisy/src/hid/usb.h **** */
  11:../../libdaisy/src/hid/usb.h **** 
  12:../../libdaisy/src/hid/usb.h **** {
  13:../../libdaisy/src/hid/usb.h **** /** 
  14:../../libdaisy/src/hid/usb.h ****     @brief Interface for initializing and using the USB Peripherals on the daisy
  15:../../libdaisy/src/hid/usb.h ****     @author Stephen Hensley
  16:../../libdaisy/src/hid/usb.h ****     @date December 2019
  17:../../libdaisy/src/hid/usb.h **** */
  18:../../libdaisy/src/hid/usb.h **** class UsbHandle
  19:../../libdaisy/src/hid/usb.h **** {
  20:../../libdaisy/src/hid/usb.h ****   public:
  21:../../libdaisy/src/hid/usb.h ****     /** Return values for USBHandle Functions */
  22:../../libdaisy/src/hid/usb.h ****     enum class Result
  23:../../libdaisy/src/hid/usb.h ****     {
  24:../../libdaisy/src/hid/usb.h ****         OK,
  25:../../libdaisy/src/hid/usb.h ****         ERR,
  26:../../libdaisy/src/hid/usb.h ****     };
  27:../../libdaisy/src/hid/usb.h **** 
  28:../../libdaisy/src/hid/usb.h ****     /** Specified which of the two USB Peripherals to initialize. */
  29:../../libdaisy/src/hid/usb.h ****     enum UsbPeriph
  30:../../libdaisy/src/hid/usb.h ****     {
  31:../../libdaisy/src/hid/usb.h ****         FS_INTERNAL, /**< Internal pin */
  32:../../libdaisy/src/hid/usb.h ****         FS_EXTERNAL, /**< FS External D+ pin is Pin 38 (GPIO32). FS External D- pin is Pin 37 (GPIO
  33:../../libdaisy/src/hid/usb.h ****         FS_BOTH,     /**< Both */
  34:../../libdaisy/src/hid/usb.h ****     };
  35:../../libdaisy/src/hid/usb.h **** 
  36:../../libdaisy/src/hid/usb.h **** 
  37:../../libdaisy/src/hid/usb.h ****     /** Function called upon reception of a buffer */
  38:../../libdaisy/src/hid/usb.h ****     typedef void (*ReceiveCallback)(uint8_t* buff, uint32_t* len);
  39:../../libdaisy/src/hid/usb.h **** 
  40:../../libdaisy/src/hid/usb.h ****     UsbHandle() {}
  41:../../libdaisy/src/hid/usb.h **** 
  42:../../libdaisy/src/hid/usb.h ****     ~UsbHandle() {}
 109              		.loc 10 42 5 is_stmt 1 view .LVU16
 110              		.loc 10 42 5 is_stmt 0 view .LVU17
 111              	.LBE690:
 112              	.LBB691:
 113              	.LBI691:
 114              		.file 11 "../../libdaisy/src/per/adc.h"
   1:../../libdaisy/src/per/adc.h **** #pragma once
   2:../../libdaisy/src/per/adc.h **** #ifndef DSY_ADC_H
   3:../../libdaisy/src/per/adc.h **** #define DSY_ADC_H /**< Macro */
   4:../../libdaisy/src/per/adc.h **** #include <stdint.h>
   5:../../libdaisy/src/per/adc.h **** #include <stdlib.h>
   6:../../libdaisy/src/per/adc.h **** #include "daisy_core.h"
   7:../../libdaisy/src/per/adc.h **** #include "per/gpio.h"
   8:../../libdaisy/src/per/adc.h **** 
ARM GAS  /tmp/cc3v7X8N.s 			page 13


   9:../../libdaisy/src/per/adc.h **** #define DSY_ADC_MAX_CHANNELS 14 /**< Maximum number of ADC channels */
  10:../../libdaisy/src/per/adc.h **** 
  11:../../libdaisy/src/per/adc.h **** namespace daisy
  12:../../libdaisy/src/per/adc.h **** {
  13:../../libdaisy/src/per/adc.h **** /** @addtogroup analog_digital_conversion
  14:../../libdaisy/src/per/adc.h ****     @{
  15:../../libdaisy/src/per/adc.h **** */
  16:../../libdaisy/src/per/adc.h **** 
  17:../../libdaisy/src/per/adc.h **** /* While there may not be many configuration options here,
  18:../../libdaisy/src/per/adc.h **** using a struct like this allows us to add more configuration
  19:../../libdaisy/src/per/adc.h **** later without breaking existing functionality.
  20:../../libdaisy/src/per/adc.h **** */
  21:../../libdaisy/src/per/adc.h **** 
  22:../../libdaisy/src/per/adc.h **** /** Configuration Structure for a given channel */
  23:../../libdaisy/src/per/adc.h **** struct AdcChannelConfig
  24:../../libdaisy/src/per/adc.h **** {
  25:../../libdaisy/src/per/adc.h ****     /** Which pin to use for multiplexing */
  26:../../libdaisy/src/per/adc.h ****     enum MuxPin
  27:../../libdaisy/src/per/adc.h ****     {
  28:../../libdaisy/src/per/adc.h ****         MUX_SEL_0,    /**< & */
  29:../../libdaisy/src/per/adc.h ****         MUX_SEL_1,    /**< & */
  30:../../libdaisy/src/per/adc.h ****         MUX_SEL_2,    /**< & */
  31:../../libdaisy/src/per/adc.h ****         MUX_SEL_LAST, /**< & */
  32:../../libdaisy/src/per/adc.h ****     };
  33:../../libdaisy/src/per/adc.h **** 
  34:../../libdaisy/src/per/adc.h ****     /** Initializes a single ADC pin as an ADC. 
  35:../../libdaisy/src/per/adc.h ****     \param pin Pin to init.
  36:../../libdaisy/src/per/adc.h ****      */
  37:../../libdaisy/src/per/adc.h ****     void InitSingle(dsy_gpio_pin pin);
  38:../../libdaisy/src/per/adc.h **** 
  39:../../libdaisy/src/per/adc.h ****     /** 
  40:../../libdaisy/src/per/adc.h ****     Initializes a single ADC pin as a Multiplexed ADC.
  41:../../libdaisy/src/per/adc.h ****     Requires a CD405X Multiplexer connected to the pin.
  42:../../libdaisy/src/per/adc.h ****     You only need to supply the mux pins that are required,
  43:../../libdaisy/src/per/adc.h ****     e.g. a 4052 mux would only require mux_0 and mux_1.
  44:../../libdaisy/src/per/adc.h ****     Internal Callbacks handle the pin addressing.
  45:../../libdaisy/src/per/adc.h ****     \param mux_channels must be 1-8
  46:../../libdaisy/src/per/adc.h ****     \param mux_0 First mux pin
  47:../../libdaisy/src/per/adc.h ****     \param mux_1 Second mux pin
  48:../../libdaisy/src/per/adc.h ****     \param mux_2 Third mux pin
  49:../../libdaisy/src/per/adc.h ****     \param adc_pin &
  50:../../libdaisy/src/per/adc.h ****     */
  51:../../libdaisy/src/per/adc.h ****     void InitMux(dsy_gpio_pin adc_pin,
  52:../../libdaisy/src/per/adc.h ****                  size_t       mux_channels,
  53:../../libdaisy/src/per/adc.h ****                  dsy_gpio_pin mux_0,
  54:../../libdaisy/src/per/adc.h ****                  dsy_gpio_pin mux_1 = {DSY_GPIOX, 0},
  55:../../libdaisy/src/per/adc.h ****                  dsy_gpio_pin mux_2 = {DSY_GPIOX, 0});
  56:../../libdaisy/src/per/adc.h **** 
  57:../../libdaisy/src/per/adc.h ****     dsy_gpio pin_;                   /**< & */
  58:../../libdaisy/src/per/adc.h ****     dsy_gpio mux_pin_[MUX_SEL_LAST]; /**< & */
  59:../../libdaisy/src/per/adc.h ****     uint8_t  mux_channels_;          /**< & */
  60:../../libdaisy/src/per/adc.h **** };
  61:../../libdaisy/src/per/adc.h **** 
  62:../../libdaisy/src/per/adc.h **** /**
  63:../../libdaisy/src/per/adc.h ****    Handler for analog to digital conversion
  64:../../libdaisy/src/per/adc.h **** */
  65:../../libdaisy/src/per/adc.h **** class AdcHandle
ARM GAS  /tmp/cc3v7X8N.s 			page 14


  66:../../libdaisy/src/per/adc.h **** {
  67:../../libdaisy/src/per/adc.h ****   public:
  68:../../libdaisy/src/per/adc.h ****     /** Supported oversampling amounts */
  69:../../libdaisy/src/per/adc.h ****     enum OverSampling
  70:../../libdaisy/src/per/adc.h ****     {
  71:../../libdaisy/src/per/adc.h ****         OVS_NONE, /**< & */
  72:../../libdaisy/src/per/adc.h ****         OVS_4,    /**< & */
  73:../../libdaisy/src/per/adc.h ****         OVS_8,    /**< & */
  74:../../libdaisy/src/per/adc.h ****         OVS_16,   /**< & */
  75:../../libdaisy/src/per/adc.h ****         OVS_32,   /**< & */
  76:../../libdaisy/src/per/adc.h ****         OVS_64,   /**< & */
  77:../../libdaisy/src/per/adc.h ****         OVS_128,  /**< & */
  78:../../libdaisy/src/per/adc.h ****         OVS_256,  /**< & */
  79:../../libdaisy/src/per/adc.h ****         OVS_512,  /**< & */
  80:../../libdaisy/src/per/adc.h ****         OVS_1024, /**< & */
  81:../../libdaisy/src/per/adc.h ****         OVS_LAST, /**< & */
  82:../../libdaisy/src/per/adc.h ****     };
  83:../../libdaisy/src/per/adc.h **** 
  84:../../libdaisy/src/per/adc.h ****     AdcHandle() {}
  85:../../libdaisy/src/per/adc.h ****     ~AdcHandle() {}
 115              		.loc 11 85 5 is_stmt 1 view .LVU18
 116              		.loc 11 85 5 is_stmt 0 view .LVU19
 117              	.LBE691:
 118              	.LBB692:
 119              	.LBI692:
 120              		.file 12 "../../libdaisy/src/hid/audio.h"
   1:../../libdaisy/src/hid/audio.h **** #ifndef DSY_AUDIO_H
   2:../../libdaisy/src/hid/audio.h **** #define DSY_AUDIO_H /**< & */
   3:../../libdaisy/src/hid/audio.h **** 
   4:../../libdaisy/src/hid/audio.h **** #include "per/sai.h"
   5:../../libdaisy/src/hid/audio.h **** 
   6:../../libdaisy/src/hid/audio.h **** namespace daisy
   7:../../libdaisy/src/hid/audio.h **** {
   8:../../libdaisy/src/hid/audio.h **** class AudioHandle
   9:../../libdaisy/src/hid/audio.h **** {
  10:../../libdaisy/src/hid/audio.h ****   public:
  11:../../libdaisy/src/hid/audio.h ****     /** Manually configurable details about the Audio Engine */
  12:../../libdaisy/src/hid/audio.h ****     /** TODO: Figure out how to get samplerate in here. */
  13:../../libdaisy/src/hid/audio.h ****     struct Config
  14:../../libdaisy/src/hid/audio.h ****     {
  15:../../libdaisy/src/hid/audio.h ****         size_t                        blocksize;
  16:../../libdaisy/src/hid/audio.h ****         SaiHandle::Config::SampleRate samplerate;
  17:../../libdaisy/src/hid/audio.h ****         float                         postgain;
  18:../../libdaisy/src/hid/audio.h ****     };
  19:../../libdaisy/src/hid/audio.h **** 
  20:../../libdaisy/src/hid/audio.h ****     enum class Result
  21:../../libdaisy/src/hid/audio.h ****     {
  22:../../libdaisy/src/hid/audio.h ****         OK,
  23:../../libdaisy/src/hid/audio.h ****         ERR,
  24:../../libdaisy/src/hid/audio.h ****     };
  25:../../libdaisy/src/hid/audio.h **** 
  26:../../libdaisy/src/hid/audio.h ****     /** Non-Interleaving input buffer
  27:../../libdaisy/src/hid/audio.h ****      * Buffer arranged by float[chn][sample] 
  28:../../libdaisy/src/hid/audio.h ****      * const so that the user can't modify the input
  29:../../libdaisy/src/hid/audio.h ****     */
  30:../../libdaisy/src/hid/audio.h ****     typedef const float* const* InputBuffer;
  31:../../libdaisy/src/hid/audio.h **** 
ARM GAS  /tmp/cc3v7X8N.s 			page 15


  32:../../libdaisy/src/hid/audio.h ****     /** Non-Interleaving output buffer
  33:../../libdaisy/src/hid/audio.h ****      * Arranged by float[chn][sample] 
  34:../../libdaisy/src/hid/audio.h ****     */
  35:../../libdaisy/src/hid/audio.h ****     typedef float** OutputBuffer;
  36:../../libdaisy/src/hid/audio.h **** 
  37:../../libdaisy/src/hid/audio.h ****     /** Type for a Non-Interleaving audio callback 
  38:../../libdaisy/src/hid/audio.h ****    * Non-Interleaving audio callbacks in daisy will be of this type
  39:../../libdaisy/src/hid/audio.h ****   */
  40:../../libdaisy/src/hid/audio.h ****     typedef void (*AudioCallback)(InputBuffer  in,
  41:../../libdaisy/src/hid/audio.h ****                                   OutputBuffer out,
  42:../../libdaisy/src/hid/audio.h ****                                   size_t       size);
  43:../../libdaisy/src/hid/audio.h **** 
  44:../../libdaisy/src/hid/audio.h ****     /** Interleaving Input buffer
  45:../../libdaisy/src/hid/audio.h ****      ** audio is prepared as { L0, R0, L1, R1, . . . LN, RN }]
  46:../../libdaisy/src/hid/audio.h ****      ** this is const, as the user shouldn't modify it
  47:../../libdaisy/src/hid/audio.h ****     */
  48:../../libdaisy/src/hid/audio.h ****     typedef const float* InterleavingInputBuffer;
  49:../../libdaisy/src/hid/audio.h **** 
  50:../../libdaisy/src/hid/audio.h ****     /** Interleaving Output buffer 
  51:../../libdaisy/src/hid/audio.h ****      ** audio is prepared as { L0, R0, L1, R1, . . . LN, RN }
  52:../../libdaisy/src/hid/audio.h ****     */
  53:../../libdaisy/src/hid/audio.h ****     typedef float* InterleavingOutputBuffer;
  54:../../libdaisy/src/hid/audio.h **** 
  55:../../libdaisy/src/hid/audio.h ****     /** Interleaving Audio Callback 
  56:../../libdaisy/src/hid/audio.h ****    * Interleaving audio callbacks in daisy must be of this type
  57:../../libdaisy/src/hid/audio.h ****   */
  58:../../libdaisy/src/hid/audio.h ****     typedef void (*InterleavingAudioCallback)(InterleavingInputBuffer  in,
  59:../../libdaisy/src/hid/audio.h ****                                               InterleavingOutputBuffer out,
  60:../../libdaisy/src/hid/audio.h ****                                               size_t                   size);
  61:../../libdaisy/src/hid/audio.h **** 
  62:../../libdaisy/src/hid/audio.h ****     AudioHandle() : pimpl_(nullptr) {}
  63:../../libdaisy/src/hid/audio.h ****     ~AudioHandle() {}
 121              		.loc 12 63 5 is_stmt 1 view .LVU20
 122              		.loc 12 63 5 is_stmt 0 view .LVU21
 123              	.LBE692:
 124              	.LBE688:
 125              		.loc 2 41 20 view .LVU22
 126 0000 7047     		bx	lr
 127              		.cfi_endproc
 128              	.LFE4230:
 130              		.weak	_ZN5daisy10DaisyPatchD1Ev
 131              		.thumb_set _ZN5daisy10DaisyPatchD1Ev,_ZN5daisy10DaisyPatchD2Ev
 132 0002 00BF     		.section	.text._ZN5daisy11OledDisplayINS_13SSD130xDriverILj128ELj64ENS_24SSD130x4WireSpiTransportE
 133              		.align	1
 134              		.p2align 2,,3
 135              		.weak	_ZN5daisy11OledDisplayINS_13SSD130xDriverILj128ELj64ENS_24SSD130x4WireSpiTransportEEEED2Ev
 136              		.syntax unified
 137              		.thumb
 138              		.thumb_func
 139              		.fpu fpv5-d16
 141              	_ZN5daisy11OledDisplayINS_13SSD130xDriverILj128ELj64ENS_24SSD130x4WireSpiTransportEEEED2Ev:
 142              	.LVL2:
 143              	.LFB4555:
 144              		.loc 3 17 13 is_stmt 1 view -0
 145              		.cfi_startproc
 146              		@ args = 0, pretend = 0, frame = 0
 147              		@ frame_needed = 0, uses_anonymous_args = 0
ARM GAS  /tmp/cc3v7X8N.s 			page 16


 148              		@ link register save eliminated.
 149              	.LBB693:
 150              	.LBI693:
 151              		.loc 4 219 13 view .LVU24
 152              	.LBB694:
 153              	.LBI694:
  23:../../libdaisy/src/hid/disp/display.h **** 
 154              		.loc 4 23 13 view .LVU25
  23:../../libdaisy/src/hid/disp/display.h **** 
 155              		.loc 4 23 13 is_stmt 0 view .LVU26
 156              	.LBE694:
 157              	.LBE693:
 158              		.loc 3 17 29 view .LVU27
 159 0000 7047     		bx	lr
 160              		.cfi_endproc
 161              	.LFE4555:
 163              		.weak	_ZN5daisy11OledDisplayINS_13SSD130xDriverILj128ELj64ENS_24SSD130x4WireSpiTransportEEEED1Ev
 164              		.thumb_set _ZN5daisy11OledDisplayINS_13SSD130xDriverILj128ELj64ENS_24SSD130x4WireSpiTransportEEEED
 165 0002 00BF     		.section	.text._ZN6filterD2Ev,"axG",%progbits,_ZN6filterD5Ev,comdat
 166              		.align	1
 167              		.p2align 2,,3
 168              		.weak	_ZN6filterD2Ev
 169              		.syntax unified
 170              		.thumb
 171              		.thumb_func
 172              		.fpu fpv5-d16
 174              	_ZN6filterD2Ev:
 175              	.LVL3:
 176              	.LFB4826:
 177              		.file 13 "Noise.cpp"
   1:Noise.cpp     **** #include "daisysp.h"
   2:Noise.cpp     **** #include "daisy_patch.h"
   3:Noise.cpp     **** #include <string>
   4:Noise.cpp     **** 
   5:Noise.cpp     **** using namespace daisy;
   6:Noise.cpp     **** using namespace daisysp;
   7:Noise.cpp     **** 
   8:Noise.cpp     **** DaisyPatch patch;
   9:Noise.cpp     **** 
  10:Noise.cpp     **** WhiteNoise noise;
  11:Noise.cpp     **** 
  12:Noise.cpp     **** struct filter
 178              		.loc 13 12 8 is_stmt 1 view -0
 179              		.cfi_startproc
 180              		@ args = 0, pretend = 0, frame = 0
 181              		@ frame_needed = 0, uses_anonymous_args = 0
 182              		@ link register save eliminated.
 183              	.LBB695:
 184              	.LBI695:
 185              		.file 14 "../../libdaisy/src/hid/parameter.h"
   1:../../libdaisy/src/hid/parameter.h **** #pragma once
   2:../../libdaisy/src/hid/parameter.h **** #include <stdint.h>
   3:../../libdaisy/src/hid/parameter.h **** #include "hid/ctrl.h"
   4:../../libdaisy/src/hid/parameter.h **** 
   5:../../libdaisy/src/hid/parameter.h **** namespace daisy
   6:../../libdaisy/src/hid/parameter.h **** {
   7:../../libdaisy/src/hid/parameter.h **** /** @addtogroup controls
ARM GAS  /tmp/cc3v7X8N.s 			page 17


   8:../../libdaisy/src/hid/parameter.h ****     @{
   9:../../libdaisy/src/hid/parameter.h **** */
  10:../../libdaisy/src/hid/parameter.h **** 
  11:../../libdaisy/src/hid/parameter.h **** /**      Simple parameter mapping tool that takes a 0-1 input from an hid_ctrl. */
  12:../../libdaisy/src/hid/parameter.h **** class Parameter
  13:../../libdaisy/src/hid/parameter.h **** {
  14:../../libdaisy/src/hid/parameter.h ****   public:
  15:../../libdaisy/src/hid/parameter.h ****     /** Curves are applied to the output signal */
  16:../../libdaisy/src/hid/parameter.h ****     enum Curve
  17:../../libdaisy/src/hid/parameter.h ****     {
  18:../../libdaisy/src/hid/parameter.h ****         LINEAR,      /**< Linear curve */
  19:../../libdaisy/src/hid/parameter.h ****         EXPONENTIAL, /**< Exponential curve */
  20:../../libdaisy/src/hid/parameter.h ****         LOGARITHMIC, /**<  Logarithmic curve */
  21:../../libdaisy/src/hid/parameter.h ****         CUBE,        /**< Cubic curve */
  22:../../libdaisy/src/hid/parameter.h ****         LAST,        /**< Final enum element. */
  23:../../libdaisy/src/hid/parameter.h ****     };
  24:../../libdaisy/src/hid/parameter.h ****     /** Constructor */
  25:../../libdaisy/src/hid/parameter.h ****     Parameter() {}
  26:../../libdaisy/src/hid/parameter.h ****     /** Destructor */
  27:../../libdaisy/src/hid/parameter.h ****     ~Parameter() {}
 186              		.loc 14 27 5 view .LVU29
 187              	.LBB696:
 188              	.LBI696:
 189              		.file 15 "../../libdaisy/src/hid/ctrl.h"
   1:../../libdaisy/src/hid/ctrl.h **** #pragma once
   2:../../libdaisy/src/hid/ctrl.h **** #ifndef DSY_KNOB_H
   3:../../libdaisy/src/hid/ctrl.h **** #define DSY_KNOB_H /**< & */
   4:../../libdaisy/src/hid/ctrl.h **** #include <stdint.h>
   5:../../libdaisy/src/hid/ctrl.h **** 
   6:../../libdaisy/src/hid/ctrl.h **** #ifdef __cplusplus
   7:../../libdaisy/src/hid/ctrl.h **** namespace daisy
   8:../../libdaisy/src/hid/ctrl.h **** {
   9:../../libdaisy/src/hid/ctrl.h **** /**
  10:../../libdaisy/src/hid/ctrl.h ****     @brief Hardware Interface for control inputs \n 
  11:../../libdaisy/src/hid/ctrl.h ****     Primarily designed for ADC input controls such as \n 
  12:../../libdaisy/src/hid/ctrl.h ****     potentiometers, and control voltage. \n 
  13:../../libdaisy/src/hid/ctrl.h ****     @author Stephen Hensley
  14:../../libdaisy/src/hid/ctrl.h ****     @date November 2019
  15:../../libdaisy/src/hid/ctrl.h ****     @ingroup controls
  16:../../libdaisy/src/hid/ctrl.h **** */
  17:../../libdaisy/src/hid/ctrl.h **** class AnalogControl
  18:../../libdaisy/src/hid/ctrl.h **** {
  19:../../libdaisy/src/hid/ctrl.h ****   public:
  20:../../libdaisy/src/hid/ctrl.h ****     /** Constructor */
  21:../../libdaisy/src/hid/ctrl.h ****     AnalogControl() {}
  22:../../libdaisy/src/hid/ctrl.h ****     /** destructor */
  23:../../libdaisy/src/hid/ctrl.h ****     ~AnalogControl() {}
 190              		.loc 15 23 5 view .LVU30
 191              		.loc 15 23 5 is_stmt 0 view .LVU31
 192              	.LBE696:
 193              	.LBE695:
 194              	.LBB697:
 195              	.LBI697:
 196              		.loc 14 27 5 is_stmt 1 view .LVU32
 197              	.LBB698:
 198              	.LBI698:
 199              		.loc 15 23 5 view .LVU33
ARM GAS  /tmp/cc3v7X8N.s 			page 18


 200              		.loc 15 23 5 is_stmt 0 view .LVU34
 201              	.LBE698:
 202              	.LBE697:
 203              	.LBB699:
 204              	.LBI699:
 205              		.file 16 "../../DaisySP/Source/Filters/svf.h"
   1:../../DaisySP/Source/Filters/svf.h **** #pragma once
   2:../../DaisySP/Source/Filters/svf.h **** #ifndef DSY_SVF_H
   3:../../DaisySP/Source/Filters/svf.h **** #define DSY_SVF_H
   4:../../DaisySP/Source/Filters/svf.h **** 
   5:../../DaisySP/Source/Filters/svf.h **** namespace daisysp
   6:../../DaisySP/Source/Filters/svf.h **** {
   7:../../DaisySP/Source/Filters/svf.h **** /**      Double Sampled, Stable State Variable Filter
   8:../../DaisySP/Source/Filters/svf.h **** 
   9:../../DaisySP/Source/Filters/svf.h **** Credit to Andrew Simper from musicdsp.org
  10:../../DaisySP/Source/Filters/svf.h **** 
  11:../../DaisySP/Source/Filters/svf.h **** This is his "State Variable Filter (Double Sampled, Stable)"
  12:../../DaisySP/Source/Filters/svf.h **** 
  13:../../DaisySP/Source/Filters/svf.h **** Additional thanks to Laurent de Soras for stability limit, and 
  14:../../DaisySP/Source/Filters/svf.h **** Stefan Diedrichsen for the correct notch output
  15:../../DaisySP/Source/Filters/svf.h **** 
  16:../../DaisySP/Source/Filters/svf.h **** Ported by: Stephen Hensley
  17:../../DaisySP/Source/Filters/svf.h **** */
  18:../../DaisySP/Source/Filters/svf.h **** class Svf
  19:../../DaisySP/Source/Filters/svf.h **** {
  20:../../DaisySP/Source/Filters/svf.h ****   public:
  21:../../DaisySP/Source/Filters/svf.h ****     Svf() {}
  22:../../DaisySP/Source/Filters/svf.h ****     ~Svf() {}
 206              		.loc 16 22 5 is_stmt 1 view .LVU35
 207              		.loc 16 22 5 is_stmt 0 view .LVU36
 208              	.LBE699:
 209              		.loc 13 12 8 view .LVU37
 210 0000 7047     		bx	lr
 211              		.cfi_endproc
 212              	.LFE4826:
 214              		.weak	_ZN6filterD1Ev
 215              		.thumb_set _ZN6filterD1Ev,_ZN6filterD2Ev
 216 0002 00BF     		.section	.text._ZNK5daisy11OledDisplayINS_13SSD130xDriverILj128ELj64ENS_24SSD130x4WireSpiTransport
 217              		.align	1
 218              		.p2align 2,,3
 219              		.weak	_ZNK5daisy11OledDisplayINS_13SSD130xDriverILj128ELj64ENS_24SSD130x4WireSpiTransportEEEE6Heig
 220              		.syntax unified
 221              		.thumb
 222              		.thumb_func
 223              		.fpu fpv5-d16
 225              	_ZNK5daisy11OledDisplayINS_13SSD130xDriverILj128ELj64ENS_24SSD130x4WireSpiTransportEEEE6HeightEv:
 226              	.LVL4:
 227              	.LFB4828:
  18:../../libdaisy/src/hid/disp/oled_display.h **** 
  19:../../libdaisy/src/hid/disp/oled_display.h ****     struct Config
  20:../../libdaisy/src/hid/disp/oled_display.h ****     {
  21:../../libdaisy/src/hid/disp/oled_display.h ****         typename DisplayDriver::Config driver_config;
  22:../../libdaisy/src/hid/disp/oled_display.h ****     };
  23:../../libdaisy/src/hid/disp/oled_display.h **** 
  24:../../libdaisy/src/hid/disp/oled_display.h ****     void Init(Config config) { driver_.Init(config.driver_config); }
  25:../../libdaisy/src/hid/disp/oled_display.h **** 
  26:../../libdaisy/src/hid/disp/oled_display.h ****     uint16_t Height() const override { return driver_.Height(); }
ARM GAS  /tmp/cc3v7X8N.s 			page 19


 228              		.loc 3 26 14 is_stmt 1 view -0
 229              		.cfi_startproc
 230              		@ args = 0, pretend = 0, frame = 0
 231              		@ frame_needed = 0, uses_anonymous_args = 0
 232              		@ link register save eliminated.
 233              		.loc 3 26 65 is_stmt 0 view .LVU39
 234 0000 4020     		movs	r0, #64
 235              	.LVL5:
 236              		.loc 3 26 65 view .LVU40
 237 0002 7047     		bx	lr
 238              		.cfi_endproc
 239              	.LFE4828:
 241              		.section	.text._ZNK5daisy11OledDisplayINS_13SSD130xDriverILj128ELj64ENS_24SSD130x4WireSpiTransport
 242              		.align	1
 243              		.p2align 2,,3
 244              		.weak	_ZNK5daisy11OledDisplayINS_13SSD130xDriverILj128ELj64ENS_24SSD130x4WireSpiTransportEEEE5Widt
 245              		.syntax unified
 246              		.thumb
 247              		.thumb_func
 248              		.fpu fpv5-d16
 250              	_ZNK5daisy11OledDisplayINS_13SSD130xDriverILj128ELj64ENS_24SSD130x4WireSpiTransportEEEE5WidthEv:
 251              	.LVL6:
 252              	.LFB4829:
  27:../../libdaisy/src/hid/disp/oled_display.h ****     uint16_t Width() const override { return driver_.Width(); }
 253              		.loc 3 27 14 is_stmt 1 view -0
 254              		.cfi_startproc
 255              		@ args = 0, pretend = 0, frame = 0
 256              		@ frame_needed = 0, uses_anonymous_args = 0
 257              		@ link register save eliminated.
 258              		.loc 3 27 63 is_stmt 0 view .LVU42
 259 0000 8020     		movs	r0, #128
 260              	.LVL7:
 261              		.loc 3 27 63 view .LVU43
 262 0002 7047     		bx	lr
 263              		.cfi_endproc
 264              	.LFE4829:
 266              		.section	.text._ZN5daisy11OledDisplayINS_13SSD130xDriverILj128ELj64ENS_24SSD130x4WireSpiTransportE
 267              		.align	1
 268              		.p2align 2,,3
 269              		.weak	_ZN5daisy11OledDisplayINS_13SSD130xDriverILj128ELj64ENS_24SSD130x4WireSpiTransportEEEE4FillE
 270              		.syntax unified
 271              		.thumb
 272              		.thumb_func
 273              		.fpu fpv5-d16
 275              	_ZN5daisy11OledDisplayINS_13SSD130xDriverILj128ELj64ENS_24SSD130x4WireSpiTransportEEEE4FillEb:
 276              	.LVL8:
 277              	.LFB4830:
  28:../../libdaisy/src/hid/disp/oled_display.h **** 
  29:../../libdaisy/src/hid/disp/oled_display.h ****     /** 
  30:../../libdaisy/src/hid/disp/oled_display.h ****     Fills the entire display with either on/off.
  31:../../libdaisy/src/hid/disp/oled_display.h ****     \param on Sets on or off.
  32:../../libdaisy/src/hid/disp/oled_display.h ****     */
  33:../../libdaisy/src/hid/disp/oled_display.h ****     void Fill(bool on) override { driver_.Fill(on); }
 278              		.loc 3 33 10 is_stmt 1 view -0
 279              		.cfi_startproc
 280              		@ args = 0, pretend = 0, frame = 0
 281              		@ frame_needed = 0, uses_anonymous_args = 0
ARM GAS  /tmp/cc3v7X8N.s 			page 20


 282              		@ link register save eliminated.
 283              	.LBB700:
 284              	.LBI700:
 285              		.file 17 "../../libdaisy/src/dev/oled_ssd130x.h"
   1:../../libdaisy/src/dev/oled_ssd130x.h **** #pragma once
   2:../../libdaisy/src/dev/oled_ssd130x.h **** #ifndef SA_OLED_SSD130X_H
   3:../../libdaisy/src/dev/oled_ssd130x.h **** #define SA_OLED_SSD130X_H /**< & */
   4:../../libdaisy/src/dev/oled_ssd130x.h **** 
   5:../../libdaisy/src/dev/oled_ssd130x.h **** #include "per/i2c.h"
   6:../../libdaisy/src/dev/oled_ssd130x.h **** #include "per/spi.h"
   7:../../libdaisy/src/dev/oled_ssd130x.h **** #include "per/gpio.h"
   8:../../libdaisy/src/dev/oled_ssd130x.h **** #include "sys/system.h"
   9:../../libdaisy/src/dev/oled_ssd130x.h **** 
  10:../../libdaisy/src/dev/oled_ssd130x.h **** namespace daisy
  11:../../libdaisy/src/dev/oled_ssd130x.h **** {
  12:../../libdaisy/src/dev/oled_ssd130x.h **** /**
  13:../../libdaisy/src/dev/oled_ssd130x.h ****  * I2C Transport for SSD1306 / SSD1309 OLED display devices
  14:../../libdaisy/src/dev/oled_ssd130x.h ****  */
  15:../../libdaisy/src/dev/oled_ssd130x.h **** class SSD130xI2CTransport
  16:../../libdaisy/src/dev/oled_ssd130x.h **** {
  17:../../libdaisy/src/dev/oled_ssd130x.h ****   public:
  18:../../libdaisy/src/dev/oled_ssd130x.h ****     struct Config
  19:../../libdaisy/src/dev/oled_ssd130x.h ****     {
  20:../../libdaisy/src/dev/oled_ssd130x.h ****         I2CHandle::Config i2c_config;
  21:../../libdaisy/src/dev/oled_ssd130x.h ****         uint8_t           i2c_address;
  22:../../libdaisy/src/dev/oled_ssd130x.h ****         void              Defaults()
  23:../../libdaisy/src/dev/oled_ssd130x.h ****         {
  24:../../libdaisy/src/dev/oled_ssd130x.h ****             i2c_config.periph         = I2CHandle::Config::Peripheral::I2C_1;
  25:../../libdaisy/src/dev/oled_ssd130x.h ****             i2c_config.speed          = I2CHandle::Config::Speed::I2C_1MHZ;
  26:../../libdaisy/src/dev/oled_ssd130x.h ****             i2c_config.mode           = I2CHandle::Config::Mode::I2C_MASTER;
  27:../../libdaisy/src/dev/oled_ssd130x.h ****             i2c_config.pin_config.scl = {DSY_GPIOB, 8};
  28:../../libdaisy/src/dev/oled_ssd130x.h ****             i2c_config.pin_config.sda = {DSY_GPIOB, 9};
  29:../../libdaisy/src/dev/oled_ssd130x.h ****             i2c_address               = 0x3C;
  30:../../libdaisy/src/dev/oled_ssd130x.h ****         }
  31:../../libdaisy/src/dev/oled_ssd130x.h ****     };
  32:../../libdaisy/src/dev/oled_ssd130x.h ****     void Init(const Config& config)
  33:../../libdaisy/src/dev/oled_ssd130x.h ****     {
  34:../../libdaisy/src/dev/oled_ssd130x.h ****         i2c_address_ = config.i2c_address;
  35:../../libdaisy/src/dev/oled_ssd130x.h ****         i2c_.Init(config.i2c_config);
  36:../../libdaisy/src/dev/oled_ssd130x.h ****     };
  37:../../libdaisy/src/dev/oled_ssd130x.h ****     void SendCommand(uint8_t cmd)
  38:../../libdaisy/src/dev/oled_ssd130x.h ****     {
  39:../../libdaisy/src/dev/oled_ssd130x.h ****         uint8_t buf[2] = {0X00, cmd};
  40:../../libdaisy/src/dev/oled_ssd130x.h ****         i2c_.TransmitBlocking(i2c_address_, buf, 2, 1000);
  41:../../libdaisy/src/dev/oled_ssd130x.h ****     };
  42:../../libdaisy/src/dev/oled_ssd130x.h **** 
  43:../../libdaisy/src/dev/oled_ssd130x.h ****     void SendData(uint8_t* buff, size_t size)
  44:../../libdaisy/src/dev/oled_ssd130x.h ****     {
  45:../../libdaisy/src/dev/oled_ssd130x.h ****         for(size_t i = 0; i < size; i++)
  46:../../libdaisy/src/dev/oled_ssd130x.h ****         {
  47:../../libdaisy/src/dev/oled_ssd130x.h ****             uint8_t buf[2] = {0X40, buff[i]};
  48:../../libdaisy/src/dev/oled_ssd130x.h ****             i2c_.TransmitBlocking(i2c_address_, buf, 2, 1000);
  49:../../libdaisy/src/dev/oled_ssd130x.h ****         }
  50:../../libdaisy/src/dev/oled_ssd130x.h ****     };
  51:../../libdaisy/src/dev/oled_ssd130x.h **** 
  52:../../libdaisy/src/dev/oled_ssd130x.h ****   private:
  53:../../libdaisy/src/dev/oled_ssd130x.h ****     daisy::I2CHandle i2c_;
ARM GAS  /tmp/cc3v7X8N.s 			page 21


  54:../../libdaisy/src/dev/oled_ssd130x.h ****     uint8_t          i2c_address_;
  55:../../libdaisy/src/dev/oled_ssd130x.h **** };
  56:../../libdaisy/src/dev/oled_ssd130x.h **** 
  57:../../libdaisy/src/dev/oled_ssd130x.h **** /**
  58:../../libdaisy/src/dev/oled_ssd130x.h ****  * 4 Wire SPI Transport for SSD1306 / SSD1309 OLED display devices
  59:../../libdaisy/src/dev/oled_ssd130x.h ****  */
  60:../../libdaisy/src/dev/oled_ssd130x.h **** class SSD130x4WireSpiTransport
  61:../../libdaisy/src/dev/oled_ssd130x.h **** {
  62:../../libdaisy/src/dev/oled_ssd130x.h ****   public:
  63:../../libdaisy/src/dev/oled_ssd130x.h ****     struct Config
  64:../../libdaisy/src/dev/oled_ssd130x.h ****     {
  65:../../libdaisy/src/dev/oled_ssd130x.h ****         struct
  66:../../libdaisy/src/dev/oled_ssd130x.h ****         {
  67:../../libdaisy/src/dev/oled_ssd130x.h ****             dsy_gpio_pin dc;    /**< & */
  68:../../libdaisy/src/dev/oled_ssd130x.h ****             dsy_gpio_pin reset; /**< & */
  69:../../libdaisy/src/dev/oled_ssd130x.h ****         } pin_config;
  70:../../libdaisy/src/dev/oled_ssd130x.h ****         void Defaults()
  71:../../libdaisy/src/dev/oled_ssd130x.h ****         {
  72:../../libdaisy/src/dev/oled_ssd130x.h ****             pin_config.dc    = {DSY_GPIOB, 4};
  73:../../libdaisy/src/dev/oled_ssd130x.h ****             pin_config.reset = {DSY_GPIOB, 15};
  74:../../libdaisy/src/dev/oled_ssd130x.h ****         }
  75:../../libdaisy/src/dev/oled_ssd130x.h ****     };
  76:../../libdaisy/src/dev/oled_ssd130x.h ****     void Init(const Config& config)
  77:../../libdaisy/src/dev/oled_ssd130x.h ****     {
  78:../../libdaisy/src/dev/oled_ssd130x.h ****         // Initialize both GPIO
  79:../../libdaisy/src/dev/oled_ssd130x.h ****         pin_dc_.mode = DSY_GPIO_MODE_OUTPUT_PP;
  80:../../libdaisy/src/dev/oled_ssd130x.h ****         pin_dc_.pin  = config.pin_config.dc;
  81:../../libdaisy/src/dev/oled_ssd130x.h ****         dsy_gpio_init(&pin_dc_);
  82:../../libdaisy/src/dev/oled_ssd130x.h ****         pin_reset_.mode = DSY_GPIO_MODE_OUTPUT_PP;
  83:../../libdaisy/src/dev/oled_ssd130x.h ****         pin_reset_.pin  = config.pin_config.reset;
  84:../../libdaisy/src/dev/oled_ssd130x.h ****         dsy_gpio_init(&pin_reset_);
  85:../../libdaisy/src/dev/oled_ssd130x.h ****         // Initialize SPI
  86:../../libdaisy/src/dev/oled_ssd130x.h ****         SpiHandle::Config spi_config;
  87:../../libdaisy/src/dev/oled_ssd130x.h ****         spi_config.periph    = SpiHandle::Config::Peripheral::SPI_1;
  88:../../libdaisy/src/dev/oled_ssd130x.h ****         spi_config.mode      = SpiHandle::Config::Mode::MASTER;
  89:../../libdaisy/src/dev/oled_ssd130x.h ****         spi_config.direction = SpiHandle::Config::Direction::TWO_LINES_TX_ONLY;
  90:../../libdaisy/src/dev/oled_ssd130x.h ****         spi_config.datasize  = 8;
  91:../../libdaisy/src/dev/oled_ssd130x.h ****         spi_config.clock_polarity = SpiHandle::Config::ClockPolarity::LOW;
  92:../../libdaisy/src/dev/oled_ssd130x.h ****         spi_config.clock_phase    = SpiHandle::Config::ClockPhase::ONE_EDGE;
  93:../../libdaisy/src/dev/oled_ssd130x.h ****         spi_config.nss            = SpiHandle::Config::NSS::HARD_OUTPUT;
  94:../../libdaisy/src/dev/oled_ssd130x.h ****         spi_config.baud_prescaler = SpiHandle::Config::BaudPrescaler::PS_8;
  95:../../libdaisy/src/dev/oled_ssd130x.h **** 
  96:../../libdaisy/src/dev/oled_ssd130x.h ****         spi_config.pin_config.sclk = {DSY_GPIOG, 11};
  97:../../libdaisy/src/dev/oled_ssd130x.h ****         spi_config.pin_config.miso = {DSY_GPIOX, 0};
  98:../../libdaisy/src/dev/oled_ssd130x.h ****         spi_config.pin_config.mosi = {DSY_GPIOB, 5};
  99:../../libdaisy/src/dev/oled_ssd130x.h ****         spi_config.pin_config.nss  = {DSY_GPIOG, 10};
 100:../../libdaisy/src/dev/oled_ssd130x.h **** 
 101:../../libdaisy/src/dev/oled_ssd130x.h ****         spi_.Init(spi_config);
 102:../../libdaisy/src/dev/oled_ssd130x.h **** 
 103:../../libdaisy/src/dev/oled_ssd130x.h ****         // Reset and Configure OLED.
 104:../../libdaisy/src/dev/oled_ssd130x.h ****         dsy_gpio_write(&pin_reset_, 0);
 105:../../libdaisy/src/dev/oled_ssd130x.h ****         System::Delay(10);
 106:../../libdaisy/src/dev/oled_ssd130x.h ****         dsy_gpio_write(&pin_reset_, 1);
 107:../../libdaisy/src/dev/oled_ssd130x.h ****         System::Delay(10);
 108:../../libdaisy/src/dev/oled_ssd130x.h ****     };
 109:../../libdaisy/src/dev/oled_ssd130x.h ****     void SendCommand(uint8_t cmd)
 110:../../libdaisy/src/dev/oled_ssd130x.h ****     {
ARM GAS  /tmp/cc3v7X8N.s 			page 22


 111:../../libdaisy/src/dev/oled_ssd130x.h ****         dsy_gpio_write(&pin_dc_, 0);
 112:../../libdaisy/src/dev/oled_ssd130x.h ****         spi_.BlockingTransmit(&cmd, 1);
 113:../../libdaisy/src/dev/oled_ssd130x.h ****     };
 114:../../libdaisy/src/dev/oled_ssd130x.h **** 
 115:../../libdaisy/src/dev/oled_ssd130x.h ****     void SendData(uint8_t* buff, size_t size)
 116:../../libdaisy/src/dev/oled_ssd130x.h ****     {
 117:../../libdaisy/src/dev/oled_ssd130x.h ****         dsy_gpio_write(&pin_dc_, 1);
 118:../../libdaisy/src/dev/oled_ssd130x.h ****         spi_.BlockingTransmit(buff, size);
 119:../../libdaisy/src/dev/oled_ssd130x.h ****     };
 120:../../libdaisy/src/dev/oled_ssd130x.h **** 
 121:../../libdaisy/src/dev/oled_ssd130x.h ****   private:
 122:../../libdaisy/src/dev/oled_ssd130x.h ****     SpiHandle spi_;
 123:../../libdaisy/src/dev/oled_ssd130x.h ****     dsy_gpio  pin_reset_;
 124:../../libdaisy/src/dev/oled_ssd130x.h ****     dsy_gpio  pin_dc_;
 125:../../libdaisy/src/dev/oled_ssd130x.h **** };
 126:../../libdaisy/src/dev/oled_ssd130x.h **** 
 127:../../libdaisy/src/dev/oled_ssd130x.h **** 
 128:../../libdaisy/src/dev/oled_ssd130x.h **** /**
 129:../../libdaisy/src/dev/oled_ssd130x.h ****  * A driver implementation for the SSD1306/SSD1309
 130:../../libdaisy/src/dev/oled_ssd130x.h ****  */
 131:../../libdaisy/src/dev/oled_ssd130x.h **** template <size_t width, size_t height, typename Transport>
 132:../../libdaisy/src/dev/oled_ssd130x.h **** class SSD130xDriver
 133:../../libdaisy/src/dev/oled_ssd130x.h **** {
 134:../../libdaisy/src/dev/oled_ssd130x.h ****   public:
 135:../../libdaisy/src/dev/oled_ssd130x.h ****     struct Config
 136:../../libdaisy/src/dev/oled_ssd130x.h ****     {
 137:../../libdaisy/src/dev/oled_ssd130x.h ****         typename Transport::Config transport_config;
 138:../../libdaisy/src/dev/oled_ssd130x.h ****     };
 139:../../libdaisy/src/dev/oled_ssd130x.h **** 
 140:../../libdaisy/src/dev/oled_ssd130x.h ****     void Init(Config config)
 141:../../libdaisy/src/dev/oled_ssd130x.h ****     {
 142:../../libdaisy/src/dev/oled_ssd130x.h ****         transport_.Init(config.transport_config);
 143:../../libdaisy/src/dev/oled_ssd130x.h **** 
 144:../../libdaisy/src/dev/oled_ssd130x.h ****         // Init routine...
 145:../../libdaisy/src/dev/oled_ssd130x.h **** 
 146:../../libdaisy/src/dev/oled_ssd130x.h ****         // Display Off
 147:../../libdaisy/src/dev/oled_ssd130x.h ****         transport_.SendCommand(0xaE);
 148:../../libdaisy/src/dev/oled_ssd130x.h ****         // Dimension dependent commands...
 149:../../libdaisy/src/dev/oled_ssd130x.h ****         switch(height)
 150:../../libdaisy/src/dev/oled_ssd130x.h ****         {
 151:../../libdaisy/src/dev/oled_ssd130x.h ****             case 16:
 152:../../libdaisy/src/dev/oled_ssd130x.h ****                 // Display Clock Divide Ratio
 153:../../libdaisy/src/dev/oled_ssd130x.h ****                 transport_.SendCommand(0xD5);
 154:../../libdaisy/src/dev/oled_ssd130x.h ****                 transport_.SendCommand(0x60);
 155:../../libdaisy/src/dev/oled_ssd130x.h ****                 // Multiplex Ratio
 156:../../libdaisy/src/dev/oled_ssd130x.h ****                 transport_.SendCommand(0xA8);
 157:../../libdaisy/src/dev/oled_ssd130x.h ****                 transport_.SendCommand(0x0F);
 158:../../libdaisy/src/dev/oled_ssd130x.h ****                 // COM Pins
 159:../../libdaisy/src/dev/oled_ssd130x.h ****                 transport_.SendCommand(0xDA);
 160:../../libdaisy/src/dev/oled_ssd130x.h ****                 transport_.SendCommand(0x02);
 161:../../libdaisy/src/dev/oled_ssd130x.h ****                 break;
 162:../../libdaisy/src/dev/oled_ssd130x.h ****             case 32:
 163:../../libdaisy/src/dev/oled_ssd130x.h ****                 // Display Clock Divide Ratio
 164:../../libdaisy/src/dev/oled_ssd130x.h ****                 transport_.SendCommand(0xD5);
 165:../../libdaisy/src/dev/oled_ssd130x.h ****                 transport_.SendCommand(0x80);
 166:../../libdaisy/src/dev/oled_ssd130x.h ****                 // Multiplex Ratio
 167:../../libdaisy/src/dev/oled_ssd130x.h ****                 transport_.SendCommand(0xA8);
ARM GAS  /tmp/cc3v7X8N.s 			page 23


 168:../../libdaisy/src/dev/oled_ssd130x.h ****                 transport_.SendCommand(0x1F);
 169:../../libdaisy/src/dev/oled_ssd130x.h ****                 // COM Pins
 170:../../libdaisy/src/dev/oled_ssd130x.h ****                 transport_.SendCommand(0xDA);
 171:../../libdaisy/src/dev/oled_ssd130x.h ****                 if(width == 64)
 172:../../libdaisy/src/dev/oled_ssd130x.h ****                 {
 173:../../libdaisy/src/dev/oled_ssd130x.h ****                     transport_.SendCommand(0x12);
 174:../../libdaisy/src/dev/oled_ssd130x.h ****                 }
 175:../../libdaisy/src/dev/oled_ssd130x.h ****                 else
 176:../../libdaisy/src/dev/oled_ssd130x.h ****                 {
 177:../../libdaisy/src/dev/oled_ssd130x.h ****                     transport_.SendCommand(0x02);
 178:../../libdaisy/src/dev/oled_ssd130x.h ****                 }
 179:../../libdaisy/src/dev/oled_ssd130x.h **** 
 180:../../libdaisy/src/dev/oled_ssd130x.h ****                 break;
 181:../../libdaisy/src/dev/oled_ssd130x.h ****             case 48:
 182:../../libdaisy/src/dev/oled_ssd130x.h ****                 // Display Clock Divide Ratio
 183:../../libdaisy/src/dev/oled_ssd130x.h ****                 transport_.SendCommand(0xD5);
 184:../../libdaisy/src/dev/oled_ssd130x.h ****                 transport_.SendCommand(0x80);
 185:../../libdaisy/src/dev/oled_ssd130x.h ****                 // Multiplex Ratio
 186:../../libdaisy/src/dev/oled_ssd130x.h ****                 transport_.SendCommand(0xA8);
 187:../../libdaisy/src/dev/oled_ssd130x.h ****                 transport_.SendCommand(0x2F);
 188:../../libdaisy/src/dev/oled_ssd130x.h ****                 // COM Pins
 189:../../libdaisy/src/dev/oled_ssd130x.h ****                 transport_.SendCommand(0xDA);
 190:../../libdaisy/src/dev/oled_ssd130x.h ****                 transport_.SendCommand(0x12);
 191:../../libdaisy/src/dev/oled_ssd130x.h ****                 break;
 192:../../libdaisy/src/dev/oled_ssd130x.h ****             default: // 128
 193:../../libdaisy/src/dev/oled_ssd130x.h ****                 // Display Clock Divide Ratio
 194:../../libdaisy/src/dev/oled_ssd130x.h ****                 transport_.SendCommand(0xD5);
 195:../../libdaisy/src/dev/oled_ssd130x.h ****                 transport_.SendCommand(0x80);
 196:../../libdaisy/src/dev/oled_ssd130x.h ****                 // Multiplex Ratio
 197:../../libdaisy/src/dev/oled_ssd130x.h ****                 transport_.SendCommand(0xA8);
 198:../../libdaisy/src/dev/oled_ssd130x.h ****                 transport_.SendCommand(0x3F);
 199:../../libdaisy/src/dev/oled_ssd130x.h ****                 // COM Pins
 200:../../libdaisy/src/dev/oled_ssd130x.h ****                 transport_.SendCommand(0xDA);
 201:../../libdaisy/src/dev/oled_ssd130x.h ****                 transport_.SendCommand(0x12);
 202:../../libdaisy/src/dev/oled_ssd130x.h ****                 break;
 203:../../libdaisy/src/dev/oled_ssd130x.h ****         }
 204:../../libdaisy/src/dev/oled_ssd130x.h **** 
 205:../../libdaisy/src/dev/oled_ssd130x.h ****         // Display Offset
 206:../../libdaisy/src/dev/oled_ssd130x.h ****         transport_.SendCommand(0xD3);
 207:../../libdaisy/src/dev/oled_ssd130x.h ****         transport_.SendCommand(0x00);
 208:../../libdaisy/src/dev/oled_ssd130x.h ****         // Start Line Address
 209:../../libdaisy/src/dev/oled_ssd130x.h ****         transport_.SendCommand(0x40);
 210:../../libdaisy/src/dev/oled_ssd130x.h ****         // Normal Display
 211:../../libdaisy/src/dev/oled_ssd130x.h ****         transport_.SendCommand(0xA6);
 212:../../libdaisy/src/dev/oled_ssd130x.h ****         // All On Resume
 213:../../libdaisy/src/dev/oled_ssd130x.h ****         transport_.SendCommand(0xA4);
 214:../../libdaisy/src/dev/oled_ssd130x.h ****         // Charge Pump
 215:../../libdaisy/src/dev/oled_ssd130x.h ****         transport_.SendCommand(0x8D);
 216:../../libdaisy/src/dev/oled_ssd130x.h ****         transport_.SendCommand(0x14);
 217:../../libdaisy/src/dev/oled_ssd130x.h ****         // Set Segment Remap
 218:../../libdaisy/src/dev/oled_ssd130x.h ****         transport_.SendCommand(0xA1);
 219:../../libdaisy/src/dev/oled_ssd130x.h ****         // COM Output Scan Direction
 220:../../libdaisy/src/dev/oled_ssd130x.h ****         transport_.SendCommand(0xC8);
 221:../../libdaisy/src/dev/oled_ssd130x.h ****         // Contrast Control
 222:../../libdaisy/src/dev/oled_ssd130x.h ****         transport_.SendCommand(0x81);
 223:../../libdaisy/src/dev/oled_ssd130x.h ****         transport_.SendCommand(0x8F);
 224:../../libdaisy/src/dev/oled_ssd130x.h ****         // Pre Charge
ARM GAS  /tmp/cc3v7X8N.s 			page 24


 225:../../libdaisy/src/dev/oled_ssd130x.h ****         transport_.SendCommand(0xD9);
 226:../../libdaisy/src/dev/oled_ssd130x.h ****         transport_.SendCommand(0x25);
 227:../../libdaisy/src/dev/oled_ssd130x.h ****         // VCOM Detect
 228:../../libdaisy/src/dev/oled_ssd130x.h ****         transport_.SendCommand(0xDB);
 229:../../libdaisy/src/dev/oled_ssd130x.h ****         transport_.SendCommand(0x34);
 230:../../libdaisy/src/dev/oled_ssd130x.h **** 
 231:../../libdaisy/src/dev/oled_ssd130x.h **** 
 232:../../libdaisy/src/dev/oled_ssd130x.h ****         // Display On
 233:../../libdaisy/src/dev/oled_ssd130x.h ****         transport_.SendCommand(0xAF); //--turn on oled panel
 234:../../libdaisy/src/dev/oled_ssd130x.h ****     };
 235:../../libdaisy/src/dev/oled_ssd130x.h **** 
 236:../../libdaisy/src/dev/oled_ssd130x.h ****     size_t Width() const { return width; };
 237:../../libdaisy/src/dev/oled_ssd130x.h ****     size_t Height() const { return height; };
 238:../../libdaisy/src/dev/oled_ssd130x.h **** 
 239:../../libdaisy/src/dev/oled_ssd130x.h ****     void DrawPixel(uint_fast8_t x, uint_fast8_t y, bool on)
 240:../../libdaisy/src/dev/oled_ssd130x.h ****     {
 241:../../libdaisy/src/dev/oled_ssd130x.h ****         if(x >= width || y >= height)
 242:../../libdaisy/src/dev/oled_ssd130x.h ****             return;
 243:../../libdaisy/src/dev/oled_ssd130x.h ****         if(on)
 244:../../libdaisy/src/dev/oled_ssd130x.h ****             buffer_[x + (y / 8) * width] |= (1 << (y % 8));
 245:../../libdaisy/src/dev/oled_ssd130x.h ****         else
 246:../../libdaisy/src/dev/oled_ssd130x.h ****             buffer_[x + (y / 8) * width] &= ~(1 << (y % 8));
 247:../../libdaisy/src/dev/oled_ssd130x.h ****     }
 248:../../libdaisy/src/dev/oled_ssd130x.h **** 
 249:../../libdaisy/src/dev/oled_ssd130x.h ****     void Fill(bool on)
 286              		.loc 17 249 10 view .LVU45
 287              	.LBB701:
 250:../../libdaisy/src/dev/oled_ssd130x.h ****     {
 251:../../libdaisy/src/dev/oled_ssd130x.h ****         for(size_t i = 0; i < sizeof(buffer_); i++)
 288              		.loc 17 251 29 view .LVU46
 289 0000 4942     		rsbs	r1, r1, #0
 290              	.LVL9:
 291              		.loc 17 251 29 is_stmt 0 view .LVU47
 292 0002 00F11303 		add	r3, r0, #19
 293 0006 00F21342 		addw	r2, r0, #1043
 294 000a C9B2     		uxtb	r1, r1
 295              	.LVL10:
 296              	.L9:
 252:../../libdaisy/src/dev/oled_ssd130x.h ****         {
 253:../../libdaisy/src/dev/oled_ssd130x.h ****             buffer_[i] = on ? 0xff : 0x00;
 297              		.loc 17 253 13 view .LVU48
 298 000c 03F8011F 		strb	r1, [r3, #1]!
 299              	.LVL11:
 251:../../libdaisy/src/dev/oled_ssd130x.h ****         {
 300              		.loc 17 251 9 is_stmt 1 view .LVU49
 251:../../libdaisy/src/dev/oled_ssd130x.h ****         {
 301              		.loc 17 251 29 view .LVU50
 302 0010 9342     		cmp	r3, r2
 303 0012 FBD1     		bne	.L9
 304              	.LBE701:
 305              	.LBE700:
 306              		.loc 3 33 53 is_stmt 0 view .LVU51
 307 0014 7047     		bx	lr
 308              		.cfi_endproc
 309              	.LFE4830:
 311 0016 00BF     		.section	.text._ZN5daisy11OledDisplayINS_13SSD130xDriverILj128ELj64ENS_24SSD130x4WireSpiTransportE
 312              		.align	1
ARM GAS  /tmp/cc3v7X8N.s 			page 25


 313              		.p2align 2,,3
 314              		.weak	_ZN5daisy11OledDisplayINS_13SSD130xDriverILj128ELj64ENS_24SSD130x4WireSpiTransportEEEED0Ev
 315              		.syntax unified
 316              		.thumb
 317              		.thumb_func
 318              		.fpu fpv5-d16
 320              	_ZN5daisy11OledDisplayINS_13SSD130xDriverILj128ELj64ENS_24SSD130x4WireSpiTransportEEEED0Ev:
 321              	.LVL12:
 322              	.LFB4557:
  17:../../libdaisy/src/hid/disp/oled_display.h **** 
 323              		.loc 3 17 13 is_stmt 1 view -0
 324              		.cfi_startproc
 325              		@ args = 0, pretend = 0, frame = 0
 326              		@ frame_needed = 0, uses_anonymous_args = 0
  17:../../libdaisy/src/hid/disp/oled_display.h **** 
 327              		.loc 3 17 13 is_stmt 0 view .LVU53
 328 0000 10B5     		push	{r4, lr}
 329              		.cfi_def_cfa_offset 8
 330              		.cfi_offset 4, -8
 331              		.cfi_offset 14, -4
  17:../../libdaisy/src/hid/disp/oled_display.h **** 
 332              		.loc 3 17 13 view .LVU54
 333 0002 0446     		mov	r4, r0
 334              	.LVL13:
 335              	.LBB702:
 336              	.LBI702:
  17:../../libdaisy/src/hid/disp/oled_display.h **** 
 337              		.loc 3 17 13 is_stmt 1 view .LVU55
 338              	.LBB703:
 339              	.LBI703:
 340              		.loc 4 219 13 view .LVU56
 341              	.LBB704:
 342              	.LBI704:
  23:../../libdaisy/src/hid/disp/display.h **** 
 343              		.loc 4 23 13 view .LVU57
  23:../../libdaisy/src/hid/disp/display.h **** 
 344              		.loc 4 23 13 is_stmt 0 view .LVU58
 345              	.LBE704:
 346              	.LBE703:
 347              	.LBE702:
  17:../../libdaisy/src/hid/disp/oled_display.h **** 
 348              		.loc 3 17 29 view .LVU59
 349 0004 40F21441 		movw	r1, #1044
 350 0008 FFF7FEFF 		bl	_ZdlPvj
 351              	.LVL14:
  17:../../libdaisy/src/hid/disp/oled_display.h **** 
 352              		.loc 3 17 29 view .LVU60
 353 000c 2046     		mov	r0, r4
 354 000e 10BD     		pop	{r4, pc}
  17:../../libdaisy/src/hid/disp/oled_display.h **** 
 355              		.loc 3 17 29 view .LVU61
 356              		.cfi_endproc
 357              	.LFE4557:
 359              		.section	.text._ZL13AudioCallbackPKPKfPPfj,"ax",%progbits
 360              		.align	1
 361              		.p2align 2,,3
 362              		.syntax unified
ARM GAS  /tmp/cc3v7X8N.s 			page 26


 363              		.thumb
 364              		.thumb_func
 365              		.fpu fpv5-d16
 367              	_ZL13AudioCallbackPKPKfPPfj:
 368              	.LVL15:
 369              	.LFB4239:
  13:Noise.cpp     **** {
  14:Noise.cpp     ****     Svf filt;
  15:Noise.cpp     **** 
  16:Noise.cpp     ****     enum mode
  17:Noise.cpp     ****     {
  18:Noise.cpp     ****         LOW,
  19:Noise.cpp     ****         HIGH,
  20:Noise.cpp     ****         BAND,
  21:Noise.cpp     ****         NOTCH,
  22:Noise.cpp     ****         PEAK,
  23:Noise.cpp     ****         LAST,
  24:Noise.cpp     ****     };
  25:Noise.cpp     ****     mode filterMode;
  26:Noise.cpp     **** 
  27:Noise.cpp     ****     Parameter resParam, cutoffParam;
  28:Noise.cpp     **** 
  29:Noise.cpp     ****     void Init(float         samplerate,
  30:Noise.cpp     ****               mode          setMode,
  31:Noise.cpp     ****               AnalogControl cutKnob,
  32:Noise.cpp     ****               AnalogControl resKnob)
  33:Noise.cpp     ****     {
  34:Noise.cpp     ****         filt.Init(samplerate);
  35:Noise.cpp     ****         filterMode = setMode;
  36:Noise.cpp     **** 
  37:Noise.cpp     ****         cutoffParam.Init(cutKnob, 20, 10000, Parameter::LOGARITHMIC);
  38:Noise.cpp     ****         resParam.Init(resKnob, 0, 1, Parameter::LINEAR);
  39:Noise.cpp     ****     }
  40:Noise.cpp     **** 
  41:Noise.cpp     ****     void UpdateControls()
  42:Noise.cpp     ****     {
  43:Noise.cpp     ****         filt.SetFreq(cutoffParam.Process());
  44:Noise.cpp     ****         filt.SetRes(resParam.Process());
  45:Noise.cpp     ****     }
  46:Noise.cpp     **** 
  47:Noise.cpp     ****     float Process(float in)
  48:Noise.cpp     ****     {
  49:Noise.cpp     ****         filt.Process(in);
  50:Noise.cpp     ****         switch(filterMode)
  51:Noise.cpp     ****         {
  52:Noise.cpp     ****             case mode::LOW: return filt.Low();
  53:Noise.cpp     ****             case mode::HIGH: return filt.High();
  54:Noise.cpp     ****             case mode::BAND: return filt.Band();
  55:Noise.cpp     ****             case mode::NOTCH: return filt.Notch();
  56:Noise.cpp     ****             case mode::PEAK: return filt.Peak();
  57:Noise.cpp     ****             default: break;
  58:Noise.cpp     ****         }
  59:Noise.cpp     ****         return 0.f;
  60:Noise.cpp     ****     }
  61:Noise.cpp     **** };
  62:Noise.cpp     **** 
  63:Noise.cpp     **** filter lowpass, highpass;
ARM GAS  /tmp/cc3v7X8N.s 			page 27


  64:Noise.cpp     **** 
  65:Noise.cpp     **** static void AudioCallback(AudioHandle::InputBuffer  in,
  66:Noise.cpp     ****                           AudioHandle::OutputBuffer out,
  67:Noise.cpp     ****                           size_t                    size)
  68:Noise.cpp     **** {
 370              		.loc 13 68 1 is_stmt 1 view -0
 371              		.cfi_startproc
 372              		@ args = 0, pretend = 0, frame = 0
 373              		@ frame_needed = 0, uses_anonymous_args = 0
  69:Noise.cpp     ****     patch.ProcessAnalogControls();
 374              		.loc 13 69 5 view .LVU63
  68:Noise.cpp     ****     patch.ProcessAnalogControls();
 375              		.loc 13 68 1 is_stmt 0 view .LVU64
 376 0000 2DE9F047 		push	{r4, r5, r6, r7, r8, r9, r10, lr}
 377              		.cfi_def_cfa_offset 32
 378              		.cfi_offset 4, -32
 379              		.cfi_offset 5, -28
 380              		.cfi_offset 6, -24
 381              		.cfi_offset 7, -20
 382              		.cfi_offset 8, -16
 383              		.cfi_offset 9, -12
 384              		.cfi_offset 10, -8
 385              		.cfi_offset 14, -4
 386              		.loc 13 69 32 view .LVU65
 387 0004 3D48     		ldr	r0, .L39
 388              	.LVL16:
  68:Noise.cpp     ****     patch.ProcessAnalogControls();
 389              		.loc 13 68 1 view .LVU66
 390 0006 1646     		mov	r6, r2
 391 0008 8846     		mov	r8, r1
 392              		.loc 13 69 32 view .LVU67
 393 000a FFF7FEFF 		bl	_ZN5daisy10DaisyPatch21ProcessAnalogControlsEv
 394              	.LVL17:
  70:Noise.cpp     **** 
  71:Noise.cpp     ****     lowpass.UpdateControls();
 395              		.loc 13 71 5 is_stmt 1 view .LVU68
 396              	.LBB718:
 397              	.LBI718:
  41:Noise.cpp     ****     {
 398              		.loc 13 41 10 view .LVU69
 399              	.LBB719:
  43:Noise.cpp     ****         filt.SetRes(resParam.Process());
 400              		.loc 13 43 9 view .LVU70
  43:Noise.cpp     ****         filt.SetRes(resParam.Process());
 401              		.loc 13 43 21 is_stmt 0 view .LVU71
 402 000e 3C48     		ldr	r0, .L39+4
 403 0010 FFF7FEFF 		bl	_ZN5daisy9Parameter7ProcessEv
 404              	.LVL18:
 405 0014 3B48     		ldr	r0, .L39+8
 406 0016 FFF7FEFF 		bl	_ZN7daisysp3Svf7SetFreqEf
 407              	.LVL19:
  44:Noise.cpp     ****     }
 408              		.loc 13 44 9 is_stmt 1 view .LVU72
  44:Noise.cpp     ****     }
 409              		.loc 13 44 20 is_stmt 0 view .LVU73
 410 001a 3B48     		ldr	r0, .L39+12
 411 001c FFF7FEFF 		bl	_ZN5daisy9Parameter7ProcessEv
ARM GAS  /tmp/cc3v7X8N.s 			page 28


 412              	.LVL20:
 413 0020 3848     		ldr	r0, .L39+8
 414 0022 FFF7FEFF 		bl	_ZN7daisysp3Svf6SetResEf
 415              	.LVL21:
  44:Noise.cpp     ****     }
 416              		.loc 13 44 20 view .LVU74
 417              	.LBE719:
 418              	.LBE718:
  72:Noise.cpp     ****     highpass.UpdateControls();
 419              		.loc 13 72 5 is_stmt 1 view .LVU75
 420              	.LBB720:
 421              	.LBI720:
  41:Noise.cpp     ****     {
 422              		.loc 13 41 10 view .LVU76
 423              	.LBB721:
  43:Noise.cpp     ****         filt.SetRes(resParam.Process());
 424              		.loc 13 43 9 view .LVU77
  43:Noise.cpp     ****         filt.SetRes(resParam.Process());
 425              		.loc 13 43 21 is_stmt 0 view .LVU78
 426 0026 3948     		ldr	r0, .L39+16
 427 0028 FFF7FEFF 		bl	_ZN5daisy9Parameter7ProcessEv
 428              	.LVL22:
 429 002c 3848     		ldr	r0, .L39+20
 430 002e FFF7FEFF 		bl	_ZN7daisysp3Svf7SetFreqEf
 431              	.LVL23:
  44:Noise.cpp     ****     }
 432              		.loc 13 44 9 is_stmt 1 view .LVU79
  44:Noise.cpp     ****     }
 433              		.loc 13 44 20 is_stmt 0 view .LVU80
 434 0032 3848     		ldr	r0, .L39+24
 435 0034 FFF7FEFF 		bl	_ZN5daisy9Parameter7ProcessEv
 436              	.LVL24:
 437 0038 3548     		ldr	r0, .L39+20
 438 003a FFF7FEFF 		bl	_ZN7daisysp3Svf6SetResEf
 439              	.LVL25:
  44:Noise.cpp     ****     }
 440              		.loc 13 44 20 view .LVU81
 441              	.LBE721:
 442              	.LBE720:
 443              	.LBB722:
  73:Noise.cpp     **** 
  74:Noise.cpp     ****     for(size_t i = 0; i < size; i++)
 444              		.loc 13 74 25 is_stmt 1 view .LVU82
 445 003e 002E     		cmp	r6, #0
 446 0040 41D0     		beq	.L13
 447 0042 A8F10407 		sub	r7, r8, #4
 448              		.loc 13 74 16 is_stmt 0 view .LVU83
 449 0046 4FF00009 		mov	r9, #0
 450 004a DFF8D0A0 		ldr	r10, .L39+32
 451 004e 08F10C08 		add	r8, r8, #12
 452              	.LVL26:
 453              		.loc 13 74 16 view .LVU84
 454 0052 2C4D     		ldr	r5, .L39+8
 455 0054 2E4C     		ldr	r4, .L39+20
 456              	.LVL27:
 457              	.L30:
 458              	.LBB723:
ARM GAS  /tmp/cc3v7X8N.s 			page 29


  75:Noise.cpp     ****     {
  76:Noise.cpp     ****         float sig = noise.Process();
 459              		.loc 13 76 9 is_stmt 1 view .LVU85
 460              	.LBB724:
 461              	.LBB725:
  17:../../DaisySP/Source/Noise/whitenoise.h ****     /** Initializes the WhiteNoise object
  18:../../DaisySP/Source/Noise/whitenoise.h ****     */
  19:../../DaisySP/Source/Noise/whitenoise.h ****     void Init()
  20:../../DaisySP/Source/Noise/whitenoise.h ****     {
  21:../../DaisySP/Source/Noise/whitenoise.h ****         amp_      = 1.0f;
  22:../../DaisySP/Source/Noise/whitenoise.h ****         randseed_ = 1;
  23:../../DaisySP/Source/Noise/whitenoise.h ****     }
  24:../../DaisySP/Source/Noise/whitenoise.h **** 
  25:../../DaisySP/Source/Noise/whitenoise.h ****     /** sets the amplitude of the noise output
  26:../../DaisySP/Source/Noise/whitenoise.h ****     */
  27:../../DaisySP/Source/Noise/whitenoise.h ****     inline void SetAmp(float a) { amp_ = a; }
  28:../../DaisySP/Source/Noise/whitenoise.h ****     /** returns a new sample of noise in the range of -amp_ to amp_
  29:../../DaisySP/Source/Noise/whitenoise.h ****     */
  30:../../DaisySP/Source/Noise/whitenoise.h ****     inline float Process()
  31:../../DaisySP/Source/Noise/whitenoise.h ****     {
  32:../../DaisySP/Source/Noise/whitenoise.h ****         randseed_ *= 16807;
 462              		.loc 1 32 19 is_stmt 0 view .LVU86
 463 0056 DAF80430 		ldr	r3, [r10, #4]
 464 005a 44F2A712 		movw	r2, #16807
 465              	.LBE725:
 466              	.LBE724:
 467              		.loc 13 76 34 view .LVU87
 468 005e DAED007A 		vldr.32	s15, [r10]
 469              	.LBB728:
 470              	.LBI724:
  30:../../DaisySP/Source/Noise/whitenoise.h ****     {
 471              		.loc 1 30 18 is_stmt 1 view .LVU88
 472              	.LVL28:
 473              	.LBB726:
 474              		.loc 1 32 9 view .LVU89
 475              		.loc 1 32 19 is_stmt 0 view .LVU90
 476 0062 02FB03F3 		mul	r3, r2, r3
 477              	.LBE726:
 478              	.LBE728:
 479              	.LBB729:
 480              	.LBB730:
  49:Noise.cpp     ****         switch(filterMode)
 481              		.loc 13 49 21 view .LVU91
 482 0066 2748     		ldr	r0, .L39+8
 483              	.LBE730:
 484              	.LBE729:
 485              	.LBB737:
 486              	.LBB727:
  33:../../DaisySP/Source/Noise/whitenoise.h ****         return (randseed_ * coeff_) * amp_;
 487              		.loc 1 33 27 view .LVU92
 488 0068 00EE103A 		vmov	s0, r3	@ int
  32:../../DaisySP/Source/Noise/whitenoise.h ****         return (randseed_ * coeff_) * amp_;
 489              		.loc 1 32 19 view .LVU93
 490 006c CAF80430 		str	r3, [r10, #4]
 491              		.loc 1 33 27 view .LVU94
 492 0070 BAEEE00A 		vcvt.f32.s32	s0, s0, #31
 493              		.loc 1 33 9 is_stmt 1 view .LVU95
ARM GAS  /tmp/cc3v7X8N.s 			page 30


 494              	.LVL29:
 495              		.loc 1 33 9 is_stmt 0 view .LVU96
 496              	.LBE727:
 497              	.LBE737:
  77:Noise.cpp     ****         sig       = lowpass.Process(sig);
 498              		.loc 13 77 9 is_stmt 1 view .LVU97
 499              	.LBB738:
 500              	.LBI729:
  47:Noise.cpp     ****     {
 501              		.loc 13 47 11 view .LVU98
 502              	.LBB731:
  49:Noise.cpp     ****         switch(filterMode)
 503              		.loc 13 49 9 view .LVU99
  49:Noise.cpp     ****         switch(filterMode)
 504              		.loc 13 49 21 is_stmt 0 view .LVU100
 505 0074 20EE270A 		vmul.f32	s0, s0, s15
 506 0078 FFF7FEFF 		bl	_ZN7daisysp3Svf7ProcessEf
 507              	.LVL30:
  50:Noise.cpp     ****         {
 508              		.loc 13 50 9 is_stmt 1 view .LVU101
 509 007c 95F84C30 		ldrb	r3, [r5, #76]	@ zero_extendqisi2
 510 0080 042B     		cmp	r3, #4
 511 0082 36D8     		bhi	.L31
 512 0084 DFE803F0 		tbb	[pc, r3]
 513              	.L17:
 514 0088 32       		.byte	(.L21-.L17)/2
 515 0089 2F       		.byte	(.L20-.L17)/2
 516 008a 2C       		.byte	(.L19-.L17)/2
 517 008b 29       		.byte	(.L18-.L17)/2
 518 008c 03       		.byte	(.L16-.L17)/2
 519 008d 00       		.p2align 1
 520              	.L16:
  56:Noise.cpp     ****             default: break;
 521              		.loc 13 56 13 view .LVU102
  56:Noise.cpp     ****             default: break;
 522              		.loc 13 56 30 view .LVU103
  56:Noise.cpp     ****             default: break;
 523              		.loc 13 56 46 is_stmt 0 view .LVU104
 524 008e 95ED0F0A 		vldr.32	s0, [r5, #60]
 525              	.LVL31:
  56:Noise.cpp     ****             default: break;
 526              		.loc 13 56 46 view .LVU105
 527              	.LBE731:
 528              	.LBE738:
 529              	.LBE723:
 530              	.LBE722:
  23:../../DaisySP/Source/Filters/svf.h ****     /** Initializes the filter
  24:../../DaisySP/Source/Filters/svf.h ****         float sample_rate - sample rate of the audio engine being run, and the frequency that the P
  25:../../DaisySP/Source/Filters/svf.h ****     */
  26:../../DaisySP/Source/Filters/svf.h ****     void Init(float sample_rate);
  27:../../DaisySP/Source/Filters/svf.h **** 
  28:../../DaisySP/Source/Filters/svf.h **** 
  29:../../DaisySP/Source/Filters/svf.h ****     /** 
  30:../../DaisySP/Source/Filters/svf.h ****         Process the input signal, updating all of the outputs.
  31:../../DaisySP/Source/Filters/svf.h ****     */
  32:../../DaisySP/Source/Filters/svf.h ****     void Process(float in);
  33:../../DaisySP/Source/Filters/svf.h **** 
ARM GAS  /tmp/cc3v7X8N.s 			page 31


  34:../../DaisySP/Source/Filters/svf.h **** 
  35:../../DaisySP/Source/Filters/svf.h ****     /** sets the frequency of the cutoff frequency. 
  36:../../DaisySP/Source/Filters/svf.h ****         f must be between 0.0 and sample_rate / 3
  37:../../DaisySP/Source/Filters/svf.h ****     */
  38:../../DaisySP/Source/Filters/svf.h ****     void SetFreq(float f);
  39:../../DaisySP/Source/Filters/svf.h **** 
  40:../../DaisySP/Source/Filters/svf.h ****     /** sets the resonance of the filter.
  41:../../DaisySP/Source/Filters/svf.h ****         Must be between 0.0 and 1.0 to ensure stability.
  42:../../DaisySP/Source/Filters/svf.h ****     */
  43:../../DaisySP/Source/Filters/svf.h ****     void SetRes(float r);
  44:../../DaisySP/Source/Filters/svf.h **** 
  45:../../DaisySP/Source/Filters/svf.h ****     /** sets the drive of the filter 
  46:../../DaisySP/Source/Filters/svf.h ****         affects the response of the resonance of the filter
  47:../../DaisySP/Source/Filters/svf.h ****     */
  48:../../DaisySP/Source/Filters/svf.h ****     void SetDrive(float d);
  49:../../DaisySP/Source/Filters/svf.h ****     /** lowpass output
  50:../../DaisySP/Source/Filters/svf.h ****         \return low pass output of the filter
  51:../../DaisySP/Source/Filters/svf.h ****     */
  52:../../DaisySP/Source/Filters/svf.h ****     inline float Low() { return out_low_; }
  53:../../DaisySP/Source/Filters/svf.h ****     /** highpass output
  54:../../DaisySP/Source/Filters/svf.h ****         \return high pass output of the filter
  55:../../DaisySP/Source/Filters/svf.h ****     */
  56:../../DaisySP/Source/Filters/svf.h ****     inline float High() { return out_high_; }
  57:../../DaisySP/Source/Filters/svf.h ****     /** bandpass output
  58:../../DaisySP/Source/Filters/svf.h ****         \return band pass output of the filter
  59:../../DaisySP/Source/Filters/svf.h ****     */
  60:../../DaisySP/Source/Filters/svf.h ****     inline float Band() { return out_band_; }
  61:../../DaisySP/Source/Filters/svf.h ****     /** notchpass output
  62:../../DaisySP/Source/Filters/svf.h ****         \return notch pass output of the filter
  63:../../DaisySP/Source/Filters/svf.h ****     */
  64:../../DaisySP/Source/Filters/svf.h ****     inline float Notch() { return out_notch_; }
  65:../../DaisySP/Source/Filters/svf.h ****     /** peak output
  66:../../DaisySP/Source/Filters/svf.h ****         \return peak output of the filter
  67:../../DaisySP/Source/Filters/svf.h ****     */
  68:../../DaisySP/Source/Filters/svf.h ****     inline float Peak() { return out_peak_; }
 531              		.loc 16 68 27 is_stmt 1 view .LVU106
 532              	.L15:
 533              	.LBB770:
 534              	.LBB759:
  78:Noise.cpp     ****         sig       = highpass.Process(sig);
 535              		.loc 13 78 9 view .LVU107
 536              	.LBB739:
 537              	.LBI739:
  47:Noise.cpp     ****     {
 538              		.loc 13 47 11 view .LVU108
 539              	.LBB740:
  49:Noise.cpp     ****         switch(filterMode)
 540              		.loc 13 49 9 view .LVU109
  49:Noise.cpp     ****         switch(filterMode)
 541              		.loc 13 49 21 is_stmt 0 view .LVU110
 542 0092 1F48     		ldr	r0, .L39+20
 543 0094 FFF7FEFF 		bl	_ZN7daisysp3Svf7ProcessEf
 544              	.LVL32:
  50:Noise.cpp     ****         {
 545              		.loc 13 50 9 is_stmt 1 view .LVU111
 546 0098 94F84C30 		ldrb	r3, [r4, #76]	@ zero_extendqisi2
 547 009c 042B     		cmp	r3, #4
ARM GAS  /tmp/cc3v7X8N.s 			page 32


 548 009e 2BD8     		bhi	.L32
 549 00a0 DFE803F0 		tbb	[pc, r3]
 550              	.L24:
 551 00a4 19       		.byte	(.L28-.L24)/2
 552 00a5 17       		.byte	(.L27-.L24)/2
 553 00a6 15       		.byte	(.L26-.L24)/2
 554 00a7 13       		.byte	(.L25-.L24)/2
 555 00a8 03       		.byte	(.L23-.L24)/2
 556 00a9 00       		.p2align 1
 557              	.L23:
  56:Noise.cpp     ****             default: break;
 558              		.loc 13 56 13 view .LVU112
  56:Noise.cpp     ****             default: break;
 559              		.loc 13 56 30 view .LVU113
  56:Noise.cpp     ****             default: break;
 560              		.loc 13 56 46 is_stmt 0 view .LVU114
 561 00aa E26B     		ldr	r2, [r4, #60]	@ float
 562              	.LVL33:
  56:Noise.cpp     ****             default: break;
 563              		.loc 13 56 46 view .LVU115
 564              	.LBE740:
 565              	.LBE739:
 566              	.LBE759:
 567              	.LBE770:
 568              		.loc 16 68 27 is_stmt 1 view .LVU116
 569              	.L22:
 570              	.LBB771:
 571              	.LBB760:
  79:Noise.cpp     **** 
  80:Noise.cpp     ****         for(size_t chn = 0; chn < 4; chn++)
 572              		.loc 13 80 9 view .LVU117
 573              	.LBB747:
 574              		.loc 13 80 33 view .LVU118
 575 00ac 4FEA8900 		lsl	r0, r9, #2
 576 00b0 3946     		mov	r1, r7
 577              	.LVL34:
 578              	.L29:
  81:Noise.cpp     ****         {
  82:Noise.cpp     ****             out[chn][i] = sig;
 579              		.loc 13 82 13 discriminator 2 view .LVU119
 580              		.loc 13 82 25 is_stmt 0 discriminator 2 view .LVU120
 581 00b2 51F8043F 		ldr	r3, [r1, #4]!
 582 00b6 0344     		add	r3, r3, r0
  80:Noise.cpp     ****         {
 583              		.loc 13 80 33 discriminator 2 view .LVU121
 584 00b8 8845     		cmp	r8, r1
 585              		.loc 13 82 25 discriminator 2 view .LVU122
 586 00ba 1A60     		str	r2, [r3]	@ float
  80:Noise.cpp     ****         {
 587              		.loc 13 80 9 is_stmt 1 discriminator 2 view .LVU123
  80:Noise.cpp     ****         {
 588              		.loc 13 80 33 discriminator 2 view .LVU124
 589 00bc F9D1     		bne	.L29
  80:Noise.cpp     ****         {
 590              		.loc 13 80 33 is_stmt 0 discriminator 2 view .LVU125
 591              	.LBE747:
 592              	.LBE760:
ARM GAS  /tmp/cc3v7X8N.s 			page 33


  74:Noise.cpp     ****     {
 593              		.loc 13 74 5 is_stmt 1 discriminator 2 view .LVU126
 594 00be 09F10109 		add	r9, r9, #1
 595              	.LVL35:
  74:Noise.cpp     ****     {
 596              		.loc 13 74 25 discriminator 2 view .LVU127
 597 00c2 4E45     		cmp	r6, r9
 598 00c4 C7D1     		bne	.L30
 599              	.LVL36:
 600              	.L13:
  74:Noise.cpp     ****     {
 601              		.loc 13 74 25 is_stmt 0 discriminator 2 view .LVU128
 602              	.LBE771:
  83:Noise.cpp     ****         }
  84:Noise.cpp     ****     }
  85:Noise.cpp     **** }
 603              		.loc 13 85 1 view .LVU129
 604 00c6 BDE8F087 		pop	{r4, r5, r6, r7, r8, r9, r10, pc}
 605              	.LVL37:
 606              	.L25:
 607              	.LBB772:
 608              	.LBB761:
 609              	.LBB748:
 610              	.LBB741:
  55:Noise.cpp     ****             case mode::PEAK: return filt.Peak();
 611              		.loc 13 55 13 is_stmt 1 view .LVU130
  55:Noise.cpp     ****             case mode::PEAK: return filt.Peak();
 612              		.loc 13 55 31 view .LVU131
  55:Noise.cpp     ****             case mode::PEAK: return filt.Peak();
 613              		.loc 13 55 48 is_stmt 0 view .LVU132
 614 00ca 226C     		ldr	r2, [r4, #64]	@ float
 615              	.LVL38:
  55:Noise.cpp     ****             case mode::PEAK: return filt.Peak();
 616              		.loc 13 55 48 view .LVU133
 617              	.LBE741:
 618              	.LBE748:
 619              	.LBE761:
 620              	.LBE772:
  64:../../DaisySP/Source/Filters/svf.h ****     /** peak output
 621              		.loc 16 64 28 is_stmt 1 view .LVU134
 622              	.LBB773:
 623              	.LBB762:
 624              	.LBB749:
 625              	.LBB742:
  55:Noise.cpp     ****             case mode::PEAK: return filt.Peak();
 626              		.loc 13 55 49 is_stmt 0 view .LVU135
 627 00cc EEE7     		b	.L22
 628              	.LVL39:
 629              	.L26:
  54:Noise.cpp     ****             case mode::NOTCH: return filt.Notch();
 630              		.loc 13 54 13 is_stmt 1 view .LVU136
  54:Noise.cpp     ****             case mode::NOTCH: return filt.Notch();
 631              		.loc 13 54 30 view .LVU137
  54:Noise.cpp     ****             case mode::NOTCH: return filt.Notch();
 632              		.loc 13 54 46 is_stmt 0 view .LVU138
 633 00ce A26B     		ldr	r2, [r4, #56]	@ float
 634              	.LVL40:
ARM GAS  /tmp/cc3v7X8N.s 			page 34


  54:Noise.cpp     ****             case mode::NOTCH: return filt.Notch();
 635              		.loc 13 54 46 view .LVU139
 636              	.LBE742:
 637              	.LBE749:
 638              	.LBE762:
 639              	.LBE773:
  60:../../DaisySP/Source/Filters/svf.h ****     /** notchpass output
 640              		.loc 16 60 27 is_stmt 1 view .LVU140
 641              	.LBB774:
 642              	.LBB763:
 643              	.LBB750:
 644              	.LBB743:
  54:Noise.cpp     ****             case mode::NOTCH: return filt.Notch();
 645              		.loc 13 54 47 is_stmt 0 view .LVU141
 646 00d0 ECE7     		b	.L22
 647              	.LVL41:
 648              	.L27:
  53:Noise.cpp     ****             case mode::BAND: return filt.Band();
 649              		.loc 13 53 13 is_stmt 1 view .LVU142
  53:Noise.cpp     ****             case mode::BAND: return filt.Band();
 650              		.loc 13 53 30 view .LVU143
  53:Noise.cpp     ****             case mode::BAND: return filt.Band();
 651              		.loc 13 53 46 is_stmt 0 view .LVU144
 652 00d2 626B     		ldr	r2, [r4, #52]	@ float
 653              	.LVL42:
  53:Noise.cpp     ****             case mode::BAND: return filt.Band();
 654              		.loc 13 53 46 view .LVU145
 655              	.LBE743:
 656              	.LBE750:
 657              	.LBE763:
 658              	.LBE774:
  56:../../DaisySP/Source/Filters/svf.h ****     /** bandpass output
 659              		.loc 16 56 27 is_stmt 1 view .LVU146
 660              	.LBB775:
 661              	.LBB764:
 662              	.LBB751:
 663              	.LBB744:
  53:Noise.cpp     ****             case mode::BAND: return filt.Band();
 664              		.loc 13 53 47 is_stmt 0 view .LVU147
 665 00d4 EAE7     		b	.L22
 666              	.LVL43:
 667              	.L28:
  52:Noise.cpp     ****             case mode::HIGH: return filt.High();
 668              		.loc 13 52 13 is_stmt 1 view .LVU148
  52:Noise.cpp     ****             case mode::HIGH: return filt.High();
 669              		.loc 13 52 29 view .LVU149
  52:Noise.cpp     ****             case mode::HIGH: return filt.High();
 670              		.loc 13 52 44 is_stmt 0 view .LVU150
 671 00d6 226B     		ldr	r2, [r4, #48]	@ float
 672              	.LVL44:
  52:Noise.cpp     ****             case mode::HIGH: return filt.High();
 673              		.loc 13 52 44 view .LVU151
 674              	.LBE744:
 675              	.LBE751:
 676              	.LBE764:
 677              	.LBE775:
  52:../../DaisySP/Source/Filters/svf.h ****     /** highpass output
ARM GAS  /tmp/cc3v7X8N.s 			page 35


 678              		.loc 16 52 26 is_stmt 1 view .LVU152
 679              	.LBB776:
 680              	.LBB765:
 681              	.LBB752:
 682              	.LBB745:
  52:Noise.cpp     ****             case mode::HIGH: return filt.High();
 683              		.loc 13 52 45 is_stmt 0 view .LVU153
 684 00d8 E8E7     		b	.L22
 685              	.LVL45:
 686              	.L18:
  52:Noise.cpp     ****             case mode::HIGH: return filt.High();
 687              		.loc 13 52 45 view .LVU154
 688              	.LBE745:
 689              	.LBE752:
 690              	.LBB753:
 691              	.LBB732:
  55:Noise.cpp     ****             case mode::PEAK: return filt.Peak();
 692              		.loc 13 55 13 is_stmt 1 view .LVU155
  55:Noise.cpp     ****             case mode::PEAK: return filt.Peak();
 693              		.loc 13 55 31 view .LVU156
  55:Noise.cpp     ****             case mode::PEAK: return filt.Peak();
 694              		.loc 13 55 48 is_stmt 0 view .LVU157
 695 00da 95ED100A 		vldr.32	s0, [r5, #64]
 696              	.LVL46:
  55:Noise.cpp     ****             case mode::PEAK: return filt.Peak();
 697              		.loc 13 55 48 view .LVU158
 698              	.LBE732:
 699              	.LBE753:
 700              	.LBE765:
 701              	.LBE776:
  64:../../DaisySP/Source/Filters/svf.h ****     /** peak output
 702              		.loc 16 64 28 is_stmt 1 view .LVU159
 703              	.LBB777:
 704              	.LBB766:
 705              	.LBB754:
 706              	.LBB733:
  55:Noise.cpp     ****             case mode::PEAK: return filt.Peak();
 707              		.loc 13 55 49 is_stmt 0 view .LVU160
 708 00de D8E7     		b	.L15
 709              	.LVL47:
 710              	.L19:
  54:Noise.cpp     ****             case mode::NOTCH: return filt.Notch();
 711              		.loc 13 54 13 is_stmt 1 view .LVU161
  54:Noise.cpp     ****             case mode::NOTCH: return filt.Notch();
 712              		.loc 13 54 30 view .LVU162
  54:Noise.cpp     ****             case mode::NOTCH: return filt.Notch();
 713              		.loc 13 54 46 is_stmt 0 view .LVU163
 714 00e0 95ED0E0A 		vldr.32	s0, [r5, #56]
 715              	.LVL48:
  54:Noise.cpp     ****             case mode::NOTCH: return filt.Notch();
 716              		.loc 13 54 46 view .LVU164
 717              	.LBE733:
 718              	.LBE754:
 719              	.LBE766:
 720              	.LBE777:
  60:../../DaisySP/Source/Filters/svf.h ****     /** notchpass output
 721              		.loc 16 60 27 is_stmt 1 view .LVU165
ARM GAS  /tmp/cc3v7X8N.s 			page 36


 722              	.LBB778:
 723              	.LBB767:
 724              	.LBB755:
 725              	.LBB734:
  54:Noise.cpp     ****             case mode::NOTCH: return filt.Notch();
 726              		.loc 13 54 47 is_stmt 0 view .LVU166
 727 00e4 D5E7     		b	.L15
 728              	.LVL49:
 729              	.L20:
  53:Noise.cpp     ****             case mode::BAND: return filt.Band();
 730              		.loc 13 53 13 is_stmt 1 view .LVU167
  53:Noise.cpp     ****             case mode::BAND: return filt.Band();
 731              		.loc 13 53 30 view .LVU168
  53:Noise.cpp     ****             case mode::BAND: return filt.Band();
 732              		.loc 13 53 46 is_stmt 0 view .LVU169
 733 00e6 95ED0D0A 		vldr.32	s0, [r5, #52]
 734              	.LVL50:
  53:Noise.cpp     ****             case mode::BAND: return filt.Band();
 735              		.loc 13 53 46 view .LVU170
 736              	.LBE734:
 737              	.LBE755:
 738              	.LBE767:
 739              	.LBE778:
  56:../../DaisySP/Source/Filters/svf.h ****     /** bandpass output
 740              		.loc 16 56 27 is_stmt 1 view .LVU171
 741              	.LBB779:
 742              	.LBB768:
 743              	.LBB756:
 744              	.LBB735:
  53:Noise.cpp     ****             case mode::BAND: return filt.Band();
 745              		.loc 13 53 47 is_stmt 0 view .LVU172
 746 00ea D2E7     		b	.L15
 747              	.LVL51:
 748              	.L21:
  52:Noise.cpp     ****             case mode::HIGH: return filt.High();
 749              		.loc 13 52 13 is_stmt 1 view .LVU173
  52:Noise.cpp     ****             case mode::HIGH: return filt.High();
 750              		.loc 13 52 29 view .LVU174
  52:Noise.cpp     ****             case mode::HIGH: return filt.High();
 751              		.loc 13 52 44 is_stmt 0 view .LVU175
 752 00ec 95ED0C0A 		vldr.32	s0, [r5, #48]
 753              	.LVL52:
  52:Noise.cpp     ****             case mode::HIGH: return filt.High();
 754              		.loc 13 52 44 view .LVU176
 755              	.LBE735:
 756              	.LBE756:
 757              	.LBE768:
 758              	.LBE779:
  52:../../DaisySP/Source/Filters/svf.h ****     /** highpass output
 759              		.loc 16 52 26 is_stmt 1 view .LVU177
 760              	.LBB780:
 761              	.LBB769:
 762              	.LBB757:
 763              	.LBB736:
  52:Noise.cpp     ****             case mode::HIGH: return filt.High();
 764              		.loc 13 52 45 is_stmt 0 view .LVU178
 765 00f0 CFE7     		b	.L15
ARM GAS  /tmp/cc3v7X8N.s 			page 37


 766              	.LVL53:
 767              	.L31:
  50:Noise.cpp     ****         {
 768              		.loc 13 50 16 view .LVU179
 769 00f2 9FED090A 		vldr.32	s0, .L39+28
 770 00f6 CCE7     		b	.L15
 771              	.LVL54:
 772              	.L32:
  50:Noise.cpp     ****         {
 773              		.loc 13 50 16 view .LVU180
 774              	.LBE736:
 775              	.LBE757:
 776              	.LBB758:
 777              	.LBB746:
 778 00f8 0022     		movs	r2, #0
 779 00fa D7E7     		b	.L22
 780              	.L40:
 781              		.align	2
 782              	.L39:
 783 00fc 00000000 		.word	patch
 784 0100 88000000 		.word	.LANCHOR0+136
 785 0104 00000000 		.word	.LANCHOR0
 786 0108 50000000 		.word	.LANCHOR0+80
 787 010c 88000000 		.word	.LANCHOR1+136
 788 0110 00000000 		.word	.LANCHOR1
 789 0114 50000000 		.word	.LANCHOR1+80
 790 0118 00000000 		.word	0
 791 011c 00000000 		.word	.LANCHOR2
 792              	.LBE746:
 793              	.LBE758:
 794              	.LBE769:
 795              	.LBE780:
 796              		.cfi_endproc
 797              	.LFE4239:
 799              		.section	.text._ZN5daisy11OledDisplayINS_13SSD130xDriverILj128ELj64ENS_24SSD130x4WireSpiTransportE
 800              		.align	1
 801              		.p2align 2,,3
 802              		.weak	_ZN5daisy11OledDisplayINS_13SSD130xDriverILj128ELj64ENS_24SSD130x4WireSpiTransportEEEE6Updat
 803              		.syntax unified
 804              		.thumb
 805              		.thumb_func
 806              		.fpu fpv5-d16
 808              	_ZN5daisy11OledDisplayINS_13SSD130xDriverILj128ELj64ENS_24SSD130x4WireSpiTransportEEEE6UpdateEv:
 809              	.LVL55:
 810              	.LFB4560:
  34:../../libdaisy/src/hid/disp/oled_display.h **** 
  35:../../libdaisy/src/hid/disp/oled_display.h ****     /**
  36:../../libdaisy/src/hid/disp/oled_display.h ****     Sets the pixel at the specified coordinate to be on/off.
  37:../../libdaisy/src/hid/disp/oled_display.h ****     \param x   x Coordinate
  38:../../libdaisy/src/hid/disp/oled_display.h ****     \param y   y coordinate
  39:../../libdaisy/src/hid/disp/oled_display.h ****     \param on  on or off
  40:../../libdaisy/src/hid/disp/oled_display.h ****     */
  41:../../libdaisy/src/hid/disp/oled_display.h ****     void DrawPixel(uint_fast8_t x, uint_fast8_t y, bool on) override
  42:../../libdaisy/src/hid/disp/oled_display.h ****     {
  43:../../libdaisy/src/hid/disp/oled_display.h ****         driver_.DrawPixel(x, y, on);
  44:../../libdaisy/src/hid/disp/oled_display.h ****     }
  45:../../libdaisy/src/hid/disp/oled_display.h **** 
ARM GAS  /tmp/cc3v7X8N.s 			page 38


  46:../../libdaisy/src/hid/disp/oled_display.h ****     /** 
  47:../../libdaisy/src/hid/disp/oled_display.h ****     Writes the current display buffer to the OLED device using SPI or I2C depending on 
  48:../../libdaisy/src/hid/disp/oled_display.h ****     how the object was initialized.
  49:../../libdaisy/src/hid/disp/oled_display.h ****     */
  50:../../libdaisy/src/hid/disp/oled_display.h ****     void Update() override { driver_.Update(); }
 811              		.loc 3 50 10 is_stmt 1 view -0
 812              		.cfi_startproc
 813              		@ args = 0, pretend = 0, frame = 8
 814              		@ frame_needed = 0, uses_anonymous_args = 0
 815              	.LBB791:
 816              	.LBI791:
 254:../../libdaisy/src/dev/oled_ssd130x.h ****         }
 255:../../libdaisy/src/dev/oled_ssd130x.h ****     };
 256:../../libdaisy/src/dev/oled_ssd130x.h **** 
 257:../../libdaisy/src/dev/oled_ssd130x.h ****     /**
 258:../../libdaisy/src/dev/oled_ssd130x.h ****      * Update the display 
 259:../../libdaisy/src/dev/oled_ssd130x.h ****     */
 260:../../libdaisy/src/dev/oled_ssd130x.h ****     void Update()
 817              		.loc 17 260 10 view .LVU182
 818              	.LBB792:
 261:../../libdaisy/src/dev/oled_ssd130x.h ****     {
 262:../../libdaisy/src/dev/oled_ssd130x.h ****         uint8_t i;
 263:../../libdaisy/src/dev/oled_ssd130x.h ****         uint8_t high_column_addr;
 264:../../libdaisy/src/dev/oled_ssd130x.h ****         switch(height)
 265:../../libdaisy/src/dev/oled_ssd130x.h ****         {
 266:../../libdaisy/src/dev/oled_ssd130x.h ****             case 32: high_column_addr = 0x12; break;
 267:../../libdaisy/src/dev/oled_ssd130x.h **** 
 268:../../libdaisy/src/dev/oled_ssd130x.h ****             default: high_column_addr = 0x10; break;
 269:../../libdaisy/src/dev/oled_ssd130x.h ****         }
 270:../../libdaisy/src/dev/oled_ssd130x.h ****         for(i = 0; i < (height / 8); i++)
 819              		.loc 17 270 22 view .LVU183
 820              	.LBE792:
 821              	.LBE791:
 822              		.loc 3 50 10 is_stmt 0 view .LVU184
 823 0000 2DE9F041 		push	{r4, r5, r6, r7, r8, lr}
 824              		.cfi_def_cfa_offset 24
 825              		.cfi_offset 4, -24
 826              		.cfi_offset 5, -20
 827              		.cfi_offset 6, -16
 828              		.cfi_offset 7, -12
 829              		.cfi_offset 8, -8
 830              		.cfi_offset 14, -4
 831 0004 B025     		movs	r5, #176
 832 0006 82B0     		sub	sp, sp, #8
 833              		.cfi_def_cfa_offset 32
 834 0008 00F10807 		add	r7, r0, #8
 835 000c 00F11006 		add	r6, r0, #16
 836 0010 00F11404 		add	r4, r0, #20
 837              	.LVL56:
 838              	.L42:
 839              	.LBB805:
 840              	.LBB804:
 841              	.LBB793:
 842              	.LBB794:
 111:../../libdaisy/src/dev/oled_ssd130x.h ****         spi_.BlockingTransmit(&cmd, 1);
 843              		.loc 17 111 23 view .LVU185
 844 0014 0021     		movs	r1, #0
ARM GAS  /tmp/cc3v7X8N.s 			page 39


 845 0016 3046     		mov	r0, r6
 846 0018 8DF80750 		strb	r5, [sp, #7]
 847              	.LVL57:
 111:../../libdaisy/src/dev/oled_ssd130x.h ****         spi_.BlockingTransmit(&cmd, 1);
 848              		.loc 17 111 23 view .LVU186
 849              	.LBE794:
 850              	.LBI793:
 109:../../libdaisy/src/dev/oled_ssd130x.h ****     {
 851              		.loc 17 109 10 is_stmt 1 view .LVU187
 852              	.LBB795:
 111:../../libdaisy/src/dev/oled_ssd130x.h ****         spi_.BlockingTransmit(&cmd, 1);
 853              		.loc 17 111 9 view .LVU188
 854 001c 0135     		adds	r5, r5, #1
 855              	.LVL58:
 111:../../libdaisy/src/dev/oled_ssd130x.h ****         spi_.BlockingTransmit(&cmd, 1);
 856              		.loc 17 111 9 is_stmt 0 view .LVU189
 857 001e 8846     		mov	r8, r1
 111:../../libdaisy/src/dev/oled_ssd130x.h ****         spi_.BlockingTransmit(&cmd, 1);
 858              		.loc 17 111 23 view .LVU190
 859 0020 FFF7FEFF 		bl	dsy_gpio_write
 860              	.LVL59:
 112:../../libdaisy/src/dev/oled_ssd130x.h ****     };
 861              		.loc 17 112 9 is_stmt 1 view .LVU191
 112:../../libdaisy/src/dev/oled_ssd130x.h ****     };
 862              		.loc 17 112 30 is_stmt 0 view .LVU192
 863 0024 6423     		movs	r3, #100
 864 0026 0122     		movs	r2, #1
 865 0028 0DF10701 		add	r1, sp, #7
 866 002c 3846     		mov	r0, r7
 867 002e FFF7FEFF 		bl	_ZN5daisy9SpiHandle16BlockingTransmitEPhjm
 868              	.LVL60:
 112:../../libdaisy/src/dev/oled_ssd130x.h ****     };
 869              		.loc 17 112 30 view .LVU193
 870              	.LBE795:
 871              	.LBE793:
 872              	.LBB796:
 873              	.LBB797:
 111:../../libdaisy/src/dev/oled_ssd130x.h ****         spi_.BlockingTransmit(&cmd, 1);
 874              		.loc 17 111 23 view .LVU194
 875 0032 4146     		mov	r1, r8
 876 0034 3046     		mov	r0, r6
 877 0036 8DF80780 		strb	r8, [sp, #7]
 878              	.LVL61:
 111:../../libdaisy/src/dev/oled_ssd130x.h ****         spi_.BlockingTransmit(&cmd, 1);
 879              		.loc 17 111 23 view .LVU195
 880              	.LBE797:
 881              	.LBI796:
 109:../../libdaisy/src/dev/oled_ssd130x.h ****     {
 882              		.loc 17 109 10 is_stmt 1 view .LVU196
 883              	.LBB798:
 111:../../libdaisy/src/dev/oled_ssd130x.h ****         spi_.BlockingTransmit(&cmd, 1);
 884              		.loc 17 111 9 view .LVU197
 111:../../libdaisy/src/dev/oled_ssd130x.h ****         spi_.BlockingTransmit(&cmd, 1);
 885              		.loc 17 111 23 is_stmt 0 view .LVU198
 886 003a FFF7FEFF 		bl	dsy_gpio_write
 887              	.LVL62:
 112:../../libdaisy/src/dev/oled_ssd130x.h ****     };
ARM GAS  /tmp/cc3v7X8N.s 			page 40


 888              		.loc 17 112 9 is_stmt 1 view .LVU199
 112:../../libdaisy/src/dev/oled_ssd130x.h ****     };
 889              		.loc 17 112 30 is_stmt 0 view .LVU200
 890 003e 0122     		movs	r2, #1
 891 0040 6423     		movs	r3, #100
 892 0042 0DF10701 		add	r1, sp, #7
 893 0046 3846     		mov	r0, r7
 894 0048 EDB2     		uxtb	r5, r5
 895 004a FFF7FEFF 		bl	_ZN5daisy9SpiHandle16BlockingTransmitEPhjm
 896              	.LVL63:
 112:../../libdaisy/src/dev/oled_ssd130x.h ****     };
 897              		.loc 17 112 30 view .LVU201
 898 004e 1023     		movs	r3, #16
 899              	.LBE798:
 900              	.LBE796:
 901              	.LBB799:
 902              	.LBB800:
 111:../../libdaisy/src/dev/oled_ssd130x.h ****         spi_.BlockingTransmit(&cmd, 1);
 903              		.loc 17 111 23 view .LVU202
 904 0050 4146     		mov	r1, r8
 905 0052 3046     		mov	r0, r6
 906 0054 8DF80730 		strb	r3, [sp, #7]
 907              	.LVL64:
 111:../../libdaisy/src/dev/oled_ssd130x.h ****         spi_.BlockingTransmit(&cmd, 1);
 908              		.loc 17 111 23 view .LVU203
 909              	.LBE800:
 910              	.LBI799:
 109:../../libdaisy/src/dev/oled_ssd130x.h ****     {
 911              		.loc 17 109 10 is_stmt 1 view .LVU204
 912              	.LBB801:
 111:../../libdaisy/src/dev/oled_ssd130x.h ****         spi_.BlockingTransmit(&cmd, 1);
 913              		.loc 17 111 9 view .LVU205
 111:../../libdaisy/src/dev/oled_ssd130x.h ****         spi_.BlockingTransmit(&cmd, 1);
 914              		.loc 17 111 23 is_stmt 0 view .LVU206
 915 0058 FFF7FEFF 		bl	dsy_gpio_write
 916              	.LVL65:
 112:../../libdaisy/src/dev/oled_ssd130x.h ****     };
 917              		.loc 17 112 9 is_stmt 1 view .LVU207
 112:../../libdaisy/src/dev/oled_ssd130x.h ****     };
 918              		.loc 17 112 30 is_stmt 0 view .LVU208
 919 005c 6423     		movs	r3, #100
 920 005e 0122     		movs	r2, #1
 921 0060 0DF10701 		add	r1, sp, #7
 922 0064 3846     		mov	r0, r7
 923 0066 FFF7FEFF 		bl	_ZN5daisy9SpiHandle16BlockingTransmitEPhjm
 924              	.LVL66:
 112:../../libdaisy/src/dev/oled_ssd130x.h ****     };
 925              		.loc 17 112 30 view .LVU209
 926              	.LBE801:
 927              	.LBE799:
 928              	.LBB802:
 929              	.LBI802:
 115:../../libdaisy/src/dev/oled_ssd130x.h ****     {
 930              		.loc 17 115 10 is_stmt 1 view .LVU210
 931              	.LBB803:
 117:../../libdaisy/src/dev/oled_ssd130x.h ****         spi_.BlockingTransmit(buff, size);
 932              		.loc 17 117 9 view .LVU211
ARM GAS  /tmp/cc3v7X8N.s 			page 41


 117:../../libdaisy/src/dev/oled_ssd130x.h ****         spi_.BlockingTransmit(buff, size);
 933              		.loc 17 117 23 is_stmt 0 view .LVU212
 934 006a 0121     		movs	r1, #1
 935 006c 3046     		mov	r0, r6
 936 006e FFF7FEFF 		bl	dsy_gpio_write
 937              	.LVL67:
 118:../../libdaisy/src/dev/oled_ssd130x.h ****     };
 938              		.loc 17 118 9 is_stmt 1 view .LVU213
 118:../../libdaisy/src/dev/oled_ssd130x.h ****     };
 939              		.loc 17 118 30 is_stmt 0 view .LVU214
 940 0072 8022     		movs	r2, #128
 941 0074 2146     		mov	r1, r4
 942 0076 6423     		movs	r3, #100
 943 0078 3846     		mov	r0, r7
 944 007a 1444     		add	r4, r4, r2
 945              	.LVL68:
 118:../../libdaisy/src/dev/oled_ssd130x.h ****     };
 946              		.loc 17 118 30 view .LVU215
 947 007c FFF7FEFF 		bl	_ZN5daisy9SpiHandle16BlockingTransmitEPhjm
 948              	.LVL69:
 118:../../libdaisy/src/dev/oled_ssd130x.h ****     };
 949              		.loc 17 118 30 view .LVU216
 950              	.LBE803:
 951              	.LBE802:
 952              		.loc 17 270 9 is_stmt 1 view .LVU217
 953              		.loc 17 270 22 view .LVU218
 954 0080 B82D     		cmp	r5, #184
 955 0082 C7D1     		bne	.L42
 956              	.LBE804:
 957              	.LBE805:
 958              		.loc 3 50 48 is_stmt 0 view .LVU219
 959 0084 02B0     		add	sp, sp, #8
 960              		.cfi_def_cfa_offset 24
 961              		@ sp needed
 962 0086 BDE8F081 		pop	{r4, r5, r6, r7, r8, pc}
 963              		.loc 3 50 48 view .LVU220
 964              		.cfi_endproc
 965              	.LFE4560:
 967 008a 00BF     		.section	.text._ZN5daisy25OneBitGraphicsDisplayImplINS_11OledDisplayINS_13SSD130xDriverILj128ELj64
 968              		.align	1
 969              		.p2align 2,,3
 970              		.weak	_ZN5daisy25OneBitGraphicsDisplayImplINS_11OledDisplayINS_13SSD130xDriverILj128ELj64ENS_24SSD
 971              		.syntax unified
 972              		.thumb
 973              		.thumb_func
 974              		.fpu fpv5-d16
 976              	_ZN5daisy25OneBitGraphicsDisplayImplINS_11OledDisplayINS_13SSD130xDriverILj128ELj64ENS_24SSD130x4Wi
 977              	.LVL70:
 978              	.LFB4559:
 220:../../libdaisy/src/hid/disp/display.h **** 
 221:../../libdaisy/src/hid/disp/display.h ****     void DrawLine(uint_fast8_t x1,
 222:../../libdaisy/src/hid/disp/display.h ****                   uint_fast8_t y1,
 223:../../libdaisy/src/hid/disp/display.h ****                   uint_fast8_t x2,
 224:../../libdaisy/src/hid/disp/display.h ****                   uint_fast8_t y2,
 225:../../libdaisy/src/hid/disp/display.h ****                   bool         on) override
 226:../../libdaisy/src/hid/disp/display.h ****     {
 227:../../libdaisy/src/hid/disp/display.h ****         int_fast16_t deltaX = abs((int_fast16_t)x2 - (int_fast16_t)x1);
ARM GAS  /tmp/cc3v7X8N.s 			page 42


 228:../../libdaisy/src/hid/disp/display.h ****         int_fast16_t deltaY = abs((int_fast16_t)y2 - (int_fast16_t)y1);
 229:../../libdaisy/src/hid/disp/display.h ****         int_fast16_t signX  = ((x1 < x2) ? 1 : -1);
 230:../../libdaisy/src/hid/disp/display.h ****         int_fast16_t signY  = ((y1 < y2) ? 1 : -1);
 231:../../libdaisy/src/hid/disp/display.h ****         int_fast16_t error  = deltaX - deltaY;
 232:../../libdaisy/src/hid/disp/display.h ****         int_fast16_t error2;
 233:../../libdaisy/src/hid/disp/display.h **** 
 234:../../libdaisy/src/hid/disp/display.h ****         // If we write "ChildType::DrawPixel(x2, y2, on);", we end up with
 235:../../libdaisy/src/hid/disp/display.h ****         // all sorts of weird compiler errors when the Child class is a template
 236:../../libdaisy/src/hid/disp/display.h ****         // class. The only way around this is to use this very verbose syntax:
 237:../../libdaisy/src/hid/disp/display.h ****         ((ChildType*)(this))->ChildType::DrawPixel(x2, y2, on);
 238:../../libdaisy/src/hid/disp/display.h **** 
 239:../../libdaisy/src/hid/disp/display.h ****         while((x1 != x2) || (y1 != y2))
 240:../../libdaisy/src/hid/disp/display.h ****         {
 241:../../libdaisy/src/hid/disp/display.h ****             ((ChildType*)(this))->ChildType::DrawPixel(x1, y1, on);
 242:../../libdaisy/src/hid/disp/display.h ****             error2 = error * 2;
 243:../../libdaisy/src/hid/disp/display.h ****             if(error2 > -deltaY)
 244:../../libdaisy/src/hid/disp/display.h ****             {
 245:../../libdaisy/src/hid/disp/display.h ****                 error -= deltaY;
 246:../../libdaisy/src/hid/disp/display.h ****                 x1 += signX;
 247:../../libdaisy/src/hid/disp/display.h ****             }
 248:../../libdaisy/src/hid/disp/display.h **** 
 249:../../libdaisy/src/hid/disp/display.h ****             if(error2 < deltaX)
 250:../../libdaisy/src/hid/disp/display.h ****             {
 251:../../libdaisy/src/hid/disp/display.h ****                 error += deltaX;
 252:../../libdaisy/src/hid/disp/display.h ****                 y1 += signY;
 253:../../libdaisy/src/hid/disp/display.h ****             }
 254:../../libdaisy/src/hid/disp/display.h ****         }
 255:../../libdaisy/src/hid/disp/display.h ****     }
 256:../../libdaisy/src/hid/disp/display.h **** 
 257:../../libdaisy/src/hid/disp/display.h ****     void DrawRect(uint_fast8_t x1,
 258:../../libdaisy/src/hid/disp/display.h ****                   uint_fast8_t y1,
 259:../../libdaisy/src/hid/disp/display.h ****                   uint_fast8_t x2,
 260:../../libdaisy/src/hid/disp/display.h ****                   uint_fast8_t y2,
 261:../../libdaisy/src/hid/disp/display.h ****                   bool         on,
 262:../../libdaisy/src/hid/disp/display.h ****                   bool         fill = false) override
 263:../../libdaisy/src/hid/disp/display.h ****     {
 264:../../libdaisy/src/hid/disp/display.h ****         if(fill)
 265:../../libdaisy/src/hid/disp/display.h ****         {
 266:../../libdaisy/src/hid/disp/display.h ****             for(uint_fast8_t x = x1; x <= x2; x++)
 267:../../libdaisy/src/hid/disp/display.h ****             {
 268:../../libdaisy/src/hid/disp/display.h ****                 for(uint_fast8_t y = y1; y <= y2; y++)
 269:../../libdaisy/src/hid/disp/display.h ****                 {
 270:../../libdaisy/src/hid/disp/display.h ****                     ((ChildType*)(this))->ChildType::DrawPixel(x, y, on);
 271:../../libdaisy/src/hid/disp/display.h ****                 }
 272:../../libdaisy/src/hid/disp/display.h ****             }
 273:../../libdaisy/src/hid/disp/display.h ****         }
 274:../../libdaisy/src/hid/disp/display.h ****         else
 275:../../libdaisy/src/hid/disp/display.h ****         {
 276:../../libdaisy/src/hid/disp/display.h ****             ((ChildType*)(this))->ChildType::DrawLine(x1, y1, x2, y1, on);
 277:../../libdaisy/src/hid/disp/display.h ****             ((ChildType*)(this))->ChildType::DrawLine(x2, y1, x2, y2, on);
 278:../../libdaisy/src/hid/disp/display.h ****             ((ChildType*)(this))->ChildType::DrawLine(x2, y2, x1, y2, on);
 279:../../libdaisy/src/hid/disp/display.h ****             ((ChildType*)(this))->ChildType::DrawLine(x1, y2, x1, y1, on);
 280:../../libdaisy/src/hid/disp/display.h ****         }
 281:../../libdaisy/src/hid/disp/display.h ****     }
 282:../../libdaisy/src/hid/disp/display.h **** 
 283:../../libdaisy/src/hid/disp/display.h ****     void DrawArc(uint_fast8_t x,
 284:../../libdaisy/src/hid/disp/display.h ****                  uint_fast8_t y,
ARM GAS  /tmp/cc3v7X8N.s 			page 43


 285:../../libdaisy/src/hid/disp/display.h ****                  uint_fast8_t radius,
 286:../../libdaisy/src/hid/disp/display.h ****                  int_fast16_t start_angle,
 287:../../libdaisy/src/hid/disp/display.h ****                  int_fast16_t sweep,
 288:../../libdaisy/src/hid/disp/display.h ****                  bool         on) override
 289:../../libdaisy/src/hid/disp/display.h ****     {
 290:../../libdaisy/src/hid/disp/display.h ****         // Values to calculate the circle
 291:../../libdaisy/src/hid/disp/display.h ****         int_fast16_t t_x, t_y, err, e2;
 292:../../libdaisy/src/hid/disp/display.h **** 
 293:../../libdaisy/src/hid/disp/display.h ****         // Temporary values to speed up comparisons
 294:../../libdaisy/src/hid/disp/display.h ****         float t_sxy, t_syx, t_sxny, t_synx;
 295:../../libdaisy/src/hid/disp/display.h ****         float t_exy, t_eyx, t_exny, t_eynx;
 296:../../libdaisy/src/hid/disp/display.h **** 
 297:../../libdaisy/src/hid/disp/display.h ****         float start_angle_rad, end_angle_rad;
 298:../../libdaisy/src/hid/disp/display.h ****         float start_x, start_y, end_x, end_y;
 299:../../libdaisy/src/hid/disp/display.h **** 
 300:../../libdaisy/src/hid/disp/display.h ****         bool d1, d2, d3, d4;
 301:../../libdaisy/src/hid/disp/display.h **** 
 302:../../libdaisy/src/hid/disp/display.h ****         d1 = d2 = d3 = d4 = true;
 303:../../libdaisy/src/hid/disp/display.h **** 
 304:../../libdaisy/src/hid/disp/display.h ****         bool circle = false;
 305:../../libdaisy/src/hid/disp/display.h **** 
 306:../../libdaisy/src/hid/disp/display.h ****         if(sweep < 0)
 307:../../libdaisy/src/hid/disp/display.h ****         {
 308:../../libdaisy/src/hid/disp/display.h ****             start_angle += sweep;
 309:../../libdaisy/src/hid/disp/display.h ****             sweep = -sweep;
 310:../../libdaisy/src/hid/disp/display.h ****         }
 311:../../libdaisy/src/hid/disp/display.h **** 
 312:../../libdaisy/src/hid/disp/display.h ****         start_angle_rad = deg2rad(start_angle);
 313:../../libdaisy/src/hid/disp/display.h ****         end_angle_rad   = deg2rad(start_angle + sweep);
 314:../../libdaisy/src/hid/disp/display.h **** 
 315:../../libdaisy/src/hid/disp/display.h ****         start_x = cos(start_angle_rad) * radius;
 316:../../libdaisy/src/hid/disp/display.h ****         start_y = -sin(start_angle_rad) * radius;
 317:../../libdaisy/src/hid/disp/display.h ****         end_x   = cos(end_angle_rad) * radius;
 318:../../libdaisy/src/hid/disp/display.h ****         end_y   = -sin(end_angle_rad) * radius;
 319:../../libdaisy/src/hid/disp/display.h **** 
 320:../../libdaisy/src/hid/disp/display.h ****         // Check if start and endpoint are very near
 321:../../libdaisy/src/hid/disp/display.h ****         if((end_x - start_x) * (end_x - start_x)
 322:../../libdaisy/src/hid/disp/display.h ****                + (end_y - start_y) * (end_y - start_y)
 323:../../libdaisy/src/hid/disp/display.h ****            < 2.0f)
 324:../../libdaisy/src/hid/disp/display.h ****         {
 325:../../libdaisy/src/hid/disp/display.h ****             if(sweep > 180)
 326:../../libdaisy/src/hid/disp/display.h ****                 circle = true;
 327:../../libdaisy/src/hid/disp/display.h ****             else
 328:../../libdaisy/src/hid/disp/display.h ****                 // Nothing to draw
 329:../../libdaisy/src/hid/disp/display.h ****                 return;
 330:../../libdaisy/src/hid/disp/display.h ****         }
 331:../../libdaisy/src/hid/disp/display.h **** 
 332:../../libdaisy/src/hid/disp/display.h ****         t_x = -radius;
 333:../../libdaisy/src/hid/disp/display.h ****         t_y = 0;
 334:../../libdaisy/src/hid/disp/display.h ****         err = 2 - 2 * radius;
 335:../../libdaisy/src/hid/disp/display.h **** 
 336:../../libdaisy/src/hid/disp/display.h ****         do
 337:../../libdaisy/src/hid/disp/display.h ****         {
 338:../../libdaisy/src/hid/disp/display.h ****             if(!circle)
 339:../../libdaisy/src/hid/disp/display.h ****             {
 340:../../libdaisy/src/hid/disp/display.h ****                 t_sxy  = start_x * t_y;
 341:../../libdaisy/src/hid/disp/display.h ****                 t_syx  = start_y * t_x;
ARM GAS  /tmp/cc3v7X8N.s 			page 44


 342:../../libdaisy/src/hid/disp/display.h ****                 t_sxny = start_x * -t_y;
 343:../../libdaisy/src/hid/disp/display.h ****                 t_synx = start_y * -t_x;
 344:../../libdaisy/src/hid/disp/display.h ****                 t_exy  = end_x * t_y;
 345:../../libdaisy/src/hid/disp/display.h ****                 t_eyx  = end_y * t_x;
 346:../../libdaisy/src/hid/disp/display.h ****                 t_exny = end_x * -t_y;
 347:../../libdaisy/src/hid/disp/display.h ****                 t_eynx = end_y * -t_x;
 348:../../libdaisy/src/hid/disp/display.h **** 
 349:../../libdaisy/src/hid/disp/display.h ****                 if(sweep > 180)
 350:../../libdaisy/src/hid/disp/display.h ****                 {
 351:../../libdaisy/src/hid/disp/display.h ****                     d1 = (t_sxy - t_synx < 0 || t_exy - t_eynx > 0);
 352:../../libdaisy/src/hid/disp/display.h ****                     d2 = (t_sxy - t_syx < 0 || t_exy - t_eyx > 0);
 353:../../libdaisy/src/hid/disp/display.h ****                     d3 = (t_sxny - t_syx < 0 || t_exny - t_eyx > 0);
 354:../../libdaisy/src/hid/disp/display.h ****                     d4 = (t_sxny - t_synx < 0 || t_exny - t_eynx > 0);
 355:../../libdaisy/src/hid/disp/display.h ****                 }
 356:../../libdaisy/src/hid/disp/display.h ****                 else
 357:../../libdaisy/src/hid/disp/display.h ****                 {
 358:../../libdaisy/src/hid/disp/display.h ****                     d1 = (t_sxy - t_synx < 0 && t_exy - t_eynx > 0);
 359:../../libdaisy/src/hid/disp/display.h ****                     d2 = (t_sxy - t_syx < 0 && t_exy - t_eyx > 0);
 360:../../libdaisy/src/hid/disp/display.h ****                     d3 = (t_sxny - t_syx < 0 && t_exny - t_eyx > 0);
 361:../../libdaisy/src/hid/disp/display.h ****                     d4 = (t_sxny - t_synx < 0 && t_exny - t_eynx > 0);
 362:../../libdaisy/src/hid/disp/display.h ****                 }
 363:../../libdaisy/src/hid/disp/display.h ****             }
 364:../../libdaisy/src/hid/disp/display.h **** 
 365:../../libdaisy/src/hid/disp/display.h ****             if(d1)
 366:../../libdaisy/src/hid/disp/display.h ****                 ((ChildType*)(this))
 367:../../libdaisy/src/hid/disp/display.h ****                     ->ChildType::DrawPixel(x - t_x, y + t_y, on);
 368:../../libdaisy/src/hid/disp/display.h ****             if(d2)
 369:../../libdaisy/src/hid/disp/display.h ****                 ((ChildType*)(this))
 370:../../libdaisy/src/hid/disp/display.h ****                     ->ChildType::DrawPixel(x + t_x, y + t_y, on);
 371:../../libdaisy/src/hid/disp/display.h ****             if(d3)
 372:../../libdaisy/src/hid/disp/display.h ****                 ((ChildType*)(this))
 373:../../libdaisy/src/hid/disp/display.h ****                     ->ChildType::DrawPixel(x + t_x, y - t_y, on);
 374:../../libdaisy/src/hid/disp/display.h ****             if(d4)
 375:../../libdaisy/src/hid/disp/display.h ****                 ((ChildType*)(this))
 376:../../libdaisy/src/hid/disp/display.h ****                     ->ChildType::DrawPixel(x - t_x, y - t_y, on);
 377:../../libdaisy/src/hid/disp/display.h **** 
 378:../../libdaisy/src/hid/disp/display.h ****             e2 = err;
 379:../../libdaisy/src/hid/disp/display.h ****             if(e2 <= t_y)
 380:../../libdaisy/src/hid/disp/display.h ****             {
 381:../../libdaisy/src/hid/disp/display.h ****                 t_y++;
 382:../../libdaisy/src/hid/disp/display.h ****                 err = err + (t_y * 2 + 1);
 383:../../libdaisy/src/hid/disp/display.h ****                 if(-t_x == t_y && e2 <= t_x)
 384:../../libdaisy/src/hid/disp/display.h ****                 {
 385:../../libdaisy/src/hid/disp/display.h ****                     e2 = 0;
 386:../../libdaisy/src/hid/disp/display.h ****                 }
 387:../../libdaisy/src/hid/disp/display.h ****             }
 388:../../libdaisy/src/hid/disp/display.h ****             if(e2 > t_x)
 389:../../libdaisy/src/hid/disp/display.h ****             {
 390:../../libdaisy/src/hid/disp/display.h ****                 t_x++;
 391:../../libdaisy/src/hid/disp/display.h ****                 err = err + (t_x * 2 + 1);
 392:../../libdaisy/src/hid/disp/display.h ****             }
 393:../../libdaisy/src/hid/disp/display.h ****         } while(t_x <= 0);
 394:../../libdaisy/src/hid/disp/display.h ****     }
 395:../../libdaisy/src/hid/disp/display.h **** 
 396:../../libdaisy/src/hid/disp/display.h ****     char WriteChar(char ch, FontDef font, bool on) override
 397:../../libdaisy/src/hid/disp/display.h ****     {
 398:../../libdaisy/src/hid/disp/display.h ****         uint32_t i, b, j;
ARM GAS  /tmp/cc3v7X8N.s 			page 45


 399:../../libdaisy/src/hid/disp/display.h **** 
 400:../../libdaisy/src/hid/disp/display.h ****         // Check if character is valid
 401:../../libdaisy/src/hid/disp/display.h ****         if(ch < 32 || ch > 126)
 402:../../libdaisy/src/hid/disp/display.h ****             return 0;
 403:../../libdaisy/src/hid/disp/display.h **** 
 404:../../libdaisy/src/hid/disp/display.h ****         // Check remaining space on current line
 405:../../libdaisy/src/hid/disp/display.h ****         if(Width() < (currentX_ + font.FontWidth)
 406:../../libdaisy/src/hid/disp/display.h ****            || Height() < (currentY_ + font.FontHeight))
 407:../../libdaisy/src/hid/disp/display.h ****         {
 408:../../libdaisy/src/hid/disp/display.h ****             // Not enough space on current line
 409:../../libdaisy/src/hid/disp/display.h ****             return 0;
 410:../../libdaisy/src/hid/disp/display.h ****         }
 411:../../libdaisy/src/hid/disp/display.h **** 
 412:../../libdaisy/src/hid/disp/display.h ****         // Use the font to write
 413:../../libdaisy/src/hid/disp/display.h ****         for(i = 0; i < font.FontHeight; i++)
 414:../../libdaisy/src/hid/disp/display.h ****         {
 415:../../libdaisy/src/hid/disp/display.h ****             b = font.data[(ch - 32) * font.FontHeight + i];
 416:../../libdaisy/src/hid/disp/display.h ****             for(j = 0; j < font.FontWidth; j++)
 417:../../libdaisy/src/hid/disp/display.h ****             {
 418:../../libdaisy/src/hid/disp/display.h ****                 if((b << j) & 0x8000)
 419:../../libdaisy/src/hid/disp/display.h ****                 {
 420:../../libdaisy/src/hid/disp/display.h ****                     ((ChildType*)(this))
 421:../../libdaisy/src/hid/disp/display.h ****                         ->ChildType::DrawPixel(
 422:../../libdaisy/src/hid/disp/display.h ****                             currentX_ + j, (currentY_ + i), on);
 423:../../libdaisy/src/hid/disp/display.h ****                 }
 424:../../libdaisy/src/hid/disp/display.h ****                 else
 425:../../libdaisy/src/hid/disp/display.h ****                 {
 426:../../libdaisy/src/hid/disp/display.h ****                     ((ChildType*)(this))
 427:../../libdaisy/src/hid/disp/display.h ****                         ->ChildType::DrawPixel(
 428:../../libdaisy/src/hid/disp/display.h ****                             currentX_ + j, (currentY_ + i), !on);
 429:../../libdaisy/src/hid/disp/display.h ****                 }
 430:../../libdaisy/src/hid/disp/display.h ****             }
 431:../../libdaisy/src/hid/disp/display.h ****         }
 432:../../libdaisy/src/hid/disp/display.h **** 
 433:../../libdaisy/src/hid/disp/display.h ****         // The current space is now taken
 434:../../libdaisy/src/hid/disp/display.h ****         SetCursor(currentX_ + font.FontWidth, currentY_);
 435:../../libdaisy/src/hid/disp/display.h **** 
 436:../../libdaisy/src/hid/disp/display.h ****         // Return written char for validation
 437:../../libdaisy/src/hid/disp/display.h ****         return ch;
 438:../../libdaisy/src/hid/disp/display.h ****     }
 439:../../libdaisy/src/hid/disp/display.h **** 
 440:../../libdaisy/src/hid/disp/display.h ****     char WriteString(const char* str, FontDef font, bool on) override
 979              		.loc 4 440 10 is_stmt 1 view -0
 980              		.cfi_startproc
 981              		@ args = 4, pretend = 0, frame = 32
 982              		@ frame_needed = 0, uses_anonymous_args = 0
 983              		.loc 4 440 10 is_stmt 0 view .LVU222
 984 0000 2DE9F04F 		push	{r4, r5, r6, r7, r8, r9, r10, fp, lr}
 985              		.cfi_def_cfa_offset 36
 986              		.cfi_offset 4, -36
 987              		.cfi_offset 5, -32
 988              		.cfi_offset 6, -28
 989              		.cfi_offset 7, -24
 990              		.cfi_offset 8, -20
 991              		.cfi_offset 9, -16
 992              		.cfi_offset 10, -12
 993              		.cfi_offset 11, -8
ARM GAS  /tmp/cc3v7X8N.s 			page 46


 994              		.cfi_offset 14, -4
 995 0004 89B0     		sub	sp, sp, #36
 996              		.cfi_def_cfa_offset 72
 997              		.loc 4 440 10 view .LVU223
 998 0006 8B46     		mov	fp, r1
 441:../../libdaisy/src/hid/disp/display.h ****     {
 442:../../libdaisy/src/hid/disp/display.h ****         // Write until null-byte
 443:../../libdaisy/src/hid/disp/display.h ****         while(*str)
 999              		.loc 4 443 9 is_stmt 1 view .LVU224
 1000 0008 91F80090 		ldrb	r9, [r1]	@ zero_extendqisi2
 440:../../libdaisy/src/hid/disp/display.h ****     {
 1001              		.loc 4 440 10 is_stmt 0 view .LVU225
 1002 000c 9DF84840 		ldrb	r4, [sp, #72]	@ zero_extendqisi2
 1003 0010 08A9     		add	r1, sp, #32
 1004              	.LVL71:
 440:../../libdaisy/src/hid/disp/display.h ****     {
 1005              		.loc 4 440 10 view .LVU226
 1006 0012 0494     		str	r4, [sp, #16]
 1007 0014 01E90C00 		stmdb	r1, {r2, r3}
 1008              		.loc 4 443 9 view .LVU227
 1009 0018 B9F1000F 		cmp	r9, #0
 1010 001c 00F0B780 		beq	.L69
 1011 0020 9DF81930 		ldrb	r3, [sp, #25]	@ zero_extendqisi2
 1012 0024 8046     		mov	r8, r0
 1013 0026 9DF818A0 		ldrb	r10, [sp, #24]	@ zero_extendqisi2
 1014 002a 4D46     		mov	r5, r9
 1015 002c 0193     		str	r3, [sp, #4]
 1016 002e 079B     		ldr	r3, [sp, #28]
 1017 0030 0593     		str	r3, [sp, #20]
 1018              	.LVL72:
 1019              	.L70:
 1020              	.LBB834:
 1021              	.LBI834:
 396:../../libdaisy/src/hid/disp/display.h ****     {
 1022              		.loc 4 396 10 is_stmt 1 view .LVU228
 1023              	.LBB835:
 401:../../libdaisy/src/hid/disp/display.h ****             return 0;
 1024              		.loc 4 401 20 is_stmt 0 view .LVU229
 1025 0032 A5F12004 		sub	r4, r5, #32
 401:../../libdaisy/src/hid/disp/display.h ****             return 0;
 1026              		.loc 4 401 9 view .LVU230
 1027 0036 E3B2     		uxtb	r3, r4
 1028 0038 5E2B     		cmp	r3, #94
 1029 003a 00F2AC80 		bhi	.L51
 405:../../libdaisy/src/hid/disp/display.h ****            || Height() < (currentY_ + font.FontHeight))
 1030              		.loc 4 405 17 view .LVU231
 1031 003e D8F80030 		ldr	r3, [r8]
 1032 0042 654A     		ldr	r2, .L91
 1033 0044 DB68     		ldr	r3, [r3, #12]
 1034 0046 9342     		cmp	r3, r2
 1035 0048 40F0A780 		bne	.L84
 1036 004c 8020     		movs	r0, #128
 1037              	.L50:
 405:../../libdaisy/src/hid/disp/display.h ****            || Height() < (currentY_ + font.FontHeight))
 1038              		.loc 4 405 23 view .LVU232
 1039 004e B8F80430 		ldrh	r3, [r8, #4]
 405:../../libdaisy/src/hid/disp/display.h ****            || Height() < (currentY_ + font.FontHeight))
ARM GAS  /tmp/cc3v7X8N.s 			page 47


 1040              		.loc 4 405 33 view .LVU233
 1041 0052 5344     		add	r3, r3, r10
 406:../../libdaisy/src/hid/disp/display.h ****         {
 1042              		.loc 4 406 12 view .LVU234
 1043 0054 8342     		cmp	r3, r0
 1044 0056 00F39E80 		bgt	.L51
 406:../../libdaisy/src/hid/disp/display.h ****         {
 1045              		.loc 4 406 21 view .LVU235
 1046 005a D8F80030 		ldr	r3, [r8]
 1047 005e 5F4A     		ldr	r2, .L91+4
 1048 0060 9B68     		ldr	r3, [r3, #8]
 1049 0062 9342     		cmp	r3, r2
 1050 0064 40F09C80 		bne	.L85
 1051 0068 4020     		movs	r0, #64
 1052              	.L52:
 406:../../libdaisy/src/hid/disp/display.h ****         {
 1053              		.loc 4 406 27 view .LVU236
 1054 006a B8F80610 		ldrh	r1, [r8, #6]
 406:../../libdaisy/src/hid/disp/display.h ****         {
 1055              		.loc 4 406 37 view .LVU237
 1056 006e 019A     		ldr	r2, [sp, #4]
 406:../../libdaisy/src/hid/disp/display.h ****         {
 1057              		.loc 4 406 27 view .LVU238
 1058 0070 0091     		str	r1, [sp]
 406:../../libdaisy/src/hid/disp/display.h ****         {
 1059              		.loc 4 406 37 view .LVU239
 1060 0072 8B18     		adds	r3, r1, r2
 406:../../libdaisy/src/hid/disp/display.h ****         {
 1061              		.loc 4 406 12 view .LVU240
 1062 0074 8342     		cmp	r3, r0
 1063 0076 00F38E80 		bgt	.L51
 1064              	.LVL73:
 413:../../libdaisy/src/hid/disp/display.h ****         {
 1065              		.loc 4 413 22 is_stmt 1 view .LVU241
 1066 007a 1046     		mov	r0, r2
 1067 007c 002A     		cmp	r2, #0
 1068 007e 00F09A80 		beq	.L53
 415:../../libdaisy/src/hid/disp/display.h ****             for(j = 0; j < font.FontWidth; j++)
 1069              		.loc 4 415 37 is_stmt 0 view .LVU242
 1070 0082 1346     		mov	r3, r2
 1071 0084 6FF00046 		mvn	r6, #-2147483648
 1072 0088 B8F80470 		ldrh	r7, [r8, #4]
 1073 008c 03FB04F3 		mul	r3, r3, r4
 1074 0090 059C     		ldr	r4, [sp, #20]
 1075 0092 BE46     		mov	lr, r7
 1076 0094 CDF80CB0 		str	fp, [sp, #12]
 1077 0098 1E44     		add	r6, r6, r3
 1078 009a A21E     		subs	r2, r4, #2
 1079 009c 0344     		add	r3, r3, r0
 1080 009e 5746     		mov	r7, r10
 1081 00a0 04EB4606 		add	r6, r4, r6, lsl #1
 1082 00a4 DDF81090 		ldr	r9, [sp, #16]
 1083 00a8 02EB4303 		add	r3, r2, r3, lsl #1
 1084 00ac 0295     		str	r5, [sp, #8]
 1085 00ae 9B46     		mov	fp, r3
 1086              	.LVL74:
 1087              	.L56:
ARM GAS  /tmp/cc3v7X8N.s 			page 48


 415:../../libdaisy/src/hid/disp/display.h ****             for(j = 0; j < font.FontWidth; j++)
 1088              		.loc 4 415 13 view .LVU243
 1089 00b0 36F802AF 		ldrh	r10, [r6, #2]!
 1090              	.LVL75:
 416:../../libdaisy/src/hid/disp/display.h ****             {
 1091              		.loc 4 416 26 is_stmt 1 view .LVU244
 1092 00b4 A7B3     		cbz	r7, .L61
 1093              	.LBB836:
 1094              	.LBB837:
 1095              	.LBB838:
 1096              	.LBB839:
 1097              	.LBB840:
 246:../../libdaisy/src/dev/oled_ssd130x.h ****     }
 1098              		.loc 17 246 49 is_stmt 0 view .LVU245
 1099 00b6 0124     		movs	r4, #1
 246:../../libdaisy/src/dev/oled_ssd130x.h ****     }
 1100              		.loc 17 246 55 view .LVU246
 1101 00b8 01F00702 		and	r2, r1, #7
 246:../../libdaisy/src/dev/oled_ssd130x.h ****     }
 1102              		.loc 17 246 28 view .LVU247
 1103 00bc C808     		lsrs	r0, r1, #3
 1104 00be 0EF11403 		add	r3, lr, #20
 246:../../libdaisy/src/dev/oled_ssd130x.h ****     }
 1105              		.loc 17 246 49 view .LVU248
 1106 00c2 04FA02F2 		lsl	r2, r4, r2
 1107 00c6 7446     		mov	r4, lr
 1108 00c8 03EBC013 		add	r3, r3, r0, lsl #7
 1109              	.LBE840:
 1110              	.LBE839:
 1111              	.LBE838:
 1112              	.LBE837:
 1113              	.LBE836:
 416:../../libdaisy/src/hid/disp/display.h ****             {
 1114              		.loc 4 416 19 view .LVU249
 1115 00cc 0020     		movs	r0, #0
 1116              	.LBB858:
 1117              	.LBB853:
 1118              	.LBB848:
 1119              	.LBB844:
 1120              	.LBB841:
 246:../../libdaisy/src/dev/oled_ssd130x.h ****     }
 1121              		.loc 17 246 42 view .LVU250
 1122 00ce 52B2     		sxtb	r2, r2
 1123 00d0 4344     		add	r3, r3, r8
 1124 00d2 6FEA020C 		mvn	ip, r2
 1125 00d6 0EE0     		b	.L62
 1126              	.LVL76:
 1127              	.L86:
 246:../../libdaisy/src/dev/oled_ssd130x.h ****     }
 1128              		.loc 17 246 42 view .LVU251
 1129              	.LBE841:
 1130              	.LBE844:
 1131              	.LBE848:
 1132              	.LBE853:
 1133              	.LBE858:
 1134              	.LBB859:
 1135              	.LBI859:
ARM GAS  /tmp/cc3v7X8N.s 			page 49


  41:../../libdaisy/src/hid/disp/oled_display.h ****     {
 1136              		.loc 3 41 10 is_stmt 1 view .LVU252
 1137              	.LBB860:
 1138              	.LBI860:
 239:../../libdaisy/src/dev/oled_ssd130x.h ****     {
 1139              		.loc 17 239 10 view .LVU253
 1140              	.LBB861:
 241:../../libdaisy/src/dev/oled_ssd130x.h ****             return;
 1141              		.loc 17 241 9 is_stmt 0 view .LVU254
 1142 00d8 7F2C     		cmp	r4, #127
 1143 00da 07D8     		bhi	.L58
 1144 00dc 3F29     		cmp	r1, #63
 1145 00de 05D8     		bhi	.L58
 244:../../libdaisy/src/dev/oled_ssd130x.h ****         else
 1146              		.loc 17 244 42 view .LVU255
 1147 00e0 1D78     		ldrb	r5, [r3]	@ zero_extendqisi2
 243:../../libdaisy/src/dev/oled_ssd130x.h ****             buffer_[x + (y / 8) * width] |= (1 << (y % 8));
 1148              		.loc 17 243 9 view .LVU256
 1149 00e2 B9F1000F 		cmp	r9, #0
 1150 00e6 12D0     		beq	.L60
 1151              	.L83:
 243:../../libdaisy/src/dev/oled_ssd130x.h ****             buffer_[x + (y / 8) * width] |= (1 << (y % 8));
 1152              		.loc 17 243 9 view .LVU257
 1153              	.LBE861:
 1154              	.LBE860:
 1155              	.LBE859:
 1156              	.LBB862:
 1157              	.LBB854:
 1158              	.LBB849:
 244:../../libdaisy/src/dev/oled_ssd130x.h ****         else
 1159              		.loc 17 244 42 view .LVU258
 1160 00e8 1543     		orrs	r5, r5, r2
 244:../../libdaisy/src/dev/oled_ssd130x.h ****         else
 1161              		.loc 17 244 13 view .LVU259
 1162 00ea 1D70     		strb	r5, [r3]
 1163              	.L58:
 1164              	.LBE849:
 1165              	.LBE854:
 1166              	.LBE862:
 416:../../libdaisy/src/hid/disp/display.h ****             {
 1167              		.loc 4 416 13 is_stmt 1 view .LVU260
 1168 00ec 0130     		adds	r0, r0, #1
 1169              	.LVL77:
 416:../../libdaisy/src/hid/disp/display.h ****             {
 1170              		.loc 4 416 26 view .LVU261
 1171 00ee 0133     		adds	r3, r3, #1
 1172 00f0 0134     		adds	r4, r4, #1
 1173 00f2 B842     		cmp	r0, r7
 1174 00f4 14D0     		beq	.L61
 1175              	.LVL78:
 1176              	.L62:
 418:../../libdaisy/src/hid/disp/display.h ****                 {
 1177              		.loc 4 418 23 is_stmt 0 view .LVU262
 1178 00f6 0AFA00F5 		lsl	r5, r10, r0
 418:../../libdaisy/src/hid/disp/display.h ****                 {
 1179              		.loc 4 418 17 view .LVU263
 1180 00fa 2D04     		lsls	r5, r5, #16
ARM GAS  /tmp/cc3v7X8N.s 			page 50


 1181 00fc ECD4     		bmi	.L86
 1182              	.LVL79:
 1183              	.LBB863:
 1184              	.LBI836:
  41:../../libdaisy/src/hid/disp/oled_display.h ****     {
 1185              		.loc 3 41 10 is_stmt 1 view .LVU264
 1186              	.LBB855:
 1187              	.LBI837:
 239:../../libdaisy/src/dev/oled_ssd130x.h ****     {
 1188              		.loc 17 239 10 view .LVU265
 1189              	.LBB850:
 241:../../libdaisy/src/dev/oled_ssd130x.h ****             return;
 1190              		.loc 17 241 9 is_stmt 0 view .LVU266
 1191 00fe 7F2C     		cmp	r4, #127
 1192 0100 F4D8     		bhi	.L58
 1193 0102 3F29     		cmp	r1, #63
 1194 0104 F2D8     		bhi	.L58
 244:../../libdaisy/src/dev/oled_ssd130x.h ****         else
 1195              		.loc 17 244 42 view .LVU267
 1196 0106 1D78     		ldrb	r5, [r3]	@ zero_extendqisi2
 243:../../libdaisy/src/dev/oled_ssd130x.h ****             buffer_[x + (y / 8) * width] |= (1 << (y % 8));
 1197              		.loc 17 243 9 view .LVU268
 1198 0108 B9F1000F 		cmp	r9, #0
 1199 010c ECD0     		beq	.L83
 1200              	.L60:
 1201              	.LVL80:
 1202              	.LBB845:
 1203              	.LBI839:
 239:../../libdaisy/src/dev/oled_ssd130x.h ****     {
 1204              		.loc 17 239 10 is_stmt 1 view .LVU269
 239:../../libdaisy/src/dev/oled_ssd130x.h ****     {
 1205              		.loc 17 239 10 is_stmt 0 view .LVU270
 1206              	.LBE845:
 1207              	.LBE850:
 1208              	.LBE855:
 1209              	.LBE863:
 416:../../libdaisy/src/hid/disp/display.h ****             {
 1210              		.loc 4 416 13 view .LVU271
 1211 010e 0130     		adds	r0, r0, #1
 1212              	.LVL81:
 1213              	.LBB864:
 1214              	.LBB856:
 1215              	.LBB851:
 1216              	.LBB846:
 1217              	.LBB842:
 246:../../libdaisy/src/dev/oled_ssd130x.h ****     }
 1218              		.loc 17 246 42 view .LVU272
 1219 0110 0CEA0505 		and	r5, ip, r5
 1220 0114 0133     		adds	r3, r3, #1
 1221 0116 0134     		adds	r4, r4, #1
 1222              	.LBE842:
 1223              	.LBE846:
 1224              	.LBE851:
 1225              	.LBE856:
 1226              	.LBE864:
 416:../../libdaisy/src/hid/disp/display.h ****             {
 1227              		.loc 4 416 26 view .LVU273
ARM GAS  /tmp/cc3v7X8N.s 			page 51


 1228 0118 B842     		cmp	r0, r7
 1229              	.LBB865:
 1230              	.LBB857:
 1231              	.LBB852:
 1232              	.LBB847:
 1233              	.LBB843:
 246:../../libdaisy/src/dev/oled_ssd130x.h ****     }
 1234              		.loc 17 246 13 view .LVU274
 1235 011a 03F8015C 		strb	r5, [r3, #-1]
 246:../../libdaisy/src/dev/oled_ssd130x.h ****     }
 1236              		.loc 17 246 13 view .LVU275
 1237              	.LBE843:
 1238              	.LBE847:
 1239              	.LBE852:
 1240              	.LBE857:
 1241              	.LBE865:
 416:../../libdaisy/src/hid/disp/display.h ****             {
 1242              		.loc 4 416 13 is_stmt 1 view .LVU276
 1243              	.LVL82:
 416:../../libdaisy/src/hid/disp/display.h ****             {
 1244              		.loc 4 416 26 view .LVU277
 1245 011e EAD1     		bne	.L62
 1246              	.LVL83:
 1247              	.L61:
 413:../../libdaisy/src/hid/disp/display.h ****         {
 1248              		.loc 4 413 9 view .LVU278
 413:../../libdaisy/src/hid/disp/display.h ****         {
 1249              		.loc 4 413 22 view .LVU279
 1250 0120 5E45     		cmp	r6, fp
 1251 0122 01F10101 		add	r1, r1, #1
 1252 0126 C3D1     		bne	.L56
 1253 0128 BA46     		mov	r10, r7
 1254              	.LVL84:
 413:../../libdaisy/src/hid/disp/display.h ****         {
 1255              		.loc 4 413 22 is_stmt 0 view .LVU280
 1256 012a 029D     		ldr	r5, [sp, #8]
 1257 012c 7746     		mov	r7, lr
 1258 012e DDF80CB0 		ldr	fp, [sp, #12]
 1259              	.L55:
 1260              	.LBB866:
 1261              	.LBB867:
 173:../../libdaisy/src/hid/disp/display.h ****         currentY_ = (y >= Height()) ? Height() - 1 : y;
 1262              		.loc 4 173 33 view .LVU281
 1263 0132 D8F80020 		ldr	r2, [r8]
 1264              	.LBE867:
 1265              	.LBE866:
 434:../../libdaisy/src/hid/disp/display.h **** 
 1266              		.loc 4 434 18 view .LVU282
 1267 0136 5744     		add	r7, r7, r10
 1268 0138 2749     		ldr	r1, .L91
 1269              	.LBB871:
 1270              	.LBB868:
 173:../../libdaisy/src/hid/disp/display.h ****         currentY_ = (y >= Height()) ? Height() - 1 : y;
 1271              		.loc 4 173 33 view .LVU283
 1272 013a D368     		ldr	r3, [r2, #12]
 1273              	.LBE868:
 1274              	.LBE871:
ARM GAS  /tmp/cc3v7X8N.s 			page 52


 434:../../libdaisy/src/hid/disp/display.h **** 
 1275              		.loc 4 434 18 view .LVU284
 1276 013c BFB2     		uxth	r7, r7
 1277              	.LVL85:
 1278              	.LBB872:
 1279              	.LBI866:
 171:../../libdaisy/src/hid/disp/display.h ****     {
 1280              		.loc 4 171 10 is_stmt 1 view .LVU285
 1281              	.LBB869:
 173:../../libdaisy/src/hid/disp/display.h ****         currentY_ = (y >= Height()) ? Height() - 1 : y;
 1282              		.loc 4 173 9 view .LVU286
 1283 013e 8B42     		cmp	r3, r1
 1284 0140 34D1     		bne	.L87
 173:../../libdaisy/src/hid/disp/display.h ****         currentY_ = (y >= Height()) ? Height() - 1 : y;
 1285              		.loc 4 173 33 is_stmt 0 view .LVU287
 1286 0142 8020     		movs	r0, #128
 1287              	.L63:
 173:../../libdaisy/src/hid/disp/display.h ****         currentY_ = (y >= Height()) ? Height() - 1 : y;
 1288              		.loc 4 173 19 view .LVU288
 1289 0144 8742     		cmp	r7, r0
 1290 0146 04D3     		bcc	.L64
 173:../../libdaisy/src/hid/disp/display.h ****         currentY_ = (y >= Height()) ? Height() - 1 : y;
 1291              		.loc 4 173 44 view .LVU289
 1292 0148 D368     		ldr	r3, [r2, #12]
 1293 014a 2349     		ldr	r1, .L91
 1294 014c 8B42     		cmp	r3, r1
 1295 014e 3BD1     		bne	.L88
 1296 0150 7F27     		movs	r7, #127
 1297              	.LVL86:
 1298              	.L64:
 174:../../libdaisy/src/hid/disp/display.h ****     }
 1299              		.loc 4 174 34 view .LVU290
 1300 0152 9368     		ldr	r3, [r2, #8]
 1301 0154 214A     		ldr	r2, .L91+4
 173:../../libdaisy/src/hid/disp/display.h ****         currentY_ = (y >= Height()) ? Height() - 1 : y;
 1302              		.loc 4 173 19 view .LVU291
 1303 0156 A8F80470 		strh	r7, [r8, #4]	@ movhi
 174:../../libdaisy/src/hid/disp/display.h ****     }
 1304              		.loc 4 174 9 is_stmt 1 view .LVU292
 1305 015a 9342     		cmp	r3, r2
 1306 015c 23D1     		bne	.L89
 174:../../libdaisy/src/hid/disp/display.h ****     }
 1307              		.loc 4 174 34 is_stmt 0 view .LVU293
 1308 015e 4020     		movs	r0, #64
 1309              	.L66:
 174:../../libdaisy/src/hid/disp/display.h ****     }
 1310              		.loc 4 174 19 view .LVU294
 1311 0160 009B     		ldr	r3, [sp]
 1312 0162 8342     		cmp	r3, r0
 1313 0164 07D3     		bcc	.L67
 174:../../libdaisy/src/hid/disp/display.h ****     }
 1314              		.loc 4 174 46 view .LVU295
 1315 0166 D8F80030 		ldr	r3, [r8]
 1316 016a 1C4A     		ldr	r2, .L91+4
 1317 016c 9B68     		ldr	r3, [r3, #8]
 1318 016e 9342     		cmp	r3, r2
 1319 0170 24D1     		bne	.L90
ARM GAS  /tmp/cc3v7X8N.s 			page 53


 1320 0172 3F23     		movs	r3, #63
 1321 0174 0093     		str	r3, [sp]
 1322              	.LVL87:
 1323              	.L67:
 174:../../libdaisy/src/hid/disp/display.h ****     }
 1324              		.loc 4 174 19 view .LVU296
 1325 0176 009B     		ldr	r3, [sp]
 1326 0178 A8F80630 		strh	r3, [r8, #6]	@ movhi
 1327              	.LVL88:
 1328              	.L49:
 174:../../libdaisy/src/hid/disp/display.h ****     }
 1329              		.loc 4 174 19 view .LVU297
 1330              	.LBE869:
 1331              	.LBE872:
 1332              	.LBE835:
 1333              	.LBE834:
 444:../../libdaisy/src/hid/disp/display.h ****         {
 445:../../libdaisy/src/hid/disp/display.h ****             if(((ChildType*)(this))->ChildType::WriteChar(*str, font, on)
 446:../../libdaisy/src/hid/disp/display.h ****                != *str)
 1334              		.loc 4 446 16 view .LVU298
 1335 017c 9BF80000 		ldrb	r0, [fp]	@ zero_extendqisi2
 445:../../libdaisy/src/hid/disp/display.h ****                != *str)
 1336              		.loc 4 445 13 view .LVU299
 1337 0180 A842     		cmp	r0, r5
 1338 0182 05D1     		bne	.L47
 1339              	.LVL89:
 443:../../libdaisy/src/hid/disp/display.h ****         {
 1340              		.loc 4 443 9 is_stmt 1 view .LVU300
 1341 0184 1BF8015F 		ldrb	r5, [fp, #1]!	@ zero_extendqisi2
 1342              	.LVL90:
 443:../../libdaisy/src/hid/disp/display.h ****         {
 1343              		.loc 4 443 9 is_stmt 0 view .LVU301
 1344 0188 002D     		cmp	r5, #0
 1345 018a 7FF452AF 		bne	.L70
 1346              	.LVL91:
 1347              	.L69:
 1348              	.LBB876:
 1349              	.LBB874:
 402:../../libdaisy/src/hid/disp/display.h **** 
 1350              		.loc 4 402 20 view .LVU302
 1351 018e 0020     		movs	r0, #0
 1352              	.LVL92:
 1353              	.L47:
 402:../../libdaisy/src/hid/disp/display.h **** 
 1354              		.loc 4 402 20 view .LVU303
 1355              	.LBE874:
 1356              	.LBE876:
 447:../../libdaisy/src/hid/disp/display.h ****             {
 448:../../libdaisy/src/hid/disp/display.h ****                 // Char could not be written
 449:../../libdaisy/src/hid/disp/display.h ****                 return *str;
 450:../../libdaisy/src/hid/disp/display.h ****             }
 451:../../libdaisy/src/hid/disp/display.h **** 
 452:../../libdaisy/src/hid/disp/display.h ****             // Next char
 453:../../libdaisy/src/hid/disp/display.h ****             str++;
 454:../../libdaisy/src/hid/disp/display.h ****         }
 455:../../libdaisy/src/hid/disp/display.h **** 
 456:../../libdaisy/src/hid/disp/display.h ****         // Everything ok
ARM GAS  /tmp/cc3v7X8N.s 			page 54


 457:../../libdaisy/src/hid/disp/display.h ****         return *str;
 458:../../libdaisy/src/hid/disp/display.h ****     }
 1357              		.loc 4 458 5 view .LVU304
 1358 0190 09B0     		add	sp, sp, #36
 1359              		.cfi_remember_state
 1360              		.cfi_def_cfa_offset 36
 1361              		@ sp needed
 1362 0192 BDE8F08F 		pop	{r4, r5, r6, r7, r8, r9, r10, fp, pc}
 1363              	.LVL93:
 1364              	.L51:
 1365              		.cfi_restore_state
 1366              	.LBB877:
 1367              	.LBB875:
 402:../../libdaisy/src/hid/disp/display.h **** 
 1368              		.loc 4 402 20 view .LVU305
 1369 0196 0025     		movs	r5, #0
 1370              	.LVL94:
 402:../../libdaisy/src/hid/disp/display.h **** 
 1371              		.loc 4 402 20 view .LVU306
 1372 0198 F0E7     		b	.L49
 1373              	.LVL95:
 1374              	.L84:
 405:../../libdaisy/src/hid/disp/display.h ****            || Height() < (currentY_ + font.FontHeight))
 1375              		.loc 4 405 17 view .LVU307
 1376 019a 4046     		mov	r0, r8
 1377 019c 9847     		blx	r3
 1378              	.LVL96:
 1379 019e 56E7     		b	.L50
 1380              	.L85:
 406:../../libdaisy/src/hid/disp/display.h ****         {
 1381              		.loc 4 406 21 view .LVU308
 1382 01a0 4046     		mov	r0, r8
 1383 01a2 9847     		blx	r3
 1384              	.LVL97:
 1385 01a4 61E7     		b	.L52
 1386              	.LVL98:
 1387              	.L89:
 1388              	.LBB873:
 1389              	.LBB870:
 174:../../libdaisy/src/hid/disp/display.h ****     }
 1390              		.loc 4 174 33 view .LVU309
 1391 01a6 4046     		mov	r0, r8
 1392 01a8 9847     		blx	r3
 1393              	.LVL99:
 1394 01aa D9E7     		b	.L66
 1395              	.LVL100:
 1396              	.L87:
 173:../../libdaisy/src/hid/disp/display.h ****         currentY_ = (y >= Height()) ? Height() - 1 : y;
 1397              		.loc 4 173 32 view .LVU310
 1398 01ac 4046     		mov	r0, r8
 1399 01ae 9847     		blx	r3
 1400              	.LVL101:
 1401 01b0 D8F80020 		ldr	r2, [r8]
 1402 01b4 C6E7     		b	.L63
 1403              	.LVL102:
 1404              	.L53:
 173:../../libdaisy/src/hid/disp/display.h ****         currentY_ = (y >= Height()) ? Height() - 1 : y;
ARM GAS  /tmp/cc3v7X8N.s 			page 55


 1405              		.loc 4 173 32 view .LVU311
 1406 01b6 B8F80470 		ldrh	r7, [r8, #4]
 1407 01ba BAE7     		b	.L55
 1408              	.LVL103:
 1409              	.L90:
 174:../../libdaisy/src/hid/disp/display.h ****     }
 1410              		.loc 4 174 45 view .LVU312
 1411 01bc 4046     		mov	r0, r8
 1412 01be 9847     		blx	r3
 1413              	.LVL104:
 1414 01c0 0138     		subs	r0, r0, #1
 1415 01c2 83B2     		uxth	r3, r0
 1416 01c4 0093     		str	r3, [sp]
 1417              	.LVL105:
 174:../../libdaisy/src/hid/disp/display.h ****     }
 1418              		.loc 4 174 45 view .LVU313
 1419 01c6 D6E7     		b	.L67
 1420              	.LVL106:
 1421              	.L88:
 173:../../libdaisy/src/hid/disp/display.h ****         currentY_ = (y >= Height()) ? Height() - 1 : y;
 1422              		.loc 4 173 43 view .LVU314
 1423 01c8 4046     		mov	r0, r8
 1424 01ca 9847     		blx	r3
 1425              	.LVL107:
 1426 01cc 0138     		subs	r0, r0, #1
 1427 01ce D8F80020 		ldr	r2, [r8]
 1428 01d2 87B2     		uxth	r7, r0
 1429              	.LVL108:
 173:../../libdaisy/src/hid/disp/display.h ****         currentY_ = (y >= Height()) ? Height() - 1 : y;
 1430              		.loc 4 173 43 view .LVU315
 1431 01d4 BDE7     		b	.L64
 1432              	.L92:
 1433 01d6 00BF     		.align	2
 1434              	.L91:
 1435 01d8 00000000 		.word	_ZNK5daisy11OledDisplayINS_13SSD130xDriverILj128ELj64ENS_24SSD130x4WireSpiTransportEEEE5Widt
 1436 01dc 00000000 		.word	_ZNK5daisy11OledDisplayINS_13SSD130xDriverILj128ELj64ENS_24SSD130x4WireSpiTransportEEEE6Heig
 1437              	.LBE870:
 1438              	.LBE873:
 1439              	.LBE875:
 1440              	.LBE877:
 1441              		.cfi_endproc
 1442              	.LFE4559:
 1444              		.section	.text._ZN5daisy25OneBitGraphicsDisplayImplINS_11OledDisplayINS_13SSD130xDriverILj128ELj64
 1445              		.align	1
 1446              		.p2align 2,,3
 1447              		.weak	_ZN5daisy25OneBitGraphicsDisplayImplINS_11OledDisplayINS_13SSD130xDriverILj128ELj64ENS_24SSD
 1448              		.syntax unified
 1449              		.thumb
 1450              		.thumb_func
 1451              		.fpu fpv5-d16
 1453              	_ZN5daisy25OneBitGraphicsDisplayImplINS_11OledDisplayINS_13SSD130xDriverILj128ELj64ENS_24SSD130x4Wi
 1454              	.LVL109:
 1455              	.LFB4686:
 396:../../libdaisy/src/hid/disp/display.h ****     {
 1456              		.loc 4 396 10 is_stmt 1 view -0
 1457              		.cfi_startproc
 1458              		@ args = 4, pretend = 0, frame = 16
ARM GAS  /tmp/cc3v7X8N.s 			page 56


 1459              		@ frame_needed = 0, uses_anonymous_args = 0
 396:../../libdaisy/src/hid/disp/display.h ****     {
 1460              		.loc 4 396 10 is_stmt 0 view .LVU317
 1461 0000 2DE9F04F 		push	{r4, r5, r6, r7, r8, r9, r10, fp, lr}
 1462              		.cfi_def_cfa_offset 36
 1463              		.cfi_offset 4, -36
 1464              		.cfi_offset 5, -32
 1465              		.cfi_offset 6, -28
 1466              		.cfi_offset 7, -24
 1467              		.cfi_offset 8, -20
 1468              		.cfi_offset 9, -16
 1469              		.cfi_offset 10, -12
 1470              		.cfi_offset 11, -8
 1471              		.cfi_offset 14, -4
 1472 0004 85B0     		sub	sp, sp, #20
 1473              		.cfi_def_cfa_offset 56
 1474              	.LVL110:
 401:../../libdaisy/src/hid/disp/display.h ****             return 0;
 1475              		.loc 4 401 20 view .LVU318
 1476 0006 A1F12004 		sub	r4, r1, #32
 396:../../libdaisy/src/hid/disp/display.h ****     {
 1477              		.loc 4 396 10 view .LVU319
 1478 000a 0091     		str	r1, [sp]
 1479 000c 04A9     		add	r1, sp, #16
 1480              	.LVL111:
 396:../../libdaisy/src/hid/disp/display.h ****     {
 1481              		.loc 4 396 10 view .LVU320
 1482 000e 9DF83880 		ldrb	r8, [sp, #56]	@ zero_extendqisi2
 1483 0012 01E90C00 		stmdb	r1, {r2, r3}
 1484              	.LVL112:
 401:../../libdaisy/src/hid/disp/display.h ****             return 0;
 1485              		.loc 4 401 9 view .LVU321
 1486 0016 E3B2     		uxtb	r3, r4
 1487 0018 5E2B     		cmp	r3, #94
 1488 001a 00F29480 		bhi	.L97
 405:../../libdaisy/src/hid/disp/display.h ****            || Height() < (currentY_ + font.FontHeight))
 1489              		.loc 4 405 17 view .LVU322
 1490 001e 0368     		ldr	r3, [r0]
 1491 0020 8146     		mov	r9, r0
 1492 0022 5E4A     		ldr	r2, .L133
 1493 0024 DB68     		ldr	r3, [r3, #12]
 1494 0026 9DF80860 		ldrb	r6, [sp, #8]	@ zero_extendqisi2
 1495 002a 9342     		cmp	r3, r2
 1496 002c 9DF80950 		ldrb	r5, [sp, #9]	@ zero_extendqisi2
 1497 0030 40F09380 		bne	.L124
 1498 0034 8022     		movs	r2, #128
 1499              	.LVL113:
 1500              	.L96:
 405:../../libdaisy/src/hid/disp/display.h ****            || Height() < (currentY_ + font.FontHeight))
 1501              		.loc 4 405 23 view .LVU323
 1502 0036 B9F80430 		ldrh	r3, [r9, #4]
 405:../../libdaisy/src/hid/disp/display.h ****            || Height() < (currentY_ + font.FontHeight))
 1503              		.loc 4 405 33 view .LVU324
 1504 003a 3344     		add	r3, r3, r6
 406:../../libdaisy/src/hid/disp/display.h ****         {
 1505              		.loc 4 406 12 view .LVU325
 1506 003c 9342     		cmp	r3, r2
ARM GAS  /tmp/cc3v7X8N.s 			page 57


 1507 003e 00F38280 		bgt	.L97
 406:../../libdaisy/src/hid/disp/display.h ****         {
 1508              		.loc 4 406 21 discriminator 2 view .LVU326
 1509 0042 D9F80030 		ldr	r3, [r9]
 1510 0046 564A     		ldr	r2, .L133+4
 1511 0048 9B68     		ldr	r3, [r3, #8]
 1512 004a 9342     		cmp	r3, r2
 1513 004c 40F08980 		bne	.L125
 406:../../libdaisy/src/hid/disp/display.h ****         {
 1514              		.loc 4 406 21 view .LVU327
 1515 0050 4023     		movs	r3, #64
 1516              	.L98:
 406:../../libdaisy/src/hid/disp/display.h ****         {
 1517              		.loc 4 406 27 discriminator 2 view .LVU328
 1518 0052 B9F80610 		ldrh	r1, [r9, #6]
 406:../../libdaisy/src/hid/disp/display.h ****         {
 1519              		.loc 4 406 37 discriminator 2 view .LVU329
 1520 0056 4A19     		adds	r2, r1, r5
 406:../../libdaisy/src/hid/disp/display.h ****         {
 1521              		.loc 4 406 27 discriminator 2 view .LVU330
 1522 0058 0191     		str	r1, [sp, #4]
 406:../../libdaisy/src/hid/disp/display.h ****         {
 1523              		.loc 4 406 12 discriminator 2 view .LVU331
 1524 005a 9A42     		cmp	r2, r3
 1525 005c 73DC     		bgt	.L97
 1526              	.LVL114:
 413:../../libdaisy/src/hid/disp/display.h ****         {
 1527              		.loc 4 413 22 is_stmt 1 view .LVU332
 1528 005e 002D     		cmp	r5, #0
 1529 0060 00F08C80 		beq	.L99
 415:../../libdaisy/src/hid/disp/display.h ****             for(j = 0; j < font.FontWidth; j++)
 1530              		.loc 4 415 37 is_stmt 0 view .LVU333
 1531 0064 05FB04F4 		mul	r4, r5, r4
 415:../../libdaisy/src/hid/disp/display.h ****             for(j = 0; j < font.FontWidth; j++)
 1532              		.loc 4 415 22 view .LVU334
 1533 0068 039A     		ldr	r2, [sp, #12]
 1534 006a 6FF00043 		mvn	r3, #-2147483648
 1535 006e B9F804A0 		ldrh	r10, [r9, #4]
 1536 0072 2544     		add	r5, r5, r4
 1537 0074 A2F1020B 		sub	fp, r2, #2
 1538 0078 2344     		add	r3, r3, r4
 1539 007a 0BEB450B 		add	fp, fp, r5, lsl #1
 1540 007e 0D46     		mov	r5, r1
 1541 0080 02EB430E 		add	lr, r2, r3, lsl #1
 1542              	.LVL115:
 1543              	.L102:
 415:../../libdaisy/src/hid/disp/display.h ****             for(j = 0; j < font.FontWidth; j++)
 1544              		.loc 4 415 13 view .LVU335
 1545 0084 3EF8024F 		ldrh	r4, [lr, #2]!
 1546              	.LVL116:
 416:../../libdaisy/src/hid/disp/display.h ****             {
 1547              		.loc 4 416 26 is_stmt 1 view .LVU336
 1548 0088 A6B3     		cbz	r6, .L107
 1549              	.LBB908:
 1550              	.LBB909:
 1551              	.LBB910:
 1552              	.LBB911:
ARM GAS  /tmp/cc3v7X8N.s 			page 58


 1553              	.LBB912:
 246:../../libdaisy/src/dev/oled_ssd130x.h ****     }
 1554              		.loc 17 246 55 is_stmt 0 view .LVU337
 1555 008a 05F00703 		and	r3, r5, #7
 246:../../libdaisy/src/dev/oled_ssd130x.h ****     }
 1556              		.loc 17 246 49 view .LVU338
 1557 008e 0127     		movs	r7, #1
 246:../../libdaisy/src/dev/oled_ssd130x.h ****     }
 1558              		.loc 17 246 28 view .LVU339
 1559 0090 E808     		lsrs	r0, r5, #3
 246:../../libdaisy/src/dev/oled_ssd130x.h ****     }
 1560              		.loc 17 246 42 view .LVU340
 1561 0092 4146     		mov	r1, r8
 246:../../libdaisy/src/dev/oled_ssd130x.h ****     }
 1562              		.loc 17 246 49 view .LVU341
 1563 0094 9F40     		lsls	r7, r7, r3
 1564              	.LBE912:
 1565              	.LBE911:
 1566              	.LBE910:
 1567              	.LBE909:
 1568              	.LBE908:
 416:../../libdaisy/src/hid/disp/display.h ****             {
 1569              		.loc 4 416 19 view .LVU342
 1570 0096 0022     		movs	r2, #0
 1571 0098 0AEBC013 		add	r3, r10, r0, lsl #7
 1572              	.LBB930:
 1573              	.LBB925:
 1574              	.LBB920:
 1575              	.LBB916:
 1576              	.LBB913:
 246:../../libdaisy/src/dev/oled_ssd130x.h ****     }
 1577              		.loc 17 246 42 view .LVU343
 1578 009c 7FB2     		sxtb	r7, r7
 1579 009e 4B44     		add	r3, r3, r9
 1580 00a0 09EBC010 		add	r0, r9, r0, lsl #7
 1581 00a4 6FEA070C 		mvn	ip, r7
 1582 00a8 B846     		mov	r8, r7
 1583 00aa 0F46     		mov	r7, r1
 1584 00ac 0CE0     		b	.L108
 1585              	.LVL117:
 1586              	.L127:
 246:../../libdaisy/src/dev/oled_ssd130x.h ****     }
 1587              		.loc 17 246 42 view .LVU344
 1588              	.LBE913:
 1589              	.LBE916:
 1590              	.LBE920:
 1591              	.LBE925:
 1592              	.LBE930:
 1593              	.LBB931:
 1594              	.LBI931:
  41:../../libdaisy/src/hid/disp/oled_display.h ****     {
 1595              		.loc 3 41 10 is_stmt 1 view .LVU345
 1596              	.LBB932:
 1597              	.LBI932:
 239:../../libdaisy/src/dev/oled_ssd130x.h ****     {
 1598              		.loc 17 239 10 view .LVU346
 1599              	.LBB933:
ARM GAS  /tmp/cc3v7X8N.s 			page 59


 241:../../libdaisy/src/dev/oled_ssd130x.h ****             return;
 1600              		.loc 17 241 9 is_stmt 0 view .LVU347
 1601 00ae 7F29     		cmp	r1, #127
 1602 00b0 06D8     		bhi	.L104
 1603 00b2 3F2D     		cmp	r5, #63
 1604 00b4 04D8     		bhi	.L104
 244:../../libdaisy/src/dev/oled_ssd130x.h ****         else
 1605              		.loc 17 244 42 view .LVU348
 1606 00b6 197D     		ldrb	r1, [r3, #20]	@ zero_extendqisi2
 243:../../libdaisy/src/dev/oled_ssd130x.h ****             buffer_[x + (y / 8) * width] |= (1 << (y % 8));
 1607              		.loc 17 243 9 view .LVU349
 1608 00b8 A7B1     		cbz	r7, .L106
 1609              	.L123:
 243:../../libdaisy/src/dev/oled_ssd130x.h ****             buffer_[x + (y / 8) * width] |= (1 << (y % 8));
 1610              		.loc 17 243 9 view .LVU350
 1611              	.LBE933:
 1612              	.LBE932:
 1613              	.LBE931:
 1614              	.LBB936:
 1615              	.LBB926:
 1616              	.LBB921:
 244:../../libdaisy/src/dev/oled_ssd130x.h ****         else
 1617              		.loc 17 244 42 view .LVU351
 1618 00ba 48EA0101 		orr	r1, r8, r1
 244:../../libdaisy/src/dev/oled_ssd130x.h ****         else
 1619              		.loc 17 244 13 view .LVU352
 1620 00be 1975     		strb	r1, [r3, #20]
 1621              	.L104:
 1622              	.LBE921:
 1623              	.LBE926:
 1624              	.LBE936:
 416:../../libdaisy/src/hid/disp/display.h ****             {
 1625              		.loc 4 416 13 is_stmt 1 discriminator 2 view .LVU353
 1626 00c0 0132     		adds	r2, r2, #1
 1627              	.LVL118:
 416:../../libdaisy/src/hid/disp/display.h ****             {
 1628              		.loc 4 416 26 discriminator 2 view .LVU354
 1629 00c2 0133     		adds	r3, r3, #1
 1630 00c4 9642     		cmp	r6, r2
 1631 00c6 14D0     		beq	.L126
 1632              	.LVL119:
 1633              	.L108:
 418:../../libdaisy/src/hid/disp/display.h ****                 {
 1634              		.loc 4 418 23 is_stmt 0 view .LVU355
 1635 00c8 04FA02F1 		lsl	r1, r4, r2
 418:../../libdaisy/src/hid/disp/display.h ****                 {
 1636              		.loc 4 418 17 view .LVU356
 1637 00cc 11F4004F 		tst	r1, #32768
 1638              	.LBB937:
 1639              	.LBB935:
 1640              	.LBB934:
 241:../../libdaisy/src/dev/oled_ssd130x.h ****             return;
 1641              		.loc 17 241 14 view .LVU357
 1642 00d0 A3EB0001 		sub	r1, r3, r0
 1643              	.LBE934:
 1644              	.LBE935:
 1645              	.LBE937:
ARM GAS  /tmp/cc3v7X8N.s 			page 60


 418:../../libdaisy/src/hid/disp/display.h ****                 {
 1646              		.loc 4 418 17 view .LVU358
 1647 00d4 EBD1     		bne	.L127
 1648              	.LVL120:
 1649              	.LBB938:
 1650              	.LBI908:
  41:../../libdaisy/src/hid/disp/oled_display.h ****     {
 1651              		.loc 3 41 10 is_stmt 1 view .LVU359
 1652              	.LBB927:
 1653              	.LBI909:
 239:../../libdaisy/src/dev/oled_ssd130x.h ****     {
 1654              		.loc 17 239 10 view .LVU360
 1655              	.LBB922:
 241:../../libdaisy/src/dev/oled_ssd130x.h ****             return;
 1656              		.loc 17 241 9 is_stmt 0 view .LVU361
 1657 00d6 7F29     		cmp	r1, #127
 1658 00d8 F2D8     		bhi	.L104
 1659 00da 3F2D     		cmp	r5, #63
 1660 00dc F0D8     		bhi	.L104
 244:../../libdaisy/src/dev/oled_ssd130x.h ****         else
 1661              		.loc 17 244 42 view .LVU362
 1662 00de 197D     		ldrb	r1, [r3, #20]	@ zero_extendqisi2
 243:../../libdaisy/src/dev/oled_ssd130x.h ****             buffer_[x + (y / 8) * width] |= (1 << (y % 8));
 1663              		.loc 17 243 9 view .LVU363
 1664 00e0 002F     		cmp	r7, #0
 1665 00e2 EAD0     		beq	.L123
 1666              	.L106:
 1667              	.LVL121:
 1668              	.LBB917:
 1669              	.LBI911:
 239:../../libdaisy/src/dev/oled_ssd130x.h ****     {
 1670              		.loc 17 239 10 is_stmt 1 view .LVU364
 239:../../libdaisy/src/dev/oled_ssd130x.h ****     {
 1671              		.loc 17 239 10 is_stmt 0 view .LVU365
 1672              	.LBE917:
 1673              	.LBE922:
 1674              	.LBE927:
 1675              	.LBE938:
 416:../../libdaisy/src/hid/disp/display.h ****             {
 1676              		.loc 4 416 13 view .LVU366
 1677 00e4 0132     		adds	r2, r2, #1
 1678              	.LVL122:
 1679              	.LBB939:
 1680              	.LBB928:
 1681              	.LBB923:
 1682              	.LBB918:
 1683              	.LBB914:
 246:../../libdaisy/src/dev/oled_ssd130x.h ****     }
 1684              		.loc 17 246 42 view .LVU367
 1685 00e6 0CEA0101 		and	r1, ip, r1
 1686 00ea 0133     		adds	r3, r3, #1
 1687              	.LBE914:
 1688              	.LBE918:
 1689              	.LBE923:
 1690              	.LBE928:
 1691              	.LBE939:
 416:../../libdaisy/src/hid/disp/display.h ****             {
ARM GAS  /tmp/cc3v7X8N.s 			page 61


 1692              		.loc 4 416 26 view .LVU368
 1693 00ec 9642     		cmp	r6, r2
 1694              	.LBB940:
 1695              	.LBB929:
 1696              	.LBB924:
 1697              	.LBB919:
 1698              	.LBB915:
 246:../../libdaisy/src/dev/oled_ssd130x.h ****     }
 1699              		.loc 17 246 13 view .LVU369
 1700 00ee D974     		strb	r1, [r3, #19]
 246:../../libdaisy/src/dev/oled_ssd130x.h ****     }
 1701              		.loc 17 246 13 view .LVU370
 1702              	.LBE915:
 1703              	.LBE919:
 1704              	.LBE924:
 1705              	.LBE929:
 1706              	.LBE940:
 416:../../libdaisy/src/hid/disp/display.h ****             {
 1707              		.loc 4 416 13 is_stmt 1 view .LVU371
 1708              	.LVL123:
 416:../../libdaisy/src/hid/disp/display.h ****             {
 1709              		.loc 4 416 26 view .LVU372
 1710 00f0 EAD1     		bne	.L108
 1711              	.L126:
 416:../../libdaisy/src/hid/disp/display.h ****             {
 1712              		.loc 4 416 26 is_stmt 0 view .LVU373
 1713 00f2 B846     		mov	r8, r7
 1714              	.LVL124:
 1715              	.L107:
 413:../../libdaisy/src/hid/disp/display.h ****         {
 1716              		.loc 4 413 9 is_stmt 1 view .LVU374
 413:../../libdaisy/src/hid/disp/display.h ****         {
 1717              		.loc 4 413 22 view .LVU375
 1718 00f4 F345     		cmp	fp, lr
 1719 00f6 05F10105 		add	r5, r5, #1
 1720 00fa C3D1     		bne	.L102
 1721              	.LVL125:
 1722              	.L101:
 1723              	.LBB941:
 1724              	.LBB942:
 173:../../libdaisy/src/hid/disp/display.h ****         currentY_ = (y >= Height()) ? Height() - 1 : y;
 1725              		.loc 4 173 33 is_stmt 0 view .LVU376
 1726 00fc D9F80030 		ldr	r3, [r9]
 1727              	.LBE942:
 1728              	.LBE941:
 434:../../libdaisy/src/hid/disp/display.h **** 
 1729              		.loc 4 434 18 view .LVU377
 1730 0100 0AEB0604 		add	r4, r10, r6
 1731 0104 2549     		ldr	r1, .L133
 1732              	.LBB947:
 1733              	.LBB943:
 173:../../libdaisy/src/hid/disp/display.h ****         currentY_ = (y >= Height()) ? Height() - 1 : y;
 1734              		.loc 4 173 33 view .LVU378
 1735 0106 DA68     		ldr	r2, [r3, #12]
 1736              	.LBE943:
 1737              	.LBE947:
 434:../../libdaisy/src/hid/disp/display.h **** 
ARM GAS  /tmp/cc3v7X8N.s 			page 62


 1738              		.loc 4 434 18 view .LVU379
 1739 0108 A4B2     		uxth	r4, r4
 1740              	.LVL126:
 1741              	.LBB948:
 1742              	.LBI941:
 171:../../libdaisy/src/hid/disp/display.h ****     {
 1743              		.loc 4 171 10 is_stmt 1 view .LVU380
 1744              	.LBB944:
 173:../../libdaisy/src/hid/disp/display.h ****         currentY_ = (y >= Height()) ? Height() - 1 : y;
 1745              		.loc 4 173 9 view .LVU381
 1746 010a 8A42     		cmp	r2, r1
 1747 010c 31D1     		bne	.L128
 173:../../libdaisy/src/hid/disp/display.h ****         currentY_ = (y >= Height()) ? Height() - 1 : y;
 1748              		.loc 4 173 33 is_stmt 0 view .LVU382
 1749 010e 8020     		movs	r0, #128
 1750              	.L109:
 173:../../libdaisy/src/hid/disp/display.h ****         currentY_ = (y >= Height()) ? Height() - 1 : y;
 1751              		.loc 4 173 19 view .LVU383
 1752 0110 8442     		cmp	r4, r0
 1753 0112 1CD2     		bcs	.L129
 1754              	.LVL127:
 1755              	.L110:
 174:../../libdaisy/src/hid/disp/display.h ****     }
 1756              		.loc 4 174 34 view .LVU384
 1757 0114 9B68     		ldr	r3, [r3, #8]
 1758 0116 224A     		ldr	r2, .L133+4
 173:../../libdaisy/src/hid/disp/display.h ****         currentY_ = (y >= Height()) ? Height() - 1 : y;
 1759              		.loc 4 173 19 view .LVU385
 1760 0118 A9F80440 		strh	r4, [r9, #4]	@ movhi
 174:../../libdaisy/src/hid/disp/display.h ****     }
 1761              		.loc 4 174 9 is_stmt 1 view .LVU386
 1762 011c 9342     		cmp	r3, r2
 1763 011e 25D1     		bne	.L130
 174:../../libdaisy/src/hid/disp/display.h ****     }
 1764              		.loc 4 174 34 is_stmt 0 view .LVU387
 1765 0120 4020     		movs	r0, #64
 1766              	.L112:
 174:../../libdaisy/src/hid/disp/display.h ****     }
 1767              		.loc 4 174 19 view .LVU388
 1768 0122 019B     		ldr	r3, [sp, #4]
 1769 0124 8342     		cmp	r3, r0
 1770 0126 07D3     		bcc	.L113
 174:../../libdaisy/src/hid/disp/display.h ****     }
 1771              		.loc 4 174 46 view .LVU389
 1772 0128 D9F80030 		ldr	r3, [r9]
 1773 012c 1C4A     		ldr	r2, .L133+4
 1774 012e 9B68     		ldr	r3, [r3, #8]
 1775 0130 9342     		cmp	r3, r2
 1776 0132 2DD1     		bne	.L131
 1777 0134 3F23     		movs	r3, #63
 1778 0136 0193     		str	r3, [sp, #4]
 1779              	.LVL128:
 1780              	.L113:
 174:../../libdaisy/src/hid/disp/display.h ****     }
 1781              		.loc 4 174 19 view .LVU390
 1782 0138 DDE90003 		ldrd	r0, r3, [sp]
 1783 013c A9F80630 		strh	r3, [r9, #6]	@ movhi
ARM GAS  /tmp/cc3v7X8N.s 			page 63


 1784              	.LVL129:
 174:../../libdaisy/src/hid/disp/display.h ****     }
 1785              		.loc 4 174 19 view .LVU391
 1786              	.LBE944:
 1787              	.LBE948:
 438:../../libdaisy/src/hid/disp/display.h **** 
 1788              		.loc 4 438 5 view .LVU392
 1789 0140 05B0     		add	sp, sp, #20
 1790              		.cfi_remember_state
 1791              		.cfi_def_cfa_offset 36
 1792              		@ sp needed
 1793 0142 BDE8F08F 		pop	{r4, r5, r6, r7, r8, r9, r10, fp, pc}
 1794              	.LVL130:
 1795              	.L97:
 1796              		.cfi_restore_state
 402:../../libdaisy/src/hid/disp/display.h **** 
 1797              		.loc 4 402 20 view .LVU393
 1798 0146 0020     		movs	r0, #0
 438:../../libdaisy/src/hid/disp/display.h **** 
 1799              		.loc 4 438 5 view .LVU394
 1800 0148 05B0     		add	sp, sp, #20
 1801              		.cfi_remember_state
 1802              		.cfi_def_cfa_offset 36
 1803              		@ sp needed
 1804 014a BDE8F08F 		pop	{r4, r5, r6, r7, r8, r9, r10, fp, pc}
 1805              	.LVL131:
 1806              	.L129:
 1807              		.cfi_restore_state
 1808              	.LBB949:
 1809              	.LBB945:
 173:../../libdaisy/src/hid/disp/display.h ****         currentY_ = (y >= Height()) ? Height() - 1 : y;
 1810              		.loc 4 173 44 view .LVU395
 1811 014e DA68     		ldr	r2, [r3, #12]
 1812 0150 1249     		ldr	r1, .L133
 1813 0152 8A42     		cmp	r2, r1
 1814 0154 15D1     		bne	.L132
 1815 0156 7F24     		movs	r4, #127
 1816              	.LVL132:
 173:../../libdaisy/src/hid/disp/display.h ****         currentY_ = (y >= Height()) ? Height() - 1 : y;
 1817              		.loc 4 173 44 view .LVU396
 1818 0158 DCE7     		b	.L110
 1819              	.LVL133:
 1820              	.L124:
 173:../../libdaisy/src/hid/disp/display.h ****         currentY_ = (y >= Height()) ? Height() - 1 : y;
 1821              		.loc 4 173 44 view .LVU397
 1822              	.LBE945:
 1823              	.LBE949:
 405:../../libdaisy/src/hid/disp/display.h ****            || Height() < (currentY_ + font.FontHeight))
 1824              		.loc 4 405 17 view .LVU398
 1825 015a 9847     		blx	r3
 1826              	.LVL134:
 405:../../libdaisy/src/hid/disp/display.h ****            || Height() < (currentY_ + font.FontHeight))
 1827              		.loc 4 405 17 view .LVU399
 1828 015c 0246     		mov	r2, r0
 1829 015e 0190     		str	r0, [sp, #4]
 1830 0160 69E7     		b	.L96
 1831              	.L125:
ARM GAS  /tmp/cc3v7X8N.s 			page 64


 406:../../libdaisy/src/hid/disp/display.h ****         {
 1832              		.loc 4 406 21 discriminator 2 view .LVU400
 1833 0162 4846     		mov	r0, r9
 1834 0164 9847     		blx	r3
 1835              	.LVL135:
 1836 0166 0346     		mov	r3, r0
 1837 0168 0190     		str	r0, [sp, #4]
 1838 016a 72E7     		b	.L98
 1839              	.LVL136:
 1840              	.L130:
 1841              	.LBB950:
 1842              	.LBB946:
 174:../../libdaisy/src/hid/disp/display.h ****     }
 1843              		.loc 4 174 33 view .LVU401
 1844 016c 4846     		mov	r0, r9
 1845 016e 9847     		blx	r3
 1846              	.LVL137:
 1847 0170 D7E7     		b	.L112
 1848              	.LVL138:
 1849              	.L128:
 173:../../libdaisy/src/hid/disp/display.h ****         currentY_ = (y >= Height()) ? Height() - 1 : y;
 1850              		.loc 4 173 32 view .LVU402
 1851 0172 4846     		mov	r0, r9
 1852 0174 9047     		blx	r2
 1853              	.LVL139:
 1854 0176 D9F80030 		ldr	r3, [r9]
 1855 017a C9E7     		b	.L109
 1856              	.LVL140:
 1857              	.L99:
 173:../../libdaisy/src/hid/disp/display.h ****         currentY_ = (y >= Height()) ? Height() - 1 : y;
 1858              		.loc 4 173 32 view .LVU403
 1859 017c B9F804A0 		ldrh	r10, [r9, #4]
 1860 0180 BCE7     		b	.L101
 1861              	.LVL141:
 1862              	.L132:
 173:../../libdaisy/src/hid/disp/display.h ****         currentY_ = (y >= Height()) ? Height() - 1 : y;
 1863              		.loc 4 173 43 view .LVU404
 1864 0182 4846     		mov	r0, r9
 1865 0184 9047     		blx	r2
 1866              	.LVL142:
 1867 0186 0138     		subs	r0, r0, #1
 1868 0188 D9F80030 		ldr	r3, [r9]
 1869 018c 84B2     		uxth	r4, r0
 1870              	.LVL143:
 173:../../libdaisy/src/hid/disp/display.h ****         currentY_ = (y >= Height()) ? Height() - 1 : y;
 1871              		.loc 4 173 43 view .LVU405
 1872 018e C1E7     		b	.L110
 1873              	.L131:
 174:../../libdaisy/src/hid/disp/display.h ****     }
 1874              		.loc 4 174 45 view .LVU406
 1875 0190 4846     		mov	r0, r9
 1876 0192 9847     		blx	r3
 1877              	.LVL144:
 1878 0194 0138     		subs	r0, r0, #1
 1879 0196 83B2     		uxth	r3, r0
 1880 0198 0193     		str	r3, [sp, #4]
 1881              	.LVL145:
ARM GAS  /tmp/cc3v7X8N.s 			page 65


 174:../../libdaisy/src/hid/disp/display.h ****     }
 1882              		.loc 4 174 45 view .LVU407
 1883 019a CDE7     		b	.L113
 1884              	.L134:
 1885              		.align	2
 1886              	.L133:
 1887 019c 00000000 		.word	_ZNK5daisy11OledDisplayINS_13SSD130xDriverILj128ELj64ENS_24SSD130x4WireSpiTransportEEEE5Widt
 1888 01a0 00000000 		.word	_ZNK5daisy11OledDisplayINS_13SSD130xDriverILj128ELj64ENS_24SSD130x4WireSpiTransportEEEE6Heig
 1889              	.LBE946:
 1890              	.LBE950:
 1891              		.cfi_endproc
 1892              	.LFE4686:
 1894              		.section	.text._ZN5daisy25OneBitGraphicsDisplayImplINS_11OledDisplayINS_13SSD130xDriverILj128ELj64
 1895              		.align	1
 1896              		.p2align 2,,3
 1897              		.weak	_ZN5daisy25OneBitGraphicsDisplayImplINS_11OledDisplayINS_13SSD130xDriverILj128ELj64ENS_24SSD
 1898              		.syntax unified
 1899              		.thumb
 1900              		.thumb_func
 1901              		.fpu fpv5-d16
 1903              	_ZN5daisy25OneBitGraphicsDisplayImplINS_11OledDisplayINS_13SSD130xDriverILj128ELj64ENS_24SSD130x4Wi
 1904              	.LVL146:
 1905              	.LFB4834:
 459:../../libdaisy/src/hid/disp/display.h **** 
 460:../../libdaisy/src/hid/disp/display.h ****     Rectangle WriteStringAligned(const char*    str,
 1906              		.loc 4 460 15 is_stmt 1 view -0
 1907              		.cfi_startproc
 1908              		@ args = 12, pretend = 0, frame = 40
 1909              		@ frame_needed = 0, uses_anonymous_args = 0
 1910              		.loc 4 460 15 is_stmt 0 view .LVU409
 1911 0000 2DE9F04F 		push	{r4, r5, r6, r7, r8, r9, r10, fp, lr}
 1912              		.cfi_def_cfa_offset 36
 1913              		.cfi_offset 4, -36
 1914              		.cfi_offset 5, -32
 1915              		.cfi_offset 6, -28
 1916              		.cfi_offset 7, -24
 1917              		.cfi_offset 8, -20
 1918              		.cfi_offset 9, -16
 1919              		.cfi_offset 10, -12
 1920              		.cfi_offset 11, -8
 1921              		.cfi_offset 14, -4
 1922 0004 0C46     		mov	r4, r1
 1923 0006 8BB0     		sub	sp, sp, #44
 1924              		.cfi_def_cfa_offset 80
 1925              	.LBB1085:
 1926              	.LBB1086:
 1927              	.LBB1087:
 1928              	.LBB1088:
 461:../../libdaisy/src/hid/disp/display.h ****                                  const FontDef& font,
 462:../../libdaisy/src/hid/disp/display.h ****                                  Rectangle      boundingBox,
 463:../../libdaisy/src/hid/disp/display.h ****                                  Alignment      alignment,
 464:../../libdaisy/src/hid/disp/display.h ****                                  bool           on) override
 465:../../libdaisy/src/hid/disp/display.h ****     {
 466:../../libdaisy/src/hid/disp/display.h ****         const auto alignedRect
 467:../../libdaisy/src/hid/disp/display.h ****             = GetTextRect(str, font).AlignedWithin(boundingBox, alignment);
 468:../../libdaisy/src/hid/disp/display.h ****         SetCursor(alignedRect.GetX(), alignedRect.GetY());
 469:../../libdaisy/src/hid/disp/display.h ****         ((ChildType*)(this))->ChildType::WriteString(str, font, on);
ARM GAS  /tmp/cc3v7X8N.s 			page 66


 470:../../libdaisy/src/hid/disp/display.h ****         return alignedRect;
 471:../../libdaisy/src/hid/disp/display.h ****     }
 472:../../libdaisy/src/hid/disp/display.h **** 
 473:../../libdaisy/src/hid/disp/display.h ****   private:
 474:../../libdaisy/src/hid/disp/display.h ****     uint32_t strlen(const char* string)
 475:../../libdaisy/src/hid/disp/display.h ****     {
 476:../../libdaisy/src/hid/disp/display.h ****         uint32_t result = 0;
 477:../../libdaisy/src/hid/disp/display.h ****         while(*string++ != '\0')
 1929              		.loc 4 477 25 view .LVU410
 1930 0008 1146     		mov	r1, r2
 1931              	.LVL147:
 1932              		.loc 4 477 25 view .LVU411
 1933              	.LBE1088:
 1934              	.LBE1087:
 1935              	.LBE1086:
 1936              	.LBE1085:
 460:../../libdaisy/src/hid/disp/display.h ****                                  const FontDef& font,
 1937              		.loc 4 460 15 view .LVU412
 1938 000a 9046     		mov	r8, r2
 1939 000c 0990     		str	r0, [sp, #36]
 1940 000e 1D46     		mov	r5, r3
 1941              	.LVL148:
 1942              	.LBB1103:
 1943              	.LBI1085:
 478:../../libdaisy/src/hid/disp/display.h ****             result++;
 479:../../libdaisy/src/hid/disp/display.h ****         return result;
 480:../../libdaisy/src/hid/disp/display.h ****     }
 481:../../libdaisy/src/hid/disp/display.h **** 
 482:../../libdaisy/src/hid/disp/display.h ****     Rectangle GetTextRect(const char* text, const FontDef& font)
 1944              		.loc 4 482 15 is_stmt 1 view .LVU413
 1945              	.LBB1099:
 1946              	.LBB1092:
 1947              	.LBB1089:
 477:../../libdaisy/src/hid/disp/display.h ****             result++;
 1948              		.loc 4 477 25 view .LVU414
 477:../../libdaisy/src/hid/disp/display.h ****             result++;
 1949              		.loc 4 477 25 is_stmt 0 view .LVU415
 1950              	.LBE1089:
 1951              	.LBE1092:
 1952              	.LBE1099:
 1953              	.LBE1103:
 460:../../libdaisy/src/hid/disp/display.h ****                                  const FontDef& font,
 1954              		.loc 4 460 15 view .LVU416
 1955 0010 9DF85800 		ldrb	r0, [sp, #88]	@ zero_extendqisi2
 1956              	.LVL149:
 1957              	.LBB1104:
 1958              	.LBB1100:
 1959              	.LBB1093:
 1960              	.LBB1090:
 477:../../libdaisy/src/hid/disp/display.h ****             result++;
 1961              		.loc 4 477 25 view .LVU417
 1962 0014 11F8012B 		ldrb	r2, [r1], #1	@ zero_extendqisi2
 1963              	.LVL150:
 477:../../libdaisy/src/hid/disp/display.h ****             result++;
 1964              		.loc 4 477 25 view .LVU418
 1965              	.LBE1090:
 1966              	.LBE1093:
ARM GAS  /tmp/cc3v7X8N.s 			page 67


 1967              	.LBE1100:
 1968              	.LBE1104:
 460:../../libdaisy/src/hid/disp/display.h ****                                  const FontDef& font,
 1969              		.loc 4 460 15 view .LVU419
 1970 0018 0890     		str	r0, [sp, #32]
 1971 001a DDE91463 		ldrd	r6, r3, [sp, #80]
 1972              	.LVL151:
 1973              	.LBB1105:
 1974              	.LBB1101:
 1975              	.LBB1094:
 1976              	.LBB1091:
 477:../../libdaisy/src/hid/disp/display.h ****             result++;
 1977              		.loc 4 477 25 view .LVU420
 1978 001e 32B1     		cbz	r2, .L136
 476:../../libdaisy/src/hid/disp/display.h ****         while(*string++ != '\0')
 1979              		.loc 4 476 18 view .LVU421
 1980 0020 0022     		movs	r2, #0
 1981              	.LVL152:
 1982              	.L137:
 477:../../libdaisy/src/hid/disp/display.h ****             result++;
 1983              		.loc 4 477 25 view .LVU422
 1984 0022 11F8010B 		ldrb	r0, [r1], #1	@ zero_extendqisi2
 1985              	.LVL153:
 478:../../libdaisy/src/hid/disp/display.h ****             result++;
 1986              		.loc 4 478 13 view .LVU423
 1987 0026 0132     		adds	r2, r2, #1
 1988              	.LVL154:
 477:../../libdaisy/src/hid/disp/display.h ****             result++;
 1989              		.loc 4 477 25 is_stmt 1 view .LVU424
 1990 0028 0028     		cmp	r0, #0
 1991 002a FAD1     		bne	.L137
 1992 002c 92B2     		uxth	r2, r2
 1993              	.LVL155:
 1994              	.L136:
 477:../../libdaisy/src/hid/disp/display.h ****             result++;
 1995              		.loc 4 477 25 is_stmt 0 view .LVU425
 1996              	.LBE1091:
 1997              	.LBE1094:
 483:../../libdaisy/src/hid/disp/display.h ****     {
 484:../../libdaisy/src/hid/disp/display.h ****         const auto numChars = strlen(text);
 485:../../libdaisy/src/hid/disp/display.h ****         return {int16_t(numChars * font.FontWidth), font.FontHeight};
 1998              		.loc 4 485 68 view .LVU426
 1999 002e 2978     		ldrb	r1, [r5]	@ zero_extendqisi2
 2000              		.loc 4 485 58 view .LVU427
 2001 0030 6878     		ldrb	r0, [r5, #1]	@ zero_extendqisi2
 2002              		.loc 4 485 68 view .LVU428
 2003 0032 11FB02F2 		smulbb	r2, r1, r2
 2004 0036 01B2     		sxth	r1, r0
 2005              	.LVL156:
 2006              	.LBB1095:
 2007              	.LBI1095:
 2008              		.file 18 "../../libdaisy/src/hid/disp/graphics_common.h"
   1:../../libdaisy/src/hid/disp/graphics_common.h **** #pragma once
   2:../../libdaisy/src/hid/disp/graphics_common.h **** 
   3:../../libdaisy/src/hid/disp/graphics_common.h **** #include <cstdint>
   4:../../libdaisy/src/hid/disp/graphics_common.h **** 
   5:../../libdaisy/src/hid/disp/graphics_common.h **** namespace daisy
ARM GAS  /tmp/cc3v7X8N.s 			page 68


   6:../../libdaisy/src/hid/disp/graphics_common.h **** {
   7:../../libdaisy/src/hid/disp/graphics_common.h **** /** Justifications */
   8:../../libdaisy/src/hid/disp/graphics_common.h **** enum class Alignment
   9:../../libdaisy/src/hid/disp/graphics_common.h **** {
  10:../../libdaisy/src/hid/disp/graphics_common.h ****     centered,
  11:../../libdaisy/src/hid/disp/graphics_common.h ****     topLeft,
  12:../../libdaisy/src/hid/disp/graphics_common.h ****     topCentered,
  13:../../libdaisy/src/hid/disp/graphics_common.h ****     topRight,
  14:../../libdaisy/src/hid/disp/graphics_common.h ****     bottomLeft,
  15:../../libdaisy/src/hid/disp/graphics_common.h ****     bottomCentered,
  16:../../libdaisy/src/hid/disp/graphics_common.h ****     bottomRight,
  17:../../libdaisy/src/hid/disp/graphics_common.h ****     centeredLeft,
  18:../../libdaisy/src/hid/disp/graphics_common.h ****     centeredRight
  19:../../libdaisy/src/hid/disp/graphics_common.h **** };
  20:../../libdaisy/src/hid/disp/graphics_common.h **** 
  21:../../libdaisy/src/hid/disp/graphics_common.h **** class Rectangle
  22:../../libdaisy/src/hid/disp/graphics_common.h **** {
  23:../../libdaisy/src/hid/disp/graphics_common.h ****   public:
  24:../../libdaisy/src/hid/disp/graphics_common.h ****     Rectangle() : x_(0), y_(0), width_(0), height_(0) {}
  25:../../libdaisy/src/hid/disp/graphics_common.h **** 
  26:../../libdaisy/src/hid/disp/graphics_common.h ****     Rectangle(int16_t width, int16_t height)
 2009              		.loc 18 26 5 is_stmt 1 view .LVU429
 2010              	.LBB1096:
 2011              	.LBI1096:
  27:../../libdaisy/src/hid/disp/graphics_common.h ****     : x_(0), y_(0), width_(max(0, width)), height_(max(0, height))
  28:../../libdaisy/src/hid/disp/graphics_common.h ****     {
  29:../../libdaisy/src/hid/disp/graphics_common.h ****     }
  30:../../libdaisy/src/hid/disp/graphics_common.h **** 
  31:../../libdaisy/src/hid/disp/graphics_common.h ****     Rectangle(int16_t x, int16_t y, int16_t width, int16_t height)
  32:../../libdaisy/src/hid/disp/graphics_common.h ****     : x_(x), y_(y), width_(max(0, width)), height_(max(0, height))
  33:../../libdaisy/src/hid/disp/graphics_common.h ****     {
  34:../../libdaisy/src/hid/disp/graphics_common.h ****     }
  35:../../libdaisy/src/hid/disp/graphics_common.h **** 
  36:../../libdaisy/src/hid/disp/graphics_common.h ****     Rectangle(const Rectangle& other) { *this = other; }
  37:../../libdaisy/src/hid/disp/graphics_common.h **** 
  38:../../libdaisy/src/hid/disp/graphics_common.h ****     Rectangle& operator=(const Rectangle& other)
  39:../../libdaisy/src/hid/disp/graphics_common.h ****     {
  40:../../libdaisy/src/hid/disp/graphics_common.h ****         x_      = other.x_;
  41:../../libdaisy/src/hid/disp/graphics_common.h ****         y_      = other.y_;
  42:../../libdaisy/src/hid/disp/graphics_common.h ****         width_  = other.width_;
  43:../../libdaisy/src/hid/disp/graphics_common.h ****         height_ = other.height_;
  44:../../libdaisy/src/hid/disp/graphics_common.h ****         return *this;
  45:../../libdaisy/src/hid/disp/graphics_common.h ****     }
  46:../../libdaisy/src/hid/disp/graphics_common.h **** 
  47:../../libdaisy/src/hid/disp/graphics_common.h ****     bool operator==(const Rectangle& other) const
  48:../../libdaisy/src/hid/disp/graphics_common.h ****     {
  49:../../libdaisy/src/hid/disp/graphics_common.h ****         return (x_ == other.x_) && (y_ == other.y_) && (width_ == other.width_)
  50:../../libdaisy/src/hid/disp/graphics_common.h ****                && (height_ == other.height_);
  51:../../libdaisy/src/hid/disp/graphics_common.h ****     }
  52:../../libdaisy/src/hid/disp/graphics_common.h ****     bool operator!=(const Rectangle& other) const { return !(*this == other); }
  53:../../libdaisy/src/hid/disp/graphics_common.h **** 
  54:../../libdaisy/src/hid/disp/graphics_common.h ****     bool IsEmpty() const { return (width_ <= 0) || (height_ <= 0); }
  55:../../libdaisy/src/hid/disp/graphics_common.h **** 
  56:../../libdaisy/src/hid/disp/graphics_common.h ****     int16_t GetX() const { return x_; }
  57:../../libdaisy/src/hid/disp/graphics_common.h ****     int16_t GetY() const { return y_; }
  58:../../libdaisy/src/hid/disp/graphics_common.h ****     int16_t GetWidth() const { return width_; }
  59:../../libdaisy/src/hid/disp/graphics_common.h ****     int16_t GetHeight() const { return height_; }
ARM GAS  /tmp/cc3v7X8N.s 			page 69


  60:../../libdaisy/src/hid/disp/graphics_common.h ****     int16_t GetRight() const { return x_ + width_; }
  61:../../libdaisy/src/hid/disp/graphics_common.h ****     int16_t GetBottom() const { return y_ + height_; }
  62:../../libdaisy/src/hid/disp/graphics_common.h ****     int16_t GetCenterX() const { return x_ + width_ / 2; }
  63:../../libdaisy/src/hid/disp/graphics_common.h ****     int16_t GetCenterY() const { return y_ + height_ / 2; }
  64:../../libdaisy/src/hid/disp/graphics_common.h **** 
  65:../../libdaisy/src/hid/disp/graphics_common.h ****     Rectangle WithX(int16_t x) const { return {x, y_, width_, height_}; }
  66:../../libdaisy/src/hid/disp/graphics_common.h ****     Rectangle WithY(int16_t y) const { return {x_, y, width_, height_}; }
  67:../../libdaisy/src/hid/disp/graphics_common.h ****     Rectangle WithWidth(int16_t width) const
  68:../../libdaisy/src/hid/disp/graphics_common.h ****     {
  69:../../libdaisy/src/hid/disp/graphics_common.h ****         return {x_, y_, width, height_};
  70:../../libdaisy/src/hid/disp/graphics_common.h ****     }
  71:../../libdaisy/src/hid/disp/graphics_common.h ****     Rectangle WithHeight(int16_t height) const
  72:../../libdaisy/src/hid/disp/graphics_common.h ****     {
  73:../../libdaisy/src/hid/disp/graphics_common.h ****         return {x_, y_, width_, height};
  74:../../libdaisy/src/hid/disp/graphics_common.h ****     }
  75:../../libdaisy/src/hid/disp/graphics_common.h ****     Rectangle WithSize(int16_t width, int16_t height) const
  76:../../libdaisy/src/hid/disp/graphics_common.h ****     {
  77:../../libdaisy/src/hid/disp/graphics_common.h ****         return {x_, y_, width, height};
  78:../../libdaisy/src/hid/disp/graphics_common.h ****     }
  79:../../libdaisy/src/hid/disp/graphics_common.h ****     Rectangle WithWidthKeepingCenter(int16_t width) const
  80:../../libdaisy/src/hid/disp/graphics_common.h ****     {
  81:../../libdaisy/src/hid/disp/graphics_common.h ****         return Rectangle(x_, y_, width, height_)
  82:../../libdaisy/src/hid/disp/graphics_common.h ****             .WithCenter(GetCenterX(), GetCenterY());
  83:../../libdaisy/src/hid/disp/graphics_common.h ****     }
  84:../../libdaisy/src/hid/disp/graphics_common.h ****     Rectangle WithHeightKeepingCenter(int16_t height) const
  85:../../libdaisy/src/hid/disp/graphics_common.h ****     {
  86:../../libdaisy/src/hid/disp/graphics_common.h ****         return Rectangle(x_, y_, width_, height)
  87:../../libdaisy/src/hid/disp/graphics_common.h ****             .WithCenter(GetCenterX(), GetCenterY());
  88:../../libdaisy/src/hid/disp/graphics_common.h ****     }
  89:../../libdaisy/src/hid/disp/graphics_common.h ****     Rectangle WithSizeKeepingCenter(int16_t width, int16_t height) const
  90:../../libdaisy/src/hid/disp/graphics_common.h ****     {
  91:../../libdaisy/src/hid/disp/graphics_common.h ****         return Rectangle(x_, y_, width, height)
  92:../../libdaisy/src/hid/disp/graphics_common.h ****             .WithCenter(GetCenterX(), GetCenterY());
  93:../../libdaisy/src/hid/disp/graphics_common.h ****     }
  94:../../libdaisy/src/hid/disp/graphics_common.h **** 
  95:../../libdaisy/src/hid/disp/graphics_common.h ****     Rectangle Reduced(int16_t sizeToReduce) const
  96:../../libdaisy/src/hid/disp/graphics_common.h ****     {
  97:../../libdaisy/src/hid/disp/graphics_common.h ****         return {int16_t(x_ + sizeToReduce),
  98:../../libdaisy/src/hid/disp/graphics_common.h ****                 int16_t(y_ + sizeToReduce),
  99:../../libdaisy/src/hid/disp/graphics_common.h ****                 int16_t(width_ - 2 * sizeToReduce),
 100:../../libdaisy/src/hid/disp/graphics_common.h ****                 int16_t(height_ - 2 * sizeToReduce)};
 101:../../libdaisy/src/hid/disp/graphics_common.h ****     }
 102:../../libdaisy/src/hid/disp/graphics_common.h ****     Rectangle Reduced(int16_t xToReduce, int16_t yToReduce) const
 103:../../libdaisy/src/hid/disp/graphics_common.h ****     {
 104:../../libdaisy/src/hid/disp/graphics_common.h ****         return {int16_t(x_ + xToReduce),
 105:../../libdaisy/src/hid/disp/graphics_common.h ****                 int16_t(y_ + yToReduce),
 106:../../libdaisy/src/hid/disp/graphics_common.h ****                 int16_t(width_ - 2 * xToReduce),
 107:../../libdaisy/src/hid/disp/graphics_common.h ****                 int16_t(height_ - 2 * yToReduce)};
 108:../../libdaisy/src/hid/disp/graphics_common.h ****     }
 109:../../libdaisy/src/hid/disp/graphics_common.h **** 
 110:../../libdaisy/src/hid/disp/graphics_common.h ****     Rectangle Translated(int16_t x, int16_t y) const
 111:../../libdaisy/src/hid/disp/graphics_common.h ****     {
 112:../../libdaisy/src/hid/disp/graphics_common.h ****         return {int16_t(x_ + x), int16_t(y_ + y), width_, height_};
 113:../../libdaisy/src/hid/disp/graphics_common.h ****     }
 114:../../libdaisy/src/hid/disp/graphics_common.h **** 
 115:../../libdaisy/src/hid/disp/graphics_common.h ****     Rectangle WithLeft(int16_t left) const
 116:../../libdaisy/src/hid/disp/graphics_common.h ****     {
ARM GAS  /tmp/cc3v7X8N.s 			page 70


 117:../../libdaisy/src/hid/disp/graphics_common.h ****         const auto newWidth = int16_t((x_ - left) + width_);
 118:../../libdaisy/src/hid/disp/graphics_common.h ****         return {left, y_, newWidth, height_};
 119:../../libdaisy/src/hid/disp/graphics_common.h ****     }
 120:../../libdaisy/src/hid/disp/graphics_common.h **** 
 121:../../libdaisy/src/hid/disp/graphics_common.h ****     Rectangle WithRight(int16_t right) const
 122:../../libdaisy/src/hid/disp/graphics_common.h ****     {
 123:../../libdaisy/src/hid/disp/graphics_common.h ****         const auto newWidth = int16_t(right - x_);
 124:../../libdaisy/src/hid/disp/graphics_common.h ****         return {x_, y_, newWidth, height_};
 125:../../libdaisy/src/hid/disp/graphics_common.h ****     }
 126:../../libdaisy/src/hid/disp/graphics_common.h **** 
 127:../../libdaisy/src/hid/disp/graphics_common.h ****     Rectangle WithTop(int16_t top) const
 128:../../libdaisy/src/hid/disp/graphics_common.h ****     {
 129:../../libdaisy/src/hid/disp/graphics_common.h ****         const auto newHeight = int16_t((y_ - top) + height_);
 130:../../libdaisy/src/hid/disp/graphics_common.h ****         return {x_, top, width_, newHeight};
 131:../../libdaisy/src/hid/disp/graphics_common.h ****     }
 132:../../libdaisy/src/hid/disp/graphics_common.h **** 
 133:../../libdaisy/src/hid/disp/graphics_common.h ****     Rectangle WithBottom(int16_t bottom) const
 134:../../libdaisy/src/hid/disp/graphics_common.h ****     {
 135:../../libdaisy/src/hid/disp/graphics_common.h ****         const auto newHeight = int16_t(bottom - y_);
 136:../../libdaisy/src/hid/disp/graphics_common.h ****         return {x_, y_, width_, newHeight};
 137:../../libdaisy/src/hid/disp/graphics_common.h ****     }
 138:../../libdaisy/src/hid/disp/graphics_common.h **** 
 139:../../libdaisy/src/hid/disp/graphics_common.h ****     Rectangle WithTrimmedLeft(int16_t pxToTrim) const
 140:../../libdaisy/src/hid/disp/graphics_common.h ****     {
 141:../../libdaisy/src/hid/disp/graphics_common.h ****         return {
 142:../../libdaisy/src/hid/disp/graphics_common.h ****             int16_t(x_ + pxToTrim), y_, int16_t(width_ - pxToTrim), height_};
 143:../../libdaisy/src/hid/disp/graphics_common.h ****     }
 144:../../libdaisy/src/hid/disp/graphics_common.h **** 
 145:../../libdaisy/src/hid/disp/graphics_common.h ****     Rectangle WithTrimmedRight(int16_t pxToTrim) const
 146:../../libdaisy/src/hid/disp/graphics_common.h ****     {
 147:../../libdaisy/src/hid/disp/graphics_common.h ****         return {x_, y_, int16_t(width_ - pxToTrim), height_};
 148:../../libdaisy/src/hid/disp/graphics_common.h ****     }
 149:../../libdaisy/src/hid/disp/graphics_common.h **** 
 150:../../libdaisy/src/hid/disp/graphics_common.h ****     Rectangle WithTrimmedTop(int16_t pxToTrim) const
 151:../../libdaisy/src/hid/disp/graphics_common.h ****     {
 152:../../libdaisy/src/hid/disp/graphics_common.h ****         return {
 153:../../libdaisy/src/hid/disp/graphics_common.h ****             x_, int16_t(y_ + pxToTrim), width_, int16_t(height_ - pxToTrim)};
 154:../../libdaisy/src/hid/disp/graphics_common.h ****     }
 155:../../libdaisy/src/hid/disp/graphics_common.h **** 
 156:../../libdaisy/src/hid/disp/graphics_common.h ****     Rectangle WithTrimmedBottom(int16_t pxToTrim) const
 157:../../libdaisy/src/hid/disp/graphics_common.h ****     {
 158:../../libdaisy/src/hid/disp/graphics_common.h ****         return {x_, y_, width_, int16_t(height_ - pxToTrim)};
 159:../../libdaisy/src/hid/disp/graphics_common.h ****     }
 160:../../libdaisy/src/hid/disp/graphics_common.h **** 
 161:../../libdaisy/src/hid/disp/graphics_common.h ****     Rectangle WithCenterX(int16_t centerX) const
 162:../../libdaisy/src/hid/disp/graphics_common.h ****     {
 163:../../libdaisy/src/hid/disp/graphics_common.h ****         return {int16_t(x_ + centerX - GetCenterX()), y_, width_, height_};
 164:../../libdaisy/src/hid/disp/graphics_common.h ****     }
 165:../../libdaisy/src/hid/disp/graphics_common.h **** 
 166:../../libdaisy/src/hid/disp/graphics_common.h ****     Rectangle WithCenterY(int16_t centerY) const
 167:../../libdaisy/src/hid/disp/graphics_common.h ****     {
 168:../../libdaisy/src/hid/disp/graphics_common.h ****         return {x_, int16_t(y_ + centerY - GetCenterY()), width_, height_};
 169:../../libdaisy/src/hid/disp/graphics_common.h ****     }
 170:../../libdaisy/src/hid/disp/graphics_common.h **** 
 171:../../libdaisy/src/hid/disp/graphics_common.h ****     Rectangle WithCenter(int16_t centerX, int16_t centerY) const
 172:../../libdaisy/src/hid/disp/graphics_common.h ****     {
 173:../../libdaisy/src/hid/disp/graphics_common.h ****         return {int16_t(x_ + centerX - GetCenterX()),
ARM GAS  /tmp/cc3v7X8N.s 			page 71


 174:../../libdaisy/src/hid/disp/graphics_common.h ****                 int16_t(y_ + centerY - GetCenterY()),
 175:../../libdaisy/src/hid/disp/graphics_common.h ****                 width_,
 176:../../libdaisy/src/hid/disp/graphics_common.h ****                 height_};
 177:../../libdaisy/src/hid/disp/graphics_common.h ****     }
 178:../../libdaisy/src/hid/disp/graphics_common.h **** 
 179:../../libdaisy/src/hid/disp/graphics_common.h ****     Rectangle RemoveFromLeft(int16_t pxToRemove)
 180:../../libdaisy/src/hid/disp/graphics_common.h ****     {
 181:../../libdaisy/src/hid/disp/graphics_common.h ****         const auto result = this->WithWidth(min(pxToRemove, width_));
 182:../../libdaisy/src/hid/disp/graphics_common.h ****         x_ += min(pxToRemove, width_);
 183:../../libdaisy/src/hid/disp/graphics_common.h ****         width_ = max(int16_t(width_ - pxToRemove), 0);
 184:../../libdaisy/src/hid/disp/graphics_common.h ****         return result;
 185:../../libdaisy/src/hid/disp/graphics_common.h ****     }
 186:../../libdaisy/src/hid/disp/graphics_common.h **** 
 187:../../libdaisy/src/hid/disp/graphics_common.h ****     Rectangle RemoveFromRight(int16_t pxToRemove)
 188:../../libdaisy/src/hid/disp/graphics_common.h ****     {
 189:../../libdaisy/src/hid/disp/graphics_common.h ****         const auto canRemove = min(pxToRemove, width_);
 190:../../libdaisy/src/hid/disp/graphics_common.h ****         width_ -= canRemove;
 191:../../libdaisy/src/hid/disp/graphics_common.h ****         return {int16_t(x_ + width_), y_, canRemove, height_};
 192:../../libdaisy/src/hid/disp/graphics_common.h ****     }
 193:../../libdaisy/src/hid/disp/graphics_common.h **** 
 194:../../libdaisy/src/hid/disp/graphics_common.h ****     Rectangle RemoveFromTop(int16_t pxToRemove)
 195:../../libdaisy/src/hid/disp/graphics_common.h ****     {
 196:../../libdaisy/src/hid/disp/graphics_common.h ****         const auto result = this->WithHeight(min(pxToRemove, height_));
 197:../../libdaisy/src/hid/disp/graphics_common.h ****         y_ += min(pxToRemove, height_);
 198:../../libdaisy/src/hid/disp/graphics_common.h ****         height_ = max(height_ - pxToRemove, 0);
 199:../../libdaisy/src/hid/disp/graphics_common.h ****         return result;
 200:../../libdaisy/src/hid/disp/graphics_common.h ****     }
 201:../../libdaisy/src/hid/disp/graphics_common.h **** 
 202:../../libdaisy/src/hid/disp/graphics_common.h ****     Rectangle RemoveFromBottom(int16_t pxToRemove)
 203:../../libdaisy/src/hid/disp/graphics_common.h ****     {
 204:../../libdaisy/src/hid/disp/graphics_common.h ****         const auto canRemove = min(pxToRemove, height_);
 205:../../libdaisy/src/hid/disp/graphics_common.h ****         height_ -= canRemove;
 206:../../libdaisy/src/hid/disp/graphics_common.h ****         return {x_, int16_t(y_ + height_), width_, canRemove};
 207:../../libdaisy/src/hid/disp/graphics_common.h ****     }
 208:../../libdaisy/src/hid/disp/graphics_common.h **** 
 209:../../libdaisy/src/hid/disp/graphics_common.h ****     Rectangle AlignedWithin(const Rectangle& other, Alignment alignment) const
 210:../../libdaisy/src/hid/disp/graphics_common.h ****     {
 211:../../libdaisy/src/hid/disp/graphics_common.h ****         switch(alignment)
 212:../../libdaisy/src/hid/disp/graphics_common.h ****         {
 213:../../libdaisy/src/hid/disp/graphics_common.h ****             case Alignment::topLeft:
 214:../../libdaisy/src/hid/disp/graphics_common.h ****                 return {other.x_, other.y_, width_, height_};
 215:../../libdaisy/src/hid/disp/graphics_common.h ****             case Alignment::topRight:
 216:../../libdaisy/src/hid/disp/graphics_common.h ****                 return {int16_t(other.GetRight() - width_),
 217:../../libdaisy/src/hid/disp/graphics_common.h ****                         other.y_,
 218:../../libdaisy/src/hid/disp/graphics_common.h ****                         width_,
 219:../../libdaisy/src/hid/disp/graphics_common.h ****                         height_};
 220:../../libdaisy/src/hid/disp/graphics_common.h ****             case Alignment::topCentered:
 221:../../libdaisy/src/hid/disp/graphics_common.h ****                 return {int16_t(x_ + (other.GetCenterX() - GetCenterX())),
 222:../../libdaisy/src/hid/disp/graphics_common.h ****                         other.y_,
 223:../../libdaisy/src/hid/disp/graphics_common.h ****                         width_,
 224:../../libdaisy/src/hid/disp/graphics_common.h ****                         height_};
 225:../../libdaisy/src/hid/disp/graphics_common.h ****             case Alignment::bottomLeft:
 226:../../libdaisy/src/hid/disp/graphics_common.h ****                 return {other.x_,
 227:../../libdaisy/src/hid/disp/graphics_common.h ****                         int16_t(other.GetBottom() - height_),
 228:../../libdaisy/src/hid/disp/graphics_common.h ****                         width_,
 229:../../libdaisy/src/hid/disp/graphics_common.h ****                         height_};
 230:../../libdaisy/src/hid/disp/graphics_common.h ****             case Alignment::bottomRight:
ARM GAS  /tmp/cc3v7X8N.s 			page 72


 231:../../libdaisy/src/hid/disp/graphics_common.h ****                 return {int16_t(other.GetRight() - width_),
 232:../../libdaisy/src/hid/disp/graphics_common.h ****                         int16_t(other.GetBottom() - height_),
 233:../../libdaisy/src/hid/disp/graphics_common.h ****                         width_,
 234:../../libdaisy/src/hid/disp/graphics_common.h ****                         height_};
 235:../../libdaisy/src/hid/disp/graphics_common.h ****             case Alignment::bottomCentered:
 236:../../libdaisy/src/hid/disp/graphics_common.h ****                 return {int16_t(x_ + (other.GetCenterX() - GetCenterX())),
 237:../../libdaisy/src/hid/disp/graphics_common.h ****                         int16_t(other.GetBottom() - height_),
 238:../../libdaisy/src/hid/disp/graphics_common.h ****                         width_,
 239:../../libdaisy/src/hid/disp/graphics_common.h ****                         height_};
 240:../../libdaisy/src/hid/disp/graphics_common.h ****             case Alignment::centeredLeft:
 241:../../libdaisy/src/hid/disp/graphics_common.h ****                 return {other.x_,
 242:../../libdaisy/src/hid/disp/graphics_common.h ****                         int16_t(y_ + (other.GetCenterY() - GetCenterY())),
 243:../../libdaisy/src/hid/disp/graphics_common.h ****                         width_,
 244:../../libdaisy/src/hid/disp/graphics_common.h ****                         height_};
 245:../../libdaisy/src/hid/disp/graphics_common.h ****             case Alignment::centeredRight:
 246:../../libdaisy/src/hid/disp/graphics_common.h ****                 return {int16_t(other.GetRight() - width_),
 247:../../libdaisy/src/hid/disp/graphics_common.h ****                         int16_t(y_ + (other.GetCenterY() - GetCenterY())),
 248:../../libdaisy/src/hid/disp/graphics_common.h ****                         width_,
 249:../../libdaisy/src/hid/disp/graphics_common.h ****                         height_};
 250:../../libdaisy/src/hid/disp/graphics_common.h ****             case Alignment::centered:
 251:../../libdaisy/src/hid/disp/graphics_common.h ****                 return {int16_t(x_ + (other.GetCenterX() - GetCenterX())),
 252:../../libdaisy/src/hid/disp/graphics_common.h ****                         int16_t(y_ + (other.GetCenterY() - GetCenterY())),
 253:../../libdaisy/src/hid/disp/graphics_common.h ****                         width_,
 254:../../libdaisy/src/hid/disp/graphics_common.h ****                         height_};
 255:../../libdaisy/src/hid/disp/graphics_common.h ****             default: return {};
 256:../../libdaisy/src/hid/disp/graphics_common.h ****         }
 257:../../libdaisy/src/hid/disp/graphics_common.h ****     }
 258:../../libdaisy/src/hid/disp/graphics_common.h **** 
 259:../../libdaisy/src/hid/disp/graphics_common.h ****   private:
 260:../../libdaisy/src/hid/disp/graphics_common.h ****     int16_t x_, y_, width_, height_;
 261:../../libdaisy/src/hid/disp/graphics_common.h ****     int16_t max(int16_t a, int16_t b) { return (a > b) ? a : b; }
 2012              		.loc 18 261 13 view .LVU430
 2013              		.loc 18 261 13 is_stmt 0 view .LVU431
 2014              	.LBE1096:
 2015              	.LBE1095:
 2016              	.LBE1101:
 2017              	.LBE1105:
 2018              		.loc 18 261 41 is_stmt 1 view .LVU432
 2019 0038 12B2     		sxth	r2, r2
 2020 003a 22EAE272 		bic	r2, r2, r2, asr #31
 2021              	.LVL157:
 2022              	.LBB1106:
 2023              	.LBB1102:
 2024              	.LBB1098:
 2025              	.LBB1097:
 2026              	.LBI1097:
 2027              		.loc 18 261 13 view .LVU433
 2028              		.loc 18 261 13 is_stmt 0 view .LVU434
 2029              	.LBE1097:
 2030              	.LBE1098:
 2031              	.LBE1102:
 2032              	.LBE1106:
 2033              		.loc 18 261 41 is_stmt 1 view .LVU435
 2034              	.LBB1107:
 2035              	.LBI1107:
 209:../../libdaisy/src/hid/disp/graphics_common.h ****     {
 2036              		.loc 18 209 15 view .LVU436
ARM GAS  /tmp/cc3v7X8N.s 			page 73


 2037              	.LBB1108:
 211:../../libdaisy/src/hid/disp/graphics_common.h ****         {
 2038              		.loc 18 211 9 view .LVU437
 2039 003e 082B     		cmp	r3, #8
 2040 0040 00F2AD81 		bhi	.L138
 2041 0044 DFE813F0 		tbh	[pc, r3, lsl #1]
 2042              	.L140:
 2043 0048 0001     		.2byte	(.L148-.L140)/2
 2044 004a 1201     		.2byte	(.L147-.L140)/2
 2045 004c 1E01     		.2byte	(.L146-.L140)/2
 2046 004e 3201     		.2byte	(.L145-.L140)/2
 2047 0050 4001     		.2byte	(.L144-.L140)/2
 2048 0052 5001     		.2byte	(.L143-.L140)/2
 2049 0054 6B01     		.2byte	(.L142-.L140)/2
 2050 0056 7801     		.2byte	(.L141-.L140)/2
 2051 0058 0900     		.2byte	(.L139-.L140)/2
 2052              		.p2align 1
 2053              	.L139:
 245:../../libdaisy/src/hid/disp/graphics_common.h ****                 return {int16_t(other.GetRight() - width_),
 2054              		.loc 18 245 13 view .LVU438
 246:../../libdaisy/src/hid/disp/graphics_common.h ****                         int16_t(y_ + (other.GetCenterY() - GetCenterY())),
 2055              		.loc 18 246 17 view .LVU439
 2056              	.LBB1109:
 2057              	.LBI1109:
  60:../../libdaisy/src/hid/disp/graphics_common.h ****     int16_t GetBottom() const { return y_ + height_; }
 2058              		.loc 18 60 13 view .LVU440
 2059              	.LVL158:
 2060              	.LBB1110:
  60:../../libdaisy/src/hid/disp/graphics_common.h ****     int16_t GetBottom() const { return y_ + height_; }
 2061              		.loc 18 60 32 view .LVU441
  60:../../libdaisy/src/hid/disp/graphics_common.h ****     int16_t GetBottom() const { return y_ + height_; }
 2062              		.loc 18 60 42 is_stmt 0 view .LVU442
 2063 005a 3788     		ldrh	r7, [r6]
 2064 005c B088     		ldrh	r0, [r6, #4]
 2065              	.LBE1110:
 2066              	.LBE1109:
 2067              	.LBB1112:
 2068              	.LBB1113:
  63:../../libdaisy/src/hid/disp/graphics_common.h **** 
 2069              		.loc 18 63 54 view .LVU443
 2070 005e B6F90630 		ldrsh	r3, [r6, #6]
 2071              	.LVL159:
  63:../../libdaisy/src/hid/disp/graphics_common.h **** 
 2072              		.loc 18 63 54 view .LVU444
 2073              	.LBE1113:
 2074              	.LBE1112:
 2075              	.LBB1117:
 2076              	.LBB1111:
  60:../../libdaisy/src/hid/disp/graphics_common.h ****     int16_t GetBottom() const { return y_ + height_; }
 2077              		.loc 18 60 42 view .LVU445
 2078 0062 0744     		add	r7, r7, r0
 2079              	.LBE1111:
 2080              	.LBE1117:
 2081              	.LBB1118:
 2082              	.LBB1114:
  63:../../libdaisy/src/hid/disp/graphics_common.h **** 
 2083              		.loc 18 63 54 view .LVU446
ARM GAS  /tmp/cc3v7X8N.s 			page 74


 2084 0064 002B     		cmp	r3, #0
 2085              	.LBE1114:
 2086              	.LBE1118:
 246:../../libdaisy/src/hid/disp/graphics_common.h ****                         int16_t(y_ + (other.GetCenterY() - GetCenterY())),
 2087              		.loc 18 246 50 view .LVU447
 2088 0066 A7EB0207 		sub	r7, r7, r2
 2089 006a BFB2     		uxth	r7, r7
 2090              	.LBB1119:
 2091              	.LBI1112:
  63:../../libdaisy/src/hid/disp/graphics_common.h **** 
 2092              		.loc 18 63 13 is_stmt 1 view .LVU448
 2093              	.LVL160:
 2094              	.LBB1115:
  63:../../libdaisy/src/hid/disp/graphics_common.h **** 
 2095              		.loc 18 63 34 view .LVU449
  63:../../libdaisy/src/hid/disp/graphics_common.h **** 
 2096              		.loc 18 63 34 is_stmt 0 view .LVU450
 2097              	.LBE1115:
 2098              	.LBE1119:
 2099              	.LBB1120:
 2100              	.LBI1120:
  63:../../libdaisy/src/hid/disp/graphics_common.h **** 
 2101              		.loc 18 63 13 is_stmt 1 view .LVU451
 2102              	.LBB1121:
  63:../../libdaisy/src/hid/disp/graphics_common.h **** 
 2103              		.loc 18 63 34 view .LVU452
 2104              	.LBE1121:
 2105              	.LBE1120:
 2106              	.LBB1122:
 2107              	.LBB1116:
  63:../../libdaisy/src/hid/disp/graphics_common.h **** 
 2108              		.loc 18 63 54 is_stmt 0 view .LVU453
 2109 006c C0F2FC80 		blt	.L212
 2110              	.LVL161:
 2111              	.L155:
  63:../../libdaisy/src/hid/disp/graphics_common.h **** 
 2112              		.loc 18 63 54 view .LVU454
 2113              	.LBE1116:
 2114              	.LBE1122:
 2115              	.LBB1123:
 2116              	.LBB1124:
  63:../../libdaisy/src/hid/disp/graphics_common.h **** 
 2117              		.loc 18 63 44 view .LVU455
 2118 0070 B6F802C0 		ldrh	ip, [r6, #2]
 2119              	.LBE1124:
 2120              	.LBE1123:
 2121              	.LBB1130:
 2122              	.LBB1131:
 2123              	.LBB1132:
  32:../../libdaisy/src/hid/disp/graphics_common.h ****     {
 2124              		.loc 18 32 66 view .LVU456
 2125 0074 0998     		ldr	r0, [sp, #36]
 2126              	.LBE1132:
 2127              	.LBE1131:
 2128              	.LBE1130:
 2129              	.LBB1141:
 2130              	.LBB1125:
ARM GAS  /tmp/cc3v7X8N.s 			page 75


  63:../../libdaisy/src/hid/disp/graphics_common.h **** 
 2131              		.loc 18 63 44 view .LVU457
 2132 0076 0CEB6306 		add	r6, ip, r3, asr #1
 2133              	.LVL162:
  63:../../libdaisy/src/hid/disp/graphics_common.h **** 
 2134              		.loc 18 63 44 view .LVU458
 2135              	.LBE1125:
 2136              	.LBE1141:
 2137              	.LBB1142:
 2138              	.LBB1138:
 2139              	.LBB1135:
  32:../../libdaisy/src/hid/disp/graphics_common.h ****     {
 2140              		.loc 18 32 66 view .LVU459
 2141 007a 0346     		mov	r3, r0
 2142 007c 0780     		strh	r7, [r0]	@ movhi
 2143              	.L210:
  32:../../libdaisy/src/hid/disp/graphics_common.h ****     {
 2144              		.loc 18 32 66 view .LVU460
 2145 007e 8280     		strh	r2, [r0, #4]	@ movhi
 2146 0080 D980     		strh	r1, [r3, #6]	@ movhi
 2147              	.LBE1135:
 2148              	.LBE1138:
 2149              	.LBE1142:
 252:../../libdaisy/src/hid/disp/graphics_common.h ****                         width_,
 2150              		.loc 18 252 58 view .LVU461
 2151 0082 A6EB5101 		sub	r1, r6, r1, lsr #1
 2152 0086 8EB2     		uxth	r6, r1
 2153              	.LVL163:
 2154              	.LBB1143:
 2155              	.LBI1130:
  31:../../libdaisy/src/hid/disp/graphics_common.h ****     : x_(x), y_(y), width_(max(0, width)), height_(max(0, height))
 2156              		.loc 18 31 5 is_stmt 1 view .LVU462
 2157              	.LBB1139:
 2158              	.LBB1136:
  32:../../libdaisy/src/hid/disp/graphics_common.h ****     {
 2159              		.loc 18 32 66 is_stmt 0 view .LVU463
 2160 0088 5E80     		strh	r6, [r3, #2]	@ movhi
 2161              	.LVL164:
 2162              	.LBB1133:
 2163              	.LBI1133:
 2164              		.loc 18 261 13 is_stmt 1 view .LVU464
 2165              		.loc 18 261 13 is_stmt 0 view .LVU465
 2166              	.LBE1133:
 2167              	.LBE1136:
 2168              	.LBE1139:
 2169              	.LBE1143:
 2170              	.LBE1108:
 2171              	.LBE1107:
 2172              		.loc 18 261 41 is_stmt 1 view .LVU466
 2173              	.LBB1328:
 2174              	.LBB1313:
 2175              	.LBB1144:
 2176              	.LBB1140:
 2177              	.LBB1137:
 2178              	.LBB1134:
 2179              	.LBI1134:
 2180              		.loc 18 261 13 view .LVU467
ARM GAS  /tmp/cc3v7X8N.s 			page 76


 2181              		.loc 18 261 13 is_stmt 0 view .LVU468
 2182              	.LBE1134:
 2183              	.LBE1137:
 2184              	.LBE1140:
 2185              	.LBE1144:
 2186              	.LBE1313:
 2187              	.LBE1328:
 2188              		.loc 18 261 41 is_stmt 1 view .LVU469
 2189              	.L149:
  56:../../libdaisy/src/hid/disp/graphics_common.h ****     int16_t GetY() const { return y_; }
 2190              		.loc 18 56 28 view .LVU470
  57:../../libdaisy/src/hid/disp/graphics_common.h ****     int16_t GetWidth() const { return width_; }
 2191              		.loc 18 57 28 view .LVU471
 2192              	.LBB1329:
 2193              	.LBI1329:
 171:../../libdaisy/src/hid/disp/display.h ****     {
 2194              		.loc 4 171 10 view .LVU472
 2195              	.LBB1330:
 173:../../libdaisy/src/hid/disp/display.h ****         currentY_ = (y >= Height()) ? Height() - 1 : y;
 2196              		.loc 4 173 9 view .LVU473
 2197 008a B64A     		ldr	r2, .L222
 173:../../libdaisy/src/hid/disp/display.h ****         currentY_ = (y >= Height()) ? Height() - 1 : y;
 2198              		.loc 4 173 33 is_stmt 0 view .LVU474
 2199 008c 2368     		ldr	r3, [r4]
 2200 008e 1146     		mov	r1, r2
 2201 0090 0192     		str	r2, [sp, #4]
 2202 0092 DA68     		ldr	r2, [r3, #12]
 2203 0094 8A42     		cmp	r2, r1
 2204 0096 40F08F81 		bne	.L157
 2205 009a 8020     		movs	r0, #128
 2206              	.LVL165:
 2207              	.L158:
 173:../../libdaisy/src/hid/disp/display.h ****         currentY_ = (y >= Height()) ? Height() - 1 : y;
 2208              		.loc 4 173 19 view .LVU475
 2209 009c B842     		cmp	r0, r7
 2210 009e 05D8     		bhi	.L159
 173:../../libdaisy/src/hid/disp/display.h ****         currentY_ = (y >= Height()) ? Height() - 1 : y;
 2211              		.loc 4 173 44 view .LVU476
 2212 00a0 DA68     		ldr	r2, [r3, #12]
 2213 00a2 0199     		ldr	r1, [sp, #4]
 2214 00a4 8A42     		cmp	r2, r1
 2215 00a6 40F09A81 		bne	.L213
 2216 00aa 7F27     		movs	r7, #127
 2217              	.L159:
 174:../../libdaisy/src/hid/disp/display.h ****     }
 2218              		.loc 4 174 34 view .LVU477
 2219 00ac 9B68     		ldr	r3, [r3, #8]
 2220 00ae AE4A     		ldr	r2, .L222+4
 173:../../libdaisy/src/hid/disp/display.h ****         currentY_ = (y >= Height()) ? Height() - 1 : y;
 2221              		.loc 4 173 19 view .LVU478
 2222 00b0 A780     		strh	r7, [r4, #4]	@ movhi
 174:../../libdaisy/src/hid/disp/display.h ****     }
 2223              		.loc 4 174 9 is_stmt 1 view .LVU479
 2224 00b2 9342     		cmp	r3, r2
 2225 00b4 0392     		str	r2, [sp, #12]
 2226 00b6 40F08A81 		bne	.L189
 174:../../libdaisy/src/hid/disp/display.h ****     }
ARM GAS  /tmp/cc3v7X8N.s 			page 77


 2227              		.loc 4 174 34 is_stmt 0 view .LVU480
 2228 00ba 4020     		movs	r0, #64
 2229              	.L161:
 174:../../libdaisy/src/hid/disp/display.h ****     }
 2230              		.loc 4 174 19 view .LVU481
 2231 00bc B042     		cmp	r0, r6
 2232 00be 06D8     		bhi	.L163
 174:../../libdaisy/src/hid/disp/display.h ****     }
 2233              		.loc 4 174 46 view .LVU482
 2234 00c0 2368     		ldr	r3, [r4]
 2235 00c2 039A     		ldr	r2, [sp, #12]
 2236 00c4 9B68     		ldr	r3, [r3, #8]
 2237 00c6 9342     		cmp	r3, r2
 2238 00c8 40F08481 		bne	.L214
 2239 00cc 3F26     		movs	r6, #63
 2240              	.L163:
 174:../../libdaisy/src/hid/disp/display.h ****     }
 2241              		.loc 4 174 46 view .LVU483
 2242 00ce 6B78     		ldrb	r3, [r5, #1]	@ zero_extendqisi2
 174:../../libdaisy/src/hid/disp/display.h ****     }
 2243              		.loc 4 174 19 view .LVU484
 2244 00d0 E680     		strh	r6, [r4, #6]	@ movhi
 2245              	.LVL166:
 174:../../libdaisy/src/hid/disp/display.h ****     }
 2246              		.loc 4 174 19 view .LVU485
 2247 00d2 0493     		str	r3, [sp, #16]
 2248              	.LBE1330:
 2249              	.LBE1329:
 2250              	.LBB1334:
 2251              	.LBB1335:
 443:../../libdaisy/src/hid/disp/display.h ****         {
 2252              		.loc 4 443 9 view .LVU486
 2253 00d4 98F80060 		ldrb	r6, [r8]	@ zero_extendqisi2
 2254 00d8 6B68     		ldr	r3, [r5, #4]
 2255 00da 95F800B0 		ldrb	fp, [r5]	@ zero_extendqisi2
 2256              	.LVL167:
 443:../../libdaisy/src/hid/disp/display.h ****         {
 2257              		.loc 4 443 9 view .LVU487
 2258 00de 0793     		str	r3, [sp, #28]
 2259              	.LVL168:
 443:../../libdaisy/src/hid/disp/display.h ****         {
 2260              		.loc 4 443 9 view .LVU488
 2261              	.LBE1335:
 2262              	.LBI1334:
 440:../../libdaisy/src/hid/disp/display.h ****     {
 2263              		.loc 4 440 10 is_stmt 1 view .LVU489
 2264              	.LBB1378:
 443:../../libdaisy/src/hid/disp/display.h ****         {
 2265              		.loc 4 443 9 view .LVU490
 2266 00e0 002E     		cmp	r6, #0
 2267 00e2 00F0AD80 		beq	.L135
 2268              	.LVL169:
 2269              	.L165:
 2270              	.LBB1336:
 2271              	.LBI1336:
 396:../../libdaisy/src/hid/disp/display.h ****     {
 2272              		.loc 4 396 10 view .LVU491
ARM GAS  /tmp/cc3v7X8N.s 			page 78


 2273              	.LBB1337:
 401:../../libdaisy/src/hid/disp/display.h ****             return 0;
 2274              		.loc 4 401 20 is_stmt 0 view .LVU492
 2275 00e6 A6F12005 		sub	r5, r6, #32
 401:../../libdaisy/src/hid/disp/display.h ****             return 0;
 2276              		.loc 4 401 9 view .LVU493
 2277 00ea EBB2     		uxtb	r3, r5
 2278 00ec 5E2B     		cmp	r3, #94
 2279 00ee 00F23481 		bhi	.L169
 405:../../libdaisy/src/hid/disp/display.h ****            || Height() < (currentY_ + font.FontHeight))
 2280              		.loc 4 405 17 view .LVU494
 2281 00f2 2368     		ldr	r3, [r4]
 2282 00f4 019A     		ldr	r2, [sp, #4]
 2283 00f6 DB68     		ldr	r3, [r3, #12]
 2284 00f8 9342     		cmp	r3, r2
 2285 00fa 40F03081 		bne	.L215
 2286 00fe 8020     		movs	r0, #128
 2287              	.L168:
 405:../../libdaisy/src/hid/disp/display.h ****            || Height() < (currentY_ + font.FontHeight))
 2288              		.loc 4 405 23 view .LVU495
 2289 0100 A388     		ldrh	r3, [r4, #4]
 405:../../libdaisy/src/hid/disp/display.h ****            || Height() < (currentY_ + font.FontHeight))
 2290              		.loc 4 405 33 view .LVU496
 2291 0102 5B44     		add	r3, r3, fp
 406:../../libdaisy/src/hid/disp/display.h ****         {
 2292              		.loc 4 406 12 view .LVU497
 2293 0104 9842     		cmp	r0, r3
 2294 0106 C0F22881 		blt	.L169
 406:../../libdaisy/src/hid/disp/display.h ****         {
 2295              		.loc 4 406 21 view .LVU498
 2296 010a 2368     		ldr	r3, [r4]
 2297 010c 039A     		ldr	r2, [sp, #12]
 2298 010e 9B68     		ldr	r3, [r3, #8]
 2299 0110 9342     		cmp	r3, r2
 2300 0112 40F02B81 		bne	.L216
 2301 0116 4020     		movs	r0, #64
 2302              	.L170:
 406:../../libdaisy/src/hid/disp/display.h ****         {
 2303              		.loc 4 406 27 view .LVU499
 2304 0118 E188     		ldrh	r1, [r4, #6]
 406:../../libdaisy/src/hid/disp/display.h ****         {
 2305              		.loc 4 406 37 view .LVU500
 2306 011a 049A     		ldr	r2, [sp, #16]
 406:../../libdaisy/src/hid/disp/display.h ****         {
 2307              		.loc 4 406 27 view .LVU501
 2308 011c 0291     		str	r1, [sp, #8]
 406:../../libdaisy/src/hid/disp/display.h ****         {
 2309              		.loc 4 406 37 view .LVU502
 2310 011e 8B18     		adds	r3, r1, r2
 406:../../libdaisy/src/hid/disp/display.h ****         {
 2311              		.loc 4 406 12 view .LVU503
 2312 0120 9842     		cmp	r0, r3
 2313 0122 C0F21A81 		blt	.L169
 2314              	.LVL170:
 413:../../libdaisy/src/hid/disp/display.h ****         {
 2315              		.loc 4 413 22 is_stmt 1 view .LVU504
 2316 0126 1046     		mov	r0, r2
ARM GAS  /tmp/cc3v7X8N.s 			page 79


 2317 0128 002A     		cmp	r2, #0
 2318 012a 00F02981 		beq	.L171
 415:../../libdaisy/src/hid/disp/display.h ****             for(j = 0; j < font.FontWidth; j++)
 2319              		.loc 4 415 37 is_stmt 0 view .LVU505
 2320 012e 1346     		mov	r3, r2
 2321 0130 6FF00047 		mvn	r7, #-2147483648
 2322 0134 B4F804C0 		ldrh	ip, [r4, #4]
 2323 0138 03FB05F3 		mul	r3, r3, r5
 2324 013c 079D     		ldr	r5, [sp, #28]
 2325 013e CDF81880 		str	r8, [sp, #24]
 2326 0142 AA1E     		subs	r2, r5, #2
 2327 0144 1F44     		add	r7, r7, r3
 2328 0146 0344     		add	r3, r3, r0
 2329 0148 DDF82090 		ldr	r9, [sp, #32]
 2330 014c 05EB4707 		add	r7, r5, r7, lsl #1
 2331 0150 0596     		str	r6, [sp, #20]
 2332 0152 02EB4303 		add	r3, r2, r3, lsl #1
 2333 0156 2246     		mov	r2, r4
 2334 0158 5C46     		mov	r4, fp
 2335              	.LVL171:
 415:../../libdaisy/src/hid/disp/display.h ****             for(j = 0; j < font.FontWidth; j++)
 2336              		.loc 4 415 37 view .LVU506
 2337 015a 9846     		mov	r8, r3
 2338              	.LVL172:
 415:../../libdaisy/src/hid/disp/display.h ****             for(j = 0; j < font.FontWidth; j++)
 2339              		.loc 4 415 37 view .LVU507
 2340 015c 9346     		mov	fp, r2
 2341              	.LVL173:
 2342              	.L174:
