ARM GAS  /tmp/cc3v7X8N.s 			page 1


   1              		.cpu cortex-m7
   2              		.eabi_attribute 28, 1
   3              		.eabi_attribute 20, 1
   4              		.eabi_attribute 21, 1
   5              		.eabi_attribute 23, 3
   6              		.eabi_attribute 24, 1
   7              		.eabi_attribute 25, 1
   8              		.eabi_attribute 26, 1
   9              		.eabi_attribute 30, 2
  10              		.eabi_attribute 34, 1
  11              		.eabi_attribute 18, 4
  12              		.file	"Noise.cpp"
  13              		.text
  14              	.Ltext0:
  15              		.cfi_sections	.debug_frame
  16              		.section	.text._ZN7daisysp10WhiteNoiseD2Ev,"axG",%progbits,_ZN7daisysp10WhiteNoiseD5Ev,comdat
  17              		.align	1
  18              		.p2align 2,,3
  19              		.weak	_ZN7daisysp10WhiteNoiseD2Ev
  20              		.arch armv7e-m
  21              		.syntax unified
  22              		.thumb
  23              		.thumb_func
  24              		.fpu fpv5-d16
  26              	_ZN7daisysp10WhiteNoiseD2Ev:
  27              	.LVL0:
  28              	.LFB3188:
  29              		.file 1 "../../DaisySP/Source/Noise/whitenoise.h"
   1:../../DaisySP/Source/Noise/whitenoise.h **** #pragma once
   2:../../DaisySP/Source/Noise/whitenoise.h **** #ifndef DSY_WHITENOISE_H
   3:../../DaisySP/Source/Noise/whitenoise.h **** #define DSY_WHITENOISE_H
   4:../../DaisySP/Source/Noise/whitenoise.h **** #include <stdint.h>
   5:../../DaisySP/Source/Noise/whitenoise.h **** #ifdef __cplusplus
   6:../../DaisySP/Source/Noise/whitenoise.h **** namespace daisysp
   7:../../DaisySP/Source/Noise/whitenoise.h **** {
   8:../../DaisySP/Source/Noise/whitenoise.h **** /** fast white noise generator
   9:../../DaisySP/Source/Noise/whitenoise.h **** 
  10:../../DaisySP/Source/Noise/whitenoise.h ****     I think this came from musicdsp.org at some point
  11:../../DaisySP/Source/Noise/whitenoise.h **** */
  12:../../DaisySP/Source/Noise/whitenoise.h **** class WhiteNoise
  13:../../DaisySP/Source/Noise/whitenoise.h **** {
  14:../../DaisySP/Source/Noise/whitenoise.h ****   public:
  15:../../DaisySP/Source/Noise/whitenoise.h ****     WhiteNoise() {}
  16:../../DaisySP/Source/Noise/whitenoise.h ****     ~WhiteNoise() {}
  30              		.loc 1 16 5 view -0
  31              		.cfi_startproc
  32              		@ args = 0, pretend = 0, frame = 0
  33              		@ frame_needed = 0, uses_anonymous_args = 0
  34              		@ link register save eliminated.
  35              		.loc 1 16 20 is_stmt 0 view .LVU1
  36 0000 7047     		bx	lr
  37              		.cfi_endproc
  38              	.LFE3188:
  40              		.weak	_ZN7daisysp10WhiteNoiseD1Ev
  41              		.thumb_set _ZN7daisysp10WhiteNoiseD1Ev,_ZN7daisysp10WhiteNoiseD2Ev
  42 0002 00BF     		.section	.text._ZN5daisy10DaisyPatchD2Ev,"axG",%progbits,_ZN5daisy10DaisyPatchD5Ev,comdat
  43              		.align	1
ARM GAS  /tmp/cc3v7X8N.s 			page 2


  44              		.p2align 2,,3
  45              		.weak	_ZN5daisy10DaisyPatchD2Ev
  46              		.syntax unified
  47              		.thumb
  48              		.thumb_func
  49              		.fpu fpv5-d16
  51              	_ZN5daisy10DaisyPatchD2Ev:
  52              	.LVL1:
  53              	.LFB4230:
  54              		.file 2 "../../libdaisy/src/daisy_patch.h"
   1:../../libdaisy/src/daisy_patch.h **** #pragma once
   2:../../libdaisy/src/daisy_patch.h **** #ifndef DSY_PATCH_BSP_H
   3:../../libdaisy/src/daisy_patch.h **** #define DSY_PATCH_BSP_H
   4:../../libdaisy/src/daisy_patch.h **** #include "daisy_seed.h"
   5:../../libdaisy/src/daisy_patch.h **** #include "dev/oled_ssd130x.h"
   6:../../libdaisy/src/daisy_patch.h **** 
   7:../../libdaisy/src/daisy_patch.h **** namespace daisy
   8:../../libdaisy/src/daisy_patch.h **** {
   9:../../libdaisy/src/daisy_patch.h **** /**
  10:../../libdaisy/src/daisy_patch.h ****     @brief Class that handles initializing all of the hardware specific to the Daisy Patch Board. \
  11:../../libdaisy/src/daisy_patch.h ****     Helper funtions are also in place to provide easy access to built-in controls and peripherals.
  12:../../libdaisy/src/daisy_patch.h ****     @author Stephen Hensley
  13:../../libdaisy/src/daisy_patch.h ****     @date November 2019
  14:../../libdaisy/src/daisy_patch.h ****     @ingroup boards
  15:../../libdaisy/src/daisy_patch.h **** */
  16:../../libdaisy/src/daisy_patch.h **** class DaisyPatch
  17:../../libdaisy/src/daisy_patch.h **** {
  18:../../libdaisy/src/daisy_patch.h ****   public:
  19:../../libdaisy/src/daisy_patch.h ****     /** Enum of Ctrls to represent the four CV/Knob combos on the Patch
  20:../../libdaisy/src/daisy_patch.h ****      */
  21:../../libdaisy/src/daisy_patch.h ****     enum Ctrl
  22:../../libdaisy/src/daisy_patch.h ****     {
  23:../../libdaisy/src/daisy_patch.h ****         CTRL_1,    /**< */
  24:../../libdaisy/src/daisy_patch.h ****         CTRL_2,    /**< */
  25:../../libdaisy/src/daisy_patch.h ****         CTRL_3,    /**< */
  26:../../libdaisy/src/daisy_patch.h ****         CTRL_4,    /**< */
  27:../../libdaisy/src/daisy_patch.h ****         CTRL_LAST, /**< */
  28:../../libdaisy/src/daisy_patch.h ****     };
  29:../../libdaisy/src/daisy_patch.h **** 
  30:../../libdaisy/src/daisy_patch.h ****     /** Daisy patch gate inputs */
  31:../../libdaisy/src/daisy_patch.h ****     enum GateInput
  32:../../libdaisy/src/daisy_patch.h ****     {
  33:../../libdaisy/src/daisy_patch.h ****         GATE_IN_1,    /**< */
  34:../../libdaisy/src/daisy_patch.h ****         GATE_IN_2,    /** <*/
  35:../../libdaisy/src/daisy_patch.h ****         GATE_IN_LAST, /**< */
  36:../../libdaisy/src/daisy_patch.h ****     };
  37:../../libdaisy/src/daisy_patch.h **** 
  38:../../libdaisy/src/daisy_patch.h ****     /** Constructor */
  39:../../libdaisy/src/daisy_patch.h ****     DaisyPatch() {}
  40:../../libdaisy/src/daisy_patch.h ****     /** Destructor */
  41:../../libdaisy/src/daisy_patch.h ****     ~DaisyPatch() {}
  55              		.loc 2 41 5 is_stmt 1 view -0
  56              		.cfi_startproc
  57              		@ args = 0, pretend = 0, frame = 0
  58              		@ frame_needed = 0, uses_anonymous_args = 0
  59              		@ link register save eliminated.
  60              	.LBB681:
ARM GAS  /tmp/cc3v7X8N.s 			page 3


  61              	.LBI681:
  62              		.file 3 "../../libdaisy/src/hid/disp/oled_display.h"
   1:../../libdaisy/src/hid/disp/oled_display.h **** #pragma once
   2:../../libdaisy/src/hid/disp/oled_display.h **** #ifndef DSY_OLED_DISPLAY_H
   3:../../libdaisy/src/hid/disp/oled_display.h **** #define DSY_OLED_DISPLAY_H /**< Macro */
   4:../../libdaisy/src/hid/disp/oled_display.h **** 
   5:../../libdaisy/src/hid/disp/oled_display.h **** #include "display.h"
   6:../../libdaisy/src/hid/disp/oled_display.h **** 
   7:../../libdaisy/src/hid/disp/oled_display.h **** namespace daisy
   8:../../libdaisy/src/hid/disp/oled_display.h **** {
   9:../../libdaisy/src/hid/disp/oled_display.h **** /** 
  10:../../libdaisy/src/hid/disp/oled_display.h ****  * This class is for drawing to a monochrome OLED display. 
  11:../../libdaisy/src/hid/disp/oled_display.h **** */
  12:../../libdaisy/src/hid/disp/oled_display.h **** template <typename DisplayDriver>
  13:../../libdaisy/src/hid/disp/oled_display.h **** class OledDisplay : public OneBitGraphicsDisplayImpl<OledDisplay<DisplayDriver>>
  14:../../libdaisy/src/hid/disp/oled_display.h **** {
  15:../../libdaisy/src/hid/disp/oled_display.h ****   public:
  16:../../libdaisy/src/hid/disp/oled_display.h ****     OledDisplay() {}
  17:../../libdaisy/src/hid/disp/oled_display.h ****     virtual ~OledDisplay() {}
  63              		.loc 3 17 13 view .LVU3
  64              	.LBB682:
  65              	.LBI682:
  66              		.file 4 "../../libdaisy/src/hid/disp/display.h"
   1:../../libdaisy/src/hid/disp/display.h **** #pragma once
   2:../../libdaisy/src/hid/disp/display.h **** #ifndef DSY_DISPLAY_H
   3:../../libdaisy/src/hid/disp/display.h **** #define DSY_DISPLAY_H /**< Macro */
   4:../../libdaisy/src/hid/disp/display.h **** #include <cmath>
   5:../../libdaisy/src/hid/disp/display.h **** #include "util/oled_fonts.h"
   6:../../libdaisy/src/hid/disp/display.h **** #include "daisy_core.h"
   7:../../libdaisy/src/hid/disp/display.h **** #include "graphics_common.h"
   8:../../libdaisy/src/hid/disp/display.h **** 
   9:../../libdaisy/src/hid/disp/display.h **** #ifndef deg2rad
  10:../../libdaisy/src/hid/disp/display.h **** #define deg2rad(deg) ((deg)*3.141592 / 180.0)
  11:../../libdaisy/src/hid/disp/display.h **** #endif
  12:../../libdaisy/src/hid/disp/display.h **** 
  13:../../libdaisy/src/hid/disp/display.h **** namespace daisy
  14:../../libdaisy/src/hid/disp/display.h **** {
  15:../../libdaisy/src/hid/disp/display.h **** /** 
  16:../../libdaisy/src/hid/disp/display.h ****  * This interface is used as a base class for all types of 1bit-per-pixel
  17:../../libdaisy/src/hid/disp/display.h ****  * graphics displays.
  18:../../libdaisy/src/hid/disp/display.h **** */
  19:../../libdaisy/src/hid/disp/display.h **** class OneBitGraphicsDisplay
  20:../../libdaisy/src/hid/disp/display.h **** {
  21:../../libdaisy/src/hid/disp/display.h ****   public:
  22:../../libdaisy/src/hid/disp/display.h ****     OneBitGraphicsDisplay() {}
  23:../../libdaisy/src/hid/disp/display.h ****     virtual ~OneBitGraphicsDisplay() {}
  24:../../libdaisy/src/hid/disp/display.h **** 
  25:../../libdaisy/src/hid/disp/display.h ****     virtual uint16_t Height() const = 0;
  26:../../libdaisy/src/hid/disp/display.h ****     virtual uint16_t Width() const  = 0;
  27:../../libdaisy/src/hid/disp/display.h **** 
  28:../../libdaisy/src/hid/disp/display.h ****     Rectangle GetBounds() const
  29:../../libdaisy/src/hid/disp/display.h ****     {
  30:../../libdaisy/src/hid/disp/display.h ****         return Rectangle(int16_t(Width()), int16_t(Height()));
  31:../../libdaisy/src/hid/disp/display.h ****     }
  32:../../libdaisy/src/hid/disp/display.h **** 
  33:../../libdaisy/src/hid/disp/display.h **** 
  34:../../libdaisy/src/hid/disp/display.h ****     size_t CurrentX() { return currentX_; };
ARM GAS  /tmp/cc3v7X8N.s 			page 4


  35:../../libdaisy/src/hid/disp/display.h ****     size_t CurrentY() { return currentY_; };
  36:../../libdaisy/src/hid/disp/display.h **** 
  37:../../libdaisy/src/hid/disp/display.h ****     /** 
  38:../../libdaisy/src/hid/disp/display.h ****     Fills the entire display with either on/off.
  39:../../libdaisy/src/hid/disp/display.h ****     \param on Sets on or off.
  40:../../libdaisy/src/hid/disp/display.h ****     */
  41:../../libdaisy/src/hid/disp/display.h ****     virtual void Fill(bool on) = 0;
  42:../../libdaisy/src/hid/disp/display.h **** 
  43:../../libdaisy/src/hid/disp/display.h ****     /**
  44:../../libdaisy/src/hid/disp/display.h ****     Sets the pixel at the specified coordinate to be on/off.
  45:../../libdaisy/src/hid/disp/display.h ****     \param x   x Coordinate
  46:../../libdaisy/src/hid/disp/display.h ****     \param y   y coordinate
  47:../../libdaisy/src/hid/disp/display.h ****     \param on  on or off
  48:../../libdaisy/src/hid/disp/display.h ****     */
  49:../../libdaisy/src/hid/disp/display.h ****     virtual void DrawPixel(uint_fast8_t x, uint_fast8_t y, bool on) = 0;
  50:../../libdaisy/src/hid/disp/display.h **** 
  51:../../libdaisy/src/hid/disp/display.h ****     /**
  52:../../libdaisy/src/hid/disp/display.h ****     Draws a line from (x1, y1) to (y1, y2)
  53:../../libdaisy/src/hid/disp/display.h ****     \param x1  x Coordinate of the starting point
  54:../../libdaisy/src/hid/disp/display.h ****     \param y1  y Coordinate of the starting point
  55:../../libdaisy/src/hid/disp/display.h ****     \param x2  x Coordinate of the ending point
  56:../../libdaisy/src/hid/disp/display.h ****     \param y2  y Coordinate of the ending point
  57:../../libdaisy/src/hid/disp/display.h ****     \param on  on or off
  58:../../libdaisy/src/hid/disp/display.h ****     */
  59:../../libdaisy/src/hid/disp/display.h ****     virtual void DrawLine(uint_fast8_t x1,
  60:../../libdaisy/src/hid/disp/display.h ****                           uint_fast8_t y1,
  61:../../libdaisy/src/hid/disp/display.h ****                           uint_fast8_t x2,
  62:../../libdaisy/src/hid/disp/display.h ****                           uint_fast8_t y2,
  63:../../libdaisy/src/hid/disp/display.h ****                           bool         on)
  64:../../libdaisy/src/hid/disp/display.h ****         = 0;
  65:../../libdaisy/src/hid/disp/display.h **** 
  66:../../libdaisy/src/hid/disp/display.h ****     /**
  67:../../libdaisy/src/hid/disp/display.h ****     Draws a rectangle based on two coordinates.
  68:../../libdaisy/src/hid/disp/display.h ****     \param x1 x Coordinate of the first point
  69:../../libdaisy/src/hid/disp/display.h ****     \param y1 y Coordinate of the first point
  70:../../libdaisy/src/hid/disp/display.h ****     \param x2 x Coordinate of the second point
  71:../../libdaisy/src/hid/disp/display.h ****     \param y2 y Coordinate of the second point
  72:../../libdaisy/src/hid/disp/display.h ****     \param on on or off
  73:../../libdaisy/src/hid/disp/display.h ****     \param fill fill the rectangle or draw only the outline
  74:../../libdaisy/src/hid/disp/display.h ****     */
  75:../../libdaisy/src/hid/disp/display.h ****     virtual void DrawRect(uint_fast8_t x1,
  76:../../libdaisy/src/hid/disp/display.h ****                           uint_fast8_t y1,
  77:../../libdaisy/src/hid/disp/display.h ****                           uint_fast8_t x2,
  78:../../libdaisy/src/hid/disp/display.h ****                           uint_fast8_t y2,
  79:../../libdaisy/src/hid/disp/display.h ****                           bool         on,
  80:../../libdaisy/src/hid/disp/display.h ****                           bool         fill = false)
  81:../../libdaisy/src/hid/disp/display.h ****         = 0;
  82:../../libdaisy/src/hid/disp/display.h **** 
  83:../../libdaisy/src/hid/disp/display.h ****     /**
  84:../../libdaisy/src/hid/disp/display.h ****     Draws a rectangle.
  85:../../libdaisy/src/hid/disp/display.h ****     \param rect the rectangle
  86:../../libdaisy/src/hid/disp/display.h ****     \param on   on or off
  87:../../libdaisy/src/hid/disp/display.h ****     \param fill fill the rectangle or draw only the outline
  88:../../libdaisy/src/hid/disp/display.h ****     */
  89:../../libdaisy/src/hid/disp/display.h ****     void DrawRect(const Rectangle& rect, bool on, bool fill = false)
  90:../../libdaisy/src/hid/disp/display.h ****     {
  91:../../libdaisy/src/hid/disp/display.h ****         DrawRect(rect.GetX(),
ARM GAS  /tmp/cc3v7X8N.s 			page 5


  92:../../libdaisy/src/hid/disp/display.h ****                  rect.GetY(),
  93:../../libdaisy/src/hid/disp/display.h ****                  rect.GetRight(),
  94:../../libdaisy/src/hid/disp/display.h ****                  rect.GetBottom(),
  95:../../libdaisy/src/hid/disp/display.h ****                  on,
  96:../../libdaisy/src/hid/disp/display.h ****                  fill);
  97:../../libdaisy/src/hid/disp/display.h ****     }
  98:../../libdaisy/src/hid/disp/display.h **** 
  99:../../libdaisy/src/hid/disp/display.h ****     /**
 100:../../libdaisy/src/hid/disp/display.h ****     Draws an arc around the specified coordinate
 101:../../libdaisy/src/hid/disp/display.h ****     \param x           x Coordinate of the center of the arc
 102:../../libdaisy/src/hid/disp/display.h ****     \param y           y Coordinate of the center of the arc
 103:../../libdaisy/src/hid/disp/display.h ****     \param radius      radius of the arc
 104:../../libdaisy/src/hid/disp/display.h ****     \param start_angle angle where to start the arc
 105:../../libdaisy/src/hid/disp/display.h ****     \param sweep       total angle of the arc
 106:../../libdaisy/src/hid/disp/display.h ****     \param on  on or off
 107:../../libdaisy/src/hid/disp/display.h ****     */
 108:../../libdaisy/src/hid/disp/display.h ****     virtual void DrawArc(uint_fast8_t x,
 109:../../libdaisy/src/hid/disp/display.h ****                          uint_fast8_t y,
 110:../../libdaisy/src/hid/disp/display.h ****                          uint_fast8_t radius,
 111:../../libdaisy/src/hid/disp/display.h ****                          int_fast16_t start_angle,
 112:../../libdaisy/src/hid/disp/display.h ****                          int_fast16_t sweep,
 113:../../libdaisy/src/hid/disp/display.h ****                          bool         on)
 114:../../libdaisy/src/hid/disp/display.h ****         = 0;
 115:../../libdaisy/src/hid/disp/display.h **** 
 116:../../libdaisy/src/hid/disp/display.h ****     /**
 117:../../libdaisy/src/hid/disp/display.h ****     Draws a circle around the specified coordinate
 118:../../libdaisy/src/hid/disp/display.h ****     \param x           x Coordinate of the center of the circle
 119:../../libdaisy/src/hid/disp/display.h ****     \param y           y Coordinate of the center of the circle
 120:../../libdaisy/src/hid/disp/display.h ****     \param radius      radius of the circle
 121:../../libdaisy/src/hid/disp/display.h ****     \param on  on or off
 122:../../libdaisy/src/hid/disp/display.h ****     */
 123:../../libdaisy/src/hid/disp/display.h ****     void
 124:../../libdaisy/src/hid/disp/display.h ****     DrawCircle(uint_fast8_t x, uint_fast8_t y, uint_fast8_t radius, bool on)
 125:../../libdaisy/src/hid/disp/display.h ****     {
 126:../../libdaisy/src/hid/disp/display.h ****         DrawArc(x, y, radius, 0, 360, on);
 127:../../libdaisy/src/hid/disp/display.h ****     };
 128:../../libdaisy/src/hid/disp/display.h **** 
 129:../../libdaisy/src/hid/disp/display.h ****     /** 
 130:../../libdaisy/src/hid/disp/display.h ****     Writes the character with the specific FontDef
 131:../../libdaisy/src/hid/disp/display.h ****     to the display buffer at the current Cursor position.
 132:../../libdaisy/src/hid/disp/display.h ****     \param ch character to be written
 133:../../libdaisy/src/hid/disp/display.h ****     \param font font to be written in
 134:../../libdaisy/src/hid/disp/display.h ****     \param on    on or off
 135:../../libdaisy/src/hid/disp/display.h ****     \return &
 136:../../libdaisy/src/hid/disp/display.h ****     */
 137:../../libdaisy/src/hid/disp/display.h ****     virtual char WriteChar(char ch, FontDef font, bool on) = 0;
 138:../../libdaisy/src/hid/disp/display.h **** 
 139:../../libdaisy/src/hid/disp/display.h ****     /** 
 140:../../libdaisy/src/hid/disp/display.h ****     Similar to WriteChar, except it will handle an entire String.
 141:../../libdaisy/src/hid/disp/display.h ****     Wrapping does not happen automatically, so the width
 142:../../libdaisy/src/hid/disp/display.h ****     of the string must be kept within the dimensions of the screen.
 143:../../libdaisy/src/hid/disp/display.h ****     \param str string to be written
 144:../../libdaisy/src/hid/disp/display.h ****     \param font font to use
 145:../../libdaisy/src/hid/disp/display.h ****     \param on  on or off
 146:../../libdaisy/src/hid/disp/display.h ****     \return &
 147:../../libdaisy/src/hid/disp/display.h ****     */
 148:../../libdaisy/src/hid/disp/display.h ****     virtual char WriteString(const char* str, FontDef font, bool on) = 0;
ARM GAS  /tmp/cc3v7X8N.s 			page 6


 149:../../libdaisy/src/hid/disp/display.h **** 
 150:../../libdaisy/src/hid/disp/display.h ****     /** 
 151:../../libdaisy/src/hid/disp/display.h ****     Similar to WriteString but justified within a bounding box.
 152:../../libdaisy/src/hid/disp/display.h ****     \param str          string to be written
 153:../../libdaisy/src/hid/disp/display.h ****     \param font         font to use
 154:../../libdaisy/src/hid/disp/display.h ****     \param boundingBox  the bounding box to draw the text in
 155:../../libdaisy/src/hid/disp/display.h ****     \param alignment    the alignment to use
 156:../../libdaisy/src/hid/disp/display.h ****     \param on           on or off
 157:../../libdaisy/src/hid/disp/display.h ****     \return The rectangle that was drawn to
 158:../../libdaisy/src/hid/disp/display.h ****     */
 159:../../libdaisy/src/hid/disp/display.h ****     virtual Rectangle WriteStringAligned(const char*    str,
 160:../../libdaisy/src/hid/disp/display.h ****                                          const FontDef& font,
 161:../../libdaisy/src/hid/disp/display.h ****                                          Rectangle      boundingBox,
 162:../../libdaisy/src/hid/disp/display.h ****                                          Alignment      alignment,
 163:../../libdaisy/src/hid/disp/display.h ****                                          bool           on)
 164:../../libdaisy/src/hid/disp/display.h ****         = 0;
 165:../../libdaisy/src/hid/disp/display.h **** 
 166:../../libdaisy/src/hid/disp/display.h ****     /** 
 167:../../libdaisy/src/hid/disp/display.h ****     Moves the 'Cursor' position used for WriteChar, and WriteStr to the specified coordinate.
 168:../../libdaisy/src/hid/disp/display.h ****     \param x x pos
 169:../../libdaisy/src/hid/disp/display.h ****     \param y y pos
 170:../../libdaisy/src/hid/disp/display.h ****     */
 171:../../libdaisy/src/hid/disp/display.h ****     void SetCursor(uint16_t x, uint16_t y)
 172:../../libdaisy/src/hid/disp/display.h ****     {
 173:../../libdaisy/src/hid/disp/display.h ****         currentX_ = (x >= Width()) ? Width() - 1 : x;
 174:../../libdaisy/src/hid/disp/display.h ****         currentY_ = (y >= Height()) ? Height() - 1 : y;
 175:../../libdaisy/src/hid/disp/display.h ****     }
 176:../../libdaisy/src/hid/disp/display.h **** 
 177:../../libdaisy/src/hid/disp/display.h ****     /** 
 178:../../libdaisy/src/hid/disp/display.h ****     Writes the current display buffer to the OLED device using SPI or I2C depending on 
 179:../../libdaisy/src/hid/disp/display.h ****     how the object was initialized.
 180:../../libdaisy/src/hid/disp/display.h ****     */
 181:../../libdaisy/src/hid/disp/display.h ****     virtual void Update() = 0;
 182:../../libdaisy/src/hid/disp/display.h **** 
 183:../../libdaisy/src/hid/disp/display.h ****   protected:
 184:../../libdaisy/src/hid/disp/display.h ****     uint16_t currentX_;
 185:../../libdaisy/src/hid/disp/display.h ****     uint16_t currentY_;
 186:../../libdaisy/src/hid/disp/display.h **** };
 187:../../libdaisy/src/hid/disp/display.h **** 
 188:../../libdaisy/src/hid/disp/display.h **** /** This class is intended as a intermediary class for your actual implementation of the OneBitGrap
 189:../../libdaisy/src/hid/disp/display.h ****  *  interface. It uses the CRTP design pattern where the template argument is the child class. It p
 190:../../libdaisy/src/hid/disp/display.h ****  *  implementations for most of the functions, except DrawPixel(), Update() and Fill(), which you'l
 191:../../libdaisy/src/hid/disp/display.h ****  *  to provide in your child class.
 192:../../libdaisy/src/hid/disp/display.h ****  *  The main goal of this class is to provide common drawing functions without relying on massive a
 193:../../libdaisy/src/hid/disp/display.h ****  *  virtual function calls that would result in a performance loss. To achieve this, any drawing fu
 194:../../libdaisy/src/hid/disp/display.h ****  *  is implemented here and internally calls other drawing functions (e.g. DrawRect() which interna
 195:../../libdaisy/src/hid/disp/display.h ****  *  DrawPixel() and DrawLine()) makes these calls via the qualified name of these functions to expl
 196:../../libdaisy/src/hid/disp/display.h ****  *  suppress the virtual dispatch mechanism like this:
 197:../../libdaisy/src/hid/disp/display.h ****  * 
 198:../../libdaisy/src/hid/disp/display.h ****  *      ChildType::DrawPixel(...); // no virtual function call; direct call into the child class fu
 199:../../libdaisy/src/hid/disp/display.h ****  *  
 200:../../libdaisy/src/hid/disp/display.h ****  *  To create a custom OneBitGraphicsDisplay implementation, you can 
 201:../../libdaisy/src/hid/disp/display.h ****  *  A) inherit from OneBitGraphicsDisplay directly and provide all the drawing functions yourself
 202:../../libdaisy/src/hid/disp/display.h ****  *  B) Inherit from OneBitGraphicsDisplayImpl and only provide DrawPixel(), Fill() and Update()
 203:../../libdaisy/src/hid/disp/display.h ****  *     like this:
 204:../../libdaisy/src/hid/disp/display.h ****  *  
 205:../../libdaisy/src/hid/disp/display.h ****  *      class MyDisplayClass : public OneBitGraphicsDisplayImpl<MyDisplayClass> 
ARM GAS  /tmp/cc3v7X8N.s 			page 7


 206:../../libdaisy/src/hid/disp/display.h ****  *      {
 207:../../libdaisy/src/hid/disp/display.h ****  *      public:
 208:../../libdaisy/src/hid/disp/display.h ****  *          void Fill() override { ... };
 209:../../libdaisy/src/hid/disp/display.h ****  *          void DrawPixel(uint_fast8_t x, uint_fast8_t y, bool on) override { ... };
 210:../../libdaisy/src/hid/disp/display.h ****  *          void Update() override { ... }
 211:../../libdaisy/src/hid/disp/display.h ****  *      };
 212:../../libdaisy/src/hid/disp/display.h ****  *  
 213:../../libdaisy/src/hid/disp/display.h ****  */
 214:../../libdaisy/src/hid/disp/display.h **** template <class ChildType>
 215:../../libdaisy/src/hid/disp/display.h **** class OneBitGraphicsDisplayImpl : public OneBitGraphicsDisplay
 216:../../libdaisy/src/hid/disp/display.h **** {
 217:../../libdaisy/src/hid/disp/display.h ****   public:
 218:../../libdaisy/src/hid/disp/display.h ****     OneBitGraphicsDisplayImpl() {}
 219:../../libdaisy/src/hid/disp/display.h ****     virtual ~OneBitGraphicsDisplayImpl() {}
  67              		.loc 4 219 13 view .LVU4
  68              	.LBB683:
  69              	.LBI683:
  23:../../libdaisy/src/hid/disp/display.h **** 
  70              		.loc 4 23 13 view .LVU5
  23:../../libdaisy/src/hid/disp/display.h **** 
  71              		.loc 4 23 13 is_stmt 0 view .LVU6
  72              	.LBE683:
  73              	.LBE682:
  74              	.LBE681:
  75              	.LBB684:
  76              	.LBI684:
  77              		.file 5 "../../libdaisy/src/hid/midi.h"
   1:../../libdaisy/src/hid/midi.h **** #pragma once
   2:../../libdaisy/src/hid/midi.h **** #ifndef DSY_MIDI_H
   3:../../libdaisy/src/hid/midi.h **** #define DSY_MIDI_H
   4:../../libdaisy/src/hid/midi.h **** 
   5:../../libdaisy/src/hid/midi.h **** // TODO: make this adjustable
   6:../../libdaisy/src/hid/midi.h **** #define SYSEX_BUFFER_LEN 128
   7:../../libdaisy/src/hid/midi.h **** 
   8:../../libdaisy/src/hid/midi.h **** #include <stdint.h>
   9:../../libdaisy/src/hid/midi.h **** #include <stdlib.h>
  10:../../libdaisy/src/hid/midi.h **** #include "per/uart.h"
  11:../../libdaisy/src/hid/midi.h **** #include "util/ringbuffer.h"
  12:../../libdaisy/src/hid/midi.h **** #include "hid/MidiEvent.h"
  13:../../libdaisy/src/hid/midi.h **** #include "sys/system.h"
  14:../../libdaisy/src/hid/midi.h **** 
  15:../../libdaisy/src/hid/midi.h **** namespace daisy
  16:../../libdaisy/src/hid/midi.h **** {
  17:../../libdaisy/src/hid/midi.h **** /** @addtogroup external 
  18:../../libdaisy/src/hid/midi.h ****     @{ 
  19:../../libdaisy/src/hid/midi.h **** */
  20:../../libdaisy/src/hid/midi.h **** 
  21:../../libdaisy/src/hid/midi.h **** class MidiUartTransport
  22:../../libdaisy/src/hid/midi.h **** {
  23:../../libdaisy/src/hid/midi.h ****   public:
  24:../../libdaisy/src/hid/midi.h ****     MidiUartTransport() {}
  25:../../libdaisy/src/hid/midi.h ****     ~MidiUartTransport() {}
  26:../../libdaisy/src/hid/midi.h **** 
  27:../../libdaisy/src/hid/midi.h ****     struct Config
  28:../../libdaisy/src/hid/midi.h ****     {
  29:../../libdaisy/src/hid/midi.h ****         UartHandler::Config::Peripheral periph;
  30:../../libdaisy/src/hid/midi.h ****         dsy_gpio_pin                    rx;
ARM GAS  /tmp/cc3v7X8N.s 			page 8


  31:../../libdaisy/src/hid/midi.h ****         dsy_gpio_pin                    tx;
  32:../../libdaisy/src/hid/midi.h **** 
  33:../../libdaisy/src/hid/midi.h ****         Config()
  34:../../libdaisy/src/hid/midi.h ****         {
  35:../../libdaisy/src/hid/midi.h ****             periph = UartHandler::Config::Peripheral::USART_1;
  36:../../libdaisy/src/hid/midi.h ****             rx     = {DSY_GPIOB, 7};
  37:../../libdaisy/src/hid/midi.h ****             tx     = {DSY_GPIOB, 6};
  38:../../libdaisy/src/hid/midi.h ****         }
  39:../../libdaisy/src/hid/midi.h ****     };
  40:../../libdaisy/src/hid/midi.h **** 
  41:../../libdaisy/src/hid/midi.h ****     inline void Init(Config config)
  42:../../libdaisy/src/hid/midi.h ****     {
  43:../../libdaisy/src/hid/midi.h ****         UartHandler::Config uart_config;
  44:../../libdaisy/src/hid/midi.h **** 
  45:../../libdaisy/src/hid/midi.h ****         //defaults
  46:../../libdaisy/src/hid/midi.h ****         uart_config.baudrate   = 31250;
  47:../../libdaisy/src/hid/midi.h ****         uart_config.stopbits   = UartHandler::Config::StopBits::BITS_1;
  48:../../libdaisy/src/hid/midi.h ****         uart_config.parity     = UartHandler::Config::Parity::NONE;
  49:../../libdaisy/src/hid/midi.h ****         uart_config.mode       = UartHandler::Config::Mode::TX_RX;
  50:../../libdaisy/src/hid/midi.h ****         uart_config.wordlength = UartHandler::Config::WordLength::BITS_8;
  51:../../libdaisy/src/hid/midi.h **** 
  52:../../libdaisy/src/hid/midi.h ****         //user settings
  53:../../libdaisy/src/hid/midi.h ****         uart_config.periph        = config.periph;
  54:../../libdaisy/src/hid/midi.h ****         uart_config.pin_config.rx = config.rx;
  55:../../libdaisy/src/hid/midi.h ****         uart_config.pin_config.tx = config.tx;
  56:../../libdaisy/src/hid/midi.h **** 
  57:../../libdaisy/src/hid/midi.h ****         uart_.Init(uart_config);
  58:../../libdaisy/src/hid/midi.h ****     }
  59:../../libdaisy/src/hid/midi.h **** 
  60:../../libdaisy/src/hid/midi.h ****     inline void    StartRx() { uart_.StartRx(); }
  61:../../libdaisy/src/hid/midi.h ****     inline size_t  Readable() { return uart_.Readable(); }
  62:../../libdaisy/src/hid/midi.h ****     inline uint8_t Rx() { return uart_.PopRx(); }
  63:../../libdaisy/src/hid/midi.h ****     inline bool    RxActive() { return uart_.RxActive(); }
  64:../../libdaisy/src/hid/midi.h ****     inline void    FlushRx() { uart_.FlushRx(); }
  65:../../libdaisy/src/hid/midi.h ****     inline void    Tx(uint8_t* buff, size_t size) { uart_.PollTx(buff, size); }
  66:../../libdaisy/src/hid/midi.h **** 
  67:../../libdaisy/src/hid/midi.h ****   private:
  68:../../libdaisy/src/hid/midi.h ****     UartHandler uart_;
  69:../../libdaisy/src/hid/midi.h **** };
  70:../../libdaisy/src/hid/midi.h **** 
  71:../../libdaisy/src/hid/midi.h **** /** 
  72:../../libdaisy/src/hid/midi.h ****     @brief Simple MIDI Handler \n 
  73:../../libdaisy/src/hid/midi.h ****     Parses bytes from an input into valid MidiEvents. \n 
  74:../../libdaisy/src/hid/midi.h ****     The MidiEvents fill a FIFO queue that the user can pop messages from.
  75:../../libdaisy/src/hid/midi.h ****     @author shensley
  76:../../libdaisy/src/hid/midi.h ****     @date March 2020
  77:../../libdaisy/src/hid/midi.h **** */
  78:../../libdaisy/src/hid/midi.h **** template <typename Transport>
  79:../../libdaisy/src/hid/midi.h **** class MidiHandler
  80:../../libdaisy/src/hid/midi.h **** {
  81:../../libdaisy/src/hid/midi.h ****   public:
  82:../../libdaisy/src/hid/midi.h ****     MidiHandler() {}
  83:../../libdaisy/src/hid/midi.h ****     ~MidiHandler() {}
  78              		.loc 5 83 5 is_stmt 1 view .LVU7
  79              	.LBB685:
  80              	.LBI685:
  25:../../libdaisy/src/hid/midi.h **** 
ARM GAS  /tmp/cc3v7X8N.s 			page 9


  81              		.loc 5 25 5 view .LVU8
  25:../../libdaisy/src/hid/midi.h **** 
  82              		.loc 5 25 5 is_stmt 0 view .LVU9
  83              	.LBE685:
  84              	.LBE684:
  85              	.LBB686:
  86              	.LBI686:
  87              		.file 6 "../../libdaisy/src/hid/encoder.h"
   1:../../libdaisy/src/hid/encoder.h **** #pragma once
   2:../../libdaisy/src/hid/encoder.h **** #ifndef DSY_ENCODER_H
   3:../../libdaisy/src/hid/encoder.h **** #define DSY_ENCODER_H
   4:../../libdaisy/src/hid/encoder.h **** #include "daisy_core.h"
   5:../../libdaisy/src/hid/encoder.h **** #include "per/gpio.h"
   6:../../libdaisy/src/hid/encoder.h **** #include "hid/switch.h"
   7:../../libdaisy/src/hid/encoder.h **** 
   8:../../libdaisy/src/hid/encoder.h **** namespace daisy
   9:../../libdaisy/src/hid/encoder.h **** {
  10:../../libdaisy/src/hid/encoder.h **** /** 
  11:../../libdaisy/src/hid/encoder.h ****     @brief Generic Class for handling Quadrature Encoders \n 
  12:../../libdaisy/src/hid/encoder.h ****     Inspired/influenced by Mutable Instruments (pichenettes) Encoder classes
  13:../../libdaisy/src/hid/encoder.h ****     @author Stephen Hensley
  14:../../libdaisy/src/hid/encoder.h ****     @date December 2019
  15:../../libdaisy/src/hid/encoder.h ****     @ingroup controls
  16:../../libdaisy/src/hid/encoder.h **** */
  17:../../libdaisy/src/hid/encoder.h **** class Encoder
  18:../../libdaisy/src/hid/encoder.h **** {
  19:../../libdaisy/src/hid/encoder.h ****   public:
  20:../../libdaisy/src/hid/encoder.h ****     Encoder() {}
  21:../../libdaisy/src/hid/encoder.h ****     ~Encoder() {}
  88              		.loc 6 21 5 is_stmt 1 view .LVU10
  89              	.LBB687:
  90              	.LBI687:
  91              		.file 7 "../../libdaisy/src/hid/switch.h"
   1:../../libdaisy/src/hid/switch.h **** #pragma once
   2:../../libdaisy/src/hid/switch.h **** #ifndef DSY_SWITCH_H
   3:../../libdaisy/src/hid/switch.h **** #define DSY_SWITCH_H
   4:../../libdaisy/src/hid/switch.h **** #include "daisy_core.h"
   5:../../libdaisy/src/hid/switch.h **** #include "per/gpio.h"
   6:../../libdaisy/src/hid/switch.h **** 
   7:../../libdaisy/src/hid/switch.h **** namespace daisy
   8:../../libdaisy/src/hid/switch.h **** {
   9:../../libdaisy/src/hid/switch.h **** /** 
  10:../../libdaisy/src/hid/switch.h ****     Generic Class for handling momentary/latching switches \n 
  11:../../libdaisy/src/hid/switch.h ****     Inspired/influenced by Mutable Instruments (pichenettes) Switch classes
  12:../../libdaisy/src/hid/switch.h ****     @author Stephen Hensley
  13:../../libdaisy/src/hid/switch.h ****     @date December 2019
  14:../../libdaisy/src/hid/switch.h ****     @ingroup controls
  15:../../libdaisy/src/hid/switch.h **** */
  16:../../libdaisy/src/hid/switch.h **** class Switch
  17:../../libdaisy/src/hid/switch.h **** {
  18:../../libdaisy/src/hid/switch.h ****   public:
  19:../../libdaisy/src/hid/switch.h ****     /** Specifies the expected behavior of the switch */
  20:../../libdaisy/src/hid/switch.h ****     enum Type
  21:../../libdaisy/src/hid/switch.h ****     {
  22:../../libdaisy/src/hid/switch.h ****         TYPE_TOGGLE,    /**< & */
  23:../../libdaisy/src/hid/switch.h ****         TYPE_MOMENTARY, /**< & */
  24:../../libdaisy/src/hid/switch.h ****     };
ARM GAS  /tmp/cc3v7X8N.s 			page 10


  25:../../libdaisy/src/hid/switch.h ****     /** Specifies whether the pressed is HIGH or LOW. */
  26:../../libdaisy/src/hid/switch.h ****     enum Polarity
  27:../../libdaisy/src/hid/switch.h ****     {
  28:../../libdaisy/src/hid/switch.h ****         POLARITY_NORMAL,   /**< & */
  29:../../libdaisy/src/hid/switch.h ****         POLARITY_INVERTED, /**< & */
  30:../../libdaisy/src/hid/switch.h ****     };
  31:../../libdaisy/src/hid/switch.h **** 
  32:../../libdaisy/src/hid/switch.h ****     /** Specifies whether to use built-in Pull Up/Down resistors to hold button at a given state wh
  33:../../libdaisy/src/hid/switch.h ****     enum Pull
  34:../../libdaisy/src/hid/switch.h ****     {
  35:../../libdaisy/src/hid/switch.h ****         PULL_UP,   /**< & */
  36:../../libdaisy/src/hid/switch.h ****         PULL_DOWN, /**< & */
  37:../../libdaisy/src/hid/switch.h ****         PULL_NONE, /**< & */
  38:../../libdaisy/src/hid/switch.h ****     };
  39:../../libdaisy/src/hid/switch.h **** 
  40:../../libdaisy/src/hid/switch.h ****     Switch() {}
  41:../../libdaisy/src/hid/switch.h ****     ~Switch() {}
  92              		.loc 7 41 5 view .LVU11
  93              		.loc 7 41 5 is_stmt 0 view .LVU12
  94              	.LBE687:
  95              	.LBE686:
  96              	.LBB688:
  97              	.LBI688:
  98              		.file 8 "../../libdaisy/src/daisy_seed.h"
   1:../../libdaisy/src/daisy_seed.h **** #pragma once
   2:../../libdaisy/src/daisy_seed.h **** #ifndef DSY_SEED_H
   3:../../libdaisy/src/daisy_seed.h **** #define DSY_SEED_H
   4:../../libdaisy/src/daisy_seed.h **** 
   5:../../libdaisy/src/daisy_seed.h **** #include "daisy.h"
   6:../../libdaisy/src/daisy_seed.h **** 
   7:../../libdaisy/src/daisy_seed.h **** //Uncomment this out if you're still using the rev2 hardware
   8:../../libdaisy/src/daisy_seed.h **** //#define SEED_REV2
   9:../../libdaisy/src/daisy_seed.h **** 
  10:../../libdaisy/src/daisy_seed.h **** namespace daisy
  11:../../libdaisy/src/daisy_seed.h **** {
  12:../../libdaisy/src/daisy_seed.h **** /**
  13:../../libdaisy/src/daisy_seed.h ****    @brief This is the higher-level interface for the Daisy board. \n 
  14:../../libdaisy/src/daisy_seed.h ****     All basic peripheral configuration/initialization is setup here. \n
  15:../../libdaisy/src/daisy_seed.h **** 
  16:../../libdaisy/src/daisy_seed.h ****    @ingroup boards
  17:../../libdaisy/src/daisy_seed.h **** */
  18:../../libdaisy/src/daisy_seed.h **** class DaisySeed
  19:../../libdaisy/src/daisy_seed.h **** {
  20:../../libdaisy/src/daisy_seed.h ****   public:
  21:../../libdaisy/src/daisy_seed.h ****     DaisySeed() {}
  22:../../libdaisy/src/daisy_seed.h ****     ~DaisySeed() {}
  99              		.loc 8 22 5 is_stmt 1 view .LVU13
 100              	.LBB689:
 101              	.LBI689:
 102              		.file 9 "../../libdaisy/src/sys/system.h"
   1:../../libdaisy/src/sys/system.h **** #ifndef DSY_SYSTEM_H
   2:../../libdaisy/src/sys/system.h **** #define DSY_SYSTEM_H
   3:../../libdaisy/src/sys/system.h **** 
   4:../../libdaisy/src/sys/system.h **** #ifndef UNIT_TEST // for unit tests, a dummy implementation is provided below
   5:../../libdaisy/src/sys/system.h **** 
   6:../../libdaisy/src/sys/system.h **** #include <cstdint>
   7:../../libdaisy/src/sys/system.h **** #include "per/tim.h"
ARM GAS  /tmp/cc3v7X8N.s 			page 11


   8:../../libdaisy/src/sys/system.h **** 
   9:../../libdaisy/src/sys/system.h **** namespace daisy
  10:../../libdaisy/src/sys/system.h **** {
  11:../../libdaisy/src/sys/system.h **** /** A handle for interacting with the Core System. 
  12:../../libdaisy/src/sys/system.h ****  ** This includes the Clock tree, MPU, global DMA initialization,
  13:../../libdaisy/src/sys/system.h ****  ** cache handling, and any other necessary global initiailzation
  14:../../libdaisy/src/sys/system.h ****  **
  15:../../libdaisy/src/sys/system.h ****  ** @author shensley
  16:../../libdaisy/src/sys/system.h ****  ** @addtogroup system
  17:../../libdaisy/src/sys/system.h ****  */
  18:../../libdaisy/src/sys/system.h **** class System
  19:../../libdaisy/src/sys/system.h **** {
  20:../../libdaisy/src/sys/system.h ****   public:
  21:../../libdaisy/src/sys/system.h ****     /** Contains settings for initializing the System */
  22:../../libdaisy/src/sys/system.h ****     struct Config
  23:../../libdaisy/src/sys/system.h ****     {
  24:../../libdaisy/src/sys/system.h ****         /** Specifies the system clock frequency that feeds APB/AHB clocks, etc. */
  25:../../libdaisy/src/sys/system.h ****         enum class SysClkFreq
  26:../../libdaisy/src/sys/system.h ****         {
  27:../../libdaisy/src/sys/system.h ****             FREQ_400MHZ,
  28:../../libdaisy/src/sys/system.h ****             FREQ_480MHZ,
  29:../../libdaisy/src/sys/system.h ****         };
  30:../../libdaisy/src/sys/system.h **** 
  31:../../libdaisy/src/sys/system.h ****         /** Method to call on the struct to set to defaults
  32:../../libdaisy/src/sys/system.h ****          ** CPU Freq set to 400MHz
  33:../../libdaisy/src/sys/system.h ****          ** Cache Enabled 
  34:../../libdaisy/src/sys/system.h ****          ** */
  35:../../libdaisy/src/sys/system.h ****         void Defaults()
  36:../../libdaisy/src/sys/system.h ****         {
  37:../../libdaisy/src/sys/system.h ****             cpu_freq   = SysClkFreq::FREQ_400MHZ;
  38:../../libdaisy/src/sys/system.h ****             use_dcache = true;
  39:../../libdaisy/src/sys/system.h ****             use_icache = true;
  40:../../libdaisy/src/sys/system.h ****         }
  41:../../libdaisy/src/sys/system.h **** 
  42:../../libdaisy/src/sys/system.h ****         /** Method to call on the struct to set to boost mode:
  43:../../libdaisy/src/sys/system.h ****          ** CPU Freq set to 480MHz
  44:../../libdaisy/src/sys/system.h ****          ** Cache Enabled 
  45:../../libdaisy/src/sys/system.h ****          ** */
  46:../../libdaisy/src/sys/system.h ****         void Boost()
  47:../../libdaisy/src/sys/system.h ****         {
  48:../../libdaisy/src/sys/system.h ****             cpu_freq   = SysClkFreq::FREQ_480MHZ;
  49:../../libdaisy/src/sys/system.h ****             use_dcache = true;
  50:../../libdaisy/src/sys/system.h ****             use_icache = true;
  51:../../libdaisy/src/sys/system.h ****         }
  52:../../libdaisy/src/sys/system.h **** 
  53:../../libdaisy/src/sys/system.h ****         SysClkFreq cpu_freq;
  54:../../libdaisy/src/sys/system.h ****         bool       use_dcache;
  55:../../libdaisy/src/sys/system.h ****         bool       use_icache;
  56:../../libdaisy/src/sys/system.h ****     };
  57:../../libdaisy/src/sys/system.h **** 
  58:../../libdaisy/src/sys/system.h ****     System() {}
  59:../../libdaisy/src/sys/system.h ****     ~System() {}
 103              		.loc 9 59 5 view .LVU14
 104              		.loc 9 59 5 is_stmt 0 view .LVU15
 105              	.LBE689:
 106              	.LBB690:
 107              	.LBI690:
ARM GAS  /tmp/cc3v7X8N.s 			page 12


 108              		.file 10 "../../libdaisy/src/hid/usb.h"
   1:../../libdaisy/src/hid/usb.h **** #pragma once
   2:../../libdaisy/src/hid/usb.h **** #ifndef DSY_HID_USB_H
   3:../../libdaisy/src/hid/usb.h **** #define DSY_HID_USB_H
   4:../../libdaisy/src/hid/usb.h **** #include <stdint.h>
   5:../../libdaisy/src/hid/usb.h **** #include <stdlib.h>
   6:../../libdaisy/src/hid/usb.h **** 
   7:../../libdaisy/src/hid/usb.h **** namespace daisy
   8:../../libdaisy/src/hid/usb.h **** /** @addtogroup externals
   9:../../libdaisy/src/hid/usb.h ****     @{
  10:../../libdaisy/src/hid/usb.h **** */
  11:../../libdaisy/src/hid/usb.h **** 
  12:../../libdaisy/src/hid/usb.h **** {
  13:../../libdaisy/src/hid/usb.h **** /** 
  14:../../libdaisy/src/hid/usb.h ****     @brief Interface for initializing and using the USB Peripherals on the daisy
  15:../../libdaisy/src/hid/usb.h ****     @author Stephen Hensley
  16:../../libdaisy/src/hid/usb.h ****     @date December 2019
  17:../../libdaisy/src/hid/usb.h **** */
  18:../../libdaisy/src/hid/usb.h **** class UsbHandle
  19:../../libdaisy/src/hid/usb.h **** {
  20:../../libdaisy/src/hid/usb.h ****   public:
  21:../../libdaisy/src/hid/usb.h ****     /** Return values for USBHandle Functions */
  22:../../libdaisy/src/hid/usb.h ****     enum class Result
  23:../../libdaisy/src/hid/usb.h ****     {
  24:../../libdaisy/src/hid/usb.h ****         OK,
  25:../../libdaisy/src/hid/usb.h ****         ERR,
  26:../../libdaisy/src/hid/usb.h ****     };
  27:../../libdaisy/src/hid/usb.h **** 
  28:../../libdaisy/src/hid/usb.h ****     /** Specified which of the two USB Peripherals to initialize. */
  29:../../libdaisy/src/hid/usb.h ****     enum UsbPeriph
  30:../../libdaisy/src/hid/usb.h ****     {
  31:../../libdaisy/src/hid/usb.h ****         FS_INTERNAL, /**< Internal pin */
  32:../../libdaisy/src/hid/usb.h ****         FS_EXTERNAL, /**< FS External D+ pin is Pin 38 (GPIO32). FS External D- pin is Pin 37 (GPIO
  33:../../libdaisy/src/hid/usb.h ****         FS_BOTH,     /**< Both */
  34:../../libdaisy/src/hid/usb.h ****     };
  35:../../libdaisy/src/hid/usb.h **** 
  36:../../libdaisy/src/hid/usb.h **** 
  37:../../libdaisy/src/hid/usb.h ****     /** Function called upon reception of a buffer */
  38:../../libdaisy/src/hid/usb.h ****     typedef void (*ReceiveCallback)(uint8_t* buff, uint32_t* len);
  39:../../libdaisy/src/hid/usb.h **** 
  40:../../libdaisy/src/hid/usb.h ****     UsbHandle() {}
  41:../../libdaisy/src/hid/usb.h **** 
  42:../../libdaisy/src/hid/usb.h ****     ~UsbHandle() {}
 109              		.loc 10 42 5 is_stmt 1 view .LVU16
 110              		.loc 10 42 5 is_stmt 0 view .LVU17
 111              	.LBE690:
 112              	.LBB691:
 113              	.LBI691:
 114              		.file 11 "../../libdaisy/src/per/adc.h"
   1:../../libdaisy/src/per/adc.h **** #pragma once
   2:../../libdaisy/src/per/adc.h **** #ifndef DSY_ADC_H
   3:../../libdaisy/src/per/adc.h **** #define DSY_ADC_H /**< Macro */
   4:../../libdaisy/src/per/adc.h **** #include <stdint.h>
   5:../../libdaisy/src/per/adc.h **** #include <stdlib.h>
   6:../../libdaisy/src/per/adc.h **** #include "daisy_core.h"
   7:../../libdaisy/src/per/adc.h **** #include "per/gpio.h"
   8:../../libdaisy/src/per/adc.h **** 
ARM GAS  /tmp/cc3v7X8N.s 			page 13


   9:../../libdaisy/src/per/adc.h **** #define DSY_ADC_MAX_CHANNELS 14 /**< Maximum number of ADC channels */
  10:../../libdaisy/src/per/adc.h **** 
  11:../../libdaisy/src/per/adc.h **** namespace daisy
  12:../../libdaisy/src/per/adc.h **** {
  13:../../libdaisy/src/per/adc.h **** /** @addtogroup analog_digital_conversion
  14:../../libdaisy/src/per/adc.h ****     @{
  15:../../libdaisy/src/per/adc.h **** */
  16:../../libdaisy/src/per/adc.h **** 
  17:../../libdaisy/src/per/adc.h **** /* While there may not be many configuration options here,
  18:../../libdaisy/src/per/adc.h **** using a struct like this allows us to add more configuration
  19:../../libdaisy/src/per/adc.h **** later without breaking existing functionality.
  20:../../libdaisy/src/per/adc.h **** */
  21:../../libdaisy/src/per/adc.h **** 
  22:../../libdaisy/src/per/adc.h **** /** Configuration Structure for a given channel */
  23:../../libdaisy/src/per/adc.h **** struct AdcChannelConfig
  24:../../libdaisy/src/per/adc.h **** {
  25:../../libdaisy/src/per/adc.h ****     /** Which pin to use for multiplexing */
  26:../../libdaisy/src/per/adc.h ****     enum MuxPin
  27:../../libdaisy/src/per/adc.h ****     {
  28:../../libdaisy/src/per/adc.h ****         MUX_SEL_0,    /**< & */
  29:../../libdaisy/src/per/adc.h ****         MUX_SEL_1,    /**< & */
  30:../../libdaisy/src/per/adc.h ****         MUX_SEL_2,    /**< & */
  31:../../libdaisy/src/per/adc.h ****         MUX_SEL_LAST, /**< & */
  32:../../libdaisy/src/per/adc.h ****     };
  33:../../libdaisy/src/per/adc.h **** 
  34:../../libdaisy/src/per/adc.h ****     /** Initializes a single ADC pin as an ADC. 
  35:../../libdaisy/src/per/adc.h ****     \param pin Pin to init.
  36:../../libdaisy/src/per/adc.h ****      */
  37:../../libdaisy/src/per/adc.h ****     void InitSingle(dsy_gpio_pin pin);
  38:../../libdaisy/src/per/adc.h **** 
  39:../../libdaisy/src/per/adc.h ****     /** 
  40:../../libdaisy/src/per/adc.h ****     Initializes a single ADC pin as a Multiplexed ADC.
  41:../../libdaisy/src/per/adc.h ****     Requires a CD405X Multiplexer connected to the pin.
  42:../../libdaisy/src/per/adc.h ****     You only need to supply the mux pins that are required,
  43:../../libdaisy/src/per/adc.h ****     e.g. a 4052 mux would only require mux_0 and mux_1.
  44:../../libdaisy/src/per/adc.h ****     Internal Callbacks handle the pin addressing.
  45:../../libdaisy/src/per/adc.h ****     \param mux_channels must be 1-8
  46:../../libdaisy/src/per/adc.h ****     \param mux_0 First mux pin
  47:../../libdaisy/src/per/adc.h ****     \param mux_1 Second mux pin
  48:../../libdaisy/src/per/adc.h ****     \param mux_2 Third mux pin
  49:../../libdaisy/src/per/adc.h ****     \param adc_pin &
  50:../../libdaisy/src/per/adc.h ****     */
  51:../../libdaisy/src/per/adc.h ****     void InitMux(dsy_gpio_pin adc_pin,
  52:../../libdaisy/src/per/adc.h ****                  size_t       mux_channels,
  53:../../libdaisy/src/per/adc.h ****                  dsy_gpio_pin mux_0,
  54:../../libdaisy/src/per/adc.h ****                  dsy_gpio_pin mux_1 = {DSY_GPIOX, 0},
  55:../../libdaisy/src/per/adc.h ****                  dsy_gpio_pin mux_2 = {DSY_GPIOX, 0});
  56:../../libdaisy/src/per/adc.h **** 
  57:../../libdaisy/src/per/adc.h ****     dsy_gpio pin_;                   /**< & */
  58:../../libdaisy/src/per/adc.h ****     dsy_gpio mux_pin_[MUX_SEL_LAST]; /**< & */
  59:../../libdaisy/src/per/adc.h ****     uint8_t  mux_channels_;          /**< & */
  60:../../libdaisy/src/per/adc.h **** };
  61:../../libdaisy/src/per/adc.h **** 
  62:../../libdaisy/src/per/adc.h **** /**
  63:../../libdaisy/src/per/adc.h ****    Handler for analog to digital conversion
  64:../../libdaisy/src/per/adc.h **** */
  65:../../libdaisy/src/per/adc.h **** class AdcHandle
ARM GAS  /tmp/cc3v7X8N.s 			page 14


  66:../../libdaisy/src/per/adc.h **** {
  67:../../libdaisy/src/per/adc.h ****   public:
  68:../../libdaisy/src/per/adc.h ****     /** Supported oversampling amounts */
  69:../../libdaisy/src/per/adc.h ****     enum OverSampling
  70:../../libdaisy/src/per/adc.h ****     {
  71:../../libdaisy/src/per/adc.h ****         OVS_NONE, /**< & */
  72:../../libdaisy/src/per/adc.h ****         OVS_4,    /**< & */
  73:../../libdaisy/src/per/adc.h ****         OVS_8,    /**< & */
  74:../../libdaisy/src/per/adc.h ****         OVS_16,   /**< & */
  75:../../libdaisy/src/per/adc.h ****         OVS_32,   /**< & */
  76:../../libdaisy/src/per/adc.h ****         OVS_64,   /**< & */
  77:../../libdaisy/src/per/adc.h ****         OVS_128,  /**< & */
  78:../../libdaisy/src/per/adc.h ****         OVS_256,  /**< & */
  79:../../libdaisy/src/per/adc.h ****         OVS_512,  /**< & */
  80:../../libdaisy/src/per/adc.h ****         OVS_1024, /**< & */
  81:../../libdaisy/src/per/adc.h ****         OVS_LAST, /**< & */
  82:../../libdaisy/src/per/adc.h ****     };
  83:../../libdaisy/src/per/adc.h **** 
  84:../../libdaisy/src/per/adc.h ****     AdcHandle() {}
  85:../../libdaisy/src/per/adc.h ****     ~AdcHandle() {}
 115              		.loc 11 85 5 is_stmt 1 view .LVU18
 116              		.loc 11 85 5 is_stmt 0 view .LVU19
 117              	.LBE691:
 118              	.LBB692:
 119              	.LBI692:
 120              		.file 12 "../../libdaisy/src/hid/audio.h"
   1:../../libdaisy/src/hid/audio.h **** #ifndef DSY_AUDIO_H
   2:../../libdaisy/src/hid/audio.h **** #define DSY_AUDIO_H /**< & */
   3:../../libdaisy/src/hid/audio.h **** 
   4:../../libdaisy/src/hid/audio.h **** #include "per/sai.h"
   5:../../libdaisy/src/hid/audio.h **** 
   6:../../libdaisy/src/hid/audio.h **** namespace daisy
   7:../../libdaisy/src/hid/audio.h **** {
   8:../../libdaisy/src/hid/audio.h **** class AudioHandle
   9:../../libdaisy/src/hid/audio.h **** {
  10:../../libdaisy/src/hid/audio.h ****   public:
  11:../../libdaisy/src/hid/audio.h ****     /** Manually configurable details about the Audio Engine */
  12:../../libdaisy/src/hid/audio.h ****     /** TODO: Figure out how to get samplerate in here. */
  13:../../libdaisy/src/hid/audio.h ****     struct Config
  14:../../libdaisy/src/hid/audio.h ****     {
  15:../../libdaisy/src/hid/audio.h ****         size_t                        blocksize;
  16:../../libdaisy/src/hid/audio.h ****         SaiHandle::Config::SampleRate samplerate;
  17:../../libdaisy/src/hid/audio.h ****         float                         postgain;
  18:../../libdaisy/src/hid/audio.h ****     };
  19:../../libdaisy/src/hid/audio.h **** 
  20:../../libdaisy/src/hid/audio.h ****     enum class Result
  21:../../libdaisy/src/hid/audio.h ****     {
  22:../../libdaisy/src/hid/audio.h ****         OK,
  23:../../libdaisy/src/hid/audio.h ****         ERR,
  24:../../libdaisy/src/hid/audio.h ****     };
  25:../../libdaisy/src/hid/audio.h **** 
  26:../../libdaisy/src/hid/audio.h ****     /** Non-Interleaving input buffer
  27:../../libdaisy/src/hid/audio.h ****      * Buffer arranged by float[chn][sample] 
  28:../../libdaisy/src/hid/audio.h ****      * const so that the user can't modify the input
  29:../../libdaisy/src/hid/audio.h ****     */
  30:../../libdaisy/src/hid/audio.h ****     typedef const float* const* InputBuffer;
  31:../../libdaisy/src/hid/audio.h **** 
ARM GAS  /tmp/cc3v7X8N.s 			page 15


  32:../../libdaisy/src/hid/audio.h ****     /** Non-Interleaving output buffer
  33:../../libdaisy/src/hid/audio.h ****      * Arranged by float[chn][sample] 
  34:../../libdaisy/src/hid/audio.h ****     */
  35:../../libdaisy/src/hid/audio.h ****     typedef float** OutputBuffer;
  36:../../libdaisy/src/hid/audio.h **** 
  37:../../libdaisy/src/hid/audio.h ****     /** Type for a Non-Interleaving audio callback 
  38:../../libdaisy/src/hid/audio.h ****    * Non-Interleaving audio callbacks in daisy will be of this type
  39:../../libdaisy/src/hid/audio.h ****   */
  40:../../libdaisy/src/hid/audio.h ****     typedef void (*AudioCallback)(InputBuffer  in,
  41:../../libdaisy/src/hid/audio.h ****                                   OutputBuffer out,
  42:../../libdaisy/src/hid/audio.h ****                                   size_t       size);
  43:../../libdaisy/src/hid/audio.h **** 
  44:../../libdaisy/src/hid/audio.h ****     /** Interleaving Input buffer
  45:../../libdaisy/src/hid/audio.h ****      ** audio is prepared as { L0, R0, L1, R1, . . . LN, RN }]
  46:../../libdaisy/src/hid/audio.h ****      ** this is const, as the user shouldn't modify it
  47:../../libdaisy/src/hid/audio.h ****     */
  48:../../libdaisy/src/hid/audio.h ****     typedef const float* InterleavingInputBuffer;
  49:../../libdaisy/src/hid/audio.h **** 
  50:../../libdaisy/src/hid/audio.h ****     /** Interleaving Output buffer 
  51:../../libdaisy/src/hid/audio.h ****      ** audio is prepared as { L0, R0, L1, R1, . . . LN, RN }
  52:../../libdaisy/src/hid/audio.h ****     */
  53:../../libdaisy/src/hid/audio.h ****     typedef float* InterleavingOutputBuffer;
  54:../../libdaisy/src/hid/audio.h **** 
  55:../../libdaisy/src/hid/audio.h ****     /** Interleaving Audio Callback 
  56:../../libdaisy/src/hid/audio.h ****    * Interleaving audio callbacks in daisy must be of this type
  57:../../libdaisy/src/hid/audio.h ****   */
  58:../../libdaisy/src/hid/audio.h ****     typedef void (*InterleavingAudioCallback)(InterleavingInputBuffer  in,
  59:../../libdaisy/src/hid/audio.h ****                                               InterleavingOutputBuffer out,
  60:../../libdaisy/src/hid/audio.h ****                                               size_t                   size);
  61:../../libdaisy/src/hid/audio.h **** 
  62:../../libdaisy/src/hid/audio.h ****     AudioHandle() : pimpl_(nullptr) {}
  63:../../libdaisy/src/hid/audio.h ****     ~AudioHandle() {}
 121              		.loc 12 63 5 is_stmt 1 view .LVU20
 122              		.loc 12 63 5 is_stmt 0 view .LVU21
 123              	.LBE692:
 124              	.LBE688:
 125              		.loc 2 41 20 view .LVU22
 126 0000 7047     		bx	lr
 127              		.cfi_endproc
 128              	.LFE4230:
 130              		.weak	_ZN5daisy10DaisyPatchD1Ev
 131              		.thumb_set _ZN5daisy10DaisyPatchD1Ev,_ZN5daisy10DaisyPatchD2Ev
 132 0002 00BF     		.section	.text._ZN5daisy11OledDisplayINS_13SSD130xDriverILj128ELj64ENS_24SSD130x4WireSpiTransportE
 133              		.align	1
 134              		.p2align 2,,3
 135              		.weak	_ZN5daisy11OledDisplayINS_13SSD130xDriverILj128ELj64ENS_24SSD130x4WireSpiTransportEEEED2Ev
 136              		.syntax unified
 137              		.thumb
 138              		.thumb_func
 139              		.fpu fpv5-d16
 141              	_ZN5daisy11OledDisplayINS_13SSD130xDriverILj128ELj64ENS_24SSD130x4WireSpiTransportEEEED2Ev:
 142              	.LVL2:
 143              	.LFB4555:
 144              		.loc 3 17 13 is_stmt 1 view -0
 145              		.cfi_startproc
 146              		@ args = 0, pretend = 0, frame = 0
 147              		@ frame_needed = 0, uses_anonymous_args = 0
ARM GAS  /tmp/cc3v7X8N.s 			page 16


 148              		@ link register save eliminated.
 149              	.LBB693:
 150              	.LBI693:
 151              		.loc 4 219 13 view .LVU24
 152              	.LBB694:
 153              	.LBI694:
  23:../../libdaisy/src/hid/disp/display.h **** 
 154              		.loc 4 23 13 view .LVU25
  23:../../libdaisy/src/hid/disp/display.h **** 
 155              		.loc 4 23 13 is_stmt 0 view .LVU26
 156              	.LBE694:
 157              	.LBE693:
 158              		.loc 3 17 29 view .LVU27
 159 0000 7047     		bx	lr
 160              		.cfi_endproc
 161              	.LFE4555:
 163              		.weak	_ZN5daisy11OledDisplayINS_13SSD130xDriverILj128ELj64ENS_24SSD130x4WireSpiTransportEEEED1Ev
 164              		.thumb_set _ZN5daisy11OledDisplayINS_13SSD130xDriverILj128ELj64ENS_24SSD130x4WireSpiTransportEEEED
 165 0002 00BF     		.section	.text._ZN6filterD2Ev,"axG",%progbits,_ZN6filterD5Ev,comdat
 166              		.align	1
 167              		.p2align 2,,3
 168              		.weak	_ZN6filterD2Ev
 169              		.syntax unified
 170              		.thumb
 171              		.thumb_func
 172              		.fpu fpv5-d16
 174              	_ZN6filterD2Ev:
 175              	.LVL3:
 176              	.LFB4826:
 177              		.file 13 "Noise.cpp"
   1:Noise.cpp     **** #include "daisysp.h"
   2:Noise.cpp     **** #include "daisy_patch.h"
   3:Noise.cpp     **** #include <string>
   4:Noise.cpp     **** 
   5:Noise.cpp     **** using namespace daisy;
   6:Noise.cpp     **** using namespace daisysp;
   7:Noise.cpp     **** 
   8:Noise.cpp     **** DaisyPatch patch;
   9:Noise.cpp     **** 
  10:Noise.cpp     **** WhiteNoise noise;
  11:Noise.cpp     **** 
  12:Noise.cpp     **** struct filter
 178              		.loc 13 12 8 is_stmt 1 view -0
 179              		.cfi_startproc
 180              		@ args = 0, pretend = 0, frame = 0
 181              		@ frame_needed = 0, uses_anonymous_args = 0
 182              		@ link register save eliminated.
 183              	.LBB695:
 184              	.LBI695:
 185              		.file 14 "../../libdaisy/src/hid/parameter.h"
   1:../../libdaisy/src/hid/parameter.h **** #pragma once
   2:../../libdaisy/src/hid/parameter.h **** #include <stdint.h>
   3:../../libdaisy/src/hid/parameter.h **** #include "hid/ctrl.h"
   4:../../libdaisy/src/hid/parameter.h **** 
   5:../../libdaisy/src/hid/parameter.h **** namespace daisy
   6:../../libdaisy/src/hid/parameter.h **** {
   7:../../libdaisy/src/hid/parameter.h **** /** @addtogroup controls
ARM GAS  /tmp/cc3v7X8N.s 			page 17


   8:../../libdaisy/src/hid/parameter.h ****     @{
   9:../../libdaisy/src/hid/parameter.h **** */
  10:../../libdaisy/src/hid/parameter.h **** 
  11:../../libdaisy/src/hid/parameter.h **** /**      Simple parameter mapping tool that takes a 0-1 input from an hid_ctrl. */
  12:../../libdaisy/src/hid/parameter.h **** class Parameter
  13:../../libdaisy/src/hid/parameter.h **** {
  14:../../libdaisy/src/hid/parameter.h ****   public:
  15:../../libdaisy/src/hid/parameter.h ****     /** Curves are applied to the output signal */
  16:../../libdaisy/src/hid/parameter.h ****     enum Curve
  17:../../libdaisy/src/hid/parameter.h ****     {
  18:../../libdaisy/src/hid/parameter.h ****         LINEAR,      /**< Linear curve */
  19:../../libdaisy/src/hid/parameter.h ****         EXPONENTIAL, /**< Exponential curve */
  20:../../libdaisy/src/hid/parameter.h ****         LOGARITHMIC, /**<  Logarithmic curve */
  21:../../libdaisy/src/hid/parameter.h ****         CUBE,        /**< Cubic curve */
  22:../../libdaisy/src/hid/parameter.h ****         LAST,        /**< Final enum element. */
  23:../../libdaisy/src/hid/parameter.h ****     };
  24:../../libdaisy/src/hid/parameter.h ****     /** Constructor */
  25:../../libdaisy/src/hid/parameter.h ****     Parameter() {}
  26:../../libdaisy/src/hid/parameter.h ****     /** Destructor */
  27:../../libdaisy/src/hid/parameter.h ****     ~Parameter() {}
 186              		.loc 14 27 5 view .LVU29
 187              	.LBB696:
 188              	.LBI696:
 189              		.file 15 "../../libdaisy/src/hid/ctrl.h"
   1:../../libdaisy/src/hid/ctrl.h **** #pragma once
   2:../../libdaisy/src/hid/ctrl.h **** #ifndef DSY_KNOB_H
   3:../../libdaisy/src/hid/ctrl.h **** #define DSY_KNOB_H /**< & */
   4:../../libdaisy/src/hid/ctrl.h **** #include <stdint.h>
   5:../../libdaisy/src/hid/ctrl.h **** 
   6:../../libdaisy/src/hid/ctrl.h **** #ifdef __cplusplus
   7:../../libdaisy/src/hid/ctrl.h **** namespace daisy
   8:../../libdaisy/src/hid/ctrl.h **** {
   9:../../libdaisy/src/hid/ctrl.h **** /**
  10:../../libdaisy/src/hid/ctrl.h ****     @brief Hardware Interface for control inputs \n 
  11:../../libdaisy/src/hid/ctrl.h ****     Primarily designed for ADC input controls such as \n 
  12:../../libdaisy/src/hid/ctrl.h ****     potentiometers, and control voltage. \n 
  13:../../libdaisy/src/hid/ctrl.h ****     @author Stephen Hensley
  14:../../libdaisy/src/hid/ctrl.h ****     @date November 2019
  15:../../libdaisy/src/hid/ctrl.h ****     @ingroup controls
  16:../../libdaisy/src/hid/ctrl.h **** */
  17:../../libdaisy/src/hid/ctrl.h **** class AnalogControl
  18:../../libdaisy/src/hid/ctrl.h **** {
  19:../../libdaisy/src/hid/ctrl.h ****   public:
  20:../../libdaisy/src/hid/ctrl.h ****     /** Constructor */
  21:../../libdaisy/src/hid/ctrl.h ****     AnalogControl() {}
  22:../../libdaisy/src/hid/ctrl.h ****     /** destructor */
  23:../../libdaisy/src/hid/ctrl.h ****     ~AnalogControl() {}
 190              		.loc 15 23 5 view .LVU30
 191              		.loc 15 23 5 is_stmt 0 view .LVU31
 192              	.LBE696:
 193              	.LBE695:
 194              	.LBB697:
 195              	.LBI697:
 196              		.loc 14 27 5 is_stmt 1 view .LVU32
 197              	.LBB698:
 198              	.LBI698:
 199              		.loc 15 23 5 view .LVU33
ARM GAS  /tmp/cc3v7X8N.s 			page 18


 200              		.loc 15 23 5 is_stmt 0 view .LVU34
 201              	.LBE698:
 202              	.LBE697:
 203              	.LBB699:
 204              	.LBI699:
 205              		.file 16 "../../DaisySP/Source/Filters/svf.h"
   1:../../DaisySP/Source/Filters/svf.h **** #pragma once
   2:../../DaisySP/Source/Filters/svf.h **** #ifndef DSY_SVF_H
   3:../../DaisySP/Source/Filters/svf.h **** #define DSY_SVF_H
   4:../../DaisySP/Source/Filters/svf.h **** 
   5:../../DaisySP/Source/Filters/svf.h **** namespace daisysp
   6:../../DaisySP/Source/Filters/svf.h **** {
   7:../../DaisySP/Source/Filters/svf.h **** /**      Double Sampled, Stable State Variable Filter
   8:../../DaisySP/Source/Filters/svf.h **** 
   9:../../DaisySP/Source/Filters/svf.h **** Credit to Andrew Simper from musicdsp.org
  10:../../DaisySP/Source/Filters/svf.h **** 
  11:../../DaisySP/Source/Filters/svf.h **** This is his "State Variable Filter (Double Sampled, Stable)"
  12:../../DaisySP/Source/Filters/svf.h **** 
  13:../../DaisySP/Source/Filters/svf.h **** Additional thanks to Laurent de Soras for stability limit, and 
  14:../../DaisySP/Source/Filters/svf.h **** Stefan Diedrichsen for the correct notch output
  15:../../DaisySP/Source/Filters/svf.h **** 
  16:../../DaisySP/Source/Filters/svf.h **** Ported by: Stephen Hensley
  17:../../DaisySP/Source/Filters/svf.h **** */
  18:../../DaisySP/Source/Filters/svf.h **** class Svf
  19:../../DaisySP/Source/Filters/svf.h **** {
  20:../../DaisySP/Source/Filters/svf.h ****   public:
  21:../../DaisySP/Source/Filters/svf.h ****     Svf() {}
  22:../../DaisySP/Source/Filters/svf.h ****     ~Svf() {}
 206              		.loc 16 22 5 is_stmt 1 view .LVU35
 207              		.loc 16 22 5 is_stmt 0 view .LVU36
 208              	.LBE699:
 209              		.loc 13 12 8 view .LVU37
 210 0000 7047     		bx	lr
 211              		.cfi_endproc
 212              	.LFE4826:
 214              		.weak	_ZN6filterD1Ev
 215              		.thumb_set _ZN6filterD1Ev,_ZN6filterD2Ev
 216 0002 00BF     		.section	.text._ZNK5daisy11OledDisplayINS_13SSD130xDriverILj128ELj64ENS_24SSD130x4WireSpiTransport
 217              		.align	1
 218              		.p2align 2,,3
 219              		.weak	_ZNK5daisy11OledDisplayINS_13SSD130xDriverILj128ELj64ENS_24SSD130x4WireSpiTransportEEEE6Heig
 220              		.syntax unified
 221              		.thumb
 222              		.thumb_func
 223              		.fpu fpv5-d16
 225              	_ZNK5daisy11OledDisplayINS_13SSD130xDriverILj128ELj64ENS_24SSD130x4WireSpiTransportEEEE6HeightEv:
 226              	.LVL4:
 227              	.LFB4828:
  18:../../libdaisy/src/hid/disp/oled_display.h **** 
  19:../../libdaisy/src/hid/disp/oled_display.h ****     struct Config
  20:../../libdaisy/src/hid/disp/oled_display.h ****     {
  21:../../libdaisy/src/hid/disp/oled_display.h ****         typename DisplayDriver::Config driver_config;
  22:../../libdaisy/src/hid/disp/oled_display.h ****     };
  23:../../libdaisy/src/hid/disp/oled_display.h **** 
  24:../../libdaisy/src/hid/disp/oled_display.h ****     void Init(Config config) { driver_.Init(config.driver_config); }
  25:../../libdaisy/src/hid/disp/oled_display.h **** 
  26:../../libdaisy/src/hid/disp/oled_display.h ****     uint16_t Height() const override { return driver_.Height(); }
ARM GAS  /tmp/cc3v7X8N.s 			page 19


 228              		.loc 3 26 14 is_stmt 1 view -0
 229              		.cfi_startproc
 230              		@ args = 0, pretend = 0, frame = 0
 231              		@ frame_needed = 0, uses_anonymous_args = 0
 232              		@ link register save eliminated.
 233              		.loc 3 26 65 is_stmt 0 view .LVU39
 234 0000 4020     		movs	r0, #64
 235              	.LVL5:
 236              		.loc 3 26 65 view .LVU40
 237 0002 7047     		bx	lr
 238              		.cfi_endproc
 239              	.LFE4828:
 241              		.section	.text._ZNK5daisy11OledDisplayINS_13SSD130xDriverILj128ELj64ENS_24SSD130x4WireSpiTransport
 242              		.align	1
 243              		.p2align 2,,3
 244              		.weak	_ZNK5daisy11OledDisplayINS_13SSD130xDriverILj128ELj64ENS_24SSD130x4WireSpiTransportEEEE5Widt
 245              		.syntax unified
 246              		.thumb
 247              		.thumb_func
 248              		.fpu fpv5-d16
 250              	_ZNK5daisy11OledDisplayINS_13SSD130xDriverILj128ELj64ENS_24SSD130x4WireSpiTransportEEEE5WidthEv:
 251              	.LVL6:
 252              	.LFB4829:
  27:../../libdaisy/src/hid/disp/oled_display.h ****     uint16_t Width() const override { return driver_.Width(); }
 253              		.loc 3 27 14 is_stmt 1 view -0
 254              		.cfi_startproc
 255              		@ args = 0, pretend = 0, frame = 0
 256              		@ frame_needed = 0, uses_anonymous_args = 0
 257              		@ link register save eliminated.
 258              		.loc 3 27 63 is_stmt 0 view .LVU42
 259 0000 8020     		movs	r0, #128
 260              	.LVL7:
 261              		.loc 3 27 63 view .LVU43
 262 0002 7047     		bx	lr
 263              		.cfi_endproc
 264              	.LFE4829:
 266              		.section	.text._ZN5daisy11OledDisplayINS_13SSD130xDriverILj128ELj64ENS_24SSD130x4WireSpiTransportE
 267              		.align	1
 268              		.p2align 2,,3
 269              		.weak	_ZN5daisy11OledDisplayINS_13SSD130xDriverILj128ELj64ENS_24SSD130x4WireSpiTransportEEEE4FillE
 270              		.syntax unified
 271              		.thumb
 272              		.thumb_func
 273              		.fpu fpv5-d16
 275              	_ZN5daisy11OledDisplayINS_13SSD130xDriverILj128ELj64ENS_24SSD130x4WireSpiTransportEEEE4FillEb:
 276              	.LVL8:
 277              	.LFB4830:
  28:../../libdaisy/src/hid/disp/oled_display.h **** 
  29:../../libdaisy/src/hid/disp/oled_display.h ****     /** 
  30:../../libdaisy/src/hid/disp/oled_display.h ****     Fills the entire display with either on/off.
  31:../../libdaisy/src/hid/disp/oled_display.h ****     \param on Sets on or off.
  32:../../libdaisy/src/hid/disp/oled_display.h ****     */
  33:../../libdaisy/src/hid/disp/oled_display.h ****     void Fill(bool on) override { driver_.Fill(on); }
 278              		.loc 3 33 10 is_stmt 1 view -0
 279              		.cfi_startproc
 280              		@ args = 0, pretend = 0, frame = 0
 281              		@ frame_needed = 0, uses_anonymous_args = 0
ARM GAS  /tmp/cc3v7X8N.s 			page 20


 282              		@ link register save eliminated.
 283              	.LBB700:
 284              	.LBI700:
 285              		.file 17 "../../libdaisy/src/dev/oled_ssd130x.h"
   1:../../libdaisy/src/dev/oled_ssd130x.h **** #pragma once
   2:../../libdaisy/src/dev/oled_ssd130x.h **** #ifndef SA_OLED_SSD130X_H
   3:../../libdaisy/src/dev/oled_ssd130x.h **** #define SA_OLED_SSD130X_H /**< & */
   4:../../libdaisy/src/dev/oled_ssd130x.h **** 
   5:../../libdaisy/src/dev/oled_ssd130x.h **** #include "per/i2c.h"
   6:../../libdaisy/src/dev/oled_ssd130x.h **** #include "per/spi.h"
   7:../../libdaisy/src/dev/oled_ssd130x.h **** #include "per/gpio.h"
   8:../../libdaisy/src/dev/oled_ssd130x.h **** #include "sys/system.h"
   9:../../libdaisy/src/dev/oled_ssd130x.h **** 
  10:../../libdaisy/src/dev/oled_ssd130x.h **** namespace daisy
  11:../../libdaisy/src/dev/oled_ssd130x.h **** {
  12:../../libdaisy/src/dev/oled_ssd130x.h **** /**
  13:../../libdaisy/src/dev/oled_ssd130x.h ****  * I2C Transport for SSD1306 / SSD1309 OLED display devices
  14:../../libdaisy/src/dev/oled_ssd130x.h ****  */
  15:../../libdaisy/src/dev/oled_ssd130x.h **** class SSD130xI2CTransport
  16:../../libdaisy/src/dev/oled_ssd130x.h **** {
  17:../../libdaisy/src/dev/oled_ssd130x.h ****   public:
  18:../../libdaisy/src/dev/oled_ssd130x.h ****     struct Config
  19:../../libdaisy/src/dev/oled_ssd130x.h ****     {
  20:../../libdaisy/src/dev/oled_ssd130x.h ****         I2CHandle::Config i2c_config;
  21:../../libdaisy/src/dev/oled_ssd130x.h ****         uint8_t           i2c_address;
  22:../../libdaisy/src/dev/oled_ssd130x.h ****         void              Defaults()
  23:../../libdaisy/src/dev/oled_ssd130x.h ****         {
  24:../../libdaisy/src/dev/oled_ssd130x.h ****             i2c_config.periph         = I2CHandle::Config::Peripheral::I2C_1;
  25:../../libdaisy/src/dev/oled_ssd130x.h ****             i2c_config.speed          = I2CHandle::Config::Speed::I2C_1MHZ;
  26:../../libdaisy/src/dev/oled_ssd130x.h ****             i2c_config.mode           = I2CHandle::Config::Mode::I2C_MASTER;
  27:../../libdaisy/src/dev/oled_ssd130x.h ****             i2c_config.pin_config.scl = {DSY_GPIOB, 8};
  28:../../libdaisy/src/dev/oled_ssd130x.h ****             i2c_config.pin_config.sda = {DSY_GPIOB, 9};
  29:../../libdaisy/src/dev/oled_ssd130x.h ****             i2c_address               = 0x3C;
  30:../../libdaisy/src/dev/oled_ssd130x.h ****         }
  31:../../libdaisy/src/dev/oled_ssd130x.h ****     };
  32:../../libdaisy/src/dev/oled_ssd130x.h ****     void Init(const Config& config)
  33:../../libdaisy/src/dev/oled_ssd130x.h ****     {
  34:../../libdaisy/src/dev/oled_ssd130x.h ****         i2c_address_ = config.i2c_address;
  35:../../libdaisy/src/dev/oled_ssd130x.h ****         i2c_.Init(config.i2c_config);
  36:../../libdaisy/src/dev/oled_ssd130x.h ****     };
  37:../../libdaisy/src/dev/oled_ssd130x.h ****     void SendCommand(uint8_t cmd)
  38:../../libdaisy/src/dev/oled_ssd130x.h ****     {
  39:../../libdaisy/src/dev/oled_ssd130x.h ****         uint8_t buf[2] = {0X00, cmd};
  40:../../libdaisy/src/dev/oled_ssd130x.h ****         i2c_.TransmitBlocking(i2c_address_, buf, 2, 1000);
  41:../../libdaisy/src/dev/oled_ssd130x.h ****     };
  42:../../libdaisy/src/dev/oled_ssd130x.h **** 
  43:../../libdaisy/src/dev/oled_ssd130x.h ****     void SendData(uint8_t* buff, size_t size)
  44:../../libdaisy/src/dev/oled_ssd130x.h ****     {
  45:../../libdaisy/src/dev/oled_ssd130x.h ****         for(size_t i = 0; i < size; i++)
  46:../../libdaisy/src/dev/oled_ssd130x.h ****         {
  47:../../libdaisy/src/dev/oled_ssd130x.h ****             uint8_t buf[2] = {0X40, buff[i]};
  48:../../libdaisy/src/dev/oled_ssd130x.h ****             i2c_.TransmitBlocking(i2c_address_, buf, 2, 1000);
  49:../../libdaisy/src/dev/oled_ssd130x.h ****         }
  50:../../libdaisy/src/dev/oled_ssd130x.h ****     };
  51:../../libdaisy/src/dev/oled_ssd130x.h **** 
  52:../../libdaisy/src/dev/oled_ssd130x.h ****   private:
  53:../../libdaisy/src/dev/oled_ssd130x.h ****     daisy::I2CHandle i2c_;
ARM GAS  /tmp/cc3v7X8N.s 			page 21


  54:../../libdaisy/src/dev/oled_ssd130x.h ****     uint8_t          i2c_address_;
  55:../../libdaisy/src/dev/oled_ssd130x.h **** };
  56:../../libdaisy/src/dev/oled_ssd130x.h **** 
  57:../../libdaisy/src/dev/oled_ssd130x.h **** /**
  58:../../libdaisy/src/dev/oled_ssd130x.h ****  * 4 Wire SPI Transport for SSD1306 / SSD1309 OLED display devices
  59:../../libdaisy/src/dev/oled_ssd130x.h ****  */
  60:../../libdaisy/src/dev/oled_ssd130x.h **** class SSD130x4WireSpiTransport
  61:../../libdaisy/src/dev/oled_ssd130x.h **** {
  62:../../libdaisy/src/dev/oled_ssd130x.h ****   public:
  63:../../libdaisy/src/dev/oled_ssd130x.h ****     struct Config
  64:../../libdaisy/src/dev/oled_ssd130x.h ****     {
  65:../../libdaisy/src/dev/oled_ssd130x.h ****         struct
  66:../../libdaisy/src/dev/oled_ssd130x.h ****         {
  67:../../libdaisy/src/dev/oled_ssd130x.h ****             dsy_gpio_pin dc;    /**< & */
  68:../../libdaisy/src/dev/oled_ssd130x.h ****             dsy_gpio_pin reset; /**< & */
  69:../../libdaisy/src/dev/oled_ssd130x.h ****         } pin_config;
  70:../../libdaisy/src/dev/oled_ssd130x.h ****         void Defaults()
  71:../../libdaisy/src/dev/oled_ssd130x.h ****         {
  72:../../libdaisy/src/dev/oled_ssd130x.h ****             pin_config.dc    = {DSY_GPIOB, 4};
  73:../../libdaisy/src/dev/oled_ssd130x.h ****             pin_config.reset = {DSY_GPIOB, 15};
  74:../../libdaisy/src/dev/oled_ssd130x.h ****         }
  75:../../libdaisy/src/dev/oled_ssd130x.h ****     };
  76:../../libdaisy/src/dev/oled_ssd130x.h ****     void Init(const Config& config)
  77:../../libdaisy/src/dev/oled_ssd130x.h ****     {
  78:../../libdaisy/src/dev/oled_ssd130x.h ****         // Initialize both GPIO
  79:../../libdaisy/src/dev/oled_ssd130x.h ****         pin_dc_.mode = DSY_GPIO_MODE_OUTPUT_PP;
  80:../../libdaisy/src/dev/oled_ssd130x.h ****         pin_dc_.pin  = config.pin_config.dc;
  81:../../libdaisy/src/dev/oled_ssd130x.h ****         dsy_gpio_init(&pin_dc_);
  82:../../libdaisy/src/dev/oled_ssd130x.h ****         pin_reset_.mode = DSY_GPIO_MODE_OUTPUT_PP;
  83:../../libdaisy/src/dev/oled_ssd130x.h ****         pin_reset_.pin  = config.pin_config.reset;
  84:../../libdaisy/src/dev/oled_ssd130x.h ****         dsy_gpio_init(&pin_reset_);
  85:../../libdaisy/src/dev/oled_ssd130x.h ****         // Initialize SPI
  86:../../libdaisy/src/dev/oled_ssd130x.h ****         SpiHandle::Config spi_config;
  87:../../libdaisy/src/dev/oled_ssd130x.h ****         spi_config.periph    = SpiHandle::Config::Peripheral::SPI_1;
  88:../../libdaisy/src/dev/oled_ssd130x.h ****         spi_config.mode      = SpiHandle::Config::Mode::MASTER;
  89:../../libdaisy/src/dev/oled_ssd130x.h ****         spi_config.direction = SpiHandle::Config::Direction::TWO_LINES_TX_ONLY;
  90:../../libdaisy/src/dev/oled_ssd130x.h ****         spi_config.datasize  = 8;
  91:../../libdaisy/src/dev/oled_ssd130x.h ****         spi_config.clock_polarity = SpiHandle::Config::ClockPolarity::LOW;
  92:../../libdaisy/src/dev/oled_ssd130x.h ****         spi_config.clock_phase    = SpiHandle::Config::ClockPhase::ONE_EDGE;
  93:../../libdaisy/src/dev/oled_ssd130x.h ****         spi_config.nss            = SpiHandle::Config::NSS::HARD_OUTPUT;
  94:../../libdaisy/src/dev/oled_ssd130x.h ****         spi_config.baud_prescaler = SpiHandle::Config::BaudPrescaler::PS_8;
  95:../../libdaisy/src/dev/oled_ssd130x.h **** 
  96:../../libdaisy/src/dev/oled_ssd130x.h ****         spi_config.pin_config.sclk = {DSY_GPIOG, 11};
  97:../../libdaisy/src/dev/oled_ssd130x.h ****         spi_config.pin_config.miso = {DSY_GPIOX, 0};
  98:../../libdaisy/src/dev/oled_ssd130x.h ****         spi_config.pin_config.mosi = {DSY_GPIOB, 5};
  99:../../libdaisy/src/dev/oled_ssd130x.h ****         spi_config.pin_config.nss  = {DSY_GPIOG, 10};
 100:../../libdaisy/src/dev/oled_ssd130x.h **** 
 101:../../libdaisy/src/dev/oled_ssd130x.h ****         spi_.Init(spi_config);
 102:../../libdaisy/src/dev/oled_ssd130x.h **** 
 103:../../libdaisy/src/dev/oled_ssd130x.h ****         // Reset and Configure OLED.
 104:../../libdaisy/src/dev/oled_ssd130x.h ****         dsy_gpio_write(&pin_reset_, 0);
 105:../../libdaisy/src/dev/oled_ssd130x.h ****         System::Delay(10);
 106:../../libdaisy/src/dev/oled_ssd130x.h ****         dsy_gpio_write(&pin_reset_, 1);
 107:../../libdaisy/src/dev/oled_ssd130x.h ****         System::Delay(10);
 108:../../libdaisy/src/dev/oled_ssd130x.h ****     };
 109:../../libdaisy/src/dev/oled_ssd130x.h ****     void SendCommand(uint8_t cmd)
 110:../../libdaisy/src/dev/oled_ssd130x.h ****     {
ARM GAS  /tmp/cc3v7X8N.s 			page 22


 111:../../libdaisy/src/dev/oled_ssd130x.h ****         dsy_gpio_write(&pin_dc_, 0);
 112:../../libdaisy/src/dev/oled_ssd130x.h ****         spi_.BlockingTransmit(&cmd, 1);
 113:../../libdaisy/src/dev/oled_ssd130x.h ****     };
 114:../../libdaisy/src/dev/oled_ssd130x.h **** 
 115:../../libdaisy/src/dev/oled_ssd130x.h ****     void SendData(uint8_t* buff, size_t size)
 116:../../libdaisy/src/dev/oled_ssd130x.h ****     {
 117:../../libdaisy/src/dev/oled_ssd130x.h ****         dsy_gpio_write(&pin_dc_, 1);
 118:../../libdaisy/src/dev/oled_ssd130x.h ****         spi_.BlockingTransmit(buff, size);
 119:../../libdaisy/src/dev/oled_ssd130x.h ****     };
 120:../../libdaisy/src/dev/oled_ssd130x.h **** 
 121:../../libdaisy/src/dev/oled_ssd130x.h ****   private:
 122:../../libdaisy/src/dev/oled_ssd130x.h ****     SpiHandle spi_;
 123:../../libdaisy/src/dev/oled_ssd130x.h ****     dsy_gpio  pin_reset_;
 124:../../libdaisy/src/dev/oled_ssd130x.h ****     dsy_gpio  pin_dc_;
 125:../../libdaisy/src/dev/oled_ssd130x.h **** };
 126:../../libdaisy/src/dev/oled_ssd130x.h **** 
 127:../../libdaisy/src/dev/oled_ssd130x.h **** 
 128:../../libdaisy/src/dev/oled_ssd130x.h **** /**
 129:../../libdaisy/src/dev/oled_ssd130x.h ****  * A driver implementation for the SSD1306/SSD1309
 130:../../libdaisy/src/dev/oled_ssd130x.h ****  */
 131:../../libdaisy/src/dev/oled_ssd130x.h **** template <size_t width, size_t height, typename Transport>
 132:../../libdaisy/src/dev/oled_ssd130x.h **** class SSD130xDriver
 133:../../libdaisy/src/dev/oled_ssd130x.h **** {
 134:../../libdaisy/src/dev/oled_ssd130x.h ****   public:
 135:../../libdaisy/src/dev/oled_ssd130x.h ****     struct Config
 136:../../libdaisy/src/dev/oled_ssd130x.h ****     {
 137:../../libdaisy/src/dev/oled_ssd130x.h ****         typename Transport::Config transport_config;
 138:../../libdaisy/src/dev/oled_ssd130x.h ****     };
 139:../../libdaisy/src/dev/oled_ssd130x.h **** 
 140:../../libdaisy/src/dev/oled_ssd130x.h ****     void Init(Config config)
 141:../../libdaisy/src/dev/oled_ssd130x.h ****     {
 142:../../libdaisy/src/dev/oled_ssd130x.h ****         transport_.Init(config.transport_config);
 143:../../libdaisy/src/dev/oled_ssd130x.h **** 
 144:../../libdaisy/src/dev/oled_ssd130x.h ****         // Init routine...
 145:../../libdaisy/src/dev/oled_ssd130x.h **** 
 146:../../libdaisy/src/dev/oled_ssd130x.h ****         // Display Off
 147:../../libdaisy/src/dev/oled_ssd130x.h ****         transport_.SendCommand(0xaE);
 148:../../libdaisy/src/dev/oled_ssd130x.h ****         // Dimension dependent commands...
 149:../../libdaisy/src/dev/oled_ssd130x.h ****         switch(height)
 150:../../libdaisy/src/dev/oled_ssd130x.h ****         {
 151:../../libdaisy/src/dev/oled_ssd130x.h ****             case 16:
 152:../../libdaisy/src/dev/oled_ssd130x.h ****                 // Display Clock Divide Ratio
 153:../../libdaisy/src/dev/oled_ssd130x.h ****                 transport_.SendCommand(0xD5);
 154:../../libdaisy/src/dev/oled_ssd130x.h ****                 transport_.SendCommand(0x60);
 155:../../libdaisy/src/dev/oled_ssd130x.h ****                 // Multiplex Ratio
 156:../../libdaisy/src/dev/oled_ssd130x.h ****                 transport_.SendCommand(0xA8);
 157:../../libdaisy/src/dev/oled_ssd130x.h ****                 transport_.SendCommand(0x0F);
 158:../../libdaisy/src/dev/oled_ssd130x.h ****                 // COM Pins
 159:../../libdaisy/src/dev/oled_ssd130x.h ****                 transport_.SendCommand(0xDA);
 160:../../libdaisy/src/dev/oled_ssd130x.h ****                 transport_.SendCommand(0x02);
 161:../../libdaisy/src/dev/oled_ssd130x.h ****                 break;
 162:../../libdaisy/src/dev/oled_ssd130x.h ****             case 32:
 163:../../libdaisy/src/dev/oled_ssd130x.h ****                 // Display Clock Divide Ratio
 164:../../libdaisy/src/dev/oled_ssd130x.h ****                 transport_.SendCommand(0xD5);
 165:../../libdaisy/src/dev/oled_ssd130x.h ****                 transport_.SendCommand(0x80);
 166:../../libdaisy/src/dev/oled_ssd130x.h ****                 // Multiplex Ratio
 167:../../libdaisy/src/dev/oled_ssd130x.h ****                 transport_.SendCommand(0xA8);
ARM GAS  /tmp/cc3v7X8N.s 			page 23


 168:../../libdaisy/src/dev/oled_ssd130x.h ****                 transport_.SendCommand(0x1F);
 169:../../libdaisy/src/dev/oled_ssd130x.h ****                 // COM Pins
 170:../../libdaisy/src/dev/oled_ssd130x.h ****                 transport_.SendCommand(0xDA);
 171:../../libdaisy/src/dev/oled_ssd130x.h ****                 if(width == 64)
 172:../../libdaisy/src/dev/oled_ssd130x.h ****                 {
 173:../../libdaisy/src/dev/oled_ssd130x.h ****                     transport_.SendCommand(0x12);
 174:../../libdaisy/src/dev/oled_ssd130x.h ****                 }
 175:../../libdaisy/src/dev/oled_ssd130x.h ****                 else
 176:../../libdaisy/src/dev/oled_ssd130x.h ****                 {
 177:../../libdaisy/src/dev/oled_ssd130x.h ****                     transport_.SendCommand(0x02);
 178:../../libdaisy/src/dev/oled_ssd130x.h ****                 }
 179:../../libdaisy/src/dev/oled_ssd130x.h **** 
 180:../../libdaisy/src/dev/oled_ssd130x.h ****                 break;
 181:../../libdaisy/src/dev/oled_ssd130x.h ****             case 48:
 182:../../libdaisy/src/dev/oled_ssd130x.h ****                 // Display Clock Divide Ratio
 183:../../libdaisy/src/dev/oled_ssd130x.h ****                 transport_.SendCommand(0xD5);
 184:../../libdaisy/src/dev/oled_ssd130x.h ****                 transport_.SendCommand(0x80);
 185:../../libdaisy/src/dev/oled_ssd130x.h ****                 // Multiplex Ratio
 186:../../libdaisy/src/dev/oled_ssd130x.h ****                 transport_.SendCommand(0xA8);
 187:../../libdaisy/src/dev/oled_ssd130x.h ****                 transport_.SendCommand(0x2F);
 188:../../libdaisy/src/dev/oled_ssd130x.h ****                 // COM Pins
 189:../../libdaisy/src/dev/oled_ssd130x.h ****                 transport_.SendCommand(0xDA);
 190:../../libdaisy/src/dev/oled_ssd130x.h ****                 transport_.SendCommand(0x12);
 191:../../libdaisy/src/dev/oled_ssd130x.h ****                 break;
 192:../../libdaisy/src/dev/oled_ssd130x.h ****             default: // 128
 193:../../libdaisy/src/dev/oled_ssd130x.h ****                 // Display Clock Divide Ratio
 194:../../libdaisy/src/dev/oled_ssd130x.h ****                 transport_.SendCommand(0xD5);
 195:../../libdaisy/src/dev/oled_ssd130x.h ****                 transport_.SendCommand(0x80);
 196:../../libdaisy/src/dev/oled_ssd130x.h ****                 // Multiplex Ratio
 197:../../libdaisy/src/dev/oled_ssd130x.h ****                 transport_.SendCommand(0xA8);
 198:../../libdaisy/src/dev/oled_ssd130x.h ****                 transport_.SendCommand(0x3F);
 199:../../libdaisy/src/dev/oled_ssd130x.h ****                 // COM Pins
 200:../../libdaisy/src/dev/oled_ssd130x.h ****                 transport_.SendCommand(0xDA);
 201:../../libdaisy/src/dev/oled_ssd130x.h ****                 transport_.SendCommand(0x12);
 202:../../libdaisy/src/dev/oled_ssd130x.h ****                 break;
 203:../../libdaisy/src/dev/oled_ssd130x.h ****         }
 204:../../libdaisy/src/dev/oled_ssd130x.h **** 
 205:../../libdaisy/src/dev/oled_ssd130x.h ****         // Display Offset
 206:../../libdaisy/src/dev/oled_ssd130x.h ****         transport_.SendCommand(0xD3);
 207:../../libdaisy/src/dev/oled_ssd130x.h ****         transport_.SendCommand(0x00);
 208:../../libdaisy/src/dev/oled_ssd130x.h ****         // Start Line Address
 209:../../libdaisy/src/dev/oled_ssd130x.h ****         transport_.SendCommand(0x40);
 210:../../libdaisy/src/dev/oled_ssd130x.h ****         // Normal Display
 211:../../libdaisy/src/dev/oled_ssd130x.h ****         transport_.SendCommand(0xA6);
 212:../../libdaisy/src/dev/oled_ssd130x.h ****         // All On Resume
 213:../../libdaisy/src/dev/oled_ssd130x.h ****         transport_.SendCommand(0xA4);
 214:../../libdaisy/src/dev/oled_ssd130x.h ****         // Charge Pump
 215:../../libdaisy/src/dev/oled_ssd130x.h ****         transport_.SendCommand(0x8D);
 216:../../libdaisy/src/dev/oled_ssd130x.h ****         transport_.SendCommand(0x14);
 217:../../libdaisy/src/dev/oled_ssd130x.h ****         // Set Segment Remap
 218:../../libdaisy/src/dev/oled_ssd130x.h ****         transport_.SendCommand(0xA1);
 219:../../libdaisy/src/dev/oled_ssd130x.h ****         // COM Output Scan Direction
 220:../../libdaisy/src/dev/oled_ssd130x.h ****         transport_.SendCommand(0xC8);
 221:../../libdaisy/src/dev/oled_ssd130x.h ****         // Contrast Control
 222:../../libdaisy/src/dev/oled_ssd130x.h ****         transport_.SendCommand(0x81);
 223:../../libdaisy/src/dev/oled_ssd130x.h ****         transport_.SendCommand(0x8F);
 224:../../libdaisy/src/dev/oled_ssd130x.h ****         // Pre Charge
ARM GAS  /tmp/cc3v7X8N.s 			page 24


 225:../../libdaisy/src/dev/oled_ssd130x.h ****         transport_.SendCommand(0xD9);
 226:../../libdaisy/src/dev/oled_ssd130x.h ****         transport_.SendCommand(0x25);
 227:../../libdaisy/src/dev/oled_ssd130x.h ****         // VCOM Detect
 228:../../libdaisy/src/dev/oled_ssd130x.h ****         transport_.SendCommand(0xDB);
 229:../../libdaisy/src/dev/oled_ssd130x.h ****         transport_.SendCommand(0x34);
 230:../../libdaisy/src/dev/oled_ssd130x.h **** 
 231:../../libdaisy/src/dev/oled_ssd130x.h **** 
 232:../../libdaisy/src/dev/oled_ssd130x.h ****         // Display On
 233:../../libdaisy/src/dev/oled_ssd130x.h ****         transport_.SendCommand(0xAF); //--turn on oled panel
 234:../../libdaisy/src/dev/oled_ssd130x.h ****     };
 235:../../libdaisy/src/dev/oled_ssd130x.h **** 
 236:../../libdaisy/src/dev/oled_ssd130x.h ****     size_t Width() const { return width; };
 237:../../libdaisy/src/dev/oled_ssd130x.h ****     size_t Height() const { return height; };
 238:../../libdaisy/src/dev/oled_ssd130x.h **** 
 239:../../libdaisy/src/dev/oled_ssd130x.h ****     void DrawPixel(uint_fast8_t x, uint_fast8_t y, bool on)
 240:../../libdaisy/src/dev/oled_ssd130x.h ****     {
 241:../../libdaisy/src/dev/oled_ssd130x.h ****         if(x >= width || y >= height)
 242:../../libdaisy/src/dev/oled_ssd130x.h ****             return;
 243:../../libdaisy/src/dev/oled_ssd130x.h ****         if(on)
 244:../../libdaisy/src/dev/oled_ssd130x.h ****             buffer_[x + (y / 8) * width] |= (1 << (y % 8));
 245:../../libdaisy/src/dev/oled_ssd130x.h ****         else
 246:../../libdaisy/src/dev/oled_ssd130x.h ****             buffer_[x + (y / 8) * width] &= ~(1 << (y % 8));
 247:../../libdaisy/src/dev/oled_ssd130x.h ****     }
 248:../../libdaisy/src/dev/oled_ssd130x.h **** 
 249:../../libdaisy/src/dev/oled_ssd130x.h ****     void Fill(bool on)
 286              		.loc 17 249 10 view .LVU45
 287              	.LBB701:
 250:../../libdaisy/src/dev/oled_ssd130x.h ****     {
 251:../../libdaisy/src/dev/oled_ssd130x.h ****         for(size_t i = 0; i < sizeof(buffer_); i++)
 288              		.loc 17 251 29 view .LVU46
 289 0000 4942     		rsbs	r1, r1, #0
 290              	.LVL9:
 291              		.loc 17 251 29 is_stmt 0 view .LVU47
 292 0002 00F11303 		add	r3, r0, #19
 293 0006 00F21342 		addw	r2, r0, #1043
 294 000a C9B2     		uxtb	r1, r1
 295              	.LVL10:
 296              	.L9:
 252:../../libdaisy/src/dev/oled_ssd130x.h ****         {
 253:../../libdaisy/src/dev/oled_ssd130x.h ****             buffer_[i] = on ? 0xff : 0x00;
 297              		.loc 17 253 13 view .LVU48
 298 000c 03F8011F 		strb	r1, [r3, #1]!
 299              	.LVL11:
 251:../../libdaisy/src/dev/oled_ssd130x.h ****         {
 300              		.loc 17 251 9 is_stmt 1 view .LVU49
 251:../../libdaisy/src/dev/oled_ssd130x.h ****         {
 301              		.loc 17 251 29 view .LVU50
 302 0010 9342     		cmp	r3, r2
 303 0012 FBD1     		bne	.L9
 304              	.LBE701:
 305              	.LBE700:
 306              		.loc 3 33 53 is_stmt 0 view .LVU51
 307 0014 7047     		bx	lr
 308              		.cfi_endproc
 309              	.LFE4830:
 311 0016 00BF     		.section	.text._ZN5daisy11OledDisplayINS_13SSD130xDriverILj128ELj64ENS_24SSD130x4WireSpiTransportE
 312              		.align	1
ARM GAS  /tmp/cc3v7X8N.s 			page 25


 313              		.p2align 2,,3
 314              		.weak	_ZN5daisy11OledDisplayINS_13SSD130xDriverILj128ELj64ENS_24SSD130x4WireSpiTransportEEEED0Ev
 315              		.syntax unified
 316              		.thumb
 317              		.thumb_func
 318              		.fpu fpv5-d16
 320              	_ZN5daisy11OledDisplayINS_13SSD130xDriverILj128ELj64ENS_24SSD130x4WireSpiTransportEEEED0Ev:
 321              	.LVL12:
 322              	.LFB4557:
  17:../../libdaisy/src/hid/disp/oled_display.h **** 
 323              		.loc 3 17 13 is_stmt 1 view -0
 324              		.cfi_startproc
 325              		@ args = 0, pretend = 0, frame = 0
 326              		@ frame_needed = 0, uses_anonymous_args = 0
  17:../../libdaisy/src/hid/disp/oled_display.h **** 
 327              		.loc 3 17 13 is_stmt 0 view .LVU53
 328 0000 10B5     		push	{r4, lr}
 329              		.cfi_def_cfa_offset 8
 330              		.cfi_offset 4, -8
 331              		.cfi_offset 14, -4
  17:../../libdaisy/src/hid/disp/oled_display.h **** 
 332              		.loc 3 17 13 view .LVU54
 333 0002 0446     		mov	r4, r0
 334              	.LVL13:
 335              	.LBB702:
 336              	.LBI702:
  17:../../libdaisy/src/hid/disp/oled_display.h **** 
 337              		.loc 3 17 13 is_stmt 1 view .LVU55
 338              	.LBB703:
 339              	.LBI703:
 340              		.loc 4 219 13 view .LVU56
 341              	.LBB704:
 342              	.LBI704:
  23:../../libdaisy/src/hid/disp/display.h **** 
 343              		.loc 4 23 13 view .LVU57
  23:../../libdaisy/src/hid/disp/display.h **** 
 344              		.loc 4 23 13 is_stmt 0 view .LVU58
 345              	.LBE704:
 346              	.LBE703:
 347              	.LBE702:
  17:../../libdaisy/src/hid/disp/oled_display.h **** 
 348              		.loc 3 17 29 view .LVU59
 349 0004 40F21441 		movw	r1, #1044
 350 0008 FFF7FEFF 		bl	_ZdlPvj
 351              	.LVL14:
  17:../../libdaisy/src/hid/disp/oled_display.h **** 
 352              		.loc 3 17 29 view .LVU60
 353 000c 2046     		mov	r0, r4
 354 000e 10BD     		pop	{r4, pc}
  17:../../libdaisy/src/hid/disp/oled_display.h **** 
 355              		.loc 3 17 29 view .LVU61
 356              		.cfi_endproc
 357              	.LFE4557:
 359              		.section	.text._ZL13AudioCallbackPKPKfPPfj,"ax",%progbits
 360              		.align	1
 361              		.p2align 2,,3
 362              		.syntax unified
ARM GAS  /tmp/cc3v7X8N.s 			page 26


 363              		.thumb
 364              		.thumb_func
 365              		.fpu fpv5-d16
 367              	_ZL13AudioCallbackPKPKfPPfj:
 368              	.LVL15:
 369              	.LFB4239:
  13:Noise.cpp     **** {
  14:Noise.cpp     ****     Svf filt;
  15:Noise.cpp     **** 
  16:Noise.cpp     ****     enum mode
  17:Noise.cpp     ****     {
  18:Noise.cpp     ****         LOW,
  19:Noise.cpp     ****         HIGH,
  20:Noise.cpp     ****         BAND,
  21:Noise.cpp     ****         NOTCH,
  22:Noise.cpp     ****         PEAK,
  23:Noise.cpp     ****         LAST,
  24:Noise.cpp     ****     };
  25:Noise.cpp     ****     mode filterMode;
  26:Noise.cpp     **** 
  27:Noise.cpp     ****     Parameter resParam, cutoffParam;
  28:Noise.cpp     **** 
  29:Noise.cpp     ****     void Init(float         samplerate,
  30:Noise.cpp     ****               mode          setMode,
  31:Noise.cpp     ****               AnalogControl cutKnob,
  32:Noise.cpp     ****               AnalogControl resKnob)
  33:Noise.cpp     ****     {
  34:Noise.cpp     ****         filt.Init(samplerate);
  35:Noise.cpp     ****         filterMode = setMode;
  36:Noise.cpp     **** 
  37:Noise.cpp     ****         cutoffParam.Init(cutKnob, 20, 10000, Parameter::LOGARITHMIC);
  38:Noise.cpp     ****         resParam.Init(resKnob, 0, 1, Parameter::LINEAR);
  39:Noise.cpp     ****     }
  40:Noise.cpp     **** 
  41:Noise.cpp     ****     void UpdateControls()
  42:Noise.cpp     ****     {
  43:Noise.cpp     ****         filt.SetFreq(cutoffParam.Process());
  44:Noise.cpp     ****         filt.SetRes(resParam.Process());
  45:Noise.cpp     ****     }
  46:Noise.cpp     **** 
  47:Noise.cpp     ****     float Process(float in)
  48:Noise.cpp     ****     {
  49:Noise.cpp     ****         filt.Process(in);
  50:Noise.cpp     ****         switch(filterMode)
  51:Noise.cpp     ****         {
  52:Noise.cpp     ****             case mode::LOW: return filt.Low();
  53:Noise.cpp     ****             case mode::HIGH: return filt.High();
  54:Noise.cpp     ****             case mode::BAND: return filt.Band();
  55:Noise.cpp     ****             case mode::NOTCH: return filt.Notch();
  56:Noise.cpp     ****             case mode::PEAK: return filt.Peak();
  57:Noise.cpp     ****             default: break;
  58:Noise.cpp     ****         }
  59:Noise.cpp     ****         return 0.f;
  60:Noise.cpp     ****     }
  61:Noise.cpp     **** };
  62:Noise.cpp     **** 
  63:Noise.cpp     **** filter lowpass, highpass;
ARM GAS  /tmp/cc3v7X8N.s 			page 27


  64:Noise.cpp     **** 
  65:Noise.cpp     **** static void AudioCallback(AudioHandle::InputBuffer  in,
  66:Noise.cpp     ****                           AudioHandle::OutputBuffer out,
  67:Noise.cpp     ****                           size_t                    size)
  68:Noise.cpp     **** {
 370              		.loc 13 68 1 is_stmt 1 view -0
 371              		.cfi_startproc
 372              		@ args = 0, pretend = 0, frame = 0
 373              		@ frame_needed = 0, uses_anonymous_args = 0
  69:Noise.cpp     ****     patch.ProcessAnalogControls();
 374              		.loc 13 69 5 view .LVU63
  68:Noise.cpp     ****     patch.ProcessAnalogControls();
 375              		.loc 13 68 1 is_stmt 0 view .LVU64
 376 0000 2DE9F047 		push	{r4, r5, r6, r7, r8, r9, r10, lr}
 377              		.cfi_def_cfa_offset 32
 378              		.cfi_offset 4, -32
 379              		.cfi_offset 5, -28
 380              		.cfi_offset 6, -24
 381              		.cfi_offset 7, -20
 382              		.cfi_offset 8, -16
 383              		.cfi_offset 9, -12
 384              		.cfi_offset 10, -8
 385              		.cfi_offset 14, -4
 386              		.loc 13 69 32 view .LVU65
 387 0004 3D48     		ldr	r0, .L39
 388              	.LVL16:
  68:Noise.cpp     ****     patch.ProcessAnalogControls();
 389              		.loc 13 68 1 view .LVU66
 390 0006 1646     		mov	r6, r2
 391 0008 8846     		mov	r8, r1
 392              		.loc 13 69 32 view .LVU67
 393 000a FFF7FEFF 		bl	_ZN5daisy10DaisyPatch21ProcessAnalogControlsEv
 394              	.LVL17:
  70:Noise.cpp     **** 
  71:Noise.cpp     ****     lowpass.UpdateControls();
 395              		.loc 13 71 5 is_stmt 1 view .LVU68
 396              	.LBB718:
 397              	.LBI718:
  41:Noise.cpp     ****     {
 398              		.loc 13 41 10 view .LVU69
 399              	.LBB719:
  43:Noise.cpp     ****         filt.SetRes(resParam.Process());
 400              		.loc 13 43 9 view .LVU70
  43:Noise.cpp     ****         filt.SetRes(resParam.Process());
 401              		.loc 13 43 21 is_stmt 0 view .LVU71
 402 000e 3C48     		ldr	r0, .L39+4
 403 0010 FFF7FEFF 		bl	_ZN5daisy9Parameter7ProcessEv
 404              	.LVL18:
 405 0014 3B48     		ldr	r0, .L39+8
 406 0016 FFF7FEFF 		bl	_ZN7daisysp3Svf7SetFreqEf
 407              	.LVL19:
  44:Noise.cpp     ****     }
 408              		.loc 13 44 9 is_stmt 1 view .LVU72
  44:Noise.cpp     ****     }
 409              		.loc 13 44 20 is_stmt 0 view .LVU73
 410 001a 3B48     		ldr	r0, .L39+12
 411 001c FFF7FEFF 		bl	_ZN5daisy9Parameter7ProcessEv
ARM GAS  /tmp/cc3v7X8N.s 			page 28


 412              	.LVL20:
 413 0020 3848     		ldr	r0, .L39+8
 414 0022 FFF7FEFF 		bl	_ZN7daisysp3Svf6SetResEf
 415              	.LVL21:
  44:Noise.cpp     ****     }
 416              		.loc 13 44 20 view .LVU74
 417              	.LBE719:
 418              	.LBE718:
  72:Noise.cpp     ****     highpass.UpdateControls();
 419              		.loc 13 72 5 is_stmt 1 view .LVU75
 420              	.LBB720:
 421              	.LBI720:
  41:Noise.cpp     ****     {
 422              		.loc 13 41 10 view .LVU76
 423              	.LBB721:
  43:Noise.cpp     ****         filt.SetRes(resParam.Process());
 424              		.loc 13 43 9 view .LVU77
  43:Noise.cpp     ****         filt.SetRes(resParam.Process());
 425              		.loc 13 43 21 is_stmt 0 view .LVU78
 426 0026 3948     		ldr	r0, .L39+16
 427 0028 FFF7FEFF 		bl	_ZN5daisy9Parameter7ProcessEv
 428              	.LVL22:
 429 002c 3848     		ldr	r0, .L39+20
 430 002e FFF7FEFF 		bl	_ZN7daisysp3Svf7SetFreqEf
 431              	.LVL23:
  44:Noise.cpp     ****     }
 432              		.loc 13 44 9 is_stmt 1 view .LVU79
  44:Noise.cpp     ****     }
 433              		.loc 13 44 20 is_stmt 0 view .LVU80
 434 0032 3848     		ldr	r0, .L39+24
 435 0034 FFF7FEFF 		bl	_ZN5daisy9Parameter7ProcessEv
 436              	.LVL24:
 437 0038 3548     		ldr	r0, .L39+20
 438 003a FFF7FEFF 		bl	_ZN7daisysp3Svf6SetResEf
 439              	.LVL25:
  44:Noise.cpp     ****     }
 440              		.loc 13 44 20 view .LVU81
 441              	.LBE721:
 442              	.LBE720:
 443              	.LBB722:
  73:Noise.cpp     **** 
  74:Noise.cpp     ****     for(size_t i = 0; i < size; i++)
 444              		.loc 13 74 25 is_stmt 1 view .LVU82
 445 003e 002E     		cmp	r6, #0
 446 0040 41D0     		beq	.L13
 447 0042 A8F10407 		sub	r7, r8, #4
 448              		.loc 13 74 16 is_stmt 0 view .LVU83
 449 0046 4FF00009 		mov	r9, #0
 450 004a DFF8D0A0 		ldr	r10, .L39+32
 451 004e 08F10C08 		add	r8, r8, #12
 452              	.LVL26:
 453              		.loc 13 74 16 view .LVU84
 454 0052 2C4D     		ldr	r5, .L39+8
 455 0054 2E4C     		ldr	r4, .L39+20
 456              	.LVL27:
 457              	.L30:
 458              	.LBB723:
ARM GAS  /tmp/cc3v7X8N.s 			page 29


  75:Noise.cpp     ****     {
  76:Noise.cpp     ****         float sig = noise.Process();
 459              		.loc 13 76 9 is_stmt 1 view .LVU85
 460              	.LBB724:
 461              	.LBB725:
  17:../../DaisySP/Source/Noise/whitenoise.h ****     /** Initializes the WhiteNoise object
  18:../../DaisySP/Source/Noise/whitenoise.h ****     */
  19:../../DaisySP/Source/Noise/whitenoise.h ****     void Init()
  20:../../DaisySP/Source/Noise/whitenoise.h ****     {
  21:../../DaisySP/Source/Noise/whitenoise.h ****         amp_      = 1.0f;
  22:../../DaisySP/Source/Noise/whitenoise.h ****         randseed_ = 1;
  23:../../DaisySP/Source/Noise/whitenoise.h ****     }
  24:../../DaisySP/Source/Noise/whitenoise.h **** 
  25:../../DaisySP/Source/Noise/whitenoise.h ****     /** sets the amplitude of the noise output
  26:../../DaisySP/Source/Noise/whitenoise.h ****     */
  27:../../DaisySP/Source/Noise/whitenoise.h ****     inline void SetAmp(float a) { amp_ = a; }
  28:../../DaisySP/Source/Noise/whitenoise.h ****     /** returns a new sample of noise in the range of -amp_ to amp_
  29:../../DaisySP/Source/Noise/whitenoise.h ****     */
  30:../../DaisySP/Source/Noise/whitenoise.h ****     inline float Process()
  31:../../DaisySP/Source/Noise/whitenoise.h ****     {
  32:../../DaisySP/Source/Noise/whitenoise.h ****         randseed_ *= 16807;
 462              		.loc 1 32 19 is_stmt 0 view .LVU86
 463 0056 DAF80430 		ldr	r3, [r10, #4]
 464 005a 44F2A712 		movw	r2, #16807
 465              	.LBE725:
 466              	.LBE724:
 467              		.loc 13 76 34 view .LVU87
 468 005e DAED007A 		vldr.32	s15, [r10]
 469              	.LBB728:
 470              	.LBI724:
  30:../../DaisySP/Source/Noise/whitenoise.h ****     {
 471              		.loc 1 30 18 is_stmt 1 view .LVU88
 472              	.LVL28:
 473              	.LBB726:
 474              		.loc 1 32 9 view .LVU89
 475              		.loc 1 32 19 is_stmt 0 view .LVU90
 476 0062 02FB03F3 		mul	r3, r2, r3
 477              	.LBE726:
 478              	.LBE728:
 479              	.LBB729:
 480              	.LBB730:
  49:Noise.cpp     ****         switch(filterMode)
 481              		.loc 13 49 21 view .LVU91
 482 0066 2748     		ldr	r0, .L39+8
 483              	.LBE730:
 484              	.LBE729:
 485              	.LBB737:
 486              	.LBB727:
  33:../../DaisySP/Source/Noise/whitenoise.h ****         return (randseed_ * coeff_) * amp_;
 487              		.loc 1 33 27 view .LVU92
 488 0068 00EE103A 		vmov	s0, r3	@ int
  32:../../DaisySP/Source/Noise/whitenoise.h ****         return (randseed_ * coeff_) * amp_;
 489              		.loc 1 32 19 view .LVU93
 490 006c CAF80430 		str	r3, [r10, #4]
 491              		.loc 1 33 27 view .LVU94
 492 0070 BAEEE00A 		vcvt.f32.s32	s0, s0, #31
 493              		.loc 1 33 9 is_stmt 1 view .LVU95
ARM GAS  /tmp/cc3v7X8N.s 			page 30


 494              	.LVL29:
 495              		.loc 1 33 9 is_stmt 0 view .LVU96
 496              	.LBE727:
 497              	.LBE737:
  77:Noise.cpp     ****         sig       = lowpass.Process(sig);
 498              		.loc 13 77 9 is_stmt 1 view .LVU97
 499              	.LBB738:
 500              	.LBI729:
  47:Noise.cpp     ****     {
 501              		.loc 13 47 11 view .LVU98
 502              	.LBB731:
  49:Noise.cpp     ****         switch(filterMode)
 503              		.loc 13 49 9 view .LVU99
  49:Noise.cpp     ****         switch(filterMode)
 504              		.loc 13 49 21 is_stmt 0 view .LVU100
 505 0074 20EE270A 		vmul.f32	s0, s0, s15
 506 0078 FFF7FEFF 		bl	_ZN7daisysp3Svf7ProcessEf
 507              	.LVL30:
  50:Noise.cpp     ****         {
 508              		.loc 13 50 9 is_stmt 1 view .LVU101
 509 007c 95F84C30 		ldrb	r3, [r5, #76]	@ zero_extendqisi2
 510 0080 042B     		cmp	r3, #4
 511 0082 36D8     		bhi	.L31
 512 0084 DFE803F0 		tbb	[pc, r3]
 513              	.L17:
 514 0088 32       		.byte	(.L21-.L17)/2
 515 0089 2F       		.byte	(.L20-.L17)/2
 516 008a 2C       		.byte	(.L19-.L17)/2
 517 008b 29       		.byte	(.L18-.L17)/2
 518 008c 03       		.byte	(.L16-.L17)/2
 519 008d 00       		.p2align 1
 520              	.L16:
  56:Noise.cpp     ****             default: break;
 521              		.loc 13 56 13 view .LVU102
  56:Noise.cpp     ****             default: break;
 522              		.loc 13 56 30 view .LVU103
  56:Noise.cpp     ****             default: break;
 523              		.loc 13 56 46 is_stmt 0 view .LVU104
 524 008e 95ED0F0A 		vldr.32	s0, [r5, #60]
 525              	.LVL31:
  56:Noise.cpp     ****             default: break;
 526              		.loc 13 56 46 view .LVU105
 527              	.LBE731:
 528              	.LBE738:
 529              	.LBE723:
 530              	.LBE722:
  23:../../DaisySP/Source/Filters/svf.h ****     /** Initializes the filter
  24:../../DaisySP/Source/Filters/svf.h ****         float sample_rate - sample rate of the audio engine being run, and the frequency that the P
  25:../../DaisySP/Source/Filters/svf.h ****     */
  26:../../DaisySP/Source/Filters/svf.h ****     void Init(float sample_rate);
  27:../../DaisySP/Source/Filters/svf.h **** 
  28:../../DaisySP/Source/Filters/svf.h **** 
  29:../../DaisySP/Source/Filters/svf.h ****     /** 
  30:../../DaisySP/Source/Filters/svf.h ****         Process the input signal, updating all of the outputs.
  31:../../DaisySP/Source/Filters/svf.h ****     */
  32:../../DaisySP/Source/Filters/svf.h ****     void Process(float in);
  33:../../DaisySP/Source/Filters/svf.h **** 
ARM GAS  /tmp/cc3v7X8N.s 			page 31


  34:../../DaisySP/Source/Filters/svf.h **** 
  35:../../DaisySP/Source/Filters/svf.h ****     /** sets the frequency of the cutoff frequency. 
  36:../../DaisySP/Source/Filters/svf.h ****         f must be between 0.0 and sample_rate / 3
  37:../../DaisySP/Source/Filters/svf.h ****     */
  38:../../DaisySP/Source/Filters/svf.h ****     void SetFreq(float f);
  39:../../DaisySP/Source/Filters/svf.h **** 
  40:../../DaisySP/Source/Filters/svf.h ****     /** sets the resonance of the filter.
  41:../../DaisySP/Source/Filters/svf.h ****         Must be between 0.0 and 1.0 to ensure stability.
  42:../../DaisySP/Source/Filters/svf.h ****     */
  43:../../DaisySP/Source/Filters/svf.h ****     void SetRes(float r);
  44:../../DaisySP/Source/Filters/svf.h **** 
  45:../../DaisySP/Source/Filters/svf.h ****     /** sets the drive of the filter 
  46:../../DaisySP/Source/Filters/svf.h ****         affects the response of the resonance of the filter
  47:../../DaisySP/Source/Filters/svf.h ****     */
  48:../../DaisySP/Source/Filters/svf.h ****     void SetDrive(float d);
  49:../../DaisySP/Source/Filters/svf.h ****     /** lowpass output
  50:../../DaisySP/Source/Filters/svf.h ****         \return low pass output of the filter
  51:../../DaisySP/Source/Filters/svf.h ****     */
  52:../../DaisySP/Source/Filters/svf.h ****     inline float Low() { return out_low_; }
  53:../../DaisySP/Source/Filters/svf.h ****     /** highpass output
  54:../../DaisySP/Source/Filters/svf.h ****         \return high pass output of the filter
  55:../../DaisySP/Source/Filters/svf.h ****     */
  56:../../DaisySP/Source/Filters/svf.h ****     inline float High() { return out_high_; }
  57:../../DaisySP/Source/Filters/svf.h ****     /** bandpass output
  58:../../DaisySP/Source/Filters/svf.h ****         \return band pass output of the filter
  59:../../DaisySP/Source/Filters/svf.h ****     */
  60:../../DaisySP/Source/Filters/svf.h ****     inline float Band() { return out_band_; }
  61:../../DaisySP/Source/Filters/svf.h ****     /** notchpass output
  62:../../DaisySP/Source/Filters/svf.h ****         \return notch pass output of the filter
  63:../../DaisySP/Source/Filters/svf.h ****     */
  64:../../DaisySP/Source/Filters/svf.h ****     inline float Notch() { return out_notch_; }
  65:../../DaisySP/Source/Filters/svf.h ****     /** peak output
  66:../../DaisySP/Source/Filters/svf.h ****         \return peak output of the filter
  67:../../DaisySP/Source/Filters/svf.h ****     */
  68:../../DaisySP/Source/Filters/svf.h ****     inline float Peak() { return out_peak_; }
 531              		.loc 16 68 27 is_stmt 1 view .LVU106
 532              	.L15:
 533              	.LBB770:
 534              	.LBB759:
  78:Noise.cpp     ****         sig       = highpass.Process(sig);
 535              		.loc 13 78 9 view .LVU107
 536              	.LBB739:
 537              	.LBI739:
  47:Noise.cpp     ****     {
 538              		.loc 13 47 11 view .LVU108
 539              	.LBB740:
  49:Noise.cpp     ****         switch(filterMode)
 540              		.loc 13 49 9 view .LVU109
  49:Noise.cpp     ****         switch(filterMode)
 541              		.loc 13 49 21 is_stmt 0 view .LVU110
 542 0092 1F48     		ldr	r0, .L39+20
 543 0094 FFF7FEFF 		bl	_ZN7daisysp3Svf7ProcessEf
 544              	.LVL32:
  50:Noise.cpp     ****         {
 545              		.loc 13 50 9 is_stmt 1 view .LVU111
 546 0098 94F84C30 		ldrb	r3, [r4, #76]	@ zero_extendqisi2
 547 009c 042B     		cmp	r3, #4
ARM GAS  /tmp/cc3v7X8N.s 			page 32


 548 009e 2BD8     		bhi	.L32
 549 00a0 DFE803F0 		tbb	[pc, r3]
 550              	.L24:
 551 00a4 19       		.byte	(.L28-.L24)/2
 552 00a5 17       		.byte	(.L27-.L24)/2
 553 00a6 15       		.byte	(.L26-.L24)/2
 554 00a7 13       		.byte	(.L25-.L24)/2
 555 00a8 03       		.byte	(.L23-.L24)/2
 556 00a9 00       		.p2align 1
 557              	.L23:
  56:Noise.cpp     ****             default: break;
 558              		.loc 13 56 13 view .LVU112
  56:Noise.cpp     ****             default: break;
 559              		.loc 13 56 30 view .LVU113
  56:Noise.cpp     ****             default: break;
 560              		.loc 13 56 46 is_stmt 0 view .LVU114
 561 00aa E26B     		ldr	r2, [r4, #60]	@ float
 562              	.LVL33:
  56:Noise.cpp     ****             default: break;
 563              		.loc 13 56 46 view .LVU115
 564              	.LBE740:
 565              	.LBE739:
 566              	.LBE759:
 567              	.LBE770:
 568              		.loc 16 68 27 is_stmt 1 view .LVU116
 569              	.L22:
 570              	.LBB771:
 571              	.LBB760:
  79:Noise.cpp     **** 
  80:Noise.cpp     ****         for(size_t chn = 0; chn < 4; chn++)
 572              		.loc 13 80 9 view .LVU117
 573              	.LBB747:
 574              		.loc 13 80 33 view .LVU118
 575 00ac 4FEA8900 		lsl	r0, r9, #2
 576 00b0 3946     		mov	r1, r7
 577              	.LVL34:
 578              	.L29:
  81:Noise.cpp     ****         {
  82:Noise.cpp     ****             out[chn][i] = sig;
 579              		.loc 13 82 13 discriminator 2 view .LVU119
 580              		.loc 13 82 25 is_stmt 0 discriminator 2 view .LVU120
 581 00b2 51F8043F 		ldr	r3, [r1, #4]!
 582 00b6 0344     		add	r3, r3, r0
  80:Noise.cpp     ****         {
 583              		.loc 13 80 33 discriminator 2 view .LVU121
 584 00b8 8845     		cmp	r8, r1
 585              		.loc 13 82 25 discriminator 2 view .LVU122
 586 00ba 1A60     		str	r2, [r3]	@ float
  80:Noise.cpp     ****         {
 587              		.loc 13 80 9 is_stmt 1 discriminator 2 view .LVU123
  80:Noise.cpp     ****         {
 588              		.loc 13 80 33 discriminator 2 view .LVU124
 589 00bc F9D1     		bne	.L29
  80:Noise.cpp     ****         {
 590              		.loc 13 80 33 is_stmt 0 discriminator 2 view .LVU125
 591              	.LBE747:
 592              	.LBE760:
ARM GAS  /tmp/cc3v7X8N.s 			page 33


  74:Noise.cpp     ****     {
 593              		.loc 13 74 5 is_stmt 1 discriminator 2 view .LVU126
 594 00be 09F10109 		add	r9, r9, #1
 595              	.LVL35:
  74:Noise.cpp     ****     {
 596              		.loc 13 74 25 discriminator 2 view .LVU127
 597 00c2 4E45     		cmp	r6, r9
 598 00c4 C7D1     		bne	.L30
 599              	.LVL36:
 600              	.L13:
  74:Noise.cpp     ****     {
 601              		.loc 13 74 25 is_stmt 0 discriminator 2 view .LVU128
 602              	.LBE771:
  83:Noise.cpp     ****         }
  84:Noise.cpp     ****     }
  85:Noise.cpp     **** }
 603              		.loc 13 85 1 view .LVU129
 604 00c6 BDE8F087 		pop	{r4, r5, r6, r7, r8, r9, r10, pc}
 605              	.LVL37:
 606              	.L25:
 607              	.LBB772:
 608              	.LBB761:
 609              	.LBB748:
 610              	.LBB741:
  55:Noise.cpp     ****             case mode::PEAK: return filt.Peak();
 611              		.loc 13 55 13 is_stmt 1 view .LVU130
  55:Noise.cpp     ****             case mode::PEAK: return filt.Peak();
 612              		.loc 13 55 31 view .LVU131
  55:Noise.cpp     ****             case mode::PEAK: return filt.Peak();
 613              		.loc 13 55 48 is_stmt 0 view .LVU132
 614 00ca 226C     		ldr	r2, [r4, #64]	@ float
 615              	.LVL38:
  55:Noise.cpp     ****             case mode::PEAK: return filt.Peak();
 616              		.loc 13 55 48 view .LVU133
 617              	.LBE741:
 618              	.LBE748:
 619              	.LBE761:
 620              	.LBE772:
  64:../../DaisySP/Source/Filters/svf.h ****     /** peak output
 621              		.loc 16 64 28 is_stmt 1 view .LVU134
 622              	.LBB773:
 623              	.LBB762:
 624              	.LBB749:
 625              	.LBB742:
  55:Noise.cpp     ****             case mode::PEAK: return filt.Peak();
 626              		.loc 13 55 49 is_stmt 0 view .LVU135
 627 00cc EEE7     		b	.L22
 628              	.LVL39:
 629              	.L26:
  54:Noise.cpp     ****             case mode::NOTCH: return filt.Notch();
 630              		.loc 13 54 13 is_stmt 1 view .LVU136
  54:Noise.cpp     ****             case mode::NOTCH: return filt.Notch();
 631              		.loc 13 54 30 view .LVU137
  54:Noise.cpp     ****             case mode::NOTCH: return filt.Notch();
 632              		.loc 13 54 46 is_stmt 0 view .LVU138
 633 00ce A26B     		ldr	r2, [r4, #56]	@ float
 634              	.LVL40:
ARM GAS  /tmp/cc3v7X8N.s 			page 34


  54:Noise.cpp     ****             case mode::NOTCH: return filt.Notch();
 635              		.loc 13 54 46 view .LVU139
 636              	.LBE742:
 637              	.LBE749:
 638              	.LBE762:
 639              	.LBE773:
  60:../../DaisySP/Source/Filters/svf.h ****     /** notchpass output
 640              		.loc 16 60 27 is_stmt 1 view .LVU140
 641              	.LBB774:
 642              	.LBB763:
 643              	.LBB750:
 644              	.LBB743:
  54:Noise.cpp     ****             case mode::NOTCH: return filt.Notch();
 645              		.loc 13 54 47 is_stmt 0 view .LVU141
 646 00d0 ECE7     		b	.L22
 647              	.LVL41:
 648              	.L27:
  53:Noise.cpp     ****             case mode::BAND: return filt.Band();
 649              		.loc 13 53 13 is_stmt 1 view .LVU142
  53:Noise.cpp     ****             case mode::BAND: return filt.Band();
 650              		.loc 13 53 30 view .LVU143
  53:Noise.cpp     ****             case mode::BAND: return filt.Band();
 651              		.loc 13 53 46 is_stmt 0 view .LVU144
 652 00d2 626B     		ldr	r2, [r4, #52]	@ float
 653              	.LVL42:
  53:Noise.cpp     ****             case mode::BAND: return filt.Band();
 654              		.loc 13 53 46 view .LVU145
 655              	.LBE743:
 656              	.LBE750:
 657              	.LBE763:
 658              	.LBE774:
  56:../../DaisySP/Source/Filters/svf.h ****     /** bandpass output
 659              		.loc 16 56 27 is_stmt 1 view .LVU146
 660              	.LBB775:
 661              	.LBB764:
 662              	.LBB751:
 663              	.LBB744:
  53:Noise.cpp     ****             case mode::BAND: return filt.Band();
 664              		.loc 13 53 47 is_stmt 0 view .LVU147
 665 00d4 EAE7     		b	.L22
 666              	.LVL43:
 667              	.L28:
  52:Noise.cpp     ****             case mode::HIGH: return filt.High();
 668              		.loc 13 52 13 is_stmt 1 view .LVU148
  52:Noise.cpp     ****             case mode::HIGH: return filt.High();
 669              		.loc 13 52 29 view .LVU149
  52:Noise.cpp     ****             case mode::HIGH: return filt.High();
 670              		.loc 13 52 44 is_stmt 0 view .LVU150
 671 00d6 226B     		ldr	r2, [r4, #48]	@ float
 672              	.LVL44:
  52:Noise.cpp     ****             case mode::HIGH: return filt.High();
 673              		.loc 13 52 44 view .LVU151
 674              	.LBE744:
 675              	.LBE751:
 676              	.LBE764:
 677              	.LBE775:
  52:../../DaisySP/Source/Filters/svf.h ****     /** highpass output
ARM GAS  /tmp/cc3v7X8N.s 			page 35


 678              		.loc 16 52 26 is_stmt 1 view .LVU152
 679              	.LBB776:
 680              	.LBB765:
 681              	.LBB752:
 682              	.LBB745:
  52:Noise.cpp     ****             case mode::HIGH: return filt.High();
 683              		.loc 13 52 45 is_stmt 0 view .LVU153
 684 00d8 E8E7     		b	.L22
 685              	.LVL45:
 686              	.L18:
  52:Noise.cpp     ****             case mode::HIGH: return filt.High();
 687              		.loc 13 52 45 view .LVU154
 688              	.LBE745:
 689              	.LBE752:
 690              	.LBB753:
 691              	.LBB732:
  55:Noise.cpp     ****             case mode::PEAK: return filt.Peak();
 692              		.loc 13 55 13 is_stmt 1 view .LVU155
  55:Noise.cpp     ****             case mode::PEAK: return filt.Peak();
 693              		.loc 13 55 31 view .LVU156
  55:Noise.cpp     ****             case mode::PEAK: return filt.Peak();
 694              		.loc 13 55 48 is_stmt 0 view .LVU157
 695 00da 95ED100A 		vldr.32	s0, [r5, #64]
 696              	.LVL46:
  55:Noise.cpp     ****             case mode::PEAK: return filt.Peak();
 697              		.loc 13 55 48 view .LVU158
 698              	.LBE732:
 699              	.LBE753:
 700              	.LBE765:
 701              	.LBE776:
  64:../../DaisySP/Source/Filters/svf.h ****     /** peak output
 702              		.loc 16 64 28 is_stmt 1 view .LVU159
 703              	.LBB777:
 704              	.LBB766:
 705              	.LBB754:
 706              	.LBB733:
  55:Noise.cpp     ****             case mode::PEAK: return filt.Peak();
 707              		.loc 13 55 49 is_stmt 0 view .LVU160
 708 00de D8E7     		b	.L15
 709              	.LVL47:
 710              	.L19:
  54:Noise.cpp     ****             case mode::NOTCH: return filt.Notch();
 711              		.loc 13 54 13 is_stmt 1 view .LVU161
  54:Noise.cpp     ****             case mode::NOTCH: return filt.Notch();
 712              		.loc 13 54 30 view .LVU162
  54:Noise.cpp     ****             case mode::NOTCH: return filt.Notch();
 713              		.loc 13 54 46 is_stmt 0 view .LVU163
 714 00e0 95ED0E0A 		vldr.32	s0, [r5, #56]
 715              	.LVL48:
  54:Noise.cpp     ****             case mode::NOTCH: return filt.Notch();
 716              		.loc 13 54 46 view .LVU164
 717              	.LBE733:
 718              	.LBE754:
 719              	.LBE766:
 720              	.LBE777:
  60:../../DaisySP/Source/Filters/svf.h ****     /** notchpass output
 721              		.loc 16 60 27 is_stmt 1 view .LVU165
ARM GAS  /tmp/cc3v7X8N.s 			page 36


 722              	.LBB778:
 723              	.LBB767:
 724              	.LBB755:
 725              	.LBB734:
  54:Noise.cpp     ****             case mode::NOTCH: return filt.Notch();
 726              		.loc 13 54 47 is_stmt 0 view .LVU166
 727 00e4 D5E7     		b	.L15
 728              	.LVL49:
 729              	.L20:
  53:Noise.cpp     ****             case mode::BAND: return filt.Band();
 730              		.loc 13 53 13 is_stmt 1 view .LVU167
  53:Noise.cpp     ****             case mode::BAND: return filt.Band();
 731              		.loc 13 53 30 view .LVU168
  53:Noise.cpp     ****             case mode::BAND: return filt.Band();
 732              		.loc 13 53 46 is_stmt 0 view .LVU169
 733 00e6 95ED0D0A 		vldr.32	s0, [r5, #52]
 734              	.LVL50:
  53:Noise.cpp     ****             case mode::BAND: return filt.Band();
 735              		.loc 13 53 46 view .LVU170
 736              	.LBE734:
 737              	.LBE755:
 738              	.LBE767:
 739              	.LBE778:
  56:../../DaisySP/Source/Filters/svf.h ****     /** bandpass output
 740              		.loc 16 56 27 is_stmt 1 view .LVU171
 741              	.LBB779:
 742              	.LBB768:
 743              	.LBB756:
 744              	.LBB735:
  53:Noise.cpp     ****             case mode::BAND: return filt.Band();
 745              		.loc 13 53 47 is_stmt 0 view .LVU172
 746 00ea D2E7     		b	.L15
 747              	.LVL51:
 748              	.L21:
  52:Noise.cpp     ****             case mode::HIGH: return filt.High();
 749              		.loc 13 52 13 is_stmt 1 view .LVU173
  52:Noise.cpp     ****             case mode::HIGH: return filt.High();
 750              		.loc 13 52 29 view .LVU174
  52:Noise.cpp     ****             case mode::HIGH: return filt.High();
 751              		.loc 13 52 44 is_stmt 0 view .LVU175
 752 00ec 95ED0C0A 		vldr.32	s0, [r5, #48]
 753              	.LVL52:
  52:Noise.cpp     ****             case mode::HIGH: return filt.High();
 754              		.loc 13 52 44 view .LVU176
 755              	.LBE735:
 756              	.LBE756:
 757              	.LBE768:
 758              	.LBE779:
  52:../../DaisySP/Source/Filters/svf.h ****     /** highpass output
 759              		.loc 16 52 26 is_stmt 1 view .LVU177
 760              	.LBB780:
 761              	.LBB769:
 762              	.LBB757:
 763              	.LBB736:
  52:Noise.cpp     ****             case mode::HIGH: return filt.High();
 764              		.loc 13 52 45 is_stmt 0 view .LVU178
 765 00f0 CFE7     		b	.L15
ARM GAS  /tmp/cc3v7X8N.s 			page 37


 766              	.LVL53:
 767              	.L31:
  50:Noise.cpp     ****         {
 768              		.loc 13 50 16 view .LVU179
 769 00f2 9FED090A 		vldr.32	s0, .L39+28
 770 00f6 CCE7     		b	.L15
 771              	.LVL54:
 772              	.L32:
  50:Noise.cpp     ****         {
 773              		.loc 13 50 16 view .LVU180
 774              	.LBE736:
 775              	.LBE757:
 776              	.LBB758:
 777              	.LBB746:
 778 00f8 0022     		movs	r2, #0
 779 00fa D7E7     		b	.L22
 780              	.L40:
 781              		.align	2
 782              	.L39:
 783 00fc 00000000 		.word	patch
 784 0100 88000000 		.word	.LANCHOR0+136
 785 0104 00000000 		.word	.LANCHOR0
 786 0108 50000000 		.word	.LANCHOR0+80
 787 010c 88000000 		.word	.LANCHOR1+136
 788 0110 00000000 		.word	.LANCHOR1
 789 0114 50000000 		.word	.LANCHOR1+80
 790 0118 00000000 		.word	0
 791 011c 00000000 		.word	.LANCHOR2
 792              	.LBE746:
 793              	.LBE758:
 794              	.LBE769:
 795              	.LBE780:
 796              		.cfi_endproc
 797              	.LFE4239:
 799              		.section	.text._ZN5daisy11OledDisplayINS_13SSD130xDriverILj128ELj64ENS_24SSD130x4WireSpiTransportE
 800              		.align	1
 801              		.p2align 2,,3
 802              		.weak	_ZN5daisy11OledDisplayINS_13SSD130xDriverILj128ELj64ENS_24SSD130x4WireSpiTransportEEEE6Updat
 803              		.syntax unified
 804              		.thumb
 805              		.thumb_func
 806              		.fpu fpv5-d16
 808              	_ZN5daisy11OledDisplayINS_13SSD130xDriverILj128ELj64ENS_24SSD130x4WireSpiTransportEEEE6UpdateEv:
 809              	.LVL55:
 810              	.LFB4560:
  34:../../libdaisy/src/hid/disp/oled_display.h **** 
  35:../../libdaisy/src/hid/disp/oled_display.h ****     /**
  36:../../libdaisy/src/hid/disp/oled_display.h ****     Sets the pixel at the specified coordinate to be on/off.
  37:../../libdaisy/src/hid/disp/oled_display.h ****     \param x   x Coordinate
  38:../../libdaisy/src/hid/disp/oled_display.h ****     \param y   y coordinate
  39:../../libdaisy/src/hid/disp/oled_display.h ****     \param on  on or off
  40:../../libdaisy/src/hid/disp/oled_display.h ****     */
  41:../../libdaisy/src/hid/disp/oled_display.h ****     void DrawPixel(uint_fast8_t x, uint_fast8_t y, bool on) override
  42:../../libdaisy/src/hid/disp/oled_display.h ****     {
  43:../../libdaisy/src/hid/disp/oled_display.h ****         driver_.DrawPixel(x, y, on);
  44:../../libdaisy/src/hid/disp/oled_display.h ****     }
  45:../../libdaisy/src/hid/disp/oled_display.h **** 
ARM GAS  /tmp/cc3v7X8N.s 			page 38


  46:../../libdaisy/src/hid/disp/oled_display.h ****     /** 
  47:../../libdaisy/src/hid/disp/oled_display.h ****     Writes the current display buffer to the OLED device using SPI or I2C depending on 
  48:../../libdaisy/src/hid/disp/oled_display.h ****     how the object was initialized.
  49:../../libdaisy/src/hid/disp/oled_display.h ****     */
  50:../../libdaisy/src/hid/disp/oled_display.h ****     void Update() override { driver_.Update(); }
 811              		.loc 3 50 10 is_stmt 1 view -0
 812              		.cfi_startproc
 813              		@ args = 0, pretend = 0, frame = 8
 814              		@ frame_needed = 0, uses_anonymous_args = 0
 815              	.LBB791:
 816              	.LBI791:
 254:../../libdaisy/src/dev/oled_ssd130x.h ****         }
 255:../../libdaisy/src/dev/oled_ssd130x.h ****     };
 256:../../libdaisy/src/dev/oled_ssd130x.h **** 
 257:../../libdaisy/src/dev/oled_ssd130x.h ****     /**
 258:../../libdaisy/src/dev/oled_ssd130x.h ****      * Update the display 
 259:../../libdaisy/src/dev/oled_ssd130x.h ****     */
 260:../../libdaisy/src/dev/oled_ssd130x.h ****     void Update()
 817              		.loc 17 260 10 view .LVU182
 818              	.LBB792:
 261:../../libdaisy/src/dev/oled_ssd130x.h ****     {
 262:../../libdaisy/src/dev/oled_ssd130x.h ****         uint8_t i;
 263:../../libdaisy/src/dev/oled_ssd130x.h ****         uint8_t high_column_addr;
 264:../../libdaisy/src/dev/oled_ssd130x.h ****         switch(height)
 265:../../libdaisy/src/dev/oled_ssd130x.h ****         {
 266:../../libdaisy/src/dev/oled_ssd130x.h ****             case 32: high_column_addr = 0x12; break;
 267:../../libdaisy/src/dev/oled_ssd130x.h **** 
 268:../../libdaisy/src/dev/oled_ssd130x.h ****             default: high_column_addr = 0x10; break;
 269:../../libdaisy/src/dev/oled_ssd130x.h ****         }
 270:../../libdaisy/src/dev/oled_ssd130x.h ****         for(i = 0; i < (height / 8); i++)
 819              		.loc 17 270 22 view .LVU183
 820              	.LBE792:
 821              	.LBE791:
 822              		.loc 3 50 10 is_stmt 0 view .LVU184
 823 0000 2DE9F041 		push	{r4, r5, r6, r7, r8, lr}
 824              		.cfi_def_cfa_offset 24
 825              		.cfi_offset 4, -24
 826              		.cfi_offset 5, -20
 827              		.cfi_offset 6, -16
 828              		.cfi_offset 7, -12
 829              		.cfi_offset 8, -8
 830              		.cfi_offset 14, -4
 831 0004 B025     		movs	r5, #176
 832 0006 82B0     		sub	sp, sp, #8
 833              		.cfi_def_cfa_offset 32
 834 0008 00F10807 		add	r7, r0, #8
 835 000c 00F11006 		add	r6, r0, #16
 836 0010 00F11404 		add	r4, r0, #20
 837              	.LVL56:
 838              	.L42:
 839              	.LBB805:
 840              	.LBB804:
 841              	.LBB793:
 842              	.LBB794:
 111:../../libdaisy/src/dev/oled_ssd130x.h ****         spi_.BlockingTransmit(&cmd, 1);
 843              		.loc 17 111 23 view .LVU185
 844 0014 0021     		movs	r1, #0
ARM GAS  /tmp/cc3v7X8N.s 			page 39


 845 0016 3046     		mov	r0, r6
 846 0018 8DF80750 		strb	r5, [sp, #7]
 847              	.LVL57:
 111:../../libdaisy/src/dev/oled_ssd130x.h ****         spi_.BlockingTransmit(&cmd, 1);
 848              		.loc 17 111 23 view .LVU186
 849              	.LBE794:
 850              	.LBI793:
 109:../../libdaisy/src/dev/oled_ssd130x.h ****     {
 851              		.loc 17 109 10 is_stmt 1 view .LVU187
 852              	.LBB795:
 111:../../libdaisy/src/dev/oled_ssd130x.h ****         spi_.BlockingTransmit(&cmd, 1);
 853              		.loc 17 111 9 view .LVU188
 854 001c 0135     		adds	r5, r5, #1
 855              	.LVL58:
 111:../../libdaisy/src/dev/oled_ssd130x.h ****         spi_.BlockingTransmit(&cmd, 1);
 856              		.loc 17 111 9 is_stmt 0 view .LVU189
 857 001e 8846     		mov	r8, r1
 111:../../libdaisy/src/dev/oled_ssd130x.h ****         spi_.BlockingTransmit(&cmd, 1);
 858              		.loc 17 111 23 view .LVU190
 859 0020 FFF7FEFF 		bl	dsy_gpio_write
 860              	.LVL59:
 112:../../libdaisy/src/dev/oled_ssd130x.h ****     };
 861              		.loc 17 112 9 is_stmt 1 view .LVU191
 112:../../libdaisy/src/dev/oled_ssd130x.h ****     };
 862              		.loc 17 112 30 is_stmt 0 view .LVU192
 863 0024 6423     		movs	r3, #100
 864 0026 0122     		movs	r2, #1
 865 0028 0DF10701 		add	r1, sp, #7
 866 002c 3846     		mov	r0, r7
 867 002e FFF7FEFF 		bl	_ZN5daisy9SpiHandle16BlockingTransmitEPhjm
 868              	.LVL60:
 112:../../libdaisy/src/dev/oled_ssd130x.h ****     };
 869              		.loc 17 112 30 view .LVU193
 870              	.LBE795:
 871              	.LBE793:
 872              	.LBB796:
 873              	.LBB797:
 111:../../libdaisy/src/dev/oled_ssd130x.h ****         spi_.BlockingTransmit(&cmd, 1);
 874              		.loc 17 111 23 view .LVU194
 875 0032 4146     		mov	r1, r8
 876 0034 3046     		mov	r0, r6
 877 0036 8DF80780 		strb	r8, [sp, #7]
 878              	.LVL61:
 111:../../libdaisy/src/dev/oled_ssd130x.h ****         spi_.BlockingTransmit(&cmd, 1);
 879              		.loc 17 111 23 view .LVU195
 880              	.LBE797:
 881              	.LBI796:
 109:../../libdaisy/src/dev/oled_ssd130x.h ****     {
 882              		.loc 17 109 10 is_stmt 1 view .LVU196
 883              	.LBB798:
 111:../../libdaisy/src/dev/oled_ssd130x.h ****         spi_.BlockingTransmit(&cmd, 1);
 884              		.loc 17 111 9 view .LVU197
 111:../../libdaisy/src/dev/oled_ssd130x.h ****         spi_.BlockingTransmit(&cmd, 1);
 885              		.loc 17 111 23 is_stmt 0 view .LVU198
 886 003a FFF7FEFF 		bl	dsy_gpio_write
 887              	.LVL62:
 112:../../libdaisy/src/dev/oled_ssd130x.h ****     };
ARM GAS  /tmp/cc3v7X8N.s 			page 40


 888              		.loc 17 112 9 is_stmt 1 view .LVU199
 112:../../libdaisy/src/dev/oled_ssd130x.h ****     };
 889              		.loc 17 112 30 is_stmt 0 view .LVU200
 890 003e 0122     		movs	r2, #1
 891 0040 6423     		movs	r3, #100
 892 0042 0DF10701 		add	r1, sp, #7
 893 0046 3846     		mov	r0, r7
 894 0048 EDB2     		uxtb	r5, r5
 895 004a FFF7FEFF 		bl	_ZN5daisy9SpiHandle16BlockingTransmitEPhjm
 896              	.LVL63:
 112:../../libdaisy/src/dev/oled_ssd130x.h ****     };
 897              		.loc 17 112 30 view .LVU201
 898 004e 1023     		movs	r3, #16
 899              	.LBE798:
 900              	.LBE796:
 901              	.LBB799:
 902              	.LBB800:
 111:../../libdaisy/src/dev/oled_ssd130x.h ****         spi_.BlockingTransmit(&cmd, 1);
 903              		.loc 17 111 23 view .LVU202
 904 0050 4146     		mov	r1, r8
 905 0052 3046     		mov	r0, r6
 906 0054 8DF80730 		strb	r3, [sp, #7]
 907              	.LVL64:
 111:../../libdaisy/src/dev/oled_ssd130x.h ****         spi_.BlockingTransmit(&cmd, 1);
 908              		.loc 17 111 23 view .LVU203
 909              	.LBE800:
 910              	.LBI799:
 109:../../libdaisy/src/dev/oled_ssd130x.h ****     {
 911              		.loc 17 109 10 is_stmt 1 view .LVU204
 912              	.LBB801:
 111:../../libdaisy/src/dev/oled_ssd130x.h ****         spi_.BlockingTransmit(&cmd, 1);
 913              		.loc 17 111 9 view .LVU205
 111:../../libdaisy/src/dev/oled_ssd130x.h ****         spi_.BlockingTransmit(&cmd, 1);
 914              		.loc 17 111 23 is_stmt 0 view .LVU206
 915 0058 FFF7FEFF 		bl	dsy_gpio_write
 916              	.LVL65:
 112:../../libdaisy/src/dev/oled_ssd130x.h ****     };
 917              		.loc 17 112 9 is_stmt 1 view .LVU207
 112:../../libdaisy/src/dev/oled_ssd130x.h ****     };
 918              		.loc 17 112 30 is_stmt 0 view .LVU208
 919 005c 6423     		movs	r3, #100
 920 005e 0122     		movs	r2, #1
 921 0060 0DF10701 		add	r1, sp, #7
 922 0064 3846     		mov	r0, r7
 923 0066 FFF7FEFF 		bl	_ZN5daisy9SpiHandle16BlockingTransmitEPhjm
 924              	.LVL66:
 112:../../libdaisy/src/dev/oled_ssd130x.h ****     };
 925              		.loc 17 112 30 view .LVU209
 926              	.LBE801:
 927              	.LBE799:
 928              	.LBB802:
 929              	.LBI802:
 115:../../libdaisy/src/dev/oled_ssd130x.h ****     {
 930              		.loc 17 115 10 is_stmt 1 view .LVU210
 931              	.LBB803:
 117:../../libdaisy/src/dev/oled_ssd130x.h ****         spi_.BlockingTransmit(buff, size);
 932              		.loc 17 117 9 view .LVU211
ARM GAS  /tmp/cc3v7X8N.s 			page 41


 117:../../libdaisy/src/dev/oled_ssd130x.h ****         spi_.BlockingTransmit(buff, size);
 933              		.loc 17 117 23 is_stmt 0 view .LVU212
 934 006a 0121     		movs	r1, #1
 935 006c 3046     		mov	r0, r6
 936 006e FFF7FEFF 		bl	dsy_gpio_write
 937              	.LVL67:
 118:../../libdaisy/src/dev/oled_ssd130x.h ****     };
 938              		.loc 17 118 9 is_stmt 1 view .LVU213
 118:../../libdaisy/src/dev/oled_ssd130x.h ****     };
 939              		.loc 17 118 30 is_stmt 0 view .LVU214
 940 0072 8022     		movs	r2, #128
 941 0074 2146     		mov	r1, r4
 942 0076 6423     		movs	r3, #100
 943 0078 3846     		mov	r0, r7
 944 007a 1444     		add	r4, r4, r2
 945              	.LVL68:
 118:../../libdaisy/src/dev/oled_ssd130x.h ****     };
 946              		.loc 17 118 30 view .LVU215
 947 007c FFF7FEFF 		bl	_ZN5daisy9SpiHandle16BlockingTransmitEPhjm
 948              	.LVL69:
 118:../../libdaisy/src/dev/oled_ssd130x.h ****     };
 949              		.loc 17 118 30 view .LVU216
 950              	.LBE803:
 951              	.LBE802:
 952              		.loc 17 270 9 is_stmt 1 view .LVU217
 953              		.loc 17 270 22 view .LVU218
 954 0080 B82D     		cmp	r5, #184
 955 0082 C7D1     		bne	.L42
 956              	.LBE804:
 957              	.LBE805:
 958              		.loc 3 50 48 is_stmt 0 view .LVU219
 959 0084 02B0     		add	sp, sp, #8
 960              		.cfi_def_cfa_offset 24
 961              		@ sp needed
 962 0086 BDE8F081 		pop	{r4, r5, r6, r7, r8, pc}
 963              		.loc 3 50 48 view .LVU220
 964              		.cfi_endproc
 965              	.LFE4560:
 967 008a 00BF     		.section	.text._ZN5daisy25OneBitGraphicsDisplayImplINS_11OledDisplayINS_13SSD130xDriverILj128ELj64
 968              		.align	1
 969              		.p2align 2,,3
 970              		.weak	_ZN5daisy25OneBitGraphicsDisplayImplINS_11OledDisplayINS_13SSD130xDriverILj128ELj64ENS_24SSD
 971              		.syntax unified
 972              		.thumb
 973              		.thumb_func
 974              		.fpu fpv5-d16
 976              	_ZN5daisy25OneBitGraphicsDisplayImplINS_11OledDisplayINS_13SSD130xDriverILj128ELj64ENS_24SSD130x4Wi
 977              	.LVL70:
 978              	.LFB4559:
 220:../../libdaisy/src/hid/disp/display.h **** 
 221:../../libdaisy/src/hid/disp/display.h ****     void DrawLine(uint_fast8_t x1,
 222:../../libdaisy/src/hid/disp/display.h ****                   uint_fast8_t y1,
 223:../../libdaisy/src/hid/disp/display.h ****                   uint_fast8_t x2,
 224:../../libdaisy/src/hid/disp/display.h ****                   uint_fast8_t y2,
 225:../../libdaisy/src/hid/disp/display.h ****                   bool         on) override
 226:../../libdaisy/src/hid/disp/display.h ****     {
 227:../../libdaisy/src/hid/disp/display.h ****         int_fast16_t deltaX = abs((int_fast16_t)x2 - (int_fast16_t)x1);
ARM GAS  /tmp/cc3v7X8N.s 			page 42


 228:../../libdaisy/src/hid/disp/display.h ****         int_fast16_t deltaY = abs((int_fast16_t)y2 - (int_fast16_t)y1);
 229:../../libdaisy/src/hid/disp/display.h ****         int_fast16_t signX  = ((x1 < x2) ? 1 : -1);
 230:../../libdaisy/src/hid/disp/display.h ****         int_fast16_t signY  = ((y1 < y2) ? 1 : -1);
 231:../../libdaisy/src/hid/disp/display.h ****         int_fast16_t error  = deltaX - deltaY;
 232:../../libdaisy/src/hid/disp/display.h ****         int_fast16_t error2;
 233:../../libdaisy/src/hid/disp/display.h **** 
 234:../../libdaisy/src/hid/disp/display.h ****         // If we write "ChildType::DrawPixel(x2, y2, on);", we end up with
 235:../../libdaisy/src/hid/disp/display.h ****         // all sorts of weird compiler errors when the Child class is a template
 236:../../libdaisy/src/hid/disp/display.h ****         // class. The only way around this is to use this very verbose syntax:
 237:../../libdaisy/src/hid/disp/display.h ****         ((ChildType*)(this))->ChildType::DrawPixel(x2, y2, on);
 238:../../libdaisy/src/hid/disp/display.h **** 
 239:../../libdaisy/src/hid/disp/display.h ****         while((x1 != x2) || (y1 != y2))
 240:../../libdaisy/src/hid/disp/display.h ****         {
 241:../../libdaisy/src/hid/disp/display.h ****             ((ChildType*)(this))->ChildType::DrawPixel(x1, y1, on);
 242:../../libdaisy/src/hid/disp/display.h ****             error2 = error * 2;
 243:../../libdaisy/src/hid/disp/display.h ****             if(error2 > -deltaY)
 244:../../libdaisy/src/hid/disp/display.h ****             {
 245:../../libdaisy/src/hid/disp/display.h ****                 error -= deltaY;
 246:../../libdaisy/src/hid/disp/display.h ****                 x1 += signX;
 247:../../libdaisy/src/hid/disp/display.h ****             }
 248:../../libdaisy/src/hid/disp/display.h **** 
 249:../../libdaisy/src/hid/disp/display.h ****             if(error2 < deltaX)
 250:../../libdaisy/src/hid/disp/display.h ****             {
 251:../../libdaisy/src/hid/disp/display.h ****                 error += deltaX;
 252:../../libdaisy/src/hid/disp/display.h ****                 y1 += signY;
 253:../../libdaisy/src/hid/disp/display.h ****             }
 254:../../libdaisy/src/hid/disp/display.h ****         }
 255:../../libdaisy/src/hid/disp/display.h ****     }
 256:../../libdaisy/src/hid/disp/display.h **** 
 257:../../libdaisy/src/hid/disp/display.h ****     void DrawRect(uint_fast8_t x1,
 258:../../libdaisy/src/hid/disp/display.h ****                   uint_fast8_t y1,
 259:../../libdaisy/src/hid/disp/display.h ****                   uint_fast8_t x2,
 260:../../libdaisy/src/hid/disp/display.h ****                   uint_fast8_t y2,
 261:../../libdaisy/src/hid/disp/display.h ****                   bool         on,
 262:../../libdaisy/src/hid/disp/display.h ****                   bool         fill = false) override
 263:../../libdaisy/src/hid/disp/display.h ****     {
 264:../../libdaisy/src/hid/disp/display.h ****         if(fill)
 265:../../libdaisy/src/hid/disp/display.h ****         {
 266:../../libdaisy/src/hid/disp/display.h ****             for(uint_fast8_t x = x1; x <= x2; x++)
 267:../../libdaisy/src/hid/disp/display.h ****             {
 268:../../libdaisy/src/hid/disp/display.h ****                 for(uint_fast8_t y = y1; y <= y2; y++)
 269:../../libdaisy/src/hid/disp/display.h ****                 {
 270:../../libdaisy/src/hid/disp/display.h ****                     ((ChildType*)(this))->ChildType::DrawPixel(x, y, on);
 271:../../libdaisy/src/hid/disp/display.h ****                 }
 272:../../libdaisy/src/hid/disp/display.h ****             }
 273:../../libdaisy/src/hid/disp/display.h ****         }
 274:../../libdaisy/src/hid/disp/display.h ****         else
 275:../../libdaisy/src/hid/disp/display.h ****         {
 276:../../libdaisy/src/hid/disp/display.h ****             ((ChildType*)(this))->ChildType::DrawLine(x1, y1, x2, y1, on);
 277:../../libdaisy/src/hid/disp/display.h ****             ((ChildType*)(this))->ChildType::DrawLine(x2, y1, x2, y2, on);
 278:../../libdaisy/src/hid/disp/display.h ****             ((ChildType*)(this))->ChildType::DrawLine(x2, y2, x1, y2, on);
 279:../../libdaisy/src/hid/disp/display.h ****             ((ChildType*)(this))->ChildType::DrawLine(x1, y2, x1, y1, on);
 280:../../libdaisy/src/hid/disp/display.h ****         }
 281:../../libdaisy/src/hid/disp/display.h ****     }
 282:../../libdaisy/src/hid/disp/display.h **** 
 283:../../libdaisy/src/hid/disp/display.h ****     void DrawArc(uint_fast8_t x,
 284:../../libdaisy/src/hid/disp/display.h ****                  uint_fast8_t y,
ARM GAS  /tmp/cc3v7X8N.s 			page 43


 285:../../libdaisy/src/hid/disp/display.h ****                  uint_fast8_t radius,
 286:../../libdaisy/src/hid/disp/display.h ****                  int_fast16_t start_angle,
 287:../../libdaisy/src/hid/disp/display.h ****                  int_fast16_t sweep,
 288:../../libdaisy/src/hid/disp/display.h ****                  bool         on) override
 289:../../libdaisy/src/hid/disp/display.h ****     {
 290:../../libdaisy/src/hid/disp/display.h ****         // Values to calculate the circle
 291:../../libdaisy/src/hid/disp/display.h ****         int_fast16_t t_x, t_y, err, e2;
 292:../../libdaisy/src/hid/disp/display.h **** 
 293:../../libdaisy/src/hid/disp/display.h ****         // Temporary values to speed up comparisons
 294:../../libdaisy/src/hid/disp/display.h ****         float t_sxy, t_syx, t_sxny, t_synx;
 295:../../libdaisy/src/hid/disp/display.h ****         float t_exy, t_eyx, t_exny, t_eynx;
 296:../../libdaisy/src/hid/disp/display.h **** 
 297:../../libdaisy/src/hid/disp/display.h ****         float start_angle_rad, end_angle_rad;
 298:../../libdaisy/src/hid/disp/display.h ****         float start_x, start_y, end_x, end_y;
 299:../../libdaisy/src/hid/disp/display.h **** 
 300:../../libdaisy/src/hid/disp/display.h ****         bool d1, d2, d3, d4;
 301:../../libdaisy/src/hid/disp/display.h **** 
 302:../../libdaisy/src/hid/disp/display.h ****         d1 = d2 = d3 = d4 = true;
 303:../../libdaisy/src/hid/disp/display.h **** 
 304:../../libdaisy/src/hid/disp/display.h ****         bool circle = false;
 305:../../libdaisy/src/hid/disp/display.h **** 
 306:../../libdaisy/src/hid/disp/display.h ****         if(sweep < 0)
 307:../../libdaisy/src/hid/disp/display.h ****         {
 308:../../libdaisy/src/hid/disp/display.h ****             start_angle += sweep;
 309:../../libdaisy/src/hid/disp/display.h ****             sweep = -sweep;
 310:../../libdaisy/src/hid/disp/display.h ****         }
 311:../../libdaisy/src/hid/disp/display.h **** 
 312:../../libdaisy/src/hid/disp/display.h ****         start_angle_rad = deg2rad(start_angle);
 313:../../libdaisy/src/hid/disp/display.h ****         end_angle_rad   = deg2rad(start_angle + sweep);
 314:../../libdaisy/src/hid/disp/display.h **** 
 315:../../libdaisy/src/hid/disp/display.h ****         start_x = cos(start_angle_rad) * radius;
 316:../../libdaisy/src/hid/disp/display.h ****         start_y = -sin(start_angle_rad) * radius;
 317:../../libdaisy/src/hid/disp/display.h ****         end_x   = cos(end_angle_rad) * radius;
 318:../../libdaisy/src/hid/disp/display.h ****         end_y   = -sin(end_angle_rad) * radius;
 319:../../libdaisy/src/hid/disp/display.h **** 
 320:../../libdaisy/src/hid/disp/display.h ****         // Check if start and endpoint are very near
 321:../../libdaisy/src/hid/disp/display.h ****         if((end_x - start_x) * (end_x - start_x)
 322:../../libdaisy/src/hid/disp/display.h ****                + (end_y - start_y) * (end_y - start_y)
 323:../../libdaisy/src/hid/disp/display.h ****            < 2.0f)
 324:../../libdaisy/src/hid/disp/display.h ****         {
 325:../../libdaisy/src/hid/disp/display.h ****             if(sweep > 180)
 326:../../libdaisy/src/hid/disp/display.h ****                 circle = true;
 327:../../libdaisy/src/hid/disp/display.h ****             else
 328:../../libdaisy/src/hid/disp/display.h ****                 // Nothing to draw
 329:../../libdaisy/src/hid/disp/display.h ****                 return;
 330:../../libdaisy/src/hid/disp/display.h ****         }
 331:../../libdaisy/src/hid/disp/display.h **** 
 332:../../libdaisy/src/hid/disp/display.h ****         t_x = -radius;
 333:../../libdaisy/src/hid/disp/display.h ****         t_y = 0;
 334:../../libdaisy/src/hid/disp/display.h ****         err = 2 - 2 * radius;
 335:../../libdaisy/src/hid/disp/display.h **** 
 336:../../libdaisy/src/hid/disp/display.h ****         do
 337:../../libdaisy/src/hid/disp/display.h ****         {
 338:../../libdaisy/src/hid/disp/display.h ****             if(!circle)
 339:../../libdaisy/src/hid/disp/display.h ****             {
 340:../../libdaisy/src/hid/disp/display.h ****                 t_sxy  = start_x * t_y;
 341:../../libdaisy/src/hid/disp/display.h ****                 t_syx  = start_y * t_x;
ARM GAS  /tmp/cc3v7X8N.s 			page 44


 342:../../libdaisy/src/hid/disp/display.h ****                 t_sxny = start_x * -t_y;
 343:../../libdaisy/src/hid/disp/display.h ****                 t_synx = start_y * -t_x;
 344:../../libdaisy/src/hid/disp/display.h ****                 t_exy  = end_x * t_y;
 345:../../libdaisy/src/hid/disp/display.h ****                 t_eyx  = end_y * t_x;
 346:../../libdaisy/src/hid/disp/display.h ****                 t_exny = end_x * -t_y;
 347:../../libdaisy/src/hid/disp/display.h ****                 t_eynx = end_y * -t_x;
 348:../../libdaisy/src/hid/disp/display.h **** 
 349:../../libdaisy/src/hid/disp/display.h ****                 if(sweep > 180)
 350:../../libdaisy/src/hid/disp/display.h ****                 {
 351:../../libdaisy/src/hid/disp/display.h ****                     d1 = (t_sxy - t_synx < 0 || t_exy - t_eynx > 0);
 352:../../libdaisy/src/hid/disp/display.h ****                     d2 = (t_sxy - t_syx < 0 || t_exy - t_eyx > 0);
 353:../../libdaisy/src/hid/disp/display.h ****                     d3 = (t_sxny - t_syx < 0 || t_exny - t_eyx > 0);
 354:../../libdaisy/src/hid/disp/display.h ****                     d4 = (t_sxny - t_synx < 0 || t_exny - t_eynx > 0);
 355:../../libdaisy/src/hid/disp/display.h ****                 }
 356:../../libdaisy/src/hid/disp/display.h ****                 else
 357:../../libdaisy/src/hid/disp/display.h ****                 {
 358:../../libdaisy/src/hid/disp/display.h ****                     d1 = (t_sxy - t_synx < 0 && t_exy - t_eynx > 0);
 359:../../libdaisy/src/hid/disp/display.h ****                     d2 = (t_sxy - t_syx < 0 && t_exy - t_eyx > 0);
 360:../../libdaisy/src/hid/disp/display.h ****                     d3 = (t_sxny - t_syx < 0 && t_exny - t_eyx > 0);
 361:../../libdaisy/src/hid/disp/display.h ****                     d4 = (t_sxny - t_synx < 0 && t_exny - t_eynx > 0);
 362:../../libdaisy/src/hid/disp/display.h ****                 }
 363:../../libdaisy/src/hid/disp/display.h ****             }
 364:../../libdaisy/src/hid/disp/display.h **** 
 365:../../libdaisy/src/hid/disp/display.h ****             if(d1)
 366:../../libdaisy/src/hid/disp/display.h ****                 ((ChildType*)(this))
 367:../../libdaisy/src/hid/disp/display.h ****                     ->ChildType::DrawPixel(x - t_x, y + t_y, on);
 368:../../libdaisy/src/hid/disp/display.h ****             if(d2)
 369:../../libdaisy/src/hid/disp/display.h ****                 ((ChildType*)(this))
 370:../../libdaisy/src/hid/disp/display.h ****                     ->ChildType::DrawPixel(x + t_x, y + t_y, on);
 371:../../libdaisy/src/hid/disp/display.h ****             if(d3)
 372:../../libdaisy/src/hid/disp/display.h ****                 ((ChildType*)(this))
 373:../../libdaisy/src/hid/disp/display.h ****                     ->ChildType::DrawPixel(x + t_x, y - t_y, on);
 374:../../libdaisy/src/hid/disp/display.h ****             if(d4)
 375:../../libdaisy/src/hid/disp/display.h ****                 ((ChildType*)(this))
 376:../../libdaisy/src/hid/disp/display.h ****                     ->ChildType::DrawPixel(x - t_x, y - t_y, on);
 377:../../libdaisy/src/hid/disp/display.h **** 
 378:../../libdaisy/src/hid/disp/display.h ****             e2 = err;
 379:../../libdaisy/src/hid/disp/display.h ****             if(e2 <= t_y)
 380:../../libdaisy/src/hid/disp/display.h ****             {
 381:../../libdaisy/src/hid/disp/display.h ****                 t_y++;
 382:../../libdaisy/src/hid/disp/display.h ****                 err = err + (t_y * 2 + 1);
 383:../../libdaisy/src/hid/disp/display.h ****                 if(-t_x == t_y && e2 <= t_x)
 384:../../libdaisy/src/hid/disp/display.h ****                 {
 385:../../libdaisy/src/hid/disp/display.h ****                     e2 = 0;
 386:../../libdaisy/src/hid/disp/display.h ****                 }
 387:../../libdaisy/src/hid/disp/display.h ****             }
 388:../../libdaisy/src/hid/disp/display.h ****             if(e2 > t_x)
 389:../../libdaisy/src/hid/disp/display.h ****             {
 390:../../libdaisy/src/hid/disp/display.h ****                 t_x++;
 391:../../libdaisy/src/hid/disp/display.h ****                 err = err + (t_x * 2 + 1);
 392:../../libdaisy/src/hid/disp/display.h ****             }
 393:../../libdaisy/src/hid/disp/display.h ****         } while(t_x <= 0);
 394:../../libdaisy/src/hid/disp/display.h ****     }
 395:../../libdaisy/src/hid/disp/display.h **** 
 396:../../libdaisy/src/hid/disp/display.h ****     char WriteChar(char ch, FontDef font, bool on) override
 397:../../libdaisy/src/hid/disp/display.h ****     {
 398:../../libdaisy/src/hid/disp/display.h ****         uint32_t i, b, j;
ARM GAS  /tmp/cc3v7X8N.s 			page 45


 399:../../libdaisy/src/hid/disp/display.h **** 
 400:../../libdaisy/src/hid/disp/display.h ****         // Check if character is valid
 401:../../libdaisy/src/hid/disp/display.h ****         if(ch < 32 || ch > 126)
 402:../../libdaisy/src/hid/disp/display.h ****             return 0;
 403:../../libdaisy/src/hid/disp/display.h **** 
 404:../../libdaisy/src/hid/disp/display.h ****         // Check remaining space on current line
 405:../../libdaisy/src/hid/disp/display.h ****         if(Width() < (currentX_ + font.FontWidth)
 406:../../libdaisy/src/hid/disp/display.h ****            || Height() < (currentY_ + font.FontHeight))
 407:../../libdaisy/src/hid/disp/display.h ****         {
 408:../../libdaisy/src/hid/disp/display.h ****             // Not enough space on current line
 409:../../libdaisy/src/hid/disp/display.h ****             return 0;
 410:../../libdaisy/src/hid/disp/display.h ****         }
 411:../../libdaisy/src/hid/disp/display.h **** 
 412:../../libdaisy/src/hid/disp/display.h ****         // Use the font to write
 413:../../libdaisy/src/hid/disp/display.h ****         for(i = 0; i < font.FontHeight; i++)
 414:../../libdaisy/src/hid/disp/display.h ****         {
 415:../../libdaisy/src/hid/disp/display.h ****             b = font.data[(ch - 32) * font.FontHeight + i];
 416:../../libdaisy/src/hid/disp/display.h ****             for(j = 0; j < font.FontWidth; j++)
 417:../../libdaisy/src/hid/disp/display.h ****             {
 418:../../libdaisy/src/hid/disp/display.h ****                 if((b << j) & 0x8000)
 419:../../libdaisy/src/hid/disp/display.h ****                 {
 420:../../libdaisy/src/hid/disp/display.h ****                     ((ChildType*)(this))
 421:../../libdaisy/src/hid/disp/display.h ****                         ->ChildType::DrawPixel(
 422:../../libdaisy/src/hid/disp/display.h ****                             currentX_ + j, (currentY_ + i), on);
 423:../../libdaisy/src/hid/disp/display.h ****                 }
 424:../../libdaisy/src/hid/disp/display.h ****                 else
 425:../../libdaisy/src/hid/disp/display.h ****                 {
 426:../../libdaisy/src/hid/disp/display.h ****                     ((ChildType*)(this))
 427:../../libdaisy/src/hid/disp/display.h ****                         ->ChildType::DrawPixel(
 428:../../libdaisy/src/hid/disp/display.h ****                             currentX_ + j, (currentY_ + i), !on);
 429:../../libdaisy/src/hid/disp/display.h ****                 }
 430:../../libdaisy/src/hid/disp/display.h ****             }
 431:../../libdaisy/src/hid/disp/display.h ****         }
 432:../../libdaisy/src/hid/disp/display.h **** 
 433:../../libdaisy/src/hid/disp/display.h ****         // The current space is now taken
 434:../../libdaisy/src/hid/disp/display.h ****         SetCursor(currentX_ + font.FontWidth, currentY_);
 435:../../libdaisy/src/hid/disp/display.h **** 
 436:../../libdaisy/src/hid/disp/display.h ****         // Return written char for validation
 437:../../libdaisy/src/hid/disp/display.h ****         return ch;
 438:../../libdaisy/src/hid/disp/display.h ****     }
 439:../../libdaisy/src/hid/disp/display.h **** 
 440:../../libdaisy/src/hid/disp/display.h ****     char WriteString(const char* str, FontDef font, bool on) override
 979              		.loc 4 440 10 is_stmt 1 view -0
 980              		.cfi_startproc
 981              		@ args = 4, pretend = 0, frame = 32
 982              		@ frame_needed = 0, uses_anonymous_args = 0
 983              		.loc 4 440 10 is_stmt 0 view .LVU222
 984 0000 2DE9F04F 		push	{r4, r5, r6, r7, r8, r9, r10, fp, lr}
 985              		.cfi_def_cfa_offset 36
 986              		.cfi_offset 4, -36
 987              		.cfi_offset 5, -32
 988              		.cfi_offset 6, -28
 989              		.cfi_offset 7, -24
 990              		.cfi_offset 8, -20
 991              		.cfi_offset 9, -16
 992              		.cfi_offset 10, -12
 993              		.cfi_offset 11, -8
ARM GAS  /tmp/cc3v7X8N.s 			page 46


 994              		.cfi_offset 14, -4
 995 0004 89B0     		sub	sp, sp, #36
 996              		.cfi_def_cfa_offset 72
 997              		.loc 4 440 10 view .LVU223
 998 0006 8B46     		mov	fp, r1
 441:../../libdaisy/src/hid/disp/display.h ****     {
 442:../../libdaisy/src/hid/disp/display.h ****         // Write until null-byte
 443:../../libdaisy/src/hid/disp/display.h ****         while(*str)
 999              		.loc 4 443 9 is_stmt 1 view .LVU224
 1000 0008 91F80090 		ldrb	r9, [r1]	@ zero_extendqisi2
 440:../../libdaisy/src/hid/disp/display.h ****     {
 1001              		.loc 4 440 10 is_stmt 0 view .LVU225
 1002 000c 9DF84840 		ldrb	r4, [sp, #72]	@ zero_extendqisi2
 1003 0010 08A9     		add	r1, sp, #32
 1004              	.LVL71:
 440:../../libdaisy/src/hid/disp/display.h ****     {
 1005              		.loc 4 440 10 view .LVU226
 1006 0012 0494     		str	r4, [sp, #16]
 1007 0014 01E90C00 		stmdb	r1, {r2, r3}
 1008              		.loc 4 443 9 view .LVU227
 1009 0018 B9F1000F 		cmp	r9, #0
 1010 001c 00F0B780 		beq	.L69
 1011 0020 9DF81930 		ldrb	r3, [sp, #25]	@ zero_extendqisi2
 1012 0024 8046     		mov	r8, r0
 1013 0026 9DF818A0 		ldrb	r10, [sp, #24]	@ zero_extendqisi2
 1014 002a 4D46     		mov	r5, r9
 1015 002c 0193     		str	r3, [sp, #4]
 1016 002e 079B     		ldr	r3, [sp, #28]
 1017 0030 0593     		str	r3, [sp, #20]
 1018              	.LVL72:
 1019              	.L70:
 1020              	.LBB834:
 1021              	.LBI834:
 396:../../libdaisy/src/hid/disp/display.h ****     {
 1022              		.loc 4 396 10 is_stmt 1 view .LVU228
 1023              	.LBB835:
 401:../../libdaisy/src/hid/disp/display.h ****             return 0;
 1024              		.loc 4 401 20 is_stmt 0 view .LVU229
 1025 0032 A5F12004 		sub	r4, r5, #32
 401:../../libdaisy/src/hid/disp/display.h ****             return 0;
 1026              		.loc 4 401 9 view .LVU230
 1027 0036 E3B2     		uxtb	r3, r4
 1028 0038 5E2B     		cmp	r3, #94
 1029 003a 00F2AC80 		bhi	.L51
 405:../../libdaisy/src/hid/disp/display.h ****            || Height() < (currentY_ + font.FontHeight))
 1030              		.loc 4 405 17 view .LVU231
 1031 003e D8F80030 		ldr	r3, [r8]
 1032 0042 654A     		ldr	r2, .L91
 1033 0044 DB68     		ldr	r3, [r3, #12]
 1034 0046 9342     		cmp	r3, r2
 1035 0048 40F0A780 		bne	.L84
 1036 004c 8020     		movs	r0, #128
 1037              	.L50:
 405:../../libdaisy/src/hid/disp/display.h ****            || Height() < (currentY_ + font.FontHeight))
 1038              		.loc 4 405 23 view .LVU232
 1039 004e B8F80430 		ldrh	r3, [r8, #4]
 405:../../libdaisy/src/hid/disp/display.h ****            || Height() < (currentY_ + font.FontHeight))
ARM GAS  /tmp/cc3v7X8N.s 			page 47


 1040              		.loc 4 405 33 view .LVU233
 1041 0052 5344     		add	r3, r3, r10
 406:../../libdaisy/src/hid/disp/display.h ****         {
 1042              		.loc 4 406 12 view .LVU234
 1043 0054 8342     		cmp	r3, r0
 1044 0056 00F39E80 		bgt	.L51
 406:../../libdaisy/src/hid/disp/display.h ****         {
 1045              		.loc 4 406 21 view .LVU235
 1046 005a D8F80030 		ldr	r3, [r8]
 1047 005e 5F4A     		ldr	r2, .L91+4
 1048 0060 9B68     		ldr	r3, [r3, #8]
 1049 0062 9342     		cmp	r3, r2
 1050 0064 40F09C80 		bne	.L85
 1051 0068 4020     		movs	r0, #64
 1052              	.L52:
 406:../../libdaisy/src/hid/disp/display.h ****         {
 1053              		.loc 4 406 27 view .LVU236
 1054 006a B8F80610 		ldrh	r1, [r8, #6]
 406:../../libdaisy/src/hid/disp/display.h ****         {
 1055              		.loc 4 406 37 view .LVU237
 1056 006e 019A     		ldr	r2, [sp, #4]
 406:../../libdaisy/src/hid/disp/display.h ****         {
 1057              		.loc 4 406 27 view .LVU238
 1058 0070 0091     		str	r1, [sp]
 406:../../libdaisy/src/hid/disp/display.h ****         {
 1059              		.loc 4 406 37 view .LVU239
 1060 0072 8B18     		adds	r3, r1, r2
 406:../../libdaisy/src/hid/disp/display.h ****         {
 1061              		.loc 4 406 12 view .LVU240
 1062 0074 8342     		cmp	r3, r0
 1063 0076 00F38E80 		bgt	.L51
 1064              	.LVL73:
 413:../../libdaisy/src/hid/disp/display.h ****         {
 1065              		.loc 4 413 22 is_stmt 1 view .LVU241
 1066 007a 1046     		mov	r0, r2
 1067 007c 002A     		cmp	r2, #0
 1068 007e 00F09A80 		beq	.L53
 415:../../libdaisy/src/hid/disp/display.h ****             for(j = 0; j < font.FontWidth; j++)
 1069              		.loc 4 415 37 is_stmt 0 view .LVU242
 1070 0082 1346     		mov	r3, r2
 1071 0084 6FF00046 		mvn	r6, #-2147483648
 1072 0088 B8F80470 		ldrh	r7, [r8, #4]
 1073 008c 03FB04F3 		mul	r3, r3, r4
 1074 0090 059C     		ldr	r4, [sp, #20]
 1075 0092 BE46     		mov	lr, r7
 1076 0094 CDF80CB0 		str	fp, [sp, #12]
 1077 0098 1E44     		add	r6, r6, r3
 1078 009a A21E     		subs	r2, r4, #2
 1079 009c 0344     		add	r3, r3, r0
 1080 009e 5746     		mov	r7, r10
 1081 00a0 04EB4606 		add	r6, r4, r6, lsl #1
 1082 00a4 DDF81090 		ldr	r9, [sp, #16]
 1083 00a8 02EB4303 		add	r3, r2, r3, lsl #1
 1084 00ac 0295     		str	r5, [sp, #8]
 1085 00ae 9B46     		mov	fp, r3
 1086              	.LVL74:
 1087              	.L56:
ARM GAS  /tmp/cc3v7X8N.s 			page 48


 415:../../libdaisy/src/hid/disp/display.h ****             for(j = 0; j < font.FontWidth; j++)
 1088              		.loc 4 415 13 view .LVU243
 1089 00b0 36F802AF 		ldrh	r10, [r6, #2]!
 1090              	.LVL75:
 416:../../libdaisy/src/hid/disp/display.h ****             {
 1091              		.loc 4 416 26 is_stmt 1 view .LVU244
 1092 00b4 A7B3     		cbz	r7, .L61
 1093              	.LBB836:
 1094              	.LBB837:
 1095              	.LBB838:
 1096              	.LBB839:
 1097              	.LBB840:
 246:../../libdaisy/src/dev/oled_ssd130x.h ****     }
 1098              		.loc 17 246 49 is_stmt 0 view .LVU245
 1099 00b6 0124     		movs	r4, #1
 246:../../libdaisy/src/dev/oled_ssd130x.h ****     }
 1100              		.loc 17 246 55 view .LVU246
 1101 00b8 01F00702 		and	r2, r1, #7
 246:../../libdaisy/src/dev/oled_ssd130x.h ****     }
 1102              		.loc 17 246 28 view .LVU247
 1103 00bc C808     		lsrs	r0, r1, #3
 1104 00be 0EF11403 		add	r3, lr, #20
 246:../../libdaisy/src/dev/oled_ssd130x.h ****     }
 1105              		.loc 17 246 49 view .LVU248
 1106 00c2 04FA02F2 		lsl	r2, r4, r2
 1107 00c6 7446     		mov	r4, lr
 1108 00c8 03EBC013 		add	r3, r3, r0, lsl #7
 1109              	.LBE840:
 1110              	.LBE839:
 1111              	.LBE838:
 1112              	.LBE837:
 1113              	.LBE836:
 416:../../libdaisy/src/hid/disp/display.h ****             {
 1114              		.loc 4 416 19 view .LVU249
 1115 00cc 0020     		movs	r0, #0
 1116              	.LBB858:
 1117              	.LBB853:
 1118              	.LBB848:
 1119              	.LBB844:
 1120              	.LBB841:
 246:../../libdaisy/src/dev/oled_ssd130x.h ****     }
 1121              		.loc 17 246 42 view .LVU250
 1122 00ce 52B2     		sxtb	r2, r2
 1123 00d0 4344     		add	r3, r3, r8
 1124 00d2 6FEA020C 		mvn	ip, r2
 1125 00d6 0EE0     		b	.L62
 1126              	.LVL76:
 1127              	.L86:
 246:../../libdaisy/src/dev/oled_ssd130x.h ****     }
 1128              		.loc 17 246 42 view .LVU251
 1129              	.LBE841:
 1130              	.LBE844:
 1131              	.LBE848:
 1132              	.LBE853:
 1133              	.LBE858:
 1134              	.LBB859:
 1135              	.LBI859:
ARM GAS  /tmp/cc3v7X8N.s 			page 49


  41:../../libdaisy/src/hid/disp/oled_display.h ****     {
 1136              		.loc 3 41 10 is_stmt 1 view .LVU252
 1137              	.LBB860:
 1138              	.LBI860:
 239:../../libdaisy/src/dev/oled_ssd130x.h ****     {
 1139              		.loc 17 239 10 view .LVU253
 1140              	.LBB861:
 241:../../libdaisy/src/dev/oled_ssd130x.h ****             return;
 1141              		.loc 17 241 9 is_stmt 0 view .LVU254
 1142 00d8 7F2C     		cmp	r4, #127
 1143 00da 07D8     		bhi	.L58
 1144 00dc 3F29     		cmp	r1, #63
 1145 00de 05D8     		bhi	.L58
 244:../../libdaisy/src/dev/oled_ssd130x.h ****         else
 1146              		.loc 17 244 42 view .LVU255
 1147 00e0 1D78     		ldrb	r5, [r3]	@ zero_extendqisi2
 243:../../libdaisy/src/dev/oled_ssd130x.h ****             buffer_[x + (y / 8) * width] |= (1 << (y % 8));
 1148              		.loc 17 243 9 view .LVU256
 1149 00e2 B9F1000F 		cmp	r9, #0
 1150 00e6 12D0     		beq	.L60
 1151              	.L83:
 243:../../libdaisy/src/dev/oled_ssd130x.h ****             buffer_[x + (y / 8) * width] |= (1 << (y % 8));
 1152              		.loc 17 243 9 view .LVU257
 1153              	.LBE861:
 1154              	.LBE860:
 1155              	.LBE859:
 1156              	.LBB862:
 1157              	.LBB854:
 1158              	.LBB849:
 244:../../libdaisy/src/dev/oled_ssd130x.h ****         else
 1159              		.loc 17 244 42 view .LVU258
 1160 00e8 1543     		orrs	r5, r5, r2
 244:../../libdaisy/src/dev/oled_ssd130x.h ****         else
 1161              		.loc 17 244 13 view .LVU259
 1162 00ea 1D70     		strb	r5, [r3]
 1163              	.L58:
 1164              	.LBE849:
 1165              	.LBE854:
 1166              	.LBE862:
 416:../../libdaisy/src/hid/disp/display.h ****             {
 1167              		.loc 4 416 13 is_stmt 1 view .LVU260
 1168 00ec 0130     		adds	r0, r0, #1
 1169              	.LVL77:
 416:../../libdaisy/src/hid/disp/display.h ****             {
 1170              		.loc 4 416 26 view .LVU261
 1171 00ee 0133     		adds	r3, r3, #1
 1172 00f0 0134     		adds	r4, r4, #1
 1173 00f2 B842     		cmp	r0, r7
 1174 00f4 14D0     		beq	.L61
 1175              	.LVL78:
 1176              	.L62:
 418:../../libdaisy/src/hid/disp/display.h ****                 {
 1177              		.loc 4 418 23 is_stmt 0 view .LVU262
 1178 00f6 0AFA00F5 		lsl	r5, r10, r0
 418:../../libdaisy/src/hid/disp/display.h ****                 {
 1179              		.loc 4 418 17 view .LVU263
 1180 00fa 2D04     		lsls	r5, r5, #16
ARM GAS  /tmp/cc3v7X8N.s 			page 50


 1181 00fc ECD4     		bmi	.L86
 1182              	.LVL79:
 1183              	.LBB863:
 1184              	.LBI836:
  41:../../libdaisy/src/hid/disp/oled_display.h ****     {
 1185              		.loc 3 41 10 is_stmt 1 view .LVU264
 1186              	.LBB855:
 1187              	.LBI837:
 239:../../libdaisy/src/dev/oled_ssd130x.h ****     {
 1188              		.loc 17 239 10 view .LVU265
 1189              	.LBB850:
 241:../../libdaisy/src/dev/oled_ssd130x.h ****             return;
 1190              		.loc 17 241 9 is_stmt 0 view .LVU266
 1191 00fe 7F2C     		cmp	r4, #127
 1192 0100 F4D8     		bhi	.L58
 1193 0102 3F29     		cmp	r1, #63
 1194 0104 F2D8     		bhi	.L58
 244:../../libdaisy/src/dev/oled_ssd130x.h ****         else
 1195              		.loc 17 244 42 view .LVU267
 1196 0106 1D78     		ldrb	r5, [r3]	@ zero_extendqisi2
 243:../../libdaisy/src/dev/oled_ssd130x.h ****             buffer_[x + (y / 8) * width] |= (1 << (y % 8));
 1197              		.loc 17 243 9 view .LVU268
 1198 0108 B9F1000F 		cmp	r9, #0
 1199 010c ECD0     		beq	.L83
 1200              	.L60:
 1201              	.LVL80:
 1202              	.LBB845:
 1203              	.LBI839:
 239:../../libdaisy/src/dev/oled_ssd130x.h ****     {
 1204              		.loc 17 239 10 is_stmt 1 view .LVU269
 239:../../libdaisy/src/dev/oled_ssd130x.h ****     {
 1205              		.loc 17 239 10 is_stmt 0 view .LVU270
 1206              	.LBE845:
 1207              	.LBE850:
 1208              	.LBE855:
 1209              	.LBE863:
 416:../../libdaisy/src/hid/disp/display.h ****             {
 1210              		.loc 4 416 13 view .LVU271
 1211 010e 0130     		adds	r0, r0, #1
 1212              	.LVL81:
 1213              	.LBB864:
 1214              	.LBB856:
 1215              	.LBB851:
 1216              	.LBB846:
 1217              	.LBB842:
 246:../../libdaisy/src/dev/oled_ssd130x.h ****     }
 1218              		.loc 17 246 42 view .LVU272
 1219 0110 0CEA0505 		and	r5, ip, r5
 1220 0114 0133     		adds	r3, r3, #1
 1221 0116 0134     		adds	r4, r4, #1
 1222              	.LBE842:
 1223              	.LBE846:
 1224              	.LBE851:
 1225              	.LBE856:
 1226              	.LBE864:
 416:../../libdaisy/src/hid/disp/display.h ****             {
 1227              		.loc 4 416 26 view .LVU273
ARM GAS  /tmp/cc3v7X8N.s 			page 51


 1228 0118 B842     		cmp	r0, r7
 1229              	.LBB865:
 1230              	.LBB857:
 1231              	.LBB852:
 1232              	.LBB847:
 1233              	.LBB843:
 246:../../libdaisy/src/dev/oled_ssd130x.h ****     }
 1234              		.loc 17 246 13 view .LVU274
 1235 011a 03F8015C 		strb	r5, [r3, #-1]
 246:../../libdaisy/src/dev/oled_ssd130x.h ****     }
 1236              		.loc 17 246 13 view .LVU275
 1237              	.LBE843:
 1238              	.LBE847:
 1239              	.LBE852:
 1240              	.LBE857:
 1241              	.LBE865:
 416:../../libdaisy/src/hid/disp/display.h ****             {
 1242              		.loc 4 416 13 is_stmt 1 view .LVU276
 1243              	.LVL82:
 416:../../libdaisy/src/hid/disp/display.h ****             {
 1244              		.loc 4 416 26 view .LVU277
 1245 011e EAD1     		bne	.L62
 1246              	.LVL83:
 1247              	.L61:
 413:../../libdaisy/src/hid/disp/display.h ****         {
 1248              		.loc 4 413 9 view .LVU278
 413:../../libdaisy/src/hid/disp/display.h ****         {
 1249              		.loc 4 413 22 view .LVU279
 1250 0120 5E45     		cmp	r6, fp
 1251 0122 01F10101 		add	r1, r1, #1
 1252 0126 C3D1     		bne	.L56
 1253 0128 BA46     		mov	r10, r7
 1254              	.LVL84:
 413:../../libdaisy/src/hid/disp/display.h ****         {
 1255              		.loc 4 413 22 is_stmt 0 view .LVU280
 1256 012a 029D     		ldr	r5, [sp, #8]
 1257 012c 7746     		mov	r7, lr
 1258 012e DDF80CB0 		ldr	fp, [sp, #12]
 1259              	.L55:
 1260              	.LBB866:
 1261              	.LBB867:
 173:../../libdaisy/src/hid/disp/display.h ****         currentY_ = (y >= Height()) ? Height() - 1 : y;
 1262              		.loc 4 173 33 view .LVU281
 1263 0132 D8F80020 		ldr	r2, [r8]
 1264              	.LBE867:
 1265              	.LBE866:
 434:../../libdaisy/src/hid/disp/display.h **** 
 1266              		.loc 4 434 18 view .LVU282
 1267 0136 5744     		add	r7, r7, r10
 1268 0138 2749     		ldr	r1, .L91
 1269              	.LBB871:
 1270              	.LBB868:
 173:../../libdaisy/src/hid/disp/display.h ****         currentY_ = (y >= Height()) ? Height() - 1 : y;
 1271              		.loc 4 173 33 view .LVU283
 1272 013a D368     		ldr	r3, [r2, #12]
 1273              	.LBE868:
 1274              	.LBE871:
ARM GAS  /tmp/cc3v7X8N.s 			page 52


 434:../../libdaisy/src/hid/disp/display.h **** 
 1275              		.loc 4 434 18 view .LVU284
 1276 013c BFB2     		uxth	r7, r7
 1277              	.LVL85:
 1278              	.LBB872:
 1279              	.LBI866:
 171:../../libdaisy/src/hid/disp/display.h ****     {
 1280              		.loc 4 171 10 is_stmt 1 view .LVU285
 1281              	.LBB869:
 173:../../libdaisy/src/hid/disp/display.h ****         currentY_ = (y >= Height()) ? Height() - 1 : y;
 1282              		.loc 4 173 9 view .LVU286
 1283 013e 8B42     		cmp	r3, r1
 1284 0140 34D1     		bne	.L87
 173:../../libdaisy/src/hid/disp/display.h ****         currentY_ = (y >= Height()) ? Height() - 1 : y;
 1285              		.loc 4 173 33 is_stmt 0 view .LVU287
 1286 0142 8020     		movs	r0, #128
 1287              	.L63:
 173:../../libdaisy/src/hid/disp/display.h ****         currentY_ = (y >= Height()) ? Height() - 1 : y;
 1288              		.loc 4 173 19 view .LVU288
 1289 0144 8742     		cmp	r7, r0
 1290 0146 04D3     		bcc	.L64
 173:../../libdaisy/src/hid/disp/display.h ****         currentY_ = (y >= Height()) ? Height() - 1 : y;
 1291              		.loc 4 173 44 view .LVU289
 1292 0148 D368     		ldr	r3, [r2, #12]
 1293 014a 2349     		ldr	r1, .L91
 1294 014c 8B42     		cmp	r3, r1
 1295 014e 3BD1     		bne	.L88
 1296 0150 7F27     		movs	r7, #127
 1297              	.LVL86:
 1298              	.L64:
 174:../../libdaisy/src/hid/disp/display.h ****     }
 1299              		.loc 4 174 34 view .LVU290
 1300 0152 9368     		ldr	r3, [r2, #8]
 1301 0154 214A     		ldr	r2, .L91+4
 173:../../libdaisy/src/hid/disp/display.h ****         currentY_ = (y >= Height()) ? Height() - 1 : y;
 1302              		.loc 4 173 19 view .LVU291
 1303 0156 A8F80470 		strh	r7, [r8, #4]	@ movhi
 174:../../libdaisy/src/hid/disp/display.h ****     }
 1304              		.loc 4 174 9 is_stmt 1 view .LVU292
 1305 015a 9342     		cmp	r3, r2
 1306 015c 23D1     		bne	.L89
 174:../../libdaisy/src/hid/disp/display.h ****     }
 1307              		.loc 4 174 34 is_stmt 0 view .LVU293
 1308 015e 4020     		movs	r0, #64
 1309              	.L66:
 174:../../libdaisy/src/hid/disp/display.h ****     }
 1310              		.loc 4 174 19 view .LVU294
 1311 0160 009B     		ldr	r3, [sp]
 1312 0162 8342     		cmp	r3, r0
 1313 0164 07D3     		bcc	.L67
 174:../../libdaisy/src/hid/disp/display.h ****     }
 1314              		.loc 4 174 46 view .LVU295
 1315 0166 D8F80030 		ldr	r3, [r8]
 1316 016a 1C4A     		ldr	r2, .L91+4
 1317 016c 9B68     		ldr	r3, [r3, #8]
 1318 016e 9342     		cmp	r3, r2
 1319 0170 24D1     		bne	.L90
ARM GAS  /tmp/cc3v7X8N.s 			page 53


 1320 0172 3F23     		movs	r3, #63
 1321 0174 0093     		str	r3, [sp]
 1322              	.LVL87:
 1323              	.L67:
 174:../../libdaisy/src/hid/disp/display.h ****     }
 1324              		.loc 4 174 19 view .LVU296
 1325 0176 009B     		ldr	r3, [sp]
 1326 0178 A8F80630 		strh	r3, [r8, #6]	@ movhi
 1327              	.LVL88:
 1328              	.L49:
 174:../../libdaisy/src/hid/disp/display.h ****     }
 1329              		.loc 4 174 19 view .LVU297
 1330              	.LBE869:
 1331              	.LBE872:
 1332              	.LBE835:
 1333              	.LBE834:
 444:../../libdaisy/src/hid/disp/display.h ****         {
 445:../../libdaisy/src/hid/disp/display.h ****             if(((ChildType*)(this))->ChildType::WriteChar(*str, font, on)
 446:../../libdaisy/src/hid/disp/display.h ****                != *str)
 1334              		.loc 4 446 16 view .LVU298
 1335 017c 9BF80000 		ldrb	r0, [fp]	@ zero_extendqisi2
 445:../../libdaisy/src/hid/disp/display.h ****                != *str)
 1336              		.loc 4 445 13 view .LVU299
 1337 0180 A842     		cmp	r0, r5
 1338 0182 05D1     		bne	.L47
 1339              	.LVL89:
 443:../../libdaisy/src/hid/disp/display.h ****         {
 1340              		.loc 4 443 9 is_stmt 1 view .LVU300
 1341 0184 1BF8015F 		ldrb	r5, [fp, #1]!	@ zero_extendqisi2
 1342              	.LVL90:
 443:../../libdaisy/src/hid/disp/display.h ****         {
 1343              		.loc 4 443 9 is_stmt 0 view .LVU301
 1344 0188 002D     		cmp	r5, #0
 1345 018a 7FF452AF 		bne	.L70
 1346              	.LVL91:
 1347              	.L69:
 1348              	.LBB876:
 1349              	.LBB874:
 402:../../libdaisy/src/hid/disp/display.h **** 
 1350              		.loc 4 402 20 view .LVU302
 1351 018e 0020     		movs	r0, #0
 1352              	.LVL92:
 1353              	.L47:
 402:../../libdaisy/src/hid/disp/display.h **** 
 1354              		.loc 4 402 20 view .LVU303
 1355              	.LBE874:
 1356              	.LBE876:
 447:../../libdaisy/src/hid/disp/display.h ****             {
 448:../../libdaisy/src/hid/disp/display.h ****                 // Char could not be written
 449:../../libdaisy/src/hid/disp/display.h ****                 return *str;
 450:../../libdaisy/src/hid/disp/display.h ****             }
 451:../../libdaisy/src/hid/disp/display.h **** 
 452:../../libdaisy/src/hid/disp/display.h ****             // Next char
 453:../../libdaisy/src/hid/disp/display.h ****             str++;
 454:../../libdaisy/src/hid/disp/display.h ****         }
 455:../../libdaisy/src/hid/disp/display.h **** 
 456:../../libdaisy/src/hid/disp/display.h ****         // Everything ok
ARM GAS  /tmp/cc3v7X8N.s 			page 54


 457:../../libdaisy/src/hid/disp/display.h ****         return *str;
 458:../../libdaisy/src/hid/disp/display.h ****     }
 1357              		.loc 4 458 5 view .LVU304
 1358 0190 09B0     		add	sp, sp, #36
 1359              		.cfi_remember_state
 1360              		.cfi_def_cfa_offset 36
 1361              		@ sp needed
 1362 0192 BDE8F08F 		pop	{r4, r5, r6, r7, r8, r9, r10, fp, pc}
 1363              	.LVL93:
 1364              	.L51:
 1365              		.cfi_restore_state
 1366              	.LBB877:
 1367              	.LBB875:
 402:../../libdaisy/src/hid/disp/display.h **** 
 1368              		.loc 4 402 20 view .LVU305
 1369 0196 0025     		movs	r5, #0
 1370              	.LVL94:
 402:../../libdaisy/src/hid/disp/display.h **** 
 1371              		.loc 4 402 20 view .LVU306
 1372 0198 F0E7     		b	.L49
 1373              	.LVL95:
 1374              	.L84:
 405:../../libdaisy/src/hid/disp/display.h ****            || Height() < (currentY_ + font.FontHeight))
 1375              		.loc 4 405 17 view .LVU307
 1376 019a 4046     		mov	r0, r8
 1377 019c 9847     		blx	r3
 1378              	.LVL96:
 1379 019e 56E7     		b	.L50
 1380              	.L85:
 406:../../libdaisy/src/hid/disp/display.h ****         {
 1381              		.loc 4 406 21 view .LVU308
 1382 01a0 4046     		mov	r0, r8
 1383 01a2 9847     		blx	r3
 1384              	.LVL97:
 1385 01a4 61E7     		b	.L52
 1386              	.LVL98:
 1387              	.L89:
 1388              	.LBB873:
 1389              	.LBB870:
 174:../../libdaisy/src/hid/disp/display.h ****     }
 1390              		.loc 4 174 33 view .LVU309
 1391 01a6 4046     		mov	r0, r8
 1392 01a8 9847     		blx	r3
 1393              	.LVL99:
 1394 01aa D9E7     		b	.L66
 1395              	.LVL100:
 1396              	.L87:
 173:../../libdaisy/src/hid/disp/display.h ****         currentY_ = (y >= Height()) ? Height() - 1 : y;
 1397              		.loc 4 173 32 view .LVU310
 1398 01ac 4046     		mov	r0, r8
 1399 01ae 9847     		blx	r3
 1400              	.LVL101:
 1401 01b0 D8F80020 		ldr	r2, [r8]
 1402 01b4 C6E7     		b	.L63
 1403              	.LVL102:
 1404              	.L53:
 173:../../libdaisy/src/hid/disp/display.h ****         currentY_ = (y >= Height()) ? Height() - 1 : y;
ARM GAS  /tmp/cc3v7X8N.s 			page 55


 1405              		.loc 4 173 32 view .LVU311
 1406 01b6 B8F80470 		ldrh	r7, [r8, #4]
 1407 01ba BAE7     		b	.L55
 1408              	.LVL103:
 1409              	.L90:
 174:../../libdaisy/src/hid/disp/display.h ****     }
 1410              		.loc 4 174 45 view .LVU312
 1411 01bc 4046     		mov	r0, r8
 1412 01be 9847     		blx	r3
 1413              	.LVL104:
 1414 01c0 0138     		subs	r0, r0, #1
 1415 01c2 83B2     		uxth	r3, r0
 1416 01c4 0093     		str	r3, [sp]
 1417              	.LVL105:
 174:../../libdaisy/src/hid/disp/display.h ****     }
 1418              		.loc 4 174 45 view .LVU313
 1419 01c6 D6E7     		b	.L67
 1420              	.LVL106:
 1421              	.L88:
 173:../../libdaisy/src/hid/disp/display.h ****         currentY_ = (y >= Height()) ? Height() - 1 : y;
 1422              		.loc 4 173 43 view .LVU314
 1423 01c8 4046     		mov	r0, r8
 1424 01ca 9847     		blx	r3
 1425              	.LVL107:
 1426 01cc 0138     		subs	r0, r0, #1
 1427 01ce D8F80020 		ldr	r2, [r8]
 1428 01d2 87B2     		uxth	r7, r0
 1429              	.LVL108:
 173:../../libdaisy/src/hid/disp/display.h ****         currentY_ = (y >= Height()) ? Height() - 1 : y;
 1430              		.loc 4 173 43 view .LVU315
 1431 01d4 BDE7     		b	.L64
 1432              	.L92:
 1433 01d6 00BF     		.align	2
 1434              	.L91:
 1435 01d8 00000000 		.word	_ZNK5daisy11OledDisplayINS_13SSD130xDriverILj128ELj64ENS_24SSD130x4WireSpiTransportEEEE5Widt
 1436 01dc 00000000 		.word	_ZNK5daisy11OledDisplayINS_13SSD130xDriverILj128ELj64ENS_24SSD130x4WireSpiTransportEEEE6Heig
 1437              	.LBE870:
 1438              	.LBE873:
 1439              	.LBE875:
 1440              	.LBE877:
 1441              		.cfi_endproc
 1442              	.LFE4559:
 1444              		.section	.text._ZN5daisy25OneBitGraphicsDisplayImplINS_11OledDisplayINS_13SSD130xDriverILj128ELj64
 1445              		.align	1
 1446              		.p2align 2,,3
 1447              		.weak	_ZN5daisy25OneBitGraphicsDisplayImplINS_11OledDisplayINS_13SSD130xDriverILj128ELj64ENS_24SSD
 1448              		.syntax unified
 1449              		.thumb
 1450              		.thumb_func
 1451              		.fpu fpv5-d16
 1453              	_ZN5daisy25OneBitGraphicsDisplayImplINS_11OledDisplayINS_13SSD130xDriverILj128ELj64ENS_24SSD130x4Wi
 1454              	.LVL109:
 1455              	.LFB4686:
 396:../../libdaisy/src/hid/disp/display.h ****     {
 1456              		.loc 4 396 10 is_stmt 1 view -0
 1457              		.cfi_startproc
 1458              		@ args = 4, pretend = 0, frame = 16
ARM GAS  /tmp/cc3v7X8N.s 			page 56


 1459              		@ frame_needed = 0, uses_anonymous_args = 0
 396:../../libdaisy/src/hid/disp/display.h ****     {
 1460              		.loc 4 396 10 is_stmt 0 view .LVU317
 1461 0000 2DE9F04F 		push	{r4, r5, r6, r7, r8, r9, r10, fp, lr}
 1462              		.cfi_def_cfa_offset 36
 1463              		.cfi_offset 4, -36
 1464              		.cfi_offset 5, -32
 1465              		.cfi_offset 6, -28
 1466              		.cfi_offset 7, -24
 1467              		.cfi_offset 8, -20
 1468              		.cfi_offset 9, -16
 1469              		.cfi_offset 10, -12
 1470              		.cfi_offset 11, -8
 1471              		.cfi_offset 14, -4
 1472 0004 85B0     		sub	sp, sp, #20
 1473              		.cfi_def_cfa_offset 56
 1474              	.LVL110:
 401:../../libdaisy/src/hid/disp/display.h ****             return 0;
 1475              		.loc 4 401 20 view .LVU318
 1476 0006 A1F12004 		sub	r4, r1, #32
 396:../../libdaisy/src/hid/disp/display.h ****     {
 1477              		.loc 4 396 10 view .LVU319
 1478 000a 0091     		str	r1, [sp]
 1479 000c 04A9     		add	r1, sp, #16
 1480              	.LVL111:
 396:../../libdaisy/src/hid/disp/display.h ****     {
 1481              		.loc 4 396 10 view .LVU320
 1482 000e 9DF83880 		ldrb	r8, [sp, #56]	@ zero_extendqisi2
 1483 0012 01E90C00 		stmdb	r1, {r2, r3}
 1484              	.LVL112:
 401:../../libdaisy/src/hid/disp/display.h ****             return 0;
 1485              		.loc 4 401 9 view .LVU321
 1486 0016 E3B2     		uxtb	r3, r4
 1487 0018 5E2B     		cmp	r3, #94
 1488 001a 00F29480 		bhi	.L97
 405:../../libdaisy/src/hid/disp/display.h ****            || Height() < (currentY_ + font.FontHeight))
 1489              		.loc 4 405 17 view .LVU322
 1490 001e 0368     		ldr	r3, [r0]
 1491 0020 8146     		mov	r9, r0
 1492 0022 5E4A     		ldr	r2, .L133
 1493 0024 DB68     		ldr	r3, [r3, #12]
 1494 0026 9DF80860 		ldrb	r6, [sp, #8]	@ zero_extendqisi2
 1495 002a 9342     		cmp	r3, r2
 1496 002c 9DF80950 		ldrb	r5, [sp, #9]	@ zero_extendqisi2
 1497 0030 40F09380 		bne	.L124
 1498 0034 8022     		movs	r2, #128
 1499              	.LVL113:
 1500              	.L96:
 405:../../libdaisy/src/hid/disp/display.h ****            || Height() < (currentY_ + font.FontHeight))
 1501              		.loc 4 405 23 view .LVU323
 1502 0036 B9F80430 		ldrh	r3, [r9, #4]
 405:../../libdaisy/src/hid/disp/display.h ****            || Height() < (currentY_ + font.FontHeight))
 1503              		.loc 4 405 33 view .LVU324
 1504 003a 3344     		add	r3, r3, r6
 406:../../libdaisy/src/hid/disp/display.h ****         {
 1505              		.loc 4 406 12 view .LVU325
 1506 003c 9342     		cmp	r3, r2
ARM GAS  /tmp/cc3v7X8N.s 			page 57


 1507 003e 00F38280 		bgt	.L97
 406:../../libdaisy/src/hid/disp/display.h ****         {
 1508              		.loc 4 406 21 discriminator 2 view .LVU326
 1509 0042 D9F80030 		ldr	r3, [r9]
 1510 0046 564A     		ldr	r2, .L133+4
 1511 0048 9B68     		ldr	r3, [r3, #8]
 1512 004a 9342     		cmp	r3, r2
 1513 004c 40F08980 		bne	.L125
 406:../../libdaisy/src/hid/disp/display.h ****         {
 1514              		.loc 4 406 21 view .LVU327
 1515 0050 4023     		movs	r3, #64
 1516              	.L98:
 406:../../libdaisy/src/hid/disp/display.h ****         {
 1517              		.loc 4 406 27 discriminator 2 view .LVU328
 1518 0052 B9F80610 		ldrh	r1, [r9, #6]
 406:../../libdaisy/src/hid/disp/display.h ****         {
 1519              		.loc 4 406 37 discriminator 2 view .LVU329
 1520 0056 4A19     		adds	r2, r1, r5
 406:../../libdaisy/src/hid/disp/display.h ****         {
 1521              		.loc 4 406 27 discriminator 2 view .LVU330
 1522 0058 0191     		str	r1, [sp, #4]
 406:../../libdaisy/src/hid/disp/display.h ****         {
 1523              		.loc 4 406 12 discriminator 2 view .LVU331
 1524 005a 9A42     		cmp	r2, r3
 1525 005c 73DC     		bgt	.L97
 1526              	.LVL114:
 413:../../libdaisy/src/hid/disp/display.h ****         {
 1527              		.loc 4 413 22 is_stmt 1 view .LVU332
 1528 005e 002D     		cmp	r5, #0
 1529 0060 00F08C80 		beq	.L99
 415:../../libdaisy/src/hid/disp/display.h ****             for(j = 0; j < font.FontWidth; j++)
 1530              		.loc 4 415 37 is_stmt 0 view .LVU333
 1531 0064 05FB04F4 		mul	r4, r5, r4
 415:../../libdaisy/src/hid/disp/display.h ****             for(j = 0; j < font.FontWidth; j++)
 1532              		.loc 4 415 22 view .LVU334
 1533 0068 039A     		ldr	r2, [sp, #12]
 1534 006a 6FF00043 		mvn	r3, #-2147483648
 1535 006e B9F804A0 		ldrh	r10, [r9, #4]
 1536 0072 2544     		add	r5, r5, r4
 1537 0074 A2F1020B 		sub	fp, r2, #2
 1538 0078 2344     		add	r3, r3, r4
 1539 007a 0BEB450B 		add	fp, fp, r5, lsl #1
 1540 007e 0D46     		mov	r5, r1
 1541 0080 02EB430E 		add	lr, r2, r3, lsl #1
 1542              	.LVL115:
 1543              	.L102:
 415:../../libdaisy/src/hid/disp/display.h ****             for(j = 0; j < font.FontWidth; j++)
 1544              		.loc 4 415 13 view .LVU335
 1545 0084 3EF8024F 		ldrh	r4, [lr, #2]!
 1546              	.LVL116:
 416:../../libdaisy/src/hid/disp/display.h ****             {
 1547              		.loc 4 416 26 is_stmt 1 view .LVU336
 1548 0088 A6B3     		cbz	r6, .L107
 1549              	.LBB908:
 1550              	.LBB909:
 1551              	.LBB910:
 1552              	.LBB911:
ARM GAS  /tmp/cc3v7X8N.s 			page 58


 1553              	.LBB912:
 246:../../libdaisy/src/dev/oled_ssd130x.h ****     }
 1554              		.loc 17 246 55 is_stmt 0 view .LVU337
 1555 008a 05F00703 		and	r3, r5, #7
 246:../../libdaisy/src/dev/oled_ssd130x.h ****     }
 1556              		.loc 17 246 49 view .LVU338
 1557 008e 0127     		movs	r7, #1
 246:../../libdaisy/src/dev/oled_ssd130x.h ****     }
 1558              		.loc 17 246 28 view .LVU339
 1559 0090 E808     		lsrs	r0, r5, #3
 246:../../libdaisy/src/dev/oled_ssd130x.h ****     }
 1560              		.loc 17 246 42 view .LVU340
 1561 0092 4146     		mov	r1, r8
 246:../../libdaisy/src/dev/oled_ssd130x.h ****     }
 1562              		.loc 17 246 49 view .LVU341
 1563 0094 9F40     		lsls	r7, r7, r3
 1564              	.LBE912:
 1565              	.LBE911:
 1566              	.LBE910:
 1567              	.LBE909:
 1568              	.LBE908:
 416:../../libdaisy/src/hid/disp/display.h ****             {
 1569              		.loc 4 416 19 view .LVU342
 1570 0096 0022     		movs	r2, #0
 1571 0098 0AEBC013 		add	r3, r10, r0, lsl #7
 1572              	.LBB930:
 1573              	.LBB925:
 1574              	.LBB920:
 1575              	.LBB916:
 1576              	.LBB913:
 246:../../libdaisy/src/dev/oled_ssd130x.h ****     }
 1577              		.loc 17 246 42 view .LVU343
 1578 009c 7FB2     		sxtb	r7, r7
 1579 009e 4B44     		add	r3, r3, r9
 1580 00a0 09EBC010 		add	r0, r9, r0, lsl #7
 1581 00a4 6FEA070C 		mvn	ip, r7
 1582 00a8 B846     		mov	r8, r7
 1583 00aa 0F46     		mov	r7, r1
 1584 00ac 0CE0     		b	.L108
 1585              	.LVL117:
 1586              	.L127:
 246:../../libdaisy/src/dev/oled_ssd130x.h ****     }
 1587              		.loc 17 246 42 view .LVU344
 1588              	.LBE913:
 1589              	.LBE916:
 1590              	.LBE920:
 1591              	.LBE925:
 1592              	.LBE930:
 1593              	.LBB931:
 1594              	.LBI931:
  41:../../libdaisy/src/hid/disp/oled_display.h ****     {
 1595              		.loc 3 41 10 is_stmt 1 view .LVU345
 1596              	.LBB932:
 1597              	.LBI932:
 239:../../libdaisy/src/dev/oled_ssd130x.h ****     {
 1598              		.loc 17 239 10 view .LVU346
 1599              	.LBB933:
ARM GAS  /tmp/cc3v7X8N.s 			page 59


 241:../../libdaisy/src/dev/oled_ssd130x.h ****             return;
 1600              		.loc 17 241 9 is_stmt 0 view .LVU347
 1601 00ae 7F29     		cmp	r1, #127
 1602 00b0 06D8     		bhi	.L104
 1603 00b2 3F2D     		cmp	r5, #63
 1604 00b4 04D8     		bhi	.L104
 244:../../libdaisy/src/dev/oled_ssd130x.h ****         else
 1605              		.loc 17 244 42 view .LVU348
 1606 00b6 197D     		ldrb	r1, [r3, #20]	@ zero_extendqisi2
 243:../../libdaisy/src/dev/oled_ssd130x.h ****             buffer_[x + (y / 8) * width] |= (1 << (y % 8));
 1607              		.loc 17 243 9 view .LVU349
 1608 00b8 A7B1     		cbz	r7, .L106
 1609              	.L123:
 243:../../libdaisy/src/dev/oled_ssd130x.h ****             buffer_[x + (y / 8) * width] |= (1 << (y % 8));
 1610              		.loc 17 243 9 view .LVU350
 1611              	.LBE933:
 1612              	.LBE932:
 1613              	.LBE931:
 1614              	.LBB936:
 1615              	.LBB926:
 1616              	.LBB921:
 244:../../libdaisy/src/dev/oled_ssd130x.h ****         else
 1617              		.loc 17 244 42 view .LVU351
 1618 00ba 48EA0101 		orr	r1, r8, r1
 244:../../libdaisy/src/dev/oled_ssd130x.h ****         else
 1619              		.loc 17 244 13 view .LVU352
 1620 00be 1975     		strb	r1, [r3, #20]
 1621              	.L104:
 1622              	.LBE921:
 1623              	.LBE926:
 1624              	.LBE936:
 416:../../libdaisy/src/hid/disp/display.h ****             {
 1625              		.loc 4 416 13 is_stmt 1 discriminator 2 view .LVU353
 1626 00c0 0132     		adds	r2, r2, #1
 1627              	.LVL118:
 416:../../libdaisy/src/hid/disp/display.h ****             {
 1628              		.loc 4 416 26 discriminator 2 view .LVU354
 1629 00c2 0133     		adds	r3, r3, #1
 1630 00c4 9642     		cmp	r6, r2
 1631 00c6 14D0     		beq	.L126
 1632              	.LVL119:
 1633              	.L108:
 418:../../libdaisy/src/hid/disp/display.h ****                 {
 1634              		.loc 4 418 23 is_stmt 0 view .LVU355
 1635 00c8 04FA02F1 		lsl	r1, r4, r2
 418:../../libdaisy/src/hid/disp/display.h ****                 {
 1636              		.loc 4 418 17 view .LVU356
 1637 00cc 11F4004F 		tst	r1, #32768
 1638              	.LBB937:
 1639              	.LBB935:
 1640              	.LBB934:
 241:../../libdaisy/src/dev/oled_ssd130x.h ****             return;
 1641              		.loc 17 241 14 view .LVU357
 1642 00d0 A3EB0001 		sub	r1, r3, r0
 1643              	.LBE934:
 1644              	.LBE935:
 1645              	.LBE937:
ARM GAS  /tmp/cc3v7X8N.s 			page 60


 418:../../libdaisy/src/hid/disp/display.h ****                 {
 1646              		.loc 4 418 17 view .LVU358
 1647 00d4 EBD1     		bne	.L127
 1648              	.LVL120:
 1649              	.LBB938:
 1650              	.LBI908:
  41:../../libdaisy/src/hid/disp/oled_display.h ****     {
 1651              		.loc 3 41 10 is_stmt 1 view .LVU359
 1652              	.LBB927:
 1653              	.LBI909:
 239:../../libdaisy/src/dev/oled_ssd130x.h ****     {
 1654              		.loc 17 239 10 view .LVU360
 1655              	.LBB922:
 241:../../libdaisy/src/dev/oled_ssd130x.h ****             return;
 1656              		.loc 17 241 9 is_stmt 0 view .LVU361
 1657 00d6 7F29     		cmp	r1, #127
 1658 00d8 F2D8     		bhi	.L104
 1659 00da 3F2D     		cmp	r5, #63
 1660 00dc F0D8     		bhi	.L104
 244:../../libdaisy/src/dev/oled_ssd130x.h ****         else
 1661              		.loc 17 244 42 view .LVU362
 1662 00de 197D     		ldrb	r1, [r3, #20]	@ zero_extendqisi2
 243:../../libdaisy/src/dev/oled_ssd130x.h ****             buffer_[x + (y / 8) * width] |= (1 << (y % 8));
 1663              		.loc 17 243 9 view .LVU363
 1664 00e0 002F     		cmp	r7, #0
 1665 00e2 EAD0     		beq	.L123
 1666              	.L106:
 1667              	.LVL121:
 1668              	.LBB917:
 1669              	.LBI911:
 239:../../libdaisy/src/dev/oled_ssd130x.h ****     {
 1670              		.loc 17 239 10 is_stmt 1 view .LVU364
 239:../../libdaisy/src/dev/oled_ssd130x.h ****     {
 1671              		.loc 17 239 10 is_stmt 0 view .LVU365
 1672              	.LBE917:
 1673              	.LBE922:
 1674              	.LBE927:
 1675              	.LBE938:
 416:../../libdaisy/src/hid/disp/display.h ****             {
 1676              		.loc 4 416 13 view .LVU366
 1677 00e4 0132     		adds	r2, r2, #1
 1678              	.LVL122:
 1679              	.LBB939:
 1680              	.LBB928:
 1681              	.LBB923:
 1682              	.LBB918:
 1683              	.LBB914:
 246:../../libdaisy/src/dev/oled_ssd130x.h ****     }
 1684              		.loc 17 246 42 view .LVU367
 1685 00e6 0CEA0101 		and	r1, ip, r1
 1686 00ea 0133     		adds	r3, r3, #1
 1687              	.LBE914:
 1688              	.LBE918:
 1689              	.LBE923:
 1690              	.LBE928:
 1691              	.LBE939:
 416:../../libdaisy/src/hid/disp/display.h ****             {
ARM GAS  /tmp/cc3v7X8N.s 			page 61


 1692              		.loc 4 416 26 view .LVU368
 1693 00ec 9642     		cmp	r6, r2
 1694              	.LBB940:
 1695              	.LBB929:
 1696              	.LBB924:
 1697              	.LBB919:
 1698              	.LBB915:
 246:../../libdaisy/src/dev/oled_ssd130x.h ****     }
 1699              		.loc 17 246 13 view .LVU369
 1700 00ee D974     		strb	r1, [r3, #19]
 246:../../libdaisy/src/dev/oled_ssd130x.h ****     }
 1701              		.loc 17 246 13 view .LVU370
 1702              	.LBE915:
 1703              	.LBE919:
 1704              	.LBE924:
 1705              	.LBE929:
 1706              	.LBE940:
 416:../../libdaisy/src/hid/disp/display.h ****             {
 1707              		.loc 4 416 13 is_stmt 1 view .LVU371
 1708              	.LVL123:
 416:../../libdaisy/src/hid/disp/display.h ****             {
 1709              		.loc 4 416 26 view .LVU372
 1710 00f0 EAD1     		bne	.L108
 1711              	.L126:
 416:../../libdaisy/src/hid/disp/display.h ****             {
 1712              		.loc 4 416 26 is_stmt 0 view .LVU373
 1713 00f2 B846     		mov	r8, r7
 1714              	.LVL124:
 1715              	.L107:
 413:../../libdaisy/src/hid/disp/display.h ****         {
 1716              		.loc 4 413 9 is_stmt 1 view .LVU374
 413:../../libdaisy/src/hid/disp/display.h ****         {
 1717              		.loc 4 413 22 view .LVU375
 1718 00f4 F345     		cmp	fp, lr
 1719 00f6 05F10105 		add	r5, r5, #1
 1720 00fa C3D1     		bne	.L102
 1721              	.LVL125:
 1722              	.L101:
 1723              	.LBB941:
 1724              	.LBB942:
 173:../../libdaisy/src/hid/disp/display.h ****         currentY_ = (y >= Height()) ? Height() - 1 : y;
 1725              		.loc 4 173 33 is_stmt 0 view .LVU376
 1726 00fc D9F80030 		ldr	r3, [r9]
 1727              	.LBE942:
 1728              	.LBE941:
 434:../../libdaisy/src/hid/disp/display.h **** 
 1729              		.loc 4 434 18 view .LVU377
 1730 0100 0AEB0604 		add	r4, r10, r6
 1731 0104 2549     		ldr	r1, .L133
 1732              	.LBB947:
 1733              	.LBB943:
 173:../../libdaisy/src/hid/disp/display.h ****         currentY_ = (y >= Height()) ? Height() - 1 : y;
 1734              		.loc 4 173 33 view .LVU378
 1735 0106 DA68     		ldr	r2, [r3, #12]
 1736              	.LBE943:
 1737              	.LBE947:
 434:../../libdaisy/src/hid/disp/display.h **** 
ARM GAS  /tmp/cc3v7X8N.s 			page 62


 1738              		.loc 4 434 18 view .LVU379
 1739 0108 A4B2     		uxth	r4, r4
 1740              	.LVL126:
 1741              	.LBB948:
 1742              	.LBI941:
 171:../../libdaisy/src/hid/disp/display.h ****     {
 1743              		.loc 4 171 10 is_stmt 1 view .LVU380
 1744              	.LBB944:
 173:../../libdaisy/src/hid/disp/display.h ****         currentY_ = (y >= Height()) ? Height() - 1 : y;
 1745              		.loc 4 173 9 view .LVU381
 1746 010a 8A42     		cmp	r2, r1
 1747 010c 31D1     		bne	.L128
 173:../../libdaisy/src/hid/disp/display.h ****         currentY_ = (y >= Height()) ? Height() - 1 : y;
 1748              		.loc 4 173 33 is_stmt 0 view .LVU382
 1749 010e 8020     		movs	r0, #128
 1750              	.L109:
 173:../../libdaisy/src/hid/disp/display.h ****         currentY_ = (y >= Height()) ? Height() - 1 : y;
 1751              		.loc 4 173 19 view .LVU383
 1752 0110 8442     		cmp	r4, r0
 1753 0112 1CD2     		bcs	.L129
 1754              	.LVL127:
 1755              	.L110:
 174:../../libdaisy/src/hid/disp/display.h ****     }
 1756              		.loc 4 174 34 view .LVU384
 1757 0114 9B68     		ldr	r3, [r3, #8]
 1758 0116 224A     		ldr	r2, .L133+4
 173:../../libdaisy/src/hid/disp/display.h ****         currentY_ = (y >= Height()) ? Height() - 1 : y;
 1759              		.loc 4 173 19 view .LVU385
 1760 0118 A9F80440 		strh	r4, [r9, #4]	@ movhi
 174:../../libdaisy/src/hid/disp/display.h ****     }
 1761              		.loc 4 174 9 is_stmt 1 view .LVU386
 1762 011c 9342     		cmp	r3, r2
 1763 011e 25D1     		bne	.L130
 174:../../libdaisy/src/hid/disp/display.h ****     }
 1764              		.loc 4 174 34 is_stmt 0 view .LVU387
 1765 0120 4020     		movs	r0, #64
 1766              	.L112:
 174:../../libdaisy/src/hid/disp/display.h ****     }
 1767              		.loc 4 174 19 view .LVU388
 1768 0122 019B     		ldr	r3, [sp, #4]
 1769 0124 8342     		cmp	r3, r0
 1770 0126 07D3     		bcc	.L113
 174:../../libdaisy/src/hid/disp/display.h ****     }
 1771              		.loc 4 174 46 view .LVU389
 1772 0128 D9F80030 		ldr	r3, [r9]
 1773 012c 1C4A     		ldr	r2, .L133+4
 1774 012e 9B68     		ldr	r3, [r3, #8]
 1775 0130 9342     		cmp	r3, r2
 1776 0132 2DD1     		bne	.L131
 1777 0134 3F23     		movs	r3, #63
 1778 0136 0193     		str	r3, [sp, #4]
 1779              	.LVL128:
 1780              	.L113:
 174:../../libdaisy/src/hid/disp/display.h ****     }
 1781              		.loc 4 174 19 view .LVU390
 1782 0138 DDE90003 		ldrd	r0, r3, [sp]
 1783 013c A9F80630 		strh	r3, [r9, #6]	@ movhi
ARM GAS  /tmp/cc3v7X8N.s 			page 63


 1784              	.LVL129:
 174:../../libdaisy/src/hid/disp/display.h ****     }
 1785              		.loc 4 174 19 view .LVU391
 1786              	.LBE944:
 1787              	.LBE948:
 438:../../libdaisy/src/hid/disp/display.h **** 
 1788              		.loc 4 438 5 view .LVU392
 1789 0140 05B0     		add	sp, sp, #20
 1790              		.cfi_remember_state
 1791              		.cfi_def_cfa_offset 36
 1792              		@ sp needed
 1793 0142 BDE8F08F 		pop	{r4, r5, r6, r7, r8, r9, r10, fp, pc}
 1794              	.LVL130:
 1795              	.L97:
 1796              		.cfi_restore_state
 402:../../libdaisy/src/hid/disp/display.h **** 
 1797              		.loc 4 402 20 view .LVU393
 1798 0146 0020     		movs	r0, #0
 438:../../libdaisy/src/hid/disp/display.h **** 
 1799              		.loc 4 438 5 view .LVU394
 1800 0148 05B0     		add	sp, sp, #20
 1801              		.cfi_remember_state
 1802              		.cfi_def_cfa_offset 36
 1803              		@ sp needed
 1804 014a BDE8F08F 		pop	{r4, r5, r6, r7, r8, r9, r10, fp, pc}
 1805              	.LVL131:
 1806              	.L129:
 1807              		.cfi_restore_state
 1808              	.LBB949:
 1809              	.LBB945:
 173:../../libdaisy/src/hid/disp/display.h ****         currentY_ = (y >= Height()) ? Height() - 1 : y;
 1810              		.loc 4 173 44 view .LVU395
 1811 014e DA68     		ldr	r2, [r3, #12]
 1812 0150 1249     		ldr	r1, .L133
 1813 0152 8A42     		cmp	r2, r1
 1814 0154 15D1     		bne	.L132
 1815 0156 7F24     		movs	r4, #127
 1816              	.LVL132:
 173:../../libdaisy/src/hid/disp/display.h ****         currentY_ = (y >= Height()) ? Height() - 1 : y;
 1817              		.loc 4 173 44 view .LVU396
 1818 0158 DCE7     		b	.L110
 1819              	.LVL133:
 1820              	.L124:
 173:../../libdaisy/src/hid/disp/display.h ****         currentY_ = (y >= Height()) ? Height() - 1 : y;
 1821              		.loc 4 173 44 view .LVU397
 1822              	.LBE945:
 1823              	.LBE949:
 405:../../libdaisy/src/hid/disp/display.h ****            || Height() < (currentY_ + font.FontHeight))
 1824              		.loc 4 405 17 view .LVU398
 1825 015a 9847     		blx	r3
 1826              	.LVL134:
 405:../../libdaisy/src/hid/disp/display.h ****            || Height() < (currentY_ + font.FontHeight))
 1827              		.loc 4 405 17 view .LVU399
 1828 015c 0246     		mov	r2, r0
 1829 015e 0190     		str	r0, [sp, #4]
 1830 0160 69E7     		b	.L96
 1831              	.L125:
ARM GAS  /tmp/cc3v7X8N.s 			page 64


 406:../../libdaisy/src/hid/disp/display.h ****         {
 1832              		.loc 4 406 21 discriminator 2 view .LVU400
 1833 0162 4846     		mov	r0, r9
 1834 0164 9847     		blx	r3
 1835              	.LVL135:
 1836 0166 0346     		mov	r3, r0
 1837 0168 0190     		str	r0, [sp, #4]
 1838 016a 72E7     		b	.L98
 1839              	.LVL136:
 1840              	.L130:
 1841              	.LBB950:
 1842              	.LBB946:
 174:../../libdaisy/src/hid/disp/display.h ****     }
 1843              		.loc 4 174 33 view .LVU401
 1844 016c 4846     		mov	r0, r9
 1845 016e 9847     		blx	r3
 1846              	.LVL137:
 1847 0170 D7E7     		b	.L112
 1848              	.LVL138:
 1849              	.L128:
 173:../../libdaisy/src/hid/disp/display.h ****         currentY_ = (y >= Height()) ? Height() - 1 : y;
 1850              		.loc 4 173 32 view .LVU402
 1851 0172 4846     		mov	r0, r9
 1852 0174 9047     		blx	r2
 1853              	.LVL139:
 1854 0176 D9F80030 		ldr	r3, [r9]
 1855 017a C9E7     		b	.L109
 1856              	.LVL140:
 1857              	.L99:
 173:../../libdaisy/src/hid/disp/display.h ****         currentY_ = (y >= Height()) ? Height() - 1 : y;
 1858              		.loc 4 173 32 view .LVU403
 1859 017c B9F804A0 		ldrh	r10, [r9, #4]
 1860 0180 BCE7     		b	.L101
 1861              	.LVL141:
 1862              	.L132:
 173:../../libdaisy/src/hid/disp/display.h ****         currentY_ = (y >= Height()) ? Height() - 1 : y;
 1863              		.loc 4 173 43 view .LVU404
 1864 0182 4846     		mov	r0, r9
 1865 0184 9047     		blx	r2
 1866              	.LVL142:
 1867 0186 0138     		subs	r0, r0, #1
 1868 0188 D9F80030 		ldr	r3, [r9]
 1869 018c 84B2     		uxth	r4, r0
 1870              	.LVL143:
 173:../../libdaisy/src/hid/disp/display.h ****         currentY_ = (y >= Height()) ? Height() - 1 : y;
 1871              		.loc 4 173 43 view .LVU405
 1872 018e C1E7     		b	.L110
 1873              	.L131:
 174:../../libdaisy/src/hid/disp/display.h ****     }
 1874              		.loc 4 174 45 view .LVU406
 1875 0190 4846     		mov	r0, r9
 1876 0192 9847     		blx	r3
 1877              	.LVL144:
 1878 0194 0138     		subs	r0, r0, #1
 1879 0196 83B2     		uxth	r3, r0
 1880 0198 0193     		str	r3, [sp, #4]
 1881              	.LVL145:
ARM GAS  /tmp/cc3v7X8N.s 			page 65


 174:../../libdaisy/src/hid/disp/display.h ****     }
 1882              		.loc 4 174 45 view .LVU407
 1883 019a CDE7     		b	.L113
 1884              	.L134:
 1885              		.align	2
 1886              	.L133:
 1887 019c 00000000 		.word	_ZNK5daisy11OledDisplayINS_13SSD130xDriverILj128ELj64ENS_24SSD130x4WireSpiTransportEEEE5Widt
 1888 01a0 00000000 		.word	_ZNK5daisy11OledDisplayINS_13SSD130xDriverILj128ELj64ENS_24SSD130x4WireSpiTransportEEEE6Heig
 1889              	.LBE946:
 1890              	.LBE950:
 1891              		.cfi_endproc
 1892              	.LFE4686:
 1894              		.section	.text._ZN5daisy25OneBitGraphicsDisplayImplINS_11OledDisplayINS_13SSD130xDriverILj128ELj64
 1895              		.align	1
 1896              		.p2align 2,,3
 1897              		.weak	_ZN5daisy25OneBitGraphicsDisplayImplINS_11OledDisplayINS_13SSD130xDriverILj128ELj64ENS_24SSD
 1898              		.syntax unified
 1899              		.thumb
 1900              		.thumb_func
 1901              		.fpu fpv5-d16
 1903              	_ZN5daisy25OneBitGraphicsDisplayImplINS_11OledDisplayINS_13SSD130xDriverILj128ELj64ENS_24SSD130x4Wi
 1904              	.LVL146:
 1905              	.LFB4834:
 459:../../libdaisy/src/hid/disp/display.h **** 
 460:../../libdaisy/src/hid/disp/display.h ****     Rectangle WriteStringAligned(const char*    str,
 1906              		.loc 4 460 15 is_stmt 1 view -0
 1907              		.cfi_startproc
 1908              		@ args = 12, pretend = 0, frame = 40
 1909              		@ frame_needed = 0, uses_anonymous_args = 0
 1910              		.loc 4 460 15 is_stmt 0 view .LVU409
 1911 0000 2DE9F04F 		push	{r4, r5, r6, r7, r8, r9, r10, fp, lr}
 1912              		.cfi_def_cfa_offset 36
 1913              		.cfi_offset 4, -36
 1914              		.cfi_offset 5, -32
 1915              		.cfi_offset 6, -28
 1916              		.cfi_offset 7, -24
 1917              		.cfi_offset 8, -20
 1918              		.cfi_offset 9, -16
 1919              		.cfi_offset 10, -12
 1920              		.cfi_offset 11, -8
 1921              		.cfi_offset 14, -4
 1922 0004 0C46     		mov	r4, r1
 1923 0006 8BB0     		sub	sp, sp, #44
 1924              		.cfi_def_cfa_offset 80
 1925              	.LBB1085:
 1926              	.LBB1086:
 1927              	.LBB1087:
 1928              	.LBB1088:
 461:../../libdaisy/src/hid/disp/display.h ****                                  const FontDef& font,
 462:../../libdaisy/src/hid/disp/display.h ****                                  Rectangle      boundingBox,
 463:../../libdaisy/src/hid/disp/display.h ****                                  Alignment      alignment,
 464:../../libdaisy/src/hid/disp/display.h ****                                  bool           on) override
 465:../../libdaisy/src/hid/disp/display.h ****     {
 466:../../libdaisy/src/hid/disp/display.h ****         const auto alignedRect
 467:../../libdaisy/src/hid/disp/display.h ****             = GetTextRect(str, font).AlignedWithin(boundingBox, alignment);
 468:../../libdaisy/src/hid/disp/display.h ****         SetCursor(alignedRect.GetX(), alignedRect.GetY());
 469:../../libdaisy/src/hid/disp/display.h ****         ((ChildType*)(this))->ChildType::WriteString(str, font, on);
ARM GAS  /tmp/cc3v7X8N.s 			page 66


 470:../../libdaisy/src/hid/disp/display.h ****         return alignedRect;
 471:../../libdaisy/src/hid/disp/display.h ****     }
 472:../../libdaisy/src/hid/disp/display.h **** 
 473:../../libdaisy/src/hid/disp/display.h ****   private:
 474:../../libdaisy/src/hid/disp/display.h ****     uint32_t strlen(const char* string)
 475:../../libdaisy/src/hid/disp/display.h ****     {
 476:../../libdaisy/src/hid/disp/display.h ****         uint32_t result = 0;
 477:../../libdaisy/src/hid/disp/display.h ****         while(*string++ != '\0')
 1929              		.loc 4 477 25 view .LVU410
 1930 0008 1146     		mov	r1, r2
 1931              	.LVL147:
 1932              		.loc 4 477 25 view .LVU411
 1933              	.LBE1088:
 1934              	.LBE1087:
 1935              	.LBE1086:
 1936              	.LBE1085:
 460:../../libdaisy/src/hid/disp/display.h ****                                  const FontDef& font,
 1937              		.loc 4 460 15 view .LVU412
 1938 000a 9046     		mov	r8, r2
 1939 000c 0990     		str	r0, [sp, #36]
 1940 000e 1D46     		mov	r5, r3
 1941              	.LVL148:
 1942              	.LBB1103:
 1943              	.LBI1085:
 478:../../libdaisy/src/hid/disp/display.h ****             result++;
 479:../../libdaisy/src/hid/disp/display.h ****         return result;
 480:../../libdaisy/src/hid/disp/display.h ****     }
 481:../../libdaisy/src/hid/disp/display.h **** 
 482:../../libdaisy/src/hid/disp/display.h ****     Rectangle GetTextRect(const char* text, const FontDef& font)
 1944              		.loc 4 482 15 is_stmt 1 view .LVU413
 1945              	.LBB1099:
 1946              	.LBB1092:
 1947              	.LBB1089:
 477:../../libdaisy/src/hid/disp/display.h ****             result++;
 1948              		.loc 4 477 25 view .LVU414
 477:../../libdaisy/src/hid/disp/display.h ****             result++;
 1949              		.loc 4 477 25 is_stmt 0 view .LVU415
 1950              	.LBE1089:
 1951              	.LBE1092:
 1952              	.LBE1099:
 1953              	.LBE1103:
 460:../../libdaisy/src/hid/disp/display.h ****                                  const FontDef& font,
 1954              		.loc 4 460 15 view .LVU416
 1955 0010 9DF85800 		ldrb	r0, [sp, #88]	@ zero_extendqisi2
 1956              	.LVL149:
 1957              	.LBB1104:
 1958              	.LBB1100:
 1959              	.LBB1093:
 1960              	.LBB1090:
 477:../../libdaisy/src/hid/disp/display.h ****             result++;
 1961              		.loc 4 477 25 view .LVU417
 1962 0014 11F8012B 		ldrb	r2, [r1], #1	@ zero_extendqisi2
 1963              	.LVL150:
 477:../../libdaisy/src/hid/disp/display.h ****             result++;
 1964              		.loc 4 477 25 view .LVU418
 1965              	.LBE1090:
 1966              	.LBE1093:
ARM GAS  /tmp/cc3v7X8N.s 			page 67


 1967              	.LBE1100:
 1968              	.LBE1104:
 460:../../libdaisy/src/hid/disp/display.h ****                                  const FontDef& font,
 1969              		.loc 4 460 15 view .LVU419
 1970 0018 0890     		str	r0, [sp, #32]
 1971 001a DDE91463 		ldrd	r6, r3, [sp, #80]
 1972              	.LVL151:
 1973              	.LBB1105:
 1974              	.LBB1101:
 1975              	.LBB1094:
 1976              	.LBB1091:
 477:../../libdaisy/src/hid/disp/display.h ****             result++;
 1977              		.loc 4 477 25 view .LVU420
 1978 001e 32B1     		cbz	r2, .L136
 476:../../libdaisy/src/hid/disp/display.h ****         while(*string++ != '\0')
 1979              		.loc 4 476 18 view .LVU421
 1980 0020 0022     		movs	r2, #0
 1981              	.LVL152:
 1982              	.L137:
 477:../../libdaisy/src/hid/disp/display.h ****             result++;
 1983              		.loc 4 477 25 view .LVU422
 1984 0022 11F8010B 		ldrb	r0, [r1], #1	@ zero_extendqisi2
 1985              	.LVL153:
 478:../../libdaisy/src/hid/disp/display.h ****             result++;
 1986              		.loc 4 478 13 view .LVU423
 1987 0026 0132     		adds	r2, r2, #1
 1988              	.LVL154:
 477:../../libdaisy/src/hid/disp/display.h ****             result++;
 1989              		.loc 4 477 25 is_stmt 1 view .LVU424
 1990 0028 0028     		cmp	r0, #0
 1991 002a FAD1     		bne	.L137
 1992 002c 92B2     		uxth	r2, r2
 1993              	.LVL155:
 1994              	.L136:
 477:../../libdaisy/src/hid/disp/display.h ****             result++;
 1995              		.loc 4 477 25 is_stmt 0 view .LVU425
 1996              	.LBE1091:
 1997              	.LBE1094:
 483:../../libdaisy/src/hid/disp/display.h ****     {
 484:../../libdaisy/src/hid/disp/display.h ****         const auto numChars = strlen(text);
 485:../../libdaisy/src/hid/disp/display.h ****         return {int16_t(numChars * font.FontWidth), font.FontHeight};
 1998              		.loc 4 485 68 view .LVU426
 1999 002e 2978     		ldrb	r1, [r5]	@ zero_extendqisi2
 2000              		.loc 4 485 58 view .LVU427
 2001 0030 6878     		ldrb	r0, [r5, #1]	@ zero_extendqisi2
 2002              		.loc 4 485 68 view .LVU428
 2003 0032 11FB02F2 		smulbb	r2, r1, r2
 2004 0036 01B2     		sxth	r1, r0
 2005              	.LVL156:
 2006              	.LBB1095:
 2007              	.LBI1095:
 2008              		.file 18 "../../libdaisy/src/hid/disp/graphics_common.h"
   1:../../libdaisy/src/hid/disp/graphics_common.h **** #pragma once
   2:../../libdaisy/src/hid/disp/graphics_common.h **** 
   3:../../libdaisy/src/hid/disp/graphics_common.h **** #include <cstdint>
   4:../../libdaisy/src/hid/disp/graphics_common.h **** 
   5:../../libdaisy/src/hid/disp/graphics_common.h **** namespace daisy
ARM GAS  /tmp/cc3v7X8N.s 			page 68


   6:../../libdaisy/src/hid/disp/graphics_common.h **** {
   7:../../libdaisy/src/hid/disp/graphics_common.h **** /** Justifications */
   8:../../libdaisy/src/hid/disp/graphics_common.h **** enum class Alignment
   9:../../libdaisy/src/hid/disp/graphics_common.h **** {
  10:../../libdaisy/src/hid/disp/graphics_common.h ****     centered,
  11:../../libdaisy/src/hid/disp/graphics_common.h ****     topLeft,
  12:../../libdaisy/src/hid/disp/graphics_common.h ****     topCentered,
  13:../../libdaisy/src/hid/disp/graphics_common.h ****     topRight,
  14:../../libdaisy/src/hid/disp/graphics_common.h ****     bottomLeft,
  15:../../libdaisy/src/hid/disp/graphics_common.h ****     bottomCentered,
  16:../../libdaisy/src/hid/disp/graphics_common.h ****     bottomRight,
  17:../../libdaisy/src/hid/disp/graphics_common.h ****     centeredLeft,
  18:../../libdaisy/src/hid/disp/graphics_common.h ****     centeredRight
  19:../../libdaisy/src/hid/disp/graphics_common.h **** };
  20:../../libdaisy/src/hid/disp/graphics_common.h **** 
  21:../../libdaisy/src/hid/disp/graphics_common.h **** class Rectangle
  22:../../libdaisy/src/hid/disp/graphics_common.h **** {
  23:../../libdaisy/src/hid/disp/graphics_common.h ****   public:
  24:../../libdaisy/src/hid/disp/graphics_common.h ****     Rectangle() : x_(0), y_(0), width_(0), height_(0) {}
  25:../../libdaisy/src/hid/disp/graphics_common.h **** 
  26:../../libdaisy/src/hid/disp/graphics_common.h ****     Rectangle(int16_t width, int16_t height)
 2009              		.loc 18 26 5 is_stmt 1 view .LVU429
 2010              	.LBB1096:
 2011              	.LBI1096:
  27:../../libdaisy/src/hid/disp/graphics_common.h ****     : x_(0), y_(0), width_(max(0, width)), height_(max(0, height))
  28:../../libdaisy/src/hid/disp/graphics_common.h ****     {
  29:../../libdaisy/src/hid/disp/graphics_common.h ****     }
  30:../../libdaisy/src/hid/disp/graphics_common.h **** 
  31:../../libdaisy/src/hid/disp/graphics_common.h ****     Rectangle(int16_t x, int16_t y, int16_t width, int16_t height)
  32:../../libdaisy/src/hid/disp/graphics_common.h ****     : x_(x), y_(y), width_(max(0, width)), height_(max(0, height))
  33:../../libdaisy/src/hid/disp/graphics_common.h ****     {
  34:../../libdaisy/src/hid/disp/graphics_common.h ****     }
  35:../../libdaisy/src/hid/disp/graphics_common.h **** 
  36:../../libdaisy/src/hid/disp/graphics_common.h ****     Rectangle(const Rectangle& other) { *this = other; }
  37:../../libdaisy/src/hid/disp/graphics_common.h **** 
  38:../../libdaisy/src/hid/disp/graphics_common.h ****     Rectangle& operator=(const Rectangle& other)
  39:../../libdaisy/src/hid/disp/graphics_common.h ****     {
  40:../../libdaisy/src/hid/disp/graphics_common.h ****         x_      = other.x_;
  41:../../libdaisy/src/hid/disp/graphics_common.h ****         y_      = other.y_;
  42:../../libdaisy/src/hid/disp/graphics_common.h ****         width_  = other.width_;
  43:../../libdaisy/src/hid/disp/graphics_common.h ****         height_ = other.height_;
  44:../../libdaisy/src/hid/disp/graphics_common.h ****         return *this;
  45:../../libdaisy/src/hid/disp/graphics_common.h ****     }
  46:../../libdaisy/src/hid/disp/graphics_common.h **** 
  47:../../libdaisy/src/hid/disp/graphics_common.h ****     bool operator==(const Rectangle& other) const
  48:../../libdaisy/src/hid/disp/graphics_common.h ****     {
  49:../../libdaisy/src/hid/disp/graphics_common.h ****         return (x_ == other.x_) && (y_ == other.y_) && (width_ == other.width_)
  50:../../libdaisy/src/hid/disp/graphics_common.h ****                && (height_ == other.height_);
  51:../../libdaisy/src/hid/disp/graphics_common.h ****     }
  52:../../libdaisy/src/hid/disp/graphics_common.h ****     bool operator!=(const Rectangle& other) const { return !(*this == other); }
  53:../../libdaisy/src/hid/disp/graphics_common.h **** 
  54:../../libdaisy/src/hid/disp/graphics_common.h ****     bool IsEmpty() const { return (width_ <= 0) || (height_ <= 0); }
  55:../../libdaisy/src/hid/disp/graphics_common.h **** 
  56:../../libdaisy/src/hid/disp/graphics_common.h ****     int16_t GetX() const { return x_; }
  57:../../libdaisy/src/hid/disp/graphics_common.h ****     int16_t GetY() const { return y_; }
  58:../../libdaisy/src/hid/disp/graphics_common.h ****     int16_t GetWidth() const { return width_; }
  59:../../libdaisy/src/hid/disp/graphics_common.h ****     int16_t GetHeight() const { return height_; }
ARM GAS  /tmp/cc3v7X8N.s 			page 69


  60:../../libdaisy/src/hid/disp/graphics_common.h ****     int16_t GetRight() const { return x_ + width_; }
  61:../../libdaisy/src/hid/disp/graphics_common.h ****     int16_t GetBottom() const { return y_ + height_; }
  62:../../libdaisy/src/hid/disp/graphics_common.h ****     int16_t GetCenterX() const { return x_ + width_ / 2; }
  63:../../libdaisy/src/hid/disp/graphics_common.h ****     int16_t GetCenterY() const { return y_ + height_ / 2; }
  64:../../libdaisy/src/hid/disp/graphics_common.h **** 
  65:../../libdaisy/src/hid/disp/graphics_common.h ****     Rectangle WithX(int16_t x) const { return {x, y_, width_, height_}; }
  66:../../libdaisy/src/hid/disp/graphics_common.h ****     Rectangle WithY(int16_t y) const { return {x_, y, width_, height_}; }
  67:../../libdaisy/src/hid/disp/graphics_common.h ****     Rectangle WithWidth(int16_t width) const
  68:../../libdaisy/src/hid/disp/graphics_common.h ****     {
  69:../../libdaisy/src/hid/disp/graphics_common.h ****         return {x_, y_, width, height_};
  70:../../libdaisy/src/hid/disp/graphics_common.h ****     }
  71:../../libdaisy/src/hid/disp/graphics_common.h ****     Rectangle WithHeight(int16_t height) const
  72:../../libdaisy/src/hid/disp/graphics_common.h ****     {
  73:../../libdaisy/src/hid/disp/graphics_common.h ****         return {x_, y_, width_, height};
  74:../../libdaisy/src/hid/disp/graphics_common.h ****     }
  75:../../libdaisy/src/hid/disp/graphics_common.h ****     Rectangle WithSize(int16_t width, int16_t height) const
  76:../../libdaisy/src/hid/disp/graphics_common.h ****     {
  77:../../libdaisy/src/hid/disp/graphics_common.h ****         return {x_, y_, width, height};
  78:../../libdaisy/src/hid/disp/graphics_common.h ****     }
  79:../../libdaisy/src/hid/disp/graphics_common.h ****     Rectangle WithWidthKeepingCenter(int16_t width) const
  80:../../libdaisy/src/hid/disp/graphics_common.h ****     {
  81:../../libdaisy/src/hid/disp/graphics_common.h ****         return Rectangle(x_, y_, width, height_)
  82:../../libdaisy/src/hid/disp/graphics_common.h ****             .WithCenter(GetCenterX(), GetCenterY());
  83:../../libdaisy/src/hid/disp/graphics_common.h ****     }
  84:../../libdaisy/src/hid/disp/graphics_common.h ****     Rectangle WithHeightKeepingCenter(int16_t height) const
  85:../../libdaisy/src/hid/disp/graphics_common.h ****     {
  86:../../libdaisy/src/hid/disp/graphics_common.h ****         return Rectangle(x_, y_, width_, height)
  87:../../libdaisy/src/hid/disp/graphics_common.h ****             .WithCenter(GetCenterX(), GetCenterY());
  88:../../libdaisy/src/hid/disp/graphics_common.h ****     }
  89:../../libdaisy/src/hid/disp/graphics_common.h ****     Rectangle WithSizeKeepingCenter(int16_t width, int16_t height) const
  90:../../libdaisy/src/hid/disp/graphics_common.h ****     {
  91:../../libdaisy/src/hid/disp/graphics_common.h ****         return Rectangle(x_, y_, width, height)
  92:../../libdaisy/src/hid/disp/graphics_common.h ****             .WithCenter(GetCenterX(), GetCenterY());
  93:../../libdaisy/src/hid/disp/graphics_common.h ****     }
  94:../../libdaisy/src/hid/disp/graphics_common.h **** 
  95:../../libdaisy/src/hid/disp/graphics_common.h ****     Rectangle Reduced(int16_t sizeToReduce) const
  96:../../libdaisy/src/hid/disp/graphics_common.h ****     {
  97:../../libdaisy/src/hid/disp/graphics_common.h ****         return {int16_t(x_ + sizeToReduce),
  98:../../libdaisy/src/hid/disp/graphics_common.h ****                 int16_t(y_ + sizeToReduce),
  99:../../libdaisy/src/hid/disp/graphics_common.h ****                 int16_t(width_ - 2 * sizeToReduce),
 100:../../libdaisy/src/hid/disp/graphics_common.h ****                 int16_t(height_ - 2 * sizeToReduce)};
 101:../../libdaisy/src/hid/disp/graphics_common.h ****     }
 102:../../libdaisy/src/hid/disp/graphics_common.h ****     Rectangle Reduced(int16_t xToReduce, int16_t yToReduce) const
 103:../../libdaisy/src/hid/disp/graphics_common.h ****     {
 104:../../libdaisy/src/hid/disp/graphics_common.h ****         return {int16_t(x_ + xToReduce),
 105:../../libdaisy/src/hid/disp/graphics_common.h ****                 int16_t(y_ + yToReduce),
 106:../../libdaisy/src/hid/disp/graphics_common.h ****                 int16_t(width_ - 2 * xToReduce),
 107:../../libdaisy/src/hid/disp/graphics_common.h ****                 int16_t(height_ - 2 * yToReduce)};
 108:../../libdaisy/src/hid/disp/graphics_common.h ****     }
 109:../../libdaisy/src/hid/disp/graphics_common.h **** 
 110:../../libdaisy/src/hid/disp/graphics_common.h ****     Rectangle Translated(int16_t x, int16_t y) const
 111:../../libdaisy/src/hid/disp/graphics_common.h ****     {
 112:../../libdaisy/src/hid/disp/graphics_common.h ****         return {int16_t(x_ + x), int16_t(y_ + y), width_, height_};
 113:../../libdaisy/src/hid/disp/graphics_common.h ****     }
 114:../../libdaisy/src/hid/disp/graphics_common.h **** 
 115:../../libdaisy/src/hid/disp/graphics_common.h ****     Rectangle WithLeft(int16_t left) const
 116:../../libdaisy/src/hid/disp/graphics_common.h ****     {
ARM GAS  /tmp/cc3v7X8N.s 			page 70


 117:../../libdaisy/src/hid/disp/graphics_common.h ****         const auto newWidth = int16_t((x_ - left) + width_);
 118:../../libdaisy/src/hid/disp/graphics_common.h ****         return {left, y_, newWidth, height_};
 119:../../libdaisy/src/hid/disp/graphics_common.h ****     }
 120:../../libdaisy/src/hid/disp/graphics_common.h **** 
 121:../../libdaisy/src/hid/disp/graphics_common.h ****     Rectangle WithRight(int16_t right) const
 122:../../libdaisy/src/hid/disp/graphics_common.h ****     {
 123:../../libdaisy/src/hid/disp/graphics_common.h ****         const auto newWidth = int16_t(right - x_);
 124:../../libdaisy/src/hid/disp/graphics_common.h ****         return {x_, y_, newWidth, height_};
 125:../../libdaisy/src/hid/disp/graphics_common.h ****     }
 126:../../libdaisy/src/hid/disp/graphics_common.h **** 
 127:../../libdaisy/src/hid/disp/graphics_common.h ****     Rectangle WithTop(int16_t top) const
 128:../../libdaisy/src/hid/disp/graphics_common.h ****     {
 129:../../libdaisy/src/hid/disp/graphics_common.h ****         const auto newHeight = int16_t((y_ - top) + height_);
 130:../../libdaisy/src/hid/disp/graphics_common.h ****         return {x_, top, width_, newHeight};
 131:../../libdaisy/src/hid/disp/graphics_common.h ****     }
 132:../../libdaisy/src/hid/disp/graphics_common.h **** 
 133:../../libdaisy/src/hid/disp/graphics_common.h ****     Rectangle WithBottom(int16_t bottom) const
 134:../../libdaisy/src/hid/disp/graphics_common.h ****     {
 135:../../libdaisy/src/hid/disp/graphics_common.h ****         const auto newHeight = int16_t(bottom - y_);
 136:../../libdaisy/src/hid/disp/graphics_common.h ****         return {x_, y_, width_, newHeight};
 137:../../libdaisy/src/hid/disp/graphics_common.h ****     }
 138:../../libdaisy/src/hid/disp/graphics_common.h **** 
 139:../../libdaisy/src/hid/disp/graphics_common.h ****     Rectangle WithTrimmedLeft(int16_t pxToTrim) const
 140:../../libdaisy/src/hid/disp/graphics_common.h ****     {
 141:../../libdaisy/src/hid/disp/graphics_common.h ****         return {
 142:../../libdaisy/src/hid/disp/graphics_common.h ****             int16_t(x_ + pxToTrim), y_, int16_t(width_ - pxToTrim), height_};
 143:../../libdaisy/src/hid/disp/graphics_common.h ****     }
 144:../../libdaisy/src/hid/disp/graphics_common.h **** 
 145:../../libdaisy/src/hid/disp/graphics_common.h ****     Rectangle WithTrimmedRight(int16_t pxToTrim) const
 146:../../libdaisy/src/hid/disp/graphics_common.h ****     {
 147:../../libdaisy/src/hid/disp/graphics_common.h ****         return {x_, y_, int16_t(width_ - pxToTrim), height_};
 148:../../libdaisy/src/hid/disp/graphics_common.h ****     }
 149:../../libdaisy/src/hid/disp/graphics_common.h **** 
 150:../../libdaisy/src/hid/disp/graphics_common.h ****     Rectangle WithTrimmedTop(int16_t pxToTrim) const
 151:../../libdaisy/src/hid/disp/graphics_common.h ****     {
 152:../../libdaisy/src/hid/disp/graphics_common.h ****         return {
 153:../../libdaisy/src/hid/disp/graphics_common.h ****             x_, int16_t(y_ + pxToTrim), width_, int16_t(height_ - pxToTrim)};
 154:../../libdaisy/src/hid/disp/graphics_common.h ****     }
 155:../../libdaisy/src/hid/disp/graphics_common.h **** 
 156:../../libdaisy/src/hid/disp/graphics_common.h ****     Rectangle WithTrimmedBottom(int16_t pxToTrim) const
 157:../../libdaisy/src/hid/disp/graphics_common.h ****     {
 158:../../libdaisy/src/hid/disp/graphics_common.h ****         return {x_, y_, width_, int16_t(height_ - pxToTrim)};
 159:../../libdaisy/src/hid/disp/graphics_common.h ****     }
 160:../../libdaisy/src/hid/disp/graphics_common.h **** 
 161:../../libdaisy/src/hid/disp/graphics_common.h ****     Rectangle WithCenterX(int16_t centerX) const
 162:../../libdaisy/src/hid/disp/graphics_common.h ****     {
 163:../../libdaisy/src/hid/disp/graphics_common.h ****         return {int16_t(x_ + centerX - GetCenterX()), y_, width_, height_};
 164:../../libdaisy/src/hid/disp/graphics_common.h ****     }
 165:../../libdaisy/src/hid/disp/graphics_common.h **** 
 166:../../libdaisy/src/hid/disp/graphics_common.h ****     Rectangle WithCenterY(int16_t centerY) const
 167:../../libdaisy/src/hid/disp/graphics_common.h ****     {
 168:../../libdaisy/src/hid/disp/graphics_common.h ****         return {x_, int16_t(y_ + centerY - GetCenterY()), width_, height_};
 169:../../libdaisy/src/hid/disp/graphics_common.h ****     }
 170:../../libdaisy/src/hid/disp/graphics_common.h **** 
 171:../../libdaisy/src/hid/disp/graphics_common.h ****     Rectangle WithCenter(int16_t centerX, int16_t centerY) const
 172:../../libdaisy/src/hid/disp/graphics_common.h ****     {
 173:../../libdaisy/src/hid/disp/graphics_common.h ****         return {int16_t(x_ + centerX - GetCenterX()),
ARM GAS  /tmp/cc3v7X8N.s 			page 71


 174:../../libdaisy/src/hid/disp/graphics_common.h ****                 int16_t(y_ + centerY - GetCenterY()),
 175:../../libdaisy/src/hid/disp/graphics_common.h ****                 width_,
 176:../../libdaisy/src/hid/disp/graphics_common.h ****                 height_};
 177:../../libdaisy/src/hid/disp/graphics_common.h ****     }
 178:../../libdaisy/src/hid/disp/graphics_common.h **** 
 179:../../libdaisy/src/hid/disp/graphics_common.h ****     Rectangle RemoveFromLeft(int16_t pxToRemove)
 180:../../libdaisy/src/hid/disp/graphics_common.h ****     {
 181:../../libdaisy/src/hid/disp/graphics_common.h ****         const auto result = this->WithWidth(min(pxToRemove, width_));
 182:../../libdaisy/src/hid/disp/graphics_common.h ****         x_ += min(pxToRemove, width_);
 183:../../libdaisy/src/hid/disp/graphics_common.h ****         width_ = max(int16_t(width_ - pxToRemove), 0);
 184:../../libdaisy/src/hid/disp/graphics_common.h ****         return result;
 185:../../libdaisy/src/hid/disp/graphics_common.h ****     }
 186:../../libdaisy/src/hid/disp/graphics_common.h **** 
 187:../../libdaisy/src/hid/disp/graphics_common.h ****     Rectangle RemoveFromRight(int16_t pxToRemove)
 188:../../libdaisy/src/hid/disp/graphics_common.h ****     {
 189:../../libdaisy/src/hid/disp/graphics_common.h ****         const auto canRemove = min(pxToRemove, width_);
 190:../../libdaisy/src/hid/disp/graphics_common.h ****         width_ -= canRemove;
 191:../../libdaisy/src/hid/disp/graphics_common.h ****         return {int16_t(x_ + width_), y_, canRemove, height_};
 192:../../libdaisy/src/hid/disp/graphics_common.h ****     }
 193:../../libdaisy/src/hid/disp/graphics_common.h **** 
 194:../../libdaisy/src/hid/disp/graphics_common.h ****     Rectangle RemoveFromTop(int16_t pxToRemove)
 195:../../libdaisy/src/hid/disp/graphics_common.h ****     {
 196:../../libdaisy/src/hid/disp/graphics_common.h ****         const auto result = this->WithHeight(min(pxToRemove, height_));
 197:../../libdaisy/src/hid/disp/graphics_common.h ****         y_ += min(pxToRemove, height_);
 198:../../libdaisy/src/hid/disp/graphics_common.h ****         height_ = max(height_ - pxToRemove, 0);
 199:../../libdaisy/src/hid/disp/graphics_common.h ****         return result;
 200:../../libdaisy/src/hid/disp/graphics_common.h ****     }
 201:../../libdaisy/src/hid/disp/graphics_common.h **** 
 202:../../libdaisy/src/hid/disp/graphics_common.h ****     Rectangle RemoveFromBottom(int16_t pxToRemove)
 203:../../libdaisy/src/hid/disp/graphics_common.h ****     {
 204:../../libdaisy/src/hid/disp/graphics_common.h ****         const auto canRemove = min(pxToRemove, height_);
 205:../../libdaisy/src/hid/disp/graphics_common.h ****         height_ -= canRemove;
 206:../../libdaisy/src/hid/disp/graphics_common.h ****         return {x_, int16_t(y_ + height_), width_, canRemove};
 207:../../libdaisy/src/hid/disp/graphics_common.h ****     }
 208:../../libdaisy/src/hid/disp/graphics_common.h **** 
 209:../../libdaisy/src/hid/disp/graphics_common.h ****     Rectangle AlignedWithin(const Rectangle& other, Alignment alignment) const
 210:../../libdaisy/src/hid/disp/graphics_common.h ****     {
 211:../../libdaisy/src/hid/disp/graphics_common.h ****         switch(alignment)
 212:../../libdaisy/src/hid/disp/graphics_common.h ****         {
 213:../../libdaisy/src/hid/disp/graphics_common.h ****             case Alignment::topLeft:
 214:../../libdaisy/src/hid/disp/graphics_common.h ****                 return {other.x_, other.y_, width_, height_};
 215:../../libdaisy/src/hid/disp/graphics_common.h ****             case Alignment::topRight:
 216:../../libdaisy/src/hid/disp/graphics_common.h ****                 return {int16_t(other.GetRight() - width_),
 217:../../libdaisy/src/hid/disp/graphics_common.h ****                         other.y_,
 218:../../libdaisy/src/hid/disp/graphics_common.h ****                         width_,
 219:../../libdaisy/src/hid/disp/graphics_common.h ****                         height_};
 220:../../libdaisy/src/hid/disp/graphics_common.h ****             case Alignment::topCentered:
 221:../../libdaisy/src/hid/disp/graphics_common.h ****                 return {int16_t(x_ + (other.GetCenterX() - GetCenterX())),
 222:../../libdaisy/src/hid/disp/graphics_common.h ****                         other.y_,
 223:../../libdaisy/src/hid/disp/graphics_common.h ****                         width_,
 224:../../libdaisy/src/hid/disp/graphics_common.h ****                         height_};
 225:../../libdaisy/src/hid/disp/graphics_common.h ****             case Alignment::bottomLeft:
 226:../../libdaisy/src/hid/disp/graphics_common.h ****                 return {other.x_,
 227:../../libdaisy/src/hid/disp/graphics_common.h ****                         int16_t(other.GetBottom() - height_),
 228:../../libdaisy/src/hid/disp/graphics_common.h ****                         width_,
 229:../../libdaisy/src/hid/disp/graphics_common.h ****                         height_};
 230:../../libdaisy/src/hid/disp/graphics_common.h ****             case Alignment::bottomRight:
ARM GAS  /tmp/cc3v7X8N.s 			page 72


 231:../../libdaisy/src/hid/disp/graphics_common.h ****                 return {int16_t(other.GetRight() - width_),
 232:../../libdaisy/src/hid/disp/graphics_common.h ****                         int16_t(other.GetBottom() - height_),
 233:../../libdaisy/src/hid/disp/graphics_common.h ****                         width_,
 234:../../libdaisy/src/hid/disp/graphics_common.h ****                         height_};
 235:../../libdaisy/src/hid/disp/graphics_common.h ****             case Alignment::bottomCentered:
 236:../../libdaisy/src/hid/disp/graphics_common.h ****                 return {int16_t(x_ + (other.GetCenterX() - GetCenterX())),
 237:../../libdaisy/src/hid/disp/graphics_common.h ****                         int16_t(other.GetBottom() - height_),
 238:../../libdaisy/src/hid/disp/graphics_common.h ****                         width_,
 239:../../libdaisy/src/hid/disp/graphics_common.h ****                         height_};
 240:../../libdaisy/src/hid/disp/graphics_common.h ****             case Alignment::centeredLeft:
 241:../../libdaisy/src/hid/disp/graphics_common.h ****                 return {other.x_,
 242:../../libdaisy/src/hid/disp/graphics_common.h ****                         int16_t(y_ + (other.GetCenterY() - GetCenterY())),
 243:../../libdaisy/src/hid/disp/graphics_common.h ****                         width_,
 244:../../libdaisy/src/hid/disp/graphics_common.h ****                         height_};
 245:../../libdaisy/src/hid/disp/graphics_common.h ****             case Alignment::centeredRight:
 246:../../libdaisy/src/hid/disp/graphics_common.h ****                 return {int16_t(other.GetRight() - width_),
 247:../../libdaisy/src/hid/disp/graphics_common.h ****                         int16_t(y_ + (other.GetCenterY() - GetCenterY())),
 248:../../libdaisy/src/hid/disp/graphics_common.h ****                         width_,
 249:../../libdaisy/src/hid/disp/graphics_common.h ****                         height_};
 250:../../libdaisy/src/hid/disp/graphics_common.h ****             case Alignment::centered:
 251:../../libdaisy/src/hid/disp/graphics_common.h ****                 return {int16_t(x_ + (other.GetCenterX() - GetCenterX())),
 252:../../libdaisy/src/hid/disp/graphics_common.h ****                         int16_t(y_ + (other.GetCenterY() - GetCenterY())),
 253:../../libdaisy/src/hid/disp/graphics_common.h ****                         width_,
 254:../../libdaisy/src/hid/disp/graphics_common.h ****                         height_};
 255:../../libdaisy/src/hid/disp/graphics_common.h ****             default: return {};
 256:../../libdaisy/src/hid/disp/graphics_common.h ****         }
 257:../../libdaisy/src/hid/disp/graphics_common.h ****     }
 258:../../libdaisy/src/hid/disp/graphics_common.h **** 
 259:../../libdaisy/src/hid/disp/graphics_common.h ****   private:
 260:../../libdaisy/src/hid/disp/graphics_common.h ****     int16_t x_, y_, width_, height_;
 261:../../libdaisy/src/hid/disp/graphics_common.h ****     int16_t max(int16_t a, int16_t b) { return (a > b) ? a : b; }
 2012              		.loc 18 261 13 view .LVU430
 2013              		.loc 18 261 13 is_stmt 0 view .LVU431
 2014              	.LBE1096:
 2015              	.LBE1095:
 2016              	.LBE1101:
 2017              	.LBE1105:
 2018              		.loc 18 261 41 is_stmt 1 view .LVU432
 2019 0038 12B2     		sxth	r2, r2
 2020 003a 22EAE272 		bic	r2, r2, r2, asr #31
 2021              	.LVL157:
 2022              	.LBB1106:
 2023              	.LBB1102:
 2024              	.LBB1098:
 2025              	.LBB1097:
 2026              	.LBI1097:
 2027              		.loc 18 261 13 view .LVU433
 2028              		.loc 18 261 13 is_stmt 0 view .LVU434
 2029              	.LBE1097:
 2030              	.LBE1098:
 2031              	.LBE1102:
 2032              	.LBE1106:
 2033              		.loc 18 261 41 is_stmt 1 view .LVU435
 2034              	.LBB1107:
 2035              	.LBI1107:
 209:../../libdaisy/src/hid/disp/graphics_common.h ****     {
 2036              		.loc 18 209 15 view .LVU436
ARM GAS  /tmp/cc3v7X8N.s 			page 73


 2037              	.LBB1108:
 211:../../libdaisy/src/hid/disp/graphics_common.h ****         {
 2038              		.loc 18 211 9 view .LVU437
 2039 003e 082B     		cmp	r3, #8
 2040 0040 00F2AD81 		bhi	.L138
 2041 0044 DFE813F0 		tbh	[pc, r3, lsl #1]
 2042              	.L140:
 2043 0048 0001     		.2byte	(.L148-.L140)/2
 2044 004a 1201     		.2byte	(.L147-.L140)/2
 2045 004c 1E01     		.2byte	(.L146-.L140)/2
 2046 004e 3201     		.2byte	(.L145-.L140)/2
 2047 0050 4001     		.2byte	(.L144-.L140)/2
 2048 0052 5001     		.2byte	(.L143-.L140)/2
 2049 0054 6B01     		.2byte	(.L142-.L140)/2
 2050 0056 7801     		.2byte	(.L141-.L140)/2
 2051 0058 0900     		.2byte	(.L139-.L140)/2
 2052              		.p2align 1
 2053              	.L139:
 245:../../libdaisy/src/hid/disp/graphics_common.h ****                 return {int16_t(other.GetRight() - width_),
 2054              		.loc 18 245 13 view .LVU438
 246:../../libdaisy/src/hid/disp/graphics_common.h ****                         int16_t(y_ + (other.GetCenterY() - GetCenterY())),
 2055              		.loc 18 246 17 view .LVU439
 2056              	.LBB1109:
 2057              	.LBI1109:
  60:../../libdaisy/src/hid/disp/graphics_common.h ****     int16_t GetBottom() const { return y_ + height_; }
 2058              		.loc 18 60 13 view .LVU440
 2059              	.LVL158:
 2060              	.LBB1110:
  60:../../libdaisy/src/hid/disp/graphics_common.h ****     int16_t GetBottom() const { return y_ + height_; }
 2061              		.loc 18 60 32 view .LVU441
  60:../../libdaisy/src/hid/disp/graphics_common.h ****     int16_t GetBottom() const { return y_ + height_; }
 2062              		.loc 18 60 42 is_stmt 0 view .LVU442
 2063 005a 3788     		ldrh	r7, [r6]
 2064 005c B088     		ldrh	r0, [r6, #4]
 2065              	.LBE1110:
 2066              	.LBE1109:
 2067              	.LBB1112:
 2068              	.LBB1113:
  63:../../libdaisy/src/hid/disp/graphics_common.h **** 
 2069              		.loc 18 63 54 view .LVU443
 2070 005e B6F90630 		ldrsh	r3, [r6, #6]
 2071              	.LVL159:
  63:../../libdaisy/src/hid/disp/graphics_common.h **** 
 2072              		.loc 18 63 54 view .LVU444
 2073              	.LBE1113:
 2074              	.LBE1112:
 2075              	.LBB1117:
 2076              	.LBB1111:
  60:../../libdaisy/src/hid/disp/graphics_common.h ****     int16_t GetBottom() const { return y_ + height_; }
 2077              		.loc 18 60 42 view .LVU445
 2078 0062 0744     		add	r7, r7, r0
 2079              	.LBE1111:
 2080              	.LBE1117:
 2081              	.LBB1118:
 2082              	.LBB1114:
  63:../../libdaisy/src/hid/disp/graphics_common.h **** 
 2083              		.loc 18 63 54 view .LVU446
ARM GAS  /tmp/cc3v7X8N.s 			page 74


 2084 0064 002B     		cmp	r3, #0
 2085              	.LBE1114:
 2086              	.LBE1118:
 246:../../libdaisy/src/hid/disp/graphics_common.h ****                         int16_t(y_ + (other.GetCenterY() - GetCenterY())),
 2087              		.loc 18 246 50 view .LVU447
 2088 0066 A7EB0207 		sub	r7, r7, r2
 2089 006a BFB2     		uxth	r7, r7
 2090              	.LBB1119:
 2091              	.LBI1112:
  63:../../libdaisy/src/hid/disp/graphics_common.h **** 
 2092              		.loc 18 63 13 is_stmt 1 view .LVU448
 2093              	.LVL160:
 2094              	.LBB1115:
  63:../../libdaisy/src/hid/disp/graphics_common.h **** 
 2095              		.loc 18 63 34 view .LVU449
  63:../../libdaisy/src/hid/disp/graphics_common.h **** 
 2096              		.loc 18 63 34 is_stmt 0 view .LVU450
 2097              	.LBE1115:
 2098              	.LBE1119:
 2099              	.LBB1120:
 2100              	.LBI1120:
  63:../../libdaisy/src/hid/disp/graphics_common.h **** 
 2101              		.loc 18 63 13 is_stmt 1 view .LVU451
 2102              	.LBB1121:
  63:../../libdaisy/src/hid/disp/graphics_common.h **** 
 2103              		.loc 18 63 34 view .LVU452
 2104              	.LBE1121:
 2105              	.LBE1120:
 2106              	.LBB1122:
 2107              	.LBB1116:
  63:../../libdaisy/src/hid/disp/graphics_common.h **** 
 2108              		.loc 18 63 54 is_stmt 0 view .LVU453
 2109 006c C0F2FC80 		blt	.L212
 2110              	.LVL161:
 2111              	.L155:
  63:../../libdaisy/src/hid/disp/graphics_common.h **** 
 2112              		.loc 18 63 54 view .LVU454
 2113              	.LBE1116:
 2114              	.LBE1122:
 2115              	.LBB1123:
 2116              	.LBB1124:
  63:../../libdaisy/src/hid/disp/graphics_common.h **** 
 2117              		.loc 18 63 44 view .LVU455
 2118 0070 B6F802C0 		ldrh	ip, [r6, #2]
 2119              	.LBE1124:
 2120              	.LBE1123:
 2121              	.LBB1130:
 2122              	.LBB1131:
 2123              	.LBB1132:
  32:../../libdaisy/src/hid/disp/graphics_common.h ****     {
 2124              		.loc 18 32 66 view .LVU456
 2125 0074 0998     		ldr	r0, [sp, #36]
 2126              	.LBE1132:
 2127              	.LBE1131:
 2128              	.LBE1130:
 2129              	.LBB1141:
 2130              	.LBB1125:
ARM GAS  /tmp/cc3v7X8N.s 			page 75


  63:../../libdaisy/src/hid/disp/graphics_common.h **** 
 2131              		.loc 18 63 44 view .LVU457
 2132 0076 0CEB6306 		add	r6, ip, r3, asr #1
 2133              	.LVL162:
  63:../../libdaisy/src/hid/disp/graphics_common.h **** 
 2134              		.loc 18 63 44 view .LVU458
 2135              	.LBE1125:
 2136              	.LBE1141:
 2137              	.LBB1142:
 2138              	.LBB1138:
 2139              	.LBB1135:
  32:../../libdaisy/src/hid/disp/graphics_common.h ****     {
 2140              		.loc 18 32 66 view .LVU459
 2141 007a 0346     		mov	r3, r0
 2142 007c 0780     		strh	r7, [r0]	@ movhi
 2143              	.L210:
  32:../../libdaisy/src/hid/disp/graphics_common.h ****     {
 2144              		.loc 18 32 66 view .LVU460
 2145 007e 8280     		strh	r2, [r0, #4]	@ movhi
 2146 0080 D980     		strh	r1, [r3, #6]	@ movhi
 2147              	.LBE1135:
 2148              	.LBE1138:
 2149              	.LBE1142:
 252:../../libdaisy/src/hid/disp/graphics_common.h ****                         width_,
 2150              		.loc 18 252 58 view .LVU461
 2151 0082 A6EB5101 		sub	r1, r6, r1, lsr #1
 2152 0086 8EB2     		uxth	r6, r1
 2153              	.LVL163:
 2154              	.LBB1143:
 2155              	.LBI1130:
  31:../../libdaisy/src/hid/disp/graphics_common.h ****     : x_(x), y_(y), width_(max(0, width)), height_(max(0, height))
 2156              		.loc 18 31 5 is_stmt 1 view .LVU462
 2157              	.LBB1139:
 2158              	.LBB1136:
  32:../../libdaisy/src/hid/disp/graphics_common.h ****     {
 2159              		.loc 18 32 66 is_stmt 0 view .LVU463
 2160 0088 5E80     		strh	r6, [r3, #2]	@ movhi
 2161              	.LVL164:
 2162              	.LBB1133:
 2163              	.LBI1133:
 2164              		.loc 18 261 13 is_stmt 1 view .LVU464
 2165              		.loc 18 261 13 is_stmt 0 view .LVU465
 2166              	.LBE1133:
 2167              	.LBE1136:
 2168              	.LBE1139:
 2169              	.LBE1143:
 2170              	.LBE1108:
 2171              	.LBE1107:
 2172              		.loc 18 261 41 is_stmt 1 view .LVU466
 2173              	.LBB1328:
 2174              	.LBB1313:
 2175              	.LBB1144:
 2176              	.LBB1140:
 2177              	.LBB1137:
 2178              	.LBB1134:
 2179              	.LBI1134:
 2180              		.loc 18 261 13 view .LVU467
ARM GAS  /tmp/cc3v7X8N.s 			page 76


 2181              		.loc 18 261 13 is_stmt 0 view .LVU468
 2182              	.LBE1134:
 2183              	.LBE1137:
 2184              	.LBE1140:
 2185              	.LBE1144:
 2186              	.LBE1313:
 2187              	.LBE1328:
 2188              		.loc 18 261 41 is_stmt 1 view .LVU469
 2189              	.L149:
  56:../../libdaisy/src/hid/disp/graphics_common.h ****     int16_t GetY() const { return y_; }
 2190              		.loc 18 56 28 view .LVU470
  57:../../libdaisy/src/hid/disp/graphics_common.h ****     int16_t GetWidth() const { return width_; }
 2191              		.loc 18 57 28 view .LVU471
 2192              	.LBB1329:
 2193              	.LBI1329:
 171:../../libdaisy/src/hid/disp/display.h ****     {
 2194              		.loc 4 171 10 view .LVU472
 2195              	.LBB1330:
 173:../../libdaisy/src/hid/disp/display.h ****         currentY_ = (y >= Height()) ? Height() - 1 : y;
 2196              		.loc 4 173 9 view .LVU473
 2197 008a B64A     		ldr	r2, .L222
 173:../../libdaisy/src/hid/disp/display.h ****         currentY_ = (y >= Height()) ? Height() - 1 : y;
 2198              		.loc 4 173 33 is_stmt 0 view .LVU474
 2199 008c 2368     		ldr	r3, [r4]
 2200 008e 1146     		mov	r1, r2
 2201 0090 0192     		str	r2, [sp, #4]
 2202 0092 DA68     		ldr	r2, [r3, #12]
 2203 0094 8A42     		cmp	r2, r1
 2204 0096 40F08F81 		bne	.L157
 2205 009a 8020     		movs	r0, #128
 2206              	.LVL165:
 2207              	.L158:
 173:../../libdaisy/src/hid/disp/display.h ****         currentY_ = (y >= Height()) ? Height() - 1 : y;
 2208              		.loc 4 173 19 view .LVU475
 2209 009c B842     		cmp	r0, r7
 2210 009e 05D8     		bhi	.L159
 173:../../libdaisy/src/hid/disp/display.h ****         currentY_ = (y >= Height()) ? Height() - 1 : y;
 2211              		.loc 4 173 44 view .LVU476
 2212 00a0 DA68     		ldr	r2, [r3, #12]
 2213 00a2 0199     		ldr	r1, [sp, #4]
 2214 00a4 8A42     		cmp	r2, r1
 2215 00a6 40F09A81 		bne	.L213
 2216 00aa 7F27     		movs	r7, #127
 2217              	.L159:
 174:../../libdaisy/src/hid/disp/display.h ****     }
 2218              		.loc 4 174 34 view .LVU477
 2219 00ac 9B68     		ldr	r3, [r3, #8]
 2220 00ae AE4A     		ldr	r2, .L222+4
 173:../../libdaisy/src/hid/disp/display.h ****         currentY_ = (y >= Height()) ? Height() - 1 : y;
 2221              		.loc 4 173 19 view .LVU478
 2222 00b0 A780     		strh	r7, [r4, #4]	@ movhi
 174:../../libdaisy/src/hid/disp/display.h ****     }
 2223              		.loc 4 174 9 is_stmt 1 view .LVU479
 2224 00b2 9342     		cmp	r3, r2
 2225 00b4 0392     		str	r2, [sp, #12]
 2226 00b6 40F08A81 		bne	.L189
 174:../../libdaisy/src/hid/disp/display.h ****     }
ARM GAS  /tmp/cc3v7X8N.s 			page 77


 2227              		.loc 4 174 34 is_stmt 0 view .LVU480
 2228 00ba 4020     		movs	r0, #64
 2229              	.L161:
 174:../../libdaisy/src/hid/disp/display.h ****     }
 2230              		.loc 4 174 19 view .LVU481
 2231 00bc B042     		cmp	r0, r6
 2232 00be 06D8     		bhi	.L163
 174:../../libdaisy/src/hid/disp/display.h ****     }
 2233              		.loc 4 174 46 view .LVU482
 2234 00c0 2368     		ldr	r3, [r4]
 2235 00c2 039A     		ldr	r2, [sp, #12]
 2236 00c4 9B68     		ldr	r3, [r3, #8]
 2237 00c6 9342     		cmp	r3, r2
 2238 00c8 40F08481 		bne	.L214
 2239 00cc 3F26     		movs	r6, #63
 2240              	.L163:
 174:../../libdaisy/src/hid/disp/display.h ****     }
 2241              		.loc 4 174 46 view .LVU483
 2242 00ce 6B78     		ldrb	r3, [r5, #1]	@ zero_extendqisi2
 174:../../libdaisy/src/hid/disp/display.h ****     }
 2243              		.loc 4 174 19 view .LVU484
 2244 00d0 E680     		strh	r6, [r4, #6]	@ movhi
 2245              	.LVL166:
 174:../../libdaisy/src/hid/disp/display.h ****     }
 2246              		.loc 4 174 19 view .LVU485
 2247 00d2 0493     		str	r3, [sp, #16]
 2248              	.LBE1330:
 2249              	.LBE1329:
 2250              	.LBB1334:
 2251              	.LBB1335:
 443:../../libdaisy/src/hid/disp/display.h ****         {
 2252              		.loc 4 443 9 view .LVU486
 2253 00d4 98F80060 		ldrb	r6, [r8]	@ zero_extendqisi2
 2254 00d8 6B68     		ldr	r3, [r5, #4]
 2255 00da 95F800B0 		ldrb	fp, [r5]	@ zero_extendqisi2
 2256              	.LVL167:
 443:../../libdaisy/src/hid/disp/display.h ****         {
 2257              		.loc 4 443 9 view .LVU487
 2258 00de 0793     		str	r3, [sp, #28]
 2259              	.LVL168:
 443:../../libdaisy/src/hid/disp/display.h ****         {
 2260              		.loc 4 443 9 view .LVU488
 2261              	.LBE1335:
 2262              	.LBI1334:
 440:../../libdaisy/src/hid/disp/display.h ****     {
 2263              		.loc 4 440 10 is_stmt 1 view .LVU489
 2264              	.LBB1378:
 443:../../libdaisy/src/hid/disp/display.h ****         {
 2265              		.loc 4 443 9 view .LVU490
 2266 00e0 002E     		cmp	r6, #0
 2267 00e2 00F0AD80 		beq	.L135
 2268              	.LVL169:
 2269              	.L165:
 2270              	.LBB1336:
 2271              	.LBI1336:
 396:../../libdaisy/src/hid/disp/display.h ****     {
 2272              		.loc 4 396 10 view .LVU491
ARM GAS  /tmp/cc3v7X8N.s 			page 78


 2273              	.LBB1337:
 401:../../libdaisy/src/hid/disp/display.h ****             return 0;
 2274              		.loc 4 401 20 is_stmt 0 view .LVU492
 2275 00e6 A6F12005 		sub	r5, r6, #32
 401:../../libdaisy/src/hid/disp/display.h ****             return 0;
 2276              		.loc 4 401 9 view .LVU493
 2277 00ea EBB2     		uxtb	r3, r5
 2278 00ec 5E2B     		cmp	r3, #94
 2279 00ee 00F23481 		bhi	.L169
 405:../../libdaisy/src/hid/disp/display.h ****            || Height() < (currentY_ + font.FontHeight))
 2280              		.loc 4 405 17 view .LVU494
 2281 00f2 2368     		ldr	r3, [r4]
 2282 00f4 019A     		ldr	r2, [sp, #4]
 2283 00f6 DB68     		ldr	r3, [r3, #12]
 2284 00f8 9342     		cmp	r3, r2
 2285 00fa 40F03081 		bne	.L215
 2286 00fe 8020     		movs	r0, #128
 2287              	.L168:
 405:../../libdaisy/src/hid/disp/display.h ****            || Height() < (currentY_ + font.FontHeight))
 2288              		.loc 4 405 23 view .LVU495
 2289 0100 A388     		ldrh	r3, [r4, #4]
 405:../../libdaisy/src/hid/disp/display.h ****            || Height() < (currentY_ + font.FontHeight))
 2290              		.loc 4 405 33 view .LVU496
 2291 0102 5B44     		add	r3, r3, fp
 406:../../libdaisy/src/hid/disp/display.h ****         {
 2292              		.loc 4 406 12 view .LVU497
 2293 0104 9842     		cmp	r0, r3
 2294 0106 C0F22881 		blt	.L169
 406:../../libdaisy/src/hid/disp/display.h ****         {
 2295              		.loc 4 406 21 view .LVU498
 2296 010a 2368     		ldr	r3, [r4]
 2297 010c 039A     		ldr	r2, [sp, #12]
 2298 010e 9B68     		ldr	r3, [r3, #8]
 2299 0110 9342     		cmp	r3, r2
 2300 0112 40F02B81 		bne	.L216
 2301 0116 4020     		movs	r0, #64
 2302              	.L170:
 406:../../libdaisy/src/hid/disp/display.h ****         {
 2303              		.loc 4 406 27 view .LVU499
 2304 0118 E188     		ldrh	r1, [r4, #6]
 406:../../libdaisy/src/hid/disp/display.h ****         {
 2305              		.loc 4 406 37 view .LVU500
 2306 011a 049A     		ldr	r2, [sp, #16]
 406:../../libdaisy/src/hid/disp/display.h ****         {
 2307              		.loc 4 406 27 view .LVU501
 2308 011c 0291     		str	r1, [sp, #8]
 406:../../libdaisy/src/hid/disp/display.h ****         {
 2309              		.loc 4 406 37 view .LVU502
 2310 011e 8B18     		adds	r3, r1, r2
 406:../../libdaisy/src/hid/disp/display.h ****         {
 2311              		.loc 4 406 12 view .LVU503
 2312 0120 9842     		cmp	r0, r3
 2313 0122 C0F21A81 		blt	.L169
 2314              	.LVL170:
 413:../../libdaisy/src/hid/disp/display.h ****         {
 2315              		.loc 4 413 22 is_stmt 1 view .LVU504
 2316 0126 1046     		mov	r0, r2
ARM GAS  /tmp/cc3v7X8N.s 			page 79


 2317 0128 002A     		cmp	r2, #0
 2318 012a 00F02981 		beq	.L171
 415:../../libdaisy/src/hid/disp/display.h ****             for(j = 0; j < font.FontWidth; j++)
 2319              		.loc 4 415 37 is_stmt 0 view .LVU505
 2320 012e 1346     		mov	r3, r2
 2321 0130 6FF00047 		mvn	r7, #-2147483648
 2322 0134 B4F804C0 		ldrh	ip, [r4, #4]
 2323 0138 03FB05F3 		mul	r3, r3, r5
 2324 013c 079D     		ldr	r5, [sp, #28]
 2325 013e CDF81880 		str	r8, [sp, #24]
 2326 0142 AA1E     		subs	r2, r5, #2
 2327 0144 1F44     		add	r7, r7, r3
 2328 0146 0344     		add	r3, r3, r0
 2329 0148 DDF82090 		ldr	r9, [sp, #32]
 2330 014c 05EB4707 		add	r7, r5, r7, lsl #1
 2331 0150 0596     		str	r6, [sp, #20]
 2332 0152 02EB4303 		add	r3, r2, r3, lsl #1
 2333 0156 2246     		mov	r2, r4
 2334 0158 5C46     		mov	r4, fp
 2335              	.LVL171:
 415:../../libdaisy/src/hid/disp/display.h ****             for(j = 0; j < font.FontWidth; j++)
 2336              		.loc 4 415 37 view .LVU506
 2337 015a 9846     		mov	r8, r3
 2338              	.LVL172:
 415:../../libdaisy/src/hid/disp/display.h ****             for(j = 0; j < font.FontWidth; j++)
 2339              		.loc 4 415 37 view .LVU507
 2340 015c 9346     		mov	fp, r2
 2341              	.LVL173:
 2342              	.L174:
 415:../../libdaisy/src/hid/disp/display.h ****             for(j = 0; j < font.FontWidth; j++)
 2343              		.loc 4 415 13 view .LVU508
 2344 015e 37F802AF 		ldrh	r10, [r7, #2]!
 2345              	.LVL174:
 416:../../libdaisy/src/hid/disp/display.h ****             {
 2346              		.loc 4 416 26 is_stmt 1 view .LVU509
 2347 0162 A4B3     		cbz	r4, .L179
 2348              	.LBB1338:
 2349              	.LBB1339:
 2350              	.LBB1340:
 2351              	.LBB1341:
 2352              	.LBB1342:
 246:../../libdaisy/src/dev/oled_ssd130x.h ****     }
 2353              		.loc 17 246 49 is_stmt 0 view .LVU510
 2354 0164 0125     		movs	r5, #1
 246:../../libdaisy/src/dev/oled_ssd130x.h ****     }
 2355              		.loc 17 246 55 view .LVU511
 2356 0166 01F00702 		and	r2, r1, #7
 246:../../libdaisy/src/dev/oled_ssd130x.h ****     }
 2357              		.loc 17 246 28 view .LVU512
 2358 016a C808     		lsrs	r0, r1, #3
 2359 016c 0CF11403 		add	r3, ip, #20
 246:../../libdaisy/src/dev/oled_ssd130x.h ****     }
 2360              		.loc 17 246 49 view .LVU513
 2361 0170 05FA02F2 		lsl	r2, r5, r2
 2362 0174 6546     		mov	r5, ip
 2363 0176 03EBC013 		add	r3, r3, r0, lsl #7
 2364              	.LBE1342:
ARM GAS  /tmp/cc3v7X8N.s 			page 80


 2365              	.LBE1341:
 2366              	.LBE1340:
 2367              	.LBE1339:
 2368              	.LBE1338:
 416:../../libdaisy/src/hid/disp/display.h ****             {
 2369              		.loc 4 416 19 view .LVU514
 2370 017a 0020     		movs	r0, #0
 2371              	.LBB1360:
 2372              	.LBB1355:
 2373              	.LBB1350:
 2374              	.LBB1346:
 2375              	.LBB1343:
 246:../../libdaisy/src/dev/oled_ssd130x.h ****     }
 2376              		.loc 17 246 42 view .LVU515
 2377 017c 52B2     		sxtb	r2, r2
 2378 017e 5B44     		add	r3, r3, fp
 2379 0180 6FEA020E 		mvn	lr, r2
 2380 0184 0EE0     		b	.L180
 2381              	.LVL175:
 2382              	.L217:
 246:../../libdaisy/src/dev/oled_ssd130x.h ****     }
 2383              		.loc 17 246 42 view .LVU516
 2384              	.LBE1343:
 2385              	.LBE1346:
 2386              	.LBE1350:
 2387              	.LBE1355:
 2388              	.LBE1360:
 2389              	.LBB1361:
 2390              	.LBI1361:
  41:../../libdaisy/src/hid/disp/oled_display.h ****     {
 2391              		.loc 3 41 10 is_stmt 1 view .LVU517
 2392              	.LBB1362:
 2393              	.LBI1362:
 239:../../libdaisy/src/dev/oled_ssd130x.h ****     {
 2394              		.loc 17 239 10 view .LVU518
 2395              	.LBB1363:
 241:../../libdaisy/src/dev/oled_ssd130x.h ****             return;
 2396              		.loc 17 241 9 is_stmt 0 view .LVU519
 2397 0186 7F2D     		cmp	r5, #127
 2398 0188 07D8     		bhi	.L176
 2399 018a 3F29     		cmp	r1, #63
 2400 018c 05D8     		bhi	.L176
 244:../../libdaisy/src/dev/oled_ssd130x.h ****         else
 2401              		.loc 17 244 42 view .LVU520
 2402 018e 1E78     		ldrb	r6, [r3]	@ zero_extendqisi2
 243:../../libdaisy/src/dev/oled_ssd130x.h ****             buffer_[x + (y / 8) * width] |= (1 << (y % 8));
 2403              		.loc 17 243 9 view .LVU521
 2404 0190 B9F1000F 		cmp	r9, #0
 2405 0194 12D0     		beq	.L178
 2406              	.L211:
 243:../../libdaisy/src/dev/oled_ssd130x.h ****             buffer_[x + (y / 8) * width] |= (1 << (y % 8));
 2407              		.loc 17 243 9 view .LVU522
 2408              	.LBE1363:
 2409              	.LBE1362:
 2410              	.LBE1361:
 2411              	.LBB1364:
 2412              	.LBB1356:
ARM GAS  /tmp/cc3v7X8N.s 			page 81


 2413              	.LBB1351:
 244:../../libdaisy/src/dev/oled_ssd130x.h ****         else
 2414              		.loc 17 244 42 view .LVU523
 2415 0196 1643     		orrs	r6, r6, r2
 244:../../libdaisy/src/dev/oled_ssd130x.h ****         else
 2416              		.loc 17 244 13 view .LVU524
 2417 0198 1E70     		strb	r6, [r3]
 2418              	.L176:
 2419              	.LBE1351:
 2420              	.LBE1356:
 2421              	.LBE1364:
 416:../../libdaisy/src/hid/disp/display.h ****             {
 2422              		.loc 4 416 13 is_stmt 1 view .LVU525
 2423 019a 0130     		adds	r0, r0, #1
 2424              	.LVL176:
 416:../../libdaisy/src/hid/disp/display.h ****             {
 2425              		.loc 4 416 26 view .LVU526
 2426 019c 0133     		adds	r3, r3, #1
 2427 019e 0135     		adds	r5, r5, #1
 2428 01a0 8442     		cmp	r4, r0
 2429 01a2 14D0     		beq	.L179
 2430              	.LVL177:
 2431              	.L180:
 418:../../libdaisy/src/hid/disp/display.h ****                 {
 2432              		.loc 4 418 23 is_stmt 0 view .LVU527
 2433 01a4 0AFA00F6 		lsl	r6, r10, r0
 418:../../libdaisy/src/hid/disp/display.h ****                 {
 2434              		.loc 4 418 17 view .LVU528
 2435 01a8 3604     		lsls	r6, r6, #16
 2436 01aa ECD4     		bmi	.L217
 2437              	.LVL178:
 2438              	.LBB1365:
 2439              	.LBI1338:
  41:../../libdaisy/src/hid/disp/oled_display.h ****     {
 2440              		.loc 3 41 10 is_stmt 1 view .LVU529
 2441              	.LBB1357:
 2442              	.LBI1339:
 239:../../libdaisy/src/dev/oled_ssd130x.h ****     {
 2443              		.loc 17 239 10 view .LVU530
 2444              	.LBB1352:
 241:../../libdaisy/src/dev/oled_ssd130x.h ****             return;
 2445              		.loc 17 241 9 is_stmt 0 view .LVU531
 2446 01ac 7F2D     		cmp	r5, #127
 2447 01ae F4D8     		bhi	.L176
 2448 01b0 3F29     		cmp	r1, #63
 2449 01b2 F2D8     		bhi	.L176
 244:../../libdaisy/src/dev/oled_ssd130x.h ****         else
 2450              		.loc 17 244 42 view .LVU532
 2451 01b4 1E78     		ldrb	r6, [r3]	@ zero_extendqisi2
 243:../../libdaisy/src/dev/oled_ssd130x.h ****             buffer_[x + (y / 8) * width] |= (1 << (y % 8));
 2452              		.loc 17 243 9 view .LVU533
 2453 01b6 B9F1000F 		cmp	r9, #0
 2454 01ba ECD0     		beq	.L211
 2455              	.L178:
 2456              	.LVL179:
 2457              	.LBB1347:
 2458              	.LBI1341:
ARM GAS  /tmp/cc3v7X8N.s 			page 82


 239:../../libdaisy/src/dev/oled_ssd130x.h ****     {
 2459              		.loc 17 239 10 is_stmt 1 view .LVU534
 239:../../libdaisy/src/dev/oled_ssd130x.h ****     {
 2460              		.loc 17 239 10 is_stmt 0 view .LVU535
 2461              	.LBE1347:
 2462              	.LBE1352:
 2463              	.LBE1357:
 2464              	.LBE1365:
 416:../../libdaisy/src/hid/disp/display.h ****             {
 2465              		.loc 4 416 13 view .LVU536
 2466 01bc 0130     		adds	r0, r0, #1
 2467              	.LVL180:
 2468              	.LBB1366:
 2469              	.LBB1358:
 2470              	.LBB1353:
 2471              	.LBB1348:
 2472              	.LBB1344:
 246:../../libdaisy/src/dev/oled_ssd130x.h ****     }
 2473              		.loc 17 246 42 view .LVU537
 2474 01be 0EEA0606 		and	r6, lr, r6
 2475 01c2 0133     		adds	r3, r3, #1
 2476 01c4 0135     		adds	r5, r5, #1
 2477              	.LBE1344:
 2478              	.LBE1348:
 2479              	.LBE1353:
 2480              	.LBE1358:
 2481              	.LBE1366:
 416:../../libdaisy/src/hid/disp/display.h ****             {
 2482              		.loc 4 416 26 view .LVU538
 2483 01c6 8442     		cmp	r4, r0
 2484              	.LBB1367:
 2485              	.LBB1359:
 2486              	.LBB1354:
 2487              	.LBB1349:
 2488              	.LBB1345:
 246:../../libdaisy/src/dev/oled_ssd130x.h ****     }
 2489              		.loc 17 246 13 view .LVU539
 2490 01c8 03F8016C 		strb	r6, [r3, #-1]
 246:../../libdaisy/src/dev/oled_ssd130x.h ****     }
 2491              		.loc 17 246 13 view .LVU540
 2492              	.LBE1345:
 2493              	.LBE1349:
 2494              	.LBE1354:
 2495              	.LBE1359:
 2496              	.LBE1367:
 416:../../libdaisy/src/hid/disp/display.h ****             {
 2497              		.loc 4 416 13 is_stmt 1 view .LVU541
 2498              	.LVL181:
 416:../../libdaisy/src/hid/disp/display.h ****             {
 2499              		.loc 4 416 26 view .LVU542
 2500 01cc EAD1     		bne	.L180
 2501              	.LVL182:
 2502              	.L179:
 413:../../libdaisy/src/hid/disp/display.h ****         {
 2503              		.loc 4 413 9 view .LVU543
 413:../../libdaisy/src/hid/disp/display.h ****         {
 2504              		.loc 4 413 22 view .LVU544
ARM GAS  /tmp/cc3v7X8N.s 			page 83


 2505 01ce B845     		cmp	r8, r7
 2506 01d0 01F10101 		add	r1, r1, #1
 2507 01d4 C3D1     		bne	.L174
 2508 01d6 5B46     		mov	r3, fp
 2509 01d8 059E     		ldr	r6, [sp, #20]
 2510 01da A346     		mov	fp, r4
 2511              	.LVL183:
 413:../../libdaisy/src/hid/disp/display.h ****         {
 2512              		.loc 4 413 22 is_stmt 0 view .LVU545
 2513 01dc DDF81880 		ldr	r8, [sp, #24]
 2514 01e0 1C46     		mov	r4, r3
 2515              	.LVL184:
 2516              	.L173:
 2517              	.LBB1368:
 2518              	.LBB1369:
 173:../../libdaisy/src/hid/disp/display.h ****         currentY_ = (y >= Height()) ? Height() - 1 : y;
 2519              		.loc 4 173 33 view .LVU546
 2520 01e2 2268     		ldr	r2, [r4]
 2521              	.LBE1369:
 2522              	.LBE1368:
 434:../../libdaisy/src/hid/disp/display.h **** 
 2523              		.loc 4 434 18 view .LVU547
 2524 01e4 DC44     		add	ip, ip, fp
 2525 01e6 0199     		ldr	r1, [sp, #4]
 2526              	.LBB1373:
 2527              	.LBB1370:
 173:../../libdaisy/src/hid/disp/display.h ****         currentY_ = (y >= Height()) ? Height() - 1 : y;
 2528              		.loc 4 173 33 view .LVU548
 2529 01e8 D368     		ldr	r3, [r2, #12]
 2530              	.LBE1370:
 2531              	.LBE1373:
 434:../../libdaisy/src/hid/disp/display.h **** 
 2532              		.loc 4 434 18 view .LVU549
 2533 01ea 1FFA8CF5 		uxth	r5, ip
 2534              	.LVL185:
 2535              	.LBB1374:
 2536              	.LBI1368:
 171:../../libdaisy/src/hid/disp/display.h ****     {
 2537              		.loc 4 171 10 is_stmt 1 view .LVU550
 2538              	.LBB1371:
 173:../../libdaisy/src/hid/disp/display.h ****         currentY_ = (y >= Height()) ? Height() - 1 : y;
 2539              		.loc 4 173 9 view .LVU551
 2540 01ee 8B42     		cmp	r3, r1
 2541 01f0 40F0C280 		bne	.L218
 173:../../libdaisy/src/hid/disp/display.h ****         currentY_ = (y >= Height()) ? Height() - 1 : y;
 2542              		.loc 4 173 33 is_stmt 0 view .LVU552
 2543 01f4 8020     		movs	r0, #128
 2544              	.L181:
 173:../../libdaisy/src/hid/disp/display.h ****         currentY_ = (y >= Height()) ? Height() - 1 : y;
 2545              		.loc 4 173 19 view .LVU553
 2546 01f6 8542     		cmp	r5, r0
 2547 01f8 05D3     		bcc	.L182
 173:../../libdaisy/src/hid/disp/display.h ****         currentY_ = (y >= Height()) ? Height() - 1 : y;
 2548              		.loc 4 173 44 view .LVU554
 2549 01fa D368     		ldr	r3, [r2, #12]
 2550 01fc 0199     		ldr	r1, [sp, #4]
 2551 01fe 8B42     		cmp	r3, r1
ARM GAS  /tmp/cc3v7X8N.s 			page 84


 2552 0200 40F0C780 		bne	.L219
 2553 0204 7F25     		movs	r5, #127
 2554              	.LVL186:
 2555              	.L182:
 174:../../libdaisy/src/hid/disp/display.h ****     }
 2556              		.loc 4 174 34 view .LVU555
 2557 0206 9368     		ldr	r3, [r2, #8]
 2558 0208 039A     		ldr	r2, [sp, #12]
 173:../../libdaisy/src/hid/disp/display.h ****         currentY_ = (y >= Height()) ? Height() - 1 : y;
 2559              		.loc 4 173 19 view .LVU556
 2560 020a A580     		strh	r5, [r4, #4]	@ movhi
 174:../../libdaisy/src/hid/disp/display.h ****     }
 2561              		.loc 4 174 9 is_stmt 1 view .LVU557
 2562 020c 9342     		cmp	r3, r2
 2563 020e 40F0B080 		bne	.L220
 174:../../libdaisy/src/hid/disp/display.h ****     }
 2564              		.loc 4 174 34 is_stmt 0 view .LVU558
 2565 0212 4020     		movs	r0, #64
 2566              	.L184:
 174:../../libdaisy/src/hid/disp/display.h ****     }
 2567              		.loc 4 174 19 view .LVU559
 2568 0214 029B     		ldr	r3, [sp, #8]
 2569 0216 8342     		cmp	r3, r0
 2570 0218 07D3     		bcc	.L185
 174:../../libdaisy/src/hid/disp/display.h ****     }
 2571              		.loc 4 174 46 view .LVU560
 2572 021a 2368     		ldr	r3, [r4]
 2573 021c 039A     		ldr	r2, [sp, #12]
 2574 021e 9B68     		ldr	r3, [r3, #8]
 2575 0220 9342     		cmp	r3, r2
 2576 0222 40F0B080 		bne	.L221
 2577 0226 3F23     		movs	r3, #63
 2578 0228 0293     		str	r3, [sp, #8]
 2579              	.LVL187:
 2580              	.L185:
 174:../../libdaisy/src/hid/disp/display.h ****     }
 2581              		.loc 4 174 19 view .LVU561
 2582 022a 029B     		ldr	r3, [sp, #8]
 2583 022c E380     		strh	r3, [r4, #6]	@ movhi
 2584              	.LVL188:
 2585              	.L167:
 174:../../libdaisy/src/hid/disp/display.h ****     }
 2586              		.loc 4 174 19 view .LVU562
 2587              	.LBE1371:
 2588              	.LBE1374:
 2589              	.LBE1337:
 2590              	.LBE1336:
 445:../../libdaisy/src/hid/disp/display.h ****                != *str)
 2591              		.loc 4 445 13 view .LVU563
 2592 022e 98F80030 		ldrb	r3, [r8]	@ zero_extendqisi2
 2593 0232 B342     		cmp	r3, r6
 2594 0234 04D1     		bne	.L135
 2595              	.LVL189:
 443:../../libdaisy/src/hid/disp/display.h ****         {
 2596              		.loc 4 443 9 is_stmt 1 view .LVU564
 2597 0236 18F8016F 		ldrb	r6, [r8, #1]!	@ zero_extendqisi2
 2598              	.LVL190:
ARM GAS  /tmp/cc3v7X8N.s 			page 85


 443:../../libdaisy/src/hid/disp/display.h ****         {
 2599              		.loc 4 443 9 is_stmt 0 view .LVU565
 2600 023a 002E     		cmp	r6, #0
 2601 023c 7FF453AF 		bne	.L165
 2602              	.LVL191:
 2603              	.L135:
 443:../../libdaisy/src/hid/disp/display.h ****         {
 2604              		.loc 4 443 9 view .LVU566
 2605              	.LBE1378:
 2606              	.LBE1334:
 471:../../libdaisy/src/hid/disp/display.h **** 
 2607              		.loc 4 471 5 view .LVU567
 2608 0240 0998     		ldr	r0, [sp, #36]
 2609 0242 0BB0     		add	sp, sp, #44
 2610              		.cfi_remember_state
 2611              		.cfi_def_cfa_offset 36
 2612              		@ sp needed
 2613 0244 BDE8F08F 		pop	{r4, r5, r6, r7, r8, r9, r10, fp, pc}
 2614              	.LVL192:
 2615              	.L148:
 2616              		.cfi_restore_state
 2617              	.LBB1380:
 2618              	.LBB1314:
 250:../../libdaisy/src/hid/disp/graphics_common.h ****                 return {int16_t(x_ + (other.GetCenterX() - GetCenterX())),
 2619              		.loc 18 250 13 is_stmt 1 view .LVU568
 251:../../libdaisy/src/hid/disp/graphics_common.h ****                         int16_t(y_ + (other.GetCenterY() - GetCenterY())),
 2620              		.loc 18 251 17 view .LVU569
 2621              	.LBB1145:
 2622              	.LBI1145:
  62:../../libdaisy/src/hid/disp/graphics_common.h ****     int16_t GetCenterY() const { return y_ + height_ / 2; }
 2623              		.loc 18 62 13 view .LVU570
 2624              	.LBB1146:
  62:../../libdaisy/src/hid/disp/graphics_common.h ****     int16_t GetCenterY() const { return y_ + height_ / 2; }
 2625              		.loc 18 62 34 view .LVU571
  62:../../libdaisy/src/hid/disp/graphics_common.h ****     int16_t GetCenterY() const { return y_ + height_ / 2; }
 2626              		.loc 18 62 34 is_stmt 0 view .LVU572
 2627              	.LBE1146:
 2628              	.LBE1145:
 2629              	.LBB1150:
 2630              	.LBI1150:
  62:../../libdaisy/src/hid/disp/graphics_common.h ****     int16_t GetCenterY() const { return y_ + height_ / 2; }
 2631              		.loc 18 62 13 is_stmt 1 view .LVU573
 2632              	.LBB1151:
  62:../../libdaisy/src/hid/disp/graphics_common.h ****     int16_t GetCenterY() const { return y_ + height_ / 2; }
 2633              		.loc 18 62 34 view .LVU574
 2634              	.LBE1151:
 2635              	.LBE1150:
 2636              	.LBB1152:
 2637              	.LBB1147:
  62:../../libdaisy/src/hid/disp/graphics_common.h ****     int16_t GetCenterY() const { return y_ + height_ / 2; }
 2638              		.loc 18 62 53 is_stmt 0 view .LVU575
 2639 0248 B6F90400 		ldrsh	r0, [r6, #4]
  62:../../libdaisy/src/hid/disp/graphics_common.h ****     int16_t GetCenterY() const { return y_ + height_ / 2; }
 2640              		.loc 18 62 44 view .LVU576
 2641 024c 3788     		ldrh	r7, [r6]
  62:../../libdaisy/src/hid/disp/graphics_common.h ****     int16_t GetCenterY() const { return y_ + height_ / 2; }
 2642              		.loc 18 62 53 view .LVU577
ARM GAS  /tmp/cc3v7X8N.s 			page 86


 2643 024e 0028     		cmp	r0, #0
 2644              	.LBE1147:
 2645              	.LBE1152:
 2646              	.LBB1153:
 2647              	.LBB1126:
  63:../../libdaisy/src/hid/disp/graphics_common.h **** 
 2648              		.loc 18 63 54 view .LVU578
 2649 0250 B6F90630 		ldrsh	r3, [r6, #6]
 2650              	.LVL193:
  63:../../libdaisy/src/hid/disp/graphics_common.h **** 
 2651              		.loc 18 63 54 view .LVU579
 2652              	.LBE1126:
 2653              	.LBE1153:
 2654              	.LBB1154:
 2655              	.LBB1148:
  62:../../libdaisy/src/hid/disp/graphics_common.h ****     int16_t GetCenterY() const { return y_ + height_ / 2; }
 2656              		.loc 18 62 53 view .LVU580
 2657 0254 B8BF     		it	lt
 2658 0256 0130     		addlt	r0, r0, #1
 2659              	.LBE1148:
 2660              	.LBE1154:
 2661              	.LBB1155:
 2662              	.LBB1127:
  63:../../libdaisy/src/hid/disp/graphics_common.h **** 
 2663              		.loc 18 63 54 view .LVU581
 2664 0258 002B     		cmp	r3, #0
 2665              	.LBE1127:
 2666              	.LBE1155:
 2667              	.LBB1156:
 2668              	.LBB1149:
  62:../../libdaisy/src/hid/disp/graphics_common.h ****     int16_t GetCenterY() const { return y_ + height_ / 2; }
 2669              		.loc 18 62 44 view .LVU582
 2670 025a 07EB6007 		add	r7, r7, r0, asr #1
 2671              	.LBE1149:
 2672              	.LBE1156:
 251:../../libdaisy/src/hid/disp/graphics_common.h ****                         int16_t(y_ + (other.GetCenterY() - GetCenterY())),
 2673              		.loc 18 251 58 view .LVU583
 2674 025e A7EB6207 		sub	r7, r7, r2, asr #1
 2675 0262 BFB2     		uxth	r7, r7
 2676              	.LBB1157:
 2677              	.LBI1123:
  63:../../libdaisy/src/hid/disp/graphics_common.h **** 
 2678              		.loc 18 63 13 is_stmt 1 view .LVU584
 2679              	.LVL194:
 2680              	.LBB1128:
  63:../../libdaisy/src/hid/disp/graphics_common.h **** 
 2681              		.loc 18 63 34 view .LVU585
  63:../../libdaisy/src/hid/disp/graphics_common.h **** 
 2682              		.loc 18 63 34 is_stmt 0 view .LVU586
 2683              	.LBE1128:
 2684              	.LBE1157:
 2685              	.LBB1158:
 2686              	.LBI1158:
  63:../../libdaisy/src/hid/disp/graphics_common.h **** 
 2687              		.loc 18 63 13 is_stmt 1 view .LVU587
 2688              	.LBB1159:
  63:../../libdaisy/src/hid/disp/graphics_common.h **** 
ARM GAS  /tmp/cc3v7X8N.s 			page 87


 2689              		.loc 18 63 34 view .LVU588
 2690              	.LBE1159:
 2691              	.LBE1158:
 2692              	.LBB1160:
 2693              	.LBB1129:
  63:../../libdaisy/src/hid/disp/graphics_common.h **** 
 2694              		.loc 18 63 54 is_stmt 0 view .LVU589
 2695 0264 BFF604AF 		bge	.L155
 2696              	.LVL195:
 2697              	.L212:
  63:../../libdaisy/src/hid/disp/graphics_common.h **** 
 2698              		.loc 18 63 54 view .LVU590
 2699 0268 0133     		adds	r3, r3, #1
 2700 026a 01E7     		b	.L155
 2701              	.LVL196:
 2702              	.L147:
  63:../../libdaisy/src/hid/disp/graphics_common.h **** 
 2703              		.loc 18 63 54 view .LVU591
 2704              	.LBE1129:
 2705              	.LBE1160:
 213:../../libdaisy/src/hid/disp/graphics_common.h ****                 return {other.x_, other.y_, width_, height_};
 2706              		.loc 18 213 13 is_stmt 1 view .LVU592
 214:../../libdaisy/src/hid/disp/graphics_common.h ****             case Alignment::topRight:
 2707              		.loc 18 214 17 view .LVU593
 214:../../libdaisy/src/hid/disp/graphics_common.h ****             case Alignment::topRight:
 2708              		.loc 18 214 31 is_stmt 0 view .LVU594
 2709 026c B6F90070 		ldrsh	r7, [r6]
 2710              	.LBB1161:
 2711              	.LBB1162:
 2712              	.LBB1163:
  32:../../libdaisy/src/hid/disp/graphics_common.h ****     {
 2713              		.loc 18 32 66 view .LVU595
 2714 0270 099B     		ldr	r3, [sp, #36]
 2715              	.LVL197:
  32:../../libdaisy/src/hid/disp/graphics_common.h ****     {
 2716              		.loc 18 32 66 view .LVU596
 2717              	.LBE1163:
 2718              	.LBE1162:
 2719              	.LBE1161:
 214:../../libdaisy/src/hid/disp/graphics_common.h ****             case Alignment::topRight:
 2720              		.loc 18 214 41 view .LVU597
 2721 0272 B6F90260 		ldrsh	r6, [r6, #2]
 2722              	.LVL198:
 2723              	.LBB1172:
 2724              	.LBI1161:
  31:../../libdaisy/src/hid/disp/graphics_common.h ****     : x_(x), y_(y), width_(max(0, width)), height_(max(0, height))
 2725              		.loc 18 31 5 is_stmt 1 view .LVU598
 2726              	.LBB1169:
 2727              	.LBB1166:
  32:../../libdaisy/src/hid/disp/graphics_common.h ****     {
 2728              		.loc 18 32 66 is_stmt 0 view .LVU599
 2729 0276 1F80     		strh	r7, [r3]	@ movhi
 2730 0278 BFB2     		uxth	r7, r7
 2731              	.LVL199:
  32:../../libdaisy/src/hid/disp/graphics_common.h ****     {
 2732              		.loc 18 32 66 view .LVU600
 2733 027a 5E80     		strh	r6, [r3, #2]	@ movhi
ARM GAS  /tmp/cc3v7X8N.s 			page 88


 2734              	.LVL200:
 2735              	.LBB1164:
 2736              	.LBI1164:
 2737              		.loc 18 261 13 is_stmt 1 view .LVU601
 2738              		.loc 18 261 13 is_stmt 0 view .LVU602
 2739              	.LBE1164:
 2740              	.LBE1166:
 2741              	.LBE1169:
 2742              	.LBE1172:
 2743              	.LBE1314:
 2744              	.LBE1380:
 2745              		.loc 18 261 41 is_stmt 1 view .LVU603
 2746              		.loc 18 261 41 is_stmt 0 view .LVU604
 2747 027c B6B2     		uxth	r6, r6
 2748              	.LVL201:
 2749              	.LBB1381:
 2750              	.LBB1315:
 2751              	.LBB1173:
 2752              	.LBB1170:
 2753              	.LBB1167:
  32:../../libdaisy/src/hid/disp/graphics_common.h ****     {
 2754              		.loc 18 32 66 view .LVU605
 2755 027e 9A80     		strh	r2, [r3, #4]	@ movhi
 2756              	.LVL202:
 2757              	.LBB1165:
 2758              	.LBI1165:
 2759              		.loc 18 261 13 is_stmt 1 view .LVU606
 2760              		.loc 18 261 13 is_stmt 0 view .LVU607
 2761              	.LBE1165:
 2762              	.LBE1167:
 2763              	.LBE1170:
 2764              	.LBE1173:
 2765              	.LBE1315:
 2766              	.LBE1381:
 2767              		.loc 18 261 41 is_stmt 1 view .LVU608
 2768              	.LBB1382:
 2769              	.LBB1316:
 2770              	.LBB1174:
 2771              	.LBB1171:
 2772              	.LBB1168:
  32:../../libdaisy/src/hid/disp/graphics_common.h ****     {
 2773              		.loc 18 32 66 is_stmt 0 view .LVU609
 2774 0280 D980     		strh	r1, [r3, #6]	@ movhi
 2775              	.LBE1168:
  34:../../libdaisy/src/hid/disp/graphics_common.h **** 
 2776              		.loc 18 34 5 view .LVU610
 2777 0282 02E7     		b	.L149
 2778              	.LVL203:
 2779              	.L146:
  34:../../libdaisy/src/hid/disp/graphics_common.h **** 
 2780              		.loc 18 34 5 view .LVU611
 2781              	.LBE1171:
 2782              	.LBE1174:
 220:../../libdaisy/src/hid/disp/graphics_common.h ****                 return {int16_t(x_ + (other.GetCenterX() - GetCenterX())),
 2783              		.loc 18 220 13 is_stmt 1 view .LVU612
 221:../../libdaisy/src/hid/disp/graphics_common.h ****                         other.y_,
 2784              		.loc 18 221 17 view .LVU613
ARM GAS  /tmp/cc3v7X8N.s 			page 89


 2785              	.LBB1175:
 2786              	.LBI1175:
  62:../../libdaisy/src/hid/disp/graphics_common.h ****     int16_t GetCenterY() const { return y_ + height_ / 2; }
 2787              		.loc 18 62 13 view .LVU614
 2788              	.LBB1176:
  62:../../libdaisy/src/hid/disp/graphics_common.h ****     int16_t GetCenterY() const { return y_ + height_ / 2; }
 2789              		.loc 18 62 34 view .LVU615
  62:../../libdaisy/src/hid/disp/graphics_common.h ****     int16_t GetCenterY() const { return y_ + height_ / 2; }
 2790              		.loc 18 62 34 is_stmt 0 view .LVU616
 2791              	.LBE1176:
 2792              	.LBE1175:
 2793              	.LBB1179:
 2794              	.LBI1179:
  62:../../libdaisy/src/hid/disp/graphics_common.h ****     int16_t GetCenterY() const { return y_ + height_ / 2; }
 2795              		.loc 18 62 13 is_stmt 1 view .LVU617
 2796              	.LBB1180:
  62:../../libdaisy/src/hid/disp/graphics_common.h ****     int16_t GetCenterY() const { return y_ + height_ / 2; }
 2797              		.loc 18 62 34 view .LVU618
 2798              	.LBE1180:
 2799              	.LBE1179:
 2800              	.LBB1181:
 2801              	.LBB1177:
  62:../../libdaisy/src/hid/disp/graphics_common.h ****     int16_t GetCenterY() const { return y_ + height_ / 2; }
 2802              		.loc 18 62 53 is_stmt 0 view .LVU619
 2803 0284 B6F90430 		ldrsh	r3, [r6, #4]
 2804              	.LVL204:
  62:../../libdaisy/src/hid/disp/graphics_common.h ****     int16_t GetCenterY() const { return y_ + height_ / 2; }
 2805              		.loc 18 62 44 view .LVU620
 2806 0288 3788     		ldrh	r7, [r6]
  62:../../libdaisy/src/hid/disp/graphics_common.h ****     int16_t GetCenterY() const { return y_ + height_ / 2; }
 2807              		.loc 18 62 53 view .LVU621
 2808 028a 002B     		cmp	r3, #0
 2809              	.LBE1177:
 2810              	.LBE1181:
 222:../../libdaisy/src/hid/disp/graphics_common.h ****                         width_,
 2811              		.loc 18 222 31 view .LVU622
 2812 028c B6F90260 		ldrsh	r6, [r6, #2]
 2813              	.LVL205:
 2814              	.LBB1182:
 2815              	.LBB1178:
  62:../../libdaisy/src/hid/disp/graphics_common.h ****     int16_t GetCenterY() const { return y_ + height_ / 2; }
 2816              		.loc 18 62 53 view .LVU623
 2817 0290 B8BF     		it	lt
 2818 0292 0133     		addlt	r3, r3, #1
  62:../../libdaisy/src/hid/disp/graphics_common.h ****     int16_t GetCenterY() const { return y_ + height_ / 2; }
 2819              		.loc 18 62 44 view .LVU624
 2820 0294 07EB6307 		add	r7, r7, r3, asr #1
 2821              	.LBE1178:
 2822              	.LBE1182:
 2823              	.LBB1183:
 2824              	.LBB1184:
 2825              	.LBB1185:
  32:../../libdaisy/src/hid/disp/graphics_common.h ****     {
 2826              		.loc 18 32 66 view .LVU625
 2827 0298 099B     		ldr	r3, [sp, #36]
 2828 029a 9A80     		strh	r2, [r3, #4]	@ movhi
 2829              	.LBE1185:
ARM GAS  /tmp/cc3v7X8N.s 			page 90


 2830              	.LBE1184:
 2831              	.LBE1183:
 221:../../libdaisy/src/hid/disp/graphics_common.h ****                         other.y_,
 2832              		.loc 18 221 58 view .LVU626
 2833 029c A7EB6202 		sub	r2, r7, r2, asr #1
 2834              	.LBB1196:
 2835              	.LBB1192:
 2836              	.LBB1188:
  32:../../libdaisy/src/hid/disp/graphics_common.h ****     {
 2837              		.loc 18 32 66 view .LVU627
 2838 02a0 5E80     		strh	r6, [r3, #2]	@ movhi
 2839 02a2 B6B2     		uxth	r6, r6
 2840              	.LBE1188:
 2841              	.LBE1192:
 2842              	.LBE1196:
 221:../../libdaisy/src/hid/disp/graphics_common.h ****                         other.y_,
 2843              		.loc 18 221 58 view .LVU628
 2844 02a4 97B2     		uxth	r7, r2
 2845              	.LVL206:
 2846              	.LBB1197:
 2847              	.LBI1183:
  31:../../libdaisy/src/hid/disp/graphics_common.h ****     : x_(x), y_(y), width_(max(0, width)), height_(max(0, height))
 2848              		.loc 18 31 5 is_stmt 1 view .LVU629
 2849              	.LBB1193:
 2850              	.LBB1189:
 2851              	.LBB1186:
 2852              	.LBI1186:
 2853              		.loc 18 261 13 view .LVU630
 2854              		.loc 18 261 13 is_stmt 0 view .LVU631
 2855              	.LBE1186:
 2856              	.LBE1189:
 2857              	.LBE1193:
 2858              	.LBE1197:
 2859              	.LBE1316:
 2860              	.LBE1382:
 2861              		.loc 18 261 41 is_stmt 1 view .LVU632
 2862              	.LBB1383:
 2863              	.LBB1317:
 2864              	.LBB1198:
 2865              	.LBB1194:
 2866              	.LBB1190:
 2867              	.LBB1187:
 2868              	.LBI1187:
 2869              		.loc 18 261 13 view .LVU633
 2870              		.loc 18 261 13 is_stmt 0 view .LVU634
 2871              	.LBE1187:
 2872              	.LBE1190:
 2873              	.LBE1194:
 2874              	.LBE1198:
 2875              	.LBE1317:
 2876              	.LBE1383:
 2877              		.loc 18 261 41 is_stmt 1 view .LVU635
 2878              	.LBB1384:
 2879              	.LBB1318:
 2880              	.LBB1199:
 2881              	.LBB1195:
 2882              	.LBB1191:
ARM GAS  /tmp/cc3v7X8N.s 			page 91


  32:../../libdaisy/src/hid/disp/graphics_common.h ****     {
 2883              		.loc 18 32 66 is_stmt 0 view .LVU636
 2884 02a6 D980     		strh	r1, [r3, #6]	@ movhi
 2885 02a8 1F80     		strh	r7, [r3]	@ movhi
 2886              	.LBE1191:
  34:../../libdaisy/src/hid/disp/graphics_common.h **** 
 2887              		.loc 18 34 5 view .LVU637
 2888 02aa EEE6     		b	.L149
 2889              	.LVL207:
 2890              	.L145:
  34:../../libdaisy/src/hid/disp/graphics_common.h **** 
 2891              		.loc 18 34 5 view .LVU638
 2892              	.LBE1195:
 2893              	.LBE1199:
 215:../../libdaisy/src/hid/disp/graphics_common.h ****                 return {int16_t(other.GetRight() - width_),
 2894              		.loc 18 215 13 is_stmt 1 view .LVU639
 216:../../libdaisy/src/hid/disp/graphics_common.h ****                         other.y_,
 2895              		.loc 18 216 17 view .LVU640
 2896              	.LBB1200:
 2897              	.LBI1200:
  60:../../libdaisy/src/hid/disp/graphics_common.h ****     int16_t GetBottom() const { return y_ + height_; }
 2898              		.loc 18 60 13 view .LVU641
 2899              	.LBB1201:
  60:../../libdaisy/src/hid/disp/graphics_common.h ****     int16_t GetBottom() const { return y_ + height_; }
 2900              		.loc 18 60 32 view .LVU642
  60:../../libdaisy/src/hid/disp/graphics_common.h ****     int16_t GetBottom() const { return y_ + height_; }
 2901              		.loc 18 60 42 is_stmt 0 view .LVU643
 2902 02ac B388     		ldrh	r3, [r6, #4]
 2903              	.LVL208:
  60:../../libdaisy/src/hid/disp/graphics_common.h ****     int16_t GetBottom() const { return y_ + height_; }
 2904              		.loc 18 60 42 view .LVU644
 2905 02ae 3788     		ldrh	r7, [r6]
 2906              	.LBE1201:
 2907              	.LBE1200:
 217:../../libdaisy/src/hid/disp/graphics_common.h ****                         width_,
 2908              		.loc 18 217 31 view .LVU645
 2909 02b0 B6F90260 		ldrsh	r6, [r6, #2]
 2910              	.LVL209:
 2911              	.LBB1203:
 2912              	.LBB1202:
  60:../../libdaisy/src/hid/disp/graphics_common.h ****     int16_t GetBottom() const { return y_ + height_; }
 2913              		.loc 18 60 42 view .LVU646
 2914 02b4 1F44     		add	r7, r7, r3
 2915              	.LBE1202:
 2916              	.LBE1203:
 2917              	.LBB1204:
 2918              	.LBB1205:
 2919              	.LBB1206:
  32:../../libdaisy/src/hid/disp/graphics_common.h ****     {
 2920              		.loc 18 32 66 view .LVU647
 2921 02b6 099B     		ldr	r3, [sp, #36]
 2922 02b8 9A80     		strh	r2, [r3, #4]	@ movhi
 2923              	.LBE1206:
 2924              	.LBE1205:
 2925              	.LBE1204:
 216:../../libdaisy/src/hid/disp/graphics_common.h ****                         other.y_,
 2926              		.loc 18 216 50 view .LVU648
ARM GAS  /tmp/cc3v7X8N.s 			page 92


 2927 02ba BA1A     		subs	r2, r7, r2
 2928              	.LBB1217:
 2929              	.LBB1213:
 2930              	.LBB1209:
  32:../../libdaisy/src/hid/disp/graphics_common.h ****     {
 2931              		.loc 18 32 66 view .LVU649
 2932 02bc 5E80     		strh	r6, [r3, #2]	@ movhi
 2933 02be B6B2     		uxth	r6, r6
 2934              	.LBE1209:
 2935              	.LBE1213:
 2936              	.LBE1217:
 216:../../libdaisy/src/hid/disp/graphics_common.h ****                         other.y_,
 2937              		.loc 18 216 50 view .LVU650
 2938 02c0 97B2     		uxth	r7, r2
 2939              	.LVL210:
 2940              	.LBB1218:
 2941              	.LBI1204:
  31:../../libdaisy/src/hid/disp/graphics_common.h ****     : x_(x), y_(y), width_(max(0, width)), height_(max(0, height))
 2942              		.loc 18 31 5 is_stmt 1 view .LVU651
 2943              	.LBB1214:
 2944              	.LBB1210:
 2945              	.LBB1207:
 2946              	.LBI1207:
 2947              		.loc 18 261 13 view .LVU652
 2948              		.loc 18 261 13 is_stmt 0 view .LVU653
 2949              	.LBE1207:
 2950              	.LBE1210:
 2951              	.LBE1214:
 2952              	.LBE1218:
 2953              	.LBE1318:
 2954              	.LBE1384:
 2955              		.loc 18 261 41 is_stmt 1 view .LVU654
 2956              	.LBB1385:
 2957              	.LBB1319:
 2958              	.LBB1219:
 2959              	.LBB1215:
 2960              	.LBB1211:
 2961              	.LBB1208:
 2962              	.LBI1208:
 2963              		.loc 18 261 13 view .LVU655
 2964              		.loc 18 261 13 is_stmt 0 view .LVU656
 2965              	.LBE1208:
 2966              	.LBE1211:
 2967              	.LBE1215:
 2968              	.LBE1219:
 2969              	.LBE1319:
 2970              	.LBE1385:
 2971              		.loc 18 261 41 is_stmt 1 view .LVU657
 2972              	.LBB1386:
 2973              	.LBB1320:
 2974              	.LBB1220:
 2975              	.LBB1216:
 2976              	.LBB1212:
  32:../../libdaisy/src/hid/disp/graphics_common.h ****     {
 2977              		.loc 18 32 66 is_stmt 0 view .LVU658
 2978 02c2 D980     		strh	r1, [r3, #6]	@ movhi
 2979 02c4 1F80     		strh	r7, [r3]	@ movhi
ARM GAS  /tmp/cc3v7X8N.s 			page 93


 2980              	.LBE1212:
  34:../../libdaisy/src/hid/disp/graphics_common.h **** 
 2981              		.loc 18 34 5 view .LVU659
 2982 02c6 E0E6     		b	.L149
 2983              	.LVL211:
 2984              	.L144:
  34:../../libdaisy/src/hid/disp/graphics_common.h **** 
 2985              		.loc 18 34 5 view .LVU660
 2986              	.LBE1216:
 2987              	.LBE1220:
 225:../../libdaisy/src/hid/disp/graphics_common.h ****                 return {other.x_,
 2988              		.loc 18 225 13 is_stmt 1 view .LVU661
 226:../../libdaisy/src/hid/disp/graphics_common.h ****                         int16_t(other.GetBottom() - height_),
 2989              		.loc 18 226 17 view .LVU662
 2990              	.LBB1221:
 2991              	.LBB1222:
  61:../../libdaisy/src/hid/disp/graphics_common.h ****     int16_t GetCenterX() const { return x_ + width_ / 2; }
 2992              		.loc 18 61 43 is_stmt 0 view .LVU663
 2993 02c8 7388     		ldrh	r3, [r6, #2]
 2994              	.LVL212:
  61:../../libdaisy/src/hid/disp/graphics_common.h ****     int16_t GetCenterX() const { return x_ + width_ / 2; }
 2995              		.loc 18 61 43 view .LVU664
 2996 02ca B6F806C0 		ldrh	ip, [r6, #6]
 2997              	.LBE1222:
 2998              	.LBE1221:
 226:../../libdaisy/src/hid/disp/graphics_common.h ****                         int16_t(other.GetBottom() - height_),
 2999              		.loc 18 226 31 view .LVU665
 3000 02ce B6F90070 		ldrsh	r7, [r6]
 3001              	.LBB1224:
 3002              	.LBI1221:
  61:../../libdaisy/src/hid/disp/graphics_common.h ****     int16_t GetCenterX() const { return x_ + width_ / 2; }
 3003              		.loc 18 61 13 is_stmt 1 view .LVU666
 3004              	.LVL213:
 3005              	.LBB1223:
  61:../../libdaisy/src/hid/disp/graphics_common.h ****     int16_t GetCenterX() const { return x_ + width_ / 2; }
 3006              		.loc 18 61 33 view .LVU667
  61:../../libdaisy/src/hid/disp/graphics_common.h ****     int16_t GetCenterX() const { return x_ + width_ / 2; }
 3007              		.loc 18 61 43 is_stmt 0 view .LVU668
 3008 02d2 9C44     		add	ip, ip, r3
 3009              	.LBE1223:
 3010              	.LBE1224:
 3011              	.LBB1225:
 3012              	.LBB1226:
 3013              	.LBB1227:
  32:../../libdaisy/src/hid/disp/graphics_common.h ****     {
 3014              		.loc 18 32 66 view .LVU669
 3015 02d4 099B     		ldr	r3, [sp, #36]
 3016              	.LBE1227:
 3017              	.LBE1226:
 3018              	.LBE1225:
 227:../../libdaisy/src/hid/disp/graphics_common.h ****                         width_,
 3019              		.loc 18 227 51 view .LVU670
 3020 02d6 ACEB0000 		sub	r0, ip, r0
 3021              	.LBB1237:
 3022              	.LBB1233:
 3023              	.LBB1230:
  32:../../libdaisy/src/hid/disp/graphics_common.h ****     {
ARM GAS  /tmp/cc3v7X8N.s 			page 94


 3024              		.loc 18 32 66 view .LVU671
 3025 02da 1F80     		strh	r7, [r3]	@ movhi
 3026 02dc 9A80     		strh	r2, [r3, #4]	@ movhi
 3027 02de BFB2     		uxth	r7, r7
 3028              	.LBE1230:
 3029              	.LBE1233:
 3030              	.LBE1237:
 227:../../libdaisy/src/hid/disp/graphics_common.h ****                         width_,
 3031              		.loc 18 227 51 view .LVU672
 3032 02e0 86B2     		uxth	r6, r0
 3033              	.LVL214:
 3034              	.LBB1238:
 3035              	.LBI1225:
  31:../../libdaisy/src/hid/disp/graphics_common.h ****     : x_(x), y_(y), width_(max(0, width)), height_(max(0, height))
 3036              		.loc 18 31 5 is_stmt 1 view .LVU673
 3037              	.LBB1234:
 3038              	.LBB1231:
  32:../../libdaisy/src/hid/disp/graphics_common.h ****     {
 3039              		.loc 18 32 66 is_stmt 0 view .LVU674
 3040 02e2 D980     		strh	r1, [r3, #6]	@ movhi
 3041 02e4 5E80     		strh	r6, [r3, #2]	@ movhi
 3042              	.LVL215:
 3043              	.LBB1228:
 3044              	.LBI1228:
 3045              		.loc 18 261 13 is_stmt 1 view .LVU675
 3046              		.loc 18 261 13 is_stmt 0 view .LVU676
 3047              	.LBE1228:
 3048              	.LBE1231:
 3049              	.LBE1234:
 3050              	.LBE1238:
 3051              	.LBE1320:
 3052              	.LBE1386:
 3053              		.loc 18 261 41 is_stmt 1 view .LVU677
 3054              	.LBB1387:
 3055              	.LBB1321:
 3056              	.LBB1239:
 3057              	.LBB1235:
 3058              	.LBB1232:
 3059              	.LBB1229:
 3060              	.LBI1229:
 3061              		.loc 18 261 13 view .LVU678
 3062              		.loc 18 261 13 is_stmt 0 view .LVU679
 3063              	.LBE1229:
 3064              	.LBE1232:
 3065              	.LBE1235:
 3066              	.LBE1239:
 3067              	.LBE1321:
 3068              	.LBE1387:
 3069              		.loc 18 261 41 is_stmt 1 view .LVU680
 3070              	.LBB1388:
 3071              	.LBB1322:
 3072              	.LBB1240:
 3073              	.LBB1236:
  34:../../libdaisy/src/hid/disp/graphics_common.h **** 
 3074              		.loc 18 34 5 is_stmt 0 view .LVU681
 3075 02e6 D0E6     		b	.L149
 3076              	.LVL216:
ARM GAS  /tmp/cc3v7X8N.s 			page 95


 3077              	.L143:
  34:../../libdaisy/src/hid/disp/graphics_common.h **** 
 3078              		.loc 18 34 5 view .LVU682
 3079              	.LBE1236:
 3080              	.LBE1240:
 235:../../libdaisy/src/hid/disp/graphics_common.h ****                 return {int16_t(x_ + (other.GetCenterX() - GetCenterX())),
 3081              		.loc 18 235 13 is_stmt 1 view .LVU683
 236:../../libdaisy/src/hid/disp/graphics_common.h ****                         int16_t(other.GetBottom() - height_),
 3082              		.loc 18 236 17 view .LVU684
 3083              	.LBB1241:
 3084              	.LBI1241:
  62:../../libdaisy/src/hid/disp/graphics_common.h ****     int16_t GetCenterY() const { return y_ + height_ / 2; }
 3085              		.loc 18 62 13 view .LVU685
 3086              	.LBB1242:
  62:../../libdaisy/src/hid/disp/graphics_common.h ****     int16_t GetCenterY() const { return y_ + height_ / 2; }
 3087              		.loc 18 62 34 view .LVU686
  62:../../libdaisy/src/hid/disp/graphics_common.h ****     int16_t GetCenterY() const { return y_ + height_ / 2; }
 3088              		.loc 18 62 34 is_stmt 0 view .LVU687
 3089              	.LBE1242:
 3090              	.LBE1241:
 3091              	.LBB1246:
 3092              	.LBI1246:
  62:../../libdaisy/src/hid/disp/graphics_common.h ****     int16_t GetCenterY() const { return y_ + height_ / 2; }
 3093              		.loc 18 62 13 is_stmt 1 view .LVU688
 3094              	.LBB1247:
  62:../../libdaisy/src/hid/disp/graphics_common.h ****     int16_t GetCenterY() const { return y_ + height_ / 2; }
 3095              		.loc 18 62 34 view .LVU689
 3096              	.LBE1247:
 3097              	.LBE1246:
 3098              	.LBB1248:
 3099              	.LBB1243:
  62:../../libdaisy/src/hid/disp/graphics_common.h ****     int16_t GetCenterY() const { return y_ + height_ / 2; }
 3100              		.loc 18 62 53 is_stmt 0 view .LVU690
 3101 02e8 B6F904C0 		ldrsh	ip, [r6, #4]
  62:../../libdaisy/src/hid/disp/graphics_common.h ****     int16_t GetCenterY() const { return y_ + height_ / 2; }
 3102              		.loc 18 62 44 view .LVU691
 3103 02ec 3788     		ldrh	r7, [r6]
  62:../../libdaisy/src/hid/disp/graphics_common.h ****     int16_t GetCenterY() const { return y_ + height_ / 2; }
 3104              		.loc 18 62 53 view .LVU692
 3105 02ee BCF1000F 		cmp	ip, #0
 3106              	.LBE1243:
 3107              	.LBE1248:
 3108              	.LBB1249:
 3109              	.LBB1250:
  61:../../libdaisy/src/hid/disp/graphics_common.h ****     int16_t GetCenterX() const { return x_ + width_ / 2; }
 3110              		.loc 18 61 43 view .LVU693
 3111 02f2 7388     		ldrh	r3, [r6, #2]
 3112              	.LVL217:
  61:../../libdaisy/src/hid/disp/graphics_common.h ****     int16_t GetCenterX() const { return x_ + width_ / 2; }
 3113              		.loc 18 61 43 view .LVU694
 3114 02f4 B6F806E0 		ldrh	lr, [r6, #6]
 3115              	.LBE1250:
 3116              	.LBE1249:
 3117              	.LBB1253:
 3118              	.LBB1244:
  62:../../libdaisy/src/hid/disp/graphics_common.h ****     int16_t GetCenterY() const { return y_ + height_ / 2; }
 3119              		.loc 18 62 53 view .LVU695
ARM GAS  /tmp/cc3v7X8N.s 			page 96


 3120 02f8 B8BF     		it	lt
 3121 02fa 0CF1010C 		addlt	ip, ip, #1
 3122              	.LBE1244:
 3123              	.LBE1253:
 3124              	.LBB1254:
 3125              	.LBB1255:
 3126              	.LBB1256:
  32:../../libdaisy/src/hid/disp/graphics_common.h ****     {
 3127              		.loc 18 32 66 view .LVU696
 3128 02fe 099E     		ldr	r6, [sp, #36]
 3129              	.LVL218:
  32:../../libdaisy/src/hid/disp/graphics_common.h ****     {
 3130              		.loc 18 32 66 view .LVU697
 3131              	.LBE1256:
 3132              	.LBE1255:
 3133              	.LBE1254:
 3134              	.LBB1268:
 3135              	.LBB1245:
  62:../../libdaisy/src/hid/disp/graphics_common.h ****     int16_t GetCenterY() const { return y_ + height_ / 2; }
 3136              		.loc 18 62 44 view .LVU698
 3137 0300 07EB6C07 		add	r7, r7, ip, asr #1
 3138              	.LBE1245:
 3139              	.LBE1268:
 3140              	.LBB1269:
 3141              	.LBB1263:
 3142              	.LBB1259:
  32:../../libdaisy/src/hid/disp/graphics_common.h ****     {
 3143              		.loc 18 32 66 view .LVU699
 3144 0304 B280     		strh	r2, [r6, #4]	@ movhi
 3145              	.LBE1259:
 3146              	.LBE1263:
 3147              	.LBE1269:
 3148              	.LBB1270:
 3149              	.LBB1251:
  61:../../libdaisy/src/hid/disp/graphics_common.h ****     int16_t GetCenterX() const { return x_ + width_ / 2; }
 3150              		.loc 18 61 43 view .LVU700
 3151 0306 0EEB0306 		add	r6, lr, r3
 3152              	.LBE1251:
 3153              	.LBE1270:
 236:../../libdaisy/src/hid/disp/graphics_common.h ****                         int16_t(other.GetBottom() - height_),
 3154              		.loc 18 236 58 view .LVU701
 3155 030a A7EB6202 		sub	r2, r7, r2, asr #1
 3156              	.LVL219:
 3157              	.L209:
 237:../../libdaisy/src/hid/disp/graphics_common.h ****                         width_,
 3158              		.loc 18 237 51 view .LVU702
 3159 030e 301A     		subs	r0, r6, r0
 3160              	.LBB1271:
 3161              	.LBB1264:
 3162              	.LBB1260:
  32:../../libdaisy/src/hid/disp/graphics_common.h ****     {
 3163              		.loc 18 32 66 view .LVU703
 3164 0310 099B     		ldr	r3, [sp, #36]
 3165              	.LBE1260:
 3166              	.LBE1264:
 3167              	.LBE1271:
 236:../../libdaisy/src/hid/disp/graphics_common.h ****                         int16_t(other.GetBottom() - height_),
ARM GAS  /tmp/cc3v7X8N.s 			page 97


 3168              		.loc 18 236 58 view .LVU704
 3169 0312 97B2     		uxth	r7, r2
 3170              	.LBB1272:
 3171              	.LBI1249:
  61:../../libdaisy/src/hid/disp/graphics_common.h ****     int16_t GetCenterX() const { return x_ + width_ / 2; }
 3172              		.loc 18 61 13 is_stmt 1 view .LVU705
 3173              	.LVL220:
 3174              	.LBB1252:
  61:../../libdaisy/src/hid/disp/graphics_common.h ****     int16_t GetCenterX() const { return x_ + width_ / 2; }
 3175              		.loc 18 61 33 view .LVU706
 3176              	.LBE1252:
 3177              	.LBE1272:
 237:../../libdaisy/src/hid/disp/graphics_common.h ****                         width_,
 3178              		.loc 18 237 51 is_stmt 0 view .LVU707
 3179 0314 86B2     		uxth	r6, r0
 3180              	.LVL221:
 3181              	.LBB1273:
 3182              	.LBI1254:
  31:../../libdaisy/src/hid/disp/graphics_common.h ****     : x_(x), y_(y), width_(max(0, width)), height_(max(0, height))
 3183              		.loc 18 31 5 is_stmt 1 view .LVU708
 3184              	.LBB1265:
 3185              	.LBB1261:
  32:../../libdaisy/src/hid/disp/graphics_common.h ****     {
 3186              		.loc 18 32 66 is_stmt 0 view .LVU709
 3187 0316 D980     		strh	r1, [r3, #6]	@ movhi
 3188 0318 1F80     		strh	r7, [r3]	@ movhi
 3189 031a 5E80     		strh	r6, [r3, #2]	@ movhi
 3190              	.LVL222:
 3191              	.LBB1257:
 3192              	.LBI1257:
 3193              		.loc 18 261 13 is_stmt 1 view .LVU710
 3194              		.loc 18 261 13 is_stmt 0 view .LVU711
 3195              	.LBE1257:
 3196              	.LBE1261:
 3197              	.LBE1265:
 3198              	.LBE1273:
 3199              	.LBE1322:
 3200              	.LBE1388:
 3201              		.loc 18 261 41 is_stmt 1 view .LVU712
 3202              	.LBB1389:
 3203              	.LBB1323:
 3204              	.LBB1274:
 3205              	.LBB1266:
 3206              	.LBB1262:
 3207              	.LBB1258:
 3208              	.LBI1258:
 3209              		.loc 18 261 13 view .LVU713
 3210              		.loc 18 261 13 is_stmt 0 view .LVU714
 3211              	.LBE1258:
 3212              	.LBE1262:
 3213              	.LBE1266:
 3214              	.LBE1274:
 3215              	.LBE1323:
 3216              	.LBE1389:
 3217              		.loc 18 261 41 is_stmt 1 view .LVU715
 3218              	.LBB1390:
 3219              	.LBB1324:
ARM GAS  /tmp/cc3v7X8N.s 			page 98


 3220              	.LBB1275:
 3221              	.LBB1267:
  34:../../libdaisy/src/hid/disp/graphics_common.h **** 
 3222              		.loc 18 34 5 is_stmt 0 view .LVU716
 3223 031c B5E6     		b	.L149
 3224              	.LVL223:
 3225              	.L142:
  34:../../libdaisy/src/hid/disp/graphics_common.h **** 
 3226              		.loc 18 34 5 view .LVU717
 3227              	.LBE1267:
 3228              	.LBE1275:
 230:../../libdaisy/src/hid/disp/graphics_common.h ****                 return {int16_t(other.GetRight() - width_),
 3229              		.loc 18 230 13 is_stmt 1 view .LVU718
 231:../../libdaisy/src/hid/disp/graphics_common.h ****                         int16_t(other.GetBottom() - height_),
 3230              		.loc 18 231 17 view .LVU719
 3231              	.LBB1276:
 3232              	.LBI1276:
  60:../../libdaisy/src/hid/disp/graphics_common.h ****     int16_t GetBottom() const { return y_ + height_; }
 3233              		.loc 18 60 13 view .LVU720
 3234              	.LBB1277:
  60:../../libdaisy/src/hid/disp/graphics_common.h ****     int16_t GetBottom() const { return y_ + height_; }
 3235              		.loc 18 60 32 view .LVU721
  60:../../libdaisy/src/hid/disp/graphics_common.h ****     int16_t GetBottom() const { return y_ + height_; }
 3236              		.loc 18 60 42 is_stmt 0 view .LVU722
 3237 031e B6F804C0 		ldrh	ip, [r6, #4]
 3238 0322 3788     		ldrh	r7, [r6]
 3239              	.LBE1277:
 3240              	.LBE1276:
 3241              	.LBB1279:
 3242              	.LBB1280:
  61:../../libdaisy/src/hid/disp/graphics_common.h ****     int16_t GetCenterX() const { return x_ + width_ / 2; }
 3243              		.loc 18 61 43 view .LVU723
 3244 0324 7388     		ldrh	r3, [r6, #2]
 3245              	.LVL224:
  61:../../libdaisy/src/hid/disp/graphics_common.h ****     int16_t GetCenterX() const { return x_ + width_ / 2; }
 3246              		.loc 18 61 43 view .LVU724
 3247 0326 B6F806E0 		ldrh	lr, [r6, #6]
 3248              	.LBE1280:
 3249              	.LBE1279:
 3250              	.LBB1282:
 3251              	.LBB1278:
  60:../../libdaisy/src/hid/disp/graphics_common.h ****     int16_t GetBottom() const { return y_ + height_; }
 3252              		.loc 18 60 42 view .LVU725
 3253 032a 6744     		add	r7, r7, ip
 3254              	.LBE1278:
 3255              	.LBE1282:
 3256              	.LBB1283:
 3257              	.LBB1284:
 3258              	.LBB1285:
  32:../../libdaisy/src/hid/disp/graphics_common.h ****     {
 3259              		.loc 18 32 66 view .LVU726
 3260 032c 099E     		ldr	r6, [sp, #36]
 3261              	.LVL225:
  32:../../libdaisy/src/hid/disp/graphics_common.h ****     {
 3262              		.loc 18 32 66 view .LVU727
 3263 032e B280     		strh	r2, [r6, #4]	@ movhi
 3264              	.LBE1285:
ARM GAS  /tmp/cc3v7X8N.s 			page 99


 3265              	.LBE1284:
 3266              	.LBE1283:
 3267              	.LBB1286:
 3268              	.LBB1281:
  61:../../libdaisy/src/hid/disp/graphics_common.h ****     int16_t GetCenterX() const { return x_ + width_ / 2; }
 3269              		.loc 18 61 43 view .LVU728
 3270 0330 0EEB0306 		add	r6, lr, r3
 3271              	.LBE1281:
 3272              	.LBE1286:
 231:../../libdaisy/src/hid/disp/graphics_common.h ****                         int16_t(other.GetBottom() - height_),
 3273              		.loc 18 231 50 view .LVU729
 3274 0334 BA1A     		subs	r2, r7, r2
 3275 0336 EAE7     		b	.L209
 3276              	.LVL226:
 3277              	.L141:
 240:../../libdaisy/src/hid/disp/graphics_common.h ****                 return {other.x_,
 3278              		.loc 18 240 13 is_stmt 1 view .LVU730
 241:../../libdaisy/src/hid/disp/graphics_common.h ****                         int16_t(y_ + (other.GetCenterY() - GetCenterY())),
 3279              		.loc 18 241 17 view .LVU731
 3280              	.LBB1287:
 3281              	.LBB1288:
  63:../../libdaisy/src/hid/disp/graphics_common.h **** 
 3282              		.loc 18 63 54 is_stmt 0 view .LVU732
 3283 0338 B6F90630 		ldrsh	r3, [r6, #6]
 3284              	.LVL227:
  63:../../libdaisy/src/hid/disp/graphics_common.h **** 
 3285              		.loc 18 63 54 view .LVU733
 3286              	.LBE1288:
 3287              	.LBE1287:
 241:../../libdaisy/src/hid/disp/graphics_common.h ****                         int16_t(y_ + (other.GetCenterY() - GetCenterY())),
 3288              		.loc 18 241 31 view .LVU734
 3289 033c B6F90000 		ldrsh	r0, [r6]
 3290              	.LBB1293:
 3291              	.LBI1287:
  63:../../libdaisy/src/hid/disp/graphics_common.h **** 
 3292              		.loc 18 63 13 is_stmt 1 view .LVU735
 3293              	.LVL228:
 3294              	.LBB1289:
  63:../../libdaisy/src/hid/disp/graphics_common.h **** 
 3295              		.loc 18 63 34 view .LVU736
  63:../../libdaisy/src/hid/disp/graphics_common.h **** 
 3296              		.loc 18 63 34 is_stmt 0 view .LVU737
 3297              	.LBE1289:
 3298              	.LBE1293:
 3299              	.LBB1294:
 3300              	.LBI1294:
  63:../../libdaisy/src/hid/disp/graphics_common.h **** 
 3301              		.loc 18 63 13 is_stmt 1 view .LVU738
 3302              	.LBB1295:
  63:../../libdaisy/src/hid/disp/graphics_common.h **** 
 3303              		.loc 18 63 34 view .LVU739
 3304              	.LBE1295:
 3305              	.LBE1294:
 3306              	.LBB1296:
 3307              	.LBB1290:
  63:../../libdaisy/src/hid/disp/graphics_common.h **** 
 3308              		.loc 18 63 54 is_stmt 0 view .LVU740
ARM GAS  /tmp/cc3v7X8N.s 			page 100


 3309 0340 002B     		cmp	r3, #0
  63:../../libdaisy/src/hid/disp/graphics_common.h **** 
 3310              		.loc 18 63 44 view .LVU741
 3311 0342 B6F802C0 		ldrh	ip, [r6, #2]
 3312              	.LBE1290:
 3313              	.LBE1296:
 3314              	.LBB1297:
 3315              	.LBB1298:
 3316              	.LBB1299:
  32:../../libdaisy/src/hid/disp/graphics_common.h ****     {
 3317              		.loc 18 32 66 view .LVU742
 3318 0346 099E     		ldr	r6, [sp, #36]
 3319              	.LVL229:
  32:../../libdaisy/src/hid/disp/graphics_common.h ****     {
 3320              		.loc 18 32 66 view .LVU743
 3321 0348 87B2     		uxth	r7, r0
 3322              	.LBE1299:
 3323              	.LBE1298:
 3324              	.LBE1297:
 3325              	.LBB1304:
 3326              	.LBB1291:
  63:../../libdaisy/src/hid/disp/graphics_common.h **** 
 3327              		.loc 18 63 54 view .LVU744
 3328 034a B8BF     		it	lt
 3329 034c 0133     		addlt	r3, r3, #1
 3330              	.LBE1291:
 3331              	.LBE1304:
 3332              	.LBB1305:
 3333              	.LBB1302:
 3334              	.LBB1300:
  32:../../libdaisy/src/hid/disp/graphics_common.h ****     {
 3335              		.loc 18 32 66 view .LVU745
 3336 034e 3080     		strh	r0, [r6]	@ movhi
 3337              	.LBE1300:
 3338              	.LBE1302:
 3339              	.LBE1305:
 3340              	.LBB1306:
 3341              	.LBB1292:
  63:../../libdaisy/src/hid/disp/graphics_common.h **** 
 3342              		.loc 18 63 44 view .LVU746
 3343 0350 0CEB6306 		add	r6, ip, r3, asr #1
 3344              	.LBE1292:
 3345              	.LBE1306:
 3346              	.LBB1307:
 3347              	.LBB1303:
 3348              	.LBB1301:
  32:../../libdaisy/src/hid/disp/graphics_common.h ****     {
 3349              		.loc 18 32 66 view .LVU747
 3350 0354 099B     		ldr	r3, [sp, #36]
 3351 0356 1846     		mov	r0, r3
 3352 0358 91E6     		b	.L210
 3353              	.LVL230:
 3354              	.L169:
  32:../../libdaisy/src/hid/disp/graphics_common.h ****     {
 3355              		.loc 18 32 66 view .LVU748
 3356              	.LBE1301:
 3357              	.LBE1303:
ARM GAS  /tmp/cc3v7X8N.s 			page 101


 3358              	.LBE1307:
 3359              	.LBE1324:
 3360              	.LBE1390:
 3361              	.LBB1391:
 3362              	.LBB1379:
 3363              	.LBB1377:
 3364              	.LBB1376:
 402:../../libdaisy/src/hid/disp/display.h **** 
 3365              		.loc 4 402 20 view .LVU749
 3366 035a 0026     		movs	r6, #0
 3367              	.LVL231:
 402:../../libdaisy/src/hid/disp/display.h **** 
 3368              		.loc 4 402 20 view .LVU750
 3369 035c 67E7     		b	.L167
 3370              	.LVL232:
 3371              	.L215:
 405:../../libdaisy/src/hid/disp/display.h ****            || Height() < (currentY_ + font.FontHeight))
 3372              		.loc 4 405 17 view .LVU751
 3373 035e 2046     		mov	r0, r4
 3374 0360 9847     		blx	r3
 3375              	.LVL233:
 3376 0362 CDE6     		b	.L168
 3377              	.L223:
 3378              		.align	2
 3379              	.L222:
 3380 0364 00000000 		.word	_ZNK5daisy11OledDisplayINS_13SSD130xDriverILj128ELj64ENS_24SSD130x4WireSpiTransportEEEE5Widt
 3381 0368 00000000 		.word	_ZNK5daisy11OledDisplayINS_13SSD130xDriverILj128ELj64ENS_24SSD130x4WireSpiTransportEEEE6Heig
 3382              	.L216:
 406:../../libdaisy/src/hid/disp/display.h ****         {
 3383              		.loc 4 406 21 view .LVU752
 3384 036c 2046     		mov	r0, r4
 3385 036e 9847     		blx	r3
 3386              	.LVL234:
 3387 0370 D2E6     		b	.L170
 3388              	.LVL235:
 3389              	.L220:
 3390              	.LBB1375:
 3391              	.LBB1372:
 174:../../libdaisy/src/hid/disp/display.h ****     }
 3392              		.loc 4 174 33 view .LVU753
 3393 0372 2046     		mov	r0, r4
 3394 0374 9847     		blx	r3
 3395              	.LVL236:
 3396 0376 4DE7     		b	.L184
 3397              	.LVL237:
 3398              	.L218:
 173:../../libdaisy/src/hid/disp/display.h ****         currentY_ = (y >= Height()) ? Height() - 1 : y;
 3399              		.loc 4 173 32 view .LVU754
 3400 0378 2046     		mov	r0, r4
 3401 037a 9847     		blx	r3
 3402              	.LVL238:
 3403 037c 2268     		ldr	r2, [r4]
 3404 037e 3AE7     		b	.L181
 3405              	.LVL239:
 3406              	.L171:
 173:../../libdaisy/src/hid/disp/display.h ****         currentY_ = (y >= Height()) ? Height() - 1 : y;
 3407              		.loc 4 173 32 view .LVU755
ARM GAS  /tmp/cc3v7X8N.s 			page 102


 3408 0380 B4F804C0 		ldrh	ip, [r4, #4]
 3409 0384 2DE7     		b	.L173
 3410              	.LVL240:
 3411              	.L221:
 174:../../libdaisy/src/hid/disp/display.h ****     }
 3412              		.loc 4 174 45 view .LVU756
 3413 0386 2046     		mov	r0, r4
 3414 0388 9847     		blx	r3
 3415              	.LVL241:
 3416 038a 0138     		subs	r0, r0, #1
 3417 038c 83B2     		uxth	r3, r0
 3418 038e 0293     		str	r3, [sp, #8]
 3419              	.LVL242:
 174:../../libdaisy/src/hid/disp/display.h ****     }
 3420              		.loc 4 174 45 view .LVU757
 3421 0390 4BE7     		b	.L185
 3422              	.LVL243:
 3423              	.L219:
 173:../../libdaisy/src/hid/disp/display.h ****         currentY_ = (y >= Height()) ? Height() - 1 : y;
 3424              		.loc 4 173 43 view .LVU758
 3425 0392 2046     		mov	r0, r4
 3426 0394 9847     		blx	r3
 3427              	.LVL244:
 3428 0396 0138     		subs	r0, r0, #1
 3429 0398 2268     		ldr	r2, [r4]
 3430 039a 85B2     		uxth	r5, r0
 3431              	.LVL245:
 173:../../libdaisy/src/hid/disp/display.h ****         currentY_ = (y >= Height()) ? Height() - 1 : y;
 3432              		.loc 4 173 43 view .LVU759
 3433 039c 33E7     		b	.L182
 3434              	.LVL246:
 3435              	.L138:
 173:../../libdaisy/src/hid/disp/display.h ****         currentY_ = (y >= Height()) ? Height() - 1 : y;
 3436              		.loc 4 173 43 view .LVU760
 3437              	.LBE1372:
 3438              	.LBE1375:
 3439              	.LBE1376:
 3440              	.LBE1377:
 3441              	.LBE1379:
 3442              	.LBE1391:
 3443              	.LBB1392:
 3444              	.LBB1325:
 255:../../libdaisy/src/hid/disp/graphics_common.h ****         }
 3445              		.loc 18 255 13 is_stmt 1 view .LVU761
 255:../../libdaisy/src/hid/disp/graphics_common.h ****         }
 3446              		.loc 18 255 22 view .LVU762
 3447              	.LBB1308:
 3448              	.LBI1308:
  24:../../libdaisy/src/hid/disp/graphics_common.h **** 
 3449              		.loc 18 24 5 view .LVU763
 3450              	.LBE1308:
 3451              	.LBE1325:
 3452              	.LBE1392:
 3453              	.LBB1393:
 3454              	.LBB1331:
 173:../../libdaisy/src/hid/disp/display.h ****         currentY_ = (y >= Height()) ? Height() - 1 : y;
 3455              		.loc 4 173 33 is_stmt 0 view .LVU764
ARM GAS  /tmp/cc3v7X8N.s 			page 103


 3456 039e 2368     		ldr	r3, [r4]
 3457              	.LVL247:
 173:../../libdaisy/src/hid/disp/display.h ****         currentY_ = (y >= Height()) ? Height() - 1 : y;
 3458              		.loc 4 173 33 view .LVU765
 3459              	.LBE1331:
 3460              	.LBE1393:
 3461              	.LBB1394:
 3462              	.LBB1326:
 3463              	.LBB1311:
 3464              	.LBB1309:
  24:../../libdaisy/src/hid/disp/graphics_common.h **** 
 3465              		.loc 18 24 53 view .LVU766
 3466 03a0 0026     		movs	r6, #0
 3467              	.LVL248:
  24:../../libdaisy/src/hid/disp/graphics_common.h **** 
 3468              		.loc 18 24 53 view .LVU767
 3469 03a2 124F     		ldr	r7, .L224
 3470              	.LBE1309:
 3471              	.LBE1311:
 3472              	.LBE1326:
 3473              	.LBE1394:
 3474              	.LBB1395:
 3475              	.LBB1332:
 173:../../libdaisy/src/hid/disp/display.h ****         currentY_ = (y >= Height()) ? Height() - 1 : y;
 3476              		.loc 4 173 33 view .LVU768
 3477 03a4 DA68     		ldr	r2, [r3, #12]
 3478              	.LBE1332:
 3479              	.LBE1395:
 3480              	.LBB1396:
 3481              	.LBB1327:
 3482              	.LBB1312:
 3483              	.LBB1310:
  24:../../libdaisy/src/hid/disp/graphics_common.h **** 
 3484              		.loc 18 24 53 view .LVU769
 3485 03a6 0999     		ldr	r1, [sp, #36]
 3486 03a8 BA42     		cmp	r2, r7
 3487 03aa 0197     		str	r7, [sp, #4]
 3488 03ac 0E80     		strh	r6, [r1]	@ movhi
 3489 03ae 4E80     		strh	r6, [r1, #2]	@ movhi
 3490 03b0 8E80     		strh	r6, [r1, #4]	@ movhi
 3491 03b2 CE80     		strh	r6, [r1, #6]	@ movhi
 3492              	.LVL249:
  24:../../libdaisy/src/hid/disp/graphics_common.h **** 
 3493              		.loc 18 24 53 view .LVU770
 3494              	.LBE1310:
 3495              	.LBE1312:
 3496              	.LBE1327:
 3497              	.LBE1396:
  56:../../libdaisy/src/hid/disp/graphics_common.h ****     int16_t GetY() const { return y_; }
 3498              		.loc 18 56 28 is_stmt 1 view .LVU771
  57:../../libdaisy/src/hid/disp/graphics_common.h ****     int16_t GetWidth() const { return width_; }
 3499              		.loc 18 57 28 view .LVU772
 3500              	.LBB1397:
 171:../../libdaisy/src/hid/disp/display.h ****     {
 3501              		.loc 4 171 10 view .LVU773
 3502              	.LBB1333:
 173:../../libdaisy/src/hid/disp/display.h ****         currentY_ = (y >= Height()) ? Height() - 1 : y;
ARM GAS  /tmp/cc3v7X8N.s 			page 104


 3503              		.loc 4 173 9 view .LVU774
 3504 03b4 04D0     		beq	.L156
 173:../../libdaisy/src/hid/disp/display.h ****         currentY_ = (y >= Height()) ? Height() - 1 : y;
 3505              		.loc 4 173 33 is_stmt 0 view .LVU775
 3506 03b6 3746     		mov	r7, r6
 3507              	.LVL250:
 3508              	.L157:
 173:../../libdaisy/src/hid/disp/display.h ****         currentY_ = (y >= Height()) ? Height() - 1 : y;
 3509              		.loc 4 173 32 view .LVU776
 3510 03b8 2046     		mov	r0, r4
 3511 03ba 9047     		blx	r2
 3512              	.LVL251:
 3513 03bc 2368     		ldr	r3, [r4]
 3514 03be 6DE6     		b	.L158
 3515              	.LVL252:
 3516              	.L156:
 174:../../libdaisy/src/hid/disp/display.h ****     }
 3517              		.loc 4 174 34 view .LVU777
 3518 03c0 9B68     		ldr	r3, [r3, #8]
 3519 03c2 0B4A     		ldr	r2, .L224+4
 173:../../libdaisy/src/hid/disp/display.h ****         currentY_ = (y >= Height()) ? Height() - 1 : y;
 3520              		.loc 4 173 19 view .LVU778
 3521 03c4 A680     		strh	r6, [r4, #4]	@ movhi
 174:../../libdaisy/src/hid/disp/display.h ****     }
 3522              		.loc 4 174 9 is_stmt 1 view .LVU779
 3523 03c6 9342     		cmp	r3, r2
 3524 03c8 0392     		str	r2, [sp, #12]
 3525 03ca 3FF480AE 		beq	.L163
 3526              	.LVL253:
 3527              	.L189:
 174:../../libdaisy/src/hid/disp/display.h ****     }
 3528              		.loc 4 174 33 is_stmt 0 view .LVU780
 3529 03ce 2046     		mov	r0, r4
 3530 03d0 9847     		blx	r3
 3531              	.LVL254:
 3532 03d2 73E6     		b	.L161
 3533              	.L214:
 174:../../libdaisy/src/hid/disp/display.h ****     }
 3534              		.loc 4 174 45 view .LVU781
 3535 03d4 2046     		mov	r0, r4
 3536 03d6 9847     		blx	r3
 3537              	.LVL255:
 3538 03d8 0138     		subs	r0, r0, #1
 3539 03da 86B2     		uxth	r6, r0
 3540 03dc 77E6     		b	.L163
 3541              	.L213:
 173:../../libdaisy/src/hid/disp/display.h ****         currentY_ = (y >= Height()) ? Height() - 1 : y;
 3542              		.loc 4 173 43 view .LVU782
 3543 03de 2046     		mov	r0, r4
 3544 03e0 9047     		blx	r2
 3545              	.LVL256:
 3546 03e2 0138     		subs	r0, r0, #1
 3547 03e4 2368     		ldr	r3, [r4]
 3548 03e6 87B2     		uxth	r7, r0
 3549 03e8 60E6     		b	.L159
 3550              	.L225:
 3551 03ea 00BF     		.align	2
ARM GAS  /tmp/cc3v7X8N.s 			page 105


 3552              	.L224:
 3553 03ec 00000000 		.word	_ZNK5daisy11OledDisplayINS_13SSD130xDriverILj128ELj64ENS_24SSD130x4WireSpiTransportEEEE5Widt
 3554 03f0 00000000 		.word	_ZNK5daisy11OledDisplayINS_13SSD130xDriverILj128ELj64ENS_24SSD130x4WireSpiTransportEEEE6Heig
 3555              	.LBE1333:
 3556              	.LBE1397:
 3557              		.cfi_endproc
 3558              	.LFE4834:
 3560              		.section	.text._ZN5daisy11OledDisplayINS_13SSD130xDriverILj128ELj64ENS_24SSD130x4WireSpiTransportE
 3561              		.align	1
 3562              		.p2align 2,,3
 3563              		.weak	_ZN5daisy11OledDisplayINS_13SSD130xDriverILj128ELj64ENS_24SSD130x4WireSpiTransportEEEE9DrawP
 3564              		.syntax unified
 3565              		.thumb
 3566              		.thumb_func
 3567              		.fpu fpv5-d16
 3569              	_ZN5daisy11OledDisplayINS_13SSD130xDriverILj128ELj64ENS_24SSD130x4WireSpiTransportEEEE9DrawPixelEjj
 3570              	.LVL257:
 3571              	.LFB4724:
  41:../../libdaisy/src/hid/disp/oled_display.h ****     {
 3572              		.loc 3 41 10 is_stmt 1 view -0
 3573              		.cfi_startproc
 3574              		@ args = 0, pretend = 0, frame = 0
 3575              		@ frame_needed = 0, uses_anonymous_args = 0
 3576              		@ link register save eliminated.
 3577              	.LBB1402:
 3578              	.LBI1402:
 239:../../libdaisy/src/dev/oled_ssd130x.h ****     {
 3579              		.loc 17 239 10 view .LVU784
 3580              	.LBB1403:
 241:../../libdaisy/src/dev/oled_ssd130x.h ****             return;
 3581              		.loc 17 241 9 is_stmt 0 view .LVU785
 3582 0000 7F29     		cmp	r1, #127
 3583 0002 21D8     		bhi	.L230
 3584 0004 3F2A     		cmp	r2, #63
 3585 0006 1FD8     		bhi	.L230
 3586              	.LBE1403:
 3587              	.LBE1402:
  41:../../libdaisy/src/hid/disp/oled_display.h ****     {
 3588              		.loc 3 41 10 view .LVU786
 3589 0008 10B4     		push	{r4}
 3590              		.cfi_def_cfa_offset 4
 3591              		.cfi_offset 4, -4
 3592              	.LBB1408:
 3593              	.LBB1406:
 243:../../libdaisy/src/dev/oled_ssd130x.h ****             buffer_[x + (y / 8) * width] |= (1 << (y % 8));
 3594              		.loc 17 243 9 view .LVU787
 3595 000a 73B9     		cbnz	r3, .L233
 3596              	.LVL258:
 3597              	.LBB1404:
 3598              	.LBI1404:
 239:../../libdaisy/src/dev/oled_ssd130x.h ****     {
 3599              		.loc 17 239 10 is_stmt 1 view .LVU788
 3600              	.LBB1405:
 246:../../libdaisy/src/dev/oled_ssd130x.h ****     }
 3601              		.loc 17 246 28 is_stmt 0 view .LVU789
 3602 000c D308     		lsrs	r3, r2, #3
 3603              	.LVL259:
ARM GAS  /tmp/cc3v7X8N.s 			page 106


 246:../../libdaisy/src/dev/oled_ssd130x.h ****     }
 3604              		.loc 17 246 49 view .LVU790
 3605 000e 0124     		movs	r4, #1
 246:../../libdaisy/src/dev/oled_ssd130x.h ****     }
 3606              		.loc 17 246 55 view .LVU791
 3607 0010 02F00702 		and	r2, r2, #7
 3608              	.LVL260:
 246:../../libdaisy/src/dev/oled_ssd130x.h ****     }
 3609              		.loc 17 246 42 view .LVU792
 3610 0014 01EBC313 		add	r3, r1, r3, lsl #7
 246:../../libdaisy/src/dev/oled_ssd130x.h ****     }
 3611              		.loc 17 246 49 view .LVU793
 3612 0018 9440     		lsls	r4, r4, r2
 246:../../libdaisy/src/dev/oled_ssd130x.h ****     }
 3613              		.loc 17 246 13 view .LVU794
 3614 001a C118     		adds	r1, r0, r3
 3615              	.LVL261:
 246:../../libdaisy/src/dev/oled_ssd130x.h ****     }
 3616              		.loc 17 246 42 view .LVU795
 3617 001c 0A7D     		ldrb	r2, [r1, #20]	@ zero_extendqisi2
 3618 001e 22EA0402 		bic	r2, r2, r4
 246:../../libdaisy/src/dev/oled_ssd130x.h ****     }
 3619              		.loc 17 246 13 view .LVU796
 3620 0022 0A75     		strb	r2, [r1, #20]
 3621              	.LVL262:
 246:../../libdaisy/src/dev/oled_ssd130x.h ****     }
 3622              		.loc 17 246 13 view .LVU797
 3623              	.LBE1405:
 3624              	.LBE1404:
 3625              	.LBE1406:
 3626              	.LBE1408:
  44:../../libdaisy/src/hid/disp/oled_display.h **** 
 3627              		.loc 3 44 5 view .LVU798
 3628 0024 5DF8044B 		ldr	r4, [sp], #4
 3629              		.cfi_remember_state
 3630              		.cfi_restore 4
 3631              		.cfi_def_cfa_offset 0
 3632 0028 7047     		bx	lr
 3633              	.LVL263:
 3634              	.L233:
 3635              		.cfi_restore_state
 3636              	.LBB1409:
 3637              	.LBB1407:
 244:../../libdaisy/src/dev/oled_ssd130x.h ****         else
 3638              		.loc 17 244 28 view .LVU799
 3639 002a D408     		lsrs	r4, r2, #3
 244:../../libdaisy/src/dev/oled_ssd130x.h ****         else
 3640              		.loc 17 244 48 view .LVU800
 3641 002c 0123     		movs	r3, #1
 3642              	.LVL264:
 244:../../libdaisy/src/dev/oled_ssd130x.h ****         else
 3643              		.loc 17 244 54 view .LVU801
 3644 002e 02F00702 		and	r2, r2, #7
 3645              	.LVL265:
 244:../../libdaisy/src/dev/oled_ssd130x.h ****         else
 3646              		.loc 17 244 42 view .LVU802
 3647 0032 01EBC414 		add	r4, r1, r4, lsl #7
ARM GAS  /tmp/cc3v7X8N.s 			page 107


 244:../../libdaisy/src/dev/oled_ssd130x.h ****         else
 3648              		.loc 17 244 48 view .LVU803
 3649 0036 03FA02F2 		lsl	r2, r3, r2
 244:../../libdaisy/src/dev/oled_ssd130x.h ****         else
 3650              		.loc 17 244 13 view .LVU804
 3651 003a 0119     		adds	r1, r0, r4
 3652              	.LVL266:
 244:../../libdaisy/src/dev/oled_ssd130x.h ****         else
 3653              		.loc 17 244 42 view .LVU805
 3654 003c 0B7D     		ldrb	r3, [r1, #20]	@ zero_extendqisi2
 3655 003e 1A43     		orrs	r2, r2, r3
 244:../../libdaisy/src/dev/oled_ssd130x.h ****         else
 3656              		.loc 17 244 13 view .LVU806
 3657 0040 0A75     		strb	r2, [r1, #20]
 3658              	.LBE1407:
 3659              	.LBE1409:
  44:../../libdaisy/src/hid/disp/oled_display.h **** 
 3660              		.loc 3 44 5 view .LVU807
 3661 0042 5DF8044B 		ldr	r4, [sp], #4
 3662              		.cfi_restore 4
 3663              		.cfi_def_cfa_offset 0
 3664 0046 7047     		bx	lr
 3665              	.LVL267:
 3666              	.L230:
  44:../../libdaisy/src/hid/disp/oled_display.h **** 
 3667              		.loc 3 44 5 view .LVU808
 3668 0048 7047     		bx	lr
 3669              		.cfi_endproc
 3670              	.LFE4724:
 3672 004a 00BF     		.section	.text._ZN5daisy25OneBitGraphicsDisplayImplINS_11OledDisplayINS_13SSD130xDriverILj128ELj64
 3673              		.align	1
 3674              		.p2align 2,,3
 3675              		.weak	_ZN5daisy25OneBitGraphicsDisplayImplINS_11OledDisplayINS_13SSD130xDriverILj128ELj64ENS_24SSD
 3676              		.syntax unified
 3677              		.thumb
 3678              		.thumb_func
 3679              		.fpu fpv5-d16
 3681              	_ZN5daisy25OneBitGraphicsDisplayImplINS_11OledDisplayINS_13SSD130xDriverILj128ELj64ENS_24SSD130x4Wi
 3682              	.LVL268:
 3683              	.LFB4831:
 221:../../libdaisy/src/hid/disp/display.h ****                   uint_fast8_t y1,
 3684              		.loc 4 221 10 is_stmt 1 view -0
 3685              		.cfi_startproc
 3686              		@ args = 8, pretend = 0, frame = 8
 3687              		@ frame_needed = 0, uses_anonymous_args = 0
 221:../../libdaisy/src/hid/disp/display.h ****                   uint_fast8_t y1,
 3688              		.loc 4 221 10 is_stmt 0 view .LVU810
 3689 0000 2DE9F04F 		push	{r4, r5, r6, r7, r8, r9, r10, fp, lr}
 3690              		.cfi_def_cfa_offset 36
 3691              		.cfi_offset 4, -36
 3692              		.cfi_offset 5, -32
 3693              		.cfi_offset 6, -28
 3694              		.cfi_offset 7, -24
 3695              		.cfi_offset 8, -20
 3696              		.cfi_offset 9, -16
 3697              		.cfi_offset 10, -12
 3698              		.cfi_offset 11, -8
ARM GAS  /tmp/cc3v7X8N.s 			page 108


 3699              		.cfi_offset 14, -4
 3700 0004 83B0     		sub	sp, sp, #12
 3701              		.cfi_def_cfa_offset 48
 227:../../libdaisy/src/hid/disp/display.h ****         int_fast16_t deltaY = abs((int_fast16_t)y2 - (int_fast16_t)y1);
 3702              		.loc 4 227 52 view .LVU811
 3703 0006 5E1A     		subs	r6, r3, r1
 221:../../libdaisy/src/hid/disp/display.h ****                   uint_fast8_t y1,
 3704              		.loc 4 221 10 view .LVU812
 3705 0008 0C9F     		ldr	r7, [sp, #48]
 3706 000a 9DF83480 		ldrb	r8, [sp, #52]	@ zero_extendqisi2
 228:../../libdaisy/src/hid/disp/display.h ****         int_fast16_t signX  = ((x1 < x2) ? 1 : -1);
 3707              		.loc 4 228 52 view .LVU813
 3708 000e A7EB020E 		sub	lr, r7, r2
 228:../../libdaisy/src/hid/disp/display.h ****         int_fast16_t signX  = ((x1 < x2) ? 1 : -1);
 3709              		.loc 4 228 22 view .LVU814
 3710 0012 BEF1000F 		cmp	lr, #0
 3711 0016 B8BF     		it	lt
 3712 0018 CEF1000E 		rsblt	lr, lr, #0
 229:../../libdaisy/src/hid/disp/display.h ****         int_fast16_t signY  = ((y1 < y2) ? 1 : -1);
 3713              		.loc 4 229 22 view .LVU815
 3714 001c 8B42     		cmp	r3, r1
 3715 001e 8CBF     		ite	hi
 3716 0020 4FF00109 		movhi	r9, #1
 3717 0024 4FF0FF39 		movls	r9, #-1
 227:../../libdaisy/src/hid/disp/display.h ****         int_fast16_t deltaY = abs((int_fast16_t)y2 - (int_fast16_t)y1);
 3718              		.loc 4 227 22 view .LVU816
 3719 0028 002E     		cmp	r6, #0
 3720 002a B8BF     		it	lt
 3721 002c 7642     		rsblt	r6, r6, #0
 3722              	.LVL269:
 230:../../libdaisy/src/hid/disp/display.h ****         int_fast16_t error  = deltaX - deltaY;
 3723              		.loc 4 230 22 view .LVU817
 3724 002e 9742     		cmp	r7, r2
 231:../../libdaisy/src/hid/disp/display.h ****         int_fast16_t error2;
 3725              		.loc 4 231 22 view .LVU818
 3726 0030 A6EB0E04 		sub	r4, r6, lr
 230:../../libdaisy/src/hid/disp/display.h ****         int_fast16_t error  = deltaX - deltaY;
 3727              		.loc 4 230 22 view .LVU819
 3728 0034 4FD8     		bhi	.L236
 3729              	.LVL270:
 3730              	.LBB1426:
 3731              	.LBI1426:
  41:../../libdaisy/src/hid/disp/oled_display.h ****     {
 3732              		.loc 3 41 10 is_stmt 1 discriminator 4 view .LVU820
 3733              	.LBB1427:
 3734              	.LBI1427:
 239:../../libdaisy/src/dev/oled_ssd130x.h ****     {
 3735              		.loc 17 239 10 discriminator 4 view .LVU821
 3736              	.LBE1427:
 3737              	.LBE1426:
 230:../../libdaisy/src/hid/disp/display.h ****         int_fast16_t error  = deltaX - deltaY;
 3738              		.loc 4 230 22 is_stmt 0 discriminator 4 view .LVU822
 3739 0036 4FF0FF35 		mov	r5, #-1
 3740              	.LBB1443:
 3741              	.LBB1437:
 3742              	.LBB1428:
 241:../../libdaisy/src/dev/oled_ssd130x.h ****             return;
ARM GAS  /tmp/cc3v7X8N.s 			page 109


 3743              		.loc 17 241 9 discriminator 4 view .LVU823
 3744 003a 7F2B     		cmp	r3, #127
 3745              	.LBE1428:
 3746              	.LBE1437:
 3747              	.LBE1443:
 230:../../libdaisy/src/hid/disp/display.h ****         int_fast16_t error  = deltaX - deltaY;
 3748              		.loc 4 230 22 discriminator 4 view .LVU824
 3749 003c 0195     		str	r5, [sp, #4]
 3750              	.LBB1444:
 3751              	.LBB1438:
 3752              	.LBB1433:
 241:../../libdaisy/src/dev/oled_ssd130x.h ****             return;
 3753              		.loc 17 241 9 discriminator 4 view .LVU825
 3754 003e 14D8     		bhi	.L237
 3755 0040 3F2F     		cmp	r7, #63
 3756 0042 12D8     		bhi	.L237
 3757              	.LVL271:
 3758              	.L248:
 244:../../libdaisy/src/dev/oled_ssd130x.h ****         else
 3759              		.loc 17 244 28 view .LVU826
 3760 0044 FD08     		lsrs	r5, r7, #3
 244:../../libdaisy/src/dev/oled_ssd130x.h ****         else
 3761              		.loc 17 244 54 view .LVU827
 3762 0046 07F0070C 		and	ip, r7, #7
 244:../../libdaisy/src/dev/oled_ssd130x.h ****         else
 3763              		.loc 17 244 48 view .LVU828
 3764 004a 4FF0010A 		mov	r10, #1
 244:../../libdaisy/src/dev/oled_ssd130x.h ****         else
 3765              		.loc 17 244 42 view .LVU829
 3766 004e 03EBC515 		add	r5, r3, r5, lsl #7
 243:../../libdaisy/src/dev/oled_ssd130x.h ****             buffer_[x + (y / 8) * width] |= (1 << (y % 8));
 3767              		.loc 17 243 9 view .LVU830
 3768 0052 B8F1000F 		cmp	r8, #0
 3769 0056 45D0     		beq	.L238
 244:../../libdaisy/src/dev/oled_ssd130x.h ****         else
 3770              		.loc 17 244 13 view .LVU831
 3771 0058 0544     		add	r5, r5, r0
 244:../../libdaisy/src/dev/oled_ssd130x.h ****         else
 3772              		.loc 17 244 48 view .LVU832
 3773 005a 0AFA0CFC 		lsl	ip, r10, ip
 244:../../libdaisy/src/dev/oled_ssd130x.h ****         else
 3774              		.loc 17 244 42 view .LVU833
 3775 005e 95F814A0 		ldrb	r10, [r5, #20]	@ zero_extendqisi2
 3776 0062 4CEA0A0C 		orr	ip, ip, r10
 244:../../libdaisy/src/dev/oled_ssd130x.h ****         else
 3777              		.loc 17 244 13 view .LVU834
 3778 0066 85F814C0 		strb	ip, [r5, #20]
 3779              	.L237:
 3780              	.LVL272:
 244:../../libdaisy/src/dev/oled_ssd130x.h ****         else
 3781              		.loc 17 244 13 view .LVU835
 3782              	.LBE1433:
 3783              	.LBE1438:
 3784              	.LBE1444:
 239:../../libdaisy/src/hid/disp/display.h ****         {
 3785              		.loc 4 239 26 is_stmt 1 view .LVU836
 3786 006a 9742     		cmp	r7, r2
ARM GAS  /tmp/cc3v7X8N.s 			page 110


 3787 006c 01D1     		bne	.L241
 3788              	.L260:
 239:../../libdaisy/src/hid/disp/display.h ****         {
 3789              		.loc 4 239 26 is_stmt 0 view .LVU837
 3790 006e 8B42     		cmp	r3, r1
 3791 0070 29D0     		beq	.L234
 3792              	.L241:
 3793              	.LVL273:
 239:../../libdaisy/src/hid/disp/display.h ****         {
 3794              		.loc 4 239 26 view .LVU838
 3795 0072 CEF1000C 		rsb	ip, lr, #0
 3796              	.L243:
 3797              	.LVL274:
 3798              	.LBB1445:
 3799              	.LBI1445:
  41:../../libdaisy/src/hid/disp/oled_display.h ****     {
 3800              		.loc 3 41 10 is_stmt 1 view .LVU839
 3801              	.LBB1446:
 3802              	.LBI1446:
 239:../../libdaisy/src/dev/oled_ssd130x.h ****     {
 3803              		.loc 17 239 10 view .LVU840
 3804              	.LBB1447:
 241:../../libdaisy/src/dev/oled_ssd130x.h ****             return;
 3805              		.loc 17 241 9 is_stmt 0 view .LVU841
 3806 0076 7F29     		cmp	r1, #127
 3807 0078 14D8     		bhi	.L244
 3808 007a 3F2A     		cmp	r2, #63
 3809 007c 12D8     		bhi	.L244
 244:../../libdaisy/src/dev/oled_ssd130x.h ****         else
 3810              		.loc 17 244 28 view .LVU842
 3811 007e D508     		lsrs	r5, r2, #3
 244:../../libdaisy/src/dev/oled_ssd130x.h ****         else
 3812              		.loc 17 244 48 view .LVU843
 3813 0080 4FF0010B 		mov	fp, #1
 244:../../libdaisy/src/dev/oled_ssd130x.h ****         else
 3814              		.loc 17 244 54 view .LVU844
 3815 0084 02F0070A 		and	r10, r2, #7
 244:../../libdaisy/src/dev/oled_ssd130x.h ****         else
 3816              		.loc 17 244 42 view .LVU845
 3817 0088 01EBC515 		add	r5, r1, r5, lsl #7
 244:../../libdaisy/src/dev/oled_ssd130x.h ****         else
 3818              		.loc 17 244 48 view .LVU846
 3819 008c 0BFA0AFA 		lsl	r10, fp, r10
 244:../../libdaisy/src/dev/oled_ssd130x.h ****         else
 3820              		.loc 17 244 13 view .LVU847
 3821 0090 0544     		add	r5, r5, r0
 244:../../libdaisy/src/dev/oled_ssd130x.h ****         else
 3822              		.loc 17 244 42 view .LVU848
 3823 0092 95F814B0 		ldrb	fp, [r5, #20]	@ zero_extendqisi2
 243:../../libdaisy/src/dev/oled_ssd130x.h ****             buffer_[x + (y / 8) * width] |= (1 << (y % 8));
 3824              		.loc 17 243 9 view .LVU849
 3825 0096 B8F1000F 		cmp	r8, #0
 3826 009a 17D0     		beq	.L245
 244:../../libdaisy/src/dev/oled_ssd130x.h ****         else
 3827              		.loc 17 244 42 view .LVU850
 3828 009c 4AEA0B0A 		orr	r10, r10, fp
 244:../../libdaisy/src/dev/oled_ssd130x.h ****         else
ARM GAS  /tmp/cc3v7X8N.s 			page 111


 3829              		.loc 17 244 13 view .LVU851
 3830 00a0 85F814A0 		strb	r10, [r5, #20]
 3831              	.L244:
 3832              	.LVL275:
 244:../../libdaisy/src/dev/oled_ssd130x.h ****         else
 3833              		.loc 17 244 13 view .LVU852
 3834              	.LBE1447:
 3835              	.LBE1446:
 3836              	.LBE1445:
 243:../../libdaisy/src/hid/disp/display.h ****             {
 3837              		.loc 4 243 13 view .LVU853
 3838 00a4 BCEB440F 		cmp	ip, r4, lsl #1
 242:../../libdaisy/src/hid/disp/display.h ****             if(error2 > -deltaY)
 3839              		.loc 4 242 13 view .LVU854
 3840 00a8 4FEA4405 		lsl	r5, r4, #1
 3841              	.LVL276:
 243:../../libdaisy/src/hid/disp/display.h ****             {
 3842              		.loc 4 243 13 view .LVU855
 3843 00ac 02DA     		bge	.L246
 245:../../libdaisy/src/hid/disp/display.h ****                 x1 += signX;
 3844              		.loc 4 245 17 view .LVU856
 3845 00ae A4EB0E04 		sub	r4, r4, lr
 3846              	.LVL277:
 246:../../libdaisy/src/hid/disp/display.h ****             }
 3847              		.loc 4 246 17 view .LVU857
 3848 00b2 4944     		add	r1, r1, r9
 3849              	.LVL278:
 3850              	.L246:
 249:../../libdaisy/src/hid/disp/display.h ****             {
 3851              		.loc 4 249 13 view .LVU858
 3852 00b4 AE42     		cmp	r6, r5
 3853 00b6 02DD     		ble	.L247
 252:../../libdaisy/src/hid/disp/display.h ****             }
 3854              		.loc 4 252 17 view .LVU859
 3855 00b8 019D     		ldr	r5, [sp, #4]
 3856              	.LVL279:
 251:../../libdaisy/src/hid/disp/display.h ****                 y1 += signY;
 3857              		.loc 4 251 17 view .LVU860
 3858 00ba 3444     		add	r4, r4, r6
 3859              	.LVL280:
 252:../../libdaisy/src/hid/disp/display.h ****             }
 3860              		.loc 4 252 17 view .LVU861
 3861 00bc 2A44     		add	r2, r2, r5
 3862              	.LVL281:
 3863              	.L247:
 239:../../libdaisy/src/hid/disp/display.h ****         {
 3864              		.loc 4 239 26 is_stmt 1 view .LVU862
 3865 00be 9942     		cmp	r1, r3
 3866 00c0 D9D1     		bne	.L243
 239:../../libdaisy/src/hid/disp/display.h ****         {
 3867              		.loc 4 239 26 is_stmt 0 view .LVU863
 3868 00c2 9742     		cmp	r7, r2
 3869 00c4 D7D1     		bne	.L243
 3870              	.L234:
 255:../../libdaisy/src/hid/disp/display.h **** 
 3871              		.loc 4 255 5 view .LVU864
 3872 00c6 03B0     		add	sp, sp, #12
ARM GAS  /tmp/cc3v7X8N.s 			page 112


 3873              		.cfi_remember_state
 3874              		.cfi_def_cfa_offset 36
 3875              		@ sp needed
 3876 00c8 BDE8F08F 		pop	{r4, r5, r6, r7, r8, r9, r10, fp, pc}
 3877              	.LVL282:
 3878              	.L245:
 3879              		.cfi_restore_state
 3880              	.LBB1452:
 3881              	.LBB1451:
 3882              	.LBB1450:
 3883              	.LBB1448:
 3884              	.LBI1448:
 239:../../libdaisy/src/dev/oled_ssd130x.h ****     {
 3885              		.loc 17 239 10 is_stmt 1 view .LVU865
 3886              	.LBB1449:
 246:../../libdaisy/src/dev/oled_ssd130x.h ****     }
 3887              		.loc 17 246 42 is_stmt 0 view .LVU866
 3888 00cc 2BEA0A0A 		bic	r10, fp, r10
 246:../../libdaisy/src/dev/oled_ssd130x.h ****     }
 3889              		.loc 17 246 13 view .LVU867
 3890 00d0 85F814A0 		strb	r10, [r5, #20]
 3891 00d4 E6E7     		b	.L244
 3892              	.LVL283:
 3893              	.L236:
 246:../../libdaisy/src/dev/oled_ssd130x.h ****     }
 3894              		.loc 17 246 13 view .LVU868
 3895              	.LBE1449:
 3896              	.LBE1448:
 3897              	.LBE1450:
 3898              	.LBE1451:
 3899              	.LBE1452:
 3900              	.LBB1453:
  41:../../libdaisy/src/hid/disp/oled_display.h ****     {
 3901              		.loc 3 41 10 is_stmt 1 view .LVU869
 3902              	.LBB1439:
 239:../../libdaisy/src/dev/oled_ssd130x.h ****     {
 3903              		.loc 17 239 10 view .LVU870
 3904              	.LBE1439:
 3905              	.LBE1453:
 230:../../libdaisy/src/hid/disp/display.h ****         int_fast16_t error  = deltaX - deltaY;
 3906              		.loc 4 230 22 is_stmt 0 view .LVU871
 3907 00d6 0125     		movs	r5, #1
 3908              	.LBB1454:
 3909              	.LBB1440:
 3910              	.LBB1434:
 241:../../libdaisy/src/dev/oled_ssd130x.h ****             return;
 3911              		.loc 17 241 9 view .LVU872
 3912 00d8 7F2B     		cmp	r3, #127
 3913              	.LBE1434:
 3914              	.LBE1440:
 3915              	.LBE1454:
 230:../../libdaisy/src/hid/disp/display.h ****         int_fast16_t error  = deltaX - deltaY;
 3916              		.loc 4 230 22 view .LVU873
 3917 00da 0195     		str	r5, [sp, #4]
 3918              	.LBB1455:
 3919              	.LBB1441:
 3920              	.LBB1435:
ARM GAS  /tmp/cc3v7X8N.s 			page 113


 241:../../libdaisy/src/dev/oled_ssd130x.h ****             return;
 3921              		.loc 17 241 9 view .LVU874
 3922 00dc C9D8     		bhi	.L241
 3923 00de 3F2F     		cmp	r7, #63
 3924 00e0 B0D9     		bls	.L248
 3925 00e2 C6E7     		b	.L241
 3926              	.LVL284:
 3927              	.L238:
 3928              	.LBB1429:
 3929              	.LBI1429:
 239:../../libdaisy/src/dev/oled_ssd130x.h ****     {
 3930              		.loc 17 239 10 is_stmt 1 view .LVU875
 3931              	.LBB1430:
 246:../../libdaisy/src/dev/oled_ssd130x.h ****     }
 3932              		.loc 17 246 13 is_stmt 0 view .LVU876
 3933 00e4 0544     		add	r5, r5, r0
 246:../../libdaisy/src/dev/oled_ssd130x.h ****     }
 3934              		.loc 17 246 49 view .LVU877
 3935 00e6 0AFA0CFA 		lsl	r10, r10, ip
 3936              	.LBE1430:
 3937              	.LBE1429:
 3938              	.LBE1435:
 3939              	.LBE1441:
 3940              	.LBE1455:
 239:../../libdaisy/src/hid/disp/display.h ****         {
 3941              		.loc 4 239 26 view .LVU878
 3942 00ea 9742     		cmp	r7, r2
 3943              	.LBB1456:
 3944              	.LBB1442:
 3945              	.LBB1436:
 3946              	.LBB1432:
 3947              	.LBB1431:
 246:../../libdaisy/src/dev/oled_ssd130x.h ****     }
 3948              		.loc 17 246 42 view .LVU879
 3949 00ec 95F814C0 		ldrb	ip, [r5, #20]	@ zero_extendqisi2
 3950 00f0 2CEA0A0C 		bic	ip, ip, r10
 246:../../libdaisy/src/dev/oled_ssd130x.h ****     }
 3951              		.loc 17 246 13 view .LVU880
 3952 00f4 85F814C0 		strb	ip, [r5, #20]
 3953              	.LVL285:
 246:../../libdaisy/src/dev/oled_ssd130x.h ****     }
 3954              		.loc 17 246 13 view .LVU881
 3955              	.LBE1431:
 3956              	.LBE1432:
 3957              	.LBE1436:
 3958              	.LBE1442:
 3959              	.LBE1456:
 239:../../libdaisy/src/hid/disp/display.h ****         {
 3960              		.loc 4 239 26 is_stmt 1 view .LVU882
 3961 00f8 B9D0     		beq	.L260
 3962 00fa BAE7     		b	.L241
 3963              		.cfi_endproc
 3964              	.LFE4831:
 3966              		.section	.text._ZN5daisy25OneBitGraphicsDisplayImplINS_11OledDisplayINS_13SSD130xDriverILj128ELj64
 3967              		.align	1
 3968              		.p2align 2,,3
 3969              		.weak	_ZN5daisy25OneBitGraphicsDisplayImplINS_11OledDisplayINS_13SSD130xDriverILj128ELj64ENS_24SSD
ARM GAS  /tmp/cc3v7X8N.s 			page 114


 3970              		.syntax unified
 3971              		.thumb
 3972              		.thumb_func
 3973              		.fpu fpv5-d16
 3975              	_ZN5daisy25OneBitGraphicsDisplayImplINS_11OledDisplayINS_13SSD130xDriverILj128ELj64ENS_24SSD130x4Wi
 3976              	.LVL286:
 3977              	.LFB4833:
 283:../../libdaisy/src/hid/disp/display.h ****                  uint_fast8_t y,
 3978              		.loc 4 283 10 view -0
 3979              		.cfi_startproc
 3980              		@ args = 12, pretend = 0, frame = 16
 3981              		@ frame_needed = 0, uses_anonymous_args = 0
 283:../../libdaisy/src/hid/disp/display.h ****                  uint_fast8_t y,
 3982              		.loc 4 283 10 is_stmt 0 view .LVU884
 3983 0000 2DE9F04F 		push	{r4, r5, r6, r7, r8, r9, r10, fp, lr}
 3984              		.cfi_def_cfa_offset 36
 3985              		.cfi_offset 4, -36
 3986              		.cfi_offset 5, -32
 3987              		.cfi_offset 6, -28
 3988              		.cfi_offset 7, -24
 3989              		.cfi_offset 8, -20
 3990              		.cfi_offset 9, -16
 3991              		.cfi_offset 10, -12
 3992              		.cfi_offset 11, -8
 3993              		.cfi_offset 14, -4
 3994 0004 2DED068B 		vpush.64	{d8, d9, d10}
 3995              		.cfi_def_cfa_offset 60
 3996              		.cfi_offset 80, -60
 3997              		.cfi_offset 81, -56
 3998              		.cfi_offset 82, -52
 3999              		.cfi_offset 83, -48
 4000              		.cfi_offset 84, -44
 4001              		.cfi_offset 85, -40
 4002 0008 85B0     		sub	sp, sp, #20
 4003              		.cfi_def_cfa_offset 80
 283:../../libdaisy/src/hid/disp/display.h ****                  uint_fast8_t y,
 4004              		.loc 4 283 10 view .LVU885
 4005 000a 1C46     		mov	r4, r3
 4006 000c 0F46     		mov	r7, r1
 4007 000e 9046     		mov	r8, r2
 4008 0010 9DF85830 		ldrb	r3, [sp, #88]	@ zero_extendqisi2
 4009              	.LVL287:
 283:../../libdaisy/src/hid/disp/display.h ****                  uint_fast8_t y,
 4010              		.loc 4 283 10 view .LVU886
 4011 0014 0390     		str	r0, [sp, #12]
 4012 0016 0293     		str	r3, [sp, #8]
 306:../../libdaisy/src/hid/disp/display.h ****         {
 4013              		.loc 4 306 9 view .LVU887
 4014 0018 159B     		ldr	r3, [sp, #84]
 4015 001a 002B     		cmp	r3, #0
 4016 001c C0F2F281 		blt	.L262
 4017 0020 149A     		ldr	r2, [sp, #80]
 4018              	.LVL288:
 306:../../libdaisy/src/hid/disp/display.h ****         {
 4019              		.loc 4 306 9 view .LVU888
 4020 0022 1344     		add	r3, r3, r2
 4021 0024 06EE103A 		vmov	s12, r3	@ int
ARM GAS  /tmp/cc3v7X8N.s 			page 115


 4022              	.LVL289:
 4023              	.L263:
 312:../../libdaisy/src/hid/disp/display.h ****         end_angle_rad   = deg2rad(start_angle + sweep);
 4024              		.loc 4 312 27 view .LVU889
 4025 0028 DDED147A 		vldr.32	s15, [sp, #80]	@ int
 313:../../libdaisy/src/hid/disp/display.h **** 
 4026              		.loc 4 313 27 view .LVU890
 4027 002c B8EEC66B 		vcvt.f64.s32	d6, s12
 312:../../libdaisy/src/hid/disp/display.h ****         end_angle_rad   = deg2rad(start_angle + sweep);
 4028              		.loc 4 312 27 view .LVU891
 4029 0030 9FEDD54B 		vldr.64	d4, .L336
 4030 0034 B8EEE77B 		vcvt.f64.s32	d7, s15
 4031 0038 9FEDD55B 		vldr.64	d5, .L336+8
 4032 003c 27EE047B 		vmul.f64	d7, d7, d4
 313:../../libdaisy/src/hid/disp/display.h **** 
 4033              		.loc 4 313 27 view .LVU892
 4034 0040 26EE046B 		vmul.f64	d6, d6, d4
 312:../../libdaisy/src/hid/disp/display.h ****         end_angle_rad   = deg2rad(start_angle + sweep);
 4035              		.loc 4 312 27 view .LVU893
 4036 0044 87EE050B 		vdiv.f64	d0, d7, d5
 313:../../libdaisy/src/hid/disp/display.h **** 
 4037              		.loc 4 313 27 view .LVU894
 4038 0048 86EE05AB 		vdiv.f64	d10, d6, d5
 312:../../libdaisy/src/hid/disp/display.h ****         end_angle_rad   = deg2rad(start_angle + sweep);
 4039              		.loc 4 312 9 view .LVU895
 4040 004c F7EEC08B 		vcvt.f32.f64	s17, d0
 4041              	.LVL290:
 4042              	.LBB1489:
 4043              	.LBB1490:
 4044              		.file 19 "/usr/include/newlib/c++/9.2.1/cmath"
   1:/usr/include/newlib/c++/9.2.1/cmath **** // -*- C++ -*- C forwarding header.
   2:/usr/include/newlib/c++/9.2.1/cmath **** 
   3:/usr/include/newlib/c++/9.2.1/cmath **** // Copyright (C) 1997-2019 Free Software Foundation, Inc.
   4:/usr/include/newlib/c++/9.2.1/cmath **** //
   5:/usr/include/newlib/c++/9.2.1/cmath **** // This file is part of the GNU ISO C++ Library.  This library is free
   6:/usr/include/newlib/c++/9.2.1/cmath **** // software; you can redistribute it and/or modify it under the
   7:/usr/include/newlib/c++/9.2.1/cmath **** // terms of the GNU General Public License as published by the
   8:/usr/include/newlib/c++/9.2.1/cmath **** // Free Software Foundation; either version 3, or (at your option)
   9:/usr/include/newlib/c++/9.2.1/cmath **** // any later version.
  10:/usr/include/newlib/c++/9.2.1/cmath **** 
  11:/usr/include/newlib/c++/9.2.1/cmath **** // This library is distributed in the hope that it will be useful,
  12:/usr/include/newlib/c++/9.2.1/cmath **** // but WITHOUT ANY WARRANTY; without even the implied warranty of
  13:/usr/include/newlib/c++/9.2.1/cmath **** // MERCHANTABILITY or FITNESS FOR A PARTICULAR PURPOSE.  See the
  14:/usr/include/newlib/c++/9.2.1/cmath **** // GNU General Public License for more details.
  15:/usr/include/newlib/c++/9.2.1/cmath **** 
  16:/usr/include/newlib/c++/9.2.1/cmath **** // Under Section 7 of GPL version 3, you are granted additional
  17:/usr/include/newlib/c++/9.2.1/cmath **** // permissions described in the GCC Runtime Library Exception, version
  18:/usr/include/newlib/c++/9.2.1/cmath **** // 3.1, as published by the Free Software Foundation.
  19:/usr/include/newlib/c++/9.2.1/cmath **** 
  20:/usr/include/newlib/c++/9.2.1/cmath **** // You should have received a copy of the GNU General Public License and
  21:/usr/include/newlib/c++/9.2.1/cmath **** // a copy of the GCC Runtime Library Exception along with this program;
  22:/usr/include/newlib/c++/9.2.1/cmath **** // see the files COPYING3 and COPYING.RUNTIME respectively.  If not, see
  23:/usr/include/newlib/c++/9.2.1/cmath **** // <http://www.gnu.org/licenses/>.
  24:/usr/include/newlib/c++/9.2.1/cmath **** 
  25:/usr/include/newlib/c++/9.2.1/cmath **** /** @file include/cmath
  26:/usr/include/newlib/c++/9.2.1/cmath ****  *  This is a Standard C++ Library file.  You should @c \#include this file
  27:/usr/include/newlib/c++/9.2.1/cmath ****  *  in your programs, rather than any of the @a *.h implementation files.
ARM GAS  /tmp/cc3v7X8N.s 			page 116


  28:/usr/include/newlib/c++/9.2.1/cmath ****  *
  29:/usr/include/newlib/c++/9.2.1/cmath ****  *  This is the C++ version of the Standard C Library header @c math.h,
  30:/usr/include/newlib/c++/9.2.1/cmath ****  *  and its contents are (mostly) the same as that header, but are all
  31:/usr/include/newlib/c++/9.2.1/cmath ****  *  contained in the namespace @c std (except for names which are defined
  32:/usr/include/newlib/c++/9.2.1/cmath ****  *  as macros in C).
  33:/usr/include/newlib/c++/9.2.1/cmath ****  */
  34:/usr/include/newlib/c++/9.2.1/cmath **** 
  35:/usr/include/newlib/c++/9.2.1/cmath **** //
  36:/usr/include/newlib/c++/9.2.1/cmath **** // ISO C++ 14882: 26.5  C library
  37:/usr/include/newlib/c++/9.2.1/cmath **** //
  38:/usr/include/newlib/c++/9.2.1/cmath **** 
  39:/usr/include/newlib/c++/9.2.1/cmath **** #pragma GCC system_header
  40:/usr/include/newlib/c++/9.2.1/cmath **** 
  41:/usr/include/newlib/c++/9.2.1/cmath **** #include <bits/c++config.h>
  42:/usr/include/newlib/c++/9.2.1/cmath **** #include <bits/cpp_type_traits.h>
  43:/usr/include/newlib/c++/9.2.1/cmath **** #include <ext/type_traits.h>
  44:/usr/include/newlib/c++/9.2.1/cmath **** #define _GLIBCXX_INCLUDE_NEXT_C_HEADERS
  45:/usr/include/newlib/c++/9.2.1/cmath **** #include_next <math.h>
  46:/usr/include/newlib/c++/9.2.1/cmath **** #undef _GLIBCXX_INCLUDE_NEXT_C_HEADERS
  47:/usr/include/newlib/c++/9.2.1/cmath **** #include <bits/std_abs.h>
  48:/usr/include/newlib/c++/9.2.1/cmath **** 
  49:/usr/include/newlib/c++/9.2.1/cmath **** #ifndef _GLIBCXX_CMATH
  50:/usr/include/newlib/c++/9.2.1/cmath **** #define _GLIBCXX_CMATH 1
  51:/usr/include/newlib/c++/9.2.1/cmath **** 
  52:/usr/include/newlib/c++/9.2.1/cmath **** // Get rid of those macros defined in <math.h> in lieu of real functions.
  53:/usr/include/newlib/c++/9.2.1/cmath **** #undef div
  54:/usr/include/newlib/c++/9.2.1/cmath **** #undef acos
  55:/usr/include/newlib/c++/9.2.1/cmath **** #undef asin
  56:/usr/include/newlib/c++/9.2.1/cmath **** #undef atan
  57:/usr/include/newlib/c++/9.2.1/cmath **** #undef atan2
  58:/usr/include/newlib/c++/9.2.1/cmath **** #undef ceil
  59:/usr/include/newlib/c++/9.2.1/cmath **** #undef cos
  60:/usr/include/newlib/c++/9.2.1/cmath **** #undef cosh
  61:/usr/include/newlib/c++/9.2.1/cmath **** #undef exp
  62:/usr/include/newlib/c++/9.2.1/cmath **** #undef fabs
  63:/usr/include/newlib/c++/9.2.1/cmath **** #undef floor
  64:/usr/include/newlib/c++/9.2.1/cmath **** #undef fmod
  65:/usr/include/newlib/c++/9.2.1/cmath **** #undef frexp
  66:/usr/include/newlib/c++/9.2.1/cmath **** #undef ldexp
  67:/usr/include/newlib/c++/9.2.1/cmath **** #undef log
  68:/usr/include/newlib/c++/9.2.1/cmath **** #undef log10
  69:/usr/include/newlib/c++/9.2.1/cmath **** #undef modf
  70:/usr/include/newlib/c++/9.2.1/cmath **** #undef pow
  71:/usr/include/newlib/c++/9.2.1/cmath **** #undef sin
  72:/usr/include/newlib/c++/9.2.1/cmath **** #undef sinh
  73:/usr/include/newlib/c++/9.2.1/cmath **** #undef sqrt
  74:/usr/include/newlib/c++/9.2.1/cmath **** #undef tan
  75:/usr/include/newlib/c++/9.2.1/cmath **** #undef tanh
  76:/usr/include/newlib/c++/9.2.1/cmath **** 
  77:/usr/include/newlib/c++/9.2.1/cmath **** extern "C++"
  78:/usr/include/newlib/c++/9.2.1/cmath **** {
  79:/usr/include/newlib/c++/9.2.1/cmath **** namespace std _GLIBCXX_VISIBILITY(default)
  80:/usr/include/newlib/c++/9.2.1/cmath **** {
  81:/usr/include/newlib/c++/9.2.1/cmath **** _GLIBCXX_BEGIN_NAMESPACE_VERSION
  82:/usr/include/newlib/c++/9.2.1/cmath **** 
  83:/usr/include/newlib/c++/9.2.1/cmath ****   using ::acos;
  84:/usr/include/newlib/c++/9.2.1/cmath **** 
ARM GAS  /tmp/cc3v7X8N.s 			page 117


  85:/usr/include/newlib/c++/9.2.1/cmath **** #ifndef __CORRECT_ISO_CPP_MATH_H_PROTO
  86:/usr/include/newlib/c++/9.2.1/cmath ****   inline _GLIBCXX_CONSTEXPR float
  87:/usr/include/newlib/c++/9.2.1/cmath ****   acos(float __x)
  88:/usr/include/newlib/c++/9.2.1/cmath ****   { return __builtin_acosf(__x); }
  89:/usr/include/newlib/c++/9.2.1/cmath **** 
  90:/usr/include/newlib/c++/9.2.1/cmath ****   inline _GLIBCXX_CONSTEXPR long double
  91:/usr/include/newlib/c++/9.2.1/cmath ****   acos(long double __x)
  92:/usr/include/newlib/c++/9.2.1/cmath ****   { return __builtin_acosl(__x); }
  93:/usr/include/newlib/c++/9.2.1/cmath **** #endif
  94:/usr/include/newlib/c++/9.2.1/cmath **** 
  95:/usr/include/newlib/c++/9.2.1/cmath ****   template<typename _Tp>
  96:/usr/include/newlib/c++/9.2.1/cmath ****     inline _GLIBCXX_CONSTEXPR
  97:/usr/include/newlib/c++/9.2.1/cmath ****     typename __gnu_cxx::__enable_if<__is_integer<_Tp>::__value, 
  98:/usr/include/newlib/c++/9.2.1/cmath ****                                     double>::__type
  99:/usr/include/newlib/c++/9.2.1/cmath ****     acos(_Tp __x)
 100:/usr/include/newlib/c++/9.2.1/cmath ****     { return __builtin_acos(__x); }
 101:/usr/include/newlib/c++/9.2.1/cmath **** 
 102:/usr/include/newlib/c++/9.2.1/cmath ****   using ::asin;
 103:/usr/include/newlib/c++/9.2.1/cmath **** 
 104:/usr/include/newlib/c++/9.2.1/cmath **** #ifndef __CORRECT_ISO_CPP_MATH_H_PROTO
 105:/usr/include/newlib/c++/9.2.1/cmath ****   inline _GLIBCXX_CONSTEXPR float
 106:/usr/include/newlib/c++/9.2.1/cmath ****   asin(float __x)
 107:/usr/include/newlib/c++/9.2.1/cmath ****   { return __builtin_asinf(__x); }
 108:/usr/include/newlib/c++/9.2.1/cmath **** 
 109:/usr/include/newlib/c++/9.2.1/cmath ****   inline _GLIBCXX_CONSTEXPR long double
 110:/usr/include/newlib/c++/9.2.1/cmath ****   asin(long double __x)
 111:/usr/include/newlib/c++/9.2.1/cmath ****   { return __builtin_asinl(__x); }
 112:/usr/include/newlib/c++/9.2.1/cmath **** #endif
 113:/usr/include/newlib/c++/9.2.1/cmath **** 
 114:/usr/include/newlib/c++/9.2.1/cmath ****   template<typename _Tp>
 115:/usr/include/newlib/c++/9.2.1/cmath ****     inline _GLIBCXX_CONSTEXPR
 116:/usr/include/newlib/c++/9.2.1/cmath ****     typename __gnu_cxx::__enable_if<__is_integer<_Tp>::__value,
 117:/usr/include/newlib/c++/9.2.1/cmath ****                                     double>::__type
 118:/usr/include/newlib/c++/9.2.1/cmath ****     asin(_Tp __x)
 119:/usr/include/newlib/c++/9.2.1/cmath ****     { return __builtin_asin(__x); }
 120:/usr/include/newlib/c++/9.2.1/cmath **** 
 121:/usr/include/newlib/c++/9.2.1/cmath ****   using ::atan;
 122:/usr/include/newlib/c++/9.2.1/cmath **** 
 123:/usr/include/newlib/c++/9.2.1/cmath **** #ifndef __CORRECT_ISO_CPP_MATH_H_PROTO
 124:/usr/include/newlib/c++/9.2.1/cmath ****   inline _GLIBCXX_CONSTEXPR float
 125:/usr/include/newlib/c++/9.2.1/cmath ****   atan(float __x)
 126:/usr/include/newlib/c++/9.2.1/cmath ****   { return __builtin_atanf(__x); }
 127:/usr/include/newlib/c++/9.2.1/cmath **** 
 128:/usr/include/newlib/c++/9.2.1/cmath ****   inline _GLIBCXX_CONSTEXPR long double
 129:/usr/include/newlib/c++/9.2.1/cmath ****   atan(long double __x)
 130:/usr/include/newlib/c++/9.2.1/cmath ****   { return __builtin_atanl(__x); }
 131:/usr/include/newlib/c++/9.2.1/cmath **** #endif
 132:/usr/include/newlib/c++/9.2.1/cmath **** 
 133:/usr/include/newlib/c++/9.2.1/cmath ****   template<typename _Tp>
 134:/usr/include/newlib/c++/9.2.1/cmath ****     inline _GLIBCXX_CONSTEXPR
 135:/usr/include/newlib/c++/9.2.1/cmath ****     typename __gnu_cxx::__enable_if<__is_integer<_Tp>::__value,
 136:/usr/include/newlib/c++/9.2.1/cmath ****                                     double>::__type
 137:/usr/include/newlib/c++/9.2.1/cmath ****     atan(_Tp __x)
 138:/usr/include/newlib/c++/9.2.1/cmath ****     { return __builtin_atan(__x); }
 139:/usr/include/newlib/c++/9.2.1/cmath **** 
 140:/usr/include/newlib/c++/9.2.1/cmath ****   using ::atan2;
 141:/usr/include/newlib/c++/9.2.1/cmath **** 
ARM GAS  /tmp/cc3v7X8N.s 			page 118


 142:/usr/include/newlib/c++/9.2.1/cmath **** #ifndef __CORRECT_ISO_CPP_MATH_H_PROTO
 143:/usr/include/newlib/c++/9.2.1/cmath ****   inline _GLIBCXX_CONSTEXPR float
 144:/usr/include/newlib/c++/9.2.1/cmath ****   atan2(float __y, float __x)
 145:/usr/include/newlib/c++/9.2.1/cmath ****   { return __builtin_atan2f(__y, __x); }
 146:/usr/include/newlib/c++/9.2.1/cmath **** 
 147:/usr/include/newlib/c++/9.2.1/cmath ****   inline _GLIBCXX_CONSTEXPR long double
 148:/usr/include/newlib/c++/9.2.1/cmath ****   atan2(long double __y, long double __x)
 149:/usr/include/newlib/c++/9.2.1/cmath ****   { return __builtin_atan2l(__y, __x); }
 150:/usr/include/newlib/c++/9.2.1/cmath **** #endif
 151:/usr/include/newlib/c++/9.2.1/cmath **** 
 152:/usr/include/newlib/c++/9.2.1/cmath ****   template<typename _Tp, typename _Up>
 153:/usr/include/newlib/c++/9.2.1/cmath ****     inline _GLIBCXX_CONSTEXPR
 154:/usr/include/newlib/c++/9.2.1/cmath ****     typename __gnu_cxx::__promote_2<_Tp, _Up>::__type
 155:/usr/include/newlib/c++/9.2.1/cmath ****     atan2(_Tp __y, _Up __x)
 156:/usr/include/newlib/c++/9.2.1/cmath ****     {
 157:/usr/include/newlib/c++/9.2.1/cmath ****       typedef typename __gnu_cxx::__promote_2<_Tp, _Up>::__type __type;
 158:/usr/include/newlib/c++/9.2.1/cmath ****       return atan2(__type(__y), __type(__x));
 159:/usr/include/newlib/c++/9.2.1/cmath ****     }
 160:/usr/include/newlib/c++/9.2.1/cmath **** 
 161:/usr/include/newlib/c++/9.2.1/cmath ****   using ::ceil;
 162:/usr/include/newlib/c++/9.2.1/cmath **** 
 163:/usr/include/newlib/c++/9.2.1/cmath **** #ifndef __CORRECT_ISO_CPP_MATH_H_PROTO
 164:/usr/include/newlib/c++/9.2.1/cmath ****   inline _GLIBCXX_CONSTEXPR float
 165:/usr/include/newlib/c++/9.2.1/cmath ****   ceil(float __x)
 166:/usr/include/newlib/c++/9.2.1/cmath ****   { return __builtin_ceilf(__x); }
 167:/usr/include/newlib/c++/9.2.1/cmath **** 
 168:/usr/include/newlib/c++/9.2.1/cmath ****   inline _GLIBCXX_CONSTEXPR long double
 169:/usr/include/newlib/c++/9.2.1/cmath ****   ceil(long double __x)
 170:/usr/include/newlib/c++/9.2.1/cmath ****   { return __builtin_ceill(__x); }
 171:/usr/include/newlib/c++/9.2.1/cmath **** #endif
 172:/usr/include/newlib/c++/9.2.1/cmath **** 
 173:/usr/include/newlib/c++/9.2.1/cmath ****   template<typename _Tp>
 174:/usr/include/newlib/c++/9.2.1/cmath ****     inline _GLIBCXX_CONSTEXPR
 175:/usr/include/newlib/c++/9.2.1/cmath ****     typename __gnu_cxx::__enable_if<__is_integer<_Tp>::__value, 
 176:/usr/include/newlib/c++/9.2.1/cmath ****                                     double>::__type
 177:/usr/include/newlib/c++/9.2.1/cmath ****     ceil(_Tp __x)
 178:/usr/include/newlib/c++/9.2.1/cmath ****     { return __builtin_ceil(__x); }
 179:/usr/include/newlib/c++/9.2.1/cmath **** 
 180:/usr/include/newlib/c++/9.2.1/cmath ****   using ::cos;
 181:/usr/include/newlib/c++/9.2.1/cmath **** 
 182:/usr/include/newlib/c++/9.2.1/cmath **** #ifndef __CORRECT_ISO_CPP_MATH_H_PROTO
 183:/usr/include/newlib/c++/9.2.1/cmath ****   inline _GLIBCXX_CONSTEXPR float
 184:/usr/include/newlib/c++/9.2.1/cmath ****   cos(float __x)
 185:/usr/include/newlib/c++/9.2.1/cmath ****   { return __builtin_cosf(__x); }
 4045              		.loc 19 185 26 view .LVU896
 4046 0050 B0EE680A 		vmov.f32	s0, s17
 4047 0054 FFF7FEFF 		bl	cosf
 4048              	.LVL291:
 4049              		.loc 19 185 26 view .LVU897
 4050              	.LBE1490:
 4051              	.LBE1489:
 313:../../libdaisy/src/hid/disp/display.h **** 
 4052              		.loc 4 313 9 view .LVU898
 4053 0058 B7EECAAB 		vcvt.f32.f64	s20, d10
 4054              	.LVL292:
 4055              	.LBB1493:
 4056              	.LBI1489:
ARM GAS  /tmp/cc3v7X8N.s 			page 119


 184:/usr/include/newlib/c++/9.2.1/cmath ****   { return __builtin_cosf(__x); }
 4057              		.loc 19 184 3 is_stmt 1 view .LVU899
 4058              	.LBB1491:
 4059              		.loc 19 185 5 view .LVU900
 4060              		.loc 19 185 5 is_stmt 0 view .LVU901
 4061              	.LBE1491:
 4062              	.LBE1493:
 315:../../libdaisy/src/hid/disp/display.h ****         start_y = -sin(start_angle_rad) * radius;
 4063              		.loc 4 315 9 view .LVU902
 4064 005c 07EE904A 		vmov	s15, r4	@ int
 4065              	.LBB1494:
 4066              	.LBB1492:
 4067              		.loc 19 185 26 view .LVU903
 4068 0060 B0EE408A 		vmov.f32	s16, s0
 4069              	.LBE1492:
 4070              	.LBE1494:
 4071              	.LBB1495:
 4072              	.LBB1496:
 186:/usr/include/newlib/c++/9.2.1/cmath **** 
 187:/usr/include/newlib/c++/9.2.1/cmath ****   inline _GLIBCXX_CONSTEXPR long double
 188:/usr/include/newlib/c++/9.2.1/cmath ****   cos(long double __x)
 189:/usr/include/newlib/c++/9.2.1/cmath ****   { return __builtin_cosl(__x); }
 190:/usr/include/newlib/c++/9.2.1/cmath **** #endif
 191:/usr/include/newlib/c++/9.2.1/cmath **** 
 192:/usr/include/newlib/c++/9.2.1/cmath ****   template<typename _Tp>
 193:/usr/include/newlib/c++/9.2.1/cmath ****     inline _GLIBCXX_CONSTEXPR
 194:/usr/include/newlib/c++/9.2.1/cmath ****     typename __gnu_cxx::__enable_if<__is_integer<_Tp>::__value,
 195:/usr/include/newlib/c++/9.2.1/cmath ****                                     double>::__type
 196:/usr/include/newlib/c++/9.2.1/cmath ****     cos(_Tp __x)
 197:/usr/include/newlib/c++/9.2.1/cmath ****     { return __builtin_cos(__x); }
 198:/usr/include/newlib/c++/9.2.1/cmath **** 
 199:/usr/include/newlib/c++/9.2.1/cmath ****   using ::cosh;
 200:/usr/include/newlib/c++/9.2.1/cmath **** 
 201:/usr/include/newlib/c++/9.2.1/cmath **** #ifndef __CORRECT_ISO_CPP_MATH_H_PROTO
 202:/usr/include/newlib/c++/9.2.1/cmath ****   inline _GLIBCXX_CONSTEXPR float
 203:/usr/include/newlib/c++/9.2.1/cmath ****   cosh(float __x)
 204:/usr/include/newlib/c++/9.2.1/cmath ****   { return __builtin_coshf(__x); }
 205:/usr/include/newlib/c++/9.2.1/cmath **** 
 206:/usr/include/newlib/c++/9.2.1/cmath ****   inline _GLIBCXX_CONSTEXPR long double
 207:/usr/include/newlib/c++/9.2.1/cmath ****   cosh(long double __x)
 208:/usr/include/newlib/c++/9.2.1/cmath ****   { return __builtin_coshl(__x); }
 209:/usr/include/newlib/c++/9.2.1/cmath **** #endif
 210:/usr/include/newlib/c++/9.2.1/cmath **** 
 211:/usr/include/newlib/c++/9.2.1/cmath ****   template<typename _Tp>
 212:/usr/include/newlib/c++/9.2.1/cmath ****     inline _GLIBCXX_CONSTEXPR
 213:/usr/include/newlib/c++/9.2.1/cmath ****     typename __gnu_cxx::__enable_if<__is_integer<_Tp>::__value,
 214:/usr/include/newlib/c++/9.2.1/cmath ****                                     double>::__type
 215:/usr/include/newlib/c++/9.2.1/cmath ****     cosh(_Tp __x)
 216:/usr/include/newlib/c++/9.2.1/cmath ****     { return __builtin_cosh(__x); }
 217:/usr/include/newlib/c++/9.2.1/cmath **** 
 218:/usr/include/newlib/c++/9.2.1/cmath ****   using ::exp;
 219:/usr/include/newlib/c++/9.2.1/cmath **** 
 220:/usr/include/newlib/c++/9.2.1/cmath **** #ifndef __CORRECT_ISO_CPP_MATH_H_PROTO
 221:/usr/include/newlib/c++/9.2.1/cmath ****   inline _GLIBCXX_CONSTEXPR float
 222:/usr/include/newlib/c++/9.2.1/cmath ****   exp(float __x)
 223:/usr/include/newlib/c++/9.2.1/cmath ****   { return __builtin_expf(__x); }
 224:/usr/include/newlib/c++/9.2.1/cmath **** 
ARM GAS  /tmp/cc3v7X8N.s 			page 120


 225:/usr/include/newlib/c++/9.2.1/cmath ****   inline _GLIBCXX_CONSTEXPR long double
 226:/usr/include/newlib/c++/9.2.1/cmath ****   exp(long double __x)
 227:/usr/include/newlib/c++/9.2.1/cmath ****   { return __builtin_expl(__x); }
 228:/usr/include/newlib/c++/9.2.1/cmath **** #endif
 229:/usr/include/newlib/c++/9.2.1/cmath **** 
 230:/usr/include/newlib/c++/9.2.1/cmath ****   template<typename _Tp>
 231:/usr/include/newlib/c++/9.2.1/cmath ****     inline _GLIBCXX_CONSTEXPR
 232:/usr/include/newlib/c++/9.2.1/cmath ****     typename __gnu_cxx::__enable_if<__is_integer<_Tp>::__value,
 233:/usr/include/newlib/c++/9.2.1/cmath ****                                     double>::__type
 234:/usr/include/newlib/c++/9.2.1/cmath ****     exp(_Tp __x)
 235:/usr/include/newlib/c++/9.2.1/cmath ****     { return __builtin_exp(__x); }
 236:/usr/include/newlib/c++/9.2.1/cmath **** 
 237:/usr/include/newlib/c++/9.2.1/cmath ****   using ::fabs;
 238:/usr/include/newlib/c++/9.2.1/cmath **** 
 239:/usr/include/newlib/c++/9.2.1/cmath **** #ifndef __CORRECT_ISO_CPP_MATH_H_PROTO
 240:/usr/include/newlib/c++/9.2.1/cmath ****   inline _GLIBCXX_CONSTEXPR float
 241:/usr/include/newlib/c++/9.2.1/cmath ****   fabs(float __x)
 242:/usr/include/newlib/c++/9.2.1/cmath ****   { return __builtin_fabsf(__x); }
 243:/usr/include/newlib/c++/9.2.1/cmath **** 
 244:/usr/include/newlib/c++/9.2.1/cmath ****   inline _GLIBCXX_CONSTEXPR long double
 245:/usr/include/newlib/c++/9.2.1/cmath ****   fabs(long double __x)
 246:/usr/include/newlib/c++/9.2.1/cmath ****   { return __builtin_fabsl(__x); }
 247:/usr/include/newlib/c++/9.2.1/cmath **** #endif
 248:/usr/include/newlib/c++/9.2.1/cmath **** 
 249:/usr/include/newlib/c++/9.2.1/cmath ****   template<typename _Tp>
 250:/usr/include/newlib/c++/9.2.1/cmath ****     inline _GLIBCXX_CONSTEXPR
 251:/usr/include/newlib/c++/9.2.1/cmath ****     typename __gnu_cxx::__enable_if<__is_integer<_Tp>::__value,
 252:/usr/include/newlib/c++/9.2.1/cmath ****                                     double>::__type
 253:/usr/include/newlib/c++/9.2.1/cmath ****     fabs(_Tp __x)
 254:/usr/include/newlib/c++/9.2.1/cmath ****     { return __builtin_fabs(__x); }
 255:/usr/include/newlib/c++/9.2.1/cmath **** 
 256:/usr/include/newlib/c++/9.2.1/cmath ****   using ::floor;
 257:/usr/include/newlib/c++/9.2.1/cmath **** 
 258:/usr/include/newlib/c++/9.2.1/cmath **** #ifndef __CORRECT_ISO_CPP_MATH_H_PROTO
 259:/usr/include/newlib/c++/9.2.1/cmath ****   inline _GLIBCXX_CONSTEXPR float
 260:/usr/include/newlib/c++/9.2.1/cmath ****   floor(float __x)
 261:/usr/include/newlib/c++/9.2.1/cmath ****   { return __builtin_floorf(__x); }
 262:/usr/include/newlib/c++/9.2.1/cmath **** 
 263:/usr/include/newlib/c++/9.2.1/cmath ****   inline _GLIBCXX_CONSTEXPR long double
 264:/usr/include/newlib/c++/9.2.1/cmath ****   floor(long double __x)
 265:/usr/include/newlib/c++/9.2.1/cmath ****   { return __builtin_floorl(__x); }
 266:/usr/include/newlib/c++/9.2.1/cmath **** #endif
 267:/usr/include/newlib/c++/9.2.1/cmath **** 
 268:/usr/include/newlib/c++/9.2.1/cmath ****   template<typename _Tp>
 269:/usr/include/newlib/c++/9.2.1/cmath ****     inline _GLIBCXX_CONSTEXPR
 270:/usr/include/newlib/c++/9.2.1/cmath ****     typename __gnu_cxx::__enable_if<__is_integer<_Tp>::__value,
 271:/usr/include/newlib/c++/9.2.1/cmath ****                                     double>::__type
 272:/usr/include/newlib/c++/9.2.1/cmath ****     floor(_Tp __x)
 273:/usr/include/newlib/c++/9.2.1/cmath ****     { return __builtin_floor(__x); }
 274:/usr/include/newlib/c++/9.2.1/cmath **** 
 275:/usr/include/newlib/c++/9.2.1/cmath ****   using ::fmod;
 276:/usr/include/newlib/c++/9.2.1/cmath **** 
 277:/usr/include/newlib/c++/9.2.1/cmath **** #ifndef __CORRECT_ISO_CPP_MATH_H_PROTO
 278:/usr/include/newlib/c++/9.2.1/cmath ****   inline _GLIBCXX_CONSTEXPR float
 279:/usr/include/newlib/c++/9.2.1/cmath ****   fmod(float __x, float __y)
 280:/usr/include/newlib/c++/9.2.1/cmath ****   { return __builtin_fmodf(__x, __y); }
 281:/usr/include/newlib/c++/9.2.1/cmath **** 
ARM GAS  /tmp/cc3v7X8N.s 			page 121


 282:/usr/include/newlib/c++/9.2.1/cmath ****   inline _GLIBCXX_CONSTEXPR long double
 283:/usr/include/newlib/c++/9.2.1/cmath ****   fmod(long double __x, long double __y)
 284:/usr/include/newlib/c++/9.2.1/cmath ****   { return __builtin_fmodl(__x, __y); }
 285:/usr/include/newlib/c++/9.2.1/cmath **** #endif
 286:/usr/include/newlib/c++/9.2.1/cmath **** 
 287:/usr/include/newlib/c++/9.2.1/cmath ****   template<typename _Tp, typename _Up>
 288:/usr/include/newlib/c++/9.2.1/cmath ****     inline _GLIBCXX_CONSTEXPR
 289:/usr/include/newlib/c++/9.2.1/cmath ****     typename __gnu_cxx::__promote_2<_Tp, _Up>::__type
 290:/usr/include/newlib/c++/9.2.1/cmath ****     fmod(_Tp __x, _Up __y)
 291:/usr/include/newlib/c++/9.2.1/cmath ****     {
 292:/usr/include/newlib/c++/9.2.1/cmath ****       typedef typename __gnu_cxx::__promote_2<_Tp, _Up>::__type __type;
 293:/usr/include/newlib/c++/9.2.1/cmath ****       return fmod(__type(__x), __type(__y));
 294:/usr/include/newlib/c++/9.2.1/cmath ****     }
 295:/usr/include/newlib/c++/9.2.1/cmath **** 
 296:/usr/include/newlib/c++/9.2.1/cmath ****   using ::frexp;
 297:/usr/include/newlib/c++/9.2.1/cmath **** 
 298:/usr/include/newlib/c++/9.2.1/cmath **** #ifndef __CORRECT_ISO_CPP_MATH_H_PROTO
 299:/usr/include/newlib/c++/9.2.1/cmath ****   inline float
 300:/usr/include/newlib/c++/9.2.1/cmath ****   frexp(float __x, int* __exp)
 301:/usr/include/newlib/c++/9.2.1/cmath ****   { return __builtin_frexpf(__x, __exp); }
 302:/usr/include/newlib/c++/9.2.1/cmath **** 
 303:/usr/include/newlib/c++/9.2.1/cmath ****   inline long double
 304:/usr/include/newlib/c++/9.2.1/cmath ****   frexp(long double __x, int* __exp)
 305:/usr/include/newlib/c++/9.2.1/cmath ****   { return __builtin_frexpl(__x, __exp); }
 306:/usr/include/newlib/c++/9.2.1/cmath **** #endif
 307:/usr/include/newlib/c++/9.2.1/cmath **** 
 308:/usr/include/newlib/c++/9.2.1/cmath ****   template<typename _Tp>
 309:/usr/include/newlib/c++/9.2.1/cmath ****     inline _GLIBCXX_CONSTEXPR
 310:/usr/include/newlib/c++/9.2.1/cmath ****     typename __gnu_cxx::__enable_if<__is_integer<_Tp>::__value, 
 311:/usr/include/newlib/c++/9.2.1/cmath ****                                     double>::__type
 312:/usr/include/newlib/c++/9.2.1/cmath ****     frexp(_Tp __x, int* __exp)
 313:/usr/include/newlib/c++/9.2.1/cmath ****     { return __builtin_frexp(__x, __exp); }
 314:/usr/include/newlib/c++/9.2.1/cmath **** 
 315:/usr/include/newlib/c++/9.2.1/cmath ****   using ::ldexp;
 316:/usr/include/newlib/c++/9.2.1/cmath **** 
 317:/usr/include/newlib/c++/9.2.1/cmath **** #ifndef __CORRECT_ISO_CPP_MATH_H_PROTO
 318:/usr/include/newlib/c++/9.2.1/cmath ****   inline _GLIBCXX_CONSTEXPR float
 319:/usr/include/newlib/c++/9.2.1/cmath ****   ldexp(float __x, int __exp)
 320:/usr/include/newlib/c++/9.2.1/cmath ****   { return __builtin_ldexpf(__x, __exp); }
 321:/usr/include/newlib/c++/9.2.1/cmath **** 
 322:/usr/include/newlib/c++/9.2.1/cmath ****   inline _GLIBCXX_CONSTEXPR long double
 323:/usr/include/newlib/c++/9.2.1/cmath ****   ldexp(long double __x, int __exp)
 324:/usr/include/newlib/c++/9.2.1/cmath ****   { return __builtin_ldexpl(__x, __exp); }
 325:/usr/include/newlib/c++/9.2.1/cmath **** #endif
 326:/usr/include/newlib/c++/9.2.1/cmath **** 
 327:/usr/include/newlib/c++/9.2.1/cmath ****   template<typename _Tp>
 328:/usr/include/newlib/c++/9.2.1/cmath ****     inline _GLIBCXX_CONSTEXPR
 329:/usr/include/newlib/c++/9.2.1/cmath ****     typename __gnu_cxx::__enable_if<__is_integer<_Tp>::__value, 
 330:/usr/include/newlib/c++/9.2.1/cmath ****                                     double>::__type
 331:/usr/include/newlib/c++/9.2.1/cmath ****     ldexp(_Tp __x, int __exp)
 332:/usr/include/newlib/c++/9.2.1/cmath ****     { return __builtin_ldexp(__x, __exp); }
 333:/usr/include/newlib/c++/9.2.1/cmath **** 
 334:/usr/include/newlib/c++/9.2.1/cmath ****   using ::log;
 335:/usr/include/newlib/c++/9.2.1/cmath **** 
 336:/usr/include/newlib/c++/9.2.1/cmath **** #ifndef __CORRECT_ISO_CPP_MATH_H_PROTO
 337:/usr/include/newlib/c++/9.2.1/cmath ****   inline _GLIBCXX_CONSTEXPR float
 338:/usr/include/newlib/c++/9.2.1/cmath ****   log(float __x)
ARM GAS  /tmp/cc3v7X8N.s 			page 122


 339:/usr/include/newlib/c++/9.2.1/cmath ****   { return __builtin_logf(__x); }
 340:/usr/include/newlib/c++/9.2.1/cmath **** 
 341:/usr/include/newlib/c++/9.2.1/cmath ****   inline _GLIBCXX_CONSTEXPR long double
 342:/usr/include/newlib/c++/9.2.1/cmath ****   log(long double __x)
 343:/usr/include/newlib/c++/9.2.1/cmath ****   { return __builtin_logl(__x); }
 344:/usr/include/newlib/c++/9.2.1/cmath **** #endif
 345:/usr/include/newlib/c++/9.2.1/cmath **** 
 346:/usr/include/newlib/c++/9.2.1/cmath ****   template<typename _Tp>
 347:/usr/include/newlib/c++/9.2.1/cmath ****     inline _GLIBCXX_CONSTEXPR
 348:/usr/include/newlib/c++/9.2.1/cmath ****     typename __gnu_cxx::__enable_if<__is_integer<_Tp>::__value, 
 349:/usr/include/newlib/c++/9.2.1/cmath ****                                     double>::__type
 350:/usr/include/newlib/c++/9.2.1/cmath ****     log(_Tp __x)
 351:/usr/include/newlib/c++/9.2.1/cmath ****     { return __builtin_log(__x); }
 352:/usr/include/newlib/c++/9.2.1/cmath **** 
 353:/usr/include/newlib/c++/9.2.1/cmath ****   using ::log10;
 354:/usr/include/newlib/c++/9.2.1/cmath **** 
 355:/usr/include/newlib/c++/9.2.1/cmath **** #ifndef __CORRECT_ISO_CPP_MATH_H_PROTO
 356:/usr/include/newlib/c++/9.2.1/cmath ****   inline _GLIBCXX_CONSTEXPR float
 357:/usr/include/newlib/c++/9.2.1/cmath ****   log10(float __x)
 358:/usr/include/newlib/c++/9.2.1/cmath ****   { return __builtin_log10f(__x); }
 359:/usr/include/newlib/c++/9.2.1/cmath **** 
 360:/usr/include/newlib/c++/9.2.1/cmath ****   inline _GLIBCXX_CONSTEXPR long double
 361:/usr/include/newlib/c++/9.2.1/cmath ****   log10(long double __x)
 362:/usr/include/newlib/c++/9.2.1/cmath ****   { return __builtin_log10l(__x); }
 363:/usr/include/newlib/c++/9.2.1/cmath **** #endif
 364:/usr/include/newlib/c++/9.2.1/cmath **** 
 365:/usr/include/newlib/c++/9.2.1/cmath ****   template<typename _Tp>
 366:/usr/include/newlib/c++/9.2.1/cmath ****     inline _GLIBCXX_CONSTEXPR
 367:/usr/include/newlib/c++/9.2.1/cmath ****     typename __gnu_cxx::__enable_if<__is_integer<_Tp>::__value,
 368:/usr/include/newlib/c++/9.2.1/cmath ****                                     double>::__type
 369:/usr/include/newlib/c++/9.2.1/cmath ****     log10(_Tp __x)
 370:/usr/include/newlib/c++/9.2.1/cmath ****     { return __builtin_log10(__x); }
 371:/usr/include/newlib/c++/9.2.1/cmath **** 
 372:/usr/include/newlib/c++/9.2.1/cmath ****   using ::modf;
 373:/usr/include/newlib/c++/9.2.1/cmath **** 
 374:/usr/include/newlib/c++/9.2.1/cmath **** #ifndef __CORRECT_ISO_CPP_MATH_H_PROTO
 375:/usr/include/newlib/c++/9.2.1/cmath ****   inline float
 376:/usr/include/newlib/c++/9.2.1/cmath ****   modf(float __x, float* __iptr)
 377:/usr/include/newlib/c++/9.2.1/cmath ****   { return __builtin_modff(__x, __iptr); }
 378:/usr/include/newlib/c++/9.2.1/cmath **** 
 379:/usr/include/newlib/c++/9.2.1/cmath ****   inline long double
 380:/usr/include/newlib/c++/9.2.1/cmath ****   modf(long double __x, long double* __iptr)
 381:/usr/include/newlib/c++/9.2.1/cmath ****   { return __builtin_modfl(__x, __iptr); }
 382:/usr/include/newlib/c++/9.2.1/cmath **** #endif
 383:/usr/include/newlib/c++/9.2.1/cmath **** 
 384:/usr/include/newlib/c++/9.2.1/cmath ****   using ::pow;
 385:/usr/include/newlib/c++/9.2.1/cmath **** 
 386:/usr/include/newlib/c++/9.2.1/cmath **** #ifndef __CORRECT_ISO_CPP_MATH_H_PROTO
 387:/usr/include/newlib/c++/9.2.1/cmath ****   inline _GLIBCXX_CONSTEXPR float
 388:/usr/include/newlib/c++/9.2.1/cmath ****   pow(float __x, float __y)
 389:/usr/include/newlib/c++/9.2.1/cmath ****   { return __builtin_powf(__x, __y); }
 390:/usr/include/newlib/c++/9.2.1/cmath **** 
 391:/usr/include/newlib/c++/9.2.1/cmath ****   inline _GLIBCXX_CONSTEXPR long double
 392:/usr/include/newlib/c++/9.2.1/cmath ****   pow(long double __x, long double __y)
 393:/usr/include/newlib/c++/9.2.1/cmath ****   { return __builtin_powl(__x, __y); }
 394:/usr/include/newlib/c++/9.2.1/cmath **** 
 395:/usr/include/newlib/c++/9.2.1/cmath **** #if __cplusplus < 201103L
ARM GAS  /tmp/cc3v7X8N.s 			page 123


 396:/usr/include/newlib/c++/9.2.1/cmath ****   // _GLIBCXX_RESOLVE_LIB_DEFECTS
 397:/usr/include/newlib/c++/9.2.1/cmath ****   // DR 550. What should the return type of pow(float,int) be?
 398:/usr/include/newlib/c++/9.2.1/cmath ****   inline double
 399:/usr/include/newlib/c++/9.2.1/cmath ****   pow(double __x, int __i)
 400:/usr/include/newlib/c++/9.2.1/cmath ****   { return __builtin_powi(__x, __i); }
 401:/usr/include/newlib/c++/9.2.1/cmath **** 
 402:/usr/include/newlib/c++/9.2.1/cmath ****   inline float
 403:/usr/include/newlib/c++/9.2.1/cmath ****   pow(float __x, int __n)
 404:/usr/include/newlib/c++/9.2.1/cmath ****   { return __builtin_powif(__x, __n); }
 405:/usr/include/newlib/c++/9.2.1/cmath **** 
 406:/usr/include/newlib/c++/9.2.1/cmath ****   inline long double
 407:/usr/include/newlib/c++/9.2.1/cmath ****   pow(long double __x, int __n)
 408:/usr/include/newlib/c++/9.2.1/cmath ****   { return __builtin_powil(__x, __n); }
 409:/usr/include/newlib/c++/9.2.1/cmath **** #endif
 410:/usr/include/newlib/c++/9.2.1/cmath **** #endif
 411:/usr/include/newlib/c++/9.2.1/cmath **** 
 412:/usr/include/newlib/c++/9.2.1/cmath ****   template<typename _Tp, typename _Up>
 413:/usr/include/newlib/c++/9.2.1/cmath ****     inline _GLIBCXX_CONSTEXPR
 414:/usr/include/newlib/c++/9.2.1/cmath ****     typename __gnu_cxx::__promote_2<_Tp, _Up>::__type
 415:/usr/include/newlib/c++/9.2.1/cmath ****     pow(_Tp __x, _Up __y)
 416:/usr/include/newlib/c++/9.2.1/cmath ****     {
 417:/usr/include/newlib/c++/9.2.1/cmath ****       typedef typename __gnu_cxx::__promote_2<_Tp, _Up>::__type __type;
 418:/usr/include/newlib/c++/9.2.1/cmath ****       return pow(__type(__x), __type(__y));
 419:/usr/include/newlib/c++/9.2.1/cmath ****     }
 420:/usr/include/newlib/c++/9.2.1/cmath **** 
 421:/usr/include/newlib/c++/9.2.1/cmath ****   using ::sin;
 422:/usr/include/newlib/c++/9.2.1/cmath **** 
 423:/usr/include/newlib/c++/9.2.1/cmath **** #ifndef __CORRECT_ISO_CPP_MATH_H_PROTO
 424:/usr/include/newlib/c++/9.2.1/cmath ****   inline _GLIBCXX_CONSTEXPR float
 425:/usr/include/newlib/c++/9.2.1/cmath ****   sin(float __x)
 426:/usr/include/newlib/c++/9.2.1/cmath ****   { return __builtin_sinf(__x); }
 4073              		.loc 19 426 26 view .LVU904
 4074 0064 B0EE680A 		vmov.f32	s0, s17
 4075              	.LBE1496:
 4076              	.LBE1495:
 315:../../libdaisy/src/hid/disp/display.h ****         start_y = -sin(start_angle_rad) * radius;
 4077              		.loc 4 315 9 view .LVU905
 4078 0068 F8EE679A 		vcvt.f32.u32	s19, s15
 4079              	.LBB1499:
 4080              	.LBB1497:
 4081              		.loc 19 426 26 view .LVU906
 4082 006c FFF7FEFF 		bl	sinf
 4083              	.LVL293:
 4084 0070 F0EE408A 		vmov.f32	s17, s0
 4085              	.LVL294:
 4086              		.loc 19 426 26 view .LVU907
 4087              	.LBE1497:
 4088              	.LBE1499:
 4089              	.LBB1500:
 4090              	.LBB1501:
 185:/usr/include/newlib/c++/9.2.1/cmath **** 
 4091              		.loc 19 185 26 view .LVU908
 4092 0074 B0EE4A0A 		vmov.f32	s0, s20
 4093 0078 FFF7FEFF 		bl	cosf
 4094              	.LVL295:
 4095 007c B0EE409A 		vmov.f32	s18, s0
 4096              	.LBE1501:
ARM GAS  /tmp/cc3v7X8N.s 			page 124


 4097              	.LBE1500:
 4098              	.LBB1503:
 4099              	.LBB1504:
 4100              		.loc 19 426 26 view .LVU909
 4101 0080 B0EE4A0A 		vmov.f32	s0, s20
 4102 0084 FFF7FEFF 		bl	sinf
 4103              	.LVL296:
 4104              	.LBE1504:
 4105              	.LBE1503:
 316:../../libdaisy/src/hid/disp/display.h ****         end_x   = cos(end_angle_rad) * radius;
 4106              		.loc 4 316 9 view .LVU910
 4107 0088 68EEE98A 		vnmul.f32	s17, s17, s19
 318:../../libdaisy/src/hid/disp/display.h **** 
 4108              		.loc 4 318 9 view .LVU911
 4109 008c 20EE690A 		vnmul.f32	s0, s0, s19
 315:../../libdaisy/src/hid/disp/display.h ****         start_y = -sin(start_angle_rad) * radius;
 4110              		.loc 4 315 9 view .LVU912
 4111 0090 29EE888A 		vmul.f32	s16, s19, s16
 4112              	.LVL297:
 4113              	.LBB1506:
 4114              	.LBI1495:
 425:/usr/include/newlib/c++/9.2.1/cmath ****   { return __builtin_sinf(__x); }
 4115              		.loc 19 425 3 is_stmt 1 view .LVU913
 4116              	.LBB1498:
 4117              		.loc 19 426 5 view .LVU914
 4118              		.loc 19 426 5 is_stmt 0 view .LVU915
 4119              	.LBE1498:
 4120              	.LBE1506:
 4121              	.LBB1507:
 4122              	.LBI1500:
 184:/usr/include/newlib/c++/9.2.1/cmath ****   { return __builtin_cosf(__x); }
 4123              		.loc 19 184 3 is_stmt 1 view .LVU916
 4124              	.LBB1502:
 185:/usr/include/newlib/c++/9.2.1/cmath **** 
 4125              		.loc 19 185 5 view .LVU917
 185:/usr/include/newlib/c++/9.2.1/cmath **** 
 4126              		.loc 19 185 5 is_stmt 0 view .LVU918
 4127              	.LBE1502:
 4128              	.LBE1507:
 317:../../libdaisy/src/hid/disp/display.h ****         end_y   = -sin(end_angle_rad) * radius;
 4129              		.loc 4 317 9 view .LVU919
 4130 0094 29EE899A 		vmul.f32	s18, s19, s18
 4131              	.LVL298:
 4132              	.LBB1508:
 4133              	.LBI1503:
 425:/usr/include/newlib/c++/9.2.1/cmath ****   { return __builtin_sinf(__x); }
 4134              		.loc 19 425 3 is_stmt 1 view .LVU920
 4135              	.LBB1505:
 4136              		.loc 19 426 5 view .LVU921
 4137              		.loc 19 426 5 is_stmt 0 view .LVU922
 4138              	.LBE1505:
 4139              	.LBE1508:
 322:../../libdaisy/src/hid/disp/display.h ****            < 2.0f)
 4140              		.loc 4 322 25 view .LVU923
 4141 0098 70EE687A 		vsub.f32	s15, s0, s17
 321:../../libdaisy/src/hid/disp/display.h ****                + (end_y - start_y) * (end_y - start_y)
 4142              		.loc 4 321 9 view .LVU924
ARM GAS  /tmp/cc3v7X8N.s 			page 125


 4143 009c F0EE006A 		vmov.f32	s13, #2.0e+0
 321:../../libdaisy/src/hid/disp/display.h ****                + (end_y - start_y) * (end_y - start_y)
 4144              		.loc 4 321 19 view .LVU925
 4145 00a0 39EE487A 		vsub.f32	s14, s18, s16
 322:../../libdaisy/src/hid/disp/display.h ****            < 2.0f)
 4146              		.loc 4 322 36 view .LVU926
 4147 00a4 67EEA77A 		vmul.f32	s15, s15, s15
 322:../../libdaisy/src/hid/disp/display.h ****            < 2.0f)
 4148              		.loc 4 322 16 view .LVU927
 4149 00a8 E7EE077A 		vfma.f32	s15, s14, s14
 321:../../libdaisy/src/hid/disp/display.h ****                + (end_y - start_y) * (end_y - start_y)
 4150              		.loc 4 321 9 view .LVU928
 4151 00ac F4EEE67A 		vcmpe.f32	s15, s13
 4152 00b0 F1EE10FA 		vmrs	APSR_nzcv, FPSCR
 4153 00b4 06D5     		bpl	.L320
 325:../../libdaisy/src/hid/disp/display.h ****                 circle = true;
 4154              		.loc 4 325 13 view .LVU929
 4155 00b6 159B     		ldr	r3, [sp, #84]
 4156 00b8 B42B     		cmp	r3, #180
 4157 00ba 40F3EE80 		ble	.L261
 326:../../libdaisy/src/hid/disp/display.h ****             else
 4158              		.loc 4 326 17 view .LVU930
 4159 00be 4FF0010E 		mov	lr, #1
 4160 00c2 01E0     		b	.L264
 4161              	.L320:
 304:../../libdaisy/src/hid/disp/display.h **** 
 4162              		.loc 4 304 14 view .LVU931
 4163 00c4 4FF0000E 		mov	lr, #0
 4164              	.L264:
 4165              	.LVL299:
 302:../../libdaisy/src/hid/disp/display.h **** 
 4166              		.loc 4 302 9 view .LVU932
 4167 00c8 0126     		movs	r6, #1
 334:../../libdaisy/src/hid/disp/display.h **** 
 4168              		.loc 4 334 17 view .LVU933
 4169 00ca C4F10103 		rsb	r3, r4, #1
 302:../../libdaisy/src/hid/disp/display.h **** 
 4170              		.loc 4 302 9 view .LVU934
 4171 00ce 3A46     		mov	r2, r7
 332:../../libdaisy/src/hid/disp/display.h ****         t_y = 0;
 4172              		.loc 4 332 9 view .LVU935
 4173 00d0 6042     		rsbs	r0, r4, #0
 4174              	.LVL300:
 334:../../libdaisy/src/hid/disp/display.h **** 
 4175              		.loc 4 334 17 view .LVU936
 4176 00d2 B340     		lsls	r3, r3, r6
 4177              	.LVL301:
 333:../../libdaisy/src/hid/disp/display.h ****         err = 2 - 2 * radius;
 4178              		.loc 4 333 9 view .LVU937
 4179 00d4 0024     		movs	r4, #0
 4180              	.LVL302:
 302:../../libdaisy/src/hid/disp/display.h **** 
 4181              		.loc 4 302 9 view .LVU938
 4182 00d6 3146     		mov	r1, r6
 4183 00d8 3746     		mov	r7, r6
 4184              	.LVL303:
 302:../../libdaisy/src/hid/disp/display.h **** 
ARM GAS  /tmp/cc3v7X8N.s 			page 126


 4185              		.loc 4 302 9 view .LVU939
 4186 00da 9446     		mov	ip, r2
 4187 00dc 0196     		str	r6, [sp, #4]
 4188              	.LVL304:
 4189              	.L290:
 338:../../libdaisy/src/hid/disp/display.h ****             {
 4190              		.loc 4 338 13 view .LVU940
 4191 00de BEF1000F 		cmp	lr, #0
 4192 00e2 6AD1     		bne	.L266
 343:../../libdaisy/src/hid/disp/display.h ****                 t_exy  = end_x * t_y;
 4193              		.loc 4 343 34 view .LVU941
 4194 00e4 4242     		rsbs	r2, r0, #0
 340:../../libdaisy/src/hid/disp/display.h ****                 t_syx  = start_y * t_x;
 4195              		.loc 4 340 17 view .LVU942
 4196 00e6 06EE904A 		vmov	s13, r4	@ int
 342:../../libdaisy/src/hid/disp/display.h ****                 t_synx = start_y * -t_x;
 4197              		.loc 4 342 34 view .LVU943
 4198 00ea 6142     		rsbs	r1, r4, #0
 4199              	.LVL305:
 343:../../libdaisy/src/hid/disp/display.h ****                 t_exy  = end_x * t_y;
 4200              		.loc 4 343 34 view .LVU944
 4201 00ec 07EE102A 		vmov	s14, r2	@ int
 340:../../libdaisy/src/hid/disp/display.h ****                 t_syx  = start_y * t_x;
 4202              		.loc 4 340 17 view .LVU945
 4203 00f0 F8EEE66A 		vcvt.f32.s32	s13, s13
 342:../../libdaisy/src/hid/disp/display.h ****                 t_synx = start_y * -t_x;
 4204              		.loc 4 342 34 view .LVU946
 4205 00f4 07EE901A 		vmov	s15, r1	@ int
 349:../../libdaisy/src/hid/disp/display.h ****                 {
 4206              		.loc 4 349 17 view .LVU947
 4207 00f8 159A     		ldr	r2, [sp, #84]
 343:../../libdaisy/src/hid/disp/display.h ****                 t_exy  = end_x * t_y;
 4208              		.loc 4 343 34 view .LVU948
 4209 00fa B8EEC77A 		vcvt.f32.s32	s14, s14
 340:../../libdaisy/src/hid/disp/display.h ****                 t_syx  = start_y * t_x;
 4210              		.loc 4 340 17 view .LVU949
 4211 00fe 66EE884A 		vmul.f32	s9, s13, s16
 4212              	.LVL306:
 349:../../libdaisy/src/hid/disp/display.h ****                 {
 4213              		.loc 4 349 17 view .LVU950
 4214 0102 B42A     		cmp	r2, #180
 344:../../libdaisy/src/hid/disp/display.h ****                 t_eyx  = end_y * t_x;
 4215              		.loc 4 344 17 view .LVU951
 4216 0104 26EE896A 		vmul.f32	s12, s13, s18
 341:../../libdaisy/src/hid/disp/display.h ****                 t_sxny = start_x * -t_y;
 4217              		.loc 4 341 17 view .LVU952
 4218 0108 06EE900A 		vmov	s13, r0	@ int
 343:../../libdaisy/src/hid/disp/display.h ****                 t_exy  = end_x * t_y;
 4219              		.loc 4 343 17 view .LVU953
 4220 010c 27EE284A 		vmul.f32	s8, s14, s17
 342:../../libdaisy/src/hid/disp/display.h ****                 t_synx = start_y * -t_x;
 4221              		.loc 4 342 34 view .LVU954
 4222 0110 F8EEE77A 		vcvt.f32.s32	s15, s15
 341:../../libdaisy/src/hid/disp/display.h ****                 t_sxny = start_x * -t_y;
 4223              		.loc 4 341 17 view .LVU955
 4224 0114 F8EEE66A 		vcvt.f32.s32	s13, s13
 351:../../libdaisy/src/hid/disp/display.h ****                     d2 = (t_sxy - t_syx < 0 || t_exy - t_eyx > 0);
ARM GAS  /tmp/cc3v7X8N.s 			page 127


 4225              		.loc 4 351 33 view .LVU956
 4226 0118 74EEC43A 		vsub.f32	s7, s9, s8
 342:../../libdaisy/src/hid/disp/display.h ****                 t_synx = start_y * -t_x;
 4227              		.loc 4 342 17 view .LVU957
 4228 011c 67EE885A 		vmul.f32	s11, s15, s16
 341:../../libdaisy/src/hid/disp/display.h ****                 t_sxny = start_x * -t_y;
 4229              		.loc 4 341 17 view .LVU958
 4230 0120 26EEA85A 		vmul.f32	s10, s13, s17
 4231              	.LVL307:
 346:../../libdaisy/src/hid/disp/display.h ****                 t_eynx = end_y * -t_x;
 4232              		.loc 4 346 17 view .LVU959
 4233 0124 67EE897A 		vmul.f32	s15, s15, s18
 347:../../libdaisy/src/hid/disp/display.h **** 
 4234              		.loc 4 347 17 view .LVU960
 4235 0128 27EE007A 		vmul.f32	s14, s14, s0
 345:../../libdaisy/src/hid/disp/display.h ****                 t_exny = end_x * -t_y;
 4236              		.loc 4 345 17 view .LVU961
 4237 012c 66EE806A 		vmul.f32	s13, s13, s0
 4238              	.LVL308:
 351:../../libdaisy/src/hid/disp/display.h ****                     d2 = (t_sxy - t_syx < 0 || t_exy - t_eyx > 0);
 4239              		.loc 4 351 46 view .LVU962
 4240 0130 F5EEC03A 		vcmpe.f32	s7, #0
 349:../../libdaisy/src/hid/disp/display.h ****                 {
 4241              		.loc 4 349 17 view .LVU963
 4242 0134 40F3DC80 		ble	.L267
 351:../../libdaisy/src/hid/disp/display.h ****                     d2 = (t_sxy - t_syx < 0 || t_exy - t_eyx > 0);
 4243              		.loc 4 351 46 view .LVU964
 4244 0138 F1EE10FA 		vmrs	APSR_nzcv, FPSCR
 4245 013c 00F14D81 		bmi	.L293
 351:../../libdaisy/src/hid/disp/display.h ****                     d2 = (t_sxy - t_syx < 0 || t_exy - t_eyx > 0);
 4246              		.loc 4 351 55 discriminator 2 view .LVU965
 4247 0140 76EE473A 		vsub.f32	s7, s12, s14
 352:../../libdaisy/src/hid/disp/display.h ****                     d3 = (t_sxny - t_syx < 0 || t_exny - t_eyx > 0);
 4248              		.loc 4 352 33 discriminator 2 view .LVU966
 4249 0144 74EEC54A 		vsub.f32	s9, s9, s10
 4250              	.LVL309:
 351:../../libdaisy/src/hid/disp/display.h ****                     d2 = (t_sxy - t_syx < 0 || t_exy - t_eyx > 0);
 4251              		.loc 4 351 46 discriminator 2 view .LVU967
 4252 0148 F5EEC03A 		vcmpe.f32	s7, #0
 4253 014c F1EE10FA 		vmrs	APSR_nzcv, FPSCR
 352:../../libdaisy/src/hid/disp/display.h ****                     d3 = (t_sxny - t_syx < 0 || t_exny - t_eyx > 0);
 4254              		.loc 4 352 45 discriminator 2 view .LVU968
 4255 0150 F5EEC04A 		vcmpe.f32	s9, #0
 351:../../libdaisy/src/hid/disp/display.h ****                     d2 = (t_sxy - t_syx < 0 || t_exy - t_eyx > 0);
 4256              		.loc 4 351 46 discriminator 2 view .LVU969
 4257 0154 CCBF     		ite	gt
 4258 0156 0122     		movgt	r2, #1
 4259 0158 0022     		movle	r2, #0
 352:../../libdaisy/src/hid/disp/display.h ****                     d3 = (t_sxny - t_syx < 0 || t_exny - t_eyx > 0);
 4260              		.loc 4 352 45 discriminator 2 view .LVU970
 4261 015a F1EE10FA 		vmrs	APSR_nzcv, FPSCR
 351:../../libdaisy/src/hid/disp/display.h ****                     d2 = (t_sxy - t_syx < 0 || t_exy - t_eyx > 0);
 4262              		.loc 4 351 46 discriminator 2 view .LVU971
 4263 015e 0192     		str	r2, [sp, #4]
 4264              	.LVL310:
 352:../../libdaisy/src/hid/disp/display.h ****                     d3 = (t_sxny - t_syx < 0 || t_exny - t_eyx > 0);
 4265              		.loc 4 352 45 discriminator 2 view .LVU972
ARM GAS  /tmp/cc3v7X8N.s 			page 128


 4266 0160 00F14581 		bmi	.L294
 4267              	.L334:
 352:../../libdaisy/src/hid/disp/display.h ****                     d3 = (t_sxny - t_syx < 0 || t_exny - t_eyx > 0);
 4268              		.loc 4 352 54 discriminator 2 view .LVU973
 4269 0164 36EE666A 		vsub.f32	s12, s12, s13
 4270              	.LVL311:
 353:../../libdaisy/src/hid/disp/display.h ****                     d4 = (t_sxny - t_synx < 0 || t_exny - t_eynx > 0);
 4271              		.loc 4 353 34 discriminator 2 view .LVU974
 4272 0168 35EEC55A 		vsub.f32	s10, s11, s10
 4273              	.LVL312:
 352:../../libdaisy/src/hid/disp/display.h ****                     d3 = (t_sxny - t_syx < 0 || t_exny - t_eyx > 0);
 4274              		.loc 4 352 45 discriminator 2 view .LVU975
 4275 016c B5EEC06A 		vcmpe.f32	s12, #0
 4276 0170 F1EE10FA 		vmrs	APSR_nzcv, FPSCR
 353:../../libdaisy/src/hid/disp/display.h ****                     d4 = (t_sxny - t_synx < 0 || t_exny - t_eynx > 0);
 4277              		.loc 4 353 46 discriminator 2 view .LVU976
 4278 0174 B5EEC05A 		vcmpe.f32	s10, #0
 352:../../libdaisy/src/hid/disp/display.h ****                     d3 = (t_sxny - t_syx < 0 || t_exny - t_eyx > 0);
 4279              		.loc 4 352 45 discriminator 2 view .LVU977
 4280 0178 CCBF     		ite	gt
 4281 017a 0121     		movgt	r1, #1
 4282 017c 0021     		movle	r1, #0
 4283              	.LVL313:
 353:../../libdaisy/src/hid/disp/display.h ****                     d4 = (t_sxny - t_synx < 0 || t_exny - t_eynx > 0);
 4284              		.loc 4 353 46 discriminator 2 view .LVU978
 4285 017e F1EE10FA 		vmrs	APSR_nzcv, FPSCR
 4286 0182 00F13D81 		bmi	.L295
 4287              	.L335:
 353:../../libdaisy/src/hid/disp/display.h ****                     d4 = (t_sxny - t_synx < 0 || t_exny - t_eynx > 0);
 4288              		.loc 4 353 56 discriminator 2 view .LVU979
 4289 0186 77EEE66A 		vsub.f32	s13, s15, s13
 4290              	.LVL314:
 353:../../libdaisy/src/hid/disp/display.h ****                     d4 = (t_sxny - t_synx < 0 || t_exny - t_eynx > 0);
 4291              		.loc 4 353 46 discriminator 2 view .LVU980
 4292 018a F5EEC06A 		vcmpe.f32	s13, #0
 4293 018e F1EE10FA 		vmrs	APSR_nzcv, FPSCR
 4294 0192 CCBF     		ite	gt
 4295 0194 0126     		movgt	r6, #1
 4296              	.LVL315:
 353:../../libdaisy/src/hid/disp/display.h ****                     d4 = (t_sxny - t_synx < 0 || t_exny - t_eynx > 0);
 4297              		.loc 4 353 46 discriminator 2 view .LVU981
 4298 0196 0026     		movle	r6, #0
 4299              	.L270:
 4300              	.LVL316:
 354:../../libdaisy/src/hid/disp/display.h ****                 }
 4301              		.loc 4 354 34 discriminator 6 view .LVU982
 4302 0198 75EEC45A 		vsub.f32	s11, s11, s8
 4303              	.LVL317:
 354:../../libdaisy/src/hid/disp/display.h ****                 }
 4304              		.loc 4 354 47 discriminator 6 view .LVU983
 4305 019c F5EEC05A 		vcmpe.f32	s11, #0
 4306 01a0 F1EE10FA 		vmrs	APSR_nzcv, FPSCR
 4307 01a4 00F11781 		bmi	.L296
 4308              	.L326:
 361:../../libdaisy/src/hid/disp/display.h ****                 }
 4309              		.loc 4 361 57 discriminator 1 view .LVU984
 4310 01a8 77EEC77A 		vsub.f32	s15, s15, s14
ARM GAS  /tmp/cc3v7X8N.s 			page 129


 4311              	.LVL318:
 361:../../libdaisy/src/hid/disp/display.h ****                 }
 4312              		.loc 4 361 47 discriminator 1 view .LVU985
 4313 01ac F5EEC07A 		vcmpe.f32	s15, #0
 4314 01b0 F1EE10FA 		vmrs	APSR_nzcv, FPSCR
 4315 01b4 CCBF     		ite	gt
 4316 01b6 0127     		movgt	r7, #1
 4317              	.LVL319:
 361:../../libdaisy/src/hid/disp/display.h ****                 }
 4318              		.loc 4 361 47 discriminator 1 view .LVU986
 4319 01b8 0027     		movle	r7, #0
 4320              	.LVL320:
 4321              	.L266:
 365:../../libdaisy/src/hid/disp/display.h ****                 ((ChildType*)(this))
 4322              		.loc 4 365 13 view .LVU987
 4323 01ba 019A     		ldr	r2, [sp, #4]
 4324 01bc F2B1     		cbz	r2, .L278
 366:../../libdaisy/src/hid/disp/display.h ****                     ->ChildType::DrawPixel(x - t_x, y + t_y, on);
 4325              		.loc 4 366 17 view .LVU988
 4326 01be ACEB0009 		sub	r9, ip, r0
 4327 01c2 04EB0805 		add	r5, r4, r8
 4328              	.LVL321:
 4329              	.LBB1509:
 4330              	.LBI1509:
  41:../../libdaisy/src/hid/disp/oled_display.h ****     {
 4331              		.loc 3 41 10 is_stmt 1 view .LVU989
 4332              	.LBB1510:
 4333              	.LBI1510:
 239:../../libdaisy/src/dev/oled_ssd130x.h ****     {
 4334              		.loc 17 239 10 view .LVU990
 4335              	.LBB1511:
 241:../../libdaisy/src/dev/oled_ssd130x.h ****             return;
 4336              		.loc 17 241 9 is_stmt 0 view .LVU991
 4337 01c6 B9F17F0F 		cmp	r9, #127
 4338 01ca 17D8     		bhi	.L278
 4339 01cc 3F2D     		cmp	r5, #63
 4340 01ce 15D8     		bhi	.L278
 244:../../libdaisy/src/dev/oled_ssd130x.h ****         else
 4341              		.loc 17 244 28 view .LVU992
 4342 01d0 4FEAD50A 		lsr	r10, r5, #3
 244:../../libdaisy/src/dev/oled_ssd130x.h ****         else
 4343              		.loc 17 244 48 view .LVU993
 4344 01d4 4FF0010B 		mov	fp, #1
 244:../../libdaisy/src/dev/oled_ssd130x.h ****         else
 4345              		.loc 17 244 54 view .LVU994
 4346 01d8 05F00705 		and	r5, r5, #7
 4347              	.LVL322:
 243:../../libdaisy/src/dev/oled_ssd130x.h ****             buffer_[x + (y / 8) * width] |= (1 << (y % 8));
 4348              		.loc 17 243 9 view .LVU995
 4349 01dc 029A     		ldr	r2, [sp, #8]
 244:../../libdaisy/src/dev/oled_ssd130x.h ****         else
 4350              		.loc 17 244 42 view .LVU996
 4351 01de 09EBCA19 		add	r9, r9, r10, lsl #7
 4352              	.LVL323:
 244:../../libdaisy/src/dev/oled_ssd130x.h ****         else
 4353              		.loc 17 244 48 view .LVU997
 4354 01e2 0BFA05F5 		lsl	r5, fp, r5
ARM GAS  /tmp/cc3v7X8N.s 			page 130


 243:../../libdaisy/src/dev/oled_ssd130x.h ****             buffer_[x + (y / 8) * width] |= (1 << (y % 8));
 4355              		.loc 17 243 9 view .LVU998
 4356 01e6 002A     		cmp	r2, #0
 4357 01e8 00F0C280 		beq	.L279
 244:../../libdaisy/src/dev/oled_ssd130x.h ****         else
 4358              		.loc 17 244 13 view .LVU999
 4359 01ec 039A     		ldr	r2, [sp, #12]
 4360 01ee 9144     		add	r9, r9, r2
 244:../../libdaisy/src/dev/oled_ssd130x.h ****         else
 4361              		.loc 17 244 42 view .LVU1000
 4362 01f0 99F814B0 		ldrb	fp, [r9, #20]	@ zero_extendqisi2
 4363 01f4 45EA0B05 		orr	r5, r5, fp
 244:../../libdaisy/src/dev/oled_ssd130x.h ****         else
 4364              		.loc 17 244 13 view .LVU1001
 4365 01f8 89F81450 		strb	r5, [r9, #20]
 4366              	.LVL324:
 4367              	.L278:
 244:../../libdaisy/src/dev/oled_ssd130x.h ****         else
 4368              		.loc 17 244 13 view .LVU1002
 4369              	.LBE1511:
 4370              	.LBE1510:
 4371              	.LBE1509:
 368:../../libdaisy/src/hid/disp/display.h ****                 ((ChildType*)(this))
 4372              		.loc 4 368 13 view .LVU1003
 4373 01fc F1B1     		cbz	r1, .L280
 4374              	.L333:
 369:../../libdaisy/src/hid/disp/display.h ****                     ->ChildType::DrawPixel(x + t_x, y + t_y, on);
 4375              		.loc 4 369 17 view .LVU1004
 4376 01fe 00EB0C09 		add	r9, r0, ip
 4377 0202 04EB0805 		add	r5, r4, r8
 4378              	.LVL325:
 4379              	.LBB1516:
 4380              	.LBI1516:
  41:../../libdaisy/src/hid/disp/oled_display.h ****     {
 4381              		.loc 3 41 10 is_stmt 1 view .LVU1005
 4382              	.LBB1517:
 4383              	.LBI1517:
 239:../../libdaisy/src/dev/oled_ssd130x.h ****     {
 4384              		.loc 17 239 10 view .LVU1006
 4385              	.LBB1518:
 241:../../libdaisy/src/dev/oled_ssd130x.h ****             return;
 4386              		.loc 17 241 9 is_stmt 0 view .LVU1007
 4387 0206 B9F17F0F 		cmp	r9, #127
 4388 020a 17D8     		bhi	.L280
 4389 020c 3F2D     		cmp	r5, #63
 4390 020e 15D8     		bhi	.L280
 244:../../libdaisy/src/dev/oled_ssd130x.h ****         else
 4391              		.loc 17 244 28 view .LVU1008
 4392 0210 4FEAD50A 		lsr	r10, r5, #3
 244:../../libdaisy/src/dev/oled_ssd130x.h ****         else
 4393              		.loc 17 244 48 view .LVU1009
 4394 0214 4FF0010B 		mov	fp, #1
 244:../../libdaisy/src/dev/oled_ssd130x.h ****         else
 4395              		.loc 17 244 54 view .LVU1010
 4396 0218 05F00705 		and	r5, r5, #7
 4397              	.LVL326:
 243:../../libdaisy/src/dev/oled_ssd130x.h ****             buffer_[x + (y / 8) * width] |= (1 << (y % 8));
ARM GAS  /tmp/cc3v7X8N.s 			page 131


 4398              		.loc 17 243 9 view .LVU1011
 4399 021c 029A     		ldr	r2, [sp, #8]
 244:../../libdaisy/src/dev/oled_ssd130x.h ****         else
 4400              		.loc 17 244 42 view .LVU1012
 4401 021e 09EBCA19 		add	r9, r9, r10, lsl #7
 4402              	.LVL327:
 244:../../libdaisy/src/dev/oled_ssd130x.h ****         else
 4403              		.loc 17 244 48 view .LVU1013
 4404 0222 0BFA05F5 		lsl	r5, fp, r5
 243:../../libdaisy/src/dev/oled_ssd130x.h ****             buffer_[x + (y / 8) * width] |= (1 << (y % 8));
 4405              		.loc 17 243 9 view .LVU1014
 4406 0226 002A     		cmp	r2, #0
 4407 0228 00F08E80 		beq	.L281
 244:../../libdaisy/src/dev/oled_ssd130x.h ****         else
 4408              		.loc 17 244 13 view .LVU1015
 4409 022c 039A     		ldr	r2, [sp, #12]
 4410 022e 9144     		add	r9, r9, r2
 244:../../libdaisy/src/dev/oled_ssd130x.h ****         else
 4411              		.loc 17 244 42 view .LVU1016
 4412 0230 99F814B0 		ldrb	fp, [r9, #20]	@ zero_extendqisi2
 4413 0234 45EA0B05 		orr	r5, r5, fp
 244:../../libdaisy/src/dev/oled_ssd130x.h ****         else
 4414              		.loc 17 244 13 view .LVU1017
 4415 0238 89F81450 		strb	r5, [r9, #20]
 4416              	.LVL328:
 4417              	.L280:
 244:../../libdaisy/src/dev/oled_ssd130x.h ****         else
 4418              		.loc 17 244 13 view .LVU1018
 4419              	.LBE1518:
 4420              	.LBE1517:
 4421              	.LBE1516:
 371:../../libdaisy/src/hid/disp/display.h ****                 ((ChildType*)(this))
 4422              		.loc 4 371 13 view .LVU1019
 4423 023c EEB1     		cbz	r6, .L282
 4424              	.L332:
 372:../../libdaisy/src/hid/disp/display.h ****                     ->ChildType::DrawPixel(x + t_x, y - t_y, on);
 4425              		.loc 4 372 17 view .LVU1020
 4426 023e 00EB0C09 		add	r9, r0, ip
 4427 0242 A8EB0405 		sub	r5, r8, r4
 4428              	.LVL329:
 4429              	.LBB1523:
 4430              	.LBI1523:
  41:../../libdaisy/src/hid/disp/oled_display.h ****     {
 4431              		.loc 3 41 10 is_stmt 1 view .LVU1021
 4432              	.LBB1524:
 4433              	.LBI1524:
 239:../../libdaisy/src/dev/oled_ssd130x.h ****     {
 4434              		.loc 17 239 10 view .LVU1022
 4435              	.LBB1525:
 241:../../libdaisy/src/dev/oled_ssd130x.h ****             return;
 4436              		.loc 17 241 9 is_stmt 0 view .LVU1023
 4437 0246 B9F17F0F 		cmp	r9, #127
 4438 024a 16D8     		bhi	.L282
 4439 024c 3F2D     		cmp	r5, #63
 4440 024e 14D8     		bhi	.L282
 244:../../libdaisy/src/dev/oled_ssd130x.h ****         else
 4441              		.loc 17 244 28 view .LVU1024
ARM GAS  /tmp/cc3v7X8N.s 			page 132


 4442 0250 4FEAD50A 		lsr	r10, r5, #3
 244:../../libdaisy/src/dev/oled_ssd130x.h ****         else
 4443              		.loc 17 244 48 view .LVU1025
 4444 0254 4FF0010B 		mov	fp, #1
 244:../../libdaisy/src/dev/oled_ssd130x.h ****         else
 4445              		.loc 17 244 54 view .LVU1026
 4446 0258 05F00705 		and	r5, r5, #7
 4447              	.LVL330:
 243:../../libdaisy/src/dev/oled_ssd130x.h ****             buffer_[x + (y / 8) * width] |= (1 << (y % 8));
 4448              		.loc 17 243 9 view .LVU1027
 4449 025c 029A     		ldr	r2, [sp, #8]
 244:../../libdaisy/src/dev/oled_ssd130x.h ****         else
 4450              		.loc 17 244 42 view .LVU1028
 4451 025e 09EBCA19 		add	r9, r9, r10, lsl #7
 4452              	.LVL331:
 244:../../libdaisy/src/dev/oled_ssd130x.h ****         else
 4453              		.loc 17 244 48 view .LVU1029
 4454 0262 0BFA05F5 		lsl	r5, fp, r5
 243:../../libdaisy/src/dev/oled_ssd130x.h ****             buffer_[x + (y / 8) * width] |= (1 << (y % 8));
 4455              		.loc 17 243 9 view .LVU1030
 4456 0266 002A     		cmp	r2, #0
 4457 0268 65D0     		beq	.L283
 244:../../libdaisy/src/dev/oled_ssd130x.h ****         else
 4458              		.loc 17 244 13 view .LVU1031
 4459 026a 039A     		ldr	r2, [sp, #12]
 4460 026c 9144     		add	r9, r9, r2
 244:../../libdaisy/src/dev/oled_ssd130x.h ****         else
 4461              		.loc 17 244 42 view .LVU1032
 4462 026e 99F814B0 		ldrb	fp, [r9, #20]	@ zero_extendqisi2
 4463 0272 45EA0B05 		orr	r5, r5, fp
 244:../../libdaisy/src/dev/oled_ssd130x.h ****         else
 4464              		.loc 17 244 13 view .LVU1033
 4465 0276 89F81450 		strb	r5, [r9, #20]
 4466              	.LVL332:
 4467              	.L282:
 244:../../libdaisy/src/dev/oled_ssd130x.h ****         else
 4468              		.loc 17 244 13 view .LVU1034
 4469              	.LBE1525:
 4470              	.LBE1524:
 4471              	.LBE1523:
 374:../../libdaisy/src/hid/disp/display.h ****                 ((ChildType*)(this))
 4472              		.loc 4 374 13 view .LVU1035
 4473 027a D7B9     		cbnz	r7, .L327
 4474              	.L284:
 4475              	.LVL333:
 379:../../libdaisy/src/hid/disp/display.h ****             {
 4476              		.loc 4 379 13 view .LVU1036
 4477 027c 9C42     		cmp	r4, r3
 4478 027e 16DB     		blt	.L301
 381:../../libdaisy/src/hid/disp/display.h ****                 err = err + (t_y * 2 + 1);
 4479              		.loc 4 381 17 view .LVU1037
 4480 0280 0134     		adds	r4, r4, #1
 4481              	.LVL334:
 382:../../libdaisy/src/hid/disp/display.h ****                 if(-t_x == t_y && e2 <= t_x)
 4482              		.loc 4 382 38 view .LVU1038
 4483 0282 03EB4405 		add	r5, r3, r4, lsl #1
 383:../../libdaisy/src/hid/disp/display.h ****                 {
ARM GAS  /tmp/cc3v7X8N.s 			page 133


 4484              		.loc 4 383 17 view .LVU1039
 4485 0286 C442     		cmn	r4, r0
 382:../../libdaisy/src/hid/disp/display.h ****                 if(-t_x == t_y && e2 <= t_x)
 4486              		.loc 4 382 17 view .LVU1040
 4487 0288 05F10105 		add	r5, r5, #1
 4488              	.LVL335:
 383:../../libdaisy/src/hid/disp/display.h ****                 {
 4489              		.loc 4 383 17 view .LVU1041
 4490 028c 4FD0     		beq	.L328
 4491              	.LVL336:
 4492              	.L286:
 388:../../libdaisy/src/hid/disp/display.h ****             {
 4493              		.loc 4 388 13 view .LVU1042
 4494 028e 9842     		cmp	r0, r3
 4495 0290 08DB     		blt	.L287
 388:../../libdaisy/src/hid/disp/display.h ****             {
 4496              		.loc 4 388 13 view .LVU1043
 4497 0292 2B46     		mov	r3, r5
 4498              	.LVL337:
 4499              	.L288:
 393:../../libdaisy/src/hid/disp/display.h ****     }
 4500              		.loc 4 393 21 is_stmt 1 view .LVU1044
 4501 0294 0028     		cmp	r0, #0
 4502 0296 7FF722AF 		ble	.L290
 4503              	.LVL338:
 4504              	.L261:
 394:../../libdaisy/src/hid/disp/display.h **** 
 4505              		.loc 4 394 5 is_stmt 0 view .LVU1045
 4506 029a 05B0     		add	sp, sp, #20
 4507              		.cfi_remember_state
 4508              		.cfi_def_cfa_offset 60
 4509              		@ sp needed
 4510 029c BDEC068B 		vldm	sp!, {d8-d10}
 4511              		.cfi_restore 84
 4512              		.cfi_restore 85
 4513              		.cfi_restore 82
 4514              		.cfi_restore 83
 4515              		.cfi_restore 80
 4516              		.cfi_restore 81
 4517              		.cfi_def_cfa_offset 36
 4518              	.LVL339:
 394:../../libdaisy/src/hid/disp/display.h **** 
 4519              		.loc 4 394 5 view .LVU1046
 4520 02a0 BDE8F08F 		pop	{r4, r5, r6, r7, r8, r9, r10, fp, pc}
 4521              	.LVL340:
 4522              	.L287:
 4523              		.cfi_restore_state
 390:../../libdaisy/src/hid/disp/display.h ****                 err = err + (t_x * 2 + 1);
 4524              		.loc 4 390 17 view .LVU1047
 4525 02a4 0130     		adds	r0, r0, #1
 4526              	.LVL341:
 391:../../libdaisy/src/hid/disp/display.h ****             }
 4527              		.loc 4 391 38 view .LVU1048
 4528 02a6 05EB4003 		add	r3, r5, r0, lsl #1
 391:../../libdaisy/src/hid/disp/display.h ****             }
 4529              		.loc 4 391 17 view .LVU1049
 4530 02aa 0133     		adds	r3, r3, #1
ARM GAS  /tmp/cc3v7X8N.s 			page 134


 4531              	.LVL342:
 391:../../libdaisy/src/hid/disp/display.h ****             }
 4532              		.loc 4 391 17 view .LVU1050
 4533 02ac F2E7     		b	.L288
 4534              	.LVL343:
 4535              	.L301:
 391:../../libdaisy/src/hid/disp/display.h ****             }
 4536              		.loc 4 391 17 view .LVU1051
 4537 02ae 1D46     		mov	r5, r3
 4538 02b0 EDE7     		b	.L286
 4539              	.LVL344:
 4540              	.L327:
 375:../../libdaisy/src/hid/disp/display.h ****                     ->ChildType::DrawPixel(x - t_x, y - t_y, on);
 4541              		.loc 4 375 17 view .LVU1052
 4542 02b2 ACEB0009 		sub	r9, ip, r0
 4543 02b6 A8EB0405 		sub	r5, r8, r4
 4544              	.LVL345:
 4545              	.LBB1530:
 4546              	.LBI1530:
  41:../../libdaisy/src/hid/disp/oled_display.h ****     {
 4547              		.loc 3 41 10 is_stmt 1 view .LVU1053
 4548              	.LBB1531:
 4549              	.LBI1531:
 239:../../libdaisy/src/dev/oled_ssd130x.h ****     {
 4550              		.loc 17 239 10 view .LVU1054
 4551              	.LBB1532:
 241:../../libdaisy/src/dev/oled_ssd130x.h ****             return;
 4552              		.loc 17 241 9 is_stmt 0 view .LVU1055
 4553 02ba B9F17F0F 		cmp	r9, #127
 4554 02be DDD8     		bhi	.L284
 4555 02c0 3F2D     		cmp	r5, #63
 4556 02c2 DBD8     		bhi	.L284
 244:../../libdaisy/src/dev/oled_ssd130x.h ****         else
 4557              		.loc 17 244 28 view .LVU1056
 4558 02c4 4FEAD50A 		lsr	r10, r5, #3
 244:../../libdaisy/src/dev/oled_ssd130x.h ****         else
 4559              		.loc 17 244 48 view .LVU1057
 4560 02c8 4FF0010B 		mov	fp, #1
 244:../../libdaisy/src/dev/oled_ssd130x.h ****         else
 4561              		.loc 17 244 54 view .LVU1058
 4562 02cc 05F00705 		and	r5, r5, #7
 4563              	.LVL346:
 243:../../libdaisy/src/dev/oled_ssd130x.h ****             buffer_[x + (y / 8) * width] |= (1 << (y % 8));
 4564              		.loc 17 243 9 view .LVU1059
 4565 02d0 029A     		ldr	r2, [sp, #8]
 244:../../libdaisy/src/dev/oled_ssd130x.h ****         else
 4566              		.loc 17 244 42 view .LVU1060
 4567 02d2 09EBCA19 		add	r9, r9, r10, lsl #7
 4568              	.LVL347:
 244:../../libdaisy/src/dev/oled_ssd130x.h ****         else
 4569              		.loc 17 244 48 view .LVU1061
 4570 02d6 0BFA05F5 		lsl	r5, fp, r5
 243:../../libdaisy/src/dev/oled_ssd130x.h ****             buffer_[x + (y / 8) * width] |= (1 << (y % 8));
 4571              		.loc 17 243 9 view .LVU1062
 4572 02da 002A     		cmp	r2, #0
 4573 02dc 3FD0     		beq	.L285
 244:../../libdaisy/src/dev/oled_ssd130x.h ****         else
ARM GAS  /tmp/cc3v7X8N.s 			page 135


 4574              		.loc 17 244 13 view .LVU1063
 4575 02de 039A     		ldr	r2, [sp, #12]
 4576 02e0 9144     		add	r9, r9, r2
 244:../../libdaisy/src/dev/oled_ssd130x.h ****         else
 4577              		.loc 17 244 42 view .LVU1064
 4578 02e2 99F814B0 		ldrb	fp, [r9, #20]	@ zero_extendqisi2
 4579 02e6 45EA0B05 		orr	r5, r5, fp
 244:../../libdaisy/src/dev/oled_ssd130x.h ****         else
 4580              		.loc 17 244 13 view .LVU1065
 4581 02ea 89F81450 		strb	r5, [r9, #20]
 4582 02ee C5E7     		b	.L284
 4583              	.LVL348:
 4584              	.L267:
 244:../../libdaisy/src/dev/oled_ssd130x.h ****         else
 4585              		.loc 17 244 13 view .LVU1066
 4586              	.LBE1532:
 4587              	.LBE1531:
 4588              	.LBE1530:
 358:../../libdaisy/src/hid/disp/display.h ****                     d2 = (t_sxy - t_syx < 0 && t_exy - t_eyx > 0);
 4589              		.loc 4 358 46 view .LVU1067
 4590 02f0 F1EE10FA 		vmrs	APSR_nzcv, FPSCR
 4591 02f4 64D4     		bmi	.L329
 4592 02f6 CDF804E0 		str	lr, [sp, #4]
 4593              	.LVL349:
 4594              	.L271:
 359:../../libdaisy/src/hid/disp/display.h ****                     d3 = (t_sxny - t_syx < 0 && t_exny - t_eyx > 0);
 4595              		.loc 4 359 33 discriminator 6 view .LVU1068
 4596 02fa 74EEC54A 		vsub.f32	s9, s9, s10
 4597              	.LVL350:
 359:../../libdaisy/src/hid/disp/display.h ****                     d3 = (t_sxny - t_syx < 0 && t_exny - t_eyx > 0);
 4598              		.loc 4 359 45 discriminator 6 view .LVU1069
 4599 02fe F5EEC04A 		vcmpe.f32	s9, #0
 4600 0302 F1EE10FA 		vmrs	APSR_nzcv, FPSCR
 4601 0306 51D4     		bmi	.L330
 359:../../libdaisy/src/hid/disp/display.h ****                     d3 = (t_sxny - t_syx < 0 && t_exny - t_eyx > 0);
 4602              		.loc 4 359 45 view .LVU1070
 4603 0308 0021     		movs	r1, #0
 4604              	.LVL351:
 4605              	.L273:
 360:../../libdaisy/src/hid/disp/display.h ****                     d4 = (t_sxny - t_synx < 0 && t_exny - t_eynx > 0);
 4606              		.loc 4 360 34 discriminator 6 view .LVU1071
 4607 030a 35EEC55A 		vsub.f32	s10, s11, s10
 4608              	.LVL352:
 360:../../libdaisy/src/hid/disp/display.h ****                     d4 = (t_sxny - t_synx < 0 && t_exny - t_eynx > 0);
 4609              		.loc 4 360 46 discriminator 6 view .LVU1072
 4610 030e B5EEC05A 		vcmpe.f32	s10, #0
 4611 0312 F1EE10FA 		vmrs	APSR_nzcv, FPSCR
 4612 0316 3FD4     		bmi	.L331
 360:../../libdaisy/src/hid/disp/display.h ****                     d4 = (t_sxny - t_synx < 0 && t_exny - t_eynx > 0);
 4613              		.loc 4 360 46 view .LVU1073
 4614 0318 0026     		movs	r6, #0
 4615              	.LVL353:
 4616              	.L275:
 361:../../libdaisy/src/hid/disp/display.h ****                 }
 4617              		.loc 4 361 34 discriminator 6 view .LVU1074
 4618 031a 75EEC45A 		vsub.f32	s11, s11, s8
 4619              	.LVL354:
ARM GAS  /tmp/cc3v7X8N.s 			page 136


 361:../../libdaisy/src/hid/disp/display.h ****                 }
 4620              		.loc 4 361 47 discriminator 6 view .LVU1075
 4621 031e F5EEC05A 		vcmpe.f32	s11, #0
 4622 0322 F1EE10FA 		vmrs	APSR_nzcv, FPSCR
 4623 0326 3FF53FAF 		bmi	.L326
 361:../../libdaisy/src/hid/disp/display.h ****                 }
 4624              		.loc 4 361 47 view .LVU1076
 4625 032a 0027     		movs	r7, #0
 4626              	.LVL355:
 361:../../libdaisy/src/hid/disp/display.h ****                 }
 4627              		.loc 4 361 47 view .LVU1077
 4628 032c 45E7     		b	.L266
 4629              	.LVL356:
 4630              	.L328:
 383:../../libdaisy/src/hid/disp/display.h ****                 {
 4631              		.loc 4 383 32 discriminator 1 view .LVU1078
 4632 032e 9842     		cmp	r0, r3
 4633 0330 B8DB     		blt	.L287
 385:../../libdaisy/src/hid/disp/display.h ****                 }
 4634              		.loc 4 385 21 view .LVU1079
 4635 0332 0023     		movs	r3, #0
 4636              	.LVL357:
 385:../../libdaisy/src/hid/disp/display.h ****                 }
 4637              		.loc 4 385 21 view .LVU1080
 4638 0334 ABE7     		b	.L286
 4639              	.LVL358:
 4640              	.L283:
 4641              	.LBB1537:
 4642              	.LBB1529:
 4643              	.LBB1528:
 4644              	.LBB1526:
 4645              	.LBI1526:
 239:../../libdaisy/src/dev/oled_ssd130x.h ****     {
 4646              		.loc 17 239 10 is_stmt 1 view .LVU1081
 4647              	.LBB1527:
 246:../../libdaisy/src/dev/oled_ssd130x.h ****     }
 4648              		.loc 17 246 13 is_stmt 0 view .LVU1082
 4649 0336 039A     		ldr	r2, [sp, #12]
 4650 0338 9144     		add	r9, r9, r2
 4651              	.LVL359:
 246:../../libdaisy/src/dev/oled_ssd130x.h ****     }
 4652              		.loc 17 246 42 view .LVU1083
 4653 033a 99F814B0 		ldrb	fp, [r9, #20]	@ zero_extendqisi2
 4654 033e 2BEA0505 		bic	r5, fp, r5
 4655              	.LVL360:
 246:../../libdaisy/src/dev/oled_ssd130x.h ****     }
 4656              		.loc 17 246 13 view .LVU1084
 4657 0342 89F81450 		strb	r5, [r9, #20]
 4658 0346 98E7     		b	.L282
 4659              	.LVL361:
 4660              	.L281:
 246:../../libdaisy/src/dev/oled_ssd130x.h ****     }
 4661              		.loc 17 246 13 view .LVU1085
 4662              	.LBE1527:
 4663              	.LBE1526:
 4664              	.LBE1528:
 4665              	.LBE1529:
ARM GAS  /tmp/cc3v7X8N.s 			page 137


 4666              	.LBE1537:
 4667              	.LBB1538:
 4668              	.LBB1522:
 4669              	.LBB1521:
 4670              	.LBB1519:
 4671              	.LBI1519:
 239:../../libdaisy/src/dev/oled_ssd130x.h ****     {
 4672              		.loc 17 239 10 is_stmt 1 view .LVU1086
 4673              	.LBB1520:
 246:../../libdaisy/src/dev/oled_ssd130x.h ****     }
 4674              		.loc 17 246 13 is_stmt 0 view .LVU1087
 4675 0348 039A     		ldr	r2, [sp, #12]
 4676 034a 9144     		add	r9, r9, r2
 4677              	.LVL362:
 246:../../libdaisy/src/dev/oled_ssd130x.h ****     }
 4678              		.loc 17 246 42 view .LVU1088
 4679 034c 99F814B0 		ldrb	fp, [r9, #20]	@ zero_extendqisi2
 4680 0350 2BEA0505 		bic	r5, fp, r5
 4681              	.LVL363:
 246:../../libdaisy/src/dev/oled_ssd130x.h ****     }
 4682              		.loc 17 246 13 view .LVU1089
 4683 0354 89F81450 		strb	r5, [r9, #20]
 4684              	.LVL364:
 246:../../libdaisy/src/dev/oled_ssd130x.h ****     }
 4685              		.loc 17 246 13 view .LVU1090
 4686              	.LBE1520:
 4687              	.LBE1519:
 4688              	.LBE1521:
 4689              	.LBE1522:
 4690              	.LBE1538:
 371:../../libdaisy/src/hid/disp/display.h ****                 ((ChildType*)(this))
 4691              		.loc 4 371 13 view .LVU1091
 4692 0358 002E     		cmp	r6, #0
 4693 035a 8ED0     		beq	.L282
 4694 035c 6FE7     		b	.L332
 4695              	.LVL365:
 4696              	.L285:
 4697              	.LBB1539:
 4698              	.LBB1536:
 4699              	.LBB1535:
 4700              	.LBB1533:
 4701              	.LBI1533:
 239:../../libdaisy/src/dev/oled_ssd130x.h ****     {
 4702              		.loc 17 239 10 is_stmt 1 view .LVU1092
 4703              	.LBB1534:
 246:../../libdaisy/src/dev/oled_ssd130x.h ****     }
 4704              		.loc 17 246 13 is_stmt 0 view .LVU1093
 4705 035e 039A     		ldr	r2, [sp, #12]
 4706 0360 9144     		add	r9, r9, r2
 4707              	.LVL366:
 246:../../libdaisy/src/dev/oled_ssd130x.h ****     }
 4708              		.loc 17 246 42 view .LVU1094
 4709 0362 99F814B0 		ldrb	fp, [r9, #20]	@ zero_extendqisi2
 4710 0366 2BEA0505 		bic	r5, fp, r5
 4711              	.LVL367:
 246:../../libdaisy/src/dev/oled_ssd130x.h ****     }
 4712              		.loc 17 246 13 view .LVU1095
ARM GAS  /tmp/cc3v7X8N.s 			page 138


 4713 036a 89F81450 		strb	r5, [r9, #20]
 4714 036e 85E7     		b	.L284
 4715              	.LVL368:
 4716              	.L279:
 246:../../libdaisy/src/dev/oled_ssd130x.h ****     }
 4717              		.loc 17 246 13 view .LVU1096
 4718              	.LBE1534:
 4719              	.LBE1533:
 4720              	.LBE1535:
 4721              	.LBE1536:
 4722              	.LBE1539:
 4723              	.LBB1540:
 4724              	.LBB1515:
 4725              	.LBB1514:
 4726              	.LBB1512:
 4727              	.LBI1512:
 239:../../libdaisy/src/dev/oled_ssd130x.h ****     {
 4728              		.loc 17 239 10 is_stmt 1 view .LVU1097
 4729              	.LBB1513:
 246:../../libdaisy/src/dev/oled_ssd130x.h ****     }
 4730              		.loc 17 246 13 is_stmt 0 view .LVU1098
 4731 0370 039A     		ldr	r2, [sp, #12]
 4732 0372 9144     		add	r9, r9, r2
 4733              	.LVL369:
 246:../../libdaisy/src/dev/oled_ssd130x.h ****     }
 4734              		.loc 17 246 42 view .LVU1099
 4735 0374 99F814B0 		ldrb	fp, [r9, #20]	@ zero_extendqisi2
 4736 0378 2BEA0505 		bic	r5, fp, r5
 4737              	.LVL370:
 246:../../libdaisy/src/dev/oled_ssd130x.h ****     }
 4738              		.loc 17 246 13 view .LVU1100
 4739 037c 89F81450 		strb	r5, [r9, #20]
 4740              	.LVL371:
 246:../../libdaisy/src/dev/oled_ssd130x.h ****     }
 4741              		.loc 17 246 13 view .LVU1101
 4742              	.LBE1513:
 4743              	.LBE1512:
 4744              	.LBE1514:
 4745              	.LBE1515:
 4746              	.LBE1540:
 368:../../libdaisy/src/hid/disp/display.h ****                 ((ChildType*)(this))
 4747              		.loc 4 368 13 view .LVU1102
 4748 0380 0029     		cmp	r1, #0
 4749 0382 3FF45BAF 		beq	.L280
 4750 0386 3AE7     		b	.L333
 4751              	.L337:
 4752              		.align	3
 4753              	.L336:
 4754 0388 7A008BFC 		.word	4236968058
 4755 038c FA210940 		.word	1074340346
 4756 0390 00000000 		.word	0
 4757 0394 00806640 		.word	1080459264
 4758              	.LVL372:
 4759              	.L331:
 360:../../libdaisy/src/hid/disp/display.h ****                     d4 = (t_sxny - t_synx < 0 && t_exny - t_eynx > 0);
 4760              		.loc 4 360 56 discriminator 1 view .LVU1103
 4761 0398 77EEE66A 		vsub.f32	s13, s15, s13
ARM GAS  /tmp/cc3v7X8N.s 			page 139


 4762              	.LVL373:
 360:../../libdaisy/src/hid/disp/display.h ****                     d4 = (t_sxny - t_synx < 0 && t_exny - t_eynx > 0);
 4763              		.loc 4 360 46 discriminator 1 view .LVU1104
 4764 039c F5EEC06A 		vcmpe.f32	s13, #0
 4765 03a0 F1EE10FA 		vmrs	APSR_nzcv, FPSCR
 4766 03a4 CCBF     		ite	gt
 4767 03a6 0126     		movgt	r6, #1
 4768              	.LVL374:
 360:../../libdaisy/src/hid/disp/display.h ****                     d4 = (t_sxny - t_synx < 0 && t_exny - t_eynx > 0);
 4769              		.loc 4 360 46 discriminator 1 view .LVU1105
 4770 03a8 0026     		movle	r6, #0
 4771 03aa B6E7     		b	.L275
 4772              	.LVL375:
 4773              	.L330:
 359:../../libdaisy/src/hid/disp/display.h ****                     d3 = (t_sxny - t_syx < 0 && t_exny - t_eyx > 0);
 4774              		.loc 4 359 54 discriminator 1 view .LVU1106
 4775 03ac 36EE666A 		vsub.f32	s12, s12, s13
 4776              	.LVL376:
 359:../../libdaisy/src/hid/disp/display.h ****                     d3 = (t_sxny - t_syx < 0 && t_exny - t_eyx > 0);
 4777              		.loc 4 359 45 discriminator 1 view .LVU1107
 4778 03b0 B5EEC06A 		vcmpe.f32	s12, #0
 4779 03b4 F1EE10FA 		vmrs	APSR_nzcv, FPSCR
 4780 03b8 CCBF     		ite	gt
 4781 03ba 0121     		movgt	r1, #1
 4782 03bc 0021     		movle	r1, #0
 4783 03be A4E7     		b	.L273
 4784              	.LVL377:
 4785              	.L329:
 358:../../libdaisy/src/hid/disp/display.h ****                     d2 = (t_sxy - t_syx < 0 && t_exy - t_eyx > 0);
 4786              		.loc 4 358 55 discriminator 1 view .LVU1108
 4787 03c0 76EE473A 		vsub.f32	s7, s12, s14
 358:../../libdaisy/src/hid/disp/display.h ****                     d2 = (t_sxy - t_syx < 0 && t_exy - t_eyx > 0);
 4788              		.loc 4 358 46 discriminator 1 view .LVU1109
 4789 03c4 F5EEC03A 		vcmpe.f32	s7, #0
 4790 03c8 F1EE10FA 		vmrs	APSR_nzcv, FPSCR
 4791 03cc CCBF     		ite	gt
 4792 03ce 0122     		movgt	r2, #1
 4793 03d0 0022     		movle	r2, #0
 4794 03d2 0192     		str	r2, [sp, #4]
 4795              	.LVL378:
 358:../../libdaisy/src/hid/disp/display.h ****                     d2 = (t_sxy - t_syx < 0 && t_exy - t_eyx > 0);
 4796              		.loc 4 358 46 discriminator 1 view .LVU1110
 4797 03d4 91E7     		b	.L271
 4798              	.LVL379:
 4799              	.L296:
 354:../../libdaisy/src/hid/disp/display.h ****                 }
 4800              		.loc 4 354 47 view .LVU1111
 4801 03d6 0127     		movs	r7, #1
 4802              	.LVL380:
 354:../../libdaisy/src/hid/disp/display.h ****                 }
 4803              		.loc 4 354 47 view .LVU1112
 4804 03d8 EFE6     		b	.L266
 4805              	.LVL381:
 4806              	.L293:
 352:../../libdaisy/src/hid/disp/display.h ****                     d3 = (t_sxny - t_syx < 0 || t_exny - t_eyx > 0);
 4807              		.loc 4 352 33 view .LVU1113
 4808 03da 74EEC54A 		vsub.f32	s9, s9, s10
ARM GAS  /tmp/cc3v7X8N.s 			page 140


 4809              	.LVL382:
 351:../../libdaisy/src/hid/disp/display.h ****                     d2 = (t_sxy - t_syx < 0 || t_exy - t_eyx > 0);
 4810              		.loc 4 351 46 view .LVU1114
 4811 03de 0122     		movs	r2, #1
 4812 03e0 0192     		str	r2, [sp, #4]
 4813              	.LVL383:
 352:../../libdaisy/src/hid/disp/display.h ****                     d3 = (t_sxny - t_syx < 0 || t_exny - t_eyx > 0);
 4814              		.loc 4 352 45 view .LVU1115
 4815 03e2 F5EEC04A 		vcmpe.f32	s9, #0
 4816 03e6 F1EE10FA 		vmrs	APSR_nzcv, FPSCR
 4817 03ea 7FF5BBAE 		bpl	.L334
 4818              	.L294:
 353:../../libdaisy/src/hid/disp/display.h ****                     d4 = (t_sxny - t_synx < 0 || t_exny - t_eynx > 0);
 4819              		.loc 4 353 34 view .LVU1116
 4820 03ee 35EEC55A 		vsub.f32	s10, s11, s10
 4821              	.LVL384:
 352:../../libdaisy/src/hid/disp/display.h ****                     d3 = (t_sxny - t_syx < 0 || t_exny - t_eyx > 0);
 4822              		.loc 4 352 45 view .LVU1117
 4823 03f2 0121     		movs	r1, #1
 4824              	.LVL385:
 353:../../libdaisy/src/hid/disp/display.h ****                     d4 = (t_sxny - t_synx < 0 || t_exny - t_eynx > 0);
 4825              		.loc 4 353 46 view .LVU1118
 4826 03f4 B5EEC05A 		vcmpe.f32	s10, #0
 4827 03f8 F1EE10FA 		vmrs	APSR_nzcv, FPSCR
 4828 03fc 7FF5C3AE 		bpl	.L335
 4829              	.LVL386:
 4830              	.L295:
 353:../../libdaisy/src/hid/disp/display.h ****                     d4 = (t_sxny - t_synx < 0 || t_exny - t_eynx > 0);
 4831              		.loc 4 353 46 view .LVU1119
 4832 0400 0126     		movs	r6, #1
 4833              	.LVL387:
 353:../../libdaisy/src/hid/disp/display.h ****                     d4 = (t_sxny - t_synx < 0 || t_exny - t_eynx > 0);
 4834              		.loc 4 353 46 view .LVU1120
 4835 0402 C9E6     		b	.L270
 4836              	.LVL388:
 4837              	.L262:
 308:../../libdaisy/src/hid/disp/display.h ****             sweep = -sweep;
 4838              		.loc 4 308 13 view .LVU1121
 4839 0404 DDE91423 		ldrd	r2, r3, [sp, #80]
 4840              	.LVL389:
 308:../../libdaisy/src/hid/disp/display.h ****             sweep = -sweep;
 4841              		.loc 4 308 13 view .LVU1122
 4842 0408 1344     		add	r3, r3, r2
 4843              	.LVL390:
 308:../../libdaisy/src/hid/disp/display.h ****             sweep = -sweep;
 4844              		.loc 4 308 13 view .LVU1123
 4845 040a 06EE102A 		vmov	s12, r2	@ int
 4846 040e 1493     		str	r3, [sp, #80]
 4847 0410 159B     		ldr	r3, [sp, #84]
 4848              	.LVL391:
 308:../../libdaisy/src/hid/disp/display.h ****             sweep = -sweep;
 4849              		.loc 4 308 13 view .LVU1124
 4850 0412 5B42     		rsbs	r3, r3, #0
 4851 0414 1593     		str	r3, [sp, #84]
 4852              	.LVL392:
 308:../../libdaisy/src/hid/disp/display.h ****             sweep = -sweep;
 4853              		.loc 4 308 13 view .LVU1125
ARM GAS  /tmp/cc3v7X8N.s 			page 141


 4854 0416 07E6     		b	.L263
 4855              		.cfi_endproc
 4856              	.LFE4833:
 4858              		.section	.text._ZN5daisy25OneBitGraphicsDisplayImplINS_11OledDisplayINS_13SSD130xDriverILj128ELj64
 4859              		.align	1
 4860              		.p2align 2,,3
 4861              		.weak	_ZN5daisy25OneBitGraphicsDisplayImplINS_11OledDisplayINS_13SSD130xDriverILj128ELj64ENS_24SSD
 4862              		.syntax unified
 4863              		.thumb
 4864              		.thumb_func
 4865              		.fpu fpv5-d16
 4867              	_ZN5daisy25OneBitGraphicsDisplayImplINS_11OledDisplayINS_13SSD130xDriverILj128ELj64ENS_24SSD130x4Wi
 4868              	.LVL393:
 4869              	.LFB4832:
 257:../../libdaisy/src/hid/disp/display.h ****                   uint_fast8_t y1,
 4870              		.loc 4 257 10 is_stmt 1 view -0
 4871              		.cfi_startproc
 4872              		@ args = 12, pretend = 0, frame = 24
 4873              		@ frame_needed = 0, uses_anonymous_args = 0
 257:../../libdaisy/src/hid/disp/display.h ****                   uint_fast8_t y1,
 4874              		.loc 4 257 10 is_stmt 0 view .LVU1127
 4875 0000 2DE9F04F 		push	{r4, r5, r6, r7, r8, r9, r10, fp, lr}
 4876              		.cfi_def_cfa_offset 36
 4877              		.cfi_offset 4, -36
 4878              		.cfi_offset 5, -32
 4879              		.cfi_offset 6, -28
 4880              		.cfi_offset 7, -24
 4881              		.cfi_offset 8, -20
 4882              		.cfi_offset 9, -16
 4883              		.cfi_offset 10, -12
 4884              		.cfi_offset 11, -8
 4885              		.cfi_offset 14, -4
 4886 0004 87B0     		sub	sp, sp, #28
 4887              		.cfi_def_cfa_offset 64
 257:../../libdaisy/src/hid/disp/display.h ****                   uint_fast8_t y1,
 4888              		.loc 4 257 10 view .LVU1128
 4889 0006 9DF84860 		ldrb	r6, [sp, #72]	@ zero_extendqisi2
 4890 000a 109C     		ldr	r4, [sp, #64]
 4891 000c 9DF84450 		ldrb	r5, [sp, #68]	@ zero_extendqisi2
 4892 0010 0196     		str	r6, [sp, #4]
 4893              	.LBB1613:
 264:../../libdaisy/src/hid/disp/display.h ****         {
 4894              		.loc 4 264 9 view .LVU1129
 4895 0012 9EB3     		cbz	r6, .L339
 4896              	.LVL394:
 4897              	.LBB1614:
 266:../../libdaisy/src/hid/disp/display.h ****             {
 4898              		.loc 4 266 40 is_stmt 1 view .LVU1130
 4899 0014 9942     		cmp	r1, r3
 4900 0016 2ED8     		bhi	.L338
 4901 0018 9A46     		mov	r10, r3
 4902              	.LVL395:
 4903              	.L342:
 4904              	.LBB1615:
 268:../../libdaisy/src/hid/disp/display.h ****                 {
 4905              		.loc 4 268 44 view .LVU1131
 4906 001a A242     		cmp	r2, r4
ARM GAS  /tmp/cc3v7X8N.s 			page 142


 4907 001c 28D8     		bhi	.L345
 268:../../libdaisy/src/hid/disp/display.h ****                 {
 4908              		.loc 4 268 44 is_stmt 0 view .LVU1132
 4909 001e 7F29     		cmp	r1, #127
 4910 0020 1646     		mov	r6, r2
 4911 0022 94BF     		ite	ls
 4912 0024 0023     		movls	r3, #0
 4913 0026 0123     		movhi	r3, #1
 4914 0028 08E0     		b	.L346
 4915              	.LVL396:
 4916              	.L428:
 4917              	.LBB1616:
 4918              	.LBB1617:
 4919              	.LBB1618:
 244:../../libdaisy/src/dev/oled_ssd130x.h ****         else
 4920              		.loc 17 244 42 view .LVU1133
 4921 002a 9CF81490 		ldrb	r9, [ip, #20]	@ zero_extendqisi2
 4922 002e 4EEA090E 		orr	lr, lr, r9
 244:../../libdaisy/src/dev/oled_ssd130x.h ****         else
 4923              		.loc 17 244 13 view .LVU1134
 4924 0032 8CF814E0 		strb	lr, [ip, #20]
 4925              	.LVL397:
 4926              	.L343:
 244:../../libdaisy/src/dev/oled_ssd130x.h ****         else
 4927              		.loc 17 244 13 view .LVU1135
 4928              	.LBE1618:
 4929              	.LBE1617:
 4930              	.LBE1616:
 268:../../libdaisy/src/hid/disp/display.h ****                 {
 4931              		.loc 4 268 17 is_stmt 1 view .LVU1136
 4932 0036 0136     		adds	r6, r6, #1
 4933              	.LVL398:
 268:../../libdaisy/src/hid/disp/display.h ****                 {
 4934              		.loc 4 268 44 view .LVU1137
 4935 0038 B442     		cmp	r4, r6
 4936 003a 19D3     		bcc	.L345
 4937              	.L346:
 4938              	.LVL399:
 4939              	.LBB1632:
 4940              	.LBI1616:
  41:../../libdaisy/src/hid/disp/oled_display.h ****     {
 4941              		.loc 3 41 10 view .LVU1138
 4942              	.LBB1629:
 4943              	.LBI1617:
 239:../../libdaisy/src/dev/oled_ssd130x.h ****     {
 4944              		.loc 17 239 10 view .LVU1139
 4945              	.LBB1626:
 241:../../libdaisy/src/dev/oled_ssd130x.h ****             return;
 4946              		.loc 17 241 9 is_stmt 0 view .LVU1140
 4947 003c 3F2E     		cmp	r6, #63
 4948 003e FAD8     		bhi	.L343
 241:../../libdaisy/src/dev/oled_ssd130x.h ****             return;
 4949              		.loc 17 241 9 view .LVU1141
 4950 0040 002B     		cmp	r3, #0
 4951 0042 F8D1     		bne	.L343
 4952              	.LVL400:
 4953              	.LBB1619:
ARM GAS  /tmp/cc3v7X8N.s 			page 143


 4954              	.LBI1619:
 239:../../libdaisy/src/dev/oled_ssd130x.h ****     {
 4955              		.loc 17 239 10 is_stmt 1 view .LVU1142
 239:../../libdaisy/src/dev/oled_ssd130x.h ****     {
 4956              		.loc 17 239 10 is_stmt 0 view .LVU1143
 4957              	.LBE1619:
 244:../../libdaisy/src/dev/oled_ssd130x.h ****         else
 4958              		.loc 17 244 28 view .LVU1144
 4959 0044 4FEAD60C 		lsr	ip, r6, #3
 244:../../libdaisy/src/dev/oled_ssd130x.h ****         else
 4960              		.loc 17 244 54 view .LVU1145
 4961 0048 06F0070E 		and	lr, r6, #7
 244:../../libdaisy/src/dev/oled_ssd130x.h ****         else
 4962              		.loc 17 244 48 view .LVU1146
 4963 004c 4FF00109 		mov	r9, #1
 244:../../libdaisy/src/dev/oled_ssd130x.h ****         else
 4964              		.loc 17 244 42 view .LVU1147
 4965 0050 01EBCC1C 		add	ip, r1, ip, lsl #7
 244:../../libdaisy/src/dev/oled_ssd130x.h ****         else
 4966              		.loc 17 244 48 view .LVU1148
 4967 0054 09FA0EFE 		lsl	lr, r9, lr
 244:../../libdaisy/src/dev/oled_ssd130x.h ****         else
 4968              		.loc 17 244 13 view .LVU1149
 4969 0058 8444     		add	ip, ip, r0
 243:../../libdaisy/src/dev/oled_ssd130x.h ****             buffer_[x + (y / 8) * width] |= (1 << (y % 8));
 4970              		.loc 17 243 9 view .LVU1150
 4971 005a 002D     		cmp	r5, #0
 4972 005c E5D1     		bne	.L428
 4973              	.LBB1623:
 4974              	.LBB1620:
 246:../../libdaisy/src/dev/oled_ssd130x.h ****     }
 4975              		.loc 17 246 42 view .LVU1151
 4976 005e 9CF814B0 		ldrb	fp, [ip, #20]	@ zero_extendqisi2
 4977              	.LBE1620:
 4978              	.LBE1623:
 4979              	.LBE1626:
 4980              	.LBE1629:
 4981              	.LBE1632:
 268:../../libdaisy/src/hid/disp/display.h ****                 {
 4982              		.loc 4 268 17 view .LVU1152
 4983 0062 0136     		adds	r6, r6, #1
 4984              	.LVL401:
 4985              	.LBB1633:
 4986              	.LBB1630:
 4987              	.LBB1627:
 4988              	.LBB1624:
 4989              	.LBB1621:
 246:../../libdaisy/src/dev/oled_ssd130x.h ****     }
 4990              		.loc 17 246 42 view .LVU1153
 4991 0064 2BEA0E08 		bic	r8, fp, lr
 4992              	.LBE1621:
 4993              	.LBE1624:
 4994              	.LBE1627:
 4995              	.LBE1630:
 4996              	.LBE1633:
 268:../../libdaisy/src/hid/disp/display.h ****                 {
 4997              		.loc 4 268 44 view .LVU1154
ARM GAS  /tmp/cc3v7X8N.s 			page 144


 4998 0068 B442     		cmp	r4, r6
 4999              	.LBB1634:
 5000              	.LBB1631:
 5001              	.LBB1628:
 5002              	.LBB1625:
 5003              	.LBB1622:
 246:../../libdaisy/src/dev/oled_ssd130x.h ****     }
 5004              		.loc 17 246 13 view .LVU1155
 5005 006a 8CF81480 		strb	r8, [ip, #20]
 5006              	.LVL402:
 246:../../libdaisy/src/dev/oled_ssd130x.h ****     }
 5007              		.loc 17 246 13 view .LVU1156
 5008              	.LBE1622:
 5009              	.LBE1625:
 5010              	.LBE1628:
 5011              	.LBE1631:
 5012              	.LBE1634:
 268:../../libdaisy/src/hid/disp/display.h ****                 {
 5013              		.loc 4 268 17 is_stmt 1 view .LVU1157
 268:../../libdaisy/src/hid/disp/display.h ****                 {
 5014              		.loc 4 268 44 view .LVU1158
 5015 006e E5D2     		bcs	.L346
 5016              	.LVL403:
 5017              	.L345:
 268:../../libdaisy/src/hid/disp/display.h ****                 {
 5018              		.loc 4 268 44 is_stmt 0 view .LVU1159
 5019              	.LBE1615:
 266:../../libdaisy/src/hid/disp/display.h ****             {
 5020              		.loc 4 266 13 is_stmt 1 view .LVU1160
 5021 0070 0131     		adds	r1, r1, #1
 5022              	.LVL404:
 266:../../libdaisy/src/hid/disp/display.h ****             {
 5023              		.loc 4 266 40 view .LVU1161
 5024 0072 8A45     		cmp	r10, r1
 5025 0074 D1D2     		bcs	.L342
 5026              	.LVL405:
 5027              	.L338:
 266:../../libdaisy/src/hid/disp/display.h ****             {
 5028              		.loc 4 266 40 is_stmt 0 view .LVU1162
 5029              	.LBE1614:
 5030              	.LBE1613:
 281:../../libdaisy/src/hid/disp/display.h **** 
 5031              		.loc 4 281 5 view .LVU1163
 5032 0076 07B0     		add	sp, sp, #28
 5033              		.cfi_remember_state
 5034              		.cfi_def_cfa_offset 36
 5035              		@ sp needed
 5036 0078 BDE8F08F 		pop	{r4, r5, r6, r7, r8, r9, r10, fp, pc}
 5037              	.LVL406:
 5038              	.L339:
 5039              		.cfi_restore_state
 5040              	.LBB1635:
 5041              	.LBI1635:
 257:../../libdaisy/src/hid/disp/display.h ****                   uint_fast8_t y1,
 5042              		.loc 4 257 10 is_stmt 1 view .LVU1164
 5043              	.LBB1636:
 5044              	.LBI1636:
ARM GAS  /tmp/cc3v7X8N.s 			page 145


 221:../../libdaisy/src/hid/disp/display.h ****                   uint_fast8_t y1,
 5045              		.loc 4 221 10 view .LVU1165
 5046              	.LBB1637:
 227:../../libdaisy/src/hid/disp/display.h ****         int_fast16_t deltaY = abs((int_fast16_t)y2 - (int_fast16_t)y1);
 5047              		.loc 4 227 52 is_stmt 0 view .LVU1166
 5048 007c A3EB0108 		sub	r8, r3, r1
 227:../../libdaisy/src/hid/disp/display.h ****         int_fast16_t deltaY = abs((int_fast16_t)y2 - (int_fast16_t)y1);
 5049              		.loc 4 227 22 view .LVU1167
 5050 0080 B8F1000F 		cmp	r8, #0
 5051 0084 B8BF     		it	lt
 5052 0086 C8F10008 		rsblt	r8, r8, #0
 5053              	.LVL407:
 229:../../libdaisy/src/hid/disp/display.h ****         int_fast16_t signY  = ((y1 < y2) ? 1 : -1);
 5054              		.loc 4 229 22 view .LVU1168
 5055 008a 9942     		cmp	r1, r3
 5056 008c 80F05481 		bcs	.L429
 5057              	.LVL408:
 5058              	.LBB1638:
 5059              	.LBI1638:
  41:../../libdaisy/src/hid/disp/oled_display.h ****     {
 5060              		.loc 3 41 10 is_stmt 1 view .LVU1169
 5061              	.LBB1639:
 5062              	.LBI1639:
 239:../../libdaisy/src/dev/oled_ssd130x.h ****     {
 5063              		.loc 17 239 10 view .LVU1170
 5064              	.LBB1640:
 241:../../libdaisy/src/dev/oled_ssd130x.h ****             return;
 5065              		.loc 17 241 28 is_stmt 0 view .LVU1171
 5066 0090 3F2A     		cmp	r2, #63
 5067              	.LBE1640:
 5068              	.LBE1639:
 5069              	.LBE1638:
 229:../../libdaisy/src/hid/disp/display.h ****         int_fast16_t signY  = ((y1 < y2) ? 1 : -1);
 5070              		.loc 4 229 22 view .LVU1172
 5071 0092 4FF00109 		mov	r9, #1
 5072              	.LBB1649:
 5073              	.LBB1646:
 5074              	.LBB1643:
 241:../../libdaisy/src/dev/oled_ssd130x.h ****             return;
 5075              		.loc 17 241 28 view .LVU1173
 5076 0096 94BF     		ite	ls
 5077 0098 0026     		movls	r6, #0
 5078 009a 0126     		movhi	r6, #1
 241:../../libdaisy/src/dev/oled_ssd130x.h ****             return;
 5079              		.loc 17 241 14 view .LVU1174
 5080 009c 7F2B     		cmp	r3, #127
 241:../../libdaisy/src/dev/oled_ssd130x.h ****             return;
 5081              		.loc 17 241 28 view .LVU1175
 5082 009e 0296     		str	r6, [sp, #8]
 241:../../libdaisy/src/dev/oled_ssd130x.h ****             return;
 5083              		.loc 17 241 14 view .LVU1176
 5084 00a0 94BF     		ite	ls
 5085 00a2 0027     		movls	r7, #0
 5086 00a4 0127     		movhi	r7, #1
 5087 00a6 0097     		str	r7, [sp]
 241:../../libdaisy/src/dev/oled_ssd130x.h ****             return;
 5088              		.loc 17 241 9 view .LVU1177
ARM GAS  /tmp/cc3v7X8N.s 			page 146


 5089 00a8 DEB9     		cbnz	r6, .L351
 5090 00aa D7B9     		cbnz	r7, .L351
 243:../../libdaisy/src/dev/oled_ssd130x.h ****             buffer_[x + (y / 8) * width] |= (1 << (y % 8));
 5091              		.loc 17 243 9 view .LVU1178
 5092 00ac 002D     		cmp	r5, #0
 5093 00ae 00F05881 		beq	.L349
 5094              	.LVL409:
 5095              	.L432:
 243:../../libdaisy/src/dev/oled_ssd130x.h ****             buffer_[x + (y / 8) * width] |= (1 << (y % 8));
 5096              		.loc 17 243 9 view .LVU1179
 5097 00b2 0026     		movs	r6, #0
 244:../../libdaisy/src/dev/oled_ssd130x.h ****         else
 5098              		.loc 17 244 28 view .LVU1180
 5099 00b4 4FEAD20E 		lsr	lr, r2, #3
 244:../../libdaisy/src/dev/oled_ssd130x.h ****         else
 5100              		.loc 17 244 48 view .LVU1181
 5101 00b8 4FF0010C 		mov	ip, #1
 244:../../libdaisy/src/dev/oled_ssd130x.h ****         else
 5102              		.loc 17 244 54 view .LVU1182
 5103 00bc 02F00707 		and	r7, r2, #7
 244:../../libdaisy/src/dev/oled_ssd130x.h ****         else
 5104              		.loc 17 244 42 view .LVU1183
 5105 00c0 03EBCE1E 		add	lr, r3, lr, lsl #7
 5106 00c4 0296     		str	r6, [sp, #8]
 5107 00c6 0026     		movs	r6, #0
 244:../../libdaisy/src/dev/oled_ssd130x.h ****         else
 5108              		.loc 17 244 48 view .LVU1184
 5109 00c8 0CFA07F7 		lsl	r7, ip, r7
 5110 00cc 0096     		str	r6, [sp]
 244:../../libdaisy/src/dev/oled_ssd130x.h ****         else
 5111              		.loc 17 244 13 view .LVU1185
 5112 00ce 0EEB0006 		add	r6, lr, r0
 244:../../libdaisy/src/dev/oled_ssd130x.h ****         else
 5113              		.loc 17 244 42 view .LVU1186
 5114 00d2 96F814C0 		ldrb	ip, [r6, #20]	@ zero_extendqisi2
 5115 00d6 47EA0C07 		orr	r7, r7, ip
 244:../../libdaisy/src/dev/oled_ssd130x.h ****         else
 5116              		.loc 17 244 13 view .LVU1187
 5117 00da 3775     		strb	r7, [r6, #20]
 5118              	.L348:
 5119              	.LVL410:
 244:../../libdaisy/src/dev/oled_ssd130x.h ****         else
 5120              		.loc 17 244 13 view .LVU1188
 5121              	.LBE1643:
 5122              	.LBE1646:
 5123              	.LBE1649:
 239:../../libdaisy/src/hid/disp/display.h ****         {
 5124              		.loc 4 239 26 is_stmt 1 view .LVU1189
 5125 00dc 9942     		cmp	r1, r3
 5126 00de 00F09781 		beq	.L430
 5127              	.L351:
 5128              	.LVL411:
 227:../../libdaisy/src/hid/disp/display.h ****         int_fast16_t deltaY = abs((int_fast16_t)y2 - (int_fast16_t)y1);
 5129              		.loc 4 227 22 is_stmt 0 view .LVU1190
 5130 00e2 C446     		mov	ip, r8
 5131 00e4 1646     		mov	r6, r2
 5132 00e6 0F46     		mov	r7, r1
ARM GAS  /tmp/cc3v7X8N.s 			page 147


 5133              	.L353:
 5134              	.LVL412:
 5135              	.LBB1650:
 5136              	.LBI1650:
  41:../../libdaisy/src/hid/disp/oled_display.h ****     {
 5137              		.loc 3 41 10 is_stmt 1 view .LVU1191
 5138              	.LBB1651:
 5139              	.LBI1651:
 239:../../libdaisy/src/dev/oled_ssd130x.h ****     {
 5140              		.loc 17 239 10 view .LVU1192
 5141              	.LBB1652:
 241:../../libdaisy/src/dev/oled_ssd130x.h ****             return;
 5142              		.loc 17 241 9 is_stmt 0 view .LVU1193
 5143 00e8 7F2F     		cmp	r7, #127
 5144 00ea 15D8     		bhi	.L354
 5145 00ec 3F2E     		cmp	r6, #63
 5146 00ee 13D8     		bhi	.L354
 244:../../libdaisy/src/dev/oled_ssd130x.h ****         else
 5147              		.loc 17 244 28 view .LVU1194
 5148 00f0 4FEAD60E 		lsr	lr, r6, #3
 244:../../libdaisy/src/dev/oled_ssd130x.h ****         else
 5149              		.loc 17 244 48 view .LVU1195
 5150 00f4 4FF0010B 		mov	fp, #1
 244:../../libdaisy/src/dev/oled_ssd130x.h ****         else
 5151              		.loc 17 244 54 view .LVU1196
 5152 00f8 06F0070A 		and	r10, r6, #7
 244:../../libdaisy/src/dev/oled_ssd130x.h ****         else
 5153              		.loc 17 244 42 view .LVU1197
 5154 00fc 07EBCE1E 		add	lr, r7, lr, lsl #7
 244:../../libdaisy/src/dev/oled_ssd130x.h ****         else
 5155              		.loc 17 244 48 view .LVU1198
 5156 0100 0BFA0AFA 		lsl	r10, fp, r10
 244:../../libdaisy/src/dev/oled_ssd130x.h ****         else
 5157              		.loc 17 244 13 view .LVU1199
 5158 0104 8644     		add	lr, lr, r0
 244:../../libdaisy/src/dev/oled_ssd130x.h ****         else
 5159              		.loc 17 244 42 view .LVU1200
 5160 0106 9EF814B0 		ldrb	fp, [lr, #20]	@ zero_extendqisi2
 243:../../libdaisy/src/dev/oled_ssd130x.h ****             buffer_[x + (y / 8) * width] |= (1 << (y % 8));
 5161              		.loc 17 243 9 view .LVU1201
 5162 010a 002D     		cmp	r5, #0
 5163 010c 00F04581 		beq	.L355
 244:../../libdaisy/src/dev/oled_ssd130x.h ****         else
 5164              		.loc 17 244 42 view .LVU1202
 5165 0110 4AEA0B0A 		orr	r10, r10, fp
 244:../../libdaisy/src/dev/oled_ssd130x.h ****         else
 5166              		.loc 17 244 13 view .LVU1203
 5167 0114 8EF814A0 		strb	r10, [lr, #20]
 5168              	.L354:
 5169              	.LVL413:
 244:../../libdaisy/src/dev/oled_ssd130x.h ****         else
 5170              		.loc 17 244 13 view .LVU1204
 5171              	.LBE1652:
 5172              	.LBE1651:
 5173              	.LBE1650:
 243:../../libdaisy/src/hid/disp/display.h ****             {
 5174              		.loc 4 243 13 view .LVU1205
ARM GAS  /tmp/cc3v7X8N.s 			page 148


 5175 0118 5FEA4C0E 		lsls	lr, ip, #1
 5176              	.LVL414:
 246:../../libdaisy/src/hid/disp/display.h ****             }
 5177              		.loc 4 246 17 view .LVU1206
 5178 011c 18BF     		it	ne
 5179 011e 4F44     		addne	r7, r7, r9
 5180              	.LVL415:
 249:../../libdaisy/src/hid/disp/display.h ****             {
 5181              		.loc 4 249 13 view .LVU1207
 5182 0120 F045     		cmp	r8, lr
 5183 0122 01DD     		ble	.L357
 251:../../libdaisy/src/hid/disp/display.h ****                 y1 += signY;
 5184              		.loc 4 251 17 view .LVU1208
 5185 0124 C444     		add	ip, ip, r8
 5186              	.LVL416:
 252:../../libdaisy/src/hid/disp/display.h ****             }
 5187              		.loc 4 252 17 view .LVU1209
 5188 0126 013E     		subs	r6, r6, #1
 5189              	.LVL417:
 5190              	.L357:
 239:../../libdaisy/src/hid/disp/display.h ****         {
 5191              		.loc 4 239 26 is_stmt 1 view .LVU1210
 5192 0128 BB42     		cmp	r3, r7
 5193 012a DDD1     		bne	.L353
 239:../../libdaisy/src/hid/disp/display.h ****         {
 5194              		.loc 4 239 26 is_stmt 0 view .LVU1211
 5195 012c B242     		cmp	r2, r6
 5196 012e DBD1     		bne	.L353
 5197 0130 0026     		movs	r6, #0
 5198              	.LVL418:
 239:../../libdaisy/src/hid/disp/display.h ****         {
 5199              		.loc 4 239 26 view .LVU1212
 5200 0132 0496     		str	r6, [sp, #16]
 5201              	.LVL419:
 5202              	.L350:
 239:../../libdaisy/src/hid/disp/display.h ****         {
 5203              		.loc 4 239 26 view .LVU1213
 5204              	.LBE1637:
 5205              	.LBE1636:
 5206              	.LBB1663:
 5207              	.LBI1663:
 221:../../libdaisy/src/hid/disp/display.h ****                   uint_fast8_t y1,
 5208              		.loc 4 221 10 is_stmt 1 view .LVU1214
 5209              	.LBB1664:
 228:../../libdaisy/src/hid/disp/display.h ****         int_fast16_t signX  = ((x1 < x2) ? 1 : -1);
 5210              		.loc 4 228 52 is_stmt 0 view .LVU1215
 5211 0134 A4EB0209 		sub	r9, r4, r2
 228:../../libdaisy/src/hid/disp/display.h ****         int_fast16_t signX  = ((x1 < x2) ? 1 : -1);
 5212              		.loc 4 228 22 view .LVU1216
 5213 0138 B9F1000F 		cmp	r9, #0
 5214 013c B8BF     		it	lt
 5215 013e C9F10009 		rsblt	r9, r9, #0
 5216              	.LVL420:
 5217              	.LBB1665:
 5218              	.LBB1666:
 5219              	.LBB1667:
 241:../../libdaisy/src/dev/oled_ssd130x.h ****             return;
ARM GAS  /tmp/cc3v7X8N.s 			page 149


 5220              		.loc 17 241 28 view .LVU1217
 5221 0142 3F2C     		cmp	r4, #63
 5222 0144 94BF     		ite	ls
 5223 0146 0026     		movls	r6, #0
 5224 0148 0126     		movhi	r6, #1
 5225              	.LBE1667:
 5226              	.LBE1666:
 5227              	.LBE1665:
 230:../../libdaisy/src/hid/disp/display.h ****         int_fast16_t error  = deltaX - deltaY;
 5228              		.loc 4 230 22 view .LVU1218
 5229 014a A242     		cmp	r2, r4
 231:../../libdaisy/src/hid/disp/display.h ****         int_fast16_t error2;
 5230              		.loc 4 231 22 view .LVU1219
 5231 014c C9F10008 		rsb	r8, r9, #0
 5232              	.LBB1680:
 5233              	.LBB1675:
 5234              	.LBB1670:
 241:../../libdaisy/src/dev/oled_ssd130x.h ****             return;
 5235              		.loc 17 241 28 view .LVU1220
 5236 0150 0396     		str	r6, [sp, #12]
 5237              	.LBE1670:
 5238              	.LBE1675:
 5239              	.LBE1680:
 230:../../libdaisy/src/hid/disp/display.h ****         int_fast16_t error  = deltaX - deltaY;
 5240              		.loc 4 230 22 view .LVU1221
 5241 0152 C0F03181 		bcc	.L358
 5242              	.LVL421:
 5243              	.LBB1681:
 5244              	.LBI1665:
  41:../../libdaisy/src/hid/disp/oled_display.h ****     {
 5245              		.loc 3 41 10 is_stmt 1 view .LVU1222
 5246              	.LBB1676:
 5247              	.LBI1666:
 239:../../libdaisy/src/dev/oled_ssd130x.h ****     {
 5248              		.loc 17 239 10 view .LVU1223
 5249              	.LBB1671:
 241:../../libdaisy/src/dev/oled_ssd130x.h ****             return;
 5250              		.loc 17 241 9 is_stmt 0 view .LVU1224
 5251 0156 002E     		cmp	r6, #0
 5252 0158 40F05381 		bne	.L393
 5253 015c 009E     		ldr	r6, [sp]
 5254 015e 002E     		cmp	r6, #0
 5255 0160 40F04F81 		bne	.L393
 5256              	.LBE1671:
 5257              	.LBE1676:
 5258              	.LBE1681:
 230:../../libdaisy/src/hid/disp/display.h ****         int_fast16_t error  = deltaX - deltaY;
 5259              		.loc 4 230 22 view .LVU1225
 5260 0164 4FF0FF36 		mov	r6, #-1
 5261 0168 0096     		str	r6, [sp]
 5262              	.LBB1682:
 5263              	.LBB1677:
 5264              	.LBB1672:
 243:../../libdaisy/src/dev/oled_ssd130x.h ****             buffer_[x + (y / 8) * width] |= (1 << (y % 8));
 5265              		.loc 17 243 9 view .LVU1226
 5266 016a 002D     		cmp	r5, #0
 5267 016c 00F02C81 		beq	.L360
ARM GAS  /tmp/cc3v7X8N.s 			page 150


 5268              	.LVL422:
 5269              	.L433:
 243:../../libdaisy/src/dev/oled_ssd130x.h ****             buffer_[x + (y / 8) * width] |= (1 << (y % 8));
 5270              		.loc 17 243 9 view .LVU1227
 5271 0170 0026     		movs	r6, #0
 244:../../libdaisy/src/dev/oled_ssd130x.h ****         else
 5272              		.loc 17 244 28 view .LVU1228
 5273 0172 4FEAD40E 		lsr	lr, r4, #3
 244:../../libdaisy/src/dev/oled_ssd130x.h ****         else
 5274              		.loc 17 244 48 view .LVU1229
 5275 0176 4FF0010C 		mov	ip, #1
 244:../../libdaisy/src/dev/oled_ssd130x.h ****         else
 5276              		.loc 17 244 54 view .LVU1230
 5277 017a 04F00707 		and	r7, r4, #7
 5278 017e 0396     		str	r6, [sp, #12]
 244:../../libdaisy/src/dev/oled_ssd130x.h ****         else
 5279              		.loc 17 244 42 view .LVU1231
 5280 0180 03EBCE16 		add	r6, r3, lr, lsl #7
 244:../../libdaisy/src/dev/oled_ssd130x.h ****         else
 5281              		.loc 17 244 48 view .LVU1232
 5282 0184 0CFA07F7 		lsl	r7, ip, r7
 244:../../libdaisy/src/dev/oled_ssd130x.h ****         else
 5283              		.loc 17 244 13 view .LVU1233
 5284 0188 0644     		add	r6, r6, r0
 244:../../libdaisy/src/dev/oled_ssd130x.h ****         else
 5285              		.loc 17 244 42 view .LVU1234
 5286 018a 96F814C0 		ldrb	ip, [r6, #20]	@ zero_extendqisi2
 5287 018e 47EA0C07 		orr	r7, r7, ip
 244:../../libdaisy/src/dev/oled_ssd130x.h ****         else
 5288              		.loc 17 244 13 view .LVU1235
 5289 0192 3775     		strb	r7, [r6, #20]
 5290              	.L359:
 5291              	.LVL423:
 244:../../libdaisy/src/dev/oled_ssd130x.h ****         else
 5292              		.loc 17 244 13 view .LVU1236
 5293              	.LBE1672:
 5294              	.LBE1677:
 5295              	.LBE1682:
 239:../../libdaisy/src/hid/disp/display.h ****         {
 5296              		.loc 4 239 26 is_stmt 1 view .LVU1237
 5297 0194 A242     		cmp	r2, r4
 5298 0196 00F03E81 		beq	.L431
 5299              	.L362:
 5300              	.LVL424:
 230:../../libdaisy/src/hid/disp/display.h ****         int_fast16_t error  = deltaX - deltaY;
 5301              		.loc 4 230 22 is_stmt 0 view .LVU1238
 5302 019a C446     		mov	ip, r8
 5303 019c 1646     		mov	r6, r2
 5304 019e 1F46     		mov	r7, r3
 5305 01a0 0592     		str	r2, [sp, #20]
 5306              	.LVL425:
 5307              	.L364:
 5308              	.LBB1683:
 5309              	.LBI1683:
  41:../../libdaisy/src/hid/disp/oled_display.h ****     {
 5310              		.loc 3 41 10 is_stmt 1 view .LVU1239
 5311              	.LBB1684:
ARM GAS  /tmp/cc3v7X8N.s 			page 151


 5312              	.LBI1684:
 239:../../libdaisy/src/dev/oled_ssd130x.h ****     {
 5313              		.loc 17 239 10 view .LVU1240
 5314              	.LBB1685:
 241:../../libdaisy/src/dev/oled_ssd130x.h ****             return;
 5315              		.loc 17 241 9 is_stmt 0 view .LVU1241
 5316 01a2 7F2F     		cmp	r7, #127
 5317 01a4 15D8     		bhi	.L365
 5318 01a6 3F2E     		cmp	r6, #63
 5319 01a8 13D8     		bhi	.L365
 244:../../libdaisy/src/dev/oled_ssd130x.h ****         else
 5320              		.loc 17 244 28 view .LVU1242
 5321 01aa 4FEAD60E 		lsr	lr, r6, #3
 244:../../libdaisy/src/dev/oled_ssd130x.h ****         else
 5322              		.loc 17 244 48 view .LVU1243
 5323 01ae 4FF0010B 		mov	fp, #1
 244:../../libdaisy/src/dev/oled_ssd130x.h ****         else
 5324              		.loc 17 244 54 view .LVU1244
 5325 01b2 06F0070A 		and	r10, r6, #7
 244:../../libdaisy/src/dev/oled_ssd130x.h ****         else
 5326              		.loc 17 244 42 view .LVU1245
 5327 01b6 07EBCE1E 		add	lr, r7, lr, lsl #7
 244:../../libdaisy/src/dev/oled_ssd130x.h ****         else
 5328              		.loc 17 244 48 view .LVU1246
 5329 01ba 0BFA0AFA 		lsl	r10, fp, r10
 244:../../libdaisy/src/dev/oled_ssd130x.h ****         else
 5330              		.loc 17 244 13 view .LVU1247
 5331 01be 8644     		add	lr, lr, r0
 244:../../libdaisy/src/dev/oled_ssd130x.h ****         else
 5332              		.loc 17 244 42 view .LVU1248
 5333 01c0 9EF814B0 		ldrb	fp, [lr, #20]	@ zero_extendqisi2
 243:../../libdaisy/src/dev/oled_ssd130x.h ****             buffer_[x + (y / 8) * width] |= (1 << (y % 8));
 5334              		.loc 17 243 9 view .LVU1249
 5335 01c4 002D     		cmp	r5, #0
 5336 01c6 00F0ED80 		beq	.L366
 244:../../libdaisy/src/dev/oled_ssd130x.h ****         else
 5337              		.loc 17 244 42 view .LVU1250
 5338 01ca 4AEA0B0A 		orr	r10, r10, fp
 244:../../libdaisy/src/dev/oled_ssd130x.h ****         else
 5339              		.loc 17 244 13 view .LVU1251
 5340 01ce 8EF814A0 		strb	r10, [lr, #20]
 5341              	.L365:
 5342              	.LVL426:
 244:../../libdaisy/src/dev/oled_ssd130x.h ****         else
 5343              		.loc 17 244 13 view .LVU1252
 5344              	.LBE1685:
 5345              	.LBE1684:
 5346              	.LBE1683:
 243:../../libdaisy/src/hid/disp/display.h ****             {
 5347              		.loc 4 243 13 view .LVU1253
 5348 01d2 B8EB4C0F 		cmp	r8, ip, lsl #1
 242:../../libdaisy/src/hid/disp/display.h ****             if(error2 > -deltaY)
 5349              		.loc 4 242 13 view .LVU1254
 5350 01d6 4FEA4C0E 		lsl	lr, ip, #1
 5351              	.LVL427:
 243:../../libdaisy/src/hid/disp/display.h ****             {
 5352              		.loc 4 243 13 view .LVU1255
ARM GAS  /tmp/cc3v7X8N.s 			page 152


 5353 01da 02DA     		bge	.L367
 245:../../libdaisy/src/hid/disp/display.h ****                 x1 += signX;
 5354              		.loc 4 245 17 view .LVU1256
 5355 01dc ACEB090C 		sub	ip, ip, r9
 5356              	.LVL428:
 246:../../libdaisy/src/hid/disp/display.h ****             }
 5357              		.loc 4 246 17 view .LVU1257
 5358 01e0 013F     		subs	r7, r7, #1
 5359              	.LVL429:
 5360              	.L367:
 249:../../libdaisy/src/hid/disp/display.h ****             {
 5361              		.loc 4 249 13 view .LVU1258
 5362 01e2 BEF1000F 		cmp	lr, #0
 5363 01e6 01D0     		beq	.L368
 252:../../libdaisy/src/hid/disp/display.h ****             }
 5364              		.loc 4 252 17 view .LVU1259
 5365 01e8 009A     		ldr	r2, [sp]
 5366 01ea 1644     		add	r6, r6, r2
 5367              	.LVL430:
 5368              	.L368:
 239:../../libdaisy/src/hid/disp/display.h ****         {
 5369              		.loc 4 239 26 is_stmt 1 view .LVU1260
 5370 01ec BB42     		cmp	r3, r7
 5371 01ee D8D1     		bne	.L364
 239:../../libdaisy/src/hid/disp/display.h ****         {
 5372              		.loc 4 239 26 is_stmt 0 view .LVU1261
 5373 01f0 B442     		cmp	r4, r6
 5374 01f2 D6D1     		bne	.L364
 5375 01f4 059A     		ldr	r2, [sp, #20]
 5376              	.LVL431:
 5377              	.L361:
 239:../../libdaisy/src/hid/disp/display.h ****         {
 5378              		.loc 4 239 26 view .LVU1262
 5379              	.LBE1664:
 5380              	.LBE1663:
 5381              	.LBB1697:
 5382              	.LBI1697:
 221:../../libdaisy/src/hid/disp/display.h ****                   uint_fast8_t y1,
 5383              		.loc 4 221 10 is_stmt 1 view .LVU1263
 5384              	.LBB1698:
 5385              	.LBB1699:
 5386              	.LBB1700:
 5387              	.LBB1701:
 241:../../libdaisy/src/dev/oled_ssd130x.h ****             return;
 5388              		.loc 17 241 14 is_stmt 0 view .LVU1264
 5389 01f6 7F29     		cmp	r1, #127
 5390              	.LBE1701:
 5391              	.LBE1700:
 5392              	.LBE1699:
 227:../../libdaisy/src/hid/disp/display.h ****         int_fast16_t deltaY = abs((int_fast16_t)y2 - (int_fast16_t)y1);
 5393              		.loc 4 227 52 view .LVU1265
 5394 01f8 A1EB030E 		sub	lr, r1, r3
 5395              	.LBB1710:
 5396              	.LBB1707:
 5397              	.LBB1704:
 241:../../libdaisy/src/dev/oled_ssd130x.h ****             return;
 5398              		.loc 17 241 14 view .LVU1266
ARM GAS  /tmp/cc3v7X8N.s 			page 153


 5399 01fc 94BF     		ite	ls
 5400 01fe 4FF00009 		movls	r9, #0
 5401 0202 4FF00109 		movhi	r9, #1
 5402              	.LBE1704:
 5403              	.LBE1707:
 5404              	.LBE1710:
 229:../../libdaisy/src/hid/disp/display.h ****         int_fast16_t signY  = ((y1 < y2) ? 1 : -1);
 5405              		.loc 4 229 22 view .LVU1267
 5406 0206 9942     		cmp	r1, r3
 5407 0208 8CBF     		ite	hi
 5408 020a 4FF00108 		movhi	r8, #1
 5409 020e 4FF0FF38 		movls	r8, #-1
 227:../../libdaisy/src/hid/disp/display.h ****         int_fast16_t deltaY = abs((int_fast16_t)y2 - (int_fast16_t)y1);
 5410              		.loc 4 227 22 view .LVU1268
 5411 0212 BEF1000F 		cmp	lr, #0
 5412 0216 B8BF     		it	lt
 5413 0218 CEF1000E 		rsblt	lr, lr, #0
 5414              	.LVL432:
 5415              	.LBB1711:
 5416              	.LBI1699:
  41:../../libdaisy/src/hid/disp/oled_display.h ****     {
 5417              		.loc 3 41 10 is_stmt 1 view .LVU1269
 5418              	.LBB1708:
 5419              	.LBI1700:
 239:../../libdaisy/src/dev/oled_ssd130x.h ****     {
 5420              		.loc 17 239 10 view .LVU1270
 5421              	.LBB1705:
 241:../../libdaisy/src/dev/oled_ssd130x.h ****             return;
 5422              		.loc 17 241 9 is_stmt 0 view .LVU1271
 5423 021c B9F1000F 		cmp	r9, #0
 5424 0220 13D1     		bne	.L370
 5425 0222 039E     		ldr	r6, [sp, #12]
 5426 0224 8EB9     		cbnz	r6, .L370
 244:../../libdaisy/src/dev/oled_ssd130x.h ****         else
 5427              		.loc 17 244 28 view .LVU1272
 5428 0226 E608     		lsrs	r6, r4, #3
 244:../../libdaisy/src/dev/oled_ssd130x.h ****         else
 5429              		.loc 17 244 48 view .LVU1273
 5430 0228 4FF0010C 		mov	ip, #1
 244:../../libdaisy/src/dev/oled_ssd130x.h ****         else
 5431              		.loc 17 244 54 view .LVU1274
 5432 022c 04F00707 		and	r7, r4, #7
 244:../../libdaisy/src/dev/oled_ssd130x.h ****         else
 5433              		.loc 17 244 42 view .LVU1275
 5434 0230 01EBC616 		add	r6, r1, r6, lsl #7
 244:../../libdaisy/src/dev/oled_ssd130x.h ****         else
 5435              		.loc 17 244 48 view .LVU1276
 5436 0234 0CFA07F7 		lsl	r7, ip, r7
 244:../../libdaisy/src/dev/oled_ssd130x.h ****         else
 5437              		.loc 17 244 13 view .LVU1277
 5438 0238 0644     		add	r6, r6, r0
 244:../../libdaisy/src/dev/oled_ssd130x.h ****         else
 5439              		.loc 17 244 42 view .LVU1278
 5440 023a 96F814C0 		ldrb	ip, [r6, #20]	@ zero_extendqisi2
 243:../../libdaisy/src/dev/oled_ssd130x.h ****             buffer_[x + (y / 8) * width] |= (1 << (y % 8));
 5441              		.loc 17 243 9 view .LVU1279
 5442 023e 002D     		cmp	r5, #0
ARM GAS  /tmp/cc3v7X8N.s 			page 154


 5443 0240 00F0DB80 		beq	.L371
 244:../../libdaisy/src/dev/oled_ssd130x.h ****         else
 5444              		.loc 17 244 42 view .LVU1280
 5445 0244 47EA0C07 		orr	r7, r7, ip
 244:../../libdaisy/src/dev/oled_ssd130x.h ****         else
 5446              		.loc 17 244 13 view .LVU1281
 5447 0248 3775     		strb	r7, [r6, #20]
 5448              	.L370:
 5449              	.LVL433:
 244:../../libdaisy/src/dev/oled_ssd130x.h ****         else
 5450              		.loc 17 244 13 view .LVU1282
 5451              	.LBE1705:
 5452              	.LBE1708:
 5453              	.LBE1711:
 239:../../libdaisy/src/hid/disp/display.h ****         {
 5454              		.loc 4 239 26 is_stmt 1 view .LVU1283
 5455 024a 049E     		ldr	r6, [sp, #16]
 5456 024c 2EBB     		cbnz	r6, .L372
 227:../../libdaisy/src/hid/disp/display.h ****         int_fast16_t deltaY = abs((int_fast16_t)y2 - (int_fast16_t)y1);
 5457              		.loc 4 227 22 is_stmt 0 view .LVU1284
 5458 024e 7746     		mov	r7, lr
 239:../../libdaisy/src/hid/disp/display.h ****         {
 5459              		.loc 4 239 26 view .LVU1285
 5460 0250 2646     		mov	r6, r4
 5461              	.LVL434:
 5462              	.L373:
 5463              	.LBB1712:
 5464              	.LBI1712:
  41:../../libdaisy/src/hid/disp/oled_display.h ****     {
 5465              		.loc 3 41 10 is_stmt 1 view .LVU1286
 5466              	.LBB1713:
 5467              	.LBI1713:
 239:../../libdaisy/src/dev/oled_ssd130x.h ****     {
 5468              		.loc 17 239 10 view .LVU1287
 5469              	.LBB1714:
 241:../../libdaisy/src/dev/oled_ssd130x.h ****             return;
 5470              		.loc 17 241 9 is_stmt 0 view .LVU1288
 5471 0252 7F2B     		cmp	r3, #127
 5472 0254 15D8     		bhi	.L375
 241:../../libdaisy/src/dev/oled_ssd130x.h ****             return;
 5473              		.loc 17 241 9 view .LVU1289
 5474 0256 3F2E     		cmp	r6, #63
 5475 0258 13D8     		bhi	.L375
 244:../../libdaisy/src/dev/oled_ssd130x.h ****         else
 5476              		.loc 17 244 28 view .LVU1290
 5477 025a 4FEAD60C 		lsr	ip, r6, #3
 244:../../libdaisy/src/dev/oled_ssd130x.h ****         else
 5478              		.loc 17 244 48 view .LVU1291
 5479 025e 4FF0010B 		mov	fp, #1
 244:../../libdaisy/src/dev/oled_ssd130x.h ****         else
 5480              		.loc 17 244 54 view .LVU1292
 5481 0262 06F0070A 		and	r10, r6, #7
 244:../../libdaisy/src/dev/oled_ssd130x.h ****         else
 5482              		.loc 17 244 42 view .LVU1293
 5483 0266 03EBCC1C 		add	ip, r3, ip, lsl #7
 244:../../libdaisy/src/dev/oled_ssd130x.h ****         else
 5484              		.loc 17 244 48 view .LVU1294
ARM GAS  /tmp/cc3v7X8N.s 			page 155


 5485 026a 0BFA0AFA 		lsl	r10, fp, r10
 244:../../libdaisy/src/dev/oled_ssd130x.h ****         else
 5486              		.loc 17 244 13 view .LVU1295
 5487 026e 8444     		add	ip, ip, r0
 244:../../libdaisy/src/dev/oled_ssd130x.h ****         else
 5488              		.loc 17 244 42 view .LVU1296
 5489 0270 9CF814B0 		ldrb	fp, [ip, #20]	@ zero_extendqisi2
 243:../../libdaisy/src/dev/oled_ssd130x.h ****             buffer_[x + (y / 8) * width] |= (1 << (y % 8));
 5490              		.loc 17 243 9 view .LVU1297
 5491 0274 002D     		cmp	r5, #0
 5492 0276 00F09A80 		beq	.L376
 244:../../libdaisy/src/dev/oled_ssd130x.h ****         else
 5493              		.loc 17 244 42 view .LVU1298
 5494 027a 4AEA0B0A 		orr	r10, r10, fp
 244:../../libdaisy/src/dev/oled_ssd130x.h ****         else
 5495              		.loc 17 244 13 view .LVU1299
 5496 027e 8CF814A0 		strb	r10, [ip, #20]
 5497              	.L375:
 5498              	.LVL435:
 244:../../libdaisy/src/dev/oled_ssd130x.h ****         else
 5499              		.loc 17 244 13 view .LVU1300
 5500              	.LBE1714:
 5501              	.LBE1713:
 5502              	.LBE1712:
 243:../../libdaisy/src/hid/disp/display.h ****             {
 5503              		.loc 4 243 13 view .LVU1301
 5504 0282 5FEA470C 		lsls	ip, r7, #1
 5505              	.LVL436:
 246:../../libdaisy/src/hid/disp/display.h ****             }
 5506              		.loc 4 246 17 view .LVU1302
 5507 0286 18BF     		it	ne
 5508 0288 4344     		addne	r3, r3, r8
 5509              	.LVL437:
 249:../../libdaisy/src/hid/disp/display.h ****             {
 5510              		.loc 4 249 13 view .LVU1303
 5511 028a E645     		cmp	lr, ip
 5512 028c 01DD     		ble	.L378
 251:../../libdaisy/src/hid/disp/display.h ****                 y1 += signY;
 5513              		.loc 4 251 17 view .LVU1304
 5514 028e 7744     		add	r7, r7, lr
 5515              	.LVL438:
 252:../../libdaisy/src/hid/disp/display.h ****             }
 5516              		.loc 4 252 17 view .LVU1305
 5517 0290 013E     		subs	r6, r6, #1
 5518              	.LVL439:
 5519              	.L378:
 239:../../libdaisy/src/hid/disp/display.h ****         {
 5520              		.loc 4 239 26 is_stmt 1 view .LVU1306
 5521 0292 9942     		cmp	r1, r3
 5522 0294 DDD1     		bne	.L373
 239:../../libdaisy/src/hid/disp/display.h ****         {
 5523              		.loc 4 239 26 is_stmt 0 view .LVU1307
 5524 0296 B442     		cmp	r4, r6
 5525 0298 DBD1     		bne	.L373
 5526              	.LVL440:
 5527              	.L372:
 239:../../libdaisy/src/hid/disp/display.h ****         {
ARM GAS  /tmp/cc3v7X8N.s 			page 156


 5528              		.loc 4 239 26 view .LVU1308
 5529              	.LBE1698:
 5530              	.LBE1697:
 5531              	.LBB1723:
 5532              	.LBI1723:
 221:../../libdaisy/src/hid/disp/display.h ****                   uint_fast8_t y1,
 5533              		.loc 4 221 10 is_stmt 1 view .LVU1309
 5534              	.LBB1724:
 228:../../libdaisy/src/hid/disp/display.h ****         int_fast16_t signX  = ((x1 < x2) ? 1 : -1);
 5535              		.loc 4 228 52 is_stmt 0 view .LVU1310
 5536 029a A2EB040E 		sub	lr, r2, r4
 230:../../libdaisy/src/hid/disp/display.h ****         int_fast16_t error  = deltaX - deltaY;
 5537              		.loc 4 230 22 view .LVU1311
 5538 029e A242     		cmp	r2, r4
 5539 02a0 8CBF     		ite	hi
 5540 02a2 4FF00108 		movhi	r8, #1
 5541 02a6 4FF0FF38 		movls	r8, #-1
 5542              	.LVL441:
 228:../../libdaisy/src/hid/disp/display.h ****         int_fast16_t signX  = ((x1 < x2) ? 1 : -1);
 5543              		.loc 4 228 22 view .LVU1312
 5544 02aa BEF1000F 		cmp	lr, #0
 5545 02ae B8BF     		it	lt
 5546 02b0 CEF1000E 		rsblt	lr, lr, #0
 5547              	.LVL442:
 231:../../libdaisy/src/hid/disp/display.h ****         int_fast16_t error2;
 5548              		.loc 4 231 22 view .LVU1313
 5549 02b4 CEF1000C 		rsb	ip, lr, #0
 5550              	.LVL443:
 5551              	.LBB1725:
 5552              	.LBI1725:
  41:../../libdaisy/src/hid/disp/oled_display.h ****     {
 5553              		.loc 3 41 10 is_stmt 1 view .LVU1314
 5554              	.LBB1726:
 5555              	.LBI1726:
 239:../../libdaisy/src/dev/oled_ssd130x.h ****     {
 5556              		.loc 17 239 10 view .LVU1315
 5557              	.LBB1727:
 241:../../libdaisy/src/dev/oled_ssd130x.h ****             return;
 5558              		.loc 17 241 9 is_stmt 0 view .LVU1316
 5559 02b8 B9F1000F 		cmp	r9, #0
 5560 02bc 0FD1     		bne	.L380
 5561 02be 029B     		ldr	r3, [sp, #8]
 5562 02c0 6BB9     		cbnz	r3, .L380
 244:../../libdaisy/src/dev/oled_ssd130x.h ****         else
 5563              		.loc 17 244 28 view .LVU1317
 5564 02c2 D308     		lsrs	r3, r2, #3
 244:../../libdaisy/src/dev/oled_ssd130x.h ****         else
 5565              		.loc 17 244 54 view .LVU1318
 5566 02c4 02F00707 		and	r7, r2, #7
 244:../../libdaisy/src/dev/oled_ssd130x.h ****         else
 5567              		.loc 17 244 48 view .LVU1319
 5568 02c8 0126     		movs	r6, #1
 244:../../libdaisy/src/dev/oled_ssd130x.h ****         else
 5569              		.loc 17 244 42 view .LVU1320
 5570 02ca 01EBC313 		add	r3, r1, r3, lsl #7
 243:../../libdaisy/src/dev/oled_ssd130x.h ****             buffer_[x + (y / 8) * width] |= (1 << (y % 8));
 5571              		.loc 17 243 9 view .LVU1321
ARM GAS  /tmp/cc3v7X8N.s 			page 157


 5572 02ce 002D     		cmp	r5, #0
 5573 02d0 00F08B80 		beq	.L381
 244:../../libdaisy/src/dev/oled_ssd130x.h ****         else
 5574              		.loc 17 244 13 view .LVU1322
 5575 02d4 0344     		add	r3, r3, r0
 244:../../libdaisy/src/dev/oled_ssd130x.h ****         else
 5576              		.loc 17 244 48 view .LVU1323
 5577 02d6 BE40     		lsls	r6, r6, r7
 244:../../libdaisy/src/dev/oled_ssd130x.h ****         else
 5578              		.loc 17 244 42 view .LVU1324
 5579 02d8 1F7D     		ldrb	r7, [r3, #20]	@ zero_extendqisi2
 5580 02da 3E43     		orrs	r6, r6, r7
 244:../../libdaisy/src/dev/oled_ssd130x.h ****         else
 5581              		.loc 17 244 13 view .LVU1325
 5582 02dc 1E75     		strb	r6, [r3, #20]
 5583              	.L380:
 5584              	.LVL444:
 244:../../libdaisy/src/dev/oled_ssd130x.h ****         else
 5585              		.loc 17 244 13 view .LVU1326
 5586              	.LBE1727:
 5587              	.LBE1726:
 5588              	.LBE1725:
 239:../../libdaisy/src/hid/disp/display.h ****         {
 5589              		.loc 4 239 26 is_stmt 1 view .LVU1327
 5590 02de 019B     		ldr	r3, [sp, #4]
 5591 02e0 002B     		cmp	r3, #0
 5592 02e2 7FF4C8AE 		bne	.L338
 5593 02e6 6646     		mov	r6, ip
 5594 02e8 0B46     		mov	r3, r1
 5595              	.LVL445:
 5596              	.L382:
 5597              	.LBB1732:
 5598              	.LBI1732:
  41:../../libdaisy/src/hid/disp/oled_display.h ****     {
 5599              		.loc 3 41 10 view .LVU1328
 5600              	.LBB1733:
 5601              	.LBI1733:
 239:../../libdaisy/src/dev/oled_ssd130x.h ****     {
 5602              		.loc 17 239 10 view .LVU1329
 5603              	.LBB1734:
 241:../../libdaisy/src/dev/oled_ssd130x.h ****             return;
 5604              		.loc 17 241 9 is_stmt 0 view .LVU1330
 5605 02ea 7F2B     		cmp	r3, #127
 5606 02ec 13D8     		bhi	.L384
 241:../../libdaisy/src/dev/oled_ssd130x.h ****             return;
 5607              		.loc 17 241 9 view .LVU1331
 5608 02ee 3F2C     		cmp	r4, #63
 5609 02f0 11D8     		bhi	.L384
 244:../../libdaisy/src/dev/oled_ssd130x.h ****         else
 5610              		.loc 17 244 28 view .LVU1332
 5611 02f2 E708     		lsrs	r7, r4, #3
 244:../../libdaisy/src/dev/oled_ssd130x.h ****         else
 5612              		.loc 17 244 54 view .LVU1333
 5613 02f4 04F0070A 		and	r10, r4, #7
 244:../../libdaisy/src/dev/oled_ssd130x.h ****         else
 5614              		.loc 17 244 48 view .LVU1334
 5615 02f8 4FF00109 		mov	r9, #1
ARM GAS  /tmp/cc3v7X8N.s 			page 158


 244:../../libdaisy/src/dev/oled_ssd130x.h ****         else
 5616              		.loc 17 244 42 view .LVU1335
 5617 02fc 03EBC717 		add	r7, r3, r7, lsl #7
 243:../../libdaisy/src/dev/oled_ssd130x.h ****             buffer_[x + (y / 8) * width] |= (1 << (y % 8));
 5618              		.loc 17 243 9 view .LVU1336
 5619 0300 002D     		cmp	r5, #0
 5620 0302 40D0     		beq	.L385
 244:../../libdaisy/src/dev/oled_ssd130x.h ****         else
 5621              		.loc 17 244 13 view .LVU1337
 5622 0304 0744     		add	r7, r7, r0
 244:../../libdaisy/src/dev/oled_ssd130x.h ****         else
 5623              		.loc 17 244 48 view .LVU1338
 5624 0306 09FA0AF9 		lsl	r9, r9, r10
 244:../../libdaisy/src/dev/oled_ssd130x.h ****         else
 5625              		.loc 17 244 42 view .LVU1339
 5626 030a 97F814A0 		ldrb	r10, [r7, #20]	@ zero_extendqisi2
 5627 030e 49EA0A09 		orr	r9, r9, r10
 244:../../libdaisy/src/dev/oled_ssd130x.h ****         else
 5628              		.loc 17 244 13 view .LVU1340
 5629 0312 87F81490 		strb	r9, [r7, #20]
 5630              	.L384:
 5631              	.LVL446:
 244:../../libdaisy/src/dev/oled_ssd130x.h ****         else
 5632              		.loc 17 244 13 view .LVU1341
 5633              	.LBE1734:
 5634              	.LBE1733:
 5635              	.LBE1732:
 243:../../libdaisy/src/hid/disp/display.h ****             {
 5636              		.loc 4 243 13 view .LVU1342
 5637 0316 BCEB460F 		cmp	ip, r6, lsl #1
 242:../../libdaisy/src/hid/disp/display.h ****             if(error2 > -deltaY)
 5638              		.loc 4 242 13 view .LVU1343
 5639 031a 4FEA4607 		lsl	r7, r6, #1
 5640              	.LVL447:
 243:../../libdaisy/src/hid/disp/display.h ****             {
 5641              		.loc 4 243 13 view .LVU1344
 5642 031e 02DA     		bge	.L386
 245:../../libdaisy/src/hid/disp/display.h ****                 x1 += signX;
 5643              		.loc 4 245 17 view .LVU1345
 5644 0320 A6EB0E06 		sub	r6, r6, lr
 5645              	.LVL448:
 246:../../libdaisy/src/hid/disp/display.h ****             }
 5646              		.loc 4 246 17 view .LVU1346
 5647 0324 013B     		subs	r3, r3, #1
 5648              	.LVL449:
 5649              	.L386:
 249:../../libdaisy/src/hid/disp/display.h ****             {
 5650              		.loc 4 249 13 view .LVU1347
 5651 0326 07B1     		cbz	r7, .L387
 252:../../libdaisy/src/hid/disp/display.h ****             }
 5652              		.loc 4 252 17 view .LVU1348
 5653 0328 4444     		add	r4, r4, r8
 5654              	.LVL450:
 5655              	.L387:
 239:../../libdaisy/src/hid/disp/display.h ****         {
 5656              		.loc 4 239 26 is_stmt 1 view .LVU1349
 5657 032a 9942     		cmp	r1, r3
ARM GAS  /tmp/cc3v7X8N.s 			page 159


 5658 032c DDD1     		bne	.L382
 239:../../libdaisy/src/hid/disp/display.h ****         {
 5659              		.loc 4 239 26 is_stmt 0 view .LVU1350
 5660 032e A242     		cmp	r2, r4
 5661 0330 DBD1     		bne	.L382
 5662              	.LBE1724:
 5663              	.LBE1723:
 5664              	.LBE1635:
 281:../../libdaisy/src/hid/disp/display.h **** 
 5665              		.loc 4 281 5 view .LVU1351
 5666 0332 07B0     		add	sp, sp, #28
 5667              		.cfi_remember_state
 5668              		.cfi_def_cfa_offset 36
 5669              		@ sp needed
 5670 0334 BDE8F08F 		pop	{r4, r5, r6, r7, r8, r9, r10, fp, pc}
 5671              	.LVL451:
 5672              	.L429:
 5673              		.cfi_restore_state
 5674              	.LBB1754:
 5675              	.LBB1743:
 5676              	.LBB1660:
 5677              	.LBB1657:
  41:../../libdaisy/src/hid/disp/oled_display.h ****     {
 5678              		.loc 3 41 10 is_stmt 1 view .LVU1352
 5679              	.LBB1647:
 239:../../libdaisy/src/dev/oled_ssd130x.h ****     {
 5680              		.loc 17 239 10 view .LVU1353
 5681              	.LBB1644:
 241:../../libdaisy/src/dev/oled_ssd130x.h ****             return;
 5682              		.loc 17 241 14 is_stmt 0 view .LVU1354
 5683 0338 7F2B     		cmp	r3, #127
 5684              	.LBE1644:
 5685              	.LBE1647:
 5686              	.LBE1657:
 229:../../libdaisy/src/hid/disp/display.h ****         int_fast16_t signY  = ((y1 < y2) ? 1 : -1);
 5687              		.loc 4 229 22 view .LVU1355
 5688 033a 4FF0FF39 		mov	r9, #-1
 5689              	.LBB1658:
 5690              	.LBB1648:
 5691              	.LBB1645:
 241:../../libdaisy/src/dev/oled_ssd130x.h ****             return;
 5692              		.loc 17 241 14 view .LVU1356
 5693 033e 94BF     		ite	ls
 5694 0340 0026     		movls	r6, #0
 5695 0342 0126     		movhi	r6, #1
 241:../../libdaisy/src/dev/oled_ssd130x.h ****             return;
 5696              		.loc 17 241 28 view .LVU1357
 5697 0344 3F2A     		cmp	r2, #63
 241:../../libdaisy/src/dev/oled_ssd130x.h ****             return;
 5698              		.loc 17 241 14 view .LVU1358
 5699 0346 0096     		str	r6, [sp]
 241:../../libdaisy/src/dev/oled_ssd130x.h ****             return;
 5700              		.loc 17 241 28 view .LVU1359
 5701 0348 94BF     		ite	ls
 5702 034a 0027     		movls	r7, #0
 5703 034c 0127     		movhi	r7, #1
 5704 034e 0297     		str	r7, [sp, #8]
ARM GAS  /tmp/cc3v7X8N.s 			page 160


 241:../../libdaisy/src/dev/oled_ssd130x.h ****             return;
 5705              		.loc 17 241 9 view .LVU1360
 5706 0350 002E     		cmp	r6, #0
 5707 0352 7FF4C3AE 		bne	.L348
 5708 0356 002F     		cmp	r7, #0
 5709 0358 7FF4C0AE 		bne	.L348
 243:../../libdaisy/src/dev/oled_ssd130x.h ****             buffer_[x + (y / 8) * width] |= (1 << (y % 8));
 5710              		.loc 17 243 9 view .LVU1361
 5711 035c 002D     		cmp	r5, #0
 5712 035e 7FF4A8AE 		bne	.L432
 5713              	.LVL452:
 5714              	.L349:
 5715              	.LBB1641:
 5716              	.LBI1641:
 239:../../libdaisy/src/dev/oled_ssd130x.h ****     {
 5717              		.loc 17 239 10 is_stmt 1 view .LVU1362
 5718              	.LBB1642:
 246:../../libdaisy/src/dev/oled_ssd130x.h ****     }
 5719              		.loc 17 246 28 is_stmt 0 view .LVU1363
 5720 0362 D608     		lsrs	r6, r2, #3
 246:../../libdaisy/src/dev/oled_ssd130x.h ****     }
 5721              		.loc 17 246 49 view .LVU1364
 5722 0364 4FF0010C 		mov	ip, #1
 246:../../libdaisy/src/dev/oled_ssd130x.h ****     }
 5723              		.loc 17 246 55 view .LVU1365
 5724 0368 02F00707 		and	r7, r2, #7
 246:../../libdaisy/src/dev/oled_ssd130x.h ****     }
 5725              		.loc 17 246 13 view .LVU1366
 5726 036c 0295     		str	r5, [sp, #8]
 246:../../libdaisy/src/dev/oled_ssd130x.h ****     }
 5727              		.loc 17 246 42 view .LVU1367
 5728 036e 03EBC616 		add	r6, r3, r6, lsl #7
 246:../../libdaisy/src/dev/oled_ssd130x.h ****     }
 5729              		.loc 17 246 13 view .LVU1368
 5730 0372 0095     		str	r5, [sp]
 246:../../libdaisy/src/dev/oled_ssd130x.h ****     }
 5731              		.loc 17 246 49 view .LVU1369
 5732 0374 0CFA07F7 		lsl	r7, ip, r7
 246:../../libdaisy/src/dev/oled_ssd130x.h ****     }
 5733              		.loc 17 246 13 view .LVU1370
 5734 0378 0644     		add	r6, r6, r0
 246:../../libdaisy/src/dev/oled_ssd130x.h ****     }
 5735              		.loc 17 246 42 view .LVU1371
 5736 037a 96F814C0 		ldrb	ip, [r6, #20]	@ zero_extendqisi2
 5737 037e 2CEA0707 		bic	r7, ip, r7
 246:../../libdaisy/src/dev/oled_ssd130x.h ****     }
 5738              		.loc 17 246 13 view .LVU1372
 5739 0382 3775     		strb	r7, [r6, #20]
 5740 0384 AAE6     		b	.L348
 5741              	.LVL453:
 5742              	.L385:
 246:../../libdaisy/src/dev/oled_ssd130x.h ****     }
 5743              		.loc 17 246 13 view .LVU1373
 5744              	.LBE1642:
 5745              	.LBE1641:
 5746              	.LBE1645:
 5747              	.LBE1648:
ARM GAS  /tmp/cc3v7X8N.s 			page 161


 5748              	.LBE1658:
 5749              	.LBE1660:
 5750              	.LBE1743:
 5751              	.LBB1744:
 5752              	.LBB1741:
 5753              	.LBB1739:
 5754              	.LBB1738:
 5755              	.LBB1737:
 5756              	.LBB1735:
 5757              	.LBI1735:
 239:../../libdaisy/src/dev/oled_ssd130x.h ****     {
 5758              		.loc 17 239 10 is_stmt 1 view .LVU1374
 5759              	.LBB1736:
 246:../../libdaisy/src/dev/oled_ssd130x.h ****     }
 5760              		.loc 17 246 13 is_stmt 0 view .LVU1375
 5761 0386 0744     		add	r7, r7, r0
 246:../../libdaisy/src/dev/oled_ssd130x.h ****     }
 5762              		.loc 17 246 49 view .LVU1376
 5763 0388 09FA0AFA 		lsl	r10, r9, r10
 246:../../libdaisy/src/dev/oled_ssd130x.h ****     }
 5764              		.loc 17 246 42 view .LVU1377
 5765 038c 97F81490 		ldrb	r9, [r7, #20]	@ zero_extendqisi2
 5766 0390 29EA0A09 		bic	r9, r9, r10
 246:../../libdaisy/src/dev/oled_ssd130x.h ****     }
 5767              		.loc 17 246 13 view .LVU1378
 5768 0394 87F81490 		strb	r9, [r7, #20]
 5769 0398 BDE7     		b	.L384
 5770              	.LVL454:
 5771              	.L355:
 246:../../libdaisy/src/dev/oled_ssd130x.h ****     }
 5772              		.loc 17 246 13 view .LVU1379
 5773              	.LBE1736:
 5774              	.LBE1735:
 5775              	.LBE1737:
 5776              	.LBE1738:
 5777              	.LBE1739:
 5778              	.LBE1741:
 5779              	.LBE1744:
 5780              	.LBB1745:
 5781              	.LBB1661:
 5782              	.LBB1659:
 5783              	.LBB1656:
 5784              	.LBB1655:
 5785              	.LBB1653:
 5786              	.LBI1653:
 239:../../libdaisy/src/dev/oled_ssd130x.h ****     {
 5787              		.loc 17 239 10 is_stmt 1 view .LVU1380
 5788              	.LBB1654:
 246:../../libdaisy/src/dev/oled_ssd130x.h ****     }
 5789              		.loc 17 246 42 is_stmt 0 view .LVU1381
 5790 039a 2BEA0A0A 		bic	r10, fp, r10
 246:../../libdaisy/src/dev/oled_ssd130x.h ****     }
 5791              		.loc 17 246 13 view .LVU1382
 5792 039e 8EF814A0 		strb	r10, [lr, #20]
 5793 03a2 B9E6     		b	.L354
 5794              	.LVL455:
 5795              	.L366:
ARM GAS  /tmp/cc3v7X8N.s 			page 162


 246:../../libdaisy/src/dev/oled_ssd130x.h ****     }
 5796              		.loc 17 246 13 view .LVU1383
 5797              	.LBE1654:
 5798              	.LBE1653:
 5799              	.LBE1655:
 5800              	.LBE1656:
 5801              	.LBE1659:
 5802              	.LBE1661:
 5803              	.LBE1745:
 5804              	.LBB1746:
 5805              	.LBB1693:
 5806              	.LBB1690:
 5807              	.LBB1689:
 5808              	.LBB1688:
 5809              	.LBB1686:
 5810              	.LBI1686:
 239:../../libdaisy/src/dev/oled_ssd130x.h ****     {
 5811              		.loc 17 239 10 is_stmt 1 view .LVU1384
 5812              	.LBB1687:
 246:../../libdaisy/src/dev/oled_ssd130x.h ****     }
 5813              		.loc 17 246 42 is_stmt 0 view .LVU1385
 5814 03a4 2BEA0A0A 		bic	r10, fp, r10
 246:../../libdaisy/src/dev/oled_ssd130x.h ****     }
 5815              		.loc 17 246 13 view .LVU1386
 5816 03a8 8EF814A0 		strb	r10, [lr, #20]
 5817 03ac 11E7     		b	.L365
 5818              	.LVL456:
 5819              	.L376:
 246:../../libdaisy/src/dev/oled_ssd130x.h ****     }
 5820              		.loc 17 246 13 view .LVU1387
 5821              	.LBE1687:
 5822              	.LBE1686:
 5823              	.LBE1688:
 5824              	.LBE1689:
 5825              	.LBE1690:
 5826              	.LBE1693:
 5827              	.LBE1746:
 5828              	.LBB1747:
 5829              	.LBB1721:
 5830              	.LBB1719:
 5831              	.LBB1718:
 5832              	.LBB1717:
 5833              	.LBB1715:
 5834              	.LBI1715:
 239:../../libdaisy/src/dev/oled_ssd130x.h ****     {
 5835              		.loc 17 239 10 is_stmt 1 view .LVU1388
 5836              	.LBB1716:
 246:../../libdaisy/src/dev/oled_ssd130x.h ****     }
 5837              		.loc 17 246 42 is_stmt 0 view .LVU1389
 5838 03ae 2BEA0A0A 		bic	r10, fp, r10
 246:../../libdaisy/src/dev/oled_ssd130x.h ****     }
 5839              		.loc 17 246 13 view .LVU1390
 5840 03b2 8CF814A0 		strb	r10, [ip, #20]
 5841 03b6 64E7     		b	.L375
 5842              	.LVL457:
 5843              	.L358:
 246:../../libdaisy/src/dev/oled_ssd130x.h ****     }
ARM GAS  /tmp/cc3v7X8N.s 			page 163


 5844              		.loc 17 246 13 view .LVU1391
 5845              	.LBE1716:
 5846              	.LBE1715:
 5847              	.LBE1717:
 5848              	.LBE1718:
 5849              	.LBE1719:
 5850              	.LBE1721:
 5851              	.LBE1747:
 5852              	.LBB1748:
 5853              	.LBB1694:
 5854              	.LBB1691:
  41:../../libdaisy/src/hid/disp/oled_display.h ****     {
 5855              		.loc 3 41 10 is_stmt 1 view .LVU1392
 5856              	.LBB1678:
 239:../../libdaisy/src/dev/oled_ssd130x.h ****     {
 5857              		.loc 17 239 10 view .LVU1393
 5858              	.LBB1673:
 241:../../libdaisy/src/dev/oled_ssd130x.h ****             return;
 5859              		.loc 17 241 9 is_stmt 0 view .LVU1394
 5860 03b8 3EBB     		cbnz	r6, .L397
 5861 03ba 009E     		ldr	r6, [sp]
 5862 03bc 2EBB     		cbnz	r6, .L397
 5863              	.LBE1673:
 5864              	.LBE1678:
 5865              	.LBE1691:
 230:../../libdaisy/src/hid/disp/display.h ****         int_fast16_t error  = deltaX - deltaY;
 5866              		.loc 4 230 22 view .LVU1395
 5867 03be 0126     		movs	r6, #1
 5868 03c0 0096     		str	r6, [sp]
 5869              	.LBB1692:
 5870              	.LBB1679:
 5871              	.LBB1674:
 243:../../libdaisy/src/dev/oled_ssd130x.h ****             buffer_[x + (y / 8) * width] |= (1 << (y % 8));
 5872              		.loc 17 243 9 view .LVU1396
 5873 03c2 002D     		cmp	r5, #0
 5874 03c4 7FF4D4AE 		bne	.L433
 5875              	.LVL458:
 5876              	.L360:
 5877              	.LBB1668:
 5878              	.LBI1668:
 239:../../libdaisy/src/dev/oled_ssd130x.h ****     {
 5879              		.loc 17 239 10 is_stmt 1 view .LVU1397
 5880              	.LBB1669:
 246:../../libdaisy/src/dev/oled_ssd130x.h ****     }
 5881              		.loc 17 246 28 is_stmt 0 view .LVU1398
 5882 03c8 E608     		lsrs	r6, r4, #3
 246:../../libdaisy/src/dev/oled_ssd130x.h ****     }
 5883              		.loc 17 246 49 view .LVU1399
 5884 03ca 4FF0010C 		mov	ip, #1
 246:../../libdaisy/src/dev/oled_ssd130x.h ****     }
 5885              		.loc 17 246 55 view .LVU1400
 5886 03ce 04F00707 		and	r7, r4, #7
 246:../../libdaisy/src/dev/oled_ssd130x.h ****     }
 5887              		.loc 17 246 13 view .LVU1401
 5888 03d2 0395     		str	r5, [sp, #12]
 246:../../libdaisy/src/dev/oled_ssd130x.h ****     }
 5889              		.loc 17 246 42 view .LVU1402
ARM GAS  /tmp/cc3v7X8N.s 			page 164


 5890 03d4 03EBC616 		add	r6, r3, r6, lsl #7
 246:../../libdaisy/src/dev/oled_ssd130x.h ****     }
 5891              		.loc 17 246 49 view .LVU1403
 5892 03d8 0CFA07F7 		lsl	r7, ip, r7
 246:../../libdaisy/src/dev/oled_ssd130x.h ****     }
 5893              		.loc 17 246 13 view .LVU1404
 5894 03dc 0644     		add	r6, r6, r0
 246:../../libdaisy/src/dev/oled_ssd130x.h ****     }
 5895              		.loc 17 246 42 view .LVU1405
 5896 03de 96F814C0 		ldrb	ip, [r6, #20]	@ zero_extendqisi2
 5897 03e2 2CEA0707 		bic	r7, ip, r7
 246:../../libdaisy/src/dev/oled_ssd130x.h ****     }
 5898              		.loc 17 246 13 view .LVU1406
 5899 03e6 3775     		strb	r7, [r6, #20]
 5900 03e8 D4E6     		b	.L359
 5901              	.LVL459:
 5902              	.L381:
 246:../../libdaisy/src/dev/oled_ssd130x.h ****     }
 5903              		.loc 17 246 13 view .LVU1407
 5904              	.LBE1669:
 5905              	.LBE1668:
 5906              	.LBE1674:
 5907              	.LBE1679:
 5908              	.LBE1692:
 5909              	.LBE1694:
 5910              	.LBE1748:
 5911              	.LBB1749:
 5912              	.LBB1742:
 5913              	.LBB1740:
 5914              	.LBB1731:
 5915              	.LBB1730:
 5916              	.LBB1728:
 5917              	.LBI1728:
 239:../../libdaisy/src/dev/oled_ssd130x.h ****     {
 5918              		.loc 17 239 10 is_stmt 1 view .LVU1408
 5919              	.LBB1729:
 246:../../libdaisy/src/dev/oled_ssd130x.h ****     }
 5920              		.loc 17 246 13 is_stmt 0 view .LVU1409
 5921 03ea 0344     		add	r3, r3, r0
 246:../../libdaisy/src/dev/oled_ssd130x.h ****     }
 5922              		.loc 17 246 49 view .LVU1410
 5923 03ec 06FA07F7 		lsl	r7, r6, r7
 246:../../libdaisy/src/dev/oled_ssd130x.h ****     }
 5924              		.loc 17 246 42 view .LVU1411
 5925 03f0 1E7D     		ldrb	r6, [r3, #20]	@ zero_extendqisi2
 5926 03f2 26EA0706 		bic	r6, r6, r7
 246:../../libdaisy/src/dev/oled_ssd130x.h ****     }
 5927              		.loc 17 246 13 view .LVU1412
 5928 03f6 1E75     		strb	r6, [r3, #20]
 5929 03f8 71E7     		b	.L380
 5930              	.LVL460:
 5931              	.L371:
 246:../../libdaisy/src/dev/oled_ssd130x.h ****     }
 5932              		.loc 17 246 13 view .LVU1413
 5933              	.LBE1729:
 5934              	.LBE1728:
 5935              	.LBE1730:
ARM GAS  /tmp/cc3v7X8N.s 			page 165


 5936              	.LBE1731:
 5937              	.LBE1740:
 5938              	.LBE1742:
 5939              	.LBE1749:
 5940              	.LBB1750:
 5941              	.LBB1722:
 5942              	.LBB1720:
 5943              	.LBB1709:
 5944              	.LBB1706:
 5945              	.LBB1702:
 5946              	.LBI1702:
 239:../../libdaisy/src/dev/oled_ssd130x.h ****     {
 5947              		.loc 17 239 10 is_stmt 1 view .LVU1414
 5948              	.LBB1703:
 246:../../libdaisy/src/dev/oled_ssd130x.h ****     }
 5949              		.loc 17 246 42 is_stmt 0 view .LVU1415
 5950 03fa 2CEA0707 		bic	r7, ip, r7
 246:../../libdaisy/src/dev/oled_ssd130x.h ****     }
 5951              		.loc 17 246 13 view .LVU1416
 5952 03fe 3775     		strb	r7, [r6, #20]
 5953 0400 23E7     		b	.L370
 5954              	.LVL461:
 5955              	.L393:
 246:../../libdaisy/src/dev/oled_ssd130x.h ****     }
 5956              		.loc 17 246 13 view .LVU1417
 5957              	.LBE1703:
 5958              	.LBE1702:
 5959              	.LBE1706:
 5960              	.LBE1709:
 5961              	.LBE1720:
 5962              	.LBE1722:
 5963              	.LBE1750:
 5964              	.LBB1751:
 5965              	.LBB1695:
 230:../../libdaisy/src/hid/disp/display.h ****         int_fast16_t error  = deltaX - deltaY;
 5966              		.loc 4 230 22 view .LVU1418
 5967 0402 4FF0FF36 		mov	r6, #-1
 5968 0406 0096     		str	r6, [sp]
 5969 0408 C4E6     		b	.L359
 5970              	.LVL462:
 5971              	.L397:
 230:../../libdaisy/src/hid/disp/display.h ****         int_fast16_t error  = deltaX - deltaY;
 5972              		.loc 4 230 22 view .LVU1419
 5973 040a 0126     		movs	r6, #1
 5974 040c 0096     		str	r6, [sp]
 5975 040e C4E6     		b	.L362
 5976              	.LVL463:
 5977              	.L430:
 230:../../libdaisy/src/hid/disp/display.h ****         int_fast16_t error  = deltaX - deltaY;
 5978              		.loc 4 230 22 view .LVU1420
 5979              	.LBE1695:
 5980              	.LBE1751:
 5981              	.LBB1752:
 5982              	.LBB1662:
 239:../../libdaisy/src/hid/disp/display.h ****         {
 5983              		.loc 4 239 19 view .LVU1421
 5984 0410 0126     		movs	r6, #1
ARM GAS  /tmp/cc3v7X8N.s 			page 166


 5985 0412 0496     		str	r6, [sp, #16]
 5986 0414 8EE6     		b	.L350
 5987              	.LVL464:
 5988              	.L431:
 239:../../libdaisy/src/hid/disp/display.h ****         {
 5989              		.loc 4 239 19 view .LVU1422
 5990              	.LBE1662:
 5991              	.LBE1752:
 5992              	.LBB1753:
 5993              	.LBB1696:
 239:../../libdaisy/src/hid/disp/display.h ****         {
 5994              		.loc 4 239 33 view .LVU1423
 5995 0416 0126     		movs	r6, #1
 5996 0418 0196     		str	r6, [sp, #4]
 5997 041a ECE6     		b	.L361
 5998              	.LBE1696:
 5999              	.LBE1753:
 6000              	.LBE1754:
 6001              		.cfi_endproc
 6002              	.LFE4832:
 6004              		.section	.text._ZN6filter4InitEfNS_4modeEN5daisy13AnalogControlES2_,"axG",%progbits,_ZN6filter4Ini
 6005              		.align	1
 6006              		.p2align 2,,3
 6007              		.weak	_ZN6filter4InitEfNS_4modeEN5daisy13AnalogControlES2_
 6008              		.syntax unified
 6009              		.thumb
 6010              		.thumb_func
 6011              		.fpu fpv5-d16
 6013              	_ZN6filter4InitEfNS_4modeEN5daisy13AnalogControlES2_:
 6014              	.LVL465:
 6015              	.LFB4233:
  29:Noise.cpp     ****               mode          setMode,
 6016              		.loc 13 29 10 is_stmt 1 view -0
 6017              		.cfi_startproc
 6018              		@ args = 0, pretend = 0, frame = 32
 6019              		@ frame_needed = 0, uses_anonymous_args = 0
  34:Noise.cpp     ****         filterMode = setMode;
 6020              		.loc 13 34 9 view .LVU1425
  29:Noise.cpp     ****               mode          setMode,
 6021              		.loc 13 29 10 is_stmt 0 view .LVU1426
 6022 0000 2DE9F041 		push	{r4, r5, r6, r7, r8, lr}
 6023              		.cfi_def_cfa_offset 24
 6024              		.cfi_offset 4, -24
 6025              		.cfi_offset 5, -20
 6026              		.cfi_offset 6, -16
 6027              		.cfi_offset 7, -12
 6028              		.cfi_offset 8, -8
 6029              		.cfi_offset 14, -4
 6030 0004 1546     		mov	r5, r2
 6031 0006 88B0     		sub	sp, sp, #32
 6032              		.cfi_def_cfa_offset 56
  29:Noise.cpp     ****               mode          setMode,
 6033              		.loc 13 29 10 view .LVU1427
 6034 0008 0746     		mov	r7, r0
 6035 000a 8846     		mov	r8, r1
 6036 000c 1C46     		mov	r4, r3
  37:Noise.cpp     ****         resParam.Init(resKnob, 0, 1, Parameter::LINEAR);
ARM GAS  /tmp/cc3v7X8N.s 			page 167


 6037              		.loc 13 37 25 view .LVU1428
 6038 000e 6E46     		mov	r6, sp
  34:Noise.cpp     ****         filterMode = setMode;
 6039              		.loc 13 34 18 view .LVU1429
 6040 0010 FFF7FEFF 		bl	_ZN7daisysp3Svf4InitEf
 6041              	.LVL466:
  35:Noise.cpp     **** 
 6042              		.loc 13 35 9 is_stmt 1 view .LVU1430
  37:Noise.cpp     ****         resParam.Init(resKnob, 0, 1, Parameter::LINEAR);
 6043              		.loc 13 37 25 is_stmt 0 view .LVU1431
 6044 0014 B3EE040A 		vmov.f32	s0, #2.0e+1
 6045 0018 DFED110A 		vldr.32	s1, .L436
  35:Noise.cpp     **** 
 6046              		.loc 13 35 20 view .LVU1432
 6047 001c 87F84C80 		strb	r8, [r7, #76]
  37:Noise.cpp     ****         resParam.Init(resKnob, 0, 1, Parameter::LINEAR);
 6048              		.loc 13 37 9 is_stmt 1 view .LVU1433
  37:Noise.cpp     ****         resParam.Init(resKnob, 0, 1, Parameter::LINEAR);
 6049              		.loc 13 37 25 is_stmt 0 view .LVU1434
 6050 0020 0FCD     		ldmia	r5!, {r0, r1, r2, r3}
 6051              	.LVL467:
  37:Noise.cpp     ****         resParam.Init(resKnob, 0, 1, Parameter::LINEAR);
 6052              		.loc 13 37 25 view .LVU1435
 6053 0022 0FC6     		stmia	r6!, {r0, r1, r2, r3}
 6054 0024 95E80F00 		ldm	r5, {r0, r1, r2, r3}
 6055 0028 86E80F00 		stm	r6, {r0, r1, r2, r3}
 6056 002c 07F18800 		add	r0, r7, #136
 6057 0030 6946     		mov	r1, sp
 6058 0032 0222     		movs	r2, #2
  38:Noise.cpp     ****     }
 6059              		.loc 13 38 22 view .LVU1436
 6060 0034 6D46     		mov	r5, sp
 6061              	.LVL468:
  37:Noise.cpp     ****         resParam.Init(resKnob, 0, 1, Parameter::LINEAR);
 6062              		.loc 13 37 25 view .LVU1437
 6063 0036 FFF7FEFF 		bl	_ZN5daisy9Parameter4InitENS_13AnalogControlEffNS0_5CurveE
 6064              	.LVL469:
 6065              	.LBB1755:
 6066              	.LBI1755:
 6067              		.loc 15 23 5 is_stmt 1 view .LVU1438
 6068              		.loc 15 23 5 is_stmt 0 view .LVU1439
 6069              	.LBE1755:
  38:Noise.cpp     ****     }
 6070              		.loc 13 38 9 is_stmt 1 view .LVU1440
  38:Noise.cpp     ****     }
 6071              		.loc 13 38 22 is_stmt 0 view .LVU1441
 6072 003a F7EE000A 		vmov.f32	s1, #1.0e+0
 6073 003e 9FED090A 		vldr.32	s0, .L436+4
 6074 0042 0FCC     		ldmia	r4!, {r0, r1, r2, r3}
 6075              	.LVL470:
  38:Noise.cpp     ****     }
 6076              		.loc 13 38 22 view .LVU1442
 6077 0044 0FC5     		stmia	r5!, {r0, r1, r2, r3}
 6078 0046 94E80F00 		ldm	r4, {r0, r1, r2, r3}
 6079 004a 85E80F00 		stm	r5, {r0, r1, r2, r3}
 6080 004e 07F15000 		add	r0, r7, #80
 6081 0052 6946     		mov	r1, sp
ARM GAS  /tmp/cc3v7X8N.s 			page 168


 6082 0054 0022     		movs	r2, #0
 6083 0056 FFF7FEFF 		bl	_ZN5daisy9Parameter4InitENS_13AnalogControlEffNS0_5CurveE
 6084              	.LVL471:
 6085              	.LBB1756:
 6086              	.LBI1756:
 6087              		.loc 15 23 5 is_stmt 1 view .LVU1443
 6088              		.loc 15 23 5 is_stmt 0 view .LVU1444
 6089              	.LBE1756:
  39:Noise.cpp     **** 
 6090              		.loc 13 39 5 view .LVU1445
 6091 005a 08B0     		add	sp, sp, #32
 6092              		.cfi_def_cfa_offset 24
 6093              		@ sp needed
 6094 005c BDE8F081 		pop	{r4, r5, r6, r7, r8, pc}
 6095              	.LVL472:
 6096              	.L437:
  39:Noise.cpp     **** 
 6097              		.loc 13 39 5 view .LVU1446
 6098              		.align	2
 6099              	.L436:
 6100 0060 00401C46 		.word	1176256512
 6101 0064 00000000 		.word	0
 6102              		.cfi_endproc
 6103              	.LFE4233:
 6105              		.section	.text._ZN5daisy13SSD130xDriverILj128ELj64ENS_24SSD130x4WireSpiTransportEE6UpdateEv,"axG",
 6106              		.align	1
 6107              		.p2align 2,,3
 6108              		.weak	_ZN5daisy13SSD130xDriverILj128ELj64ENS_24SSD130x4WireSpiTransportEE6UpdateEv
 6109              		.syntax unified
 6110              		.thumb
 6111              		.thumb_func
 6112              		.fpu fpv5-d16
 6114              	_ZN5daisy13SSD130xDriverILj128ELj64ENS_24SSD130x4WireSpiTransportEE6UpdateEv:
 6115              	.LVL473:
 6116              	.LFB4687:
 260:../../libdaisy/src/dev/oled_ssd130x.h ****     {
 6117              		.loc 17 260 10 is_stmt 1 view -0
 6118              		.cfi_startproc
 6119              		@ args = 0, pretend = 0, frame = 8
 6120              		@ frame_needed = 0, uses_anonymous_args = 0
 6121              		.loc 17 270 22 view .LVU1448
 260:../../libdaisy/src/dev/oled_ssd130x.h ****     {
 6122              		.loc 17 260 10 is_stmt 0 view .LVU1449
 6123 0000 2DE9F041 		push	{r4, r5, r6, r7, r8, lr}
 6124              		.cfi_def_cfa_offset 24
 6125              		.cfi_offset 4, -24
 6126              		.cfi_offset 5, -20
 6127              		.cfi_offset 6, -16
 6128              		.cfi_offset 7, -12
 6129              		.cfi_offset 8, -8
 6130              		.cfi_offset 14, -4
 6131 0004 B024     		movs	r4, #176
 6132 0006 82B0     		sub	sp, sp, #8
 6133              		.cfi_def_cfa_offset 32
 260:../../libdaisy/src/dev/oled_ssd130x.h ****     {
 6134              		.loc 17 260 10 view .LVU1450
 6135 0008 0546     		mov	r5, r0
ARM GAS  /tmp/cc3v7X8N.s 			page 169


 6136 000a 00F10806 		add	r6, r0, #8
 6137 000e 00F10C08 		add	r8, r0, #12
 6138              	.LVL474:
 6139              	.L439:
 6140              	.LBB1765:
 6141              	.LBB1766:
 111:../../libdaisy/src/dev/oled_ssd130x.h ****         spi_.BlockingTransmit(&cmd, 1);
 6142              		.loc 17 111 23 discriminator 2 view .LVU1451
 6143 0012 0021     		movs	r1, #0
 6144 0014 3046     		mov	r0, r6
 6145 0016 8DF80740 		strb	r4, [sp, #7]
 6146              	.LVL475:
 111:../../libdaisy/src/dev/oled_ssd130x.h ****         spi_.BlockingTransmit(&cmd, 1);
 6147              		.loc 17 111 23 discriminator 2 view .LVU1452
 6148              	.LBE1766:
 6149              	.LBI1765:
 109:../../libdaisy/src/dev/oled_ssd130x.h ****     {
 6150              		.loc 17 109 10 is_stmt 1 discriminator 2 view .LVU1453
 6151              	.LBB1767:
 111:../../libdaisy/src/dev/oled_ssd130x.h ****         spi_.BlockingTransmit(&cmd, 1);
 6152              		.loc 17 111 9 discriminator 2 view .LVU1454
 6153 001a 0134     		adds	r4, r4, #1
 6154              	.LVL476:
 111:../../libdaisy/src/dev/oled_ssd130x.h ****         spi_.BlockingTransmit(&cmd, 1);
 6155              		.loc 17 111 9 is_stmt 0 discriminator 2 view .LVU1455
 6156 001c 0F46     		mov	r7, r1
 111:../../libdaisy/src/dev/oled_ssd130x.h ****         spi_.BlockingTransmit(&cmd, 1);
 6157              		.loc 17 111 23 discriminator 2 view .LVU1456
 6158 001e FFF7FEFF 		bl	dsy_gpio_write
 6159              	.LVL477:
 112:../../libdaisy/src/dev/oled_ssd130x.h ****     };
 6160              		.loc 17 112 9 is_stmt 1 discriminator 2 view .LVU1457
 112:../../libdaisy/src/dev/oled_ssd130x.h ****     };
 6161              		.loc 17 112 30 is_stmt 0 discriminator 2 view .LVU1458
 6162 0022 6423     		movs	r3, #100
 6163 0024 0122     		movs	r2, #1
 6164 0026 0DF10701 		add	r1, sp, #7
 6165 002a 2846     		mov	r0, r5
 6166 002c FFF7FEFF 		bl	_ZN5daisy9SpiHandle16BlockingTransmitEPhjm
 6167              	.LVL478:
 112:../../libdaisy/src/dev/oled_ssd130x.h ****     };
 6168              		.loc 17 112 30 discriminator 2 view .LVU1459
 6169              	.LBE1767:
 6170              	.LBE1765:
 6171              	.LBB1768:
 6172              	.LBB1769:
 111:../../libdaisy/src/dev/oled_ssd130x.h ****         spi_.BlockingTransmit(&cmd, 1);
 6173              		.loc 17 111 23 discriminator 2 view .LVU1460
 6174 0030 3946     		mov	r1, r7
 6175 0032 3046     		mov	r0, r6
 6176 0034 8DF80770 		strb	r7, [sp, #7]
 6177              	.LVL479:
 111:../../libdaisy/src/dev/oled_ssd130x.h ****         spi_.BlockingTransmit(&cmd, 1);
 6178              		.loc 17 111 23 discriminator 2 view .LVU1461
 6179              	.LBE1769:
 6180              	.LBI1768:
 109:../../libdaisy/src/dev/oled_ssd130x.h ****     {
ARM GAS  /tmp/cc3v7X8N.s 			page 170


 6181              		.loc 17 109 10 is_stmt 1 discriminator 2 view .LVU1462
 6182              	.LBB1770:
 111:../../libdaisy/src/dev/oled_ssd130x.h ****         spi_.BlockingTransmit(&cmd, 1);
 6183              		.loc 17 111 9 discriminator 2 view .LVU1463
 111:../../libdaisy/src/dev/oled_ssd130x.h ****         spi_.BlockingTransmit(&cmd, 1);
 6184              		.loc 17 111 23 is_stmt 0 discriminator 2 view .LVU1464
 6185 0038 FFF7FEFF 		bl	dsy_gpio_write
 6186              	.LVL480:
 112:../../libdaisy/src/dev/oled_ssd130x.h ****     };
 6187              		.loc 17 112 9 is_stmt 1 discriminator 2 view .LVU1465
 112:../../libdaisy/src/dev/oled_ssd130x.h ****     };
 6188              		.loc 17 112 30 is_stmt 0 discriminator 2 view .LVU1466
 6189 003c 0122     		movs	r2, #1
 6190 003e 6423     		movs	r3, #100
 6191 0040 0DF10701 		add	r1, sp, #7
 6192 0044 2846     		mov	r0, r5
 6193 0046 E4B2     		uxtb	r4, r4
 6194 0048 FFF7FEFF 		bl	_ZN5daisy9SpiHandle16BlockingTransmitEPhjm
 6195              	.LVL481:
 112:../../libdaisy/src/dev/oled_ssd130x.h ****     };
 6196              		.loc 17 112 30 discriminator 2 view .LVU1467
 6197 004c 1023     		movs	r3, #16
 6198              	.LBE1770:
 6199              	.LBE1768:
 6200              	.LBB1771:
 6201              	.LBB1772:
 111:../../libdaisy/src/dev/oled_ssd130x.h ****         spi_.BlockingTransmit(&cmd, 1);
 6202              		.loc 17 111 23 discriminator 2 view .LVU1468
 6203 004e 3946     		mov	r1, r7
 6204 0050 3046     		mov	r0, r6
 6205 0052 8DF80730 		strb	r3, [sp, #7]
 6206              	.LVL482:
 111:../../libdaisy/src/dev/oled_ssd130x.h ****         spi_.BlockingTransmit(&cmd, 1);
 6207              		.loc 17 111 23 discriminator 2 view .LVU1469
 6208              	.LBE1772:
 6209              	.LBI1771:
 109:../../libdaisy/src/dev/oled_ssd130x.h ****     {
 6210              		.loc 17 109 10 is_stmt 1 discriminator 2 view .LVU1470
 6211              	.LBB1773:
 111:../../libdaisy/src/dev/oled_ssd130x.h ****         spi_.BlockingTransmit(&cmd, 1);
 6212              		.loc 17 111 9 discriminator 2 view .LVU1471
 111:../../libdaisy/src/dev/oled_ssd130x.h ****         spi_.BlockingTransmit(&cmd, 1);
 6213              		.loc 17 111 23 is_stmt 0 discriminator 2 view .LVU1472
 6214 0056 FFF7FEFF 		bl	dsy_gpio_write
 6215              	.LVL483:
 112:../../libdaisy/src/dev/oled_ssd130x.h ****     };
 6216              		.loc 17 112 9 is_stmt 1 discriminator 2 view .LVU1473
 112:../../libdaisy/src/dev/oled_ssd130x.h ****     };
 6217              		.loc 17 112 30 is_stmt 0 discriminator 2 view .LVU1474
 6218 005a 6423     		movs	r3, #100
 6219 005c 0122     		movs	r2, #1
 6220 005e 0DF10701 		add	r1, sp, #7
 6221 0062 2846     		mov	r0, r5
 6222 0064 FFF7FEFF 		bl	_ZN5daisy9SpiHandle16BlockingTransmitEPhjm
 6223              	.LVL484:
 112:../../libdaisy/src/dev/oled_ssd130x.h ****     };
 6224              		.loc 17 112 30 discriminator 2 view .LVU1475
ARM GAS  /tmp/cc3v7X8N.s 			page 171


 6225              	.LBE1773:
 6226              	.LBE1771:
 6227              	.LBB1774:
 6228              	.LBI1774:
 115:../../libdaisy/src/dev/oled_ssd130x.h ****     {
 6229              		.loc 17 115 10 is_stmt 1 discriminator 2 view .LVU1476
 6230              	.LBB1775:
 117:../../libdaisy/src/dev/oled_ssd130x.h ****         spi_.BlockingTransmit(buff, size);
 6231              		.loc 17 117 9 discriminator 2 view .LVU1477
 117:../../libdaisy/src/dev/oled_ssd130x.h ****         spi_.BlockingTransmit(buff, size);
 6232              		.loc 17 117 23 is_stmt 0 discriminator 2 view .LVU1478
 6233 0068 0121     		movs	r1, #1
 6234 006a 3046     		mov	r0, r6
 6235 006c FFF7FEFF 		bl	dsy_gpio_write
 6236              	.LVL485:
 118:../../libdaisy/src/dev/oled_ssd130x.h ****     };
 6237              		.loc 17 118 9 is_stmt 1 discriminator 2 view .LVU1479
 118:../../libdaisy/src/dev/oled_ssd130x.h ****     };
 6238              		.loc 17 118 30 is_stmt 0 discriminator 2 view .LVU1480
 6239 0070 8022     		movs	r2, #128
 6240 0072 4146     		mov	r1, r8
 6241 0074 6423     		movs	r3, #100
 6242 0076 2846     		mov	r0, r5
 6243 0078 9044     		add	r8, r8, r2
 6244              	.LVL486:
 118:../../libdaisy/src/dev/oled_ssd130x.h ****     };
 6245              		.loc 17 118 30 discriminator 2 view .LVU1481
 6246 007a FFF7FEFF 		bl	_ZN5daisy9SpiHandle16BlockingTransmitEPhjm
 6247              	.LVL487:
 118:../../libdaisy/src/dev/oled_ssd130x.h ****     };
 6248              		.loc 17 118 30 discriminator 2 view .LVU1482
 6249              	.LBE1775:
 6250              	.LBE1774:
 6251              		.loc 17 270 9 is_stmt 1 discriminator 2 view .LVU1483
 6252              		.loc 17 270 22 discriminator 2 view .LVU1484
 6253 007e B82C     		cmp	r4, #184
 6254 0080 C7D1     		bne	.L439
 271:../../libdaisy/src/dev/oled_ssd130x.h ****         {
 272:../../libdaisy/src/dev/oled_ssd130x.h ****             transport_.SendCommand(0xB0 + i);
 273:../../libdaisy/src/dev/oled_ssd130x.h ****             transport_.SendCommand(0x00);
 274:../../libdaisy/src/dev/oled_ssd130x.h ****             transport_.SendCommand(high_column_addr);
 275:../../libdaisy/src/dev/oled_ssd130x.h ****             transport_.SendData(&buffer_[width * i], width);
 276:../../libdaisy/src/dev/oled_ssd130x.h ****         }
 277:../../libdaisy/src/dev/oled_ssd130x.h ****     };
 6255              		.loc 17 277 5 is_stmt 0 view .LVU1485
 6256 0082 02B0     		add	sp, sp, #8
 6257              		.cfi_def_cfa_offset 24
 6258              		@ sp needed
 6259 0084 BDE8F081 		pop	{r4, r5, r6, r7, r8, pc}
 6260              		.loc 17 277 5 view .LVU1486
 6261              		.cfi_endproc
 6262              	.LFE4687:
 6264              		.section	.rodata.main.str1.4,"aMS",%progbits,1
 6265              		.align	2
 6266              	.LC2:
 6267 0000 4E6F6973 		.ascii	"Noise\000"
 6267      6500
ARM GAS  /tmp/cc3v7X8N.s 			page 172


 6268              		.section	.text.startup.main,"ax",%progbits
 6269              		.align	1
 6270              		.p2align 2,,3
 6271              		.global	main
 6272              		.syntax unified
 6273              		.thumb
 6274              		.thumb_func
 6275              		.fpu fpv5-d16
 6277              	main:
 6278              	.LFB4240:
  86:Noise.cpp     **** 
  87:Noise.cpp     **** void UpdateControls();
  88:Noise.cpp     **** void UpdateOled();
  89:Noise.cpp     **** 
  90:Noise.cpp     **** int main(void)
  91:Noise.cpp     **** {
 6279              		.loc 13 91 1 is_stmt 1 view -0
 6280              		.cfi_startproc
 6281              		@ args = 0, pretend = 0, frame = 64
 6282              		@ frame_needed = 0, uses_anonymous_args = 0
  92:Noise.cpp     ****     float samplerate;
 6283              		.loc 13 92 5 view .LVU1488
  93:Noise.cpp     ****     patch.Init(); // Initialize hardware (daisy seed, and patch)
 6284              		.loc 13 93 5 view .LVU1489
 6285              		.loc 13 93 15 is_stmt 0 view .LVU1490
 6286 0000 3C48     		ldr	r0, .L445
 6287 0002 0021     		movs	r1, #0
  91:Noise.cpp     ****     float samplerate;
 6288              		.loc 13 91 1 view .LVU1491
 6289 0004 2DE9F043 		push	{r4, r5, r6, r7, r8, r9, lr}
 6290              		.cfi_def_cfa_offset 28
 6291              		.cfi_offset 4, -28
 6292              		.cfi_offset 5, -24
 6293              		.cfi_offset 6, -20
 6294              		.cfi_offset 7, -16
 6295              		.cfi_offset 8, -12
 6296              		.cfi_offset 9, -8
 6297              		.cfi_offset 14, -4
  94:Noise.cpp     ****     samplerate = patch.AudioSampleRate();
  95:Noise.cpp     **** 
  96:Noise.cpp     ****     noise.Init();
  97:Noise.cpp     ****     lowpass.Init(
  98:Noise.cpp     ****         samplerate, filter::mode::LOW, patch.controls[0], patch.controls[1]);
 6298              		.loc 13 98 56 view .LVU1492
 6299 0008 00F15C04 		add	r4, r0, #92
 6300              	.LBB1832:
 6301              	.LBB1833:
  22:../../DaisySP/Source/Noise/whitenoise.h ****     }
 6302              		.loc 1 22 19 view .LVU1493
 6303 000c 4FF00108 		mov	r8, #1
 6304              	.LBE1833:
 6305              	.LBE1832:
  91:Noise.cpp     ****     float samplerate;
 6306              		.loc 13 91 1 view .LVU1494
 6307 0010 2DED028B 		vpush.64	{d8}
 6308              		.cfi_def_cfa_offset 36
 6309              		.cfi_offset 80, -36
ARM GAS  /tmp/cc3v7X8N.s 			page 173


 6310              		.cfi_offset 81, -32
 6311 0014 93B0     		sub	sp, sp, #76
 6312              		.cfi_def_cfa_offset 112
  93:Noise.cpp     ****     samplerate = patch.AudioSampleRate();
 6313              		.loc 13 93 15 view .LVU1495
 6314 0016 FFF7FEFF 		bl	_ZN5daisy10DaisyPatch4InitEb
 6315              	.LVL488:
  94:Noise.cpp     ****     samplerate = patch.AudioSampleRate();
 6316              		.loc 13 94 5 is_stmt 1 view .LVU1496
  94:Noise.cpp     ****     samplerate = patch.AudioSampleRate();
 6317              		.loc 13 94 39 is_stmt 0 view .LVU1497
 6318 001a A4F15C00 		sub	r0, r4, #92
 6319 001e FFF7FEFF 		bl	_ZN5daisy10DaisyPatch15AudioSampleRateEv
 6320              	.LVL489:
 6321              	.LBB1838:
 6322              	.LBB1834:
  21:../../DaisySP/Source/Noise/whitenoise.h ****         randseed_ = 1;
 6323              		.loc 1 21 19 view .LVU1498
 6324 0022 354B     		ldr	r3, .L445+4
 6325 0024 4FF07E52 		mov	r2, #1065353216
 6326              	.LBE1834:
 6327              	.LBE1838:
 6328              		.loc 13 98 56 view .LVU1499
 6329 0028 02AE     		add	r6, sp, #8
 6330              	.LBB1839:
 6331              	.LBB1835:
  22:../../DaisySP/Source/Noise/whitenoise.h ****     }
 6332              		.loc 1 22 19 view .LVU1500
 6333 002a C3F80480 		str	r8, [r3, #4]
 6334              	.LBE1835:
 6335              	.LBE1839:
 6336              		.loc 13 98 75 view .LVU1501
 6337 002e 0AAD     		add	r5, sp, #40
 6338              	.LBB1840:
 6339              	.LBB1836:
  21:../../DaisySP/Source/Noise/whitenoise.h ****         randseed_ = 1;
 6340              		.loc 1 21 19 view .LVU1502
 6341 0030 1A60     		str	r2, [r3]	@ float
 6342              	.LBE1836:
 6343              	.LBE1840:
  94:Noise.cpp     **** 
 6344              		.loc 13 94 39 view .LVU1503
 6345 0032 B0EE408A 		vmov.f32	s16, s0
 6346              	.LVL490:
  96:Noise.cpp     ****     lowpass.Init(
 6347              		.loc 13 96 5 is_stmt 1 view .LVU1504
 6348              	.LBB1841:
 6349              	.LBI1832:
  19:../../DaisySP/Source/Noise/whitenoise.h ****     {
 6350              		.loc 1 19 10 view .LVU1505
 6351              	.LBB1837:
  21:../../DaisySP/Source/Noise/whitenoise.h ****         randseed_ = 1;
 6352              		.loc 1 21 9 view .LVU1506
  22:../../DaisySP/Source/Noise/whitenoise.h ****     }
 6353              		.loc 1 22 9 view .LVU1507
 6354              	.LBE1837:
 6355              	.LBE1841:
ARM GAS  /tmp/cc3v7X8N.s 			page 174


  97:Noise.cpp     ****         samplerate, filter::mode::LOW, patch.controls[0], patch.controls[1]);
 6356              		.loc 13 97 5 view .LVU1508
  99:Noise.cpp     ****     highpass.Init(
 100:Noise.cpp     ****         samplerate, filter::mode::HIGH, patch.controls[2], patch.controls[3]);
 6357              		.loc 13 100 57 is_stmt 0 view .LVU1509
 6358 0036 0DF10809 		add	r9, sp, #8
  98:Noise.cpp     ****     highpass.Init(
 6359              		.loc 13 98 56 view .LVU1510
 6360 003a 0FCC     		ldmia	r4!, {r0, r1, r2, r3}
 6361 003c 0FC6     		stmia	r6!, {r0, r1, r2, r3}
  98:Noise.cpp     ****     highpass.Init(
 6362              		.loc 13 98 75 view .LVU1511
 6363 003e 04F11007 		add	r7, r4, #16
  98:Noise.cpp     ****     highpass.Init(
 6364              		.loc 13 98 56 view .LVU1512
 6365 0042 94E80F00 		ldm	r4, {r0, r1, r2, r3}
 6366 0046 86E80F00 		stm	r6, {r0, r1, r2, r3}
  98:Noise.cpp     ****     highpass.Init(
 6367              		.loc 13 98 75 view .LVU1513
 6368 004a 0FCF     		ldmia	r7!, {r0, r1, r2, r3}
 6369 004c 0FC5     		stmia	r5!, {r0, r1, r2, r3}
 6370 004e 97E80F00 		ldm	r7, {r0, r1, r2, r3}
 6371 0052 85E80F00 		stm	r5, {r0, r1, r2, r3}
  97:Noise.cpp     ****         samplerate, filter::mode::LOW, patch.controls[0], patch.controls[1]);
 6372              		.loc 13 97 17 view .LVU1514
 6373 0056 0AAB     		add	r3, sp, #40
 6374 0058 02AA     		add	r2, sp, #8
 6375 005a 0021     		movs	r1, #0
 6376 005c 2748     		ldr	r0, .L445+8
 6377 005e FFF7FEFF 		bl	_ZN6filter4InitEfNS_4modeEN5daisy13AnalogControlES2_
 6378              	.LVL491:
 6379              	.LBB1842:
 6380              	.LBI1842:
 6381              		.loc 15 23 5 is_stmt 1 view .LVU1515
 6382              		.loc 15 23 5 is_stmt 0 view .LVU1516
 6383              	.LBE1842:
 6384              	.LBB1843:
 6385              	.LBI1843:
 6386              		.loc 15 23 5 is_stmt 1 view .LVU1517
 6387              		.loc 15 23 5 is_stmt 0 view .LVU1518
 6388              	.LBE1843:
  99:Noise.cpp     ****     highpass.Init(
 6389              		.loc 13 99 5 is_stmt 1 view .LVU1519
 6390              		.loc 13 100 57 is_stmt 0 view .LVU1520
 6391 0062 04F1300C 		add	ip, r4, #48
 6392              		.loc 13 100 76 view .LVU1521
 6393 0066 04F15007 		add	r7, r4, #80
 6394 006a 0DF1280E 		add	lr, sp, #40
  99:Noise.cpp     ****     highpass.Init(
 6395              		.loc 13 99 18 view .LVU1522
 6396 006e B0EE480A 		vmov.f32	s0, s16
 6397              		.loc 13 100 57 view .LVU1523
 6398 0072 BCE80F00 		ldmia	ip!, {r0, r1, r2, r3}
 6399 0076 A9E80F00 		stmia	r9!, {r0, r1, r2, r3}
 6400 007a 9CE80F00 		ldm	ip, {r0, r1, r2, r3}
 6401 007e 86E80F00 		stm	r6, {r0, r1, r2, r3}
 6402              		.loc 13 100 76 view .LVU1524
ARM GAS  /tmp/cc3v7X8N.s 			page 175


 6403 0082 0FCF     		ldmia	r7!, {r0, r1, r2, r3}
 6404 0084 AEE80F00 		stmia	lr!, {r0, r1, r2, r3}
 6405 0088 97E80F00 		ldm	r7, {r0, r1, r2, r3}
 6406 008c 85E80F00 		stm	r5, {r0, r1, r2, r3}
  99:Noise.cpp     ****     highpass.Init(
 6407              		.loc 13 99 18 view .LVU1525
 6408 0090 0AAB     		add	r3, sp, #40
 6409 0092 02AA     		add	r2, sp, #8
 6410 0094 4146     		mov	r1, r8
 6411 0096 1A48     		ldr	r0, .L445+12
 6412 0098 FFF7FEFF 		bl	_ZN6filter4InitEfNS_4modeEN5daisy13AnalogControlES2_
 6413              	.LVL492:
 6414              	.LBB1844:
 6415              	.LBI1844:
 6416              		.loc 15 23 5 is_stmt 1 view .LVU1526
 6417              		.loc 15 23 5 is_stmt 0 view .LVU1527
 6418              	.LBE1844:
 6419              	.LBB1845:
 6420              	.LBI1845:
 6421              		.loc 15 23 5 is_stmt 1 view .LVU1528
 6422              		.loc 15 23 5 is_stmt 0 view .LVU1529
 6423              	.LBE1845:
 101:Noise.cpp     **** 
 102:Noise.cpp     ****     std::string str  = "Noise";
 6424              		.loc 13 102 5 is_stmt 1 view .LVU1530
 6425              	.LBB1846:
 6426              	.LBI1846:
 6427              		.file 20 "/usr/include/newlib/c++/9.2.1/bits/allocator.h"
   1:/usr/include/newlib/c++/9.2.1/bits/allocator.h **** // Allocators -*- C++ -*-
   2:/usr/include/newlib/c++/9.2.1/bits/allocator.h **** 
   3:/usr/include/newlib/c++/9.2.1/bits/allocator.h **** // Copyright (C) 2001-2019 Free Software Foundation, Inc.
   4:/usr/include/newlib/c++/9.2.1/bits/allocator.h **** //
   5:/usr/include/newlib/c++/9.2.1/bits/allocator.h **** // This file is part of the GNU ISO C++ Library.  This library is free
   6:/usr/include/newlib/c++/9.2.1/bits/allocator.h **** // software; you can redistribute it and/or modify it under the
   7:/usr/include/newlib/c++/9.2.1/bits/allocator.h **** // terms of the GNU General Public License as published by the
   8:/usr/include/newlib/c++/9.2.1/bits/allocator.h **** // Free Software Foundation; either version 3, or (at your option)
   9:/usr/include/newlib/c++/9.2.1/bits/allocator.h **** // any later version.
  10:/usr/include/newlib/c++/9.2.1/bits/allocator.h **** 
  11:/usr/include/newlib/c++/9.2.1/bits/allocator.h **** // This library is distributed in the hope that it will be useful,
  12:/usr/include/newlib/c++/9.2.1/bits/allocator.h **** // but WITHOUT ANY WARRANTY; without even the implied warranty of
  13:/usr/include/newlib/c++/9.2.1/bits/allocator.h **** // MERCHANTABILITY or FITNESS FOR A PARTICULAR PURPOSE.  See the
  14:/usr/include/newlib/c++/9.2.1/bits/allocator.h **** // GNU General Public License for more details.
  15:/usr/include/newlib/c++/9.2.1/bits/allocator.h **** 
  16:/usr/include/newlib/c++/9.2.1/bits/allocator.h **** // Under Section 7 of GPL version 3, you are granted additional
  17:/usr/include/newlib/c++/9.2.1/bits/allocator.h **** // permissions described in the GCC Runtime Library Exception, version
  18:/usr/include/newlib/c++/9.2.1/bits/allocator.h **** // 3.1, as published by the Free Software Foundation.
  19:/usr/include/newlib/c++/9.2.1/bits/allocator.h **** 
  20:/usr/include/newlib/c++/9.2.1/bits/allocator.h **** // You should have received a copy of the GNU General Public License and
  21:/usr/include/newlib/c++/9.2.1/bits/allocator.h **** // a copy of the GCC Runtime Library Exception along with this program;
  22:/usr/include/newlib/c++/9.2.1/bits/allocator.h **** // see the files COPYING3 and COPYING.RUNTIME respectively.  If not, see
  23:/usr/include/newlib/c++/9.2.1/bits/allocator.h **** // <http://www.gnu.org/licenses/>.
  24:/usr/include/newlib/c++/9.2.1/bits/allocator.h **** 
  25:/usr/include/newlib/c++/9.2.1/bits/allocator.h **** /*
  26:/usr/include/newlib/c++/9.2.1/bits/allocator.h ****  * Copyright (c) 1996-1997
  27:/usr/include/newlib/c++/9.2.1/bits/allocator.h ****  * Silicon Graphics Computer Systems, Inc.
  28:/usr/include/newlib/c++/9.2.1/bits/allocator.h ****  *
  29:/usr/include/newlib/c++/9.2.1/bits/allocator.h ****  * Permission to use, copy, modify, distribute and sell this software
ARM GAS  /tmp/cc3v7X8N.s 			page 176


  30:/usr/include/newlib/c++/9.2.1/bits/allocator.h ****  * and its documentation for any purpose is hereby granted without fee,
  31:/usr/include/newlib/c++/9.2.1/bits/allocator.h ****  * provided that the above copyright notice appear in all copies and
  32:/usr/include/newlib/c++/9.2.1/bits/allocator.h ****  * that both that copyright notice and this permission notice appear
  33:/usr/include/newlib/c++/9.2.1/bits/allocator.h ****  * in supporting documentation.  Silicon Graphics makes no
  34:/usr/include/newlib/c++/9.2.1/bits/allocator.h ****  * representations about the suitability of this software for any
  35:/usr/include/newlib/c++/9.2.1/bits/allocator.h ****  * purpose.  It is provided "as is" without express or implied warranty.
  36:/usr/include/newlib/c++/9.2.1/bits/allocator.h ****  */
  37:/usr/include/newlib/c++/9.2.1/bits/allocator.h **** 
  38:/usr/include/newlib/c++/9.2.1/bits/allocator.h **** /** @file bits/allocator.h
  39:/usr/include/newlib/c++/9.2.1/bits/allocator.h ****  *  This is an internal header file, included by other library headers.
  40:/usr/include/newlib/c++/9.2.1/bits/allocator.h ****  *  Do not attempt to use it directly. @headername{memory}
  41:/usr/include/newlib/c++/9.2.1/bits/allocator.h ****  */
  42:/usr/include/newlib/c++/9.2.1/bits/allocator.h **** 
  43:/usr/include/newlib/c++/9.2.1/bits/allocator.h **** #ifndef _ALLOCATOR_H
  44:/usr/include/newlib/c++/9.2.1/bits/allocator.h **** #define _ALLOCATOR_H 1
  45:/usr/include/newlib/c++/9.2.1/bits/allocator.h **** 
  46:/usr/include/newlib/c++/9.2.1/bits/allocator.h **** #include <bits/c++allocator.h> // Define the base class to std::allocator.
  47:/usr/include/newlib/c++/9.2.1/bits/allocator.h **** #include <bits/memoryfwd.h>
  48:/usr/include/newlib/c++/9.2.1/bits/allocator.h **** #if __cplusplus >= 201103L
  49:/usr/include/newlib/c++/9.2.1/bits/allocator.h **** #include <type_traits>
  50:/usr/include/newlib/c++/9.2.1/bits/allocator.h **** #endif
  51:/usr/include/newlib/c++/9.2.1/bits/allocator.h **** 
  52:/usr/include/newlib/c++/9.2.1/bits/allocator.h **** #define __cpp_lib_incomplete_container_elements 201505
  53:/usr/include/newlib/c++/9.2.1/bits/allocator.h **** #if __cplusplus >= 201103L
  54:/usr/include/newlib/c++/9.2.1/bits/allocator.h **** # define __cpp_lib_allocator_is_always_equal 201411
  55:/usr/include/newlib/c++/9.2.1/bits/allocator.h **** #endif
  56:/usr/include/newlib/c++/9.2.1/bits/allocator.h **** 
  57:/usr/include/newlib/c++/9.2.1/bits/allocator.h **** namespace std _GLIBCXX_VISIBILITY(default)
  58:/usr/include/newlib/c++/9.2.1/bits/allocator.h **** {
  59:/usr/include/newlib/c++/9.2.1/bits/allocator.h **** _GLIBCXX_BEGIN_NAMESPACE_VERSION
  60:/usr/include/newlib/c++/9.2.1/bits/allocator.h **** 
  61:/usr/include/newlib/c++/9.2.1/bits/allocator.h ****   /**
  62:/usr/include/newlib/c++/9.2.1/bits/allocator.h ****    *  @addtogroup allocators
  63:/usr/include/newlib/c++/9.2.1/bits/allocator.h ****    *  @{
  64:/usr/include/newlib/c++/9.2.1/bits/allocator.h ****    */
  65:/usr/include/newlib/c++/9.2.1/bits/allocator.h **** 
  66:/usr/include/newlib/c++/9.2.1/bits/allocator.h ****   /// allocator<void> specialization.
  67:/usr/include/newlib/c++/9.2.1/bits/allocator.h ****   template<>
  68:/usr/include/newlib/c++/9.2.1/bits/allocator.h ****     class allocator<void>
  69:/usr/include/newlib/c++/9.2.1/bits/allocator.h ****     {
  70:/usr/include/newlib/c++/9.2.1/bits/allocator.h ****     public:
  71:/usr/include/newlib/c++/9.2.1/bits/allocator.h ****       typedef size_t      size_type;
  72:/usr/include/newlib/c++/9.2.1/bits/allocator.h ****       typedef ptrdiff_t   difference_type;
  73:/usr/include/newlib/c++/9.2.1/bits/allocator.h ****       typedef void*       pointer;
  74:/usr/include/newlib/c++/9.2.1/bits/allocator.h ****       typedef const void* const_pointer;
  75:/usr/include/newlib/c++/9.2.1/bits/allocator.h ****       typedef void        value_type;
  76:/usr/include/newlib/c++/9.2.1/bits/allocator.h **** 
  77:/usr/include/newlib/c++/9.2.1/bits/allocator.h ****       template<typename _Tp1>
  78:/usr/include/newlib/c++/9.2.1/bits/allocator.h **** 	struct rebind
  79:/usr/include/newlib/c++/9.2.1/bits/allocator.h **** 	{ typedef allocator<_Tp1> other; };
  80:/usr/include/newlib/c++/9.2.1/bits/allocator.h **** 
  81:/usr/include/newlib/c++/9.2.1/bits/allocator.h **** #if __cplusplus >= 201103L
  82:/usr/include/newlib/c++/9.2.1/bits/allocator.h ****       // _GLIBCXX_RESOLVE_LIB_DEFECTS
  83:/usr/include/newlib/c++/9.2.1/bits/allocator.h ****       // 2103. std::allocator propagate_on_container_move_assignment
  84:/usr/include/newlib/c++/9.2.1/bits/allocator.h ****       typedef true_type propagate_on_container_move_assignment;
  85:/usr/include/newlib/c++/9.2.1/bits/allocator.h **** 
  86:/usr/include/newlib/c++/9.2.1/bits/allocator.h ****       typedef true_type is_always_equal;
ARM GAS  /tmp/cc3v7X8N.s 			page 177


  87:/usr/include/newlib/c++/9.2.1/bits/allocator.h **** 
  88:/usr/include/newlib/c++/9.2.1/bits/allocator.h ****       template<typename _Up, typename... _Args>
  89:/usr/include/newlib/c++/9.2.1/bits/allocator.h **** 	void
  90:/usr/include/newlib/c++/9.2.1/bits/allocator.h **** 	construct(_Up* __p, _Args&&... __args)
  91:/usr/include/newlib/c++/9.2.1/bits/allocator.h **** 	noexcept(noexcept(::new((void *)__p)
  92:/usr/include/newlib/c++/9.2.1/bits/allocator.h **** 			    _Up(std::forward<_Args>(__args)...)))
  93:/usr/include/newlib/c++/9.2.1/bits/allocator.h **** 	{ ::new((void *)__p) _Up(std::forward<_Args>(__args)...); }
  94:/usr/include/newlib/c++/9.2.1/bits/allocator.h **** 
  95:/usr/include/newlib/c++/9.2.1/bits/allocator.h ****       template<typename _Up>
  96:/usr/include/newlib/c++/9.2.1/bits/allocator.h **** 	void
  97:/usr/include/newlib/c++/9.2.1/bits/allocator.h **** 	destroy(_Up* __p)
  98:/usr/include/newlib/c++/9.2.1/bits/allocator.h **** 	noexcept(noexcept(__p->~_Up()))
  99:/usr/include/newlib/c++/9.2.1/bits/allocator.h **** 	{ __p->~_Up(); }
 100:/usr/include/newlib/c++/9.2.1/bits/allocator.h **** #endif
 101:/usr/include/newlib/c++/9.2.1/bits/allocator.h ****     };
 102:/usr/include/newlib/c++/9.2.1/bits/allocator.h **** 
 103:/usr/include/newlib/c++/9.2.1/bits/allocator.h ****   /**
 104:/usr/include/newlib/c++/9.2.1/bits/allocator.h ****    * @brief  The @a standard allocator, as per [20.4].
 105:/usr/include/newlib/c++/9.2.1/bits/allocator.h ****    *
 106:/usr/include/newlib/c++/9.2.1/bits/allocator.h ****    *  See https://gcc.gnu.org/onlinedocs/libstdc++/manual/memory.html#std.util.memory.allocator
 107:/usr/include/newlib/c++/9.2.1/bits/allocator.h ****    *  for further details.
 108:/usr/include/newlib/c++/9.2.1/bits/allocator.h ****    *
 109:/usr/include/newlib/c++/9.2.1/bits/allocator.h ****    *  @tparam  _Tp  Type of allocated object.
 110:/usr/include/newlib/c++/9.2.1/bits/allocator.h ****    */
 111:/usr/include/newlib/c++/9.2.1/bits/allocator.h ****   template<typename _Tp>
 112:/usr/include/newlib/c++/9.2.1/bits/allocator.h ****     class allocator : public __allocator_base<_Tp>
 113:/usr/include/newlib/c++/9.2.1/bits/allocator.h ****     {
 114:/usr/include/newlib/c++/9.2.1/bits/allocator.h ****    public:
 115:/usr/include/newlib/c++/9.2.1/bits/allocator.h ****       typedef size_t     size_type;
 116:/usr/include/newlib/c++/9.2.1/bits/allocator.h ****       typedef ptrdiff_t  difference_type;
 117:/usr/include/newlib/c++/9.2.1/bits/allocator.h ****       typedef _Tp*       pointer;
 118:/usr/include/newlib/c++/9.2.1/bits/allocator.h ****       typedef const _Tp* const_pointer;
 119:/usr/include/newlib/c++/9.2.1/bits/allocator.h ****       typedef _Tp&       reference;
 120:/usr/include/newlib/c++/9.2.1/bits/allocator.h ****       typedef const _Tp& const_reference;
 121:/usr/include/newlib/c++/9.2.1/bits/allocator.h ****       typedef _Tp        value_type;
 122:/usr/include/newlib/c++/9.2.1/bits/allocator.h **** 
 123:/usr/include/newlib/c++/9.2.1/bits/allocator.h ****       template<typename _Tp1>
 124:/usr/include/newlib/c++/9.2.1/bits/allocator.h **** 	struct rebind
 125:/usr/include/newlib/c++/9.2.1/bits/allocator.h **** 	{ typedef allocator<_Tp1> other; };
 126:/usr/include/newlib/c++/9.2.1/bits/allocator.h **** 
 127:/usr/include/newlib/c++/9.2.1/bits/allocator.h **** #if __cplusplus >= 201103L
 128:/usr/include/newlib/c++/9.2.1/bits/allocator.h ****       // _GLIBCXX_RESOLVE_LIB_DEFECTS
 129:/usr/include/newlib/c++/9.2.1/bits/allocator.h ****       // 2103. std::allocator propagate_on_container_move_assignment
 130:/usr/include/newlib/c++/9.2.1/bits/allocator.h ****       typedef true_type propagate_on_container_move_assignment;
 131:/usr/include/newlib/c++/9.2.1/bits/allocator.h **** 
 132:/usr/include/newlib/c++/9.2.1/bits/allocator.h ****       typedef true_type is_always_equal;
 133:/usr/include/newlib/c++/9.2.1/bits/allocator.h **** #endif
 134:/usr/include/newlib/c++/9.2.1/bits/allocator.h **** 
 135:/usr/include/newlib/c++/9.2.1/bits/allocator.h ****       // _GLIBCXX_RESOLVE_LIB_DEFECTS
 136:/usr/include/newlib/c++/9.2.1/bits/allocator.h ****       // 3035. std::allocator's constructors should be constexpr
 137:/usr/include/newlib/c++/9.2.1/bits/allocator.h ****       _GLIBCXX20_CONSTEXPR
 138:/usr/include/newlib/c++/9.2.1/bits/allocator.h ****       allocator() _GLIBCXX_NOTHROW { }
 6428              		.loc 20 138 7 view .LVU1531
 6429              	.LBB1847:
 6430              	.LBI1847:
 6431              		.file 21 "/usr/include/newlib/c++/9.2.1/ext/new_allocator.h"
   1:/usr/include/newlib/c++/9.2.1/ext/new_allocator.h **** // Allocator that wraps operator new -*- C++ -*-
ARM GAS  /tmp/cc3v7X8N.s 			page 178


   2:/usr/include/newlib/c++/9.2.1/ext/new_allocator.h **** 
   3:/usr/include/newlib/c++/9.2.1/ext/new_allocator.h **** // Copyright (C) 2001-2019 Free Software Foundation, Inc.
   4:/usr/include/newlib/c++/9.2.1/ext/new_allocator.h **** //
   5:/usr/include/newlib/c++/9.2.1/ext/new_allocator.h **** // This file is part of the GNU ISO C++ Library.  This library is free
   6:/usr/include/newlib/c++/9.2.1/ext/new_allocator.h **** // software; you can redistribute it and/or modify it under the
   7:/usr/include/newlib/c++/9.2.1/ext/new_allocator.h **** // terms of the GNU General Public License as published by the
   8:/usr/include/newlib/c++/9.2.1/ext/new_allocator.h **** // Free Software Foundation; either version 3, or (at your option)
   9:/usr/include/newlib/c++/9.2.1/ext/new_allocator.h **** // any later version.
  10:/usr/include/newlib/c++/9.2.1/ext/new_allocator.h **** 
  11:/usr/include/newlib/c++/9.2.1/ext/new_allocator.h **** // This library is distributed in the hope that it will be useful,
  12:/usr/include/newlib/c++/9.2.1/ext/new_allocator.h **** // but WITHOUT ANY WARRANTY; without even the implied warranty of
  13:/usr/include/newlib/c++/9.2.1/ext/new_allocator.h **** // MERCHANTABILITY or FITNESS FOR A PARTICULAR PURPOSE.  See the
  14:/usr/include/newlib/c++/9.2.1/ext/new_allocator.h **** // GNU General Public License for more details.
  15:/usr/include/newlib/c++/9.2.1/ext/new_allocator.h **** 
  16:/usr/include/newlib/c++/9.2.1/ext/new_allocator.h **** // Under Section 7 of GPL version 3, you are granted additional
  17:/usr/include/newlib/c++/9.2.1/ext/new_allocator.h **** // permissions described in the GCC Runtime Library Exception, version
  18:/usr/include/newlib/c++/9.2.1/ext/new_allocator.h **** // 3.1, as published by the Free Software Foundation.
  19:/usr/include/newlib/c++/9.2.1/ext/new_allocator.h **** 
  20:/usr/include/newlib/c++/9.2.1/ext/new_allocator.h **** // You should have received a copy of the GNU General Public License and
  21:/usr/include/newlib/c++/9.2.1/ext/new_allocator.h **** // a copy of the GCC Runtime Library Exception along with this program;
  22:/usr/include/newlib/c++/9.2.1/ext/new_allocator.h **** // see the files COPYING3 and COPYING.RUNTIME respectively.  If not, see
  23:/usr/include/newlib/c++/9.2.1/ext/new_allocator.h **** // <http://www.gnu.org/licenses/>.
  24:/usr/include/newlib/c++/9.2.1/ext/new_allocator.h **** 
  25:/usr/include/newlib/c++/9.2.1/ext/new_allocator.h **** /** @file ext/new_allocator.h
  26:/usr/include/newlib/c++/9.2.1/ext/new_allocator.h ****  *  This file is a GNU extension to the Standard C++ Library.
  27:/usr/include/newlib/c++/9.2.1/ext/new_allocator.h ****  */
  28:/usr/include/newlib/c++/9.2.1/ext/new_allocator.h **** 
  29:/usr/include/newlib/c++/9.2.1/ext/new_allocator.h **** #ifndef _NEW_ALLOCATOR_H
  30:/usr/include/newlib/c++/9.2.1/ext/new_allocator.h **** #define _NEW_ALLOCATOR_H 1
  31:/usr/include/newlib/c++/9.2.1/ext/new_allocator.h **** 
  32:/usr/include/newlib/c++/9.2.1/ext/new_allocator.h **** #include <bits/c++config.h>
  33:/usr/include/newlib/c++/9.2.1/ext/new_allocator.h **** #include <new>
  34:/usr/include/newlib/c++/9.2.1/ext/new_allocator.h **** #include <bits/functexcept.h>
  35:/usr/include/newlib/c++/9.2.1/ext/new_allocator.h **** #include <bits/move.h>
  36:/usr/include/newlib/c++/9.2.1/ext/new_allocator.h **** #if __cplusplus >= 201103L
  37:/usr/include/newlib/c++/9.2.1/ext/new_allocator.h **** #include <type_traits>
  38:/usr/include/newlib/c++/9.2.1/ext/new_allocator.h **** #endif
  39:/usr/include/newlib/c++/9.2.1/ext/new_allocator.h **** 
  40:/usr/include/newlib/c++/9.2.1/ext/new_allocator.h **** namespace __gnu_cxx _GLIBCXX_VISIBILITY(default)
  41:/usr/include/newlib/c++/9.2.1/ext/new_allocator.h **** {
  42:/usr/include/newlib/c++/9.2.1/ext/new_allocator.h **** _GLIBCXX_BEGIN_NAMESPACE_VERSION
  43:/usr/include/newlib/c++/9.2.1/ext/new_allocator.h **** 
  44:/usr/include/newlib/c++/9.2.1/ext/new_allocator.h ****   using std::size_t;
  45:/usr/include/newlib/c++/9.2.1/ext/new_allocator.h ****   using std::ptrdiff_t;
  46:/usr/include/newlib/c++/9.2.1/ext/new_allocator.h **** 
  47:/usr/include/newlib/c++/9.2.1/ext/new_allocator.h ****   /**
  48:/usr/include/newlib/c++/9.2.1/ext/new_allocator.h ****    *  @brief  An allocator that uses global new, as per [20.4].
  49:/usr/include/newlib/c++/9.2.1/ext/new_allocator.h ****    *  @ingroup allocators
  50:/usr/include/newlib/c++/9.2.1/ext/new_allocator.h ****    *
  51:/usr/include/newlib/c++/9.2.1/ext/new_allocator.h ****    *  This is precisely the allocator defined in the C++ Standard.
  52:/usr/include/newlib/c++/9.2.1/ext/new_allocator.h ****    *    - all allocation calls operator new
  53:/usr/include/newlib/c++/9.2.1/ext/new_allocator.h ****    *    - all deallocation calls operator delete
  54:/usr/include/newlib/c++/9.2.1/ext/new_allocator.h ****    *
  55:/usr/include/newlib/c++/9.2.1/ext/new_allocator.h ****    *  @tparam  _Tp  Type of allocated object.
  56:/usr/include/newlib/c++/9.2.1/ext/new_allocator.h ****    */
  57:/usr/include/newlib/c++/9.2.1/ext/new_allocator.h ****   template<typename _Tp>
  58:/usr/include/newlib/c++/9.2.1/ext/new_allocator.h ****     class new_allocator
ARM GAS  /tmp/cc3v7X8N.s 			page 179


  59:/usr/include/newlib/c++/9.2.1/ext/new_allocator.h ****     {
  60:/usr/include/newlib/c++/9.2.1/ext/new_allocator.h ****     public:
  61:/usr/include/newlib/c++/9.2.1/ext/new_allocator.h ****       typedef size_t     size_type;
  62:/usr/include/newlib/c++/9.2.1/ext/new_allocator.h ****       typedef ptrdiff_t  difference_type;
  63:/usr/include/newlib/c++/9.2.1/ext/new_allocator.h ****       typedef _Tp*       pointer;
  64:/usr/include/newlib/c++/9.2.1/ext/new_allocator.h ****       typedef const _Tp* const_pointer;
  65:/usr/include/newlib/c++/9.2.1/ext/new_allocator.h ****       typedef _Tp&       reference;
  66:/usr/include/newlib/c++/9.2.1/ext/new_allocator.h ****       typedef const _Tp& const_reference;
  67:/usr/include/newlib/c++/9.2.1/ext/new_allocator.h ****       typedef _Tp        value_type;
  68:/usr/include/newlib/c++/9.2.1/ext/new_allocator.h **** 
  69:/usr/include/newlib/c++/9.2.1/ext/new_allocator.h ****       template<typename _Tp1>
  70:/usr/include/newlib/c++/9.2.1/ext/new_allocator.h **** 	struct rebind
  71:/usr/include/newlib/c++/9.2.1/ext/new_allocator.h **** 	{ typedef new_allocator<_Tp1> other; };
  72:/usr/include/newlib/c++/9.2.1/ext/new_allocator.h **** 
  73:/usr/include/newlib/c++/9.2.1/ext/new_allocator.h **** #if __cplusplus >= 201103L
  74:/usr/include/newlib/c++/9.2.1/ext/new_allocator.h ****       // _GLIBCXX_RESOLVE_LIB_DEFECTS
  75:/usr/include/newlib/c++/9.2.1/ext/new_allocator.h ****       // 2103. propagate_on_container_move_assignment
  76:/usr/include/newlib/c++/9.2.1/ext/new_allocator.h ****       typedef std::true_type propagate_on_container_move_assignment;
  77:/usr/include/newlib/c++/9.2.1/ext/new_allocator.h **** #endif
  78:/usr/include/newlib/c++/9.2.1/ext/new_allocator.h **** 
  79:/usr/include/newlib/c++/9.2.1/ext/new_allocator.h ****       _GLIBCXX20_CONSTEXPR
  80:/usr/include/newlib/c++/9.2.1/ext/new_allocator.h ****       new_allocator() _GLIBCXX_USE_NOEXCEPT { }
 6432              		.loc 21 80 7 view .LVU1532
 6433              		.loc 21 80 7 is_stmt 0 view .LVU1533
 6434              	.LBE1847:
 6435              	.LBE1846:
 6436              	.LBB1848:
 6437              	.LBI1848:
 6438              		.file 22 "/usr/include/newlib/c++/9.2.1/bits/basic_string.h"
   1:/usr/include/newlib/c++/9.2.1/bits/basic_string.h **** // Components for manipulating sequences of characters -*- C++ -*-
   2:/usr/include/newlib/c++/9.2.1/bits/basic_string.h **** 
   3:/usr/include/newlib/c++/9.2.1/bits/basic_string.h **** // Copyright (C) 1997-2019 Free Software Foundation, Inc.
   4:/usr/include/newlib/c++/9.2.1/bits/basic_string.h **** //
   5:/usr/include/newlib/c++/9.2.1/bits/basic_string.h **** // This file is part of the GNU ISO C++ Library.  This library is free
   6:/usr/include/newlib/c++/9.2.1/bits/basic_string.h **** // software; you can redistribute it and/or modify it under the
   7:/usr/include/newlib/c++/9.2.1/bits/basic_string.h **** // terms of the GNU General Public License as published by the
   8:/usr/include/newlib/c++/9.2.1/bits/basic_string.h **** // Free Software Foundation; either version 3, or (at your option)
   9:/usr/include/newlib/c++/9.2.1/bits/basic_string.h **** // any later version.
  10:/usr/include/newlib/c++/9.2.1/bits/basic_string.h **** 
  11:/usr/include/newlib/c++/9.2.1/bits/basic_string.h **** // This library is distributed in the hope that it will be useful,
  12:/usr/include/newlib/c++/9.2.1/bits/basic_string.h **** // but WITHOUT ANY WARRANTY; without even the implied warranty of
  13:/usr/include/newlib/c++/9.2.1/bits/basic_string.h **** // MERCHANTABILITY or FITNESS FOR A PARTICULAR PURPOSE.  See the
  14:/usr/include/newlib/c++/9.2.1/bits/basic_string.h **** // GNU General Public License for more details.
  15:/usr/include/newlib/c++/9.2.1/bits/basic_string.h **** 
  16:/usr/include/newlib/c++/9.2.1/bits/basic_string.h **** // Under Section 7 of GPL version 3, you are granted additional
  17:/usr/include/newlib/c++/9.2.1/bits/basic_string.h **** // permissions described in the GCC Runtime Library Exception, version
  18:/usr/include/newlib/c++/9.2.1/bits/basic_string.h **** // 3.1, as published by the Free Software Foundation.
  19:/usr/include/newlib/c++/9.2.1/bits/basic_string.h **** 
  20:/usr/include/newlib/c++/9.2.1/bits/basic_string.h **** // You should have received a copy of the GNU General Public License and
  21:/usr/include/newlib/c++/9.2.1/bits/basic_string.h **** // a copy of the GCC Runtime Library Exception along with this program;
  22:/usr/include/newlib/c++/9.2.1/bits/basic_string.h **** // see the files COPYING3 and COPYING.RUNTIME respectively.  If not, see
  23:/usr/include/newlib/c++/9.2.1/bits/basic_string.h **** // <http://www.gnu.org/licenses/>.
  24:/usr/include/newlib/c++/9.2.1/bits/basic_string.h **** 
  25:/usr/include/newlib/c++/9.2.1/bits/basic_string.h **** /** @file bits/basic_string.h
  26:/usr/include/newlib/c++/9.2.1/bits/basic_string.h ****  *  This is an internal header file, included by other library headers.
  27:/usr/include/newlib/c++/9.2.1/bits/basic_string.h ****  *  Do not attempt to use it directly. @headername{string}
  28:/usr/include/newlib/c++/9.2.1/bits/basic_string.h ****  */
ARM GAS  /tmp/cc3v7X8N.s 			page 180


  29:/usr/include/newlib/c++/9.2.1/bits/basic_string.h **** 
  30:/usr/include/newlib/c++/9.2.1/bits/basic_string.h **** //
  31:/usr/include/newlib/c++/9.2.1/bits/basic_string.h **** // ISO C++ 14882: 21 Strings library
  32:/usr/include/newlib/c++/9.2.1/bits/basic_string.h **** //
  33:/usr/include/newlib/c++/9.2.1/bits/basic_string.h **** 
  34:/usr/include/newlib/c++/9.2.1/bits/basic_string.h **** #ifndef _BASIC_STRING_H
  35:/usr/include/newlib/c++/9.2.1/bits/basic_string.h **** #define _BASIC_STRING_H 1
  36:/usr/include/newlib/c++/9.2.1/bits/basic_string.h **** 
  37:/usr/include/newlib/c++/9.2.1/bits/basic_string.h **** #pragma GCC system_header
  38:/usr/include/newlib/c++/9.2.1/bits/basic_string.h **** 
  39:/usr/include/newlib/c++/9.2.1/bits/basic_string.h **** #include <ext/atomicity.h>
  40:/usr/include/newlib/c++/9.2.1/bits/basic_string.h **** #include <ext/alloc_traits.h>
  41:/usr/include/newlib/c++/9.2.1/bits/basic_string.h **** #include <debug/debug.h>
  42:/usr/include/newlib/c++/9.2.1/bits/basic_string.h **** 
  43:/usr/include/newlib/c++/9.2.1/bits/basic_string.h **** #if __cplusplus >= 201103L
  44:/usr/include/newlib/c++/9.2.1/bits/basic_string.h **** #include <initializer_list>
  45:/usr/include/newlib/c++/9.2.1/bits/basic_string.h **** #endif
  46:/usr/include/newlib/c++/9.2.1/bits/basic_string.h **** 
  47:/usr/include/newlib/c++/9.2.1/bits/basic_string.h **** #if __cplusplus >= 201703L
  48:/usr/include/newlib/c++/9.2.1/bits/basic_string.h **** # include <string_view>
  49:/usr/include/newlib/c++/9.2.1/bits/basic_string.h **** #endif
  50:/usr/include/newlib/c++/9.2.1/bits/basic_string.h **** 
  51:/usr/include/newlib/c++/9.2.1/bits/basic_string.h **** 
  52:/usr/include/newlib/c++/9.2.1/bits/basic_string.h **** namespace std _GLIBCXX_VISIBILITY(default)
  53:/usr/include/newlib/c++/9.2.1/bits/basic_string.h **** {
  54:/usr/include/newlib/c++/9.2.1/bits/basic_string.h **** _GLIBCXX_BEGIN_NAMESPACE_VERSION
  55:/usr/include/newlib/c++/9.2.1/bits/basic_string.h **** 
  56:/usr/include/newlib/c++/9.2.1/bits/basic_string.h **** #if _GLIBCXX_USE_CXX11_ABI
  57:/usr/include/newlib/c++/9.2.1/bits/basic_string.h **** _GLIBCXX_BEGIN_NAMESPACE_CXX11
  58:/usr/include/newlib/c++/9.2.1/bits/basic_string.h ****   /**
  59:/usr/include/newlib/c++/9.2.1/bits/basic_string.h ****    *  @class basic_string basic_string.h <string>
  60:/usr/include/newlib/c++/9.2.1/bits/basic_string.h ****    *  @brief  Managing sequences of characters and character-like objects.
  61:/usr/include/newlib/c++/9.2.1/bits/basic_string.h ****    *
  62:/usr/include/newlib/c++/9.2.1/bits/basic_string.h ****    *  @ingroup strings
  63:/usr/include/newlib/c++/9.2.1/bits/basic_string.h ****    *  @ingroup sequences
  64:/usr/include/newlib/c++/9.2.1/bits/basic_string.h ****    *
  65:/usr/include/newlib/c++/9.2.1/bits/basic_string.h ****    *  @tparam _CharT  Type of character
  66:/usr/include/newlib/c++/9.2.1/bits/basic_string.h ****    *  @tparam _Traits  Traits for character type, defaults to
  67:/usr/include/newlib/c++/9.2.1/bits/basic_string.h ****    *                   char_traits<_CharT>.
  68:/usr/include/newlib/c++/9.2.1/bits/basic_string.h ****    *  @tparam _Alloc  Allocator type, defaults to allocator<_CharT>.
  69:/usr/include/newlib/c++/9.2.1/bits/basic_string.h ****    *
  70:/usr/include/newlib/c++/9.2.1/bits/basic_string.h ****    *  Meets the requirements of a <a href="tables.html#65">container</a>, a
  71:/usr/include/newlib/c++/9.2.1/bits/basic_string.h ****    *  <a href="tables.html#66">reversible container</a>, and a
  72:/usr/include/newlib/c++/9.2.1/bits/basic_string.h ****    *  <a href="tables.html#67">sequence</a>.  Of the
  73:/usr/include/newlib/c++/9.2.1/bits/basic_string.h ****    *  <a href="tables.html#68">optional sequence requirements</a>, only
  74:/usr/include/newlib/c++/9.2.1/bits/basic_string.h ****    *  @c push_back, @c at, and @c %array access are supported.
  75:/usr/include/newlib/c++/9.2.1/bits/basic_string.h ****    */
  76:/usr/include/newlib/c++/9.2.1/bits/basic_string.h ****   template<typename _CharT, typename _Traits, typename _Alloc>
  77:/usr/include/newlib/c++/9.2.1/bits/basic_string.h ****     class basic_string
  78:/usr/include/newlib/c++/9.2.1/bits/basic_string.h ****     {
  79:/usr/include/newlib/c++/9.2.1/bits/basic_string.h ****       typedef typename __gnu_cxx::__alloc_traits<_Alloc>::template
  80:/usr/include/newlib/c++/9.2.1/bits/basic_string.h **** 	rebind<_CharT>::other _Char_alloc_type;
  81:/usr/include/newlib/c++/9.2.1/bits/basic_string.h ****       typedef __gnu_cxx::__alloc_traits<_Char_alloc_type> _Alloc_traits;
  82:/usr/include/newlib/c++/9.2.1/bits/basic_string.h **** 
  83:/usr/include/newlib/c++/9.2.1/bits/basic_string.h ****       // Types:
  84:/usr/include/newlib/c++/9.2.1/bits/basic_string.h ****     public:
  85:/usr/include/newlib/c++/9.2.1/bits/basic_string.h ****       typedef _Traits					traits_type;
ARM GAS  /tmp/cc3v7X8N.s 			page 181


  86:/usr/include/newlib/c++/9.2.1/bits/basic_string.h ****       typedef typename _Traits::char_type		value_type;
  87:/usr/include/newlib/c++/9.2.1/bits/basic_string.h ****       typedef _Char_alloc_type				allocator_type;
  88:/usr/include/newlib/c++/9.2.1/bits/basic_string.h ****       typedef typename _Alloc_traits::size_type		size_type;
  89:/usr/include/newlib/c++/9.2.1/bits/basic_string.h ****       typedef typename _Alloc_traits::difference_type	difference_type;
  90:/usr/include/newlib/c++/9.2.1/bits/basic_string.h ****       typedef typename _Alloc_traits::reference		reference;
  91:/usr/include/newlib/c++/9.2.1/bits/basic_string.h ****       typedef typename _Alloc_traits::const_reference	const_reference;
  92:/usr/include/newlib/c++/9.2.1/bits/basic_string.h ****       typedef typename _Alloc_traits::pointer		pointer;
  93:/usr/include/newlib/c++/9.2.1/bits/basic_string.h ****       typedef typename _Alloc_traits::const_pointer	const_pointer;
  94:/usr/include/newlib/c++/9.2.1/bits/basic_string.h ****       typedef __gnu_cxx::__normal_iterator<pointer, basic_string>  iterator;
  95:/usr/include/newlib/c++/9.2.1/bits/basic_string.h ****       typedef __gnu_cxx::__normal_iterator<const_pointer, basic_string>
  96:/usr/include/newlib/c++/9.2.1/bits/basic_string.h **** 							const_iterator;
  97:/usr/include/newlib/c++/9.2.1/bits/basic_string.h ****       typedef std::reverse_iterator<const_iterator>	const_reverse_iterator;
  98:/usr/include/newlib/c++/9.2.1/bits/basic_string.h ****       typedef std::reverse_iterator<iterator>		reverse_iterator;
  99:/usr/include/newlib/c++/9.2.1/bits/basic_string.h **** 
 100:/usr/include/newlib/c++/9.2.1/bits/basic_string.h ****       ///  Value returned by various member functions when they fail.
 101:/usr/include/newlib/c++/9.2.1/bits/basic_string.h ****       static const size_type	npos = static_cast<size_type>(-1);
 102:/usr/include/newlib/c++/9.2.1/bits/basic_string.h **** 
 103:/usr/include/newlib/c++/9.2.1/bits/basic_string.h ****     protected:
 104:/usr/include/newlib/c++/9.2.1/bits/basic_string.h ****       // type used for positions in insert, erase etc.
 105:/usr/include/newlib/c++/9.2.1/bits/basic_string.h **** #if __cplusplus < 201103L
 106:/usr/include/newlib/c++/9.2.1/bits/basic_string.h ****       typedef iterator __const_iterator;
 107:/usr/include/newlib/c++/9.2.1/bits/basic_string.h **** #else
 108:/usr/include/newlib/c++/9.2.1/bits/basic_string.h ****       typedef const_iterator __const_iterator;
 109:/usr/include/newlib/c++/9.2.1/bits/basic_string.h **** #endif
 110:/usr/include/newlib/c++/9.2.1/bits/basic_string.h **** 
 111:/usr/include/newlib/c++/9.2.1/bits/basic_string.h ****     private:
 112:/usr/include/newlib/c++/9.2.1/bits/basic_string.h **** #if __cplusplus >= 201703L
 113:/usr/include/newlib/c++/9.2.1/bits/basic_string.h ****       // A helper type for avoiding boiler-plate.
 114:/usr/include/newlib/c++/9.2.1/bits/basic_string.h ****       typedef basic_string_view<_CharT, _Traits> __sv_type;
 115:/usr/include/newlib/c++/9.2.1/bits/basic_string.h **** 
 116:/usr/include/newlib/c++/9.2.1/bits/basic_string.h ****       template<typename _Tp, typename _Res>
 117:/usr/include/newlib/c++/9.2.1/bits/basic_string.h **** 	using _If_sv = enable_if_t<
 118:/usr/include/newlib/c++/9.2.1/bits/basic_string.h **** 	  __and_<is_convertible<const _Tp&, __sv_type>,
 119:/usr/include/newlib/c++/9.2.1/bits/basic_string.h **** 		 __not_<is_convertible<const _Tp*, const basic_string*>>,
 120:/usr/include/newlib/c++/9.2.1/bits/basic_string.h **** 		 __not_<is_convertible<const _Tp&, const _CharT*>>>::value,
 121:/usr/include/newlib/c++/9.2.1/bits/basic_string.h **** 	  _Res>;
 122:/usr/include/newlib/c++/9.2.1/bits/basic_string.h **** 
 123:/usr/include/newlib/c++/9.2.1/bits/basic_string.h ****       // Allows an implicit conversion to __sv_type.
 124:/usr/include/newlib/c++/9.2.1/bits/basic_string.h ****       static __sv_type
 125:/usr/include/newlib/c++/9.2.1/bits/basic_string.h ****       _S_to_string_view(__sv_type __svt) noexcept
 126:/usr/include/newlib/c++/9.2.1/bits/basic_string.h ****       { return __svt; }
 127:/usr/include/newlib/c++/9.2.1/bits/basic_string.h **** 
 128:/usr/include/newlib/c++/9.2.1/bits/basic_string.h ****       // Wraps a string_view by explicit conversion and thus
 129:/usr/include/newlib/c++/9.2.1/bits/basic_string.h ****       // allows to add an internal constructor that does not
 130:/usr/include/newlib/c++/9.2.1/bits/basic_string.h ****       // participate in overload resolution when a string_view
 131:/usr/include/newlib/c++/9.2.1/bits/basic_string.h ****       // is provided.
 132:/usr/include/newlib/c++/9.2.1/bits/basic_string.h ****       struct __sv_wrapper
 133:/usr/include/newlib/c++/9.2.1/bits/basic_string.h ****       {
 134:/usr/include/newlib/c++/9.2.1/bits/basic_string.h **** 	explicit __sv_wrapper(__sv_type __sv) noexcept : _M_sv(__sv) { }
 135:/usr/include/newlib/c++/9.2.1/bits/basic_string.h **** 	__sv_type _M_sv;
 136:/usr/include/newlib/c++/9.2.1/bits/basic_string.h ****       };
 137:/usr/include/newlib/c++/9.2.1/bits/basic_string.h **** 
 138:/usr/include/newlib/c++/9.2.1/bits/basic_string.h ****       /**
 139:/usr/include/newlib/c++/9.2.1/bits/basic_string.h ****        *  @brief  Only internally used: Construct string from a string view
 140:/usr/include/newlib/c++/9.2.1/bits/basic_string.h ****        *          wrapper.
 141:/usr/include/newlib/c++/9.2.1/bits/basic_string.h ****        *  @param  __svw  string view wrapper.
 142:/usr/include/newlib/c++/9.2.1/bits/basic_string.h ****        *  @param  __a  Allocator to use.
ARM GAS  /tmp/cc3v7X8N.s 			page 182


 143:/usr/include/newlib/c++/9.2.1/bits/basic_string.h ****        */
 144:/usr/include/newlib/c++/9.2.1/bits/basic_string.h ****       explicit
 145:/usr/include/newlib/c++/9.2.1/bits/basic_string.h ****       basic_string(__sv_wrapper __svw, const _Alloc& __a)
 146:/usr/include/newlib/c++/9.2.1/bits/basic_string.h ****       : basic_string(__svw._M_sv.data(), __svw._M_sv.size(), __a) { }
 147:/usr/include/newlib/c++/9.2.1/bits/basic_string.h **** #endif
 148:/usr/include/newlib/c++/9.2.1/bits/basic_string.h **** 
 149:/usr/include/newlib/c++/9.2.1/bits/basic_string.h ****       // Use empty-base optimization: http://www.cantrip.org/emptyopt.html
 150:/usr/include/newlib/c++/9.2.1/bits/basic_string.h ****       struct _Alloc_hider : allocator_type // TODO check __is_final
 151:/usr/include/newlib/c++/9.2.1/bits/basic_string.h ****       {
 152:/usr/include/newlib/c++/9.2.1/bits/basic_string.h **** #if __cplusplus < 201103L
 153:/usr/include/newlib/c++/9.2.1/bits/basic_string.h **** 	_Alloc_hider(pointer __dat, const _Alloc& __a = _Alloc())
 154:/usr/include/newlib/c++/9.2.1/bits/basic_string.h **** 	: allocator_type(__a), _M_p(__dat) { }
 155:/usr/include/newlib/c++/9.2.1/bits/basic_string.h **** #else
 156:/usr/include/newlib/c++/9.2.1/bits/basic_string.h **** 	_Alloc_hider(pointer __dat, const _Alloc& __a)
 157:/usr/include/newlib/c++/9.2.1/bits/basic_string.h **** 	: allocator_type(__a), _M_p(__dat) { }
 158:/usr/include/newlib/c++/9.2.1/bits/basic_string.h **** 
 159:/usr/include/newlib/c++/9.2.1/bits/basic_string.h **** 	_Alloc_hider(pointer __dat, _Alloc&& __a = _Alloc())
 160:/usr/include/newlib/c++/9.2.1/bits/basic_string.h **** 	: allocator_type(std::move(__a)), _M_p(__dat) { }
 161:/usr/include/newlib/c++/9.2.1/bits/basic_string.h **** #endif
 162:/usr/include/newlib/c++/9.2.1/bits/basic_string.h **** 
 163:/usr/include/newlib/c++/9.2.1/bits/basic_string.h **** 	pointer _M_p; // The actual data.
 164:/usr/include/newlib/c++/9.2.1/bits/basic_string.h ****       };
 165:/usr/include/newlib/c++/9.2.1/bits/basic_string.h **** 
 166:/usr/include/newlib/c++/9.2.1/bits/basic_string.h ****       _Alloc_hider	_M_dataplus;
 167:/usr/include/newlib/c++/9.2.1/bits/basic_string.h ****       size_type		_M_string_length;
 168:/usr/include/newlib/c++/9.2.1/bits/basic_string.h **** 
 169:/usr/include/newlib/c++/9.2.1/bits/basic_string.h ****       enum { _S_local_capacity = 15 / sizeof(_CharT) };
 170:/usr/include/newlib/c++/9.2.1/bits/basic_string.h **** 
 171:/usr/include/newlib/c++/9.2.1/bits/basic_string.h ****       union
 172:/usr/include/newlib/c++/9.2.1/bits/basic_string.h ****       {
 173:/usr/include/newlib/c++/9.2.1/bits/basic_string.h **** 	_CharT           _M_local_buf[_S_local_capacity + 1];
 174:/usr/include/newlib/c++/9.2.1/bits/basic_string.h **** 	size_type        _M_allocated_capacity;
 175:/usr/include/newlib/c++/9.2.1/bits/basic_string.h ****       };
 176:/usr/include/newlib/c++/9.2.1/bits/basic_string.h **** 
 177:/usr/include/newlib/c++/9.2.1/bits/basic_string.h ****       void
 178:/usr/include/newlib/c++/9.2.1/bits/basic_string.h ****       _M_data(pointer __p)
 179:/usr/include/newlib/c++/9.2.1/bits/basic_string.h ****       { _M_dataplus._M_p = __p; }
 180:/usr/include/newlib/c++/9.2.1/bits/basic_string.h **** 
 181:/usr/include/newlib/c++/9.2.1/bits/basic_string.h ****       void
 182:/usr/include/newlib/c++/9.2.1/bits/basic_string.h ****       _M_length(size_type __length)
 183:/usr/include/newlib/c++/9.2.1/bits/basic_string.h ****       { _M_string_length = __length; }
 184:/usr/include/newlib/c++/9.2.1/bits/basic_string.h **** 
 185:/usr/include/newlib/c++/9.2.1/bits/basic_string.h ****       pointer
 186:/usr/include/newlib/c++/9.2.1/bits/basic_string.h ****       _M_data() const
 187:/usr/include/newlib/c++/9.2.1/bits/basic_string.h ****       { return _M_dataplus._M_p; }
 188:/usr/include/newlib/c++/9.2.1/bits/basic_string.h **** 
 189:/usr/include/newlib/c++/9.2.1/bits/basic_string.h ****       pointer
 190:/usr/include/newlib/c++/9.2.1/bits/basic_string.h ****       _M_local_data()
 191:/usr/include/newlib/c++/9.2.1/bits/basic_string.h ****       {
 192:/usr/include/newlib/c++/9.2.1/bits/basic_string.h **** #if __cplusplus >= 201103L
 193:/usr/include/newlib/c++/9.2.1/bits/basic_string.h **** 	return std::pointer_traits<pointer>::pointer_to(*_M_local_buf);
 194:/usr/include/newlib/c++/9.2.1/bits/basic_string.h **** #else
 195:/usr/include/newlib/c++/9.2.1/bits/basic_string.h **** 	return pointer(_M_local_buf);
 196:/usr/include/newlib/c++/9.2.1/bits/basic_string.h **** #endif
 197:/usr/include/newlib/c++/9.2.1/bits/basic_string.h ****       }
 198:/usr/include/newlib/c++/9.2.1/bits/basic_string.h **** 
 199:/usr/include/newlib/c++/9.2.1/bits/basic_string.h ****       const_pointer
ARM GAS  /tmp/cc3v7X8N.s 			page 183


 200:/usr/include/newlib/c++/9.2.1/bits/basic_string.h ****       _M_local_data() const
 201:/usr/include/newlib/c++/9.2.1/bits/basic_string.h ****       {
 202:/usr/include/newlib/c++/9.2.1/bits/basic_string.h **** #if __cplusplus >= 201103L
 203:/usr/include/newlib/c++/9.2.1/bits/basic_string.h **** 	return std::pointer_traits<const_pointer>::pointer_to(*_M_local_buf);
 204:/usr/include/newlib/c++/9.2.1/bits/basic_string.h **** #else
 205:/usr/include/newlib/c++/9.2.1/bits/basic_string.h **** 	return const_pointer(_M_local_buf);
 206:/usr/include/newlib/c++/9.2.1/bits/basic_string.h **** #endif
 207:/usr/include/newlib/c++/9.2.1/bits/basic_string.h ****       }
 208:/usr/include/newlib/c++/9.2.1/bits/basic_string.h **** 
 209:/usr/include/newlib/c++/9.2.1/bits/basic_string.h ****       void
 210:/usr/include/newlib/c++/9.2.1/bits/basic_string.h ****       _M_capacity(size_type __capacity)
 211:/usr/include/newlib/c++/9.2.1/bits/basic_string.h ****       { _M_allocated_capacity = __capacity; }
 212:/usr/include/newlib/c++/9.2.1/bits/basic_string.h **** 
 213:/usr/include/newlib/c++/9.2.1/bits/basic_string.h ****       void
 214:/usr/include/newlib/c++/9.2.1/bits/basic_string.h ****       _M_set_length(size_type __n)
 215:/usr/include/newlib/c++/9.2.1/bits/basic_string.h ****       {
 216:/usr/include/newlib/c++/9.2.1/bits/basic_string.h **** 	_M_length(__n);
 217:/usr/include/newlib/c++/9.2.1/bits/basic_string.h **** 	traits_type::assign(_M_data()[__n], _CharT());
 218:/usr/include/newlib/c++/9.2.1/bits/basic_string.h ****       }
 219:/usr/include/newlib/c++/9.2.1/bits/basic_string.h **** 
 220:/usr/include/newlib/c++/9.2.1/bits/basic_string.h ****       bool
 221:/usr/include/newlib/c++/9.2.1/bits/basic_string.h ****       _M_is_local() const
 222:/usr/include/newlib/c++/9.2.1/bits/basic_string.h ****       { return _M_data() == _M_local_data(); }
 223:/usr/include/newlib/c++/9.2.1/bits/basic_string.h **** 
 224:/usr/include/newlib/c++/9.2.1/bits/basic_string.h ****       // Create & Destroy
 225:/usr/include/newlib/c++/9.2.1/bits/basic_string.h ****       pointer
 226:/usr/include/newlib/c++/9.2.1/bits/basic_string.h ****       _M_create(size_type&, size_type);
 227:/usr/include/newlib/c++/9.2.1/bits/basic_string.h **** 
 228:/usr/include/newlib/c++/9.2.1/bits/basic_string.h ****       void
 229:/usr/include/newlib/c++/9.2.1/bits/basic_string.h ****       _M_dispose()
 230:/usr/include/newlib/c++/9.2.1/bits/basic_string.h ****       {
 231:/usr/include/newlib/c++/9.2.1/bits/basic_string.h **** 	if (!_M_is_local())
 232:/usr/include/newlib/c++/9.2.1/bits/basic_string.h **** 	  _M_destroy(_M_allocated_capacity);
 233:/usr/include/newlib/c++/9.2.1/bits/basic_string.h ****       }
 234:/usr/include/newlib/c++/9.2.1/bits/basic_string.h **** 
 235:/usr/include/newlib/c++/9.2.1/bits/basic_string.h ****       void
 236:/usr/include/newlib/c++/9.2.1/bits/basic_string.h ****       _M_destroy(size_type __size) throw()
 237:/usr/include/newlib/c++/9.2.1/bits/basic_string.h ****       { _Alloc_traits::deallocate(_M_get_allocator(), _M_data(), __size + 1); }
 238:/usr/include/newlib/c++/9.2.1/bits/basic_string.h **** 
 239:/usr/include/newlib/c++/9.2.1/bits/basic_string.h ****       // _M_construct_aux is used to implement the 21.3.1 para 15 which
 240:/usr/include/newlib/c++/9.2.1/bits/basic_string.h ****       // requires special behaviour if _InIterator is an integral type
 241:/usr/include/newlib/c++/9.2.1/bits/basic_string.h ****       template<typename _InIterator>
 242:/usr/include/newlib/c++/9.2.1/bits/basic_string.h ****         void
 243:/usr/include/newlib/c++/9.2.1/bits/basic_string.h ****         _M_construct_aux(_InIterator __beg, _InIterator __end,
 244:/usr/include/newlib/c++/9.2.1/bits/basic_string.h **** 			 std::__false_type)
 245:/usr/include/newlib/c++/9.2.1/bits/basic_string.h **** 	{
 246:/usr/include/newlib/c++/9.2.1/bits/basic_string.h ****           typedef typename iterator_traits<_InIterator>::iterator_category _Tag;
 247:/usr/include/newlib/c++/9.2.1/bits/basic_string.h ****           _M_construct(__beg, __end, _Tag());
 248:/usr/include/newlib/c++/9.2.1/bits/basic_string.h **** 	}
 249:/usr/include/newlib/c++/9.2.1/bits/basic_string.h **** 
 250:/usr/include/newlib/c++/9.2.1/bits/basic_string.h ****       // _GLIBCXX_RESOLVE_LIB_DEFECTS
 251:/usr/include/newlib/c++/9.2.1/bits/basic_string.h ****       // 438. Ambiguity in the "do the right thing" clause
 252:/usr/include/newlib/c++/9.2.1/bits/basic_string.h ****       template<typename _Integer>
 253:/usr/include/newlib/c++/9.2.1/bits/basic_string.h ****         void
 254:/usr/include/newlib/c++/9.2.1/bits/basic_string.h ****         _M_construct_aux(_Integer __beg, _Integer __end, std::__true_type)
 255:/usr/include/newlib/c++/9.2.1/bits/basic_string.h **** 	{ _M_construct_aux_2(static_cast<size_type>(__beg), __end); }
 256:/usr/include/newlib/c++/9.2.1/bits/basic_string.h **** 
ARM GAS  /tmp/cc3v7X8N.s 			page 184


 257:/usr/include/newlib/c++/9.2.1/bits/basic_string.h ****       void
 258:/usr/include/newlib/c++/9.2.1/bits/basic_string.h ****       _M_construct_aux_2(size_type __req, _CharT __c)
 259:/usr/include/newlib/c++/9.2.1/bits/basic_string.h ****       { _M_construct(__req, __c); }
 260:/usr/include/newlib/c++/9.2.1/bits/basic_string.h **** 
 261:/usr/include/newlib/c++/9.2.1/bits/basic_string.h ****       template<typename _InIterator>
 262:/usr/include/newlib/c++/9.2.1/bits/basic_string.h ****         void
 263:/usr/include/newlib/c++/9.2.1/bits/basic_string.h ****         _M_construct(_InIterator __beg, _InIterator __end)
 264:/usr/include/newlib/c++/9.2.1/bits/basic_string.h **** 	{
 265:/usr/include/newlib/c++/9.2.1/bits/basic_string.h **** 	  typedef typename std::__is_integer<_InIterator>::__type _Integral;
 266:/usr/include/newlib/c++/9.2.1/bits/basic_string.h **** 	  _M_construct_aux(__beg, __end, _Integral());
 267:/usr/include/newlib/c++/9.2.1/bits/basic_string.h ****         }
 268:/usr/include/newlib/c++/9.2.1/bits/basic_string.h **** 
 269:/usr/include/newlib/c++/9.2.1/bits/basic_string.h ****       // For Input Iterators, used in istreambuf_iterators, etc.
 270:/usr/include/newlib/c++/9.2.1/bits/basic_string.h ****       template<typename _InIterator>
 271:/usr/include/newlib/c++/9.2.1/bits/basic_string.h ****         void
 272:/usr/include/newlib/c++/9.2.1/bits/basic_string.h ****         _M_construct(_InIterator __beg, _InIterator __end,
 273:/usr/include/newlib/c++/9.2.1/bits/basic_string.h **** 		     std::input_iterator_tag);
 274:/usr/include/newlib/c++/9.2.1/bits/basic_string.h **** 
 275:/usr/include/newlib/c++/9.2.1/bits/basic_string.h ****       // For forward_iterators up to random_access_iterators, used for
 276:/usr/include/newlib/c++/9.2.1/bits/basic_string.h ****       // string::iterator, _CharT*, etc.
 277:/usr/include/newlib/c++/9.2.1/bits/basic_string.h ****       template<typename _FwdIterator>
 278:/usr/include/newlib/c++/9.2.1/bits/basic_string.h ****         void
 279:/usr/include/newlib/c++/9.2.1/bits/basic_string.h ****         _M_construct(_FwdIterator __beg, _FwdIterator __end,
 280:/usr/include/newlib/c++/9.2.1/bits/basic_string.h **** 		     std::forward_iterator_tag);
 281:/usr/include/newlib/c++/9.2.1/bits/basic_string.h **** 
 282:/usr/include/newlib/c++/9.2.1/bits/basic_string.h ****       void
 283:/usr/include/newlib/c++/9.2.1/bits/basic_string.h ****       _M_construct(size_type __req, _CharT __c);
 284:/usr/include/newlib/c++/9.2.1/bits/basic_string.h **** 
 285:/usr/include/newlib/c++/9.2.1/bits/basic_string.h ****       allocator_type&
 286:/usr/include/newlib/c++/9.2.1/bits/basic_string.h ****       _M_get_allocator()
 287:/usr/include/newlib/c++/9.2.1/bits/basic_string.h ****       { return _M_dataplus; }
 288:/usr/include/newlib/c++/9.2.1/bits/basic_string.h **** 
 289:/usr/include/newlib/c++/9.2.1/bits/basic_string.h ****       const allocator_type&
 290:/usr/include/newlib/c++/9.2.1/bits/basic_string.h ****       _M_get_allocator() const
 291:/usr/include/newlib/c++/9.2.1/bits/basic_string.h ****       { return _M_dataplus; }
 292:/usr/include/newlib/c++/9.2.1/bits/basic_string.h **** 
 293:/usr/include/newlib/c++/9.2.1/bits/basic_string.h ****     private:
 294:/usr/include/newlib/c++/9.2.1/bits/basic_string.h **** 
 295:/usr/include/newlib/c++/9.2.1/bits/basic_string.h **** #ifdef _GLIBCXX_DISAMBIGUATE_REPLACE_INST
 296:/usr/include/newlib/c++/9.2.1/bits/basic_string.h ****       // The explicit instantiations in misc-inst.cc require this due to
 297:/usr/include/newlib/c++/9.2.1/bits/basic_string.h ****       // https://gcc.gnu.org/bugzilla/show_bug.cgi?id=64063
 298:/usr/include/newlib/c++/9.2.1/bits/basic_string.h ****       template<typename _Tp, bool _Requires =
 299:/usr/include/newlib/c++/9.2.1/bits/basic_string.h **** 	       !__are_same<_Tp, _CharT*>::__value
 300:/usr/include/newlib/c++/9.2.1/bits/basic_string.h **** 	       && !__are_same<_Tp, const _CharT*>::__value
 301:/usr/include/newlib/c++/9.2.1/bits/basic_string.h **** 	       && !__are_same<_Tp, iterator>::__value
 302:/usr/include/newlib/c++/9.2.1/bits/basic_string.h **** 	       && !__are_same<_Tp, const_iterator>::__value>
 303:/usr/include/newlib/c++/9.2.1/bits/basic_string.h **** 	struct __enable_if_not_native_iterator
 304:/usr/include/newlib/c++/9.2.1/bits/basic_string.h **** 	{ typedef basic_string& __type; };
 305:/usr/include/newlib/c++/9.2.1/bits/basic_string.h ****       template<typename _Tp>
 306:/usr/include/newlib/c++/9.2.1/bits/basic_string.h **** 	struct __enable_if_not_native_iterator<_Tp, false> { };
 307:/usr/include/newlib/c++/9.2.1/bits/basic_string.h **** #endif
 308:/usr/include/newlib/c++/9.2.1/bits/basic_string.h **** 
 309:/usr/include/newlib/c++/9.2.1/bits/basic_string.h ****       size_type
 310:/usr/include/newlib/c++/9.2.1/bits/basic_string.h ****       _M_check(size_type __pos, const char* __s) const
 311:/usr/include/newlib/c++/9.2.1/bits/basic_string.h ****       {
 312:/usr/include/newlib/c++/9.2.1/bits/basic_string.h **** 	if (__pos > this->size())
 313:/usr/include/newlib/c++/9.2.1/bits/basic_string.h **** 	  __throw_out_of_range_fmt(__N("%s: __pos (which is %zu) > "
ARM GAS  /tmp/cc3v7X8N.s 			page 185


 314:/usr/include/newlib/c++/9.2.1/bits/basic_string.h **** 				       "this->size() (which is %zu)"),
 315:/usr/include/newlib/c++/9.2.1/bits/basic_string.h **** 				   __s, __pos, this->size());
 316:/usr/include/newlib/c++/9.2.1/bits/basic_string.h **** 	return __pos;
 317:/usr/include/newlib/c++/9.2.1/bits/basic_string.h ****       }
 318:/usr/include/newlib/c++/9.2.1/bits/basic_string.h **** 
 319:/usr/include/newlib/c++/9.2.1/bits/basic_string.h ****       void
 320:/usr/include/newlib/c++/9.2.1/bits/basic_string.h ****       _M_check_length(size_type __n1, size_type __n2, const char* __s) const
 321:/usr/include/newlib/c++/9.2.1/bits/basic_string.h ****       {
 322:/usr/include/newlib/c++/9.2.1/bits/basic_string.h **** 	if (this->max_size() - (this->size() - __n1) < __n2)
 323:/usr/include/newlib/c++/9.2.1/bits/basic_string.h **** 	  __throw_length_error(__N(__s));
 324:/usr/include/newlib/c++/9.2.1/bits/basic_string.h ****       }
 325:/usr/include/newlib/c++/9.2.1/bits/basic_string.h **** 
 326:/usr/include/newlib/c++/9.2.1/bits/basic_string.h **** 
 327:/usr/include/newlib/c++/9.2.1/bits/basic_string.h ****       // NB: _M_limit doesn't check for a bad __pos value.
 328:/usr/include/newlib/c++/9.2.1/bits/basic_string.h ****       size_type
 329:/usr/include/newlib/c++/9.2.1/bits/basic_string.h ****       _M_limit(size_type __pos, size_type __off) const _GLIBCXX_NOEXCEPT
 330:/usr/include/newlib/c++/9.2.1/bits/basic_string.h ****       {
 331:/usr/include/newlib/c++/9.2.1/bits/basic_string.h **** 	const bool __testoff =  __off < this->size() - __pos;
 332:/usr/include/newlib/c++/9.2.1/bits/basic_string.h **** 	return __testoff ? __off : this->size() - __pos;
 333:/usr/include/newlib/c++/9.2.1/bits/basic_string.h ****       }
 334:/usr/include/newlib/c++/9.2.1/bits/basic_string.h **** 
 335:/usr/include/newlib/c++/9.2.1/bits/basic_string.h ****       // True if _Rep and source do not overlap.
 336:/usr/include/newlib/c++/9.2.1/bits/basic_string.h ****       bool
 337:/usr/include/newlib/c++/9.2.1/bits/basic_string.h ****       _M_disjunct(const _CharT* __s) const _GLIBCXX_NOEXCEPT
 338:/usr/include/newlib/c++/9.2.1/bits/basic_string.h ****       {
 339:/usr/include/newlib/c++/9.2.1/bits/basic_string.h **** 	return (less<const _CharT*>()(__s, _M_data())
 340:/usr/include/newlib/c++/9.2.1/bits/basic_string.h **** 		|| less<const _CharT*>()(_M_data() + this->size(), __s));
 341:/usr/include/newlib/c++/9.2.1/bits/basic_string.h ****       }
 342:/usr/include/newlib/c++/9.2.1/bits/basic_string.h **** 
 343:/usr/include/newlib/c++/9.2.1/bits/basic_string.h ****       // When __n = 1 way faster than the general multichar
 344:/usr/include/newlib/c++/9.2.1/bits/basic_string.h ****       // traits_type::copy/move/assign.
 345:/usr/include/newlib/c++/9.2.1/bits/basic_string.h ****       static void
 346:/usr/include/newlib/c++/9.2.1/bits/basic_string.h ****       _S_copy(_CharT* __d, const _CharT* __s, size_type __n)
 347:/usr/include/newlib/c++/9.2.1/bits/basic_string.h ****       {
 348:/usr/include/newlib/c++/9.2.1/bits/basic_string.h **** 	if (__n == 1)
 349:/usr/include/newlib/c++/9.2.1/bits/basic_string.h **** 	  traits_type::assign(*__d, *__s);
 350:/usr/include/newlib/c++/9.2.1/bits/basic_string.h **** 	else
 351:/usr/include/newlib/c++/9.2.1/bits/basic_string.h **** 	  traits_type::copy(__d, __s, __n);
 352:/usr/include/newlib/c++/9.2.1/bits/basic_string.h ****       }
 353:/usr/include/newlib/c++/9.2.1/bits/basic_string.h **** 
 354:/usr/include/newlib/c++/9.2.1/bits/basic_string.h ****       static void
 355:/usr/include/newlib/c++/9.2.1/bits/basic_string.h ****       _S_move(_CharT* __d, const _CharT* __s, size_type __n)
 356:/usr/include/newlib/c++/9.2.1/bits/basic_string.h ****       {
 357:/usr/include/newlib/c++/9.2.1/bits/basic_string.h **** 	if (__n == 1)
 358:/usr/include/newlib/c++/9.2.1/bits/basic_string.h **** 	  traits_type::assign(*__d, *__s);
 359:/usr/include/newlib/c++/9.2.1/bits/basic_string.h **** 	else
 360:/usr/include/newlib/c++/9.2.1/bits/basic_string.h **** 	  traits_type::move(__d, __s, __n);
 361:/usr/include/newlib/c++/9.2.1/bits/basic_string.h ****       }
 362:/usr/include/newlib/c++/9.2.1/bits/basic_string.h **** 
 363:/usr/include/newlib/c++/9.2.1/bits/basic_string.h ****       static void
 364:/usr/include/newlib/c++/9.2.1/bits/basic_string.h ****       _S_assign(_CharT* __d, size_type __n, _CharT __c)
 365:/usr/include/newlib/c++/9.2.1/bits/basic_string.h ****       {
 366:/usr/include/newlib/c++/9.2.1/bits/basic_string.h **** 	if (__n == 1)
 367:/usr/include/newlib/c++/9.2.1/bits/basic_string.h **** 	  traits_type::assign(*__d, __c);
 368:/usr/include/newlib/c++/9.2.1/bits/basic_string.h **** 	else
 369:/usr/include/newlib/c++/9.2.1/bits/basic_string.h **** 	  traits_type::assign(__d, __n, __c);
 370:/usr/include/newlib/c++/9.2.1/bits/basic_string.h ****       }
ARM GAS  /tmp/cc3v7X8N.s 			page 186


 371:/usr/include/newlib/c++/9.2.1/bits/basic_string.h **** 
 372:/usr/include/newlib/c++/9.2.1/bits/basic_string.h ****       // _S_copy_chars is a separate template to permit specialization
 373:/usr/include/newlib/c++/9.2.1/bits/basic_string.h ****       // to optimize for the common case of pointers as iterators.
 374:/usr/include/newlib/c++/9.2.1/bits/basic_string.h ****       template<class _Iterator>
 375:/usr/include/newlib/c++/9.2.1/bits/basic_string.h ****         static void
 376:/usr/include/newlib/c++/9.2.1/bits/basic_string.h ****         _S_copy_chars(_CharT* __p, _Iterator __k1, _Iterator __k2)
 377:/usr/include/newlib/c++/9.2.1/bits/basic_string.h ****         {
 378:/usr/include/newlib/c++/9.2.1/bits/basic_string.h **** 	  for (; __k1 != __k2; ++__k1, (void)++__p)
 379:/usr/include/newlib/c++/9.2.1/bits/basic_string.h **** 	    traits_type::assign(*__p, *__k1); // These types are off.
 380:/usr/include/newlib/c++/9.2.1/bits/basic_string.h **** 	}
 381:/usr/include/newlib/c++/9.2.1/bits/basic_string.h **** 
 382:/usr/include/newlib/c++/9.2.1/bits/basic_string.h ****       static void
 383:/usr/include/newlib/c++/9.2.1/bits/basic_string.h ****       _S_copy_chars(_CharT* __p, iterator __k1, iterator __k2) _GLIBCXX_NOEXCEPT
 384:/usr/include/newlib/c++/9.2.1/bits/basic_string.h ****       { _S_copy_chars(__p, __k1.base(), __k2.base()); }
 385:/usr/include/newlib/c++/9.2.1/bits/basic_string.h **** 
 386:/usr/include/newlib/c++/9.2.1/bits/basic_string.h ****       static void
 387:/usr/include/newlib/c++/9.2.1/bits/basic_string.h ****       _S_copy_chars(_CharT* __p, const_iterator __k1, const_iterator __k2)
 388:/usr/include/newlib/c++/9.2.1/bits/basic_string.h ****       _GLIBCXX_NOEXCEPT
 389:/usr/include/newlib/c++/9.2.1/bits/basic_string.h ****       { _S_copy_chars(__p, __k1.base(), __k2.base()); }
 390:/usr/include/newlib/c++/9.2.1/bits/basic_string.h **** 
 391:/usr/include/newlib/c++/9.2.1/bits/basic_string.h ****       static void
 392:/usr/include/newlib/c++/9.2.1/bits/basic_string.h ****       _S_copy_chars(_CharT* __p, _CharT* __k1, _CharT* __k2) _GLIBCXX_NOEXCEPT
 393:/usr/include/newlib/c++/9.2.1/bits/basic_string.h ****       { _S_copy(__p, __k1, __k2 - __k1); }
 394:/usr/include/newlib/c++/9.2.1/bits/basic_string.h **** 
 395:/usr/include/newlib/c++/9.2.1/bits/basic_string.h ****       static void
 396:/usr/include/newlib/c++/9.2.1/bits/basic_string.h ****       _S_copy_chars(_CharT* __p, const _CharT* __k1, const _CharT* __k2)
 397:/usr/include/newlib/c++/9.2.1/bits/basic_string.h ****       _GLIBCXX_NOEXCEPT
 398:/usr/include/newlib/c++/9.2.1/bits/basic_string.h ****       { _S_copy(__p, __k1, __k2 - __k1); }
 399:/usr/include/newlib/c++/9.2.1/bits/basic_string.h **** 
 400:/usr/include/newlib/c++/9.2.1/bits/basic_string.h ****       static int
 401:/usr/include/newlib/c++/9.2.1/bits/basic_string.h ****       _S_compare(size_type __n1, size_type __n2) _GLIBCXX_NOEXCEPT
 402:/usr/include/newlib/c++/9.2.1/bits/basic_string.h ****       {
 403:/usr/include/newlib/c++/9.2.1/bits/basic_string.h **** 	const difference_type __d = difference_type(__n1 - __n2);
 404:/usr/include/newlib/c++/9.2.1/bits/basic_string.h **** 
 405:/usr/include/newlib/c++/9.2.1/bits/basic_string.h **** 	if (__d > __gnu_cxx::__numeric_traits<int>::__max)
 406:/usr/include/newlib/c++/9.2.1/bits/basic_string.h **** 	  return __gnu_cxx::__numeric_traits<int>::__max;
 407:/usr/include/newlib/c++/9.2.1/bits/basic_string.h **** 	else if (__d < __gnu_cxx::__numeric_traits<int>::__min)
 408:/usr/include/newlib/c++/9.2.1/bits/basic_string.h **** 	  return __gnu_cxx::__numeric_traits<int>::__min;
 409:/usr/include/newlib/c++/9.2.1/bits/basic_string.h **** 	else
 410:/usr/include/newlib/c++/9.2.1/bits/basic_string.h **** 	  return int(__d);
 411:/usr/include/newlib/c++/9.2.1/bits/basic_string.h ****       }
 412:/usr/include/newlib/c++/9.2.1/bits/basic_string.h **** 
 413:/usr/include/newlib/c++/9.2.1/bits/basic_string.h ****       void
 414:/usr/include/newlib/c++/9.2.1/bits/basic_string.h ****       _M_assign(const basic_string&);
 415:/usr/include/newlib/c++/9.2.1/bits/basic_string.h **** 
 416:/usr/include/newlib/c++/9.2.1/bits/basic_string.h ****       void
 417:/usr/include/newlib/c++/9.2.1/bits/basic_string.h ****       _M_mutate(size_type __pos, size_type __len1, const _CharT* __s,
 418:/usr/include/newlib/c++/9.2.1/bits/basic_string.h **** 		size_type __len2);
 419:/usr/include/newlib/c++/9.2.1/bits/basic_string.h **** 
 420:/usr/include/newlib/c++/9.2.1/bits/basic_string.h ****       void
 421:/usr/include/newlib/c++/9.2.1/bits/basic_string.h ****       _M_erase(size_type __pos, size_type __n);
 422:/usr/include/newlib/c++/9.2.1/bits/basic_string.h **** 
 423:/usr/include/newlib/c++/9.2.1/bits/basic_string.h ****     public:
 424:/usr/include/newlib/c++/9.2.1/bits/basic_string.h ****       // Construct/copy/destroy:
 425:/usr/include/newlib/c++/9.2.1/bits/basic_string.h ****       // NB: We overload ctors in some cases instead of using default
 426:/usr/include/newlib/c++/9.2.1/bits/basic_string.h ****       // arguments, per 17.4.4.4 para. 2 item 2.
 427:/usr/include/newlib/c++/9.2.1/bits/basic_string.h **** 
ARM GAS  /tmp/cc3v7X8N.s 			page 187


 428:/usr/include/newlib/c++/9.2.1/bits/basic_string.h ****       /**
 429:/usr/include/newlib/c++/9.2.1/bits/basic_string.h ****        *  @brief  Default constructor creates an empty string.
 430:/usr/include/newlib/c++/9.2.1/bits/basic_string.h ****        */
 431:/usr/include/newlib/c++/9.2.1/bits/basic_string.h ****       basic_string()
 432:/usr/include/newlib/c++/9.2.1/bits/basic_string.h ****       _GLIBCXX_NOEXCEPT_IF(is_nothrow_default_constructible<_Alloc>::value)
 433:/usr/include/newlib/c++/9.2.1/bits/basic_string.h ****       : _M_dataplus(_M_local_data())
 434:/usr/include/newlib/c++/9.2.1/bits/basic_string.h ****       { _M_set_length(0); }
 435:/usr/include/newlib/c++/9.2.1/bits/basic_string.h **** 
 436:/usr/include/newlib/c++/9.2.1/bits/basic_string.h ****       /**
 437:/usr/include/newlib/c++/9.2.1/bits/basic_string.h ****        *  @brief  Construct an empty string using allocator @a a.
 438:/usr/include/newlib/c++/9.2.1/bits/basic_string.h ****        */
 439:/usr/include/newlib/c++/9.2.1/bits/basic_string.h ****       explicit
 440:/usr/include/newlib/c++/9.2.1/bits/basic_string.h ****       basic_string(const _Alloc& __a) _GLIBCXX_NOEXCEPT
 441:/usr/include/newlib/c++/9.2.1/bits/basic_string.h ****       : _M_dataplus(_M_local_data(), __a)
 442:/usr/include/newlib/c++/9.2.1/bits/basic_string.h ****       { _M_set_length(0); }
 443:/usr/include/newlib/c++/9.2.1/bits/basic_string.h **** 
 444:/usr/include/newlib/c++/9.2.1/bits/basic_string.h ****       /**
 445:/usr/include/newlib/c++/9.2.1/bits/basic_string.h ****        *  @brief  Construct string with copy of value of @a __str.
 446:/usr/include/newlib/c++/9.2.1/bits/basic_string.h ****        *  @param  __str  Source string.
 447:/usr/include/newlib/c++/9.2.1/bits/basic_string.h ****        */
 448:/usr/include/newlib/c++/9.2.1/bits/basic_string.h ****       basic_string(const basic_string& __str)
 449:/usr/include/newlib/c++/9.2.1/bits/basic_string.h ****       : _M_dataplus(_M_local_data(),
 450:/usr/include/newlib/c++/9.2.1/bits/basic_string.h **** 		    _Alloc_traits::_S_select_on_copy(__str._M_get_allocator()))
 451:/usr/include/newlib/c++/9.2.1/bits/basic_string.h ****       { _M_construct(__str._M_data(), __str._M_data() + __str.length()); }
 452:/usr/include/newlib/c++/9.2.1/bits/basic_string.h **** 
 453:/usr/include/newlib/c++/9.2.1/bits/basic_string.h ****       // _GLIBCXX_RESOLVE_LIB_DEFECTS
 454:/usr/include/newlib/c++/9.2.1/bits/basic_string.h ****       // 2583. no way to supply an allocator for basic_string(str, pos)
 455:/usr/include/newlib/c++/9.2.1/bits/basic_string.h ****       /**
 456:/usr/include/newlib/c++/9.2.1/bits/basic_string.h ****        *  @brief  Construct string as copy of a substring.
 457:/usr/include/newlib/c++/9.2.1/bits/basic_string.h ****        *  @param  __str  Source string.
 458:/usr/include/newlib/c++/9.2.1/bits/basic_string.h ****        *  @param  __pos  Index of first character to copy from.
 459:/usr/include/newlib/c++/9.2.1/bits/basic_string.h ****        *  @param  __a  Allocator to use.
 460:/usr/include/newlib/c++/9.2.1/bits/basic_string.h ****        */
 461:/usr/include/newlib/c++/9.2.1/bits/basic_string.h ****       basic_string(const basic_string& __str, size_type __pos,
 462:/usr/include/newlib/c++/9.2.1/bits/basic_string.h **** 		   const _Alloc& __a = _Alloc())
 463:/usr/include/newlib/c++/9.2.1/bits/basic_string.h ****       : _M_dataplus(_M_local_data(), __a)
 464:/usr/include/newlib/c++/9.2.1/bits/basic_string.h ****       {
 465:/usr/include/newlib/c++/9.2.1/bits/basic_string.h **** 	const _CharT* __start = __str._M_data()
 466:/usr/include/newlib/c++/9.2.1/bits/basic_string.h **** 	  + __str._M_check(__pos, "basic_string::basic_string");
 467:/usr/include/newlib/c++/9.2.1/bits/basic_string.h **** 	_M_construct(__start, __start + __str._M_limit(__pos, npos));
 468:/usr/include/newlib/c++/9.2.1/bits/basic_string.h ****       }
 469:/usr/include/newlib/c++/9.2.1/bits/basic_string.h **** 
 470:/usr/include/newlib/c++/9.2.1/bits/basic_string.h ****       /**
 471:/usr/include/newlib/c++/9.2.1/bits/basic_string.h ****        *  @brief  Construct string as copy of a substring.
 472:/usr/include/newlib/c++/9.2.1/bits/basic_string.h ****        *  @param  __str  Source string.
 473:/usr/include/newlib/c++/9.2.1/bits/basic_string.h ****        *  @param  __pos  Index of first character to copy from.
 474:/usr/include/newlib/c++/9.2.1/bits/basic_string.h ****        *  @param  __n  Number of characters to copy.
 475:/usr/include/newlib/c++/9.2.1/bits/basic_string.h ****        */
 476:/usr/include/newlib/c++/9.2.1/bits/basic_string.h ****       basic_string(const basic_string& __str, size_type __pos,
 477:/usr/include/newlib/c++/9.2.1/bits/basic_string.h **** 		   size_type __n)
 478:/usr/include/newlib/c++/9.2.1/bits/basic_string.h ****       : _M_dataplus(_M_local_data())
 479:/usr/include/newlib/c++/9.2.1/bits/basic_string.h ****       {
 480:/usr/include/newlib/c++/9.2.1/bits/basic_string.h **** 	const _CharT* __start = __str._M_data()
 481:/usr/include/newlib/c++/9.2.1/bits/basic_string.h **** 	  + __str._M_check(__pos, "basic_string::basic_string");
 482:/usr/include/newlib/c++/9.2.1/bits/basic_string.h **** 	_M_construct(__start, __start + __str._M_limit(__pos, __n));
 483:/usr/include/newlib/c++/9.2.1/bits/basic_string.h ****       }
 484:/usr/include/newlib/c++/9.2.1/bits/basic_string.h **** 
ARM GAS  /tmp/cc3v7X8N.s 			page 188


 485:/usr/include/newlib/c++/9.2.1/bits/basic_string.h ****       /**
 486:/usr/include/newlib/c++/9.2.1/bits/basic_string.h ****        *  @brief  Construct string as copy of a substring.
 487:/usr/include/newlib/c++/9.2.1/bits/basic_string.h ****        *  @param  __str  Source string.
 488:/usr/include/newlib/c++/9.2.1/bits/basic_string.h ****        *  @param  __pos  Index of first character to copy from.
 489:/usr/include/newlib/c++/9.2.1/bits/basic_string.h ****        *  @param  __n  Number of characters to copy.
 490:/usr/include/newlib/c++/9.2.1/bits/basic_string.h ****        *  @param  __a  Allocator to use.
 491:/usr/include/newlib/c++/9.2.1/bits/basic_string.h ****        */
 492:/usr/include/newlib/c++/9.2.1/bits/basic_string.h ****       basic_string(const basic_string& __str, size_type __pos,
 493:/usr/include/newlib/c++/9.2.1/bits/basic_string.h **** 		   size_type __n, const _Alloc& __a)
 494:/usr/include/newlib/c++/9.2.1/bits/basic_string.h ****       : _M_dataplus(_M_local_data(), __a)
 495:/usr/include/newlib/c++/9.2.1/bits/basic_string.h ****       {
 496:/usr/include/newlib/c++/9.2.1/bits/basic_string.h **** 	const _CharT* __start
 497:/usr/include/newlib/c++/9.2.1/bits/basic_string.h **** 	  = __str._M_data() + __str._M_check(__pos, "string::string");
 498:/usr/include/newlib/c++/9.2.1/bits/basic_string.h **** 	_M_construct(__start, __start + __str._M_limit(__pos, __n));
 499:/usr/include/newlib/c++/9.2.1/bits/basic_string.h ****       }
 500:/usr/include/newlib/c++/9.2.1/bits/basic_string.h **** 
 501:/usr/include/newlib/c++/9.2.1/bits/basic_string.h ****       /**
 502:/usr/include/newlib/c++/9.2.1/bits/basic_string.h ****        *  @brief  Construct string initialized by a character %array.
 503:/usr/include/newlib/c++/9.2.1/bits/basic_string.h ****        *  @param  __s  Source character %array.
 504:/usr/include/newlib/c++/9.2.1/bits/basic_string.h ****        *  @param  __n  Number of characters to copy.
 505:/usr/include/newlib/c++/9.2.1/bits/basic_string.h ****        *  @param  __a  Allocator to use (default is default allocator).
 506:/usr/include/newlib/c++/9.2.1/bits/basic_string.h ****        *
 507:/usr/include/newlib/c++/9.2.1/bits/basic_string.h ****        *  NB: @a __s must have at least @a __n characters, &apos;\\0&apos;
 508:/usr/include/newlib/c++/9.2.1/bits/basic_string.h ****        *  has no special meaning.
 509:/usr/include/newlib/c++/9.2.1/bits/basic_string.h ****        */
 510:/usr/include/newlib/c++/9.2.1/bits/basic_string.h ****       basic_string(const _CharT* __s, size_type __n,
 511:/usr/include/newlib/c++/9.2.1/bits/basic_string.h **** 		   const _Alloc& __a = _Alloc())
 512:/usr/include/newlib/c++/9.2.1/bits/basic_string.h ****       : _M_dataplus(_M_local_data(), __a)
 513:/usr/include/newlib/c++/9.2.1/bits/basic_string.h ****       { _M_construct(__s, __s + __n); }
 514:/usr/include/newlib/c++/9.2.1/bits/basic_string.h **** 
 515:/usr/include/newlib/c++/9.2.1/bits/basic_string.h ****       /**
 516:/usr/include/newlib/c++/9.2.1/bits/basic_string.h ****        *  @brief  Construct string as copy of a C string.
 517:/usr/include/newlib/c++/9.2.1/bits/basic_string.h ****        *  @param  __s  Source C string.
 518:/usr/include/newlib/c++/9.2.1/bits/basic_string.h ****        *  @param  __a  Allocator to use (default is default allocator).
 519:/usr/include/newlib/c++/9.2.1/bits/basic_string.h ****        */
 520:/usr/include/newlib/c++/9.2.1/bits/basic_string.h **** #if __cpp_deduction_guides && ! defined _GLIBCXX_DEFINING_STRING_INSTANTIATIONS
 521:/usr/include/newlib/c++/9.2.1/bits/basic_string.h ****       // _GLIBCXX_RESOLVE_LIB_DEFECTS
 522:/usr/include/newlib/c++/9.2.1/bits/basic_string.h ****       // 3076. basic_string CTAD ambiguity
 523:/usr/include/newlib/c++/9.2.1/bits/basic_string.h ****       template<typename = _RequireAllocator<_Alloc>>
 524:/usr/include/newlib/c++/9.2.1/bits/basic_string.h **** #endif
 525:/usr/include/newlib/c++/9.2.1/bits/basic_string.h ****       basic_string(const _CharT* __s, const _Alloc& __a = _Alloc())
 6439              		.loc 22 525 7 is_stmt 1 view .LVU1534
 6440              	.LBB1849:
 6441              	.LBB1850:
 6442              	.LBI1850:
 190:/usr/include/newlib/c++/9.2.1/bits/basic_string.h ****       {
 6443              		.loc 22 190 7 view .LVU1535
 190:/usr/include/newlib/c++/9.2.1/bits/basic_string.h ****       {
 6444              		.loc 22 190 7 is_stmt 0 view .LVU1536
 6445              	.LBE1850:
 6446              	.LBB1851:
 6447              	.LBI1851:
 156:/usr/include/newlib/c++/9.2.1/bits/basic_string.h **** 	: allocator_type(__a), _M_p(__dat) { }
 6448              		.loc 22 156 2 is_stmt 1 view .LVU1537
 6449              	.LBB1852:
 6450              	.LBB1853:
 6451              	.LBB1854:
ARM GAS  /tmp/cc3v7X8N.s 			page 189


 6452              	.LBI1854:
 139:/usr/include/newlib/c++/9.2.1/bits/allocator.h **** 
 140:/usr/include/newlib/c++/9.2.1/bits/allocator.h ****       _GLIBCXX20_CONSTEXPR
 141:/usr/include/newlib/c++/9.2.1/bits/allocator.h ****       allocator(const allocator& __a) _GLIBCXX_NOTHROW
 6453              		.loc 20 141 7 view .LVU1538
 6454              	.LBB1855:
 6455              	.LBI1855:
  81:/usr/include/newlib/c++/9.2.1/ext/new_allocator.h **** 
  82:/usr/include/newlib/c++/9.2.1/ext/new_allocator.h ****       _GLIBCXX20_CONSTEXPR
  83:/usr/include/newlib/c++/9.2.1/ext/new_allocator.h ****       new_allocator(const new_allocator&) _GLIBCXX_USE_NOEXCEPT { }
 6456              		.loc 21 83 7 view .LVU1539
 6457              		.loc 21 83 7 is_stmt 0 view .LVU1540
 6458              	.LBE1855:
 6459              	.LBE1854:
 157:/usr/include/newlib/c++/9.2.1/bits/basic_string.h **** 
 6460              		.loc 22 157 35 view .LVU1541
 6461 009c 0CAD     		add	r5, sp, #48
 6462              	.LVL493:
 157:/usr/include/newlib/c++/9.2.1/bits/basic_string.h **** 
 6463              		.loc 22 157 35 view .LVU1542
 6464              	.LBE1853:
 6465              	.LBE1852:
 6466              	.LBE1851:
 6467              	.LBB1856:
 6468              	.LBB1857:
 6469              	.LBB1858:
 6470              	.LBB1859:
 6471              	.LBB1860:
 6472              	.LBB1861:
 6473              	.LBB1862:
 6474              	.LBB1863:
 6475              	.LBB1864:
 6476              	.LBB1865:
 6477              	.LBB1866:
 6478              		.file 23 "/usr/include/newlib/c++/9.2.1/bits/char_traits.h"
   1:/usr/include/newlib/c++/9.2.1/bits/char_traits.h **** // Character Traits for use by standard string and iostream -*- C++ -*-
   2:/usr/include/newlib/c++/9.2.1/bits/char_traits.h **** 
   3:/usr/include/newlib/c++/9.2.1/bits/char_traits.h **** // Copyright (C) 1997-2019 Free Software Foundation, Inc.
   4:/usr/include/newlib/c++/9.2.1/bits/char_traits.h **** //
   5:/usr/include/newlib/c++/9.2.1/bits/char_traits.h **** // This file is part of the GNU ISO C++ Library.  This library is free
   6:/usr/include/newlib/c++/9.2.1/bits/char_traits.h **** // software; you can redistribute it and/or modify it under the
   7:/usr/include/newlib/c++/9.2.1/bits/char_traits.h **** // terms of the GNU General Public License as published by the
   8:/usr/include/newlib/c++/9.2.1/bits/char_traits.h **** // Free Software Foundation; either version 3, or (at your option)
   9:/usr/include/newlib/c++/9.2.1/bits/char_traits.h **** // any later version.
  10:/usr/include/newlib/c++/9.2.1/bits/char_traits.h **** 
  11:/usr/include/newlib/c++/9.2.1/bits/char_traits.h **** // This library is distributed in the hope that it will be useful,
  12:/usr/include/newlib/c++/9.2.1/bits/char_traits.h **** // but WITHOUT ANY WARRANTY; without even the implied warranty of
  13:/usr/include/newlib/c++/9.2.1/bits/char_traits.h **** // MERCHANTABILITY or FITNESS FOR A PARTICULAR PURPOSE.  See the
  14:/usr/include/newlib/c++/9.2.1/bits/char_traits.h **** // GNU General Public License for more details.
  15:/usr/include/newlib/c++/9.2.1/bits/char_traits.h **** 
  16:/usr/include/newlib/c++/9.2.1/bits/char_traits.h **** // Under Section 7 of GPL version 3, you are granted additional
  17:/usr/include/newlib/c++/9.2.1/bits/char_traits.h **** // permissions described in the GCC Runtime Library Exception, version
  18:/usr/include/newlib/c++/9.2.1/bits/char_traits.h **** // 3.1, as published by the Free Software Foundation.
  19:/usr/include/newlib/c++/9.2.1/bits/char_traits.h **** 
  20:/usr/include/newlib/c++/9.2.1/bits/char_traits.h **** // You should have received a copy of the GNU General Public License and
  21:/usr/include/newlib/c++/9.2.1/bits/char_traits.h **** // a copy of the GCC Runtime Library Exception along with this program;
  22:/usr/include/newlib/c++/9.2.1/bits/char_traits.h **** // see the files COPYING3 and COPYING.RUNTIME respectively.  If not, see
ARM GAS  /tmp/cc3v7X8N.s 			page 190


  23:/usr/include/newlib/c++/9.2.1/bits/char_traits.h **** // <http://www.gnu.org/licenses/>.
  24:/usr/include/newlib/c++/9.2.1/bits/char_traits.h **** 
  25:/usr/include/newlib/c++/9.2.1/bits/char_traits.h **** /** @file bits/char_traits.h
  26:/usr/include/newlib/c++/9.2.1/bits/char_traits.h ****  *  This is an internal header file, included by other library headers.
  27:/usr/include/newlib/c++/9.2.1/bits/char_traits.h ****  *  Do not attempt to use it directly. @headername{string}
  28:/usr/include/newlib/c++/9.2.1/bits/char_traits.h ****  */
  29:/usr/include/newlib/c++/9.2.1/bits/char_traits.h **** 
  30:/usr/include/newlib/c++/9.2.1/bits/char_traits.h **** //
  31:/usr/include/newlib/c++/9.2.1/bits/char_traits.h **** // ISO C++ 14882: 21  Strings library
  32:/usr/include/newlib/c++/9.2.1/bits/char_traits.h **** //
  33:/usr/include/newlib/c++/9.2.1/bits/char_traits.h **** 
  34:/usr/include/newlib/c++/9.2.1/bits/char_traits.h **** #ifndef _CHAR_TRAITS_H
  35:/usr/include/newlib/c++/9.2.1/bits/char_traits.h **** #define _CHAR_TRAITS_H 1
  36:/usr/include/newlib/c++/9.2.1/bits/char_traits.h **** 
  37:/usr/include/newlib/c++/9.2.1/bits/char_traits.h **** #pragma GCC system_header
  38:/usr/include/newlib/c++/9.2.1/bits/char_traits.h **** 
  39:/usr/include/newlib/c++/9.2.1/bits/char_traits.h **** #include <bits/stl_algobase.h>  // std::copy, std::fill_n
  40:/usr/include/newlib/c++/9.2.1/bits/char_traits.h **** #include <bits/postypes.h>      // For streampos
  41:/usr/include/newlib/c++/9.2.1/bits/char_traits.h **** #include <cwchar>               // For WEOF, wmemmove, wmemset, etc.
  42:/usr/include/newlib/c++/9.2.1/bits/char_traits.h **** 
  43:/usr/include/newlib/c++/9.2.1/bits/char_traits.h **** #ifndef _GLIBCXX_ALWAYS_INLINE
  44:/usr/include/newlib/c++/9.2.1/bits/char_traits.h **** # define _GLIBCXX_ALWAYS_INLINE inline __attribute__((__always_inline__))
  45:/usr/include/newlib/c++/9.2.1/bits/char_traits.h **** #endif
  46:/usr/include/newlib/c++/9.2.1/bits/char_traits.h **** 
  47:/usr/include/newlib/c++/9.2.1/bits/char_traits.h **** namespace __gnu_cxx _GLIBCXX_VISIBILITY(default)
  48:/usr/include/newlib/c++/9.2.1/bits/char_traits.h **** {
  49:/usr/include/newlib/c++/9.2.1/bits/char_traits.h **** _GLIBCXX_BEGIN_NAMESPACE_VERSION
  50:/usr/include/newlib/c++/9.2.1/bits/char_traits.h **** 
  51:/usr/include/newlib/c++/9.2.1/bits/char_traits.h ****   /**
  52:/usr/include/newlib/c++/9.2.1/bits/char_traits.h ****    *  @brief  Mapping from character type to associated types.
  53:/usr/include/newlib/c++/9.2.1/bits/char_traits.h ****    *
  54:/usr/include/newlib/c++/9.2.1/bits/char_traits.h ****    *  @note This is an implementation class for the generic version
  55:/usr/include/newlib/c++/9.2.1/bits/char_traits.h ****    *  of char_traits.  It defines int_type, off_type, pos_type, and
  56:/usr/include/newlib/c++/9.2.1/bits/char_traits.h ****    *  state_type.  By default these are unsigned long, streamoff,
  57:/usr/include/newlib/c++/9.2.1/bits/char_traits.h ****    *  streampos, and mbstate_t.  Users who need a different set of
  58:/usr/include/newlib/c++/9.2.1/bits/char_traits.h ****    *  types, but who don't need to change the definitions of any function
  59:/usr/include/newlib/c++/9.2.1/bits/char_traits.h ****    *  defined in char_traits, can specialize __gnu_cxx::_Char_types
  60:/usr/include/newlib/c++/9.2.1/bits/char_traits.h ****    *  while leaving __gnu_cxx::char_traits alone. */
  61:/usr/include/newlib/c++/9.2.1/bits/char_traits.h ****   template<typename _CharT>
  62:/usr/include/newlib/c++/9.2.1/bits/char_traits.h ****     struct _Char_types
  63:/usr/include/newlib/c++/9.2.1/bits/char_traits.h ****     {
  64:/usr/include/newlib/c++/9.2.1/bits/char_traits.h ****       typedef unsigned long   int_type;
  65:/usr/include/newlib/c++/9.2.1/bits/char_traits.h ****       typedef std::streampos  pos_type;
  66:/usr/include/newlib/c++/9.2.1/bits/char_traits.h ****       typedef std::streamoff  off_type;
  67:/usr/include/newlib/c++/9.2.1/bits/char_traits.h ****       typedef std::mbstate_t  state_type;
  68:/usr/include/newlib/c++/9.2.1/bits/char_traits.h ****     };
  69:/usr/include/newlib/c++/9.2.1/bits/char_traits.h **** 
  70:/usr/include/newlib/c++/9.2.1/bits/char_traits.h **** 
  71:/usr/include/newlib/c++/9.2.1/bits/char_traits.h ****   /**
  72:/usr/include/newlib/c++/9.2.1/bits/char_traits.h ****    *  @brief  Base class used to implement std::char_traits.
  73:/usr/include/newlib/c++/9.2.1/bits/char_traits.h ****    *
  74:/usr/include/newlib/c++/9.2.1/bits/char_traits.h ****    *  @note For any given actual character type, this definition is
  75:/usr/include/newlib/c++/9.2.1/bits/char_traits.h ****    *  probably wrong.  (Most of the member functions are likely to be
  76:/usr/include/newlib/c++/9.2.1/bits/char_traits.h ****    *  right, but the int_type and state_type typedefs, and the eof()
  77:/usr/include/newlib/c++/9.2.1/bits/char_traits.h ****    *  member function, are likely to be wrong.)  The reason this class
  78:/usr/include/newlib/c++/9.2.1/bits/char_traits.h ****    *  exists is so users can specialize it.  Classes in namespace std
  79:/usr/include/newlib/c++/9.2.1/bits/char_traits.h ****    *  may not be specialized for fundamental types, but classes in
ARM GAS  /tmp/cc3v7X8N.s 			page 191


  80:/usr/include/newlib/c++/9.2.1/bits/char_traits.h ****    *  namespace __gnu_cxx may be.
  81:/usr/include/newlib/c++/9.2.1/bits/char_traits.h ****    *
  82:/usr/include/newlib/c++/9.2.1/bits/char_traits.h ****    *  See https://gcc.gnu.org/onlinedocs/libstdc++/manual/strings.html#strings.string.character_typ
  83:/usr/include/newlib/c++/9.2.1/bits/char_traits.h ****    *  for advice on how to make use of this class for @a unusual character
  84:/usr/include/newlib/c++/9.2.1/bits/char_traits.h ****    *  types. Also, check out include/ext/pod_char_traits.h.  
  85:/usr/include/newlib/c++/9.2.1/bits/char_traits.h ****    */
  86:/usr/include/newlib/c++/9.2.1/bits/char_traits.h ****   template<typename _CharT>
  87:/usr/include/newlib/c++/9.2.1/bits/char_traits.h ****     struct char_traits
  88:/usr/include/newlib/c++/9.2.1/bits/char_traits.h ****     {
  89:/usr/include/newlib/c++/9.2.1/bits/char_traits.h ****       typedef _CharT                                    char_type;
  90:/usr/include/newlib/c++/9.2.1/bits/char_traits.h ****       typedef typename _Char_types<_CharT>::int_type    int_type;
  91:/usr/include/newlib/c++/9.2.1/bits/char_traits.h ****       typedef typename _Char_types<_CharT>::pos_type    pos_type;
  92:/usr/include/newlib/c++/9.2.1/bits/char_traits.h ****       typedef typename _Char_types<_CharT>::off_type    off_type;
  93:/usr/include/newlib/c++/9.2.1/bits/char_traits.h ****       typedef typename _Char_types<_CharT>::state_type  state_type;
  94:/usr/include/newlib/c++/9.2.1/bits/char_traits.h **** 
  95:/usr/include/newlib/c++/9.2.1/bits/char_traits.h ****       static _GLIBCXX14_CONSTEXPR void
  96:/usr/include/newlib/c++/9.2.1/bits/char_traits.h ****       assign(char_type& __c1, const char_type& __c2)
  97:/usr/include/newlib/c++/9.2.1/bits/char_traits.h ****       { __c1 = __c2; }
  98:/usr/include/newlib/c++/9.2.1/bits/char_traits.h **** 
  99:/usr/include/newlib/c++/9.2.1/bits/char_traits.h ****       static _GLIBCXX_CONSTEXPR bool
 100:/usr/include/newlib/c++/9.2.1/bits/char_traits.h ****       eq(const char_type& __c1, const char_type& __c2)
 101:/usr/include/newlib/c++/9.2.1/bits/char_traits.h ****       { return __c1 == __c2; }
 102:/usr/include/newlib/c++/9.2.1/bits/char_traits.h **** 
 103:/usr/include/newlib/c++/9.2.1/bits/char_traits.h ****       static _GLIBCXX_CONSTEXPR bool
 104:/usr/include/newlib/c++/9.2.1/bits/char_traits.h ****       lt(const char_type& __c1, const char_type& __c2)
 105:/usr/include/newlib/c++/9.2.1/bits/char_traits.h ****       { return __c1 < __c2; }
 106:/usr/include/newlib/c++/9.2.1/bits/char_traits.h **** 
 107:/usr/include/newlib/c++/9.2.1/bits/char_traits.h ****       static _GLIBCXX14_CONSTEXPR int
 108:/usr/include/newlib/c++/9.2.1/bits/char_traits.h ****       compare(const char_type* __s1, const char_type* __s2, std::size_t __n);
 109:/usr/include/newlib/c++/9.2.1/bits/char_traits.h **** 
 110:/usr/include/newlib/c++/9.2.1/bits/char_traits.h ****       static _GLIBCXX14_CONSTEXPR std::size_t
 111:/usr/include/newlib/c++/9.2.1/bits/char_traits.h ****       length(const char_type* __s);
 112:/usr/include/newlib/c++/9.2.1/bits/char_traits.h **** 
 113:/usr/include/newlib/c++/9.2.1/bits/char_traits.h ****       static _GLIBCXX14_CONSTEXPR const char_type*
 114:/usr/include/newlib/c++/9.2.1/bits/char_traits.h ****       find(const char_type* __s, std::size_t __n, const char_type& __a);
 115:/usr/include/newlib/c++/9.2.1/bits/char_traits.h **** 
 116:/usr/include/newlib/c++/9.2.1/bits/char_traits.h ****       static char_type*
 117:/usr/include/newlib/c++/9.2.1/bits/char_traits.h ****       move(char_type* __s1, const char_type* __s2, std::size_t __n);
 118:/usr/include/newlib/c++/9.2.1/bits/char_traits.h **** 
 119:/usr/include/newlib/c++/9.2.1/bits/char_traits.h ****       static char_type*
 120:/usr/include/newlib/c++/9.2.1/bits/char_traits.h ****       copy(char_type* __s1, const char_type* __s2, std::size_t __n);
 121:/usr/include/newlib/c++/9.2.1/bits/char_traits.h **** 
 122:/usr/include/newlib/c++/9.2.1/bits/char_traits.h ****       static char_type*
 123:/usr/include/newlib/c++/9.2.1/bits/char_traits.h ****       assign(char_type* __s, std::size_t __n, char_type __a);
 124:/usr/include/newlib/c++/9.2.1/bits/char_traits.h **** 
 125:/usr/include/newlib/c++/9.2.1/bits/char_traits.h ****       static _GLIBCXX_CONSTEXPR char_type
 126:/usr/include/newlib/c++/9.2.1/bits/char_traits.h ****       to_char_type(const int_type& __c)
 127:/usr/include/newlib/c++/9.2.1/bits/char_traits.h ****       { return static_cast<char_type>(__c); }
 128:/usr/include/newlib/c++/9.2.1/bits/char_traits.h **** 
 129:/usr/include/newlib/c++/9.2.1/bits/char_traits.h ****       static _GLIBCXX_CONSTEXPR int_type
 130:/usr/include/newlib/c++/9.2.1/bits/char_traits.h ****       to_int_type(const char_type& __c)
 131:/usr/include/newlib/c++/9.2.1/bits/char_traits.h ****       { return static_cast<int_type>(__c); }
 132:/usr/include/newlib/c++/9.2.1/bits/char_traits.h **** 
 133:/usr/include/newlib/c++/9.2.1/bits/char_traits.h ****       static _GLIBCXX_CONSTEXPR bool
 134:/usr/include/newlib/c++/9.2.1/bits/char_traits.h ****       eq_int_type(const int_type& __c1, const int_type& __c2)
 135:/usr/include/newlib/c++/9.2.1/bits/char_traits.h ****       { return __c1 == __c2; }
 136:/usr/include/newlib/c++/9.2.1/bits/char_traits.h **** 
ARM GAS  /tmp/cc3v7X8N.s 			page 192


 137:/usr/include/newlib/c++/9.2.1/bits/char_traits.h ****       static _GLIBCXX_CONSTEXPR int_type
 138:/usr/include/newlib/c++/9.2.1/bits/char_traits.h ****       eof()
 139:/usr/include/newlib/c++/9.2.1/bits/char_traits.h ****       { return static_cast<int_type>(_GLIBCXX_STDIO_EOF); }
 140:/usr/include/newlib/c++/9.2.1/bits/char_traits.h **** 
 141:/usr/include/newlib/c++/9.2.1/bits/char_traits.h ****       static _GLIBCXX_CONSTEXPR int_type
 142:/usr/include/newlib/c++/9.2.1/bits/char_traits.h ****       not_eof(const int_type& __c)
 143:/usr/include/newlib/c++/9.2.1/bits/char_traits.h ****       { return !eq_int_type(__c, eof()) ? __c : to_int_type(char_type()); }
 144:/usr/include/newlib/c++/9.2.1/bits/char_traits.h ****     };
 145:/usr/include/newlib/c++/9.2.1/bits/char_traits.h **** 
 146:/usr/include/newlib/c++/9.2.1/bits/char_traits.h ****   template<typename _CharT>
 147:/usr/include/newlib/c++/9.2.1/bits/char_traits.h ****     _GLIBCXX14_CONSTEXPR int
 148:/usr/include/newlib/c++/9.2.1/bits/char_traits.h ****     char_traits<_CharT>::
 149:/usr/include/newlib/c++/9.2.1/bits/char_traits.h ****     compare(const char_type* __s1, const char_type* __s2, std::size_t __n)
 150:/usr/include/newlib/c++/9.2.1/bits/char_traits.h ****     {
 151:/usr/include/newlib/c++/9.2.1/bits/char_traits.h ****       for (std::size_t __i = 0; __i < __n; ++__i)
 152:/usr/include/newlib/c++/9.2.1/bits/char_traits.h **** 	if (lt(__s1[__i], __s2[__i]))
 153:/usr/include/newlib/c++/9.2.1/bits/char_traits.h **** 	  return -1;
 154:/usr/include/newlib/c++/9.2.1/bits/char_traits.h **** 	else if (lt(__s2[__i], __s1[__i]))
 155:/usr/include/newlib/c++/9.2.1/bits/char_traits.h **** 	  return 1;
 156:/usr/include/newlib/c++/9.2.1/bits/char_traits.h ****       return 0;
 157:/usr/include/newlib/c++/9.2.1/bits/char_traits.h ****     }
 158:/usr/include/newlib/c++/9.2.1/bits/char_traits.h **** 
 159:/usr/include/newlib/c++/9.2.1/bits/char_traits.h ****   template<typename _CharT>
 160:/usr/include/newlib/c++/9.2.1/bits/char_traits.h ****     _GLIBCXX14_CONSTEXPR std::size_t
 161:/usr/include/newlib/c++/9.2.1/bits/char_traits.h ****     char_traits<_CharT>::
 162:/usr/include/newlib/c++/9.2.1/bits/char_traits.h ****     length(const char_type* __p)
 163:/usr/include/newlib/c++/9.2.1/bits/char_traits.h ****     {
 164:/usr/include/newlib/c++/9.2.1/bits/char_traits.h ****       std::size_t __i = 0;
 165:/usr/include/newlib/c++/9.2.1/bits/char_traits.h ****       while (!eq(__p[__i], char_type()))
 166:/usr/include/newlib/c++/9.2.1/bits/char_traits.h ****         ++__i;
 167:/usr/include/newlib/c++/9.2.1/bits/char_traits.h ****       return __i;
 168:/usr/include/newlib/c++/9.2.1/bits/char_traits.h ****     }
 169:/usr/include/newlib/c++/9.2.1/bits/char_traits.h **** 
 170:/usr/include/newlib/c++/9.2.1/bits/char_traits.h ****   template<typename _CharT>
 171:/usr/include/newlib/c++/9.2.1/bits/char_traits.h ****     _GLIBCXX14_CONSTEXPR const typename char_traits<_CharT>::char_type*
 172:/usr/include/newlib/c++/9.2.1/bits/char_traits.h ****     char_traits<_CharT>::
 173:/usr/include/newlib/c++/9.2.1/bits/char_traits.h ****     find(const char_type* __s, std::size_t __n, const char_type& __a)
 174:/usr/include/newlib/c++/9.2.1/bits/char_traits.h ****     {
 175:/usr/include/newlib/c++/9.2.1/bits/char_traits.h ****       for (std::size_t __i = 0; __i < __n; ++__i)
 176:/usr/include/newlib/c++/9.2.1/bits/char_traits.h ****         if (eq(__s[__i], __a))
 177:/usr/include/newlib/c++/9.2.1/bits/char_traits.h ****           return __s + __i;
 178:/usr/include/newlib/c++/9.2.1/bits/char_traits.h ****       return 0;
 179:/usr/include/newlib/c++/9.2.1/bits/char_traits.h ****     }
 180:/usr/include/newlib/c++/9.2.1/bits/char_traits.h **** 
 181:/usr/include/newlib/c++/9.2.1/bits/char_traits.h ****   template<typename _CharT>
 182:/usr/include/newlib/c++/9.2.1/bits/char_traits.h ****     typename char_traits<_CharT>::char_type*
 183:/usr/include/newlib/c++/9.2.1/bits/char_traits.h ****     char_traits<_CharT>::
 184:/usr/include/newlib/c++/9.2.1/bits/char_traits.h ****     move(char_type* __s1, const char_type* __s2, std::size_t __n)
 185:/usr/include/newlib/c++/9.2.1/bits/char_traits.h ****     {
 186:/usr/include/newlib/c++/9.2.1/bits/char_traits.h ****       if (__n == 0)
 187:/usr/include/newlib/c++/9.2.1/bits/char_traits.h **** 	return __s1;
 188:/usr/include/newlib/c++/9.2.1/bits/char_traits.h ****       return static_cast<_CharT*>(__builtin_memmove(__s1, __s2,
 189:/usr/include/newlib/c++/9.2.1/bits/char_traits.h **** 						    __n * sizeof(char_type)));
 190:/usr/include/newlib/c++/9.2.1/bits/char_traits.h ****     }
 191:/usr/include/newlib/c++/9.2.1/bits/char_traits.h **** 
 192:/usr/include/newlib/c++/9.2.1/bits/char_traits.h ****   template<typename _CharT>
 193:/usr/include/newlib/c++/9.2.1/bits/char_traits.h ****     typename char_traits<_CharT>::char_type*
ARM GAS  /tmp/cc3v7X8N.s 			page 193


 194:/usr/include/newlib/c++/9.2.1/bits/char_traits.h ****     char_traits<_CharT>::
 195:/usr/include/newlib/c++/9.2.1/bits/char_traits.h ****     copy(char_type* __s1, const char_type* __s2, std::size_t __n)
 196:/usr/include/newlib/c++/9.2.1/bits/char_traits.h ****     {
 197:/usr/include/newlib/c++/9.2.1/bits/char_traits.h ****       // NB: Inline std::copy so no recursive dependencies.
 198:/usr/include/newlib/c++/9.2.1/bits/char_traits.h ****       std::copy(__s2, __s2 + __n, __s1);
 199:/usr/include/newlib/c++/9.2.1/bits/char_traits.h ****       return __s1;
 200:/usr/include/newlib/c++/9.2.1/bits/char_traits.h ****     }
 201:/usr/include/newlib/c++/9.2.1/bits/char_traits.h **** 
 202:/usr/include/newlib/c++/9.2.1/bits/char_traits.h ****   template<typename _CharT>
 203:/usr/include/newlib/c++/9.2.1/bits/char_traits.h ****     typename char_traits<_CharT>::char_type*
 204:/usr/include/newlib/c++/9.2.1/bits/char_traits.h ****     char_traits<_CharT>::
 205:/usr/include/newlib/c++/9.2.1/bits/char_traits.h ****     assign(char_type* __s, std::size_t __n, char_type __a)
 206:/usr/include/newlib/c++/9.2.1/bits/char_traits.h ****     {
 207:/usr/include/newlib/c++/9.2.1/bits/char_traits.h ****       // NB: Inline std::fill_n so no recursive dependencies.
 208:/usr/include/newlib/c++/9.2.1/bits/char_traits.h ****       std::fill_n(__s, __n, __a);
 209:/usr/include/newlib/c++/9.2.1/bits/char_traits.h ****       return __s;
 210:/usr/include/newlib/c++/9.2.1/bits/char_traits.h ****     }
 211:/usr/include/newlib/c++/9.2.1/bits/char_traits.h **** 
 212:/usr/include/newlib/c++/9.2.1/bits/char_traits.h **** _GLIBCXX_END_NAMESPACE_VERSION
 213:/usr/include/newlib/c++/9.2.1/bits/char_traits.h **** } // namespace
 214:/usr/include/newlib/c++/9.2.1/bits/char_traits.h **** 
 215:/usr/include/newlib/c++/9.2.1/bits/char_traits.h **** namespace std _GLIBCXX_VISIBILITY(default)
 216:/usr/include/newlib/c++/9.2.1/bits/char_traits.h **** {
 217:/usr/include/newlib/c++/9.2.1/bits/char_traits.h **** _GLIBCXX_BEGIN_NAMESPACE_VERSION
 218:/usr/include/newlib/c++/9.2.1/bits/char_traits.h **** 
 219:/usr/include/newlib/c++/9.2.1/bits/char_traits.h **** #if __cplusplus >= 201703L
 220:/usr/include/newlib/c++/9.2.1/bits/char_traits.h **** #define __cpp_lib_constexpr_char_traits 201611
 221:/usr/include/newlib/c++/9.2.1/bits/char_traits.h **** 
 222:/usr/include/newlib/c++/9.2.1/bits/char_traits.h ****   /**
 223:/usr/include/newlib/c++/9.2.1/bits/char_traits.h ****    *  @brief Determine whether the characters of a NULL-terminated
 224:/usr/include/newlib/c++/9.2.1/bits/char_traits.h ****    *  string are known at compile time.
 225:/usr/include/newlib/c++/9.2.1/bits/char_traits.h ****    *  @param  __s  The string.
 226:/usr/include/newlib/c++/9.2.1/bits/char_traits.h ****    *
 227:/usr/include/newlib/c++/9.2.1/bits/char_traits.h ****    *  Assumes that _CharT is a built-in character type.
 228:/usr/include/newlib/c++/9.2.1/bits/char_traits.h ****    */
 229:/usr/include/newlib/c++/9.2.1/bits/char_traits.h ****   template<typename _CharT>
 230:/usr/include/newlib/c++/9.2.1/bits/char_traits.h ****     static _GLIBCXX_ALWAYS_INLINE constexpr bool
 231:/usr/include/newlib/c++/9.2.1/bits/char_traits.h ****     __constant_string_p(const _CharT* __s)
 232:/usr/include/newlib/c++/9.2.1/bits/char_traits.h ****     {
 233:/usr/include/newlib/c++/9.2.1/bits/char_traits.h **** #ifdef _GLIBCXX_HAVE_BUILTIN_IS_CONSTANT_EVALUATED
 234:/usr/include/newlib/c++/9.2.1/bits/char_traits.h ****       (void) __s;
 235:/usr/include/newlib/c++/9.2.1/bits/char_traits.h ****       // In constexpr contexts all strings should be constant.
 236:/usr/include/newlib/c++/9.2.1/bits/char_traits.h ****       return __builtin_is_constant_evaluated();
 237:/usr/include/newlib/c++/9.2.1/bits/char_traits.h **** #else
 238:/usr/include/newlib/c++/9.2.1/bits/char_traits.h ****       while (__builtin_constant_p(*__s) && *__s)
 239:/usr/include/newlib/c++/9.2.1/bits/char_traits.h **** 	__s++;
 240:/usr/include/newlib/c++/9.2.1/bits/char_traits.h ****       return __builtin_constant_p(*__s);
 241:/usr/include/newlib/c++/9.2.1/bits/char_traits.h **** #endif
 242:/usr/include/newlib/c++/9.2.1/bits/char_traits.h ****     }
 243:/usr/include/newlib/c++/9.2.1/bits/char_traits.h **** 
 244:/usr/include/newlib/c++/9.2.1/bits/char_traits.h ****   /**
 245:/usr/include/newlib/c++/9.2.1/bits/char_traits.h ****    *  @brief Determine whether the characters of a character array are
 246:/usr/include/newlib/c++/9.2.1/bits/char_traits.h ****    *  known at compile time.
 247:/usr/include/newlib/c++/9.2.1/bits/char_traits.h ****    *  @param  __a  The character array.
 248:/usr/include/newlib/c++/9.2.1/bits/char_traits.h ****    *  @param  __n  Number of characters.
 249:/usr/include/newlib/c++/9.2.1/bits/char_traits.h ****    *
 250:/usr/include/newlib/c++/9.2.1/bits/char_traits.h ****    *  Assumes that _CharT is a built-in character type.
ARM GAS  /tmp/cc3v7X8N.s 			page 194


 251:/usr/include/newlib/c++/9.2.1/bits/char_traits.h ****    */
 252:/usr/include/newlib/c++/9.2.1/bits/char_traits.h ****   template<typename _CharT>
 253:/usr/include/newlib/c++/9.2.1/bits/char_traits.h ****     static _GLIBCXX_ALWAYS_INLINE constexpr bool
 254:/usr/include/newlib/c++/9.2.1/bits/char_traits.h ****     __constant_char_array_p(const _CharT* __a, size_t __n)
 255:/usr/include/newlib/c++/9.2.1/bits/char_traits.h ****     {
 256:/usr/include/newlib/c++/9.2.1/bits/char_traits.h **** #ifdef _GLIBCXX_HAVE_BUILTIN_IS_CONSTANT_EVALUATED
 257:/usr/include/newlib/c++/9.2.1/bits/char_traits.h ****       (void) __a;
 258:/usr/include/newlib/c++/9.2.1/bits/char_traits.h ****       (void) __n;
 259:/usr/include/newlib/c++/9.2.1/bits/char_traits.h ****       // In constexpr contexts all character arrays should be constant.
 260:/usr/include/newlib/c++/9.2.1/bits/char_traits.h ****       return __builtin_is_constant_evaluated();
 261:/usr/include/newlib/c++/9.2.1/bits/char_traits.h **** #else
 262:/usr/include/newlib/c++/9.2.1/bits/char_traits.h ****       size_t __i = 0;
 263:/usr/include/newlib/c++/9.2.1/bits/char_traits.h ****       while (__i < __n && __builtin_constant_p(__a[__i]))
 264:/usr/include/newlib/c++/9.2.1/bits/char_traits.h **** 	__i++;
 265:/usr/include/newlib/c++/9.2.1/bits/char_traits.h ****       return __i == __n;
 266:/usr/include/newlib/c++/9.2.1/bits/char_traits.h **** #endif
 267:/usr/include/newlib/c++/9.2.1/bits/char_traits.h ****     }
 268:/usr/include/newlib/c++/9.2.1/bits/char_traits.h **** #endif
 269:/usr/include/newlib/c++/9.2.1/bits/char_traits.h **** 
 270:/usr/include/newlib/c++/9.2.1/bits/char_traits.h ****   // 21.1
 271:/usr/include/newlib/c++/9.2.1/bits/char_traits.h ****   /**
 272:/usr/include/newlib/c++/9.2.1/bits/char_traits.h ****    *  @brief  Basis for explicit traits specializations.
 273:/usr/include/newlib/c++/9.2.1/bits/char_traits.h ****    *
 274:/usr/include/newlib/c++/9.2.1/bits/char_traits.h ****    *  @note  For any given actual character type, this definition is
 275:/usr/include/newlib/c++/9.2.1/bits/char_traits.h ****    *  probably wrong.  Since this is just a thin wrapper around
 276:/usr/include/newlib/c++/9.2.1/bits/char_traits.h ****    *  __gnu_cxx::char_traits, it is possible to achieve a more
 277:/usr/include/newlib/c++/9.2.1/bits/char_traits.h ****    *  appropriate definition by specializing __gnu_cxx::char_traits.
 278:/usr/include/newlib/c++/9.2.1/bits/char_traits.h ****    *
 279:/usr/include/newlib/c++/9.2.1/bits/char_traits.h ****    *  See https://gcc.gnu.org/onlinedocs/libstdc++/manual/strings.html#strings.string.character_typ
 280:/usr/include/newlib/c++/9.2.1/bits/char_traits.h ****    *  for advice on how to make use of this class for @a unusual character
 281:/usr/include/newlib/c++/9.2.1/bits/char_traits.h ****    *  types. Also, check out include/ext/pod_char_traits.h.
 282:/usr/include/newlib/c++/9.2.1/bits/char_traits.h ****   */
 283:/usr/include/newlib/c++/9.2.1/bits/char_traits.h ****   template<class _CharT>
 284:/usr/include/newlib/c++/9.2.1/bits/char_traits.h ****     struct char_traits : public __gnu_cxx::char_traits<_CharT>
 285:/usr/include/newlib/c++/9.2.1/bits/char_traits.h ****     { };
 286:/usr/include/newlib/c++/9.2.1/bits/char_traits.h **** 
 287:/usr/include/newlib/c++/9.2.1/bits/char_traits.h **** 
 288:/usr/include/newlib/c++/9.2.1/bits/char_traits.h ****   /// 21.1.3.1  char_traits specializations
 289:/usr/include/newlib/c++/9.2.1/bits/char_traits.h ****   template<>
 290:/usr/include/newlib/c++/9.2.1/bits/char_traits.h ****     struct char_traits<char>
 291:/usr/include/newlib/c++/9.2.1/bits/char_traits.h ****     {
 292:/usr/include/newlib/c++/9.2.1/bits/char_traits.h ****       typedef char              char_type;
 293:/usr/include/newlib/c++/9.2.1/bits/char_traits.h ****       typedef int               int_type;
 294:/usr/include/newlib/c++/9.2.1/bits/char_traits.h ****       typedef streampos         pos_type;
 295:/usr/include/newlib/c++/9.2.1/bits/char_traits.h ****       typedef streamoff         off_type;
 296:/usr/include/newlib/c++/9.2.1/bits/char_traits.h ****       typedef mbstate_t         state_type;
 297:/usr/include/newlib/c++/9.2.1/bits/char_traits.h **** 
 298:/usr/include/newlib/c++/9.2.1/bits/char_traits.h ****       static _GLIBCXX17_CONSTEXPR void
 299:/usr/include/newlib/c++/9.2.1/bits/char_traits.h ****       assign(char_type& __c1, const char_type& __c2) _GLIBCXX_NOEXCEPT
 300:/usr/include/newlib/c++/9.2.1/bits/char_traits.h ****       { __c1 = __c2; }
 301:/usr/include/newlib/c++/9.2.1/bits/char_traits.h **** 
 302:/usr/include/newlib/c++/9.2.1/bits/char_traits.h ****       static _GLIBCXX_CONSTEXPR bool
 303:/usr/include/newlib/c++/9.2.1/bits/char_traits.h ****       eq(const char_type& __c1, const char_type& __c2) _GLIBCXX_NOEXCEPT
 304:/usr/include/newlib/c++/9.2.1/bits/char_traits.h ****       { return __c1 == __c2; }
 305:/usr/include/newlib/c++/9.2.1/bits/char_traits.h **** 
 306:/usr/include/newlib/c++/9.2.1/bits/char_traits.h ****       static _GLIBCXX_CONSTEXPR bool
 307:/usr/include/newlib/c++/9.2.1/bits/char_traits.h ****       lt(const char_type& __c1, const char_type& __c2) _GLIBCXX_NOEXCEPT
ARM GAS  /tmp/cc3v7X8N.s 			page 195


 308:/usr/include/newlib/c++/9.2.1/bits/char_traits.h ****       {
 309:/usr/include/newlib/c++/9.2.1/bits/char_traits.h **** 	// LWG 467.
 310:/usr/include/newlib/c++/9.2.1/bits/char_traits.h **** 	return (static_cast<unsigned char>(__c1)
 311:/usr/include/newlib/c++/9.2.1/bits/char_traits.h **** 		< static_cast<unsigned char>(__c2));
 312:/usr/include/newlib/c++/9.2.1/bits/char_traits.h ****       }
 313:/usr/include/newlib/c++/9.2.1/bits/char_traits.h **** 
 314:/usr/include/newlib/c++/9.2.1/bits/char_traits.h ****       static _GLIBCXX17_CONSTEXPR int
 315:/usr/include/newlib/c++/9.2.1/bits/char_traits.h ****       compare(const char_type* __s1, const char_type* __s2, size_t __n)
 316:/usr/include/newlib/c++/9.2.1/bits/char_traits.h ****       {
 317:/usr/include/newlib/c++/9.2.1/bits/char_traits.h **** 	if (__n == 0)
 318:/usr/include/newlib/c++/9.2.1/bits/char_traits.h **** 	  return 0;
 319:/usr/include/newlib/c++/9.2.1/bits/char_traits.h **** #if __cplusplus >= 201703L
 320:/usr/include/newlib/c++/9.2.1/bits/char_traits.h **** 	if (__builtin_constant_p(__n)
 321:/usr/include/newlib/c++/9.2.1/bits/char_traits.h **** 	    && __constant_char_array_p(__s1, __n)
 322:/usr/include/newlib/c++/9.2.1/bits/char_traits.h **** 	    && __constant_char_array_p(__s2, __n))
 323:/usr/include/newlib/c++/9.2.1/bits/char_traits.h **** 	  return __gnu_cxx::char_traits<char_type>::compare(__s1, __s2, __n);
 324:/usr/include/newlib/c++/9.2.1/bits/char_traits.h **** #endif
 325:/usr/include/newlib/c++/9.2.1/bits/char_traits.h **** 	return __builtin_memcmp(__s1, __s2, __n);
 326:/usr/include/newlib/c++/9.2.1/bits/char_traits.h ****       }
 327:/usr/include/newlib/c++/9.2.1/bits/char_traits.h **** 
 328:/usr/include/newlib/c++/9.2.1/bits/char_traits.h ****       static _GLIBCXX17_CONSTEXPR size_t
 329:/usr/include/newlib/c++/9.2.1/bits/char_traits.h ****       length(const char_type* __s)
 330:/usr/include/newlib/c++/9.2.1/bits/char_traits.h ****       {
 331:/usr/include/newlib/c++/9.2.1/bits/char_traits.h **** #if __cplusplus >= 201703L
 332:/usr/include/newlib/c++/9.2.1/bits/char_traits.h **** 	if (__constant_string_p(__s))
 333:/usr/include/newlib/c++/9.2.1/bits/char_traits.h **** 	  return __gnu_cxx::char_traits<char_type>::length(__s);
 334:/usr/include/newlib/c++/9.2.1/bits/char_traits.h **** #endif
 335:/usr/include/newlib/c++/9.2.1/bits/char_traits.h **** 	return __builtin_strlen(__s);
 336:/usr/include/newlib/c++/9.2.1/bits/char_traits.h ****       }
 337:/usr/include/newlib/c++/9.2.1/bits/char_traits.h **** 
 338:/usr/include/newlib/c++/9.2.1/bits/char_traits.h ****       static _GLIBCXX17_CONSTEXPR const char_type*
 339:/usr/include/newlib/c++/9.2.1/bits/char_traits.h ****       find(const char_type* __s, size_t __n, const char_type& __a)
 340:/usr/include/newlib/c++/9.2.1/bits/char_traits.h ****       {
 341:/usr/include/newlib/c++/9.2.1/bits/char_traits.h **** 	if (__n == 0)
 342:/usr/include/newlib/c++/9.2.1/bits/char_traits.h **** 	  return 0;
 343:/usr/include/newlib/c++/9.2.1/bits/char_traits.h **** #if __cplusplus >= 201703L
 344:/usr/include/newlib/c++/9.2.1/bits/char_traits.h **** 	if (__builtin_constant_p(__n)
 345:/usr/include/newlib/c++/9.2.1/bits/char_traits.h **** 	    && __builtin_constant_p(__a)
 346:/usr/include/newlib/c++/9.2.1/bits/char_traits.h **** 	    && __constant_char_array_p(__s, __n))
 347:/usr/include/newlib/c++/9.2.1/bits/char_traits.h **** 	  return __gnu_cxx::char_traits<char_type>::find(__s, __n, __a);
 348:/usr/include/newlib/c++/9.2.1/bits/char_traits.h **** #endif
 349:/usr/include/newlib/c++/9.2.1/bits/char_traits.h **** 	return static_cast<const char_type*>(__builtin_memchr(__s, __a, __n));
 350:/usr/include/newlib/c++/9.2.1/bits/char_traits.h ****       }
 351:/usr/include/newlib/c++/9.2.1/bits/char_traits.h **** 
 352:/usr/include/newlib/c++/9.2.1/bits/char_traits.h ****       static char_type*
 353:/usr/include/newlib/c++/9.2.1/bits/char_traits.h ****       move(char_type* __s1, const char_type* __s2, size_t __n)
 354:/usr/include/newlib/c++/9.2.1/bits/char_traits.h ****       {
 355:/usr/include/newlib/c++/9.2.1/bits/char_traits.h **** 	if (__n == 0)
 356:/usr/include/newlib/c++/9.2.1/bits/char_traits.h **** 	  return __s1;
 357:/usr/include/newlib/c++/9.2.1/bits/char_traits.h **** 	return static_cast<char_type*>(__builtin_memmove(__s1, __s2, __n));
 358:/usr/include/newlib/c++/9.2.1/bits/char_traits.h ****       }
 359:/usr/include/newlib/c++/9.2.1/bits/char_traits.h **** 
 360:/usr/include/newlib/c++/9.2.1/bits/char_traits.h ****       static char_type*
 361:/usr/include/newlib/c++/9.2.1/bits/char_traits.h ****       copy(char_type* __s1, const char_type* __s2, size_t __n)
 362:/usr/include/newlib/c++/9.2.1/bits/char_traits.h ****       {
 363:/usr/include/newlib/c++/9.2.1/bits/char_traits.h **** 	if (__n == 0)
 364:/usr/include/newlib/c++/9.2.1/bits/char_traits.h **** 	  return __s1;
ARM GAS  /tmp/cc3v7X8N.s 			page 196


 365:/usr/include/newlib/c++/9.2.1/bits/char_traits.h **** 	return static_cast<char_type*>(__builtin_memcpy(__s1, __s2, __n));
 6479              		.loc 23 365 49 view .LVU1543
 6480 009e 194A     		ldr	r2, .L445+16
 6481              	.LBE1866:
 6482              	.LBE1865:
 6483              	.LBE1864:
 6484              	.LBE1863:
 6485              	.LBE1862:
 6486              	.LBB1875:
 6487              	.LBB1876:
 6488              	.LBB1877:
 183:/usr/include/newlib/c++/9.2.1/bits/basic_string.h **** 
 6489              		.loc 22 183 9 view .LVU1544
 6490 00a0 0520     		movs	r0, #5
 6491              	.LBE1877:
 6492              	.LBE1876:
 6493              	.LBB1879:
 6494              	.LBB1880:
 300:/usr/include/newlib/c++/9.2.1/bits/char_traits.h **** 
 6495              		.loc 23 300 14 view .LVU1545
 6496 00a2 0021     		movs	r1, #0
 6497              	.LBE1880:
 6498              	.LBE1879:
 6499              	.LBE1875:
 6500              	.LBE1861:
 6501              	.LBE1860:
 6502              	.LBE1859:
 6503              	.LBE1858:
 6504              	.LBE1857:
 6505              	.LBE1856:
 6506              	.LBE1849:
 6507              	.LBE1848:
 103:Noise.cpp     ****     char*       cstr = &str[0];
 104:Noise.cpp     ****     patch.display.WriteString(cstr, Font_7x10, true);
 6508              		.loc 13 104 30 view .LVU1546
 6509 00a4 184B     		ldr	r3, .L445+20
 6510 00a6 CDF80080 		str	r8, [sp]
 6511              	.LBB1905:
 6512              	.LBB1903:
 6513              	.LBB1901:
 6514              	.LBB1899:
 6515              	.LBB1897:
 6516              	.LBB1895:
 6517              	.LBB1893:
 6518              	.LBB1891:
 6519              	.LBB1887:
 6520              	.LBB1883:
 6521              	.LBB1881:
 300:/usr/include/newlib/c++/9.2.1/bits/char_traits.h **** 
 6522              		.loc 23 300 14 view .LVU1547
 6523 00aa 8DF83510 		strb	r1, [sp, #53]
 6524              	.LBE1881:
 6525              	.LBE1883:
 6526              	.LBB1884:
 6527              	.LBB1878:
 183:/usr/include/newlib/c++/9.2.1/bits/basic_string.h **** 
 6528              		.loc 22 183 9 view .LVU1548
ARM GAS  /tmp/cc3v7X8N.s 			page 197


 6529 00ae CDE90A50 		strd	r5, r0, [sp, #40]
 6530              	.LBE1878:
 6531              	.LBE1884:
 6532              	.LBE1887:
 6533              	.LBB1888:
 6534              	.LBB1873:
 6535              	.LBB1871:
 6536              	.LBB1869:
 6537              	.LBB1867:
 6538              		.loc 23 365 49 view .LVU1549
 6539 00b2 92E80300 		ldm	r2, {r0, r1}
 6540              	.LBE1867:
 6541              	.LBE1869:
 6542              	.LBE1871:
 6543              	.LBE1873:
 6544              	.LBE1888:
 6545              	.LBE1891:
 6546              	.LBE1893:
 6547              	.LBE1895:
 6548              	.LBE1897:
 6549              	.LBE1899:
 6550              	.LBE1901:
 6551              	.LBE1903:
 6552              	.LBE1905:
 6553              		.loc 13 104 30 view .LVU1550
 6554 00b6 0CCB     		ldm	r3, {r2, r3}
 6555              	.LBB1906:
 6556              	.LBB1904:
 6557              	.LBB1902:
 6558              	.LBB1900:
 6559              	.LBB1898:
 6560              	.LBB1896:
 6561              	.LBB1894:
 6562              	.LBB1892:
 6563              	.LBB1889:
 6564              	.LBB1874:
 6565              	.LBB1872:
 6566              	.LBB1870:
 6567              	.LBB1868:
 6568              		.loc 23 365 49 view .LVU1551
 6569 00b8 0C90     		str	r0, [sp, #48]
 6570 00ba 8DF83410 		strb	r1, [sp, #52]
 6571              	.LVL494:
 6572              		.loc 23 365 49 view .LVU1552
 6573              	.LBE1868:
 6574              	.LBE1870:
 6575              	.LBE1872:
 6576              	.LBE1874:
 6577              	.LBE1889:
 6578              	.LBB1890:
 6579              	.LBI1875:
 214:/usr/include/newlib/c++/9.2.1/bits/basic_string.h ****       {
 6580              		.loc 22 214 7 is_stmt 1 view .LVU1553
 6581              	.LBB1885:
 6582              	.LBI1876:
 182:/usr/include/newlib/c++/9.2.1/bits/basic_string.h ****       { _M_string_length = __length; }
 6583              		.loc 22 182 7 view .LVU1554
ARM GAS  /tmp/cc3v7X8N.s 			page 198


 182:/usr/include/newlib/c++/9.2.1/bits/basic_string.h ****       { _M_string_length = __length; }
 6584              		.loc 22 182 7 is_stmt 0 view .LVU1555
 6585              	.LBE1885:
 6586              	.LBB1886:
 6587              	.LBI1879:
 299:/usr/include/newlib/c++/9.2.1/bits/char_traits.h ****       { __c1 = __c2; }
 6588              		.loc 23 299 7 is_stmt 1 view .LVU1556
 6589              	.LBB1882:
 300:/usr/include/newlib/c++/9.2.1/bits/char_traits.h **** 
 6590              		.loc 23 300 9 view .LVU1557
 300:/usr/include/newlib/c++/9.2.1/bits/char_traits.h **** 
 6591              		.loc 23 300 9 is_stmt 0 view .LVU1558
 6592              	.LBE1882:
 6593              	.LBE1886:
 6594              	.LBE1890:
 6595              	.LBE1892:
 6596              	.LBE1894:
 6597              	.LBE1896:
 6598              	.LBE1898:
 6599              	.LBE1900:
 6600              	.LBE1902:
 6601              	.LBE1904:
 6602              	.LBE1906:
 6603              	.LBB1907:
 6604              	.LBI1907:
 142:/usr/include/newlib/c++/9.2.1/bits/allocator.h ****       : __allocator_base<_Tp>(__a) { }
 143:/usr/include/newlib/c++/9.2.1/bits/allocator.h **** 
 144:/usr/include/newlib/c++/9.2.1/bits/allocator.h **** #if __cplusplus >= 201103L
 145:/usr/include/newlib/c++/9.2.1/bits/allocator.h ****       // Avoid implicit deprecation.
 146:/usr/include/newlib/c++/9.2.1/bits/allocator.h ****       allocator& operator=(const allocator&) = default;
 147:/usr/include/newlib/c++/9.2.1/bits/allocator.h **** #endif
 148:/usr/include/newlib/c++/9.2.1/bits/allocator.h **** 
 149:/usr/include/newlib/c++/9.2.1/bits/allocator.h ****       template<typename _Tp1>
 150:/usr/include/newlib/c++/9.2.1/bits/allocator.h **** 	_GLIBCXX20_CONSTEXPR
 151:/usr/include/newlib/c++/9.2.1/bits/allocator.h **** 	allocator(const allocator<_Tp1>&) _GLIBCXX_NOTHROW { }
 152:/usr/include/newlib/c++/9.2.1/bits/allocator.h **** 
 153:/usr/include/newlib/c++/9.2.1/bits/allocator.h ****       ~allocator() _GLIBCXX_NOTHROW { }
 6605              		.loc 20 153 7 is_stmt 1 view .LVU1559
 6606              	.LBB1908:
 6607              	.LBI1908:
  84:/usr/include/newlib/c++/9.2.1/ext/new_allocator.h **** 
  85:/usr/include/newlib/c++/9.2.1/ext/new_allocator.h ****       template<typename _Tp1>
  86:/usr/include/newlib/c++/9.2.1/ext/new_allocator.h **** 	_GLIBCXX20_CONSTEXPR
  87:/usr/include/newlib/c++/9.2.1/ext/new_allocator.h **** 	new_allocator(const new_allocator<_Tp1>&) _GLIBCXX_USE_NOEXCEPT { }
  88:/usr/include/newlib/c++/9.2.1/ext/new_allocator.h **** 
  89:/usr/include/newlib/c++/9.2.1/ext/new_allocator.h ****       ~new_allocator() _GLIBCXX_USE_NOEXCEPT { }
 6608              		.loc 21 89 7 view .LVU1560
 6609              		.loc 21 89 7 is_stmt 0 view .LVU1561
 6610              	.LBE1908:
 6611              	.LBE1907:
 103:Noise.cpp     ****     patch.display.WriteString(cstr, Font_7x10, true);
 6612              		.loc 13 103 5 is_stmt 1 view .LVU1562
 6613              		.loc 13 104 5 view .LVU1563
 6614              		.loc 13 104 30 is_stmt 0 view .LVU1564
 6615 00be 2946     		mov	r1, r5
 6616 00c0 1248     		ldr	r0, .L445+24
 6617 00c2 FFF7FEFF 		bl	_ZN5daisy25OneBitGraphicsDisplayImplINS_11OledDisplayINS_13SSD130xDriverILj128ELj64ENS_24SSD130
ARM GAS  /tmp/cc3v7X8N.s 			page 199


 6618              	.LVL495:
 105:Noise.cpp     ****     patch.display.Update();
 6619              		.loc 13 105 5 is_stmt 1 view .LVU1565
 6620              	.LBB1909:
 6621              	.LBI1909:
 6622              		.loc 3 50 10 view .LVU1566
 6623              	.LBB1910:
 6624              		.loc 3 50 30 is_stmt 0 view .LVU1567
 6625 00c6 1248     		ldr	r0, .L445+28
 6626 00c8 FFF7FEFF 		bl	_ZN5daisy13SSD130xDriverILj128ELj64ENS_24SSD130x4WireSpiTransportEE6UpdateEv
 6627              	.LVL496:
 6628              		.loc 3 50 30 view .LVU1568
 6629              	.LBE1910:
 6630              	.LBE1909:
 106:Noise.cpp     ****     patch.DelayMs(1000);
 6631              		.loc 13 106 5 is_stmt 1 view .LVU1569
 6632              		.loc 13 106 18 is_stmt 0 view .LVU1570
 6633 00cc 4FF47A71 		mov	r1, #1000
 6634 00d0 A4F16C00 		sub	r0, r4, #108
 6635 00d4 FFF7FEFF 		bl	_ZN5daisy10DaisyPatch7DelayMsEj
 6636              	.LVL497:
 107:Noise.cpp     **** 
 108:Noise.cpp     ****     patch.StartAdc();
 6637              		.loc 13 108 5 is_stmt 1 view .LVU1571
 6638              		.loc 13 108 19 is_stmt 0 view .LVU1572
 6639 00d8 A4F16C00 		sub	r0, r4, #108
 6640 00dc FFF7FEFF 		bl	_ZN5daisy10DaisyPatch8StartAdcEv
 6641              	.LVL498:
 109:Noise.cpp     ****     patch.StartAudio(AudioCallback);
 6642              		.loc 13 109 5 is_stmt 1 view .LVU1573
 6643              		.loc 13 109 21 is_stmt 0 view .LVU1574
 6644 00e0 A4F16C00 		sub	r0, r4, #108
 6645 00e4 0B49     		ldr	r1, .L445+32
 6646 00e6 FFF7FEFF 		bl	_ZN5daisy10DaisyPatch10StartAudioEPFvPKPKfPPfjE
 6647              	.LVL499:
 6648              	.L443:
 110:Noise.cpp     ****     while(1)
 6649              		.loc 13 110 5 is_stmt 1 discriminator 1 view .LVU1575
 111:Noise.cpp     ****     {
 112:Noise.cpp     ****         patch.DisplayControls(false);
 6650              		.loc 13 112 9 discriminator 1 view .LVU1576
 6651              		.loc 13 112 30 is_stmt 0 discriminator 1 view .LVU1577
 6652 00ea 0021     		movs	r1, #0
 6653 00ec 0148     		ldr	r0, .L445
 6654 00ee FFF7FEFF 		bl	_ZN5daisy10DaisyPatch15DisplayControlsEb
 6655              	.LVL500:
 110:Noise.cpp     ****     while(1)
 6656              		.loc 13 110 5 is_stmt 1 discriminator 1 view .LVU1578
 6657 00f2 FAE7     		b	.L443
 6658              	.L446:
 6659              		.align	2
 6660              	.L445:
 6661 00f4 00000000 		.word	patch
 6662 00f8 00000000 		.word	.LANCHOR2
 6663 00fc 00000000 		.word	.LANCHOR0
 6664 0100 00000000 		.word	.LANCHOR1
 6665 0104 00000000 		.word	.LC2
ARM GAS  /tmp/cc3v7X8N.s 			page 200


 6666 0108 00000000 		.word	Font_7x10
 6667 010c A4910000 		.word	patch+37284
 6668 0110 AC910000 		.word	patch+37292
 6669 0114 00000000 		.word	_ZL13AudioCallbackPKPKfPPfj
 6670              		.cfi_endproc
 6671              	.LFE4240:
 6673              		.section	.text.startup._GLOBAL__sub_I_patch,"ax",%progbits
 6674              		.align	1
 6675              		.p2align 2,,3
 6676              		.syntax unified
 6677              		.thumb
 6678              		.thumb_func
 6679              		.fpu fpv5-d16
 6681              	_GLOBAL__sub_I_patch:
 6682              	.LFB4840:
 113:Noise.cpp     ****     }
 114:Noise.cpp     **** }
 6683              		.loc 13 114 1 view -0
 6684              		.cfi_startproc
 6685              		@ args = 0, pretend = 0, frame = 0
 6686              		@ frame_needed = 0, uses_anonymous_args = 0
 6687              	.LBB1985:
 6688              	.LBI1985:
 6689              		.loc 13 114 1 view .LVU1580
 6690              	.LVL501:
 6691              	.LBB1986:
 6692              	.LBB1987:
 6693              	.LBI1987:
  39:../../libdaisy/src/daisy_patch.h ****     /** Destructor */
 6694              		.loc 2 39 5 view .LVU1581
 6695              	.LBB1988:
 6696              	.LBB1989:
 6697              	.LBI1989:
  21:../../libdaisy/src/daisy_seed.h ****     ~DaisySeed() {}
 6698              		.loc 8 21 5 view .LVU1582
 6699              	.LBB1990:
 6700              	.LBB1991:
 6701              	.LBI1991:
  62:../../libdaisy/src/hid/audio.h ****     ~AudioHandle() {}
 6702              		.loc 12 62 5 view .LVU1583
 6703              	.LBE1991:
 6704              	.LBE1990:
 6705              	.LBE1989:
 6706              	.LBB2012:
 6707              	.LBB2013:
 6708              	.LBB2014:
 6709              	.LBB2015:
 6710              	.LBB2016:
 6711              	.LBB2017:
 6712              	.LBB2018:
  36:../../libdaisy/src/hid/midi.h ****             tx     = {DSY_GPIOB, 6};
 6713              		.loc 5 36 20 is_stmt 0 view .LVU1584
 6714 0000 1F49     		ldr	r1, .L449
 6715              	.LBE2018:
 6716              	.LBE2017:
 6717              	.LBE2016:
 6718              	.LBE2015:
ARM GAS  /tmp/cc3v7X8N.s 			page 201


 6719              	.LBE2014:
 6720              	.LBE2013:
 6721              	.LBE2012:
 6722              	.LBB2059:
 6723              	.LBB2008:
 6724              	.LBB1998:
 6725              	.LBB1992:
 6726              	.LBB1993:
  62:../../libdaisy/src/hid/audio.h ****     ~AudioHandle() {}
 6727              		.loc 12 62 35 view .LVU1585
 6728 0002 2048     		ldr	r0, .L449+4
 6729              	.LBE1993:
 6730              	.LBE1992:
 6731              	.LBE1998:
 6732              	.LBE2008:
 6733              	.LBE2059:
 6734              	.LBE1988:
 6735              	.LBE1987:
   8:Noise.cpp     **** 
 6736              		.loc 13 8 12 view .LVU1586
 6737 0004 204A     		ldr	r2, .L449+8
 6738              	.LBE1986:
 6739              	.LBE1985:
 6740              		.loc 13 114 1 view .LVU1587
 6741 0006 F8B5     		push	{r3, r4, r5, r6, r7, lr}
 6742              		.cfi_def_cfa_offset 24
 6743              		.cfi_offset 3, -24
 6744              		.cfi_offset 4, -20
 6745              		.cfi_offset 5, -16
 6746              		.cfi_offset 6, -12
 6747              		.cfi_offset 7, -8
 6748              		.cfi_offset 14, -4
 6749              	.LBB2119:
 6750              	.LBB2116:
 6751              	.LBB2097:
 6752              	.LBB2095:
 6753              	.LBB2060:
 6754              	.LBB2054:
 6755              	.LBB2049:
 6756              	.LBB2031:
 6757              	.LBB2027:
 6758              	.LBB2023:
 6759              	.LBB2019:
  36:../../libdaisy/src/hid/midi.h ****             tx     = {DSY_GPIOB, 6};
 6760              		.loc 5 36 20 view .LVU1588
 6761 0008 0E88     		ldrh	r6, [r1]
 6762 000a 49F29415 		movw	r5, #37268
  37:../../libdaisy/src/hid/midi.h ****         }
 6763              		.loc 5 37 20 view .LVU1589
 6764 000e 8988     		ldrh	r1, [r1, #4]
 6765 0010 49F29614 		movw	r4, #37270
 6766              	.LBE2019:
 6767              	.LBE2023:
 6768              	.LBE2027:
 6769              	.LBE2031:
 6770              	.LBE2049:
 6771              	.LBE2054:
ARM GAS  /tmp/cc3v7X8N.s 			page 202


 6772              	.LBE2060:
 6773              	.LBB2061:
 6774              	.LBB2009:
 6775              	.LBB1999:
 6776              	.LBB1996:
 6777              	.LBB1994:
  62:../../libdaisy/src/hid/audio.h ****     ~AudioHandle() {}
 6778              		.loc 12 62 35 view .LVU1590
 6779 0014 0023     		movs	r3, #0
 6780              	.LBE1994:
 6781              	.LBE1996:
 6782              	.LBE1999:
 6783              	.LBE2009:
 6784              	.LBE2061:
 6785              	.LBB2062:
 6786              	.LBB2055:
 6787              	.LBB2050:
 6788              	.LBB2032:
 6789              	.LBB2028:
 6790              	.LBB2024:
 6791              	.LBB2020:
  36:../../libdaisy/src/hid/midi.h ****             tx     = {DSY_GPIOB, 6};
 6792              		.loc 5 36 20 view .LVU1591
 6793 0016 4653     		strh	r6, [r0, r5]	@ movhi
  37:../../libdaisy/src/hid/midi.h ****         }
 6794              		.loc 5 37 20 view .LVU1592
 6795 0018 0153     		strh	r1, [r0, r4]	@ movhi
 6796              	.LBE2020:
 6797              	.LBE2024:
 6798              	.LBE2028:
 6799              	.LBE2032:
 6800              	.LBB2033:
 6801              	.LBB2034:
 6802              	.LBB2035:
 6803              	.LBB2036:
 6804              		.file 24 "../../libdaisy/src/per/uart.h"
   1:../../libdaisy/src/per/uart.h **** /* 
   2:../../libdaisy/src/per/uart.h **** TODO
   3:../../libdaisy/src/per/uart.h **** - UART1 defaults to DMA, add flexible config for DMA on all periphs
   4:../../libdaisy/src/per/uart.h **** - Transmit function improvements.
   5:../../libdaisy/src/per/uart.h **** - Overflow handling, etc. for Rx Queue.
   6:../../libdaisy/src/per/uart.h **** */
   7:../../libdaisy/src/per/uart.h **** 
   8:../../libdaisy/src/per/uart.h **** #pragma once
   9:../../libdaisy/src/per/uart.h **** #ifndef DSY_UART_H
  10:../../libdaisy/src/per/uart.h **** #define DSY_UART_H /**< macro */
  11:../../libdaisy/src/per/uart.h **** #include "daisy_core.h"
  12:../../libdaisy/src/per/uart.h **** 
  13:../../libdaisy/src/per/uart.h **** 
  14:../../libdaisy/src/per/uart.h **** namespace daisy
  15:../../libdaisy/src/per/uart.h **** {
  16:../../libdaisy/src/per/uart.h **** /** @addtogroup serial
  17:../../libdaisy/src/per/uart.h ****     @{
  18:../../libdaisy/src/per/uart.h ****     */
  19:../../libdaisy/src/per/uart.h **** 
  20:../../libdaisy/src/per/uart.h **** /** 
  21:../../libdaisy/src/per/uart.h ****     Uart Peripheral
ARM GAS  /tmp/cc3v7X8N.s 			page 203


  22:../../libdaisy/src/per/uart.h ****     @author shensley
  23:../../libdaisy/src/per/uart.h ****     @date March 2020
  24:../../libdaisy/src/per/uart.h ****     */
  25:../../libdaisy/src/per/uart.h **** class UartHandler
  26:../../libdaisy/src/per/uart.h **** {
  27:../../libdaisy/src/per/uart.h ****   public:
  28:../../libdaisy/src/per/uart.h ****     struct Config
  29:../../libdaisy/src/per/uart.h ****     {
  30:../../libdaisy/src/per/uart.h ****         enum class Peripheral
  31:../../libdaisy/src/per/uart.h ****         {
  32:../../libdaisy/src/per/uart.h ****             USART_1,
  33:../../libdaisy/src/per/uart.h ****             USART_2,
  34:../../libdaisy/src/per/uart.h ****             USART_3,
  35:../../libdaisy/src/per/uart.h ****             UART_4,
  36:../../libdaisy/src/per/uart.h ****             UART_5,
  37:../../libdaisy/src/per/uart.h ****             USART_6,
  38:../../libdaisy/src/per/uart.h ****             UART_7,
  39:../../libdaisy/src/per/uart.h ****             UART_8,
  40:../../libdaisy/src/per/uart.h ****             LPUART_1,
  41:../../libdaisy/src/per/uart.h ****         };
  42:../../libdaisy/src/per/uart.h **** 
  43:../../libdaisy/src/per/uart.h ****         enum class StopBits
  44:../../libdaisy/src/per/uart.h ****         {
  45:../../libdaisy/src/per/uart.h ****             BITS_0_5,
  46:../../libdaisy/src/per/uart.h ****             BITS_1,
  47:../../libdaisy/src/per/uart.h ****             BITS_1_5,
  48:../../libdaisy/src/per/uart.h ****             BITS_2,
  49:../../libdaisy/src/per/uart.h ****         };
  50:../../libdaisy/src/per/uart.h **** 
  51:../../libdaisy/src/per/uart.h ****         enum class Parity
  52:../../libdaisy/src/per/uart.h ****         {
  53:../../libdaisy/src/per/uart.h ****             NONE,
  54:../../libdaisy/src/per/uart.h ****             EVEN,
  55:../../libdaisy/src/per/uart.h ****             ODD,
  56:../../libdaisy/src/per/uart.h ****         };
  57:../../libdaisy/src/per/uart.h **** 
  58:../../libdaisy/src/per/uart.h ****         enum class Mode
  59:../../libdaisy/src/per/uart.h ****         {
  60:../../libdaisy/src/per/uart.h ****             RX,
  61:../../libdaisy/src/per/uart.h ****             TX,
  62:../../libdaisy/src/per/uart.h ****             TX_RX,
  63:../../libdaisy/src/per/uart.h ****         };
  64:../../libdaisy/src/per/uart.h **** 
  65:../../libdaisy/src/per/uart.h ****         enum class WordLength
  66:../../libdaisy/src/per/uart.h ****         {
  67:../../libdaisy/src/per/uart.h ****             BITS_7,
  68:../../libdaisy/src/per/uart.h ****             BITS_8,
  69:../../libdaisy/src/per/uart.h ****             BITS_9,
  70:../../libdaisy/src/per/uart.h ****         };
  71:../../libdaisy/src/per/uart.h **** 
  72:../../libdaisy/src/per/uart.h ****         struct
  73:../../libdaisy/src/per/uart.h ****         {
  74:../../libdaisy/src/per/uart.h ****             dsy_gpio_pin tx; /**< & */
  75:../../libdaisy/src/per/uart.h ****             dsy_gpio_pin rx; /**< & */
  76:../../libdaisy/src/per/uart.h ****         } pin_config;        /**< & */
  77:../../libdaisy/src/per/uart.h **** 
  78:../../libdaisy/src/per/uart.h ****         Peripheral periph;
ARM GAS  /tmp/cc3v7X8N.s 			page 204


  79:../../libdaisy/src/per/uart.h ****         StopBits   stopbits;
  80:../../libdaisy/src/per/uart.h ****         Parity     parity;
  81:../../libdaisy/src/per/uart.h ****         Mode       mode;
  82:../../libdaisy/src/per/uart.h ****         WordLength wordlength;
  83:../../libdaisy/src/per/uart.h ****         uint32_t   baudrate;
  84:../../libdaisy/src/per/uart.h ****     };
  85:../../libdaisy/src/per/uart.h **** 
  86:../../libdaisy/src/per/uart.h **** 
  87:../../libdaisy/src/per/uart.h ****     UartHandler() : pimpl_(nullptr) {}
 6805              		.loc 24 87 35 view .LVU1593
 6806 001a 49F29815 		movw	r5, #37272
 6807              	.LBE2036:
 6808              	.LBE2035:
 6809              	.LBE2034:
 6810              	.LBE2033:
  82:../../libdaisy/src/hid/midi.h ****     ~MidiHandler() {}
 6811              		.loc 5 82 19 view .LVU1594
 6812 001e 49F2A011 		movw	r1, #37280
 6813 0022 4FF60F06 		movw	r6, #63503
 6814              	.LBB2041:
 6815              	.LBB2039:
 6816              	.LBB2038:
 6817              	.LBB2037:
 6818              		.loc 24 87 35 view .LVU1595
 6819 0026 4351     		str	r3, [r0, r5]
 6820              	.LBE2037:
 6821              	.LBE2038:
 6822              	.LBE2039:
 6823              	.LBE2041:
  82:../../libdaisy/src/hid/midi.h ****     ~MidiHandler() {}
 6824              		.loc 5 82 19 view .LVU1596
 6825 0028 49F29C14 		movw	r4, #37276
 6826 002c 4652     		strh	r6, [r0, r1]	@ movhi
 6827 002e 49F2A211 		movw	r1, #37282
 6828 0032 164D     		ldr	r5, .L449+12
 6829 0034 0726     		movs	r6, #7
 6830              	.LBB2042:
 6831              	.LBB2029:
 6832              	.LBB2025:
 6833              	.LBB2021:
  35:../../libdaisy/src/hid/midi.h ****             rx     = {DSY_GPIOB, 7};
 6834              		.loc 5 35 20 view .LVU1597
 6835 0036 49F29017 		movw	r7, #37264
 6836              	.LBE2021:
 6837              	.LBE2025:
 6838              	.LBE2029:
 6839              	.LBE2042:
 6840              	.LBE2050:
 6841              	.LBE2055:
 6842              	.LBE2062:
 6843              	.LBB2063:
 6844              	.LBB2010:
 6845              	.LBB2000:
 6846              	.LBB1997:
 6847              	.LBB1995:
  62:../../libdaisy/src/hid/audio.h ****     ~AudioHandle() {}
 6848              		.loc 12 62 35 view .LVU1598
ARM GAS  /tmp/cc3v7X8N.s 			page 205


 6849 003a 4361     		str	r3, [r0, #20]
 6850              	.LVL502:
  62:../../libdaisy/src/hid/audio.h ****     ~AudioHandle() {}
 6851              		.loc 12 62 35 view .LVU1599
 6852              	.LBE1995:
 6853              	.LBE1997:
 6854              	.LBE2000:
 6855              	.LBB2001:
 6856              	.LBI2001:
  84:../../libdaisy/src/per/adc.h ****     ~AdcHandle() {}
 6857              		.loc 11 84 5 is_stmt 1 view .LVU1600
  84:../../libdaisy/src/per/adc.h ****     ~AdcHandle() {}
 6858              		.loc 11 84 5 is_stmt 0 view .LVU1601
 6859              	.LBE2001:
 6860              	.LBB2002:
 6861              	.LBI2002:
 6862              		.file 25 "../../libdaisy/src/per/dac.h"
   1:../../libdaisy/src/per/dac.h **** #pragma once
   2:../../libdaisy/src/per/dac.h **** #ifndef DSY_DAC_H
   3:../../libdaisy/src/per/dac.h **** #define DSY_DAC_H
   4:../../libdaisy/src/per/dac.h **** 
   5:../../libdaisy/src/per/dac.h **** #include "daisy_core.h"
   6:../../libdaisy/src/per/dac.h **** 
   7:../../libdaisy/src/per/dac.h **** namespace daisy
   8:../../libdaisy/src/per/dac.h **** {
   9:../../libdaisy/src/per/dac.h **** /** DAC handle for Built-in DAC Peripheral 
  10:../../libdaisy/src/per/dac.h ****  ** 
  11:../../libdaisy/src/per/dac.h ****  ** For now only Normal Mode is supported,
  12:../../libdaisy/src/per/dac.h ****  ** Sample and hold mode provides reduced power consumption, but requires a bit more setup.
  13:../../libdaisy/src/per/dac.h ****  **
  14:../../libdaisy/src/per/dac.h ****  ** For now connecting the DAC through other internal periphearls is also not supported.
  15:../../libdaisy/src/per/dac.h ****  **
  16:../../libdaisy/src/per/dac.h ****  ** Since the DAC channels have dedicated pins we don't need to pass in a pin config like with
  17:../../libdaisy/src/per/dac.h ****  ** other modules. However, it is still important to not try to use the DAC pins for anything else.
  18:../../libdaisy/src/per/dac.h ****  ** DAC Channel 1 is on PA4, and DAC Channel 2 is on PA5
  19:../../libdaisy/src/per/dac.h ****  ***/
  20:../../libdaisy/src/per/dac.h **** class DacHandle
  21:../../libdaisy/src/per/dac.h **** {
  22:../../libdaisy/src/per/dac.h ****   public:
  23:../../libdaisy/src/per/dac.h ****     /** Return Values for the DacHandle class */
  24:../../libdaisy/src/per/dac.h ****     enum class Result
  25:../../libdaisy/src/per/dac.h ****     {
  26:../../libdaisy/src/per/dac.h ****         OK,
  27:../../libdaisy/src/per/dac.h ****         ERR,
  28:../../libdaisy/src/per/dac.h ****     };
  29:../../libdaisy/src/per/dac.h **** 
  30:../../libdaisy/src/per/dac.h ****     /** Selects which channel(s) will be configured for use. */
  31:../../libdaisy/src/per/dac.h ****     enum class Channel
  32:../../libdaisy/src/per/dac.h ****     {
  33:../../libdaisy/src/per/dac.h ****         ONE,
  34:../../libdaisy/src/per/dac.h ****         TWO,
  35:../../libdaisy/src/per/dac.h ****         BOTH,
  36:../../libdaisy/src/per/dac.h ****     };
  37:../../libdaisy/src/per/dac.h **** 
  38:../../libdaisy/src/per/dac.h ****     /** Sets the Mode for the DAC channels.
  39:../../libdaisy/src/per/dac.h ****      **
  40:../../libdaisy/src/per/dac.h ****      ** Polling mode uses the blocking mode to transmit a single value at a time.
ARM GAS  /tmp/cc3v7X8N.s 			page 206


  41:../../libdaisy/src/per/dac.h ****      **
  42:../../libdaisy/src/per/dac.h ****      ** DMA mode uses a buffer, and periodically transmits it triggering a 
  43:../../libdaisy/src/per/dac.h ****      ** callback to fill the buffer when it is ready for more samples.
  44:../../libdaisy/src/per/dac.h ****      ***/
  45:../../libdaisy/src/per/dac.h ****     enum class Mode
  46:../../libdaisy/src/per/dac.h ****     {
  47:../../libdaisy/src/per/dac.h ****         POLLING,
  48:../../libdaisy/src/per/dac.h ****         DMA,
  49:../../libdaisy/src/per/dac.h ****     };
  50:../../libdaisy/src/per/dac.h **** 
  51:../../libdaisy/src/per/dac.h ****     /** Sets the number of bits per sample transmitted out of the DAC.
  52:../../libdaisy/src/per/dac.h ****      ** The output range will be: 0V - VDDA
  53:../../libdaisy/src/per/dac.h ****      ** The resolution will be roughly: bitdepth / (VDDA - 0V) 
  54:../../libdaisy/src/per/dac.h ****      ***/
  55:../../libdaisy/src/per/dac.h ****     enum class BitDepth
  56:../../libdaisy/src/per/dac.h ****     {
  57:../../libdaisy/src/per/dac.h ****         BITS_8,
  58:../../libdaisy/src/per/dac.h ****         BITS_12
  59:../../libdaisy/src/per/dac.h ****     };
  60:../../libdaisy/src/per/dac.h **** 
  61:../../libdaisy/src/per/dac.h ****     /** Sets whether the DAC output is buffered for higher drive ability. */
  62:../../libdaisy/src/per/dac.h ****     enum class BufferState
  63:../../libdaisy/src/per/dac.h ****     {
  64:../../libdaisy/src/per/dac.h ****         ENABLED,
  65:../../libdaisy/src/per/dac.h ****         DISABLED,
  66:../../libdaisy/src/per/dac.h ****     };
  67:../../libdaisy/src/per/dac.h **** 
  68:../../libdaisy/src/per/dac.h ****     /** Configuration structure for initializing the DAC structure. */
  69:../../libdaisy/src/per/dac.h ****     struct Config
  70:../../libdaisy/src/per/dac.h ****     {
  71:../../libdaisy/src/per/dac.h ****         /** Target Samplerate in Hz used to configure the internal 
  72:../../libdaisy/src/per/dac.h ****          ** timebase for DMA mode. Does nothing in POLLING mode.
  73:../../libdaisy/src/per/dac.h ****          ** If the value is 0 at Init time this will default to 48000Hz 
  74:../../libdaisy/src/per/dac.h ****          ** otherwise the driver will attempt meet the target.*/
  75:../../libdaisy/src/per/dac.h ****         uint32_t target_samplerate;
  76:../../libdaisy/src/per/dac.h **** 
  77:../../libdaisy/src/per/dac.h ****         Channel     chn;
  78:../../libdaisy/src/per/dac.h ****         Mode        mode;
  79:../../libdaisy/src/per/dac.h ****         BitDepth    bitdepth;
  80:../../libdaisy/src/per/dac.h ****         BufferState buff_state;
  81:../../libdaisy/src/per/dac.h ****     };
  82:../../libdaisy/src/per/dac.h **** 
  83:../../libdaisy/src/per/dac.h ****     DacHandle() : pimpl_(nullptr) {}
 6863              		.loc 25 83 5 is_stmt 1 view .LVU1602
 6864              	.LBE2002:
 6865              	.LBE2010:
 6866              	.LBE2063:
 6867              	.LBB2064:
 6868              	.LBB2056:
 6869              	.LBB2051:
  82:../../libdaisy/src/hid/midi.h ****     ~MidiHandler() {}
 6870              		.loc 5 82 19 is_stmt 0 view .LVU1603
 6871 003c 0551     		str	r5, [r0, r4]
 6872              	.LBE2051:
 6873              	.LBE2056:
 6874              	.LBE2064:
 6875              	.LBB2065:
ARM GAS  /tmp/cc3v7X8N.s 			page 207


 6876              	.LBB2066:
 6877              	.LBB2067:
  16:../../libdaisy/src/hid/disp/oled_display.h ****     virtual ~OledDisplay() {}
 6878              		.loc 3 16 19 view .LVU1604
 6879 003e 49F2A414 		movw	r4, #37284
 6880              	.LBE2067:
 6881              	.LBE2066:
 6882              	.LBE2065:
 6883              	.LBB2087:
 6884              	.LBB2057:
 6885              	.LBB2052:
  82:../../libdaisy/src/hid/midi.h ****     ~MidiHandler() {}
 6886              		.loc 5 82 19 view .LVU1605
 6887 0042 4654     		strb	r6, [r0, r1]
 6888              	.LBE2052:
 6889              	.LBE2057:
 6890              	.LBE2087:
 6891              	.LBB2088:
 6892              	.LBB2085:
 6893              	.LBB2083:
 6894              	.LBB2068:
 6895              	.LBB2069:
 6896              	.LBB2070:
 6897              	.LBB2071:
 6898              	.LBB2072:
 6899              		.file 26 "../../libdaisy/src/per/spi.h"
   1:../../libdaisy/src/per/spi.h **** #pragma once
   2:../../libdaisy/src/per/spi.h **** #ifndef DSY_SPI_H
   3:../../libdaisy/src/per/spi.h **** #define DSY_SPI_H
   4:../../libdaisy/src/per/spi.h **** 
   5:../../libdaisy/src/per/spi.h **** #include "daisy_core.h"
   6:../../libdaisy/src/per/spi.h **** 
   7:../../libdaisy/src/per/spi.h **** /* TODO:
   8:../../libdaisy/src/per/spi.h **** - Add documentation
   9:../../libdaisy/src/per/spi.h **** - Add reception
  10:../../libdaisy/src/per/spi.h **** - Add IT
  11:../../libdaisy/src/per/spi.h **** - Add DMA
  12:../../libdaisy/src/per/spi.h **** */
  13:../../libdaisy/src/per/spi.h **** 
  14:../../libdaisy/src/per/spi.h **** namespace daisy
  15:../../libdaisy/src/per/spi.h **** {
  16:../../libdaisy/src/per/spi.h **** /** @addtogroup serial
  17:../../libdaisy/src/per/spi.h **** @{
  18:../../libdaisy/src/per/spi.h **** */
  19:../../libdaisy/src/per/spi.h **** 
  20:../../libdaisy/src/per/spi.h **** /**  Handler for serial peripheral interface */
  21:../../libdaisy/src/per/spi.h **** class SpiHandle
  22:../../libdaisy/src/per/spi.h **** {
  23:../../libdaisy/src/per/spi.h ****   public:
  24:../../libdaisy/src/per/spi.h ****     struct Config
  25:../../libdaisy/src/per/spi.h ****     {
  26:../../libdaisy/src/per/spi.h ****         enum class Peripheral
  27:../../libdaisy/src/per/spi.h ****         {
  28:../../libdaisy/src/per/spi.h ****             SPI_1,
  29:../../libdaisy/src/per/spi.h ****             SPI_2,
  30:../../libdaisy/src/per/spi.h ****             SPI_3,
  31:../../libdaisy/src/per/spi.h ****             SPI_4,
ARM GAS  /tmp/cc3v7X8N.s 			page 208


  32:../../libdaisy/src/per/spi.h ****             SPI_5,
  33:../../libdaisy/src/per/spi.h ****             SPI_6,
  34:../../libdaisy/src/per/spi.h ****         };
  35:../../libdaisy/src/per/spi.h **** 
  36:../../libdaisy/src/per/spi.h ****         enum class Mode
  37:../../libdaisy/src/per/spi.h ****         {
  38:../../libdaisy/src/per/spi.h ****             MASTER,
  39:../../libdaisy/src/per/spi.h ****             SLAVE,
  40:../../libdaisy/src/per/spi.h ****         };
  41:../../libdaisy/src/per/spi.h **** 
  42:../../libdaisy/src/per/spi.h ****         enum class Direction
  43:../../libdaisy/src/per/spi.h ****         {
  44:../../libdaisy/src/per/spi.h ****             TWO_LINES,
  45:../../libdaisy/src/per/spi.h ****             TWO_LINES_TX_ONLY,
  46:../../libdaisy/src/per/spi.h ****             TWO_LINES_RX_ONLY,
  47:../../libdaisy/src/per/spi.h ****             ONE_LINE,
  48:../../libdaisy/src/per/spi.h ****         };
  49:../../libdaisy/src/per/spi.h **** 
  50:../../libdaisy/src/per/spi.h ****         enum class ClockPolarity
  51:../../libdaisy/src/per/spi.h ****         {
  52:../../libdaisy/src/per/spi.h ****             LOW,
  53:../../libdaisy/src/per/spi.h ****             HIGH,
  54:../../libdaisy/src/per/spi.h ****         };
  55:../../libdaisy/src/per/spi.h **** 
  56:../../libdaisy/src/per/spi.h ****         enum class ClockPhase
  57:../../libdaisy/src/per/spi.h ****         {
  58:../../libdaisy/src/per/spi.h ****             ONE_EDGE,
  59:../../libdaisy/src/per/spi.h ****             TWO_EDGE,
  60:../../libdaisy/src/per/spi.h ****         };
  61:../../libdaisy/src/per/spi.h **** 
  62:../../libdaisy/src/per/spi.h ****         enum class NSS
  63:../../libdaisy/src/per/spi.h ****         {
  64:../../libdaisy/src/per/spi.h ****             SOFT,
  65:../../libdaisy/src/per/spi.h ****             HARD_INPUT,
  66:../../libdaisy/src/per/spi.h ****             HARD_OUTPUT,
  67:../../libdaisy/src/per/spi.h ****         };
  68:../../libdaisy/src/per/spi.h **** 
  69:../../libdaisy/src/per/spi.h ****         enum class BaudPrescaler
  70:../../libdaisy/src/per/spi.h ****         {
  71:../../libdaisy/src/per/spi.h ****             PS_2,
  72:../../libdaisy/src/per/spi.h ****             PS_4,
  73:../../libdaisy/src/per/spi.h ****             PS_8,
  74:../../libdaisy/src/per/spi.h ****             PS_16,
  75:../../libdaisy/src/per/spi.h ****             PS_32,
  76:../../libdaisy/src/per/spi.h ****             PS_64,
  77:../../libdaisy/src/per/spi.h ****             PS_128,
  78:../../libdaisy/src/per/spi.h ****             PS_256,
  79:../../libdaisy/src/per/spi.h ****         };
  80:../../libdaisy/src/per/spi.h **** 
  81:../../libdaisy/src/per/spi.h ****         struct
  82:../../libdaisy/src/per/spi.h ****         {
  83:../../libdaisy/src/per/spi.h ****             dsy_gpio_pin sclk; /**< & */
  84:../../libdaisy/src/per/spi.h ****             dsy_gpio_pin miso; /**< & */
  85:../../libdaisy/src/per/spi.h ****             dsy_gpio_pin mosi; /**< & */
  86:../../libdaisy/src/per/spi.h ****             dsy_gpio_pin nss;  /**< & */
  87:../../libdaisy/src/per/spi.h ****         } pin_config;
  88:../../libdaisy/src/per/spi.h **** 
ARM GAS  /tmp/cc3v7X8N.s 			page 209


  89:../../libdaisy/src/per/spi.h ****         Peripheral    periph;
  90:../../libdaisy/src/per/spi.h ****         Mode          mode;
  91:../../libdaisy/src/per/spi.h ****         Direction     direction;
  92:../../libdaisy/src/per/spi.h ****         unsigned long datasize;
  93:../../libdaisy/src/per/spi.h ****         ClockPolarity clock_polarity;
  94:../../libdaisy/src/per/spi.h ****         ClockPhase    clock_phase;
  95:../../libdaisy/src/per/spi.h ****         NSS           nss;
  96:../../libdaisy/src/per/spi.h ****         BaudPrescaler baud_prescaler;
  97:../../libdaisy/src/per/spi.h ****     };
  98:../../libdaisy/src/per/spi.h **** 
  99:../../libdaisy/src/per/spi.h ****     SpiHandle() : pimpl_(nullptr) {}
 6900              		.loc 26 99 33 view .LVU1606
 6901 0044 49F2AC11 		movw	r1, #37292
 6902              	.LBE2072:
 6903              	.LBE2071:
 6904              	.LBE2070:
 6905              	.LBE2069:
 6906              	.LBE2068:
  16:../../libdaisy/src/hid/disp/oled_display.h ****     virtual ~OledDisplay() {}
 6907              		.loc 3 16 19 view .LVU1607
 6908 0048 114D     		ldr	r5, .L449+16
 6909              	.LBB2079:
 6910              	.LBB2077:
 6911              	.LBB2075:
 6912              	.LBB2074:
 6913              	.LBB2073:
 6914              		.loc 26 99 33 view .LVU1608
 6915 004a 4350     		str	r3, [r0, r1]
 6916              	.LBE2073:
 6917              	.LBE2074:
 6918              	.LBE2075:
 6919              	.LBE2077:
 6920              	.LBE2079:
 6921              	.LBE2083:
 6922              	.LBE2085:
 6923              	.LBE2088:
 6924              	.LBB2089:
 6925              	.LBB2011:
 6926              	.LBB2005:
 6927              	.LBB2003:
 6928              	.LBB2004:
 6929              		.loc 25 83 33 view .LVU1609
 6930 004c 0362     		str	r3, [r0, #32]
 6931              	.LVL503:
 6932              		.loc 25 83 33 view .LVU1610
 6933              	.LBE2004:
 6934              	.LBE2003:
 6935              	.LBE2005:
 6936              	.LBB2006:
 6937              	.LBI2006:
  40:../../libdaisy/src/hid/usb.h **** 
 6938              		.loc 10 40 5 is_stmt 1 view .LVU1611
  40:../../libdaisy/src/hid/usb.h **** 
 6939              		.loc 10 40 5 is_stmt 0 view .LVU1612
 6940              	.LBE2006:
 6941              	.LBB2007:
 6942              	.LBI2007:
ARM GAS  /tmp/cc3v7X8N.s 			page 210


  58:../../libdaisy/src/sys/system.h ****     ~System() {}
 6943              		.loc 9 58 5 is_stmt 1 view .LVU1613
  58:../../libdaisy/src/sys/system.h ****     ~System() {}
 6944              		.loc 9 58 5 is_stmt 0 view .LVU1614
 6945              	.LBE2007:
 6946              	.LBE2011:
 6947              	.LBE2089:
 6948              	.LBB2090:
 6949              	.LBI2090:
  20:../../libdaisy/src/hid/encoder.h ****     ~Encoder() {}
 6950              		.loc 6 20 5 is_stmt 1 view .LVU1615
 6951              	.LBB2091:
 6952              	.LBB2092:
 6953              	.LBI2092:
  40:../../libdaisy/src/hid/switch.h ****     ~Switch() {}
 6954              		.loc 7 40 5 view .LVU1616
  40:../../libdaisy/src/hid/switch.h ****     ~Switch() {}
 6955              		.loc 7 40 5 is_stmt 0 view .LVU1617
 6956              	.LBE2092:
 6957              	.LBE2091:
 6958              	.LBE2090:
 6959              	.LBE2095:
 6960              	.LBE2097:
 6961              	.LBE2116:
 6962              	.LBE2119:
  39:../../libdaisy/src/daisy_patch.h ****     /** Destructor */
 6963              		.loc 2 39 18 is_stmt 1 view .LVU1618
  39:../../libdaisy/src/daisy_patch.h ****     /** Destructor */
 6964              		.loc 2 39 18 view .LVU1619
 6965              	.LBB2120:
 6966              	.LBB2117:
 6967              	.LBB2098:
 6968              	.LBB2096:
 6969              	.LBB2093:
 6970              	.LBI2012:
  82:../../libdaisy/src/hid/midi.h ****     ~MidiHandler() {}
 6971              		.loc 5 82 5 view .LVU1620
 6972              	.LBB2058:
 6973              	.LBB2053:
 6974              	.LBB2043:
 6975              	.LBI2043:
 6976              		.loc 24 87 5 view .LVU1621
 6977              	.LBB2044:
 6978              	.LBB2045:
 6979              		.loc 24 87 35 is_stmt 0 view .LVU1622
 6980 004e C0F8E830 		str	r3, [r0, #232]
 6981              	.LVL504:
 6982              		.loc 24 87 35 view .LVU1623
 6983              	.LBE2045:
 6984              	.LBE2044:
 6985              	.LBE2043:
 6986              	.LBB2046:
 6987              	.LBI2046:
 6988              		.file 27 "../../libdaisy/src/util/ringbuffer.h"
   1:../../libdaisy/src/util/ringbuffer.h **** #pragma once
   2:../../libdaisy/src/util/ringbuffer.h **** #ifndef DSY_RINGBUFFER_H
   3:../../libdaisy/src/util/ringbuffer.h **** #define DSY_RINGBUFFER_H
ARM GAS  /tmp/cc3v7X8N.s 			page 211


   4:../../libdaisy/src/util/ringbuffer.h **** 
   5:../../libdaisy/src/util/ringbuffer.h **** #include <algorithm>
   6:../../libdaisy/src/util/ringbuffer.h **** 
   7:../../libdaisy/src/util/ringbuffer.h **** namespace daisy
   8:../../libdaisy/src/util/ringbuffer.h **** {
   9:../../libdaisy/src/util/ringbuffer.h **** /** @addtogroup utility
  10:../../libdaisy/src/util/ringbuffer.h ****     @{
  11:../../libdaisy/src/util/ringbuffer.h **** */
  12:../../libdaisy/src/util/ringbuffer.h **** 
  13:../../libdaisy/src/util/ringbuffer.h **** /**
  14:../../libdaisy/src/util/ringbuffer.h **** Utility Ring Buffer \n 
  15:../../libdaisy/src/util/ringbuffer.h **** imported from pichenettes/stmlib
  16:../../libdaisy/src/util/ringbuffer.h **** */
  17:../../libdaisy/src/util/ringbuffer.h **** template <typename T, size_t size>
  18:../../libdaisy/src/util/ringbuffer.h **** class RingBuffer
  19:../../libdaisy/src/util/ringbuffer.h **** {
  20:../../libdaisy/src/util/ringbuffer.h ****   public:
  21:../../libdaisy/src/util/ringbuffer.h ****     RingBuffer() {}
 6989              		.loc 27 21 5 is_stmt 1 view .LVU1624
 6990              		.loc 27 21 5 is_stmt 0 view .LVU1625
 6991              	.LBE2046:
 6992              	.LBB2047:
 6993              	.LBI2015:
  84:../../libdaisy/src/hid/midi.h **** 
  85:../../libdaisy/src/hid/midi.h ****     struct Config
 6994              		.loc 5 85 12 is_stmt 1 view .LVU1626
 6995              	.LBB2030:
 6996              	.LBI2016:
  33:../../libdaisy/src/hid/midi.h ****         {
 6997              		.loc 5 33 9 view .LVU1627
 6998              	.LBB2026:
 6999              	.LBB2022:
  35:../../libdaisy/src/hid/midi.h ****             rx     = {DSY_GPIOB, 7};
 7000              		.loc 5 35 13 view .LVU1628
  35:../../libdaisy/src/hid/midi.h ****             rx     = {DSY_GPIOB, 7};
 7001              		.loc 5 35 20 is_stmt 0 view .LVU1629
 7002 0052 C351     		str	r3, [r0, r7]
  36:../../libdaisy/src/hid/midi.h ****             tx     = {DSY_GPIOB, 6};
 7003              		.loc 5 36 13 is_stmt 1 view .LVU1630
  37:../../libdaisy/src/hid/midi.h ****         }
 7004              		.loc 5 37 13 view .LVU1631
 7005              	.LVL505:
  37:../../libdaisy/src/hid/midi.h ****         }
 7006              		.loc 5 37 13 is_stmt 0 view .LVU1632
 7007              	.LBE2022:
 7008              	.LBE2026:
 7009              	.LBE2030:
 7010              	.LBE2047:
 7011              	.LBB2048:
 7012              	.LBI2033:
  24:../../libdaisy/src/hid/midi.h ****     ~MidiUartTransport() {}
 7013              		.loc 5 24 5 is_stmt 1 view .LVU1633
 7014              	.LBB2040:
 7015              	.LBI2034:
 7016              		.loc 24 87 5 view .LVU1634
 7017              		.loc 24 87 5 is_stmt 0 view .LVU1635
 7018              	.LBE2040:
ARM GAS  /tmp/cc3v7X8N.s 			page 212


 7019              	.LBE2048:
 7020              	.LBE2053:
 7021              	.LBE2058:
 7022              	.LBE2093:
 7023              	.LBB2094:
 7024              	.LBI2065:
  16:../../libdaisy/src/hid/disp/oled_display.h ****     virtual ~OledDisplay() {}
 7025              		.loc 3 16 5 is_stmt 1 view .LVU1636
 7026              	.LBB2086:
 7027              	.LBB2084:
 7028              	.LBB2080:
 7029              	.LBI2080:
 218:../../libdaisy/src/hid/disp/display.h ****     virtual ~OneBitGraphicsDisplayImpl() {}
 7030              		.loc 4 218 5 view .LVU1637
 7031              	.LBB2081:
 7032              	.LBI2081:
  22:../../libdaisy/src/hid/disp/display.h ****     virtual ~OneBitGraphicsDisplay() {}
 7033              		.loc 4 22 5 view .LVU1638
  22:../../libdaisy/src/hid/disp/display.h ****     virtual ~OneBitGraphicsDisplay() {}
 7034              		.loc 4 22 5 is_stmt 0 view .LVU1639
 7035              	.LBE2081:
 7036              	.LBE2080:
  16:../../libdaisy/src/hid/disp/oled_display.h ****     virtual ~OledDisplay() {}
 7037              		.loc 3 16 19 view .LVU1640
 7038 0054 0551     		str	r5, [r0, r4]
 7039              	.LVL506:
 7040              	.LBB2082:
 7041              	.LBI2068:
 132:../../libdaisy/src/dev/oled_ssd130x.h **** {
 7042              		.loc 17 132 7 is_stmt 1 view .LVU1641
 7043              	.LBB2078:
 7044              	.LBI2069:
  60:../../libdaisy/src/dev/oled_ssd130x.h **** {
 7045              		.loc 17 60 7 view .LVU1642
 7046              	.LBB2076:
 7047              	.LBI2070:
 7048              		.loc 26 99 5 view .LVU1643
 7049              		.loc 26 99 5 is_stmt 0 view .LVU1644
 7050              	.LBE2076:
 7051              	.LBE2078:
 7052              	.LBE2082:
 7053              	.LBE2084:
 7054              	.LBE2086:
 7055              	.LBE2094:
 7056              	.LBE2096:
 7057              	.LBE2098:
   8:Noise.cpp     **** 
 7058              		.loc 13 8 12 view .LVU1645
 7059 0056 0F49     		ldr	r1, .L449+20
  63:Noise.cpp     **** 
 7060              		.loc 13 63 8 view .LVU1646
 7061 0058 0F4C     		ldr	r4, .L449+24
   8:Noise.cpp     **** 
 7062              		.loc 13 8 12 view .LVU1647
 7063 005a FFF7FEFF 		bl	__aeabi_atexit
 7064              	.LVL507:
 7065              	.LBB2099:
ARM GAS  /tmp/cc3v7X8N.s 			page 213


 7066              	.LBI2099:
  15:../../DaisySP/Source/Noise/whitenoise.h ****     ~WhiteNoise() {}
 7067              		.loc 1 15 5 is_stmt 1 view .LVU1648
  15:../../DaisySP/Source/Noise/whitenoise.h ****     ~WhiteNoise() {}
 7068              		.loc 1 15 5 is_stmt 0 view .LVU1649
 7069              	.LBE2099:
  10:Noise.cpp     **** 
 7070              		.loc 13 10 12 view .LVU1650
 7071 005e 0A4A     		ldr	r2, .L449+8
 7072 0060 0E49     		ldr	r1, .L449+28
 7073 0062 0F48     		ldr	r0, .L449+32
 7074 0064 FFF7FEFF 		bl	__aeabi_atexit
 7075              	.LVL508:
 7076              	.LBB2100:
 7077              	.LBI2100:
  12:Noise.cpp     **** {
 7078              		.loc 13 12 8 is_stmt 1 view .LVU1651
 7079              	.LBB2101:
 7080              	.LBI2101:
  21:../../DaisySP/Source/Filters/svf.h ****     ~Svf() {}
 7081              		.loc 16 21 5 view .LVU1652
  21:../../DaisySP/Source/Filters/svf.h ****     ~Svf() {}
 7082              		.loc 16 21 5 is_stmt 0 view .LVU1653
 7083              	.LBE2101:
 7084              	.LBB2102:
 7085              	.LBI2102:
  25:../../libdaisy/src/hid/parameter.h ****     /** Destructor */
 7086              		.loc 14 25 5 is_stmt 1 view .LVU1654
 7087              	.LBB2103:
 7088              	.LBB2104:
 7089              	.LBI2104:
  21:../../libdaisy/src/hid/ctrl.h ****     /** destructor */
 7090              		.loc 15 21 5 view .LVU1655
  21:../../libdaisy/src/hid/ctrl.h ****     /** destructor */
 7091              		.loc 15 21 5 is_stmt 0 view .LVU1656
 7092              	.LBE2104:
 7093              	.LBE2103:
 7094              	.LBE2102:
 7095              	.LBB2105:
 7096              	.LBI2105:
  25:../../libdaisy/src/hid/parameter.h ****     /** Destructor */
 7097              		.loc 14 25 5 is_stmt 1 view .LVU1657
 7098              	.LBB2106:
 7099              	.LBB2107:
 7100              	.LBI2107:
  21:../../libdaisy/src/hid/ctrl.h ****     /** destructor */
 7101              		.loc 15 21 5 view .LVU1658
  21:../../libdaisy/src/hid/ctrl.h ****     /** destructor */
 7102              		.loc 15 21 5 is_stmt 0 view .LVU1659
 7103              	.LBE2107:
 7104              	.LBE2106:
 7105              	.LBE2105:
 7106              	.LBE2100:
  63:Noise.cpp     **** 
 7107              		.loc 13 63 8 view .LVU1660
 7108 0068 2146     		mov	r1, r4
 7109 006a 074A     		ldr	r2, .L449+8
ARM GAS  /tmp/cc3v7X8N.s 			page 214


 7110 006c 0D48     		ldr	r0, .L449+36
 7111 006e FFF7FEFF 		bl	__aeabi_atexit
 7112              	.LVL509:
 7113              	.LBB2108:
 7114              	.LBI2108:
  12:Noise.cpp     **** {
 7115              		.loc 13 12 8 is_stmt 1 view .LVU1661
 7116              	.LBB2109:
 7117              	.LBI2109:
  21:../../DaisySP/Source/Filters/svf.h ****     ~Svf() {}
 7118              		.loc 16 21 5 view .LVU1662
  21:../../DaisySP/Source/Filters/svf.h ****     ~Svf() {}
 7119              		.loc 16 21 5 is_stmt 0 view .LVU1663
 7120              	.LBE2109:
 7121              	.LBB2110:
 7122              	.LBI2110:
  25:../../libdaisy/src/hid/parameter.h ****     /** Destructor */
 7123              		.loc 14 25 5 is_stmt 1 view .LVU1664
 7124              	.LBB2111:
 7125              	.LBB2112:
 7126              	.LBI2112:
  21:../../libdaisy/src/hid/ctrl.h ****     /** destructor */
 7127              		.loc 15 21 5 view .LVU1665
  21:../../libdaisy/src/hid/ctrl.h ****     /** destructor */
 7128              		.loc 15 21 5 is_stmt 0 view .LVU1666
 7129              	.LBE2112:
 7130              	.LBE2111:
 7131              	.LBE2110:
 7132              	.LBB2113:
 7133              	.LBI2113:
  25:../../libdaisy/src/hid/parameter.h ****     /** Destructor */
 7134              		.loc 14 25 5 is_stmt 1 view .LVU1667
 7135              	.LBB2114:
 7136              	.LBB2115:
 7137              	.LBI2115:
  21:../../libdaisy/src/hid/ctrl.h ****     /** destructor */
 7138              		.loc 15 21 5 view .LVU1668
  21:../../libdaisy/src/hid/ctrl.h ****     /** destructor */
 7139              		.loc 15 21 5 is_stmt 0 view .LVU1669
 7140              	.LBE2115:
 7141              	.LBE2114:
 7142              	.LBE2113:
 7143              	.LBE2108:
  63:Noise.cpp     **** 
 7144              		.loc 13 63 17 view .LVU1670
 7145 0072 2146     		mov	r1, r4
 7146 0074 044A     		ldr	r2, .L449+8
 7147 0076 0C48     		ldr	r0, .L449+40
 7148              	.LBE2117:
 7149              	.LBE2120:
 7150              		.loc 13 114 1 view .LVU1671
 7151 0078 BDE8F840 		pop	{r3, r4, r5, r6, r7, lr}
 7152              		.cfi_restore 14
 7153              		.cfi_restore 7
 7154              		.cfi_restore 6
 7155              		.cfi_restore 5
 7156              		.cfi_restore 4
ARM GAS  /tmp/cc3v7X8N.s 			page 215


 7157              		.cfi_restore 3
 7158              		.cfi_def_cfa_offset 0
 7159              	.LBB2121:
 7160              	.LBB2118:
  63:Noise.cpp     **** 
 7161              		.loc 13 63 17 view .LVU1672
 7162 007c FFF7FEBF 		b	__aeabi_atexit
 7163              	.LVL510:
 7164              	.L450:
 7165              		.align	2
 7166              	.L449:
 7167 0080 00000000 		.word	.LANCHOR3
 7168 0084 00000000 		.word	patch
 7169 0088 00000000 		.word	__dso_handle
 7170 008c 80707FF0 		.word	-260083584
 7171 0090 08000000 		.word	_ZTVN5daisy11OledDisplayINS_13SSD130xDriverILj128ELj64ENS_24SSD130x4WireSpiTransportEEEEE+8
 7172 0094 00000000 		.word	_ZN5daisy10DaisyPatchD1Ev
 7173 0098 00000000 		.word	_ZN6filterD1Ev
 7174 009c 00000000 		.word	_ZN7daisysp10WhiteNoiseD1Ev
 7175 00a0 00000000 		.word	.LANCHOR2
 7176 00a4 00000000 		.word	.LANCHOR0
 7177 00a8 00000000 		.word	.LANCHOR1
 7178              	.LBE2118:
 7179              	.LBE2121:
 7180              		.cfi_endproc
 7181              	.LFE4840:
 7183              		.section	.init_array,"aw",%init_array
 7184              		.align	2
 7185 0000 00000000 		.word	_GLOBAL__sub_I_patch(target1)
 7186              		.weak	_ZTSN5daisy21OneBitGraphicsDisplayE
 7187              		.section	.rodata._ZTSN5daisy21OneBitGraphicsDisplayE,"aG",%progbits,_ZTSN5daisy21OneBitGraphicsDis
 7188              		.align	2
 7191              	_ZTSN5daisy21OneBitGraphicsDisplayE:
 7192 0000 4E356461 		.ascii	"N5daisy21OneBitGraphicsDisplayE\000"
 7192      69737932 
 7192      314F6E65 
 7192      42697447 
 7192      72617068 
 7193              		.weak	_ZTIN5daisy21OneBitGraphicsDisplayE
 7194              		.section	.rodata._ZTIN5daisy21OneBitGraphicsDisplayE,"aG",%progbits,_ZTIN5daisy21OneBitGraphicsDis
 7195              		.align	2
 7198              	_ZTIN5daisy21OneBitGraphicsDisplayE:
 7199 0000 08000000 		.word	_ZTVN10__cxxabiv117__class_type_infoE+8
 7200 0004 00000000 		.word	_ZTSN5daisy21OneBitGraphicsDisplayE
 7201              		.weak	_ZTSN5daisy25OneBitGraphicsDisplayImplINS_11OledDisplayINS_13SSD130xDriverILj128ELj64ENS_24S
 7202              		.section	.rodata._ZTSN5daisy25OneBitGraphicsDisplayImplINS_11OledDisplayINS_13SSD130xDriverILj128E
 7203              		.align	2
 7206              	_ZTSN5daisy25OneBitGraphicsDisplayImplINS_11OledDisplayINS_13SSD130xDriverILj128ELj64ENS_24SSD130x4
 7207 0000 4E356461 		.ascii	"N5daisy25OneBitGraphicsDisplayImplINS_11OledDisplay"
 7207      69737932 
 7207      354F6E65 
 7207      42697447 
 7207      72617068 
 7208 0033 494E535F 		.ascii	"INS_13SSD130xDriverILj128ELj64ENS_24SSD130x4WireSpi"
 7208      31335353 
 7208      44313330 
 7208      78447269 
ARM GAS  /tmp/cc3v7X8N.s 			page 216


 7208      76657249 
 7209 0066 5472616E 		.ascii	"TransportEEEEEEE\000"
 7209      73706F72 
 7209      74454545 
 7209      45454545 
 7209      00
 7210              		.weak	_ZTIN5daisy25OneBitGraphicsDisplayImplINS_11OledDisplayINS_13SSD130xDriverILj128ELj64ENS_24S
 7211              		.section	.rodata._ZTIN5daisy25OneBitGraphicsDisplayImplINS_11OledDisplayINS_13SSD130xDriverILj128E
 7212              		.align	2
 7215              	_ZTIN5daisy25OneBitGraphicsDisplayImplINS_11OledDisplayINS_13SSD130xDriverILj128ELj64ENS_24SSD130x4
 7216 0000 08000000 		.word	_ZTVN10__cxxabiv120__si_class_type_infoE+8
 7217 0004 00000000 		.word	_ZTSN5daisy25OneBitGraphicsDisplayImplINS_11OledDisplayINS_13SSD130xDriverILj128ELj64ENS_24S
 7218 0008 00000000 		.word	_ZTIN5daisy21OneBitGraphicsDisplayE
 7219              		.weak	_ZTSN5daisy11OledDisplayINS_13SSD130xDriverILj128ELj64ENS_24SSD130x4WireSpiTransportEEEEE
 7220              		.section	.rodata._ZTSN5daisy11OledDisplayINS_13SSD130xDriverILj128ELj64ENS_24SSD130x4WireSpiTransp
 7221              		.align	2
 7224              	_ZTSN5daisy11OledDisplayINS_13SSD130xDriverILj128ELj64ENS_24SSD130x4WireSpiTransportEEEEE:
 7225 0000 4E356461 		.ascii	"N5daisy11OledDisplayINS_13SSD130xDriverILj128ELj64E"
 7225      69737931 
 7225      314F6C65 
 7225      64446973 
 7225      706C6179 
 7226 0033 4E535F32 		.ascii	"NS_24SSD130x4WireSpiTransportEEEEE\000"
 7226      34535344 
 7226      31333078 
 7226      34576972 
 7226      65537069 
 7227              		.weak	_ZTIN5daisy11OledDisplayINS_13SSD130xDriverILj128ELj64ENS_24SSD130x4WireSpiTransportEEEEE
 7228              		.section	.rodata._ZTIN5daisy11OledDisplayINS_13SSD130xDriverILj128ELj64ENS_24SSD130x4WireSpiTransp
 7229              		.align	2
 7232              	_ZTIN5daisy11OledDisplayINS_13SSD130xDriverILj128ELj64ENS_24SSD130x4WireSpiTransportEEEEE:
 7233 0000 08000000 		.word	_ZTVN10__cxxabiv120__si_class_type_infoE+8
 7234 0004 00000000 		.word	_ZTSN5daisy11OledDisplayINS_13SSD130xDriverILj128ELj64ENS_24SSD130x4WireSpiTransportEEEEE
 7235 0008 00000000 		.word	_ZTIN5daisy25OneBitGraphicsDisplayImplINS_11OledDisplayINS_13SSD130xDriverILj128ELj64ENS_24S
 7236              		.weak	_ZTVN5daisy11OledDisplayINS_13SSD130xDriverILj128ELj64ENS_24SSD130x4WireSpiTransportEEEEE
 7237              		.section	.rodata._ZTVN5daisy11OledDisplayINS_13SSD130xDriverILj128ELj64ENS_24SSD130x4WireSpiTransp
 7238              		.align	2
 7241              	_ZTVN5daisy11OledDisplayINS_13SSD130xDriverILj128ELj64ENS_24SSD130x4WireSpiTransportEEEEE:
 7242 0000 00000000 		.word	0
 7243 0004 00000000 		.word	_ZTIN5daisy11OledDisplayINS_13SSD130xDriverILj128ELj64ENS_24SSD130x4WireSpiTransportEEEEE
 7244 0008 00000000 		.word	_ZN5daisy11OledDisplayINS_13SSD130xDriverILj128ELj64ENS_24SSD130x4WireSpiTransportEEEED1Ev
 7245 000c 00000000 		.word	_ZN5daisy11OledDisplayINS_13SSD130xDriverILj128ELj64ENS_24SSD130x4WireSpiTransportEEEED0Ev
 7246 0010 00000000 		.word	_ZNK5daisy11OledDisplayINS_13SSD130xDriverILj128ELj64ENS_24SSD130x4WireSpiTransportEEEE6Heig
 7247 0014 00000000 		.word	_ZNK5daisy11OledDisplayINS_13SSD130xDriverILj128ELj64ENS_24SSD130x4WireSpiTransportEEEE5Widt
 7248 0018 00000000 		.word	_ZN5daisy11OledDisplayINS_13SSD130xDriverILj128ELj64ENS_24SSD130x4WireSpiTransportEEEE4FillE
 7249 001c 00000000 		.word	_ZN5daisy11OledDisplayINS_13SSD130xDriverILj128ELj64ENS_24SSD130x4WireSpiTransportEEEE9DrawP
 7250 0020 00000000 		.word	_ZN5daisy25OneBitGraphicsDisplayImplINS_11OledDisplayINS_13SSD130xDriverILj128ELj64ENS_24SSD
 7251 0024 00000000 		.word	_ZN5daisy25OneBitGraphicsDisplayImplINS_11OledDisplayINS_13SSD130xDriverILj128ELj64ENS_24SSD
 7252 0028 00000000 		.word	_ZN5daisy25OneBitGraphicsDisplayImplINS_11OledDisplayINS_13SSD130xDriverILj128ELj64ENS_24SSD
 7253 002c 00000000 		.word	_ZN5daisy25OneBitGraphicsDisplayImplINS_11OledDisplayINS_13SSD130xDriverILj128ELj64ENS_24SSD
 7254 0030 00000000 		.word	_ZN5daisy25OneBitGraphicsDisplayImplINS_11OledDisplayINS_13SSD130xDriverILj128ELj64ENS_24SSD
 7255 0034 00000000 		.word	_ZN5daisy25OneBitGraphicsDisplayImplINS_11OledDisplayINS_13SSD130xDriverILj128ELj64ENS_24SSD
 7256 0038 00000000 		.word	_ZN5daisy11OledDisplayINS_13SSD130xDriverILj128ELj64ENS_24SSD130x4WireSpiTransportEEEE6Updat
 7257              		.global	highpass
 7258              		.global	lowpass
 7259              		.global	noise
 7260              		.global	patch
ARM GAS  /tmp/cc3v7X8N.s 			page 217


 7261              		.section	.rodata
 7262              		.align	2
 7263              		.set	.LANCHOR3,. + 0
 7264              	.LC0:
 7265 0000 01       		.byte	1
 7266 0001 07       		.byte	7
 7267 0002 0000     		.space	2
 7268              	.LC1:
 7269 0004 01       		.byte	1
 7270 0005 06       		.byte	6
 7271              		.section	.bss.highpass,"aw",%nobits
 7272              		.align	2
 7273              		.set	.LANCHOR1,. + 0
 7276              	highpass:
 7277 0000 00000000 		.space	192
 7277      00000000 
 7277      00000000 
 7277      00000000 
 7277      00000000 
 7278              		.section	.bss.lowpass,"aw",%nobits
 7279              		.align	2
 7280              		.set	.LANCHOR0,. + 0
 7283              	lowpass:
 7284 0000 00000000 		.space	192
 7284      00000000 
 7284      00000000 
 7284      00000000 
 7284      00000000 
 7285              		.section	.bss.noise,"aw",%nobits
 7286              		.align	2
 7287              		.set	.LANCHOR2,. + 0
 7290              	noise:
 7291 0000 00000000 		.space	8
 7291      00000000 
 7292              		.section	.bss.patch,"aw",%nobits
 7293              		.align	2
 7296              	patch:
 7297 0000 00000000 		.space	38340
 7297      00000000 
 7297      00000000 
 7297      00000000 
 7297      00000000 
 7298              		.text
 7299              	.Letext0:
 7300              		.file 28 "/usr/lib/gcc/arm-none-eabi/9.2.1/include/stdint.h"
 7301              		.file 29 "../../libdaisy/Drivers/CMSIS/Include/core_cm7.h"
 7302              		.file 30 "../../libdaisy/Drivers/CMSIS/Device/ST/STM32H7xx/Include/system_stm32h7xx.h"
 7303              		.file 31 "/usr/lib/gcc/arm-none-eabi/9.2.1/include/stddef.h"
 7304              		.file 32 "/usr/include/newlib/c++/9.2.1/bits/basic_string.tcc"
 7305              		.file 33 "/usr/include/newlib/c++/9.2.1/bits/std_abs.h"
 7306              		.file 34 "/usr/include/newlib/c++/9.2.1/cstdint"
 7307              		.file 35 "/usr/include/newlib/c++/9.2.1/cstdlib"
 7308              		.file 36 "/usr/include/newlib/c++/9.2.1/type_traits"
 7309              		.file 37 "/usr/include/newlib/c++/9.2.1/arm-none-eabi/thumb/v7e-m+dp/hard/bits/c++config.h"
 7310              		.file 38 "/usr/include/newlib/c++/9.2.1/bits/stl_pair.h"
 7311              		.file 39 "/usr/include/newlib/c++/9.2.1/bits/cpp_type_traits.h"
 7312              		.file 40 "/usr/include/newlib/c++/9.2.1/bits/stl_iterator_base_types.h"
ARM GAS  /tmp/cc3v7X8N.s 			page 218


 7313              		.file 41 "/usr/include/newlib/c++/9.2.1/debug/debug.h"
 7314              		.file 42 "/usr/include/newlib/c++/9.2.1/cwchar"
 7315              		.file 43 "/usr/include/newlib/c++/9.2.1/bits/exception_ptr.h"
 7316              		.file 44 "/usr/include/newlib/c++/9.2.1/new"
 7317              		.file 45 "/usr/include/newlib/c++/9.2.1/clocale"
 7318              		.file 46 "/usr/include/newlib/c++/9.2.1/cstdio"
 7319              		.file 47 "/usr/include/newlib/c++/9.2.1/bits/alloc_traits.h"
 7320              		.file 48 "/usr/include/newlib/c++/9.2.1/initializer_list"
 7321              		.file 49 "/usr/include/newlib/c++/9.2.1/bits/stringfwd.h"
 7322              		.file 50 "/usr/include/newlib/c++/9.2.1/bits/uniform_int_dist.h"
 7323              		.file 51 "/usr/include/newlib/c++/9.2.1/bits/random.h"
 7324              		.file 52 "/usr/include/newlib/c++/9.2.1/cstring"
 7325              		.file 53 "/usr/include/newlib/c++/9.2.1/bits/algorithmfwd.h"
 7326              		.file 54 "/usr/include/newlib/c++/9.2.1/cstdarg"
 7327              		.file 55 "/usr/include/newlib/c++/9.2.1/bits/ptr_traits.h"
 7328              		.file 56 "/usr/include/newlib/c++/9.2.1/bits/stl_iterator_base_funcs.h"
 7329              		.file 57 "/usr/include/newlib/c++/9.2.1/bits/move.h"
 7330              		.file 58 "/usr/include/newlib/c++/9.2.1/bits/predefined_ops.h"
 7331              		.file 59 "/usr/include/newlib/c++/9.2.1/ext/numeric_traits.h"
 7332              		.file 60 "/usr/include/newlib/c++/9.2.1/ext/alloc_traits.h"
 7333              		.file 61 "/usr/include/newlib/c++/9.2.1/bits/stl_iterator.h"
 7334              		.file 62 "/usr/include/newlib/c++/9.2.1/ext/type_traits.h"
 7335              		.file 63 "/usr/include/newlib/sys/_types.h"
 7336              		.file 64 "/usr/include/newlib/sys/reent.h"
 7337              		.file 65 "/usr/include/newlib/sys/lock.h"
 7338              		.file 66 "/usr/include/newlib/math.h"
 7339              		.file 67 "/usr/include/newlib/stdlib.h"
 7340              		.file 68 "/usr/include/newlib/c++/9.2.1/math.h"
 7341              		.file 69 "../../libdaisy/Drivers/STM32H7xx_HAL_Driver/Inc/stm32h7xx_hal_def.h"
 7342              		.file 70 "../../libdaisy/Drivers/STM32H7xx_HAL_Driver/Inc/stm32h7xx_hal_flash.h"
 7343              		.file 71 "../../DaisySP/Source/Control/adenv.h"
 7344              		.file 72 "../../DaisySP/Source/Utility/dsp.h"
 7345              		.file 73 "/usr/lib/gcc/arm-none-eabi/9.2.1/include/stdarg.h"
 7346              		.file 74 "/usr/include/newlib/wchar.h"
 7347              		.file 75 "/usr/include/newlib/locale.h"
 7348              		.file 76 "/usr/include/newlib/ctype.h"
 7349              		.file 77 "/usr/include/newlib/stdio.h"
 7350              		.file 78 "/usr/include/newlib/sys/errno.h"
 7351              		.file 79 "/usr/include/newlib/c++/9.2.1/stdlib.h"
 7352              		.file 80 "/usr/include/newlib/string.h"
 7353              		.file 81 "../../libdaisy/src/daisy_core.h"
 7354              		.file 82 "../../libdaisy/src/per/tim.h"
 7355              		.file 83 "../../libdaisy/src/per/sai.h"
 7356              		.file 84 "../../libdaisy/src/hid/MidiEvent.h"
 7357              		.file 85 "../../libdaisy/src/hid/gatein.h"
 7358              		.file 86 "../../libdaisy/src/hid/logger_impl.h"
 7359              		.file 87 "../../libdaisy/src/util/wav_format.h"
 7360              		.file 88 "../../libdaisy/src/per/qspi.h"
 7361              		.file 89 "../../libdaisy/src/per/gpio.h"
 7362              		.file 90 "../../libdaisy/src/dev/sdram.h"
 7363              		.file 91 "/usr/include/newlib/sys/unistd.h"
 7364              		.file 92 "../../libdaisy/src/util/oled_fonts.h"
 7365              		.file 93 "../../libdaisy/Middlewares/Third_Party/FatFs/src/integer.h"
 7366              		.file 94 "../../libdaisy/Middlewares/Third_Party/FatFs/src/ff.h"
 7367              		.file 95 "../../libdaisy/Middlewares/Third_Party/FatFs/src/diskio.h"
 7368              		.file 96 "../../libdaisy/Middlewares/Third_Party/FatFs/src/ff_gen_drv.h"
 7369              		.file 97 "../../libdaisy/src/util/sd_diskio.h"
ARM GAS  /tmp/cc3v7X8N.s 			page 219


 7370              		.file 98 "../../libdaisy/src/sys/fatfs.h"
 7371              		.file 99 "<built-in>"
 7372              		.file 100 "../../libdaisy/src/dev/sr_595.h"
ARM GAS  /tmp/cc3v7X8N.s 			page 220


DEFINED SYMBOLS
                            *ABS*:0000000000000000 Noise.cpp
     /tmp/cc3v7X8N.s:17     .text._ZN7daisysp10WhiteNoiseD2Ev:0000000000000000 $t
     /tmp/cc3v7X8N.s:26     .text._ZN7daisysp10WhiteNoiseD2Ev:0000000000000000 _ZN7daisysp10WhiteNoiseD2Ev
     /tmp/cc3v7X8N.s:26     .text._ZN7daisysp10WhiteNoiseD2Ev:0000000000000000 _ZN7daisysp10WhiteNoiseD1Ev
     /tmp/cc3v7X8N.s:43     .text._ZN5daisy10DaisyPatchD2Ev:0000000000000000 $t
     /tmp/cc3v7X8N.s:51     .text._ZN5daisy10DaisyPatchD2Ev:0000000000000000 _ZN5daisy10DaisyPatchD2Ev
     /tmp/cc3v7X8N.s:51     .text._ZN5daisy10DaisyPatchD2Ev:0000000000000000 _ZN5daisy10DaisyPatchD1Ev
     /tmp/cc3v7X8N.s:133    .text._ZN5daisy11OledDisplayINS_13SSD130xDriverILj128ELj64ENS_24SSD130x4WireSpiTransportEEEED2Ev:0000000000000000 $t
     /tmp/cc3v7X8N.s:141    .text._ZN5daisy11OledDisplayINS_13SSD130xDriverILj128ELj64ENS_24SSD130x4WireSpiTransportEEEED2Ev:0000000000000000 _ZN5daisy11OledDisplayINS_13SSD130xDriverILj128ELj64ENS_24SSD130x4WireSpiTransportEEEED2Ev
     /tmp/cc3v7X8N.s:141    .text._ZN5daisy11OledDisplayINS_13SSD130xDriverILj128ELj64ENS_24SSD130x4WireSpiTransportEEEED2Ev:0000000000000000 _ZN5daisy11OledDisplayINS_13SSD130xDriverILj128ELj64ENS_24SSD130x4WireSpiTransportEEEED1Ev
     /tmp/cc3v7X8N.s:166    .text._ZN6filterD2Ev:0000000000000000 $t
     /tmp/cc3v7X8N.s:174    .text._ZN6filterD2Ev:0000000000000000 _ZN6filterD2Ev
     /tmp/cc3v7X8N.s:174    .text._ZN6filterD2Ev:0000000000000000 _ZN6filterD1Ev
     /tmp/cc3v7X8N.s:217    .text._ZNK5daisy11OledDisplayINS_13SSD130xDriverILj128ELj64ENS_24SSD130x4WireSpiTransportEEEE6HeightEv:0000000000000000 $t
     /tmp/cc3v7X8N.s:225    .text._ZNK5daisy11OledDisplayINS_13SSD130xDriverILj128ELj64ENS_24SSD130x4WireSpiTransportEEEE6HeightEv:0000000000000000 _ZNK5daisy11OledDisplayINS_13SSD130xDriverILj128ELj64ENS_24SSD130x4WireSpiTransportEEEE6HeightEv
     /tmp/cc3v7X8N.s:242    .text._ZNK5daisy11OledDisplayINS_13SSD130xDriverILj128ELj64ENS_24SSD130x4WireSpiTransportEEEE5WidthEv:0000000000000000 $t
     /tmp/cc3v7X8N.s:250    .text._ZNK5daisy11OledDisplayINS_13SSD130xDriverILj128ELj64ENS_24SSD130x4WireSpiTransportEEEE5WidthEv:0000000000000000 _ZNK5daisy11OledDisplayINS_13SSD130xDriverILj128ELj64ENS_24SSD130x4WireSpiTransportEEEE5WidthEv
     /tmp/cc3v7X8N.s:267    .text._ZN5daisy11OledDisplayINS_13SSD130xDriverILj128ELj64ENS_24SSD130x4WireSpiTransportEEEE4FillEb:0000000000000000 $t
     /tmp/cc3v7X8N.s:275    .text._ZN5daisy11OledDisplayINS_13SSD130xDriverILj128ELj64ENS_24SSD130x4WireSpiTransportEEEE4FillEb:0000000000000000 _ZN5daisy11OledDisplayINS_13SSD130xDriverILj128ELj64ENS_24SSD130x4WireSpiTransportEEEE4FillEb
     /tmp/cc3v7X8N.s:312    .text._ZN5daisy11OledDisplayINS_13SSD130xDriverILj128ELj64ENS_24SSD130x4WireSpiTransportEEEED0Ev:0000000000000000 $t
     /tmp/cc3v7X8N.s:320    .text._ZN5daisy11OledDisplayINS_13SSD130xDriverILj128ELj64ENS_24SSD130x4WireSpiTransportEEEED0Ev:0000000000000000 _ZN5daisy11OledDisplayINS_13SSD130xDriverILj128ELj64ENS_24SSD130x4WireSpiTransportEEEED0Ev
     /tmp/cc3v7X8N.s:360    .text._ZL13AudioCallbackPKPKfPPfj:0000000000000000 $t
     /tmp/cc3v7X8N.s:367    .text._ZL13AudioCallbackPKPKfPPfj:0000000000000000 _ZL13AudioCallbackPKPKfPPfj
     /tmp/cc3v7X8N.s:514    .text._ZL13AudioCallbackPKPKfPPfj:0000000000000088 $d
     /tmp/cc3v7X8N.s:551    .text._ZL13AudioCallbackPKPKfPPfj:00000000000000a4 $d
     /tmp/cc3v7X8N.s:783    .text._ZL13AudioCallbackPKPKfPPfj:00000000000000fc $d
     /tmp/cc3v7X8N.s:7296   .bss.patch:0000000000000000 patch
     /tmp/cc3v7X8N.s:800    .text._ZN5daisy11OledDisplayINS_13SSD130xDriverILj128ELj64ENS_24SSD130x4WireSpiTransportEEEE6UpdateEv:0000000000000000 $t
     /tmp/cc3v7X8N.s:808    .text._ZN5daisy11OledDisplayINS_13SSD130xDriverILj128ELj64ENS_24SSD130x4WireSpiTransportEEEE6UpdateEv:0000000000000000 _ZN5daisy11OledDisplayINS_13SSD130xDriverILj128ELj64ENS_24SSD130x4WireSpiTransportEEEE6UpdateEv
     /tmp/cc3v7X8N.s:968    .text._ZN5daisy25OneBitGraphicsDisplayImplINS_11OledDisplayINS_13SSD130xDriverILj128ELj64ENS_24SSD130x4WireSpiTransportEEEEEE11WriteStringEPKc7FontDefb:0000000000000000 $t
     /tmp/cc3v7X8N.s:976    .text._ZN5daisy25OneBitGraphicsDisplayImplINS_11OledDisplayINS_13SSD130xDriverILj128ELj64ENS_24SSD130x4WireSpiTransportEEEEEE11WriteStringEPKc7FontDefb:0000000000000000 _ZN5daisy25OneBitGraphicsDisplayImplINS_11OledDisplayINS_13SSD130xDriverILj128ELj64ENS_24SSD130x4WireSpiTransportEEEEEE11WriteStringEPKc7FontDefb
     /tmp/cc3v7X8N.s:1435   .text._ZN5daisy25OneBitGraphicsDisplayImplINS_11OledDisplayINS_13SSD130xDriverILj128ELj64ENS_24SSD130x4WireSpiTransportEEEEEE11WriteStringEPKc7FontDefb:00000000000001d8 $d
     /tmp/cc3v7X8N.s:1445   .text._ZN5daisy25OneBitGraphicsDisplayImplINS_11OledDisplayINS_13SSD130xDriverILj128ELj64ENS_24SSD130x4WireSpiTransportEEEEEE9WriteCharEc7FontDefb:0000000000000000 $t
     /tmp/cc3v7X8N.s:1453   .text._ZN5daisy25OneBitGraphicsDisplayImplINS_11OledDisplayINS_13SSD130xDriverILj128ELj64ENS_24SSD130x4WireSpiTransportEEEEEE9WriteCharEc7FontDefb:0000000000000000 _ZN5daisy25OneBitGraphicsDisplayImplINS_11OledDisplayINS_13SSD130xDriverILj128ELj64ENS_24SSD130x4WireSpiTransportEEEEEE9WriteCharEc7FontDefb
     /tmp/cc3v7X8N.s:1887   .text._ZN5daisy25OneBitGraphicsDisplayImplINS_11OledDisplayINS_13SSD130xDriverILj128ELj64ENS_24SSD130x4WireSpiTransportEEEEEE9WriteCharEc7FontDefb:000000000000019c $d
     /tmp/cc3v7X8N.s:1895   .text._ZN5daisy25OneBitGraphicsDisplayImplINS_11OledDisplayINS_13SSD130xDriverILj128ELj64ENS_24SSD130x4WireSpiTransportEEEEEE18WriteStringAlignedEPKcRK7FontDefNS_9RectangleENS_9AlignmentEb:0000000000000000 $t
     /tmp/cc3v7X8N.s:1903   .text._ZN5daisy25OneBitGraphicsDisplayImplINS_11OledDisplayINS_13SSD130xDriverILj128ELj64ENS_24SSD130x4WireSpiTransportEEEEEE18WriteStringAlignedEPKcRK7FontDefNS_9RectangleENS_9AlignmentEb:0000000000000000 _ZN5daisy25OneBitGraphicsDisplayImplINS_11OledDisplayINS_13SSD130xDriverILj128ELj64ENS_24SSD130x4WireSpiTransportEEEEEE18WriteStringAlignedEPKcRK7FontDefNS_9RectangleENS_9AlignmentEb
     /tmp/cc3v7X8N.s:2043   .text._ZN5daisy25OneBitGraphicsDisplayImplINS_11OledDisplayINS_13SSD130xDriverILj128ELj64ENS_24SSD130x4WireSpiTransportEEEEEE18WriteStringAlignedEPKcRK7FontDefNS_9RectangleENS_9AlignmentEb:0000000000000048 $d
     /tmp/cc3v7X8N.s:2052   .text._ZN5daisy25OneBitGraphicsDisplayImplINS_11OledDisplayINS_13SSD130xDriverILj128ELj64ENS_24SSD130x4WireSpiTransportEEEEEE18WriteStringAlignedEPKcRK7FontDefNS_9RectangleENS_9AlignmentEb:000000000000005a $t
     /tmp/cc3v7X8N.s:3380   .text._ZN5daisy25OneBitGraphicsDisplayImplINS_11OledDisplayINS_13SSD130xDriverILj128ELj64ENS_24SSD130x4WireSpiTransportEEEEEE18WriteStringAlignedEPKcRK7FontDefNS_9RectangleENS_9AlignmentEb:0000000000000364 $d
     /tmp/cc3v7X8N.s:3384   .text._ZN5daisy25OneBitGraphicsDisplayImplINS_11OledDisplayINS_13SSD130xDriverILj128ELj64ENS_24SSD130x4WireSpiTransportEEEEEE18WriteStringAlignedEPKcRK7FontDefNS_9RectangleENS_9AlignmentEb:000000000000036c $t
     /tmp/cc3v7X8N.s:3553   .text._ZN5daisy25OneBitGraphicsDisplayImplINS_11OledDisplayINS_13SSD130xDriverILj128ELj64ENS_24SSD130x4WireSpiTransportEEEEEE18WriteStringAlignedEPKcRK7FontDefNS_9RectangleENS_9AlignmentEb:00000000000003ec $d
     /tmp/cc3v7X8N.s:3561   .text._ZN5daisy11OledDisplayINS_13SSD130xDriverILj128ELj64ENS_24SSD130x4WireSpiTransportEEEE9DrawPixelEjjb:0000000000000000 $t
     /tmp/cc3v7X8N.s:3569   .text._ZN5daisy11OledDisplayINS_13SSD130xDriverILj128ELj64ENS_24SSD130x4WireSpiTransportEEEE9DrawPixelEjjb:0000000000000000 _ZN5daisy11OledDisplayINS_13SSD130xDriverILj128ELj64ENS_24SSD130x4WireSpiTransportEEEE9DrawPixelEjjb
     /tmp/cc3v7X8N.s:3673   .text._ZN5daisy25OneBitGraphicsDisplayImplINS_11OledDisplayINS_13SSD130xDriverILj128ELj64ENS_24SSD130x4WireSpiTransportEEEEEE8DrawLineEjjjjb:0000000000000000 $t
     /tmp/cc3v7X8N.s:3681   .text._ZN5daisy25OneBitGraphicsDisplayImplINS_11OledDisplayINS_13SSD130xDriverILj128ELj64ENS_24SSD130x4WireSpiTransportEEEEEE8DrawLineEjjjjb:0000000000000000 _ZN5daisy25OneBitGraphicsDisplayImplINS_11OledDisplayINS_13SSD130xDriverILj128ELj64ENS_24SSD130x4WireSpiTransportEEEEEE8DrawLineEjjjjb
     /tmp/cc3v7X8N.s:3967   .text._ZN5daisy25OneBitGraphicsDisplayImplINS_11OledDisplayINS_13SSD130xDriverILj128ELj64ENS_24SSD130x4WireSpiTransportEEEEEE7DrawArcEjjjiib:0000000000000000 $t
     /tmp/cc3v7X8N.s:3975   .text._ZN5daisy25OneBitGraphicsDisplayImplINS_11OledDisplayINS_13SSD130xDriverILj128ELj64ENS_24SSD130x4WireSpiTransportEEEEEE7DrawArcEjjjiib:0000000000000000 _ZN5daisy25OneBitGraphicsDisplayImplINS_11OledDisplayINS_13SSD130xDriverILj128ELj64ENS_24SSD130x4WireSpiTransportEEEEEE7DrawArcEjjjiib
     /tmp/cc3v7X8N.s:4754   .text._ZN5daisy25OneBitGraphicsDisplayImplINS_11OledDisplayINS_13SSD130xDriverILj128ELj64ENS_24SSD130x4WireSpiTransportEEEEEE7DrawArcEjjjiib:0000000000000388 $d
     /tmp/cc3v7X8N.s:4761   .text._ZN5daisy25OneBitGraphicsDisplayImplINS_11OledDisplayINS_13SSD130xDriverILj128ELj64ENS_24SSD130x4WireSpiTransportEEEEEE7DrawArcEjjjiib:0000000000000398 $t
     /tmp/cc3v7X8N.s:4859   .text._ZN5daisy25OneBitGraphicsDisplayImplINS_11OledDisplayINS_13SSD130xDriverILj128ELj64ENS_24SSD130x4WireSpiTransportEEEEEE8DrawRectEjjjjbb:0000000000000000 $t
     /tmp/cc3v7X8N.s:4867   .text._ZN5daisy25OneBitGraphicsDisplayImplINS_11OledDisplayINS_13SSD130xDriverILj128ELj64ENS_24SSD130x4WireSpiTransportEEEEEE8DrawRectEjjjjbb:0000000000000000 _ZN5daisy25OneBitGraphicsDisplayImplINS_11OledDisplayINS_13SSD130xDriverILj128ELj64ENS_24SSD130x4WireSpiTransportEEEEEE8DrawRectEjjjjbb
     /tmp/cc3v7X8N.s:6005   .text._ZN6filter4InitEfNS_4modeEN5daisy13AnalogControlES2_:0000000000000000 $t
     /tmp/cc3v7X8N.s:6013   .text._ZN6filter4InitEfNS_4modeEN5daisy13AnalogControlES2_:0000000000000000 _ZN6filter4InitEfNS_4modeEN5daisy13AnalogControlES2_
     /tmp/cc3v7X8N.s:6100   .text._ZN6filter4InitEfNS_4modeEN5daisy13AnalogControlES2_:0000000000000060 $d
     /tmp/cc3v7X8N.s:6106   .text._ZN5daisy13SSD130xDriverILj128ELj64ENS_24SSD130x4WireSpiTransportEE6UpdateEv:0000000000000000 $t
ARM GAS  /tmp/cc3v7X8N.s 			page 221


     /tmp/cc3v7X8N.s:6114   .text._ZN5daisy13SSD130xDriverILj128ELj64ENS_24SSD130x4WireSpiTransportEE6UpdateEv:0000000000000000 _ZN5daisy13SSD130xDriverILj128ELj64ENS_24SSD130x4WireSpiTransportEE6UpdateEv
     /tmp/cc3v7X8N.s:6265   .rodata.main.str1.4:0000000000000000 $d
     /tmp/cc3v7X8N.s:6269   .text.startup.main:0000000000000000 $t
     /tmp/cc3v7X8N.s:6277   .text.startup.main:0000000000000000 main
     /tmp/cc3v7X8N.s:6661   .text.startup.main:00000000000000f4 $d
     /tmp/cc3v7X8N.s:6674   .text.startup._GLOBAL__sub_I_patch:0000000000000000 $t
     /tmp/cc3v7X8N.s:6681   .text.startup._GLOBAL__sub_I_patch:0000000000000000 _GLOBAL__sub_I_patch
     /tmp/cc3v7X8N.s:7167   .text.startup._GLOBAL__sub_I_patch:0000000000000080 $d
     /tmp/cc3v7X8N.s:7241   .rodata._ZTVN5daisy11OledDisplayINS_13SSD130xDriverILj128ELj64ENS_24SSD130x4WireSpiTransportEEEEE:0000000000000000 _ZTVN5daisy11OledDisplayINS_13SSD130xDriverILj128ELj64ENS_24SSD130x4WireSpiTransportEEEEE
     /tmp/cc3v7X8N.s:7184   .init_array:0000000000000000 $d
     /tmp/cc3v7X8N.s:7191   .rodata._ZTSN5daisy21OneBitGraphicsDisplayE:0000000000000000 _ZTSN5daisy21OneBitGraphicsDisplayE
     /tmp/cc3v7X8N.s:7188   .rodata._ZTSN5daisy21OneBitGraphicsDisplayE:0000000000000000 $d
     /tmp/cc3v7X8N.s:7198   .rodata._ZTIN5daisy21OneBitGraphicsDisplayE:0000000000000000 _ZTIN5daisy21OneBitGraphicsDisplayE
     /tmp/cc3v7X8N.s:7195   .rodata._ZTIN5daisy21OneBitGraphicsDisplayE:0000000000000000 $d
     /tmp/cc3v7X8N.s:7206   .rodata._ZTSN5daisy25OneBitGraphicsDisplayImplINS_11OledDisplayINS_13SSD130xDriverILj128ELj64ENS_24SSD130x4WireSpiTransportEEEEEEE:0000000000000000 _ZTSN5daisy25OneBitGraphicsDisplayImplINS_11OledDisplayINS_13SSD130xDriverILj128ELj64ENS_24SSD130x4WireSpiTransportEEEEEEE
     /tmp/cc3v7X8N.s:7203   .rodata._ZTSN5daisy25OneBitGraphicsDisplayImplINS_11OledDisplayINS_13SSD130xDriverILj128ELj64ENS_24SSD130x4WireSpiTransportEEEEEEE:0000000000000000 $d
     /tmp/cc3v7X8N.s:7215   .rodata._ZTIN5daisy25OneBitGraphicsDisplayImplINS_11OledDisplayINS_13SSD130xDriverILj128ELj64ENS_24SSD130x4WireSpiTransportEEEEEEE:0000000000000000 _ZTIN5daisy25OneBitGraphicsDisplayImplINS_11OledDisplayINS_13SSD130xDriverILj128ELj64ENS_24SSD130x4WireSpiTransportEEEEEEE
     /tmp/cc3v7X8N.s:7212   .rodata._ZTIN5daisy25OneBitGraphicsDisplayImplINS_11OledDisplayINS_13SSD130xDriverILj128ELj64ENS_24SSD130x4WireSpiTransportEEEEEEE:0000000000000000 $d
     /tmp/cc3v7X8N.s:7224   .rodata._ZTSN5daisy11OledDisplayINS_13SSD130xDriverILj128ELj64ENS_24SSD130x4WireSpiTransportEEEEE:0000000000000000 _ZTSN5daisy11OledDisplayINS_13SSD130xDriverILj128ELj64ENS_24SSD130x4WireSpiTransportEEEEE
     /tmp/cc3v7X8N.s:7221   .rodata._ZTSN5daisy11OledDisplayINS_13SSD130xDriverILj128ELj64ENS_24SSD130x4WireSpiTransportEEEEE:0000000000000000 $d
     /tmp/cc3v7X8N.s:7232   .rodata._ZTIN5daisy11OledDisplayINS_13SSD130xDriverILj128ELj64ENS_24SSD130x4WireSpiTransportEEEEE:0000000000000000 _ZTIN5daisy11OledDisplayINS_13SSD130xDriverILj128ELj64ENS_24SSD130x4WireSpiTransportEEEEE
     /tmp/cc3v7X8N.s:7229   .rodata._ZTIN5daisy11OledDisplayINS_13SSD130xDriverILj128ELj64ENS_24SSD130x4WireSpiTransportEEEEE:0000000000000000 $d
     /tmp/cc3v7X8N.s:7238   .rodata._ZTVN5daisy11OledDisplayINS_13SSD130xDriverILj128ELj64ENS_24SSD130x4WireSpiTransportEEEEE:0000000000000000 $d
     /tmp/cc3v7X8N.s:7276   .bss.highpass:0000000000000000 highpass
     /tmp/cc3v7X8N.s:7283   .bss.lowpass:0000000000000000 lowpass
     /tmp/cc3v7X8N.s:7290   .bss.noise:0000000000000000 noise
     /tmp/cc3v7X8N.s:7262   .rodata:0000000000000000 $d
     /tmp/cc3v7X8N.s:7272   .bss.highpass:0000000000000000 $d
     /tmp/cc3v7X8N.s:7279   .bss.lowpass:0000000000000000 $d
     /tmp/cc3v7X8N.s:7286   .bss.noise:0000000000000000 $d
     /tmp/cc3v7X8N.s:7293   .bss.patch:0000000000000000 $d
     /tmp/cc3v7X8N.s:519    .text._ZL13AudioCallbackPKPKfPPfj:000000000000008d $d
     /tmp/cc3v7X8N.s:519    .text._ZL13AudioCallbackPKPKfPPfj:000000000000008e $t
     /tmp/cc3v7X8N.s:556    .text._ZL13AudioCallbackPKPKfPPfj:00000000000000a9 $d
     /tmp/cc3v7X8N.s:556    .text._ZL13AudioCallbackPKPKfPPfj:00000000000000aa $t
                           .group:0000000000000000 _ZN7daisysp10WhiteNoiseD5Ev
                           .group:0000000000000000 _ZN5daisy10DaisyPatchD5Ev
                           .group:0000000000000000 _ZN5daisy11OledDisplayINS_13SSD130xDriverILj128ELj64ENS_24SSD130x4WireSpiTransportEEEED5Ev
                           .group:0000000000000000 _ZN6filterD5Ev

UNDEFINED SYMBOLS
_ZdlPvj
_ZN5daisy10DaisyPatch21ProcessAnalogControlsEv
_ZN5daisy9Parameter7ProcessEv
_ZN7daisysp3Svf7SetFreqEf
_ZN7daisysp3Svf6SetResEf
_ZN7daisysp3Svf7ProcessEf
dsy_gpio_write
_ZN5daisy9SpiHandle16BlockingTransmitEPhjm
cosf
sinf
_ZN7daisysp3Svf4InitEf
_ZN5daisy9Parameter4InitENS_13AnalogControlEffNS0_5CurveE
_ZN5daisy10DaisyPatch4InitEb
_ZN5daisy10DaisyPatch15AudioSampleRateEv
_ZN5daisy10DaisyPatch7DelayMsEj
_ZN5daisy10DaisyPatch8StartAdcEv
ARM GAS  /tmp/cc3v7X8N.s 			page 222


_ZN5daisy10DaisyPatch10StartAudioEPFvPKPKfPPfjE
_ZN5daisy10DaisyPatch15DisplayControlsEb
Font_7x10
__aeabi_atexit
__dso_handle
_ZTVN10__cxxabiv117__class_type_infoE
_ZTVN10__cxxabiv120__si_class_type_infoE
