ARM GAS  /tmp/cc97yIjF.s 			page 1


   1              		.cpu cortex-m7
   2              		.eabi_attribute 28, 1
   3              		.eabi_attribute 20, 1
   4              		.eabi_attribute 21, 1
   5              		.eabi_attribute 23, 3
   6              		.eabi_attribute 24, 1
   7              		.eabi_attribute 25, 1
   8              		.eabi_attribute 26, 1
   9              		.eabi_attribute 30, 2
  10              		.eabi_attribute 34, 1
  11              		.eabi_attribute 18, 4
  12              		.file	"smooth_random.cpp"
  13              		.text
  14              	.Ltext0:
  15              		.cfi_sections	.debug_frame
  16              		.section	.text._ZN5daisy9DaisySeedD2Ev,"axG",%progbits,_ZN5daisy9DaisySeedD5Ev,comdat
  17              		.align	1
  18              		.p2align 2,,3
  19              		.weak	_ZN5daisy9DaisySeedD2Ev
  20              		.arch armv7e-m
  21              		.syntax unified
  22              		.thumb
  23              		.thumb_func
  24              		.fpu fpv5-d16
  26              	_ZN5daisy9DaisySeedD2Ev:
  27              	.LVL0:
  28              	.LFB2037:
  29              		.file 1 "../../libdaisy/src/daisy_seed.h"
   1:../../libdaisy/src/daisy_seed.h **** #pragma once
   2:../../libdaisy/src/daisy_seed.h **** #ifndef DSY_SEED_H
   3:../../libdaisy/src/daisy_seed.h **** #define DSY_SEED_H
   4:../../libdaisy/src/daisy_seed.h **** 
   5:../../libdaisy/src/daisy_seed.h **** #include "daisy.h"
   6:../../libdaisy/src/daisy_seed.h **** 
   7:../../libdaisy/src/daisy_seed.h **** //Uncomment this out if you're still using the rev2 hardware
   8:../../libdaisy/src/daisy_seed.h **** //#define SEED_REV2
   9:../../libdaisy/src/daisy_seed.h **** 
  10:../../libdaisy/src/daisy_seed.h **** namespace daisy
  11:../../libdaisy/src/daisy_seed.h **** {
  12:../../libdaisy/src/daisy_seed.h **** /**
  13:../../libdaisy/src/daisy_seed.h ****    @brief This is the higher-level interface for the Daisy board. \n 
  14:../../libdaisy/src/daisy_seed.h ****     All basic peripheral configuration/initialization is setup here. \n
  15:../../libdaisy/src/daisy_seed.h **** 
  16:../../libdaisy/src/daisy_seed.h ****    @ingroup boards
  17:../../libdaisy/src/daisy_seed.h **** */
  18:../../libdaisy/src/daisy_seed.h **** class DaisySeed
  19:../../libdaisy/src/daisy_seed.h **** {
  20:../../libdaisy/src/daisy_seed.h ****   public:
  21:../../libdaisy/src/daisy_seed.h ****     DaisySeed() {}
  22:../../libdaisy/src/daisy_seed.h ****     ~DaisySeed() {}
  30              		.loc 1 22 5 view -0
  31              		.cfi_startproc
  32              		@ args = 0, pretend = 0, frame = 0
  33              		@ frame_needed = 0, uses_anonymous_args = 0
  34              		@ link register save eliminated.
  35              	.LBB106:
  36              	.LBI106:
ARM GAS  /tmp/cc97yIjF.s 			page 2


  37              		.file 2 "../../libdaisy/src/sys/system.h"
   1:../../libdaisy/src/sys/system.h **** #ifndef DSY_SYSTEM_H
   2:../../libdaisy/src/sys/system.h **** #define DSY_SYSTEM_H
   3:../../libdaisy/src/sys/system.h **** 
   4:../../libdaisy/src/sys/system.h **** #ifndef UNIT_TEST // for unit tests, a dummy implementation is provided below
   5:../../libdaisy/src/sys/system.h **** 
   6:../../libdaisy/src/sys/system.h **** #include <cstdint>
   7:../../libdaisy/src/sys/system.h **** #include "per/tim.h"
   8:../../libdaisy/src/sys/system.h **** 
   9:../../libdaisy/src/sys/system.h **** namespace daisy
  10:../../libdaisy/src/sys/system.h **** {
  11:../../libdaisy/src/sys/system.h **** /** A handle for interacting with the Core System. 
  12:../../libdaisy/src/sys/system.h ****  ** This includes the Clock tree, MPU, global DMA initialization,
  13:../../libdaisy/src/sys/system.h ****  ** cache handling, and any other necessary global initiailzation
  14:../../libdaisy/src/sys/system.h ****  **
  15:../../libdaisy/src/sys/system.h ****  ** @author shensley
  16:../../libdaisy/src/sys/system.h ****  ** @addtogroup system
  17:../../libdaisy/src/sys/system.h ****  */
  18:../../libdaisy/src/sys/system.h **** class System
  19:../../libdaisy/src/sys/system.h **** {
  20:../../libdaisy/src/sys/system.h ****   public:
  21:../../libdaisy/src/sys/system.h ****     /** Contains settings for initializing the System */
  22:../../libdaisy/src/sys/system.h ****     struct Config
  23:../../libdaisy/src/sys/system.h ****     {
  24:../../libdaisy/src/sys/system.h ****         /** Specifies the system clock frequency that feeds APB/AHB clocks, etc. */
  25:../../libdaisy/src/sys/system.h ****         enum class SysClkFreq
  26:../../libdaisy/src/sys/system.h ****         {
  27:../../libdaisy/src/sys/system.h ****             FREQ_400MHZ,
  28:../../libdaisy/src/sys/system.h ****             FREQ_480MHZ,
  29:../../libdaisy/src/sys/system.h ****         };
  30:../../libdaisy/src/sys/system.h **** 
  31:../../libdaisy/src/sys/system.h ****         /** Method to call on the struct to set to defaults
  32:../../libdaisy/src/sys/system.h ****          ** CPU Freq set to 400MHz
  33:../../libdaisy/src/sys/system.h ****          ** Cache Enabled 
  34:../../libdaisy/src/sys/system.h ****          ** */
  35:../../libdaisy/src/sys/system.h ****         void Defaults()
  36:../../libdaisy/src/sys/system.h ****         {
  37:../../libdaisy/src/sys/system.h ****             cpu_freq   = SysClkFreq::FREQ_400MHZ;
  38:../../libdaisy/src/sys/system.h ****             use_dcache = true;
  39:../../libdaisy/src/sys/system.h ****             use_icache = true;
  40:../../libdaisy/src/sys/system.h ****         }
  41:../../libdaisy/src/sys/system.h **** 
  42:../../libdaisy/src/sys/system.h ****         /** Method to call on the struct to set to boost mode:
  43:../../libdaisy/src/sys/system.h ****          ** CPU Freq set to 480MHz
  44:../../libdaisy/src/sys/system.h ****          ** Cache Enabled 
  45:../../libdaisy/src/sys/system.h ****          ** */
  46:../../libdaisy/src/sys/system.h ****         void Boost()
  47:../../libdaisy/src/sys/system.h ****         {
  48:../../libdaisy/src/sys/system.h ****             cpu_freq   = SysClkFreq::FREQ_480MHZ;
  49:../../libdaisy/src/sys/system.h ****             use_dcache = true;
  50:../../libdaisy/src/sys/system.h ****             use_icache = true;
  51:../../libdaisy/src/sys/system.h ****         }
  52:../../libdaisy/src/sys/system.h **** 
  53:../../libdaisy/src/sys/system.h ****         SysClkFreq cpu_freq;
  54:../../libdaisy/src/sys/system.h ****         bool       use_dcache;
  55:../../libdaisy/src/sys/system.h ****         bool       use_icache;
  56:../../libdaisy/src/sys/system.h ****     };
ARM GAS  /tmp/cc97yIjF.s 			page 3


  57:../../libdaisy/src/sys/system.h **** 
  58:../../libdaisy/src/sys/system.h ****     System() {}
  59:../../libdaisy/src/sys/system.h ****     ~System() {}
  38              		.loc 2 59 5 view .LVU1
  39              		.loc 2 59 5 is_stmt 0 view .LVU2
  40              	.LBE106:
  41              	.LBB107:
  42              	.LBI107:
  43              		.file 3 "../../libdaisy/src/hid/usb.h"
   1:../../libdaisy/src/hid/usb.h **** #pragma once
   2:../../libdaisy/src/hid/usb.h **** #ifndef DSY_HID_USB_H
   3:../../libdaisy/src/hid/usb.h **** #define DSY_HID_USB_H
   4:../../libdaisy/src/hid/usb.h **** #include <stdint.h>
   5:../../libdaisy/src/hid/usb.h **** #include <stdlib.h>
   6:../../libdaisy/src/hid/usb.h **** 
   7:../../libdaisy/src/hid/usb.h **** namespace daisy
   8:../../libdaisy/src/hid/usb.h **** /** @addtogroup externals
   9:../../libdaisy/src/hid/usb.h ****     @{
  10:../../libdaisy/src/hid/usb.h **** */
  11:../../libdaisy/src/hid/usb.h **** 
  12:../../libdaisy/src/hid/usb.h **** {
  13:../../libdaisy/src/hid/usb.h **** /** 
  14:../../libdaisy/src/hid/usb.h ****     @brief Interface for initializing and using the USB Peripherals on the daisy
  15:../../libdaisy/src/hid/usb.h ****     @author Stephen Hensley
  16:../../libdaisy/src/hid/usb.h ****     @date December 2019
  17:../../libdaisy/src/hid/usb.h **** */
  18:../../libdaisy/src/hid/usb.h **** class UsbHandle
  19:../../libdaisy/src/hid/usb.h **** {
  20:../../libdaisy/src/hid/usb.h ****   public:
  21:../../libdaisy/src/hid/usb.h ****     /** Return values for USBHandle Functions */
  22:../../libdaisy/src/hid/usb.h ****     enum class Result
  23:../../libdaisy/src/hid/usb.h ****     {
  24:../../libdaisy/src/hid/usb.h ****         OK,
  25:../../libdaisy/src/hid/usb.h ****         ERR,
  26:../../libdaisy/src/hid/usb.h ****     };
  27:../../libdaisy/src/hid/usb.h **** 
  28:../../libdaisy/src/hid/usb.h ****     /** Specified which of the two USB Peripherals to initialize. */
  29:../../libdaisy/src/hid/usb.h ****     enum UsbPeriph
  30:../../libdaisy/src/hid/usb.h ****     {
  31:../../libdaisy/src/hid/usb.h ****         FS_INTERNAL, /**< Internal pin */
  32:../../libdaisy/src/hid/usb.h ****         FS_EXTERNAL, /**< FS External D+ pin is Pin 38 (GPIO32). FS External D- pin is Pin 37 (GPIO
  33:../../libdaisy/src/hid/usb.h ****         FS_BOTH,     /**< Both */
  34:../../libdaisy/src/hid/usb.h ****     };
  35:../../libdaisy/src/hid/usb.h **** 
  36:../../libdaisy/src/hid/usb.h **** 
  37:../../libdaisy/src/hid/usb.h ****     /** Function called upon reception of a buffer */
  38:../../libdaisy/src/hid/usb.h ****     typedef void (*ReceiveCallback)(uint8_t* buff, uint32_t* len);
  39:../../libdaisy/src/hid/usb.h **** 
  40:../../libdaisy/src/hid/usb.h ****     UsbHandle() {}
  41:../../libdaisy/src/hid/usb.h **** 
  42:../../libdaisy/src/hid/usb.h ****     ~UsbHandle() {}
  44              		.loc 3 42 5 is_stmt 1 view .LVU3
  45              		.loc 3 42 5 is_stmt 0 view .LVU4
  46              	.LBE107:
  47              	.LBB108:
  48              	.LBI108:
  49              		.file 4 "../../libdaisy/src/per/adc.h"
ARM GAS  /tmp/cc97yIjF.s 			page 4


   1:../../libdaisy/src/per/adc.h **** #pragma once
   2:../../libdaisy/src/per/adc.h **** #ifndef DSY_ADC_H
   3:../../libdaisy/src/per/adc.h **** #define DSY_ADC_H /**< Macro */
   4:../../libdaisy/src/per/adc.h **** #include <stdint.h>
   5:../../libdaisy/src/per/adc.h **** #include <stdlib.h>
   6:../../libdaisy/src/per/adc.h **** #include "daisy_core.h"
   7:../../libdaisy/src/per/adc.h **** #include "per/gpio.h"
   8:../../libdaisy/src/per/adc.h **** 
   9:../../libdaisy/src/per/adc.h **** #define DSY_ADC_MAX_CHANNELS 14 /**< Maximum number of ADC channels */
  10:../../libdaisy/src/per/adc.h **** 
  11:../../libdaisy/src/per/adc.h **** namespace daisy
  12:../../libdaisy/src/per/adc.h **** {
  13:../../libdaisy/src/per/adc.h **** /** @addtogroup analog_digital_conversion
  14:../../libdaisy/src/per/adc.h ****     @{
  15:../../libdaisy/src/per/adc.h **** */
  16:../../libdaisy/src/per/adc.h **** 
  17:../../libdaisy/src/per/adc.h **** /* While there may not be many configuration options here,
  18:../../libdaisy/src/per/adc.h **** using a struct like this allows us to add more configuration
  19:../../libdaisy/src/per/adc.h **** later without breaking existing functionality.
  20:../../libdaisy/src/per/adc.h **** */
  21:../../libdaisy/src/per/adc.h **** 
  22:../../libdaisy/src/per/adc.h **** /** Configuration Structure for a given channel */
  23:../../libdaisy/src/per/adc.h **** struct AdcChannelConfig
  24:../../libdaisy/src/per/adc.h **** {
  25:../../libdaisy/src/per/adc.h ****     /** Which pin to use for multiplexing */
  26:../../libdaisy/src/per/adc.h ****     enum MuxPin
  27:../../libdaisy/src/per/adc.h ****     {
  28:../../libdaisy/src/per/adc.h ****         MUX_SEL_0,    /**< & */
  29:../../libdaisy/src/per/adc.h ****         MUX_SEL_1,    /**< & */
  30:../../libdaisy/src/per/adc.h ****         MUX_SEL_2,    /**< & */
  31:../../libdaisy/src/per/adc.h ****         MUX_SEL_LAST, /**< & */
  32:../../libdaisy/src/per/adc.h ****     };
  33:../../libdaisy/src/per/adc.h **** 
  34:../../libdaisy/src/per/adc.h ****     /** Initializes a single ADC pin as an ADC. 
  35:../../libdaisy/src/per/adc.h ****     \param pin Pin to init.
  36:../../libdaisy/src/per/adc.h ****      */
  37:../../libdaisy/src/per/adc.h ****     void InitSingle(dsy_gpio_pin pin);
  38:../../libdaisy/src/per/adc.h **** 
  39:../../libdaisy/src/per/adc.h ****     /** 
  40:../../libdaisy/src/per/adc.h ****     Initializes a single ADC pin as a Multiplexed ADC.
  41:../../libdaisy/src/per/adc.h ****     Requires a CD405X Multiplexer connected to the pin.
  42:../../libdaisy/src/per/adc.h ****     You only need to supply the mux pins that are required,
  43:../../libdaisy/src/per/adc.h ****     e.g. a 4052 mux would only require mux_0 and mux_1.
  44:../../libdaisy/src/per/adc.h ****     Internal Callbacks handle the pin addressing.
  45:../../libdaisy/src/per/adc.h ****     \param mux_channels must be 1-8
  46:../../libdaisy/src/per/adc.h ****     \param mux_0 First mux pin
  47:../../libdaisy/src/per/adc.h ****     \param mux_1 Second mux pin
  48:../../libdaisy/src/per/adc.h ****     \param mux_2 Third mux pin
  49:../../libdaisy/src/per/adc.h ****     \param adc_pin &
  50:../../libdaisy/src/per/adc.h ****     */
  51:../../libdaisy/src/per/adc.h ****     void InitMux(dsy_gpio_pin adc_pin,
  52:../../libdaisy/src/per/adc.h ****                  size_t       mux_channels,
  53:../../libdaisy/src/per/adc.h ****                  dsy_gpio_pin mux_0,
  54:../../libdaisy/src/per/adc.h ****                  dsy_gpio_pin mux_1 = {DSY_GPIOX, 0},
  55:../../libdaisy/src/per/adc.h ****                  dsy_gpio_pin mux_2 = {DSY_GPIOX, 0});
  56:../../libdaisy/src/per/adc.h **** 
  57:../../libdaisy/src/per/adc.h ****     dsy_gpio pin_;                   /**< & */
ARM GAS  /tmp/cc97yIjF.s 			page 5


  58:../../libdaisy/src/per/adc.h ****     dsy_gpio mux_pin_[MUX_SEL_LAST]; /**< & */
  59:../../libdaisy/src/per/adc.h ****     uint8_t  mux_channels_;          /**< & */
  60:../../libdaisy/src/per/adc.h **** };
  61:../../libdaisy/src/per/adc.h **** 
  62:../../libdaisy/src/per/adc.h **** /**
  63:../../libdaisy/src/per/adc.h ****    Handler for analog to digital conversion
  64:../../libdaisy/src/per/adc.h **** */
  65:../../libdaisy/src/per/adc.h **** class AdcHandle
  66:../../libdaisy/src/per/adc.h **** {
  67:../../libdaisy/src/per/adc.h ****   public:
  68:../../libdaisy/src/per/adc.h ****     /** Supported oversampling amounts */
  69:../../libdaisy/src/per/adc.h ****     enum OverSampling
  70:../../libdaisy/src/per/adc.h ****     {
  71:../../libdaisy/src/per/adc.h ****         OVS_NONE, /**< & */
  72:../../libdaisy/src/per/adc.h ****         OVS_4,    /**< & */
  73:../../libdaisy/src/per/adc.h ****         OVS_8,    /**< & */
  74:../../libdaisy/src/per/adc.h ****         OVS_16,   /**< & */
  75:../../libdaisy/src/per/adc.h ****         OVS_32,   /**< & */
  76:../../libdaisy/src/per/adc.h ****         OVS_64,   /**< & */
  77:../../libdaisy/src/per/adc.h ****         OVS_128,  /**< & */
  78:../../libdaisy/src/per/adc.h ****         OVS_256,  /**< & */
  79:../../libdaisy/src/per/adc.h ****         OVS_512,  /**< & */
  80:../../libdaisy/src/per/adc.h ****         OVS_1024, /**< & */
  81:../../libdaisy/src/per/adc.h ****         OVS_LAST, /**< & */
  82:../../libdaisy/src/per/adc.h ****     };
  83:../../libdaisy/src/per/adc.h **** 
  84:../../libdaisy/src/per/adc.h ****     AdcHandle() {}
  85:../../libdaisy/src/per/adc.h ****     ~AdcHandle() {}
  50              		.loc 4 85 5 is_stmt 1 view .LVU5
  51              		.loc 4 85 5 is_stmt 0 view .LVU6
  52              	.LBE108:
  53              	.LBB109:
  54              	.LBI109:
  55              		.file 5 "../../libdaisy/src/hid/audio.h"
   1:../../libdaisy/src/hid/audio.h **** #ifndef DSY_AUDIO_H
   2:../../libdaisy/src/hid/audio.h **** #define DSY_AUDIO_H /**< & */
   3:../../libdaisy/src/hid/audio.h **** 
   4:../../libdaisy/src/hid/audio.h **** #include "per/sai.h"
   5:../../libdaisy/src/hid/audio.h **** 
   6:../../libdaisy/src/hid/audio.h **** namespace daisy
   7:../../libdaisy/src/hid/audio.h **** {
   8:../../libdaisy/src/hid/audio.h **** class AudioHandle
   9:../../libdaisy/src/hid/audio.h **** {
  10:../../libdaisy/src/hid/audio.h ****   public:
  11:../../libdaisy/src/hid/audio.h ****     /** Manually configurable details about the Audio Engine */
  12:../../libdaisy/src/hid/audio.h ****     /** TODO: Figure out how to get samplerate in here. */
  13:../../libdaisy/src/hid/audio.h ****     struct Config
  14:../../libdaisy/src/hid/audio.h ****     {
  15:../../libdaisy/src/hid/audio.h ****         size_t                        blocksize;
  16:../../libdaisy/src/hid/audio.h ****         SaiHandle::Config::SampleRate samplerate;
  17:../../libdaisy/src/hid/audio.h ****         float                         postgain;
  18:../../libdaisy/src/hid/audio.h ****     };
  19:../../libdaisy/src/hid/audio.h **** 
  20:../../libdaisy/src/hid/audio.h ****     enum class Result
  21:../../libdaisy/src/hid/audio.h ****     {
  22:../../libdaisy/src/hid/audio.h ****         OK,
  23:../../libdaisy/src/hid/audio.h ****         ERR,
ARM GAS  /tmp/cc97yIjF.s 			page 6


  24:../../libdaisy/src/hid/audio.h ****     };
  25:../../libdaisy/src/hid/audio.h **** 
  26:../../libdaisy/src/hid/audio.h ****     /** Non-Interleaving input buffer
  27:../../libdaisy/src/hid/audio.h ****      * Buffer arranged by float[chn][sample] 
  28:../../libdaisy/src/hid/audio.h ****      * const so that the user can't modify the input
  29:../../libdaisy/src/hid/audio.h ****     */
  30:../../libdaisy/src/hid/audio.h ****     typedef const float* const* InputBuffer;
  31:../../libdaisy/src/hid/audio.h **** 
  32:../../libdaisy/src/hid/audio.h ****     /** Non-Interleaving output buffer
  33:../../libdaisy/src/hid/audio.h ****      * Arranged by float[chn][sample] 
  34:../../libdaisy/src/hid/audio.h ****     */
  35:../../libdaisy/src/hid/audio.h ****     typedef float** OutputBuffer;
  36:../../libdaisy/src/hid/audio.h **** 
  37:../../libdaisy/src/hid/audio.h ****     /** Type for a Non-Interleaving audio callback 
  38:../../libdaisy/src/hid/audio.h ****    * Non-Interleaving audio callbacks in daisy will be of this type
  39:../../libdaisy/src/hid/audio.h ****   */
  40:../../libdaisy/src/hid/audio.h ****     typedef void (*AudioCallback)(InputBuffer  in,
  41:../../libdaisy/src/hid/audio.h ****                                   OutputBuffer out,
  42:../../libdaisy/src/hid/audio.h ****                                   size_t       size);
  43:../../libdaisy/src/hid/audio.h **** 
  44:../../libdaisy/src/hid/audio.h ****     /** Interleaving Input buffer
  45:../../libdaisy/src/hid/audio.h ****      ** audio is prepared as { L0, R0, L1, R1, . . . LN, RN }]
  46:../../libdaisy/src/hid/audio.h ****      ** this is const, as the user shouldn't modify it
  47:../../libdaisy/src/hid/audio.h ****     */
  48:../../libdaisy/src/hid/audio.h ****     typedef const float* InterleavingInputBuffer;
  49:../../libdaisy/src/hid/audio.h **** 
  50:../../libdaisy/src/hid/audio.h ****     /** Interleaving Output buffer 
  51:../../libdaisy/src/hid/audio.h ****      ** audio is prepared as { L0, R0, L1, R1, . . . LN, RN }
  52:../../libdaisy/src/hid/audio.h ****     */
  53:../../libdaisy/src/hid/audio.h ****     typedef float* InterleavingOutputBuffer;
  54:../../libdaisy/src/hid/audio.h **** 
  55:../../libdaisy/src/hid/audio.h ****     /** Interleaving Audio Callback 
  56:../../libdaisy/src/hid/audio.h ****    * Interleaving audio callbacks in daisy must be of this type
  57:../../libdaisy/src/hid/audio.h ****   */
  58:../../libdaisy/src/hid/audio.h ****     typedef void (*InterleavingAudioCallback)(InterleavingInputBuffer  in,
  59:../../libdaisy/src/hid/audio.h ****                                               InterleavingOutputBuffer out,
  60:../../libdaisy/src/hid/audio.h ****                                               size_t                   size);
  61:../../libdaisy/src/hid/audio.h **** 
  62:../../libdaisy/src/hid/audio.h ****     AudioHandle() : pimpl_(nullptr) {}
  63:../../libdaisy/src/hid/audio.h ****     ~AudioHandle() {}
  56              		.loc 5 63 5 is_stmt 1 view .LVU7
  57              		.loc 5 63 5 is_stmt 0 view .LVU8
  58              	.LBE109:
  59              		.loc 1 22 19 view .LVU9
  60 0000 7047     		bx	lr
  61              		.cfi_endproc
  62              	.LFE2037:
  64              		.weak	_ZN5daisy9DaisySeedD1Ev
  65              		.thumb_set _ZN5daisy9DaisySeedD1Ev,_ZN5daisy9DaisySeedD2Ev
  66 0002 00BF     		.section	.text._ZN7daisysp10OscillatorD2Ev,"axG",%progbits,_ZN7daisysp10OscillatorD5Ev,comdat
  67              		.align	1
  68              		.p2align 2,,3
  69              		.weak	_ZN7daisysp10OscillatorD2Ev
  70              		.syntax unified
  71              		.thumb
  72              		.thumb_func
  73              		.fpu fpv5-d16
ARM GAS  /tmp/cc97yIjF.s 			page 7


  75              	_ZN7daisysp10OscillatorD2Ev:
  76              	.LVL1:
  77              	.LFB3674:
  78              		.file 6 "../../DaisySP/Source/Synthesis/oscillator.h"
   1:../../DaisySP/Source/Synthesis/oscillator.h **** #pragma once
   2:../../DaisySP/Source/Synthesis/oscillator.h **** #ifndef DSY_OSCILLATOR_H
   3:../../DaisySP/Source/Synthesis/oscillator.h **** #define DSY_OSCILLATOR_H
   4:../../DaisySP/Source/Synthesis/oscillator.h **** #include <stdint.h>
   5:../../DaisySP/Source/Synthesis/oscillator.h **** #include "Utility/dsp.h"
   6:../../DaisySP/Source/Synthesis/oscillator.h **** #ifdef __cplusplus
   7:../../DaisySP/Source/Synthesis/oscillator.h **** 
   8:../../DaisySP/Source/Synthesis/oscillator.h **** namespace daisysp
   9:../../DaisySP/Source/Synthesis/oscillator.h **** {
  10:../../DaisySP/Source/Synthesis/oscillator.h **** /** Synthesis of several waveforms, including polyBLEP bandlimited waveforms.
  11:../../DaisySP/Source/Synthesis/oscillator.h **** */
  12:../../DaisySP/Source/Synthesis/oscillator.h **** class Oscillator
  13:../../DaisySP/Source/Synthesis/oscillator.h **** {
  14:../../DaisySP/Source/Synthesis/oscillator.h ****   public:
  15:../../DaisySP/Source/Synthesis/oscillator.h ****     Oscillator() {}
  16:../../DaisySP/Source/Synthesis/oscillator.h ****     ~Oscillator() {}
  79              		.loc 6 16 5 is_stmt 1 view -0
  80              		.cfi_startproc
  81              		@ args = 0, pretend = 0, frame = 0
  82              		@ frame_needed = 0, uses_anonymous_args = 0
  83              		@ link register save eliminated.
  84              		.loc 6 16 20 is_stmt 0 view .LVU11
  85 0000 7047     		bx	lr
  86              		.cfi_endproc
  87              	.LFE3674:
  89              		.weak	_ZN7daisysp10OscillatorD1Ev
  90              		.thumb_set _ZN7daisysp10OscillatorD1Ev,_ZN7daisysp10OscillatorD2Ev
  91 0002 00BF     		.section	.text._ZN7daisysp21SmoothRandomGeneratorD2Ev,"axG",%progbits,_ZN7daisysp21SmoothRandomGen
  92              		.align	1
  93              		.p2align 2,,3
  94              		.weak	_ZN7daisysp21SmoothRandomGeneratorD2Ev
  95              		.syntax unified
  96              		.thumb
  97              		.thumb_func
  98              		.fpu fpv5-d16
 100              	_ZN7daisysp21SmoothRandomGeneratorD2Ev:
 101              	.LVL2:
 102              	.LFB4207:
 103              		.file 7 "../../DaisySP/Source/Utility/smooth_random.h"
   1:../../DaisySP/Source/Utility/smooth_random.h **** #pragma once
   2:../../DaisySP/Source/Utility/smooth_random.h **** #ifndef DSY_SMOOTHRANDOM_H
   3:../../DaisySP/Source/Utility/smooth_random.h **** #define DSY_SMOOTHRANDOM_H
   4:../../DaisySP/Source/Utility/smooth_random.h **** 
   5:../../DaisySP/Source/Utility/smooth_random.h **** #include "dsp.h"
   6:../../DaisySP/Source/Utility/smooth_random.h **** #include <stdint.h>
   7:../../DaisySP/Source/Utility/smooth_random.h **** #include <stdlib.h>
   8:../../DaisySP/Source/Utility/smooth_random.h **** #ifdef __cplusplus
   9:../../DaisySP/Source/Utility/smooth_random.h **** 
  10:../../DaisySP/Source/Utility/smooth_random.h **** /** @file smooth_random.h */
  11:../../DaisySP/Source/Utility/smooth_random.h **** 
  12:../../DaisySP/Source/Utility/smooth_random.h **** namespace daisysp
  13:../../DaisySP/Source/Utility/smooth_random.h **** {
  14:../../DaisySP/Source/Utility/smooth_random.h **** /**  
ARM GAS  /tmp/cc97yIjF.s 			page 8


  15:../../DaisySP/Source/Utility/smooth_random.h ****        @brief Smooth random generator for internal modulation. \n
  16:../../DaisySP/Source/Utility/smooth_random.h ****        @author Ported by Ben Sergentanis 
  17:../../DaisySP/Source/Utility/smooth_random.h ****        @date Jan 2021 
  18:../../DaisySP/Source/Utility/smooth_random.h ****        Ported from pichenettes/eurorack/plaits/dsp/noise/smooth_random_generator.h \n
  19:../../DaisySP/Source/Utility/smooth_random.h ****        to an independent module. \n
  20:../../DaisySP/Source/Utility/smooth_random.h ****        Original code written by Emilie Gillet in 2016. \n
  21:../../DaisySP/Source/Utility/smooth_random.h **** */
  22:../../DaisySP/Source/Utility/smooth_random.h **** class SmoothRandomGenerator
  23:../../DaisySP/Source/Utility/smooth_random.h **** {
  24:../../DaisySP/Source/Utility/smooth_random.h ****   public:
  25:../../DaisySP/Source/Utility/smooth_random.h ****     SmoothRandomGenerator() {}
  26:../../DaisySP/Source/Utility/smooth_random.h ****     ~SmoothRandomGenerator() {}
 104              		.loc 7 26 5 is_stmt 1 view -0
 105              		.cfi_startproc
 106              		@ args = 0, pretend = 0, frame = 0
 107              		@ frame_needed = 0, uses_anonymous_args = 0
 108              		@ link register save eliminated.
 109              		.loc 7 26 31 is_stmt 0 view .LVU13
 110 0000 7047     		bx	lr
 111              		.cfi_endproc
 112              	.LFE4207:
 114              		.weak	_ZN7daisysp21SmoothRandomGeneratorD1Ev
 115              		.thumb_set _ZN7daisysp21SmoothRandomGeneratorD1Ev,_ZN7daisysp21SmoothRandomGeneratorD2Ev
 116 0002 00BF     		.section	.text._Z13AudioCallbackPKPKfPPfj,"ax",%progbits
 117              		.align	1
 118              		.p2align 2,,3
 119              		.global	_Z13AudioCallbackPKPKfPPfj
 120              		.syntax unified
 121              		.thumb
 122              		.thumb_func
 123              		.fpu fpv5-d16
 125              	_Z13AudioCallbackPKPKfPPfj:
 126              	.LVL3:
 127              	.LFB4212:
 128              		.file 8 "smooth_random.cpp"
   1:smooth_random.cpp **** #include "daisy_seed.h"
   2:smooth_random.cpp **** #include "daisysp.h"
   3:smooth_random.cpp **** 
   4:smooth_random.cpp **** using namespace daisy;
   5:smooth_random.cpp **** using namespace daisysp;
   6:smooth_random.cpp **** 
   7:smooth_random.cpp **** DaisySeed hw;
   8:smooth_random.cpp **** 
   9:smooth_random.cpp **** SmoothRandomGenerator smooth;
  10:smooth_random.cpp **** Oscillator            osc;
  11:smooth_random.cpp **** 
  12:smooth_random.cpp **** void AudioCallback(AudioHandle::InputBuffer  in,
  13:smooth_random.cpp ****                    AudioHandle::OutputBuffer out,
  14:smooth_random.cpp ****                    size_t                    size)
  15:smooth_random.cpp **** {
 129              		.loc 8 15 1 is_stmt 1 view -0
 130              		.cfi_startproc
 131              		@ args = 0, pretend = 0, frame = 0
 132              		@ frame_needed = 0, uses_anonymous_args = 0
  16:smooth_random.cpp ****     for(size_t i = 0; i < size; i++)
 133              		.loc 8 16 5 view .LVU15
 134              	.LBB115:
ARM GAS  /tmp/cc97yIjF.s 			page 9


 135              		.loc 8 16 25 view .LVU16
 136 0000 002A     		cmp	r2, #0
 137 0002 6AD0     		beq	.L12
 138              	.LBE115:
  15:smooth_random.cpp ****     for(size_t i = 0; i < size; i++)
 139              		.loc 8 15 1 is_stmt 0 view .LVU17
 140 0004 2DE9F047 		push	{r4, r5, r6, r7, r8, r9, r10, lr}
 141              		.cfi_def_cfa_offset 32
 142              		.cfi_offset 4, -32
 143              		.cfi_offset 5, -28
 144              		.cfi_offset 6, -24
 145              		.cfi_offset 7, -20
 146              		.cfi_offset 8, -16
 147              		.cfi_offset 9, -12
 148              		.cfi_offset 10, -8
 149              		.cfi_offset 14, -4
 150 0008 0F46     		mov	r7, r1
 151 000a 9146     		mov	r9, r2
 152              	.LBB132:
 153              		.loc 8 16 16 view .LVU18
 154 000c 0025     		movs	r5, #0
 155 000e 334C     		ldr	r4, .L17
 156 0010 DFF8D480 		ldr	r8, .L17+12
 157 0014 2FE0     		b	.L6
 158              	.LVL4:
 159              	.L16:
 160              		.loc 8 16 16 view .LVU19
 161 0016 94ED027A 		vldr.32	s14, [r4, #8]
 162 001a D4ED036A 		vldr.32	s13, [r4, #12]
 163              	.L8:
 164              	.LBB116:
 165              	.LBB117:
  27:../../DaisySP/Source/Utility/smooth_random.h **** 
  28:../../DaisySP/Source/Utility/smooth_random.h ****     /** Initialize the module
  29:../../DaisySP/Source/Utility/smooth_random.h ****         \param sample_rate Audio engine sample rate.
  30:../../DaisySP/Source/Utility/smooth_random.h ****     */
  31:../../DaisySP/Source/Utility/smooth_random.h ****     void Init(float sample_rate)
  32:../../DaisySP/Source/Utility/smooth_random.h ****     {
  33:../../DaisySP/Source/Utility/smooth_random.h ****         sample_rate_ = sample_rate;
  34:../../DaisySP/Source/Utility/smooth_random.h **** 
  35:../../DaisySP/Source/Utility/smooth_random.h ****         SetFreq(1.f);
  36:../../DaisySP/Source/Utility/smooth_random.h ****         phase_    = 0.0f;
  37:../../DaisySP/Source/Utility/smooth_random.h ****         from_     = 0.0f;
  38:../../DaisySP/Source/Utility/smooth_random.h ****         interval_ = 0.0f;
  39:../../DaisySP/Source/Utility/smooth_random.h ****     }
  40:../../DaisySP/Source/Utility/smooth_random.h **** 
  41:../../DaisySP/Source/Utility/smooth_random.h ****     /** Get the next float. Ranges from -1 to 1. */
  42:../../DaisySP/Source/Utility/smooth_random.h ****     float Process()
  43:../../DaisySP/Source/Utility/smooth_random.h ****     {
  44:../../DaisySP/Source/Utility/smooth_random.h ****         phase_ += frequency_;
  45:../../DaisySP/Source/Utility/smooth_random.h ****         if(phase_ >= 1.0f)
  46:../../DaisySP/Source/Utility/smooth_random.h ****         {
  47:../../DaisySP/Source/Utility/smooth_random.h ****             phase_ -= 1.0f;
  48:../../DaisySP/Source/Utility/smooth_random.h ****             from_ += interval_;
  49:../../DaisySP/Source/Utility/smooth_random.h ****             interval_ = rand() * kRandFrac * 2.0f - 1.0f - from_;
  50:../../DaisySP/Source/Utility/smooth_random.h ****         }
  51:../../DaisySP/Source/Utility/smooth_random.h ****         float t = phase_ * phase_ * (3.0f - 2.0f * phase_);
ARM GAS  /tmp/cc97yIjF.s 			page 10


 166              		.loc 7 51 9 is_stmt 1 view .LVU20
 167              		.loc 7 51 43 is_stmt 0 view .LVU21
 168 001e F0EE004A 		vmov.f32	s9, #2.0e+0
 169              	.LBE117:
 170              	.LBE116:
  17:smooth_random.cpp ****     {
  18:smooth_random.cpp ****         osc.SetFreq((fabsf(smooth.Process()) * 330.f) + 110.f);
 171              		.loc 8 18 20 view .LVU22
 172 0022 9FED2F5A 		vldr.32	s10, .L17+4
 173              	.LBB122:
 174              	.LBB118:
 175              		.loc 7 51 43 view .LVU23
 176 0026 F0EE085A 		vmov.f32	s11, #3.0e+0
 177              	.LBE118:
 178              	.LBE122:
 179              		.loc 8 18 20 view .LVU24
 180 002a 9FED2E0A 		vldr.32	s0, .L17+8
 181              	.LBB123:
 182              	.LBB119:
 183              		.loc 7 51 26 view .LVU25
 184 002e 27EEA76A 		vmul.f32	s12, s15, s15
 185              	.LBE119:
 186              	.LBE123:
 187              	.LBB124:
 188              	.LBB125:
  17:../../DaisySP/Source/Synthesis/oscillator.h ****     /** Choices for output waveforms, POLYBLEP are appropriately labeled. Others are naive forms.
  18:../../DaisySP/Source/Synthesis/oscillator.h ****     */
  19:../../DaisySP/Source/Synthesis/oscillator.h ****     enum
  20:../../DaisySP/Source/Synthesis/oscillator.h ****     {
  21:../../DaisySP/Source/Synthesis/oscillator.h ****         WAVE_SIN,
  22:../../DaisySP/Source/Synthesis/oscillator.h ****         WAVE_TRI,
  23:../../DaisySP/Source/Synthesis/oscillator.h ****         WAVE_SAW,
  24:../../DaisySP/Source/Synthesis/oscillator.h ****         WAVE_RAMP,
  25:../../DaisySP/Source/Synthesis/oscillator.h ****         WAVE_SQUARE,
  26:../../DaisySP/Source/Synthesis/oscillator.h ****         WAVE_POLYBLEP_TRI,
  27:../../DaisySP/Source/Synthesis/oscillator.h ****         WAVE_POLYBLEP_SAW,
  28:../../DaisySP/Source/Synthesis/oscillator.h ****         WAVE_POLYBLEP_SQUARE,
  29:../../DaisySP/Source/Synthesis/oscillator.h ****         WAVE_LAST,
  30:../../DaisySP/Source/Synthesis/oscillator.h ****     };
  31:../../DaisySP/Source/Synthesis/oscillator.h **** 
  32:../../DaisySP/Source/Synthesis/oscillator.h **** 
  33:../../DaisySP/Source/Synthesis/oscillator.h ****     /** Initializes the Oscillator
  34:../../DaisySP/Source/Synthesis/oscillator.h **** 
  35:../../DaisySP/Source/Synthesis/oscillator.h ****         \param sample_rate - sample rate of the audio engine being run, and the frequency that the 
  36:../../DaisySP/Source/Synthesis/oscillator.h **** 
  37:../../DaisySP/Source/Synthesis/oscillator.h ****         Defaults:
  38:../../DaisySP/Source/Synthesis/oscillator.h ****         - freq_ = 100 Hz
  39:../../DaisySP/Source/Synthesis/oscillator.h ****         - amp_ = 0.5
  40:../../DaisySP/Source/Synthesis/oscillator.h ****         - waveform_ = sine wave.
  41:../../DaisySP/Source/Synthesis/oscillator.h ****     */
  42:../../DaisySP/Source/Synthesis/oscillator.h ****     void Init(float sample_rate)
  43:../../DaisySP/Source/Synthesis/oscillator.h ****     {
  44:../../DaisySP/Source/Synthesis/oscillator.h ****         sr_        = sample_rate;
  45:../../DaisySP/Source/Synthesis/oscillator.h ****         sr_recip_  = 1.0f / sample_rate;
  46:../../DaisySP/Source/Synthesis/oscillator.h ****         freq_      = 100.0f;
  47:../../DaisySP/Source/Synthesis/oscillator.h ****         amp_       = 0.5f;
  48:../../DaisySP/Source/Synthesis/oscillator.h ****         phase_     = 0.0f;
ARM GAS  /tmp/cc97yIjF.s 			page 11


  49:../../DaisySP/Source/Synthesis/oscillator.h ****         phase_inc_ = CalcPhaseInc(freq_);
  50:../../DaisySP/Source/Synthesis/oscillator.h ****         waveform_  = WAVE_SIN;
  51:../../DaisySP/Source/Synthesis/oscillator.h ****         eoc_       = true;
  52:../../DaisySP/Source/Synthesis/oscillator.h ****         eor_       = true;
  53:../../DaisySP/Source/Synthesis/oscillator.h ****     }
  54:../../DaisySP/Source/Synthesis/oscillator.h **** 
  55:../../DaisySP/Source/Synthesis/oscillator.h **** 
  56:../../DaisySP/Source/Synthesis/oscillator.h ****     /** Changes the frequency of the Oscillator, and recalculates phase increment.
  57:../../DaisySP/Source/Synthesis/oscillator.h ****     */
  58:../../DaisySP/Source/Synthesis/oscillator.h ****     inline void SetFreq(const float f)
  59:../../DaisySP/Source/Synthesis/oscillator.h ****     {
  60:../../DaisySP/Source/Synthesis/oscillator.h ****         freq_      = f;
  61:../../DaisySP/Source/Synthesis/oscillator.h ****         phase_inc_ = CalcPhaseInc(f);
 189              		.loc 6 61 34 view .LVU26
 190 0032 2D48     		ldr	r0, .L17+12
 191 0034 4FEA850A 		lsl	r10, r5, #2
 192              	.LBE125:
 193              	.LBE124:
 194              	.LBB128:
 195              	.LBB120:
 196              		.loc 7 51 43 view .LVU27
 197 0038 E7EEE45A 		vfms.f32	s11, s15, s9
 198              	.LVL5:
  52:../../DaisySP/Source/Utility/smooth_random.h ****         return from_ + interval_ * t;
 199              		.loc 7 52 9 is_stmt 1 view .LVU28
  51:../../DaisySP/Source/Utility/smooth_random.h ****         return from_ + interval_ * t;
 200              		.loc 7 51 15 is_stmt 0 view .LVU29
 201 003c 66EE257A 		vmul.f32	s15, s12, s11
 202              	.LVL6:
 203              		.loc 7 52 36 view .LVU30
 204 0040 A7EEA67A 		vfma.f32	s14, s15, s13
 205              	.LVL7:
 206              		.loc 7 52 36 view .LVU31
 207              	.LBE120:
 208              	.LBE128:
 209              		.loc 8 18 27 view .LVU32
 210 0044 B0EEC77A 		vabs.f32	s14, s14
 211              		.loc 8 18 20 view .LVU33
 212 0048 A7EE050A 		vfma.f32	s0, s14, s10
 213              	.LVL8:
 214              	.LBB129:
 215              	.LBI124:
  58:../../DaisySP/Source/Synthesis/oscillator.h ****     {
 216              		.loc 6 58 17 is_stmt 1 view .LVU34
 217              	.LBB126:
  60:../../DaisySP/Source/Synthesis/oscillator.h ****         phase_inc_ = CalcPhaseInc(f);
 218              		.loc 6 60 9 view .LVU35
  60:../../DaisySP/Source/Synthesis/oscillator.h ****         phase_inc_ = CalcPhaseInc(f);
 219              		.loc 6 60 20 is_stmt 0 view .LVU36
 220 004c 88ED020A 		vstr.32	s0, [r8, #8]
 221              		.loc 6 61 9 is_stmt 1 view .LVU37
 222              		.loc 6 61 34 is_stmt 0 view .LVU38
 223 0050 FFF7FEFF 		bl	_ZN7daisysp10Oscillator12CalcPhaseIncEf
 224              	.LVL9:
 225              		.loc 6 61 34 view .LVU39
 226              	.LBE126:
 227              	.LBE129:
ARM GAS  /tmp/cc97yIjF.s 			page 12


  19:smooth_random.cpp ****         out[0][i] = out[1][i] = osc.Process();
 228              		.loc 8 19 29 view .LVU40
 229 0054 7E68     		ldr	r6, [r7, #4]
 230              		.loc 8 19 44 view .LVU41
 231 0056 2448     		ldr	r0, .L17+12
 232              		.loc 8 19 29 view .LVU42
 233 0058 06EB8506 		add	r6, r6, r5, lsl #2
 234              	.LBB130:
 235              	.LBB127:
 236              		.loc 6 61 20 view .LVU43
 237 005c 88ED060A 		vstr.32	s0, [r8, #24]
 238              	.LVL10:
 239              		.loc 6 61 20 view .LVU44
 240              	.LBE127:
 241              	.LBE130:
 242              		.loc 8 19 9 is_stmt 1 view .LVU45
  16:smooth_random.cpp ****     {
 243              		.loc 8 16 5 is_stmt 0 view .LVU46
 244 0060 0135     		adds	r5, r5, #1
 245              	.LVL11:
 246              		.loc 8 19 44 view .LVU47
 247 0062 FFF7FEFF 		bl	_ZN7daisysp10Oscillator7ProcessEv
 248              	.LVL12:
 249              		.loc 8 19 19 view .LVU48
 250 0066 3B68     		ldr	r3, [r7]
  16:smooth_random.cpp ****     {
 251              		.loc 8 16 25 view .LVU49
 252 0068 A945     		cmp	r9, r5
 253              		.loc 8 19 31 view .LVU50
 254 006a 86ED000A 		vstr.32	s0, [r6]
 255              		.loc 8 19 19 view .LVU51
 256 006e 5344     		add	r3, r3, r10
 257 0070 83ED000A 		vstr.32	s0, [r3]
  16:smooth_random.cpp ****     {
 258              		.loc 8 16 5 is_stmt 1 view .LVU52
 259              	.LVL13:
  16:smooth_random.cpp ****     {
 260              		.loc 8 16 25 view .LVU53
 261 0074 2FD0     		beq	.L15
 262              	.LVL14:
 263              	.L6:
  18:smooth_random.cpp ****         out[0][i] = out[1][i] = osc.Process();
 264              		.loc 8 18 9 view .LVU54
 265              	.LBB131:
 266              	.LBI116:
  42:../../DaisySP/Source/Utility/smooth_random.h ****     {
 267              		.loc 7 42 11 view .LVU55
 268              	.LBB121:
  44:../../DaisySP/Source/Utility/smooth_random.h ****         if(phase_ >= 1.0f)
 269              		.loc 7 44 9 view .LVU56
  47:../../DaisySP/Source/Utility/smooth_random.h ****             from_ += interval_;
 270              		.loc 7 47 13 view .LVU57
  44:../../DaisySP/Source/Utility/smooth_random.h ****         if(phase_ >= 1.0f)
 271              		.loc 7 44 16 is_stmt 0 view .LVU58
 272 0076 D4ED017A 		vldr.32	s15, [r4, #4]
  45:../../DaisySP/Source/Utility/smooth_random.h ****         {
 273              		.loc 7 45 9 view .LVU59
ARM GAS  /tmp/cc97yIjF.s 			page 13


 274 007a B7EE007A 		vmov.f32	s14, #1.0e+0
  44:../../DaisySP/Source/Utility/smooth_random.h ****         if(phase_ >= 1.0f)
 275              		.loc 7 44 16 view .LVU60
 276 007e D4ED006A 		vldr.32	s13, [r4]
 277 0082 77EEA67A 		vadd.f32	s15, s15, s13
  45:../../DaisySP/Source/Utility/smooth_random.h ****         {
 278              		.loc 7 45 9 view .LVU61
 279 0086 F4EEC77A 		vcmpe.f32	s15, s14
  44:../../DaisySP/Source/Utility/smooth_random.h ****         if(phase_ >= 1.0f)
 280              		.loc 7 44 16 view .LVU62
 281 008a C4ED017A 		vstr.32	s15, [r4, #4]
  45:../../DaisySP/Source/Utility/smooth_random.h ****         {
 282              		.loc 7 45 9 is_stmt 1 view .LVU63
 283 008e F1EE10FA 		vmrs	APSR_nzcv, FPSCR
 284 0092 C0DB     		blt	.L16
  47:../../DaisySP/Source/Utility/smooth_random.h ****             from_ += interval_;
 285              		.loc 7 47 20 is_stmt 0 view .LVU64
 286 0094 77EEC77A 		vsub.f32	s15, s15, s14
  48:../../DaisySP/Source/Utility/smooth_random.h ****             interval_ = rand() * kRandFrac * 2.0f - 1.0f - from_;
 287              		.loc 7 48 19 view .LVU65
 288 0098 D4ED026A 		vldr.32	s13, [r4, #8]
 289 009c 94ED037A 		vldr.32	s14, [r4, #12]
 290 00a0 36EE877A 		vadd.f32	s14, s13, s14
  47:../../DaisySP/Source/Utility/smooth_random.h ****             from_ += interval_;
 291              		.loc 7 47 20 view .LVU66
 292 00a4 C4ED017A 		vstr.32	s15, [r4, #4]
  48:../../DaisySP/Source/Utility/smooth_random.h ****             interval_ = rand() * kRandFrac * 2.0f - 1.0f - from_;
 293              		.loc 7 48 13 is_stmt 1 view .LVU67
  48:../../DaisySP/Source/Utility/smooth_random.h ****             interval_ = rand() * kRandFrac * 2.0f - 1.0f - from_;
 294              		.loc 7 48 19 is_stmt 0 view .LVU68
 295 00a8 84ED027A 		vstr.32	s14, [r4, #8]
  49:../../DaisySP/Source/Utility/smooth_random.h ****         }
 296              		.loc 7 49 13 is_stmt 1 view .LVU69
  49:../../DaisySP/Source/Utility/smooth_random.h ****         }
 297              		.loc 7 49 29 is_stmt 0 view .LVU70
 298 00ac FFF7FEFF 		bl	rand
 299              	.LVL15:
  49:../../DaisySP/Source/Utility/smooth_random.h ****         }
 300              		.loc 7 49 32 view .LVU71
 301 00b0 06EE100A 		vmov	s12, r0	@ int
  49:../../DaisySP/Source/Utility/smooth_random.h ****         }
 302              		.loc 7 49 51 view .LVU72
 303 00b4 F0EE005A 		vmov.f32	s11, #2.0e+0
 304 00b8 FFEE006A 		vmov.f32	s13, #-1.0e+0
  49:../../DaisySP/Source/Utility/smooth_random.h ****         }
 305              		.loc 7 49 60 view .LVU73
 306 00bc 94ED027A 		vldr.32	s14, [r4, #8]
  49:../../DaisySP/Source/Utility/smooth_random.h ****         }
 307              		.loc 7 49 32 view .LVU74
 308 00c0 BAEEE06A 		vcvt.f32.s32	s12, s12, #31
 309 00c4 D4ED017A 		vldr.32	s15, [r4, #4]
  49:../../DaisySP/Source/Utility/smooth_random.h ****         }
 310              		.loc 7 49 51 view .LVU75
 311 00c8 E6EE256A 		vfma.f32	s13, s12, s11
  49:../../DaisySP/Source/Utility/smooth_random.h ****         }
 312              		.loc 7 49 58 view .LVU76
 313 00cc 76EEC76A 		vsub.f32	s13, s13, s14
ARM GAS  /tmp/cc97yIjF.s 			page 14


  49:../../DaisySP/Source/Utility/smooth_random.h ****         }
 314              		.loc 7 49 23 view .LVU77
 315 00d0 C4ED036A 		vstr.32	s13, [r4, #12]
 316 00d4 A3E7     		b	.L8
 317              	.LVL16:
 318              	.L15:
  49:../../DaisySP/Source/Utility/smooth_random.h ****         }
 319              		.loc 7 49 23 view .LVU78
 320              	.LBE121:
 321              	.LBE131:
 322              	.LBE132:
  20:smooth_random.cpp ****     }
  21:smooth_random.cpp **** }
 323              		.loc 8 21 1 view .LVU79
 324 00d6 BDE8F087 		pop	{r4, r5, r6, r7, r8, r9, r10, pc}
 325              	.LVL17:
 326              	.L12:
 327              		.cfi_def_cfa_offset 0
 328              		.cfi_restore 4
 329              		.cfi_restore 5
 330              		.cfi_restore 6
 331              		.cfi_restore 7
 332              		.cfi_restore 8
 333              		.cfi_restore 9
 334              		.cfi_restore 10
 335              		.cfi_restore 14
 336              		.loc 8 21 1 view .LVU80
 337 00da 7047     		bx	lr
 338              	.L18:
 339              		.align	2
 340              	.L17:
 341 00dc 00000000 		.word	.LANCHOR0
 342 00e0 0000A543 		.word	1134886912
 343 00e4 0000DC42 		.word	1121714176
 344 00e8 00000000 		.word	.LANCHOR1
 345              		.cfi_endproc
 346              	.LFE4212:
 348              		.section	.text.startup.main,"ax",%progbits
 349              		.align	1
 350              		.p2align 2,,3
 351              		.global	main
 352              		.syntax unified
 353              		.thumb
 354              		.thumb_func
 355              		.fpu fpv5-d16
 357              	main:
 358              	.LFB4213:
  22:smooth_random.cpp **** 
  23:smooth_random.cpp **** int main(void)
  24:smooth_random.cpp **** {
 359              		.loc 8 24 1 is_stmt 1 view -0
 360              		.cfi_startproc
 361              		@ args = 0, pretend = 0, frame = 0
 362              		@ frame_needed = 0, uses_anonymous_args = 0
  25:smooth_random.cpp ****     hw.Configure();
 363              		.loc 8 25 5 view .LVU82
  24:smooth_random.cpp ****     hw.Configure();
ARM GAS  /tmp/cc97yIjF.s 			page 15


 364              		.loc 8 24 1 is_stmt 0 view .LVU83
 365 0000 10B5     		push	{r4, lr}
 366              		.cfi_def_cfa_offset 8
 367              		.cfi_offset 4, -8
 368              		.cfi_offset 14, -4
 369              		.loc 8 25 17 view .LVU84
 370 0002 2648     		ldr	r0, .L22
 371 0004 FFF7FEFF 		bl	_ZN5daisy9DaisySeed9ConfigureEv
 372              	.LVL18:
  26:smooth_random.cpp ****     hw.Init();
 373              		.loc 8 26 5 is_stmt 1 view .LVU85
 374              		.loc 8 26 12 is_stmt 0 view .LVU86
 375 0008 0021     		movs	r1, #0
 376 000a 2448     		ldr	r0, .L22
 377 000c FFF7FEFF 		bl	_ZN5daisy9DaisySeed4InitEb
 378              	.LVL19:
  27:smooth_random.cpp ****     float sample_rate = hw.AudioSampleRate();
 379              		.loc 8 27 5 is_stmt 1 view .LVU87
 380              		.loc 8 27 43 is_stmt 0 view .LVU88
 381 0010 2248     		ldr	r0, .L22
 382 0012 FFF7FEFF 		bl	_ZN5daisy9DaisySeed15AudioSampleRateEv
 383              	.LVL20:
 384              	.LBB133:
 385              	.LBB134:
 386              	.LBB135:
 387              	.LBB136:
  53:../../DaisySP/Source/Utility/smooth_random.h ****     }
  54:../../DaisySP/Source/Utility/smooth_random.h **** 
  55:../../DaisySP/Source/Utility/smooth_random.h ****     /** How often to slew to a new random value
  56:../../DaisySP/Source/Utility/smooth_random.h ****         \param freq Rate in Hz
  57:../../DaisySP/Source/Utility/smooth_random.h ****     */
  58:../../DaisySP/Source/Utility/smooth_random.h ****     void SetFreq(float freq)
  59:../../DaisySP/Source/Utility/smooth_random.h ****     {
  60:../../DaisySP/Source/Utility/smooth_random.h ****         freq       = freq / sample_rate_;
 388              		.loc 7 60 20 view .LVU89
 389 0016 B7EE006A 		vmov.f32	s12, #1.0e+0
 390              	.LBE136:
 391              	.LBE135:
 392              	.LBE134:
 393              	.LBE133:
 394              		.loc 8 27 43 view .LVU90
 395 001a F0EE407A 		vmov.f32	s15, s0
 396              	.LVL21:
  28:smooth_random.cpp **** 
  29:smooth_random.cpp ****     smooth.Init(sample_rate);
 397              		.loc 8 29 5 is_stmt 1 view .LVU91
 398              	.LBB156:
 399              	.LBI133:
  31:../../DaisySP/Source/Utility/smooth_random.h ****     {
 400              		.loc 7 31 10 view .LVU92
 401              	.LBB149:
  33:../../DaisySP/Source/Utility/smooth_random.h **** 
 402              		.loc 7 33 9 view .LVU93
 403              	.LBE149:
 404              	.LBE156:
 405              	.LBB157:
 406              	.LBB158:
ARM GAS  /tmp/cc97yIjF.s 			page 16


  44:../../DaisySP/Source/Synthesis/oscillator.h ****         sr_recip_  = 1.0f / sample_rate;
 407              		.loc 6 44 20 is_stmt 0 view .LVU94
 408 001e 204C     		ldr	r4, .L22+4
 409              	.LBE158:
 410              	.LBE157:
 411              	.LBB165:
 412              	.LBB166:
 413              		.loc 7 60 20 view .LVU95
 414 0020 B6EE085A 		vmov.f32	s10, #7.5e-1
 415              	.LBE166:
 416              	.LBE165:
 417              	.LBB176:
 418              	.LBB150:
  33:../../DaisySP/Source/Utility/smooth_random.h **** 
 419              		.loc 7 33 22 view .LVU96
 420 0024 1F4B     		ldr	r3, .L22+8
  36:../../DaisySP/Source/Utility/smooth_random.h ****         from_     = 0.0f;
 421              		.loc 7 36 19 view .LVU97
 422 0026 DFED206A 		vldr.32	s13, .L22+12
 423              	.LBE150:
 424              	.LBE176:
 425              	.LBB177:
 426              	.LBB159:
  47:../../DaisySP/Source/Synthesis/oscillator.h ****         phase_     = 0.0f;
 427              		.loc 6 47 20 view .LVU98
 428 002a 4FF07C52 		mov	r2, #1056964608
 429              	.LBE159:
 430              	.LBE177:
 431              	.LBB178:
 432              	.LBB151:
 433              	.LBB146:
 434              	.LBB143:
 435              		.loc 7 60 20 view .LVU99
 436 002e C6EE275A 		vdiv.f32	s11, s12, s15
 437              	.LBE143:
 438              	.LBE146:
 439              	.LBE151:
 440              	.LBE178:
 441              	.LBB179:
 442              	.LBB160:
  46:../../DaisySP/Source/Synthesis/oscillator.h ****         amp_       = 0.5f;
 443              		.loc 6 46 20 view .LVU100
 444 0032 9FED1E0A 		vldr.32	s0, .L22+16
 445              	.LVL22:
  46:../../DaisySP/Source/Synthesis/oscillator.h ****         amp_       = 0.5f;
 446              		.loc 6 46 20 view .LVU101
 447              	.LBE160:
 448              	.LBE179:
 449              	.LBB180:
 450              	.LBB152:
  33:../../DaisySP/Source/Utility/smooth_random.h **** 
 451              		.loc 7 33 22 view .LVU102
 452 0036 C3ED047A 		vstr.32	s15, [r3, #16]
  35:../../DaisySP/Source/Utility/smooth_random.h ****         phase_    = 0.0f;
 453              		.loc 7 35 9 is_stmt 1 view .LVU103
 454              	.LVL23:
 455              	.LBB147:
ARM GAS  /tmp/cc97yIjF.s 			page 17


 456              	.LBI135:
  58:../../DaisySP/Source/Utility/smooth_random.h ****     {
 457              		.loc 7 58 10 view .LVU104
 458              	.LBB144:
 459              		.loc 7 60 9 view .LVU105
  61:../../DaisySP/Source/Utility/smooth_random.h ****         frequency_ = fclamp(freq, 0.f, 1.f);
 460              		.loc 7 61 9 view .LVU106
 461              	.LBB137:
 462              	.LBI137:
 463              		.file 9 "../../DaisySP/Source/Utility/dsp.h"
   1:../../DaisySP/Source/Utility/dsp.h **** /** Helpful defines, functions, and other utilities for use in/with daisysp modules.
   2:../../DaisySP/Source/Utility/dsp.h **** */
   3:../../DaisySP/Source/Utility/dsp.h **** #pragma once
   4:../../DaisySP/Source/Utility/dsp.h **** #ifndef DSY_CORE_DSP
   5:../../DaisySP/Source/Utility/dsp.h **** #define DSY_CORE_DSP
   6:../../DaisySP/Source/Utility/dsp.h **** #include <cassert>
   7:../../DaisySP/Source/Utility/dsp.h **** #include <cstdint>
   8:../../DaisySP/Source/Utility/dsp.h **** #include <random>
   9:../../DaisySP/Source/Utility/dsp.h **** #include <cmath>
  10:../../DaisySP/Source/Utility/dsp.h **** 
  11:../../DaisySP/Source/Utility/dsp.h **** /** PIs
  12:../../DaisySP/Source/Utility/dsp.h **** */
  13:../../DaisySP/Source/Utility/dsp.h **** #define PI_F 3.1415927410125732421875f
  14:../../DaisySP/Source/Utility/dsp.h **** #define TWOPI_F (2.0f * PI_F)
  15:../../DaisySP/Source/Utility/dsp.h **** #define HALFPI_F (PI_F * 0.5f)
  16:../../DaisySP/Source/Utility/dsp.h **** #define DSY_MIN(in, mn) (in < mn ? in : mn)
  17:../../DaisySP/Source/Utility/dsp.h **** #define DSY_MAX(in, mx) (in > mx ? in : mx)
  18:../../DaisySP/Source/Utility/dsp.h **** #define DSY_CLAMP(in, mn, mx) (DSY_MIN(DSY_MAX(in, mn), mx))
  19:../../DaisySP/Source/Utility/dsp.h **** #define DSY_COUNTOF(_arr) (sizeof(_arr) / sizeof(_arr[0]))
  20:../../DaisySP/Source/Utility/dsp.h **** 
  21:../../DaisySP/Source/Utility/dsp.h **** namespace daisysp
  22:../../DaisySP/Source/Utility/dsp.h **** {
  23:../../DaisySP/Source/Utility/dsp.h **** //Avoids division for random floats. e.g. rand() * kRandFrac
  24:../../DaisySP/Source/Utility/dsp.h **** static constexpr float kRandFrac = 1.f / (float)RAND_MAX;
  25:../../DaisySP/Source/Utility/dsp.h **** 
  26:../../DaisySP/Source/Utility/dsp.h **** //Convert from semitones to other units. e.g. 2 ^ (kOneTwelfth * x)
  27:../../DaisySP/Source/Utility/dsp.h **** static constexpr float kOneTwelfth = 1.f / 12.f;
  28:../../DaisySP/Source/Utility/dsp.h **** 
  29:../../DaisySP/Source/Utility/dsp.h **** /** efficient floating point min/max
  30:../../DaisySP/Source/Utility/dsp.h **** c/o stephen mccaul
  31:../../DaisySP/Source/Utility/dsp.h **** */
  32:../../DaisySP/Source/Utility/dsp.h **** inline float fmax(float a, float b)
  33:../../DaisySP/Source/Utility/dsp.h **** {
  34:../../DaisySP/Source/Utility/dsp.h ****     float r;
  35:../../DaisySP/Source/Utility/dsp.h **** #ifdef __arm__
  36:../../DaisySP/Source/Utility/dsp.h ****     asm("vmaxnm.f32 %[d], %[n], %[m]" : [d] "=t"(r) : [n] "t"(a), [m] "t"(b) :);
  37:../../DaisySP/Source/Utility/dsp.h **** #else
  38:../../DaisySP/Source/Utility/dsp.h ****     r = (a > b) ? a : b;
  39:../../DaisySP/Source/Utility/dsp.h **** #endif // __arm__
  40:../../DaisySP/Source/Utility/dsp.h ****     return r;
  41:../../DaisySP/Source/Utility/dsp.h **** }
  42:../../DaisySP/Source/Utility/dsp.h **** 
  43:../../DaisySP/Source/Utility/dsp.h **** inline float fmin(float a, float b)
  44:../../DaisySP/Source/Utility/dsp.h **** {
  45:../../DaisySP/Source/Utility/dsp.h ****     float r;
  46:../../DaisySP/Source/Utility/dsp.h **** #ifdef __arm__
  47:../../DaisySP/Source/Utility/dsp.h ****     asm("vminnm.f32 %[d], %[n], %[m]" : [d] "=t"(r) : [n] "t"(a), [m] "t"(b) :);
ARM GAS  /tmp/cc97yIjF.s 			page 18


  48:../../DaisySP/Source/Utility/dsp.h **** #else
  49:../../DaisySP/Source/Utility/dsp.h ****     r = (a < b) ? a : b;
  50:../../DaisySP/Source/Utility/dsp.h **** #endif // __arm__
  51:../../DaisySP/Source/Utility/dsp.h ****     return r;
  52:../../DaisySP/Source/Utility/dsp.h **** }
  53:../../DaisySP/Source/Utility/dsp.h **** 
  54:../../DaisySP/Source/Utility/dsp.h **** /** quick fp clamp
  55:../../DaisySP/Source/Utility/dsp.h **** */
  56:../../DaisySP/Source/Utility/dsp.h **** inline float fclamp(float in, float min, float max)
 464              		.loc 9 56 14 view .LVU107
 465              	.LBE137:
 466              	.LBE144:
 467              	.LBE147:
 468              	.LBE152:
 469              	.LBE180:
  57:../../DaisySP/Source/Utility/dsp.h **** {
  58:../../DaisySP/Source/Utility/dsp.h ****     return fmin(fmax(in, min), max);
 470              		.loc 9 58 5 view .LVU108
 471              	.LBB181:
 472              	.LBB153:
 473              	.LBB148:
 474              	.LBB145:
 475              	.LBB142:
 476              	.LBB138:
 477              	.LBI138:
  32:../../DaisySP/Source/Utility/dsp.h **** {
 478              		.loc 9 32 14 view .LVU109
 479              	.LBB139:
  34:../../DaisySP/Source/Utility/dsp.h **** #ifdef __arm__
 480              		.loc 9 34 5 view .LVU110
  36:../../DaisySP/Source/Utility/dsp.h **** #else
 481              		.loc 9 36 5 view .LVU111
  40:../../DaisySP/Source/Utility/dsp.h **** }
 482              		.loc 9 40 5 view .LVU112
  40:../../DaisySP/Source/Utility/dsp.h **** }
 483              		.loc 9 40 5 is_stmt 0 view .LVU113
 484              	.LBE139:
 485              	.LBE138:
 486              	.LBB140:
 487              	.LBI140:
  43:../../DaisySP/Source/Utility/dsp.h **** {
 488              		.loc 9 43 14 is_stmt 1 view .LVU114
 489              	.LBB141:
  45:../../DaisySP/Source/Utility/dsp.h **** #ifdef __arm__
 490              		.loc 9 45 5 view .LVU115
  47:../../DaisySP/Source/Utility/dsp.h **** #else
 491              		.loc 9 47 5 view .LVU116
  51:../../DaisySP/Source/Utility/dsp.h **** }
 492              		.loc 9 51 5 view .LVU117
  51:../../DaisySP/Source/Utility/dsp.h **** }
 493              		.loc 9 51 5 is_stmt 0 view .LVU118
 494              	.LBE141:
 495              	.LBE140:
 496              	.LBE142:
 497              	.LBE145:
 498              	.LBE148:
  36:../../DaisySP/Source/Utility/smooth_random.h ****         from_     = 0.0f;
ARM GAS  /tmp/cc97yIjF.s 			page 19


 499              		.loc 7 36 9 is_stmt 1 view .LVU119
 500              	.LBE153:
 501              	.LBE181:
 502              	.LBB182:
 503              	.LBB161:
  49:../../DaisySP/Source/Synthesis/oscillator.h ****         waveform_  = WAVE_SIN;
 504              		.loc 6 49 34 is_stmt 0 view .LVU120
 505 003a 2046     		mov	r0, r4
  44:../../DaisySP/Source/Synthesis/oscillator.h ****         sr_recip_  = 1.0f / sample_rate;
 506              		.loc 6 44 20 view .LVU121
 507 003c C4ED037A 		vstr.32	s15, [r4, #12]
 508              	.LBE161:
 509              	.LBE182:
 510              	.LBB183:
 511              	.LBB154:
  36:../../DaisySP/Source/Utility/smooth_random.h ****         from_     = 0.0f;
 512              		.loc 7 36 19 view .LVU122
 513 0040 C3ED016A 		vstr.32	s13, [r3, #4]
  37:../../DaisySP/Source/Utility/smooth_random.h ****         interval_ = 0.0f;
 514              		.loc 7 37 9 is_stmt 1 view .LVU123
  37:../../DaisySP/Source/Utility/smooth_random.h ****         interval_ = 0.0f;
 515              		.loc 7 37 19 is_stmt 0 view .LVU124
 516 0044 C3ED026A 		vstr.32	s13, [r3, #8]
  38:../../DaisySP/Source/Utility/smooth_random.h ****     }
 517              		.loc 7 38 9 is_stmt 1 view .LVU125
 518              	.LBE154:
 519              	.LBE183:
 520              	.LBB184:
 521              	.LBB173:
  60:../../DaisySP/Source/Utility/smooth_random.h ****         frequency_ = fclamp(freq, 0.f, 1.f);
 522              		.loc 7 60 20 is_stmt 0 view .LVU126
 523 0048 85EE277A 		vdiv.f32	s14, s10, s15
 524              	.LBE173:
 525              	.LBE184:
 526              	.LBB185:
 527              	.LBB155:
  38:../../DaisySP/Source/Utility/smooth_random.h ****     }
 528              		.loc 7 38 19 view .LVU127
 529 004c C3ED036A 		vstr.32	s13, [r3, #12]
 530              	.LVL24:
  38:../../DaisySP/Source/Utility/smooth_random.h ****     }
 531              		.loc 7 38 19 view .LVU128
 532              	.LBE155:
 533              	.LBE185:
  30:smooth_random.cpp ****     smooth.SetFreq(.75f);
 534              		.loc 8 30 5 is_stmt 1 view .LVU129
 535              	.LBB186:
 536              	.LBI165:
  58:../../DaisySP/Source/Utility/smooth_random.h ****     {
 537              		.loc 7 58 10 view .LVU130
 538              	.LBB174:
  60:../../DaisySP/Source/Utility/smooth_random.h ****         frequency_ = fclamp(freq, 0.f, 1.f);
 539              		.loc 7 60 9 view .LVU131
 540              		.loc 7 61 9 view .LVU132
 541              	.LBB167:
 542              	.LBI167:
  56:../../DaisySP/Source/Utility/dsp.h **** {
ARM GAS  /tmp/cc97yIjF.s 			page 20


 543              		.loc 9 56 14 view .LVU133
 544              	.LBE167:
 545              	.LBE174:
 546              	.LBE186:
 547              		.loc 9 58 5 view .LVU134
 548              	.LBB187:
 549              	.LBB175:
 550              	.LBB172:
 551              	.LBB168:
 552              	.LBI168:
  32:../../DaisySP/Source/Utility/dsp.h **** {
 553              		.loc 9 32 14 view .LVU135
 554              	.LBB169:
  34:../../DaisySP/Source/Utility/dsp.h **** #ifdef __arm__
 555              		.loc 9 34 5 view .LVU136
  36:../../DaisySP/Source/Utility/dsp.h **** #else
 556              		.loc 9 36 5 view .LVU137
  36:../../DaisySP/Source/Utility/dsp.h **** #else
 557              		.loc 9 36 80 is_stmt 0 view .LVU138
 558              		.syntax unified
 559              	@ 36 "../../DaisySP/Source/Utility/dsp.h" 1
 560 0050 C7FE267A 		vmaxnm.f32 s15, s14, s13
 561              	@ 0 "" 2
 562              	.LVL25:
  40:../../DaisySP/Source/Utility/dsp.h **** }
 563              		.loc 9 40 5 is_stmt 1 view .LVU139
  40:../../DaisySP/Source/Utility/dsp.h **** }
 564              		.loc 9 40 5 is_stmt 0 view .LVU140
 565              		.thumb
 566              		.syntax unified
 567              	.LBE169:
 568              	.LBE168:
 569              	.LBB170:
 570              	.LBI170:
  43:../../DaisySP/Source/Utility/dsp.h **** {
 571              		.loc 9 43 14 is_stmt 1 view .LVU141
 572              	.LBB171:
  45:../../DaisySP/Source/Utility/dsp.h **** #ifdef __arm__
 573              		.loc 9 45 5 view .LVU142
  47:../../DaisySP/Source/Utility/dsp.h **** #else
 574              		.loc 9 47 5 view .LVU143
  47:../../DaisySP/Source/Utility/dsp.h **** #else
 575              		.loc 9 47 80 is_stmt 0 view .LVU144
 576              		.syntax unified
 577              	@ 47 "../../DaisySP/Source/Utility/dsp.h" 1
 578 0054 C7FEC67A 		vminnm.f32 s15, s15, s12
 579              	@ 0 "" 2
 580              	.LVL26:
  51:../../DaisySP/Source/Utility/dsp.h **** }
 581              		.loc 9 51 5 is_stmt 1 view .LVU145
  51:../../DaisySP/Source/Utility/dsp.h **** }
 582              		.loc 9 51 5 is_stmt 0 view .LVU146
 583              		.thumb
 584              		.syntax unified
 585              	.LBE171:
 586              	.LBE170:
 587              	.LBE172:
ARM GAS  /tmp/cc97yIjF.s 			page 21


 588              		.loc 7 61 20 view .LVU147
 589 0058 C3ED007A 		vstr.32	s15, [r3]
 590              	.LVL27:
 591              		.loc 7 61 20 view .LVU148
 592              	.LBE175:
 593              	.LBE187:
  31:smooth_random.cpp **** 
  32:smooth_random.cpp ****     osc.Init(sample_rate);
 594              		.loc 8 32 5 is_stmt 1 view .LVU149
 595              	.LBB188:
 596              	.LBI157:
  42:../../DaisySP/Source/Synthesis/oscillator.h ****     {
 597              		.loc 6 42 10 view .LVU150
 598              	.LBB162:
  44:../../DaisySP/Source/Synthesis/oscillator.h ****         sr_recip_  = 1.0f / sample_rate;
 599              		.loc 6 44 9 view .LVU151
  45:../../DaisySP/Source/Synthesis/oscillator.h ****         freq_      = 100.0f;
 600              		.loc 6 45 9 view .LVU152
  48:../../DaisySP/Source/Synthesis/oscillator.h ****         phase_inc_ = CalcPhaseInc(freq_);
 601              		.loc 6 48 20 is_stmt 0 view .LVU153
 602 005c C4ED056A 		vstr.32	s13, [r4, #20]
  47:../../DaisySP/Source/Synthesis/oscillator.h ****         phase_     = 0.0f;
 603              		.loc 6 47 20 view .LVU154
 604 0060 6260     		str	r2, [r4, #4]	@ float
  46:../../DaisySP/Source/Synthesis/oscillator.h ****         amp_       = 0.5f;
 605              		.loc 6 46 20 view .LVU155
 606 0062 84ED020A 		vstr.32	s0, [r4, #8]
  45:../../DaisySP/Source/Synthesis/oscillator.h ****         freq_      = 100.0f;
 607              		.loc 6 45 20 view .LVU156
 608 0066 C4ED045A 		vstr.32	s11, [r4, #16]
  46:../../DaisySP/Source/Synthesis/oscillator.h ****         amp_       = 0.5f;
 609              		.loc 6 46 9 is_stmt 1 view .LVU157
  47:../../DaisySP/Source/Synthesis/oscillator.h ****         phase_     = 0.0f;
 610              		.loc 6 47 9 view .LVU158
  48:../../DaisySP/Source/Synthesis/oscillator.h ****         phase_inc_ = CalcPhaseInc(freq_);
 611              		.loc 6 48 9 view .LVU159
  49:../../DaisySP/Source/Synthesis/oscillator.h ****         waveform_  = WAVE_SIN;
 612              		.loc 6 49 9 view .LVU160
  49:../../DaisySP/Source/Synthesis/oscillator.h ****         waveform_  = WAVE_SIN;
 613              		.loc 6 49 34 is_stmt 0 view .LVU161
 614 006a FFF7FEFF 		bl	_ZN7daisysp10Oscillator12CalcPhaseIncEf
 615              	.LVL28:
  49:../../DaisySP/Source/Synthesis/oscillator.h ****         waveform_  = WAVE_SIN;
 616              		.loc 6 49 34 view .LVU162
 617 006e F0EE407A 		vmov.f32	s15, s0
  50:../../DaisySP/Source/Synthesis/oscillator.h ****         eoc_       = true;
 618              		.loc 6 50 20 view .LVU163
 619 0072 0022     		movs	r2, #0
 620              	.LBE162:
 621              	.LBE188:
 622              	.LBB189:
 623              	.LBB190:
  60:../../DaisySP/Source/Synthesis/oscillator.h ****         phase_inc_ = CalcPhaseInc(f);
 624              		.loc 6 60 20 view .LVU164
 625 0074 9FED0E0A 		vldr.32	s0, .L22+20
 626              	.LBE190:
 627              	.LBE189:
ARM GAS  /tmp/cc97yIjF.s 			page 22


 628              	.LBB194:
 629              	.LBB163:
  52:../../DaisySP/Source/Synthesis/oscillator.h ****     }
 630              		.loc 6 52 20 view .LVU165
 631 0078 40F20113 		movw	r3, #257
 632              	.LBE163:
 633              	.LBE194:
 634              	.LBB195:
 635              	.LBB191:
 636              		.loc 6 61 34 view .LVU166
 637 007c 2046     		mov	r0, r4
 638              	.LBE191:
 639              	.LBE195:
 640              	.LBB196:
 641              	.LBB164:
  50:../../DaisySP/Source/Synthesis/oscillator.h ****         eoc_       = true;
 642              		.loc 6 50 20 view .LVU167
 643 007e 2270     		strb	r2, [r4]
  49:../../DaisySP/Source/Synthesis/oscillator.h ****         waveform_  = WAVE_SIN;
 644              		.loc 6 49 20 view .LVU168
 645 0080 C4ED067A 		vstr.32	s15, [r4, #24]
  50:../../DaisySP/Source/Synthesis/oscillator.h ****         eoc_       = true;
 646              		.loc 6 50 9 is_stmt 1 view .LVU169
  51:../../DaisySP/Source/Synthesis/oscillator.h ****         eor_       = true;
 647              		.loc 6 51 9 view .LVU170
  52:../../DaisySP/Source/Synthesis/oscillator.h ****     }
 648              		.loc 6 52 9 view .LVU171
  52:../../DaisySP/Source/Synthesis/oscillator.h ****     }
 649              		.loc 6 52 20 is_stmt 0 view .LVU172
 650 0084 A384     		strh	r3, [r4, #36]	@ movhi
 651              	.LVL29:
  52:../../DaisySP/Source/Synthesis/oscillator.h ****     }
 652              		.loc 6 52 20 view .LVU173
 653              	.LBE164:
 654              	.LBE196:
  33:smooth_random.cpp ****     osc.SetFreq(440.f);
 655              		.loc 8 33 5 is_stmt 1 view .LVU174
 656              	.LBB197:
 657              	.LBI189:
  58:../../DaisySP/Source/Synthesis/oscillator.h ****     {
 658              		.loc 6 58 17 view .LVU175
 659              	.LBB192:
  60:../../DaisySP/Source/Synthesis/oscillator.h ****         phase_inc_ = CalcPhaseInc(f);
 660              		.loc 6 60 9 view .LVU176
  60:../../DaisySP/Source/Synthesis/oscillator.h ****         phase_inc_ = CalcPhaseInc(f);
 661              		.loc 6 60 20 is_stmt 0 view .LVU177
 662 0086 84ED020A 		vstr.32	s0, [r4, #8]
 663              		.loc 6 61 9 is_stmt 1 view .LVU178
 664              		.loc 6 61 34 is_stmt 0 view .LVU179
 665 008a FFF7FEFF 		bl	_ZN7daisysp10Oscillator12CalcPhaseIncEf
 666              	.LVL30:
 667              	.LBE192:
 668              	.LBE197:
  34:smooth_random.cpp **** 
  35:smooth_random.cpp ****     hw.StartAudio(AudioCallback);
 669              		.loc 8 35 18 view .LVU180
 670 008e 0949     		ldr	r1, .L22+24
ARM GAS  /tmp/cc97yIjF.s 			page 23


 671 0090 0248     		ldr	r0, .L22
 672              	.LBB198:
 673              	.LBB193:
 674              		.loc 6 61 20 view .LVU181
 675 0092 84ED060A 		vstr.32	s0, [r4, #24]
 676              	.LVL31:
 677              		.loc 6 61 20 view .LVU182
 678              	.LBE193:
 679              	.LBE198:
 680              		.loc 8 35 5 is_stmt 1 view .LVU183
 681              		.loc 8 35 18 is_stmt 0 view .LVU184
 682 0096 FFF7FEFF 		bl	_ZN5daisy9DaisySeed10StartAudioEPFvPKPKfPPfjE
 683              	.LVL32:
 684              	.L20:
  36:smooth_random.cpp ****     while(1) {}
 685              		.loc 8 36 5 is_stmt 1 discriminator 1 view .LVU185
 686              		.loc 8 36 5 discriminator 1 view .LVU186
 687              		.loc 8 36 5 discriminator 1 view .LVU187
 688              		.loc 8 36 5 discriminator 1 view .LVU188
 689 009a FEE7     		b	.L20
 690              	.L23:
 691              		.align	2
 692              	.L22:
 693 009c 00000000 		.word	.LANCHOR2
 694 00a0 00000000 		.word	.LANCHOR1
 695 00a4 00000000 		.word	.LANCHOR0
 696 00a8 00000000 		.word	0
 697 00ac 0000C842 		.word	1120403456
 698 00b0 0000DC43 		.word	1138491392
 699 00b4 00000000 		.word	_Z13AudioCallbackPKPKfPPfj
 700              		.cfi_endproc
 701              	.LFE4213:
 703              		.section	.text.startup._GLOBAL__sub_I_hw,"ax",%progbits
 704              		.align	1
 705              		.p2align 2,,3
 706              		.syntax unified
 707              		.thumb
 708              		.thumb_func
 709              		.fpu fpv5-d16
 711              	_GLOBAL__sub_I_hw:
 712              	.LFB4759:
  37:smooth_random.cpp **** }
 713              		.loc 8 37 1 view -0
 714              		.cfi_startproc
 715              		@ args = 0, pretend = 0, frame = 0
 716              		@ frame_needed = 0, uses_anonymous_args = 0
 717              	.LBB218:
 718              	.LBI218:
 719              		.loc 8 37 1 view .LVU190
 720              	.LVL33:
 721              	.LBB219:
 722              	.LBB220:
 723              	.LBI220:
  21:../../libdaisy/src/daisy_seed.h ****     ~DaisySeed() {}
 724              		.loc 1 21 5 view .LVU191
 725              	.LBB221:
 726              	.LBB222:
ARM GAS  /tmp/cc97yIjF.s 			page 24


 727              	.LBI222:
  62:../../libdaisy/src/hid/audio.h ****     ~AudioHandle() {}
 728              		.loc 5 62 5 view .LVU192
 729              	.LBE222:
 730              	.LBE221:
 731              	.LBE220:
 732              	.LBE219:
 733              	.LBE218:
 734              		.loc 8 37 1 is_stmt 0 view .LVU193
 735 0000 08B5     		push	{r3, lr}
 736              		.cfi_def_cfa_offset 8
 737              		.cfi_offset 3, -8
 738              		.cfi_offset 14, -4
 739              	.LBB243:
 740              	.LBB241:
 741              	.LBB237:
 742              	.LBB235:
 743              	.LBB227:
 744              	.LBB223:
 745              	.LBB224:
  62:../../libdaisy/src/hid/audio.h ****     ~AudioHandle() {}
 746              		.loc 5 62 35 view .LVU194
 747 0002 0A48     		ldr	r0, .L26
 748 0004 0023     		movs	r3, #0
 749              	.LBE224:
 750              	.LBE223:
 751              	.LBE227:
 752              	.LBE235:
 753              	.LBE237:
   7:smooth_random.cpp **** 
 754              		.loc 8 7 11 view .LVU195
 755 0006 0A4A     		ldr	r2, .L26+4
 756              	.LBB238:
 757              	.LBB236:
 758              	.LBB228:
 759              	.LBB226:
 760              	.LBB225:
  62:../../libdaisy/src/hid/audio.h ****     ~AudioHandle() {}
 761              		.loc 5 62 35 view .LVU196
 762 0008 4361     		str	r3, [r0, #20]
 763              	.LVL34:
  62:../../libdaisy/src/hid/audio.h ****     ~AudioHandle() {}
 764              		.loc 5 62 35 view .LVU197
 765              	.LBE225:
 766              	.LBE226:
 767              	.LBE228:
 768              	.LBB229:
 769              	.LBI229:
  84:../../libdaisy/src/per/adc.h ****     ~AdcHandle() {}
 770              		.loc 4 84 5 is_stmt 1 view .LVU198
  84:../../libdaisy/src/per/adc.h ****     ~AdcHandle() {}
 771              		.loc 4 84 5 is_stmt 0 view .LVU199
 772              	.LBE229:
 773              	.LBB230:
 774              	.LBI230:
 775              		.file 10 "../../libdaisy/src/per/dac.h"
   1:../../libdaisy/src/per/dac.h **** #pragma once
ARM GAS  /tmp/cc97yIjF.s 			page 25


   2:../../libdaisy/src/per/dac.h **** #ifndef DSY_DAC_H
   3:../../libdaisy/src/per/dac.h **** #define DSY_DAC_H
   4:../../libdaisy/src/per/dac.h **** 
   5:../../libdaisy/src/per/dac.h **** #include "daisy_core.h"
   6:../../libdaisy/src/per/dac.h **** 
   7:../../libdaisy/src/per/dac.h **** namespace daisy
   8:../../libdaisy/src/per/dac.h **** {
   9:../../libdaisy/src/per/dac.h **** /** DAC handle for Built-in DAC Peripheral 
  10:../../libdaisy/src/per/dac.h ****  ** 
  11:../../libdaisy/src/per/dac.h ****  ** For now only Normal Mode is supported,
  12:../../libdaisy/src/per/dac.h ****  ** Sample and hold mode provides reduced power consumption, but requires a bit more setup.
  13:../../libdaisy/src/per/dac.h ****  **
  14:../../libdaisy/src/per/dac.h ****  ** For now connecting the DAC through other internal periphearls is also not supported.
  15:../../libdaisy/src/per/dac.h ****  **
  16:../../libdaisy/src/per/dac.h ****  ** Since the DAC channels have dedicated pins we don't need to pass in a pin config like with
  17:../../libdaisy/src/per/dac.h ****  ** other modules. However, it is still important to not try to use the DAC pins for anything else.
  18:../../libdaisy/src/per/dac.h ****  ** DAC Channel 1 is on PA4, and DAC Channel 2 is on PA5
  19:../../libdaisy/src/per/dac.h ****  ***/
  20:../../libdaisy/src/per/dac.h **** class DacHandle
  21:../../libdaisy/src/per/dac.h **** {
  22:../../libdaisy/src/per/dac.h ****   public:
  23:../../libdaisy/src/per/dac.h ****     /** Return Values for the DacHandle class */
  24:../../libdaisy/src/per/dac.h ****     enum class Result
  25:../../libdaisy/src/per/dac.h ****     {
  26:../../libdaisy/src/per/dac.h ****         OK,
  27:../../libdaisy/src/per/dac.h ****         ERR,
  28:../../libdaisy/src/per/dac.h ****     };
  29:../../libdaisy/src/per/dac.h **** 
  30:../../libdaisy/src/per/dac.h ****     /** Selects which channel(s) will be configured for use. */
  31:../../libdaisy/src/per/dac.h ****     enum class Channel
  32:../../libdaisy/src/per/dac.h ****     {
  33:../../libdaisy/src/per/dac.h ****         ONE,
  34:../../libdaisy/src/per/dac.h ****         TWO,
  35:../../libdaisy/src/per/dac.h ****         BOTH,
  36:../../libdaisy/src/per/dac.h ****     };
  37:../../libdaisy/src/per/dac.h **** 
  38:../../libdaisy/src/per/dac.h ****     /** Sets the Mode for the DAC channels.
  39:../../libdaisy/src/per/dac.h ****      **
  40:../../libdaisy/src/per/dac.h ****      ** Polling mode uses the blocking mode to transmit a single value at a time.
  41:../../libdaisy/src/per/dac.h ****      **
  42:../../libdaisy/src/per/dac.h ****      ** DMA mode uses a buffer, and periodically transmits it triggering a 
  43:../../libdaisy/src/per/dac.h ****      ** callback to fill the buffer when it is ready for more samples.
  44:../../libdaisy/src/per/dac.h ****      ***/
  45:../../libdaisy/src/per/dac.h ****     enum class Mode
  46:../../libdaisy/src/per/dac.h ****     {
  47:../../libdaisy/src/per/dac.h ****         POLLING,
  48:../../libdaisy/src/per/dac.h ****         DMA,
  49:../../libdaisy/src/per/dac.h ****     };
  50:../../libdaisy/src/per/dac.h **** 
  51:../../libdaisy/src/per/dac.h ****     /** Sets the number of bits per sample transmitted out of the DAC.
  52:../../libdaisy/src/per/dac.h ****      ** The output range will be: 0V - VDDA
  53:../../libdaisy/src/per/dac.h ****      ** The resolution will be roughly: bitdepth / (VDDA - 0V) 
  54:../../libdaisy/src/per/dac.h ****      ***/
  55:../../libdaisy/src/per/dac.h ****     enum class BitDepth
  56:../../libdaisy/src/per/dac.h ****     {
  57:../../libdaisy/src/per/dac.h ****         BITS_8,
  58:../../libdaisy/src/per/dac.h ****         BITS_12
ARM GAS  /tmp/cc97yIjF.s 			page 26


  59:../../libdaisy/src/per/dac.h ****     };
  60:../../libdaisy/src/per/dac.h **** 
  61:../../libdaisy/src/per/dac.h ****     /** Sets whether the DAC output is buffered for higher drive ability. */
  62:../../libdaisy/src/per/dac.h ****     enum class BufferState
  63:../../libdaisy/src/per/dac.h ****     {
  64:../../libdaisy/src/per/dac.h ****         ENABLED,
  65:../../libdaisy/src/per/dac.h ****         DISABLED,
  66:../../libdaisy/src/per/dac.h ****     };
  67:../../libdaisy/src/per/dac.h **** 
  68:../../libdaisy/src/per/dac.h ****     /** Configuration structure for initializing the DAC structure. */
  69:../../libdaisy/src/per/dac.h ****     struct Config
  70:../../libdaisy/src/per/dac.h ****     {
  71:../../libdaisy/src/per/dac.h ****         /** Target Samplerate in Hz used to configure the internal 
  72:../../libdaisy/src/per/dac.h ****          ** timebase for DMA mode. Does nothing in POLLING mode.
  73:../../libdaisy/src/per/dac.h ****          ** If the value is 0 at Init time this will default to 48000Hz 
  74:../../libdaisy/src/per/dac.h ****          ** otherwise the driver will attempt meet the target.*/
  75:../../libdaisy/src/per/dac.h ****         uint32_t target_samplerate;
  76:../../libdaisy/src/per/dac.h **** 
  77:../../libdaisy/src/per/dac.h ****         Channel     chn;
  78:../../libdaisy/src/per/dac.h ****         Mode        mode;
  79:../../libdaisy/src/per/dac.h ****         BitDepth    bitdepth;
  80:../../libdaisy/src/per/dac.h ****         BufferState buff_state;
  81:../../libdaisy/src/per/dac.h ****     };
  82:../../libdaisy/src/per/dac.h **** 
  83:../../libdaisy/src/per/dac.h ****     DacHandle() : pimpl_(nullptr) {}
 776              		.loc 10 83 5 is_stmt 1 view .LVU200
 777              	.LBB231:
 778              	.LBB232:
 779              		.loc 10 83 33 is_stmt 0 view .LVU201
 780 000a 0362     		str	r3, [r0, #32]
 781              	.LVL35:
 782              		.loc 10 83 33 view .LVU202
 783              	.LBE232:
 784              	.LBE231:
 785              	.LBE230:
 786              	.LBB233:
 787              	.LBI233:
  40:../../libdaisy/src/hid/usb.h **** 
 788              		.loc 3 40 5 is_stmt 1 view .LVU203
  40:../../libdaisy/src/hid/usb.h **** 
 789              		.loc 3 40 5 is_stmt 0 view .LVU204
 790              	.LBE233:
 791              	.LBB234:
 792              	.LBI234:
  58:../../libdaisy/src/sys/system.h ****     ~System() {}
 793              		.loc 2 58 5 is_stmt 1 view .LVU205
  58:../../libdaisy/src/sys/system.h ****     ~System() {}
 794              		.loc 2 58 5 is_stmt 0 view .LVU206
 795              	.LBE234:
 796              	.LBE236:
 797              	.LBE238:
   7:smooth_random.cpp **** 
 798              		.loc 8 7 11 view .LVU207
 799 000c 0949     		ldr	r1, .L26+8
 800 000e FFF7FEFF 		bl	__aeabi_atexit
 801              	.LVL36:
 802              	.LBB239:
ARM GAS  /tmp/cc97yIjF.s 			page 27


 803              	.LBI239:
  25:../../DaisySP/Source/Utility/smooth_random.h ****     ~SmoothRandomGenerator() {}
 804              		.loc 7 25 5 is_stmt 1 view .LVU208
  25:../../DaisySP/Source/Utility/smooth_random.h ****     ~SmoothRandomGenerator() {}
 805              		.loc 7 25 5 is_stmt 0 view .LVU209
 806              	.LBE239:
   9:smooth_random.cpp **** Oscillator            osc;
 807              		.loc 8 9 23 view .LVU210
 808 0012 074A     		ldr	r2, .L26+4
 809 0014 0849     		ldr	r1, .L26+12
 810 0016 0948     		ldr	r0, .L26+16
 811 0018 FFF7FEFF 		bl	__aeabi_atexit
 812              	.LVL37:
 813              	.LBB240:
 814              	.LBI240:
  15:../../DaisySP/Source/Synthesis/oscillator.h ****     ~Oscillator() {}
 815              		.loc 6 15 5 is_stmt 1 view .LVU211
  15:../../DaisySP/Source/Synthesis/oscillator.h ****     ~Oscillator() {}
 816              		.loc 6 15 5 is_stmt 0 view .LVU212
 817              	.LBE240:
  10:smooth_random.cpp **** 
 818              		.loc 8 10 23 view .LVU213
 819 001c 044A     		ldr	r2, .L26+4
 820 001e 0849     		ldr	r1, .L26+20
 821 0020 0848     		ldr	r0, .L26+24
 822              	.LBE241:
 823              	.LBE243:
 824              		.loc 8 37 1 view .LVU214
 825 0022 BDE80840 		pop	{r3, lr}
 826              		.cfi_restore 14
 827              		.cfi_restore 3
 828              		.cfi_def_cfa_offset 0
 829              	.LBB244:
 830              	.LBB242:
  10:smooth_random.cpp **** 
 831              		.loc 8 10 23 view .LVU215
 832 0026 FFF7FEBF 		b	__aeabi_atexit
 833              	.LVL38:
 834              	.L27:
 835 002a 00BF     		.align	2
 836              	.L26:
 837 002c 00000000 		.word	.LANCHOR2
 838 0030 00000000 		.word	__dso_handle
 839 0034 00000000 		.word	_ZN5daisy9DaisySeedD1Ev
 840 0038 00000000 		.word	_ZN7daisysp21SmoothRandomGeneratorD1Ev
 841 003c 00000000 		.word	.LANCHOR0
 842 0040 00000000 		.word	_ZN7daisysp10OscillatorD1Ev
 843 0044 00000000 		.word	.LANCHOR1
 844              	.LBE242:
 845              	.LBE244:
 846              		.cfi_endproc
 847              	.LFE4759:
 849              		.section	.init_array,"aw",%init_array
 850              		.align	2
 851 0000 00000000 		.word	_GLOBAL__sub_I_hw(target1)
 852              		.global	osc
 853              		.global	smooth
ARM GAS  /tmp/cc97yIjF.s 			page 28


 854              		.global	hw
 855              		.section	.bss.hw,"aw",%nobits
 856              		.align	2
 857              		.set	.LANCHOR2,. + 0
 860              	hw:
 861 0000 00000000 		.space	60
 861      00000000 
 861      00000000 
 861      00000000 
 861      00000000 
 862              		.section	.bss.osc,"aw",%nobits
 863              		.align	2
 864              		.set	.LANCHOR1,. + 0
 867              	osc:
 868 0000 00000000 		.space	40
 868      00000000 
 868      00000000 
 868      00000000 
 868      00000000 
 869              		.section	.bss.smooth,"aw",%nobits
 870              		.align	2
 871              		.set	.LANCHOR0,. + 0
 874              	smooth:
 875 0000 00000000 		.space	20
 875      00000000 
 875      00000000 
 875      00000000 
 875      00000000 
 876              		.text
 877              	.Letext0:
 878              		.file 11 "/usr/lib/gcc/arm-none-eabi/9.2.1/include/stdint.h"
 879              		.file 12 "../../libdaisy/Drivers/CMSIS/Include/core_cm7.h"
 880              		.file 13 "../../libdaisy/Drivers/CMSIS/Device/ST/STM32H7xx/Include/system_stm32h7xx.h"
 881              		.file 14 "/usr/lib/gcc/arm-none-eabi/9.2.1/include/stddef.h"
 882              		.file 15 "/usr/include/newlib/c++/9.2.1/cmath"
 883              		.file 16 "/usr/include/newlib/c++/9.2.1/bits/std_abs.h"
 884              		.file 17 "/usr/include/newlib/c++/9.2.1/cstdlib"
 885              		.file 18 "/usr/include/newlib/c++/9.2.1/cstdint"
 886              		.file 19 "/usr/include/newlib/c++/9.2.1/type_traits"
 887              		.file 20 "/usr/include/newlib/c++/9.2.1/arm-none-eabi/thumb/v7e-m+dp/hard/bits/c++config.h"
 888              		.file 21 "/usr/include/newlib/c++/9.2.1/bits/stl_pair.h"
 889              		.file 22 "/usr/include/newlib/c++/9.2.1/debug/debug.h"
 890              		.file 23 "/usr/include/newlib/c++/9.2.1/bits/algorithmfwd.h"
 891              		.file 24 "/usr/include/newlib/c++/9.2.1/bits/exception_ptr.h"
 892              		.file 25 "/usr/include/newlib/c++/9.2.1/new"
 893              		.file 26 "/usr/include/newlib/c++/9.2.1/cstdarg"
 894              		.file 27 "/usr/include/newlib/c++/9.2.1/cstdio"
 895              		.file 28 "/usr/include/newlib/c++/9.2.1/cwchar"
 896              		.file 29 "/usr/include/newlib/c++/9.2.1/clocale"
 897              		.file 30 "/usr/include/newlib/c++/9.2.1/bits/basic_string.h"
 898              		.file 31 "/usr/include/newlib/c++/9.2.1/bits/uniform_int_dist.h"
 899              		.file 32 "/usr/include/newlib/c++/9.2.1/bits/random.h"
 900              		.file 33 "/usr/include/newlib/c++/9.2.1/cstring"
 901              		.file 34 "/usr/include/newlib/c++/9.2.1/bits/predefined_ops.h"
 902              		.file 35 "/usr/include/newlib/c++/9.2.1/ext/numeric_traits.h"
 903              		.file 36 "/usr/include/newlib/c++/9.2.1/ext/new_allocator.h"
 904              		.file 37 "/usr/include/newlib/sys/_types.h"
ARM GAS  /tmp/cc97yIjF.s 			page 29


 905              		.file 38 "<built-in>"
 906              		.file 39 "/usr/include/newlib/sys/reent.h"
 907              		.file 40 "/usr/include/newlib/sys/lock.h"
 908              		.file 41 "/usr/include/newlib/math.h"
 909              		.file 42 "/usr/include/newlib/stdlib.h"
 910              		.file 43 "/usr/include/newlib/c++/9.2.1/math.h"
 911              		.file 44 "../../libdaisy/Drivers/STM32H7xx_HAL_Driver/Inc/stm32h7xx_hal_def.h"
 912              		.file 45 "../../libdaisy/Drivers/STM32H7xx_HAL_Driver/Inc/stm32h7xx_hal_flash.h"
 913              		.file 46 "/usr/include/newlib/c++/9.2.1/stdlib.h"
 914              		.file 47 "../../libdaisy/src/daisy_core.h"
 915              		.file 48 "../../libdaisy/src/per/tim.h"
 916              		.file 49 "../../libdaisy/src/per/sai.h"
 917              		.file 50 "../../libdaisy/src/util/wav_format.h"
 918              		.file 51 "../../libdaisy/src/per/qspi.h"
 919              		.file 52 "../../libdaisy/src/per/gpio.h"
 920              		.file 53 "../../libdaisy/src/dev/sdram.h"
 921              		.file 54 "/usr/lib/gcc/arm-none-eabi/9.2.1/include/stdarg.h"
 922              		.file 55 "/usr/include/newlib/stdio.h"
 923              		.file 56 "/usr/include/newlib/sys/unistd.h"
 924              		.file 57 "../../libdaisy/src/util/oled_fonts.h"
 925              		.file 58 "../../libdaisy/Middlewares/Third_Party/FatFs/src/integer.h"
 926              		.file 59 "../../libdaisy/Middlewares/Third_Party/FatFs/src/ff.h"
 927              		.file 60 "../../libdaisy/Middlewares/Third_Party/FatFs/src/diskio.h"
 928              		.file 61 "../../libdaisy/Middlewares/Third_Party/FatFs/src/ff_gen_drv.h"
 929              		.file 62 "../../libdaisy/src/util/sd_diskio.h"
 930              		.file 63 "../../libdaisy/src/sys/fatfs.h"
 931              		.file 64 "../../DaisySP/Source/Control/adenv.h"
 932              		.file 65 "/usr/include/newlib/wchar.h"
 933              		.file 66 "/usr/include/newlib/locale.h"
 934              		.file 67 "/usr/include/newlib/ctype.h"
 935              		.file 68 "/usr/include/newlib/sys/errno.h"
 936              		.file 69 "/usr/include/newlib/string.h"
 937              		.file 70 "../../libdaisy/src/dev/sr_595.h"
ARM GAS  /tmp/cc97yIjF.s 			page 30

