ARM GAS  /tmp/ccPPpVbu.s 			page 1


   1              		.cpu cortex-m7
   2              		.eabi_attribute 28, 1
   3              		.eabi_attribute 20, 1
   4              		.eabi_attribute 21, 1
   5              		.eabi_attribute 23, 3
   6              		.eabi_attribute 24, 1
   7              		.eabi_attribute 25, 1
   8              		.eabi_attribute 26, 1
   9              		.eabi_attribute 30, 2
  10              		.eabi_attribute 34, 1
  11              		.eabi_attribute 18, 4
  12              		.file	"pitchshifter.cpp"
  13              		.text
  14              	.Ltext0:
  15              		.cfi_sections	.debug_frame
  16              		.section	.text._ZN7daisysp10OscillatorD2Ev,"axG",%progbits,_ZN7daisysp10OscillatorD5Ev,comdat
  17              		.align	1
  18              		.p2align 2,,3
  19              		.weak	_ZN7daisysp10OscillatorD2Ev
  20              		.arch armv7e-m
  21              		.syntax unified
  22              		.thumb
  23              		.thumb_func
  24              		.fpu fpv5-d16
  26              	_ZN7daisysp10OscillatorD2Ev:
  27              	.LVL0:
  28              	.LFB2797:
  29              		.file 1 "../../DaisySP/Source/Synthesis/oscillator.h"
   1:../../DaisySP/Source/Synthesis/oscillator.h **** #pragma once
   2:../../DaisySP/Source/Synthesis/oscillator.h **** #ifndef DSY_OSCILLATOR_H
   3:../../DaisySP/Source/Synthesis/oscillator.h **** #define DSY_OSCILLATOR_H
   4:../../DaisySP/Source/Synthesis/oscillator.h **** #include <stdint.h>
   5:../../DaisySP/Source/Synthesis/oscillator.h **** #include "Utility/dsp.h"
   6:../../DaisySP/Source/Synthesis/oscillator.h **** #ifdef __cplusplus
   7:../../DaisySP/Source/Synthesis/oscillator.h **** 
   8:../../DaisySP/Source/Synthesis/oscillator.h **** namespace daisysp
   9:../../DaisySP/Source/Synthesis/oscillator.h **** {
  10:../../DaisySP/Source/Synthesis/oscillator.h **** /** Synthesis of several waveforms, including polyBLEP bandlimited waveforms.
  11:../../DaisySP/Source/Synthesis/oscillator.h **** */
  12:../../DaisySP/Source/Synthesis/oscillator.h **** class Oscillator
  13:../../DaisySP/Source/Synthesis/oscillator.h **** {
  14:../../DaisySP/Source/Synthesis/oscillator.h ****   public:
  15:../../DaisySP/Source/Synthesis/oscillator.h ****     Oscillator() {}
  16:../../DaisySP/Source/Synthesis/oscillator.h ****     ~Oscillator() {}
  30              		.loc 1 16 5 view -0
  31              		.cfi_startproc
  32              		@ args = 0, pretend = 0, frame = 0
  33              		@ frame_needed = 0, uses_anonymous_args = 0
  34              		@ link register save eliminated.
  35              		.loc 1 16 20 is_stmt 0 view .LVU1
  36 0000 7047     		bx	lr
  37              		.cfi_endproc
  38              	.LFE2797:
  40              		.weak	_ZN7daisysp10OscillatorD1Ev
  41              		.thumb_set _ZN7daisysp10OscillatorD1Ev,_ZN7daisysp10OscillatorD2Ev
  42 0002 00BF     		.section	.text._ZN7daisysp12PitchShifterD2Ev,"axG",%progbits,_ZN7daisysp12PitchShifterD5Ev,comdat
  43              		.align	1
ARM GAS  /tmp/ccPPpVbu.s 			page 2


  44              		.p2align 2,,3
  45              		.weak	_ZN7daisysp12PitchShifterD2Ev
  46              		.syntax unified
  47              		.thumb
  48              		.thumb_func
  49              		.fpu fpv5-d16
  51              	_ZN7daisysp12PitchShifterD2Ev:
  52              	.LVL1:
  53              	.LFB3022:
  54              		.file 2 "../../DaisySP/Source/Effects/pitchshifter.h"
   1:../../DaisySP/Source/Effects/pitchshifter.h **** #pragma once
   2:../../DaisySP/Source/Effects/pitchshifter.h **** #ifndef DSY_PITCHSHIFTER_H
   3:../../DaisySP/Source/Effects/pitchshifter.h **** #define DSY_PITCHSHIFTER_H
   4:../../DaisySP/Source/Effects/pitchshifter.h **** #include <stdint.h>
   5:../../DaisySP/Source/Effects/pitchshifter.h **** #include <cmath>
   6:../../DaisySP/Source/Effects/pitchshifter.h **** #ifdef USE_ARM_DSP
   7:../../DaisySP/Source/Effects/pitchshifter.h **** #include "arm_math.h"
   8:../../DaisySP/Source/Effects/pitchshifter.h **** #endif
   9:../../DaisySP/Source/Effects/pitchshifter.h **** #include "Utility/dsp.h"
  10:../../DaisySP/Source/Effects/pitchshifter.h **** #include "Utility/delayline.h"
  11:../../DaisySP/Source/Effects/pitchshifter.h **** #include "Control/phasor.h"
  12:../../DaisySP/Source/Effects/pitchshifter.h **** 
  13:../../DaisySP/Source/Effects/pitchshifter.h **** /** Shift can be 30-100 ms lets just start with 50 for now.
  14:../../DaisySP/Source/Effects/pitchshifter.h **** 0.050 * SR = 2400 samples (at 48kHz)
  15:../../DaisySP/Source/Effects/pitchshifter.h **** */
  16:../../DaisySP/Source/Effects/pitchshifter.h **** #define SHIFT_BUFFER_SIZE 16384
  17:../../DaisySP/Source/Effects/pitchshifter.h **** //#define SHIFT_BUFFER_SIZE 4800
  18:../../DaisySP/Source/Effects/pitchshifter.h **** //#define SHIFT_BUFFER_SIZE 8192
  19:../../DaisySP/Source/Effects/pitchshifter.h **** //#define SHIFT_BUFFER_SIZE 1024
  20:../../DaisySP/Source/Effects/pitchshifter.h **** 
  21:../../DaisySP/Source/Effects/pitchshifter.h **** namespace daisysp
  22:../../DaisySP/Source/Effects/pitchshifter.h **** {
  23:../../DaisySP/Source/Effects/pitchshifter.h **** static inline uint32_t hash_xs32(uint32_t x)
  24:../../DaisySP/Source/Effects/pitchshifter.h **** {
  25:../../DaisySP/Source/Effects/pitchshifter.h ****     x ^= x << 13;
  26:../../DaisySP/Source/Effects/pitchshifter.h ****     x ^= x >> 17;
  27:../../DaisySP/Source/Effects/pitchshifter.h ****     x ^= x << 5;
  28:../../DaisySP/Source/Effects/pitchshifter.h ****     return x;
  29:../../DaisySP/Source/Effects/pitchshifter.h **** }
  30:../../DaisySP/Source/Effects/pitchshifter.h **** 
  31:../../DaisySP/Source/Effects/pitchshifter.h **** inline uint32_t myrand()
  32:../../DaisySP/Source/Effects/pitchshifter.h **** {
  33:../../DaisySP/Source/Effects/pitchshifter.h ****     static uint32_t seed = 1;
  34:../../DaisySP/Source/Effects/pitchshifter.h ****     seed                 = hash_xs32(seed);
  35:../../DaisySP/Source/Effects/pitchshifter.h ****     return seed;
  36:../../DaisySP/Source/Effects/pitchshifter.h **** }
  37:../../DaisySP/Source/Effects/pitchshifter.h **** 
  38:../../DaisySP/Source/Effects/pitchshifter.h **** /**  time-domain pitchshifter
  39:../../DaisySP/Source/Effects/pitchshifter.h **** 
  40:../../DaisySP/Source/Effects/pitchshifter.h **** Author: shensley
  41:../../DaisySP/Source/Effects/pitchshifter.h **** 
  42:../../DaisySP/Source/Effects/pitchshifter.h **** Based on "Pitch Shifting" from ucsd.edu 
  43:../../DaisySP/Source/Effects/pitchshifter.h **** 
  44:../../DaisySP/Source/Effects/pitchshifter.h **** t = 1 - ((s *f) / R)
  45:../../DaisySP/Source/Effects/pitchshifter.h **** 
  46:../../DaisySP/Source/Effects/pitchshifter.h **** where:
  47:../../DaisySP/Source/Effects/pitchshifter.h ****     s is the size of the delay
ARM GAS  /tmp/ccPPpVbu.s 			page 3


  48:../../DaisySP/Source/Effects/pitchshifter.h ****     f is the frequency of the lfo
  49:../../DaisySP/Source/Effects/pitchshifter.h ****     r is the sample_rate
  50:../../DaisySP/Source/Effects/pitchshifter.h **** 
  51:../../DaisySP/Source/Effects/pitchshifter.h **** solving for t = 12.0
  52:../../DaisySP/Source/Effects/pitchshifter.h **** f = (12 - 1) * 48000 / SHIFT_BUFFER_SIZE;
  53:../../DaisySP/Source/Effects/pitchshifter.h **** 
  54:../../DaisySP/Source/Effects/pitchshifter.h **** \todo - move hash_xs32 and myrand to dsp.h and give appropriate names
  55:../../DaisySP/Source/Effects/pitchshifter.h **** */
  56:../../DaisySP/Source/Effects/pitchshifter.h **** class PitchShifter
  57:../../DaisySP/Source/Effects/pitchshifter.h **** {
  58:../../DaisySP/Source/Effects/pitchshifter.h ****   public:
  59:../../DaisySP/Source/Effects/pitchshifter.h ****     PitchShifter() {}
  60:../../DaisySP/Source/Effects/pitchshifter.h ****     ~PitchShifter() {}
  55              		.loc 2 60 5 is_stmt 1 view -0
  56              		.cfi_startproc
  57              		@ args = 0, pretend = 0, frame = 0
  58              		@ frame_needed = 0, uses_anonymous_args = 0
  59              		@ link register save eliminated.
  60              		.loc 2 60 22 is_stmt 0 view .LVU3
  61 0000 7047     		bx	lr
  62              		.cfi_endproc
  63              	.LFE3022:
  65              		.weak	_ZN7daisysp12PitchShifterD1Ev
  66              		.thumb_set _ZN7daisysp12PitchShifterD1Ev,_ZN7daisysp12PitchShifterD2Ev
  67 0002 00BF     		.section	.text._ZN5daisy9DaisySeedD2Ev,"axG",%progbits,_ZN5daisy9DaisySeedD5Ev,comdat
  68              		.align	1
  69              		.p2align 2,,3
  70              		.weak	_ZN5daisy9DaisySeedD2Ev
  71              		.syntax unified
  72              		.thumb
  73              		.thumb_func
  74              		.fpu fpv5-d16
  76              	_ZN5daisy9DaisySeedD2Ev:
  77              	.LVL2:
  78              	.LFB4207:
  79              		.file 3 "../../libdaisy/src/daisy_seed.h"
   1:../../libdaisy/src/daisy_seed.h **** #pragma once
   2:../../libdaisy/src/daisy_seed.h **** #ifndef DSY_SEED_H
   3:../../libdaisy/src/daisy_seed.h **** #define DSY_SEED_H
   4:../../libdaisy/src/daisy_seed.h **** 
   5:../../libdaisy/src/daisy_seed.h **** #include "daisy.h"
   6:../../libdaisy/src/daisy_seed.h **** 
   7:../../libdaisy/src/daisy_seed.h **** //Uncomment this out if you're still using the rev2 hardware
   8:../../libdaisy/src/daisy_seed.h **** //#define SEED_REV2
   9:../../libdaisy/src/daisy_seed.h **** 
  10:../../libdaisy/src/daisy_seed.h **** namespace daisy
  11:../../libdaisy/src/daisy_seed.h **** {
  12:../../libdaisy/src/daisy_seed.h **** /**
  13:../../libdaisy/src/daisy_seed.h ****    @brief This is the higher-level interface for the Daisy board. \n 
  14:../../libdaisy/src/daisy_seed.h ****     All basic peripheral configuration/initialization is setup here. \n
  15:../../libdaisy/src/daisy_seed.h **** 
  16:../../libdaisy/src/daisy_seed.h ****    @ingroup boards
  17:../../libdaisy/src/daisy_seed.h **** */
  18:../../libdaisy/src/daisy_seed.h **** class DaisySeed
  19:../../libdaisy/src/daisy_seed.h **** {
  20:../../libdaisy/src/daisy_seed.h ****   public:
  21:../../libdaisy/src/daisy_seed.h ****     DaisySeed() {}
ARM GAS  /tmp/ccPPpVbu.s 			page 4


  22:../../libdaisy/src/daisy_seed.h ****     ~DaisySeed() {}
  80              		.loc 3 22 5 is_stmt 1 view -0
  81              		.cfi_startproc
  82              		@ args = 0, pretend = 0, frame = 0
  83              		@ frame_needed = 0, uses_anonymous_args = 0
  84              		@ link register save eliminated.
  85              	.LBB130:
  86              	.LBI130:
  87              		.file 4 "../../libdaisy/src/sys/system.h"
   1:../../libdaisy/src/sys/system.h **** #ifndef DSY_SYSTEM_H
   2:../../libdaisy/src/sys/system.h **** #define DSY_SYSTEM_H
   3:../../libdaisy/src/sys/system.h **** 
   4:../../libdaisy/src/sys/system.h **** #ifndef UNIT_TEST // for unit tests, a dummy implementation is provided below
   5:../../libdaisy/src/sys/system.h **** 
   6:../../libdaisy/src/sys/system.h **** #include <cstdint>
   7:../../libdaisy/src/sys/system.h **** #include "per/tim.h"
   8:../../libdaisy/src/sys/system.h **** 
   9:../../libdaisy/src/sys/system.h **** namespace daisy
  10:../../libdaisy/src/sys/system.h **** {
  11:../../libdaisy/src/sys/system.h **** /** A handle for interacting with the Core System. 
  12:../../libdaisy/src/sys/system.h ****  ** This includes the Clock tree, MPU, global DMA initialization,
  13:../../libdaisy/src/sys/system.h ****  ** cache handling, and any other necessary global initiailzation
  14:../../libdaisy/src/sys/system.h ****  **
  15:../../libdaisy/src/sys/system.h ****  ** @author shensley
  16:../../libdaisy/src/sys/system.h ****  ** @addtogroup system
  17:../../libdaisy/src/sys/system.h ****  */
  18:../../libdaisy/src/sys/system.h **** class System
  19:../../libdaisy/src/sys/system.h **** {
  20:../../libdaisy/src/sys/system.h ****   public:
  21:../../libdaisy/src/sys/system.h ****     /** Contains settings for initializing the System */
  22:../../libdaisy/src/sys/system.h ****     struct Config
  23:../../libdaisy/src/sys/system.h ****     {
  24:../../libdaisy/src/sys/system.h ****         /** Specifies the system clock frequency that feeds APB/AHB clocks, etc. */
  25:../../libdaisy/src/sys/system.h ****         enum class SysClkFreq
  26:../../libdaisy/src/sys/system.h ****         {
  27:../../libdaisy/src/sys/system.h ****             FREQ_400MHZ,
  28:../../libdaisy/src/sys/system.h ****             FREQ_480MHZ,
  29:../../libdaisy/src/sys/system.h ****         };
  30:../../libdaisy/src/sys/system.h **** 
  31:../../libdaisy/src/sys/system.h ****         /** Method to call on the struct to set to defaults
  32:../../libdaisy/src/sys/system.h ****          ** CPU Freq set to 400MHz
  33:../../libdaisy/src/sys/system.h ****          ** Cache Enabled 
  34:../../libdaisy/src/sys/system.h ****          ** */
  35:../../libdaisy/src/sys/system.h ****         void Defaults()
  36:../../libdaisy/src/sys/system.h ****         {
  37:../../libdaisy/src/sys/system.h ****             cpu_freq   = SysClkFreq::FREQ_400MHZ;
  38:../../libdaisy/src/sys/system.h ****             use_dcache = true;
  39:../../libdaisy/src/sys/system.h ****             use_icache = true;
  40:../../libdaisy/src/sys/system.h ****         }
  41:../../libdaisy/src/sys/system.h **** 
  42:../../libdaisy/src/sys/system.h ****         /** Method to call on the struct to set to boost mode:
  43:../../libdaisy/src/sys/system.h ****          ** CPU Freq set to 480MHz
  44:../../libdaisy/src/sys/system.h ****          ** Cache Enabled 
  45:../../libdaisy/src/sys/system.h ****          ** */
  46:../../libdaisy/src/sys/system.h ****         void Boost()
  47:../../libdaisy/src/sys/system.h ****         {
  48:../../libdaisy/src/sys/system.h ****             cpu_freq   = SysClkFreq::FREQ_480MHZ;
ARM GAS  /tmp/ccPPpVbu.s 			page 5


  49:../../libdaisy/src/sys/system.h ****             use_dcache = true;
  50:../../libdaisy/src/sys/system.h ****             use_icache = true;
  51:../../libdaisy/src/sys/system.h ****         }
  52:../../libdaisy/src/sys/system.h **** 
  53:../../libdaisy/src/sys/system.h ****         SysClkFreq cpu_freq;
  54:../../libdaisy/src/sys/system.h ****         bool       use_dcache;
  55:../../libdaisy/src/sys/system.h ****         bool       use_icache;
  56:../../libdaisy/src/sys/system.h ****     };
  57:../../libdaisy/src/sys/system.h **** 
  58:../../libdaisy/src/sys/system.h ****     System() {}
  59:../../libdaisy/src/sys/system.h ****     ~System() {}
  88              		.loc 4 59 5 view .LVU5
  89              		.loc 4 59 5 is_stmt 0 view .LVU6
  90              	.LBE130:
  91              	.LBB131:
  92              	.LBI131:
  93              		.file 5 "../../libdaisy/src/hid/usb.h"
   1:../../libdaisy/src/hid/usb.h **** #pragma once
   2:../../libdaisy/src/hid/usb.h **** #ifndef DSY_HID_USB_H
   3:../../libdaisy/src/hid/usb.h **** #define DSY_HID_USB_H
   4:../../libdaisy/src/hid/usb.h **** #include <stdint.h>
   5:../../libdaisy/src/hid/usb.h **** #include <stdlib.h>
   6:../../libdaisy/src/hid/usb.h **** 
   7:../../libdaisy/src/hid/usb.h **** namespace daisy
   8:../../libdaisy/src/hid/usb.h **** /** @addtogroup externals
   9:../../libdaisy/src/hid/usb.h ****     @{
  10:../../libdaisy/src/hid/usb.h **** */
  11:../../libdaisy/src/hid/usb.h **** 
  12:../../libdaisy/src/hid/usb.h **** {
  13:../../libdaisy/src/hid/usb.h **** /** 
  14:../../libdaisy/src/hid/usb.h ****     @brief Interface for initializing and using the USB Peripherals on the daisy
  15:../../libdaisy/src/hid/usb.h ****     @author Stephen Hensley
  16:../../libdaisy/src/hid/usb.h ****     @date December 2019
  17:../../libdaisy/src/hid/usb.h **** */
  18:../../libdaisy/src/hid/usb.h **** class UsbHandle
  19:../../libdaisy/src/hid/usb.h **** {
  20:../../libdaisy/src/hid/usb.h ****   public:
  21:../../libdaisy/src/hid/usb.h ****     /** Return values for USBHandle Functions */
  22:../../libdaisy/src/hid/usb.h ****     enum class Result
  23:../../libdaisy/src/hid/usb.h ****     {
  24:../../libdaisy/src/hid/usb.h ****         OK,
  25:../../libdaisy/src/hid/usb.h ****         ERR,
  26:../../libdaisy/src/hid/usb.h ****     };
  27:../../libdaisy/src/hid/usb.h **** 
  28:../../libdaisy/src/hid/usb.h ****     /** Specified which of the two USB Peripherals to initialize. */
  29:../../libdaisy/src/hid/usb.h ****     enum UsbPeriph
  30:../../libdaisy/src/hid/usb.h ****     {
  31:../../libdaisy/src/hid/usb.h ****         FS_INTERNAL, /**< Internal pin */
  32:../../libdaisy/src/hid/usb.h ****         FS_EXTERNAL, /**< FS External D+ pin is Pin 38 (GPIO32). FS External D- pin is Pin 37 (GPIO
  33:../../libdaisy/src/hid/usb.h ****         FS_BOTH,     /**< Both */
  34:../../libdaisy/src/hid/usb.h ****     };
  35:../../libdaisy/src/hid/usb.h **** 
  36:../../libdaisy/src/hid/usb.h **** 
  37:../../libdaisy/src/hid/usb.h ****     /** Function called upon reception of a buffer */
  38:../../libdaisy/src/hid/usb.h ****     typedef void (*ReceiveCallback)(uint8_t* buff, uint32_t* len);
  39:../../libdaisy/src/hid/usb.h **** 
  40:../../libdaisy/src/hid/usb.h ****     UsbHandle() {}
ARM GAS  /tmp/ccPPpVbu.s 			page 6


  41:../../libdaisy/src/hid/usb.h **** 
  42:../../libdaisy/src/hid/usb.h ****     ~UsbHandle() {}
  94              		.loc 5 42 5 is_stmt 1 view .LVU7
  95              		.loc 5 42 5 is_stmt 0 view .LVU8
  96              	.LBE131:
  97              	.LBB132:
  98              	.LBI132:
  99              		.file 6 "../../libdaisy/src/per/adc.h"
   1:../../libdaisy/src/per/adc.h **** #pragma once
   2:../../libdaisy/src/per/adc.h **** #ifndef DSY_ADC_H
   3:../../libdaisy/src/per/adc.h **** #define DSY_ADC_H /**< Macro */
   4:../../libdaisy/src/per/adc.h **** #include <stdint.h>
   5:../../libdaisy/src/per/adc.h **** #include <stdlib.h>
   6:../../libdaisy/src/per/adc.h **** #include "daisy_core.h"
   7:../../libdaisy/src/per/adc.h **** #include "per/gpio.h"
   8:../../libdaisy/src/per/adc.h **** 
   9:../../libdaisy/src/per/adc.h **** #define DSY_ADC_MAX_CHANNELS 14 /**< Maximum number of ADC channels */
  10:../../libdaisy/src/per/adc.h **** 
  11:../../libdaisy/src/per/adc.h **** namespace daisy
  12:../../libdaisy/src/per/adc.h **** {
  13:../../libdaisy/src/per/adc.h **** /** @addtogroup analog_digital_conversion
  14:../../libdaisy/src/per/adc.h ****     @{
  15:../../libdaisy/src/per/adc.h **** */
  16:../../libdaisy/src/per/adc.h **** 
  17:../../libdaisy/src/per/adc.h **** /* While there may not be many configuration options here,
  18:../../libdaisy/src/per/adc.h **** using a struct like this allows us to add more configuration
  19:../../libdaisy/src/per/adc.h **** later without breaking existing functionality.
  20:../../libdaisy/src/per/adc.h **** */
  21:../../libdaisy/src/per/adc.h **** 
  22:../../libdaisy/src/per/adc.h **** /** Configuration Structure for a given channel */
  23:../../libdaisy/src/per/adc.h **** struct AdcChannelConfig
  24:../../libdaisy/src/per/adc.h **** {
  25:../../libdaisy/src/per/adc.h ****     /** Which pin to use for multiplexing */
  26:../../libdaisy/src/per/adc.h ****     enum MuxPin
  27:../../libdaisy/src/per/adc.h ****     {
  28:../../libdaisy/src/per/adc.h ****         MUX_SEL_0,    /**< & */
  29:../../libdaisy/src/per/adc.h ****         MUX_SEL_1,    /**< & */
  30:../../libdaisy/src/per/adc.h ****         MUX_SEL_2,    /**< & */
  31:../../libdaisy/src/per/adc.h ****         MUX_SEL_LAST, /**< & */
  32:../../libdaisy/src/per/adc.h ****     };
  33:../../libdaisy/src/per/adc.h **** 
  34:../../libdaisy/src/per/adc.h ****     /** Initializes a single ADC pin as an ADC. 
  35:../../libdaisy/src/per/adc.h ****     \param pin Pin to init.
  36:../../libdaisy/src/per/adc.h ****      */
  37:../../libdaisy/src/per/adc.h ****     void InitSingle(dsy_gpio_pin pin);
  38:../../libdaisy/src/per/adc.h **** 
  39:../../libdaisy/src/per/adc.h ****     /** 
  40:../../libdaisy/src/per/adc.h ****     Initializes a single ADC pin as a Multiplexed ADC.
  41:../../libdaisy/src/per/adc.h ****     Requires a CD405X Multiplexer connected to the pin.
  42:../../libdaisy/src/per/adc.h ****     You only need to supply the mux pins that are required,
  43:../../libdaisy/src/per/adc.h ****     e.g. a 4052 mux would only require mux_0 and mux_1.
  44:../../libdaisy/src/per/adc.h ****     Internal Callbacks handle the pin addressing.
  45:../../libdaisy/src/per/adc.h ****     \param mux_channels must be 1-8
  46:../../libdaisy/src/per/adc.h ****     \param mux_0 First mux pin
  47:../../libdaisy/src/per/adc.h ****     \param mux_1 Second mux pin
  48:../../libdaisy/src/per/adc.h ****     \param mux_2 Third mux pin
  49:../../libdaisy/src/per/adc.h ****     \param adc_pin &
ARM GAS  /tmp/ccPPpVbu.s 			page 7


  50:../../libdaisy/src/per/adc.h ****     */
  51:../../libdaisy/src/per/adc.h ****     void InitMux(dsy_gpio_pin adc_pin,
  52:../../libdaisy/src/per/adc.h ****                  size_t       mux_channels,
  53:../../libdaisy/src/per/adc.h ****                  dsy_gpio_pin mux_0,
  54:../../libdaisy/src/per/adc.h ****                  dsy_gpio_pin mux_1 = {DSY_GPIOX, 0},
  55:../../libdaisy/src/per/adc.h ****                  dsy_gpio_pin mux_2 = {DSY_GPIOX, 0});
  56:../../libdaisy/src/per/adc.h **** 
  57:../../libdaisy/src/per/adc.h ****     dsy_gpio pin_;                   /**< & */
  58:../../libdaisy/src/per/adc.h ****     dsy_gpio mux_pin_[MUX_SEL_LAST]; /**< & */
  59:../../libdaisy/src/per/adc.h ****     uint8_t  mux_channels_;          /**< & */
  60:../../libdaisy/src/per/adc.h **** };
  61:../../libdaisy/src/per/adc.h **** 
  62:../../libdaisy/src/per/adc.h **** /**
  63:../../libdaisy/src/per/adc.h ****    Handler for analog to digital conversion
  64:../../libdaisy/src/per/adc.h **** */
  65:../../libdaisy/src/per/adc.h **** class AdcHandle
  66:../../libdaisy/src/per/adc.h **** {
  67:../../libdaisy/src/per/adc.h ****   public:
  68:../../libdaisy/src/per/adc.h ****     /** Supported oversampling amounts */
  69:../../libdaisy/src/per/adc.h ****     enum OverSampling
  70:../../libdaisy/src/per/adc.h ****     {
  71:../../libdaisy/src/per/adc.h ****         OVS_NONE, /**< & */
  72:../../libdaisy/src/per/adc.h ****         OVS_4,    /**< & */
  73:../../libdaisy/src/per/adc.h ****         OVS_8,    /**< & */
  74:../../libdaisy/src/per/adc.h ****         OVS_16,   /**< & */
  75:../../libdaisy/src/per/adc.h ****         OVS_32,   /**< & */
  76:../../libdaisy/src/per/adc.h ****         OVS_64,   /**< & */
  77:../../libdaisy/src/per/adc.h ****         OVS_128,  /**< & */
  78:../../libdaisy/src/per/adc.h ****         OVS_256,  /**< & */
  79:../../libdaisy/src/per/adc.h ****         OVS_512,  /**< & */
  80:../../libdaisy/src/per/adc.h ****         OVS_1024, /**< & */
  81:../../libdaisy/src/per/adc.h ****         OVS_LAST, /**< & */
  82:../../libdaisy/src/per/adc.h ****     };
  83:../../libdaisy/src/per/adc.h **** 
  84:../../libdaisy/src/per/adc.h ****     AdcHandle() {}
  85:../../libdaisy/src/per/adc.h ****     ~AdcHandle() {}
 100              		.loc 6 85 5 is_stmt 1 view .LVU9
 101              		.loc 6 85 5 is_stmt 0 view .LVU10
 102              	.LBE132:
 103              	.LBB133:
 104              	.LBI133:
 105              		.file 7 "../../libdaisy/src/hid/audio.h"
   1:../../libdaisy/src/hid/audio.h **** #ifndef DSY_AUDIO_H
   2:../../libdaisy/src/hid/audio.h **** #define DSY_AUDIO_H /**< & */
   3:../../libdaisy/src/hid/audio.h **** 
   4:../../libdaisy/src/hid/audio.h **** #include "per/sai.h"
   5:../../libdaisy/src/hid/audio.h **** 
   6:../../libdaisy/src/hid/audio.h **** namespace daisy
   7:../../libdaisy/src/hid/audio.h **** {
   8:../../libdaisy/src/hid/audio.h **** class AudioHandle
   9:../../libdaisy/src/hid/audio.h **** {
  10:../../libdaisy/src/hid/audio.h ****   public:
  11:../../libdaisy/src/hid/audio.h ****     /** Manually configurable details about the Audio Engine */
  12:../../libdaisy/src/hid/audio.h ****     /** TODO: Figure out how to get samplerate in here. */
  13:../../libdaisy/src/hid/audio.h ****     struct Config
  14:../../libdaisy/src/hid/audio.h ****     {
  15:../../libdaisy/src/hid/audio.h ****         size_t                        blocksize;
ARM GAS  /tmp/ccPPpVbu.s 			page 8


  16:../../libdaisy/src/hid/audio.h ****         SaiHandle::Config::SampleRate samplerate;
  17:../../libdaisy/src/hid/audio.h ****         float                         postgain;
  18:../../libdaisy/src/hid/audio.h ****     };
  19:../../libdaisy/src/hid/audio.h **** 
  20:../../libdaisy/src/hid/audio.h ****     enum class Result
  21:../../libdaisy/src/hid/audio.h ****     {
  22:../../libdaisy/src/hid/audio.h ****         OK,
  23:../../libdaisy/src/hid/audio.h ****         ERR,
  24:../../libdaisy/src/hid/audio.h ****     };
  25:../../libdaisy/src/hid/audio.h **** 
  26:../../libdaisy/src/hid/audio.h ****     /** Non-Interleaving input buffer
  27:../../libdaisy/src/hid/audio.h ****      * Buffer arranged by float[chn][sample] 
  28:../../libdaisy/src/hid/audio.h ****      * const so that the user can't modify the input
  29:../../libdaisy/src/hid/audio.h ****     */
  30:../../libdaisy/src/hid/audio.h ****     typedef const float* const* InputBuffer;
  31:../../libdaisy/src/hid/audio.h **** 
  32:../../libdaisy/src/hid/audio.h ****     /** Non-Interleaving output buffer
  33:../../libdaisy/src/hid/audio.h ****      * Arranged by float[chn][sample] 
  34:../../libdaisy/src/hid/audio.h ****     */
  35:../../libdaisy/src/hid/audio.h ****     typedef float** OutputBuffer;
  36:../../libdaisy/src/hid/audio.h **** 
  37:../../libdaisy/src/hid/audio.h ****     /** Type for a Non-Interleaving audio callback 
  38:../../libdaisy/src/hid/audio.h ****    * Non-Interleaving audio callbacks in daisy will be of this type
  39:../../libdaisy/src/hid/audio.h ****   */
  40:../../libdaisy/src/hid/audio.h ****     typedef void (*AudioCallback)(InputBuffer  in,
  41:../../libdaisy/src/hid/audio.h ****                                   OutputBuffer out,
  42:../../libdaisy/src/hid/audio.h ****                                   size_t       size);
  43:../../libdaisy/src/hid/audio.h **** 
  44:../../libdaisy/src/hid/audio.h ****     /** Interleaving Input buffer
  45:../../libdaisy/src/hid/audio.h ****      ** audio is prepared as { L0, R0, L1, R1, . . . LN, RN }]
  46:../../libdaisy/src/hid/audio.h ****      ** this is const, as the user shouldn't modify it
  47:../../libdaisy/src/hid/audio.h ****     */
  48:../../libdaisy/src/hid/audio.h ****     typedef const float* InterleavingInputBuffer;
  49:../../libdaisy/src/hid/audio.h **** 
  50:../../libdaisy/src/hid/audio.h ****     /** Interleaving Output buffer 
  51:../../libdaisy/src/hid/audio.h ****      ** audio is prepared as { L0, R0, L1, R1, . . . LN, RN }
  52:../../libdaisy/src/hid/audio.h ****     */
  53:../../libdaisy/src/hid/audio.h ****     typedef float* InterleavingOutputBuffer;
  54:../../libdaisy/src/hid/audio.h **** 
  55:../../libdaisy/src/hid/audio.h ****     /** Interleaving Audio Callback 
  56:../../libdaisy/src/hid/audio.h ****    * Interleaving audio callbacks in daisy must be of this type
  57:../../libdaisy/src/hid/audio.h ****   */
  58:../../libdaisy/src/hid/audio.h ****     typedef void (*InterleavingAudioCallback)(InterleavingInputBuffer  in,
  59:../../libdaisy/src/hid/audio.h ****                                               InterleavingOutputBuffer out,
  60:../../libdaisy/src/hid/audio.h ****                                               size_t                   size);
  61:../../libdaisy/src/hid/audio.h **** 
  62:../../libdaisy/src/hid/audio.h ****     AudioHandle() : pimpl_(nullptr) {}
  63:../../libdaisy/src/hid/audio.h ****     ~AudioHandle() {}
 106              		.loc 7 63 5 is_stmt 1 view .LVU11
 107              		.loc 7 63 5 is_stmt 0 view .LVU12
 108              	.LBE133:
 109              		.loc 3 22 19 view .LVU13
 110 0000 7047     		bx	lr
 111              		.cfi_endproc
 112              	.LFE4207:
 114              		.weak	_ZN5daisy9DaisySeedD1Ev
 115              		.thumb_set _ZN5daisy9DaisySeedD1Ev,_ZN5daisy9DaisySeedD2Ev
ARM GAS  /tmp/ccPPpVbu.s 			page 9


 116 0002 00BF     		.section	.text._ZL13AudioCallbackPKfPfj,"ax",%progbits
 117              		.align	1
 118              		.p2align 2,,3
 119              		.syntax unified
 120              		.thumb
 121              		.thumb_func
 122              		.fpu fpv5-d16
 124              	_ZL13AudioCallbackPKfPfj:
 125              	.LVL3:
 126              	.LFB4212:
 127              		.file 8 "pitchshifter.cpp"
   1:pitchshifter.cpp **** // Example that takes the mono input from channel 1 (left input),
   2:pitchshifter.cpp **** // and pitchshifts it up 1 octave.
   3:pitchshifter.cpp **** // The left output will be pitchshifteed, while the right output
   4:pitchshifter.cpp **** // stays will be the unshifted left input.
   5:pitchshifter.cpp **** 
   6:pitchshifter.cpp **** #include "daisysp.h"
   7:pitchshifter.cpp **** #include "daisy_seed.h"
   8:pitchshifter.cpp **** 
   9:pitchshifter.cpp **** // Defines for Interleaved Audio
  10:pitchshifter.cpp **** #define LEFT (i)
  11:pitchshifter.cpp **** #define RIGHT (i + 1)
  12:pitchshifter.cpp **** 
  13:pitchshifter.cpp **** using namespace daisysp;
  14:pitchshifter.cpp **** using namespace daisy;
  15:pitchshifter.cpp **** 
  16:pitchshifter.cpp **** DaisySeed    seed;
  17:pitchshifter.cpp **** PitchShifter ps;
  18:pitchshifter.cpp **** Oscillator   osc;
  19:pitchshifter.cpp **** 
  20:pitchshifter.cpp **** static void AudioCallback(AudioHandle::InterleavingInputBuffer  in,
  21:pitchshifter.cpp ****                           AudioHandle::InterleavingOutputBuffer out,
  22:pitchshifter.cpp ****                           size_t                                size)
  23:pitchshifter.cpp **** {
 128              		.loc 8 23 1 is_stmt 1 view -0
 129              		.cfi_startproc
 130              		@ args = 0, pretend = 0, frame = 8
 131              		@ frame_needed = 0, uses_anonymous_args = 0
  24:pitchshifter.cpp ****     float shifted, unshifted;
 132              		.loc 8 24 5 view .LVU15
  25:pitchshifter.cpp ****     for(size_t i = 0; i < size; i += 2)
 133              		.loc 8 25 5 view .LVU16
 134              	.LBB165:
 135              		.loc 8 25 25 view .LVU17
 136 0000 002A     		cmp	r2, #0
 137 0002 00F09881 		beq	.L18
 138              		.loc 8 25 16 is_stmt 0 view .LVU18
 139 0006 0023     		movs	r3, #0
 140 0008 013A     		subs	r2, r2, #1
 141              	.LVL4:
 142              		.loc 8 25 16 view .LVU19
 143              	.LBE165:
  23:pitchshifter.cpp ****     float shifted, unshifted;
 144              		.loc 8 23 1 view .LVU20
 145 000a 2DE9F04F 		push	{r4, r5, r6, r7, r8, r9, r10, fp, lr}
 146              		.cfi_def_cfa_offset 36
 147              		.cfi_offset 4, -36
ARM GAS  /tmp/ccPPpVbu.s 			page 10


 148              		.cfi_offset 5, -32
 149              		.cfi_offset 6, -28
 150              		.cfi_offset 7, -24
 151              		.cfi_offset 8, -20
 152              		.cfi_offset 9, -16
 153              		.cfi_offset 10, -12
 154              		.cfi_offset 11, -8
 155              		.cfi_offset 14, -4
 156 000e DFF87C83 		ldr	r8, .L23+84
 157 0012 8946     		mov	r9, r1
 158 0014 C84C     		ldr	r4, .L23
 159 0016 08F10407 		add	r7, r8, #4
 160 001a C84D     		ldr	r5, .L23+4
 161 001c 2DED048B 		vpush.64	{d8, d9}
 162              		.cfi_def_cfa_offset 52
 163              		.cfi_offset 80, -52
 164              		.cfi_offset 81, -48
 165              		.cfi_offset 82, -44
 166              		.cfi_offset 83, -40
 167 0020 83B0     		sub	sp, sp, #12
 168              		.cfi_def_cfa_offset 64
 169 0022 07F1040B 		add	fp, r7, #4
 170 0026 07F1080A 		add	r10, r7, #8
 171              	.LBB343:
 172              		.loc 8 25 16 view .LVU21
 173 002a 0093     		str	r3, [sp]
 174 002c 22F00103 		bic	r3, r2, #1
 175 0030 0193     		str	r3, [sp, #4]
 176 0032 D3E0     		b	.L13
 177              	.LVL5:
 178              	.L21:
 179              	.LBB166:
 180              	.LBB167:
  61:../../DaisySP/Source/Effects/pitchshifter.h ****     /** Initialize pitch shifter
  62:../../DaisySP/Source/Effects/pitchshifter.h ****     */
  63:../../DaisySP/Source/Effects/pitchshifter.h ****     void Init(float sr)
  64:../../DaisySP/Source/Effects/pitchshifter.h ****     {
  65:../../DaisySP/Source/Effects/pitchshifter.h ****         force_recalc_ = false;
  66:../../DaisySP/Source/Effects/pitchshifter.h ****         sr_           = sr;
  67:../../DaisySP/Source/Effects/pitchshifter.h ****         mod_freq_     = 5.0f;
  68:../../DaisySP/Source/Effects/pitchshifter.h ****         SetSemitones();
  69:../../DaisySP/Source/Effects/pitchshifter.h ****         for(uint8_t i = 0; i < 2; i++)
  70:../../DaisySP/Source/Effects/pitchshifter.h ****         {
  71:../../DaisySP/Source/Effects/pitchshifter.h ****             gain_[i] = 0.0f;
  72:../../DaisySP/Source/Effects/pitchshifter.h ****             d_[i].Init();
  73:../../DaisySP/Source/Effects/pitchshifter.h ****             phs_[i].Init(sr, 50, i == 0 ? 0 : PI_F);
  74:../../DaisySP/Source/Effects/pitchshifter.h ****         }
  75:../../DaisySP/Source/Effects/pitchshifter.h ****         shift_up_ = true;
  76:../../DaisySP/Source/Effects/pitchshifter.h ****         del_size_ = SHIFT_BUFFER_SIZE;
  77:../../DaisySP/Source/Effects/pitchshifter.h ****         SetDelSize(del_size_);
  78:../../DaisySP/Source/Effects/pitchshifter.h ****         fun_ = 0.0f;
  79:../../DaisySP/Source/Effects/pitchshifter.h ****     }
  80:../../DaisySP/Source/Effects/pitchshifter.h **** 
  81:../../DaisySP/Source/Effects/pitchshifter.h ****     /** process pitch shifter
  82:../../DaisySP/Source/Effects/pitchshifter.h ****     */
  83:../../DaisySP/Source/Effects/pitchshifter.h ****     float Process(float &in)
  84:../../DaisySP/Source/Effects/pitchshifter.h ****     {
ARM GAS  /tmp/ccPPpVbu.s 			page 11


  85:../../DaisySP/Source/Effects/pitchshifter.h ****         float val, fade1, fade2;
  86:../../DaisySP/Source/Effects/pitchshifter.h ****         // First Process delay mod/crossfade
  87:../../DaisySP/Source/Effects/pitchshifter.h ****         fade1 = phs_[0].Process();
  88:../../DaisySP/Source/Effects/pitchshifter.h ****         fade2 = phs_[1].Process();
  89:../../DaisySP/Source/Effects/pitchshifter.h ****         if(prev_phs_a_ > fade1)
  90:../../DaisySP/Source/Effects/pitchshifter.h ****         {
  91:../../DaisySP/Source/Effects/pitchshifter.h ****             mod_a_amt_ = fun_ * ((float)(myrand() % 255) / 255.0f)
  92:../../DaisySP/Source/Effects/pitchshifter.h ****                          * (del_size_ * 0.5f);
  93:../../DaisySP/Source/Effects/pitchshifter.h ****             mod_coeff_[0]
  94:../../DaisySP/Source/Effects/pitchshifter.h ****                 = 0.0002f + (((float)(myrand() % 255) / 255.0f) * 0.001f);
  95:../../DaisySP/Source/Effects/pitchshifter.h ****         }
  96:../../DaisySP/Source/Effects/pitchshifter.h ****         if(prev_phs_b_ > fade2)
 181              		.loc 2 96 9 view .LVU22
 182 0034 D7ED007A 		vldr.32	s15, [r7]
 183 0038 C14B     		ldr	r3, .L23+8
 184 003a F4EEE78A 		vcmpe.f32	s17, s15
 185 003e D3F800E0 		ldr	lr, [r3]
 186 0042 93ED185A 		vldr.32	s10, [r3, #96]
 187 0046 F1EE10FA 		vmrs	APSR_nzcv, FPSCR
 188 004a 93ED127A 		vldr.32	s14, [r3, #72]
 189              		.loc 2 96 9 is_stmt 1 view .LVU23
 190 004e 00F12981 		bmi	.L9
 191              	.L22:
 192              		.loc 2 96 9 is_stmt 0 view .LVU24
 193 0052 BC4B     		ldr	r3, .L23+12
 194 0054 D3ED005A 		vldr.32	s11, [r3]
 195 0058 53ED067A 		vldr.32	s15, [r3, #-24]
 196              	.L10:
  97:../../DaisySP/Source/Effects/pitchshifter.h ****         {
  98:../../DaisySP/Source/Effects/pitchshifter.h ****             mod_b_amt_ = fun_ * ((float)(myrand() % 255) / 255.0f)
  99:../../DaisySP/Source/Effects/pitchshifter.h ****                          * (del_size_ * 0.5f);
 100:../../DaisySP/Source/Effects/pitchshifter.h ****             mod_coeff_[1]
 101:../../DaisySP/Source/Effects/pitchshifter.h ****                 = 0.0002f + (((float)(myrand() % 255) / 255.0f) * 0.001f);
 102:../../DaisySP/Source/Effects/pitchshifter.h ****         }
 103:../../DaisySP/Source/Effects/pitchshifter.h ****         slewed_mod_[0] += mod_coeff_[0] * (mod_a_amt_ - slewed_mod_[0]);
 197              		.loc 2 103 9 is_stmt 1 view .LVU25
 198              		.loc 2 103 24 is_stmt 0 view .LVU26
 199 005c 9BED006A 		vldr.32	s12, [fp]
 104:../../DaisySP/Source/Effects/pitchshifter.h ****         slewed_mod_[1] += mod_coeff_[1] * (mod_b_amt_ - slewed_mod_[1]);
 200              		.loc 2 104 24 view .LVU27
 201 0060 DAED006A 		vldr.32	s13, [r10]
 103:../../DaisySP/Source/Effects/pitchshifter.h ****         slewed_mod_[1] += mod_coeff_[1] * (mod_b_amt_ - slewed_mod_[1]);
 202              		.loc 2 103 55 view .LVU28
 203 0064 37EE467A 		vsub.f32	s14, s14, s12
 105:../../DaisySP/Source/Effects/pitchshifter.h ****         prev_phs_a_ = fade1;
 106:../../DaisySP/Source/Effects/pitchshifter.h ****         prev_phs_b_ = fade2;
 107:../../DaisySP/Source/Effects/pitchshifter.h ****         if(shift_up_)
 204              		.loc 2 107 9 view .LVU29
 205 0068 B74B     		ldr	r3, .L23+16
 104:../../DaisySP/Source/Effects/pitchshifter.h ****         prev_phs_a_ = fade1;
 206              		.loc 2 104 55 view .LVU30
 207 006a 77EEE67A 		vsub.f32	s15, s15, s13
 105:../../DaisySP/Source/Effects/pitchshifter.h ****         prev_phs_a_ = fade1;
 208              		.loc 2 105 21 view .LVU31
 209 006e 88ED008A 		vstr.32	s16, [r8]
 210              		.loc 2 107 9 view .LVU32
 211 0072 1B78     		ldrb	r3, [r3]	@ zero_extendqisi2
ARM GAS  /tmp/ccPPpVbu.s 			page 12


 103:../../DaisySP/Source/Effects/pitchshifter.h ****         slewed_mod_[1] += mod_coeff_[1] * (mod_b_amt_ - slewed_mod_[1]);
 212              		.loc 2 103 24 view .LVU33
 213 0074 A7EE056A 		vfma.f32	s12, s14, s10
 106:../../DaisySP/Source/Effects/pitchshifter.h ****         if(shift_up_)
 214              		.loc 2 106 21 view .LVU34
 215 0078 C7ED008A 		vstr.32	s17, [r7]
 104:../../DaisySP/Source/Effects/pitchshifter.h ****         prev_phs_a_ = fade1;
 216              		.loc 2 104 24 view .LVU35
 217 007c E7EEA56A 		vfma.f32	s13, s15, s11
 103:../../DaisySP/Source/Effects/pitchshifter.h ****         slewed_mod_[1] += mod_coeff_[1] * (mod_b_amt_ - slewed_mod_[1]);
 218              		.loc 2 103 24 view .LVU36
 219 0080 8BED006A 		vstr.32	s12, [fp]
 104:../../DaisySP/Source/Effects/pitchshifter.h ****         prev_phs_a_ = fade1;
 220              		.loc 2 104 9 is_stmt 1 view .LVU37
 104:../../DaisySP/Source/Effects/pitchshifter.h ****         prev_phs_a_ = fade1;
 221              		.loc 2 104 24 is_stmt 0 view .LVU38
 222 0084 CAED006A 		vstr.32	s13, [r10]
 105:../../DaisySP/Source/Effects/pitchshifter.h ****         prev_phs_b_ = fade2;
 223              		.loc 2 105 9 is_stmt 1 view .LVU39
 106:../../DaisySP/Source/Effects/pitchshifter.h ****         if(shift_up_)
 224              		.loc 2 106 9 view .LVU40
 225              		.loc 2 107 9 view .LVU41
 226 0088 2BB1     		cbz	r3, .L11
 108:../../DaisySP/Source/Effects/pitchshifter.h ****         {
 109:../../DaisySP/Source/Effects/pitchshifter.h ****             fade1 = 1.0f - fade1;
 227              		.loc 2 109 13 view .LVU42
 228              		.loc 2 109 19 is_stmt 0 view .LVU43
 229 008a F7EE007A 		vmov.f32	s15, #1.0e+0
 230 008e 37EEC88A 		vsub.f32	s16, s15, s16
 231              	.LVL6:
 110:../../DaisySP/Source/Effects/pitchshifter.h ****             fade2 = 1.0f - fade2;
 232              		.loc 2 110 13 is_stmt 1 view .LVU44
 233              		.loc 2 110 19 is_stmt 0 view .LVU45
 234 0092 77EEE88A 		vsub.f32	s17, s15, s17
 235              	.LVL7:
 236              	.L11:
 111:../../DaisySP/Source/Effects/pitchshifter.h ****         }
 112:../../DaisySP/Source/Effects/pitchshifter.h ****         mod_[0] = fade1 * (del_size_ - 1);
 237              		.loc 2 112 9 is_stmt 1 view .LVU46
 238              		.loc 2 112 38 is_stmt 0 view .LVU47
 239 0096 0EF1FF33 		add	r3, lr, #-1
 113:../../DaisySP/Source/Effects/pitchshifter.h ****         mod_[1] = fade2 * (del_size_ - 1);
 114:../../DaisySP/Source/Effects/pitchshifter.h **** #ifdef USE_ARM_DSP
 115:../../DaisySP/Source/Effects/pitchshifter.h ****         gain_[0] = arm_sin_f32(fade1 * (float)M_PI);
 116:../../DaisySP/Source/Effects/pitchshifter.h ****         gain_[1] = arm_sin_f32(fade2 * (float)M_PI);
 117:../../DaisySP/Source/Effects/pitchshifter.h **** #else
 118:../../DaisySP/Source/Effects/pitchshifter.h ****         gain_[0] = sinf(fade1 * PI_F);
 240              		.loc 2 118 24 view .LVU48
 241 009a DFEDAC9A 		vldr.32	s19, .L23+20
 112:../../DaisySP/Source/Effects/pitchshifter.h ****         mod_[1] = fade2 * (del_size_ - 1);
 242              		.loc 2 112 17 view .LVU49
 243 009e AC48     		ldr	r0, .L23+24
 244 00a0 09F10809 		add	r9, r9, #8
 112:../../DaisySP/Source/Effects/pitchshifter.h ****         mod_[1] = fade2 * (del_size_ - 1);
 245              		.loc 2 112 38 view .LVU50
 246 00a4 07EE903A 		vmov	s15, r3	@ int
 247              		.loc 2 118 24 view .LVU51
ARM GAS  /tmp/ccPPpVbu.s 			page 13


 248 00a8 28EE290A 		vmul.f32	s0, s16, s19
 112:../../DaisySP/Source/Effects/pitchshifter.h ****         mod_[1] = fade2 * (del_size_ - 1);
 249              		.loc 2 112 25 view .LVU52
 250 00ac F8EE677A 		vcvt.f32.u32	s15, s15
 251 00b0 27EE888A 		vmul.f32	s16, s15, s16
 252              	.LVL8:
 113:../../DaisySP/Source/Effects/pitchshifter.h ****         mod_[1] = fade2 * (del_size_ - 1);
 253              		.loc 2 113 25 view .LVU53
 254 00b4 67EEA87A 		vmul.f32	s15, s15, s17
 112:../../DaisySP/Source/Effects/pitchshifter.h ****         mod_[1] = fade2 * (del_size_ - 1);
 255              		.loc 2 112 17 view .LVU54
 256 00b8 80ED008A 		vstr.32	s16, [r0]
 113:../../DaisySP/Source/Effects/pitchshifter.h ****         mod_[1] = fade2 * (del_size_ - 1);
 257              		.loc 2 113 9 is_stmt 1 view .LVU55
 113:../../DaisySP/Source/Effects/pitchshifter.h ****         mod_[1] = fade2 * (del_size_ - 1);
 258              		.loc 2 113 17 is_stmt 0 view .LVU56
 259 00bc C0ED017A 		vstr.32	s15, [r0, #4]
 260              		.loc 2 118 9 is_stmt 1 view .LVU57
 261              		.loc 2 118 24 is_stmt 0 view .LVU58
 262 00c0 FFF7FEFF 		bl	sinf
 263              	.LVL9:
 264 00c4 F0EE407A 		vmov.f32	s15, s0
 265              		.loc 2 118 18 view .LVU59
 266 00c8 A24A     		ldr	r2, .L23+28
 119:../../DaisySP/Source/Effects/pitchshifter.h ****         gain_[1] = sinf(fade2 * PI_F);
 267              		.loc 2 119 24 view .LVU60
 268 00ca 28EEA90A 		vmul.f32	s0, s17, s19
 118:../../DaisySP/Source/Effects/pitchshifter.h ****         gain_[1] = sinf(fade2 * PI_F);
 269              		.loc 2 118 18 view .LVU61
 270 00ce C2ED007A 		vstr.32	s15, [r2]
 271              		.loc 2 119 9 is_stmt 1 view .LVU62
 272              		.loc 2 119 24 is_stmt 0 view .LVU63
 273 00d2 FFF7FEFF 		bl	sinf
 274              	.LVL10:
 275              	.LBB168:
 276              	.LBB169:
 277              		.file 9 "../../DaisySP/Source/Utility/delayline.h"
   1:../../DaisySP/Source/Utility/delayline.h **** #pragma once
   2:../../DaisySP/Source/Utility/delayline.h **** #ifndef DSY_DELAY_H
   3:../../DaisySP/Source/Utility/delayline.h **** #define DSY_DELAY_H
   4:../../DaisySP/Source/Utility/delayline.h **** #include <stdlib.h>
   5:../../DaisySP/Source/Utility/delayline.h **** #include <stdint.h>
   6:../../DaisySP/Source/Utility/delayline.h **** namespace daisysp
   7:../../DaisySP/Source/Utility/delayline.h **** {
   8:../../DaisySP/Source/Utility/delayline.h **** /** Simple Delay line.
   9:../../DaisySP/Source/Utility/delayline.h **** November 2019
  10:../../DaisySP/Source/Utility/delayline.h **** 
  11:../../DaisySP/Source/Utility/delayline.h **** Converted to Template December 2019
  12:../../DaisySP/Source/Utility/delayline.h **** 
  13:../../DaisySP/Source/Utility/delayline.h **** declaration example: (1 second of floats)
  14:../../DaisySP/Source/Utility/delayline.h **** 
  15:../../DaisySP/Source/Utility/delayline.h **** DelayLine<float, SAMPLE_RATE> del;
  16:../../DaisySP/Source/Utility/delayline.h **** 
  17:../../DaisySP/Source/Utility/delayline.h **** By: shensley
  18:../../DaisySP/Source/Utility/delayline.h **** */
  19:../../DaisySP/Source/Utility/delayline.h **** template <typename T, size_t max_size>
  20:../../DaisySP/Source/Utility/delayline.h **** class DelayLine
ARM GAS  /tmp/ccPPpVbu.s 			page 14


  21:../../DaisySP/Source/Utility/delayline.h **** {
  22:../../DaisySP/Source/Utility/delayline.h ****   public:
  23:../../DaisySP/Source/Utility/delayline.h ****     DelayLine() {}
  24:../../DaisySP/Source/Utility/delayline.h ****     ~DelayLine() {}
  25:../../DaisySP/Source/Utility/delayline.h ****     /** initializes the delay line by clearing the values within, and setting delay to 1 sample.
  26:../../DaisySP/Source/Utility/delayline.h ****     */
  27:../../DaisySP/Source/Utility/delayline.h ****     void Init() { Reset(); }
  28:../../DaisySP/Source/Utility/delayline.h ****     /** clears buffer, sets write ptr to 0, and delay to 1 sample.
  29:../../DaisySP/Source/Utility/delayline.h ****     */
  30:../../DaisySP/Source/Utility/delayline.h ****     void Reset()
  31:../../DaisySP/Source/Utility/delayline.h ****     {
  32:../../DaisySP/Source/Utility/delayline.h ****         for(size_t i = 0; i < max_size; i++)
  33:../../DaisySP/Source/Utility/delayline.h ****         {
  34:../../DaisySP/Source/Utility/delayline.h ****             line_[i] = T(0);
  35:../../DaisySP/Source/Utility/delayline.h ****         }
  36:../../DaisySP/Source/Utility/delayline.h ****         write_ptr_ = 0;
  37:../../DaisySP/Source/Utility/delayline.h ****         delay_     = 1;
  38:../../DaisySP/Source/Utility/delayline.h ****     }
  39:../../DaisySP/Source/Utility/delayline.h **** 
  40:../../DaisySP/Source/Utility/delayline.h ****     /** sets the delay time in samples
  41:../../DaisySP/Source/Utility/delayline.h ****         If a float is passed in, a fractional component will be calculated for interpolating the de
  42:../../DaisySP/Source/Utility/delayline.h ****     */
  43:../../DaisySP/Source/Utility/delayline.h ****     inline void SetDelay(size_t delay)
  44:../../DaisySP/Source/Utility/delayline.h ****     {
  45:../../DaisySP/Source/Utility/delayline.h ****         frac_  = 0.0f;
  46:../../DaisySP/Source/Utility/delayline.h ****         delay_ = delay < max_size ? delay : max_size - 1;
  47:../../DaisySP/Source/Utility/delayline.h ****     }
  48:../../DaisySP/Source/Utility/delayline.h **** 
  49:../../DaisySP/Source/Utility/delayline.h ****     /** sets the delay time in samples
  50:../../DaisySP/Source/Utility/delayline.h ****         If a float is passed in, a fractional component will be calculated for interpolating the de
  51:../../DaisySP/Source/Utility/delayline.h ****     */
  52:../../DaisySP/Source/Utility/delayline.h ****     inline void SetDelay(float delay)
  53:../../DaisySP/Source/Utility/delayline.h ****     {
  54:../../DaisySP/Source/Utility/delayline.h ****         int32_t int_delay = static_cast<int32_t>(delay);
  55:../../DaisySP/Source/Utility/delayline.h ****         frac_             = delay - static_cast<float>(int_delay);
  56:../../DaisySP/Source/Utility/delayline.h ****         delay_ = static_cast<size_t>(int_delay) < max_size ? int_delay
  57:../../DaisySP/Source/Utility/delayline.h ****                                                            : max_size - 1;
  58:../../DaisySP/Source/Utility/delayline.h ****     }
  59:../../DaisySP/Source/Utility/delayline.h **** 
  60:../../DaisySP/Source/Utility/delayline.h ****     /** writes the sample of type T to the delay line, and advances the write ptr
  61:../../DaisySP/Source/Utility/delayline.h ****     */
  62:../../DaisySP/Source/Utility/delayline.h ****     inline void Write(const T sample)
  63:../../DaisySP/Source/Utility/delayline.h ****     {
  64:../../DaisySP/Source/Utility/delayline.h ****         line_[write_ptr_] = sample;
 278              		.loc 9 64 15 view .LVU64
 279 00d6 6268     		ldr	r2, [r4, #4]
  65:../../DaisySP/Source/Utility/delayline.h ****         write_ptr_        = (write_ptr_ - 1 + max_size) % max_size;
 280              		.loc 9 65 45 view .LVU65
 281 00d8 43F6FF71 		movw	r1, #16383
 282              	.LBE169:
 283              	.LBE168:
 284              	.LBB174:
 285              	.LBB175:
  64:../../DaisySP/Source/Utility/delayline.h ****         write_ptr_        = (write_ptr_ - 1 + max_size) % max_size;
 286              		.loc 9 64 15 view .LVU66
 287 00dc 2B68     		ldr	r3, [r5]
 288              	.LBE175:
ARM GAS  /tmp/ccPPpVbu.s 			page 15


 289              	.LBE174:
 290              	.LBB180:
 291              	.LBB170:
  64:../../DaisySP/Source/Utility/delayline.h ****         write_ptr_        = (write_ptr_ - 1 + max_size) % max_size;
 292              		.loc 9 64 9 view .LVU67
 293 00de 04EB820C 		add	ip, r4, r2, lsl #2
 294              	.LBE170:
 295              	.LBE180:
 296              		.loc 2 119 18 view .LVU68
 297 00e2 9D48     		ldr	r0, .L23+32
 298              	.LBB181:
 299              	.LBB171:
 300              		.loc 9 65 45 view .LVU69
 301 00e4 0A44     		add	r2, r2, r1
 302              	.LBE171:
 303              	.LBE181:
 304              	.LBE167:
 305              	.LBE166:
 306              		.loc 8 25 35 view .LVU70
 307 00e6 009E     		ldr	r6, [sp]
 308              	.LBB336:
 309              	.LBB329:
 310              		.loc 2 119 18 view .LVU71
 311 00e8 80ED000A 		vstr.32	s0, [r0]
 120:../../DaisySP/Source/Effects/pitchshifter.h **** #endif
 121:../../DaisySP/Source/Effects/pitchshifter.h **** 
 122:../../DaisySP/Source/Effects/pitchshifter.h ****         // Handle Delay Writing
 123:../../DaisySP/Source/Effects/pitchshifter.h ****         d_[0].Write(in);
 312              		.loc 2 123 9 is_stmt 1 view .LVU72
 313              	.LVL11:
 314              	.LBB182:
 315              	.LBI168:
  62:../../DaisySP/Source/Utility/delayline.h ****     {
 316              		.loc 9 62 17 view .LVU73
 317              	.LBE182:
 318              	.LBB183:
 319              	.LBB176:
  64:../../DaisySP/Source/Utility/delayline.h ****         write_ptr_        = (write_ptr_ - 1 + max_size) % max_size;
 320              		.loc 9 64 9 is_stmt 0 view .LVU74
 321 00ec 05EB8300 		add	r0, r5, r3, lsl #2
 322              	.LBE176:
 323              	.LBE183:
 324              	.LBB184:
 325              	.LBB172:
 326              		.loc 9 65 57 view .LVU75
 327 00f0 C2F30D02 		ubfx	r2, r2, #0, #14
  64:../../DaisySP/Source/Utility/delayline.h ****         write_ptr_        = (write_ptr_ - 1 + max_size) % max_size;
 328              		.loc 9 64 9 view .LVU76
 329 00f4 8CED039A 		vstr.32	s18, [ip, #12]
 330              	.LBE172:
 331              	.LBE184:
 332              	.LBB185:
 333              	.LBB177:
 334              		.loc 9 65 45 view .LVU77
 335 00f8 0B44     		add	r3, r3, r1
 336              	.LBE177:
 337              	.LBE185:
ARM GAS  /tmp/ccPPpVbu.s 			page 16


 338              	.LBE329:
 339              	.LBE336:
 340              		.loc 8 25 35 view .LVU78
 341 00fa 06F1020E 		add	lr, r6, #2
 342              	.LBB337:
 343              	.LBB330:
 344              	.LBB186:
 345              	.LBB173:
 346              		.loc 9 65 9 view .LVU79
 347 00fe 6260     		str	r2, [r4, #4]
 348              	.LVL12:
 349              		.loc 9 65 9 view .LVU80
 350              	.LBE173:
 351              	.LBE186:
 124:../../DaisySP/Source/Effects/pitchshifter.h ****         d_[1].Write(in);
 352              		.loc 2 124 9 is_stmt 1 view .LVU81
 353              	.LBB187:
 354              	.LBI174:
  62:../../DaisySP/Source/Utility/delayline.h ****     {
 355              		.loc 9 62 17 view .LVU82
 356              	.LBB178:
  64:../../DaisySP/Source/Utility/delayline.h ****         write_ptr_        = (write_ptr_ - 1 + max_size) % max_size;
 357              		.loc 9 64 9 is_stmt 0 view .LVU83
 358 0100 80ED029A 		vstr.32	s18, [r0, #8]
 359              		.loc 9 65 57 view .LVU84
 360 0104 C3F30D03 		ubfx	r3, r3, #0, #14
 361              	.LBE178:
 362              	.LBE187:
 125:../../DaisySP/Source/Effects/pitchshifter.h ****         // Modulate Delay Lines
 126:../../DaisySP/Source/Effects/pitchshifter.h ****         //mod_a_amt = mod_b_amt = 0.0f;
 127:../../DaisySP/Source/Effects/pitchshifter.h ****         d_[0].SetDelay(mod_[0] + mod_a_amt_);
 128:../../DaisySP/Source/Effects/pitchshifter.h ****         d_[1].SetDelay(mod_[1] + mod_b_amt_);
 129:../../DaisySP/Source/Effects/pitchshifter.h ****         d_[0].SetDelay(mod_[0] + slewed_mod_[0]);
 363              		.loc 2 129 23 view .LVU85
 364 0108 9148     		ldr	r0, .L23+24
 365 010a 9BED006A 		vldr.32	s12, [fp]
 366 010e 90ED007A 		vldr.32	s14, [r0]
 128:../../DaisySP/Source/Effects/pitchshifter.h ****         d_[0].SetDelay(mod_[0] + slewed_mod_[0]);
 367              		.loc 2 128 30 view .LVU86
 368 0112 D0ED017A 		vldr.32	s15, [r0, #4]
 369              		.loc 2 129 23 view .LVU87
 370 0116 37EE067A 		vadd.f32	s14, s14, s12
 130:../../DaisySP/Source/Effects/pitchshifter.h ****         d_[1].SetDelay(mod_[1] + slewed_mod_[1]);
 371              		.loc 2 130 23 view .LVU88
 372 011a 9AED006A 		vldr.32	s12, [r10]
 131:../../DaisySP/Source/Effects/pitchshifter.h ****         val = 0.0f;
 132:../../DaisySP/Source/Effects/pitchshifter.h ****         val += (d_[0].Read() * gain_[0]);
 373              		.loc 2 132 13 view .LVU89
 374 011e 50ED024A 		vldr.32	s9, [r0, #-8]
 130:../../DaisySP/Source/Effects/pitchshifter.h ****         d_[1].SetDelay(mod_[1] + slewed_mod_[1]);
 375              		.loc 2 130 23 view .LVU90
 376 0122 77EE867A 		vadd.f32	s15, s15, s12
 133:../../DaisySP/Source/Effects/pitchshifter.h ****         val += (d_[1].Read() * gain_[1]);
 377              		.loc 2 133 13 view .LVU91
 378 0126 10ED015A 		vldr.32	s10, [r0, #-4]
 379              	.LBB188:
 380              	.LBB189:
ARM GAS  /tmp/ccPPpVbu.s 			page 17


  54:../../DaisySP/Source/Utility/delayline.h ****         frac_             = delay - static_cast<float>(int_delay);
 381              		.loc 9 54 17 view .LVU92
 382 012a BDEEC76A 		vcvt.s32.f32	s12, s14
 383              	.LBE189:
 384              	.LBE188:
 385              	.LBB196:
 386              	.LBB197:
  55:../../DaisySP/Source/Utility/delayline.h ****         delay_ = static_cast<size_t>(int_delay) < max_size ? int_delay
 387              		.loc 9 55 9 view .LVU93
 388 012e 8B4E     		ldr	r6, .L23+36
 389              	.LVL13:
  55:../../DaisySP/Source/Utility/delayline.h ****         delay_ = static_cast<size_t>(int_delay) < max_size ? int_delay
 390              		.loc 9 55 9 view .LVU94
 391              	.LBE197:
 392              	.LBE196:
 393              	.LBB206:
 394              	.LBB179:
 395              		.loc 9 65 9 view .LVU95
 396 0130 2B60     		str	r3, [r5]
 397              	.LVL14:
 398              		.loc 9 65 9 view .LVU96
 399              	.LBE179:
 400              	.LBE206:
 127:../../DaisySP/Source/Effects/pitchshifter.h ****         d_[1].SetDelay(mod_[1] + mod_b_amt_);
 401              		.loc 2 127 9 is_stmt 1 view .LVU97
 128:../../DaisySP/Source/Effects/pitchshifter.h ****         d_[0].SetDelay(mod_[0] + slewed_mod_[0]);
 402              		.loc 2 128 9 view .LVU98
 129:../../DaisySP/Source/Effects/pitchshifter.h ****         d_[1].SetDelay(mod_[1] + slewed_mod_[1]);
 403              		.loc 2 129 9 view .LVU99
 404              	.LBB207:
 405              	.LBI188:
  52:../../DaisySP/Source/Utility/delayline.h ****     {
 406              		.loc 9 52 17 view .LVU100
  52:../../DaisySP/Source/Utility/delayline.h ****     {
 407              		.loc 9 52 17 is_stmt 0 view .LVU101
 408              	.LBE207:
 409              	.LBB208:
 410              	.LBB198:
  54:../../DaisySP/Source/Utility/delayline.h ****         frac_             = delay - static_cast<float>(int_delay);
 411              		.loc 9 54 17 view .LVU102
 412 0132 FDEEE75A 		vcvt.s32.f32	s11, s15
 413              	.LBE198:
 414              	.LBE208:
 132:../../DaisySP/Source/Effects/pitchshifter.h ****         val += (d_[1].Read() * gain_[1]);
 415              		.loc 2 132 13 view .LVU103
 416 0136 DFED8A6A 		vldr.32	s13, .L23+40
 417              	.LBB209:
 418              	.LBB190:
  56:../../DaisySP/Source/Utility/delayline.h ****                                                            : max_size - 1;
 419              		.loc 9 56 9 view .LVU104
 420 013a 16EE10CA 		vmov	ip, s12	@ int
  55:../../DaisySP/Source/Utility/delayline.h ****         delay_ = static_cast<size_t>(int_delay) < max_size ? int_delay
 421              		.loc 9 55 35 view .LVU105
 422 013e B8EEC66A 		vcvt.f32.s32	s12, s12
 423              	.LVL15:
  55:../../DaisySP/Source/Utility/delayline.h ****         delay_ = static_cast<size_t>(int_delay) < max_size ? int_delay
 424              		.loc 9 55 35 view .LVU106
ARM GAS  /tmp/ccPPpVbu.s 			page 18


 425              	.LBE190:
 426              	.LBE209:
 427              	.LBB210:
 428              	.LBB199:
  56:../../DaisySP/Source/Utility/delayline.h ****                                                            : max_size - 1;
 429              		.loc 9 56 9 view .LVU107
 430 0142 15EE900A 		vmov	r0, s11	@ int
 431              	.LBE199:
 432              	.LBE210:
 433              	.LBB211:
 434              	.LBB191:
 435 0146 8C45     		cmp	ip, r1
 436              	.LBE191:
 437              	.LBE211:
 438              	.LBB212:
 439              	.LBB200:
  55:../../DaisySP/Source/Utility/delayline.h ****         delay_ = static_cast<size_t>(int_delay) < max_size ? int_delay
 440              		.loc 9 55 35 view .LVU108
 441 0148 B8EEE54A 		vcvt.f32.s32	s8, s11
 442              	.LBE200:
 443              	.LBE212:
 444              	.LBB213:
 445              	.LBB192:
  56:../../DaisySP/Source/Utility/delayline.h ****                                                            : max_size - 1;
 446              		.loc 9 56 9 view .LVU109
 447 014c 28BF     		it	cs
 448 014e 8C46     		movcs	ip, r1
 449              	.LVL16:
  56:../../DaisySP/Source/Utility/delayline.h ****                                                            : max_size - 1;
 450              		.loc 9 56 9 view .LVU110
 451              	.LBE192:
 452              	.LBE213:
 453              	.LBB214:
 454              	.LBB201:
 455 0150 8842     		cmp	r0, r1
 456              	.LBE201:
 457              	.LBE214:
 458              	.LBB215:
 459              	.LBB193:
  55:../../DaisySP/Source/Utility/delayline.h ****         delay_ = static_cast<size_t>(int_delay) < max_size ? int_delay
 460              		.loc 9 55 35 view .LVU111
 461 0152 37EE467A 		vsub.f32	s14, s14, s12
 462              	.LVL17:
  55:../../DaisySP/Source/Utility/delayline.h ****         delay_ = static_cast<size_t>(int_delay) < max_size ? int_delay
 463              		.loc 9 55 35 view .LVU112
 464              	.LBE193:
 465              	.LBE215:
 466              	.LBB216:
 467              	.LBB202:
  56:../../DaisySP/Source/Utility/delayline.h ****                                                            : max_size - 1;
 468              		.loc 9 56 9 view .LVU113
 469 0156 28BF     		it	cs
 470 0158 0846     		movcs	r0, r1
 471              	.LBE202:
 472              	.LBE216:
 473              	.LBB217:
 474              	.LBB218:
ARM GAS  /tmp/ccPPpVbu.s 			page 19


  66:../../DaisySP/Source/Utility/delayline.h ****     }
  67:../../DaisySP/Source/Utility/delayline.h **** 
  68:../../DaisySP/Source/Utility/delayline.h ****     /** returns the next sample of type T in the delay line, interpolated if necessary.
  69:../../DaisySP/Source/Utility/delayline.h ****     */
  70:../../DaisySP/Source/Utility/delayline.h ****     inline const T Read() const
  71:../../DaisySP/Source/Utility/delayline.h ****     {
  72:../../DaisySP/Source/Utility/delayline.h ****         T a = line_[(write_ptr_ + delay_) % max_size];
 475              		.loc 9 72 33 view .LVU114
 476 015a 6244     		add	r2, r2, ip
 477              	.LBE218:
 478              	.LBE217:
 479              	.LBB227:
 480              	.LBB203:
  55:../../DaisySP/Source/Utility/delayline.h ****         delay_ = static_cast<size_t>(int_delay) < max_size ? int_delay
 481              		.loc 9 55 35 view .LVU115
 482 015c 77EEC47A 		vsub.f32	s15, s15, s8
  56:../../DaisySP/Source/Utility/delayline.h ****                                                            : max_size - 1;
 483              		.loc 9 56 9 view .LVU116
 484 0160 0146     		mov	r1, r0
 485              	.LBE203:
 486              	.LBE227:
 487              	.LBB228:
 488              	.LBB219:
  73:../../DaisySP/Source/Utility/delayline.h ****         T b = line_[(write_ptr_ + delay_ + 1) % max_size];
 489              		.loc 9 73 42 view .LVU117
 490 0162 501C     		adds	r0, r2, #1
  72:../../DaisySP/Source/Utility/delayline.h ****         T b = line_[(write_ptr_ + delay_ + 1) % max_size];
 491              		.loc 9 72 43 view .LVU118
 492 0164 C2F30D02 		ubfx	r2, r2, #0, #14
 493              	.LBE219:
 494              	.LBE228:
 495              	.LBB229:
 496              	.LBB194:
  55:../../DaisySP/Source/Utility/delayline.h ****         delay_ = static_cast<size_t>(int_delay) < max_size ? int_delay
 497              		.loc 9 55 9 view .LVU119
 498 0168 84ED007A 		vstr.32	s14, [r4]
 499              	.LBE194:
 500              	.LBE229:
 501              	.LBB230:
 502              	.LBB220:
 503              		.loc 9 73 47 view .LVU120
 504 016c C0F30D00 		ubfx	r0, r0, #0, #14
 505              	.LBE220:
 506              	.LBE230:
 507              	.LBB231:
 508              	.LBB204:
  55:../../DaisySP/Source/Utility/delayline.h ****         delay_ = static_cast<size_t>(int_delay) < max_size ? int_delay
 509              		.loc 9 55 9 view .LVU121
 510 0170 C6ED007A 		vstr.32	s15, [r6]
 511              	.LBE204:
 512              	.LBE231:
 513              	.LBB232:
 514              	.LBB221:
  72:../../DaisySP/Source/Utility/delayline.h ****         T b = line_[(write_ptr_ + delay_ + 1) % max_size];
 515              		.loc 9 72 11 view .LVU122
 516 0174 04EB8202 		add	r2, r4, r2, lsl #2
 517              	.LBE221:
ARM GAS  /tmp/ccPPpVbu.s 			page 20


 518              	.LBE232:
 519              	.LBB233:
 520              	.LBB234:
  72:../../DaisySP/Source/Utility/delayline.h ****         T b = line_[(write_ptr_ + delay_ + 1) % max_size];
 521              		.loc 9 72 33 view .LVU123
 522 0178 0B44     		add	r3, r3, r1
 523              	.LBE234:
 524              	.LBE233:
 525              	.LBB242:
 526              	.LBB222:
 527              		.loc 9 73 11 view .LVU124
 528 017a 04EB8000 		add	r0, r4, r0, lsl #2
  72:../../DaisySP/Source/Utility/delayline.h ****         T b = line_[(write_ptr_ + delay_ + 1) % max_size];
 529              		.loc 9 72 11 view .LVU125
 530 017e 92ED036A 		vldr.32	s12, [r2, #12]
 531              	.LBE222:
 532              	.LBE242:
 533              	.LBB243:
 534              	.LBB235:
 535              		.loc 9 73 42 view .LVU126
 536 0182 5A1C     		adds	r2, r3, #1
 537              	.LBE235:
 538              	.LBE243:
 539              	.LBB244:
 540              	.LBB223:
  74:../../DaisySP/Source/Utility/delayline.h ****         return a + (b - a) * frac_;
 541              		.loc 9 74 23 view .LVU127
 542 0184 D0ED035A 		vldr.32	s11, [r0, #12]
 543              	.LBE223:
 544              	.LBE244:
 545              	.LBB245:
 546              	.LBB236:
  72:../../DaisySP/Source/Utility/delayline.h ****         T b = line_[(write_ptr_ + delay_ + 1) % max_size];
 547              		.loc 9 72 43 view .LVU128
 548 0188 C3F30D03 		ubfx	r3, r3, #0, #14
  73:../../DaisySP/Source/Utility/delayline.h ****         return a + (b - a) * frac_;
 549              		.loc 9 73 47 view .LVU129
 550 018c C2F30D02 		ubfx	r2, r2, #0, #14
 551              	.LBE236:
 552              	.LBE245:
 553              	.LBB246:
 554              	.LBB205:
  56:../../DaisySP/Source/Utility/delayline.h ****                                                            : max_size - 1;
 555              		.loc 9 56 9 view .LVU130
 556 0190 B160     		str	r1, [r6, #8]
 557              	.LBE205:
 558              	.LBE246:
 559              	.LBB247:
 560              	.LBB224:
 561              		.loc 9 74 23 view .LVU131
 562 0192 75EEC65A 		vsub.f32	s11, s11, s12
 563              	.LBE224:
 564              	.LBE247:
 565              	.LBB248:
 566              	.LBB237:
  72:../../DaisySP/Source/Utility/delayline.h ****         T b = line_[(write_ptr_ + delay_ + 1) % max_size];
 567              		.loc 9 72 11 view .LVU132
ARM GAS  /tmp/ccPPpVbu.s 			page 21


 568 0196 05EB8303 		add	r3, r5, r3, lsl #2
  73:../../DaisySP/Source/Utility/delayline.h ****         return a + (b - a) * frac_;
 569              		.loc 9 73 11 view .LVU133
 570 019a 05EB8202 		add	r2, r5, r2, lsl #2
 571              	.LBE237:
 572              	.LBE248:
 573              	.LBB249:
 574              	.LBB195:
  56:../../DaisySP/Source/Utility/delayline.h ****                                                            : max_size - 1;
 575              		.loc 9 56 9 view .LVU134
 576 019e C4F808C0 		str	ip, [r4, #8]
 577              	.LVL18:
  56:../../DaisySP/Source/Utility/delayline.h ****                                                            : max_size - 1;
 578              		.loc 9 56 9 view .LVU135
 579              	.LBE195:
 580              	.LBE249:
 130:../../DaisySP/Source/Effects/pitchshifter.h ****         val = 0.0f;
 581              		.loc 2 130 9 is_stmt 1 view .LVU136
 582              	.LBB250:
 583              	.LBI196:
  52:../../DaisySP/Source/Utility/delayline.h ****     {
 584              		.loc 9 52 17 view .LVU137
  52:../../DaisySP/Source/Utility/delayline.h ****     {
 585              		.loc 9 52 17 is_stmt 0 view .LVU138
 586              	.LBE250:
 131:../../DaisySP/Source/Effects/pitchshifter.h ****         val += (d_[0].Read() * gain_[0]);
 587              		.loc 2 131 9 is_stmt 1 view .LVU139
 132:../../DaisySP/Source/Effects/pitchshifter.h ****         val += (d_[1].Read() * gain_[1]);
 588              		.loc 2 132 9 view .LVU140
 589              	.LBB251:
 590              	.LBI217:
  70:../../DaisySP/Source/Utility/delayline.h ****     {
 591              		.loc 9 70 20 view .LVU141
 592              	.LBB225:
 593              		.loc 9 74 30 is_stmt 0 view .LVU142
 594 01a2 A7EE256A 		vfma.f32	s12, s14, s11
 595              	.LVL19:
 596              		.loc 9 74 30 view .LVU143
 597              	.LBE225:
 598              	.LBE251:
 599              	.LBB252:
 600              	.LBB238:
 601              		.loc 9 74 23 view .LVU144
 602 01a6 D2ED025A 		vldr.32	s11, [r2, #8]
 603              	.LBE238:
 604              	.LBE252:
 605              	.LBB253:
 606              	.LBB226:
 607              		.loc 9 74 30 view .LVU145
 608 01aa B0EE467A 		vmov.f32	s14, s12
 609              	.LVL20:
 610              		.loc 9 74 30 view .LVU146
 611              	.LBE226:
 612              	.LBE253:
 613              	.LBB254:
 614              	.LBB239:
  72:../../DaisySP/Source/Utility/delayline.h ****         T b = line_[(write_ptr_ + delay_ + 1) % max_size];
ARM GAS  /tmp/ccPPpVbu.s 			page 22


 615              		.loc 9 72 11 view .LVU147
 616 01ae 93ED026A 		vldr.32	s12, [r3, #8]
 617              	.LBE239:
 618              	.LBE254:
 619              	.LBE330:
 620              	.LBE337:
  26:pitchshifter.cpp ****     {
  27:pitchshifter.cpp ****         unshifted  = osc.Process();
  28:pitchshifter.cpp ****         shifted    = ps.Process(unshifted);
  29:pitchshifter.cpp ****         out[LEFT]  = shifted;
  30:pitchshifter.cpp ****         out[RIGHT] = unshifted;
 621              		.loc 8 30 20 view .LVU148
 622 01b2 09ED019A 		vstr.32	s18, [r9, #-4]
 623              	.LBB338:
 624              	.LBB331:
 625              	.LBB255:
 626              	.LBB240:
 627              		.loc 9 74 23 view .LVU149
 628 01b6 75EEC65A 		vsub.f32	s11, s11, s12
 629              	.LBE240:
 630              	.LBE255:
 132:../../DaisySP/Source/Effects/pitchshifter.h ****         val += (d_[1].Read() * gain_[1]);
 631              		.loc 2 132 13 view .LVU150
 632 01ba E7EE246A 		vfma.f32	s13, s14, s9
 633              	.LVL21:
 634              		.loc 2 133 9 is_stmt 1 view .LVU151
 635              	.LBB256:
 636              	.LBI233:
  70:../../DaisySP/Source/Utility/delayline.h ****     {
 637              		.loc 9 70 20 view .LVU152
 638              	.LBB241:
 639              		.loc 9 74 30 is_stmt 0 view .LVU153
 640 01be A7EEA56A 		vfma.f32	s12, s15, s11
 641              	.LVL22:
 642              		.loc 9 74 30 view .LVU154
 643              	.LBE241:
 644              	.LBE256:
 645              	.LBE331:
 646              	.LBE338:
  25:pitchshifter.cpp ****     {
 647              		.loc 8 25 25 view .LVU155
 648 01c2 DDE90063 		ldrd	r6, r3, [sp]
 649              	.LVL23:
 650              	.LBB339:
 651              	.LBB332:
 652              		.loc 2 133 13 view .LVU156
 653 01c6 F0EE667A 		vmov.f32	s15, s13
 654              	.LBE332:
 655              	.LBE339:
  25:pitchshifter.cpp ****     {
 656              		.loc 8 25 25 view .LVU157
 657 01ca 9E42     		cmp	r6, r3
 658              	.LBB340:
 659              	.LBB333:
 660              		.loc 2 133 13 view .LVU158
 661 01cc E6EE057A 		vfma.f32	s15, s12, s10
 662              	.LVL24:
ARM GAS  /tmp/ccPPpVbu.s 			page 23


 134:../../DaisySP/Source/Effects/pitchshifter.h ****         return val;
 663              		.loc 2 134 9 is_stmt 1 view .LVU159
 664              		.loc 2 134 9 is_stmt 0 view .LVU160
 665              	.LBE333:
 666              	.LBE340:
  29:pitchshifter.cpp ****         out[RIGHT] = unshifted;
 667              		.loc 8 29 9 is_stmt 1 view .LVU161
  29:pitchshifter.cpp ****         out[RIGHT] = unshifted;
 668              		.loc 8 29 20 is_stmt 0 view .LVU162
 669 01d0 49ED027A 		vstr.32	s15, [r9, #-8]
 670              		.loc 8 30 9 is_stmt 1 view .LVU163
  25:pitchshifter.cpp ****     {
 671              		.loc 8 25 5 view .LVU164
 672              	.LVL25:
  25:pitchshifter.cpp ****     {
 673              		.loc 8 25 25 view .LVU165
 674 01d4 00F0AA80 		beq	.L5
  25:pitchshifter.cpp ****     {
 675              		.loc 8 25 25 is_stmt 0 view .LVU166
 676 01d8 CDF800E0 		str	lr, [sp]
 677              	.LVL26:
 678              	.L13:
  27:pitchshifter.cpp ****         shifted    = ps.Process(unshifted);
 679              		.loc 8 27 9 is_stmt 1 discriminator 2 view .LVU167
  27:pitchshifter.cpp ****         shifted    = ps.Process(unshifted);
 680              		.loc 8 27 33 is_stmt 0 discriminator 2 view .LVU168
 681 01dc 6148     		ldr	r0, .L23+44
 682 01de FFF7FEFF 		bl	_ZN7daisysp10Oscillator7ProcessEv
 683              	.LVL27:
 684              	.LBB341:
 685              	.LBB334:
  87:../../DaisySP/Source/Effects/pitchshifter.h ****         fade2 = phs_[1].Process();
 686              		.loc 2 87 32 discriminator 2 view .LVU169
 687 01e2 6148     		ldr	r0, .L23+48
 688              	.LBE334:
 689              	.LBE341:
  27:pitchshifter.cpp ****         shifted    = ps.Process(unshifted);
 690              		.loc 8 27 33 discriminator 2 view .LVU170
 691 01e4 B0EE409A 		vmov.f32	s18, s0
 692              	.LVL28:
  28:pitchshifter.cpp ****         out[LEFT]  = shifted;
 693              		.loc 8 28 9 is_stmt 1 discriminator 2 view .LVU171
 694              	.LBB342:
 695              	.LBI166:
  83:../../DaisySP/Source/Effects/pitchshifter.h ****     {
 696              		.loc 2 83 11 discriminator 2 view .LVU172
 697              	.LBB335:
  85:../../DaisySP/Source/Effects/pitchshifter.h ****         // First Process delay mod/crossfade
 698              		.loc 2 85 9 discriminator 2 view .LVU173
  87:../../DaisySP/Source/Effects/pitchshifter.h ****         fade2 = phs_[1].Process();
 699              		.loc 2 87 9 discriminator 2 view .LVU174
  87:../../DaisySP/Source/Effects/pitchshifter.h ****         fade2 = phs_[1].Process();
 700              		.loc 2 87 32 is_stmt 0 discriminator 2 view .LVU175
 701 01e8 FFF7FEFF 		bl	_ZN7daisysp6Phasor7ProcessEv
 702              	.LVL29:
  88:../../DaisySP/Source/Effects/pitchshifter.h ****         if(prev_phs_a_ > fade1)
 703              		.loc 2 88 32 discriminator 2 view .LVU176
ARM GAS  /tmp/ccPPpVbu.s 			page 24


 704 01ec 5F48     		ldr	r0, .L23+52
  87:../../DaisySP/Source/Effects/pitchshifter.h ****         fade2 = phs_[1].Process();
 705              		.loc 2 87 32 discriminator 2 view .LVU177
 706 01ee B0EE408A 		vmov.f32	s16, s0
 707              	.LVL30:
  88:../../DaisySP/Source/Effects/pitchshifter.h ****         if(prev_phs_a_ > fade1)
 708              		.loc 2 88 9 is_stmt 1 discriminator 2 view .LVU178
  88:../../DaisySP/Source/Effects/pitchshifter.h ****         if(prev_phs_a_ > fade1)
 709              		.loc 2 88 32 is_stmt 0 discriminator 2 view .LVU179
 710 01f2 FFF7FEFF 		bl	_ZN7daisysp6Phasor7ProcessEv
 711              	.LVL31:
  89:../../DaisySP/Source/Effects/pitchshifter.h ****         {
 712              		.loc 2 89 9 discriminator 2 view .LVU180
 713 01f6 D8ED007A 		vldr.32	s15, [r8]
  88:../../DaisySP/Source/Effects/pitchshifter.h ****         if(prev_phs_a_ > fade1)
 714              		.loc 2 88 32 discriminator 2 view .LVU181
 715 01fa F0EE408A 		vmov.f32	s17, s0
 716              	.LVL32:
  89:../../DaisySP/Source/Effects/pitchshifter.h ****         {
 717              		.loc 2 89 9 is_stmt 1 discriminator 2 view .LVU182
 718 01fe B4EEE78A 		vcmpe.f32	s16, s15
 719 0202 F1EE10FA 		vmrs	APSR_nzcv, FPSCR
 720 0206 7FF515AF 		bpl	.L21
  91:../../DaisySP/Source/Effects/pitchshifter.h ****                          * (del_size_ * 0.5f);
 721              		.loc 2 91 13 view .LVU183
 722              	.LBB257:
 723              	.LBI257:
  31:../../DaisySP/Source/Effects/pitchshifter.h **** {
 724              		.loc 2 31 17 view .LVU184
 725              	.LBB258:
  33:../../DaisySP/Source/Effects/pitchshifter.h ****     seed                 = hash_xs32(seed);
 726              		.loc 2 33 5 view .LVU185
  34:../../DaisySP/Source/Effects/pitchshifter.h ****     return seed;
 727              		.loc 2 34 5 view .LVU186
  34:../../DaisySP/Source/Effects/pitchshifter.h ****     return seed;
 728              		.loc 2 34 37 is_stmt 0 view .LVU187
 729 020a DFF884C1 		ldr	ip, .L23+88
 730              	.LBE258:
 731              	.LBE257:
  91:../../DaisySP/Source/Effects/pitchshifter.h ****                          * (del_size_ * 0.5f);
 732              		.loc 2 91 26 view .LVU188
 733 020e 584A     		ldr	r2, .L23+56
 734              	.LBB271:
 735              	.LBB267:
  34:../../DaisySP/Source/Effects/pitchshifter.h ****     return seed;
 736              		.loc 2 34 37 view .LVU189
 737 0210 DCF80030 		ldr	r3, [ip]
 738              	.LVL33:
 739              	.LBB259:
 740              	.LBI259:
  23:../../DaisySP/Source/Effects/pitchshifter.h **** {
 741              		.loc 2 23 24 is_stmt 1 view .LVU190
 742              	.LBB260:
  25:../../DaisySP/Source/Effects/pitchshifter.h ****     x ^= x >> 17;
 743              		.loc 2 25 5 view .LVU191
 744              	.LBE260:
 745              	.LBE259:
ARM GAS  /tmp/ccPPpVbu.s 			page 25


 746              	.LBE267:
 747              	.LBE271:
  91:../../DaisySP/Source/Effects/pitchshifter.h ****                          * (del_size_ * 0.5f);
 748              		.loc 2 91 31 is_stmt 0 view .LVU192
 749 0214 92ED004A 		vldr.32	s8, [r2]
 750              	.LBB272:
 751              	.LBB268:
 752              	.LBB264:
 753              	.LBB261:
  25:../../DaisySP/Source/Effects/pitchshifter.h ****     x ^= x >> 17;
 754              		.loc 2 25 7 view .LVU193
 755 0218 83EA4333 		eor	r3, r3, r3, lsl #13
 756              	.LVL34:
  26:../../DaisySP/Source/Effects/pitchshifter.h ****     x ^= x << 5;
 757              		.loc 2 26 5 is_stmt 1 view .LVU194
 758              	.LBE261:
 759              	.LBE264:
 760              	.LBE268:
 761              	.LBE272:
  92:../../DaisySP/Source/Effects/pitchshifter.h ****             mod_coeff_[0]
 762              		.loc 2 92 29 is_stmt 0 view .LVU195
 763 021c 52F844EC 		ldr	lr, [r2, #-68]
  91:../../DaisySP/Source/Effects/pitchshifter.h ****                          * (del_size_ * 0.5f);
 764              		.loc 2 91 51 view .LVU196
 765 0220 5449     		ldr	r1, .L23+60
 766              	.LBB273:
 767              	.LBB269:
 768              	.LBB265:
 769              	.LBB262:
  26:../../DaisySP/Source/Effects/pitchshifter.h ****     x ^= x << 5;
 770              		.loc 2 26 7 view .LVU197
 771 0222 83EA5343 		eor	r3, r3, r3, lsr #17
 772              	.LVL35:
  27:../../DaisySP/Source/Effects/pitchshifter.h ****     return x;
 773              		.loc 2 27 5 is_stmt 1 view .LVU198
 774              	.LBE262:
 775              	.LBE265:
 776              	.LBE269:
 777              	.LBE273:
  91:../../DaisySP/Source/Effects/pitchshifter.h ****                          * (del_size_ * 0.5f);
 778              		.loc 2 91 58 is_stmt 0 view .LVU199
 779 0226 9FED546A 		vldr.32	s12, .L23+64
  94:../../DaisySP/Source/Effects/pitchshifter.h ****         }
 780              		.loc 2 94 27 view .LVU200
 781 022a DFED545A 		vldr.32	s11, .L23+68
  92:../../DaisySP/Source/Effects/pitchshifter.h ****             mod_coeff_[0]
 782              		.loc 2 92 39 view .LVU201
 783 022e 04EE90EA 		vmov	s9, lr	@ int
 784              	.LBB274:
 785              	.LBB270:
 786              	.LBB266:
 787              	.LBB263:
  27:../../DaisySP/Source/Effects/pitchshifter.h ****     return x;
 788              		.loc 2 27 7 view .LVU202
 789 0232 83EA4313 		eor	r3, r3, r3, lsl #5
 790              	.LVL36:
  28:../../DaisySP/Source/Effects/pitchshifter.h **** }
ARM GAS  /tmp/ccPPpVbu.s 			page 26


 791              		.loc 2 28 5 is_stmt 1 view .LVU203
  28:../../DaisySP/Source/Effects/pitchshifter.h **** }
 792              		.loc 2 28 5 is_stmt 0 view .LVU204
 793              	.LBE263:
 794              	.LBE266:
  35:../../DaisySP/Source/Effects/pitchshifter.h **** }
 795              		.loc 2 35 5 is_stmt 1 view .LVU205
 796              	.LBE270:
 797              	.LBE274:
  94:../../DaisySP/Source/Effects/pitchshifter.h ****         }
 798              		.loc 2 94 27 is_stmt 0 view .LVU206
 799 0236 9FED525A 		vldr.32	s10, .L23+72
  92:../../DaisySP/Source/Effects/pitchshifter.h ****             mod_coeff_[0]
 800              		.loc 2 92 39 view .LVU207
 801 023a FBEEEF4A 		vcvt.f32.u32	s9, s9, #1
 802              	.LBB275:
 803              	.LBB276:
 804              	.LBB277:
 805              	.LBB278:
  25:../../DaisySP/Source/Effects/pitchshifter.h ****     x ^= x >> 17;
 806              		.loc 2 25 7 view .LVU208
 807 023e 83EA4332 		eor	r2, r3, r3, lsl #13
 808              	.LBE278:
 809              	.LBE277:
 810              	.LBE276:
 811              	.LBE275:
  91:../../DaisySP/Source/Effects/pitchshifter.h ****                          * (del_size_ * 0.5f);
 812              		.loc 2 91 51 view .LVU209
 813 0242 A1FB0360 		umull	r6, r0, r1, r3
 814              	.LBB289:
 815              	.LBB285:
 816              	.LBB282:
 817              	.LBB279:
  26:../../DaisySP/Source/Effects/pitchshifter.h ****     x ^= x << 5;
 818              		.loc 2 26 7 view .LVU210
 819 0246 82EA5242 		eor	r2, r2, r2, lsr #17
 820              	.LBE279:
 821              	.LBE282:
 822              	.LBE285:
 823              	.LBE289:
  91:../../DaisySP/Source/Effects/pitchshifter.h ****                          * (del_size_ * 0.5f);
 824              		.loc 2 91 51 view .LVU211
 825 024a C009     		lsrs	r0, r0, #7
 826              	.LBB290:
 827              	.LBB286:
 828              	.LBB283:
 829              	.LBB280:
  27:../../DaisySP/Source/Effects/pitchshifter.h ****     return x;
 830              		.loc 2 27 7 view .LVU212
 831 024c 82EA4212 		eor	r2, r2, r2, lsl #5
 832              	.LBE280:
 833              	.LBE283:
 834              	.LBE286:
 835              	.LBE290:
  91:../../DaisySP/Source/Effects/pitchshifter.h ****                          * (del_size_ * 0.5f);
 836              		.loc 2 91 51 view .LVU213
 837 0250 C0EB0020 		rsb	r0, r0, r0, lsl #8
ARM GAS  /tmp/ccPPpVbu.s 			page 27


  94:../../DaisySP/Source/Effects/pitchshifter.h ****         }
 838              		.loc 2 94 48 view .LVU214
 839 0254 A1FB0261 		umull	r6, r1, r1, r2
  91:../../DaisySP/Source/Effects/pitchshifter.h ****                          * (del_size_ * 0.5f);
 840              		.loc 2 91 51 view .LVU215
 841 0258 181A     		subs	r0, r3, r0
 842              	.LBB291:
 843              	.LBB287:
  34:../../DaisySP/Source/Effects/pitchshifter.h ****     return seed;
 844              		.loc 2 34 26 view .LVU216
 845 025a CCF80020 		str	r2, [ip]
 846              	.LBE287:
 847              	.LBE291:
  94:../../DaisySP/Source/Effects/pitchshifter.h ****         }
 848              		.loc 2 94 48 view .LVU217
 849 025e C909     		lsrs	r1, r1, #7
  91:../../DaisySP/Source/Effects/pitchshifter.h ****                          * (del_size_ * 0.5f);
 850              		.loc 2 91 24 view .LVU218
 851 0260 484B     		ldr	r3, .L23+76
  91:../../DaisySP/Source/Effects/pitchshifter.h ****                          * (del_size_ * 0.5f);
 852              		.loc 2 91 34 view .LVU219
 853 0262 07EE900A 		vmov	s15, r0	@ int
  94:../../DaisySP/Source/Effects/pitchshifter.h ****         }
 854              		.loc 2 94 48 view .LVU220
 855 0266 C1EB0121 		rsb	r1, r1, r1, lsl #8
  91:../../DaisySP/Source/Effects/pitchshifter.h ****                          * (del_size_ * 0.5f);
 856              		.loc 2 91 34 view .LVU221
 857 026a F8EEE77A 		vcvt.f32.s32	s15, s15
  94:../../DaisySP/Source/Effects/pitchshifter.h ****         }
 858              		.loc 2 94 48 view .LVU222
 859 026e 521A     		subs	r2, r2, r1
  94:../../DaisySP/Source/Effects/pitchshifter.h ****         }
 860              		.loc 2 94 31 view .LVU223
 861 0270 07EE102A 		vmov	s14, r2	@ int
 862 0274 F8EEC76A 		vcvt.f32.s32	s13, s14
  91:../../DaisySP/Source/Effects/pitchshifter.h ****                          * (del_size_ * 0.5f);
 863              		.loc 2 91 58 view .LVU224
 864 0278 87EE867A 		vdiv.f32	s14, s15, s12
  94:../../DaisySP/Source/Effects/pitchshifter.h ****         }
 865              		.loc 2 94 55 view .LVU225
 866 027c C6EE867A 		vdiv.f32	s15, s13, s12
  91:../../DaisySP/Source/Effects/pitchshifter.h ****                          * (del_size_ * 0.5f);
 867              		.loc 2 91 31 view .LVU226
 868 0280 27EE047A 		vmul.f32	s14, s14, s8
  92:../../DaisySP/Source/Effects/pitchshifter.h ****             mod_coeff_[0]
 869              		.loc 2 92 26 view .LVU227
 870 0284 27EE247A 		vmul.f32	s14, s14, s9
  94:../../DaisySP/Source/Effects/pitchshifter.h ****         }
 871              		.loc 2 94 27 view .LVU228
 872 0288 A7EEA55A 		vfma.f32	s10, s15, s11
  96:../../DaisySP/Source/Effects/pitchshifter.h ****         {
 873              		.loc 2 96 9 view .LVU229
 874 028c D7ED007A 		vldr.32	s15, [r7]
  91:../../DaisySP/Source/Effects/pitchshifter.h ****                          * (del_size_ * 0.5f);
 875              		.loc 2 91 24 view .LVU230
 876 0290 83ED007A 		vstr.32	s14, [r3]
  93:../../DaisySP/Source/Effects/pitchshifter.h ****                 = 0.0002f + (((float)(myrand() % 255) / 255.0f) * 0.001f);
ARM GAS  /tmp/ccPPpVbu.s 			page 28


 877              		.loc 2 93 13 is_stmt 1 view .LVU231
 878              	.LBB292:
 879              	.LBI275:
  31:../../DaisySP/Source/Effects/pitchshifter.h **** {
 880              		.loc 2 31 17 view .LVU232
 881              	.LBB288:
  33:../../DaisySP/Source/Effects/pitchshifter.h ****     seed                 = hash_xs32(seed);
 882              		.loc 2 33 5 view .LVU233
  34:../../DaisySP/Source/Effects/pitchshifter.h ****     return seed;
 883              		.loc 2 34 5 view .LVU234
 884              	.LVL37:
 885              	.LBB284:
 886              	.LBI277:
  23:../../DaisySP/Source/Effects/pitchshifter.h **** {
 887              		.loc 2 23 24 view .LVU235
 888              	.LBB281:
  25:../../DaisySP/Source/Effects/pitchshifter.h ****     x ^= x >> 17;
 889              		.loc 2 25 5 view .LVU236
  26:../../DaisySP/Source/Effects/pitchshifter.h ****     x ^= x << 5;
 890              		.loc 2 26 5 view .LVU237
  27:../../DaisySP/Source/Effects/pitchshifter.h ****     return x;
 891              		.loc 2 27 5 view .LVU238
  28:../../DaisySP/Source/Effects/pitchshifter.h **** }
 892              		.loc 2 28 5 view .LVU239
  28:../../DaisySP/Source/Effects/pitchshifter.h **** }
 893              		.loc 2 28 5 is_stmt 0 view .LVU240
 894              	.LBE281:
 895              	.LBE284:
  35:../../DaisySP/Source/Effects/pitchshifter.h **** }
 896              		.loc 2 35 5 is_stmt 1 view .LVU241
 897              	.LBE288:
 898              	.LBE292:
  96:../../DaisySP/Source/Effects/pitchshifter.h ****         {
 899              		.loc 2 96 9 is_stmt 0 view .LVU242
 900 0294 F4EEE78A 		vcmpe.f32	s17, s15
 901 0298 F1EE10FA 		vmrs	APSR_nzcv, FPSCR
  94:../../DaisySP/Source/Effects/pitchshifter.h ****         }
 902              		.loc 2 94 17 view .LVU243
 903 029c 83ED065A 		vstr.32	s10, [r3, #24]
  96:../../DaisySP/Source/Effects/pitchshifter.h ****         {
 904              		.loc 2 96 9 is_stmt 1 view .LVU244
 905 02a0 7FF5D7AE 		bpl	.L22
 906              	.L9:
  98:../../DaisySP/Source/Effects/pitchshifter.h ****                          * (del_size_ * 0.5f);
 907              		.loc 2 98 13 view .LVU245
 908              	.LBB293:
 909              	.LBI293:
  31:../../DaisySP/Source/Effects/pitchshifter.h **** {
 910              		.loc 2 31 17 view .LVU246
 911              	.LBB294:
  33:../../DaisySP/Source/Effects/pitchshifter.h ****     seed                 = hash_xs32(seed);
 912              		.loc 2 33 5 view .LVU247
  34:../../DaisySP/Source/Effects/pitchshifter.h ****     return seed;
 913              		.loc 2 34 5 view .LVU248
  34:../../DaisySP/Source/Effects/pitchshifter.h ****     return seed;
 914              		.loc 2 34 37 is_stmt 0 view .LVU249
 915 02a4 DFF8E8C0 		ldr	ip, .L23+88
ARM GAS  /tmp/ccPPpVbu.s 			page 29


 916              	.LBE294:
 917              	.LBE293:
  98:../../DaisySP/Source/Effects/pitchshifter.h ****                          * (del_size_ * 0.5f);
 918              		.loc 2 98 26 view .LVU250
 919 02a8 314A     		ldr	r2, .L23+56
 920              	.LBB307:
 921              	.LBB303:
  34:../../DaisySP/Source/Effects/pitchshifter.h ****     return seed;
 922              		.loc 2 34 37 view .LVU251
 923 02aa DCF80030 		ldr	r3, [ip]
 924              	.LVL38:
 925              	.LBB295:
 926              	.LBI295:
  23:../../DaisySP/Source/Effects/pitchshifter.h **** {
 927              		.loc 2 23 24 is_stmt 1 view .LVU252
 928              	.LBB296:
  25:../../DaisySP/Source/Effects/pitchshifter.h ****     x ^= x >> 17;
 929              		.loc 2 25 5 view .LVU253
 930              	.LBE296:
 931              	.LBE295:
 932              	.LBE303:
 933              	.LBE307:
  98:../../DaisySP/Source/Effects/pitchshifter.h ****                          * (del_size_ * 0.5f);
 934              		.loc 2 98 51 is_stmt 0 view .LVU254
 935 02ae 3149     		ldr	r1, .L23+60
 936              	.LBB308:
 937              	.LBB304:
 938              	.LBB300:
 939              	.LBB297:
  25:../../DaisySP/Source/Effects/pitchshifter.h ****     x ^= x >> 17;
 940              		.loc 2 25 7 view .LVU255
 941 02b0 83EA4333 		eor	r3, r3, r3, lsl #13
 942              	.LVL39:
  26:../../DaisySP/Source/Effects/pitchshifter.h ****     x ^= x << 5;
 943              		.loc 2 26 5 is_stmt 1 view .LVU256
 944              	.LBE297:
 945              	.LBE300:
 946              	.LBE304:
 947              	.LBE308:
  98:../../DaisySP/Source/Effects/pitchshifter.h ****                          * (del_size_ * 0.5f);
 948              		.loc 2 98 31 is_stmt 0 view .LVU257
 949 02b4 D2ED003A 		vldr.32	s7, [r2]
  98:../../DaisySP/Source/Effects/pitchshifter.h ****                          * (del_size_ * 0.5f);
 950              		.loc 2 98 58 view .LVU258
 951 02b8 9FED2F6A 		vldr.32	s12, .L23+64
 952              	.LBB309:
 953              	.LBB305:
 954              	.LBB301:
 955              	.LBB298:
  26:../../DaisySP/Source/Effects/pitchshifter.h ****     x ^= x << 5;
 956              		.loc 2 26 7 view .LVU259
 957 02bc 83EA5343 		eor	r3, r3, r3, lsr #17
 958              	.LVL40:
  27:../../DaisySP/Source/Effects/pitchshifter.h ****     return x;
 959              		.loc 2 27 5 is_stmt 1 view .LVU260
 960              	.LBE298:
 961              	.LBE301:
ARM GAS  /tmp/ccPPpVbu.s 			page 30


 962              	.LBE305:
 963              	.LBE309:
 101:../../DaisySP/Source/Effects/pitchshifter.h ****         }
 964              		.loc 2 101 27 is_stmt 0 view .LVU261
 965 02c0 DFED2E4A 		vldr.32	s9, .L23+68
 966 02c4 DFED2E5A 		vldr.32	s11, .L23+72
 967              	.LBB310:
 968              	.LBB306:
 969              	.LBB302:
 970              	.LBB299:
  27:../../DaisySP/Source/Effects/pitchshifter.h ****     return x;
 971              		.loc 2 27 7 view .LVU262
 972 02c8 83EA4313 		eor	r3, r3, r3, lsl #5
 973              	.LVL41:
  28:../../DaisySP/Source/Effects/pitchshifter.h **** }
 974              		.loc 2 28 5 is_stmt 1 view .LVU263
  28:../../DaisySP/Source/Effects/pitchshifter.h **** }
 975              		.loc 2 28 5 is_stmt 0 view .LVU264
 976              	.LBE299:
 977              	.LBE302:
  35:../../DaisySP/Source/Effects/pitchshifter.h **** }
 978              		.loc 2 35 5 is_stmt 1 view .LVU265
 979              	.LBE306:
 980              	.LBE310:
 981              	.LBB311:
 982              	.LBB312:
 983              	.LBB313:
 984              	.LBB314:
  25:../../DaisySP/Source/Effects/pitchshifter.h ****     x ^= x >> 17;
 985              		.loc 2 25 7 is_stmt 0 view .LVU266
 986 02cc 83EA4332 		eor	r2, r3, r3, lsl #13
 987              	.LBE314:
 988              	.LBE313:
 989              	.LBE312:
 990              	.LBE311:
  98:../../DaisySP/Source/Effects/pitchshifter.h ****                          * (del_size_ * 0.5f);
 991              		.loc 2 98 51 view .LVU267
 992 02d0 A1FB0360 		umull	r6, r0, r1, r3
 993              	.LBB325:
 994              	.LBB321:
 995              	.LBB318:
 996              	.LBB315:
  26:../../DaisySP/Source/Effects/pitchshifter.h ****     x ^= x << 5;
 997              		.loc 2 26 7 view .LVU268
 998 02d4 82EA5242 		eor	r2, r2, r2, lsr #17
 999              	.LBE315:
 1000              	.LBE318:
 1001              	.LBE321:
 1002              	.LBE325:
  98:../../DaisySP/Source/Effects/pitchshifter.h ****                          * (del_size_ * 0.5f);
 1003              		.loc 2 98 51 view .LVU269
 1004 02d8 C009     		lsrs	r0, r0, #7
 1005              	.LBB326:
 1006              	.LBB322:
 1007              	.LBB319:
 1008              	.LBB316:
  27:../../DaisySP/Source/Effects/pitchshifter.h ****     return x;
ARM GAS  /tmp/ccPPpVbu.s 			page 31


 1009              		.loc 2 27 7 view .LVU270
 1010 02da 82EA4212 		eor	r2, r2, r2, lsl #5
 1011              	.LBE316:
 1012              	.LBE319:
 1013              	.LBE322:
 1014              	.LBE326:
  98:../../DaisySP/Source/Effects/pitchshifter.h ****                          * (del_size_ * 0.5f);
 1015              		.loc 2 98 51 view .LVU271
 1016 02de C0EB0020 		rsb	r0, r0, r0, lsl #8
 101:../../DaisySP/Source/Effects/pitchshifter.h ****         }
 1017              		.loc 2 101 48 view .LVU272
 1018 02e2 A1FB0261 		umull	r6, r1, r1, r2
  98:../../DaisySP/Source/Effects/pitchshifter.h ****                          * (del_size_ * 0.5f);
 1019              		.loc 2 98 51 view .LVU273
 1020 02e6 1B1A     		subs	r3, r3, r0
 1021              	.LBB327:
 1022              	.LBB323:
  34:../../DaisySP/Source/Effects/pitchshifter.h ****     return seed;
 1023              		.loc 2 34 26 view .LVU274
 1024 02e8 CCF80020 		str	r2, [ip]
 1025              	.LBE323:
 1026              	.LBE327:
 101:../../DaisySP/Source/Effects/pitchshifter.h ****         }
 1027              		.loc 2 101 48 view .LVU275
 1028 02ec C909     		lsrs	r1, r1, #7
  98:../../DaisySP/Source/Effects/pitchshifter.h ****                          * (del_size_ * 0.5f);
 1029              		.loc 2 98 34 view .LVU276
 1030 02ee 07EE903A 		vmov	s15, r3	@ int
  98:../../DaisySP/Source/Effects/pitchshifter.h ****                          * (del_size_ * 0.5f);
 1031              		.loc 2 98 24 view .LVU277
 1032 02f2 254B     		ldr	r3, .L23+80
 101:../../DaisySP/Source/Effects/pitchshifter.h ****         }
 1033              		.loc 2 101 48 view .LVU278
 1034 02f4 C1EB0121 		rsb	r1, r1, r1, lsl #8
  98:../../DaisySP/Source/Effects/pitchshifter.h ****                          * (del_size_ * 0.5f);
 1035              		.loc 2 98 34 view .LVU279
 1036 02f8 F8EEE76A 		vcvt.f32.s32	s13, s15
 101:../../DaisySP/Source/Effects/pitchshifter.h ****         }
 1037              		.loc 2 101 48 view .LVU280
 1038 02fc 511A     		subs	r1, r2, r1
  98:../../DaisySP/Source/Effects/pitchshifter.h ****                          * (del_size_ * 0.5f);
 1039              		.loc 2 98 58 view .LVU281
 1040 02fe C6EE867A 		vdiv.f32	s15, s13, s12
 101:../../DaisySP/Source/Effects/pitchshifter.h ****         }
 1041              		.loc 2 101 31 view .LVU282
 1042 0302 06EE901A 		vmov	s13, r1	@ int
 1043 0306 F8EEE66A 		vcvt.f32.s32	s13, s13
 101:../../DaisySP/Source/Effects/pitchshifter.h ****         }
 1044              		.loc 2 101 55 view .LVU283
 1045 030a 86EE864A 		vdiv.f32	s8, s13, s12
  99:../../DaisySP/Source/Effects/pitchshifter.h ****             mod_coeff_[1]
 1046              		.loc 2 99 26 view .LVU284
 1047 030e 06EE90EA 		vmov	s13, lr	@ int
 1048 0312 FBEEEF6A 		vcvt.f32.u32	s13, s13, #1
  98:../../DaisySP/Source/Effects/pitchshifter.h ****                          * (del_size_ * 0.5f);
 1049              		.loc 2 98 31 view .LVU285
 1050 0316 67EEA37A 		vmul.f32	s15, s15, s7
ARM GAS  /tmp/ccPPpVbu.s 			page 32


  99:../../DaisySP/Source/Effects/pitchshifter.h ****             mod_coeff_[1]
 1051              		.loc 2 99 26 view .LVU286
 1052 031a 67EEA67A 		vmul.f32	s15, s15, s13
  98:../../DaisySP/Source/Effects/pitchshifter.h ****                          * (del_size_ * 0.5f);
 1053              		.loc 2 98 24 view .LVU287
 1054 031e C3ED007A 		vstr.32	s15, [r3]
 100:../../DaisySP/Source/Effects/pitchshifter.h ****                 = 0.0002f + (((float)(myrand() % 255) / 255.0f) * 0.001f);
 1055              		.loc 2 100 13 is_stmt 1 view .LVU288
 1056              	.LBB328:
 1057              	.LBI311:
  31:../../DaisySP/Source/Effects/pitchshifter.h **** {
 1058              		.loc 2 31 17 view .LVU289
 1059              	.LBB324:
  33:../../DaisySP/Source/Effects/pitchshifter.h ****     seed                 = hash_xs32(seed);
 1060              		.loc 2 33 5 view .LVU290
  34:../../DaisySP/Source/Effects/pitchshifter.h ****     return seed;
 1061              		.loc 2 34 5 view .LVU291
 1062              	.LVL42:
 1063              	.LBB320:
 1064              	.LBI313:
  23:../../DaisySP/Source/Effects/pitchshifter.h **** {
 1065              		.loc 2 23 24 view .LVU292
 1066              	.LBB317:
  25:../../DaisySP/Source/Effects/pitchshifter.h ****     x ^= x >> 17;
 1067              		.loc 2 25 5 view .LVU293
  26:../../DaisySP/Source/Effects/pitchshifter.h ****     x ^= x << 5;
 1068              		.loc 2 26 5 view .LVU294
  27:../../DaisySP/Source/Effects/pitchshifter.h ****     return x;
 1069              		.loc 2 27 5 view .LVU295
  28:../../DaisySP/Source/Effects/pitchshifter.h **** }
 1070              		.loc 2 28 5 view .LVU296
  28:../../DaisySP/Source/Effects/pitchshifter.h **** }
 1071              		.loc 2 28 5 is_stmt 0 view .LVU297
 1072              	.LBE317:
 1073              	.LBE320:
  35:../../DaisySP/Source/Effects/pitchshifter.h **** }
 1074              		.loc 2 35 5 is_stmt 1 view .LVU298
 1075              	.LBE324:
 1076              	.LBE328:
 101:../../DaisySP/Source/Effects/pitchshifter.h ****         }
 1077              		.loc 2 101 27 is_stmt 0 view .LVU299
 1078 0322 E4EE245A 		vfma.f32	s11, s8, s9
 101:../../DaisySP/Source/Effects/pitchshifter.h ****         }
 1079              		.loc 2 101 17 view .LVU300
 1080 0326 C3ED065A 		vstr.32	s11, [r3, #24]
 1081 032a 97E6     		b	.L10
 1082              	.LVL43:
 1083              	.L5:
 101:../../DaisySP/Source/Effects/pitchshifter.h ****         }
 1084              		.loc 2 101 17 view .LVU301
 1085              	.LBE335:
 1086              	.LBE342:
 1087              	.LBE343:
  31:pitchshifter.cpp ****     }
  32:pitchshifter.cpp **** }
 1088              		.loc 8 32 1 view .LVU302
 1089 032c 03B0     		add	sp, sp, #12
ARM GAS  /tmp/ccPPpVbu.s 			page 33


 1090              		.cfi_def_cfa_offset 52
 1091              		@ sp needed
 1092 032e BDEC048B 		vldm	sp!, {d8-d9}
 1093              		.cfi_restore 82
 1094              		.cfi_restore 83
 1095              		.cfi_restore 80
 1096              		.cfi_restore 81
 1097              		.cfi_def_cfa_offset 36
 1098              	.LVL44:
 1099              		.loc 8 32 1 view .LVU303
 1100 0332 BDE8F08F 		pop	{r4, r5, r6, r7, r8, r9, r10, fp, pc}
 1101              	.LVL45:
 1102              	.L18:
 1103              		.cfi_def_cfa_offset 0
 1104              		.cfi_restore 4
 1105              		.cfi_restore 5
 1106              		.cfi_restore 6
 1107              		.cfi_restore 7
 1108              		.cfi_restore 8
 1109              		.cfi_restore 9
 1110              		.cfi_restore 10
 1111              		.cfi_restore 11
 1112              		.cfi_restore 14
 1113              		.loc 8 32 1 view .LVU304
 1114 0336 7047     		bx	lr
 1115              	.L24:
 1116              		.align	2
 1117              	.L23:
 1118 0338 00000000 		.word	ps
 1119 033c 10000100 		.word	ps+65552
 1120 0340 20000200 		.word	ps+131104
 1121 0344 84000200 		.word	ps+131204
 1122 0348 2C000200 		.word	ps+131116
 1123 034c DB0F4940 		.word	1078530011
 1124 0350 58000200 		.word	ps+131160
 1125 0354 50000200 		.word	ps+131152
 1126 0358 54000200 		.word	ps+131156
 1127 035c 0C000100 		.word	ps+65548
 1128 0360 00000000 		.word	0
 1129 0364 00000000 		.word	.LANCHOR0
 1130 0368 30000200 		.word	ps+131120
 1131 036c 40000200 		.word	ps+131136
 1132 0370 64000200 		.word	ps+131172
 1133 0374 81808080 		.word	-2139062143
 1134 0378 00007F43 		.word	1132396544
 1135 037c 6F12833A 		.word	981668463
 1136 0380 17B75139 		.word	961656599
 1137 0384 68000200 		.word	ps+131176
 1138 0388 6C000200 		.word	ps+131180
 1139 038c 70000200 		.word	ps+131184
 1140 0390 00000000 		.word	_ZZN7daisysp6myrandEvE4seed
 1141              		.cfi_endproc
 1142              	.LFE4212:
 1144              		.section	.text.startup.main,"ax",%progbits
 1145              		.align	1
 1146              		.p2align 2,,3
 1147              		.global	main
ARM GAS  /tmp/ccPPpVbu.s 			page 34


 1148              		.syntax unified
 1149              		.thumb
 1150              		.thumb_func
 1151              		.fpu fpv5-d16
 1153              	main:
 1154              	.LFB4213:
  33:pitchshifter.cpp **** 
  34:pitchshifter.cpp **** int main(void)
  35:pitchshifter.cpp **** {
 1155              		.loc 8 35 1 is_stmt 1 view -0
 1156              		.cfi_startproc
 1157              		@ args = 0, pretend = 0, frame = 8
 1158              		@ frame_needed = 0, uses_anonymous_args = 0
  36:pitchshifter.cpp ****     // initialize seed hardware and daisysp modules
  37:pitchshifter.cpp ****     float sample_rate;
 1159              		.loc 8 37 5 view .LVU306
  38:pitchshifter.cpp ****     seed.Configure();
 1160              		.loc 8 38 5 view .LVU307
  35:pitchshifter.cpp ****     // initialize seed hardware and daisysp modules
 1161              		.loc 8 35 1 is_stmt 0 view .LVU308
 1162 0000 2DE9F047 		push	{r4, r5, r6, r7, r8, r9, r10, lr}
 1163              		.cfi_def_cfa_offset 32
 1164              		.cfi_offset 4, -32
 1165              		.cfi_offset 5, -28
 1166              		.cfi_offset 6, -24
 1167              		.cfi_offset 7, -20
 1168              		.cfi_offset 8, -16
 1169              		.cfi_offset 9, -12
 1170              		.cfi_offset 10, -8
 1171              		.cfi_offset 14, -4
 1172              	.LBB368:
 1173              	.LBB369:
  66:../../DaisySP/Source/Effects/pitchshifter.h ****         mod_freq_     = 5.0f;
 1174              		.loc 2 66 23 view .LVU309
 1175 0004 9D4F     		ldr	r7, .L52
 1176              	.LBE369:
 1177              	.LBE368:
 1178              		.loc 8 38 19 view .LVU310
 1179 0006 9E48     		ldr	r0, .L52+4
 1180              	.LBB470:
 1181              	.LBB464:
  67:../../DaisySP/Source/Effects/pitchshifter.h ****         SetSemitones();
 1182              		.loc 2 67 23 view .LVU311
 1183 0008 A7F10C06 		sub	r6, r7, #12
  65:../../DaisySP/Source/Effects/pitchshifter.h ****         sr_           = sr;
 1184              		.loc 2 65 23 view .LVU312
 1185 000c 9D4D     		ldr	r5, .L52+8
 1186              	.LBE464:
 1187              	.LBE470:
  35:pitchshifter.cpp ****     // initialize seed hardware and daisysp modules
 1188              		.loc 8 35 1 view .LVU313
 1189 000e 2DED028B 		vpush.64	{d8}
 1190              		.cfi_def_cfa_offset 40
 1191              		.cfi_offset 80, -40
 1192              		.cfi_offset 81, -36
 1193 0012 82B0     		sub	sp, sp, #8
 1194              		.cfi_def_cfa_offset 48
ARM GAS  /tmp/ccPPpVbu.s 			page 35


 1195 0014 06F16C08 		add	r8, r6, #108
 1196              		.loc 8 38 19 view .LVU314
 1197 0018 FFF7FEFF 		bl	_ZN5daisy9DaisySeed9ConfigureEv
 1198              	.LVL46:
  39:pitchshifter.cpp ****     seed.Init();
 1199              		.loc 8 39 5 is_stmt 1 view .LVU315
 1200              		.loc 8 39 14 is_stmt 0 view .LVU316
 1201 001c 0021     		movs	r1, #0
 1202 001e 9848     		ldr	r0, .L52+4
 1203 0020 C146     		mov	r9, r8
 1204 0022 FFF7FEFF 		bl	_ZN5daisy9DaisySeed4InitEb
 1205              	.LVL47:
  40:pitchshifter.cpp ****     sample_rate = seed.AudioSampleRate();
 1206              		.loc 8 40 5 is_stmt 1 view .LVU317
 1207              		.loc 8 40 39 is_stmt 0 view .LVU318
 1208 0026 9648     		ldr	r0, .L52+4
 1209 0028 FFF7FEFF 		bl	_ZN5daisy9DaisySeed15AudioSampleRateEv
 1210              	.LVL48:
 1211              	.LBB471:
 1212              	.LBB465:
  65:../../DaisySP/Source/Effects/pitchshifter.h ****         sr_           = sr;
 1213              		.loc 2 65 23 view .LVU319
 1214 002c 0023     		movs	r3, #0
 1215              	.LBE465:
 1216              	.LBE471:
 1217              		.loc 8 40 39 view .LVU320
 1218 002e B0EE408A 		vmov.f32	s16, s0
 1219              	.LVL49:
  41:pitchshifter.cpp **** 
  42:pitchshifter.cpp ****     ps.Init(sample_rate);
 1220              		.loc 8 42 5 is_stmt 1 view .LVU321
 1221              	.LBB472:
 1222              	.LBI368:
  63:../../DaisySP/Source/Effects/pitchshifter.h ****     {
 1223              		.loc 2 63 10 view .LVU322
 1224              	.LBB466:
  65:../../DaisySP/Source/Effects/pitchshifter.h ****         sr_           = sr;
 1225              		.loc 2 65 9 view .LVU323
  67:../../DaisySP/Source/Effects/pitchshifter.h ****         SetSemitones();
 1226              		.loc 2 67 23 is_stmt 0 view .LVU324
 1227 0032 9549     		ldr	r1, .L52+12
  65:../../DaisySP/Source/Effects/pitchshifter.h ****         sr_           = sr;
 1228              		.loc 2 65 23 view .LVU325
 1229 0034 954A     		ldr	r2, .L52+16
 1230              	.LBB370:
 1231              	.LBB371:
 135:../../DaisySP/Source/Effects/pitchshifter.h ****     }
 136:../../DaisySP/Source/Effects/pitchshifter.h **** 
 137:../../DaisySP/Source/Effects/pitchshifter.h ****     /** sets transposition in semitones
 138:../../DaisySP/Source/Effects/pitchshifter.h ****     */
 139:../../DaisySP/Source/Effects/pitchshifter.h ****     void SetTransposition(const float &transpose)
 140:../../DaisySP/Source/Effects/pitchshifter.h ****     {
 141:../../DaisySP/Source/Effects/pitchshifter.h ****         float   ratio;
 142:../../DaisySP/Source/Effects/pitchshifter.h ****         uint8_t idx;
 143:../../DaisySP/Source/Effects/pitchshifter.h ****         if(transpose_ != transpose || force_recalc_)
 144:../../DaisySP/Source/Effects/pitchshifter.h ****         {
 145:../../DaisySP/Source/Effects/pitchshifter.h ****             transpose_ = transpose;
ARM GAS  /tmp/ccPPpVbu.s 			page 36


 146:../../DaisySP/Source/Effects/pitchshifter.h ****             idx        = (uint8_t)fabsf(transpose);
 147:../../DaisySP/Source/Effects/pitchshifter.h ****             ratio      = semitone_ratios_[idx % 12];
 148:../../DaisySP/Source/Effects/pitchshifter.h ****             ratio *= (uint8_t)(fabsf(transpose) / 12) + 1;
 149:../../DaisySP/Source/Effects/pitchshifter.h ****             if(transpose > 0.0f)
 150:../../DaisySP/Source/Effects/pitchshifter.h ****             {
 151:../../DaisySP/Source/Effects/pitchshifter.h ****                 shift_up_ = true;
 152:../../DaisySP/Source/Effects/pitchshifter.h ****             }
 153:../../DaisySP/Source/Effects/pitchshifter.h ****             else
 154:../../DaisySP/Source/Effects/pitchshifter.h ****             {
 155:../../DaisySP/Source/Effects/pitchshifter.h ****                 shift_up_ = false;
 156:../../DaisySP/Source/Effects/pitchshifter.h ****             }
 157:../../DaisySP/Source/Effects/pitchshifter.h ****             mod_freq_ = ((ratio - 1.0f) * sr_) / del_size_;
 158:../../DaisySP/Source/Effects/pitchshifter.h ****             if(mod_freq_ < 0.0f)
 159:../../DaisySP/Source/Effects/pitchshifter.h ****             {
 160:../../DaisySP/Source/Effects/pitchshifter.h ****                 mod_freq_ = 0.0f;
 161:../../DaisySP/Source/Effects/pitchshifter.h ****             }
 162:../../DaisySP/Source/Effects/pitchshifter.h ****             phs_[0].SetFreq(mod_freq_);
 163:../../DaisySP/Source/Effects/pitchshifter.h ****             phs_[1].SetFreq(mod_freq_);
 164:../../DaisySP/Source/Effects/pitchshifter.h ****             if(force_recalc_)
 165:../../DaisySP/Source/Effects/pitchshifter.h ****             {
 166:../../DaisySP/Source/Effects/pitchshifter.h ****                 force_recalc_ = false;
 167:../../DaisySP/Source/Effects/pitchshifter.h ****             }
 168:../../DaisySP/Source/Effects/pitchshifter.h ****         }
 169:../../DaisySP/Source/Effects/pitchshifter.h ****     }
 170:../../DaisySP/Source/Effects/pitchshifter.h **** 
 171:../../DaisySP/Source/Effects/pitchshifter.h ****     /** sets delay size changing the timbre of the pitchshifting 
 172:../../DaisySP/Source/Effects/pitchshifter.h ****     */
 173:../../DaisySP/Source/Effects/pitchshifter.h ****     void SetDelSize(uint32_t size)
 174:../../DaisySP/Source/Effects/pitchshifter.h ****     {
 175:../../DaisySP/Source/Effects/pitchshifter.h ****         del_size_     = size < SHIFT_BUFFER_SIZE ? size : SHIFT_BUFFER_SIZE;
 176:../../DaisySP/Source/Effects/pitchshifter.h ****         force_recalc_ = true;
 177:../../DaisySP/Source/Effects/pitchshifter.h ****         SetTransposition(transpose_);
 178:../../DaisySP/Source/Effects/pitchshifter.h ****     }
 179:../../DaisySP/Source/Effects/pitchshifter.h **** 
 180:../../DaisySP/Source/Effects/pitchshifter.h ****     /** sets an amount of internal random modulation, kind of sounds like tape-flutter
 181:../../DaisySP/Source/Effects/pitchshifter.h ****     */
 182:../../DaisySP/Source/Effects/pitchshifter.h ****     inline void SetFun(float f) { fun_ = f; }
 183:../../DaisySP/Source/Effects/pitchshifter.h **** 
 184:../../DaisySP/Source/Effects/pitchshifter.h ****   private:
 185:../../DaisySP/Source/Effects/pitchshifter.h ****     inline void SetSemitones()
 186:../../DaisySP/Source/Effects/pitchshifter.h ****     {
 187:../../DaisySP/Source/Effects/pitchshifter.h ****         for(size_t i = 0; i < 12; i++)
 1232              		.loc 2 187 20 view .LVU326
 1233 0036 1C46     		mov	r4, r3
 1234              	.LBE371:
 1235              	.LBE370:
  66:../../DaisySP/Source/Effects/pitchshifter.h ****         mod_freq_     = 5.0f;
 1236              		.loc 2 66 23 view .LVU327
 1237 0038 87ED000A 		vstr.32	s0, [r7]
  67:../../DaisySP/Source/Effects/pitchshifter.h ****         SetSemitones();
 1238              		.loc 2 67 23 view .LVU328
 1239 003c 3160     		str	r1, [r6]	@ float
  65:../../DaisySP/Source/Effects/pitchshifter.h ****         sr_           = sr;
 1240              		.loc 2 65 23 view .LVU329
 1241 003e AB54     		strb	r3, [r5, r2]
  66:../../DaisySP/Source/Effects/pitchshifter.h ****         mod_freq_     = 5.0f;
 1242              		.loc 2 66 9 is_stmt 1 view .LVU330
ARM GAS  /tmp/ccPPpVbu.s 			page 37


  67:../../DaisySP/Source/Effects/pitchshifter.h ****         SetSemitones();
 1243              		.loc 2 67 9 view .LVU331
  68:../../DaisySP/Source/Effects/pitchshifter.h ****         for(uint8_t i = 0; i < 2; i++)
 1244              		.loc 2 68 9 view .LVU332
 1245              	.LVL50:
 1246              	.LBB373:
 1247              	.LBI370:
 185:../../DaisySP/Source/Effects/pitchshifter.h ****     {
 1248              		.loc 2 185 17 view .LVU333
 1249              	.LBB372:
 1250              		.loc 2 187 29 view .LVU334
 1251              	.L26:
 188:../../DaisySP/Source/Effects/pitchshifter.h ****         {
 189:../../DaisySP/Source/Effects/pitchshifter.h ****             semitone_ratios_[i] = powf(2.0f, (float)i / 12);
 1252              		.loc 2 189 13 view .LVU335
 1253              		.loc 2 189 46 is_stmt 0 view .LVU336
 1254 0040 07EE904A 		vmov	s15, r4	@ int
 187:../../DaisySP/Source/Effects/pitchshifter.h ****         {
 1255              		.loc 2 187 9 view .LVU337
 1256 0044 0134     		adds	r4, r4, #1
 1257              	.LVL51:
 1258              		.loc 2 189 39 view .LVU338
 1259 0046 B0EE000A 		vmov.f32	s0, #2.0e+0
 1260              		.loc 2 189 46 view .LVU339
 1261 004a F8EEE70A 		vcvt.f32.s32	s1, s15
 1262              		.loc 2 189 39 view .LVU340
 1263 004e F2EE087A 		vmov.f32	s15, #1.2e+1
 1264              	.LVL52:
 1265              		.loc 2 189 39 view .LVU341
 1266 0052 C0EEA70A 		vdiv.f32	s1, s1, s15
 1267 0056 FFF7FEFF 		bl	powf
 1268              	.LVL53:
 187:../../DaisySP/Source/Effects/pitchshifter.h ****         {
 1269              		.loc 2 187 29 view .LVU342
 1270 005a 0C2C     		cmp	r4, #12
 1271              		.loc 2 189 33 view .LVU343
 1272 005c A9EC010A 		vstmia.32	r9!, {s0}
 187:../../DaisySP/Source/Effects/pitchshifter.h ****         {
 1273              		.loc 2 187 9 is_stmt 1 view .LVU344
 1274              	.LVL54:
 187:../../DaisySP/Source/Effects/pitchshifter.h ****         {
 1275              		.loc 2 187 29 view .LVU345
 1276 0060 EED1     		bne	.L26
 1277              	.LVL55:
 187:../../DaisySP/Source/Effects/pitchshifter.h ****         {
 1278              		.loc 2 187 29 is_stmt 0 view .LVU346
 1279              	.LBE372:
 1280              	.LBE373:
 1281              	.LBB374:
  69:../../DaisySP/Source/Effects/pitchshifter.h ****         {
 1282              		.loc 2 69 30 is_stmt 1 view .LVU347
  71:../../DaisySP/Source/Effects/pitchshifter.h ****             d_[i].Init();
 1283              		.loc 2 71 13 view .LVU348
  71:../../DaisySP/Source/Effects/pitchshifter.h ****             d_[i].Init();
 1284              		.loc 2 71 22 is_stmt 0 view .LVU349
 1285 0062 8B4A     		ldr	r2, .L52+20
 1286 0064 0021     		movs	r1, #0
ARM GAS  /tmp/ccPPpVbu.s 			page 38


 1287 0066 8B4B     		ldr	r3, .L52+24
 1288 0068 1160     		str	r1, [r2]	@ float
  72:../../DaisySP/Source/Effects/pitchshifter.h ****             phs_[i].Init(sr, 50, i == 0 ? 0 : PI_F);
 1289              		.loc 2 72 13 is_stmt 1 view .LVU350
 1290              	.LVL56:
 1291              	.LBB375:
 1292              	.LBI375:
  27:../../DaisySP/Source/Utility/delayline.h ****     /** clears buffer, sets write ptr to 0, and delay to 1 sample.
 1293              		.loc 9 27 10 view .LVU351
 1294              	.LBB376:
 1295              	.LBI376:
  30:../../DaisySP/Source/Utility/delayline.h ****     {
 1296              		.loc 9 30 10 view .LVU352
 1297              	.LBB377:
 1298              	.LBB378:
  32:../../DaisySP/Source/Utility/delayline.h ****         {
 1299              		.loc 9 32 29 view .LVU353
 1300 006a 8B4A     		ldr	r2, .L52+28
 1301              	.LVL57:
 1302              	.L27:
  34:../../DaisySP/Source/Utility/delayline.h ****         }
 1303              		.loc 9 34 13 is_stmt 0 view .LVU354
 1304 006c 0024     		movs	r4, #0
 1305 006e 43F8044B 		str	r4, [r3], #4	@ float
  32:../../DaisySP/Source/Utility/delayline.h ****         {
 1306              		.loc 9 32 9 is_stmt 1 view .LVU355
  32:../../DaisySP/Source/Utility/delayline.h ****         {
 1307              		.loc 9 32 29 view .LVU356
 1308 0072 9342     		cmp	r3, r2
 1309 0074 FAD1     		bne	.L27
 1310              	.LBE378:
 1311              	.LBE377:
 1312              	.LBE376:
 1313              	.LBE375:
 1314              	.LBB396:
 1315              	.LBB397:
 1316              		.file 10 "../../DaisySP/Source/Control/phasor.h"
   1:../../DaisySP/Source/Control/phasor.h **** #pragma once
   2:../../DaisySP/Source/Control/phasor.h **** #ifndef DSY_PHASOR_H
   3:../../DaisySP/Source/Control/phasor.h **** #define DSY_PHASOR_H
   4:../../DaisySP/Source/Control/phasor.h **** #ifdef __cplusplus
   5:../../DaisySP/Source/Control/phasor.h **** 
   6:../../DaisySP/Source/Control/phasor.h **** namespace daisysp
   7:../../DaisySP/Source/Control/phasor.h **** {
   8:../../DaisySP/Source/Control/phasor.h **** /** Generates a normalized signal moving from 0-1 at the specified frequency.
   9:../../DaisySP/Source/Control/phasor.h **** 
  10:../../DaisySP/Source/Control/phasor.h **** \todo Selecting which channels should be initialized/included in the sequence conversion.
  11:../../DaisySP/Source/Control/phasor.h **** \todo Setup a similar start function for an external mux, but that seems outside the scope of this 
  12:../../DaisySP/Source/Control/phasor.h **** 
  13:../../DaisySP/Source/Control/phasor.h **** */
  14:../../DaisySP/Source/Control/phasor.h **** class Phasor
  15:../../DaisySP/Source/Control/phasor.h **** {
  16:../../DaisySP/Source/Control/phasor.h ****   public:
  17:../../DaisySP/Source/Control/phasor.h ****     Phasor() {}
  18:../../DaisySP/Source/Control/phasor.h ****     ~Phasor() {}
  19:../../DaisySP/Source/Control/phasor.h ****     /** Initializes the Phasor module
  20:../../DaisySP/Source/Control/phasor.h ****     sample rate, and freq are in Hz
ARM GAS  /tmp/ccPPpVbu.s 			page 39


  21:../../DaisySP/Source/Control/phasor.h ****     initial phase is in radians
  22:../../DaisySP/Source/Control/phasor.h ****     Additional Init functions have defaults when arg is not specified:
  23:../../DaisySP/Source/Control/phasor.h ****     - phs = 0.0f
  24:../../DaisySP/Source/Control/phasor.h ****     - freq = 1.0f
  25:../../DaisySP/Source/Control/phasor.h ****     */
  26:../../DaisySP/Source/Control/phasor.h ****     inline void Init(float sample_rate, float freq, float initial_phase)
  27:../../DaisySP/Source/Control/phasor.h ****     {
  28:../../DaisySP/Source/Control/phasor.h ****         sample_rate_ = sample_rate;
 1317              		.loc 10 28 22 is_stmt 0 view .LVU357
 1318 0076 DFF87092 		ldr	r9, .L52+108
 1319              	.LBE397:
 1320              	.LBE396:
 1321              	.LBB407:
 1322              	.LBB388:
 1323              	.LBB380:
  36:../../DaisySP/Source/Utility/delayline.h ****         delay_     = 1;
 1324              		.loc 9 36 9 view .LVU358
 1325 007a 0021     		movs	r1, #0
  37:../../DaisySP/Source/Utility/delayline.h ****     }
 1326              		.loc 9 37 9 view .LVU359
 1327 007c 0122     		movs	r2, #1
 1328              	.LBE380:
 1329              	.LBE388:
 1330              	.LBE407:
 1331              	.LBB408:
 1332              	.LBB398:
  29:../../DaisySP/Source/Control/phasor.h ****         phs_         = initial_phase;
  30:../../DaisySP/Source/Control/phasor.h ****         SetFreq(freq);
 1333              		.loc 10 30 16 view .LVU360
 1334 007e 9FED870A 		vldr.32	s0, .L52+32
 1335 0082 A9F10400 		sub	r0, r9, #4
  28:../../DaisySP/Source/Control/phasor.h ****         phs_         = initial_phase;
 1336              		.loc 10 28 22 view .LVU361
 1337 0086 89ED008A 		vstr.32	s16, [r9]
  29:../../DaisySP/Source/Control/phasor.h ****         phs_         = initial_phase;
 1338              		.loc 10 29 22 view .LVU362
 1339 008a C9F80840 		str	r4, [r9, #8]	@ float
 1340              	.LBE398:
 1341              	.LBE408:
 1342              	.LBB409:
 1343              	.LBB389:
 1344              	.LBB381:
  36:../../DaisySP/Source/Utility/delayline.h ****         delay_     = 1;
 1345              		.loc 9 36 9 view .LVU363
 1346 008e 6960     		str	r1, [r5, #4]
  37:../../DaisySP/Source/Utility/delayline.h ****     }
 1347              		.loc 9 37 9 view .LVU364
 1348 0090 AA60     		str	r2, [r5, #8]
 1349              	.LVL58:
  37:../../DaisySP/Source/Utility/delayline.h ****     }
 1350              		.loc 9 37 9 view .LVU365
 1351              	.LBE381:
 1352              	.LBE389:
 1353              	.LBE409:
  73:../../DaisySP/Source/Effects/pitchshifter.h ****         }
 1354              		.loc 2 73 13 is_stmt 1 view .LVU366
 1355              	.LBB410:
ARM GAS  /tmp/ccPPpVbu.s 			page 40


 1356              	.LBI396:
  26:../../DaisySP/Source/Control/phasor.h ****     {
 1357              		.loc 10 26 17 view .LVU367
 1358              	.LBB399:
  28:../../DaisySP/Source/Control/phasor.h ****         phs_         = initial_phase;
 1359              		.loc 10 28 9 view .LVU368
  29:../../DaisySP/Source/Control/phasor.h ****         SetFreq(freq);
 1360              		.loc 10 29 9 view .LVU369
 1361              		.loc 10 30 9 view .LVU370
 1362              		.loc 10 30 16 is_stmt 0 view .LVU371
 1363 0092 FFF7FEFF 		bl	_ZN7daisysp6Phasor7SetFreqEf
 1364              	.LVL59:
 1365              		.loc 10 30 16 view .LVU372
 1366              	.LBE399:
 1367              	.LBE410:
  69:../../DaisySP/Source/Effects/pitchshifter.h ****         {
 1368              		.loc 2 69 9 is_stmt 1 view .LVU373
  69:../../DaisySP/Source/Effects/pitchshifter.h ****         {
 1369              		.loc 2 69 30 view .LVU374
  71:../../DaisySP/Source/Effects/pitchshifter.h ****             d_[i].Init();
 1370              		.loc 2 71 13 view .LVU375
 1371 0096 8249     		ldr	r1, .L52+36
 1372 0098 824B     		ldr	r3, .L52+40
 1373 009a 2944     		add	r1, r1, r5
  71:../../DaisySP/Source/Effects/pitchshifter.h ****             d_[i].Init();
 1374              		.loc 2 71 22 is_stmt 0 view .LVU376
 1375 009c C9F82040 		str	r4, [r9, #32]	@ float
  72:../../DaisySP/Source/Effects/pitchshifter.h ****             phs_[i].Init(sr, 50, i == 0 ? 0 : PI_F);
 1376              		.loc 2 72 13 is_stmt 1 view .LVU377
 1377              	.LVL60:
 1378              	.LBB411:
  27:../../DaisySP/Source/Utility/delayline.h ****     /** clears buffer, sets write ptr to 0, and delay to 1 sample.
 1379              		.loc 9 27 10 view .LVU378
 1380              	.LBB390:
  30:../../DaisySP/Source/Utility/delayline.h ****     {
 1381              		.loc 9 30 10 view .LVU379
 1382              	.LBB382:
 1383              	.LBB379:
  32:../../DaisySP/Source/Utility/delayline.h ****         {
 1384              		.loc 9 32 29 view .LVU380
 1385              	.L28:
  34:../../DaisySP/Source/Utility/delayline.h ****         }
 1386              		.loc 9 34 13 is_stmt 0 view .LVU381
 1387 00a0 0022     		movs	r2, #0
 1388 00a2 43F8042B 		str	r2, [r3], #4	@ float
  32:../../DaisySP/Source/Utility/delayline.h ****         {
 1389              		.loc 9 32 9 is_stmt 1 view .LVU382
  32:../../DaisySP/Source/Utility/delayline.h ****         {
 1390              		.loc 9 32 29 view .LVU383
 1391 00a6 8B42     		cmp	r3, r1
 1392 00a8 FAD1     		bne	.L28
 1393              	.LBE379:
 1394              	.LBE382:
 1395              	.LBE390:
 1396              	.LBE411:
 1397              	.LBB412:
 1398              	.LBB400:
ARM GAS  /tmp/ccPPpVbu.s 			page 41


  28:../../DaisySP/Source/Control/phasor.h ****         phs_         = initial_phase;
 1399              		.loc 10 28 22 is_stmt 0 view .LVU384
 1400 00aa 7F48     		ldr	r0, .L52+44
 1401              	.LBE400:
 1402              	.LBE412:
 1403              	.LBB413:
 1404              	.LBB391:
 1405              	.LBB383:
  37:../../DaisySP/Source/Utility/delayline.h ****     }
 1406              		.loc 9 37 9 view .LVU385
 1407 00ac 4FF0010A 		mov	r10, #1
 1408              	.LBE383:
 1409              	.LBE391:
 1410              	.LBE413:
 1411              	.LBB414:
 1412              	.LBB401:
  29:../../DaisySP/Source/Control/phasor.h ****         SetFreq(freq);
 1413              		.loc 10 29 22 view .LVU386
 1414 00b0 7E4A     		ldr	r2, .L52+48
 1415              	.LBE401:
 1416              	.LBE414:
 1417              	.LBB415:
 1418              	.LBB392:
 1419              	.LBB384:
  36:../../DaisySP/Source/Utility/delayline.h ****         delay_     = 1;
 1420              		.loc 9 36 9 view .LVU387
 1421 00b2 4FF00009 		mov	r9, #0
 1422              	.LBE384:
 1423              	.LBE392:
 1424              	.LBE415:
 1425              	.LBB416:
 1426              	.LBB402:
  28:../../DaisySP/Source/Control/phasor.h ****         phs_         = initial_phase;
 1427              		.loc 10 28 22 view .LVU388
 1428 00b6 0346     		mov	r3, r0
 1429              	.LBE402:
 1430              	.LBE416:
 1431              	.LBE374:
 1432              	.LBB424:
 1433              	.LBB425:
 1434              	.LBB426:
 1435              	.LBB427:
 143:../../DaisySP/Source/Effects/pitchshifter.h ****         {
 1436              		.loc 2 143 12 view .LVU389
 1437 00b8 0446     		mov	r4, r0
 1438              	.LBE427:
 1439              	.LBE426:
 1440              	.LBE425:
 1441              	.LBE424:
 1442              	.LBB454:
 1443              	.LBB417:
 1444              	.LBB393:
 1445              	.LBB385:
  36:../../DaisySP/Source/Utility/delayline.h ****         delay_     = 1;
 1446              		.loc 9 36 9 view .LVU390
 1447 00ba 7D49     		ldr	r1, .L52+52
 1448              	.LBE385:
ARM GAS  /tmp/ccPPpVbu.s 			page 42


 1449              	.LBE393:
 1450              	.LBE417:
 1451              	.LBB418:
 1452              	.LBB403:
 1453              		.loc 10 30 16 view .LVU391
 1454 00bc 0438     		subs	r0, r0, #4
  29:../../DaisySP/Source/Control/phasor.h ****         SetFreq(freq);
 1455              		.loc 10 29 22 view .LVU392
 1456 00be 9A60     		str	r2, [r3, #8]	@ float
 1457              	.LBE403:
 1458              	.LBE418:
 1459              	.LBE454:
 1460              	.LBB455:
 1461              	.LBB446:
 1462              	.LBB437:
 1463              	.LBB428:
 143:../../DaisySP/Source/Effects/pitchshifter.h ****         {
 1464              		.loc 2 143 12 view .LVU393
 1465 00c0 1C34     		adds	r4, r4, #28
 1466              	.LBE428:
 1467              	.LBE437:
 1468              	.LBE446:
 1469              	.LBE455:
 1470              	.LBB456:
 1471              	.LBB419:
 1472              	.LBB404:
  28:../../DaisySP/Source/Control/phasor.h ****         phs_         = initial_phase;
 1473              		.loc 10 28 22 view .LVU394
 1474 00c2 83ED008A 		vstr.32	s16, [r3]
 1475              	.LBE404:
 1476              	.LBE419:
 1477              	.LBB420:
 1478              	.LBB394:
 1479              	.LBB386:
  37:../../DaisySP/Source/Utility/delayline.h ****     }
 1480              		.loc 9 37 9 view .LVU395
 1481 00c6 7B4B     		ldr	r3, .L52+56
 1482              	.LBE386:
 1483              	.LBE394:
 1484              	.LBE420:
 1485              	.LBB421:
 1486              	.LBB405:
 1487              		.loc 10 30 16 view .LVU396
 1488 00c8 9FED740A 		vldr.32	s0, .L52+32
 1489              	.LBE405:
 1490              	.LBE421:
 1491              	.LBB422:
 1492              	.LBB395:
 1493              	.LBB387:
  36:../../DaisySP/Source/Utility/delayline.h ****         delay_     = 1;
 1494              		.loc 9 36 9 view .LVU397
 1495 00cc 45F80190 		str	r9, [r5, r1]
  37:../../DaisySP/Source/Utility/delayline.h ****     }
 1496              		.loc 9 37 9 view .LVU398
 1497 00d0 45F803A0 		str	r10, [r5, r3]
 1498              	.LVL61:
  37:../../DaisySP/Source/Utility/delayline.h ****     }
ARM GAS  /tmp/ccPPpVbu.s 			page 43


 1499              		.loc 9 37 9 view .LVU399
 1500              	.LBE387:
 1501              	.LBE395:
 1502              	.LBE422:
  73:../../DaisySP/Source/Effects/pitchshifter.h ****         }
 1503              		.loc 2 73 13 is_stmt 1 view .LVU400
 1504              	.LBB423:
  26:../../DaisySP/Source/Control/phasor.h ****     {
 1505              		.loc 10 26 17 view .LVU401
 1506              	.LBB406:
  28:../../DaisySP/Source/Control/phasor.h ****         phs_         = initial_phase;
 1507              		.loc 10 28 9 view .LVU402
  29:../../DaisySP/Source/Control/phasor.h ****         SetFreq(freq);
 1508              		.loc 10 29 9 view .LVU403
 1509              		.loc 10 30 9 view .LVU404
 1510              		.loc 10 30 16 is_stmt 0 view .LVU405
 1511 00d4 FFF7FEFF 		bl	_ZN7daisysp6Phasor7SetFreqEf
 1512              	.LVL62:
 1513              		.loc 10 30 16 view .LVU406
 1514              	.LBE406:
 1515              	.LBE423:
  69:../../DaisySP/Source/Effects/pitchshifter.h ****         {
 1516              		.loc 2 69 9 is_stmt 1 view .LVU407
  69:../../DaisySP/Source/Effects/pitchshifter.h ****         {
 1517              		.loc 2 69 30 view .LVU408
 1518              	.LBE456:
  75:../../DaisySP/Source/Effects/pitchshifter.h ****         del_size_ = SHIFT_BUFFER_SIZE;
 1519              		.loc 2 75 9 view .LVU409
 1520              	.LBB457:
 1521              	.LBB447:
 1522              	.LBB438:
 1523              	.LBB429:
 143:../../DaisySP/Source/Effects/pitchshifter.h ****         {
 1524              		.loc 2 143 12 is_stmt 0 view .LVU410
 1525 00d8 D4ED007A 		vldr.32	s15, [r4]
 1526              	.LBE429:
 1527              	.LBE438:
 1528              	.LBE447:
 1529              	.LBE457:
  76:../../DaisySP/Source/Effects/pitchshifter.h ****         SetDelSize(del_size_);
 1530              		.loc 2 76 19 view .LVU411
 1531 00dc 4FF4804E 		mov	lr, #16384
 1532              	.LBB458:
 1533              	.LBB448:
 176:../../DaisySP/Source/Effects/pitchshifter.h ****         SetTransposition(transpose_);
 1534              		.loc 2 176 23 view .LVU412
 1535 00e0 6A4B     		ldr	r3, .L52+16
 1536              	.LBB439:
 1537              	.LBB430:
 147:../../DaisySP/Source/Effects/pitchshifter.h ****             ratio *= (uint8_t)(fabsf(transpose) / 12) + 1;
 1538              		.loc 2 147 24 view .LVU413
 1539 00e2 48F22200 		movw	r0, #32802
 146:../../DaisySP/Source/Effects/pitchshifter.h ****             ratio      = semitone_ratios_[idx % 12];
 1540              		.loc 2 146 40 view .LVU414
 1541 00e6 B0EEE77A 		vabs.f32	s14, s15
 1542              	.LBE430:
 1543              	.LBE439:
ARM GAS  /tmp/ccPPpVbu.s 			page 44


 1544              	.LBE448:
 1545              	.LBE458:
  76:../../DaisySP/Source/Effects/pitchshifter.h ****         SetDelSize(del_size_);
 1546              		.loc 2 76 19 view .LVU415
 1547 00ea DFF8E4C1 		ldr	ip, .L52+84
 1548              	.LBB459:
 1549              	.LBB449:
 1550              	.LBB440:
 1551              	.LBB431:
 147:../../DaisySP/Source/Effects/pitchshifter.h ****             ratio *= (uint8_t)(fabsf(transpose) / 12) + 1;
 1552              		.loc 2 147 47 view .LVU416
 1553 00ee 724A     		ldr	r2, .L52+60
 149:../../DaisySP/Source/Effects/pitchshifter.h ****             {
 1554              		.loc 2 149 13 view .LVU417
 1555 00f0 F5EEC07A 		vcmpe.f32	s15, #0
 1556              	.LBE431:
 1557              	.LBE440:
 176:../../DaisySP/Source/Effects/pitchshifter.h ****         SetTransposition(transpose_);
 1558              		.loc 2 176 23 view .LVU418
 1559 00f4 05F803A0 		strb	r10, [r5, r3]
 1560              	.LBB441:
 1561              	.LBB432:
 146:../../DaisySP/Source/Effects/pitchshifter.h ****             ratio      = semitone_ratios_[idx % 12];
 1562              		.loc 2 146 24 view .LVU419
 1563 00f8 FCEEC76A 		vcvt.u32.f32	s13, s14
 1564              	.LBE432:
 1565              	.LBE441:
 1566              	.LBE449:
 1567              	.LBE459:
  76:../../DaisySP/Source/Effects/pitchshifter.h ****         SetDelSize(del_size_);
 1568              		.loc 2 76 19 view .LVU420
 1569 00fc 45F80CE0 		str	lr, [r5, ip]
 1570              	.LBB460:
 1571              	.LBB450:
 1572              	.LBB442:
 1573              	.LBB433:
 149:../../DaisySP/Source/Effects/pitchshifter.h ****             {
 1574              		.loc 2 149 13 view .LVU421
 1575 0100 F1EE10FA 		vmrs	APSR_nzcv, FPSCR
 1576              	.LBE433:
 1577              	.LBE442:
 1578              	.LBE450:
 1579              	.LBE460:
  75:../../DaisySP/Source/Effects/pitchshifter.h ****         del_size_ = SHIFT_BUFFER_SIZE;
 1580              		.loc 2 75 19 view .LVU422
 1581 0104 6D49     		ldr	r1, .L52+64
 1582              	.LBB461:
 1583              	.LBB451:
 1584              	.LBB443:
 1585              	.LBB434:
 146:../../DaisySP/Source/Effects/pitchshifter.h ****             ratio      = semitone_ratios_[idx % 12];
 1586              		.loc 2 146 24 view .LVU423
 1587 0106 CDED016A 		vstr.32	s13, [sp, #4]	@ int
 147:../../DaisySP/Source/Effects/pitchshifter.h ****             ratio *= (uint8_t)(fabsf(transpose) / 12) + 1;
 1588              		.loc 2 147 47 view .LVU424
 1589 010a 9DF80430 		ldrb	r3, [sp, #4]	@ zero_extendqisi2
 1590              	.LBE434:
ARM GAS  /tmp/ccPPpVbu.s 			page 45


 1591              	.LBE443:
 1592              	.LBE451:
 1593              	.LBE461:
  75:../../DaisySP/Source/Effects/pitchshifter.h ****         del_size_ = SHIFT_BUFFER_SIZE;
 1594              		.loc 2 75 19 view .LVU425
 1595 010e 05F801A0 		strb	r10, [r5, r1]
  76:../../DaisySP/Source/Effects/pitchshifter.h ****         SetDelSize(del_size_);
 1596              		.loc 2 76 9 is_stmt 1 view .LVU426
  77:../../DaisySP/Source/Effects/pitchshifter.h ****         fun_ = 0.0f;
 1597              		.loc 2 77 9 view .LVU427
 1598              	.LVL63:
 1599              	.LBB462:
 1600              	.LBI424:
 173:../../DaisySP/Source/Effects/pitchshifter.h ****     {
 1601              		.loc 2 173 10 view .LVU428
 1602              	.LBB452:
 175:../../DaisySP/Source/Effects/pitchshifter.h ****         force_recalc_ = true;
 1603              		.loc 2 175 9 view .LVU429
 176:../../DaisySP/Source/Effects/pitchshifter.h ****         SetTransposition(transpose_);
 1604              		.loc 2 176 9 view .LVU430
 177:../../DaisySP/Source/Effects/pitchshifter.h ****     }
 1605              		.loc 2 177 9 view .LVU431
 1606              	.LBB444:
 1607              	.LBI426:
 139:../../DaisySP/Source/Effects/pitchshifter.h ****     {
 1608              		.loc 2 139 10 view .LVU432
 1609              	.LBB435:
 141:../../DaisySP/Source/Effects/pitchshifter.h ****         uint8_t idx;
 1610              		.loc 2 141 9 view .LVU433
 142:../../DaisySP/Source/Effects/pitchshifter.h ****         if(transpose_ != transpose || force_recalc_)
 1611              		.loc 2 142 9 view .LVU434
 143:../../DaisySP/Source/Effects/pitchshifter.h ****         {
 1612              		.loc 2 143 9 view .LVU435
 145:../../DaisySP/Source/Effects/pitchshifter.h ****             idx        = (uint8_t)fabsf(transpose);
 1613              		.loc 2 145 13 view .LVU436
 146:../../DaisySP/Source/Effects/pitchshifter.h ****             ratio      = semitone_ratios_[idx % 12];
 1614              		.loc 2 146 13 view .LVU437
 147:../../DaisySP/Source/Effects/pitchshifter.h ****             ratio *= (uint8_t)(fabsf(transpose) / 12) + 1;
 1615              		.loc 2 147 13 view .LVU438
 147:../../DaisySP/Source/Effects/pitchshifter.h ****             ratio *= (uint8_t)(fabsf(transpose) / 12) + 1;
 1616              		.loc 2 147 47 is_stmt 0 view .LVU439
 1617 0112 A2FB03C2 		umull	ip, r2, r2, r3
 1618 0116 4FEAD202 		lsr	r2, r2, #3
 1619 011a 02EB4202 		add	r2, r2, r2, lsl #1
 1620 011e A3EB8203 		sub	r3, r3, r2, lsl #2
 147:../../DaisySP/Source/Effects/pitchshifter.h ****             ratio *= (uint8_t)(fabsf(transpose) / 12) + 1;
 1621              		.loc 2 147 24 view .LVU440
 1622 0122 50FA83F3 		uxtab	r3, r0, r3
 1623 0126 05EB8303 		add	r3, r5, r3, lsl #2
 1624 012a D3ED005A 		vldr.32	s11, [r3]
 1625              	.LVL64:
 148:../../DaisySP/Source/Effects/pitchshifter.h ****             if(transpose > 0.0f)
 1626              		.loc 2 148 13 is_stmt 1 view .LVU441
 149:../../DaisySP/Source/Effects/pitchshifter.h ****             {
 1627              		.loc 2 149 13 view .LVU442
 1628 012e 01DC     		bgt	.L29
 155:../../DaisySP/Source/Effects/pitchshifter.h ****             }
ARM GAS  /tmp/ccPPpVbu.s 			page 46


 1629              		.loc 2 155 17 view .LVU443
 155:../../DaisySP/Source/Effects/pitchshifter.h ****             }
 1630              		.loc 2 155 27 is_stmt 0 view .LVU444
 1631 0130 05F80190 		strb	r9, [r5, r1]
 1632              	.L29:
 157:../../DaisySP/Source/Effects/pitchshifter.h ****             if(mod_freq_ < 0.0f)
 1633              		.loc 2 157 13 is_stmt 1 view .LVU445
 148:../../DaisySP/Source/Effects/pitchshifter.h ****             if(transpose > 0.0f)
 1634              		.loc 2 148 49 is_stmt 0 view .LVU446
 1635 0134 F2EE084A 		vmov.f32	s9, #1.2e+1
 157:../../DaisySP/Source/Effects/pitchshifter.h ****             if(mod_freq_ < 0.0f)
 1636              		.loc 2 157 41 view .LVU447
 1637 0138 97ED006A 		vldr.32	s12, [r7]
 157:../../DaisySP/Source/Effects/pitchshifter.h ****             if(mod_freq_ < 0.0f)
 1638              		.loc 2 157 33 view .LVU448
 1639 013c FFEE007A 		vmov.f32	s15, #-1.0e+0
 157:../../DaisySP/Source/Effects/pitchshifter.h ****             if(mod_freq_ < 0.0f)
 1640              		.loc 2 157 48 view .LVU449
 1641 0140 DFED5F6A 		vldr.32	s13, .L52+68
 158:../../DaisySP/Source/Effects/pitchshifter.h ****             {
 1642              		.loc 2 158 13 view .LVU450
 1643 0144 0022     		movs	r2, #0
 162:../../DaisySP/Source/Effects/pitchshifter.h ****             phs_[1].SetFreq(mod_freq_);
 1644              		.loc 2 162 28 view .LVU451
 1645 0146 5F48     		ldr	r0, .L52+72
 148:../../DaisySP/Source/Effects/pitchshifter.h ****             if(transpose > 0.0f)
 1646              		.loc 2 148 49 view .LVU452
 1647 0148 87EE245A 		vdiv.f32	s10, s14, s9
 148:../../DaisySP/Source/Effects/pitchshifter.h ****             if(transpose > 0.0f)
 1648              		.loc 2 148 22 view .LVU453
 1649 014c BCEEC57A 		vcvt.u32.f32	s14, s10
 1650              	.LVL65:
 148:../../DaisySP/Source/Effects/pitchshifter.h ****             if(transpose > 0.0f)
 1651              		.loc 2 148 22 view .LVU454
 1652 0150 8DED017A 		vstr.32	s14, [sp, #4]	@ int
 1653 0154 9DF80430 		ldrb	r3, [sp, #4]	@ zero_extendqisi2
 148:../../DaisySP/Source/Effects/pitchshifter.h ****             if(transpose > 0.0f)
 1654              		.loc 2 148 55 view .LVU455
 1655 0158 0133     		adds	r3, r3, #1
 148:../../DaisySP/Source/Effects/pitchshifter.h ****             if(transpose > 0.0f)
 1656              		.loc 2 148 19 view .LVU456
 1657 015a 07EE103A 		vmov	s14, r3	@ int
 1658 015e B8EEC77A 		vcvt.f32.s32	s14, s14
 157:../../DaisySP/Source/Effects/pitchshifter.h ****             if(mod_freq_ < 0.0f)
 1659              		.loc 2 157 33 view .LVU457
 1660 0162 E5EE877A 		vfma.f32	s15, s11, s14
 157:../../DaisySP/Source/Effects/pitchshifter.h ****             if(mod_freq_ < 0.0f)
 1661              		.loc 2 157 41 view .LVU458
 1662 0166 67EE867A 		vmul.f32	s15, s15, s12
 157:../../DaisySP/Source/Effects/pitchshifter.h ****             if(mod_freq_ < 0.0f)
 1663              		.loc 2 157 48 view .LVU459
 1664 016a 67EEA67A 		vmul.f32	s15, s15, s13
 158:../../DaisySP/Source/Effects/pitchshifter.h ****             {
 1665              		.loc 2 158 13 is_stmt 1 view .LVU460
 1666 016e F5EEC07A 		vcmpe.f32	s15, #0
 1667 0172 F1EE10FA 		vmrs	APSR_nzcv, FPSCR
 160:../../DaisySP/Source/Effects/pitchshifter.h ****             }
ARM GAS  /tmp/ccPPpVbu.s 			page 47


 1668              		.loc 2 160 27 is_stmt 0 view .LVU461
 1669 0176 4CBF     		ite	mi
 1670 0178 3260     		strmi	r2, [r6]	@ float
 157:../../DaisySP/Source/Effects/pitchshifter.h ****             if(mod_freq_ < 0.0f)
 1671              		.loc 2 157 23 view .LVU462
 1672 017a C6ED007A 		vstrpl.32	s15, [r6]
 160:../../DaisySP/Source/Effects/pitchshifter.h ****             }
 1673              		.loc 2 160 17 is_stmt 1 view .LVU463
 162:../../DaisySP/Source/Effects/pitchshifter.h ****             phs_[1].SetFreq(mod_freq_);
 1674              		.loc 2 162 13 view .LVU464
 162:../../DaisySP/Source/Effects/pitchshifter.h ****             phs_[1].SetFreq(mod_freq_);
 1675              		.loc 2 162 28 is_stmt 0 view .LVU465
 1676 017e 96ED000A 		vldr.32	s0, [r6]
 1677 0182 FFF7FEFF 		bl	_ZN7daisysp6Phasor7SetFreqEf
 1678              	.LVL66:
 163:../../DaisySP/Source/Effects/pitchshifter.h ****             if(force_recalc_)
 1679              		.loc 2 163 13 is_stmt 1 view .LVU466
 163:../../DaisySP/Source/Effects/pitchshifter.h ****             if(force_recalc_)
 1680              		.loc 2 163 28 is_stmt 0 view .LVU467
 1681 0186 96ED000A 		vldr.32	s0, [r6]
 1682 018a 4F48     		ldr	r0, .L52+76
 1683 018c FFF7FEFF 		bl	_ZN7daisysp6Phasor7SetFreqEf
 1684              	.LVL67:
 164:../../DaisySP/Source/Effects/pitchshifter.h ****             {
 1685              		.loc 2 164 13 is_stmt 1 view .LVU468
 164:../../DaisySP/Source/Effects/pitchshifter.h ****             {
 1686              		.loc 2 164 16 is_stmt 0 view .LVU469
 1687 0190 3E4B     		ldr	r3, .L52+16
 164:../../DaisySP/Source/Effects/pitchshifter.h ****             {
 1688              		.loc 2 164 13 view .LVU470
 1689 0192 EA5C     		ldrb	r2, [r5, r3]	@ zero_extendqisi2
 1690 0194 002A     		cmp	r2, #0
 1691 0196 6DD1     		bne	.L51
 1692              	.L34:
 1693              	.LVL68:
 164:../../DaisySP/Source/Effects/pitchshifter.h ****             {
 1694              		.loc 2 164 13 view .LVU471
 1695              	.LBE435:
 1696              	.LBE444:
 1697              	.LBE452:
 1698              	.LBE462:
  78:../../DaisySP/Source/Effects/pitchshifter.h ****     }
 1699              		.loc 2 78 9 is_stmt 1 view .LVU472
 1700              	.LBE466:
 1701              	.LBE472:
 1702              	.LBB473:
 1703              	.LBB474:
 143:../../DaisySP/Source/Effects/pitchshifter.h ****         {
 1704              		.loc 2 143 9 is_stmt 0 view .LVU473
 1705 0198 F2EE087A 		vmov.f32	s15, #1.2e+1
 1706 019c 94ED007A 		vldr.32	s14, [r4]
 1707              	.LBE474:
 1708              	.LBE473:
 1709              	.LBB477:
 1710              	.LBB467:
  78:../../DaisySP/Source/Effects/pitchshifter.h ****     }
 1711              		.loc 2 78 14 view .LVU474
ARM GAS  /tmp/ccPPpVbu.s 			page 48


 1712 01a0 4A4B     		ldr	r3, .L52+80
 1713 01a2 0022     		movs	r2, #0
 1714              	.LBE467:
 1715              	.LBE477:
 1716              	.LBB478:
 1717              	.LBB475:
 143:../../DaisySP/Source/Effects/pitchshifter.h ****         {
 1718              		.loc 2 143 9 view .LVU475
 1719 01a4 B4EE677A 		vcmp.f32	s14, s15
 1720              	.LBE475:
 1721              	.LBE478:
 1722              	.LBB479:
 1723              	.LBB468:
  78:../../DaisySP/Source/Effects/pitchshifter.h ****     }
 1724              		.loc 2 78 14 view .LVU476
 1725 01a8 1A60     		str	r2, [r3]	@ float
 1726              	.LVL69:
  78:../../DaisySP/Source/Effects/pitchshifter.h ****     }
 1727              		.loc 2 78 14 view .LVU477
 1728              	.LBE468:
 1729              	.LBE479:
  43:pitchshifter.cpp ****     // set transposition 1 octave up (12 semitones)
  44:pitchshifter.cpp ****     ps.SetTransposition(12.0f);
 1730              		.loc 8 44 5 is_stmt 1 view .LVU478
 1731              	.LBB480:
 1732              	.LBI473:
 139:../../DaisySP/Source/Effects/pitchshifter.h ****     {
 1733              		.loc 2 139 10 view .LVU479
 1734              	.LBB476:
 141:../../DaisySP/Source/Effects/pitchshifter.h ****         uint8_t idx;
 1735              		.loc 2 141 9 view .LVU480
 142:../../DaisySP/Source/Effects/pitchshifter.h ****         if(transpose_ != transpose || force_recalc_)
 1736              		.loc 2 142 9 view .LVU481
 143:../../DaisySP/Source/Effects/pitchshifter.h ****         {
 1737              		.loc 2 143 9 view .LVU482
 1738 01aa F1EE10FA 		vmrs	APSR_nzcv, FPSCR
 1739 01ae 02D1     		bne	.L35
 143:../../DaisySP/Source/Effects/pitchshifter.h ****         {
 1740              		.loc 2 143 39 is_stmt 0 view .LVU483
 1741 01b0 364B     		ldr	r3, .L52+16
 143:../../DaisySP/Source/Effects/pitchshifter.h ****         {
 1742              		.loc 2 143 36 view .LVU484
 1743 01b2 EB5C     		ldrb	r3, [r5, r3]	@ zero_extendqisi2
 1744 01b4 83B3     		cbz	r3, .L36
 1745              	.L35:
 145:../../DaisySP/Source/Effects/pitchshifter.h ****             idx        = (uint8_t)fabsf(transpose);
 1746              		.loc 2 145 13 is_stmt 1 view .LVU485
 157:../../DaisySP/Source/Effects/pitchshifter.h ****             if(mod_freq_ < 0.0f)
 1747              		.loc 2 157 33 is_stmt 0 view .LVU486
 1748 01b6 B0EE006A 		vmov.f32	s12, #2.0e+0
 147:../../DaisySP/Source/Effects/pitchshifter.h ****             ratio *= (uint8_t)(fabsf(transpose) / 12) + 1;
 1749              		.loc 2 147 24 view .LVU487
 1750 01ba D8ED005A 		vldr.32	s11, [r8]
 157:../../DaisySP/Source/Effects/pitchshifter.h ****             if(mod_freq_ < 0.0f)
 1751              		.loc 2 157 33 view .LVU488
 1752 01be FFEE007A 		vmov.f32	s15, #-1.0e+0
 157:../../DaisySP/Source/Effects/pitchshifter.h ****             if(mod_freq_ < 0.0f)
ARM GAS  /tmp/ccPPpVbu.s 			page 49


 1753              		.loc 2 157 50 view .LVU489
 1754 01c2 434A     		ldr	r2, .L52+84
 157:../../DaisySP/Source/Effects/pitchshifter.h ****             if(mod_freq_ < 0.0f)
 1755              		.loc 2 157 41 view .LVU490
 1756 01c4 D7ED006A 		vldr.32	s13, [r7]
 151:../../DaisySP/Source/Effects/pitchshifter.h ****             }
 1757              		.loc 2 151 27 view .LVU491
 1758 01c8 0121     		movs	r1, #1
 157:../../DaisySP/Source/Effects/pitchshifter.h ****             if(mod_freq_ < 0.0f)
 1759              		.loc 2 157 48 view .LVU492
 1760 01ca AA18     		adds	r2, r5, r2
 145:../../DaisySP/Source/Effects/pitchshifter.h ****             idx        = (uint8_t)fabsf(transpose);
 1761              		.loc 2 145 24 view .LVU493
 1762 01cc 414B     		ldr	r3, .L52+88
 157:../../DaisySP/Source/Effects/pitchshifter.h ****             if(mod_freq_ < 0.0f)
 1763              		.loc 2 157 33 view .LVU494
 1764 01ce E5EE867A 		vfma.f32	s15, s11, s12
 162:../../DaisySP/Source/Effects/pitchshifter.h ****             phs_[1].SetFreq(mod_freq_);
 1765              		.loc 2 162 28 view .LVU495
 1766 01d2 3C48     		ldr	r0, .L52+72
 157:../../DaisySP/Source/Effects/pitchshifter.h ****             if(mod_freq_ < 0.0f)
 1767              		.loc 2 157 48 view .LVU496
 1768 01d4 92ED007A 		vldr.32	s14, [r2]	@ int
 145:../../DaisySP/Source/Effects/pitchshifter.h ****             idx        = (uint8_t)fabsf(transpose);
 1769              		.loc 2 145 24 view .LVU497
 1770 01d8 2360     		str	r3, [r4]	@ float
 146:../../DaisySP/Source/Effects/pitchshifter.h ****             ratio      = semitone_ratios_[idx % 12];
 1771              		.loc 2 146 13 is_stmt 1 view .LVU498
 1772              	.LVL70:
 147:../../DaisySP/Source/Effects/pitchshifter.h ****             ratio *= (uint8_t)(fabsf(transpose) / 12) + 1;
 1773              		.loc 2 147 13 view .LVU499
 148:../../DaisySP/Source/Effects/pitchshifter.h ****             if(transpose > 0.0f)
 1774              		.loc 2 148 13 view .LVU500
 149:../../DaisySP/Source/Effects/pitchshifter.h ****             {
 1775              		.loc 2 149 13 view .LVU501
 151:../../DaisySP/Source/Effects/pitchshifter.h ****             }
 1776              		.loc 2 151 17 view .LVU502
 158:../../DaisySP/Source/Effects/pitchshifter.h ****             {
 1777              		.loc 2 158 13 is_stmt 0 view .LVU503
 1778 01da 0023     		movs	r3, #0
 157:../../DaisySP/Source/Effects/pitchshifter.h ****             if(mod_freq_ < 0.0f)
 1779              		.loc 2 157 48 view .LVU504
 1780 01dc B8EE477A 		vcvt.f32.u32	s14, s14
 151:../../DaisySP/Source/Effects/pitchshifter.h ****             }
 1781              		.loc 2 151 27 view .LVU505
 1782 01e0 364A     		ldr	r2, .L52+64
 1783 01e2 A954     		strb	r1, [r5, r2]
 157:../../DaisySP/Source/Effects/pitchshifter.h ****             if(mod_freq_ < 0.0f)
 1784              		.loc 2 157 13 is_stmt 1 view .LVU506
 157:../../DaisySP/Source/Effects/pitchshifter.h ****             if(mod_freq_ < 0.0f)
 1785              		.loc 2 157 41 is_stmt 0 view .LVU507
 1786 01e4 67EEA67A 		vmul.f32	s15, s15, s13
 157:../../DaisySP/Source/Effects/pitchshifter.h ****             if(mod_freq_ < 0.0f)
 1787              		.loc 2 157 48 view .LVU508
 1788 01e8 C7EE876A 		vdiv.f32	s13, s15, s14
 158:../../DaisySP/Source/Effects/pitchshifter.h ****             {
 1789              		.loc 2 158 13 is_stmt 1 view .LVU509
ARM GAS  /tmp/ccPPpVbu.s 			page 50


 1790 01ec F5EEC06A 		vcmpe.f32	s13, #0
 1791 01f0 F1EE10FA 		vmrs	APSR_nzcv, FPSCR
 160:../../DaisySP/Source/Effects/pitchshifter.h ****             }
 1792              		.loc 2 160 27 is_stmt 0 view .LVU510
 1793 01f4 4CBF     		ite	mi
 1794 01f6 3360     		strmi	r3, [r6]	@ float
 157:../../DaisySP/Source/Effects/pitchshifter.h ****             if(mod_freq_ < 0.0f)
 1795              		.loc 2 157 23 view .LVU511
 1796 01f8 C6ED006A 		vstrpl.32	s13, [r6]
 160:../../DaisySP/Source/Effects/pitchshifter.h ****             }
 1797              		.loc 2 160 17 is_stmt 1 view .LVU512
 162:../../DaisySP/Source/Effects/pitchshifter.h ****             phs_[1].SetFreq(mod_freq_);
 1798              		.loc 2 162 13 view .LVU513
 162:../../DaisySP/Source/Effects/pitchshifter.h ****             phs_[1].SetFreq(mod_freq_);
 1799              		.loc 2 162 28 is_stmt 0 view .LVU514
 1800 01fc 96ED000A 		vldr.32	s0, [r6]
 1801 0200 FFF7FEFF 		bl	_ZN7daisysp6Phasor7SetFreqEf
 1802              	.LVL71:
 163:../../DaisySP/Source/Effects/pitchshifter.h ****             if(force_recalc_)
 1803              		.loc 2 163 13 is_stmt 1 view .LVU515
 163:../../DaisySP/Source/Effects/pitchshifter.h ****             if(force_recalc_)
 1804              		.loc 2 163 28 is_stmt 0 view .LVU516
 1805 0204 96ED000A 		vldr.32	s0, [r6]
 1806 0208 2F48     		ldr	r0, .L52+76
 1807 020a FFF7FEFF 		bl	_ZN7daisysp6Phasor7SetFreqEf
 1808              	.LVL72:
 164:../../DaisySP/Source/Effects/pitchshifter.h ****             {
 1809              		.loc 2 164 13 is_stmt 1 view .LVU517
 164:../../DaisySP/Source/Effects/pitchshifter.h ****             {
 1810              		.loc 2 164 16 is_stmt 0 view .LVU518
 1811 020e 1F4B     		ldr	r3, .L52+16
 164:../../DaisySP/Source/Effects/pitchshifter.h ****             {
 1812              		.loc 2 164 13 view .LVU519
 1813 0210 EA5C     		ldrb	r2, [r5, r3]	@ zero_extendqisi2
 1814 0212 0AB1     		cbz	r2, .L36
 166:../../DaisySP/Source/Effects/pitchshifter.h ****             }
 1815              		.loc 2 166 17 is_stmt 1 view .LVU520
 166:../../DaisySP/Source/Effects/pitchshifter.h ****             }
 1816              		.loc 2 166 31 is_stmt 0 view .LVU521
 1817 0214 0022     		movs	r2, #0
 1818 0216 EA54     		strb	r2, [r5, r3]
 1819              	.LVL73:
 1820              	.L36:
 166:../../DaisySP/Source/Effects/pitchshifter.h ****             }
 1821              		.loc 2 166 31 view .LVU522
 1822              	.LBE476:
 1823              	.LBE480:
  45:pitchshifter.cpp **** 
  46:pitchshifter.cpp ****     //setup oscillator
  47:pitchshifter.cpp ****     osc.Init(sample_rate);
 1824              		.loc 8 47 5 is_stmt 1 view .LVU523
 1825              	.LBB481:
 1826              	.LBI481:
  17:../../DaisySP/Source/Synthesis/oscillator.h ****     /** Choices for output waveforms, POLYBLEP are appropriately labeled. Others are naive forms.
  18:../../DaisySP/Source/Synthesis/oscillator.h ****     */
  19:../../DaisySP/Source/Synthesis/oscillator.h ****     enum
  20:../../DaisySP/Source/Synthesis/oscillator.h ****     {
ARM GAS  /tmp/ccPPpVbu.s 			page 51


  21:../../DaisySP/Source/Synthesis/oscillator.h ****         WAVE_SIN,
  22:../../DaisySP/Source/Synthesis/oscillator.h ****         WAVE_TRI,
  23:../../DaisySP/Source/Synthesis/oscillator.h ****         WAVE_SAW,
  24:../../DaisySP/Source/Synthesis/oscillator.h ****         WAVE_RAMP,
  25:../../DaisySP/Source/Synthesis/oscillator.h ****         WAVE_SQUARE,
  26:../../DaisySP/Source/Synthesis/oscillator.h ****         WAVE_POLYBLEP_TRI,
  27:../../DaisySP/Source/Synthesis/oscillator.h ****         WAVE_POLYBLEP_SAW,
  28:../../DaisySP/Source/Synthesis/oscillator.h ****         WAVE_POLYBLEP_SQUARE,
  29:../../DaisySP/Source/Synthesis/oscillator.h ****         WAVE_LAST,
  30:../../DaisySP/Source/Synthesis/oscillator.h ****     };
  31:../../DaisySP/Source/Synthesis/oscillator.h **** 
  32:../../DaisySP/Source/Synthesis/oscillator.h **** 
  33:../../DaisySP/Source/Synthesis/oscillator.h ****     /** Initializes the Oscillator
  34:../../DaisySP/Source/Synthesis/oscillator.h **** 
  35:../../DaisySP/Source/Synthesis/oscillator.h ****         \param sample_rate - sample rate of the audio engine being run, and the frequency that the 
  36:../../DaisySP/Source/Synthesis/oscillator.h **** 
  37:../../DaisySP/Source/Synthesis/oscillator.h ****         Defaults:
  38:../../DaisySP/Source/Synthesis/oscillator.h ****         - freq_ = 100 Hz
  39:../../DaisySP/Source/Synthesis/oscillator.h ****         - amp_ = 0.5
  40:../../DaisySP/Source/Synthesis/oscillator.h ****         - waveform_ = sine wave.
  41:../../DaisySP/Source/Synthesis/oscillator.h ****     */
  42:../../DaisySP/Source/Synthesis/oscillator.h ****     void Init(float sample_rate)
 1827              		.loc 1 42 10 view .LVU524
 1828              	.LBB482:
  43:../../DaisySP/Source/Synthesis/oscillator.h ****     {
  44:../../DaisySP/Source/Synthesis/oscillator.h ****         sr_        = sample_rate;
 1829              		.loc 1 44 9 view .LVU525
  45:../../DaisySP/Source/Synthesis/oscillator.h ****         sr_recip_  = 1.0f / sample_rate;
 1830              		.loc 1 45 27 is_stmt 0 view .LVU526
 1831 0218 B7EE007A 		vmov.f32	s14, #1.0e+0
  44:../../DaisySP/Source/Synthesis/oscillator.h ****         sr_recip_  = 1.0f / sample_rate;
 1832              		.loc 1 44 20 view .LVU527
 1833 021c 2E4C     		ldr	r4, .L52+92
  46:../../DaisySP/Source/Synthesis/oscillator.h ****         freq_      = 100.0f;
  47:../../DaisySP/Source/Synthesis/oscillator.h ****         amp_       = 0.5f;
 1834              		.loc 1 47 20 view .LVU528
 1835 021e 4FF07C52 		mov	r2, #1056964608
  48:../../DaisySP/Source/Synthesis/oscillator.h ****         phase_     = 0.0f;
 1836              		.loc 1 48 20 view .LVU529
 1837 0222 0023     		movs	r3, #0
  46:../../DaisySP/Source/Synthesis/oscillator.h ****         freq_      = 100.0f;
 1838              		.loc 1 46 20 view .LVU530
 1839 0224 9FED2D0A 		vldr.32	s0, .L52+96
  49:../../DaisySP/Source/Synthesis/oscillator.h ****         phase_inc_ = CalcPhaseInc(freq_);
 1840              		.loc 1 49 34 view .LVU531
 1841 0228 2046     		mov	r0, r4
  45:../../DaisySP/Source/Synthesis/oscillator.h ****         freq_      = 100.0f;
 1842              		.loc 1 45 27 view .LVU532
 1843 022a C7EE087A 		vdiv.f32	s15, s14, s16
  47:../../DaisySP/Source/Synthesis/oscillator.h ****         phase_     = 0.0f;
 1844              		.loc 1 47 20 view .LVU533
 1845 022e 6260     		str	r2, [r4, #4]	@ float
  48:../../DaisySP/Source/Synthesis/oscillator.h ****         phase_inc_ = CalcPhaseInc(freq_);
 1846              		.loc 1 48 20 view .LVU534
 1847 0230 6361     		str	r3, [r4, #20]	@ float
  44:../../DaisySP/Source/Synthesis/oscillator.h ****         sr_recip_  = 1.0f / sample_rate;
 1848              		.loc 1 44 20 view .LVU535
ARM GAS  /tmp/ccPPpVbu.s 			page 52


 1849 0232 84ED038A 		vstr.32	s16, [r4, #12]
  45:../../DaisySP/Source/Synthesis/oscillator.h ****         freq_      = 100.0f;
 1850              		.loc 1 45 9 is_stmt 1 view .LVU536
  46:../../DaisySP/Source/Synthesis/oscillator.h ****         amp_       = 0.5f;
 1851              		.loc 1 46 20 is_stmt 0 view .LVU537
 1852 0236 84ED020A 		vstr.32	s0, [r4, #8]
  45:../../DaisySP/Source/Synthesis/oscillator.h ****         freq_      = 100.0f;
 1853              		.loc 1 45 20 view .LVU538
 1854 023a C4ED047A 		vstr.32	s15, [r4, #16]
  46:../../DaisySP/Source/Synthesis/oscillator.h ****         amp_       = 0.5f;
 1855              		.loc 1 46 9 is_stmt 1 view .LVU539
  47:../../DaisySP/Source/Synthesis/oscillator.h ****         phase_     = 0.0f;
 1856              		.loc 1 47 9 view .LVU540
  48:../../DaisySP/Source/Synthesis/oscillator.h ****         phase_inc_ = CalcPhaseInc(freq_);
 1857              		.loc 1 48 9 view .LVU541
 1858              		.loc 1 49 9 view .LVU542
 1859              		.loc 1 49 34 is_stmt 0 view .LVU543
 1860 023e FFF7FEFF 		bl	_ZN7daisysp10Oscillator12CalcPhaseIncEf
 1861              	.LVL74:
  50:../../DaisySP/Source/Synthesis/oscillator.h ****         waveform_  = WAVE_SIN;
  51:../../DaisySP/Source/Synthesis/oscillator.h ****         eoc_       = true;
  52:../../DaisySP/Source/Synthesis/oscillator.h ****         eor_       = true;
 1862              		.loc 1 52 20 view .LVU544
 1863 0242 40F20113 		movw	r3, #257
  49:../../DaisySP/Source/Synthesis/oscillator.h ****         waveform_  = WAVE_SIN;
 1864              		.loc 1 49 34 view .LVU545
 1865 0246 F0EE407A 		vmov.f32	s15, s0
  50:../../DaisySP/Source/Synthesis/oscillator.h ****         waveform_  = WAVE_SIN;
 1866              		.loc 1 50 20 view .LVU546
 1867 024a 0022     		movs	r2, #0
 1868              	.LBE482:
 1869              	.LBE481:
 1870              	.LBB484:
 1871              	.LBB485:
  53:../../DaisySP/Source/Synthesis/oscillator.h ****     }
  54:../../DaisySP/Source/Synthesis/oscillator.h **** 
  55:../../DaisySP/Source/Synthesis/oscillator.h **** 
  56:../../DaisySP/Source/Synthesis/oscillator.h ****     /** Changes the frequency of the Oscillator, and recalculates phase increment.
  57:../../DaisySP/Source/Synthesis/oscillator.h ****     */
  58:../../DaisySP/Source/Synthesis/oscillator.h ****     inline void SetFreq(const float f)
  59:../../DaisySP/Source/Synthesis/oscillator.h ****     {
  60:../../DaisySP/Source/Synthesis/oscillator.h ****         freq_      = f;
 1872              		.loc 1 60 20 view .LVU547
 1873 024c 9FED240A 		vldr.32	s0, .L52+100
  61:../../DaisySP/Source/Synthesis/oscillator.h ****         phase_inc_ = CalcPhaseInc(f);
 1874              		.loc 1 61 34 view .LVU548
 1875 0250 2046     		mov	r0, r4
 1876              	.LBE485:
 1877              	.LBE484:
 1878              	.LBB488:
 1879              	.LBB483:
  52:../../DaisySP/Source/Synthesis/oscillator.h ****     }
 1880              		.loc 1 52 20 view .LVU549
 1881 0252 A384     		strh	r3, [r4, #36]	@ movhi
  49:../../DaisySP/Source/Synthesis/oscillator.h ****         waveform_  = WAVE_SIN;
 1882              		.loc 1 49 20 view .LVU550
 1883 0254 C4ED067A 		vstr.32	s15, [r4, #24]
ARM GAS  /tmp/ccPPpVbu.s 			page 53


  50:../../DaisySP/Source/Synthesis/oscillator.h ****         eoc_       = true;
 1884              		.loc 1 50 9 is_stmt 1 view .LVU551
  50:../../DaisySP/Source/Synthesis/oscillator.h ****         eoc_       = true;
 1885              		.loc 1 50 20 is_stmt 0 view .LVU552
 1886 0258 2270     		strb	r2, [r4]
  51:../../DaisySP/Source/Synthesis/oscillator.h ****         eor_       = true;
 1887              		.loc 1 51 9 is_stmt 1 view .LVU553
  52:../../DaisySP/Source/Synthesis/oscillator.h ****     }
 1888              		.loc 1 52 9 view .LVU554
 1889              	.LVL75:
  52:../../DaisySP/Source/Synthesis/oscillator.h ****     }
 1890              		.loc 1 52 9 is_stmt 0 view .LVU555
 1891              	.LBE483:
 1892              	.LBE488:
  48:pitchshifter.cpp ****     osc.SetFreq(440.f);
 1893              		.loc 8 48 5 is_stmt 1 view .LVU556
 1894              	.LBB489:
 1895              	.LBI484:
  58:../../DaisySP/Source/Synthesis/oscillator.h ****     {
 1896              		.loc 1 58 17 view .LVU557
 1897              	.LBB486:
  60:../../DaisySP/Source/Synthesis/oscillator.h ****         phase_inc_ = CalcPhaseInc(f);
 1898              		.loc 1 60 9 view .LVU558
  60:../../DaisySP/Source/Synthesis/oscillator.h ****         phase_inc_ = CalcPhaseInc(f);
 1899              		.loc 1 60 20 is_stmt 0 view .LVU559
 1900 025a 84ED020A 		vstr.32	s0, [r4, #8]
 1901              		.loc 1 61 9 is_stmt 1 view .LVU560
 1902              		.loc 1 61 34 is_stmt 0 view .LVU561
 1903 025e FFF7FEFF 		bl	_ZN7daisysp10Oscillator12CalcPhaseIncEf
 1904              	.LVL76:
 1905              	.LBE486:
 1906              	.LBE489:
 1907              	.LBB490:
 1908              	.LBB491:
  62:../../DaisySP/Source/Synthesis/oscillator.h ****     }
  63:../../DaisySP/Source/Synthesis/oscillator.h **** 
  64:../../DaisySP/Source/Synthesis/oscillator.h **** 
  65:../../DaisySP/Source/Synthesis/oscillator.h ****     /** Sets the amplitude of the waveform.
  66:../../DaisySP/Source/Synthesis/oscillator.h ****     */
  67:../../DaisySP/Source/Synthesis/oscillator.h ****     inline void SetAmp(const float a) { amp_ = a; }
  68:../../DaisySP/Source/Synthesis/oscillator.h ****     /** Sets the waveform to be synthesized by the Process() function.
  69:../../DaisySP/Source/Synthesis/oscillator.h ****     */
  70:../../DaisySP/Source/Synthesis/oscillator.h ****     inline void SetWaveform(const uint8_t wf)
  71:../../DaisySP/Source/Synthesis/oscillator.h ****     {
  72:../../DaisySP/Source/Synthesis/oscillator.h ****         waveform_ = wf < WAVE_LAST ? wf : WAVE_SIN;
 1909              		.loc 1 72 19 view .LVU562
 1910 0262 0123     		movs	r3, #1
 1911              	.LBE491:
 1912              	.LBE490:
  49:pitchshifter.cpp ****     osc.SetWaveform(Oscillator::WAVE_TRI);
  50:pitchshifter.cpp **** 
  51:pitchshifter.cpp ****     // start callback
  52:pitchshifter.cpp ****     seed.StartAudio(AudioCallback);
 1913              		.loc 8 52 20 view .LVU563
 1914 0264 1F49     		ldr	r1, .L52+104
 1915 0266 0648     		ldr	r0, .L52+4
 1916              	.LBB494:
ARM GAS  /tmp/ccPPpVbu.s 			page 54


 1917              	.LBB492:
 1918              		.loc 1 72 19 view .LVU564
 1919 0268 2370     		strb	r3, [r4]
 1920              	.LBE492:
 1921              	.LBE494:
 1922              	.LBB495:
 1923              	.LBB487:
  61:../../DaisySP/Source/Synthesis/oscillator.h ****     }
 1924              		.loc 1 61 20 view .LVU565
 1925 026a 84ED060A 		vstr.32	s0, [r4, #24]
 1926              	.LVL77:
  61:../../DaisySP/Source/Synthesis/oscillator.h ****     }
 1927              		.loc 1 61 20 view .LVU566
 1928              	.LBE487:
 1929              	.LBE495:
  49:pitchshifter.cpp ****     osc.SetWaveform(Oscillator::WAVE_TRI);
 1930              		.loc 8 49 5 is_stmt 1 view .LVU567
 1931              	.LBB496:
 1932              	.LBI490:
  70:../../DaisySP/Source/Synthesis/oscillator.h ****     {
 1933              		.loc 1 70 17 view .LVU568
 1934              	.LBB493:
 1935              		.loc 1 72 9 view .LVU569
 1936              		.loc 1 72 9 is_stmt 0 view .LVU570
 1937              	.LBE493:
 1938              	.LBE496:
 1939              		.loc 8 52 5 is_stmt 1 view .LVU571
 1940              		.loc 8 52 20 is_stmt 0 view .LVU572
 1941 026e FFF7FEFF 		bl	_ZN5daisy9DaisySeed10StartAudioEPFvPKfPfjE
 1942              	.LVL78:
 1943              	.L40:
  53:pitchshifter.cpp **** 
  54:pitchshifter.cpp **** 
  55:pitchshifter.cpp ****     while(1) {}
 1944              		.loc 8 55 5 is_stmt 1 discriminator 1 view .LVU573
 1945              		.loc 8 55 5 discriminator 1 view .LVU574
 1946              		.loc 8 55 5 discriminator 1 view .LVU575
 1947              		.loc 8 55 5 discriminator 1 view .LVU576
 1948 0272 FEE7     		b	.L40
 1949              	.LVL79:
 1950              	.L51:
 1951              	.LBB497:
 1952              	.LBB469:
 1953              	.LBB463:
 1954              	.LBB453:
 1955              	.LBB445:
 1956              	.LBB436:
 166:../../DaisySP/Source/Effects/pitchshifter.h ****             }
 1957              		.loc 2 166 17 view .LVU577
 166:../../DaisySP/Source/Effects/pitchshifter.h ****             }
 1958              		.loc 2 166 31 is_stmt 0 view .LVU578
 1959 0274 0022     		movs	r2, #0
 1960 0276 EA54     		strb	r2, [r5, r3]
 1961 0278 8EE7     		b	.L34
 1962              	.L53:
 1963 027a 00BF     		.align	2
 1964              	.L52:
ARM GAS  /tmp/ccPPpVbu.s 			page 55


 1965 027c 28000200 		.word	ps+131112
 1966 0280 00000000 		.word	.LANCHOR1
 1967 0284 00000000 		.word	ps
 1968 0288 0000A040 		.word	1084227584
 1969 028c 24000200 		.word	131108
 1970 0290 50000200 		.word	ps+131152
 1971 0294 0C000000 		.word	ps+12
 1972 0298 0C000100 		.word	ps+65548
 1973 029c 00004842 		.word	1112014848
 1974 02a0 18000200 		.word	131096
 1975 02a4 18000100 		.word	ps+65560
 1976 02a8 44000200 		.word	ps+131140
 1977 02ac DB0F4940 		.word	1078530011
 1978 02b0 10000100 		.word	65552
 1979 02b4 14000100 		.word	65556
 1980 02b8 ABAAAAAA 		.word	-1431655765
 1981 02bc 2C000200 		.word	131116
 1982 02c0 00008038 		.word	947912704
 1983 02c4 30000200 		.word	ps+131120
 1984 02c8 40000200 		.word	ps+131136
 1985 02cc 64000200 		.word	ps+131172
 1986 02d0 20000200 		.word	131104
 1987 02d4 00004041 		.word	1094713344
 1988 02d8 00000000 		.word	.LANCHOR0
 1989 02dc 0000C842 		.word	1120403456
 1990 02e0 0000DC43 		.word	1138491392
 1991 02e4 00000000 		.word	_ZL13AudioCallbackPKfPfj
 1992 02e8 34000200 		.word	ps+131124
 1993              	.LBE436:
 1994              	.LBE445:
 1995              	.LBE453:
 1996              	.LBE463:
 1997              	.LBE469:
 1998              	.LBE497:
 1999              		.cfi_endproc
 2000              	.LFE4213:
 2002              		.section	.text.startup._GLOBAL__sub_I_seed,"ax",%progbits
 2003              		.align	1
 2004              		.p2align 2,,3
 2005              		.syntax unified
 2006              		.thumb
 2007              		.thumb_func
 2008              		.fpu fpv5-d16
 2010              	_GLOBAL__sub_I_seed:
 2011              	.LFB4759:
  56:pitchshifter.cpp **** }
 2012              		.loc 8 56 1 is_stmt 1 view -0
 2013              		.cfi_startproc
 2014              		@ args = 0, pretend = 0, frame = 0
 2015              		@ frame_needed = 0, uses_anonymous_args = 0
 2016              	.LBB519:
 2017              	.LBI519:
 2018              		.loc 8 56 1 view .LVU580
 2019              	.LVL80:
 2020              	.LBB520:
 2021              	.LBB521:
 2022              	.LBI521:
ARM GAS  /tmp/ccPPpVbu.s 			page 56


  21:../../libdaisy/src/daisy_seed.h ****     ~DaisySeed() {}
 2023              		.loc 3 21 5 view .LVU581
 2024              	.LBB522:
 2025              	.LBB523:
 2026              	.LBI523:
  62:../../libdaisy/src/hid/audio.h ****     ~AudioHandle() {}
 2027              		.loc 7 62 5 view .LVU582
 2028              	.LBE523:
 2029              	.LBE522:
 2030              	.LBE521:
 2031              	.LBE520:
 2032              	.LBE519:
 2033              		.loc 8 56 1 is_stmt 0 view .LVU583
 2034 0000 08B5     		push	{r3, lr}
 2035              		.cfi_def_cfa_offset 8
 2036              		.cfi_offset 3, -8
 2037              		.cfi_offset 14, -4
 2038              	.LBB545:
 2039              	.LBB542:
 2040              	.LBB538:
 2041              	.LBB536:
 2042              	.LBB528:
 2043              	.LBB524:
 2044              	.LBB525:
  62:../../libdaisy/src/hid/audio.h ****     ~AudioHandle() {}
 2045              		.loc 7 62 35 view .LVU584
 2046 0002 0A48     		ldr	r0, .L56
 2047 0004 0023     		movs	r3, #0
 2048              	.LBE525:
 2049              	.LBE524:
 2050              	.LBE528:
 2051              	.LBE536:
 2052              	.LBE538:
  16:pitchshifter.cpp **** PitchShifter ps;
 2053              		.loc 8 16 14 view .LVU585
 2054 0006 0A4A     		ldr	r2, .L56+4
 2055              	.LBB539:
 2056              	.LBB537:
 2057              	.LBB529:
 2058              	.LBB527:
 2059              	.LBB526:
  62:../../libdaisy/src/hid/audio.h ****     ~AudioHandle() {}
 2060              		.loc 7 62 35 view .LVU586
 2061 0008 4361     		str	r3, [r0, #20]
 2062              	.LVL81:
  62:../../libdaisy/src/hid/audio.h ****     ~AudioHandle() {}
 2063              		.loc 7 62 35 view .LVU587
 2064              	.LBE526:
 2065              	.LBE527:
 2066              	.LBE529:
 2067              	.LBB530:
 2068              	.LBI530:
  84:../../libdaisy/src/per/adc.h ****     ~AdcHandle() {}
 2069              		.loc 6 84 5 is_stmt 1 view .LVU588
  84:../../libdaisy/src/per/adc.h ****     ~AdcHandle() {}
 2070              		.loc 6 84 5 is_stmt 0 view .LVU589
 2071              	.LBE530:
ARM GAS  /tmp/ccPPpVbu.s 			page 57


 2072              	.LBB531:
 2073              	.LBI531:
 2074              		.file 11 "../../libdaisy/src/per/dac.h"
   1:../../libdaisy/src/per/dac.h **** #pragma once
   2:../../libdaisy/src/per/dac.h **** #ifndef DSY_DAC_H
   3:../../libdaisy/src/per/dac.h **** #define DSY_DAC_H
   4:../../libdaisy/src/per/dac.h **** 
   5:../../libdaisy/src/per/dac.h **** #include "daisy_core.h"
   6:../../libdaisy/src/per/dac.h **** 
   7:../../libdaisy/src/per/dac.h **** namespace daisy
   8:../../libdaisy/src/per/dac.h **** {
   9:../../libdaisy/src/per/dac.h **** /** DAC handle for Built-in DAC Peripheral 
  10:../../libdaisy/src/per/dac.h ****  ** 
  11:../../libdaisy/src/per/dac.h ****  ** For now only Normal Mode is supported,
  12:../../libdaisy/src/per/dac.h ****  ** Sample and hold mode provides reduced power consumption, but requires a bit more setup.
  13:../../libdaisy/src/per/dac.h ****  **
  14:../../libdaisy/src/per/dac.h ****  ** For now connecting the DAC through other internal periphearls is also not supported.
  15:../../libdaisy/src/per/dac.h ****  **
  16:../../libdaisy/src/per/dac.h ****  ** Since the DAC channels have dedicated pins we don't need to pass in a pin config like with
  17:../../libdaisy/src/per/dac.h ****  ** other modules. However, it is still important to not try to use the DAC pins for anything else.
  18:../../libdaisy/src/per/dac.h ****  ** DAC Channel 1 is on PA4, and DAC Channel 2 is on PA5
  19:../../libdaisy/src/per/dac.h ****  ***/
  20:../../libdaisy/src/per/dac.h **** class DacHandle
  21:../../libdaisy/src/per/dac.h **** {
  22:../../libdaisy/src/per/dac.h ****   public:
  23:../../libdaisy/src/per/dac.h ****     /** Return Values for the DacHandle class */
  24:../../libdaisy/src/per/dac.h ****     enum class Result
  25:../../libdaisy/src/per/dac.h ****     {
  26:../../libdaisy/src/per/dac.h ****         OK,
  27:../../libdaisy/src/per/dac.h ****         ERR,
  28:../../libdaisy/src/per/dac.h ****     };
  29:../../libdaisy/src/per/dac.h **** 
  30:../../libdaisy/src/per/dac.h ****     /** Selects which channel(s) will be configured for use. */
  31:../../libdaisy/src/per/dac.h ****     enum class Channel
  32:../../libdaisy/src/per/dac.h ****     {
  33:../../libdaisy/src/per/dac.h ****         ONE,
  34:../../libdaisy/src/per/dac.h ****         TWO,
  35:../../libdaisy/src/per/dac.h ****         BOTH,
  36:../../libdaisy/src/per/dac.h ****     };
  37:../../libdaisy/src/per/dac.h **** 
  38:../../libdaisy/src/per/dac.h ****     /** Sets the Mode for the DAC channels.
  39:../../libdaisy/src/per/dac.h ****      **
  40:../../libdaisy/src/per/dac.h ****      ** Polling mode uses the blocking mode to transmit a single value at a time.
  41:../../libdaisy/src/per/dac.h ****      **
  42:../../libdaisy/src/per/dac.h ****      ** DMA mode uses a buffer, and periodically transmits it triggering a 
  43:../../libdaisy/src/per/dac.h ****      ** callback to fill the buffer when it is ready for more samples.
  44:../../libdaisy/src/per/dac.h ****      ***/
  45:../../libdaisy/src/per/dac.h ****     enum class Mode
  46:../../libdaisy/src/per/dac.h ****     {
  47:../../libdaisy/src/per/dac.h ****         POLLING,
  48:../../libdaisy/src/per/dac.h ****         DMA,
  49:../../libdaisy/src/per/dac.h ****     };
  50:../../libdaisy/src/per/dac.h **** 
  51:../../libdaisy/src/per/dac.h ****     /** Sets the number of bits per sample transmitted out of the DAC.
  52:../../libdaisy/src/per/dac.h ****      ** The output range will be: 0V - VDDA
  53:../../libdaisy/src/per/dac.h ****      ** The resolution will be roughly: bitdepth / (VDDA - 0V) 
  54:../../libdaisy/src/per/dac.h ****      ***/
ARM GAS  /tmp/ccPPpVbu.s 			page 58


  55:../../libdaisy/src/per/dac.h ****     enum class BitDepth
  56:../../libdaisy/src/per/dac.h ****     {
  57:../../libdaisy/src/per/dac.h ****         BITS_8,
  58:../../libdaisy/src/per/dac.h ****         BITS_12
  59:../../libdaisy/src/per/dac.h ****     };
  60:../../libdaisy/src/per/dac.h **** 
  61:../../libdaisy/src/per/dac.h ****     /** Sets whether the DAC output is buffered for higher drive ability. */
  62:../../libdaisy/src/per/dac.h ****     enum class BufferState
  63:../../libdaisy/src/per/dac.h ****     {
  64:../../libdaisy/src/per/dac.h ****         ENABLED,
  65:../../libdaisy/src/per/dac.h ****         DISABLED,
  66:../../libdaisy/src/per/dac.h ****     };
  67:../../libdaisy/src/per/dac.h **** 
  68:../../libdaisy/src/per/dac.h ****     /** Configuration structure for initializing the DAC structure. */
  69:../../libdaisy/src/per/dac.h ****     struct Config
  70:../../libdaisy/src/per/dac.h ****     {
  71:../../libdaisy/src/per/dac.h ****         /** Target Samplerate in Hz used to configure the internal 
  72:../../libdaisy/src/per/dac.h ****          ** timebase for DMA mode. Does nothing in POLLING mode.
  73:../../libdaisy/src/per/dac.h ****          ** If the value is 0 at Init time this will default to 48000Hz 
  74:../../libdaisy/src/per/dac.h ****          ** otherwise the driver will attempt meet the target.*/
  75:../../libdaisy/src/per/dac.h ****         uint32_t target_samplerate;
  76:../../libdaisy/src/per/dac.h **** 
  77:../../libdaisy/src/per/dac.h ****         Channel     chn;
  78:../../libdaisy/src/per/dac.h ****         Mode        mode;
  79:../../libdaisy/src/per/dac.h ****         BitDepth    bitdepth;
  80:../../libdaisy/src/per/dac.h ****         BufferState buff_state;
  81:../../libdaisy/src/per/dac.h ****     };
  82:../../libdaisy/src/per/dac.h **** 
  83:../../libdaisy/src/per/dac.h ****     DacHandle() : pimpl_(nullptr) {}
 2075              		.loc 11 83 5 is_stmt 1 view .LVU590
 2076              	.LBB532:
 2077              	.LBB533:
 2078              		.loc 11 83 33 is_stmt 0 view .LVU591
 2079 000a 0362     		str	r3, [r0, #32]
 2080              	.LVL82:
 2081              		.loc 11 83 33 view .LVU592
 2082              	.LBE533:
 2083              	.LBE532:
 2084              	.LBE531:
 2085              	.LBB534:
 2086              	.LBI534:
  40:../../libdaisy/src/hid/usb.h **** 
 2087              		.loc 5 40 5 is_stmt 1 view .LVU593
  40:../../libdaisy/src/hid/usb.h **** 
 2088              		.loc 5 40 5 is_stmt 0 view .LVU594
 2089              	.LBE534:
 2090              	.LBB535:
 2091              	.LBI535:
  58:../../libdaisy/src/sys/system.h ****     ~System() {}
 2092              		.loc 4 58 5 is_stmt 1 view .LVU595
  58:../../libdaisy/src/sys/system.h ****     ~System() {}
 2093              		.loc 4 58 5 is_stmt 0 view .LVU596
 2094              	.LBE535:
 2095              	.LBE537:
 2096              	.LBE539:
  16:pitchshifter.cpp **** PitchShifter ps;
 2097              		.loc 8 16 14 view .LVU597
ARM GAS  /tmp/ccPPpVbu.s 			page 59


 2098 000c 0949     		ldr	r1, .L56+8
 2099 000e FFF7FEFF 		bl	__aeabi_atexit
 2100              	.LVL83:
 2101              	.LBB540:
 2102              	.LBI540:
  59:../../DaisySP/Source/Effects/pitchshifter.h ****     ~PitchShifter() {}
 2103              		.loc 2 59 5 is_stmt 1 view .LVU598
 2104              	.LBE540:
 2105              	.LBE542:
 2106              	.LBE545:
  59:../../DaisySP/Source/Effects/pitchshifter.h ****     ~PitchShifter() {}
 2107              		.loc 2 59 20 view .LVU599
  59:../../DaisySP/Source/Effects/pitchshifter.h ****     ~PitchShifter() {}
 2108              		.loc 2 59 20 view .LVU600
 2109              	.LBB546:
 2110              	.LBB543:
  17:pitchshifter.cpp **** Oscillator   osc;
 2111              		.loc 8 17 14 is_stmt 0 view .LVU601
 2112 0012 074A     		ldr	r2, .L56+4
 2113 0014 0849     		ldr	r1, .L56+12
 2114 0016 0948     		ldr	r0, .L56+16
 2115 0018 FFF7FEFF 		bl	__aeabi_atexit
 2116              	.LVL84:
 2117              	.LBB541:
 2118              	.LBI541:
  15:../../DaisySP/Source/Synthesis/oscillator.h ****     ~Oscillator() {}
 2119              		.loc 1 15 5 is_stmt 1 view .LVU602
  15:../../DaisySP/Source/Synthesis/oscillator.h ****     ~Oscillator() {}
 2120              		.loc 1 15 5 is_stmt 0 view .LVU603
 2121              	.LBE541:
  18:pitchshifter.cpp **** 
 2122              		.loc 8 18 14 view .LVU604
 2123 001c 044A     		ldr	r2, .L56+4
 2124 001e 0849     		ldr	r1, .L56+20
 2125 0020 0848     		ldr	r0, .L56+24
 2126              	.LBE543:
 2127              	.LBE546:
 2128              		.loc 8 56 1 view .LVU605
 2129 0022 BDE80840 		pop	{r3, lr}
 2130              		.cfi_restore 14
 2131              		.cfi_restore 3
 2132              		.cfi_def_cfa_offset 0
 2133              	.LBB547:
 2134              	.LBB544:
  18:pitchshifter.cpp **** 
 2135              		.loc 8 18 14 view .LVU606
 2136 0026 FFF7FEBF 		b	__aeabi_atexit
 2137              	.LVL85:
 2138              	.L57:
 2139 002a 00BF     		.align	2
 2140              	.L56:
 2141 002c 00000000 		.word	.LANCHOR1
 2142 0030 00000000 		.word	__dso_handle
 2143 0034 00000000 		.word	_ZN5daisy9DaisySeedD1Ev
 2144 0038 00000000 		.word	_ZN7daisysp12PitchShifterD1Ev
 2145 003c 00000000 		.word	ps
 2146 0040 00000000 		.word	_ZN7daisysp10OscillatorD1Ev
ARM GAS  /tmp/ccPPpVbu.s 			page 60


 2147 0044 00000000 		.word	.LANCHOR0
 2148              	.LBE544:
 2149              	.LBE547:
 2150              		.cfi_endproc
 2151              	.LFE4759:
 2153              		.section	.init_array,"aw",%init_array
 2154              		.align	2
 2155 0000 00000000 		.word	_GLOBAL__sub_I_seed(target1)
 2156              		.global	osc
 2157              		.global	ps
 2158              		.global	seed
 2159              		.weak	_ZZN7daisysp6myrandEvE4seed
 2160              		.section	.data._ZZN7daisysp6myrandEvE4seed,"awG",%progbits,_ZZN7daisysp6myrandEvE4seed,comdat
 2161              		.align	2
 2164              	_ZZN7daisysp6myrandEvE4seed:
 2165 0000 01000000 		.word	1
 2166              		.section	.bss.osc,"aw",%nobits
 2167              		.align	2
 2168              		.set	.LANCHOR0,. + 0
 2171              	osc:
 2172 0000 00000000 		.space	40
 2172      00000000 
 2172      00000000 
 2172      00000000 
 2172      00000000 
 2173              		.section	.bss.ps,"aw",%nobits
 2174              		.align	2
 2177              	ps:
 2178 0000 00000000 		.space	131256
 2178      00000000 
 2178      00000000 
 2178      00000000 
 2178      00000000 
 2179              		.section	.bss.seed,"aw",%nobits
 2180              		.align	2
 2181              		.set	.LANCHOR1,. + 0
 2184              	seed:
 2185 0000 00000000 		.space	60
 2185      00000000 
 2185      00000000 
 2185      00000000 
 2185      00000000 
 2186              		.text
 2187              	.Letext0:
 2188              		.file 12 "/usr/lib/gcc/arm-none-eabi/9.2.1/include/stdint.h"
 2189              		.file 13 "../../libdaisy/Drivers/CMSIS/Include/core_cm7.h"
 2190              		.file 14 "../../libdaisy/Drivers/CMSIS/Device/ST/STM32H7xx/Include/system_stm32h7xx.h"
 2191              		.file 15 "/usr/lib/gcc/arm-none-eabi/9.2.1/include/stddef.h"
 2192              		.file 16 "/usr/include/newlib/c++/9.2.1/cmath"
 2193              		.file 17 "/usr/include/newlib/c++/9.2.1/bits/std_abs.h"
 2194              		.file 18 "/usr/include/newlib/c++/9.2.1/cstdint"
 2195              		.file 19 "/usr/include/newlib/c++/9.2.1/cstdlib"
 2196              		.file 20 "/usr/include/newlib/c++/9.2.1/type_traits"
 2197              		.file 21 "/usr/include/newlib/c++/9.2.1/arm-none-eabi/thumb/v7e-m+dp/hard/bits/c++config.h"
 2198              		.file 22 "/usr/include/newlib/c++/9.2.1/bits/stl_pair.h"
 2199              		.file 23 "/usr/include/newlib/c++/9.2.1/debug/debug.h"
 2200              		.file 24 "/usr/include/newlib/c++/9.2.1/cwchar"
ARM GAS  /tmp/ccPPpVbu.s 			page 61


 2201              		.file 25 "/usr/include/newlib/c++/9.2.1/bits/exception_ptr.h"
 2202              		.file 26 "/usr/include/newlib/c++/9.2.1/new"
 2203              		.file 27 "/usr/include/newlib/c++/9.2.1/clocale"
 2204              		.file 28 "/usr/include/newlib/c++/9.2.1/cstdio"
 2205              		.file 29 "/usr/include/newlib/c++/9.2.1/bits/basic_string.h"
 2206              		.file 30 "/usr/include/newlib/c++/9.2.1/bits/uniform_int_dist.h"
 2207              		.file 31 "/usr/include/newlib/c++/9.2.1/bits/random.h"
 2208              		.file 32 "/usr/include/newlib/c++/9.2.1/cstring"
 2209              		.file 33 "/usr/include/newlib/c++/9.2.1/bits/algorithmfwd.h"
 2210              		.file 34 "/usr/include/newlib/c++/9.2.1/cstdarg"
 2211              		.file 35 "/usr/include/newlib/c++/9.2.1/bits/predefined_ops.h"
 2212              		.file 36 "/usr/include/newlib/c++/9.2.1/ext/new_allocator.h"
 2213              		.file 37 "/usr/include/newlib/c++/9.2.1/ext/numeric_traits.h"
 2214              		.file 38 "/usr/include/newlib/sys/_types.h"
 2215              		.file 39 "<built-in>"
 2216              		.file 40 "/usr/include/newlib/sys/reent.h"
 2217              		.file 41 "/usr/include/newlib/sys/lock.h"
 2218              		.file 42 "/usr/include/newlib/math.h"
 2219              		.file 43 "/usr/include/newlib/stdlib.h"
 2220              		.file 44 "/usr/include/newlib/c++/9.2.1/math.h"
 2221              		.file 45 "../../libdaisy/Drivers/STM32H7xx_HAL_Driver/Inc/stm32h7xx_hal_def.h"
 2222              		.file 46 "../../libdaisy/Drivers/STM32H7xx_HAL_Driver/Inc/stm32h7xx_hal_flash.h"
 2223              		.file 47 "../../DaisySP/Source/Control/adenv.h"
 2224              		.file 48 "../../DaisySP/Source/Utility/dsp.h"
 2225              		.file 49 "/usr/lib/gcc/arm-none-eabi/9.2.1/include/stdarg.h"
 2226              		.file 50 "/usr/include/newlib/wchar.h"
 2227              		.file 51 "/usr/include/newlib/locale.h"
 2228              		.file 52 "/usr/include/newlib/ctype.h"
 2229              		.file 53 "/usr/include/newlib/stdio.h"
 2230              		.file 54 "/usr/include/newlib/sys/errno.h"
 2231              		.file 55 "/usr/include/newlib/c++/9.2.1/stdlib.h"
 2232              		.file 56 "/usr/include/newlib/string.h"
 2233              		.file 57 "../../libdaisy/src/daisy_core.h"
 2234              		.file 58 "../../libdaisy/src/per/tim.h"
 2235              		.file 59 "../../libdaisy/src/per/sai.h"
 2236              		.file 60 "../../libdaisy/src/util/wav_format.h"
 2237              		.file 61 "../../libdaisy/src/per/qspi.h"
 2238              		.file 62 "../../libdaisy/src/per/gpio.h"
 2239              		.file 63 "../../libdaisy/src/dev/sdram.h"
 2240              		.file 64 "/usr/include/newlib/sys/unistd.h"
 2241              		.file 65 "../../libdaisy/src/util/oled_fonts.h"
 2242              		.file 66 "../../libdaisy/Middlewares/Third_Party/FatFs/src/integer.h"
 2243              		.file 67 "../../libdaisy/Middlewares/Third_Party/FatFs/src/ff.h"
 2244              		.file 68 "../../libdaisy/Middlewares/Third_Party/FatFs/src/diskio.h"
 2245              		.file 69 "../../libdaisy/Middlewares/Third_Party/FatFs/src/ff_gen_drv.h"
 2246              		.file 70 "../../libdaisy/src/util/sd_diskio.h"
 2247              		.file 71 "../../libdaisy/src/sys/fatfs.h"
 2248              		.file 72 "../../libdaisy/src/dev/sr_595.h"
ARM GAS  /tmp/ccPPpVbu.s 			page 62

