ARM GAS  /tmp/ccVtSobE.s 			page 1


   1              		.cpu cortex-m7
   2              		.eabi_attribute 28, 1
   3              		.eabi_attribute 20, 1
   4              		.eabi_attribute 21, 1
   5              		.eabi_attribute 23, 3
   6              		.eabi_attribute 24, 1
   7              		.eabi_attribute 25, 1
   8              		.eabi_attribute 26, 1
   9              		.eabi_attribute 30, 2
  10              		.eabi_attribute 34, 1
  11              		.eabi_attribute 18, 4
  12              		.file	"MultiEffect.cpp"
  13              		.text
  14              	.Ltext0:
  15              		.cfi_sections	.debug_frame
  16              		.section	.text._ZN7daisysp8ReverbScD2Ev,"axG",%progbits,_ZN7daisysp8ReverbScD5Ev,comdat
  17              		.align	1
  18              		.p2align 2,,3
  19              		.weak	_ZN7daisysp8ReverbScD2Ev
  20              		.arch armv7e-m
  21              		.syntax unified
  22              		.thumb
  23              		.thumb_func
  24              		.fpu fpv5-d16
  26              	_ZN7daisysp8ReverbScD2Ev:
  27              	.LVL0:
  28              	.LFB3000:
  29              		.file 1 "../../DaisySP/Source/Effects/reverbsc.h"
   1:../../DaisySP/Source/Effects/reverbsc.h **** #pragma once
   2:../../DaisySP/Source/Effects/reverbsc.h **** #ifndef DSYSP_REVERBSC_H
   3:../../DaisySP/Source/Effects/reverbsc.h **** #define DSYSP_REVERBSC_H
   4:../../DaisySP/Source/Effects/reverbsc.h **** 
   5:../../DaisySP/Source/Effects/reverbsc.h **** #define DSY_REVERBSC_MAX_SIZE 98936
   6:../../DaisySP/Source/Effects/reverbsc.h **** 
   7:../../DaisySP/Source/Effects/reverbsc.h **** namespace daisysp
   8:../../DaisySP/Source/Effects/reverbsc.h **** {
   9:../../DaisySP/Source/Effects/reverbsc.h **** /**Delay line for internal reverb use
  10:../../DaisySP/Source/Effects/reverbsc.h **** */
  11:../../DaisySP/Source/Effects/reverbsc.h **** typedef struct
  12:../../DaisySP/Source/Effects/reverbsc.h **** {
  13:../../DaisySP/Source/Effects/reverbsc.h ****     int    write_pos;         /**< write position */
  14:../../DaisySP/Source/Effects/reverbsc.h ****     int    buffer_size;       /**< buffer size */
  15:../../DaisySP/Source/Effects/reverbsc.h ****     int    read_pos;          /**< read position */
  16:../../DaisySP/Source/Effects/reverbsc.h ****     int    read_pos_frac;     /**< fractional component of read pos */
  17:../../DaisySP/Source/Effects/reverbsc.h ****     int    read_pos_frac_inc; /**< increment for fractional */
  18:../../DaisySP/Source/Effects/reverbsc.h ****     int    dummy;             /**<  dummy var */
  19:../../DaisySP/Source/Effects/reverbsc.h ****     int    seed_val;          /**< randseed */
  20:../../DaisySP/Source/Effects/reverbsc.h ****     int    rand_line_cnt;     /**< number of random lines */
  21:../../DaisySP/Source/Effects/reverbsc.h ****     float  filter_state;      /**< state of filter */
  22:../../DaisySP/Source/Effects/reverbsc.h ****     float *buf;               /**< buffer ptr */
  23:../../DaisySP/Source/Effects/reverbsc.h **** } ReverbScDl;
  24:../../DaisySP/Source/Effects/reverbsc.h **** 
  25:../../DaisySP/Source/Effects/reverbsc.h **** /** Stereo Reverb
  26:../../DaisySP/Source/Effects/reverbsc.h **** 
  27:../../DaisySP/Source/Effects/reverbsc.h **** Reverb SC:               Ported from csound/soundpipe
  28:../../DaisySP/Source/Effects/reverbsc.h **** 
  29:../../DaisySP/Source/Effects/reverbsc.h **** Original author(s):        Sean Costello, Istvan Varga
ARM GAS  /tmp/ccVtSobE.s 			page 2


  30:../../DaisySP/Source/Effects/reverbsc.h **** 
  31:../../DaisySP/Source/Effects/reverbsc.h **** Year:                    1999, 2005
  32:../../DaisySP/Source/Effects/reverbsc.h **** 
  33:../../DaisySP/Source/Effects/reverbsc.h **** Ported to soundpipe by:  Paul Batchelor
  34:../../DaisySP/Source/Effects/reverbsc.h **** 
  35:../../DaisySP/Source/Effects/reverbsc.h **** Ported by:                Stephen Hensley
  36:../../DaisySP/Source/Effects/reverbsc.h **** */
  37:../../DaisySP/Source/Effects/reverbsc.h **** class ReverbSc
  38:../../DaisySP/Source/Effects/reverbsc.h **** {
  39:../../DaisySP/Source/Effects/reverbsc.h ****   public:
  40:../../DaisySP/Source/Effects/reverbsc.h ****     ReverbSc() {}
  41:../../DaisySP/Source/Effects/reverbsc.h ****     ~ReverbSc() {}
  30              		.loc 1 41 5 view -0
  31              		.cfi_startproc
  32              		@ args = 0, pretend = 0, frame = 0
  33              		@ frame_needed = 0, uses_anonymous_args = 0
  34              		@ link register save eliminated.
  35              		.loc 1 41 18 is_stmt 0 view .LVU1
  36 0000 7047     		bx	lr
  37              		.cfi_endproc
  38              	.LFE3000:
  40              		.weak	_ZN7daisysp8ReverbScD1Ev
  41              		.thumb_set _ZN7daisysp8ReverbScD1Ev,_ZN7daisysp8ReverbScD2Ev
  42 0002 00BF     		.section	.text._ZN5daisy9ParameterD2Ev,"axG",%progbits,_ZN5daisy9ParameterD5Ev,comdat
  43              		.align	1
  44              		.p2align 2,,3
  45              		.weak	_ZN5daisy9ParameterD2Ev
  46              		.syntax unified
  47              		.thumb
  48              		.thumb_func
  49              		.fpu fpv5-d16
  51              	_ZN5daisy9ParameterD2Ev:
  52              	.LVL1:
  53              	.LFB3778:
  54              		.file 2 "../../libdaisy/src/hid/parameter.h"
   1:../../libdaisy/src/hid/parameter.h **** #pragma once
   2:../../libdaisy/src/hid/parameter.h **** #include <stdint.h>
   3:../../libdaisy/src/hid/parameter.h **** #include "hid/ctrl.h"
   4:../../libdaisy/src/hid/parameter.h **** 
   5:../../libdaisy/src/hid/parameter.h **** namespace daisy
   6:../../libdaisy/src/hid/parameter.h **** {
   7:../../libdaisy/src/hid/parameter.h **** /** @addtogroup controls
   8:../../libdaisy/src/hid/parameter.h ****     @{
   9:../../libdaisy/src/hid/parameter.h **** */
  10:../../libdaisy/src/hid/parameter.h **** 
  11:../../libdaisy/src/hid/parameter.h **** /**      Simple parameter mapping tool that takes a 0-1 input from an hid_ctrl. */
  12:../../libdaisy/src/hid/parameter.h **** class Parameter
  13:../../libdaisy/src/hid/parameter.h **** {
  14:../../libdaisy/src/hid/parameter.h ****   public:
  15:../../libdaisy/src/hid/parameter.h ****     /** Curves are applied to the output signal */
  16:../../libdaisy/src/hid/parameter.h ****     enum Curve
  17:../../libdaisy/src/hid/parameter.h ****     {
  18:../../libdaisy/src/hid/parameter.h ****         LINEAR,      /**< Linear curve */
  19:../../libdaisy/src/hid/parameter.h ****         EXPONENTIAL, /**< Exponential curve */
  20:../../libdaisy/src/hid/parameter.h ****         LOGARITHMIC, /**<  Logarithmic curve */
  21:../../libdaisy/src/hid/parameter.h ****         CUBE,        /**< Cubic curve */
  22:../../libdaisy/src/hid/parameter.h ****         LAST,        /**< Final enum element. */
ARM GAS  /tmp/ccVtSobE.s 			page 3


  23:../../libdaisy/src/hid/parameter.h ****     };
  24:../../libdaisy/src/hid/parameter.h ****     /** Constructor */
  25:../../libdaisy/src/hid/parameter.h ****     Parameter() {}
  26:../../libdaisy/src/hid/parameter.h ****     /** Destructor */
  27:../../libdaisy/src/hid/parameter.h ****     ~Parameter() {}
  55              		.loc 2 27 5 is_stmt 1 view -0
  56              		.cfi_startproc
  57              		@ args = 0, pretend = 0, frame = 0
  58              		@ frame_needed = 0, uses_anonymous_args = 0
  59              		@ link register save eliminated.
  60              	.LBB323:
  61              	.LBI323:
  62              		.file 3 "../../libdaisy/src/hid/ctrl.h"
   1:../../libdaisy/src/hid/ctrl.h **** #pragma once
   2:../../libdaisy/src/hid/ctrl.h **** #ifndef DSY_KNOB_H
   3:../../libdaisy/src/hid/ctrl.h **** #define DSY_KNOB_H /**< & */
   4:../../libdaisy/src/hid/ctrl.h **** #include <stdint.h>
   5:../../libdaisy/src/hid/ctrl.h **** 
   6:../../libdaisy/src/hid/ctrl.h **** #ifdef __cplusplus
   7:../../libdaisy/src/hid/ctrl.h **** namespace daisy
   8:../../libdaisy/src/hid/ctrl.h **** {
   9:../../libdaisy/src/hid/ctrl.h **** /**
  10:../../libdaisy/src/hid/ctrl.h ****     @brief Hardware Interface for control inputs \n 
  11:../../libdaisy/src/hid/ctrl.h ****     Primarily designed for ADC input controls such as \n 
  12:../../libdaisy/src/hid/ctrl.h ****     potentiometers, and control voltage. \n 
  13:../../libdaisy/src/hid/ctrl.h ****     @author Stephen Hensley
  14:../../libdaisy/src/hid/ctrl.h ****     @date November 2019
  15:../../libdaisy/src/hid/ctrl.h ****     @ingroup controls
  16:../../libdaisy/src/hid/ctrl.h **** */
  17:../../libdaisy/src/hid/ctrl.h **** class AnalogControl
  18:../../libdaisy/src/hid/ctrl.h **** {
  19:../../libdaisy/src/hid/ctrl.h ****   public:
  20:../../libdaisy/src/hid/ctrl.h ****     /** Constructor */
  21:../../libdaisy/src/hid/ctrl.h ****     AnalogControl() {}
  22:../../libdaisy/src/hid/ctrl.h ****     /** destructor */
  23:../../libdaisy/src/hid/ctrl.h ****     ~AnalogControl() {}
  63              		.loc 3 23 5 view .LVU3
  64              		.loc 3 23 5 is_stmt 0 view .LVU4
  65              	.LBE323:
  66              		.loc 2 27 19 view .LVU5
  67 0000 7047     		bx	lr
  68              		.cfi_endproc
  69              	.LFE3778:
  71              		.weak	_ZN5daisy9ParameterD1Ev
  72              		.thumb_set _ZN5daisy9ParameterD1Ev,_ZN5daisy9ParameterD2Ev
  73 0002 00BF     		.section	.text._ZN5daisy10DaisyPetalD2Ev,"axG",%progbits,_ZN5daisy10DaisyPetalD5Ev,comdat
  74              		.align	1
  75              		.p2align 2,,3
  76              		.weak	_ZN5daisy10DaisyPetalD2Ev
  77              		.syntax unified
  78              		.thumb
  79              		.thumb_func
  80              		.fpu fpv5-d16
  82              	_ZN5daisy10DaisyPetalD2Ev:
  83              	.LVL2:
  84              	.LFB4219:
  85              		.file 4 "../../libdaisy/src/daisy_petal.h"
ARM GAS  /tmp/ccVtSobE.s 			page 4


   1:../../libdaisy/src/daisy_petal.h **** #pragma once
   2:../../libdaisy/src/daisy_petal.h **** #ifndef DSY_PETAL_H
   3:../../libdaisy/src/daisy_petal.h **** #define DSY_PETAL_H /**< & */
   4:../../libdaisy/src/daisy_petal.h **** 
   5:../../libdaisy/src/daisy_petal.h **** #include "daisy_seed.h"
   6:../../libdaisy/src/daisy_petal.h **** 
   7:../../libdaisy/src/daisy_petal.h **** namespace daisy
   8:../../libdaisy/src/daisy_petal.h **** {
   9:../../libdaisy/src/daisy_petal.h **** /**
  10:../../libdaisy/src/daisy_petal.h ****    @brief Helpers and hardware definitions for daisy petal.
  11:../../libdaisy/src/daisy_petal.h ****    @ingroup boards
  12:../../libdaisy/src/daisy_petal.h **** */
  13:../../libdaisy/src/daisy_petal.h **** class DaisyPetal
  14:../../libdaisy/src/daisy_petal.h **** {
  15:../../libdaisy/src/daisy_petal.h ****   public:
  16:../../libdaisy/src/daisy_petal.h ****     /** Switches */
  17:../../libdaisy/src/daisy_petal.h ****     enum Sw
  18:../../libdaisy/src/daisy_petal.h ****     {
  19:../../libdaisy/src/daisy_petal.h ****         SW_1,    /**< Footswitch */
  20:../../libdaisy/src/daisy_petal.h ****         SW_2,    /**< Footswitch */
  21:../../libdaisy/src/daisy_petal.h ****         SW_3,    /**< Footswitch */
  22:../../libdaisy/src/daisy_petal.h ****         SW_4,    /**< Footswitch */
  23:../../libdaisy/src/daisy_petal.h ****         SW_5,    /**< Toggle */
  24:../../libdaisy/src/daisy_petal.h ****         SW_6,    /**< Toggle */
  25:../../libdaisy/src/daisy_petal.h ****         SW_7,    /**< Toggle */
  26:../../libdaisy/src/daisy_petal.h ****         SW_LAST, /**< Last enum item */
  27:../../libdaisy/src/daisy_petal.h ****     };
  28:../../libdaisy/src/daisy_petal.h **** 
  29:../../libdaisy/src/daisy_petal.h ****     /** Knobs */
  30:../../libdaisy/src/daisy_petal.h ****     enum Knob
  31:../../libdaisy/src/daisy_petal.h ****     {
  32:../../libdaisy/src/daisy_petal.h ****         KNOB_1,    /**< & */
  33:../../libdaisy/src/daisy_petal.h ****         KNOB_2,    /**< & */
  34:../../libdaisy/src/daisy_petal.h ****         KNOB_3,    /**< & */
  35:../../libdaisy/src/daisy_petal.h ****         KNOB_4,    /**< & */
  36:../../libdaisy/src/daisy_petal.h ****         KNOB_5,    /**< & */
  37:../../libdaisy/src/daisy_petal.h ****         KNOB_6,    /**< & */
  38:../../libdaisy/src/daisy_petal.h ****         KNOB_LAST, /**< & */
  39:../../libdaisy/src/daisy_petal.h ****     };
  40:../../libdaisy/src/daisy_petal.h **** 
  41:../../libdaisy/src/daisy_petal.h ****     /** Leds in ringled */
  42:../../libdaisy/src/daisy_petal.h ****     enum RingLed
  43:../../libdaisy/src/daisy_petal.h ****     {
  44:../../libdaisy/src/daisy_petal.h ****         RING_LED_1,   /**< & */
  45:../../libdaisy/src/daisy_petal.h ****         RING_LED_2,   /**< & */
  46:../../libdaisy/src/daisy_petal.h ****         RING_LED_3,   /**< & */
  47:../../libdaisy/src/daisy_petal.h ****         RING_LED_4,   /**< & */
  48:../../libdaisy/src/daisy_petal.h ****         RING_LED_5,   /**< & */
  49:../../libdaisy/src/daisy_petal.h ****         RING_LED_6,   /**< & */
  50:../../libdaisy/src/daisy_petal.h ****         RING_LED_7,   /**< & */
  51:../../libdaisy/src/daisy_petal.h ****         RING_LED_8,   /**< & */
  52:../../libdaisy/src/daisy_petal.h ****         RING_LED_LAST /**< & */
  53:../../libdaisy/src/daisy_petal.h ****     };
  54:../../libdaisy/src/daisy_petal.h **** 
  55:../../libdaisy/src/daisy_petal.h ****     /** footswitch leds */
  56:../../libdaisy/src/daisy_petal.h ****     enum FootswitchLed
  57:../../libdaisy/src/daisy_petal.h ****     {
ARM GAS  /tmp/ccVtSobE.s 			page 5


  58:../../libdaisy/src/daisy_petal.h ****         FOOTSWITCH_LED_1,    /**< & */
  59:../../libdaisy/src/daisy_petal.h ****         FOOTSWITCH_LED_2,    /**< & */
  60:../../libdaisy/src/daisy_petal.h ****         FOOTSWITCH_LED_3,    /**< & */
  61:../../libdaisy/src/daisy_petal.h ****         FOOTSWITCH_LED_4,    /**< & */
  62:../../libdaisy/src/daisy_petal.h ****         FOOTSWITCH_LED_LAST, /**< & */
  63:../../libdaisy/src/daisy_petal.h ****     };
  64:../../libdaisy/src/daisy_petal.h **** 
  65:../../libdaisy/src/daisy_petal.h ****     /** Constructor */
  66:../../libdaisy/src/daisy_petal.h ****     DaisyPetal() {}
  67:../../libdaisy/src/daisy_petal.h ****     /** Destructor */
  68:../../libdaisy/src/daisy_petal.h ****     ~DaisyPetal() {}
  86              		.loc 4 68 5 is_stmt 1 view -0
  87              		.cfi_startproc
  88              		@ args = 0, pretend = 0, frame = 0
  89              		@ frame_needed = 0, uses_anonymous_args = 0
  90              		@ link register save eliminated.
  91              	.LBB324:
  92              	.LBI324:
  93              		.loc 3 23 5 view .LVU7
  94              		.loc 3 23 5 is_stmt 0 view .LVU8
  95              	.LBE324:
  96              	.LBB325:
  97              	.LBI325:
  98              		.file 5 "../../libdaisy/src/hid/encoder.h"
   1:../../libdaisy/src/hid/encoder.h **** #pragma once
   2:../../libdaisy/src/hid/encoder.h **** #ifndef DSY_ENCODER_H
   3:../../libdaisy/src/hid/encoder.h **** #define DSY_ENCODER_H
   4:../../libdaisy/src/hid/encoder.h **** #include "daisy_core.h"
   5:../../libdaisy/src/hid/encoder.h **** #include "per/gpio.h"
   6:../../libdaisy/src/hid/encoder.h **** #include "hid/switch.h"
   7:../../libdaisy/src/hid/encoder.h **** 
   8:../../libdaisy/src/hid/encoder.h **** namespace daisy
   9:../../libdaisy/src/hid/encoder.h **** {
  10:../../libdaisy/src/hid/encoder.h **** /** 
  11:../../libdaisy/src/hid/encoder.h ****     @brief Generic Class for handling Quadrature Encoders \n 
  12:../../libdaisy/src/hid/encoder.h ****     Inspired/influenced by Mutable Instruments (pichenettes) Encoder classes
  13:../../libdaisy/src/hid/encoder.h ****     @author Stephen Hensley
  14:../../libdaisy/src/hid/encoder.h ****     @date December 2019
  15:../../libdaisy/src/hid/encoder.h ****     @ingroup controls
  16:../../libdaisy/src/hid/encoder.h **** */
  17:../../libdaisy/src/hid/encoder.h **** class Encoder
  18:../../libdaisy/src/hid/encoder.h **** {
  19:../../libdaisy/src/hid/encoder.h ****   public:
  20:../../libdaisy/src/hid/encoder.h ****     Encoder() {}
  21:../../libdaisy/src/hid/encoder.h ****     ~Encoder() {}
  99              		.loc 5 21 5 is_stmt 1 view .LVU9
 100              	.LBB326:
 101              	.LBI326:
 102              		.file 6 "../../libdaisy/src/hid/switch.h"
   1:../../libdaisy/src/hid/switch.h **** #pragma once
   2:../../libdaisy/src/hid/switch.h **** #ifndef DSY_SWITCH_H
   3:../../libdaisy/src/hid/switch.h **** #define DSY_SWITCH_H
   4:../../libdaisy/src/hid/switch.h **** #include "daisy_core.h"
   5:../../libdaisy/src/hid/switch.h **** #include "per/gpio.h"
   6:../../libdaisy/src/hid/switch.h **** 
   7:../../libdaisy/src/hid/switch.h **** namespace daisy
   8:../../libdaisy/src/hid/switch.h **** {
ARM GAS  /tmp/ccVtSobE.s 			page 6


   9:../../libdaisy/src/hid/switch.h **** /** 
  10:../../libdaisy/src/hid/switch.h ****     Generic Class for handling momentary/latching switches \n 
  11:../../libdaisy/src/hid/switch.h ****     Inspired/influenced by Mutable Instruments (pichenettes) Switch classes
  12:../../libdaisy/src/hid/switch.h ****     @author Stephen Hensley
  13:../../libdaisy/src/hid/switch.h ****     @date December 2019
  14:../../libdaisy/src/hid/switch.h ****     @ingroup controls
  15:../../libdaisy/src/hid/switch.h **** */
  16:../../libdaisy/src/hid/switch.h **** class Switch
  17:../../libdaisy/src/hid/switch.h **** {
  18:../../libdaisy/src/hid/switch.h ****   public:
  19:../../libdaisy/src/hid/switch.h ****     /** Specifies the expected behavior of the switch */
  20:../../libdaisy/src/hid/switch.h ****     enum Type
  21:../../libdaisy/src/hid/switch.h ****     {
  22:../../libdaisy/src/hid/switch.h ****         TYPE_TOGGLE,    /**< & */
  23:../../libdaisy/src/hid/switch.h ****         TYPE_MOMENTARY, /**< & */
  24:../../libdaisy/src/hid/switch.h ****     };
  25:../../libdaisy/src/hid/switch.h ****     /** Specifies whether the pressed is HIGH or LOW. */
  26:../../libdaisy/src/hid/switch.h ****     enum Polarity
  27:../../libdaisy/src/hid/switch.h ****     {
  28:../../libdaisy/src/hid/switch.h ****         POLARITY_NORMAL,   /**< & */
  29:../../libdaisy/src/hid/switch.h ****         POLARITY_INVERTED, /**< & */
  30:../../libdaisy/src/hid/switch.h ****     };
  31:../../libdaisy/src/hid/switch.h **** 
  32:../../libdaisy/src/hid/switch.h ****     /** Specifies whether to use built-in Pull Up/Down resistors to hold button at a given state wh
  33:../../libdaisy/src/hid/switch.h ****     enum Pull
  34:../../libdaisy/src/hid/switch.h ****     {
  35:../../libdaisy/src/hid/switch.h ****         PULL_UP,   /**< & */
  36:../../libdaisy/src/hid/switch.h ****         PULL_DOWN, /**< & */
  37:../../libdaisy/src/hid/switch.h ****         PULL_NONE, /**< & */
  38:../../libdaisy/src/hid/switch.h ****     };
  39:../../libdaisy/src/hid/switch.h **** 
  40:../../libdaisy/src/hid/switch.h ****     Switch() {}
  41:../../libdaisy/src/hid/switch.h ****     ~Switch() {}
 103              		.loc 6 41 5 view .LVU10
 104              		.loc 6 41 5 is_stmt 0 view .LVU11
 105              	.LBE326:
 106              	.LBE325:
 107              	.LBB327:
 108              	.LBI327:
 109              		.file 7 "../../libdaisy/src/daisy_seed.h"
   1:../../libdaisy/src/daisy_seed.h **** #pragma once
   2:../../libdaisy/src/daisy_seed.h **** #ifndef DSY_SEED_H
   3:../../libdaisy/src/daisy_seed.h **** #define DSY_SEED_H
   4:../../libdaisy/src/daisy_seed.h **** 
   5:../../libdaisy/src/daisy_seed.h **** #include "daisy.h"
   6:../../libdaisy/src/daisy_seed.h **** 
   7:../../libdaisy/src/daisy_seed.h **** //Uncomment this out if you're still using the rev2 hardware
   8:../../libdaisy/src/daisy_seed.h **** //#define SEED_REV2
   9:../../libdaisy/src/daisy_seed.h **** 
  10:../../libdaisy/src/daisy_seed.h **** namespace daisy
  11:../../libdaisy/src/daisy_seed.h **** {
  12:../../libdaisy/src/daisy_seed.h **** /**
  13:../../libdaisy/src/daisy_seed.h ****    @brief This is the higher-level interface for the Daisy board. \n 
  14:../../libdaisy/src/daisy_seed.h ****     All basic peripheral configuration/initialization is setup here. \n
  15:../../libdaisy/src/daisy_seed.h **** 
  16:../../libdaisy/src/daisy_seed.h ****    @ingroup boards
  17:../../libdaisy/src/daisy_seed.h **** */
ARM GAS  /tmp/ccVtSobE.s 			page 7


  18:../../libdaisy/src/daisy_seed.h **** class DaisySeed
  19:../../libdaisy/src/daisy_seed.h **** {
  20:../../libdaisy/src/daisy_seed.h ****   public:
  21:../../libdaisy/src/daisy_seed.h ****     DaisySeed() {}
  22:../../libdaisy/src/daisy_seed.h ****     ~DaisySeed() {}
 110              		.loc 7 22 5 is_stmt 1 view .LVU12
 111              	.LBB328:
 112              	.LBI328:
 113              		.file 8 "../../libdaisy/src/sys/system.h"
   1:../../libdaisy/src/sys/system.h **** #ifndef DSY_SYSTEM_H
   2:../../libdaisy/src/sys/system.h **** #define DSY_SYSTEM_H
   3:../../libdaisy/src/sys/system.h **** 
   4:../../libdaisy/src/sys/system.h **** #ifndef UNIT_TEST // for unit tests, a dummy implementation is provided below
   5:../../libdaisy/src/sys/system.h **** 
   6:../../libdaisy/src/sys/system.h **** #include <cstdint>
   7:../../libdaisy/src/sys/system.h **** #include "per/tim.h"
   8:../../libdaisy/src/sys/system.h **** 
   9:../../libdaisy/src/sys/system.h **** namespace daisy
  10:../../libdaisy/src/sys/system.h **** {
  11:../../libdaisy/src/sys/system.h **** /** A handle for interacting with the Core System. 
  12:../../libdaisy/src/sys/system.h ****  ** This includes the Clock tree, MPU, global DMA initialization,
  13:../../libdaisy/src/sys/system.h ****  ** cache handling, and any other necessary global initiailzation
  14:../../libdaisy/src/sys/system.h ****  **
  15:../../libdaisy/src/sys/system.h ****  ** @author shensley
  16:../../libdaisy/src/sys/system.h ****  ** @addtogroup system
  17:../../libdaisy/src/sys/system.h ****  */
  18:../../libdaisy/src/sys/system.h **** class System
  19:../../libdaisy/src/sys/system.h **** {
  20:../../libdaisy/src/sys/system.h ****   public:
  21:../../libdaisy/src/sys/system.h ****     /** Contains settings for initializing the System */
  22:../../libdaisy/src/sys/system.h ****     struct Config
  23:../../libdaisy/src/sys/system.h ****     {
  24:../../libdaisy/src/sys/system.h ****         /** Specifies the system clock frequency that feeds APB/AHB clocks, etc. */
  25:../../libdaisy/src/sys/system.h ****         enum class SysClkFreq
  26:../../libdaisy/src/sys/system.h ****         {
  27:../../libdaisy/src/sys/system.h ****             FREQ_400MHZ,
  28:../../libdaisy/src/sys/system.h ****             FREQ_480MHZ,
  29:../../libdaisy/src/sys/system.h ****         };
  30:../../libdaisy/src/sys/system.h **** 
  31:../../libdaisy/src/sys/system.h ****         /** Method to call on the struct to set to defaults
  32:../../libdaisy/src/sys/system.h ****          ** CPU Freq set to 400MHz
  33:../../libdaisy/src/sys/system.h ****          ** Cache Enabled 
  34:../../libdaisy/src/sys/system.h ****          ** */
  35:../../libdaisy/src/sys/system.h ****         void Defaults()
  36:../../libdaisy/src/sys/system.h ****         {
  37:../../libdaisy/src/sys/system.h ****             cpu_freq   = SysClkFreq::FREQ_400MHZ;
  38:../../libdaisy/src/sys/system.h ****             use_dcache = true;
  39:../../libdaisy/src/sys/system.h ****             use_icache = true;
  40:../../libdaisy/src/sys/system.h ****         }
  41:../../libdaisy/src/sys/system.h **** 
  42:../../libdaisy/src/sys/system.h ****         /** Method to call on the struct to set to boost mode:
  43:../../libdaisy/src/sys/system.h ****          ** CPU Freq set to 480MHz
  44:../../libdaisy/src/sys/system.h ****          ** Cache Enabled 
  45:../../libdaisy/src/sys/system.h ****          ** */
  46:../../libdaisy/src/sys/system.h ****         void Boost()
  47:../../libdaisy/src/sys/system.h ****         {
  48:../../libdaisy/src/sys/system.h ****             cpu_freq   = SysClkFreq::FREQ_480MHZ;
ARM GAS  /tmp/ccVtSobE.s 			page 8


  49:../../libdaisy/src/sys/system.h ****             use_dcache = true;
  50:../../libdaisy/src/sys/system.h ****             use_icache = true;
  51:../../libdaisy/src/sys/system.h ****         }
  52:../../libdaisy/src/sys/system.h **** 
  53:../../libdaisy/src/sys/system.h ****         SysClkFreq cpu_freq;
  54:../../libdaisy/src/sys/system.h ****         bool       use_dcache;
  55:../../libdaisy/src/sys/system.h ****         bool       use_icache;
  56:../../libdaisy/src/sys/system.h ****     };
  57:../../libdaisy/src/sys/system.h **** 
  58:../../libdaisy/src/sys/system.h ****     System() {}
  59:../../libdaisy/src/sys/system.h ****     ~System() {}
 114              		.loc 8 59 5 view .LVU13
 115              		.loc 8 59 5 is_stmt 0 view .LVU14
 116              	.LBE328:
 117              	.LBB329:
 118              	.LBI329:
 119              		.file 9 "../../libdaisy/src/hid/usb.h"
   1:../../libdaisy/src/hid/usb.h **** #pragma once
   2:../../libdaisy/src/hid/usb.h **** #ifndef DSY_HID_USB_H
   3:../../libdaisy/src/hid/usb.h **** #define DSY_HID_USB_H
   4:../../libdaisy/src/hid/usb.h **** #include <stdint.h>
   5:../../libdaisy/src/hid/usb.h **** #include <stdlib.h>
   6:../../libdaisy/src/hid/usb.h **** 
   7:../../libdaisy/src/hid/usb.h **** namespace daisy
   8:../../libdaisy/src/hid/usb.h **** /** @addtogroup externals
   9:../../libdaisy/src/hid/usb.h ****     @{
  10:../../libdaisy/src/hid/usb.h **** */
  11:../../libdaisy/src/hid/usb.h **** 
  12:../../libdaisy/src/hid/usb.h **** {
  13:../../libdaisy/src/hid/usb.h **** /** 
  14:../../libdaisy/src/hid/usb.h ****     @brief Interface for initializing and using the USB Peripherals on the daisy
  15:../../libdaisy/src/hid/usb.h ****     @author Stephen Hensley
  16:../../libdaisy/src/hid/usb.h ****     @date December 2019
  17:../../libdaisy/src/hid/usb.h **** */
  18:../../libdaisy/src/hid/usb.h **** class UsbHandle
  19:../../libdaisy/src/hid/usb.h **** {
  20:../../libdaisy/src/hid/usb.h ****   public:
  21:../../libdaisy/src/hid/usb.h ****     /** Return values for USBHandle Functions */
  22:../../libdaisy/src/hid/usb.h ****     enum class Result
  23:../../libdaisy/src/hid/usb.h ****     {
  24:../../libdaisy/src/hid/usb.h ****         OK,
  25:../../libdaisy/src/hid/usb.h ****         ERR,
  26:../../libdaisy/src/hid/usb.h ****     };
  27:../../libdaisy/src/hid/usb.h **** 
  28:../../libdaisy/src/hid/usb.h ****     /** Specified which of the two USB Peripherals to initialize. */
  29:../../libdaisy/src/hid/usb.h ****     enum UsbPeriph
  30:../../libdaisy/src/hid/usb.h ****     {
  31:../../libdaisy/src/hid/usb.h ****         FS_INTERNAL, /**< Internal pin */
  32:../../libdaisy/src/hid/usb.h ****         FS_EXTERNAL, /**< FS External D+ pin is Pin 38 (GPIO32). FS External D- pin is Pin 37 (GPIO
  33:../../libdaisy/src/hid/usb.h ****         FS_BOTH,     /**< Both */
  34:../../libdaisy/src/hid/usb.h ****     };
  35:../../libdaisy/src/hid/usb.h **** 
  36:../../libdaisy/src/hid/usb.h **** 
  37:../../libdaisy/src/hid/usb.h ****     /** Function called upon reception of a buffer */
  38:../../libdaisy/src/hid/usb.h ****     typedef void (*ReceiveCallback)(uint8_t* buff, uint32_t* len);
  39:../../libdaisy/src/hid/usb.h **** 
  40:../../libdaisy/src/hid/usb.h ****     UsbHandle() {}
ARM GAS  /tmp/ccVtSobE.s 			page 9


  41:../../libdaisy/src/hid/usb.h **** 
  42:../../libdaisy/src/hid/usb.h ****     ~UsbHandle() {}
 120              		.loc 9 42 5 is_stmt 1 view .LVU15
 121              		.loc 9 42 5 is_stmt 0 view .LVU16
 122              	.LBE329:
 123              	.LBB330:
 124              	.LBI330:
 125              		.file 10 "../../libdaisy/src/per/adc.h"
   1:../../libdaisy/src/per/adc.h **** #pragma once
   2:../../libdaisy/src/per/adc.h **** #ifndef DSY_ADC_H
   3:../../libdaisy/src/per/adc.h **** #define DSY_ADC_H /**< Macro */
   4:../../libdaisy/src/per/adc.h **** #include <stdint.h>
   5:../../libdaisy/src/per/adc.h **** #include <stdlib.h>
   6:../../libdaisy/src/per/adc.h **** #include "daisy_core.h"
   7:../../libdaisy/src/per/adc.h **** #include "per/gpio.h"
   8:../../libdaisy/src/per/adc.h **** 
   9:../../libdaisy/src/per/adc.h **** #define DSY_ADC_MAX_CHANNELS 14 /**< Maximum number of ADC channels */
  10:../../libdaisy/src/per/adc.h **** 
  11:../../libdaisy/src/per/adc.h **** namespace daisy
  12:../../libdaisy/src/per/adc.h **** {
  13:../../libdaisy/src/per/adc.h **** /** @addtogroup analog_digital_conversion
  14:../../libdaisy/src/per/adc.h ****     @{
  15:../../libdaisy/src/per/adc.h **** */
  16:../../libdaisy/src/per/adc.h **** 
  17:../../libdaisy/src/per/adc.h **** /* While there may not be many configuration options here,
  18:../../libdaisy/src/per/adc.h **** using a struct like this allows us to add more configuration
  19:../../libdaisy/src/per/adc.h **** later without breaking existing functionality.
  20:../../libdaisy/src/per/adc.h **** */
  21:../../libdaisy/src/per/adc.h **** 
  22:../../libdaisy/src/per/adc.h **** /** Configuration Structure for a given channel */
  23:../../libdaisy/src/per/adc.h **** struct AdcChannelConfig
  24:../../libdaisy/src/per/adc.h **** {
  25:../../libdaisy/src/per/adc.h ****     /** Which pin to use for multiplexing */
  26:../../libdaisy/src/per/adc.h ****     enum MuxPin
  27:../../libdaisy/src/per/adc.h ****     {
  28:../../libdaisy/src/per/adc.h ****         MUX_SEL_0,    /**< & */
  29:../../libdaisy/src/per/adc.h ****         MUX_SEL_1,    /**< & */
  30:../../libdaisy/src/per/adc.h ****         MUX_SEL_2,    /**< & */
  31:../../libdaisy/src/per/adc.h ****         MUX_SEL_LAST, /**< & */
  32:../../libdaisy/src/per/adc.h ****     };
  33:../../libdaisy/src/per/adc.h **** 
  34:../../libdaisy/src/per/adc.h ****     /** Initializes a single ADC pin as an ADC. 
  35:../../libdaisy/src/per/adc.h ****     \param pin Pin to init.
  36:../../libdaisy/src/per/adc.h ****      */
  37:../../libdaisy/src/per/adc.h ****     void InitSingle(dsy_gpio_pin pin);
  38:../../libdaisy/src/per/adc.h **** 
  39:../../libdaisy/src/per/adc.h ****     /** 
  40:../../libdaisy/src/per/adc.h ****     Initializes a single ADC pin as a Multiplexed ADC.
  41:../../libdaisy/src/per/adc.h ****     Requires a CD405X Multiplexer connected to the pin.
  42:../../libdaisy/src/per/adc.h ****     You only need to supply the mux pins that are required,
  43:../../libdaisy/src/per/adc.h ****     e.g. a 4052 mux would only require mux_0 and mux_1.
  44:../../libdaisy/src/per/adc.h ****     Internal Callbacks handle the pin addressing.
  45:../../libdaisy/src/per/adc.h ****     \param mux_channels must be 1-8
  46:../../libdaisy/src/per/adc.h ****     \param mux_0 First mux pin
  47:../../libdaisy/src/per/adc.h ****     \param mux_1 Second mux pin
  48:../../libdaisy/src/per/adc.h ****     \param mux_2 Third mux pin
  49:../../libdaisy/src/per/adc.h ****     \param adc_pin &
ARM GAS  /tmp/ccVtSobE.s 			page 10


  50:../../libdaisy/src/per/adc.h ****     */
  51:../../libdaisy/src/per/adc.h ****     void InitMux(dsy_gpio_pin adc_pin,
  52:../../libdaisy/src/per/adc.h ****                  size_t       mux_channels,
  53:../../libdaisy/src/per/adc.h ****                  dsy_gpio_pin mux_0,
  54:../../libdaisy/src/per/adc.h ****                  dsy_gpio_pin mux_1 = {DSY_GPIOX, 0},
  55:../../libdaisy/src/per/adc.h ****                  dsy_gpio_pin mux_2 = {DSY_GPIOX, 0});
  56:../../libdaisy/src/per/adc.h **** 
  57:../../libdaisy/src/per/adc.h ****     dsy_gpio pin_;                   /**< & */
  58:../../libdaisy/src/per/adc.h ****     dsy_gpio mux_pin_[MUX_SEL_LAST]; /**< & */
  59:../../libdaisy/src/per/adc.h ****     uint8_t  mux_channels_;          /**< & */
  60:../../libdaisy/src/per/adc.h **** };
  61:../../libdaisy/src/per/adc.h **** 
  62:../../libdaisy/src/per/adc.h **** /**
  63:../../libdaisy/src/per/adc.h ****    Handler for analog to digital conversion
  64:../../libdaisy/src/per/adc.h **** */
  65:../../libdaisy/src/per/adc.h **** class AdcHandle
  66:../../libdaisy/src/per/adc.h **** {
  67:../../libdaisy/src/per/adc.h ****   public:
  68:../../libdaisy/src/per/adc.h ****     /** Supported oversampling amounts */
  69:../../libdaisy/src/per/adc.h ****     enum OverSampling
  70:../../libdaisy/src/per/adc.h ****     {
  71:../../libdaisy/src/per/adc.h ****         OVS_NONE, /**< & */
  72:../../libdaisy/src/per/adc.h ****         OVS_4,    /**< & */
  73:../../libdaisy/src/per/adc.h ****         OVS_8,    /**< & */
  74:../../libdaisy/src/per/adc.h ****         OVS_16,   /**< & */
  75:../../libdaisy/src/per/adc.h ****         OVS_32,   /**< & */
  76:../../libdaisy/src/per/adc.h ****         OVS_64,   /**< & */
  77:../../libdaisy/src/per/adc.h ****         OVS_128,  /**< & */
  78:../../libdaisy/src/per/adc.h ****         OVS_256,  /**< & */
  79:../../libdaisy/src/per/adc.h ****         OVS_512,  /**< & */
  80:../../libdaisy/src/per/adc.h ****         OVS_1024, /**< & */
  81:../../libdaisy/src/per/adc.h ****         OVS_LAST, /**< & */
  82:../../libdaisy/src/per/adc.h ****     };
  83:../../libdaisy/src/per/adc.h **** 
  84:../../libdaisy/src/per/adc.h ****     AdcHandle() {}
  85:../../libdaisy/src/per/adc.h ****     ~AdcHandle() {}
 126              		.loc 10 85 5 is_stmt 1 view .LVU17
 127              		.loc 10 85 5 is_stmt 0 view .LVU18
 128              	.LBE330:
 129              	.LBB331:
 130              	.LBI331:
 131              		.file 11 "../../libdaisy/src/hid/audio.h"
   1:../../libdaisy/src/hid/audio.h **** #ifndef DSY_AUDIO_H
   2:../../libdaisy/src/hid/audio.h **** #define DSY_AUDIO_H /**< & */
   3:../../libdaisy/src/hid/audio.h **** 
   4:../../libdaisy/src/hid/audio.h **** #include "per/sai.h"
   5:../../libdaisy/src/hid/audio.h **** 
   6:../../libdaisy/src/hid/audio.h **** namespace daisy
   7:../../libdaisy/src/hid/audio.h **** {
   8:../../libdaisy/src/hid/audio.h **** class AudioHandle
   9:../../libdaisy/src/hid/audio.h **** {
  10:../../libdaisy/src/hid/audio.h ****   public:
  11:../../libdaisy/src/hid/audio.h ****     /** Manually configurable details about the Audio Engine */
  12:../../libdaisy/src/hid/audio.h ****     /** TODO: Figure out how to get samplerate in here. */
  13:../../libdaisy/src/hid/audio.h ****     struct Config
  14:../../libdaisy/src/hid/audio.h ****     {
  15:../../libdaisy/src/hid/audio.h ****         size_t                        blocksize;
ARM GAS  /tmp/ccVtSobE.s 			page 11


  16:../../libdaisy/src/hid/audio.h ****         SaiHandle::Config::SampleRate samplerate;
  17:../../libdaisy/src/hid/audio.h ****         float                         postgain;
  18:../../libdaisy/src/hid/audio.h ****     };
  19:../../libdaisy/src/hid/audio.h **** 
  20:../../libdaisy/src/hid/audio.h ****     enum class Result
  21:../../libdaisy/src/hid/audio.h ****     {
  22:../../libdaisy/src/hid/audio.h ****         OK,
  23:../../libdaisy/src/hid/audio.h ****         ERR,
  24:../../libdaisy/src/hid/audio.h ****     };
  25:../../libdaisy/src/hid/audio.h **** 
  26:../../libdaisy/src/hid/audio.h ****     /** Non-Interleaving input buffer
  27:../../libdaisy/src/hid/audio.h ****      * Buffer arranged by float[chn][sample] 
  28:../../libdaisy/src/hid/audio.h ****      * const so that the user can't modify the input
  29:../../libdaisy/src/hid/audio.h ****     */
  30:../../libdaisy/src/hid/audio.h ****     typedef const float* const* InputBuffer;
  31:../../libdaisy/src/hid/audio.h **** 
  32:../../libdaisy/src/hid/audio.h ****     /** Non-Interleaving output buffer
  33:../../libdaisy/src/hid/audio.h ****      * Arranged by float[chn][sample] 
  34:../../libdaisy/src/hid/audio.h ****     */
  35:../../libdaisy/src/hid/audio.h ****     typedef float** OutputBuffer;
  36:../../libdaisy/src/hid/audio.h **** 
  37:../../libdaisy/src/hid/audio.h ****     /** Type for a Non-Interleaving audio callback 
  38:../../libdaisy/src/hid/audio.h ****    * Non-Interleaving audio callbacks in daisy will be of this type
  39:../../libdaisy/src/hid/audio.h ****   */
  40:../../libdaisy/src/hid/audio.h ****     typedef void (*AudioCallback)(InputBuffer  in,
  41:../../libdaisy/src/hid/audio.h ****                                   OutputBuffer out,
  42:../../libdaisy/src/hid/audio.h ****                                   size_t       size);
  43:../../libdaisy/src/hid/audio.h **** 
  44:../../libdaisy/src/hid/audio.h ****     /** Interleaving Input buffer
  45:../../libdaisy/src/hid/audio.h ****      ** audio is prepared as { L0, R0, L1, R1, . . . LN, RN }]
  46:../../libdaisy/src/hid/audio.h ****      ** this is const, as the user shouldn't modify it
  47:../../libdaisy/src/hid/audio.h ****     */
  48:../../libdaisy/src/hid/audio.h ****     typedef const float* InterleavingInputBuffer;
  49:../../libdaisy/src/hid/audio.h **** 
  50:../../libdaisy/src/hid/audio.h ****     /** Interleaving Output buffer 
  51:../../libdaisy/src/hid/audio.h ****      ** audio is prepared as { L0, R0, L1, R1, . . . LN, RN }
  52:../../libdaisy/src/hid/audio.h ****     */
  53:../../libdaisy/src/hid/audio.h ****     typedef float* InterleavingOutputBuffer;
  54:../../libdaisy/src/hid/audio.h **** 
  55:../../libdaisy/src/hid/audio.h ****     /** Interleaving Audio Callback 
  56:../../libdaisy/src/hid/audio.h ****    * Interleaving audio callbacks in daisy must be of this type
  57:../../libdaisy/src/hid/audio.h ****   */
  58:../../libdaisy/src/hid/audio.h ****     typedef void (*InterleavingAudioCallback)(InterleavingInputBuffer  in,
  59:../../libdaisy/src/hid/audio.h ****                                               InterleavingOutputBuffer out,
  60:../../libdaisy/src/hid/audio.h ****                                               size_t                   size);
  61:../../libdaisy/src/hid/audio.h **** 
  62:../../libdaisy/src/hid/audio.h ****     AudioHandle() : pimpl_(nullptr) {}
  63:../../libdaisy/src/hid/audio.h ****     ~AudioHandle() {}
 132              		.loc 11 63 5 is_stmt 1 view .LVU19
 133              		.loc 11 63 5 is_stmt 0 view .LVU20
 134              	.LBE331:
 135              	.LBE327:
 136              		.loc 4 68 20 view .LVU21
 137 0000 7047     		bx	lr
 138              		.cfi_endproc
 139              	.LFE4219:
 141              		.weak	_ZN5daisy10DaisyPetalD1Ev
ARM GAS  /tmp/ccVtSobE.s 			page 12


 142              		.thumb_set _ZN5daisy10DaisyPetalD1Ev,_ZN5daisy10DaisyPetalD2Ev
 143 0002 00BF     		.section	.text.__tcf_0,"ax",%progbits
 144              		.align	1
 145              		.p2align 2,,3
 146              		.syntax unified
 147              		.thumb
 148              		.thumb_func
 149              		.fpu fpv5-d16
 151              	__tcf_0:
 152              	.LFB4788:
 153              		.file 12 "MultiEffect.cpp"
   1:MultiEffect.cpp **** #include "daisysp.h"
   2:MultiEffect.cpp **** #include "daisy_petal.h"
   3:MultiEffect.cpp **** 
   4:MultiEffect.cpp **** // Set max delay time to 0.75 of samplerate.
   5:MultiEffect.cpp **** #define MAX_DELAY static_cast<size_t>(48000 * 2.5f)
   6:MultiEffect.cpp **** 
   7:MultiEffect.cpp **** using namespace daisysp;
   8:MultiEffect.cpp **** using namespace daisy;
   9:MultiEffect.cpp **** 
  10:MultiEffect.cpp **** static DaisyPetal petal;
  11:MultiEffect.cpp **** 
  12:MultiEffect.cpp **** static ReverbSc                                  rev;
  13:MultiEffect.cpp **** static DelayLine<float, MAX_DELAY> DSY_SDRAM_BSS dell;
  14:MultiEffect.cpp **** static DelayLine<float, MAX_DELAY> DSY_SDRAM_BSS delr;
  15:MultiEffect.cpp **** static Autowah                                   wah[2];
 154              		.loc 12 15 50 is_stmt 1 view -0
 155              		.cfi_startproc
 156              		@ args = 0, pretend = 0, frame = 0
 157              		@ frame_needed = 0, uses_anonymous_args = 0
 158              		@ link register save eliminated.
 159              		.loc 12 15 50 is_stmt 0 view .LVU23
 160 0000 7047     		bx	lr
 161              		.cfi_endproc
 162              	.LFE4788:
 164 0002 00BF     		.section	.text._ZN7daisysp9DelayLineIfLj120000EED2Ev,"axG",%progbits,_ZN7daisysp9DelayLineIfLj1200
 165              		.align	1
 166              		.p2align 2,,3
 167              		.weak	_ZN7daisysp9DelayLineIfLj120000EED2Ev
 168              		.syntax unified
 169              		.thumb
 170              		.thumb_func
 171              		.fpu fpv5-d16
 173              	_ZN7daisysp9DelayLineIfLj120000EED2Ev:
 174              	.LVL3:
 175              	.LFB4790:
 176              		.file 13 "../../DaisySP/Source/Utility/delayline.h"
   1:../../DaisySP/Source/Utility/delayline.h **** #pragma once
   2:../../DaisySP/Source/Utility/delayline.h **** #ifndef DSY_DELAY_H
   3:../../DaisySP/Source/Utility/delayline.h **** #define DSY_DELAY_H
   4:../../DaisySP/Source/Utility/delayline.h **** #include <stdlib.h>
   5:../../DaisySP/Source/Utility/delayline.h **** #include <stdint.h>
   6:../../DaisySP/Source/Utility/delayline.h **** namespace daisysp
   7:../../DaisySP/Source/Utility/delayline.h **** {
   8:../../DaisySP/Source/Utility/delayline.h **** /** Simple Delay line.
   9:../../DaisySP/Source/Utility/delayline.h **** November 2019
  10:../../DaisySP/Source/Utility/delayline.h **** 
ARM GAS  /tmp/ccVtSobE.s 			page 13


  11:../../DaisySP/Source/Utility/delayline.h **** Converted to Template December 2019
  12:../../DaisySP/Source/Utility/delayline.h **** 
  13:../../DaisySP/Source/Utility/delayline.h **** declaration example: (1 second of floats)
  14:../../DaisySP/Source/Utility/delayline.h **** 
  15:../../DaisySP/Source/Utility/delayline.h **** DelayLine<float, SAMPLE_RATE> del;
  16:../../DaisySP/Source/Utility/delayline.h **** 
  17:../../DaisySP/Source/Utility/delayline.h **** By: shensley
  18:../../DaisySP/Source/Utility/delayline.h **** */
  19:../../DaisySP/Source/Utility/delayline.h **** template <typename T, size_t max_size>
  20:../../DaisySP/Source/Utility/delayline.h **** class DelayLine
  21:../../DaisySP/Source/Utility/delayline.h **** {
  22:../../DaisySP/Source/Utility/delayline.h ****   public:
  23:../../DaisySP/Source/Utility/delayline.h ****     DelayLine() {}
  24:../../DaisySP/Source/Utility/delayline.h ****     ~DelayLine() {}
 177              		.loc 13 24 5 is_stmt 1 view -0
 178              		.cfi_startproc
 179              		@ args = 0, pretend = 0, frame = 0
 180              		@ frame_needed = 0, uses_anonymous_args = 0
 181              		@ link register save eliminated.
 182              		.loc 13 24 19 is_stmt 0 view .LVU25
 183 0000 7047     		bx	lr
 184              		.cfi_endproc
 185              	.LFE4790:
 187              		.weak	_ZN7daisysp9DelayLineIfLj120000EED1Ev
 188              		.thumb_set _ZN7daisysp9DelayLineIfLj120000EED1Ev,_ZN7daisysp9DelayLineIfLj120000EED2Ev
 189 0002 00BF     		.section	.text._Z11UpdateKnobsv,"ax",%progbits
 190              		.align	1
 191              		.p2align 2,,3
 192              		.global	_Z11UpdateKnobsv
 193              		.syntax unified
 194              		.thumb
 195              		.thumb_func
 196              		.fpu fpv5-d16
 198              	_Z11UpdateKnobsv:
 199              	.LFB4226:
  16:MultiEffect.cpp **** static Parameter deltime, reverbLpParam, crushrate;
  17:MultiEffect.cpp **** 
  18:MultiEffect.cpp **** float currentDelay, feedback, delayTarget, cutoff, dryWet[5];
  19:MultiEffect.cpp **** 
  20:MultiEffect.cpp **** int   crushmod, crushcount;
  21:MultiEffect.cpp **** float crushl, crushr;
  22:MultiEffect.cpp **** bool  effectOn[4];
  23:MultiEffect.cpp **** 
  24:MultiEffect.cpp **** //Helper functions
  25:MultiEffect.cpp **** void Controls();
  26:MultiEffect.cpp **** void UpdateLeds();
  27:MultiEffect.cpp **** 
  28:MultiEffect.cpp **** void GetCrushSample(float &inl, float &inr);
  29:MultiEffect.cpp **** void GetWahSample(float &inl, float &inr);
  30:MultiEffect.cpp **** void GetDelaySample(float &inl, float &inr);
  31:MultiEffect.cpp **** void GetReverbSample(float &inl, float &inr);
  32:MultiEffect.cpp **** 
  33:MultiEffect.cpp **** 
  34:MultiEffect.cpp **** enum effectTypes
  35:MultiEffect.cpp **** {
  36:MultiEffect.cpp ****     CRUSH,
  37:MultiEffect.cpp ****     WAH,
ARM GAS  /tmp/ccVtSobE.s 			page 14


  38:MultiEffect.cpp ****     DEL,
  39:MultiEffect.cpp ****     REV,
  40:MultiEffect.cpp ****     ALL,
  41:MultiEffect.cpp ****     LAST,
  42:MultiEffect.cpp **** };
  43:MultiEffect.cpp **** effectTypes dryWetMode;
  44:MultiEffect.cpp **** 
  45:MultiEffect.cpp **** void GetSample(float &inl, float &inr, effectTypes type)
  46:MultiEffect.cpp **** {
  47:MultiEffect.cpp ****     switch(type)
  48:MultiEffect.cpp ****     {
  49:MultiEffect.cpp ****         case CRUSH: GetCrushSample(inl, inr); break;
  50:MultiEffect.cpp ****         case WAH: GetWahSample(inl, inr); break;
  51:MultiEffect.cpp ****         case DEL: GetDelaySample(inl, inr); break;
  52:MultiEffect.cpp ****         default: break;
  53:MultiEffect.cpp ****     }
  54:MultiEffect.cpp **** }
  55:MultiEffect.cpp **** 
  56:MultiEffect.cpp **** void AudioCallback(AudioHandle::InterleavingInputBuffer  in,
  57:MultiEffect.cpp ****                    AudioHandle::InterleavingOutputBuffer out,
  58:MultiEffect.cpp ****                    size_t                                size)
  59:MultiEffect.cpp **** {
  60:MultiEffect.cpp ****     Controls();
  61:MultiEffect.cpp **** 
  62:MultiEffect.cpp ****     //audio
  63:MultiEffect.cpp ****     for(size_t i = 0; i < size; i += 2)
  64:MultiEffect.cpp ****     {
  65:MultiEffect.cpp ****         float sigl = in[i];
  66:MultiEffect.cpp ****         float sigr = in[i + 1];
  67:MultiEffect.cpp **** 
  68:MultiEffect.cpp ****         for(int eff = 0; eff < REV; eff++)
  69:MultiEffect.cpp ****         {
  70:MultiEffect.cpp ****             float oldSigL = sigl;
  71:MultiEffect.cpp ****             float oldSigR = sigr;
  72:MultiEffect.cpp **** 
  73:MultiEffect.cpp ****             if(effectOn[eff])
  74:MultiEffect.cpp ****             {
  75:MultiEffect.cpp ****                 GetSample(sigl, sigr, (effectTypes)eff);
  76:MultiEffect.cpp ****             }
  77:MultiEffect.cpp **** 
  78:MultiEffect.cpp ****             sigl = sigl * dryWet[eff] + oldSigL * (1 - dryWet[eff]);
  79:MultiEffect.cpp ****             sigr = sigr * dryWet[eff] + oldSigR * (1 - dryWet[eff]);
  80:MultiEffect.cpp ****         }
  81:MultiEffect.cpp **** 
  82:MultiEffect.cpp ****         float verbl = sigl * dryWet[REV];
  83:MultiEffect.cpp ****         float verbr = sigr * dryWet[REV];
  84:MultiEffect.cpp ****         GetReverbSample(verbl, verbr);
  85:MultiEffect.cpp **** 
  86:MultiEffect.cpp ****         out[i]     = sigl * dryWet[ALL] + in[i] * (1 - dryWet[ALL]);
  87:MultiEffect.cpp ****         out[i + 1] = sigr * dryWet[ALL] + in[i + 1] * (1 - dryWet[ALL]);
  88:MultiEffect.cpp **** 
  89:MultiEffect.cpp ****         if(effectOn[REV])
  90:MultiEffect.cpp ****         {
  91:MultiEffect.cpp ****             out[i] += verbl;
  92:MultiEffect.cpp ****             out[i + 1] += verbr;
  93:MultiEffect.cpp ****         }
  94:MultiEffect.cpp ****     }
ARM GAS  /tmp/ccVtSobE.s 			page 15


  95:MultiEffect.cpp **** }
  96:MultiEffect.cpp **** 
  97:MultiEffect.cpp **** int main(void)
  98:MultiEffect.cpp **** {
  99:MultiEffect.cpp ****     // initialize petal hardware and oscillator daisysp module
 100:MultiEffect.cpp ****     float sample_rate;
 101:MultiEffect.cpp **** 
 102:MultiEffect.cpp ****     //Inits and sample rate
 103:MultiEffect.cpp ****     petal.Init();
 104:MultiEffect.cpp ****     sample_rate = petal.AudioSampleRate();
 105:MultiEffect.cpp ****     rev.Init(sample_rate);
 106:MultiEffect.cpp ****     dell.Init();
 107:MultiEffect.cpp ****     delr.Init();
 108:MultiEffect.cpp **** 
 109:MultiEffect.cpp ****     //set parameters
 110:MultiEffect.cpp ****     reverbLpParam.Init(petal.knob[0], 400, 22000, Parameter::LOGARITHMIC);
 111:MultiEffect.cpp ****     deltime.Init(
 112:MultiEffect.cpp ****         petal.knob[2], sample_rate * .05, MAX_DELAY, deltime.LOGARITHMIC);
 113:MultiEffect.cpp ****     crushrate.Init(petal.knob[4], 1, 50, crushrate.LOGARITHMIC);
 114:MultiEffect.cpp **** 
 115:MultiEffect.cpp ****     //reverb parameters
 116:MultiEffect.cpp ****     rev.SetLpFreq(18000.0f);
 117:MultiEffect.cpp ****     rev.SetFeedback(0.85f);
 118:MultiEffect.cpp **** 
 119:MultiEffect.cpp ****     //delay parameters
 120:MultiEffect.cpp ****     currentDelay = delayTarget = sample_rate * 0.75f;
 121:MultiEffect.cpp ****     dell.SetDelay(currentDelay);
 122:MultiEffect.cpp ****     delr.SetDelay(currentDelay);
 123:MultiEffect.cpp **** 
 124:MultiEffect.cpp ****     wah[0].Init(sample_rate);
 125:MultiEffect.cpp ****     wah[1].Init(sample_rate);
 126:MultiEffect.cpp ****     wah[0].SetLevel(.8f);
 127:MultiEffect.cpp ****     wah[1].SetLevel(.8f);
 128:MultiEffect.cpp **** 
 129:MultiEffect.cpp ****     effectOn[0] = effectOn[1] = effectOn[2] = effectOn[3] = false;
 130:MultiEffect.cpp **** 
 131:MultiEffect.cpp ****     for(int i = 0; i < LAST; i++)
 132:MultiEffect.cpp ****     {
 133:MultiEffect.cpp ****         dryWet[i] = 0.6f;
 134:MultiEffect.cpp ****     }
 135:MultiEffect.cpp **** 
 136:MultiEffect.cpp ****     dryWetMode = CRUSH;
 137:MultiEffect.cpp **** 
 138:MultiEffect.cpp ****     // start callback
 139:MultiEffect.cpp ****     petal.StartAdc();
 140:MultiEffect.cpp ****     petal.StartAudio(AudioCallback);
 141:MultiEffect.cpp **** 
 142:MultiEffect.cpp ****     while(1)
 143:MultiEffect.cpp ****     {
 144:MultiEffect.cpp ****         UpdateLeds();
 145:MultiEffect.cpp ****         System::Delay(6);
 146:MultiEffect.cpp ****     }
 147:MultiEffect.cpp **** }
 148:MultiEffect.cpp **** 
 149:MultiEffect.cpp **** void UpdateKnobs()
 150:MultiEffect.cpp **** {
 200              		.loc 12 150 1 is_stmt 1 view -0
ARM GAS  /tmp/ccVtSobE.s 			page 16


 201              		.cfi_startproc
 202              		@ args = 0, pretend = 0, frame = 0
 203              		@ frame_needed = 0, uses_anonymous_args = 0
 151:MultiEffect.cpp ****     rev.SetLpFreq(reverbLpParam.Process());
 204              		.loc 12 151 5 view .LVU27
 150:MultiEffect.cpp ****     rev.SetLpFreq(reverbLpParam.Process());
 205              		.loc 12 150 1 is_stmt 0 view .LVU28
 206 0000 F8B5     		push	{r3, r4, r5, r6, r7, lr}
 207              		.cfi_def_cfa_offset 24
 208              		.cfi_offset 3, -24
 209              		.cfi_offset 4, -20
 210              		.cfi_offset 5, -16
 211              		.cfi_offset 6, -12
 212              		.cfi_offset 7, -8
 213              		.cfi_offset 14, -4
 152:MultiEffect.cpp ****     rev.SetFeedback(petal.knob[1].Process());
 214              		.loc 12 152 42 view .LVU29
 215 0002 184C     		ldr	r4, .L9
 151:MultiEffect.cpp ****     rev.SetLpFreq(reverbLpParam.Process());
 216              		.loc 12 151 40 view .LVU30
 217 0004 1848     		ldr	r0, .L9+4
 218              	.LBB332:
 219              	.LBB333:
  42:../../DaisySP/Source/Effects/reverbsc.h ****     /** Initializes the reverb module, and sets the sample_rate at which the Process function will 
  43:../../DaisySP/Source/Effects/reverbsc.h ****         Returns 0 if all good, or 1 if it runs out of delay times exceed maximum allowed.
  44:../../DaisySP/Source/Effects/reverbsc.h ****     */
  45:../../DaisySP/Source/Effects/reverbsc.h ****     int Init(float sample_rate);
  46:../../DaisySP/Source/Effects/reverbsc.h **** 
  47:../../DaisySP/Source/Effects/reverbsc.h ****     /** Process the input through the reverb, and updates values of out1, and out2 with the new pro
  48:../../DaisySP/Source/Effects/reverbsc.h ****     */
  49:../../DaisySP/Source/Effects/reverbsc.h ****     int Process(const float &in1, const float &in2, float *out1, float *out2);
  50:../../DaisySP/Source/Effects/reverbsc.h **** 
  51:../../DaisySP/Source/Effects/reverbsc.h ****     /** controls the reverb time. reverb tail becomes infinite when set to 1.0
  52:../../DaisySP/Source/Effects/reverbsc.h ****         \param fb - sets reverb time. range: 0.0 to 1.0
  53:../../DaisySP/Source/Effects/reverbsc.h ****     */
  54:../../DaisySP/Source/Effects/reverbsc.h ****     inline void SetFeedback(const float &fb) { feedback_ = fb; }
  55:../../DaisySP/Source/Effects/reverbsc.h ****     /** controls the internal dampening filter's cutoff frequency.
  56:../../DaisySP/Source/Effects/reverbsc.h ****         \param freq - low pass frequency. range: 0.0 to sample_rate / 2
  57:../../DaisySP/Source/Effects/reverbsc.h ****     */
  58:../../DaisySP/Source/Effects/reverbsc.h ****     inline void SetLpFreq(const float &freq) { lpfreq_ = freq; }
 220              		.loc 1 58 56 view .LVU31
 221 0006 194F     		ldr	r7, .L9+8
 222              	.LBE333:
 223              	.LBE332:
 151:MultiEffect.cpp ****     rev.SetFeedback(petal.knob[1].Process());
 224              		.loc 12 151 40 view .LVU32
 225 0008 FFF7FEFF 		bl	_ZN5daisy9Parameter7ProcessEv
 226              	.LVL4:
 227              	.LBB336:
 228              	.LBI332:
 229              		.loc 1 58 17 is_stmt 1 view .LVU33
 230              	.LBB334:
 231              		.loc 1 58 48 view .LVU34
 232              	.LBE334:
 233              	.LBE336:
 234              		.loc 12 152 42 is_stmt 0 view .LVU35
 235 000c 04F17C00 		add	r0, r4, #124
ARM GAS  /tmp/ccVtSobE.s 			page 17


 153:MultiEffect.cpp **** 
 154:MultiEffect.cpp ****     delayTarget = deltime.Process();
 155:MultiEffect.cpp ****     feedback    = petal.knob[3].Process();
 156:MultiEffect.cpp **** 
 157:MultiEffect.cpp ****     crushmod = (int)crushrate.Process();
 158:MultiEffect.cpp **** 
 159:MultiEffect.cpp ****     wah[0].SetWah(petal.knob[5].Process());
 236              		.loc 12 159 18 view .LVU36
 237 0010 04F1FC06 		add	r6, r4, #252
 238              	.LBB337:
 239              	.LBB335:
 240              		.loc 1 58 56 view .LVU37
 241 0014 87ED010A 		vstr.32	s0, [r7, #4]
 242              	.LBE335:
 243              	.LBE337:
 152:MultiEffect.cpp **** 
 244              		.loc 12 152 5 is_stmt 1 view .LVU38
 152:MultiEffect.cpp **** 
 245              		.loc 12 152 42 is_stmt 0 view .LVU39
 246 0018 FFF7FEFF 		bl	_ZN5daisy13AnalogControl7ProcessEv
 247              	.LVL5:
 248              	.LBB338:
 249              	.LBI338:
  54:../../DaisySP/Source/Effects/reverbsc.h ****     /** controls the internal dampening filter's cutoff frequency.
 250              		.loc 1 54 17 is_stmt 1 view .LVU40
 251              	.LBB339:
  54:../../DaisySP/Source/Effects/reverbsc.h ****     /** controls the internal dampening filter's cutoff frequency.
 252              		.loc 1 54 48 view .LVU41
 253              	.LBE339:
 254              	.LBE338:
 154:MultiEffect.cpp ****     feedback    = petal.knob[3].Process();
 255              		.loc 12 154 34 is_stmt 0 view .LVU42
 256 001c 1448     		ldr	r0, .L9+12
 257              	.LBB341:
 258              	.LBB340:
  54:../../DaisySP/Source/Effects/reverbsc.h ****     /** controls the internal dampening filter's cutoff frequency.
 259              		.loc 1 54 58 view .LVU43
 260 001e 87ED000A 		vstr.32	s0, [r7]
 261              	.LBE340:
 262              	.LBE341:
 154:MultiEffect.cpp ****     feedback    = petal.knob[3].Process();
 263              		.loc 12 154 5 is_stmt 1 view .LVU44
 154:MultiEffect.cpp ****     feedback    = petal.knob[3].Process();
 264              		.loc 12 154 34 is_stmt 0 view .LVU45
 265 0022 FFF7FEFF 		bl	_ZN5daisy9Parameter7ProcessEv
 266              	.LVL6:
 154:MultiEffect.cpp ****     feedback    = petal.knob[3].Process();
 267              		.loc 12 154 17 view .LVU46
 268 0026 134B     		ldr	r3, .L9+16
 155:MultiEffect.cpp **** 
 269              		.loc 12 155 40 view .LVU47
 270 0028 04F1BC00 		add	r0, r4, #188
 271              	.LBB342:
 272              	.LBB343:
 273              		.file 14 "../../DaisySP/Source/Effects/autowah.h"
   1:../../DaisySP/Source/Effects/autowah.h **** #pragma once
   2:../../DaisySP/Source/Effects/autowah.h **** #ifndef DSY_AUTOWAH_H
ARM GAS  /tmp/ccVtSobE.s 			page 18


   3:../../DaisySP/Source/Effects/autowah.h **** #define DSY_AUTOWAH_H
   4:../../DaisySP/Source/Effects/autowah.h **** 
   5:../../DaisySP/Source/Effects/autowah.h **** #include <stdint.h>
   6:../../DaisySP/Source/Effects/autowah.h **** #ifdef __cplusplus
   7:../../DaisySP/Source/Effects/autowah.h **** 
   8:../../DaisySP/Source/Effects/autowah.h **** namespace daisysp
   9:../../DaisySP/Source/Effects/autowah.h **** {
  10:../../DaisySP/Source/Effects/autowah.h **** /** Autowah module
  11:../../DaisySP/Source/Effects/autowah.h **** 
  12:../../DaisySP/Source/Effects/autowah.h ****     Original author(s) :
  13:../../DaisySP/Source/Effects/autowah.h **** 
  14:../../DaisySP/Source/Effects/autowah.h ****     Ported from soundpipe by Ben Sergentanis, May 2020
  15:../../DaisySP/Source/Effects/autowah.h **** */
  16:../../DaisySP/Source/Effects/autowah.h **** class Autowah
  17:../../DaisySP/Source/Effects/autowah.h **** {
  18:../../DaisySP/Source/Effects/autowah.h ****   public:
  19:../../DaisySP/Source/Effects/autowah.h ****     Autowah() {}
  20:../../DaisySP/Source/Effects/autowah.h ****     ~Autowah() {}
  21:../../DaisySP/Source/Effects/autowah.h ****     /** Initializes the Autowah module.
  22:../../DaisySP/Source/Effects/autowah.h ****         \param sample_rate - The sample rate of the audio engine being run. 
  23:../../DaisySP/Source/Effects/autowah.h ****     */
  24:../../DaisySP/Source/Effects/autowah.h ****     void Init(float sample_rate);
  25:../../DaisySP/Source/Effects/autowah.h **** 
  26:../../DaisySP/Source/Effects/autowah.h **** 
  27:../../DaisySP/Source/Effects/autowah.h ****     /** Initializes the Autowah module.
  28:../../DaisySP/Source/Effects/autowah.h ****         \param in - input signal to be wah'd
  29:../../DaisySP/Source/Effects/autowah.h ****     */
  30:../../DaisySP/Source/Effects/autowah.h ****     float Process(float in);
  31:../../DaisySP/Source/Effects/autowah.h **** 
  32:../../DaisySP/Source/Effects/autowah.h **** 
  33:../../DaisySP/Source/Effects/autowah.h ****     /** sets wah
  34:../../DaisySP/Source/Effects/autowah.h ****         \param wah : set wah amount
  35:../../DaisySP/Source/Effects/autowah.h ****     */
  36:../../DaisySP/Source/Effects/autowah.h ****     inline void SetWah(float wah) { wah_ = wah; }
 274              		.loc 14 36 42 view .LVU48
 275 002c 124D     		ldr	r5, .L9+20
 276              	.LBE343:
 277              	.LBE342:
 154:MultiEffect.cpp ****     feedback    = petal.knob[3].Process();
 278              		.loc 12 154 17 view .LVU49
 279 002e 83ED000A 		vstr.32	s0, [r3]
 155:MultiEffect.cpp **** 
 280              		.loc 12 155 5 is_stmt 1 view .LVU50
 155:MultiEffect.cpp **** 
 281              		.loc 12 155 40 is_stmt 0 view .LVU51
 282 0032 FFF7FEFF 		bl	_ZN5daisy13AnalogControl7ProcessEv
 283              	.LVL7:
 155:MultiEffect.cpp **** 
 284              		.loc 12 155 17 view .LVU52
 285 0036 114B     		ldr	r3, .L9+24
 157:MultiEffect.cpp **** 
 286              		.loc 12 157 38 view .LVU53
 287 0038 1148     		ldr	r0, .L9+28
 155:MultiEffect.cpp **** 
 288              		.loc 12 155 17 view .LVU54
 289 003a 83ED000A 		vstr.32	s0, [r3]
 157:MultiEffect.cpp **** 
ARM GAS  /tmp/ccVtSobE.s 			page 19


 290              		.loc 12 157 5 is_stmt 1 view .LVU55
 157:MultiEffect.cpp **** 
 291              		.loc 12 157 38 is_stmt 0 view .LVU56
 292 003e FFF7FEFF 		bl	_ZN5daisy9Parameter7ProcessEv
 293              	.LVL8:
 157:MultiEffect.cpp **** 
 294              		.loc 12 157 16 view .LVU57
 295 0042 BDEEC00A 		vcvt.s32.f32	s0, s0
 157:MultiEffect.cpp **** 
 296              		.loc 12 157 14 view .LVU58
 297 0046 0F4B     		ldr	r3, .L9+32
 298              		.loc 12 159 18 view .LVU59
 299 0048 3046     		mov	r0, r6
 157:MultiEffect.cpp **** 
 300              		.loc 12 157 16 view .LVU60
 301 004a 83ED000A 		vstr.32	s0, [r3]	@ int
 302              		.loc 12 159 5 is_stmt 1 view .LVU61
 303              		.loc 12 159 18 is_stmt 0 view .LVU62
 304 004e FFF7FEFF 		bl	_ZN5daisy13AnalogControl7ProcessEv
 305              	.LVL9:
 306              	.LBB346:
 307              	.LBI342:
 308              		.loc 14 36 17 is_stmt 1 view .LVU63
 309              	.LBB344:
 310              		.loc 14 36 37 view .LVU64
 311              	.LBE344:
 312              	.LBE346:
 160:MultiEffect.cpp ****     wah[1].SetWah(petal.knob[5].Process());
 313              		.loc 12 160 18 is_stmt 0 view .LVU65
 314 0052 3046     		mov	r0, r6
 315              	.LBB347:
 316              	.LBB345:
 317              		.loc 14 36 42 view .LVU66
 318 0054 85ED040A 		vstr.32	s0, [r5, #16]
 319              	.LVL10:
 320              		.loc 14 36 42 view .LVU67
 321              	.LBE345:
 322              	.LBE347:
 323              		.loc 12 160 5 is_stmt 1 view .LVU68
 324              		.loc 12 160 18 is_stmt 0 view .LVU69
 325 0058 FFF7FEFF 		bl	_ZN5daisy13AnalogControl7ProcessEv
 326              	.LVL11:
 327              	.LBB348:
 328              	.LBI348:
 329              		.loc 14 36 17 is_stmt 1 view .LVU70
 330              	.LBB349:
 331              		.loc 14 36 37 view .LVU71
 332              		.loc 14 36 42 is_stmt 0 view .LVU72
 333 005c 85ED180A 		vstr.32	s0, [r5, #96]
 334              	.LVL12:
 335              		.loc 14 36 42 view .LVU73
 336              	.LBE349:
 337              	.LBE348:
 161:MultiEffect.cpp **** }
 338              		.loc 12 161 1 view .LVU74
 339 0060 F8BD     		pop	{r3, r4, r5, r6, r7, pc}
 340              	.L10:
ARM GAS  /tmp/ccVtSobE.s 			page 20


 341 0062 00BF     		.align	2
 342              	.L9:
 343 0064 00000000 		.word	.LANCHOR1
 344 0068 00000000 		.word	.LANCHOR0
 345 006c 00000000 		.word	_ZL3rev
 346 0070 00000000 		.word	.LANCHOR2
 347 0074 00000000 		.word	.LANCHOR3
 348 0078 00000000 		.word	.LANCHOR7
 349 007c 00000000 		.word	.LANCHOR4
 350 0080 00000000 		.word	.LANCHOR5
 351 0084 00000000 		.word	.LANCHOR6
 352              		.cfi_endproc
 353              	.LFE4226:
 355              		.section	.text._Z13UpdateEncoderv,"ax",%progbits
 356              		.align	1
 357              		.p2align 2,,3
 358              		.global	_Z13UpdateEncoderv
 359              		.syntax unified
 360              		.thumb
 361              		.thumb_func
 362              		.fpu fpv5-d16
 364              	_Z13UpdateEncoderv:
 365              	.LFB4227:
 162:MultiEffect.cpp **** 
 163:MultiEffect.cpp **** void UpdateEncoder()
 164:MultiEffect.cpp **** {
 366              		.loc 12 164 1 is_stmt 1 view -0
 367              		.cfi_startproc
 368              		@ args = 0, pretend = 0, frame = 0
 369              		@ frame_needed = 0, uses_anonymous_args = 0
 370              		@ link register save eliminated.
 165:MultiEffect.cpp ****     //press
 166:MultiEffect.cpp ****     if(petal.encoder.RisingEdge())
 371              		.loc 12 166 5 view .LVU76
 372              	.LVL13:
 373              	.LBB350:
 374              	.LBI350:
  22:../../libdaisy/src/hid/encoder.h **** 
  23:../../libdaisy/src/hid/encoder.h ****     /** Initializes the encoder with the specified hardware pins.
  24:../../libdaisy/src/hid/encoder.h **** */
  25:../../libdaisy/src/hid/encoder.h ****     //
  26:../../libdaisy/src/hid/encoder.h ****     /** Update rate should be the rate at which Debounce() gets called
  27:../../libdaisy/src/hid/encoder.h **** in Hertz.
  28:../../libdaisy/src/hid/encoder.h **** */
  29:../../libdaisy/src/hid/encoder.h ****     //
  30:../../libdaisy/src/hid/encoder.h ****     void
  31:../../libdaisy/src/hid/encoder.h ****     Init(dsy_gpio_pin a, dsy_gpio_pin b, dsy_gpio_pin click, float update_rate);
  32:../../libdaisy/src/hid/encoder.h ****     /** Called at update_rate to debounce and handle timing for the switch.
  33:../../libdaisy/src/hid/encoder.h **** */
  34:../../libdaisy/src/hid/encoder.h ****     //
  35:../../libdaisy/src/hid/encoder.h ****     /** In order for events not to be missed, its important that the Edge/Pressed checks
  36:../../libdaisy/src/hid/encoder.h **** be made at the same rate as the debounce function is being called.
  37:../../libdaisy/src/hid/encoder.h **** */
  38:../../libdaisy/src/hid/encoder.h ****     void Debounce();
  39:../../libdaisy/src/hid/encoder.h ****     /** Returns +1 if the encoder was turned clockwise, -1 if it was turned counter-clockwise, or 0
  40:../../libdaisy/src/hid/encoder.h **** */
  41:../../libdaisy/src/hid/encoder.h ****     inline int32_t Increment() const { return inc_; }
ARM GAS  /tmp/ccVtSobE.s 			page 21


  42:../../libdaisy/src/hid/encoder.h ****     /** Returns true if the encoder was just pressed.
  43:../../libdaisy/src/hid/encoder.h **** */
  44:../../libdaisy/src/hid/encoder.h ****     inline bool RisingEdge() const { return sw_.RisingEdge(); }
 375              		.loc 5 44 17 view .LVU77
 376              	.LBB351:
 377              		.loc 5 44 38 view .LVU78
 378              		.loc 5 44 38 is_stmt 0 view .LVU79
 379              	.LBE351:
 380              	.LBE350:
  42:../../libdaisy/src/hid/switch.h **** 
  43:../../libdaisy/src/hid/switch.h ****     /** 
  44:../../libdaisy/src/hid/switch.h ****     Initializes the switch object with a given port/pin combo.
  45:../../libdaisy/src/hid/switch.h ****     \param pin port/pin object to tell the switch which hardware pin to use.
  46:../../libdaisy/src/hid/switch.h ****     \param update_rate the rate at which the Debounce() function will be called. (used for timing).
  47:../../libdaisy/src/hid/switch.h ****     \param t switch type -- Default: TYPE_MOMENTARY
  48:../../libdaisy/src/hid/switch.h ****     \param pol switch polarity -- Default: POLARITY_INVERTED
  49:../../libdaisy/src/hid/switch.h ****     \param pu switch pull up/down -- Default: PULL_UP
  50:../../libdaisy/src/hid/switch.h ****     */
  51:../../libdaisy/src/hid/switch.h ****     void
  52:../../libdaisy/src/hid/switch.h ****     Init(dsy_gpio_pin pin, float update_rate, Type t, Polarity pol, Pull pu);
  53:../../libdaisy/src/hid/switch.h **** 
  54:../../libdaisy/src/hid/switch.h ****     /**
  55:../../libdaisy/src/hid/switch.h ****        Simplified Init.
  56:../../libdaisy/src/hid/switch.h ****        \param pin port/pin object to tell the switch which hardware pin to use.
  57:../../libdaisy/src/hid/switch.h ****        \param update_rate the rate at which the Debounce() function will be called. (used for timin
  58:../../libdaisy/src/hid/switch.h ****     */
  59:../../libdaisy/src/hid/switch.h ****     void Init(dsy_gpio_pin pin, float update_rate);
  60:../../libdaisy/src/hid/switch.h **** 
  61:../../libdaisy/src/hid/switch.h ****     /** 
  62:../../libdaisy/src/hid/switch.h ****     Called at update_rate to debounce and handle timing for the switch.
  63:../../libdaisy/src/hid/switch.h ****     In order for events not to be missed, its important that the Edge/Pressed checks
  64:../../libdaisy/src/hid/switch.h ****     be made at the same rate as the debounce function is being called.
  65:../../libdaisy/src/hid/switch.h ****     */
  66:../../libdaisy/src/hid/switch.h ****     void Debounce();
  67:../../libdaisy/src/hid/switch.h **** 
  68:../../libdaisy/src/hid/switch.h ****     /** \return true if a button was just pressed. */
  69:../../libdaisy/src/hid/switch.h ****     inline bool RisingEdge() const { return state_ == 0x7f; }
 381              		.loc 6 69 38 is_stmt 1 view .LVU80
 382              	.LBB353:
 383              	.LBB352:
 384              		.loc 5 44 59 is_stmt 0 view .LVU81
 385 0000 2049     		ldr	r1, .L19
 386              	.LBE352:
 387              	.LBE353:
 164:MultiEffect.cpp ****     //press
 388              		.loc 12 164 1 view .LVU82
 389 0002 10B4     		push	{r4}
 390              		.cfi_def_cfa_offset 4
 391              		.cfi_offset 4, -4
 392              		.loc 12 166 5 view .LVU83
 393 0004 91F84130 		ldrb	r3, [r1, #65]	@ zero_extendqisi2
 394 0008 7F2B     		cmp	r3, #127
 395 000a 2BD0     		beq	.L12
 396 000c 1E4B     		ldr	r3, .L19+4
 397 000e 1B78     		ldrb	r3, [r3]	@ zero_extendqisi2
 398              	.L13:
 167:MultiEffect.cpp ****     {
ARM GAS  /tmp/ccVtSobE.s 			page 22


 168:MultiEffect.cpp ****         dryWetMode = (effectTypes)(dryWetMode + 1);
 169:MultiEffect.cpp ****         dryWetMode = (effectTypes)(dryWetMode % LAST);
 170:MultiEffect.cpp ****     }
 171:MultiEffect.cpp **** 
 172:MultiEffect.cpp ****     //turn
 173:MultiEffect.cpp ****     dryWet[dryWetMode] += petal.encoder.Increment() * .05f;
 399              		.loc 12 173 5 is_stmt 1 view .LVU84
 400              	.LVL14:
  41:../../libdaisy/src/hid/encoder.h ****     /** Returns true if the encoder was just pressed.
 401              		.loc 5 41 40 view .LVU85
 402              		.loc 12 173 24 is_stmt 0 view .LVU86
 403 0010 1E4A     		ldr	r2, .L19+8
 174:MultiEffect.cpp ****     dryWet[dryWetMode] = dryWet[dryWetMode] > 1.0f ? 1.0f : dryWet[dryWetMode];
 404              		.loc 12 174 52 view .LVU87
 405 0012 F7EE006A 		vmov.f32	s13, #1.0e+0
 173:MultiEffect.cpp ****     dryWet[dryWetMode] = dryWet[dryWetMode] > 1.0f ? 1.0f : dryWet[dryWetMode];
 406              		.loc 12 173 53 view .LVU88
 407 0016 91ED167A 		vldr.32	s14, [r1, #88]	@ int
 173:MultiEffect.cpp ****     dryWet[dryWetMode] = dryWet[dryWetMode] > 1.0f ? 1.0f : dryWet[dryWetMode];
 408              		.loc 12 173 24 view .LVU89
 409 001a 9900     		lsls	r1, r3, #2
 410 001c 02EB8303 		add	r3, r2, r3, lsl #2
 411 0020 9FED1B6A 		vldr.32	s12, .L19+12
 173:MultiEffect.cpp ****     dryWet[dryWetMode] = dryWet[dryWetMode] > 1.0f ? 1.0f : dryWet[dryWetMode];
 412              		.loc 12 173 53 view .LVU90
 413 0024 B8EEC77A 		vcvt.f32.s32	s14, s14
 173:MultiEffect.cpp ****     dryWet[dryWetMode] = dryWet[dryWetMode] > 1.0f ? 1.0f : dryWet[dryWetMode];
 414              		.loc 12 173 24 view .LVU91
 415 0028 D3ED007A 		vldr.32	s15, [r3]
 416 002c E7EE067A 		vfma.f32	s15, s14, s12
 417              		.loc 12 174 5 is_stmt 1 view .LVU92
 418              		.loc 12 174 52 is_stmt 0 view .LVU93
 419 0030 F4EEE67A 		vcmpe.f32	s15, s13
 420 0034 F1EE10FA 		vmrs	APSR_nzcv, FPSCR
 421 0038 07DD     		ble	.L18
 422 003a F0EE667A 		vmov.f32	s15, s13
 423              	.L14:
 175:MultiEffect.cpp ****     dryWet[dryWetMode] = dryWet[dryWetMode] < 0.0f ? 0.0f : dryWet[dryWetMode];
 424              		.loc 12 175 24 discriminator 4 view .LVU94
 425 003e 0A44     		add	r2, r2, r1
 176:MultiEffect.cpp **** }
 426              		.loc 12 176 1 discriminator 4 view .LVU95
 427 0040 5DF8044B 		ldr	r4, [sp], #4
 428              		.cfi_remember_state
 429              		.cfi_restore 4
 430              		.cfi_def_cfa_offset 0
 175:MultiEffect.cpp ****     dryWet[dryWetMode] = dryWet[dryWetMode] < 0.0f ? 0.0f : dryWet[dryWetMode];
 431              		.loc 12 175 24 discriminator 4 view .LVU96
 432 0044 C2ED007A 		vstr.32	s15, [r2]
 433              		.loc 12 176 1 discriminator 4 view .LVU97
 434 0048 7047     		bx	lr
 435              	.L18:
 436              		.cfi_restore_state
 175:MultiEffect.cpp ****     dryWet[dryWetMode] = dryWet[dryWetMode] < 0.0f ? 0.0f : dryWet[dryWetMode];
 437              		.loc 12 175 5 is_stmt 1 discriminator 4 view .LVU98
 175:MultiEffect.cpp ****     dryWet[dryWetMode] = dryWet[dryWetMode] < 0.0f ? 0.0f : dryWet[dryWetMode];
 438              		.loc 12 175 52 is_stmt 0 discriminator 4 view .LVU99
ARM GAS  /tmp/ccVtSobE.s 			page 23


 439 004a F5EEC07A 		vcmpe.f32	s15, #0
 440 004e F1EE10FA 		vmrs	APSR_nzcv, FPSCR
 441 0052 F4D5     		bpl	.L14
 175:MultiEffect.cpp ****     dryWet[dryWetMode] = dryWet[dryWetMode] < 0.0f ? 0.0f : dryWet[dryWetMode];
 442              		.loc 12 175 52 view .LVU100
 443 0054 DFED0F7A 		vldr.32	s15, .L19+16
 175:MultiEffect.cpp ****     dryWet[dryWetMode] = dryWet[dryWetMode] < 0.0f ? 0.0f : dryWet[dryWetMode];
 444              		.loc 12 175 24 view .LVU101
 445 0058 0A44     		add	r2, r2, r1
 446              		.loc 12 176 1 view .LVU102
 447 005a 5DF8044B 		ldr	r4, [sp], #4
 448              		.cfi_remember_state
 449              		.cfi_restore 4
 450              		.cfi_def_cfa_offset 0
 175:MultiEffect.cpp ****     dryWet[dryWetMode] = dryWet[dryWetMode] < 0.0f ? 0.0f : dryWet[dryWetMode];
 451              		.loc 12 175 24 view .LVU103
 452 005e C2ED007A 		vstr.32	s15, [r2]
 453              		.loc 12 176 1 view .LVU104
 454 0062 7047     		bx	lr
 455              	.LVL15:
 456              	.L12:
 457              		.cfi_restore_state
 168:MultiEffect.cpp ****         dryWetMode = (effectTypes)(dryWetMode % LAST);
 458              		.loc 12 168 9 is_stmt 1 view .LVU105
 169:MultiEffect.cpp ****     }
 459              		.loc 12 169 9 view .LVU106
 168:MultiEffect.cpp ****         dryWetMode = (effectTypes)(dryWetMode % LAST);
 460              		.loc 12 168 22 is_stmt 0 view .LVU107
 461 0064 084C     		ldr	r4, .L19+4
 169:MultiEffect.cpp ****     }
 462              		.loc 12 169 47 view .LVU108
 463 0066 0C4A     		ldr	r2, .L19+20
 168:MultiEffect.cpp ****         dryWetMode = (effectTypes)(dryWetMode % LAST);
 464              		.loc 12 168 47 view .LVU109
 465 0068 2378     		ldrb	r3, [r4]	@ zero_extendqisi2
 466 006a 0133     		adds	r3, r3, #1
 169:MultiEffect.cpp ****     }
 467              		.loc 12 169 47 view .LVU110
 468 006c DBB2     		uxtb	r3, r3
 469 006e A2FB0302 		umull	r0, r2, r2, r3
 470 0072 02F0FC00 		and	r0, r2, #252
 471 0076 00EB9202 		add	r2, r0, r2, lsr #2
 472 007a 9B1A     		subs	r3, r3, r2
 473 007c DBB2     		uxtb	r3, r3
 169:MultiEffect.cpp ****     }
 474              		.loc 12 169 20 view .LVU111
 475 007e 2370     		strb	r3, [r4]
 476 0080 C6E7     		b	.L13
 477              	.L20:
 478 0082 00BF     		.align	2
 479              	.L19:
 480 0084 00000000 		.word	.LANCHOR1
 481 0088 00000000 		.word	.LANCHOR8
 482 008c 00000000 		.word	.LANCHOR9
 483 0090 CDCC4C3D 		.word	1028443341
 484 0094 00000000 		.word	0
 485 0098 CDCCCCCC 		.word	-858993459
ARM GAS  /tmp/ccVtSobE.s 			page 24


 486              		.cfi_endproc
 487              	.LFE4227:
 489              		.section	.text._Z10UpdateLedsv,"ax",%progbits
 490              		.align	1
 491              		.p2align 2,,3
 492              		.global	_Z10UpdateLedsv
 493              		.syntax unified
 494              		.thumb
 495              		.thumb_func
 496              		.fpu fpv5-d16
 498              	_Z10UpdateLedsv:
 499              	.LFB4228:
 177:MultiEffect.cpp **** 
 178:MultiEffect.cpp **** void UpdateLeds()
 179:MultiEffect.cpp **** {
 500              		.loc 12 179 1 is_stmt 1 view -0
 501              		.cfi_startproc
 502              		@ args = 0, pretend = 0, frame = 0
 503              		@ frame_needed = 0, uses_anonymous_args = 0
 180:MultiEffect.cpp ****     petal.ClearLeds();
 504              		.loc 12 180 5 view .LVU113
 179:MultiEffect.cpp ****     petal.ClearLeds();
 505              		.loc 12 179 1 is_stmt 0 view .LVU114
 506 0000 70B5     		push	{r4, r5, r6, lr}
 507              		.cfi_def_cfa_offset 16
 508              		.cfi_offset 4, -16
 509              		.cfi_offset 5, -12
 510              		.cfi_offset 6, -8
 511              		.cfi_offset 14, -4
 181:MultiEffect.cpp **** 
 182:MultiEffect.cpp ****     //footswitch leds
 183:MultiEffect.cpp ****     petal.SetFootswitchLed((DaisyPetal::FootswitchLed)0, effectOn[REV]);
 512              		.loc 12 183 70 view .LVU115
 513 0002 4E4C     		ldr	r4, .L31
 180:MultiEffect.cpp **** 
 514              		.loc 12 180 20 view .LVU116
 515 0004 4E48     		ldr	r0, .L31+4
 184:MultiEffect.cpp ****     petal.SetFootswitchLed((DaisyPetal::FootswitchLed)1, effectOn[DEL]);
 185:MultiEffect.cpp ****     petal.SetFootswitchLed((DaisyPetal::FootswitchLed)2, effectOn[CRUSH]);
 186:MultiEffect.cpp ****     petal.SetFootswitchLed((DaisyPetal::FootswitchLed)3, effectOn[WAH]);
 187:MultiEffect.cpp **** 
 188:MultiEffect.cpp **** 
 189:MultiEffect.cpp ****     //ring leds
 190:MultiEffect.cpp ****     int32_t whole;
 191:MultiEffect.cpp ****     float   frac;
 192:MultiEffect.cpp ****     whole = (int32_t)(dryWet[dryWetMode] / .125f);
 516              		.loc 12 192 30 view .LVU117
 517 0006 4F4E     		ldr	r6, .L31+8
 179:MultiEffect.cpp ****     petal.ClearLeds();
 518              		.loc 12 179 1 view .LVU118
 519 0008 2DED028B 		vpush.64	{d8}
 520              		.cfi_def_cfa_offset 24
 521              		.cfi_offset 80, -24
 522              		.cfi_offset 81, -20
 180:MultiEffect.cpp **** 
 523              		.loc 12 180 20 view .LVU119
 524 000c FFF7FEFF 		bl	_ZN5daisy10DaisyPetal9ClearLedsEv
ARM GAS  /tmp/ccVtSobE.s 			page 25


 525              	.LVL16:
 183:MultiEffect.cpp ****     petal.SetFootswitchLed((DaisyPetal::FootswitchLed)1, effectOn[DEL]);
 526              		.loc 12 183 5 is_stmt 1 view .LVU120
 183:MultiEffect.cpp ****     petal.SetFootswitchLed((DaisyPetal::FootswitchLed)1, effectOn[DEL]);
 527              		.loc 12 183 27 is_stmt 0 view .LVU121
 528 0010 E378     		ldrb	r3, [r4, #3]	@ zero_extendqisi2
 529 0012 0021     		movs	r1, #0
 530 0014 4A48     		ldr	r0, .L31+4
 531 0016 00EE103A 		vmov	s0, r3	@ int
 532 001a B8EE400A 		vcvt.f32.u32	s0, s0
 533 001e FFF7FEFF 		bl	_ZN5daisy10DaisyPetal16SetFootswitchLedENS0_13FootswitchLedEf
 534              	.LVL17:
 184:MultiEffect.cpp ****     petal.SetFootswitchLed((DaisyPetal::FootswitchLed)1, effectOn[DEL]);
 535              		.loc 12 184 5 is_stmt 1 view .LVU122
 184:MultiEffect.cpp ****     petal.SetFootswitchLed((DaisyPetal::FootswitchLed)1, effectOn[DEL]);
 536              		.loc 12 184 27 is_stmt 0 view .LVU123
 537 0022 A378     		ldrb	r3, [r4, #2]	@ zero_extendqisi2
 538 0024 0121     		movs	r1, #1
 539 0026 4648     		ldr	r0, .L31+4
 540 0028 00EE103A 		vmov	s0, r3	@ int
 541 002c B8EE400A 		vcvt.f32.u32	s0, s0
 542 0030 FFF7FEFF 		bl	_ZN5daisy10DaisyPetal16SetFootswitchLedENS0_13FootswitchLedEf
 543              	.LVL18:
 185:MultiEffect.cpp ****     petal.SetFootswitchLed((DaisyPetal::FootswitchLed)3, effectOn[WAH]);
 544              		.loc 12 185 5 is_stmt 1 view .LVU124
 185:MultiEffect.cpp ****     petal.SetFootswitchLed((DaisyPetal::FootswitchLed)3, effectOn[WAH]);
 545              		.loc 12 185 27 is_stmt 0 view .LVU125
 546 0034 2378     		ldrb	r3, [r4]	@ zero_extendqisi2
 547 0036 0221     		movs	r1, #2
 548 0038 4148     		ldr	r0, .L31+4
 549 003a 00EE103A 		vmov	s0, r3	@ int
 550 003e B8EE400A 		vcvt.f32.u32	s0, s0
 551 0042 FFF7FEFF 		bl	_ZN5daisy10DaisyPetal16SetFootswitchLedENS0_13FootswitchLedEf
 552              	.LVL19:
 186:MultiEffect.cpp **** 
 553              		.loc 12 186 5 is_stmt 1 view .LVU126
 186:MultiEffect.cpp **** 
 554              		.loc 12 186 27 is_stmt 0 view .LVU127
 555 0046 6378     		ldrb	r3, [r4, #1]	@ zero_extendqisi2
 556 0048 0321     		movs	r1, #3
 557 004a 3D48     		ldr	r0, .L31+4
 558 004c 00EE103A 		vmov	s0, r3	@ int
 559 0050 B8EE400A 		vcvt.f32.u32	s0, s0
 560 0054 FFF7FEFF 		bl	_ZN5daisy10DaisyPetal16SetFootswitchLedENS0_13FootswitchLedEf
 561              	.LVL20:
 190:MultiEffect.cpp ****     float   frac;
 562              		.loc 12 190 5 is_stmt 1 view .LVU128
 191:MultiEffect.cpp ****     whole = (int32_t)(dryWet[dryWetMode] / .125f);
 563              		.loc 12 191 5 view .LVU129
 564              		.loc 12 192 5 view .LVU130
 565              		.loc 12 192 30 is_stmt 0 view .LVU131
 566 0058 3378     		ldrb	r3, [r6]	@ zero_extendqisi2
 567              		.loc 12 192 40 view .LVU132
 568 005a 3B4A     		ldr	r2, .L31+12
 569              		.loc 12 192 42 view .LVU133
 570 005c B2EE001A 		vmov.f32	s2, #8.0e+0
 571              		.loc 12 192 40 view .LVU134
ARM GAS  /tmp/ccVtSobE.s 			page 26


 572 0060 02EB8302 		add	r2, r2, r3, lsl #2
 573              		.loc 12 192 42 view .LVU135
 574 0064 92ED008A 		vldr.32	s16, [r2]
 575 0068 28EE018A 		vmul.f32	s16, s16, s2
 576              		.loc 12 192 11 view .LVU136
 577 006c FDEEC87A 		vcvt.s32.f32	s15, s16
 578 0070 17EE905A 		vmov	r5, s15	@ int
 579              	.LVL21:
 193:MultiEffect.cpp ****     frac  = dryWet[dryWetMode] / .125f - whole;
 580              		.loc 12 193 5 is_stmt 1 view .LVU137
 194:MultiEffect.cpp **** 
 195:MultiEffect.cpp ****     // Set full bright
 196:MultiEffect.cpp ****     for(int i = 0; i < whole; i++)
 581              		.loc 12 196 5 view .LVU138
 582              	.LBB354:
 583              		.loc 12 196 22 view .LVU139
 584 0074 002D     		cmp	r5, #0
 585 0076 2ADD     		ble	.L22
 586              		.loc 12 196 13 is_stmt 0 view .LVU140
 587 0078 0024     		movs	r4, #0
 588 007a 00E0     		b	.L24
 589              	.LVL22:
 590              	.L29:
 591              		.loc 12 196 13 view .LVU141
 592 007c 3378     		ldrb	r3, [r6]	@ zero_extendqisi2
 593              	.LVL23:
 594              	.L24:
 197:MultiEffect.cpp ****     {
 198:MultiEffect.cpp ****         petal.SetRingLed(
 595              		.loc 12 198 9 is_stmt 1 view .LVU142
 199:MultiEffect.cpp ****             static_cast<DaisyPetal::RingLed>(i),
 200:MultiEffect.cpp ****             (dryWetMode == CRUSH || dryWetMode == REV || dryWetMode == ALL)
 201:MultiEffect.cpp ****                 * 1.f,                                      //red
 202:MultiEffect.cpp ****             (dryWetMode == WAH || dryWetMode == ALL) * 1.f, //green
 596              		.loc 12 202 32 is_stmt 0 view .LVU143
 597 007e 042B     		cmp	r3, #4
 598 0080 18BF     		it	ne
 599 0082 012B     		cmpne	r3, #1
 200:MultiEffect.cpp ****                 * 1.f,                                      //red
 600              		.loc 12 200 34 view .LVU144
 601 0084 A3F10302 		sub	r2, r3, #3
 198:MultiEffect.cpp ****             static_cast<DaisyPetal::RingLed>(i),
 602              		.loc 12 198 25 view .LVU145
 603 0088 A3F10201 		sub	r1, r3, #2
 604 008c B7EE001A 		vmov.f32	s2, #1.0e+0
 605              		.loc 12 202 32 view .LVU146
 606 0090 0CBF     		ite	eq
 607 0092 0120     		moveq	r0, #1
 608 0094 0020     		movne	r0, #0
 200:MultiEffect.cpp ****                 * 1.f,                                      //red
 609              		.loc 12 200 55 view .LVU147
 610 0096 002B     		cmp	r3, #0
 611 0098 18BF     		it	ne
 612 009a 012A     		cmpne	r2, #1
 198:MultiEffect.cpp ****             static_cast<DaisyPetal::RingLed>(i),
 613              		.loc 12 198 25 view .LVU148
 614 009c DFED2B7A 		vldr.32	s15, .L31+16
ARM GAS  /tmp/ccVtSobE.s 			page 27


 615              		.loc 12 202 32 view .LVU149
 616 00a0 00EE900A 		vmov	s1, r0	@ int
 198:MultiEffect.cpp ****             static_cast<DaisyPetal::RingLed>(i),
 617              		.loc 12 198 25 view .LVU150
 618 00a4 2648     		ldr	r0, .L31+4
 200:MultiEffect.cpp ****                 * 1.f,                                      //red
 619              		.loc 12 200 55 view .LVU151
 620 00a6 94BF     		ite	ls
 621 00a8 0123     		movls	r3, #1
 622 00aa 0023     		movhi	r3, #0
 198:MultiEffect.cpp ****             static_cast<DaisyPetal::RingLed>(i),
 623              		.loc 12 198 25 view .LVU152
 624 00ac 0229     		cmp	r1, #2
 625 00ae E1B2     		uxtb	r1, r4
 200:MultiEffect.cpp ****                 * 1.f,                                      //red
 626              		.loc 12 200 55 view .LVU153
 627 00b0 00EE103A 		vmov	s0, r3	@ int
 196:MultiEffect.cpp ****     {
 628              		.loc 12 196 5 view .LVU154
 629 00b4 04F10104 		add	r4, r4, #1
 630              	.LVL24:
 198:MultiEffect.cpp ****             static_cast<DaisyPetal::RingLed>(i),
 631              		.loc 12 198 25 view .LVU155
 632 00b8 88BF     		it	hi
 633 00ba B0EE671A 		vmovhi.f32	s2, s15
 634 00be B8EEC00A 		vcvt.f32.s32	s0, s0
 635 00c2 F8EEE00A 		vcvt.f32.s32	s1, s1
 636 00c6 FFF7FEFF 		bl	_ZN5daisy10DaisyPetal10SetRingLedENS0_7RingLedEfff
 637              	.LVL25:
 196:MultiEffect.cpp ****     {
 638              		.loc 12 196 5 is_stmt 1 view .LVU156
 196:MultiEffect.cpp ****     {
 639              		.loc 12 196 22 view .LVU157
 640 00ca A542     		cmp	r5, r4
 641 00cc D6D1     		bne	.L29
 642              	.LVL26:
 643              	.L22:
 196:MultiEffect.cpp ****     {
 644              		.loc 12 196 22 is_stmt 0 view .LVU158
 645              	.LBE354:
 203:MultiEffect.cpp ****             (dryWetMode == DEL || dryWetMode == REV || dryWetMode == ALL)
 204:MultiEffect.cpp ****                 * 1.f); //blue
 205:MultiEffect.cpp ****     }
 206:MultiEffect.cpp **** 
 207:MultiEffect.cpp ****     // Set Frac
 208:MultiEffect.cpp ****     if(whole < 7 && whole > 0)
 646              		.loc 12 208 5 is_stmt 1 view .LVU159
 647              		.loc 12 208 18 is_stmt 0 view .LVU160
 648 00ce 691E     		subs	r1, r5, #1
 649              		.loc 12 208 5 view .LVU161
 650 00d0 0529     		cmp	r1, #5
 651 00d2 27D8     		bhi	.L25
 209:MultiEffect.cpp ****     {
 210:MultiEffect.cpp ****         petal.SetRingLed(
 211:MultiEffect.cpp ****             static_cast<DaisyPetal::RingLed>(whole - 1),
 212:MultiEffect.cpp ****             (dryWetMode == CRUSH || dryWetMode == REV || dryWetMode == ALL)
 652              		.loc 12 212 34 view .LVU162
ARM GAS  /tmp/ccVtSobE.s 			page 28


 653 00d4 3278     		ldrb	r2, [r6]	@ zero_extendqisi2
 193:MultiEffect.cpp **** 
 654              		.loc 12 193 40 view .LVU163
 655 00d6 07EE905A 		vmov	s15, r5	@ int
 211:MultiEffect.cpp ****             (dryWetMode == CRUSH || dryWetMode == REV || dryWetMode == ALL)
 656              		.loc 12 211 52 view .LVU164
 657 00da C9B2     		uxtb	r1, r1
 658              		.loc 12 212 34 view .LVU165
 659 00dc D31E     		subs	r3, r2, #3
 213:MultiEffect.cpp ****                 * frac,                                      //red
 214:MultiEffect.cpp ****             (dryWetMode == WAH || dryWetMode == ALL) * frac, //green
 660              		.loc 12 214 32 view .LVU166
 661 00de 042A     		cmp	r2, #4
 662 00e0 18BF     		it	ne
 663 00e2 012A     		cmpne	r2, #1
 193:MultiEffect.cpp **** 
 664              		.loc 12 193 40 view .LVU167
 665 00e4 B8EEE71A 		vcvt.f32.s32	s2, s15
 666              		.loc 12 214 32 view .LVU168
 667 00e8 0CBF     		ite	eq
 668 00ea 0120     		moveq	r0, #1
 669 00ec 0020     		movne	r0, #0
 212:MultiEffect.cpp ****                 * frac,                                      //red
 670              		.loc 12 212 55 view .LVU169
 671 00ee 002A     		cmp	r2, #0
 672 00f0 18BF     		it	ne
 673 00f2 012B     		cmpne	r3, #1
 674              		.loc 12 214 32 view .LVU170
 675 00f4 00EE900A 		vmov	s1, r0	@ int
 210:MultiEffect.cpp ****             static_cast<DaisyPetal::RingLed>(whole - 1),
 676              		.loc 12 210 25 view .LVU171
 677 00f8 A2F10200 		sub	r0, r2, #2
 212:MultiEffect.cpp ****                 * frac,                                      //red
 678              		.loc 12 212 55 view .LVU172
 679 00fc 94BF     		ite	ls
 680 00fe 0123     		movls	r3, #1
 681 0100 0023     		movhi	r3, #0
 193:MultiEffect.cpp **** 
 682              		.loc 12 193 11 view .LVU173
 683 0102 38EE411A 		vsub.f32	s2, s16, s2
 210:MultiEffect.cpp ****             static_cast<DaisyPetal::RingLed>(whole - 1),
 684              		.loc 12 210 9 is_stmt 1 view .LVU174
 210:MultiEffect.cpp ****             static_cast<DaisyPetal::RingLed>(whole - 1),
 685              		.loc 12 210 25 is_stmt 0 view .LVU175
 686 0106 0228     		cmp	r0, #2
 212:MultiEffect.cpp ****                 * frac,                                      //red
 687              		.loc 12 212 55 view .LVU176
 688 0108 00EE103A 		vmov	s0, r3	@ int
 210:MultiEffect.cpp ****             static_cast<DaisyPetal::RingLed>(whole - 1),
 689              		.loc 12 210 25 view .LVU177
 690 010c F8EEE00A 		vcvt.f32.s32	s1, s1
 691 0110 B8EEC00A 		vcvt.f32.s32	s0, s0
 692 0114 60EE810A 		vmul.f32	s1, s1, s2
 693 0118 20EE010A 		vmul.f32	s0, s0, s2
 694 011c 09D8     		bhi	.L30
 695              	.L26:
 210:MultiEffect.cpp ****             static_cast<DaisyPetal::RingLed>(whole - 1),
ARM GAS  /tmp/ccVtSobE.s 			page 29


 696              		.loc 12 210 25 discriminator 4 view .LVU178
 697 011e 0848     		ldr	r0, .L31+4
 698 0120 FFF7FEFF 		bl	_ZN5daisy10DaisyPetal10SetRingLedENS0_7RingLedEfff
 699              	.LVL27:
 700              	.L25:
 215:MultiEffect.cpp ****             (dryWetMode == DEL || dryWetMode == REV || dryWetMode == ALL)
 216:MultiEffect.cpp ****                 * frac); //blue
 217:MultiEffect.cpp ****     }
 218:MultiEffect.cpp **** 
 219:MultiEffect.cpp ****     petal.UpdateLeds();
 701              		.loc 12 219 5 is_stmt 1 view .LVU179
 702              		.loc 12 219 21 is_stmt 0 view .LVU180
 703 0124 0648     		ldr	r0, .L31+4
 220:MultiEffect.cpp **** }
 704              		.loc 12 220 1 view .LVU181
 705 0126 BDEC028B 		vldm	sp!, {d8}
 706              		.cfi_remember_state
 707              		.cfi_restore 80
 708              		.cfi_restore 81
 709              		.cfi_def_cfa_offset 16
 710              	.LVL28:
 711              		.loc 12 220 1 view .LVU182
 712 012a BDE87040 		pop	{r4, r5, r6, lr}
 713              		.cfi_restore 14
 714              		.cfi_restore 6
 715              		.cfi_restore 5
 716              		.cfi_restore 4
 717              		.cfi_def_cfa_offset 0
 718              	.LVL29:
 219:MultiEffect.cpp **** }
 719              		.loc 12 219 21 view .LVU183
 720 012e FFF7FEBF 		b	_ZN5daisy10DaisyPetal10UpdateLedsEv
 721              	.LVL30:
 722              	.L30:
 723              		.cfi_restore_state
 219:MultiEffect.cpp **** }
 724              		.loc 12 219 21 view .LVU184
 725 0132 DFED067A 		vldr.32	s15, .L31+16
 726 0136 21EE271A 		vmul.f32	s2, s2, s15
 727 013a F0E7     		b	.L26
 728              	.L32:
 729              		.align	2
 730              	.L31:
 731 013c 00000000 		.word	.LANCHOR10
 732 0140 00000000 		.word	.LANCHOR1
 733 0144 00000000 		.word	.LANCHOR8
 734 0148 00000000 		.word	.LANCHOR9
 735 014c 00000000 		.word	0
 736              		.cfi_endproc
 737              	.LFE4228:
 739              		.section	.text.startup.main,"ax",%progbits
 740              		.align	1
 741              		.p2align 2,,3
 742              		.global	main
 743              		.syntax unified
 744              		.thumb
 745              		.thumb_func
ARM GAS  /tmp/ccVtSobE.s 			page 30


 746              		.fpu fpv5-d16
 748              	main:
 749              	.LFB4225:
  98:MultiEffect.cpp ****     // initialize petal hardware and oscillator daisysp module
 750              		.loc 12 98 1 is_stmt 1 view -0
 751              		.cfi_startproc
 752              		@ args = 0, pretend = 0, frame = 32
 753              		@ frame_needed = 0, uses_anonymous_args = 0
 100:MultiEffect.cpp **** 
 754              		.loc 12 100 5 view .LVU186
 103:MultiEffect.cpp ****     sample_rate = petal.AudioSampleRate();
 755              		.loc 12 103 5 view .LVU187
  98:MultiEffect.cpp ****     // initialize petal hardware and oscillator daisysp module
 756              		.loc 12 98 1 is_stmt 0 view .LVU188
 757 0000 2DE9F047 		push	{r4, r5, r6, r7, r8, r9, r10, lr}
 758              		.cfi_def_cfa_offset 32
 759              		.cfi_offset 4, -32
 760              		.cfi_offset 5, -28
 761              		.cfi_offset 6, -24
 762              		.cfi_offset 7, -20
 763              		.cfi_offset 8, -16
 764              		.cfi_offset 9, -12
 765              		.cfi_offset 10, -8
 766              		.cfi_offset 14, -4
 103:MultiEffect.cpp ****     sample_rate = petal.AudioSampleRate();
 767              		.loc 12 103 15 view .LVU189
 768 0004 0021     		movs	r1, #0
 769 0006 5E48     		ldr	r0, .L40+8
  98:MultiEffect.cpp ****     // initialize petal hardware and oscillator daisysp module
 770              		.loc 12 98 1 view .LVU190
 771 0008 2DED028B 		vpush.64	{d8}
 772              		.cfi_def_cfa_offset 40
 773              		.cfi_offset 80, -40
 774              		.cfi_offset 81, -36
 775 000c 88B0     		sub	sp, sp, #32
 776              		.cfi_def_cfa_offset 72
 103:MultiEffect.cpp ****     sample_rate = petal.AudioSampleRate();
 777              		.loc 12 103 15 view .LVU191
 778 000e FFF7FEFF 		bl	_ZN5daisy10DaisyPetal4InitEb
 779              	.LVL31:
 104:MultiEffect.cpp ****     rev.Init(sample_rate);
 780              		.loc 12 104 5 is_stmt 1 view .LVU192
 104:MultiEffect.cpp ****     rev.Init(sample_rate);
 781              		.loc 12 104 40 is_stmt 0 view .LVU193
 782 0012 5B48     		ldr	r0, .L40+8
 783 0014 FFF7FEFF 		bl	_ZN5daisy10DaisyPetal15AudioSampleRateEv
 784              	.LVL32:
 105:MultiEffect.cpp ****     dell.Init();
 785              		.loc 12 105 13 view .LVU194
 786 0018 5A48     		ldr	r0, .L40+12
 104:MultiEffect.cpp ****     rev.Init(sample_rate);
 787              		.loc 12 104 40 view .LVU195
 788 001a B0EE408A 		vmov.f32	s16, s0
 789              	.LVL33:
 105:MultiEffect.cpp ****     dell.Init();
 790              		.loc 12 105 5 is_stmt 1 view .LVU196
 105:MultiEffect.cpp ****     dell.Init();
ARM GAS  /tmp/ccVtSobE.s 			page 31


 791              		.loc 12 105 13 is_stmt 0 view .LVU197
 792 001e FFF7FEFF 		bl	_ZN7daisysp8ReverbSc4InitEf
 793              	.LVL34:
 106:MultiEffect.cpp ****     delr.Init();
 794              		.loc 12 106 5 is_stmt 1 view .LVU198
 795              	.LBB355:
 796              	.LBI355:
  25:../../DaisySP/Source/Utility/delayline.h ****     /** initializes the delay line by clearing the values within, and setting delay to 1 sample.
  26:../../DaisySP/Source/Utility/delayline.h ****     */
  27:../../DaisySP/Source/Utility/delayline.h ****     void Init() { Reset(); }
 797              		.loc 13 27 10 view .LVU199
 798              	.LBB356:
 799              	.LBI356:
  28:../../DaisySP/Source/Utility/delayline.h ****     /** clears buffer, sets write ptr to 0, and delay to 1 sample.
  29:../../DaisySP/Source/Utility/delayline.h ****     */
  30:../../DaisySP/Source/Utility/delayline.h ****     void Reset()
 800              		.loc 13 30 10 view .LVU200
 801              	.LBB357:
 802              	.LBB358:
  31:../../DaisySP/Source/Utility/delayline.h ****     {
  32:../../DaisySP/Source/Utility/delayline.h ****         for(size_t i = 0; i < max_size; i++)
 803              		.loc 13 32 29 view .LVU201
 804 0022 594B     		ldr	r3, .L40+16
 805 0024 5949     		ldr	r1, .L40+20
 806              	.LVL35:
 807              	.L34:
  33:../../DaisySP/Source/Utility/delayline.h ****         {
  34:../../DaisySP/Source/Utility/delayline.h ****             line_[i] = T(0);
 808              		.loc 13 34 13 is_stmt 0 view .LVU202
 809 0026 0022     		movs	r2, #0
 810 0028 43F8042B 		str	r2, [r3], #4	@ float
  32:../../DaisySP/Source/Utility/delayline.h ****         {
 811              		.loc 13 32 9 is_stmt 1 view .LVU203
  32:../../DaisySP/Source/Utility/delayline.h ****         {
 812              		.loc 13 32 29 view .LVU204
 813 002c 9942     		cmp	r1, r3
 814 002e FAD1     		bne	.L34
 815              	.LBE358:
  35:../../DaisySP/Source/Utility/delayline.h ****         }
  36:../../DaisySP/Source/Utility/delayline.h ****         write_ptr_ = 0;
 816              		.loc 13 36 9 is_stmt 0 view .LVU205
 817 0030 574F     		ldr	r7, .L40+24
 818 0032 0020     		movs	r0, #0
  37:../../DaisySP/Source/Utility/delayline.h ****         delay_     = 1;
 819              		.loc 13 37 9 view .LVU206
 820 0034 0122     		movs	r2, #1
 821 0036 574B     		ldr	r3, .L40+28
 822 0038 5749     		ldr	r1, .L40+32
 823 003a C7E90102 		strd	r0, r2, [r7, #4]
 824              	.LVL36:
 825              		.loc 13 37 9 view .LVU207
 826              	.LBE357:
 827              	.LBE356:
 828              	.LBE355:
 829              	.LBB359:
 830              	.LBB360:
 831              	.LBB361:
ARM GAS  /tmp/ccVtSobE.s 			page 32


 832              	.LBB362:
  32:../../DaisySP/Source/Utility/delayline.h ****         {
 833              		.loc 13 32 29 is_stmt 1 view .LVU208
 834              	.L35:
  34:../../DaisySP/Source/Utility/delayline.h ****         }
 835              		.loc 13 34 13 is_stmt 0 view .LVU209
 836 003e 0022     		movs	r2, #0
 837 0040 43F8042B 		str	r2, [r3], #4	@ float
  32:../../DaisySP/Source/Utility/delayline.h ****         {
 838              		.loc 13 32 9 is_stmt 1 view .LVU210
  32:../../DaisySP/Source/Utility/delayline.h ****         {
 839              		.loc 13 32 29 view .LVU211
 840 0044 8B42     		cmp	r3, r1
 841 0046 FAD1     		bne	.L35
 842              	.LBE362:
  36:../../DaisySP/Source/Utility/delayline.h ****         delay_     = 1;
 843              		.loc 13 36 9 is_stmt 0 view .LVU212
 844 0048 DFF89891 		ldr	r9, .L40+108
 845 004c 4FF0000A 		mov	r10, #0
 846              		.loc 13 37 9 view .LVU213
 847 0050 0123     		movs	r3, #1
 848              	.LBE361:
 849              	.LBE360:
 850              	.LBE359:
 110:MultiEffect.cpp ****     deltime.Init(
 851              		.loc 12 110 36 view .LVU214
 852 0052 524D     		ldr	r5, .L40+36
 853 0054 6C46     		mov	r4, sp
 110:MultiEffect.cpp ****     deltime.Init(
 854              		.loc 12 110 23 view .LVU215
 855 0056 DFED520A 		vldr.32	s1, .L40+40
 856 005a 9FED520A 		vldr.32	s0, .L40+44
 124:MultiEffect.cpp ****     wah[1].Init(sample_rate);
 857              		.loc 12 124 16 view .LVU216
 858 005e DFF88881 		ldr	r8, .L40+112
 859              	.LBB365:
 860              	.LBB364:
 861              	.LBB363:
  36:../../DaisySP/Source/Utility/delayline.h ****         delay_     = 1;
 862              		.loc 13 36 9 view .LVU217
 863 0062 C9E901A3 		strd	r10, r3, [r9, #4]
 864              	.LBE363:
 865              	.LBE364:
 866              	.LBE365:
 110:MultiEffect.cpp ****     deltime.Init(
 867              		.loc 12 110 36 view .LVU218
 868 0066 0FCD     		ldmia	r5!, {r0, r1, r2, r3}
 869 0068 0FC4     		stmia	r4!, {r0, r1, r2, r3}
 870 006a 95E80F00 		ldm	r5, {r0, r1, r2, r3}
 871 006e 84E80F00 		stm	r4, {r0, r1, r2, r3}
 110:MultiEffect.cpp ****     deltime.Init(
 872              		.loc 12 110 23 view .LVU219
 873 0072 6946     		mov	r1, sp
 874 0074 0222     		movs	r2, #2
 875 0076 4C48     		ldr	r0, .L40+48
 112:MultiEffect.cpp ****     crushrate.Init(petal.knob[4], 1, 50, crushrate.LOGARITHMIC);
 876              		.loc 12 112 21 view .LVU220
ARM GAS  /tmp/ccVtSobE.s 			page 33


 877 0078 05F13006 		add	r6, r5, #48
 110:MultiEffect.cpp ****     deltime.Init(
 878              		.loc 12 110 23 view .LVU221
 879 007c FFF7FEFF 		bl	_ZN5daisy9Parameter4InitENS_13AnalogControlEffNS0_5CurveE
 880              	.LVL37:
 881              	.LBB366:
 882              	.LBI366:
 883              		.loc 3 23 5 is_stmt 1 view .LVU222
 884              		.loc 3 23 5 is_stmt 0 view .LVU223
 885              	.LBE366:
 111:MultiEffect.cpp ****         petal.knob[2], sample_rate * .05, MAX_DELAY, deltime.LOGARITHMIC);
 886              		.loc 12 111 5 is_stmt 1 view .LVU224
 112:MultiEffect.cpp ****     crushrate.Init(petal.knob[4], 1, 50, crushrate.LOGARITHMIC);
 887              		.loc 12 112 24 is_stmt 0 view .LVU225
 888 0080 B7EEC87A 		vcvt.f64.f32	d7, s16
 112:MultiEffect.cpp ****     crushrate.Init(petal.knob[4], 1, 50, crushrate.LOGARITHMIC);
 889              		.loc 12 112 21 view .LVU226
 890 0084 EC46     		mov	ip, sp
 111:MultiEffect.cpp ****         petal.knob[2], sample_rate * .05, MAX_DELAY, deltime.LOGARITHMIC);
 891              		.loc 12 111 17 view .LVU227
 892 0086 DFED490A 		vldr.32	s1, .L40+52
 112:MultiEffect.cpp ****     crushrate.Init(petal.knob[4], 1, 50, crushrate.LOGARITHMIC);
 893              		.loc 12 112 36 view .LVU228
 894 008a 9FED3B6B 		vldr.64	d6, .L40
 112:MultiEffect.cpp ****     crushrate.Init(petal.knob[4], 1, 50, crushrate.LOGARITHMIC);
 895              		.loc 12 112 21 view .LVU229
 896 008e 0FCE     		ldmia	r6!, {r0, r1, r2, r3}
 112:MultiEffect.cpp ****     crushrate.Init(petal.knob[4], 1, 50, crushrate.LOGARITHMIC);
 897              		.loc 12 112 36 view .LVU230
 898 0090 27EE067B 		vmul.f64	d7, d7, d6
 112:MultiEffect.cpp ****     crushrate.Init(petal.knob[4], 1, 50, crushrate.LOGARITHMIC);
 899              		.loc 12 112 21 view .LVU231
 900 0094 ACE80F00 		stmia	ip!, {r0, r1, r2, r3}
 901 0098 96E80F00 		ldm	r6, {r0, r1, r2, r3}
 113:MultiEffect.cpp **** 
 902              		.loc 12 113 32 view .LVU232
 903 009c 05F17006 		add	r6, r5, #112
 111:MultiEffect.cpp ****         petal.knob[2], sample_rate * .05, MAX_DELAY, deltime.LOGARITHMIC);
 904              		.loc 12 111 17 view .LVU233
 905 00a0 B7EEC70B 		vcvt.f32.f64	s0, d7
 112:MultiEffect.cpp ****     crushrate.Init(petal.knob[4], 1, 50, crushrate.LOGARITHMIC);
 906              		.loc 12 112 21 view .LVU234
 907 00a4 84E80F00 		stm	r4, {r0, r1, r2, r3}
 111:MultiEffect.cpp ****         petal.knob[2], sample_rate * .05, MAX_DELAY, deltime.LOGARITHMIC);
 908              		.loc 12 111 17 view .LVU235
 909 00a8 6946     		mov	r1, sp
 910 00aa 0222     		movs	r2, #2
 911 00ac 4048     		ldr	r0, .L40+56
 912 00ae FFF7FEFF 		bl	_ZN5daisy9Parameter4InitENS_13AnalogControlEffNS0_5CurveE
 913              	.LVL38:
 914              	.LBB367:
 915              	.LBI367:
 916              		.loc 3 23 5 is_stmt 1 view .LVU236
 917              		.loc 3 23 5 is_stmt 0 view .LVU237
 918              	.LBE367:
 113:MultiEffect.cpp **** 
 919              		.loc 12 113 5 is_stmt 1 view .LVU238
ARM GAS  /tmp/ccVtSobE.s 			page 34


 113:MultiEffect.cpp **** 
 920              		.loc 12 113 32 is_stmt 0 view .LVU239
 921 00b2 EC46     		mov	ip, sp
 113:MultiEffect.cpp **** 
 922              		.loc 12 113 19 view .LVU240
 923 00b4 DFED3F0A 		vldr.32	s1, .L40+60
 924 00b8 B7EE000A 		vmov.f32	s0, #1.0e+0
 113:MultiEffect.cpp **** 
 925              		.loc 12 113 32 view .LVU241
 926 00bc 0FCE     		ldmia	r6!, {r0, r1, r2, r3}
 927 00be ACE80F00 		stmia	ip!, {r0, r1, r2, r3}
 928 00c2 96E80F00 		ldm	r6, {r0, r1, r2, r3}
 929 00c6 84E80F00 		stm	r4, {r0, r1, r2, r3}
 113:MultiEffect.cpp **** 
 930              		.loc 12 113 19 view .LVU242
 931 00ca 6946     		mov	r1, sp
 932 00cc 0222     		movs	r2, #2
 933 00ce 3A48     		ldr	r0, .L40+64
 934 00d0 FFF7FEFF 		bl	_ZN5daisy9Parameter4InitENS_13AnalogControlEffNS0_5CurveE
 935              	.LVL39:
 936              	.LBB368:
 937              	.LBI368:
 938              		.loc 3 23 5 is_stmt 1 view .LVU243
 939              		.loc 3 23 5 is_stmt 0 view .LVU244
 940              	.LBE368:
 116:MultiEffect.cpp ****     rev.SetFeedback(0.85f);
 941              		.loc 12 116 5 is_stmt 1 view .LVU245
 942              	.LBB369:
 943              	.LBI369:
 944              		.loc 1 58 17 view .LVU246
 945              	.LBB370:
 946              		.loc 1 58 48 view .LVU247
 947              	.LBE370:
 948              	.LBE369:
 120:MultiEffect.cpp ****     dell.SetDelay(currentDelay);
 949              		.loc 12 120 46 is_stmt 0 view .LVU248
 950 00d4 F6EE087A 		vmov.f32	s15, #7.5e-1
 120:MultiEffect.cpp ****     dell.SetDelay(currentDelay);
 951              		.loc 12 120 18 view .LVU249
 952 00d8 384E     		ldr	r6, .L40+68
 124:MultiEffect.cpp ****     wah[1].Init(sample_rate);
 953              		.loc 12 124 16 view .LVU250
 954 00da B0EE480A 		vmov.f32	s0, s16
 955              	.LBB374:
 956              	.LBB375:
  38:../../DaisySP/Source/Utility/delayline.h ****     }
  39:../../DaisySP/Source/Utility/delayline.h **** 
  40:../../DaisySP/Source/Utility/delayline.h ****     /** sets the delay time in samples
  41:../../DaisySP/Source/Utility/delayline.h ****         If a float is passed in, a fractional component will be calculated for interpolating the de
  42:../../DaisySP/Source/Utility/delayline.h ****     */
  43:../../DaisySP/Source/Utility/delayline.h ****     inline void SetDelay(size_t delay)
  44:../../DaisySP/Source/Utility/delayline.h ****     {
  45:../../DaisySP/Source/Utility/delayline.h ****         frac_  = 0.0f;
  46:../../DaisySP/Source/Utility/delayline.h ****         delay_ = delay < max_size ? delay : max_size - 1;
  47:../../DaisySP/Source/Utility/delayline.h ****     }
  48:../../DaisySP/Source/Utility/delayline.h **** 
  49:../../DaisySP/Source/Utility/delayline.h ****     /** sets the delay time in samples
ARM GAS  /tmp/ccVtSobE.s 			page 35


  50:../../DaisySP/Source/Utility/delayline.h ****         If a float is passed in, a fractional component will be calculated for interpolating the de
  51:../../DaisySP/Source/Utility/delayline.h ****     */
  52:../../DaisySP/Source/Utility/delayline.h ****     inline void SetDelay(float delay)
  53:../../DaisySP/Source/Utility/delayline.h ****     {
  54:../../DaisySP/Source/Utility/delayline.h ****         int32_t int_delay = static_cast<int32_t>(delay);
  55:../../DaisySP/Source/Utility/delayline.h ****         frac_             = delay - static_cast<float>(int_delay);
  56:../../DaisySP/Source/Utility/delayline.h ****         delay_ = static_cast<size_t>(int_delay) < max_size ? int_delay
 957              		.loc 13 56 9 view .LVU251
 958 00de 384B     		ldr	r3, .L40+72
 959              	.LBE375:
 960              	.LBE374:
 124:MultiEffect.cpp ****     wah[1].Init(sample_rate);
 961              		.loc 12 124 16 view .LVU252
 962 00e0 4046     		mov	r0, r8
 120:MultiEffect.cpp ****     dell.SetDelay(currentDelay);
 963              		.loc 12 120 46 view .LVU253
 964 00e2 68EE277A 		vmul.f32	s15, s16, s15
 120:MultiEffect.cpp ****     dell.SetDelay(currentDelay);
 965              		.loc 12 120 32 view .LVU254
 966 00e6 DFF804C1 		ldr	ip, .L40+116
 967              	.LBB382:
 968              	.LBB371:
 969              		.loc 1 58 56 view .LVU255
 970 00ea 264A     		ldr	r2, .L40+12
 971              	.LBE371:
 972              	.LBE382:
 973              	.LBB383:
 974              	.LBB384:
  54:../../DaisySP/Source/Effects/reverbsc.h ****     /** controls the internal dampening filter's cutoff frequency.
 975              		.loc 1 54 58 view .LVU256
 976 00ec 3549     		ldr	r1, .L40+76
 977              	.LBE384:
 978              	.LBE383:
 979              	.LBB387:
 980              	.LBB376:
  54:../../DaisySP/Source/Utility/delayline.h ****         frac_             = delay - static_cast<float>(int_delay);
 981              		.loc 13 54 17 view .LVU257
 982 00ee BDEEE77A 		vcvt.s32.f32	s14, s15
 983              	.LBE376:
 984              	.LBE387:
 120:MultiEffect.cpp ****     dell.SetDelay(currentDelay);
 985              		.loc 12 120 18 view .LVU258
 986 00f2 C6ED007A 		vstr.32	s15, [r6]
 120:MultiEffect.cpp ****     dell.SetDelay(currentDelay);
 987              		.loc 12 120 32 view .LVU259
 988 00f6 CCED007A 		vstr.32	s15, [ip]
 989              	.LBB388:
 990              	.LBB372:
 991              		.loc 1 58 56 view .LVU260
 992 00fa 334C     		ldr	r4, .L40+80
 993              	.LBE372:
 994              	.LBE388:
 995              	.LBB389:
 996              	.LBB377:
 997              		.loc 13 56 9 view .LVU261
 998 00fc 17EE106A 		vmov	r6, s14	@ int
  55:../../DaisySP/Source/Utility/delayline.h ****         delay_ = static_cast<size_t>(int_delay) < max_size ? int_delay
ARM GAS  /tmp/ccVtSobE.s 			page 36


 999              		.loc 13 55 35 view .LVU262
 1000 0100 F8EEC76A 		vcvt.f32.s32	s13, s14
 1001              	.LBE377:
 1002              	.LBE389:
 1003              	.LBB390:
 1004              	.LBB373:
 1005              		.loc 1 58 56 view .LVU263
 1006 0104 5460     		str	r4, [r2, #4]	@ float
 1007              	.LBE373:
 1008              	.LBE390:
 117:MultiEffect.cpp **** 
 1009              		.loc 12 117 5 is_stmt 1 view .LVU264
 1010              	.LBB391:
 1011              	.LBI383:
  54:../../DaisySP/Source/Effects/reverbsc.h ****     /** controls the internal dampening filter's cutoff frequency.
 1012              		.loc 1 54 17 view .LVU265
 1013              	.LVL40:
 1014              	.LBB385:
  54:../../DaisySP/Source/Effects/reverbsc.h ****     /** controls the internal dampening filter's cutoff frequency.
 1015              		.loc 1 54 48 view .LVU266
 1016              	.LBE385:
 1017              	.LBE391:
 1018              	.LBB392:
 1019              	.LBB378:
 1020              		.loc 13 56 9 is_stmt 0 view .LVU267
 1021 0106 9E42     		cmp	r6, r3
 1022              	.LBE378:
 1023              	.LBE392:
 1024              	.LBB393:
 1025              	.LBB386:
  54:../../DaisySP/Source/Effects/reverbsc.h ****     /** controls the internal dampening filter's cutoff frequency.
 1026              		.loc 1 54 58 view .LVU268
 1027 0108 1160     		str	r1, [r2]	@ float
 1028              	.LBE386:
 1029              	.LBE393:
 1030              	.LBB394:
 1031              	.LBB379:
  55:../../DaisySP/Source/Utility/delayline.h ****         delay_ = static_cast<size_t>(int_delay) < max_size ? int_delay
 1032              		.loc 13 55 35 view .LVU269
 1033 010a 77EEE67A 		vsub.f32	s15, s15, s13
 1034              	.LBE379:
 1035              	.LBE394:
 136:MultiEffect.cpp **** 
 1036              		.loc 12 136 16 view .LVU270
 1037 010e 2F4C     		ldr	r4, .L40+84
 1038              	.LBB395:
 1039              	.LBB380:
 1040              		.loc 13 56 9 view .LVU271
 1041 0110 28BF     		it	cs
 1042 0112 1E46     		movcs	r6, r3
  55:../../DaisySP/Source/Utility/delayline.h ****         delay_ = static_cast<size_t>(int_delay) < max_size ? int_delay
 1043              		.loc 13 55 9 view .LVU272
 1044 0114 C7ED007A 		vstr.32	s15, [r7]
 1045              	.LBE380:
 1046              	.LBE395:
 1047              	.LBB396:
 1048              	.LBB397:
ARM GAS  /tmp/ccVtSobE.s 			page 37


 1049 0118 C9ED007A 		vstr.32	s15, [r9]
 1050              	.LBE397:
 1051              	.LBE396:
 1052              	.LBB399:
 1053              	.LBB381:
 1054              		.loc 13 56 9 view .LVU273
 1055 011c BE60     		str	r6, [r7, #8]
 1056              	.LBE381:
 1057              	.LBE399:
 120:MultiEffect.cpp ****     dell.SetDelay(currentDelay);
 1058              		.loc 12 120 5 is_stmt 1 view .LVU274
 121:MultiEffect.cpp ****     delr.SetDelay(currentDelay);
 1059              		.loc 12 121 5 view .LVU275
 1060              	.LVL41:
 1061              	.LBB400:
 1062              	.LBI374:
  52:../../DaisySP/Source/Utility/delayline.h ****     {
 1063              		.loc 13 52 17 view .LVU276
  52:../../DaisySP/Source/Utility/delayline.h ****     {
 1064              		.loc 13 52 17 is_stmt 0 view .LVU277
 1065              	.LBE400:
 122:MultiEffect.cpp **** 
 1066              		.loc 12 122 5 is_stmt 1 view .LVU278
 1067              	.LBB401:
 1068              	.LBI396:
  52:../../DaisySP/Source/Utility/delayline.h ****     {
 1069              		.loc 13 52 17 view .LVU279
  52:../../DaisySP/Source/Utility/delayline.h ****     {
 1070              		.loc 13 52 17 is_stmt 0 view .LVU280
 1071              	.LBE401:
 124:MultiEffect.cpp ****     wah[1].Init(sample_rate);
 1072              		.loc 12 124 5 is_stmt 1 view .LVU281
 1073              	.LBB402:
 1074              	.LBB398:
 1075              		.loc 13 56 9 is_stmt 0 view .LVU282
 1076 011e C9F80860 		str	r6, [r9, #8]
 1077              	.LBE398:
 1078              	.LBE402:
 124:MultiEffect.cpp ****     wah[1].Init(sample_rate);
 1079              		.loc 12 124 16 view .LVU283
 1080 0122 FFF7FEFF 		bl	_ZN7daisysp7Autowah4InitEf
 1081              	.LVL42:
 125:MultiEffect.cpp ****     wah[0].SetLevel(.8f);
 1082              		.loc 12 125 5 is_stmt 1 view .LVU284
 129:MultiEffect.cpp **** 
 1083              		.loc 12 129 17 is_stmt 0 view .LVU285
 1084 0126 2A4E     		ldr	r6, .L40+88
 125:MultiEffect.cpp ****     wah[0].SetLevel(.8f);
 1085              		.loc 12 125 16 view .LVU286
 1086 0128 B0EE480A 		vmov.f32	s0, s16
 1087 012c 08F15000 		add	r0, r8, #80
 1088 0130 FFF7FEFF 		bl	_ZN7daisysp7Autowah4InitEf
 1089              	.LVL43:
 126:MultiEffect.cpp ****     wah[1].SetLevel(.8f);
 1090              		.loc 12 126 5 is_stmt 1 view .LVU287
 1091              	.LBB403:
 1092              	.LBI403:
ARM GAS  /tmp/ccVtSobE.s 			page 38


  37:../../DaisySP/Source/Effects/autowah.h ****     /** sets mix amount
  38:../../DaisySP/Source/Effects/autowah.h ****         \param drywet : set effect dry/wet
  39:../../DaisySP/Source/Effects/autowah.h ****     */
  40:../../DaisySP/Source/Effects/autowah.h ****     inline void SetDryWet(float drywet) { wet_dry_ = drywet; }
  41:../../DaisySP/Source/Effects/autowah.h ****     /** sets wah level
  42:../../DaisySP/Source/Effects/autowah.h ****         \param level : set wah level
  43:../../DaisySP/Source/Effects/autowah.h ****     */
  44:../../DaisySP/Source/Effects/autowah.h ****     inline void SetLevel(float level) { level_ = level; }
 1093              		.loc 14 44 17 view .LVU288
 1094              	.LBB404:
 1095              		.loc 14 44 41 view .LVU289
 1096              	.LBE404:
 1097              	.LBE403:
 1098              	.LBB407:
 133:MultiEffect.cpp ****     }
 1099              		.loc 12 133 19 is_stmt 0 view .LVU290
 1100 0134 274B     		ldr	r3, .L40+92
 1101 0136 284A     		ldr	r2, .L40+96
 1102              	.LBE407:
 139:MultiEffect.cpp ****     petal.StartAudio(AudioCallback);
 1103              		.loc 12 139 19 view .LVU291
 1104 0138 A5F16C00 		sub	r0, r5, #108
 1105              	.LBB408:
 1106              	.LBB405:
 1107              		.loc 14 44 48 view .LVU292
 1108 013c 2749     		ldr	r1, .L40+100
 1109              	.LBE405:
 1110              	.LBE408:
 129:MultiEffect.cpp **** 
 1111              		.loc 12 129 17 view .LVU293
 1112 013e C6F800A0 		str	r10, [r6]
 1113              	.LBB409:
 1114              	.LBB406:
 1115              		.loc 14 44 48 view .LVU294
 1116 0142 C8F81410 		str	r1, [r8, #20]	@ float
 1117              	.LVL44:
 1118              		.loc 14 44 48 view .LVU295
 1119              	.LBE406:
 1120              	.LBE409:
 127:MultiEffect.cpp **** 
 1121              		.loc 12 127 5 is_stmt 1 view .LVU296
 1122              	.LBB410:
 1123              	.LBI410:
 1124              		.loc 14 44 17 view .LVU297
 1125              	.LBB411:
 1126              		.loc 14 44 41 view .LVU298
 1127              		.loc 14 44 48 is_stmt 0 view .LVU299
 1128 0146 C8F86410 		str	r1, [r8, #100]	@ float
 1129              	.LVL45:
 1130              		.loc 14 44 48 view .LVU300
 1131              	.LBE411:
 1132              	.LBE410:
 129:MultiEffect.cpp **** 
 1133              		.loc 12 129 5 is_stmt 1 view .LVU301
 131:MultiEffect.cpp ****     {
 1134              		.loc 12 131 5 view .LVU302
 1135              	.LBB412:
ARM GAS  /tmp/ccVtSobE.s 			page 39


 131:MultiEffect.cpp ****     {
 1136              		.loc 12 131 22 view .LVU303
 133:MultiEffect.cpp ****     }
 1137              		.loc 12 133 9 view .LVU304
 1138              	.LBE412:
 136:MultiEffect.cpp **** 
 1139              		.loc 12 136 16 is_stmt 0 view .LVU305
 1140 014a 84F800A0 		strb	r10, [r4]
 1141              	.LBB413:
 133:MultiEffect.cpp ****     }
 1142              		.loc 12 133 19 view .LVU306
 1143 014e 1A60     		str	r2, [r3]	@ float
 131:MultiEffect.cpp ****     {
 1144              		.loc 12 131 5 is_stmt 1 view .LVU307
 1145              	.LVL46:
 131:MultiEffect.cpp ****     {
 1146              		.loc 12 131 22 view .LVU308
 133:MultiEffect.cpp ****     }
 1147              		.loc 12 133 9 view .LVU309
 133:MultiEffect.cpp ****     }
 1148              		.loc 12 133 19 is_stmt 0 view .LVU310
 1149 0150 5A60     		str	r2, [r3, #4]	@ float
 131:MultiEffect.cpp ****     {
 1150              		.loc 12 131 5 is_stmt 1 view .LVU311
 1151              	.LVL47:
 131:MultiEffect.cpp ****     {
 1152              		.loc 12 131 22 view .LVU312
 133:MultiEffect.cpp ****     }
 1153              		.loc 12 133 9 view .LVU313
 133:MultiEffect.cpp ****     }
 1154              		.loc 12 133 19 is_stmt 0 view .LVU314
 1155 0152 9A60     		str	r2, [r3, #8]	@ float
 131:MultiEffect.cpp ****     {
 1156              		.loc 12 131 5 is_stmt 1 view .LVU315
 1157              	.LVL48:
 131:MultiEffect.cpp ****     {
 1158              		.loc 12 131 22 view .LVU316
 133:MultiEffect.cpp ****     }
 1159              		.loc 12 133 9 view .LVU317
 133:MultiEffect.cpp ****     }
 1160              		.loc 12 133 19 is_stmt 0 view .LVU318
 1161 0154 DA60     		str	r2, [r3, #12]	@ float
 131:MultiEffect.cpp ****     {
 1162              		.loc 12 131 5 is_stmt 1 view .LVU319
 1163              	.LVL49:
 131:MultiEffect.cpp ****     {
 1164              		.loc 12 131 22 view .LVU320
 133:MultiEffect.cpp ****     }
 1165              		.loc 12 133 9 view .LVU321
 133:MultiEffect.cpp ****     }
 1166              		.loc 12 133 19 is_stmt 0 view .LVU322
 1167 0156 1A61     		str	r2, [r3, #16]	@ float
 131:MultiEffect.cpp ****     {
 1168              		.loc 12 131 5 is_stmt 1 view .LVU323
 1169              	.LVL50:
 131:MultiEffect.cpp ****     {
 1170              		.loc 12 131 22 view .LVU324
ARM GAS  /tmp/ccVtSobE.s 			page 40


 1171              	.LBE413:
 136:MultiEffect.cpp **** 
 1172              		.loc 12 136 5 view .LVU325
 139:MultiEffect.cpp ****     petal.StartAudio(AudioCallback);
 1173              		.loc 12 139 5 view .LVU326
 139:MultiEffect.cpp ****     petal.StartAudio(AudioCallback);
 1174              		.loc 12 139 19 is_stmt 0 view .LVU327
 1175 0158 FFF7FEFF 		bl	_ZN5daisy10DaisyPetal8StartAdcEv
 1176              	.LVL51:
 140:MultiEffect.cpp **** 
 1177              		.loc 12 140 5 is_stmt 1 view .LVU328
 140:MultiEffect.cpp **** 
 1178              		.loc 12 140 21 is_stmt 0 view .LVU329
 1179 015c A5F16C00 		sub	r0, r5, #108
 1180 0160 1F49     		ldr	r1, .L40+104
 1181 0162 FFF7FEFF 		bl	_ZN5daisy10DaisyPetal10StartAudioEPFvPKfPfjE
 1182              	.LVL52:
 1183              	.L36:
 142:MultiEffect.cpp ****     {
 1184              		.loc 12 142 5 is_stmt 1 discriminator 1 view .LVU330
 144:MultiEffect.cpp ****         System::Delay(6);
 1185              		.loc 12 144 9 discriminator 1 view .LVU331
 144:MultiEffect.cpp ****         System::Delay(6);
 1186              		.loc 12 144 19 is_stmt 0 discriminator 1 view .LVU332
 1187 0166 FFF7FEFF 		bl	_Z10UpdateLedsv
 1188              	.LVL53:
 145:MultiEffect.cpp ****     }
 1189              		.loc 12 145 9 is_stmt 1 discriminator 1 view .LVU333
 145:MultiEffect.cpp ****     }
 1190              		.loc 12 145 22 is_stmt 0 discriminator 1 view .LVU334
 1191 016a 0620     		movs	r0, #6
 1192 016c FFF7FEFF 		bl	_ZN5daisy6System5DelayEm
 1193              	.LVL54:
 142:MultiEffect.cpp ****     {
 1194              		.loc 12 142 5 is_stmt 1 discriminator 1 view .LVU335
 1195 0170 F9E7     		b	.L36
 1196              	.L41:
 1197 0172 00BFAFF3 		.align	3
 1197      0080
 1198              	.L40:
 1199 0178 9A999999 		.word	2576980378
 1200 017c 9999A93F 		.word	1068079513
 1201 0180 00000000 		.word	.LANCHOR1
 1202 0184 00000000 		.word	_ZL3rev
 1203 0188 18530700 		.word	_ZL4dell+12
 1204 018c 18A60E00 		.word	_ZL4dell+480012
 1205 0190 0C530700 		.word	_ZL4dell
 1206 0194 0C000000 		.word	_ZL4delr+12
 1207 0198 0C530700 		.word	_ZL4delr+480012
 1208 019c 5C000000 		.word	.LANCHOR1+92
 1209 01a0 00E0AB46 		.word	1185669120
 1210 01a4 0000C843 		.word	1137180672
 1211 01a8 00000000 		.word	.LANCHOR0
 1212 01ac 0060EA47 		.word	1206542336
 1213 01b0 00000000 		.word	.LANCHOR2
 1214 01b4 00004842 		.word	1112014848
 1215 01b8 00000000 		.word	.LANCHOR5
ARM GAS  /tmp/ccVtSobE.s 			page 41


 1216 01bc 00000000 		.word	.LANCHOR11
 1217 01c0 BFD40100 		.word	119999
 1218 01c4 9A99593F 		.word	1062836634
 1219 01c8 00A08C46 		.word	1183621120
 1220 01cc 00000000 		.word	.LANCHOR8
 1221 01d0 00000000 		.word	.LANCHOR10
 1222 01d4 00000000 		.word	.LANCHOR9
 1223 01d8 9A99193F 		.word	1058642330
 1224 01dc CDCC4C3F 		.word	1061997773
 1225 01e0 00000000 		.word	_Z13AudioCallbackPKfPfj
 1226 01e4 00000000 		.word	_ZL4delr
 1227 01e8 00000000 		.word	.LANCHOR7
 1228 01ec 00000000 		.word	.LANCHOR3
 1229              		.cfi_endproc
 1230              	.LFE4225:
 1232              		.section	.text._Z14UpdateSwitchesv,"ax",%progbits
 1233              		.align	1
 1234              		.p2align 2,,3
 1235              		.global	_Z14UpdateSwitchesv
 1236              		.syntax unified
 1237              		.thumb
 1238              		.thumb_func
 1239              		.fpu fpv5-d16
 1241              	_Z14UpdateSwitchesv:
 1242              	.LFB4229:
 221:MultiEffect.cpp **** 
 222:MultiEffect.cpp **** void UpdateSwitches()
 223:MultiEffect.cpp **** {
 1243              		.loc 12 223 1 view -0
 1244              		.cfi_startproc
 1245              		@ args = 0, pretend = 0, frame = 0
 1246              		@ frame_needed = 0, uses_anonymous_args = 0
 1247              		@ link register save eliminated.
 224:MultiEffect.cpp ****     //turn the effect on or off if a footswitch is pressed
 225:MultiEffect.cpp **** 
 226:MultiEffect.cpp ****     effectOn[REV]
 1248              		.loc 12 226 5 view .LVU337
 1249              	.LVL55:
 1250              		.loc 6 69 38 view .LVU338
 227:MultiEffect.cpp ****         = petal.switches[0].RisingEdge() ? !effectOn[REV] : effectOn[REV];
 1251              		.loc 12 227 39 is_stmt 0 view .LVU339
 1252 0000 114A     		ldr	r2, .L51
 1253              		.loc 12 227 42 view .LVU340
 1254 0002 92F84131 		ldrb	r3, [r2, #321]	@ zero_extendqisi2
 228:MultiEffect.cpp ****     effectOn[DEL]
 229:MultiEffect.cpp ****         = petal.switches[1].RisingEdge() ? !effectOn[DEL] : effectOn[DEL];
 1255              		.loc 12 229 42 view .LVU341
 1256 0006 92F85101 		ldrb	r0, [r2, #337]	@ zero_extendqisi2
 227:MultiEffect.cpp ****         = petal.switches[0].RisingEdge() ? !effectOn[REV] : effectOn[REV];
 1257              		.loc 12 227 42 view .LVU342
 1258 000a 7F2B     		cmp	r3, #127
 227:MultiEffect.cpp ****         = petal.switches[0].RisingEdge() ? !effectOn[REV] : effectOn[REV];
 1259              		.loc 12 227 57 view .LVU343
 1260 000c 0F4B     		ldr	r3, .L51+4
 227:MultiEffect.cpp ****         = petal.switches[0].RisingEdge() ? !effectOn[REV] : effectOn[REV];
 1261              		.loc 12 227 42 view .LVU344
 1262 000e D978     		ldrb	r1, [r3, #3]	@ zero_extendqisi2
ARM GAS  /tmp/ccVtSobE.s 			page 42


 1263 0010 08BF     		it	eq
 1264 0012 81F00101 		eoreq	r1, r1, #1
 1265              		.loc 12 229 42 view .LVU345
 1266 0016 7F28     		cmp	r0, #127
 230:MultiEffect.cpp ****     effectOn[CRUSH]
 231:MultiEffect.cpp ****         = petal.switches[2].RisingEdge() ? !effectOn[CRUSH] : effectOn[CRUSH];
 1267              		.loc 12 231 42 view .LVU346
 1268 0018 92F86101 		ldrb	r0, [r2, #353]	@ zero_extendqisi2
 227:MultiEffect.cpp ****     effectOn[DEL]
 1269              		.loc 12 227 9 view .LVU347
 1270 001c D970     		strb	r1, [r3, #3]
 228:MultiEffect.cpp ****     effectOn[DEL]
 1271              		.loc 12 228 5 is_stmt 1 view .LVU348
 1272              	.LVL56:
 1273              		.loc 6 69 38 view .LVU349
 229:MultiEffect.cpp ****     effectOn[CRUSH]
 1274              		.loc 12 229 42 is_stmt 0 view .LVU350
 1275 001e 9978     		ldrb	r1, [r3, #2]	@ zero_extendqisi2
 232:MultiEffect.cpp ****     effectOn[WAH]
 233:MultiEffect.cpp ****         = petal.switches[3].RisingEdge() ? !effectOn[WAH] : effectOn[WAH];
 1276              		.loc 12 233 42 view .LVU351
 1277 0020 92F87121 		ldrb	r2, [r2, #369]	@ zero_extendqisi2
 229:MultiEffect.cpp ****     effectOn[CRUSH]
 1278              		.loc 12 229 42 view .LVU352
 1279 0024 08BF     		it	eq
 1280 0026 81F00101 		eoreq	r1, r1, #1
 231:MultiEffect.cpp ****     effectOn[WAH]
 1281              		.loc 12 231 42 view .LVU353
 1282 002a 7F28     		cmp	r0, #127
 229:MultiEffect.cpp ****     effectOn[CRUSH]
 1283              		.loc 12 229 9 view .LVU354
 1284 002c 9970     		strb	r1, [r3, #2]
 230:MultiEffect.cpp ****         = petal.switches[2].RisingEdge() ? !effectOn[CRUSH] : effectOn[CRUSH];
 1285              		.loc 12 230 5 is_stmt 1 view .LVU355
 1286              	.LVL57:
 1287              		.loc 6 69 38 view .LVU356
 231:MultiEffect.cpp ****     effectOn[WAH]
 1288              		.loc 12 231 42 is_stmt 0 view .LVU357
 1289 002e 1978     		ldrb	r1, [r3]	@ zero_extendqisi2
 1290 0030 08BF     		it	eq
 1291 0032 81F00101 		eoreq	r1, r1, #1
 1292              		.loc 12 233 42 view .LVU358
 1293 0036 7F2A     		cmp	r2, #127
 1294 0038 5A78     		ldrb	r2, [r3, #1]	@ zero_extendqisi2
 231:MultiEffect.cpp ****     effectOn[WAH]
 1295              		.loc 12 231 9 view .LVU359
 1296 003a 1970     		strb	r1, [r3]
 232:MultiEffect.cpp ****     effectOn[WAH]
 1297              		.loc 12 232 5 is_stmt 1 view .LVU360
 1298              	.LVL58:
 1299              		.loc 6 69 38 view .LVU361
 1300              		.loc 12 233 42 is_stmt 0 view .LVU362
 1301 003c 08BF     		it	eq
 1302 003e 82F00102 		eoreq	r2, r2, #1
 1303              		.loc 12 233 9 view .LVU363
 1304 0042 5A70     		strb	r2, [r3, #1]
 234:MultiEffect.cpp **** }
ARM GAS  /tmp/ccVtSobE.s 			page 43


 1305              		.loc 12 234 1 view .LVU364
 1306 0044 7047     		bx	lr
 1307              	.L52:
 1308 0046 00BF     		.align	2
 1309              	.L51:
 1310 0048 00000000 		.word	.LANCHOR1
 1311 004c 00000000 		.word	.LANCHOR10
 1312              		.cfi_endproc
 1313              	.LFE4229:
 1315              		.section	.text._Z8Controlsv,"ax",%progbits
 1316              		.align	1
 1317              		.p2align 2,,3
 1318              		.global	_Z8Controlsv
 1319              		.syntax unified
 1320              		.thumb
 1321              		.thumb_func
 1322              		.fpu fpv5-d16
 1324              	_Z8Controlsv:
 1325              	.LFB4230:
 235:MultiEffect.cpp **** 
 236:MultiEffect.cpp **** void Controls()
 237:MultiEffect.cpp **** {
 1326              		.loc 12 237 1 is_stmt 1 view -0
 1327              		.cfi_startproc
 1328              		@ args = 0, pretend = 0, frame = 0
 1329              		@ frame_needed = 0, uses_anonymous_args = 0
 238:MultiEffect.cpp ****     petal.ProcessAnalogControls();
 1330              		.loc 12 238 5 view .LVU366
 237:MultiEffect.cpp ****     petal.ProcessAnalogControls();
 1331              		.loc 12 237 1 is_stmt 0 view .LVU367
 1332 0000 08B5     		push	{r3, lr}
 1333              		.cfi_def_cfa_offset 8
 1334              		.cfi_offset 3, -8
 1335              		.cfi_offset 14, -4
 1336              		.loc 12 238 32 view .LVU368
 1337 0002 0748     		ldr	r0, .L55
 1338 0004 FFF7FEFF 		bl	_ZN5daisy10DaisyPetal21ProcessAnalogControlsEv
 1339              	.LVL59:
 239:MultiEffect.cpp ****     petal.ProcessDigitalControls();
 1340              		.loc 12 239 5 is_stmt 1 view .LVU369
 1341              		.loc 12 239 33 is_stmt 0 view .LVU370
 1342 0008 0548     		ldr	r0, .L55
 1343 000a FFF7FEFF 		bl	_ZN5daisy10DaisyPetal22ProcessDigitalControlsEv
 1344              	.LVL60:
 240:MultiEffect.cpp **** 
 241:MultiEffect.cpp ****     UpdateKnobs();
 1345              		.loc 12 241 5 is_stmt 1 view .LVU371
 1346              		.loc 12 241 16 is_stmt 0 view .LVU372
 1347 000e FFF7FEFF 		bl	_Z11UpdateKnobsv
 1348              	.LVL61:
 242:MultiEffect.cpp **** 
 243:MultiEffect.cpp ****     UpdateEncoder();
 1349              		.loc 12 243 5 is_stmt 1 view .LVU373
 1350              		.loc 12 243 18 is_stmt 0 view .LVU374
 1351 0012 FFF7FEFF 		bl	_Z13UpdateEncoderv
 1352              	.LVL62:
 244:MultiEffect.cpp **** 
ARM GAS  /tmp/ccVtSobE.s 			page 44


 245:MultiEffect.cpp ****     UpdateSwitches();
 1353              		.loc 12 245 5 is_stmt 1 view .LVU375
 246:MultiEffect.cpp **** }
 1354              		.loc 12 246 1 is_stmt 0 view .LVU376
 1355 0016 BDE80840 		pop	{r3, lr}
 1356              		.cfi_restore 14
 1357              		.cfi_restore 3
 1358              		.cfi_def_cfa_offset 0
 245:MultiEffect.cpp **** }
 1359              		.loc 12 245 19 view .LVU377
 1360 001a FFF7FEBF 		b	_Z14UpdateSwitchesv
 1361              	.LVL63:
 1362              	.L56:
 1363 001e 00BF     		.align	2
 1364              	.L55:
 1365 0020 00000000 		.word	.LANCHOR1
 1366              		.cfi_endproc
 1367              	.LFE4230:
 1369              		.section	.text._Z15GetReverbSampleRfS_,"ax",%progbits
 1370              		.align	1
 1371              		.p2align 2,,3
 1372              		.global	_Z15GetReverbSampleRfS_
 1373              		.syntax unified
 1374              		.thumb
 1375              		.thumb_func
 1376              		.fpu fpv5-d16
 1378              	_Z15GetReverbSampleRfS_:
 1379              	.LVL64:
 1380              	.LFB4231:
 247:MultiEffect.cpp **** 
 248:MultiEffect.cpp **** void GetReverbSample(float &inl, float &inr)
 249:MultiEffect.cpp **** {
 1381              		.loc 12 249 1 is_stmt 1 view -0
 1382              		.cfi_startproc
 1383              		@ args = 0, pretend = 0, frame = 0
 1384              		@ frame_needed = 0, uses_anonymous_args = 0
 250:MultiEffect.cpp ****     rev.Process(inl, inr, &inl, &inr);
 1385              		.loc 12 250 5 view .LVU379
 249:MultiEffect.cpp ****     rev.Process(inl, inr, &inl, &inr);
 1386              		.loc 12 249 1 is_stmt 0 view .LVU380
 1387 0000 00B5     		push	{lr}
 1388              		.cfi_def_cfa_offset 4
 1389              		.cfi_offset 14, -4
 1390 0002 0346     		mov	r3, r0
 1391 0004 83B0     		sub	sp, sp, #12
 1392              		.cfi_def_cfa_offset 16
 249:MultiEffect.cpp ****     rev.Process(inl, inr, &inl, &inr);
 1393              		.loc 12 249 1 view .LVU381
 1394 0006 0A46     		mov	r2, r1
 1395              		.loc 12 250 16 view .LVU382
 1396 0008 0348     		ldr	r0, .L59
 1397              	.LVL65:
 1398              		.loc 12 250 16 view .LVU383
 1399 000a 0091     		str	r1, [sp]
 1400 000c 1946     		mov	r1, r3
 1401              	.LVL66:
 1402              		.loc 12 250 16 view .LVU384
ARM GAS  /tmp/ccVtSobE.s 			page 45


 1403 000e FFF7FEFF 		bl	_ZN7daisysp8ReverbSc7ProcessERKfS2_PfS3_
 1404              	.LVL67:
 251:MultiEffect.cpp **** }
 1405              		.loc 12 251 1 view .LVU385
 1406 0012 03B0     		add	sp, sp, #12
 1407              		.cfi_def_cfa_offset 4
 1408              		@ sp needed
 1409 0014 5DF804FB 		ldr	pc, [sp], #4
 1410              	.L60:
 1411              		.align	2
 1412              	.L59:
 1413 0018 00000000 		.word	_ZL3rev
 1414              		.cfi_endproc
 1415              	.LFE4231:
 1417              		.section	.text._Z14GetDelaySampleRfS_,"ax",%progbits
 1418              		.align	1
 1419              		.p2align 2,,3
 1420              		.global	_Z14GetDelaySampleRfS_
 1421              		.syntax unified
 1422              		.thumb
 1423              		.thumb_func
 1424              		.fpu fpv5-d16
 1426              	_Z14GetDelaySampleRfS_:
 1427              	.LVL68:
 1428              	.LFB4232:
 252:MultiEffect.cpp **** 
 253:MultiEffect.cpp **** void GetDelaySample(float &inl, float &inr)
 254:MultiEffect.cpp **** {
 1429              		.loc 12 254 1 is_stmt 1 view -0
 1430              		.cfi_startproc
 1431              		@ args = 0, pretend = 0, frame = 8
 1432              		@ frame_needed = 0, uses_anonymous_args = 0
 255:MultiEffect.cpp ****     fonepole(currentDelay, delayTarget, .00007f);
 1433              		.loc 12 255 5 view .LVU387
 1434              	.LBB414:
 1435              	.LBI414:
 1436              		.file 15 "../../DaisySP/Source/Utility/dsp.h"
   1:../../DaisySP/Source/Utility/dsp.h **** /** Helpful defines, functions, and other utilities for use in/with daisysp modules.
   2:../../DaisySP/Source/Utility/dsp.h **** */
   3:../../DaisySP/Source/Utility/dsp.h **** #pragma once
   4:../../DaisySP/Source/Utility/dsp.h **** #ifndef DSY_CORE_DSP
   5:../../DaisySP/Source/Utility/dsp.h **** #define DSY_CORE_DSP
   6:../../DaisySP/Source/Utility/dsp.h **** #include <cassert>
   7:../../DaisySP/Source/Utility/dsp.h **** #include <cstdint>
   8:../../DaisySP/Source/Utility/dsp.h **** #include <random>
   9:../../DaisySP/Source/Utility/dsp.h **** #include <cmath>
  10:../../DaisySP/Source/Utility/dsp.h **** 
  11:../../DaisySP/Source/Utility/dsp.h **** /** PIs
  12:../../DaisySP/Source/Utility/dsp.h **** */
  13:../../DaisySP/Source/Utility/dsp.h **** #define PI_F 3.1415927410125732421875f
  14:../../DaisySP/Source/Utility/dsp.h **** #define TWOPI_F (2.0f * PI_F)
  15:../../DaisySP/Source/Utility/dsp.h **** #define HALFPI_F (PI_F * 0.5f)
  16:../../DaisySP/Source/Utility/dsp.h **** #define DSY_MIN(in, mn) (in < mn ? in : mn)
  17:../../DaisySP/Source/Utility/dsp.h **** #define DSY_MAX(in, mx) (in > mx ? in : mx)
  18:../../DaisySP/Source/Utility/dsp.h **** #define DSY_CLAMP(in, mn, mx) (DSY_MIN(DSY_MAX(in, mn), mx))
  19:../../DaisySP/Source/Utility/dsp.h **** #define DSY_COUNTOF(_arr) (sizeof(_arr) / sizeof(_arr[0]))
  20:../../DaisySP/Source/Utility/dsp.h **** 
ARM GAS  /tmp/ccVtSobE.s 			page 46


  21:../../DaisySP/Source/Utility/dsp.h **** namespace daisysp
  22:../../DaisySP/Source/Utility/dsp.h **** {
  23:../../DaisySP/Source/Utility/dsp.h **** //Avoids division for random floats. e.g. rand() * kRandFrac
  24:../../DaisySP/Source/Utility/dsp.h **** static constexpr float kRandFrac = 1.f / (float)RAND_MAX;
  25:../../DaisySP/Source/Utility/dsp.h **** 
  26:../../DaisySP/Source/Utility/dsp.h **** //Convert from semitones to other units. e.g. 2 ^ (kOneTwelfth * x)
  27:../../DaisySP/Source/Utility/dsp.h **** static constexpr float kOneTwelfth = 1.f / 12.f;
  28:../../DaisySP/Source/Utility/dsp.h **** 
  29:../../DaisySP/Source/Utility/dsp.h **** /** efficient floating point min/max
  30:../../DaisySP/Source/Utility/dsp.h **** c/o stephen mccaul
  31:../../DaisySP/Source/Utility/dsp.h **** */
  32:../../DaisySP/Source/Utility/dsp.h **** inline float fmax(float a, float b)
  33:../../DaisySP/Source/Utility/dsp.h **** {
  34:../../DaisySP/Source/Utility/dsp.h ****     float r;
  35:../../DaisySP/Source/Utility/dsp.h **** #ifdef __arm__
  36:../../DaisySP/Source/Utility/dsp.h ****     asm("vmaxnm.f32 %[d], %[n], %[m]" : [d] "=t"(r) : [n] "t"(a), [m] "t"(b) :);
  37:../../DaisySP/Source/Utility/dsp.h **** #else
  38:../../DaisySP/Source/Utility/dsp.h ****     r = (a > b) ? a : b;
  39:../../DaisySP/Source/Utility/dsp.h **** #endif // __arm__
  40:../../DaisySP/Source/Utility/dsp.h ****     return r;
  41:../../DaisySP/Source/Utility/dsp.h **** }
  42:../../DaisySP/Source/Utility/dsp.h **** 
  43:../../DaisySP/Source/Utility/dsp.h **** inline float fmin(float a, float b)
  44:../../DaisySP/Source/Utility/dsp.h **** {
  45:../../DaisySP/Source/Utility/dsp.h ****     float r;
  46:../../DaisySP/Source/Utility/dsp.h **** #ifdef __arm__
  47:../../DaisySP/Source/Utility/dsp.h ****     asm("vminnm.f32 %[d], %[n], %[m]" : [d] "=t"(r) : [n] "t"(a), [m] "t"(b) :);
  48:../../DaisySP/Source/Utility/dsp.h **** #else
  49:../../DaisySP/Source/Utility/dsp.h ****     r = (a < b) ? a : b;
  50:../../DaisySP/Source/Utility/dsp.h **** #endif // __arm__
  51:../../DaisySP/Source/Utility/dsp.h ****     return r;
  52:../../DaisySP/Source/Utility/dsp.h **** }
  53:../../DaisySP/Source/Utility/dsp.h **** 
  54:../../DaisySP/Source/Utility/dsp.h **** /** quick fp clamp
  55:../../DaisySP/Source/Utility/dsp.h **** */
  56:../../DaisySP/Source/Utility/dsp.h **** inline float fclamp(float in, float min, float max)
  57:../../DaisySP/Source/Utility/dsp.h **** {
  58:../../DaisySP/Source/Utility/dsp.h ****     return fmin(fmax(in, min), max);
  59:../../DaisySP/Source/Utility/dsp.h **** }
  60:../../DaisySP/Source/Utility/dsp.h **** 
  61:../../DaisySP/Source/Utility/dsp.h **** /** From Musicdsp.org "Fast power and root estimates for 32bit floats)
  62:../../DaisySP/Source/Utility/dsp.h **** Original code by Stefan Stenzel
  63:../../DaisySP/Source/Utility/dsp.h **** These are approximations
  64:../../DaisySP/Source/Utility/dsp.h **** */
  65:../../DaisySP/Source/Utility/dsp.h **** inline float fastpower(float f, int n)
  66:../../DaisySP/Source/Utility/dsp.h **** {
  67:../../DaisySP/Source/Utility/dsp.h ****     long *lp, l;
  68:../../DaisySP/Source/Utility/dsp.h ****     lp = (long *)(&f);
  69:../../DaisySP/Source/Utility/dsp.h ****     l  = *lp;
  70:../../DaisySP/Source/Utility/dsp.h ****     l -= 0x3F800000;
  71:../../DaisySP/Source/Utility/dsp.h ****     l <<= (n - 1);
  72:../../DaisySP/Source/Utility/dsp.h ****     l += 0x3F800000;
  73:../../DaisySP/Source/Utility/dsp.h ****     *lp = l;
  74:../../DaisySP/Source/Utility/dsp.h ****     return f;
  75:../../DaisySP/Source/Utility/dsp.h **** }
  76:../../DaisySP/Source/Utility/dsp.h **** 
  77:../../DaisySP/Source/Utility/dsp.h **** inline float fastroot(float f, int n)
ARM GAS  /tmp/ccVtSobE.s 			page 47


  78:../../DaisySP/Source/Utility/dsp.h **** {
  79:../../DaisySP/Source/Utility/dsp.h ****     long *lp, l;
  80:../../DaisySP/Source/Utility/dsp.h ****     lp = (long *)(&f);
  81:../../DaisySP/Source/Utility/dsp.h ****     l  = *lp;
  82:../../DaisySP/Source/Utility/dsp.h ****     l -= 0x3F800000;
  83:../../DaisySP/Source/Utility/dsp.h ****     l >>= (n = 1);
  84:../../DaisySP/Source/Utility/dsp.h ****     l += 0x3F800000;
  85:../../DaisySP/Source/Utility/dsp.h ****     *lp = l;
  86:../../DaisySP/Source/Utility/dsp.h ****     return f;
  87:../../DaisySP/Source/Utility/dsp.h **** }
  88:../../DaisySP/Source/Utility/dsp.h **** 
  89:../../DaisySP/Source/Utility/dsp.h **** /** From http://openaudio.blogspot.com/2017/02/faster-log10-and-pow.html
  90:../../DaisySP/Source/Utility/dsp.h **** No approximation, pow10f(x) gives a 90% speed increase over powf(10.f, x)
  91:../../DaisySP/Source/Utility/dsp.h **** */
  92:../../DaisySP/Source/Utility/dsp.h **** inline float pow10f(float f)
  93:../../DaisySP/Source/Utility/dsp.h **** {
  94:../../DaisySP/Source/Utility/dsp.h ****     return expf(2.302585092994046f * f);
  95:../../DaisySP/Source/Utility/dsp.h **** }
  96:../../DaisySP/Source/Utility/dsp.h **** 
  97:../../DaisySP/Source/Utility/dsp.h **** /* Original code for fastlog2f by Dr. Paul Beckmann from the ARM community forum, adapted from the 
  98:../../DaisySP/Source/Utility/dsp.h **** About 25% performance increase over std::log10f
  99:../../DaisySP/Source/Utility/dsp.h **** */
 100:../../DaisySP/Source/Utility/dsp.h **** inline float fastlog2f(float f)
 101:../../DaisySP/Source/Utility/dsp.h **** {
 102:../../DaisySP/Source/Utility/dsp.h ****     float frac;
 103:../../DaisySP/Source/Utility/dsp.h ****     int   exp;
 104:../../DaisySP/Source/Utility/dsp.h ****     frac = frexpf(fabsf(f), &exp);
 105:../../DaisySP/Source/Utility/dsp.h ****     f    = 1.23149591368684f;
 106:../../DaisySP/Source/Utility/dsp.h ****     f *= frac;
 107:../../DaisySP/Source/Utility/dsp.h ****     f += -4.11852516267426f;
 108:../../DaisySP/Source/Utility/dsp.h ****     f *= frac;
 109:../../DaisySP/Source/Utility/dsp.h ****     f += 6.02197014179219f;
 110:../../DaisySP/Source/Utility/dsp.h ****     f *= frac;
 111:../../DaisySP/Source/Utility/dsp.h ****     f += -3.13396450166353f;
 112:../../DaisySP/Source/Utility/dsp.h ****     f += exp;
 113:../../DaisySP/Source/Utility/dsp.h ****     return (f);
 114:../../DaisySP/Source/Utility/dsp.h **** }
 115:../../DaisySP/Source/Utility/dsp.h **** 
 116:../../DaisySP/Source/Utility/dsp.h **** inline float fastlog10f(float f)
 117:../../DaisySP/Source/Utility/dsp.h **** {
 118:../../DaisySP/Source/Utility/dsp.h ****     return fastlog2f(f) * 0.3010299956639812f;
 119:../../DaisySP/Source/Utility/dsp.h **** }
 120:../../DaisySP/Source/Utility/dsp.h **** 
 121:../../DaisySP/Source/Utility/dsp.h **** /** Midi to frequency helper
 122:../../DaisySP/Source/Utility/dsp.h **** */
 123:../../DaisySP/Source/Utility/dsp.h **** inline float mtof(float m)
 124:../../DaisySP/Source/Utility/dsp.h **** {
 125:../../DaisySP/Source/Utility/dsp.h ****     return powf(2, (m - 69.0f) / 12.0f) * 440.0f;
 126:../../DaisySP/Source/Utility/dsp.h **** }
 127:../../DaisySP/Source/Utility/dsp.h **** 
 128:../../DaisySP/Source/Utility/dsp.h **** 
 129:../../DaisySP/Source/Utility/dsp.h **** /** one pole lpf
 130:../../DaisySP/Source/Utility/dsp.h **** out is passed by reference, and must be retained between
 131:../../DaisySP/Source/Utility/dsp.h **** calls to properly filter the signal
 132:../../DaisySP/Source/Utility/dsp.h **** coeff can be calculated:
 133:../../DaisySP/Source/Utility/dsp.h **** coeff = 1.0 / (time * sample_rate) ; where time is in seconds
 134:../../DaisySP/Source/Utility/dsp.h **** */
ARM GAS  /tmp/ccVtSobE.s 			page 48


 135:../../DaisySP/Source/Utility/dsp.h **** inline void fonepole(float &out, float in, float coeff)
 1437              		.loc 15 135 13 view .LVU388
 1438              	.LBB415:
 136:../../DaisySP/Source/Utility/dsp.h **** {
 137:../../DaisySP/Source/Utility/dsp.h ****     out += coeff * (in - out);
 1439              		.loc 15 137 5 view .LVU389
 1440              		.loc 15 137 9 is_stmt 0 view .LVU390
 1441 0000 524A     		ldr	r2, .L63
 1442              	.LBE415:
 1443              	.LBE414:
 256:MultiEffect.cpp ****     delr.SetDelay(currentDelay);
 257:MultiEffect.cpp ****     dell.SetDelay(currentDelay);
 258:MultiEffect.cpp ****     float outl = dell.Read();
 259:MultiEffect.cpp ****     float outr = delr.Read();
 260:MultiEffect.cpp **** 
 261:MultiEffect.cpp ****     dell.Write((feedback * outl) + inl);
 262:MultiEffect.cpp ****     inl = (feedback * outl) + ((1.0f - feedback) * inl);
 1444              		.loc 12 262 38 view .LVU391
 1445 0002 B7EE007A 		vmov.f32	s14, #1.0e+0
 255:MultiEffect.cpp ****     delr.SetDelay(currentDelay);
 1446              		.loc 12 255 13 view .LVU392
 1447 0006 524B     		ldr	r3, .L63+4
 1448              	.LBB419:
 1449              	.LBB416:
 1450              		.loc 15 137 9 view .LVU393
 1451 0008 D2ED007A 		vldr.32	s15, [r2]
 1452              		.loc 15 137 24 view .LVU394
 1453 000c D3ED006A 		vldr.32	s13, [r3]
 1454              		.loc 15 137 9 view .LVU395
 1455 0010 9FED506A 		vldr.32	s12, .L63+8
 1456              		.loc 15 137 24 view .LVU396
 1457 0014 76EEE76A 		vsub.f32	s13, s13, s15
 1458              	.LBE416:
 1459              	.LBE419:
 1460              	.LBB420:
 1461              	.LBB421:
  57:../../DaisySP/Source/Utility/delayline.h ****                                                            : max_size - 1;
  58:../../DaisySP/Source/Utility/delayline.h ****     }
  59:../../DaisySP/Source/Utility/delayline.h **** 
  60:../../DaisySP/Source/Utility/delayline.h ****     /** writes the sample of type T to the delay line, and advances the write ptr
  61:../../DaisySP/Source/Utility/delayline.h ****     */
  62:../../DaisySP/Source/Utility/delayline.h ****     inline void Write(const T sample)
  63:../../DaisySP/Source/Utility/delayline.h ****     {
  64:../../DaisySP/Source/Utility/delayline.h ****         line_[write_ptr_] = sample;
  65:../../DaisySP/Source/Utility/delayline.h ****         write_ptr_        = (write_ptr_ - 1 + max_size) % max_size;
  66:../../DaisySP/Source/Utility/delayline.h ****     }
  67:../../DaisySP/Source/Utility/delayline.h **** 
  68:../../DaisySP/Source/Utility/delayline.h ****     /** returns the next sample of type T in the delay line, interpolated if necessary.
  69:../../DaisySP/Source/Utility/delayline.h ****     */
  70:../../DaisySP/Source/Utility/delayline.h ****     inline const T Read() const
  71:../../DaisySP/Source/Utility/delayline.h ****     {
  72:../../DaisySP/Source/Utility/delayline.h ****         T a = line_[(write_ptr_ + delay_) % max_size];
 1462              		.loc 13 72 43 view .LVU397
 1463 0018 4F4B     		ldr	r3, .L63+12
 1464              	.LBE421:
 1465              	.LBE420:
 254:MultiEffect.cpp ****     fonepole(currentDelay, delayTarget, .00007f);
ARM GAS  /tmp/ccVtSobE.s 			page 49


 1466              		.loc 12 254 1 view .LVU398
 1467 001a 2DE9F04F 		push	{r4, r5, r6, r7, r8, r9, r10, fp, lr}
 1468              		.cfi_def_cfa_offset 36
 1469              		.cfi_offset 4, -36
 1470              		.cfi_offset 5, -32
 1471              		.cfi_offset 6, -28
 1472              		.cfi_offset 7, -24
 1473              		.cfi_offset 8, -20
 1474              		.cfi_offset 9, -16
 1475              		.cfi_offset 10, -12
 1476              		.cfi_offset 11, -8
 1477              		.cfi_offset 14, -4
 1478              	.LBB430:
 1479              	.LBB417:
 1480              		.loc 15 137 9 view .LVU399
 1481 001e E6EE867A 		vfma.f32	s15, s13, s12
 1482              	.LBE417:
 1483              	.LBE430:
 1484              	.LBB431:
 1485              	.LBB432:
  55:../../DaisySP/Source/Utility/delayline.h ****         delay_ = static_cast<size_t>(int_delay) < max_size ? int_delay
 1486              		.loc 13 55 9 view .LVU400
 1487 0022 4E4E     		ldr	r6, .L63+16
 1488              	.LBE432:
 1489              	.LBE431:
 254:MultiEffect.cpp ****     fonepole(currentDelay, delayTarget, .00007f);
 1490              		.loc 12 254 1 view .LVU401
 1491 0024 83B0     		sub	sp, sp, #12
 1492              		.cfi_def_cfa_offset 48
 1493              	.LBB435:
 1494              	.LBB436:
  56:../../DaisySP/Source/Utility/delayline.h ****                                                            : max_size - 1;
 1495              		.loc 13 56 9 view .LVU402
 1496 0026 DFF83C91 		ldr	r9, .L63+24
 1497              	.LBE436:
 1498              	.LBE435:
 1499              	.LBB445:
 1500              	.LBB422:
 1501              		.loc 13 72 22 view .LVU403
 1502 002a 7768     		ldr	r7, [r6, #4]
 1503              		.loc 13 72 43 view .LVU404
 1504 002c DFF838E1 		ldr	lr, .L63+28
 1505              	.LBE422:
 1506              	.LBE445:
 1507              	.LBB446:
 1508              	.LBB447:
  64:../../DaisySP/Source/Utility/delayline.h ****         write_ptr_        = (write_ptr_ - 1 + max_size) % max_size;
 1509              		.loc 13 64 9 view .LVU405
 1510 0030 06EB8705 		add	r5, r6, r7, lsl #2
 1511              	.LBE447:
 1512              	.LBE446:
 1513              	.LBB455:
 1514              	.LBB437:
  55:../../DaisySP/Source/Utility/delayline.h ****         delay_ = static_cast<size_t>(int_delay) < max_size ? int_delay
 1515              		.loc 13 55 9 view .LVU406
 1516 0034 4A4C     		ldr	r4, .L63+20
 1517              	.LBE437:
ARM GAS  /tmp/ccVtSobE.s 			page 50


 1518              	.LBE455:
 261:MultiEffect.cpp ****     inl = (feedback * outl) + ((1.0f - feedback) * inl);
 1519              		.loc 12 261 26 view .LVU407
 1520 0036 DFF834A1 		ldr	r10, .L63+32
 1521              	.LBB456:
 1522              	.LBB438:
  54:../../DaisySP/Source/Utility/delayline.h ****         frac_             = delay - static_cast<float>(int_delay);
 1523              		.loc 13 54 17 view .LVU408
 1524 003a FDEEE76A 		vcvt.s32.f32	s13, s15
 1525              	.LBE438:
 1526              	.LBE456:
 1527              	.LBB457:
 1528              	.LBB418:
 1529              		.loc 15 137 9 view .LVU409
 1530 003e C2ED007A 		vstr.32	s15, [r2]
 1531              	.LVL69:
 1532              		.loc 15 137 9 view .LVU410
 1533              	.LBE418:
 1534              	.LBE457:
 256:MultiEffect.cpp ****     dell.SetDelay(currentDelay);
 1535              		.loc 12 256 5 is_stmt 1 view .LVU411
 1536              	.LBB458:
 1537              	.LBI435:
  52:../../DaisySP/Source/Utility/delayline.h ****     {
 1538              		.loc 13 52 17 view .LVU412
  52:../../DaisySP/Source/Utility/delayline.h ****     {
 1539              		.loc 13 52 17 is_stmt 0 view .LVU413
 1540              	.LBE458:
 1541              	.LBB459:
 1542              	.LBB448:
  64:../../DaisySP/Source/Utility/delayline.h ****         write_ptr_        = (write_ptr_ - 1 + max_size) % max_size;
 1543              		.loc 13 64 9 view .LVU414
 1544 0042 0195     		str	r5, [sp, #4]
  65:../../DaisySP/Source/Utility/delayline.h ****     }
 1545              		.loc 13 65 45 view .LVU415
 1546 0044 07EB0905 		add	r5, r7, r9
 1547              	.LBE448:
 1548              	.LBE459:
 261:MultiEffect.cpp ****     inl = (feedback * outl) + ((1.0f - feedback) * inl);
 1549              		.loc 12 261 26 view .LVU416
 1550 0048 9AED005A 		vldr.32	s10, [r10]
 1551              	.LBB460:
 1552              	.LBB439:
  56:../../DaisySP/Source/Utility/delayline.h ****                                                            : max_size - 1;
 1553              		.loc 13 56 9 view .LVU417
 1554 004c 16EE902A 		vmov	r2, s13	@ int
 1555              	.LBE439:
 1556              	.LBE460:
 1557              	.LBB461:
 1558              	.LBB449:
  65:../../DaisySP/Source/Utility/delayline.h ****     }
 1559              		.loc 13 65 57 view .LVU418
 1560 0050 A3FB05C8 		umull	ip, r8, r3, r5
 1561              	.LBE449:
 1562              	.LBE461:
 1563              	.LBB462:
 1564              	.LBB440:
ARM GAS  /tmp/ccVtSobE.s 			page 51


  55:../../DaisySP/Source/Utility/delayline.h ****         delay_ = static_cast<size_t>(int_delay) < max_size ? int_delay
 1565              		.loc 13 55 35 view .LVU419
 1566 0054 F8EEE66A 		vcvt.f32.s32	s13, s13
 1567              	.LVL70:
  56:../../DaisySP/Source/Utility/delayline.h ****                                                            : max_size - 1;
 1568              		.loc 13 56 9 view .LVU420
 1569 0058 4A45     		cmp	r2, r9
 1570              	.LBE440:
 1571              	.LBE462:
 1572              	.LBB463:
 1573              	.LBB450:
  65:../../DaisySP/Source/Utility/delayline.h ****     }
 1574              		.loc 13 65 57 view .LVU421
 1575 005a 4FEAD838 		lsr	r8, r8, #15
 1576              	.LBE450:
 1577              	.LBE463:
 1578              		.loc 12 262 38 view .LVU422
 1579 005e 37EE456A 		vsub.f32	s12, s14, s10
 1580              	.LBB464:
 1581              	.LBB441:
  56:../../DaisySP/Source/Utility/delayline.h ****                                                            : max_size - 1;
 1582              		.loc 13 56 9 view .LVU423
 1583 0062 28BF     		it	cs
 1584 0064 4A46     		movcs	r2, r9
 1585              	.LVL71:
  56:../../DaisySP/Source/Utility/delayline.h ****                                                            : max_size - 1;
 1586              		.loc 13 56 9 view .LVU424
 1587              	.LBE441:
 1588              	.LBE464:
 1589              	.LBB465:
 1590              	.LBB451:
  65:../../DaisySP/Source/Utility/delayline.h ****     }
 1591              		.loc 13 65 57 view .LVU425
 1592 0066 0EFB1858 		mls	r8, lr, r8, r5
 1593              	.LBE451:
 1594              	.LBE465:
 1595              	.LBB466:
 1596              	.LBB442:
  55:../../DaisySP/Source/Utility/delayline.h ****         delay_ = static_cast<size_t>(int_delay) < max_size ? int_delay
 1597              		.loc 13 55 35 view .LVU426
 1598 006a 77EEE67A 		vsub.f32	s15, s15, s13
 1599              	.LVL72:
  55:../../DaisySP/Source/Utility/delayline.h ****         delay_ = static_cast<size_t>(int_delay) < max_size ? int_delay
 1600              		.loc 13 55 35 view .LVU427
 1601              	.LBE442:
 1602              	.LBE466:
 1603              	.LBB467:
 1604              	.LBB423:
 1605              		.loc 13 72 33 view .LVU428
 1606 006e 07EB020C 		add	ip, r7, r2
 1607              	.LBE423:
 1608              	.LBE467:
 1609              	.LBB468:
 1610              	.LBB433:
  56:../../DaisySP/Source/Utility/delayline.h ****                                                            : max_size - 1;
 1611              		.loc 13 56 9 view .LVU429
 1612 0072 B260     		str	r2, [r6, #8]
ARM GAS  /tmp/ccVtSobE.s 			page 52


 1613              	.LBE433:
 1614              	.LBE468:
 1615              	.LBB469:
 1616              	.LBB443:
 1617 0074 A260     		str	r2, [r4, #8]
 1618              	.LVL73:
  56:../../DaisySP/Source/Utility/delayline.h ****                                                            : max_size - 1;
 1619              		.loc 13 56 9 view .LVU430
 1620              	.LBE443:
 1621              	.LBE469:
 257:MultiEffect.cpp ****     float outl = dell.Read();
 1622              		.loc 12 257 5 is_stmt 1 view .LVU431
 1623              	.LBB470:
 1624              	.LBI431:
  52:../../DaisySP/Source/Utility/delayline.h ****     {
 1625              		.loc 13 52 17 view .LVU432
  52:../../DaisySP/Source/Utility/delayline.h ****     {
 1626              		.loc 13 52 17 is_stmt 0 view .LVU433
 1627              	.LBE470:
 258:MultiEffect.cpp ****     float outr = delr.Read();
 1628              		.loc 12 258 5 is_stmt 1 view .LVU434
 1629              	.LBB471:
 1630              	.LBI420:
  70:../../DaisySP/Source/Utility/delayline.h ****     {
 1631              		.loc 13 70 20 view .LVU435
 1632              	.LBB424:
 1633              		.loc 13 72 43 is_stmt 0 view .LVU436
 1634 0076 A3FB0C57 		umull	r5, r7, r3, ip
  73:../../DaisySP/Source/Utility/delayline.h ****         T b = line_[(write_ptr_ + delay_ + 1) % max_size];
 1635              		.loc 13 73 42 view .LVU437
 1636 007a 0CF1010B 		add	fp, ip, #1
 1637              	.LBE424:
 1638              	.LBE471:
 1639              	.LBB472:
 1640              	.LBB434:
  55:../../DaisySP/Source/Utility/delayline.h ****         delay_ = static_cast<size_t>(int_delay) < max_size ? int_delay
 1641              		.loc 13 55 9 view .LVU438
 1642 007e C6ED007A 		vstr.32	s15, [r6]
 1643              	.LBE434:
 1644              	.LBE472:
 1645              	.LBB473:
 1646              	.LBB425:
  72:../../DaisySP/Source/Utility/delayline.h ****         T b = line_[(write_ptr_ + delay_ + 1) % max_size];
 1647              		.loc 13 72 43 view .LVU439
 1648 0082 FF0B     		lsrs	r7, r7, #15
 1649              	.LBE425:
 1650              	.LBE473:
 1651              	.LBB474:
 1652              	.LBB444:
  55:../../DaisySP/Source/Utility/delayline.h ****         delay_ = static_cast<size_t>(int_delay) < max_size ? int_delay
 1653              		.loc 13 55 9 view .LVU440
 1654 0084 C4ED007A 		vstr.32	s15, [r4]
 1655              	.LBE444:
 1656              	.LBE474:
 261:MultiEffect.cpp ****     inl = (feedback * outl) + ((1.0f - feedback) * inl);
 1657              		.loc 12 261 15 view .LVU441
 1658 0088 90ED004A 		vldr.32	s8, [r0]
ARM GAS  /tmp/ccVtSobE.s 			page 53


 1659              	.LBB475:
 1660              	.LBB426:
  72:../../DaisySP/Source/Utility/delayline.h ****         T b = line_[(write_ptr_ + delay_ + 1) % max_size];
 1661              		.loc 13 72 43 view .LVU442
 1662 008c 0097     		str	r7, [sp]
 1663              		.loc 13 73 47 view .LVU443
 1664 008e A3FB0B75 		umull	r7, r5, r3, fp
  72:../../DaisySP/Source/Utility/delayline.h ****         T b = line_[(write_ptr_ + delay_ + 1) % max_size];
 1665              		.loc 13 72 43 view .LVU444
 1666 0092 009F     		ldr	r7, [sp]
 1667              	.LBE426:
 1668              	.LBE475:
 1669              	.LBB476:
 1670              	.LBB452:
  65:../../DaisySP/Source/Utility/delayline.h ****     }
 1671              		.loc 13 65 9 view .LVU445
 1672 0094 C6F80480 		str	r8, [r6, #4]
 1673              	.LBE452:
 1674              	.LBE476:
 1675              	.LBB477:
 1676              	.LBB427:
 1677              		.loc 13 73 47 view .LVU446
 1678 0098 ED0B     		lsrs	r5, r5, #15
  72:../../DaisySP/Source/Utility/delayline.h ****         T b = line_[(write_ptr_ + delay_ + 1) % max_size];
 1679              		.loc 13 72 43 view .LVU447
 1680 009a 0EFB17C7 		mls	r7, lr, r7, ip
 1681              		.loc 13 73 47 view .LVU448
 1682 009e 0EFB15B5 		mls	r5, lr, r5, fp
  72:../../DaisySP/Source/Utility/delayline.h ****         T b = line_[(write_ptr_ + delay_ + 1) % max_size];
 1683              		.loc 13 72 11 view .LVU449
 1684 00a2 06EB8707 		add	r7, r6, r7, lsl #2
 1685              		.loc 13 73 11 view .LVU450
 1686 00a6 06EB8505 		add	r5, r6, r5, lsl #2
  72:../../DaisySP/Source/Utility/delayline.h ****         T b = line_[(write_ptr_ + delay_ + 1) % max_size];
 1687              		.loc 13 72 11 view .LVU451
 1688 00aa D7ED035A 		vldr.32	s11, [r7, #12]
 1689              	.LVL74:
  74:../../DaisySP/Source/Utility/delayline.h ****         return a + (b - a) * frac_;
 1690              		.loc 13 74 23 view .LVU452
 1691 00ae D5ED036A 		vldr.32	s13, [r5, #12]
 1692              	.LBE427:
 1693              	.LBE477:
 1694              	.LBB478:
 1695              	.LBB479:
  72:../../DaisySP/Source/Utility/delayline.h ****         T b = line_[(write_ptr_ + delay_ + 1) % max_size];
 1696              		.loc 13 72 22 view .LVU453
 1697 00b2 6568     		ldr	r5, [r4, #4]
 1698              	.LBE479:
 1699              	.LBE478:
 1700              	.LBB489:
 1701              	.LBB428:
 1702              		.loc 13 74 23 view .LVU454
 1703 00b4 76EEE56A 		vsub.f32	s13, s13, s11
 1704              	.LBE428:
 1705              	.LBE489:
 1706              	.LBB490:
 1707              	.LBB480:
ARM GAS  /tmp/ccVtSobE.s 			page 54


  72:../../DaisySP/Source/Utility/delayline.h ****         T b = line_[(write_ptr_ + delay_ + 1) % max_size];
 1708              		.loc 13 72 33 view .LVU455
 1709 00b8 2A44     		add	r2, r2, r5
 1710              	.LBE480:
 1711              	.LBE490:
 1712              	.LBB491:
 1713              	.LBB492:
  65:../../DaisySP/Source/Utility/delayline.h ****     }
 1714              		.loc 13 65 45 view .LVU456
 1715 00ba A944     		add	r9, r9, r5
  64:../../DaisySP/Source/Utility/delayline.h ****         write_ptr_        = (write_ptr_ - 1 + max_size) % max_size;
 1716              		.loc 13 64 9 view .LVU457
 1717 00bc 04EB8506 		add	r6, r4, r5, lsl #2
 1718              	.LBE492:
 1719              	.LBE491:
 1720              	.LBB498:
 1721              	.LBB481:
  73:../../DaisySP/Source/Utility/delayline.h ****         return a + (b - a) * frac_;
 1722              		.loc 13 73 42 view .LVU458
 1723 00c0 571C     		adds	r7, r2, #1
  72:../../DaisySP/Source/Utility/delayline.h ****         T b = line_[(write_ptr_ + delay_ + 1) % max_size];
 1724              		.loc 13 72 43 view .LVU459
 1725 00c2 A3FB028C 		umull	r8, ip, r3, r2
 1726              	.LVL75:
  72:../../DaisySP/Source/Utility/delayline.h ****         T b = line_[(write_ptr_ + delay_ + 1) % max_size];
 1727              		.loc 13 72 43 view .LVU460
 1728              	.LBE481:
 1729              	.LBE498:
 1730              	.LBB499:
 1731              	.LBB429:
 1732              		.loc 13 74 30 view .LVU461
 1733 00c6 E6EEA75A 		vfma.f32	s11, s13, s15
 1734              	.LVL76:
 1735              		.loc 13 74 30 view .LVU462
 1736              	.LBE429:
 1737              	.LBE499:
 259:MultiEffect.cpp **** 
 1738              		.loc 12 259 5 is_stmt 1 view .LVU463
 1739              	.LBB500:
 1740              	.LBI478:
  70:../../DaisySP/Source/Utility/delayline.h ****     {
 1741              		.loc 13 70 20 view .LVU464
 1742              	.LBB482:
  73:../../DaisySP/Source/Utility/delayline.h ****         return a + (b - a) * frac_;
 1743              		.loc 13 73 47 is_stmt 0 view .LVU465
 1744 00ca A3FB0785 		umull	r8, r5, r3, r7
  72:../../DaisySP/Source/Utility/delayline.h ****         T b = line_[(write_ptr_ + delay_ + 1) % max_size];
 1745              		.loc 13 72 43 view .LVU466
 1746 00ce 4FEADC3C 		lsr	ip, ip, #15
 1747              	.LBE482:
 1748              	.LBE500:
 1749              	.LBB501:
 1750              	.LBB493:
  65:../../DaisySP/Source/Utility/delayline.h ****     }
 1751              		.loc 13 65 57 view .LVU467
 1752 00d2 A3FB0983 		umull	r8, r3, r3, r9
 1753              	.LBE493:
ARM GAS  /tmp/ccVtSobE.s 			page 55


 1754              	.LBE501:
 1755              	.LBB502:
 1756              	.LBB483:
  73:../../DaisySP/Source/Utility/delayline.h ****         return a + (b - a) * frac_;
 1757              		.loc 13 73 47 view .LVU468
 1758 00d6 ED0B     		lsrs	r5, r5, #15
  72:../../DaisySP/Source/Utility/delayline.h ****         T b = line_[(write_ptr_ + delay_ + 1) % max_size];
 1759              		.loc 13 72 43 view .LVU469
 1760 00d8 0EFB1C22 		mls	r2, lr, ip, r2
 1761              	.LBE483:
 1762              	.LBE502:
 1763              	.LBB503:
 1764              	.LBB494:
  65:../../DaisySP/Source/Utility/delayline.h ****     }
 1765              		.loc 13 65 57 view .LVU470
 1766 00dc DB0B     		lsrs	r3, r3, #15
 1767              	.LBE494:
 1768              	.LBE503:
 1769              	.LBB504:
 1770              	.LBB484:
  73:../../DaisySP/Source/Utility/delayline.h ****         return a + (b - a) * frac_;
 1771              		.loc 13 73 47 view .LVU471
 1772 00de 0EFB1575 		mls	r5, lr, r5, r7
  72:../../DaisySP/Source/Utility/delayline.h ****         T b = line_[(write_ptr_ + delay_ + 1) % max_size];
 1773              		.loc 13 72 11 view .LVU472
 1774 00e2 04EB8202 		add	r2, r4, r2, lsl #2
 1775              	.LBE484:
 1776              	.LBE504:
 261:MultiEffect.cpp ****     inl = (feedback * outl) + ((1.0f - feedback) * inl);
 1777              		.loc 12 261 15 view .LVU473
 1778 00e6 A5EE254A 		vfma.f32	s8, s10, s11
 1779              	.LBB505:
 1780              	.LBB495:
  65:../../DaisySP/Source/Utility/delayline.h ****     }
 1781              		.loc 13 65 57 view .LVU474
 1782 00ea 0EFB1393 		mls	r3, lr, r3, r9
 1783              	.LBE495:
 1784              	.LBE505:
 1785              	.LBB506:
 1786              	.LBB485:
  73:../../DaisySP/Source/Utility/delayline.h ****         return a + (b - a) * frac_;
 1787              		.loc 13 73 11 view .LVU475
 1788 00ee 04EB8505 		add	r5, r4, r5, lsl #2
  72:../../DaisySP/Source/Utility/delayline.h ****         T b = line_[(write_ptr_ + delay_ + 1) % max_size];
 1789              		.loc 13 72 11 view .LVU476
 1790 00f2 D2ED036A 		vldr.32	s13, [r2, #12]
 1791              	.LVL77:
 1792              		.loc 13 74 23 view .LVU477
 1793 00f6 D5ED034A 		vldr.32	s9, [r5, #12]
 1794              	.LBE485:
 1795              	.LBE506:
 1796              	.LBB507:
 1797              	.LBB453:
  64:../../DaisySP/Source/Utility/delayline.h ****         write_ptr_        = (write_ptr_ - 1 + max_size) % max_size;
 1798              		.loc 13 64 9 view .LVU478
 1799 00fa 019D     		ldr	r5, [sp, #4]
 1800              	.LBE453:
ARM GAS  /tmp/ccVtSobE.s 			page 56


 1801              	.LBE507:
 1802              	.LBB508:
 1803              	.LBB486:
 1804              		.loc 13 74 23 view .LVU479
 1805 00fc 74EEE64A 		vsub.f32	s9, s9, s13
 1806              	.LBE486:
 1807              	.LBE508:
 1808              	.LBB509:
 1809              	.LBB454:
  64:../../DaisySP/Source/Utility/delayline.h ****         write_ptr_        = (write_ptr_ - 1 + max_size) % max_size;
 1810              		.loc 13 64 9 view .LVU480
 1811 0100 85ED034A 		vstr.32	s8, [r5, #12]
 1812              	.LBE454:
 1813              	.LBE509:
 1814              		.loc 12 262 50 view .LVU481
 1815 0104 90ED004A 		vldr.32	s8, [r0]
 1816              	.LBB510:
 1817              	.LBB487:
 1818              		.loc 13 74 30 view .LVU482
 1819 0108 E4EEA76A 		vfma.f32	s13, s9, s15
 1820              	.LVL78:
 1821              		.loc 13 74 30 view .LVU483
 1822              	.LBE487:
 1823              	.LBE510:
 1824              		.loc 12 262 50 view .LVU484
 1825 010c 26EE046A 		vmul.f32	s12, s12, s8
 1826              	.LBB511:
 1827              	.LBB488:
 1828              		.loc 13 74 30 view .LVU485
 1829 0110 F0EE667A 		vmov.f32	s15, s13
 1830              	.LVL79:
 1831              		.loc 13 74 30 view .LVU486
 1832              	.LBE488:
 1833              	.LBE511:
 261:MultiEffect.cpp ****     inl = (feedback * outl) + ((1.0f - feedback) * inl);
 1834              		.loc 12 261 5 is_stmt 1 view .LVU487
 1835              	.LBB512:
 1836              	.LBI446:
  62:../../DaisySP/Source/Utility/delayline.h ****     {
 1837              		.loc 13 62 17 view .LVU488
  62:../../DaisySP/Source/Utility/delayline.h ****     {
 1838              		.loc 13 62 17 is_stmt 0 view .LVU489
 1839              	.LBE512:
 1840              		.loc 12 262 5 is_stmt 1 view .LVU490
 1841              		.loc 12 262 29 is_stmt 0 view .LVU491
 1842 0114 F0EE466A 		vmov.f32	s13, s12
 1843              	.LVL80:
 1844              		.loc 12 262 29 view .LVU492
 1845 0118 E5EE256A 		vfma.f32	s13, s10, s11
 1846              		.loc 12 262 9 view .LVU493
 1847 011c C0ED006A 		vstr.32	s13, [r0]
 263:MultiEffect.cpp **** 
 264:MultiEffect.cpp ****     delr.Write((feedback * outr) + inr);
 1848              		.loc 12 264 5 is_stmt 1 view .LVU494
 1849              		.loc 12 264 15 is_stmt 0 view .LVU495
 1850 0120 91ED006A 		vldr.32	s12, [r1]
 1851              		.loc 12 264 26 view .LVU496
ARM GAS  /tmp/ccVtSobE.s 			page 57


 1852 0124 DAED006A 		vldr.32	s13, [r10]
 1853              	.LBB513:
 1854              	.LBB496:
  65:../../DaisySP/Source/Utility/delayline.h ****     }
 1855              		.loc 13 65 9 view .LVU497
 1856 0128 6360     		str	r3, [r4, #4]
 1857              	.LBE496:
 1858              	.LBE513:
 1859              		.loc 12 264 15 view .LVU498
 1860 012a A6EEA76A 		vfma.f32	s12, s13, s15
 1861              	.LVL81:
 1862              	.LBB514:
 1863              	.LBI491:
  62:../../DaisySP/Source/Utility/delayline.h ****     {
 1864              		.loc 13 62 17 is_stmt 1 view .LVU499
  62:../../DaisySP/Source/Utility/delayline.h ****     {
 1865              		.loc 13 62 17 is_stmt 0 view .LVU500
 1866              	.LBE514:
 265:MultiEffect.cpp ****     inr = (feedback * outr) + ((1.0f - feedback) * inr);
 1867              		.loc 12 265 5 is_stmt 1 view .LVU501
 1868              		.loc 12 265 38 is_stmt 0 view .LVU502
 1869 012e 37EE667A 		vsub.f32	s14, s14, s13
 1870              	.LBB515:
 1871              	.LBB497:
  64:../../DaisySP/Source/Utility/delayline.h ****         write_ptr_        = (write_ptr_ - 1 + max_size) % max_size;
 1872              		.loc 13 64 9 view .LVU503
 1873 0132 86ED036A 		vstr.32	s12, [r6, #12]
 1874              	.LBE497:
 1875              	.LBE515:
 1876              		.loc 12 265 50 view .LVU504
 1877 0136 91ED006A 		vldr.32	s12, [r1]
 1878 013a 27EE067A 		vmul.f32	s14, s14, s12
 1879              		.loc 12 265 29 view .LVU505
 1880 013e A6EEA77A 		vfma.f32	s14, s13, s15
 1881              		.loc 12 265 9 view .LVU506
 1882 0142 81ED007A 		vstr.32	s14, [r1]
 266:MultiEffect.cpp **** }
 1883              		.loc 12 266 1 view .LVU507
 1884 0146 03B0     		add	sp, sp, #12
 1885              		.cfi_def_cfa_offset 36
 1886              		@ sp needed
 1887 0148 BDE8F08F 		pop	{r4, r5, r6, r7, r8, r9, r10, fp, pc}
 1888              	.L64:
 1889              		.align	2
 1890              	.L63:
 1891 014c 00000000 		.word	.LANCHOR11
 1892 0150 00000000 		.word	.LANCHOR3
 1893 0154 F7CC9238 		.word	949144823
 1894 0158 73B2E745 		.word	1172812403
 1895 015c 0C530700 		.word	_ZL4dell
 1896 0160 00000000 		.word	_ZL4delr
 1897 0164 BFD40100 		.word	119999
 1898 0168 C0D40100 		.word	120000
 1899 016c 00000000 		.word	.LANCHOR4
 1900              		.cfi_endproc
 1901              	.LFE4232:
 1903              		.section	.text._Z14GetCrushSampleRfS_,"ax",%progbits
ARM GAS  /tmp/ccVtSobE.s 			page 58


 1904              		.align	1
 1905              		.p2align 2,,3
 1906              		.global	_Z14GetCrushSampleRfS_
 1907              		.syntax unified
 1908              		.thumb
 1909              		.thumb_func
 1910              		.fpu fpv5-d16
 1912              	_Z14GetCrushSampleRfS_:
 1913              	.LVL82:
 1914              	.LFB4233:
 267:MultiEffect.cpp **** 
 268:MultiEffect.cpp **** void GetCrushSample(float &inl, float &inr)
 269:MultiEffect.cpp **** {
 1915              		.loc 12 269 1 is_stmt 1 view -0
 1916              		.cfi_startproc
 1917              		@ args = 0, pretend = 0, frame = 0
 1918              		@ frame_needed = 0, uses_anonymous_args = 0
 1919              		@ link register save eliminated.
 270:MultiEffect.cpp ****     crushcount++;
 1920              		.loc 12 270 5 view .LVU509
 271:MultiEffect.cpp ****     crushcount %= crushmod;
 1921              		.loc 12 271 5 view .LVU510
 269:MultiEffect.cpp ****     crushcount++;
 1922              		.loc 12 269 1 is_stmt 0 view .LVU511
 1923 0000 30B4     		push	{r4, r5}
 1924              		.cfi_def_cfa_offset 8
 1925              		.cfi_offset 4, -8
 1926              		.cfi_offset 5, -4
 270:MultiEffect.cpp ****     crushcount++;
 1927              		.loc 12 270 15 view .LVU512
 1928 0002 0D4C     		ldr	r4, .L69
 1929              		.loc 12 271 16 view .LVU513
 1930 0004 0D4A     		ldr	r2, .L69+4
 270:MultiEffect.cpp ****     crushcount++;
 1931              		.loc 12 270 15 view .LVU514
 1932 0006 2368     		ldr	r3, [r4]
 1933              		.loc 12 271 16 view .LVU515
 1934 0008 1568     		ldr	r5, [r2]
 270:MultiEffect.cpp ****     crushcount++;
 1935              		.loc 12 270 15 view .LVU516
 1936 000a 5A1C     		adds	r2, r3, #1
 1937              		.loc 12 271 16 view .LVU517
 1938 000c 92FBF5F3 		sdiv	r3, r2, r5
 1939 0010 05FB1323 		mls	r3, r5, r3, r2
 1940 0014 2360     		str	r3, [r4]
 272:MultiEffect.cpp ****     if(crushcount == 0)
 1941              		.loc 12 272 5 is_stmt 1 view .LVU518
 1942 0016 3BB1     		cbz	r3, .L66
 1943 0018 094A     		ldr	r2, .L69+8
 1944 001a 0A4B     		ldr	r3, .L69+12
 1945 001c 1268     		ldr	r2, [r2]	@ float
 1946              	.L67:
 273:MultiEffect.cpp ****     {
 274:MultiEffect.cpp ****         crushr = inr;
 275:MultiEffect.cpp ****         crushl = inl;
 276:MultiEffect.cpp ****     }
 277:MultiEffect.cpp **** 
ARM GAS  /tmp/ccVtSobE.s 			page 59


 278:MultiEffect.cpp ****     inr = crushr;
 1947              		.loc 12 278 5 view .LVU519
 1948              		.loc 12 278 9 is_stmt 0 view .LVU520
 1949 001e 0A60     		str	r2, [r1]	@ float
 279:MultiEffect.cpp ****     inl = crushl;
 1950              		.loc 12 279 5 is_stmt 1 view .LVU521
 1951              		.loc 12 279 9 is_stmt 0 view .LVU522
 1952 0020 1B68     		ldr	r3, [r3]	@ float
 280:MultiEffect.cpp **** }
 1953              		.loc 12 280 1 view .LVU523
 1954 0022 30BC     		pop	{r4, r5}
 1955              		.cfi_remember_state
 1956              		.cfi_restore 5
 1957              		.cfi_restore 4
 1958              		.cfi_def_cfa_offset 0
 279:MultiEffect.cpp ****     inl = crushl;
 1959              		.loc 12 279 9 view .LVU524
 1960 0024 0360     		str	r3, [r0]	@ float
 1961              		.loc 12 280 1 view .LVU525
 1962 0026 7047     		bx	lr
 1963              	.L66:
 1964              		.cfi_restore_state
 274:MultiEffect.cpp ****         crushl = inl;
 1965              		.loc 12 274 9 is_stmt 1 view .LVU526
 274:MultiEffect.cpp ****         crushl = inl;
 1966              		.loc 12 274 18 is_stmt 0 view .LVU527
 1967 0028 0A68     		ldr	r2, [r1]	@ float
 274:MultiEffect.cpp ****         crushl = inl;
 1968              		.loc 12 274 16 view .LVU528
 1969 002a 054C     		ldr	r4, .L69+8
 275:MultiEffect.cpp ****     }
 1970              		.loc 12 275 16 view .LVU529
 1971 002c 054B     		ldr	r3, .L69+12
 274:MultiEffect.cpp ****         crushl = inl;
 1972              		.loc 12 274 16 view .LVU530
 1973 002e 2260     		str	r2, [r4]	@ float
 275:MultiEffect.cpp ****     }
 1974              		.loc 12 275 9 is_stmt 1 view .LVU531
 275:MultiEffect.cpp ****     }
 1975              		.loc 12 275 18 is_stmt 0 view .LVU532
 1976 0030 0468     		ldr	r4, [r0]	@ float
 275:MultiEffect.cpp ****     }
 1977              		.loc 12 275 16 view .LVU533
 1978 0032 1C60     		str	r4, [r3]	@ float
 1979 0034 F3E7     		b	.L67
 1980              	.L70:
 1981 0036 00BF     		.align	2
 1982              	.L69:
 1983 0038 00000000 		.word	.LANCHOR12
 1984 003c 00000000 		.word	.LANCHOR6
 1985 0040 00000000 		.word	.LANCHOR13
 1986 0044 00000000 		.word	.LANCHOR14
 1987              		.cfi_endproc
 1988              	.LFE4233:
 1990              		.section	.text._Z12GetWahSampleRfS_,"ax",%progbits
 1991              		.align	1
 1992              		.p2align 2,,3
ARM GAS  /tmp/ccVtSobE.s 			page 60


 1993              		.global	_Z12GetWahSampleRfS_
 1994              		.syntax unified
 1995              		.thumb
 1996              		.thumb_func
 1997              		.fpu fpv5-d16
 1999              	_Z12GetWahSampleRfS_:
 2000              	.LVL83:
 2001              	.LFB4234:
 281:MultiEffect.cpp **** 
 282:MultiEffect.cpp **** void GetWahSample(float &inl, float &inr)
 283:MultiEffect.cpp **** {
 2002              		.loc 12 283 1 is_stmt 1 view -0
 2003              		.cfi_startproc
 2004              		@ args = 0, pretend = 0, frame = 0
 2005              		@ frame_needed = 0, uses_anonymous_args = 0
 284:MultiEffect.cpp ****     inl = wah[0].Process(inl);
 2006              		.loc 12 284 5 view .LVU535
 283:MultiEffect.cpp ****     inl = wah[0].Process(inl);
 2007              		.loc 12 283 1 is_stmt 0 view .LVU536
 2008 0000 70B5     		push	{r4, r5, r6, lr}
 2009              		.cfi_def_cfa_offset 16
 2010              		.cfi_offset 4, -16
 2011              		.cfi_offset 5, -12
 2012              		.cfi_offset 6, -8
 2013              		.cfi_offset 14, -4
 283:MultiEffect.cpp ****     inl = wah[0].Process(inl);
 2014              		.loc 12 283 1 view .LVU537
 2015 0002 0546     		mov	r5, r0
 2016              		.loc 12 284 25 view .LVU538
 2017 0004 084E     		ldr	r6, .L73
 283:MultiEffect.cpp ****     inl = wah[0].Process(inl);
 2018              		.loc 12 283 1 view .LVU539
 2019 0006 0C46     		mov	r4, r1
 2020              		.loc 12 284 25 view .LVU540
 2021 0008 3046     		mov	r0, r6
 2022              	.LVL84:
 2023              		.loc 12 284 25 view .LVU541
 2024 000a 95ED000A 		vldr.32	s0, [r5]
 2025 000e FFF7FEFF 		bl	_ZN7daisysp7Autowah7ProcessEf
 2026              	.LVL85:
 285:MultiEffect.cpp ****     inr = wah[1].Process(inr);
 2027              		.loc 12 285 25 view .LVU542
 2028 0012 06F15000 		add	r0, r6, #80
 284:MultiEffect.cpp ****     inl = wah[0].Process(inl);
 2029              		.loc 12 284 9 view .LVU543
 2030 0016 85ED000A 		vstr.32	s0, [r5]
 2031              		.loc 12 285 5 is_stmt 1 view .LVU544
 2032              		.loc 12 285 25 is_stmt 0 view .LVU545
 2033 001a 94ED000A 		vldr.32	s0, [r4]
 2034 001e FFF7FEFF 		bl	_ZN7daisysp7Autowah7ProcessEf
 2035              	.LVL86:
 2036              		.loc 12 285 9 view .LVU546
 2037 0022 84ED000A 		vstr.32	s0, [r4]
 286:MultiEffect.cpp **** }
 2038              		.loc 12 286 1 view .LVU547
 2039 0026 70BD     		pop	{r4, r5, r6, pc}
 2040              	.LVL87:
ARM GAS  /tmp/ccVtSobE.s 			page 61


 2041              	.L74:
 2042              		.loc 12 286 1 view .LVU548
 2043              		.align	2
 2044              	.L73:
 2045 0028 00000000 		.word	.LANCHOR7
 2046              		.cfi_endproc
 2047              	.LFE4234:
 2049              		.section	.text._Z9GetSampleRfS_11effectTypes,"ax",%progbits
 2050              		.align	1
 2051              		.p2align 2,,3
 2052              		.global	_Z9GetSampleRfS_11effectTypes
 2053              		.syntax unified
 2054              		.thumb
 2055              		.thumb_func
 2056              		.fpu fpv5-d16
 2058              	_Z9GetSampleRfS_11effectTypes:
 2059              	.LVL88:
 2060              	.LFB4223:
  46:MultiEffect.cpp ****     switch(type)
 2061              		.loc 12 46 1 is_stmt 1 view -0
 2062              		.cfi_startproc
 2063              		@ args = 0, pretend = 0, frame = 0
 2064              		@ frame_needed = 0, uses_anonymous_args = 0
 2065              		@ link register save eliminated.
  47:MultiEffect.cpp ****     {
 2066              		.loc 12 47 5 view .LVU550
 2067 0000 012A     		cmp	r2, #1
 2068 0002 03D0     		beq	.L76
 2069 0004 022A     		cmp	r2, #2
 2070 0006 19D0     		beq	.L77
 2071 0008 12B1     		cbz	r2, .L85
 2072 000a 7047     		bx	lr
 2073              	.L76:
  50:MultiEffect.cpp ****         case DEL: GetDelaySample(inl, inr); break;
 2074              		.loc 12 50 9 view .LVU551
  50:MultiEffect.cpp ****         case DEL: GetDelaySample(inl, inr); break;
 2075              		.loc 12 50 19 view .LVU552
  50:MultiEffect.cpp ****         case DEL: GetDelaySample(inl, inr); break;
 2076              		.loc 12 50 31 is_stmt 0 view .LVU553
 2077 000c FFF7FEBF 		b	_Z12GetWahSampleRfS_
 2078              	.LVL89:
 2079              	.L85:
  46:MultiEffect.cpp ****     switch(type)
 2080              		.loc 12 46 1 view .LVU554
 2081 0010 30B4     		push	{r4, r5}
 2082              		.cfi_def_cfa_offset 8
 2083              		.cfi_offset 4, -8
 2084              		.cfi_offset 5, -4
 2085 0012 0446     		mov	r4, r0
 2086              	.LVL90:
 2087              	.LBB520:
 2088              	.LBB521:
 2089              	.LBB522:
 2090              	.LBB523:
 270:MultiEffect.cpp ****     crushcount %= crushmod;
 2091              		.loc 12 270 15 view .LVU555
 2092 0014 0E48     		ldr	r0, .L86
ARM GAS  /tmp/ccVtSobE.s 			page 62


 2093              	.LVL91:
 270:MultiEffect.cpp ****     crushcount %= crushmod;
 2094              		.loc 12 270 15 view .LVU556
 2095 0016 0B46     		mov	r3, r1
 2096              	.LVL92:
 270:MultiEffect.cpp ****     crushcount %= crushmod;
 2097              		.loc 12 270 15 view .LVU557
 2098              	.LBE523:
 2099              	.LBE522:
 2100              	.LBE521:
 2101              	.LBI520:
  45:MultiEffect.cpp **** {
 2102              		.loc 12 45 6 is_stmt 1 view .LVU558
 2103              	.LBB528:
  49:MultiEffect.cpp ****         case WAH: GetWahSample(inl, inr); break;
 2104              		.loc 12 49 9 view .LVU559
  49:MultiEffect.cpp ****         case WAH: GetWahSample(inl, inr); break;
 2105              		.loc 12 49 21 view .LVU560
 2106              	.LBB526:
 2107              	.LBI522:
 268:MultiEffect.cpp **** {
 2108              		.loc 12 268 6 view .LVU561
 2109              	.LBB524:
 270:MultiEffect.cpp ****     crushcount %= crushmod;
 2110              		.loc 12 270 5 view .LVU562
 271:MultiEffect.cpp ****     if(crushcount == 0)
 2111              		.loc 12 271 5 view .LVU563
 271:MultiEffect.cpp ****     if(crushcount == 0)
 2112              		.loc 12 271 16 is_stmt 0 view .LVU564
 2113 0018 0E49     		ldr	r1, .L86+4
 2114              	.LVL93:
 270:MultiEffect.cpp ****     crushcount %= crushmod;
 2115              		.loc 12 270 15 view .LVU565
 2116 001a 0268     		ldr	r2, [r0]
 2117              	.LVL94:
 271:MultiEffect.cpp ****     if(crushcount == 0)
 2118              		.loc 12 271 16 view .LVU566
 2119 001c 0D68     		ldr	r5, [r1]
 270:MultiEffect.cpp ****     crushcount %= crushmod;
 2120              		.loc 12 270 15 view .LVU567
 2121 001e 511C     		adds	r1, r2, #1
 271:MultiEffect.cpp ****     if(crushcount == 0)
 2122              		.loc 12 271 16 view .LVU568
 2123 0020 91FBF5F2 		sdiv	r2, r1, r5
 2124 0024 05FB1212 		mls	r2, r5, r2, r1
 2125 0028 0260     		str	r2, [r0]
 272:MultiEffect.cpp ****     {
 2126              		.loc 12 272 5 is_stmt 1 view .LVU569
 2127 002a 4AB1     		cbz	r2, .L79
 272:MultiEffect.cpp ****     {
 2128              		.loc 12 272 5 is_stmt 0 view .LVU570
 2129 002c 0A49     		ldr	r1, .L86+8
 2130 002e 0B4A     		ldr	r2, .L86+12
 2131 0030 0968     		ldr	r1, [r1]	@ float
 2132              	.L80:
 278:MultiEffect.cpp ****     inl = crushl;
 2133              		.loc 12 278 5 is_stmt 1 view .LVU571
ARM GAS  /tmp/ccVtSobE.s 			page 63


 278:MultiEffect.cpp ****     inl = crushl;
 2134              		.loc 12 278 9 is_stmt 0 view .LVU572
 2135 0032 1960     		str	r1, [r3]	@ float
 279:MultiEffect.cpp **** }
 2136              		.loc 12 279 5 is_stmt 1 view .LVU573
 279:MultiEffect.cpp **** }
 2137              		.loc 12 279 9 is_stmt 0 view .LVU574
 2138 0034 1368     		ldr	r3, [r2]	@ float
 2139              	.LVL95:
 279:MultiEffect.cpp **** }
 2140              		.loc 12 279 9 view .LVU575
 2141 0036 2360     		str	r3, [r4]	@ float
 2142              	.LVL96:
 279:MultiEffect.cpp **** }
 2143              		.loc 12 279 9 view .LVU576
 2144              	.LBE524:
 2145              	.LBE526:
 2146              	.LBE528:
 2147              	.LBE520:
  54:MultiEffect.cpp **** 
 2148              		.loc 12 54 1 view .LVU577
 2149 0038 30BC     		pop	{r4, r5}
 2150              		.cfi_restore 5
 2151              		.cfi_restore 4
 2152              		.cfi_def_cfa_offset 0
 2153              	.LVL97:
  54:MultiEffect.cpp **** 
 2154              		.loc 12 54 1 view .LVU578
 2155 003a 7047     		bx	lr
 2156              	.LVL98:
 2157              	.L77:
  51:MultiEffect.cpp ****         default: break;
 2158              		.loc 12 51 9 is_stmt 1 view .LVU579
  51:MultiEffect.cpp ****         default: break;
 2159              		.loc 12 51 19 view .LVU580
  51:MultiEffect.cpp ****         default: break;
 2160              		.loc 12 51 33 is_stmt 0 view .LVU581
 2161 003c FFF7FEBF 		b	_Z14GetDelaySampleRfS_
 2162              	.LVL99:
 2163              	.L79:
 2164              		.cfi_def_cfa_offset 8
 2165              		.cfi_offset 4, -8
 2166              		.cfi_offset 5, -4
 2167              	.LBB530:
 2168              	.LBB529:
 2169              	.LBB527:
 2170              	.LBB525:
 274:MultiEffect.cpp ****         crushl = inl;
 2171              		.loc 12 274 9 is_stmt 1 view .LVU582
 274:MultiEffect.cpp ****         crushl = inl;
 2172              		.loc 12 274 18 is_stmt 0 view .LVU583
 2173 0040 1968     		ldr	r1, [r3]	@ float
 274:MultiEffect.cpp ****         crushl = inl;
 2174              		.loc 12 274 16 view .LVU584
 2175 0042 0548     		ldr	r0, .L86+8
 275:MultiEffect.cpp ****     }
 2176              		.loc 12 275 16 view .LVU585
ARM GAS  /tmp/ccVtSobE.s 			page 64


 2177 0044 054A     		ldr	r2, .L86+12
 274:MultiEffect.cpp ****         crushl = inl;
 2178              		.loc 12 274 16 view .LVU586
 2179 0046 0160     		str	r1, [r0]	@ float
 275:MultiEffect.cpp ****     }
 2180              		.loc 12 275 9 is_stmt 1 view .LVU587
 275:MultiEffect.cpp ****     }
 2181              		.loc 12 275 18 is_stmt 0 view .LVU588
 2182 0048 2068     		ldr	r0, [r4]	@ float
 275:MultiEffect.cpp ****     }
 2183              		.loc 12 275 16 view .LVU589
 2184 004a 1060     		str	r0, [r2]	@ float
 2185 004c F1E7     		b	.L80
 2186              	.L87:
 2187 004e 00BF     		.align	2
 2188              	.L86:
 2189 0050 00000000 		.word	.LANCHOR12
 2190 0054 00000000 		.word	.LANCHOR6
 2191 0058 00000000 		.word	.LANCHOR13
 2192 005c 00000000 		.word	.LANCHOR14
 2193              	.LBE525:
 2194              	.LBE527:
 2195              	.LBE529:
 2196              	.LBE530:
 2197              		.cfi_endproc
 2198              	.LFE4223:
 2200              		.section	.text._Z13AudioCallbackPKfPfj,"ax",%progbits
 2201              		.align	1
 2202              		.p2align 2,,3
 2203              		.global	_Z13AudioCallbackPKfPfj
 2204              		.syntax unified
 2205              		.thumb
 2206              		.thumb_func
 2207              		.fpu fpv5-d16
 2209              	_Z13AudioCallbackPKfPfj:
 2210              	.LVL100:
 2211              	.LFB4224:
  59:MultiEffect.cpp ****     Controls();
 2212              		.loc 12 59 1 is_stmt 1 view -0
 2213              		.cfi_startproc
 2214              		@ args = 0, pretend = 0, frame = 24
 2215              		@ frame_needed = 0, uses_anonymous_args = 0
  60:MultiEffect.cpp **** 
 2216              		.loc 12 60 5 view .LVU591
  59:MultiEffect.cpp ****     Controls();
 2217              		.loc 12 59 1 is_stmt 0 view .LVU592
 2218 0000 2DE9F04F 		push	{r4, r5, r6, r7, r8, r9, r10, fp, lr}
 2219              		.cfi_def_cfa_offset 36
 2220              		.cfi_offset 4, -36
 2221              		.cfi_offset 5, -32
 2222              		.cfi_offset 6, -28
 2223              		.cfi_offset 7, -24
 2224              		.cfi_offset 8, -20
 2225              		.cfi_offset 9, -16
 2226              		.cfi_offset 10, -12
 2227              		.cfi_offset 11, -8
 2228              		.cfi_offset 14, -4
ARM GAS  /tmp/ccVtSobE.s 			page 65


 2229 0004 1446     		mov	r4, r2
 2230 0006 8046     		mov	r8, r0
 2231 0008 0E46     		mov	r6, r1
 2232 000a 2DED048B 		vpush.64	{d8, d9}
 2233              		.cfi_def_cfa_offset 52
 2234              		.cfi_offset 80, -52
 2235              		.cfi_offset 81, -48
 2236              		.cfi_offset 82, -44
 2237              		.cfi_offset 83, -40
 2238 000e 89B0     		sub	sp, sp, #36
 2239              		.cfi_def_cfa_offset 88
  60:MultiEffect.cpp **** 
 2240              		.loc 12 60 13 view .LVU593
 2241 0010 FFF7FEFF 		bl	_Z8Controlsv
 2242              	.LVL101:
  63:MultiEffect.cpp ****     {
 2243              		.loc 12 63 5 is_stmt 1 view .LVU594
 2244              	.LBB531:
  63:MultiEffect.cpp ****     {
 2245              		.loc 12 63 25 view .LVU595
 2246 0014 002C     		cmp	r4, #0
 2247 0016 78D0     		beq	.L88
 2248 0018 013C     		subs	r4, r4, #1
 2249              	.LVL102:
  63:MultiEffect.cpp ****     {
 2250              		.loc 12 63 25 is_stmt 0 view .LVU596
 2251 001a 06F10803 		add	r3, r6, #8
 2252 001e 08F10409 		add	r9, r8, #4
 2253 0022 DFF804A1 		ldr	r10, .L102
 2254 0026 6408     		lsrs	r4, r4, #1
 2255              	.LVL103:
  63:MultiEffect.cpp ****     {
 2256              		.loc 12 63 25 view .LVU597
 2257 0028 07AF     		add	r7, sp, #28
 2258 002a 03EBC403 		add	r3, r3, r4, lsl #3
 2259 002e 0393     		str	r3, [sp, #12]
 2260              	.LVL104:
 2261              	.L94:
 2262              	.LBB532:
  65:MultiEffect.cpp ****         float sigr = in[i + 1];
 2263              		.loc 12 65 9 is_stmt 1 view .LVU598
  65:MultiEffect.cpp ****         float sigr = in[i + 1];
 2264              		.loc 12 65 26 is_stmt 0 view .LVU599
 2265 0030 59ED018A 		vldr.32	s17, [r9, #-4]
 2266              	.LBB533:
  68:MultiEffect.cpp ****         {
 2267              		.loc 12 68 17 view .LVU600
 2268 0034 0024     		movs	r4, #0
 2269              	.LBE533:
  66:MultiEffect.cpp **** 
 2270              		.loc 12 66 30 view .LVU601
 2271 0036 98ED018A 		vldr.32	s16, [r8, #4]
 2272 003a DFF8F4B0 		ldr	fp, .L102+8
 2273 003e 3A4D     		ldr	r5, .L102
  65:MultiEffect.cpp ****         float sigr = in[i + 1];
 2274              		.loc 12 65 15 view .LVU602
 2275 0040 CDED048A 		vstr.32	s17, [sp, #16]
ARM GAS  /tmp/ccVtSobE.s 			page 66


  66:MultiEffect.cpp **** 
 2276              		.loc 12 66 9 is_stmt 1 view .LVU603
  66:MultiEffect.cpp **** 
 2277              		.loc 12 66 15 is_stmt 0 view .LVU604
 2278 0044 8DED058A 		vstr.32	s16, [sp, #20]
  68:MultiEffect.cpp ****         {
 2279              		.loc 12 68 9 is_stmt 1 view .LVU605
 2280              	.LVL105:
 2281              	.LBB538:
  68:MultiEffect.cpp ****         {
 2282              		.loc 12 68 30 view .LVU606
 2283              	.L91:
 2284              	.LBB534:
  70:MultiEffect.cpp ****             float oldSigR = sigr;
 2285              		.loc 12 70 13 view .LVU607
  71:MultiEffect.cpp **** 
 2286              		.loc 12 71 13 view .LVU608
  73:MultiEffect.cpp ****             {
 2287              		.loc 12 73 13 view .LVU609
  73:MultiEffect.cpp ****             {
 2288              		.loc 12 73 28 is_stmt 0 view .LVU610
 2289 0048 1BF8013B 		ldrb	r3, [fp], #1	@ zero_extendqisi2
 2290 004c F0EE486A 		vmov.f32	s13, s16
 2291 0050 B0EE686A 		vmov.f32	s12, s17
  73:MultiEffect.cpp ****             {
 2292              		.loc 12 73 13 view .LVU611
 2293 0054 002B     		cmp	r3, #0
 2294 0056 5DD1     		bne	.L101
 2295              	.LVL106:
 2296              	.L90:
  78:MultiEffect.cpp ****             sigr = sigr * dryWet[eff] + oldSigR * (1 - dryWet[eff]);
 2297              		.loc 12 78 13 is_stmt 1 discriminator 2 view .LVU612
  78:MultiEffect.cpp ****             sigr = sigr * dryWet[eff] + oldSigR * (1 - dryWet[eff]);
 2298              		.loc 12 78 54 is_stmt 0 discriminator 2 view .LVU613
 2299 0058 B7EE009A 		vmov.f32	s18, #1.0e+0
  78:MultiEffect.cpp ****             sigr = sigr * dryWet[eff] + oldSigR * (1 - dryWet[eff]);
 2300              		.loc 12 78 37 discriminator 2 view .LVU614
 2301 005c B5EC017A 		vldmia.32	r5!, {s14}
 2302              	.LBE534:
  68:MultiEffect.cpp ****         {
 2303              		.loc 12 68 9 discriminator 2 view .LVU615
 2304 0060 0134     		adds	r4, r4, #1
 2305              	.LVL107:
 2306              	.LBB535:
  78:MultiEffect.cpp ****             sigr = sigr * dryWet[eff] + oldSigR * (1 - dryWet[eff]);
 2307              		.loc 12 78 54 discriminator 2 view .LVU616
 2308 0062 79EE477A 		vsub.f32	s15, s18, s14
 2309              	.LBE535:
  68:MultiEffect.cpp ****         {
 2310              		.loc 12 68 30 discriminator 2 view .LVU617
 2311 0066 032C     		cmp	r4, #3
 2312              	.LBB536:
  78:MultiEffect.cpp ****             sigr = sigr * dryWet[eff] + oldSigR * (1 - dryWet[eff]);
 2313              		.loc 12 78 49 discriminator 2 view .LVU618
 2314 0068 67EEA88A 		vmul.f32	s17, s15, s17
  79:MultiEffect.cpp ****         }
 2315              		.loc 12 79 49 discriminator 2 view .LVU619
ARM GAS  /tmp/ccVtSobE.s 			page 67


 2316 006c 27EE888A 		vmul.f32	s16, s15, s16
  78:MultiEffect.cpp ****             sigr = sigr * dryWet[eff] + oldSigR * (1 - dryWet[eff]);
 2317              		.loc 12 78 39 discriminator 2 view .LVU620
 2318 0070 E7EE068A 		vfma.f32	s17, s14, s12
  79:MultiEffect.cpp ****         }
 2319              		.loc 12 79 39 discriminator 2 view .LVU621
 2320 0074 A7EE268A 		vfma.f32	s16, s14, s13
  78:MultiEffect.cpp ****             sigr = sigr * dryWet[eff] + oldSigR * (1 - dryWet[eff]);
 2321              		.loc 12 78 18 discriminator 2 view .LVU622
 2322 0078 CDED048A 		vstr.32	s17, [sp, #16]
  79:MultiEffect.cpp ****         }
 2323              		.loc 12 79 13 is_stmt 1 discriminator 2 view .LVU623
  79:MultiEffect.cpp ****         }
 2324              		.loc 12 79 18 is_stmt 0 discriminator 2 view .LVU624
 2325 007c 8DED058A 		vstr.32	s16, [sp, #20]
 2326              	.LBE536:
  68:MultiEffect.cpp ****         {
 2327              		.loc 12 68 9 is_stmt 1 discriminator 2 view .LVU625
 2328              	.LVL108:
  68:MultiEffect.cpp ****         {
 2329              		.loc 12 68 30 discriminator 2 view .LVU626
 2330 0080 E2D1     		bne	.L91
 2331              	.LBE538:
  82:MultiEffect.cpp ****         float verbr = sigr * dryWet[REV];
 2332              		.loc 12 82 9 view .LVU627
  82:MultiEffect.cpp ****         float verbr = sigr * dryWet[REV];
 2333              		.loc 12 82 40 is_stmt 0 view .LVU628
 2334 0082 DAED037A 		vldr.32	s15, [r10, #12]
 2335              	.LBB539:
 2336              	.LBB540:
 250:MultiEffect.cpp **** }
 2337              		.loc 12 250 16 view .LVU629
 2338 0086 06AB     		add	r3, sp, #24
 2339 0088 3A46     		mov	r2, r7
 2340 008a 2848     		ldr	r0, .L102+4
 2341              	.LBE540:
 2342              	.LBE539:
  82:MultiEffect.cpp ****         float verbr = sigr * dryWet[REV];
 2343              		.loc 12 82 28 view .LVU630
 2344 008c 68EEA78A 		vmul.f32	s17, s17, s15
 2345              	.LBB544:
 2346              	.LBB541:
 250:MultiEffect.cpp **** }
 2347              		.loc 12 250 16 view .LVU631
 2348 0090 1946     		mov	r1, r3
 2349              	.LBE541:
 2350              	.LBE544:
  83:MultiEffect.cpp ****         GetReverbSample(verbl, verbr);
 2351              		.loc 12 83 28 view .LVU632
 2352 0092 28EE278A 		vmul.f32	s16, s16, s15
 2353              	.LBB545:
 2354              	.LBB542:
 250:MultiEffect.cpp **** }
 2355              		.loc 12 250 16 view .LVU633
 2356 0096 0097     		str	r7, [sp]
 2357              	.LBE542:
 2358              	.LBE545:
ARM GAS  /tmp/ccVtSobE.s 			page 68


  82:MultiEffect.cpp ****         float verbr = sigr * dryWet[REV];
 2359              		.loc 12 82 15 view .LVU634
 2360 0098 CDED068A 		vstr.32	s17, [sp, #24]
  83:MultiEffect.cpp ****         GetReverbSample(verbl, verbr);
 2361              		.loc 12 83 9 is_stmt 1 view .LVU635
  83:MultiEffect.cpp ****         GetReverbSample(verbl, verbr);
 2362              		.loc 12 83 15 is_stmt 0 view .LVU636
 2363 009c 8DED078A 		vstr.32	s16, [sp, #28]
  84:MultiEffect.cpp **** 
 2364              		.loc 12 84 9 is_stmt 1 view .LVU637
 2365              	.LVL109:
 2366              	.LBB546:
 2367              	.LBI539:
 248:MultiEffect.cpp **** {
 2368              		.loc 12 248 6 view .LVU638
 2369              	.LBB543:
 250:MultiEffect.cpp **** }
 2370              		.loc 12 250 5 view .LVU639
 250:MultiEffect.cpp **** }
 2371              		.loc 12 250 16 is_stmt 0 view .LVU640
 2372 00a0 FFF7FEFF 		bl	_ZN7daisysp8ReverbSc7ProcessERKfS2_PfS3_
 2373              	.LVL110:
 250:MultiEffect.cpp **** }
 2374              		.loc 12 250 16 view .LVU641
 2375              	.LBE543:
 2376              	.LBE546:
  86:MultiEffect.cpp ****         out[i + 1] = sigr * dryWet[ALL] + in[i + 1] * (1 - dryWet[ALL]);
 2377              		.loc 12 86 9 is_stmt 1 view .LVU642
  86:MultiEffect.cpp ****         out[i + 1] = sigr * dryWet[ALL] + in[i + 1] * (1 - dryWet[ALL]);
 2378              		.loc 12 86 39 is_stmt 0 view .LVU643
 2379 00a4 9AED047A 		vldr.32	s14, [r10, #16]
  86:MultiEffect.cpp ****         out[i + 1] = sigr * dryWet[ALL] + in[i + 1] * (1 - dryWet[ALL]);
 2380              		.loc 12 86 49 view .LVU644
 2381 00a8 59ED015A 		vldr.32	s11, [r9, #-4]
  86:MultiEffect.cpp ****         out[i + 1] = sigr * dryWet[ALL] + in[i + 1] * (1 - dryWet[ALL]);
 2382              		.loc 12 86 54 view .LVU645
 2383 00ac 79EE477A 		vsub.f32	s15, s18, s14
  86:MultiEffect.cpp ****         out[i + 1] = sigr * dryWet[ALL] + in[i + 1] * (1 - dryWet[ALL]);
 2384              		.loc 12 86 41 view .LVU646
 2385 00b0 9DED046A 		vldr.32	s12, [sp, #16]
  89:MultiEffect.cpp ****         {
 2386              		.loc 12 89 9 view .LVU647
 2387 00b4 1E4B     		ldr	r3, .L102+8
  87:MultiEffect.cpp **** 
 2388              		.loc 12 87 41 view .LVU648
 2389 00b6 DDED056A 		vldr.32	s13, [sp, #20]
  86:MultiEffect.cpp ****         out[i + 1] = sigr * dryWet[ALL] + in[i + 1] * (1 - dryWet[ALL]);
 2390              		.loc 12 86 49 view .LVU649
 2391 00ba 67EEA57A 		vmul.f32	s15, s15, s11
  89:MultiEffect.cpp ****         {
 2392              		.loc 12 89 9 view .LVU650
 2393 00be DB78     		ldrb	r3, [r3, #3]	@ zero_extendqisi2
  86:MultiEffect.cpp ****         out[i + 1] = sigr * dryWet[ALL] + in[i + 1] * (1 - dryWet[ALL]);
 2394              		.loc 12 86 41 view .LVU651
 2395 00c0 E7EE067A 		vfma.f32	s15, s14, s12
  86:MultiEffect.cpp ****         out[i + 1] = sigr * dryWet[ALL] + in[i + 1] * (1 - dryWet[ALL]);
 2396              		.loc 12 86 20 view .LVU652
ARM GAS  /tmp/ccVtSobE.s 			page 69


 2397 00c4 C6ED007A 		vstr.32	s15, [r6]
  87:MultiEffect.cpp **** 
 2398              		.loc 12 87 9 is_stmt 1 view .LVU653
  87:MultiEffect.cpp **** 
 2399              		.loc 12 87 39 is_stmt 0 view .LVU654
 2400 00c8 9AED047A 		vldr.32	s14, [r10, #16]
  87:MultiEffect.cpp **** 
 2401              		.loc 12 87 53 view .LVU655
 2402 00cc 98ED016A 		vldr.32	s12, [r8, #4]
  87:MultiEffect.cpp **** 
 2403              		.loc 12 87 58 view .LVU656
 2404 00d0 39EE479A 		vsub.f32	s18, s18, s14
  87:MultiEffect.cpp **** 
 2405              		.loc 12 87 53 view .LVU657
 2406 00d4 29EE069A 		vmul.f32	s18, s18, s12
  87:MultiEffect.cpp **** 
 2407              		.loc 12 87 41 view .LVU658
 2408 00d8 A7EE269A 		vfma.f32	s18, s14, s13
  87:MultiEffect.cpp **** 
 2409              		.loc 12 87 20 view .LVU659
 2410 00dc 86ED019A 		vstr.32	s18, [r6, #4]
  89:MultiEffect.cpp ****         {
 2411              		.loc 12 89 9 is_stmt 1 view .LVU660
 2412 00e0 5BB1     		cbz	r3, .L92
  91:MultiEffect.cpp ****             out[i + 1] += verbr;
 2413              		.loc 12 91 13 view .LVU661
  91:MultiEffect.cpp ****             out[i + 1] += verbr;
 2414              		.loc 12 91 20 is_stmt 0 view .LVU662
 2415 00e2 DDED066A 		vldr.32	s13, [sp, #24]
  92:MultiEffect.cpp ****         }
 2416              		.loc 12 92 24 view .LVU663
 2417 00e6 9DED077A 		vldr.32	s14, [sp, #28]
  91:MultiEffect.cpp ****             out[i + 1] += verbr;
 2418              		.loc 12 91 20 view .LVU664
 2419 00ea 76EEA77A 		vadd.f32	s15, s13, s15
  92:MultiEffect.cpp ****         }
 2420              		.loc 12 92 24 view .LVU665
 2421 00ee 37EE099A 		vadd.f32	s18, s14, s18
  91:MultiEffect.cpp ****             out[i + 1] += verbr;
 2422              		.loc 12 91 20 view .LVU666
 2423 00f2 C6ED007A 		vstr.32	s15, [r6]
  92:MultiEffect.cpp ****         }
 2424              		.loc 12 92 13 is_stmt 1 view .LVU667
  92:MultiEffect.cpp ****         }
 2425              		.loc 12 92 24 is_stmt 0 view .LVU668
 2426 00f6 86ED019A 		vstr.32	s18, [r6, #4]
 2427              	.L92:
 2428              	.LBE532:
  63:MultiEffect.cpp ****     {
 2429              		.loc 12 63 5 is_stmt 1 discriminator 2 view .LVU669
  63:MultiEffect.cpp ****     {
 2430              		.loc 12 63 25 discriminator 2 view .LVU670
 2431 00fa 0836     		adds	r6, r6, #8
 2432 00fc 039B     		ldr	r3, [sp, #12]
 2433 00fe 08F10808 		add	r8, r8, #8
 2434 0102 09F10809 		add	r9, r9, #8
 2435 0106 9E42     		cmp	r6, r3
ARM GAS  /tmp/ccVtSobE.s 			page 70


 2436 0108 92D1     		bne	.L94
 2437              	.LVL111:
 2438              	.L88:
  63:MultiEffect.cpp ****     {
 2439              		.loc 12 63 25 is_stmt 0 discriminator 2 view .LVU671
 2440              	.LBE531:
  95:MultiEffect.cpp **** 
 2441              		.loc 12 95 1 view .LVU672
 2442 010a 09B0     		add	sp, sp, #36
 2443              		.cfi_remember_state
 2444              		.cfi_def_cfa_offset 52
 2445              		@ sp needed
 2446 010c BDEC048B 		vldm	sp!, {d8-d9}
 2447              		.cfi_restore 82
 2448              		.cfi_restore 83
 2449              		.cfi_restore 80
 2450              		.cfi_restore 81
 2451              		.cfi_def_cfa_offset 36
 2452 0110 BDE8F08F 		pop	{r4, r5, r6, r7, r8, r9, r10, fp, pc}
 2453              	.LVL112:
 2454              	.L101:
 2455              		.cfi_restore_state
 2456              	.LBB549:
 2457              	.LBB548:
 2458              	.LBB547:
 2459              	.LBB537:
  75:MultiEffect.cpp ****             }
 2460              		.loc 12 75 17 is_stmt 1 view .LVU673
  75:MultiEffect.cpp ****             }
 2461              		.loc 12 75 26 is_stmt 0 view .LVU674
 2462 0114 E2B2     		uxtb	r2, r4
 2463 0116 05A9     		add	r1, sp, #20
 2464              	.LVL113:
  75:MultiEffect.cpp ****             }
 2465              		.loc 12 75 26 view .LVU675
 2466 0118 04A8     		add	r0, sp, #16
 2467              	.LVL114:
  75:MultiEffect.cpp ****             }
 2468              		.loc 12 75 26 view .LVU676
 2469 011a FFF7FEFF 		bl	_Z9GetSampleRfS_11effectTypes
 2470              	.LVL115:
  75:MultiEffect.cpp ****             }
 2471              		.loc 12 75 26 view .LVU677
 2472 011e 9DED046A 		vldr.32	s12, [sp, #16]
 2473 0122 DDED056A 		vldr.32	s13, [sp, #20]
 2474 0126 97E7     		b	.L90
 2475              	.L103:
 2476              		.align	2
 2477              	.L102:
 2478 0128 00000000 		.word	.LANCHOR9
 2479 012c 00000000 		.word	_ZL3rev
 2480 0130 00000000 		.word	.LANCHOR10
 2481              	.LBE537:
 2482              	.LBE547:
 2483              	.LBE548:
 2484              	.LBE549:
 2485              		.cfi_endproc
ARM GAS  /tmp/ccVtSobE.s 			page 71


 2486              	.LFE4224:
 2488              		.section	.text.startup._GLOBAL__sub_I_currentDelay,"ax",%progbits
 2489              		.align	1
 2490              		.p2align 2,,3
 2491              		.syntax unified
 2492              		.thumb
 2493              		.thumb_func
 2494              		.fpu fpv5-d16
 2496              	_GLOBAL__sub_I_currentDelay:
 2497              	.LFB4792:
 2498              		.loc 12 286 1 is_stmt 1 view -0
 2499              		.cfi_startproc
 2500              		@ args = 0, pretend = 0, frame = 0
 2501              		@ frame_needed = 0, uses_anonymous_args = 0
 2502              	.LBB604:
 2503              	.LBI604:
 2504              		.loc 12 286 1 view .LVU679
 2505              	.LVL116:
 2506              	.LBB605:
 2507              	.LBB606:
 2508              	.LBI606:
  66:../../libdaisy/src/daisy_petal.h ****     /** Destructor */
 2509              		.loc 4 66 5 view .LVU680
 2510              	.LBB607:
 2511              	.LBB608:
 2512              	.LBI608:
  21:../../libdaisy/src/daisy_seed.h ****     ~DaisySeed() {}
 2513              		.loc 7 21 5 view .LVU681
 2514              	.LBB609:
 2515              	.LBB610:
 2516              	.LBI610:
  62:../../libdaisy/src/hid/audio.h ****     ~AudioHandle() {}
 2517              		.loc 11 62 5 view .LVU682
 2518              	.LBE610:
 2519              	.LBE609:
 2520              	.LBE608:
 2521              	.LBE607:
 2522              	.LBE606:
 2523              	.LBE605:
 2524              	.LBE604:
 2525              		.loc 12 286 1 is_stmt 0 view .LVU683
 2526 0000 F8B5     		push	{r3, r4, r5, r6, r7, lr}
 2527              		.cfi_def_cfa_offset 24
 2528              		.cfi_offset 3, -24
 2529              		.cfi_offset 4, -20
 2530              		.cfi_offset 5, -16
 2531              		.cfi_offset 6, -12
 2532              		.cfi_offset 7, -8
 2533              		.cfi_offset 14, -4
 2534              	.LBB667:
 2535              	.LBB663:
 2536              	.LBB647:
 2537              	.LBB643:
 2538              	.LBB627:
 2539              	.LBB624:
 2540              	.LBB615:
 2541              	.LBB611:
ARM GAS  /tmp/ccVtSobE.s 			page 72


 2542              	.LBB612:
  62:../../libdaisy/src/hid/audio.h ****     ~AudioHandle() {}
 2543              		.loc 11 62 35 view .LVU684
 2544 0002 1D4D     		ldr	r5, .L106
 2545 0004 0026     		movs	r6, #0
 2546              	.LBE612:
 2547              	.LBE611:
 2548              	.LBE615:
 2549              	.LBE624:
 2550              	.LBE627:
 2551              	.LBE643:
 2552              	.LBE647:
  10:MultiEffect.cpp **** 
 2553              		.loc 12 10 19 view .LVU685
 2554 0006 1D4C     		ldr	r4, .L106+4
 2555              	.LBB648:
 2556              	.LBB644:
 2557              	.LBB628:
 2558              	.LBB629:
 2559              		.file 16 "../../libdaisy/src/dev/leddriver.h"
   1:../../libdaisy/src/dev/leddriver.h **** #pragma once
   2:../../libdaisy/src/dev/leddriver.h **** #ifndef SA_LED_DRIVER_H
   3:../../libdaisy/src/dev/leddriver.h **** #define SA_LED_DRIVER_H /**< & */
   4:../../libdaisy/src/dev/leddriver.h **** 
   5:../../libdaisy/src/dev/leddriver.h **** #ifdef __cplusplus
   6:../../libdaisy/src/dev/leddriver.h **** 
   7:../../libdaisy/src/dev/leddriver.h **** #include <stdint.h>
   8:../../libdaisy/src/dev/leddriver.h **** #include "per/i2c.h"
   9:../../libdaisy/src/dev/leddriver.h **** #include "per/gpio.h"
  10:../../libdaisy/src/dev/leddriver.h **** 
  11:../../libdaisy/src/dev/leddriver.h **** namespace daisy
  12:../../libdaisy/src/dev/leddriver.h **** {
  13:../../libdaisy/src/dev/leddriver.h **** /** LED driver for one or multiple PCA9685 12bit PWM chips connected to
  14:../../libdaisy/src/dev/leddriver.h ****  * a single I2C peripheral.
  15:../../libdaisy/src/dev/leddriver.h ****  * It includes gamma correction from 8bit brightness values but it 
  16:../../libdaisy/src/dev/leddriver.h ****  * can also be supplied with raw 12bit values.
  17:../../libdaisy/src/dev/leddriver.h ****  * This driver uses two buffers - one for drawing, one for transmitting.
  18:../../libdaisy/src/dev/leddriver.h ****  * Multiple LedDriverPca9685 instances can be used at the same time.
  19:../../libdaisy/src/dev/leddriver.h ****  * \param numDrivers    The number of PCA9685 driver attached to the I2C
  20:../../libdaisy/src/dev/leddriver.h ****  *                      peripheral.
  21:../../libdaisy/src/dev/leddriver.h ****  * \param persistentBufferContents If set to true, the current draw buffer 
  22:../../libdaisy/src/dev/leddriver.h ****  *                      contents will be copied to the next draw buffer 
  23:../../libdaisy/src/dev/leddriver.h ****  *                      during SwapBuffersAndTransmit(). Use this, if you plan
  24:../../libdaisy/src/dev/leddriver.h ****  *                      to write single leds at a time. 
  25:../../libdaisy/src/dev/leddriver.h ****  *                      If you will alway update all leds before calling 
  26:../../libdaisy/src/dev/leddriver.h ****  *                      SwapBuffersAndTransmit(), you can set this to false
  27:../../libdaisy/src/dev/leddriver.h ****  *                      and safe some cycles.
  28:../../libdaisy/src/dev/leddriver.h ****  */
  29:../../libdaisy/src/dev/leddriver.h **** template <int numDrivers, bool persistentBufferContents = true>
  30:../../libdaisy/src/dev/leddriver.h **** class LedDriverPca9685
 2560              		.loc 16 30 7 view .LVU686
 2561 0008 4FF40072 		mov	r2, #512
 2562              	.LBE629:
 2563              	.LBE628:
 2564              	.LBB635:
 2565              	.LBB625:
 2566              	.LBB616:
ARM GAS  /tmp/ccVtSobE.s 			page 73


 2567              	.LBB614:
 2568              	.LBB613:
  62:../../libdaisy/src/hid/audio.h ****     ~AudioHandle() {}
 2569              		.loc 11 62 35 view .LVU687
 2570 000c 6E61     		str	r6, [r5, #20]
 2571              	.LVL117:
  62:../../libdaisy/src/hid/audio.h ****     ~AudioHandle() {}
 2572              		.loc 11 62 35 view .LVU688
 2573              	.LBE613:
 2574              	.LBE614:
 2575              	.LBE616:
 2576              	.LBB617:
 2577              	.LBI617:
  84:../../libdaisy/src/per/adc.h ****     ~AdcHandle() {}
 2578              		.loc 10 84 5 is_stmt 1 view .LVU689
  84:../../libdaisy/src/per/adc.h ****     ~AdcHandle() {}
 2579              		.loc 10 84 5 is_stmt 0 view .LVU690
 2580              	.LBE617:
 2581              	.LBB618:
 2582              	.LBI618:
 2583              		.file 17 "../../libdaisy/src/per/dac.h"
   1:../../libdaisy/src/per/dac.h **** #pragma once
   2:../../libdaisy/src/per/dac.h **** #ifndef DSY_DAC_H
   3:../../libdaisy/src/per/dac.h **** #define DSY_DAC_H
   4:../../libdaisy/src/per/dac.h **** 
   5:../../libdaisy/src/per/dac.h **** #include "daisy_core.h"
   6:../../libdaisy/src/per/dac.h **** 
   7:../../libdaisy/src/per/dac.h **** namespace daisy
   8:../../libdaisy/src/per/dac.h **** {
   9:../../libdaisy/src/per/dac.h **** /** DAC handle for Built-in DAC Peripheral 
  10:../../libdaisy/src/per/dac.h ****  ** 
  11:../../libdaisy/src/per/dac.h ****  ** For now only Normal Mode is supported,
  12:../../libdaisy/src/per/dac.h ****  ** Sample and hold mode provides reduced power consumption, but requires a bit more setup.
  13:../../libdaisy/src/per/dac.h ****  **
  14:../../libdaisy/src/per/dac.h ****  ** For now connecting the DAC through other internal periphearls is also not supported.
  15:../../libdaisy/src/per/dac.h ****  **
  16:../../libdaisy/src/per/dac.h ****  ** Since the DAC channels have dedicated pins we don't need to pass in a pin config like with
  17:../../libdaisy/src/per/dac.h ****  ** other modules. However, it is still important to not try to use the DAC pins for anything else.
  18:../../libdaisy/src/per/dac.h ****  ** DAC Channel 1 is on PA4, and DAC Channel 2 is on PA5
  19:../../libdaisy/src/per/dac.h ****  ***/
  20:../../libdaisy/src/per/dac.h **** class DacHandle
  21:../../libdaisy/src/per/dac.h **** {
  22:../../libdaisy/src/per/dac.h ****   public:
  23:../../libdaisy/src/per/dac.h ****     /** Return Values for the DacHandle class */
  24:../../libdaisy/src/per/dac.h ****     enum class Result
  25:../../libdaisy/src/per/dac.h ****     {
  26:../../libdaisy/src/per/dac.h ****         OK,
  27:../../libdaisy/src/per/dac.h ****         ERR,
  28:../../libdaisy/src/per/dac.h ****     };
  29:../../libdaisy/src/per/dac.h **** 
  30:../../libdaisy/src/per/dac.h ****     /** Selects which channel(s) will be configured for use. */
  31:../../libdaisy/src/per/dac.h ****     enum class Channel
  32:../../libdaisy/src/per/dac.h ****     {
  33:../../libdaisy/src/per/dac.h ****         ONE,
  34:../../libdaisy/src/per/dac.h ****         TWO,
  35:../../libdaisy/src/per/dac.h ****         BOTH,
  36:../../libdaisy/src/per/dac.h ****     };
ARM GAS  /tmp/ccVtSobE.s 			page 74


  37:../../libdaisy/src/per/dac.h **** 
  38:../../libdaisy/src/per/dac.h ****     /** Sets the Mode for the DAC channels.
  39:../../libdaisy/src/per/dac.h ****      **
  40:../../libdaisy/src/per/dac.h ****      ** Polling mode uses the blocking mode to transmit a single value at a time.
  41:../../libdaisy/src/per/dac.h ****      **
  42:../../libdaisy/src/per/dac.h ****      ** DMA mode uses a buffer, and periodically transmits it triggering a 
  43:../../libdaisy/src/per/dac.h ****      ** callback to fill the buffer when it is ready for more samples.
  44:../../libdaisy/src/per/dac.h ****      ***/
  45:../../libdaisy/src/per/dac.h ****     enum class Mode
  46:../../libdaisy/src/per/dac.h ****     {
  47:../../libdaisy/src/per/dac.h ****         POLLING,
  48:../../libdaisy/src/per/dac.h ****         DMA,
  49:../../libdaisy/src/per/dac.h ****     };
  50:../../libdaisy/src/per/dac.h **** 
  51:../../libdaisy/src/per/dac.h ****     /** Sets the number of bits per sample transmitted out of the DAC.
  52:../../libdaisy/src/per/dac.h ****      ** The output range will be: 0V - VDDA
  53:../../libdaisy/src/per/dac.h ****      ** The resolution will be roughly: bitdepth / (VDDA - 0V) 
  54:../../libdaisy/src/per/dac.h ****      ***/
  55:../../libdaisy/src/per/dac.h ****     enum class BitDepth
  56:../../libdaisy/src/per/dac.h ****     {
  57:../../libdaisy/src/per/dac.h ****         BITS_8,
  58:../../libdaisy/src/per/dac.h ****         BITS_12
  59:../../libdaisy/src/per/dac.h ****     };
  60:../../libdaisy/src/per/dac.h **** 
  61:../../libdaisy/src/per/dac.h ****     /** Sets whether the DAC output is buffered for higher drive ability. */
  62:../../libdaisy/src/per/dac.h ****     enum class BufferState
  63:../../libdaisy/src/per/dac.h ****     {
  64:../../libdaisy/src/per/dac.h ****         ENABLED,
  65:../../libdaisy/src/per/dac.h ****         DISABLED,
  66:../../libdaisy/src/per/dac.h ****     };
  67:../../libdaisy/src/per/dac.h **** 
  68:../../libdaisy/src/per/dac.h ****     /** Configuration structure for initializing the DAC structure. */
  69:../../libdaisy/src/per/dac.h ****     struct Config
  70:../../libdaisy/src/per/dac.h ****     {
  71:../../libdaisy/src/per/dac.h ****         /** Target Samplerate in Hz used to configure the internal 
  72:../../libdaisy/src/per/dac.h ****          ** timebase for DMA mode. Does nothing in POLLING mode.
  73:../../libdaisy/src/per/dac.h ****          ** If the value is 0 at Init time this will default to 48000Hz 
  74:../../libdaisy/src/per/dac.h ****          ** otherwise the driver will attempt meet the target.*/
  75:../../libdaisy/src/per/dac.h ****         uint32_t target_samplerate;
  76:../../libdaisy/src/per/dac.h **** 
  77:../../libdaisy/src/per/dac.h ****         Channel     chn;
  78:../../libdaisy/src/per/dac.h ****         Mode        mode;
  79:../../libdaisy/src/per/dac.h ****         BitDepth    bitdepth;
  80:../../libdaisy/src/per/dac.h ****         BufferState buff_state;
  81:../../libdaisy/src/per/dac.h ****     };
  82:../../libdaisy/src/per/dac.h **** 
  83:../../libdaisy/src/per/dac.h ****     DacHandle() : pimpl_(nullptr) {}
 2584              		.loc 17 83 5 is_stmt 1 view .LVU691
 2585              	.LBE618:
 2586              	.LBE625:
 2587              	.LBE635:
 2588              	.LBB636:
 2589              	.LBB633:
 2590              		.loc 16 30 7 is_stmt 0 view .LVU692
 2591 000e 05F2D240 		addw	r0, r5, #1234
 2592              	.LBE633:
 2593              	.LBE636:
ARM GAS  /tmp/ccVtSobE.s 			page 75


 2594              	.LBB637:
 2595              	.LBB626:
 2596              	.LBB621:
 2597              	.LBB619:
 2598              	.LBB620:
 2599              		.loc 17 83 33 view .LVU693
 2600 0012 2E62     		str	r6, [r5, #32]
 2601              	.LVL118:
 2602              		.loc 17 83 33 view .LVU694
 2603              	.LBE620:
 2604              	.LBE619:
 2605              	.LBE621:
 2606              	.LBB622:
 2607              	.LBI622:
  40:../../libdaisy/src/hid/usb.h **** 
 2608              		.loc 9 40 5 is_stmt 1 view .LVU695
  40:../../libdaisy/src/hid/usb.h **** 
 2609              		.loc 9 40 5 is_stmt 0 view .LVU696
 2610              	.LBE622:
 2611              	.LBB623:
 2612              	.LBI623:
  58:../../libdaisy/src/sys/system.h ****     ~System() {}
 2613              		.loc 8 58 5 is_stmt 1 view .LVU697
  58:../../libdaisy/src/sys/system.h ****     ~System() {}
 2614              		.loc 8 58 5 is_stmt 0 view .LVU698
 2615              	.LBE623:
 2616              	.LBE626:
 2617              	.LBE637:
 2618              	.LBB638:
 2619              	.LBI638:
  20:../../libdaisy/src/hid/encoder.h ****     ~Encoder() {}
 2620              		.loc 5 20 5 is_stmt 1 view .LVU699
 2621              	.LBB639:
 2622              	.LBB640:
 2623              	.LBI640:
  40:../../libdaisy/src/hid/switch.h ****     ~Switch() {}
 2624              		.loc 6 40 5 view .LVU700
  40:../../libdaisy/src/hid/switch.h ****     ~Switch() {}
 2625              		.loc 6 40 5 is_stmt 0 view .LVU701
 2626              	.LBE640:
 2627              	.LBE639:
 2628              	.LBE638:
 2629              	.LBE644:
 2630              	.LBE648:
 2631              	.LBE663:
 2632              	.LBE667:
  66:../../libdaisy/src/daisy_petal.h ****     /** Destructor */
 2633              		.loc 4 66 18 is_stmt 1 view .LVU702
 2634              	.LBB668:
 2635              	.LBB664:
 2636              	.LBB649:
 2637              	.LBB645:
 2638              	.LBB641:
 2639              	.LBI641:
  21:../../libdaisy/src/hid/ctrl.h ****     /** destructor */
 2640              		.loc 3 21 5 view .LVU703
  21:../../libdaisy/src/hid/ctrl.h ****     /** destructor */
ARM GAS  /tmp/ccVtSobE.s 			page 76


 2641              		.loc 3 21 5 is_stmt 0 view .LVU704
 2642              	.LBE641:
 2643              	.LBE645:
 2644              	.LBE649:
 2645              	.LBE664:
 2646              	.LBE668:
  66:../../libdaisy/src/daisy_petal.h ****     /** Destructor */
 2647              		.loc 4 66 18 is_stmt 1 view .LVU705
  66:../../libdaisy/src/daisy_petal.h ****     /** Destructor */
 2648              		.loc 4 66 18 view .LVU706
  66:../../libdaisy/src/daisy_petal.h ****     /** Destructor */
 2649              		.loc 4 66 18 view .LVU707
 2650              	.LBB669:
 2651              	.LBB665:
 2652              	.LBB650:
 2653              	.LBB646:
 2654              	.LBB642:
 2655              	.LBI628:
 2656              		.loc 16 30 7 view .LVU708
 2657              	.LBB634:
 2658              	.LBB630:
 2659              	.LBI630:
 2660              		.file 18 "../../libdaisy/src/per/i2c.h"
   1:../../libdaisy/src/per/i2c.h **** #pragma once
   2:../../libdaisy/src/per/i2c.h **** #include "daisy_core.h"
   3:../../libdaisy/src/per/i2c.h **** 
   4:../../libdaisy/src/per/i2c.h **** namespace daisy
   5:../../libdaisy/src/per/i2c.h **** {
   6:../../libdaisy/src/per/i2c.h **** /** A handle for interacting with an I2C peripheral. This is a dumb
   7:../../libdaisy/src/per/i2c.h ****  *  gateway that internally points to one of the four I2C peripherals
   8:../../libdaisy/src/per/i2c.h ****  *  after it was initialised. It can then be copied and passed around.
   9:../../libdaisy/src/per/i2c.h ****  *  Use an I2CHandle like this:
  10:../../libdaisy/src/per/i2c.h ****  *  
  11:../../libdaisy/src/per/i2c.h ****  *      // setup the configuration
  12:../../libdaisy/src/per/i2c.h ****  *      I2CHandle::Config i2c_conf;
  13:../../libdaisy/src/per/i2c.h ****  *      i2c_conf.periph = I2CHandle::Config::Peripheral::I2C_1;
  14:../../libdaisy/src/per/i2c.h ****  *      i2c_conf.speed  = I2CHandle::Config::Speed::I2C_400KHZ;
  15:../../libdaisy/src/per/i2c.h ****  *      i2c_conf.mode   = I2CHandle::Config::Mode::Master;
  16:../../libdaisy/src/per/i2c.h ****  *      i2c_conf.pin_config.scl  = {DSY_GPIOB, 8};
  17:../../libdaisy/src/per/i2c.h ****  *      i2c_conf.pin_config.sda  = {DSY_GPIOB, 9};
  18:../../libdaisy/src/per/i2c.h ****  *      // initialise the peripheral
  19:../../libdaisy/src/per/i2c.h ****  *      I2CHandle i2c;
  20:../../libdaisy/src/per/i2c.h ****  *      i2c.Init(i2c_conf);
  21:../../libdaisy/src/per/i2c.h ****  *      // now i2c points to the corresponding peripheral and can be used.
  22:../../libdaisy/src/per/i2c.h ****  *      i2c.TransmitBlocking( ... );
  23:../../libdaisy/src/per/i2c.h ****  */
  24:../../libdaisy/src/per/i2c.h **** class I2CHandle
  25:../../libdaisy/src/per/i2c.h **** {
  26:../../libdaisy/src/per/i2c.h ****   public:
  27:../../libdaisy/src/per/i2c.h ****     /** Contains settings for initialising an I2C interface. */
  28:../../libdaisy/src/per/i2c.h ****     struct Config
  29:../../libdaisy/src/per/i2c.h ****     {
  30:../../libdaisy/src/per/i2c.h ****         /** Specifies whether the interface will operate in master or slave mode. */
  31:../../libdaisy/src/per/i2c.h ****         enum class Mode
  32:../../libdaisy/src/per/i2c.h ****         {
  33:../../libdaisy/src/per/i2c.h ****             I2C_MASTER,
  34:../../libdaisy/src/per/i2c.h ****             I2C_SLAVE,
ARM GAS  /tmp/ccVtSobE.s 			page 77


  35:../../libdaisy/src/per/i2c.h ****         };
  36:../../libdaisy/src/per/i2c.h **** 
  37:../../libdaisy/src/per/i2c.h ****         /** Specifices the internal peripheral to use (these are mapped to different pins on the ha
  38:../../libdaisy/src/per/i2c.h ****         enum class Peripheral
  39:../../libdaisy/src/per/i2c.h ****         {
  40:../../libdaisy/src/per/i2c.h ****             I2C_1 = 0, /**< & */
  41:../../libdaisy/src/per/i2c.h ****             I2C_2,     /**< & */
  42:../../libdaisy/src/per/i2c.h ****             I2C_3,     /**< & */
  43:../../libdaisy/src/per/i2c.h ****             I2C_4,     /**< & */
  44:../../libdaisy/src/per/i2c.h ****         };
  45:../../libdaisy/src/per/i2c.h **** 
  46:../../libdaisy/src/per/i2c.h ****         /** Rate at which the clock/data will be sent/received. The device being used will have max
  47:../../libdaisy/src/per/i2c.h ****          *  1MHZ Mode is currently 886kHz
  48:../../libdaisy/src/per/i2c.h ****          */
  49:../../libdaisy/src/per/i2c.h ****         enum class Speed
  50:../../libdaisy/src/per/i2c.h ****         {
  51:../../libdaisy/src/per/i2c.h ****             I2C_100KHZ, /**< & */
  52:../../libdaisy/src/per/i2c.h ****             I2C_400KHZ, /**< & */
  53:../../libdaisy/src/per/i2c.h ****             I2C_1MHZ,   /**< & */
  54:../../libdaisy/src/per/i2c.h ****         };
  55:../../libdaisy/src/per/i2c.h **** 
  56:../../libdaisy/src/per/i2c.h ****         Peripheral periph; /**< & */
  57:../../libdaisy/src/per/i2c.h ****         struct
  58:../../libdaisy/src/per/i2c.h ****         {
  59:../../libdaisy/src/per/i2c.h ****             dsy_gpio_pin scl; /**< & */
  60:../../libdaisy/src/per/i2c.h ****             dsy_gpio_pin sda; /**< & */
  61:../../libdaisy/src/per/i2c.h ****         } pin_config;         /**< & */
  62:../../libdaisy/src/per/i2c.h **** 
  63:../../libdaisy/src/per/i2c.h ****         Speed speed; /**< & */
  64:../../libdaisy/src/per/i2c.h ****         Mode  mode;  /**< & */
  65:../../libdaisy/src/per/i2c.h ****         // 0x10 is chosen as a default to avoid conflicts with reserved addresses
  66:../../libdaisy/src/per/i2c.h ****         uint8_t address = 0x10; /**< & */
  67:../../libdaisy/src/per/i2c.h ****     };
  68:../../libdaisy/src/per/i2c.h **** 
  69:../../libdaisy/src/per/i2c.h ****     /** Return values for I2C functions. */
  70:../../libdaisy/src/per/i2c.h ****     enum class Result
  71:../../libdaisy/src/per/i2c.h ****     {
  72:../../libdaisy/src/per/i2c.h ****         OK, /**< & */
  73:../../libdaisy/src/per/i2c.h ****         ERR /**< & */
  74:../../libdaisy/src/per/i2c.h ****     };
  75:../../libdaisy/src/per/i2c.h **** 
  76:../../libdaisy/src/per/i2c.h ****     enum class Direction
  77:../../libdaisy/src/per/i2c.h ****     {
  78:../../libdaisy/src/per/i2c.h ****         TRANSMIT, /**< & */
  79:../../libdaisy/src/per/i2c.h ****         RECEIVE,  /**< & */
  80:../../libdaisy/src/per/i2c.h ****     };
  81:../../libdaisy/src/per/i2c.h **** 
  82:../../libdaisy/src/per/i2c.h ****     I2CHandle() : pimpl_(nullptr) {}
 2661              		.loc 18 82 5 view .LVU709
 2662              	.LBB631:
 2663              	.LBB632:
 2664              		.loc 18 82 33 is_stmt 0 view .LVU710
 2665 0014 C5F8BC64 		str	r6, [r5, #1212]
 2666              	.LVL119:
 2667              		.loc 18 82 33 view .LVU711
 2668              	.LBE632:
 2669              	.LBE631:
ARM GAS  /tmp/ccVtSobE.s 			page 78


 2670              	.LBE630:
 2671              		.loc 16 30 7 view .LVU712
 2672 0018 1949     		ldr	r1, .L106+8
 2673 001a FFF7FEFF 		bl	memcpy
 2674              	.LVL120:
 2675              		.loc 16 30 7 view .LVU713
 2676              	.LBE634:
 2677              	.LBE642:
 2678              	.LBE646:
 2679              	.LBE650:
  13:MultiEffect.cpp **** static DelayLine<float, MAX_DELAY> DSY_SDRAM_BSS delr;
 2680              		.loc 12 13 50 view .LVU714
 2681 001e 194F     		ldr	r7, .L106+12
  10:MultiEffect.cpp **** 
 2682              		.loc 12 10 19 view .LVU715
 2683 0020 2246     		mov	r2, r4
 2684 0022 2846     		mov	r0, r5
 2685 0024 1849     		ldr	r1, .L106+16
 2686 0026 FFF7FEFF 		bl	__aeabi_atexit
 2687              	.LVL121:
 2688              	.LBB651:
 2689              	.LBI651:
  40:../../DaisySP/Source/Effects/reverbsc.h ****     ~ReverbSc() {}
 2690              		.loc 1 40 5 is_stmt 1 view .LVU716
  40:../../DaisySP/Source/Effects/reverbsc.h ****     ~ReverbSc() {}
 2691              		.loc 1 40 5 is_stmt 0 view .LVU717
 2692              	.LBE651:
  12:MultiEffect.cpp **** static DelayLine<float, MAX_DELAY> DSY_SDRAM_BSS dell;
 2693              		.loc 12 12 50 view .LVU718
 2694 002a 2246     		mov	r2, r4
 2695 002c 1749     		ldr	r1, .L106+20
 2696 002e 1848     		ldr	r0, .L106+24
 2697 0030 FFF7FEFF 		bl	__aeabi_atexit
 2698              	.LVL122:
 2699              	.LBB652:
 2700              	.LBI652:
  23:../../DaisySP/Source/Utility/delayline.h ****     ~DelayLine() {}
 2701              		.loc 13 23 5 is_stmt 1 view .LVU719
  23:../../DaisySP/Source/Utility/delayline.h ****     ~DelayLine() {}
 2702              		.loc 13 23 5 is_stmt 0 view .LVU720
 2703              	.LBE652:
  13:MultiEffect.cpp **** static DelayLine<float, MAX_DELAY> DSY_SDRAM_BSS delr;
 2704              		.loc 12 13 50 view .LVU721
 2705 0034 2246     		mov	r2, r4
 2706 0036 3946     		mov	r1, r7
 2707 0038 1648     		ldr	r0, .L106+28
 2708 003a FFF7FEFF 		bl	__aeabi_atexit
 2709              	.LVL123:
 2710              	.LBB653:
 2711              	.LBI653:
  23:../../DaisySP/Source/Utility/delayline.h ****     ~DelayLine() {}
 2712              		.loc 13 23 5 is_stmt 1 view .LVU722
  23:../../DaisySP/Source/Utility/delayline.h ****     ~DelayLine() {}
 2713              		.loc 13 23 5 is_stmt 0 view .LVU723
 2714              	.LBE653:
  16:MultiEffect.cpp **** 
 2715              		.loc 12 16 18 view .LVU724
ARM GAS  /tmp/ccVtSobE.s 			page 79


 2716 003e 164D     		ldr	r5, .L106+32
  14:MultiEffect.cpp **** static Autowah                                   wah[2];
 2717              		.loc 12 14 50 view .LVU725
 2718 0040 2246     		mov	r2, r4
 2719 0042 3946     		mov	r1, r7
 2720 0044 1548     		ldr	r0, .L106+36
 2721 0046 FFF7FEFF 		bl	__aeabi_atexit
 2722              	.LVL124:
  15:MultiEffect.cpp **** static Parameter deltime, reverbLpParam, crushrate;
 2723              		.loc 12 15 55 is_stmt 1 view .LVU726
  15:MultiEffect.cpp **** static Parameter deltime, reverbLpParam, crushrate;
 2724              		.loc 12 15 50 is_stmt 0 view .LVU727
 2725 004a 2246     		mov	r2, r4
 2726 004c 3046     		mov	r0, r6
 2727 004e 1449     		ldr	r1, .L106+40
 2728 0050 FFF7FEFF 		bl	__aeabi_atexit
 2729              	.LVL125:
 2730              	.LBB654:
 2731              	.LBI654:
  25:../../libdaisy/src/hid/parameter.h ****     /** Destructor */
 2732              		.loc 2 25 5 is_stmt 1 view .LVU728
 2733              	.LBB655:
 2734              	.LBB656:
 2735              	.LBI656:
  21:../../libdaisy/src/hid/ctrl.h ****     /** destructor */
 2736              		.loc 3 21 5 view .LVU729
  21:../../libdaisy/src/hid/ctrl.h ****     /** destructor */
 2737              		.loc 3 21 5 is_stmt 0 view .LVU730
 2738              	.LBE656:
 2739              	.LBE655:
 2740              	.LBE654:
  16:MultiEffect.cpp **** 
 2741              		.loc 12 16 18 view .LVU731
 2742 0054 2246     		mov	r2, r4
 2743 0056 2946     		mov	r1, r5
 2744 0058 1248     		ldr	r0, .L106+44
 2745 005a FFF7FEFF 		bl	__aeabi_atexit
 2746              	.LVL126:
 2747              	.LBB657:
 2748              	.LBI657:
  25:../../libdaisy/src/hid/parameter.h ****     /** Destructor */
 2749              		.loc 2 25 5 is_stmt 1 view .LVU732
 2750              	.LBB658:
 2751              	.LBB659:
 2752              	.LBI659:
  21:../../libdaisy/src/hid/ctrl.h ****     /** destructor */
 2753              		.loc 3 21 5 view .LVU733
  21:../../libdaisy/src/hid/ctrl.h ****     /** destructor */
 2754              		.loc 3 21 5 is_stmt 0 view .LVU734
 2755              	.LBE659:
 2756              	.LBE658:
 2757              	.LBE657:
  16:MultiEffect.cpp **** 
 2758              		.loc 12 16 27 view .LVU735
 2759 005e 2246     		mov	r2, r4
 2760 0060 2946     		mov	r1, r5
 2761 0062 1148     		ldr	r0, .L106+48
ARM GAS  /tmp/ccVtSobE.s 			page 80


 2762 0064 FFF7FEFF 		bl	__aeabi_atexit
 2763              	.LVL127:
 2764              	.LBB660:
 2765              	.LBI660:
  25:../../libdaisy/src/hid/parameter.h ****     /** Destructor */
 2766              		.loc 2 25 5 is_stmt 1 view .LVU736
 2767              	.LBB661:
 2768              	.LBB662:
 2769              	.LBI662:
  21:../../libdaisy/src/hid/ctrl.h ****     /** destructor */
 2770              		.loc 3 21 5 view .LVU737
  21:../../libdaisy/src/hid/ctrl.h ****     /** destructor */
 2771              		.loc 3 21 5 is_stmt 0 view .LVU738
 2772              	.LBE662:
 2773              	.LBE661:
 2774              	.LBE660:
  16:MultiEffect.cpp **** 
 2775              		.loc 12 16 42 view .LVU739
 2776 0068 2246     		mov	r2, r4
 2777 006a 2946     		mov	r1, r5
 2778 006c 0F48     		ldr	r0, .L106+52
 2779              	.LBE665:
 2780              	.LBE669:
 2781              		.loc 12 286 1 view .LVU740
 2782 006e BDE8F840 		pop	{r3, r4, r5, r6, r7, lr}
 2783              		.cfi_restore 14
 2784              		.cfi_restore 7
 2785              		.cfi_restore 6
 2786              		.cfi_restore 5
 2787              		.cfi_restore 4
 2788              		.cfi_restore 3
 2789              		.cfi_def_cfa_offset 0
 2790              	.LBB670:
 2791              	.LBB666:
  16:MultiEffect.cpp **** 
 2792              		.loc 12 16 42 view .LVU741
 2793 0072 FFF7FEBF 		b	__aeabi_atexit
 2794              	.LVL128:
 2795              	.L107:
 2796 0076 00BF     		.align	2
 2797              	.L106:
 2798 0078 00000000 		.word	.LANCHOR1
 2799 007c 00000000 		.word	__dso_handle
 2800 0080 00000000 		.word	.LANCHOR15
 2801 0084 00000000 		.word	_ZN7daisysp9DelayLineIfLj120000EED1Ev
 2802 0088 00000000 		.word	_ZN5daisy10DaisyPetalD1Ev
 2803 008c 00000000 		.word	_ZN7daisysp8ReverbScD1Ev
 2804 0090 00000000 		.word	_ZL3rev
 2805 0094 0C530700 		.word	_ZL4dell
 2806 0098 00000000 		.word	_ZN5daisy9ParameterD1Ev
 2807 009c 00000000 		.word	_ZL4delr
 2808 00a0 00000000 		.word	__tcf_0
 2809 00a4 00000000 		.word	.LANCHOR2
 2810 00a8 00000000 		.word	.LANCHOR0
 2811 00ac 00000000 		.word	.LANCHOR5
 2812              	.LBE666:
 2813              	.LBE670:
ARM GAS  /tmp/ccVtSobE.s 			page 81


 2814              		.cfi_endproc
 2815              	.LFE4792:
 2817              		.section	.init_array,"aw",%init_array
 2818              		.align	2
 2819 0000 00000000 		.word	_GLOBAL__sub_I_currentDelay(target1)
 2820              		.global	dryWetMode
 2821              		.global	effectOn
 2822              		.global	crushr
 2823              		.global	crushl
 2824              		.global	crushcount
 2825              		.global	crushmod
 2826              		.global	dryWet
 2827              		.global	cutoff
 2828              		.global	delayTarget
 2829              		.global	feedback
 2830              		.global	currentDelay
 2831              		.section	.rodata
 2832              		.align	2
 2833              		.set	.LANCHOR15,. + 0
 2834              	.LC0:
 2835 0000 0000     		.short	0
 2836 0002 0100     		.short	1
 2837 0004 0100     		.short	1
 2838 0006 0100     		.short	1
 2839 0008 0100     		.short	1
 2840 000a 0100     		.short	1
 2841 000c 0100     		.short	1
 2842 000e 0100     		.short	1
 2843 0010 0100     		.short	1
 2844 0012 0100     		.short	1
 2845 0014 0100     		.short	1
 2846 0016 0100     		.short	1
 2847 0018 0200     		.short	2
 2848 001a 0200     		.short	2
 2849 001c 0200     		.short	2
 2850 001e 0200     		.short	2
 2851 0020 0200     		.short	2
 2852 0022 0200     		.short	2
 2853 0024 0200     		.short	2
 2854 0026 0300     		.short	3
 2855 0028 0300     		.short	3
 2856 002a 0400     		.short	4
 2857 002c 0400     		.short	4
 2858 002e 0500     		.short	5
 2859 0030 0500     		.short	5
 2860 0032 0600     		.short	6
 2861 0034 0700     		.short	7
 2862 0036 0800     		.short	8
 2863 0038 0800     		.short	8
 2864 003a 0900     		.short	9
 2865 003c 0A00     		.short	10
 2866 003e 0B00     		.short	11
 2867 0040 0C00     		.short	12
 2868 0042 0D00     		.short	13
 2869 0044 0F00     		.short	15
 2870 0046 1000     		.short	16
 2871 0048 1100     		.short	17
ARM GAS  /tmp/ccVtSobE.s 			page 82


 2872 004a 1200     		.short	18
 2873 004c 1400     		.short	20
 2874 004e 1500     		.short	21
 2875 0050 1700     		.short	23
 2876 0052 1900     		.short	25
 2877 0054 1A00     		.short	26
 2878 0056 1C00     		.short	28
 2879 0058 1E00     		.short	30
 2880 005a 2000     		.short	32
 2881 005c 2200     		.short	34
 2882 005e 2400     		.short	36
 2883 0060 2600     		.short	38
 2884 0062 2800     		.short	40
 2885 0064 2B00     		.short	43
 2886 0066 2D00     		.short	45
 2887 0068 3000     		.short	48
 2888 006a 3200     		.short	50
 2889 006c 3500     		.short	53
 2890 006e 3800     		.short	56
 2891 0070 3B00     		.short	59
 2892 0072 3E00     		.short	62
 2893 0074 4100     		.short	65
 2894 0076 4400     		.short	68
 2895 0078 4700     		.short	71
 2896 007a 4B00     		.short	75
 2897 007c 4E00     		.short	78
 2898 007e 5200     		.short	82
 2899 0080 5500     		.short	85
 2900 0082 5900     		.short	89
 2901 0084 5D00     		.short	93
 2902 0086 6100     		.short	97
 2903 0088 6500     		.short	101
 2904 008a 6900     		.short	105
 2905 008c 6E00     		.short	110
 2906 008e 7200     		.short	114
 2907 0090 7700     		.short	119
 2908 0092 7B00     		.short	123
 2909 0094 8000     		.short	128
 2910 0096 8500     		.short	133
 2911 0098 8A00     		.short	138
 2912 009a 8F00     		.short	143
 2913 009c 9500     		.short	149
 2914 009e 9A00     		.short	154
 2915 00a0 9F00     		.short	159
 2916 00a2 A500     		.short	165
 2917 00a4 AB00     		.short	171
 2918 00a6 B100     		.short	177
 2919 00a8 B700     		.short	183
 2920 00aa BD00     		.short	189
 2921 00ac C300     		.short	195
 2922 00ae CA00     		.short	202
 2923 00b0 D000     		.short	208
 2924 00b2 D700     		.short	215
 2925 00b4 DE00     		.short	222
 2926 00b6 E500     		.short	229
 2927 00b8 EC00     		.short	236
 2928 00ba F300     		.short	243
ARM GAS  /tmp/ccVtSobE.s 			page 83


 2929 00bc FA00     		.short	250
 2930 00be 0201     		.short	258
 2931 00c0 0A01     		.short	266
 2932 00c2 1101     		.short	273
 2933 00c4 1901     		.short	281
 2934 00c6 2201     		.short	290
 2935 00c8 2A01     		.short	298
 2936 00ca 3201     		.short	306
 2937 00cc 3B01     		.short	315
 2938 00ce 4401     		.short	324
 2939 00d0 4C01     		.short	332
 2940 00d2 5501     		.short	341
 2941 00d4 5F01     		.short	351
 2942 00d6 6801     		.short	360
 2943 00d8 7101     		.short	369
 2944 00da 7B01     		.short	379
 2945 00dc 8501     		.short	389
 2946 00de 8F01     		.short	399
 2947 00e0 9901     		.short	409
 2948 00e2 A301     		.short	419
 2949 00e4 AE01     		.short	430
 2950 00e6 B801     		.short	440
 2951 00e8 C301     		.short	451
 2952 00ea CE01     		.short	462
 2953 00ec D901     		.short	473
 2954 00ee E501     		.short	485
 2955 00f0 F001     		.short	496
 2956 00f2 FC01     		.short	508
 2957 00f4 0802     		.short	520
 2958 00f6 1402     		.short	532
 2959 00f8 2002     		.short	544
 2960 00fa 2C02     		.short	556
 2961 00fc 3902     		.short	569
 2962 00fe 4602     		.short	582
 2963 0100 5202     		.short	594
 2964 0102 6002     		.short	608
 2965 0104 6D02     		.short	621
 2966 0106 7A02     		.short	634
 2967 0108 8802     		.short	648
 2968 010a 9602     		.short	662
 2969 010c A402     		.short	676
 2970 010e B202     		.short	690
 2971 0110 C002     		.short	704
 2972 0112 CF02     		.short	719
 2973 0114 DE02     		.short	734
 2974 0116 ED02     		.short	749
 2975 0118 FC02     		.short	764
 2976 011a 0B03     		.short	779
 2977 011c 1B03     		.short	795
 2978 011e 2B03     		.short	811
 2979 0120 3B03     		.short	827
 2980 0122 4B03     		.short	843
 2981 0124 5B03     		.short	859
 2982 0126 6C03     		.short	876
 2983 0128 7D03     		.short	893
 2984 012a 8E03     		.short	910
 2985 012c 9F03     		.short	927
ARM GAS  /tmp/ccVtSobE.s 			page 84


 2986 012e B003     		.short	944
 2987 0130 C203     		.short	962
 2988 0132 D403     		.short	980
 2989 0134 E603     		.short	998
 2990 0136 F803     		.short	1016
 2991 0138 0A04     		.short	1034
 2992 013a 1D04     		.short	1053
 2993 013c 3004     		.short	1072
 2994 013e 4304     		.short	1091
 2995 0140 5604     		.short	1110
 2996 0142 6A04     		.short	1130
 2997 0144 7E04     		.short	1150
 2998 0146 9204     		.short	1170
 2999 0148 A604     		.short	1190
 3000 014a BA04     		.short	1210
 3001 014c CF04     		.short	1231
 3002 014e E404     		.short	1252
 3003 0150 F904     		.short	1273
 3004 0152 0E05     		.short	1294
 3005 0154 2405     		.short	1316
 3006 0156 3A05     		.short	1338
 3007 0158 5005     		.short	1360
 3008 015a 6605     		.short	1382
 3009 015c 7C05     		.short	1404
 3010 015e 9305     		.short	1427
 3011 0160 AA05     		.short	1450
 3012 0162 C105     		.short	1473
 3013 0164 D905     		.short	1497
 3014 0166 F005     		.short	1520
 3015 0168 0806     		.short	1544
 3016 016a 2006     		.short	1568
 3017 016c 3906     		.short	1593
 3018 016e 5106     		.short	1617
 3019 0170 6A06     		.short	1642
 3020 0172 8306     		.short	1667
 3021 0174 9D06     		.short	1693
 3022 0176 B606     		.short	1718
 3023 0178 D006     		.short	1744
 3024 017a EA06     		.short	1770
 3025 017c 0507     		.short	1797
 3026 017e 1F07     		.short	1823
 3027 0180 3A07     		.short	1850
 3028 0182 5507     		.short	1877
 3029 0184 7107     		.short	1905
 3030 0186 8C07     		.short	1932
 3031 0188 A807     		.short	1960
 3032 018a C407     		.short	1988
 3033 018c E107     		.short	2017
 3034 018e FD07     		.short	2045
 3035 0190 1A08     		.short	2074
 3036 0192 3708     		.short	2103
 3037 0194 5508     		.short	2133
 3038 0196 7208     		.short	2162
 3039 0198 9008     		.short	2192
 3040 019a AF08     		.short	2223
 3041 019c CD08     		.short	2253
 3042 019e EC08     		.short	2284
ARM GAS  /tmp/ccVtSobE.s 			page 85


 3043 01a0 0B09     		.short	2315
 3044 01a2 2A09     		.short	2346
 3045 01a4 4A09     		.short	2378
 3046 01a6 6A09     		.short	2410
 3047 01a8 8A09     		.short	2442
 3048 01aa AA09     		.short	2474
 3049 01ac CB09     		.short	2507
 3050 01ae EC09     		.short	2540
 3051 01b0 0D0A     		.short	2573
 3052 01b2 2E0A     		.short	2606
 3053 01b4 500A     		.short	2640
 3054 01b6 720A     		.short	2674
 3055 01b8 940A     		.short	2708
 3056 01ba B70A     		.short	2743
 3057 01bc DA0A     		.short	2778
 3058 01be FD0A     		.short	2813
 3059 01c0 210B     		.short	2849
 3060 01c2 440B     		.short	2884
 3061 01c4 680B     		.short	2920
 3062 01c6 8D0B     		.short	2957
 3063 01c8 B10B     		.short	2993
 3064 01ca D60B     		.short	3030
 3065 01cc FB0B     		.short	3067
 3066 01ce 210C     		.short	3105
 3067 01d0 470C     		.short	3143
 3068 01d2 6D0C     		.short	3181
 3069 01d4 930C     		.short	3219
 3070 01d6 BA0C     		.short	3258
 3071 01d8 E10C     		.short	3297
 3072 01da 080D     		.short	3336
 3073 01dc 300D     		.short	3376
 3074 01de 580D     		.short	3416
 3075 01e0 800D     		.short	3456
 3076 01e2 A80D     		.short	3496
 3077 01e4 D10D     		.short	3537
 3078 01e6 FA0D     		.short	3578
 3079 01e8 230E     		.short	3619
 3080 01ea 4D0E     		.short	3661
 3081 01ec 770E     		.short	3703
 3082 01ee A10E     		.short	3745
 3083 01f0 CC0E     		.short	3788
 3084 01f2 F70E     		.short	3831
 3085 01f4 220F     		.short	3874
 3086 01f6 4E0F     		.short	3918
 3087 01f8 7A0F     		.short	3962
 3088 01fa A60F     		.short	4006
 3089 01fc D20F     		.short	4050
 3090 01fe FF0F     		.short	4095
 3091              		.section	.bss._ZL13reverbLpParam,"aw",%nobits
 3092              		.align	2
 3093              		.set	.LANCHOR0,. + 0
 3096              	_ZL13reverbLpParam:
 3097 0000 00000000 		.space	56
 3097      00000000 
 3097      00000000 
 3097      00000000 
 3097      00000000 
ARM GAS  /tmp/ccVtSobE.s 			page 86


 3098              		.section	.bss._ZL3rev,"aw",%nobits
 3099              		.align	2
 3102              	_ZL3rev:
 3103 0000 00000000 		.space	396100
 3103      00000000 
 3103      00000000 
 3103      00000000 
 3103      00000000 
 3104              		.section	.bss._ZL3wah,"aw",%nobits
 3105              		.align	2
 3106              		.set	.LANCHOR7,. + 0
 3109              	_ZL3wah:
 3110 0000 00000000 		.space	160
 3110      00000000 
 3110      00000000 
 3110      00000000 
 3110      00000000 
 3111              		.section	.bss._ZL5petal,"aw",%nobits
 3112              		.align	2
 3113              		.set	.LANCHOR1,. + 0
 3116              	_ZL5petal:
 3117 0000 00000000 		.space	1748
 3117      00000000 
 3117      00000000 
 3117      00000000 
 3117      00000000 
 3118              		.section	.bss._ZL7deltime,"aw",%nobits
 3119              		.align	2
 3120              		.set	.LANCHOR2,. + 0
 3123              	_ZL7deltime:
 3124 0000 00000000 		.space	56
 3124      00000000 
 3124      00000000 
 3124      00000000 
 3124      00000000 
 3125              		.section	.bss._ZL9crushrate,"aw",%nobits
 3126              		.align	2
 3127              		.set	.LANCHOR5,. + 0
 3130              	_ZL9crushrate:
 3131 0000 00000000 		.space	56
 3131      00000000 
 3131      00000000 
 3131      00000000 
 3131      00000000 
 3132              		.section	.bss.crushcount,"aw",%nobits
 3133              		.align	2
 3134              		.set	.LANCHOR12,. + 0
 3137              	crushcount:
 3138 0000 00000000 		.space	4
 3139              		.section	.bss.crushl,"aw",%nobits
 3140              		.align	2
 3141              		.set	.LANCHOR14,. + 0
 3144              	crushl:
 3145 0000 00000000 		.space	4
 3146              		.section	.bss.crushmod,"aw",%nobits
 3147              		.align	2
 3148              		.set	.LANCHOR6,. + 0
ARM GAS  /tmp/ccVtSobE.s 			page 87


 3151              	crushmod:
 3152 0000 00000000 		.space	4
 3153              		.section	.bss.crushr,"aw",%nobits
 3154              		.align	2
 3155              		.set	.LANCHOR13,. + 0
 3158              	crushr:
 3159 0000 00000000 		.space	4
 3160              		.section	.bss.currentDelay,"aw",%nobits
 3161              		.align	2
 3162              		.set	.LANCHOR11,. + 0
 3165              	currentDelay:
 3166 0000 00000000 		.space	4
 3167              		.section	.bss.cutoff,"aw",%nobits
 3168              		.align	2
 3171              	cutoff:
 3172 0000 00000000 		.space	4
 3173              		.section	.bss.delayTarget,"aw",%nobits
 3174              		.align	2
 3175              		.set	.LANCHOR3,. + 0
 3178              	delayTarget:
 3179 0000 00000000 		.space	4
 3180              		.section	.bss.dryWet,"aw",%nobits
 3181              		.align	2
 3182              		.set	.LANCHOR9,. + 0
 3185              	dryWet:
 3186 0000 00000000 		.space	20
 3186      00000000 
 3186      00000000 
 3186      00000000 
 3186      00000000 
 3187              		.section	.bss.dryWetMode,"aw",%nobits
 3188              		.set	.LANCHOR8,. + 0
 3191              	dryWetMode:
 3192 0000 00       		.space	1
 3193              		.section	.bss.effectOn,"aw",%nobits
 3194              		.align	2
 3195              		.set	.LANCHOR10,. + 0
 3198              	effectOn:
 3199 0000 00000000 		.space	4
 3200              		.section	.bss.feedback,"aw",%nobits
 3201              		.align	2
 3202              		.set	.LANCHOR4,. + 0
 3205              	feedback:
 3206 0000 00000000 		.space	4
 3207              		.section	.sdram_bss,"aw"
 3208              		.align	2
 3211              	_ZL4delr:
 3212 0000 00000000 		.space	480012
 3212      00000000 
 3212      00000000 
 3212      00000000 
 3212      00000000 
 3215              	_ZL4dell:
 3216 7530c 00000000 		.space	480012
 3216      00000000 
 3216      00000000 
 3216      00000000 
ARM GAS  /tmp/ccVtSobE.s 			page 88


 3216      00000000 
 3217              		.text
 3218              	.Letext0:
 3219              		.file 19 "/usr/lib/gcc/arm-none-eabi/9.2.1/include/stdint.h"
 3220              		.file 20 "../../libdaisy/Drivers/CMSIS/Include/core_cm7.h"
 3221              		.file 21 "../../libdaisy/Drivers/CMSIS/Device/ST/STM32H7xx/Include/system_stm32h7xx.h"
 3222              		.file 22 "/usr/lib/gcc/arm-none-eabi/9.2.1/include/stddef.h"
 3223              		.file 23 "/usr/include/newlib/c++/9.2.1/cmath"
 3224              		.file 24 "/usr/include/newlib/c++/9.2.1/bits/std_abs.h"
 3225              		.file 25 "/usr/include/newlib/c++/9.2.1/cstdint"
 3226              		.file 26 "/usr/include/newlib/c++/9.2.1/cstdlib"
 3227              		.file 27 "/usr/include/newlib/c++/9.2.1/type_traits"
 3228              		.file 28 "/usr/include/newlib/c++/9.2.1/arm-none-eabi/thumb/v7e-m+dp/hard/bits/c++config.h"
 3229              		.file 29 "/usr/include/newlib/c++/9.2.1/bits/stl_pair.h"
 3230              		.file 30 "/usr/include/newlib/c++/9.2.1/debug/debug.h"
 3231              		.file 31 "/usr/include/newlib/c++/9.2.1/cwchar"
 3232              		.file 32 "/usr/include/newlib/c++/9.2.1/bits/exception_ptr.h"
 3233              		.file 33 "/usr/include/newlib/c++/9.2.1/new"
 3234              		.file 34 "/usr/include/newlib/c++/9.2.1/clocale"
 3235              		.file 35 "/usr/include/newlib/c++/9.2.1/cstdio"
 3236              		.file 36 "/usr/include/newlib/c++/9.2.1/bits/basic_string.h"
 3237              		.file 37 "/usr/include/newlib/c++/9.2.1/bits/uniform_int_dist.h"
 3238              		.file 38 "/usr/include/newlib/c++/9.2.1/bits/random.h"
 3239              		.file 39 "/usr/include/newlib/c++/9.2.1/cstring"
 3240              		.file 40 "/usr/include/newlib/c++/9.2.1/bits/algorithmfwd.h"
 3241              		.file 41 "/usr/include/newlib/c++/9.2.1/cstdarg"
 3242              		.file 42 "/usr/include/newlib/c++/9.2.1/bits/predefined_ops.h"
 3243              		.file 43 "/usr/include/newlib/c++/9.2.1/ext/new_allocator.h"
 3244              		.file 44 "/usr/include/newlib/c++/9.2.1/ext/numeric_traits.h"
 3245              		.file 45 "/usr/include/newlib/sys/_types.h"
 3246              		.file 46 "<built-in>"
 3247              		.file 47 "/usr/include/newlib/sys/reent.h"
 3248              		.file 48 "/usr/include/newlib/sys/lock.h"
 3249              		.file 49 "/usr/include/newlib/math.h"
 3250              		.file 50 "/usr/include/newlib/stdlib.h"
 3251              		.file 51 "/usr/include/newlib/c++/9.2.1/math.h"
 3252              		.file 52 "../../libdaisy/Drivers/STM32H7xx_HAL_Driver/Inc/stm32h7xx_hal_def.h"
 3253              		.file 53 "../../libdaisy/Drivers/STM32H7xx_HAL_Driver/Inc/stm32h7xx_hal_flash.h"
 3254              		.file 54 "../../DaisySP/Source/Control/adenv.h"
 3255              		.file 55 "/usr/lib/gcc/arm-none-eabi/9.2.1/include/stdarg.h"
 3256              		.file 56 "/usr/include/newlib/wchar.h"
 3257              		.file 57 "/usr/include/newlib/locale.h"
 3258              		.file 58 "/usr/include/newlib/ctype.h"
 3259              		.file 59 "/usr/include/newlib/stdio.h"
 3260              		.file 60 "/usr/include/newlib/sys/errno.h"
 3261              		.file 61 "/usr/include/newlib/c++/9.2.1/stdlib.h"
 3262              		.file 62 "/usr/include/newlib/string.h"
 3263              		.file 63 "../../libdaisy/src/daisy_core.h"
 3264              		.file 64 "../../libdaisy/src/per/tim.h"
 3265              		.file 65 "../../libdaisy/src/per/sai.h"
 3266              		.file 66 "../../libdaisy/src/util/wav_format.h"
 3267              		.file 67 "../../libdaisy/src/hid/led.h"
 3268              		.file 68 "../../libdaisy/src/util/color.h"
 3269              		.file 69 "../../libdaisy/src/hid/rgb_led.h"
 3270              		.file 70 "../../libdaisy/src/per/qspi.h"
 3271              		.file 71 "../../libdaisy/src/per/gpio.h"
 3272              		.file 72 "../../libdaisy/src/dev/sdram.h"
ARM GAS  /tmp/ccVtSobE.s 			page 89


 3273              		.file 73 "/usr/include/newlib/sys/unistd.h"
 3274              		.file 74 "../../libdaisy/src/util/oled_fonts.h"
 3275              		.file 75 "../../libdaisy/Middlewares/Third_Party/FatFs/src/integer.h"
 3276              		.file 76 "../../libdaisy/Middlewares/Third_Party/FatFs/src/ff.h"
 3277              		.file 77 "../../libdaisy/Middlewares/Third_Party/FatFs/src/diskio.h"
 3278              		.file 78 "../../libdaisy/Middlewares/Third_Party/FatFs/src/ff_gen_drv.h"
 3279              		.file 79 "../../libdaisy/src/util/sd_diskio.h"
 3280              		.file 80 "../../libdaisy/src/sys/fatfs.h"
 3281              		.file 81 "../../libdaisy/src/dev/sr_595.h"
ARM GAS  /tmp/ccVtSobE.s 			page 90

