ARM GAS  C:\Users\etpen\AppData\Local\Temp\cciw2fvE.s 			page 1


   1              		.cpu cortex-m7
   2              		.eabi_attribute 28, 1
   3              		.eabi_attribute 20, 1
   4              		.eabi_attribute 21, 1
   5              		.eabi_attribute 23, 3
   6              		.eabi_attribute 24, 1
   7              		.eabi_attribute 25, 1
   8              		.eabi_attribute 26, 1
   9              		.eabi_attribute 30, 2
  10              		.eabi_attribute 34, 1
  11              		.eabi_attribute 18, 4
  12              		.file	"Compressor.cpp"
  13              		.text
  14              	.Ltext0:
  15              		.cfi_sections	.debug_frame
  16              		.section	.text._ZN7daisysp10CompressorD2Ev,"axG",%progbits,_ZN7daisysp10CompressorD5Ev,comdat
  17              		.align	1
  18              		.p2align 2,,3
  19              		.weak	_ZN7daisysp10CompressorD2Ev
  20              		.arch armv7e-m
  21              		.syntax unified
  22              		.thumb
  23              		.thumb_func
  24              		.fpu fpv5-d16
  26              	_ZN7daisysp10CompressorD2Ev:
  27              	.LVL0:
  28              	.LFB2926:
  29              		.file 1 "../../DaisySP/Source/Dynamics/compressor.h"
   1:../../DaisySP/Source/Dynamics/compressor.h **** #pragma once
   2:../../DaisySP/Source/Dynamics/compressor.h **** #ifndef DSY_COMPRESSOR_H
   3:../../DaisySP/Source/Dynamics/compressor.h **** #define DSY_COMPRESSOR_H
   4:../../DaisySP/Source/Dynamics/compressor.h **** 
   5:../../DaisySP/Source/Dynamics/compressor.h **** #include "Utility/dsp.h"
   6:../../DaisySP/Source/Dynamics/compressor.h **** 
   7:../../DaisySP/Source/Dynamics/compressor.h **** namespace daisysp
   8:../../DaisySP/Source/Dynamics/compressor.h **** {
   9:../../DaisySP/Source/Dynamics/compressor.h **** /** dynamics compressor
  10:../../DaisySP/Source/Dynamics/compressor.h **** 
  11:../../DaisySP/Source/Dynamics/compressor.h **** influenced by compressor in soundpipe (from faust).
  12:../../DaisySP/Source/Dynamics/compressor.h **** 
  13:../../DaisySP/Source/Dynamics/compressor.h **** Modifications made to do:
  14:../../DaisySP/Source/Dynamics/compressor.h **** - Less calculations during each process loop (coefficients recalculated on parameter change).
  15:../../DaisySP/Source/Dynamics/compressor.h **** - C++-ified
  16:../../DaisySP/Source/Dynamics/compressor.h **** - added sidechain support
  17:../../DaisySP/Source/Dynamics/compressor.h **** - pulled gain apart for monitoring and multichannel support
  18:../../DaisySP/Source/Dynamics/compressor.h **** - improved readability
  19:../../DaisySP/Source/Dynamics/compressor.h **** - improved makeup-gain calculations
  20:../../DaisySP/Source/Dynamics/compressor.h **** - changing controls now costs a lot less
  21:../../DaisySP/Source/Dynamics/compressor.h **** - a lot less expensive
  22:../../DaisySP/Source/Dynamics/compressor.h **** 
  23:../../DaisySP/Source/Dynamics/compressor.h **** by: shensley, improved upon by AvAars
  24:../../DaisySP/Source/Dynamics/compressor.h **** \todo Add soft/hard knee settings
  25:../../DaisySP/Source/Dynamics/compressor.h **** */
  26:../../DaisySP/Source/Dynamics/compressor.h **** class Compressor
  27:../../DaisySP/Source/Dynamics/compressor.h **** {
  28:../../DaisySP/Source/Dynamics/compressor.h ****   public:
  29:../../DaisySP/Source/Dynamics/compressor.h ****     Compressor() {}
ARM GAS  C:\Users\etpen\AppData\Local\Temp\cciw2fvE.s 			page 2


  30:../../DaisySP/Source/Dynamics/compressor.h ****     ~Compressor() {}
  30              		.loc 1 30 5 view -0
  31              		.cfi_startproc
  32              		@ args = 0, pretend = 0, frame = 0
  33              		@ frame_needed = 0, uses_anonymous_args = 0
  34              		@ link register save eliminated.
  35              		.loc 1 30 20 is_stmt 0 view .LVU1
  36 0000 7047     		bx	lr
  37              		.cfi_endproc
  38              	.LFE2926:
  40              		.weak	_ZN7daisysp10CompressorD1Ev
  41              		.thumb_set _ZN7daisysp10CompressorD1Ev,_ZN7daisysp10CompressorD2Ev
  42 0002 00BF     		.section	.text._ZN5daisy9ParameterD2Ev,"axG",%progbits,_ZN5daisy9ParameterD5Ev,comdat
  43              		.align	1
  44              		.p2align 2,,3
  45              		.weak	_ZN5daisy9ParameterD2Ev
  46              		.syntax unified
  47              		.thumb
  48              		.thumb_func
  49              		.fpu fpv5-d16
  51              	_ZN5daisy9ParameterD2Ev:
  52              	.LVL1:
  53              	.LFB3867:
  54              		.file 2 "../../libDaisy/src/hid/parameter.h"
   1:../../libDaisy/src/hid/parameter.h **** #pragma once
   2:../../libDaisy/src/hid/parameter.h **** #include <stdint.h>
   3:../../libDaisy/src/hid/parameter.h **** #include "hid/ctrl.h"
   4:../../libDaisy/src/hid/parameter.h **** 
   5:../../libDaisy/src/hid/parameter.h **** namespace daisy
   6:../../libDaisy/src/hid/parameter.h **** {
   7:../../libDaisy/src/hid/parameter.h **** /** @addtogroup controls
   8:../../libDaisy/src/hid/parameter.h ****     @{
   9:../../libDaisy/src/hid/parameter.h **** */
  10:../../libDaisy/src/hid/parameter.h **** 
  11:../../libDaisy/src/hid/parameter.h **** /**      Simple parameter mapping tool that takes a 0-1 input from an hid_ctrl. */
  12:../../libDaisy/src/hid/parameter.h **** class Parameter
  13:../../libDaisy/src/hid/parameter.h **** {
  14:../../libDaisy/src/hid/parameter.h ****   public:
  15:../../libDaisy/src/hid/parameter.h ****     /** Curves are applied to the output signal */
  16:../../libDaisy/src/hid/parameter.h ****     enum Curve
  17:../../libDaisy/src/hid/parameter.h ****     {
  18:../../libDaisy/src/hid/parameter.h ****         LINEAR,      /**< Linear curve */
  19:../../libDaisy/src/hid/parameter.h ****         EXPONENTIAL, /**< Exponential curve */
  20:../../libDaisy/src/hid/parameter.h ****         LOGARITHMIC, /**<  Logarithmic curve */
  21:../../libDaisy/src/hid/parameter.h ****         CUBE,        /**< Cubic curve */
  22:../../libDaisy/src/hid/parameter.h ****         LAST,        /**< Final enum element. */
  23:../../libDaisy/src/hid/parameter.h ****     };
  24:../../libDaisy/src/hid/parameter.h ****     /** Constructor */
  25:../../libDaisy/src/hid/parameter.h ****     Parameter() {}
  26:../../libDaisy/src/hid/parameter.h ****     /** Destructor */
  27:../../libDaisy/src/hid/parameter.h ****     ~Parameter() {}
  55              		.loc 2 27 5 is_stmt 1 view -0
  56              		.cfi_startproc
  57              		@ args = 0, pretend = 0, frame = 0
  58              		@ frame_needed = 0, uses_anonymous_args = 0
  59              		@ link register save eliminated.
  60              	.LBB699:
ARM GAS  C:\Users\etpen\AppData\Local\Temp\cciw2fvE.s 			page 3


  61              	.LBI699:
  62              		.file 3 "../../libDaisy/src/hid/ctrl.h"
   1:../../libDaisy/src/hid/ctrl.h **** #pragma once
   2:../../libDaisy/src/hid/ctrl.h **** #ifndef DSY_KNOB_H
   3:../../libDaisy/src/hid/ctrl.h **** #define DSY_KNOB_H /**< & */
   4:../../libDaisy/src/hid/ctrl.h **** #include <stdint.h>
   5:../../libDaisy/src/hid/ctrl.h **** 
   6:../../libDaisy/src/hid/ctrl.h **** #ifdef __cplusplus
   7:../../libDaisy/src/hid/ctrl.h **** namespace daisy
   8:../../libDaisy/src/hid/ctrl.h **** {
   9:../../libDaisy/src/hid/ctrl.h **** /**
  10:../../libDaisy/src/hid/ctrl.h ****     @brief Hardware Interface for control inputs \n 
  11:../../libDaisy/src/hid/ctrl.h ****     Primarily designed for ADC input controls such as \n 
  12:../../libDaisy/src/hid/ctrl.h ****     potentiometers, and control voltage. \n 
  13:../../libDaisy/src/hid/ctrl.h ****     @author Stephen Hensley
  14:../../libDaisy/src/hid/ctrl.h ****     @date November 2019
  15:../../libDaisy/src/hid/ctrl.h ****     @ingroup controls
  16:../../libDaisy/src/hid/ctrl.h **** */
  17:../../libDaisy/src/hid/ctrl.h **** class AnalogControl
  18:../../libDaisy/src/hid/ctrl.h **** {
  19:../../libDaisy/src/hid/ctrl.h ****   public:
  20:../../libDaisy/src/hid/ctrl.h ****     /** Constructor */
  21:../../libDaisy/src/hid/ctrl.h ****     AnalogControl() {}
  22:../../libDaisy/src/hid/ctrl.h ****     /** destructor */
  23:../../libDaisy/src/hid/ctrl.h ****     ~AnalogControl() {}
  63              		.loc 3 23 5 view .LVU3
  64              		.loc 3 23 5 is_stmt 0 view .LVU4
  65              	.LBE699:
  66              		.loc 2 27 19 view .LVU5
  67 0000 7047     		bx	lr
  68              		.cfi_endproc
  69              	.LFE3867:
  71              		.weak	_ZN5daisy9ParameterD1Ev
  72              		.thumb_set _ZN5daisy9ParameterD1Ev,_ZN5daisy9ParameterD2Ev
  73 0002 00BF     		.section	.text._ZN5daisy10DaisyPatchD2Ev,"axG",%progbits,_ZN5daisy10DaisyPatchD5Ev,comdat
  74              		.align	1
  75              		.p2align 2,,3
  76              		.weak	_ZN5daisy10DaisyPatchD2Ev
  77              		.syntax unified
  78              		.thumb
  79              		.thumb_func
  80              		.fpu fpv5-d16
  82              	_ZN5daisy10DaisyPatchD2Ev:
  83              	.LVL2:
  84              	.LFB4414:
  85              		.file 4 "../../libDaisy/src/daisy_patch.h"
   1:../../libDaisy/src/daisy_patch.h **** #pragma once
   2:../../libDaisy/src/daisy_patch.h **** #ifndef DSY_PATCH_BSP_H
   3:../../libDaisy/src/daisy_patch.h **** #define DSY_PATCH_BSP_H
   4:../../libDaisy/src/daisy_patch.h **** #include "daisy_seed.h"
   5:../../libDaisy/src/daisy_patch.h **** #include "dev/oled_ssd130x.h"
   6:../../libDaisy/src/daisy_patch.h **** 
   7:../../libDaisy/src/daisy_patch.h **** namespace daisy
   8:../../libDaisy/src/daisy_patch.h **** {
   9:../../libDaisy/src/daisy_patch.h **** /**
  10:../../libDaisy/src/daisy_patch.h ****     @brief Class that handles initializing all of the hardware specific to the Daisy Patch Board. \
  11:../../libDaisy/src/daisy_patch.h ****     Helper funtions are also in place to provide easy access to built-in controls and peripherals.
ARM GAS  C:\Users\etpen\AppData\Local\Temp\cciw2fvE.s 			page 4


  12:../../libDaisy/src/daisy_patch.h ****     @author Stephen Hensley
  13:../../libDaisy/src/daisy_patch.h ****     @date November 2019
  14:../../libDaisy/src/daisy_patch.h ****     @ingroup boards
  15:../../libDaisy/src/daisy_patch.h **** */
  16:../../libDaisy/src/daisy_patch.h **** class DaisyPatch
  17:../../libDaisy/src/daisy_patch.h **** {
  18:../../libDaisy/src/daisy_patch.h ****   public:
  19:../../libDaisy/src/daisy_patch.h ****     /** Enum of Ctrls to represent the four CV/Knob combos on the Patch
  20:../../libDaisy/src/daisy_patch.h ****      */
  21:../../libDaisy/src/daisy_patch.h ****     enum Ctrl
  22:../../libDaisy/src/daisy_patch.h ****     {
  23:../../libDaisy/src/daisy_patch.h ****         CTRL_1,    /**< */
  24:../../libDaisy/src/daisy_patch.h ****         CTRL_2,    /**< */
  25:../../libDaisy/src/daisy_patch.h ****         CTRL_3,    /**< */
  26:../../libDaisy/src/daisy_patch.h ****         CTRL_4,    /**< */
  27:../../libDaisy/src/daisy_patch.h ****         CTRL_LAST, /**< */
  28:../../libDaisy/src/daisy_patch.h ****     };
  29:../../libDaisy/src/daisy_patch.h **** 
  30:../../libDaisy/src/daisy_patch.h ****     /** Daisy patch gate inputs */
  31:../../libDaisy/src/daisy_patch.h ****     enum GateInput
  32:../../libDaisy/src/daisy_patch.h ****     {
  33:../../libDaisy/src/daisy_patch.h ****         GATE_IN_1,    /**< */
  34:../../libDaisy/src/daisy_patch.h ****         GATE_IN_2,    /** <*/
  35:../../libDaisy/src/daisy_patch.h ****         GATE_IN_LAST, /**< */
  36:../../libDaisy/src/daisy_patch.h ****     };
  37:../../libDaisy/src/daisy_patch.h **** 
  38:../../libDaisy/src/daisy_patch.h ****     /** Constructor */
  39:../../libDaisy/src/daisy_patch.h ****     DaisyPatch() {}
  40:../../libDaisy/src/daisy_patch.h ****     /** Destructor */
  41:../../libDaisy/src/daisy_patch.h ****     ~DaisyPatch() {}
  86              		.loc 4 41 5 is_stmt 1 view -0
  87              		.cfi_startproc
  88              		@ args = 0, pretend = 0, frame = 0
  89              		@ frame_needed = 0, uses_anonymous_args = 0
  90              		@ link register save eliminated.
  91              	.LBB700:
  92              	.LBI700:
  93              		.file 5 "../../libDaisy/src/hid/disp/oled_display.h"
   1:../../libDaisy/src/hid/disp/oled_display.h **** #pragma once
   2:../../libDaisy/src/hid/disp/oled_display.h **** #ifndef DSY_OLED_DISPLAY_H
   3:../../libDaisy/src/hid/disp/oled_display.h **** #define DSY_OLED_DISPLAY_H /**< Macro */
   4:../../libDaisy/src/hid/disp/oled_display.h **** 
   5:../../libDaisy/src/hid/disp/oled_display.h **** #include "display.h"
   6:../../libDaisy/src/hid/disp/oled_display.h **** 
   7:../../libDaisy/src/hid/disp/oled_display.h **** namespace daisy
   8:../../libDaisy/src/hid/disp/oled_display.h **** {
   9:../../libDaisy/src/hid/disp/oled_display.h **** /** 
  10:../../libDaisy/src/hid/disp/oled_display.h ****  * This class is for drawing to a monochrome OLED display. 
  11:../../libDaisy/src/hid/disp/oled_display.h **** */
  12:../../libDaisy/src/hid/disp/oled_display.h **** template <typename DisplayDriver>
  13:../../libDaisy/src/hid/disp/oled_display.h **** class OledDisplay : public OneBitGraphicsDisplayImpl<OledDisplay<DisplayDriver>>
  14:../../libDaisy/src/hid/disp/oled_display.h **** {
  15:../../libDaisy/src/hid/disp/oled_display.h ****   public:
  16:../../libDaisy/src/hid/disp/oled_display.h ****     OledDisplay() {}
  17:../../libDaisy/src/hid/disp/oled_display.h ****     virtual ~OledDisplay() {}
  94              		.loc 5 17 13 view .LVU7
  95              	.LBB701:
ARM GAS  C:\Users\etpen\AppData\Local\Temp\cciw2fvE.s 			page 5


  96              	.LBI701:
  97              		.file 6 "../../libDaisy/src/hid/disp/display.h"
   1:../../libDaisy/src/hid/disp/display.h **** #pragma once
   2:../../libDaisy/src/hid/disp/display.h **** #ifndef DSY_DISPLAY_H
   3:../../libDaisy/src/hid/disp/display.h **** #define DSY_DISPLAY_H /**< Macro */
   4:../../libDaisy/src/hid/disp/display.h **** #include <cmath>
   5:../../libDaisy/src/hid/disp/display.h **** #include "util/oled_fonts.h"
   6:../../libDaisy/src/hid/disp/display.h **** #include "daisy_core.h"
   7:../../libDaisy/src/hid/disp/display.h **** #include "graphics_common.h"
   8:../../libDaisy/src/hid/disp/display.h **** 
   9:../../libDaisy/src/hid/disp/display.h **** #ifndef deg2rad
  10:../../libDaisy/src/hid/disp/display.h **** #define deg2rad(deg) ((deg)*3.141592 / 180.0)
  11:../../libDaisy/src/hid/disp/display.h **** #endif
  12:../../libDaisy/src/hid/disp/display.h **** 
  13:../../libDaisy/src/hid/disp/display.h **** namespace daisy
  14:../../libDaisy/src/hid/disp/display.h **** {
  15:../../libDaisy/src/hid/disp/display.h **** /** 
  16:../../libDaisy/src/hid/disp/display.h ****  * This interface is used as a base class for all types of 1bit-per-pixel
  17:../../libDaisy/src/hid/disp/display.h ****  * graphics displays.
  18:../../libDaisy/src/hid/disp/display.h **** */
  19:../../libDaisy/src/hid/disp/display.h **** class OneBitGraphicsDisplay
  20:../../libDaisy/src/hid/disp/display.h **** {
  21:../../libDaisy/src/hid/disp/display.h ****   public:
  22:../../libDaisy/src/hid/disp/display.h ****     OneBitGraphicsDisplay() {}
  23:../../libDaisy/src/hid/disp/display.h ****     virtual ~OneBitGraphicsDisplay() {}
  24:../../libDaisy/src/hid/disp/display.h **** 
  25:../../libDaisy/src/hid/disp/display.h ****     virtual uint16_t Height() const = 0;
  26:../../libDaisy/src/hid/disp/display.h ****     virtual uint16_t Width() const  = 0;
  27:../../libDaisy/src/hid/disp/display.h **** 
  28:../../libDaisy/src/hid/disp/display.h ****     Rectangle GetBounds() const
  29:../../libDaisy/src/hid/disp/display.h ****     {
  30:../../libDaisy/src/hid/disp/display.h ****         return Rectangle(int16_t(Width()), int16_t(Height()));
  31:../../libDaisy/src/hid/disp/display.h ****     }
  32:../../libDaisy/src/hid/disp/display.h **** 
  33:../../libDaisy/src/hid/disp/display.h **** 
  34:../../libDaisy/src/hid/disp/display.h ****     size_t CurrentX() { return currentX_; };
  35:../../libDaisy/src/hid/disp/display.h ****     size_t CurrentY() { return currentY_; };
  36:../../libDaisy/src/hid/disp/display.h **** 
  37:../../libDaisy/src/hid/disp/display.h ****     /** 
  38:../../libDaisy/src/hid/disp/display.h ****     Fills the entire display with either on/off.
  39:../../libDaisy/src/hid/disp/display.h ****     \param on Sets on or off.
  40:../../libDaisy/src/hid/disp/display.h ****     */
  41:../../libDaisy/src/hid/disp/display.h ****     virtual void Fill(bool on) = 0;
  42:../../libDaisy/src/hid/disp/display.h **** 
  43:../../libDaisy/src/hid/disp/display.h ****     /**
  44:../../libDaisy/src/hid/disp/display.h ****     Sets the pixel at the specified coordinate to be on/off.
  45:../../libDaisy/src/hid/disp/display.h ****     \param x   x Coordinate
  46:../../libDaisy/src/hid/disp/display.h ****     \param y   y coordinate
  47:../../libDaisy/src/hid/disp/display.h ****     \param on  on or off
  48:../../libDaisy/src/hid/disp/display.h ****     */
  49:../../libDaisy/src/hid/disp/display.h ****     virtual void DrawPixel(uint_fast8_t x, uint_fast8_t y, bool on) = 0;
  50:../../libDaisy/src/hid/disp/display.h **** 
  51:../../libDaisy/src/hid/disp/display.h ****     /**
  52:../../libDaisy/src/hid/disp/display.h ****     Draws a line from (x1, y1) to (y1, y2)
  53:../../libDaisy/src/hid/disp/display.h ****     \param x1  x Coordinate of the starting point
  54:../../libDaisy/src/hid/disp/display.h ****     \param y1  y Coordinate of the starting point
  55:../../libDaisy/src/hid/disp/display.h ****     \param x2  x Coordinate of the ending point
ARM GAS  C:\Users\etpen\AppData\Local\Temp\cciw2fvE.s 			page 6


  56:../../libDaisy/src/hid/disp/display.h ****     \param y2  y Coordinate of the ending point
  57:../../libDaisy/src/hid/disp/display.h ****     \param on  on or off
  58:../../libDaisy/src/hid/disp/display.h ****     */
  59:../../libDaisy/src/hid/disp/display.h ****     virtual void DrawLine(uint_fast8_t x1,
  60:../../libDaisy/src/hid/disp/display.h ****                           uint_fast8_t y1,
  61:../../libDaisy/src/hid/disp/display.h ****                           uint_fast8_t x2,
  62:../../libDaisy/src/hid/disp/display.h ****                           uint_fast8_t y2,
  63:../../libDaisy/src/hid/disp/display.h ****                           bool         on)
  64:../../libDaisy/src/hid/disp/display.h ****         = 0;
  65:../../libDaisy/src/hid/disp/display.h **** 
  66:../../libDaisy/src/hid/disp/display.h ****     /**
  67:../../libDaisy/src/hid/disp/display.h ****     Draws a rectangle based on two coordinates.
  68:../../libDaisy/src/hid/disp/display.h ****     \param x1 x Coordinate of the first point
  69:../../libDaisy/src/hid/disp/display.h ****     \param y1 y Coordinate of the first point
  70:../../libDaisy/src/hid/disp/display.h ****     \param x2 x Coordinate of the second point
  71:../../libDaisy/src/hid/disp/display.h ****     \param y2 y Coordinate of the second point
  72:../../libDaisy/src/hid/disp/display.h ****     \param on on or off
  73:../../libDaisy/src/hid/disp/display.h ****     \param fill fill the rectangle or draw only the outline
  74:../../libDaisy/src/hid/disp/display.h ****     */
  75:../../libDaisy/src/hid/disp/display.h ****     virtual void DrawRect(uint_fast8_t x1,
  76:../../libDaisy/src/hid/disp/display.h ****                           uint_fast8_t y1,
  77:../../libDaisy/src/hid/disp/display.h ****                           uint_fast8_t x2,
  78:../../libDaisy/src/hid/disp/display.h ****                           uint_fast8_t y2,
  79:../../libDaisy/src/hid/disp/display.h ****                           bool         on,
  80:../../libDaisy/src/hid/disp/display.h ****                           bool         fill = false)
  81:../../libDaisy/src/hid/disp/display.h ****         = 0;
  82:../../libDaisy/src/hid/disp/display.h **** 
  83:../../libDaisy/src/hid/disp/display.h ****     /**
  84:../../libDaisy/src/hid/disp/display.h ****     Draws a rectangle.
  85:../../libDaisy/src/hid/disp/display.h ****     \param rect the rectangle
  86:../../libDaisy/src/hid/disp/display.h ****     \param on   on or off
  87:../../libDaisy/src/hid/disp/display.h ****     \param fill fill the rectangle or draw only the outline
  88:../../libDaisy/src/hid/disp/display.h ****     */
  89:../../libDaisy/src/hid/disp/display.h ****     void DrawRect(const Rectangle& rect, bool on, bool fill = false)
  90:../../libDaisy/src/hid/disp/display.h ****     {
  91:../../libDaisy/src/hid/disp/display.h ****         DrawRect(rect.GetX(),
  92:../../libDaisy/src/hid/disp/display.h ****                  rect.GetY(),
  93:../../libDaisy/src/hid/disp/display.h ****                  rect.GetRight(),
  94:../../libDaisy/src/hid/disp/display.h ****                  rect.GetBottom(),
  95:../../libDaisy/src/hid/disp/display.h ****                  on,
  96:../../libDaisy/src/hid/disp/display.h ****                  fill);
  97:../../libDaisy/src/hid/disp/display.h ****     }
  98:../../libDaisy/src/hid/disp/display.h **** 
  99:../../libDaisy/src/hid/disp/display.h ****     /**
 100:../../libDaisy/src/hid/disp/display.h ****     Draws an arc around the specified coordinate
 101:../../libDaisy/src/hid/disp/display.h ****     \param x           x Coordinate of the center of the arc
 102:../../libDaisy/src/hid/disp/display.h ****     \param y           y Coordinate of the center of the arc
 103:../../libDaisy/src/hid/disp/display.h ****     \param radius      radius of the arc
 104:../../libDaisy/src/hid/disp/display.h ****     \param start_angle angle where to start the arc
 105:../../libDaisy/src/hid/disp/display.h ****     \param sweep       total angle of the arc
 106:../../libDaisy/src/hid/disp/display.h ****     \param on  on or off
 107:../../libDaisy/src/hid/disp/display.h ****     */
 108:../../libDaisy/src/hid/disp/display.h ****     virtual void DrawArc(uint_fast8_t x,
 109:../../libDaisy/src/hid/disp/display.h ****                          uint_fast8_t y,
 110:../../libDaisy/src/hid/disp/display.h ****                          uint_fast8_t radius,
 111:../../libDaisy/src/hid/disp/display.h ****                          int_fast16_t start_angle,
 112:../../libDaisy/src/hid/disp/display.h ****                          int_fast16_t sweep,
ARM GAS  C:\Users\etpen\AppData\Local\Temp\cciw2fvE.s 			page 7


 113:../../libDaisy/src/hid/disp/display.h ****                          bool         on)
 114:../../libDaisy/src/hid/disp/display.h ****         = 0;
 115:../../libDaisy/src/hid/disp/display.h **** 
 116:../../libDaisy/src/hid/disp/display.h ****     /**
 117:../../libDaisy/src/hid/disp/display.h ****     Draws a circle around the specified coordinate
 118:../../libDaisy/src/hid/disp/display.h ****     \param x           x Coordinate of the center of the circle
 119:../../libDaisy/src/hid/disp/display.h ****     \param y           y Coordinate of the center of the circle
 120:../../libDaisy/src/hid/disp/display.h ****     \param radius      radius of the circle
 121:../../libDaisy/src/hid/disp/display.h ****     \param on  on or off
 122:../../libDaisy/src/hid/disp/display.h ****     */
 123:../../libDaisy/src/hid/disp/display.h ****     void
 124:../../libDaisy/src/hid/disp/display.h ****     DrawCircle(uint_fast8_t x, uint_fast8_t y, uint_fast8_t radius, bool on)
 125:../../libDaisy/src/hid/disp/display.h ****     {
 126:../../libDaisy/src/hid/disp/display.h ****         DrawArc(x, y, radius, 0, 360, on);
 127:../../libDaisy/src/hid/disp/display.h ****     };
 128:../../libDaisy/src/hid/disp/display.h **** 
 129:../../libDaisy/src/hid/disp/display.h ****     /** 
 130:../../libDaisy/src/hid/disp/display.h ****     Writes the character with the specific FontDef
 131:../../libDaisy/src/hid/disp/display.h ****     to the display buffer at the current Cursor position.
 132:../../libDaisy/src/hid/disp/display.h ****     \param ch character to be written
 133:../../libDaisy/src/hid/disp/display.h ****     \param font font to be written in
 134:../../libDaisy/src/hid/disp/display.h ****     \param on    on or off
 135:../../libDaisy/src/hid/disp/display.h ****     \return &
 136:../../libDaisy/src/hid/disp/display.h ****     */
 137:../../libDaisy/src/hid/disp/display.h ****     virtual char WriteChar(char ch, FontDef font, bool on) = 0;
 138:../../libDaisy/src/hid/disp/display.h **** 
 139:../../libDaisy/src/hid/disp/display.h ****     /** 
 140:../../libDaisy/src/hid/disp/display.h ****     Similar to WriteChar, except it will handle an entire String.
 141:../../libDaisy/src/hid/disp/display.h ****     Wrapping does not happen automatically, so the width
 142:../../libDaisy/src/hid/disp/display.h ****     of the string must be kept within the dimensions of the screen.
 143:../../libDaisy/src/hid/disp/display.h ****     \param str string to be written
 144:../../libDaisy/src/hid/disp/display.h ****     \param font font to use
 145:../../libDaisy/src/hid/disp/display.h ****     \param on  on or off
 146:../../libDaisy/src/hid/disp/display.h ****     \return &
 147:../../libDaisy/src/hid/disp/display.h ****     */
 148:../../libDaisy/src/hid/disp/display.h ****     virtual char WriteString(const char* str, FontDef font, bool on) = 0;
 149:../../libDaisy/src/hid/disp/display.h **** 
 150:../../libDaisy/src/hid/disp/display.h ****     /** 
 151:../../libDaisy/src/hid/disp/display.h ****     Similar to WriteString but justified within a bounding box.
 152:../../libDaisy/src/hid/disp/display.h ****     \param str          string to be written
 153:../../libDaisy/src/hid/disp/display.h ****     \param font         font to use
 154:../../libDaisy/src/hid/disp/display.h ****     \param boundingBox  the bounding box to draw the text in
 155:../../libDaisy/src/hid/disp/display.h ****     \param alignment    the alignment to use
 156:../../libDaisy/src/hid/disp/display.h ****     \param on           on or off
 157:../../libDaisy/src/hid/disp/display.h ****     \return The rectangle that was drawn to
 158:../../libDaisy/src/hid/disp/display.h ****     */
 159:../../libDaisy/src/hid/disp/display.h ****     virtual Rectangle WriteStringAligned(const char*    str,
 160:../../libDaisy/src/hid/disp/display.h ****                                          const FontDef& font,
 161:../../libDaisy/src/hid/disp/display.h ****                                          Rectangle      boundingBox,
 162:../../libDaisy/src/hid/disp/display.h ****                                          Alignment      alignment,
 163:../../libDaisy/src/hid/disp/display.h ****                                          bool           on)
 164:../../libDaisy/src/hid/disp/display.h ****         = 0;
 165:../../libDaisy/src/hid/disp/display.h **** 
 166:../../libDaisy/src/hid/disp/display.h ****     /** 
 167:../../libDaisy/src/hid/disp/display.h ****     Moves the 'Cursor' position used for WriteChar, and WriteStr to the specified coordinate.
 168:../../libDaisy/src/hid/disp/display.h ****     \param x x pos
 169:../../libDaisy/src/hid/disp/display.h ****     \param y y pos
ARM GAS  C:\Users\etpen\AppData\Local\Temp\cciw2fvE.s 			page 8


 170:../../libDaisy/src/hid/disp/display.h ****     */
 171:../../libDaisy/src/hid/disp/display.h ****     void SetCursor(uint16_t x, uint16_t y)
 172:../../libDaisy/src/hid/disp/display.h ****     {
 173:../../libDaisy/src/hid/disp/display.h ****         currentX_ = (x >= Width()) ? Width() - 1 : x;
 174:../../libDaisy/src/hid/disp/display.h ****         currentY_ = (y >= Height()) ? Height() - 1 : y;
 175:../../libDaisy/src/hid/disp/display.h ****     }
 176:../../libDaisy/src/hid/disp/display.h **** 
 177:../../libDaisy/src/hid/disp/display.h ****     /** 
 178:../../libDaisy/src/hid/disp/display.h ****     Writes the current display buffer to the OLED device using SPI or I2C depending on 
 179:../../libDaisy/src/hid/disp/display.h ****     how the object was initialized.
 180:../../libDaisy/src/hid/disp/display.h ****     */
 181:../../libDaisy/src/hid/disp/display.h ****     virtual void Update() = 0;
 182:../../libDaisy/src/hid/disp/display.h **** 
 183:../../libDaisy/src/hid/disp/display.h ****   protected:
 184:../../libDaisy/src/hid/disp/display.h ****     uint16_t currentX_;
 185:../../libDaisy/src/hid/disp/display.h ****     uint16_t currentY_;
 186:../../libDaisy/src/hid/disp/display.h **** };
 187:../../libDaisy/src/hid/disp/display.h **** 
 188:../../libDaisy/src/hid/disp/display.h **** /** This class is intended as a intermediary class for your actual implementation of the OneBitGrap
 189:../../libDaisy/src/hid/disp/display.h ****  *  interface. It uses the CRTP design pattern where the template argument is the child class. It p
 190:../../libDaisy/src/hid/disp/display.h ****  *  implementations for most of the functions, except DrawPixel(), Update() and Fill(), which you'l
 191:../../libDaisy/src/hid/disp/display.h ****  *  to provide in your child class.
 192:../../libDaisy/src/hid/disp/display.h ****  *  The main goal of this class is to provide common drawing functions without relying on massive a
 193:../../libDaisy/src/hid/disp/display.h ****  *  virtual function calls that would result in a performance loss. To achieve this, any drawing fu
 194:../../libDaisy/src/hid/disp/display.h ****  *  is implemented here and internally calls other drawing functions (e.g. DrawRect() which interna
 195:../../libDaisy/src/hid/disp/display.h ****  *  DrawPixel() and DrawLine()) makes these calls via the qualified name of these functions to expl
 196:../../libDaisy/src/hid/disp/display.h ****  *  suppress the virtual dispatch mechanism like this:
 197:../../libDaisy/src/hid/disp/display.h ****  * 
 198:../../libDaisy/src/hid/disp/display.h ****  *      ChildType::DrawPixel(...); // no virtual function call; direct call into the child class fu
 199:../../libDaisy/src/hid/disp/display.h ****  *  
 200:../../libDaisy/src/hid/disp/display.h ****  *  To create a custom OneBitGraphicsDisplay implementation, you can 
 201:../../libDaisy/src/hid/disp/display.h ****  *  A) inherit from OneBitGraphicsDisplay directly and provide all the drawing functions yourself
 202:../../libDaisy/src/hid/disp/display.h ****  *  B) Inherit from OneBitGraphicsDisplayImpl and only provide DrawPixel(), Fill() and Update()
 203:../../libDaisy/src/hid/disp/display.h ****  *     like this:
 204:../../libDaisy/src/hid/disp/display.h ****  *  
 205:../../libDaisy/src/hid/disp/display.h ****  *      class MyDisplayClass : public OneBitGraphicsDisplayImpl<MyDisplayClass> 
 206:../../libDaisy/src/hid/disp/display.h ****  *      {
 207:../../libDaisy/src/hid/disp/display.h ****  *      public:
 208:../../libDaisy/src/hid/disp/display.h ****  *          void Fill() override { ... };
 209:../../libDaisy/src/hid/disp/display.h ****  *          void DrawPixel(uint_fast8_t x, uint_fast8_t y, bool on) override { ... };
 210:../../libDaisy/src/hid/disp/display.h ****  *          void Update() override { ... }
 211:../../libDaisy/src/hid/disp/display.h ****  *      };
 212:../../libDaisy/src/hid/disp/display.h ****  *  
 213:../../libDaisy/src/hid/disp/display.h ****  */
 214:../../libDaisy/src/hid/disp/display.h **** template <class ChildType>
 215:../../libDaisy/src/hid/disp/display.h **** class OneBitGraphicsDisplayImpl : public OneBitGraphicsDisplay
 216:../../libDaisy/src/hid/disp/display.h **** {
 217:../../libDaisy/src/hid/disp/display.h ****   public:
 218:../../libDaisy/src/hid/disp/display.h ****     OneBitGraphicsDisplayImpl() {}
 219:../../libDaisy/src/hid/disp/display.h ****     virtual ~OneBitGraphicsDisplayImpl() {}
  98              		.loc 6 219 13 view .LVU8
  99              	.LBB702:
 100              	.LBI702:
  23:../../libDaisy/src/hid/disp/display.h **** 
 101              		.loc 6 23 13 view .LVU9
  23:../../libDaisy/src/hid/disp/display.h **** 
 102              		.loc 6 23 13 is_stmt 0 view .LVU10
ARM GAS  C:\Users\etpen\AppData\Local\Temp\cciw2fvE.s 			page 9


 103              	.LBE702:
 104              	.LBE701:
 105              	.LBE700:
 106              	.LBB703:
 107              	.LBI703:
 108              		.file 7 "../../libDaisy/src/hid/midi.h"
   1:../../libDaisy/src/hid/midi.h **** #pragma once
   2:../../libDaisy/src/hid/midi.h **** #ifndef DSY_MIDI_H
   3:../../libDaisy/src/hid/midi.h **** #define DSY_MIDI_H
   4:../../libDaisy/src/hid/midi.h **** 
   5:../../libDaisy/src/hid/midi.h **** // TODO: make this adjustable
   6:../../libDaisy/src/hid/midi.h **** #define SYSEX_BUFFER_LEN 128
   7:../../libDaisy/src/hid/midi.h **** 
   8:../../libDaisy/src/hid/midi.h **** #include <stdint.h>
   9:../../libDaisy/src/hid/midi.h **** #include <stdlib.h>
  10:../../libDaisy/src/hid/midi.h **** #include "per/uart.h"
  11:../../libDaisy/src/hid/midi.h **** #include "util/ringbuffer.h"
  12:../../libDaisy/src/hid/midi.h **** #include "hid/MidiEvent.h"
  13:../../libDaisy/src/hid/midi.h **** #include "hid/usb_midi.h"
  14:../../libDaisy/src/hid/midi.h **** #include "sys/system.h"
  15:../../libDaisy/src/hid/midi.h **** 
  16:../../libDaisy/src/hid/midi.h **** namespace daisy
  17:../../libDaisy/src/hid/midi.h **** {
  18:../../libDaisy/src/hid/midi.h **** /** @addtogroup external 
  19:../../libDaisy/src/hid/midi.h ****     @{ 
  20:../../libDaisy/src/hid/midi.h **** */
  21:../../libDaisy/src/hid/midi.h **** 
  22:../../libDaisy/src/hid/midi.h **** class MidiUartTransport
  23:../../libDaisy/src/hid/midi.h **** {
  24:../../libDaisy/src/hid/midi.h ****   public:
  25:../../libDaisy/src/hid/midi.h ****     MidiUartTransport() {}
  26:../../libDaisy/src/hid/midi.h ****     ~MidiUartTransport() {}
  27:../../libDaisy/src/hid/midi.h **** 
  28:../../libDaisy/src/hid/midi.h ****     struct Config
  29:../../libDaisy/src/hid/midi.h ****     {
  30:../../libDaisy/src/hid/midi.h ****         UartHandler::Config::Peripheral periph;
  31:../../libDaisy/src/hid/midi.h ****         dsy_gpio_pin                    rx;
  32:../../libDaisy/src/hid/midi.h ****         dsy_gpio_pin                    tx;
  33:../../libDaisy/src/hid/midi.h **** 
  34:../../libDaisy/src/hid/midi.h ****         Config()
  35:../../libDaisy/src/hid/midi.h ****         {
  36:../../libDaisy/src/hid/midi.h ****             periph = UartHandler::Config::Peripheral::USART_1;
  37:../../libDaisy/src/hid/midi.h ****             rx     = {DSY_GPIOB, 7};
  38:../../libDaisy/src/hid/midi.h ****             tx     = {DSY_GPIOB, 6};
  39:../../libDaisy/src/hid/midi.h ****         }
  40:../../libDaisy/src/hid/midi.h ****     };
  41:../../libDaisy/src/hid/midi.h **** 
  42:../../libDaisy/src/hid/midi.h ****     inline void Init(Config config)
  43:../../libDaisy/src/hid/midi.h ****     {
  44:../../libDaisy/src/hid/midi.h ****         UartHandler::Config uart_config;
  45:../../libDaisy/src/hid/midi.h **** 
  46:../../libDaisy/src/hid/midi.h ****         //defaults
  47:../../libDaisy/src/hid/midi.h ****         uart_config.baudrate   = 31250;
  48:../../libDaisy/src/hid/midi.h ****         uart_config.stopbits   = UartHandler::Config::StopBits::BITS_1;
  49:../../libDaisy/src/hid/midi.h ****         uart_config.parity     = UartHandler::Config::Parity::NONE;
  50:../../libDaisy/src/hid/midi.h ****         uart_config.mode       = UartHandler::Config::Mode::TX_RX;
  51:../../libDaisy/src/hid/midi.h ****         uart_config.wordlength = UartHandler::Config::WordLength::BITS_8;
ARM GAS  C:\Users\etpen\AppData\Local\Temp\cciw2fvE.s 			page 10


  52:../../libDaisy/src/hid/midi.h **** 
  53:../../libDaisy/src/hid/midi.h ****         //user settings
  54:../../libDaisy/src/hid/midi.h ****         uart_config.periph        = config.periph;
  55:../../libDaisy/src/hid/midi.h ****         uart_config.pin_config.rx = config.rx;
  56:../../libDaisy/src/hid/midi.h ****         uart_config.pin_config.tx = config.tx;
  57:../../libDaisy/src/hid/midi.h **** 
  58:../../libDaisy/src/hid/midi.h ****         uart_.Init(uart_config);
  59:../../libDaisy/src/hid/midi.h ****     }
  60:../../libDaisy/src/hid/midi.h **** 
  61:../../libDaisy/src/hid/midi.h ****     inline void    StartRx() { uart_.StartRx(); }
  62:../../libDaisy/src/hid/midi.h ****     inline size_t  Readable() { return uart_.Readable(); }
  63:../../libDaisy/src/hid/midi.h ****     inline uint8_t Rx() { return uart_.PopRx(); }
  64:../../libDaisy/src/hid/midi.h ****     inline bool    RxActive() { return uart_.RxActive(); }
  65:../../libDaisy/src/hid/midi.h ****     inline void    FlushRx() { uart_.FlushRx(); }
  66:../../libDaisy/src/hid/midi.h ****     inline void    Tx(uint8_t* buff, size_t size) { uart_.PollTx(buff, size); }
  67:../../libDaisy/src/hid/midi.h **** 
  68:../../libDaisy/src/hid/midi.h ****   private:
  69:../../libDaisy/src/hid/midi.h ****     UartHandler uart_;
  70:../../libDaisy/src/hid/midi.h **** };
  71:../../libDaisy/src/hid/midi.h **** 
  72:../../libDaisy/src/hid/midi.h **** /** 
  73:../../libDaisy/src/hid/midi.h ****     @brief Simple MIDI Handler \n 
  74:../../libDaisy/src/hid/midi.h ****     Parses bytes from an input into valid MidiEvents. \n 
  75:../../libDaisy/src/hid/midi.h ****     The MidiEvents fill a FIFO queue that the user can pop messages from.
  76:../../libDaisy/src/hid/midi.h ****     @author shensley
  77:../../libDaisy/src/hid/midi.h ****     @date March 2020
  78:../../libDaisy/src/hid/midi.h **** */
  79:../../libDaisy/src/hid/midi.h **** template <typename Transport>
  80:../../libDaisy/src/hid/midi.h **** class MidiHandler
  81:../../libDaisy/src/hid/midi.h **** {
  82:../../libDaisy/src/hid/midi.h ****   public:
  83:../../libDaisy/src/hid/midi.h ****     MidiHandler() {}
  84:../../libDaisy/src/hid/midi.h ****     ~MidiHandler() {}
 109              		.loc 7 84 5 is_stmt 1 view .LVU11
 110              	.LBB704:
 111              	.LBI704:
  26:../../libDaisy/src/hid/midi.h **** 
 112              		.loc 7 26 5 view .LVU12
  26:../../libDaisy/src/hid/midi.h **** 
 113              		.loc 7 26 5 is_stmt 0 view .LVU13
 114              	.LBE704:
 115              	.LBE703:
 116              	.LBB705:
 117              	.LBI705:
 118              		.file 8 "../../libDaisy/src/hid/encoder.h"
   1:../../libDaisy/src/hid/encoder.h **** #pragma once
   2:../../libDaisy/src/hid/encoder.h **** #ifndef DSY_ENCODER_H
   3:../../libDaisy/src/hid/encoder.h **** #define DSY_ENCODER_H
   4:../../libDaisy/src/hid/encoder.h **** #include "daisy_core.h"
   5:../../libDaisy/src/hid/encoder.h **** #include "per/gpio.h"
   6:../../libDaisy/src/hid/encoder.h **** #include "hid/switch.h"
   7:../../libDaisy/src/hid/encoder.h **** 
   8:../../libDaisy/src/hid/encoder.h **** namespace daisy
   9:../../libDaisy/src/hid/encoder.h **** {
  10:../../libDaisy/src/hid/encoder.h **** /** 
  11:../../libDaisy/src/hid/encoder.h ****     @brief Generic Class for handling Quadrature Encoders \n 
  12:../../libDaisy/src/hid/encoder.h ****     Inspired/influenced by Mutable Instruments (pichenettes) Encoder classes
ARM GAS  C:\Users\etpen\AppData\Local\Temp\cciw2fvE.s 			page 11


  13:../../libDaisy/src/hid/encoder.h ****     @author Stephen Hensley
  14:../../libDaisy/src/hid/encoder.h ****     @date December 2019
  15:../../libDaisy/src/hid/encoder.h ****     @ingroup controls
  16:../../libDaisy/src/hid/encoder.h **** */
  17:../../libDaisy/src/hid/encoder.h **** class Encoder
  18:../../libDaisy/src/hid/encoder.h **** {
  19:../../libDaisy/src/hid/encoder.h ****   public:
  20:../../libDaisy/src/hid/encoder.h ****     Encoder() {}
  21:../../libDaisy/src/hid/encoder.h ****     ~Encoder() {}
 119              		.loc 8 21 5 is_stmt 1 view .LVU14
 120              	.LBB706:
 121              	.LBI706:
 122              		.file 9 "../../libDaisy/src/hid/switch.h"
   1:../../libDaisy/src/hid/switch.h **** #pragma once
   2:../../libDaisy/src/hid/switch.h **** #ifndef DSY_SWITCH_H
   3:../../libDaisy/src/hid/switch.h **** #define DSY_SWITCH_H
   4:../../libDaisy/src/hid/switch.h **** #include "daisy_core.h"
   5:../../libDaisy/src/hid/switch.h **** #include "per/gpio.h"
   6:../../libDaisy/src/hid/switch.h **** #include "sys/system.h"
   7:../../libDaisy/src/hid/switch.h **** 
   8:../../libDaisy/src/hid/switch.h **** namespace daisy
   9:../../libDaisy/src/hid/switch.h **** {
  10:../../libDaisy/src/hid/switch.h **** /** 
  11:../../libDaisy/src/hid/switch.h ****     Generic Class for handling momentary/latching switches \n 
  12:../../libDaisy/src/hid/switch.h ****     Inspired/influenced by Mutable Instruments (pichenettes) Switch classes
  13:../../libDaisy/src/hid/switch.h ****     @author Stephen Hensley
  14:../../libDaisy/src/hid/switch.h ****     @date December 2019
  15:../../libDaisy/src/hid/switch.h ****     @ingroup controls
  16:../../libDaisy/src/hid/switch.h **** */
  17:../../libDaisy/src/hid/switch.h **** class Switch
  18:../../libDaisy/src/hid/switch.h **** {
  19:../../libDaisy/src/hid/switch.h ****   public:
  20:../../libDaisy/src/hid/switch.h ****     /** Specifies the expected behavior of the switch */
  21:../../libDaisy/src/hid/switch.h ****     enum Type
  22:../../libDaisy/src/hid/switch.h ****     {
  23:../../libDaisy/src/hid/switch.h ****         TYPE_TOGGLE,    /**< & */
  24:../../libDaisy/src/hid/switch.h ****         TYPE_MOMENTARY, /**< & */
  25:../../libDaisy/src/hid/switch.h ****     };
  26:../../libDaisy/src/hid/switch.h ****     /** Specifies whether the pressed is HIGH or LOW. */
  27:../../libDaisy/src/hid/switch.h ****     enum Polarity
  28:../../libDaisy/src/hid/switch.h ****     {
  29:../../libDaisy/src/hid/switch.h ****         POLARITY_NORMAL,   /**< & */
  30:../../libDaisy/src/hid/switch.h ****         POLARITY_INVERTED, /**< & */
  31:../../libDaisy/src/hid/switch.h ****     };
  32:../../libDaisy/src/hid/switch.h **** 
  33:../../libDaisy/src/hid/switch.h ****     /** Specifies whether to use built-in Pull Up/Down resistors to hold button at a given state wh
  34:../../libDaisy/src/hid/switch.h ****     enum Pull
  35:../../libDaisy/src/hid/switch.h ****     {
  36:../../libDaisy/src/hid/switch.h ****         PULL_UP,   /**< & */
  37:../../libDaisy/src/hid/switch.h ****         PULL_DOWN, /**< & */
  38:../../libDaisy/src/hid/switch.h ****         PULL_NONE, /**< & */
  39:../../libDaisy/src/hid/switch.h ****     };
  40:../../libDaisy/src/hid/switch.h **** 
  41:../../libDaisy/src/hid/switch.h ****     Switch() {}
  42:../../libDaisy/src/hid/switch.h ****     ~Switch() {}
 123              		.loc 9 42 5 view .LVU15
 124              		.loc 9 42 5 is_stmt 0 view .LVU16
ARM GAS  C:\Users\etpen\AppData\Local\Temp\cciw2fvE.s 			page 12


 125              	.LBE706:
 126              	.LBE705:
 127              	.LBB707:
 128              	.LBI707:
 129              		.file 10 "../../libDaisy/src/daisy_seed.h"
   1:../../libDaisy/src/daisy_seed.h **** #pragma once
   2:../../libDaisy/src/daisy_seed.h **** #ifndef DSY_SEED_H
   3:../../libDaisy/src/daisy_seed.h **** #define DSY_SEED_H
   4:../../libDaisy/src/daisy_seed.h **** 
   5:../../libDaisy/src/daisy_seed.h **** #include "daisy.h"
   6:../../libDaisy/src/daisy_seed.h **** 
   7:../../libDaisy/src/daisy_seed.h **** //Uncomment this out if you're still using the rev2 hardware
   8:../../libDaisy/src/daisy_seed.h **** //#define SEED_REV2
   9:../../libDaisy/src/daisy_seed.h **** 
  10:../../libDaisy/src/daisy_seed.h **** namespace daisy
  11:../../libDaisy/src/daisy_seed.h **** {
  12:../../libDaisy/src/daisy_seed.h **** /**
  13:../../libDaisy/src/daisy_seed.h ****    @brief This is the higher-level interface for the Daisy board. \n 
  14:../../libDaisy/src/daisy_seed.h ****     All basic peripheral configuration/initialization is setup here. \n
  15:../../libDaisy/src/daisy_seed.h **** 
  16:../../libDaisy/src/daisy_seed.h ****    @ingroup boards
  17:../../libDaisy/src/daisy_seed.h **** */
  18:../../libDaisy/src/daisy_seed.h **** class DaisySeed
  19:../../libDaisy/src/daisy_seed.h **** {
  20:../../libDaisy/src/daisy_seed.h ****   public:
  21:../../libDaisy/src/daisy_seed.h ****     DaisySeed() {}
  22:../../libDaisy/src/daisy_seed.h ****     ~DaisySeed() {}
 130              		.loc 10 22 5 is_stmt 1 view .LVU17
 131              	.LBB708:
 132              	.LBI708:
 133              		.file 11 "../../libDaisy/src/sys/system.h"
   1:../../libDaisy/src/sys/system.h **** #ifndef DSY_SYSTEM_H
   2:../../libDaisy/src/sys/system.h **** #define DSY_SYSTEM_H
   3:../../libDaisy/src/sys/system.h **** 
   4:../../libDaisy/src/sys/system.h **** #ifndef UNIT_TEST // for unit tests, a dummy implementation is provided below
   5:../../libDaisy/src/sys/system.h **** 
   6:../../libDaisy/src/sys/system.h **** #include <cstdint>
   7:../../libDaisy/src/sys/system.h **** #include "per/tim.h"
   8:../../libDaisy/src/sys/system.h **** 
   9:../../libDaisy/src/sys/system.h **** namespace daisy
  10:../../libDaisy/src/sys/system.h **** {
  11:../../libDaisy/src/sys/system.h **** /** A handle for interacting with the Core System. 
  12:../../libDaisy/src/sys/system.h ****  ** This includes the Clock tree, MPU, global DMA initialization,
  13:../../libDaisy/src/sys/system.h ****  ** cache handling, and any other necessary global initiailzation
  14:../../libDaisy/src/sys/system.h ****  **
  15:../../libDaisy/src/sys/system.h ****  ** @author shensley
  16:../../libDaisy/src/sys/system.h ****  ** @addtogroup system
  17:../../libDaisy/src/sys/system.h ****  */
  18:../../libDaisy/src/sys/system.h **** class System
  19:../../libDaisy/src/sys/system.h **** {
  20:../../libDaisy/src/sys/system.h ****   public:
  21:../../libDaisy/src/sys/system.h ****     /** Contains settings for initializing the System */
  22:../../libDaisy/src/sys/system.h ****     struct Config
  23:../../libDaisy/src/sys/system.h ****     {
  24:../../libDaisy/src/sys/system.h ****         /** Specifies the system clock frequency that feeds APB/AHB clocks, etc. */
  25:../../libDaisy/src/sys/system.h ****         enum class SysClkFreq
  26:../../libDaisy/src/sys/system.h ****         {
ARM GAS  C:\Users\etpen\AppData\Local\Temp\cciw2fvE.s 			page 13


  27:../../libDaisy/src/sys/system.h ****             FREQ_400MHZ,
  28:../../libDaisy/src/sys/system.h ****             FREQ_480MHZ,
  29:../../libDaisy/src/sys/system.h ****         };
  30:../../libDaisy/src/sys/system.h **** 
  31:../../libDaisy/src/sys/system.h ****         /** Method to call on the struct to set to defaults
  32:../../libDaisy/src/sys/system.h ****          ** CPU Freq set to 400MHz
  33:../../libDaisy/src/sys/system.h ****          ** Cache Enabled 
  34:../../libDaisy/src/sys/system.h ****          ** */
  35:../../libDaisy/src/sys/system.h ****         void Defaults()
  36:../../libDaisy/src/sys/system.h ****         {
  37:../../libDaisy/src/sys/system.h ****             cpu_freq    = SysClkFreq::FREQ_400MHZ;
  38:../../libDaisy/src/sys/system.h ****             use_dcache  = true;
  39:../../libDaisy/src/sys/system.h ****             use_icache  = true;
  40:../../libDaisy/src/sys/system.h ****             skip_clocks = false;
  41:../../libDaisy/src/sys/system.h ****         }
  42:../../libDaisy/src/sys/system.h **** 
  43:../../libDaisy/src/sys/system.h ****         /** Method to call on the struct to set to boost mode:
  44:../../libDaisy/src/sys/system.h ****          ** CPU Freq set to 480MHz
  45:../../libDaisy/src/sys/system.h ****          ** Cache Enabled 
  46:../../libDaisy/src/sys/system.h ****          ** */
  47:../../libDaisy/src/sys/system.h ****         void Boost()
  48:../../libDaisy/src/sys/system.h ****         {
  49:../../libDaisy/src/sys/system.h ****             cpu_freq    = SysClkFreq::FREQ_480MHZ;
  50:../../libDaisy/src/sys/system.h ****             use_dcache  = true;
  51:../../libDaisy/src/sys/system.h ****             use_icache  = true;
  52:../../libDaisy/src/sys/system.h ****             skip_clocks = false;
  53:../../libDaisy/src/sys/system.h ****         }
  54:../../libDaisy/src/sys/system.h **** 
  55:../../libDaisy/src/sys/system.h ****         SysClkFreq cpu_freq;
  56:../../libDaisy/src/sys/system.h ****         bool       use_dcache;
  57:../../libDaisy/src/sys/system.h ****         bool       use_icache;
  58:../../libDaisy/src/sys/system.h ****         bool       skip_clocks;
  59:../../libDaisy/src/sys/system.h ****     };
  60:../../libDaisy/src/sys/system.h **** 
  61:../../libDaisy/src/sys/system.h ****     /** Describes the different regions of memory available to the Daisy
  62:../../libDaisy/src/sys/system.h ****      * 
  63:../../libDaisy/src/sys/system.h ****      */
  64:../../libDaisy/src/sys/system.h ****     enum MemoryRegion
  65:../../libDaisy/src/sys/system.h ****     {
  66:../../libDaisy/src/sys/system.h ****         INTERNAL_FLASH = 0,
  67:../../libDaisy/src/sys/system.h ****         ITCMRAM,
  68:../../libDaisy/src/sys/system.h ****         DTCMRAM,
  69:../../libDaisy/src/sys/system.h ****         SRAM_D1,
  70:../../libDaisy/src/sys/system.h ****         SRAM_D2,
  71:../../libDaisy/src/sys/system.h ****         SRAM_D3,
  72:../../libDaisy/src/sys/system.h ****         SDRAM,
  73:../../libDaisy/src/sys/system.h ****         QSPI,
  74:../../libDaisy/src/sys/system.h ****         INVALID_ADDRESS,
  75:../../libDaisy/src/sys/system.h ****     };
  76:../../libDaisy/src/sys/system.h **** 
  77:../../libDaisy/src/sys/system.h ****     System() {}
  78:../../libDaisy/src/sys/system.h ****     ~System() {}
 134              		.loc 11 78 5 view .LVU18
 135              		.loc 11 78 5 is_stmt 0 view .LVU19
 136              	.LBE708:
 137              	.LBB709:
 138              	.LBI709:
ARM GAS  C:\Users\etpen\AppData\Local\Temp\cciw2fvE.s 			page 14


 139              		.file 12 "../../libDaisy/src/hid/usb.h"
   1:../../libDaisy/src/hid/usb.h **** #pragma once
   2:../../libDaisy/src/hid/usb.h **** #ifndef DSY_HID_USB_H
   3:../../libDaisy/src/hid/usb.h **** #define DSY_HID_USB_H
   4:../../libDaisy/src/hid/usb.h **** #include <stdint.h>
   5:../../libDaisy/src/hid/usb.h **** #include <stdlib.h>
   6:../../libDaisy/src/hid/usb.h **** 
   7:../../libDaisy/src/hid/usb.h **** namespace daisy
   8:../../libDaisy/src/hid/usb.h **** /** @addtogroup externals
   9:../../libDaisy/src/hid/usb.h ****     @{
  10:../../libDaisy/src/hid/usb.h **** */
  11:../../libDaisy/src/hid/usb.h **** 
  12:../../libDaisy/src/hid/usb.h **** {
  13:../../libDaisy/src/hid/usb.h **** /** 
  14:../../libDaisy/src/hid/usb.h ****     @brief Interface for initializing and using the USB Peripherals on the daisy
  15:../../libDaisy/src/hid/usb.h ****     @author Stephen Hensley
  16:../../libDaisy/src/hid/usb.h ****     @date December 2019
  17:../../libDaisy/src/hid/usb.h **** */
  18:../../libDaisy/src/hid/usb.h **** class UsbHandle
  19:../../libDaisy/src/hid/usb.h **** {
  20:../../libDaisy/src/hid/usb.h ****   public:
  21:../../libDaisy/src/hid/usb.h ****     /** Return values for USBHandle Functions */
  22:../../libDaisy/src/hid/usb.h ****     enum class Result
  23:../../libDaisy/src/hid/usb.h ****     {
  24:../../libDaisy/src/hid/usb.h ****         OK,
  25:../../libDaisy/src/hid/usb.h ****         ERR,
  26:../../libDaisy/src/hid/usb.h ****     };
  27:../../libDaisy/src/hid/usb.h **** 
  28:../../libDaisy/src/hid/usb.h ****     /** Specified which of the two USB Peripherals to initialize. */
  29:../../libDaisy/src/hid/usb.h ****     enum UsbPeriph
  30:../../libDaisy/src/hid/usb.h ****     {
  31:../../libDaisy/src/hid/usb.h ****         FS_INTERNAL, /**< Internal pin */
  32:../../libDaisy/src/hid/usb.h ****         FS_EXTERNAL, /**< FS External D+ pin is Pin 38 (GPIO32). FS External D- pin is Pin 37 (GPIO
  33:../../libDaisy/src/hid/usb.h ****         FS_BOTH,     /**< Both */
  34:../../libDaisy/src/hid/usb.h ****     };
  35:../../libDaisy/src/hid/usb.h **** 
  36:../../libDaisy/src/hid/usb.h **** 
  37:../../libDaisy/src/hid/usb.h ****     /** Function called upon reception of a buffer */
  38:../../libDaisy/src/hid/usb.h ****     typedef void (*ReceiveCallback)(uint8_t* buff, uint32_t* len);
  39:../../libDaisy/src/hid/usb.h **** 
  40:../../libDaisy/src/hid/usb.h ****     UsbHandle() {}
  41:../../libDaisy/src/hid/usb.h **** 
  42:../../libDaisy/src/hid/usb.h ****     ~UsbHandle() {}
 140              		.loc 12 42 5 is_stmt 1 view .LVU20
 141              		.loc 12 42 5 is_stmt 0 view .LVU21
 142              	.LBE709:
 143              	.LBB710:
 144              	.LBI710:
 145              		.file 13 "../../libDaisy/src/per/adc.h"
   1:../../libDaisy/src/per/adc.h **** #pragma once
   2:../../libDaisy/src/per/adc.h **** #ifndef DSY_ADC_H
   3:../../libDaisy/src/per/adc.h **** #define DSY_ADC_H /**< Macro */
   4:../../libDaisy/src/per/adc.h **** #include <stdint.h>
   5:../../libDaisy/src/per/adc.h **** #include <stdlib.h>
   6:../../libDaisy/src/per/adc.h **** #include "daisy_core.h"
   7:../../libDaisy/src/per/adc.h **** #include "per/gpio.h"
   8:../../libDaisy/src/per/adc.h **** 
ARM GAS  C:\Users\etpen\AppData\Local\Temp\cciw2fvE.s 			page 15


   9:../../libDaisy/src/per/adc.h **** #define DSY_ADC_MAX_CHANNELS 16 /**< Maximum number of ADC channels */
  10:../../libDaisy/src/per/adc.h **** 
  11:../../libDaisy/src/per/adc.h **** namespace daisy
  12:../../libDaisy/src/per/adc.h **** {
  13:../../libDaisy/src/per/adc.h **** /** @addtogroup analog_digital_conversion
  14:../../libDaisy/src/per/adc.h ****     @{
  15:../../libDaisy/src/per/adc.h **** */
  16:../../libDaisy/src/per/adc.h **** 
  17:../../libDaisy/src/per/adc.h **** /* While there may not be many configuration options here,
  18:../../libDaisy/src/per/adc.h **** using a struct like this allows us to add more configuration
  19:../../libDaisy/src/per/adc.h **** later without breaking existing functionality.
  20:../../libDaisy/src/per/adc.h **** */
  21:../../libDaisy/src/per/adc.h **** 
  22:../../libDaisy/src/per/adc.h **** /** Configuration Structure for a given channel */
  23:../../libDaisy/src/per/adc.h **** struct AdcChannelConfig
  24:../../libDaisy/src/per/adc.h **** {
  25:../../libDaisy/src/per/adc.h ****     /** Which pin to use for multiplexing */
  26:../../libDaisy/src/per/adc.h ****     enum MuxPin
  27:../../libDaisy/src/per/adc.h ****     {
  28:../../libDaisy/src/per/adc.h ****         MUX_SEL_0,    /**< & */
  29:../../libDaisy/src/per/adc.h ****         MUX_SEL_1,    /**< & */
  30:../../libDaisy/src/per/adc.h ****         MUX_SEL_2,    /**< & */
  31:../../libDaisy/src/per/adc.h ****         MUX_SEL_LAST, /**< & */
  32:../../libDaisy/src/per/adc.h ****     };
  33:../../libDaisy/src/per/adc.h **** 
  34:../../libDaisy/src/per/adc.h ****     /** Initializes a single ADC pin as an ADC. 
  35:../../libDaisy/src/per/adc.h ****     \param pin Pin to init.
  36:../../libDaisy/src/per/adc.h ****      */
  37:../../libDaisy/src/per/adc.h ****     void InitSingle(dsy_gpio_pin pin);
  38:../../libDaisy/src/per/adc.h **** 
  39:../../libDaisy/src/per/adc.h ****     /** 
  40:../../libDaisy/src/per/adc.h ****     Initializes a single ADC pin as a Multiplexed ADC.
  41:../../libDaisy/src/per/adc.h ****     Requires a CD405X Multiplexer connected to the pin.
  42:../../libDaisy/src/per/adc.h ****     You only need to supply the mux pins that are required,
  43:../../libDaisy/src/per/adc.h ****     e.g. a 4052 mux would only require mux_0 and mux_1.
  44:../../libDaisy/src/per/adc.h ****     Internal Callbacks handle the pin addressing.
  45:../../libDaisy/src/per/adc.h ****     \param mux_channels must be 1-8
  46:../../libDaisy/src/per/adc.h ****     \param mux_0 First mux pin
  47:../../libDaisy/src/per/adc.h ****     \param mux_1 Second mux pin
  48:../../libDaisy/src/per/adc.h ****     \param mux_2 Third mux pin
  49:../../libDaisy/src/per/adc.h ****     \param adc_pin &
  50:../../libDaisy/src/per/adc.h ****     */
  51:../../libDaisy/src/per/adc.h ****     void InitMux(dsy_gpio_pin adc_pin,
  52:../../libDaisy/src/per/adc.h ****                  size_t       mux_channels,
  53:../../libDaisy/src/per/adc.h ****                  dsy_gpio_pin mux_0,
  54:../../libDaisy/src/per/adc.h ****                  dsy_gpio_pin mux_1 = {DSY_GPIOX, 0},
  55:../../libDaisy/src/per/adc.h ****                  dsy_gpio_pin mux_2 = {DSY_GPIOX, 0});
  56:../../libDaisy/src/per/adc.h **** 
  57:../../libDaisy/src/per/adc.h ****     dsy_gpio pin_;                   /**< & */
  58:../../libDaisy/src/per/adc.h ****     dsy_gpio mux_pin_[MUX_SEL_LAST]; /**< & */
  59:../../libDaisy/src/per/adc.h ****     uint8_t  mux_channels_;          /**< & */
  60:../../libDaisy/src/per/adc.h **** };
  61:../../libDaisy/src/per/adc.h **** 
  62:../../libDaisy/src/per/adc.h **** /**
  63:../../libDaisy/src/per/adc.h ****    Handler for analog to digital conversion
  64:../../libDaisy/src/per/adc.h **** */
  65:../../libDaisy/src/per/adc.h **** class AdcHandle
ARM GAS  C:\Users\etpen\AppData\Local\Temp\cciw2fvE.s 			page 16


  66:../../libDaisy/src/per/adc.h **** {
  67:../../libDaisy/src/per/adc.h ****   public:
  68:../../libDaisy/src/per/adc.h ****     /** Supported oversampling amounts */
  69:../../libDaisy/src/per/adc.h ****     enum OverSampling
  70:../../libDaisy/src/per/adc.h ****     {
  71:../../libDaisy/src/per/adc.h ****         OVS_NONE, /**< & */
  72:../../libDaisy/src/per/adc.h ****         OVS_4,    /**< & */
  73:../../libDaisy/src/per/adc.h ****         OVS_8,    /**< & */
  74:../../libDaisy/src/per/adc.h ****         OVS_16,   /**< & */
  75:../../libDaisy/src/per/adc.h ****         OVS_32,   /**< & */
  76:../../libDaisy/src/per/adc.h ****         OVS_64,   /**< & */
  77:../../libDaisy/src/per/adc.h ****         OVS_128,  /**< & */
  78:../../libDaisy/src/per/adc.h ****         OVS_256,  /**< & */
  79:../../libDaisy/src/per/adc.h ****         OVS_512,  /**< & */
  80:../../libDaisy/src/per/adc.h ****         OVS_1024, /**< & */
  81:../../libDaisy/src/per/adc.h ****         OVS_LAST, /**< & */
  82:../../libDaisy/src/per/adc.h ****     };
  83:../../libDaisy/src/per/adc.h **** 
  84:../../libDaisy/src/per/adc.h ****     AdcHandle() {}
  85:../../libDaisy/src/per/adc.h ****     ~AdcHandle() {}
 146              		.loc 13 85 5 is_stmt 1 view .LVU22
 147              		.loc 13 85 5 is_stmt 0 view .LVU23
 148              	.LBE710:
 149              	.LBB711:
 150              	.LBI711:
 151              		.file 14 "../../libDaisy/src/hid/audio.h"
   1:../../libDaisy/src/hid/audio.h **** #ifndef DSY_AUDIO_H
   2:../../libDaisy/src/hid/audio.h **** #define DSY_AUDIO_H /**< & */
   3:../../libDaisy/src/hid/audio.h **** 
   4:../../libDaisy/src/hid/audio.h **** #include "per/sai.h"
   5:../../libDaisy/src/hid/audio.h **** 
   6:../../libDaisy/src/hid/audio.h **** namespace daisy
   7:../../libDaisy/src/hid/audio.h **** {
   8:../../libDaisy/src/hid/audio.h **** class AudioHandle
   9:../../libDaisy/src/hid/audio.h **** {
  10:../../libDaisy/src/hid/audio.h ****   public:
  11:../../libDaisy/src/hid/audio.h ****     /** Manually configurable details about the Audio Engine */
  12:../../libDaisy/src/hid/audio.h ****     /** TODO: Figure out how to get samplerate in here. */
  13:../../libDaisy/src/hid/audio.h ****     struct Config
  14:../../libDaisy/src/hid/audio.h ****     {
  15:../../libDaisy/src/hid/audio.h ****         size_t                        blocksize;
  16:../../libDaisy/src/hid/audio.h ****         SaiHandle::Config::SampleRate samplerate;
  17:../../libDaisy/src/hid/audio.h ****         float                         postgain;
  18:../../libDaisy/src/hid/audio.h ****     };
  19:../../libDaisy/src/hid/audio.h **** 
  20:../../libDaisy/src/hid/audio.h ****     enum class Result
  21:../../libDaisy/src/hid/audio.h ****     {
  22:../../libDaisy/src/hid/audio.h ****         OK,
  23:../../libDaisy/src/hid/audio.h ****         ERR,
  24:../../libDaisy/src/hid/audio.h ****     };
  25:../../libDaisy/src/hid/audio.h **** 
  26:../../libDaisy/src/hid/audio.h ****     /** Non-Interleaving input buffer
  27:../../libDaisy/src/hid/audio.h ****      * Buffer arranged by float[chn][sample] 
  28:../../libDaisy/src/hid/audio.h ****      * const so that the user can't modify the input
  29:../../libDaisy/src/hid/audio.h ****     */
  30:../../libDaisy/src/hid/audio.h ****     typedef const float* const* InputBuffer;
  31:../../libDaisy/src/hid/audio.h **** 
ARM GAS  C:\Users\etpen\AppData\Local\Temp\cciw2fvE.s 			page 17


  32:../../libDaisy/src/hid/audio.h ****     /** Non-Interleaving output buffer
  33:../../libDaisy/src/hid/audio.h ****      * Arranged by float[chn][sample] 
  34:../../libDaisy/src/hid/audio.h ****     */
  35:../../libDaisy/src/hid/audio.h ****     typedef float** OutputBuffer;
  36:../../libDaisy/src/hid/audio.h **** 
  37:../../libDaisy/src/hid/audio.h ****     /** Type for a Non-Interleaving audio callback 
  38:../../libDaisy/src/hid/audio.h ****    * Non-Interleaving audio callbacks in daisy will be of this type
  39:../../libDaisy/src/hid/audio.h ****   */
  40:../../libDaisy/src/hid/audio.h ****     typedef void (*AudioCallback)(InputBuffer  in,
  41:../../libDaisy/src/hid/audio.h ****                                   OutputBuffer out,
  42:../../libDaisy/src/hid/audio.h ****                                   size_t       size);
  43:../../libDaisy/src/hid/audio.h **** 
  44:../../libDaisy/src/hid/audio.h ****     /** Interleaving Input buffer
  45:../../libDaisy/src/hid/audio.h ****      ** audio is prepared as { L0, R0, L1, R1, . . . LN, RN }]
  46:../../libDaisy/src/hid/audio.h ****      ** this is const, as the user shouldn't modify it
  47:../../libDaisy/src/hid/audio.h ****     */
  48:../../libDaisy/src/hid/audio.h ****     typedef const float* InterleavingInputBuffer;
  49:../../libDaisy/src/hid/audio.h **** 
  50:../../libDaisy/src/hid/audio.h ****     /** Interleaving Output buffer 
  51:../../libDaisy/src/hid/audio.h ****      ** audio is prepared as { L0, R0, L1, R1, . . . LN, RN }
  52:../../libDaisy/src/hid/audio.h ****     */
  53:../../libDaisy/src/hid/audio.h ****     typedef float* InterleavingOutputBuffer;
  54:../../libDaisy/src/hid/audio.h **** 
  55:../../libDaisy/src/hid/audio.h ****     /** Interleaving Audio Callback 
  56:../../libDaisy/src/hid/audio.h ****    * Interleaving audio callbacks in daisy must be of this type
  57:../../libDaisy/src/hid/audio.h ****   */
  58:../../libDaisy/src/hid/audio.h ****     typedef void (*InterleavingAudioCallback)(InterleavingInputBuffer  in,
  59:../../libDaisy/src/hid/audio.h ****                                               InterleavingOutputBuffer out,
  60:../../libDaisy/src/hid/audio.h ****                                               size_t                   size);
  61:../../libDaisy/src/hid/audio.h **** 
  62:../../libDaisy/src/hid/audio.h ****     AudioHandle() : pimpl_(nullptr) {}
  63:../../libDaisy/src/hid/audio.h ****     ~AudioHandle() {}
 152              		.loc 14 63 5 is_stmt 1 view .LVU24
 153              		.loc 14 63 5 is_stmt 0 view .LVU25
 154              	.LBE711:
 155              	.LBE707:
 156              		.loc 4 41 20 view .LVU26
 157 0000 7047     		bx	lr
 158              		.cfi_endproc
 159              	.LFE4414:
 161              		.weak	_ZN5daisy10DaisyPatchD1Ev
 162              		.thumb_set _ZN5daisy10DaisyPatchD1Ev,_ZN5daisy10DaisyPatchD2Ev
 163 0002 00BF     		.section	.text._ZN5daisy11OledDisplayINS_13SSD130xDriverILj128ELj64ENS_24SSD130x4WireSpiTransportE
 164              		.align	1
 165              		.p2align 2,,3
 166              		.weak	_ZN5daisy11OledDisplayINS_13SSD130xDriverILj128ELj64ENS_24SSD130x4WireSpiTransportEEEED2Ev
 167              		.syntax unified
 168              		.thumb
 169              		.thumb_func
 170              		.fpu fpv5-d16
 172              	_ZN5daisy11OledDisplayINS_13SSD130xDriverILj128ELj64ENS_24SSD130x4WireSpiTransportEEEED2Ev:
 173              	.LVL3:
 174              	.LFB4743:
 175              		.loc 5 17 13 is_stmt 1 view -0
 176              		.cfi_startproc
 177              		@ args = 0, pretend = 0, frame = 0
 178              		@ frame_needed = 0, uses_anonymous_args = 0
ARM GAS  C:\Users\etpen\AppData\Local\Temp\cciw2fvE.s 			page 18


 179              		@ link register save eliminated.
 180              	.LBB712:
 181              	.LBI712:
 182              		.loc 6 219 13 view .LVU28
 183              	.LBB713:
 184              	.LBI713:
  23:../../libDaisy/src/hid/disp/display.h **** 
 185              		.loc 6 23 13 view .LVU29
  23:../../libDaisy/src/hid/disp/display.h **** 
 186              		.loc 6 23 13 is_stmt 0 view .LVU30
 187              	.LBE713:
 188              	.LBE712:
 189              		.loc 5 17 29 view .LVU31
 190 0000 7047     		bx	lr
 191              		.cfi_endproc
 192              	.LFE4743:
 194              		.weak	_ZN5daisy11OledDisplayINS_13SSD130xDriverILj128ELj64ENS_24SSD130x4WireSpiTransportEEEED1Ev
 195              		.thumb_set _ZN5daisy11OledDisplayINS_13SSD130xDriverILj128ELj64ENS_24SSD130x4WireSpiTransportEEEED
 196 0002 00BF     		.section	.text._ZN5daisy11OledDisplayINS_13SSD130xDriverILj128ELj64ENS_24SSD130x4WireSpiTransportE
 197              		.align	1
 198              		.p2align 2,,3
 199              		.weak	_ZN5daisy11OledDisplayINS_13SSD130xDriverILj128ELj64ENS_24SSD130x4WireSpiTransportEEEE4FillE
 200              		.syntax unified
 201              		.thumb
 202              		.thumb_func
 203              		.fpu fpv5-d16
 205              	_ZN5daisy11OledDisplayINS_13SSD130xDriverILj128ELj64ENS_24SSD130x4WireSpiTransportEEEE4FillEb:
 206              	.LVL4:
 207              	.LFB4746:
  18:../../libDaisy/src/hid/disp/oled_display.h **** 
  19:../../libDaisy/src/hid/disp/oled_display.h ****     struct Config
  20:../../libDaisy/src/hid/disp/oled_display.h ****     {
  21:../../libDaisy/src/hid/disp/oled_display.h ****         typename DisplayDriver::Config driver_config;
  22:../../libDaisy/src/hid/disp/oled_display.h ****     };
  23:../../libDaisy/src/hid/disp/oled_display.h **** 
  24:../../libDaisy/src/hid/disp/oled_display.h ****     void Init(Config config) { driver_.Init(config.driver_config); }
  25:../../libDaisy/src/hid/disp/oled_display.h **** 
  26:../../libDaisy/src/hid/disp/oled_display.h ****     uint16_t Height() const override { return driver_.Height(); }
  27:../../libDaisy/src/hid/disp/oled_display.h ****     uint16_t Width() const override { return driver_.Width(); }
  28:../../libDaisy/src/hid/disp/oled_display.h **** 
  29:../../libDaisy/src/hid/disp/oled_display.h ****     /** 
  30:../../libDaisy/src/hid/disp/oled_display.h ****     Fills the entire display with either on/off.
  31:../../libDaisy/src/hid/disp/oled_display.h ****     \param on Sets on or off.
  32:../../libDaisy/src/hid/disp/oled_display.h ****     */
  33:../../libDaisy/src/hid/disp/oled_display.h ****     void Fill(bool on) override { driver_.Fill(on); }
 208              		.loc 5 33 10 is_stmt 1 view -0
 209              		.cfi_startproc
 210              		@ args = 0, pretend = 0, frame = 0
 211              		@ frame_needed = 0, uses_anonymous_args = 0
 212              		@ link register save eliminated.
 213              	.LBB714:
 214              	.LBI714:
 215              		.file 15 "../../libDaisy/src/dev/oled_ssd130x.h"
   1:../../libDaisy/src/dev/oled_ssd130x.h **** #pragma once
   2:../../libDaisy/src/dev/oled_ssd130x.h **** #ifndef SA_OLED_SSD130X_H
   3:../../libDaisy/src/dev/oled_ssd130x.h **** #define SA_OLED_SSD130X_H /**< & */
   4:../../libDaisy/src/dev/oled_ssd130x.h **** 
ARM GAS  C:\Users\etpen\AppData\Local\Temp\cciw2fvE.s 			page 19


   5:../../libDaisy/src/dev/oled_ssd130x.h **** #include "per/i2c.h"
   6:../../libDaisy/src/dev/oled_ssd130x.h **** #include "per/spi.h"
   7:../../libDaisy/src/dev/oled_ssd130x.h **** #include "per/gpio.h"
   8:../../libDaisy/src/dev/oled_ssd130x.h **** #include "sys/system.h"
   9:../../libDaisy/src/dev/oled_ssd130x.h **** 
  10:../../libDaisy/src/dev/oled_ssd130x.h **** namespace daisy
  11:../../libDaisy/src/dev/oled_ssd130x.h **** {
  12:../../libDaisy/src/dev/oled_ssd130x.h **** /**
  13:../../libDaisy/src/dev/oled_ssd130x.h ****  * I2C Transport for SSD1306 / SSD1309 OLED display devices
  14:../../libDaisy/src/dev/oled_ssd130x.h ****  */
  15:../../libDaisy/src/dev/oled_ssd130x.h **** class SSD130xI2CTransport
  16:../../libDaisy/src/dev/oled_ssd130x.h **** {
  17:../../libDaisy/src/dev/oled_ssd130x.h ****   public:
  18:../../libDaisy/src/dev/oled_ssd130x.h ****     struct Config
  19:../../libDaisy/src/dev/oled_ssd130x.h ****     {
  20:../../libDaisy/src/dev/oled_ssd130x.h ****         I2CHandle::Config i2c_config;
  21:../../libDaisy/src/dev/oled_ssd130x.h ****         uint8_t           i2c_address;
  22:../../libDaisy/src/dev/oled_ssd130x.h ****         void              Defaults()
  23:../../libDaisy/src/dev/oled_ssd130x.h ****         {
  24:../../libDaisy/src/dev/oled_ssd130x.h ****             i2c_config.periph         = I2CHandle::Config::Peripheral::I2C_1;
  25:../../libDaisy/src/dev/oled_ssd130x.h ****             i2c_config.speed          = I2CHandle::Config::Speed::I2C_1MHZ;
  26:../../libDaisy/src/dev/oled_ssd130x.h ****             i2c_config.mode           = I2CHandle::Config::Mode::I2C_MASTER;
  27:../../libDaisy/src/dev/oled_ssd130x.h ****             i2c_config.pin_config.scl = {DSY_GPIOB, 8};
  28:../../libDaisy/src/dev/oled_ssd130x.h ****             i2c_config.pin_config.sda = {DSY_GPIOB, 9};
  29:../../libDaisy/src/dev/oled_ssd130x.h ****             i2c_address               = 0x3C;
  30:../../libDaisy/src/dev/oled_ssd130x.h ****         }
  31:../../libDaisy/src/dev/oled_ssd130x.h ****     };
  32:../../libDaisy/src/dev/oled_ssd130x.h ****     void Init(const Config& config)
  33:../../libDaisy/src/dev/oled_ssd130x.h ****     {
  34:../../libDaisy/src/dev/oled_ssd130x.h ****         i2c_address_ = config.i2c_address;
  35:../../libDaisy/src/dev/oled_ssd130x.h ****         i2c_.Init(config.i2c_config);
  36:../../libDaisy/src/dev/oled_ssd130x.h ****     };
  37:../../libDaisy/src/dev/oled_ssd130x.h ****     void SendCommand(uint8_t cmd)
  38:../../libDaisy/src/dev/oled_ssd130x.h ****     {
  39:../../libDaisy/src/dev/oled_ssd130x.h ****         uint8_t buf[2] = {0X00, cmd};
  40:../../libDaisy/src/dev/oled_ssd130x.h ****         i2c_.TransmitBlocking(i2c_address_, buf, 2, 1000);
  41:../../libDaisy/src/dev/oled_ssd130x.h ****     };
  42:../../libDaisy/src/dev/oled_ssd130x.h **** 
  43:../../libDaisy/src/dev/oled_ssd130x.h ****     void SendData(uint8_t* buff, size_t size)
  44:../../libDaisy/src/dev/oled_ssd130x.h ****     {
  45:../../libDaisy/src/dev/oled_ssd130x.h ****         for(size_t i = 0; i < size; i++)
  46:../../libDaisy/src/dev/oled_ssd130x.h ****         {
  47:../../libDaisy/src/dev/oled_ssd130x.h ****             uint8_t buf[2] = {0X40, buff[i]};
  48:../../libDaisy/src/dev/oled_ssd130x.h ****             i2c_.TransmitBlocking(i2c_address_, buf, 2, 1000);
  49:../../libDaisy/src/dev/oled_ssd130x.h ****         }
  50:../../libDaisy/src/dev/oled_ssd130x.h ****     };
  51:../../libDaisy/src/dev/oled_ssd130x.h **** 
  52:../../libDaisy/src/dev/oled_ssd130x.h ****   private:
  53:../../libDaisy/src/dev/oled_ssd130x.h ****     daisy::I2CHandle i2c_;
  54:../../libDaisy/src/dev/oled_ssd130x.h ****     uint8_t          i2c_address_;
  55:../../libDaisy/src/dev/oled_ssd130x.h **** };
  56:../../libDaisy/src/dev/oled_ssd130x.h **** 
  57:../../libDaisy/src/dev/oled_ssd130x.h **** /**
  58:../../libDaisy/src/dev/oled_ssd130x.h ****  * 4 Wire SPI Transport for SSD1306 / SSD1309 OLED display devices
  59:../../libDaisy/src/dev/oled_ssd130x.h ****  */
  60:../../libDaisy/src/dev/oled_ssd130x.h **** class SSD130x4WireSpiTransport
  61:../../libDaisy/src/dev/oled_ssd130x.h **** {
ARM GAS  C:\Users\etpen\AppData\Local\Temp\cciw2fvE.s 			page 20


  62:../../libDaisy/src/dev/oled_ssd130x.h ****   public:
  63:../../libDaisy/src/dev/oled_ssd130x.h ****     struct Config
  64:../../libDaisy/src/dev/oled_ssd130x.h ****     {
  65:../../libDaisy/src/dev/oled_ssd130x.h ****         struct
  66:../../libDaisy/src/dev/oled_ssd130x.h ****         {
  67:../../libDaisy/src/dev/oled_ssd130x.h ****             dsy_gpio_pin dc;    /**< & */
  68:../../libDaisy/src/dev/oled_ssd130x.h ****             dsy_gpio_pin reset; /**< & */
  69:../../libDaisy/src/dev/oled_ssd130x.h ****         } pin_config;
  70:../../libDaisy/src/dev/oled_ssd130x.h ****         void Defaults()
  71:../../libDaisy/src/dev/oled_ssd130x.h ****         {
  72:../../libDaisy/src/dev/oled_ssd130x.h ****             pin_config.dc    = {DSY_GPIOB, 4};
  73:../../libDaisy/src/dev/oled_ssd130x.h ****             pin_config.reset = {DSY_GPIOB, 15};
  74:../../libDaisy/src/dev/oled_ssd130x.h ****         }
  75:../../libDaisy/src/dev/oled_ssd130x.h ****     };
  76:../../libDaisy/src/dev/oled_ssd130x.h ****     void Init(const Config& config)
  77:../../libDaisy/src/dev/oled_ssd130x.h ****     {
  78:../../libDaisy/src/dev/oled_ssd130x.h ****         // Initialize both GPIO
  79:../../libDaisy/src/dev/oled_ssd130x.h ****         pin_dc_.mode = DSY_GPIO_MODE_OUTPUT_PP;
  80:../../libDaisy/src/dev/oled_ssd130x.h ****         pin_dc_.pin  = config.pin_config.dc;
  81:../../libDaisy/src/dev/oled_ssd130x.h ****         dsy_gpio_init(&pin_dc_);
  82:../../libDaisy/src/dev/oled_ssd130x.h ****         pin_reset_.mode = DSY_GPIO_MODE_OUTPUT_PP;
  83:../../libDaisy/src/dev/oled_ssd130x.h ****         pin_reset_.pin  = config.pin_config.reset;
  84:../../libDaisy/src/dev/oled_ssd130x.h ****         dsy_gpio_init(&pin_reset_);
  85:../../libDaisy/src/dev/oled_ssd130x.h ****         // Initialize SPI
  86:../../libDaisy/src/dev/oled_ssd130x.h ****         SpiHandle::Config spi_config;
  87:../../libDaisy/src/dev/oled_ssd130x.h ****         spi_config.periph    = SpiHandle::Config::Peripheral::SPI_1;
  88:../../libDaisy/src/dev/oled_ssd130x.h ****         spi_config.mode      = SpiHandle::Config::Mode::MASTER;
  89:../../libDaisy/src/dev/oled_ssd130x.h ****         spi_config.direction = SpiHandle::Config::Direction::TWO_LINES_TX_ONLY;
  90:../../libDaisy/src/dev/oled_ssd130x.h ****         spi_config.datasize  = 8;
  91:../../libDaisy/src/dev/oled_ssd130x.h ****         spi_config.clock_polarity = SpiHandle::Config::ClockPolarity::LOW;
  92:../../libDaisy/src/dev/oled_ssd130x.h ****         spi_config.clock_phase    = SpiHandle::Config::ClockPhase::ONE_EDGE;
  93:../../libDaisy/src/dev/oled_ssd130x.h ****         spi_config.nss            = SpiHandle::Config::NSS::HARD_OUTPUT;
  94:../../libDaisy/src/dev/oled_ssd130x.h ****         spi_config.baud_prescaler = SpiHandle::Config::BaudPrescaler::PS_8;
  95:../../libDaisy/src/dev/oled_ssd130x.h **** 
  96:../../libDaisy/src/dev/oled_ssd130x.h ****         spi_config.pin_config.sclk = {DSY_GPIOG, 11};
  97:../../libDaisy/src/dev/oled_ssd130x.h ****         spi_config.pin_config.miso = {DSY_GPIOX, 0};
  98:../../libDaisy/src/dev/oled_ssd130x.h ****         spi_config.pin_config.mosi = {DSY_GPIOB, 5};
  99:../../libDaisy/src/dev/oled_ssd130x.h ****         spi_config.pin_config.nss  = {DSY_GPIOG, 10};
 100:../../libDaisy/src/dev/oled_ssd130x.h **** 
 101:../../libDaisy/src/dev/oled_ssd130x.h ****         spi_.Init(spi_config);
 102:../../libDaisy/src/dev/oled_ssd130x.h **** 
 103:../../libDaisy/src/dev/oled_ssd130x.h ****         // Reset and Configure OLED.
 104:../../libDaisy/src/dev/oled_ssd130x.h ****         dsy_gpio_write(&pin_reset_, 0);
 105:../../libDaisy/src/dev/oled_ssd130x.h ****         System::Delay(10);
 106:../../libDaisy/src/dev/oled_ssd130x.h ****         dsy_gpio_write(&pin_reset_, 1);
 107:../../libDaisy/src/dev/oled_ssd130x.h ****         System::Delay(10);
 108:../../libDaisy/src/dev/oled_ssd130x.h ****     };
 109:../../libDaisy/src/dev/oled_ssd130x.h ****     void SendCommand(uint8_t cmd)
 110:../../libDaisy/src/dev/oled_ssd130x.h ****     {
 111:../../libDaisy/src/dev/oled_ssd130x.h ****         dsy_gpio_write(&pin_dc_, 0);
 112:../../libDaisy/src/dev/oled_ssd130x.h ****         spi_.BlockingTransmit(&cmd, 1);
 113:../../libDaisy/src/dev/oled_ssd130x.h ****     };
 114:../../libDaisy/src/dev/oled_ssd130x.h **** 
 115:../../libDaisy/src/dev/oled_ssd130x.h ****     void SendData(uint8_t* buff, size_t size)
 116:../../libDaisy/src/dev/oled_ssd130x.h ****     {
 117:../../libDaisy/src/dev/oled_ssd130x.h ****         dsy_gpio_write(&pin_dc_, 1);
 118:../../libDaisy/src/dev/oled_ssd130x.h ****         spi_.BlockingTransmit(buff, size);
ARM GAS  C:\Users\etpen\AppData\Local\Temp\cciw2fvE.s 			page 21


 119:../../libDaisy/src/dev/oled_ssd130x.h ****     };
 120:../../libDaisy/src/dev/oled_ssd130x.h **** 
 121:../../libDaisy/src/dev/oled_ssd130x.h ****   private:
 122:../../libDaisy/src/dev/oled_ssd130x.h ****     SpiHandle spi_;
 123:../../libDaisy/src/dev/oled_ssd130x.h ****     dsy_gpio  pin_reset_;
 124:../../libDaisy/src/dev/oled_ssd130x.h ****     dsy_gpio  pin_dc_;
 125:../../libDaisy/src/dev/oled_ssd130x.h **** };
 126:../../libDaisy/src/dev/oled_ssd130x.h **** 
 127:../../libDaisy/src/dev/oled_ssd130x.h **** 
 128:../../libDaisy/src/dev/oled_ssd130x.h **** /**
 129:../../libDaisy/src/dev/oled_ssd130x.h ****  * A driver implementation for the SSD1306/SSD1309
 130:../../libDaisy/src/dev/oled_ssd130x.h ****  */
 131:../../libDaisy/src/dev/oled_ssd130x.h **** template <size_t width, size_t height, typename Transport>
 132:../../libDaisy/src/dev/oled_ssd130x.h **** class SSD130xDriver
 133:../../libDaisy/src/dev/oled_ssd130x.h **** {
 134:../../libDaisy/src/dev/oled_ssd130x.h ****   public:
 135:../../libDaisy/src/dev/oled_ssd130x.h ****     struct Config
 136:../../libDaisy/src/dev/oled_ssd130x.h ****     {
 137:../../libDaisy/src/dev/oled_ssd130x.h ****         typename Transport::Config transport_config;
 138:../../libDaisy/src/dev/oled_ssd130x.h ****     };
 139:../../libDaisy/src/dev/oled_ssd130x.h **** 
 140:../../libDaisy/src/dev/oled_ssd130x.h ****     void Init(Config config)
 141:../../libDaisy/src/dev/oled_ssd130x.h ****     {
 142:../../libDaisy/src/dev/oled_ssd130x.h ****         transport_.Init(config.transport_config);
 143:../../libDaisy/src/dev/oled_ssd130x.h **** 
 144:../../libDaisy/src/dev/oled_ssd130x.h ****         // Init routine...
 145:../../libDaisy/src/dev/oled_ssd130x.h **** 
 146:../../libDaisy/src/dev/oled_ssd130x.h ****         // Display Off
 147:../../libDaisy/src/dev/oled_ssd130x.h ****         transport_.SendCommand(0xaE);
 148:../../libDaisy/src/dev/oled_ssd130x.h ****         // Dimension dependent commands...
 149:../../libDaisy/src/dev/oled_ssd130x.h ****         switch(height)
 150:../../libDaisy/src/dev/oled_ssd130x.h ****         {
 151:../../libDaisy/src/dev/oled_ssd130x.h ****             case 16:
 152:../../libDaisy/src/dev/oled_ssd130x.h ****                 // Display Clock Divide Ratio
 153:../../libDaisy/src/dev/oled_ssd130x.h ****                 transport_.SendCommand(0xD5);
 154:../../libDaisy/src/dev/oled_ssd130x.h ****                 transport_.SendCommand(0x60);
 155:../../libDaisy/src/dev/oled_ssd130x.h ****                 // Multiplex Ratio
 156:../../libDaisy/src/dev/oled_ssd130x.h ****                 transport_.SendCommand(0xA8);
 157:../../libDaisy/src/dev/oled_ssd130x.h ****                 transport_.SendCommand(0x0F);
 158:../../libDaisy/src/dev/oled_ssd130x.h ****                 // COM Pins
 159:../../libDaisy/src/dev/oled_ssd130x.h ****                 transport_.SendCommand(0xDA);
 160:../../libDaisy/src/dev/oled_ssd130x.h ****                 transport_.SendCommand(0x02);
 161:../../libDaisy/src/dev/oled_ssd130x.h ****                 break;
 162:../../libDaisy/src/dev/oled_ssd130x.h ****             case 32:
 163:../../libDaisy/src/dev/oled_ssd130x.h ****                 // Display Clock Divide Ratio
 164:../../libDaisy/src/dev/oled_ssd130x.h ****                 transport_.SendCommand(0xD5);
 165:../../libDaisy/src/dev/oled_ssd130x.h ****                 transport_.SendCommand(0x80);
 166:../../libDaisy/src/dev/oled_ssd130x.h ****                 // Multiplex Ratio
 167:../../libDaisy/src/dev/oled_ssd130x.h ****                 transport_.SendCommand(0xA8);
 168:../../libDaisy/src/dev/oled_ssd130x.h ****                 transport_.SendCommand(0x1F);
 169:../../libDaisy/src/dev/oled_ssd130x.h ****                 // COM Pins
 170:../../libDaisy/src/dev/oled_ssd130x.h ****                 transport_.SendCommand(0xDA);
 171:../../libDaisy/src/dev/oled_ssd130x.h ****                 if(width == 64)
 172:../../libDaisy/src/dev/oled_ssd130x.h ****                 {
 173:../../libDaisy/src/dev/oled_ssd130x.h ****                     transport_.SendCommand(0x12);
 174:../../libDaisy/src/dev/oled_ssd130x.h ****                 }
 175:../../libDaisy/src/dev/oled_ssd130x.h ****                 else
ARM GAS  C:\Users\etpen\AppData\Local\Temp\cciw2fvE.s 			page 22


 176:../../libDaisy/src/dev/oled_ssd130x.h ****                 {
 177:../../libDaisy/src/dev/oled_ssd130x.h ****                     transport_.SendCommand(0x02);
 178:../../libDaisy/src/dev/oled_ssd130x.h ****                 }
 179:../../libDaisy/src/dev/oled_ssd130x.h **** 
 180:../../libDaisy/src/dev/oled_ssd130x.h ****                 break;
 181:../../libDaisy/src/dev/oled_ssd130x.h ****             case 48:
 182:../../libDaisy/src/dev/oled_ssd130x.h ****                 // Display Clock Divide Ratio
 183:../../libDaisy/src/dev/oled_ssd130x.h ****                 transport_.SendCommand(0xD5);
 184:../../libDaisy/src/dev/oled_ssd130x.h ****                 transport_.SendCommand(0x80);
 185:../../libDaisy/src/dev/oled_ssd130x.h ****                 // Multiplex Ratio
 186:../../libDaisy/src/dev/oled_ssd130x.h ****                 transport_.SendCommand(0xA8);
 187:../../libDaisy/src/dev/oled_ssd130x.h ****                 transport_.SendCommand(0x2F);
 188:../../libDaisy/src/dev/oled_ssd130x.h ****                 // COM Pins
 189:../../libDaisy/src/dev/oled_ssd130x.h ****                 transport_.SendCommand(0xDA);
 190:../../libDaisy/src/dev/oled_ssd130x.h ****                 transport_.SendCommand(0x12);
 191:../../libDaisy/src/dev/oled_ssd130x.h ****                 break;
 192:../../libDaisy/src/dev/oled_ssd130x.h ****             default: // 128
 193:../../libDaisy/src/dev/oled_ssd130x.h ****                 // Display Clock Divide Ratio
 194:../../libDaisy/src/dev/oled_ssd130x.h ****                 transport_.SendCommand(0xD5);
 195:../../libDaisy/src/dev/oled_ssd130x.h ****                 transport_.SendCommand(0x80);
 196:../../libDaisy/src/dev/oled_ssd130x.h ****                 // Multiplex Ratio
 197:../../libDaisy/src/dev/oled_ssd130x.h ****                 transport_.SendCommand(0xA8);
 198:../../libDaisy/src/dev/oled_ssd130x.h ****                 transport_.SendCommand(0x3F);
 199:../../libDaisy/src/dev/oled_ssd130x.h ****                 // COM Pins
 200:../../libDaisy/src/dev/oled_ssd130x.h ****                 transport_.SendCommand(0xDA);
 201:../../libDaisy/src/dev/oled_ssd130x.h ****                 transport_.SendCommand(0x12);
 202:../../libDaisy/src/dev/oled_ssd130x.h ****                 break;
 203:../../libDaisy/src/dev/oled_ssd130x.h ****         }
 204:../../libDaisy/src/dev/oled_ssd130x.h **** 
 205:../../libDaisy/src/dev/oled_ssd130x.h ****         // Display Offset
 206:../../libDaisy/src/dev/oled_ssd130x.h ****         transport_.SendCommand(0xD3);
 207:../../libDaisy/src/dev/oled_ssd130x.h ****         transport_.SendCommand(0x00);
 208:../../libDaisy/src/dev/oled_ssd130x.h ****         // Start Line Address
 209:../../libDaisy/src/dev/oled_ssd130x.h ****         transport_.SendCommand(0x40);
 210:../../libDaisy/src/dev/oled_ssd130x.h ****         // Normal Display
 211:../../libDaisy/src/dev/oled_ssd130x.h ****         transport_.SendCommand(0xA6);
 212:../../libDaisy/src/dev/oled_ssd130x.h ****         // All On Resume
 213:../../libDaisy/src/dev/oled_ssd130x.h ****         transport_.SendCommand(0xA4);
 214:../../libDaisy/src/dev/oled_ssd130x.h ****         // Charge Pump
 215:../../libDaisy/src/dev/oled_ssd130x.h ****         transport_.SendCommand(0x8D);
 216:../../libDaisy/src/dev/oled_ssd130x.h ****         transport_.SendCommand(0x14);
 217:../../libDaisy/src/dev/oled_ssd130x.h ****         // Set Segment Remap
 218:../../libDaisy/src/dev/oled_ssd130x.h ****         transport_.SendCommand(0xA1);
 219:../../libDaisy/src/dev/oled_ssd130x.h ****         // COM Output Scan Direction
 220:../../libDaisy/src/dev/oled_ssd130x.h ****         transport_.SendCommand(0xC8);
 221:../../libDaisy/src/dev/oled_ssd130x.h ****         // Contrast Control
 222:../../libDaisy/src/dev/oled_ssd130x.h ****         transport_.SendCommand(0x81);
 223:../../libDaisy/src/dev/oled_ssd130x.h ****         transport_.SendCommand(0x8F);
 224:../../libDaisy/src/dev/oled_ssd130x.h ****         // Pre Charge
 225:../../libDaisy/src/dev/oled_ssd130x.h ****         transport_.SendCommand(0xD9);
 226:../../libDaisy/src/dev/oled_ssd130x.h ****         transport_.SendCommand(0x25);
 227:../../libDaisy/src/dev/oled_ssd130x.h ****         // VCOM Detect
 228:../../libDaisy/src/dev/oled_ssd130x.h ****         transport_.SendCommand(0xDB);
 229:../../libDaisy/src/dev/oled_ssd130x.h ****         transport_.SendCommand(0x34);
 230:../../libDaisy/src/dev/oled_ssd130x.h **** 
 231:../../libDaisy/src/dev/oled_ssd130x.h **** 
 232:../../libDaisy/src/dev/oled_ssd130x.h ****         // Display On
ARM GAS  C:\Users\etpen\AppData\Local\Temp\cciw2fvE.s 			page 23


 233:../../libDaisy/src/dev/oled_ssd130x.h ****         transport_.SendCommand(0xAF); //--turn on oled panel
 234:../../libDaisy/src/dev/oled_ssd130x.h ****     };
 235:../../libDaisy/src/dev/oled_ssd130x.h **** 
 236:../../libDaisy/src/dev/oled_ssd130x.h ****     size_t Width() const { return width; };
 237:../../libDaisy/src/dev/oled_ssd130x.h ****     size_t Height() const { return height; };
 238:../../libDaisy/src/dev/oled_ssd130x.h **** 
 239:../../libDaisy/src/dev/oled_ssd130x.h ****     void DrawPixel(uint_fast8_t x, uint_fast8_t y, bool on)
 240:../../libDaisy/src/dev/oled_ssd130x.h ****     {
 241:../../libDaisy/src/dev/oled_ssd130x.h ****         if(x >= width || y >= height)
 242:../../libDaisy/src/dev/oled_ssd130x.h ****             return;
 243:../../libDaisy/src/dev/oled_ssd130x.h ****         if(on)
 244:../../libDaisy/src/dev/oled_ssd130x.h ****             buffer_[x + (y / 8) * width] |= (1 << (y % 8));
 245:../../libDaisy/src/dev/oled_ssd130x.h ****         else
 246:../../libDaisy/src/dev/oled_ssd130x.h ****             buffer_[x + (y / 8) * width] &= ~(1 << (y % 8));
 247:../../libDaisy/src/dev/oled_ssd130x.h ****     }
 248:../../libDaisy/src/dev/oled_ssd130x.h **** 
 249:../../libDaisy/src/dev/oled_ssd130x.h ****     void Fill(bool on)
 216              		.loc 15 249 10 view .LVU33
 217              	.LBB715:
 250:../../libDaisy/src/dev/oled_ssd130x.h ****     {
 251:../../libDaisy/src/dev/oled_ssd130x.h ****         for(size_t i = 0; i < sizeof(buffer_); i++)
 218              		.loc 15 251 29 view .LVU34
 252:../../libDaisy/src/dev/oled_ssd130x.h ****         {
 253:../../libDaisy/src/dev/oled_ssd130x.h ****             buffer_[i] = on ? 0xff : 0x00;
 219              		.loc 15 253 24 is_stmt 0 view .LVU35
 220 0000 4942     		rsbs	r1, r1, #0
 221              	.LVL5:
 222              		.loc 15 253 24 view .LVU36
 223 0002 4FF48062 		mov	r2, #1024
 224 0006 1430     		adds	r0, r0, #20
 225              	.LVL6:
 226              		.loc 15 253 24 view .LVU37
 227 0008 C9B2     		uxtb	r1, r1
 228 000a FFF7FEBF 		b	memset
 229              	.LVL7:
 230              		.loc 15 253 24 view .LVU38
 231              	.LBE715:
 232              	.LBE714:
 233              		.cfi_endproc
 234              	.LFE4746:
 236 000e 00BF     		.section	.text._ZNK5daisy11OledDisplayINS_13SSD130xDriverILj128ELj64ENS_24SSD130x4WireSpiTransport
 237              		.align	1
 238              		.p2align 2,,3
 239              		.weak	_ZNK5daisy11OledDisplayINS_13SSD130xDriverILj128ELj64ENS_24SSD130x4WireSpiTransportEEEE6Heig
 240              		.syntax unified
 241              		.thumb
 242              		.thumb_func
 243              		.fpu fpv5-d16
 245              	_ZNK5daisy11OledDisplayINS_13SSD130xDriverILj128ELj64ENS_24SSD130x4WireSpiTransportEEEE6HeightEv:
 246              	.LVL8:
 247              	.LFB5029:
  26:../../libDaisy/src/hid/disp/oled_display.h ****     uint16_t Width() const override { return driver_.Width(); }
 248              		.loc 5 26 14 is_stmt 1 view -0
 249              		.cfi_startproc
 250              		@ args = 0, pretend = 0, frame = 0
 251              		@ frame_needed = 0, uses_anonymous_args = 0
 252              		@ link register save eliminated.
ARM GAS  C:\Users\etpen\AppData\Local\Temp\cciw2fvE.s 			page 24


  26:../../libDaisy/src/hid/disp/oled_display.h ****     uint16_t Width() const override { return driver_.Width(); }
 253              		.loc 5 26 65 is_stmt 0 view .LVU40
 254 0000 4020     		movs	r0, #64
 255              	.LVL9:
  26:../../libDaisy/src/hid/disp/oled_display.h ****     uint16_t Width() const override { return driver_.Width(); }
 256              		.loc 5 26 65 view .LVU41
 257 0002 7047     		bx	lr
 258              		.cfi_endproc
 259              	.LFE5029:
 261              		.section	.text._ZNK5daisy11OledDisplayINS_13SSD130xDriverILj128ELj64ENS_24SSD130x4WireSpiTransport
 262              		.align	1
 263              		.p2align 2,,3
 264              		.weak	_ZNK5daisy11OledDisplayINS_13SSD130xDriverILj128ELj64ENS_24SSD130x4WireSpiTransportEEEE5Widt
 265              		.syntax unified
 266              		.thumb
 267              		.thumb_func
 268              		.fpu fpv5-d16
 270              	_ZNK5daisy11OledDisplayINS_13SSD130xDriverILj128ELj64ENS_24SSD130x4WireSpiTransportEEEE5WidthEv:
 271              	.LVL10:
 272              	.LFB5030:
  27:../../libDaisy/src/hid/disp/oled_display.h **** 
 273              		.loc 5 27 14 is_stmt 1 view -0
 274              		.cfi_startproc
 275              		@ args = 0, pretend = 0, frame = 0
 276              		@ frame_needed = 0, uses_anonymous_args = 0
 277              		@ link register save eliminated.
  27:../../libDaisy/src/hid/disp/oled_display.h **** 
 278              		.loc 5 27 63 is_stmt 0 view .LVU43
 279 0000 8020     		movs	r0, #128
 280              	.LVL11:
  27:../../libDaisy/src/hid/disp/oled_display.h **** 
 281              		.loc 5 27 63 view .LVU44
 282 0002 7047     		bx	lr
 283              		.cfi_endproc
 284              	.LFE5030:
 286              		.section	.text._ZN5daisy11OledDisplayINS_13SSD130xDriverILj128ELj64ENS_24SSD130x4WireSpiTransportE
 287              		.align	1
 288              		.p2align 2,,3
 289              		.weak	_ZN5daisy11OledDisplayINS_13SSD130xDriverILj128ELj64ENS_24SSD130x4WireSpiTransportEEEED0Ev
 290              		.syntax unified
 291              		.thumb
 292              		.thumb_func
 293              		.fpu fpv5-d16
 295              	_ZN5daisy11OledDisplayINS_13SSD130xDriverILj128ELj64ENS_24SSD130x4WireSpiTransportEEEED0Ev:
 296              	.LVL12:
 297              	.LFB4745:
  17:../../libDaisy/src/hid/disp/oled_display.h **** 
 298              		.loc 5 17 13 is_stmt 1 view -0
 299              		.cfi_startproc
 300              		@ args = 0, pretend = 0, frame = 0
 301              		@ frame_needed = 0, uses_anonymous_args = 0
  17:../../libDaisy/src/hid/disp/oled_display.h **** 
 302              		.loc 5 17 13 is_stmt 0 view .LVU46
 303 0000 10B5     		push	{r4, lr}
 304              		.cfi_def_cfa_offset 8
 305              		.cfi_offset 4, -8
 306              		.cfi_offset 14, -4
ARM GAS  C:\Users\etpen\AppData\Local\Temp\cciw2fvE.s 			page 25


  17:../../libDaisy/src/hid/disp/oled_display.h **** 
 307              		.loc 5 17 13 view .LVU47
 308 0002 0446     		mov	r4, r0
 309              	.LVL13:
 310              	.LBB716:
 311              	.LBI716:
  17:../../libDaisy/src/hid/disp/oled_display.h **** 
 312              		.loc 5 17 13 is_stmt 1 view .LVU48
 313              	.LBB717:
 314              	.LBI717:
 315              		.loc 6 219 13 view .LVU49
 316              	.LBB718:
 317              	.LBI718:
  23:../../libDaisy/src/hid/disp/display.h **** 
 318              		.loc 6 23 13 view .LVU50
  23:../../libDaisy/src/hid/disp/display.h **** 
 319              		.loc 6 23 13 is_stmt 0 view .LVU51
 320              	.LBE718:
 321              	.LBE717:
 322              	.LBE716:
  17:../../libDaisy/src/hid/disp/oled_display.h **** 
 323              		.loc 5 17 29 view .LVU52
 324 0004 40F21441 		movw	r1, #1044
 325 0008 FFF7FEFF 		bl	_ZdlPvj
 326              	.LVL14:
  17:../../libDaisy/src/hid/disp/oled_display.h **** 
 327              		.loc 5 17 29 view .LVU53
 328 000c 2046     		mov	r0, r4
 329 000e 10BD     		pop	{r4, pc}
  17:../../libDaisy/src/hid/disp/oled_display.h **** 
 330              		.loc 5 17 29 view .LVU54
 331              		.cfi_endproc
 332              	.LFE4745:
 334              		.section	.text._ZN5daisy11OledDisplayINS_13SSD130xDriverILj128ELj64ENS_24SSD130x4WireSpiTransportE
 335              		.align	1
 336              		.p2align 2,,3
 337              		.weak	_ZN5daisy11OledDisplayINS_13SSD130xDriverILj128ELj64ENS_24SSD130x4WireSpiTransportEEEE6Updat
 338              		.syntax unified
 339              		.thumb
 340              		.thumb_func
 341              		.fpu fpv5-d16
 343              	_ZN5daisy11OledDisplayINS_13SSD130xDriverILj128ELj64ENS_24SSD130x4WireSpiTransportEEEE6UpdateEv:
 344              	.LVL15:
 345              	.LFB4750:
  34:../../libDaisy/src/hid/disp/oled_display.h **** 
  35:../../libDaisy/src/hid/disp/oled_display.h ****     /**
  36:../../libDaisy/src/hid/disp/oled_display.h ****     Sets the pixel at the specified coordinate to be on/off.
  37:../../libDaisy/src/hid/disp/oled_display.h ****     \param x   x Coordinate
  38:../../libDaisy/src/hid/disp/oled_display.h ****     \param y   y coordinate
  39:../../libDaisy/src/hid/disp/oled_display.h ****     \param on  on or off
  40:../../libDaisy/src/hid/disp/oled_display.h ****     */
  41:../../libDaisy/src/hid/disp/oled_display.h ****     void DrawPixel(uint_fast8_t x, uint_fast8_t y, bool on) override
  42:../../libDaisy/src/hid/disp/oled_display.h ****     {
  43:../../libDaisy/src/hid/disp/oled_display.h ****         driver_.DrawPixel(x, y, on);
  44:../../libDaisy/src/hid/disp/oled_display.h ****     }
  45:../../libDaisy/src/hid/disp/oled_display.h **** 
  46:../../libDaisy/src/hid/disp/oled_display.h ****     /** 
ARM GAS  C:\Users\etpen\AppData\Local\Temp\cciw2fvE.s 			page 26


  47:../../libDaisy/src/hid/disp/oled_display.h ****     Writes the current display buffer to the OLED device using SPI or I2C depending on 
  48:../../libDaisy/src/hid/disp/oled_display.h ****     how the object was initialized.
  49:../../libDaisy/src/hid/disp/oled_display.h ****     */
  50:../../libDaisy/src/hid/disp/oled_display.h ****     void Update() override { driver_.Update(); }
 346              		.loc 5 50 10 is_stmt 1 view -0
 347              		.cfi_startproc
 348              		@ args = 0, pretend = 0, frame = 8
 349              		@ frame_needed = 0, uses_anonymous_args = 0
 350              	.LBB729:
 351              	.LBI729:
 254:../../libDaisy/src/dev/oled_ssd130x.h ****         }
 255:../../libDaisy/src/dev/oled_ssd130x.h ****     };
 256:../../libDaisy/src/dev/oled_ssd130x.h **** 
 257:../../libDaisy/src/dev/oled_ssd130x.h ****     /**
 258:../../libDaisy/src/dev/oled_ssd130x.h ****      * Update the display 
 259:../../libDaisy/src/dev/oled_ssd130x.h ****     */
 260:../../libDaisy/src/dev/oled_ssd130x.h ****     void Update()
 352              		.loc 15 260 10 view .LVU56
 353              	.LBB730:
 261:../../libDaisy/src/dev/oled_ssd130x.h ****     {
 262:../../libDaisy/src/dev/oled_ssd130x.h ****         uint8_t i;
 263:../../libDaisy/src/dev/oled_ssd130x.h ****         uint8_t high_column_addr;
 264:../../libDaisy/src/dev/oled_ssd130x.h ****         switch(height)
 265:../../libDaisy/src/dev/oled_ssd130x.h ****         {
 266:../../libDaisy/src/dev/oled_ssd130x.h ****             case 32: high_column_addr = 0x12; break;
 267:../../libDaisy/src/dev/oled_ssd130x.h **** 
 268:../../libDaisy/src/dev/oled_ssd130x.h ****             default: high_column_addr = 0x10; break;
 269:../../libDaisy/src/dev/oled_ssd130x.h ****         }
 270:../../libDaisy/src/dev/oled_ssd130x.h ****         for(i = 0; i < (height / 8); i++)
 354              		.loc 15 270 22 view .LVU57
 355              	.LBE730:
 356              	.LBE729:
 357              		.loc 5 50 10 is_stmt 0 view .LVU58
 358 0000 2DE9F041 		push	{r4, r5, r6, r7, r8, lr}
 359              		.cfi_def_cfa_offset 24
 360              		.cfi_offset 4, -24
 361              		.cfi_offset 5, -20
 362              		.cfi_offset 6, -16
 363              		.cfi_offset 7, -12
 364              		.cfi_offset 8, -8
 365              		.cfi_offset 14, -4
 366              	.LBB752:
 367              	.LBB750:
 368              	.LBB731:
 369              	.LBB732:
 112:../../libDaisy/src/dev/oled_ssd130x.h ****     };
 370              		.loc 15 112 30 view .LVU59
 371 0004 B024     		movs	r4, #176
 372              	.LBE732:
 373              	.LBE731:
 374              	.LBE750:
 375              	.LBE752:
 376              		.loc 5 50 10 view .LVU60
 377 0006 82B0     		sub	sp, sp, #8
 378              		.cfi_def_cfa_offset 32
 379              	.LBB753:
 380              	.LBB751:
ARM GAS  C:\Users\etpen\AppData\Local\Temp\cciw2fvE.s 			page 27


 381              	.LBB737:
 382              	.LBB733:
 111:../../libDaisy/src/dev/oled_ssd130x.h ****         spi_.BlockingTransmit(&cmd, 1);
 383              		.loc 15 111 24 view .LVU61
 384 0008 00F10806 		add	r6, r0, #8
 385 000c 00F11005 		add	r5, r0, #16
 386 0010 00F11408 		add	r8, r0, #20
 387              	.LVL16:
 388              	.L12:
 111:../../libDaisy/src/dev/oled_ssd130x.h ****         spi_.BlockingTransmit(&cmd, 1);
 389              		.loc 15 111 24 view .LVU62
 390 0014 0027     		movs	r7, #0
 111:../../libDaisy/src/dev/oled_ssd130x.h ****         spi_.BlockingTransmit(&cmd, 1);
 391              		.loc 15 111 23 view .LVU63
 392 0016 2846     		mov	r0, r5
 393 0018 8DF80740 		strb	r4, [sp, #7]
 394              	.LVL17:
 111:../../libDaisy/src/dev/oled_ssd130x.h ****         spi_.BlockingTransmit(&cmd, 1);
 395              		.loc 15 111 23 view .LVU64
 396              	.LBE733:
 397              	.LBI731:
 109:../../libDaisy/src/dev/oled_ssd130x.h ****     {
 398              		.loc 15 109 10 is_stmt 1 view .LVU65
 399              	.LBB734:
 111:../../libDaisy/src/dev/oled_ssd130x.h ****         spi_.BlockingTransmit(&cmd, 1);
 400              		.loc 15 111 9 view .LVU66
 401              	.LBE734:
 402              	.LBE737:
 403              		.loc 15 270 22 is_stmt 0 view .LVU67
 404 001c 0134     		adds	r4, r4, #1
 405              	.LVL18:
 406              	.LBB738:
 407              	.LBB735:
 111:../../libDaisy/src/dev/oled_ssd130x.h ****         spi_.BlockingTransmit(&cmd, 1);
 408              		.loc 15 111 23 view .LVU68
 409 001e 3946     		mov	r1, r7
 410 0020 FFF7FEFF 		bl	dsy_gpio_write
 411              	.LVL19:
 112:../../libDaisy/src/dev/oled_ssd130x.h ****     };
 412              		.loc 15 112 9 is_stmt 1 view .LVU69
 112:../../libDaisy/src/dev/oled_ssd130x.h ****     };
 413              		.loc 15 112 30 is_stmt 0 view .LVU70
 414 0024 6423     		movs	r3, #100
 415 0026 0122     		movs	r2, #1
 416 0028 0DF10701 		add	r1, sp, #7
 417 002c 3046     		mov	r0, r6
 418              	.LBE735:
 419              	.LBE738:
 420              		.loc 15 270 22 view .LVU71
 421 002e E4B2     		uxtb	r4, r4
 422              	.LBB739:
 423              	.LBB736:
 112:../../libDaisy/src/dev/oled_ssd130x.h ****     };
 424              		.loc 15 112 30 view .LVU72
 425 0030 FFF7FEFF 		bl	_ZN5daisy9SpiHandle16BlockingTransmitEPhjm
 426              	.LVL20:
 112:../../libDaisy/src/dev/oled_ssd130x.h ****     };
ARM GAS  C:\Users\etpen\AppData\Local\Temp\cciw2fvE.s 			page 28


 427              		.loc 15 112 30 view .LVU73
 428              	.LBE736:
 429              	.LBE739:
 430              	.LBB740:
 431              	.LBB741:
 111:../../libDaisy/src/dev/oled_ssd130x.h ****         spi_.BlockingTransmit(&cmd, 1);
 432              		.loc 15 111 23 view .LVU74
 433 0034 3946     		mov	r1, r7
 434 0036 2846     		mov	r0, r5
 435 0038 8DF80770 		strb	r7, [sp, #7]
 436              	.LVL21:
 111:../../libDaisy/src/dev/oled_ssd130x.h ****         spi_.BlockingTransmit(&cmd, 1);
 437              		.loc 15 111 23 view .LVU75
 438              	.LBE741:
 439              	.LBI740:
 109:../../libDaisy/src/dev/oled_ssd130x.h ****     {
 440              		.loc 15 109 10 is_stmt 1 view .LVU76
 441              	.LBB742:
 111:../../libDaisy/src/dev/oled_ssd130x.h ****         spi_.BlockingTransmit(&cmd, 1);
 442              		.loc 15 111 9 view .LVU77
 111:../../libDaisy/src/dev/oled_ssd130x.h ****         spi_.BlockingTransmit(&cmd, 1);
 443              		.loc 15 111 23 is_stmt 0 view .LVU78
 444 003c FFF7FEFF 		bl	dsy_gpio_write
 445              	.LVL22:
 112:../../libDaisy/src/dev/oled_ssd130x.h ****     };
 446              		.loc 15 112 9 is_stmt 1 view .LVU79
 112:../../libDaisy/src/dev/oled_ssd130x.h ****     };
 447              		.loc 15 112 30 is_stmt 0 view .LVU80
 448 0040 0122     		movs	r2, #1
 449 0042 6423     		movs	r3, #100
 450 0044 0DF10701 		add	r1, sp, #7
 451 0048 3046     		mov	r0, r6
 452 004a FFF7FEFF 		bl	_ZN5daisy9SpiHandle16BlockingTransmitEPhjm
 453              	.LVL23:
 112:../../libDaisy/src/dev/oled_ssd130x.h ****     };
 454              		.loc 15 112 30 view .LVU81
 455 004e 1023     		movs	r3, #16
 456              	.LBE742:
 457              	.LBE740:
 458              	.LBB743:
 459              	.LBB744:
 111:../../libDaisy/src/dev/oled_ssd130x.h ****         spi_.BlockingTransmit(&cmd, 1);
 460              		.loc 15 111 23 view .LVU82
 461 0050 3946     		mov	r1, r7
 462 0052 2846     		mov	r0, r5
 463 0054 8DF80730 		strb	r3, [sp, #7]
 464              	.LVL24:
 111:../../libDaisy/src/dev/oled_ssd130x.h ****         spi_.BlockingTransmit(&cmd, 1);
 465              		.loc 15 111 23 view .LVU83
 466              	.LBE744:
 467              	.LBI743:
 109:../../libDaisy/src/dev/oled_ssd130x.h ****     {
 468              		.loc 15 109 10 is_stmt 1 view .LVU84
 469              	.LBB745:
 111:../../libDaisy/src/dev/oled_ssd130x.h ****         spi_.BlockingTransmit(&cmd, 1);
 470              		.loc 15 111 9 view .LVU85
 111:../../libDaisy/src/dev/oled_ssd130x.h ****         spi_.BlockingTransmit(&cmd, 1);
ARM GAS  C:\Users\etpen\AppData\Local\Temp\cciw2fvE.s 			page 29


 471              		.loc 15 111 23 is_stmt 0 view .LVU86
 472 0058 FFF7FEFF 		bl	dsy_gpio_write
 473              	.LVL25:
 112:../../libDaisy/src/dev/oled_ssd130x.h ****     };
 474              		.loc 15 112 9 is_stmt 1 view .LVU87
 112:../../libDaisy/src/dev/oled_ssd130x.h ****     };
 475              		.loc 15 112 30 is_stmt 0 view .LVU88
 476 005c 6423     		movs	r3, #100
 477 005e 0122     		movs	r2, #1
 478 0060 0DF10701 		add	r1, sp, #7
 479 0064 3046     		mov	r0, r6
 480 0066 FFF7FEFF 		bl	_ZN5daisy9SpiHandle16BlockingTransmitEPhjm
 481              	.LVL26:
 112:../../libDaisy/src/dev/oled_ssd130x.h ****     };
 482              		.loc 15 112 30 view .LVU89
 483              	.LBE745:
 484              	.LBE743:
 485              	.LBB746:
 486              	.LBI746:
 115:../../libDaisy/src/dev/oled_ssd130x.h ****     {
 487              		.loc 15 115 10 is_stmt 1 view .LVU90
 488              	.LBB747:
 117:../../libDaisy/src/dev/oled_ssd130x.h ****         spi_.BlockingTransmit(buff, size);
 489              		.loc 15 117 9 view .LVU91
 117:../../libDaisy/src/dev/oled_ssd130x.h ****         spi_.BlockingTransmit(buff, size);
 490              		.loc 15 117 23 is_stmt 0 view .LVU92
 491 006a 0121     		movs	r1, #1
 492 006c 2846     		mov	r0, r5
 493 006e FFF7FEFF 		bl	dsy_gpio_write
 494              	.LVL27:
 118:../../libDaisy/src/dev/oled_ssd130x.h ****     };
 495              		.loc 15 118 9 is_stmt 1 view .LVU93
 118:../../libDaisy/src/dev/oled_ssd130x.h ****     };
 496              		.loc 15 118 30 is_stmt 0 view .LVU94
 497 0072 8022     		movs	r2, #128
 498 0074 4146     		mov	r1, r8
 499 0076 6423     		movs	r3, #100
 500 0078 3046     		mov	r0, r6
 501              	.LBE747:
 502              	.LBE746:
 503              		.loc 15 270 22 view .LVU95
 504 007a 9044     		add	r8, r8, r2
 505              	.LVL28:
 506              	.LBB749:
 507              	.LBB748:
 118:../../libDaisy/src/dev/oled_ssd130x.h ****     };
 508              		.loc 15 118 30 view .LVU96
 509 007c FFF7FEFF 		bl	_ZN5daisy9SpiHandle16BlockingTransmitEPhjm
 510              	.LVL29:
 118:../../libDaisy/src/dev/oled_ssd130x.h ****     };
 511              		.loc 15 118 30 view .LVU97
 512              	.LBE748:
 513              	.LBE749:
 514              		.loc 15 270 9 is_stmt 1 view .LVU98
 515              		.loc 15 270 22 view .LVU99
 516 0080 B82C     		cmp	r4, #184
 517 0082 C7D1     		bne	.L12
ARM GAS  C:\Users\etpen\AppData\Local\Temp\cciw2fvE.s 			page 30


 518              	.LBE751:
 519              	.LBE753:
 520              		.loc 5 50 48 is_stmt 0 view .LVU100
 521 0084 02B0     		add	sp, sp, #8
 522              		.cfi_def_cfa_offset 24
 523              		@ sp needed
 524 0086 BDE8F081 		pop	{r4, r5, r6, r7, r8, pc}
 525              		.loc 5 50 48 view .LVU101
 526              		.cfi_endproc
 527              	.LFE4750:
 529 008a 00BF     		.section	.text._ZN5daisy25OneBitGraphicsDisplayImplINS_11OledDisplayINS_13SSD130xDriverILj128ELj64
 530              		.align	1
 531              		.p2align 2,,3
 532              		.weak	_ZN5daisy25OneBitGraphicsDisplayImplINS_11OledDisplayINS_13SSD130xDriverILj128ELj64ENS_24SSD
 533              		.syntax unified
 534              		.thumb
 535              		.thumb_func
 536              		.fpu fpv5-d16
 538              	_ZN5daisy25OneBitGraphicsDisplayImplINS_11OledDisplayINS_13SSD130xDriverILj128ELj64ENS_24SSD130x4Wi
 539              	.LVL30:
 540              	.LFB4878:
 220:../../libDaisy/src/hid/disp/display.h **** 
 221:../../libDaisy/src/hid/disp/display.h ****     void DrawLine(uint_fast8_t x1,
 222:../../libDaisy/src/hid/disp/display.h ****                   uint_fast8_t y1,
 223:../../libDaisy/src/hid/disp/display.h ****                   uint_fast8_t x2,
 224:../../libDaisy/src/hid/disp/display.h ****                   uint_fast8_t y2,
 225:../../libDaisy/src/hid/disp/display.h ****                   bool         on) override
 226:../../libDaisy/src/hid/disp/display.h ****     {
 227:../../libDaisy/src/hid/disp/display.h ****         int_fast16_t deltaX = abs((int_fast16_t)x2 - (int_fast16_t)x1);
 228:../../libDaisy/src/hid/disp/display.h ****         int_fast16_t deltaY = abs((int_fast16_t)y2 - (int_fast16_t)y1);
 229:../../libDaisy/src/hid/disp/display.h ****         int_fast16_t signX  = ((x1 < x2) ? 1 : -1);
 230:../../libDaisy/src/hid/disp/display.h ****         int_fast16_t signY  = ((y1 < y2) ? 1 : -1);
 231:../../libDaisy/src/hid/disp/display.h ****         int_fast16_t error  = deltaX - deltaY;
 232:../../libDaisy/src/hid/disp/display.h ****         int_fast16_t error2;
 233:../../libDaisy/src/hid/disp/display.h **** 
 234:../../libDaisy/src/hid/disp/display.h ****         // If we write "ChildType::DrawPixel(x2, y2, on);", we end up with
 235:../../libDaisy/src/hid/disp/display.h ****         // all sorts of weird compiler errors when the Child class is a template
 236:../../libDaisy/src/hid/disp/display.h ****         // class. The only way around this is to use this very verbose syntax:
 237:../../libDaisy/src/hid/disp/display.h ****         ((ChildType*)(this))->ChildType::DrawPixel(x2, y2, on);
 238:../../libDaisy/src/hid/disp/display.h **** 
 239:../../libDaisy/src/hid/disp/display.h ****         while((x1 != x2) || (y1 != y2))
 240:../../libDaisy/src/hid/disp/display.h ****         {
 241:../../libDaisy/src/hid/disp/display.h ****             ((ChildType*)(this))->ChildType::DrawPixel(x1, y1, on);
 242:../../libDaisy/src/hid/disp/display.h ****             error2 = error * 2;
 243:../../libDaisy/src/hid/disp/display.h ****             if(error2 > -deltaY)
 244:../../libDaisy/src/hid/disp/display.h ****             {
 245:../../libDaisy/src/hid/disp/display.h ****                 error -= deltaY;
 246:../../libDaisy/src/hid/disp/display.h ****                 x1 += signX;
 247:../../libDaisy/src/hid/disp/display.h ****             }
 248:../../libDaisy/src/hid/disp/display.h **** 
 249:../../libDaisy/src/hid/disp/display.h ****             if(error2 < deltaX)
 250:../../libDaisy/src/hid/disp/display.h ****             {
 251:../../libDaisy/src/hid/disp/display.h ****                 error += deltaX;
 252:../../libDaisy/src/hid/disp/display.h ****                 y1 += signY;
 253:../../libDaisy/src/hid/disp/display.h ****             }
 254:../../libDaisy/src/hid/disp/display.h ****         }
 255:../../libDaisy/src/hid/disp/display.h ****     }
ARM GAS  C:\Users\etpen\AppData\Local\Temp\cciw2fvE.s 			page 31


 256:../../libDaisy/src/hid/disp/display.h **** 
 257:../../libDaisy/src/hid/disp/display.h ****     void DrawRect(uint_fast8_t x1,
 258:../../libDaisy/src/hid/disp/display.h ****                   uint_fast8_t y1,
 259:../../libDaisy/src/hid/disp/display.h ****                   uint_fast8_t x2,
 260:../../libDaisy/src/hid/disp/display.h ****                   uint_fast8_t y2,
 261:../../libDaisy/src/hid/disp/display.h ****                   bool         on,
 262:../../libDaisy/src/hid/disp/display.h ****                   bool         fill = false) override
 263:../../libDaisy/src/hid/disp/display.h ****     {
 264:../../libDaisy/src/hid/disp/display.h ****         if(fill)
 265:../../libDaisy/src/hid/disp/display.h ****         {
 266:../../libDaisy/src/hid/disp/display.h ****             for(uint_fast8_t x = x1; x <= x2; x++)
 267:../../libDaisy/src/hid/disp/display.h ****             {
 268:../../libDaisy/src/hid/disp/display.h ****                 for(uint_fast8_t y = y1; y <= y2; y++)
 269:../../libDaisy/src/hid/disp/display.h ****                 {
 270:../../libDaisy/src/hid/disp/display.h ****                     ((ChildType*)(this))->ChildType::DrawPixel(x, y, on);
 271:../../libDaisy/src/hid/disp/display.h ****                 }
 272:../../libDaisy/src/hid/disp/display.h ****             }
 273:../../libDaisy/src/hid/disp/display.h ****         }
 274:../../libDaisy/src/hid/disp/display.h ****         else
 275:../../libDaisy/src/hid/disp/display.h ****         {
 276:../../libDaisy/src/hid/disp/display.h ****             ((ChildType*)(this))->ChildType::DrawLine(x1, y1, x2, y1, on);
 277:../../libDaisy/src/hid/disp/display.h ****             ((ChildType*)(this))->ChildType::DrawLine(x2, y1, x2, y2, on);
 278:../../libDaisy/src/hid/disp/display.h ****             ((ChildType*)(this))->ChildType::DrawLine(x2, y2, x1, y2, on);
 279:../../libDaisy/src/hid/disp/display.h ****             ((ChildType*)(this))->ChildType::DrawLine(x1, y2, x1, y1, on);
 280:../../libDaisy/src/hid/disp/display.h ****         }
 281:../../libDaisy/src/hid/disp/display.h ****     }
 282:../../libDaisy/src/hid/disp/display.h **** 
 283:../../libDaisy/src/hid/disp/display.h ****     void DrawArc(uint_fast8_t x,
 284:../../libDaisy/src/hid/disp/display.h ****                  uint_fast8_t y,
 285:../../libDaisy/src/hid/disp/display.h ****                  uint_fast8_t radius,
 286:../../libDaisy/src/hid/disp/display.h ****                  int_fast16_t start_angle,
 287:../../libDaisy/src/hid/disp/display.h ****                  int_fast16_t sweep,
 288:../../libDaisy/src/hid/disp/display.h ****                  bool         on) override
 289:../../libDaisy/src/hid/disp/display.h ****     {
 290:../../libDaisy/src/hid/disp/display.h ****         // Values to calculate the circle
 291:../../libDaisy/src/hid/disp/display.h ****         int_fast16_t t_x, t_y, err, e2;
 292:../../libDaisy/src/hid/disp/display.h **** 
 293:../../libDaisy/src/hid/disp/display.h ****         // Temporary values to speed up comparisons
 294:../../libDaisy/src/hid/disp/display.h ****         float t_sxy, t_syx, t_sxny, t_synx;
 295:../../libDaisy/src/hid/disp/display.h ****         float t_exy, t_eyx, t_exny, t_eynx;
 296:../../libDaisy/src/hid/disp/display.h **** 
 297:../../libDaisy/src/hid/disp/display.h ****         float start_angle_rad, end_angle_rad;
 298:../../libDaisy/src/hid/disp/display.h ****         float start_x, start_y, end_x, end_y;
 299:../../libDaisy/src/hid/disp/display.h **** 
 300:../../libDaisy/src/hid/disp/display.h ****         bool d1, d2, d3, d4;
 301:../../libDaisy/src/hid/disp/display.h **** 
 302:../../libDaisy/src/hid/disp/display.h ****         d1 = d2 = d3 = d4 = true;
 303:../../libDaisy/src/hid/disp/display.h **** 
 304:../../libDaisy/src/hid/disp/display.h ****         bool circle = false;
 305:../../libDaisy/src/hid/disp/display.h **** 
 306:../../libDaisy/src/hid/disp/display.h ****         if(sweep < 0)
 307:../../libDaisy/src/hid/disp/display.h ****         {
 308:../../libDaisy/src/hid/disp/display.h ****             start_angle += sweep;
 309:../../libDaisy/src/hid/disp/display.h ****             sweep = -sweep;
 310:../../libDaisy/src/hid/disp/display.h ****         }
 311:../../libDaisy/src/hid/disp/display.h **** 
 312:../../libDaisy/src/hid/disp/display.h ****         start_angle_rad = deg2rad(start_angle);
ARM GAS  C:\Users\etpen\AppData\Local\Temp\cciw2fvE.s 			page 32


 313:../../libDaisy/src/hid/disp/display.h ****         end_angle_rad   = deg2rad(start_angle + sweep);
 314:../../libDaisy/src/hid/disp/display.h **** 
 315:../../libDaisy/src/hid/disp/display.h ****         start_x = cos(start_angle_rad) * radius;
 316:../../libDaisy/src/hid/disp/display.h ****         start_y = -sin(start_angle_rad) * radius;
 317:../../libDaisy/src/hid/disp/display.h ****         end_x   = cos(end_angle_rad) * radius;
 318:../../libDaisy/src/hid/disp/display.h ****         end_y   = -sin(end_angle_rad) * radius;
 319:../../libDaisy/src/hid/disp/display.h **** 
 320:../../libDaisy/src/hid/disp/display.h ****         // Check if start and endpoint are very near
 321:../../libDaisy/src/hid/disp/display.h ****         if((end_x - start_x) * (end_x - start_x)
 322:../../libDaisy/src/hid/disp/display.h ****                + (end_y - start_y) * (end_y - start_y)
 323:../../libDaisy/src/hid/disp/display.h ****            < 2.0f)
 324:../../libDaisy/src/hid/disp/display.h ****         {
 325:../../libDaisy/src/hid/disp/display.h ****             if(sweep > 180)
 326:../../libDaisy/src/hid/disp/display.h ****                 circle = true;
 327:../../libDaisy/src/hid/disp/display.h ****             else
 328:../../libDaisy/src/hid/disp/display.h ****                 // Nothing to draw
 329:../../libDaisy/src/hid/disp/display.h ****                 return;
 330:../../libDaisy/src/hid/disp/display.h ****         }
 331:../../libDaisy/src/hid/disp/display.h **** 
 332:../../libDaisy/src/hid/disp/display.h ****         t_x = -radius;
 333:../../libDaisy/src/hid/disp/display.h ****         t_y = 0;
 334:../../libDaisy/src/hid/disp/display.h ****         err = 2 - 2 * radius;
 335:../../libDaisy/src/hid/disp/display.h **** 
 336:../../libDaisy/src/hid/disp/display.h ****         do
 337:../../libDaisy/src/hid/disp/display.h ****         {
 338:../../libDaisy/src/hid/disp/display.h ****             if(!circle)
 339:../../libDaisy/src/hid/disp/display.h ****             {
 340:../../libDaisy/src/hid/disp/display.h ****                 t_sxy  = start_x * t_y;
 341:../../libDaisy/src/hid/disp/display.h ****                 t_syx  = start_y * t_x;
 342:../../libDaisy/src/hid/disp/display.h ****                 t_sxny = start_x * -t_y;
 343:../../libDaisy/src/hid/disp/display.h ****                 t_synx = start_y * -t_x;
 344:../../libDaisy/src/hid/disp/display.h ****                 t_exy  = end_x * t_y;
 345:../../libDaisy/src/hid/disp/display.h ****                 t_eyx  = end_y * t_x;
 346:../../libDaisy/src/hid/disp/display.h ****                 t_exny = end_x * -t_y;
 347:../../libDaisy/src/hid/disp/display.h ****                 t_eynx = end_y * -t_x;
 348:../../libDaisy/src/hid/disp/display.h **** 
 349:../../libDaisy/src/hid/disp/display.h ****                 if(sweep > 180)
 350:../../libDaisy/src/hid/disp/display.h ****                 {
 351:../../libDaisy/src/hid/disp/display.h ****                     d1 = (t_sxy - t_synx < 0 || t_exy - t_eynx > 0);
 352:../../libDaisy/src/hid/disp/display.h ****                     d2 = (t_sxy - t_syx < 0 || t_exy - t_eyx > 0);
 353:../../libDaisy/src/hid/disp/display.h ****                     d3 = (t_sxny - t_syx < 0 || t_exny - t_eyx > 0);
 354:../../libDaisy/src/hid/disp/display.h ****                     d4 = (t_sxny - t_synx < 0 || t_exny - t_eynx > 0);
 355:../../libDaisy/src/hid/disp/display.h ****                 }
 356:../../libDaisy/src/hid/disp/display.h ****                 else
 357:../../libDaisy/src/hid/disp/display.h ****                 {
 358:../../libDaisy/src/hid/disp/display.h ****                     d1 = (t_sxy - t_synx < 0 && t_exy - t_eynx > 0);
 359:../../libDaisy/src/hid/disp/display.h ****                     d2 = (t_sxy - t_syx < 0 && t_exy - t_eyx > 0);
 360:../../libDaisy/src/hid/disp/display.h ****                     d3 = (t_sxny - t_syx < 0 && t_exny - t_eyx > 0);
 361:../../libDaisy/src/hid/disp/display.h ****                     d4 = (t_sxny - t_synx < 0 && t_exny - t_eynx > 0);
 362:../../libDaisy/src/hid/disp/display.h ****                 }
 363:../../libDaisy/src/hid/disp/display.h ****             }
 364:../../libDaisy/src/hid/disp/display.h **** 
 365:../../libDaisy/src/hid/disp/display.h ****             if(d1)
 366:../../libDaisy/src/hid/disp/display.h ****                 ((ChildType*)(this))
 367:../../libDaisy/src/hid/disp/display.h ****                     ->ChildType::DrawPixel(x - t_x, y + t_y, on);
 368:../../libDaisy/src/hid/disp/display.h ****             if(d2)
 369:../../libDaisy/src/hid/disp/display.h ****                 ((ChildType*)(this))
ARM GAS  C:\Users\etpen\AppData\Local\Temp\cciw2fvE.s 			page 33


 370:../../libDaisy/src/hid/disp/display.h ****                     ->ChildType::DrawPixel(x + t_x, y + t_y, on);
 371:../../libDaisy/src/hid/disp/display.h ****             if(d3)
 372:../../libDaisy/src/hid/disp/display.h ****                 ((ChildType*)(this))
 373:../../libDaisy/src/hid/disp/display.h ****                     ->ChildType::DrawPixel(x + t_x, y - t_y, on);
 374:../../libDaisy/src/hid/disp/display.h ****             if(d4)
 375:../../libDaisy/src/hid/disp/display.h ****                 ((ChildType*)(this))
 376:../../libDaisy/src/hid/disp/display.h ****                     ->ChildType::DrawPixel(x - t_x, y - t_y, on);
 377:../../libDaisy/src/hid/disp/display.h **** 
 378:../../libDaisy/src/hid/disp/display.h ****             e2 = err;
 379:../../libDaisy/src/hid/disp/display.h ****             if(e2 <= t_y)
 380:../../libDaisy/src/hid/disp/display.h ****             {
 381:../../libDaisy/src/hid/disp/display.h ****                 t_y++;
 382:../../libDaisy/src/hid/disp/display.h ****                 err = err + (t_y * 2 + 1);
 383:../../libDaisy/src/hid/disp/display.h ****                 if(-t_x == t_y && e2 <= t_x)
 384:../../libDaisy/src/hid/disp/display.h ****                 {
 385:../../libDaisy/src/hid/disp/display.h ****                     e2 = 0;
 386:../../libDaisy/src/hid/disp/display.h ****                 }
 387:../../libDaisy/src/hid/disp/display.h ****             }
 388:../../libDaisy/src/hid/disp/display.h ****             if(e2 > t_x)
 389:../../libDaisy/src/hid/disp/display.h ****             {
 390:../../libDaisy/src/hid/disp/display.h ****                 t_x++;
 391:../../libDaisy/src/hid/disp/display.h ****                 err = err + (t_x * 2 + 1);
 392:../../libDaisy/src/hid/disp/display.h ****             }
 393:../../libDaisy/src/hid/disp/display.h ****         } while(t_x <= 0);
 394:../../libDaisy/src/hid/disp/display.h ****     }
 395:../../libDaisy/src/hid/disp/display.h **** 
 396:../../libDaisy/src/hid/disp/display.h ****     char WriteChar(char ch, FontDef font, bool on) override
 541              		.loc 6 396 10 is_stmt 1 view -0
 542              		.cfi_startproc
 543              		@ args = 4, pretend = 0, frame = 16
 544              		@ frame_needed = 0, uses_anonymous_args = 0
 545              		.loc 6 396 10 is_stmt 0 view .LVU103
 546 0000 2DE9F04F 		push	{r4, r5, r6, r7, r8, r9, r10, fp, lr}
 547              		.cfi_def_cfa_offset 36
 548              		.cfi_offset 4, -36
 549              		.cfi_offset 5, -32
 550              		.cfi_offset 6, -28
 551              		.cfi_offset 7, -24
 552              		.cfi_offset 8, -20
 553              		.cfi_offset 9, -16
 554              		.cfi_offset 10, -12
 555              		.cfi_offset 11, -8
 556              		.cfi_offset 14, -4
 557 0004 85B0     		sub	sp, sp, #20
 558              		.cfi_def_cfa_offset 56
 559              	.LVL31:
 397:../../libDaisy/src/hid/disp/display.h ****     {
 398:../../libDaisy/src/hid/disp/display.h ****         uint32_t i, b, j;
 399:../../libDaisy/src/hid/disp/display.h **** 
 400:../../libDaisy/src/hid/disp/display.h ****         // Check if character is valid
 401:../../libDaisy/src/hid/disp/display.h ****         if(ch < 32 || ch > 126)
 560              		.loc 6 401 20 view .LVU104
 561 0006 A1F12005 		sub	r5, r1, #32
 396:../../libDaisy/src/hid/disp/display.h ****     {
 562              		.loc 6 396 10 view .LVU105
 563 000a 04AC     		add	r4, sp, #16
 564 000c 9DF83870 		ldrb	r7, [sp, #56]	@ zero_extendqisi2
ARM GAS  C:\Users\etpen\AppData\Local\Temp\cciw2fvE.s 			page 34


 565 0010 0091     		str	r1, [sp]
 566 0012 04E90C00 		stmdb	r4, {r2, r3}
 567              	.LVL32:
 568              		.loc 6 401 9 view .LVU106
 569 0016 EBB2     		uxtb	r3, r5
 570 0018 5E2B     		cmp	r3, #94
 571 001a 00F29580 		bhi	.L19
 402:../../libDaisy/src/hid/disp/display.h ****             return 0;
 403:../../libDaisy/src/hid/disp/display.h **** 
 404:../../libDaisy/src/hid/disp/display.h ****         // Check remaining space on current line
 405:../../libDaisy/src/hid/disp/display.h ****         if(Width() < (currentX_ + font.FontWidth)
 572              		.loc 6 405 17 view .LVU107
 573 001e 0368     		ldr	r3, [r0]
 574 0020 8046     		mov	r8, r0
 575 0022 5D4A     		ldr	r2, .L54
 576 0024 DB68     		ldr	r3, [r3, #12]
 577 0026 9DF80840 		ldrb	r4, [sp, #8]	@ zero_extendqisi2
 578 002a 9342     		cmp	r3, r2
 579 002c 9DF80960 		ldrb	r6, [sp, #9]	@ zero_extendqisi2
 580 0030 40F09480 		bne	.L46
 581 0034 8020     		movs	r0, #128
 582              	.LVL33:
 583              	.L18:
 584              		.loc 6 405 23 view .LVU108
 585 0036 B8F80430 		ldrh	r3, [r8, #4]
 586              		.loc 6 405 33 view .LVU109
 587 003a 2344     		add	r3, r3, r4
 406:../../libDaisy/src/hid/disp/display.h ****            || Height() < (currentY_ + font.FontHeight))
 588              		.loc 6 406 12 view .LVU110
 589 003c 8342     		cmp	r3, r0
 590 003e 00F38380 		bgt	.L19
 591              		.loc 6 406 21 discriminator 2 view .LVU111
 592 0042 D8F80030 		ldr	r3, [r8]
 593 0046 554A     		ldr	r2, .L54+4
 594 0048 9B68     		ldr	r3, [r3, #8]
 595 004a 9342     		cmp	r3, r2
 596 004c 40F08880 		bne	.L47
 597              		.loc 6 406 21 view .LVU112
 598 0050 4020     		movs	r0, #64
 599              	.L20:
 600              		.loc 6 406 27 discriminator 2 view .LVU113
 601 0052 B8F80620 		ldrh	r2, [r8, #6]
 602              		.loc 6 406 37 discriminator 2 view .LVU114
 603 0056 9319     		adds	r3, r2, r6
 604              		.loc 6 406 27 discriminator 2 view .LVU115
 605 0058 0192     		str	r2, [sp, #4]
 606              		.loc 6 406 12 discriminator 2 view .LVU116
 607 005a 8342     		cmp	r3, r0
 608 005c 74DC     		bgt	.L19
 609              	.LVL34:
 407:../../libDaisy/src/hid/disp/display.h ****         {
 408:../../libDaisy/src/hid/disp/display.h ****             // Not enough space on current line
 409:../../libDaisy/src/hid/disp/display.h ****             return 0;
 410:../../libDaisy/src/hid/disp/display.h ****         }
 411:../../libDaisy/src/hid/disp/display.h **** 
 412:../../libDaisy/src/hid/disp/display.h ****         // Use the font to write
 413:../../libDaisy/src/hid/disp/display.h ****         for(i = 0; i < font.FontHeight; i++)
ARM GAS  C:\Users\etpen\AppData\Local\Temp\cciw2fvE.s 			page 35


 610              		.loc 6 413 22 is_stmt 1 view .LVU117
 611 005e 002E     		cmp	r6, #0
 612 0060 00F08980 		beq	.L21
 414:../../libDaisy/src/hid/disp/display.h ****         {
 415:../../libDaisy/src/hid/disp/display.h ****             b = font.data[(ch - 32) * font.FontHeight + i];
 613              		.loc 6 415 37 is_stmt 0 view .LVU118
 614 0064 06FB05F5 		mul	r5, r6, r5
 615 0068 6FF00040 		mvn	r0, #-2147483648
 616              		.loc 6 415 22 view .LVU119
 617 006c 039B     		ldr	r3, [sp, #12]
 618 006e 9646     		mov	lr, r2
 619 0070 2844     		add	r0, r0, r5
 620 0072 2E44     		add	r6, r6, r5
 416:../../libDaisy/src/hid/disp/display.h ****             for(j = 0; j < font.FontWidth; j++)
 417:../../libDaisy/src/hid/disp/display.h ****             {
 418:../../libDaisy/src/hid/disp/display.h ****                 if((b << j) & 0x8000)
 419:../../libDaisy/src/hid/disp/display.h ****                 {
 420:../../libDaisy/src/hid/disp/display.h ****                     ((ChildType*)(this))
 421:../../libDaisy/src/hid/disp/display.h ****                         ->ChildType::DrawPixel(
 422:../../libDaisy/src/hid/disp/display.h ****                             currentX_ + j, (currentY_ + i), on);
 423:../../libDaisy/src/hid/disp/display.h ****                 }
 424:../../libDaisy/src/hid/disp/display.h ****                 else
 425:../../libDaisy/src/hid/disp/display.h ****                 {
 426:../../libDaisy/src/hid/disp/display.h ****                     ((ChildType*)(this))
 427:../../libDaisy/src/hid/disp/display.h ****                         ->ChildType::DrawPixel(
 428:../../libDaisy/src/hid/disp/display.h ****                             currentX_ + j, (currentY_ + i), !on);
 429:../../libDaisy/src/hid/disp/display.h ****                 }
 430:../../libDaisy/src/hid/disp/display.h ****             }
 431:../../libDaisy/src/hid/disp/display.h ****         }
 432:../../libDaisy/src/hid/disp/display.h **** 
 433:../../libDaisy/src/hid/disp/display.h ****         // The current space is now taken
 434:../../libDaisy/src/hid/disp/display.h ****         SetCursor(currentX_ + font.FontWidth, currentY_);
 621              		.loc 6 434 19 view .LVU120
 622 0074 B8F804A0 		ldrh	r10, [r8, #4]
 623 0078 03EB4000 		add	r0, r3, r0, lsl #1
 624 007c 023B     		subs	r3, r3, #2
 625 007e 03EB460B 		add	fp, r3, r6, lsl #1
 626              	.LVL35:
 627              	.L24:
 415:../../libDaisy/src/hid/disp/display.h ****             for(j = 0; j < font.FontWidth; j++)
 628              		.loc 6 415 15 view .LVU121
 629 0082 30F8026F 		ldrh	r6, [r0, #2]!
 630              	.LVL36:
 416:../../libDaisy/src/hid/disp/display.h ****             for(j = 0; j < font.FontWidth; j++)
 631              		.loc 6 416 26 is_stmt 1 view .LVU122
 632 0086 BCB3     		cbz	r4, .L29
 633              	.LBB784:
 634              	.LBB785:
 635              	.LBB786:
 636              	.LBB787:
 637              	.LBB788:
 246:../../libDaisy/src/dev/oled_ssd130x.h ****     }
 638              		.loc 15 246 55 is_stmt 0 view .LVU123
 639 0088 0EF00703 		and	r3, lr, #7
 246:../../libDaisy/src/dev/oled_ssd130x.h ****     }
 640              		.loc 15 246 49 view .LVU124
 641 008c 4FF0010C 		mov	ip, #1
ARM GAS  C:\Users\etpen\AppData\Local\Temp\cciw2fvE.s 			page 36


 246:../../libDaisy/src/dev/oled_ssd130x.h ****     }
 642              		.loc 15 246 28 view .LVU125
 643 0090 4FEADE02 		lsr	r2, lr, #3
 644 0094 5146     		mov	r1, r10
 246:../../libDaisy/src/dev/oled_ssd130x.h ****     }
 645              		.loc 15 246 49 view .LVU126
 646 0096 0CFA03FC 		lsl	ip, ip, r3
 647 009a 0AF11403 		add	r3, r10, #20
 246:../../libDaisy/src/dev/oled_ssd130x.h ****     }
 648              		.loc 15 246 42 view .LVU127
 649 009e 4FFA8CFC 		sxtb	ip, ip
 650 00a2 03EBC212 		add	r2, r3, r2, lsl #7
 651              	.LBE788:
 652              	.LBE787:
 653              	.LBE786:
 654              	.LBE785:
 655              	.LBE784:
 416:../../libDaisy/src/hid/disp/display.h ****             for(j = 0; j < font.FontWidth; j++)
 656              		.loc 6 416 19 view .LVU128
 657 00a6 0023     		movs	r3, #0
 658              	.LBB806:
 659              	.LBB801:
 660              	.LBB796:
 661              	.LBB792:
 662              	.LBB789:
 246:../../libDaisy/src/dev/oled_ssd130x.h ****     }
 663              		.loc 15 246 42 view .LVU129
 664 00a8 6FEA0C09 		mvn	r9, ip
 665 00ac 4244     		add	r2, r2, r8
 666 00ae 0EE0     		b	.L30
 667              	.LVL37:
 668              	.L48:
 246:../../libDaisy/src/dev/oled_ssd130x.h ****     }
 669              		.loc 15 246 42 view .LVU130
 670              	.LBE789:
 671              	.LBE792:
 672              	.LBE796:
 673              	.LBE801:
 674              	.LBE806:
 675              	.LBB807:
 676              	.LBI807:
  41:../../libDaisy/src/hid/disp/oled_display.h ****     {
 677              		.loc 5 41 10 is_stmt 1 view .LVU131
 678              	.LBB808:
 679              	.LBI808:
 239:../../libDaisy/src/dev/oled_ssd130x.h ****     {
 680              		.loc 15 239 10 view .LVU132
 681              	.LBB809:
 241:../../libDaisy/src/dev/oled_ssd130x.h ****             return;
 682              		.loc 15 241 9 is_stmt 0 view .LVU133
 683 00b0 7F29     		cmp	r1, #127
 684 00b2 07D8     		bhi	.L26
 685 00b4 BEF13F0F 		cmp	lr, #63
 686 00b8 04D8     		bhi	.L26
 244:../../libDaisy/src/dev/oled_ssd130x.h ****         else
 687              		.loc 15 244 42 view .LVU134
 688 00ba 1578     		ldrb	r5, [r2]	@ zero_extendqisi2
ARM GAS  C:\Users\etpen\AppData\Local\Temp\cciw2fvE.s 			page 37


 243:../../libDaisy/src/dev/oled_ssd130x.h ****             buffer_[x + (y / 8) * width] |= (1 << (y % 8));
 689              		.loc 15 243 9 view .LVU135
 690 00bc 9FB1     		cbz	r7, .L28
 691              	.L45:
 243:../../libDaisy/src/dev/oled_ssd130x.h ****             buffer_[x + (y / 8) * width] |= (1 << (y % 8));
 692              		.loc 15 243 9 view .LVU136
 693              	.LBE809:
 694              	.LBE808:
 695              	.LBE807:
 696              	.LBB810:
 697              	.LBB802:
 698              	.LBB797:
 244:../../libDaisy/src/dev/oled_ssd130x.h ****         else
 699              		.loc 15 244 42 view .LVU137
 700 00be 4CEA0505 		orr	r5, ip, r5
 701 00c2 1570     		strb	r5, [r2]
 702              	.L26:
 703              	.LBE797:
 704              	.LBE802:
 705              	.LBE810:
 416:../../libDaisy/src/hid/disp/display.h ****             {
 706              		.loc 6 416 13 is_stmt 1 discriminator 2 view .LVU138
 707 00c4 0133     		adds	r3, r3, #1
 708              	.LVL38:
 416:../../libDaisy/src/hid/disp/display.h ****             {
 709              		.loc 6 416 26 discriminator 2 view .LVU139
 710 00c6 0132     		adds	r2, r2, #1
 711 00c8 0131     		adds	r1, r1, #1
 712 00ca 9C42     		cmp	r4, r3
 713 00cc 14D0     		beq	.L29
 714              	.LVL39:
 715              	.L30:
 418:../../libDaisy/src/hid/disp/display.h ****                 {
 716              		.loc 6 418 23 is_stmt 0 view .LVU140
 717 00ce 06FA03F5 		lsl	r5, r6, r3
 418:../../libDaisy/src/hid/disp/display.h ****                 {
 718              		.loc 6 418 17 view .LVU141
 719 00d2 2D04     		lsls	r5, r5, #16
 720 00d4 ECD4     		bmi	.L48
 721              	.LVL40:
 722              	.LBB811:
 723              	.LBI784:
  41:../../libDaisy/src/hid/disp/oled_display.h ****     {
 724              		.loc 5 41 10 is_stmt 1 view .LVU142
 725              	.LBB803:
 726              	.LBI785:
 239:../../libDaisy/src/dev/oled_ssd130x.h ****     {
 727              		.loc 15 239 10 view .LVU143
 728              	.LBB798:
 241:../../libDaisy/src/dev/oled_ssd130x.h ****             return;
 729              		.loc 15 241 9 is_stmt 0 view .LVU144
 730 00d6 7F29     		cmp	r1, #127
 731 00d8 F4D8     		bhi	.L26
 732 00da BEF13F0F 		cmp	lr, #63
 733 00de F1D8     		bhi	.L26
 244:../../libDaisy/src/dev/oled_ssd130x.h ****         else
 734              		.loc 15 244 42 view .LVU145
ARM GAS  C:\Users\etpen\AppData\Local\Temp\cciw2fvE.s 			page 38


 735 00e0 1578     		ldrb	r5, [r2]	@ zero_extendqisi2
 243:../../libDaisy/src/dev/oled_ssd130x.h ****             buffer_[x + (y / 8) * width] |= (1 << (y % 8));
 736              		.loc 15 243 9 view .LVU146
 737 00e2 002F     		cmp	r7, #0
 738 00e4 EBD0     		beq	.L45
 739              	.L28:
 740              	.LVL41:
 741              	.LBB793:
 742              	.LBI787:
 239:../../libDaisy/src/dev/oled_ssd130x.h ****     {
 743              		.loc 15 239 10 is_stmt 1 view .LVU147
 239:../../libDaisy/src/dev/oled_ssd130x.h ****     {
 744              		.loc 15 239 10 is_stmt 0 view .LVU148
 745              	.LBE793:
 746              	.LBE798:
 747              	.LBE803:
 748              	.LBE811:
 416:../../libDaisy/src/hid/disp/display.h ****             {
 749              		.loc 6 416 13 view .LVU149
 750 00e6 0133     		adds	r3, r3, #1
 751              	.LVL42:
 752              	.LBB812:
 753              	.LBB804:
 754              	.LBB799:
 755              	.LBB794:
 756              	.LBB790:
 246:../../libDaisy/src/dev/oled_ssd130x.h ****     }
 757              		.loc 15 246 42 view .LVU150
 758 00e8 09EA0505 		and	r5, r9, r5
 759              	.LBE790:
 760              	.LBE794:
 761              	.LBE799:
 762              	.LBE804:
 763              	.LBE812:
 416:../../libDaisy/src/hid/disp/display.h ****             {
 764              		.loc 6 416 26 view .LVU151
 765 00ec 0132     		adds	r2, r2, #1
 766 00ee 0131     		adds	r1, r1, #1
 767 00f0 9C42     		cmp	r4, r3
 768              	.LBB813:
 769              	.LBB805:
 770              	.LBB800:
 771              	.LBB795:
 772              	.LBB791:
 246:../../libDaisy/src/dev/oled_ssd130x.h ****     }
 773              		.loc 15 246 42 view .LVU152
 774 00f2 02F8015C 		strb	r5, [r2, #-1]
 246:../../libDaisy/src/dev/oled_ssd130x.h ****     }
 775              		.loc 15 246 42 view .LVU153
 776              	.LBE791:
 777              	.LBE795:
 778              	.LBE800:
 779              	.LBE805:
 780              	.LBE813:
 416:../../libDaisy/src/hid/disp/display.h ****             {
 781              		.loc 6 416 13 is_stmt 1 view .LVU154
 782              	.LVL43:
ARM GAS  C:\Users\etpen\AppData\Local\Temp\cciw2fvE.s 			page 39


 416:../../libDaisy/src/hid/disp/display.h ****             {
 783              		.loc 6 416 26 view .LVU155
 784 00f6 EAD1     		bne	.L30
 785              	.LVL44:
 786              	.L29:
 413:../../libDaisy/src/hid/disp/display.h ****         {
 787              		.loc 6 413 9 view .LVU156
 413:../../libDaisy/src/hid/disp/display.h ****         {
 788              		.loc 6 413 22 view .LVU157
 789 00f8 5845     		cmp	r0, fp
 790 00fa 0EF1010E 		add	lr, lr, #1
 791 00fe C0D1     		bne	.L24
 792              	.LVL45:
 793              	.L23:
 794              	.LBB814:
 795              	.LBB815:
 173:../../libDaisy/src/hid/disp/display.h ****         currentY_ = (y >= Height()) ? Height() - 1 : y;
 796              		.loc 6 173 33 is_stmt 0 view .LVU158
 797 0100 D8F80030 		ldr	r3, [r8]
 798              	.LBE815:
 799              	.LBE814:
 800              		.loc 6 434 18 view .LVU159
 801 0104 5444     		add	r4, r4, r10
 802 0106 2449     		ldr	r1, .L54
 803              	.LBB821:
 804              	.LBB816:
 173:../../libDaisy/src/hid/disp/display.h ****         currentY_ = (y >= Height()) ? Height() - 1 : y;
 805              		.loc 6 173 33 view .LVU160
 806 0108 DA68     		ldr	r2, [r3, #12]
 807              	.LBE816:
 808              	.LBE821:
 809              		.loc 6 434 18 view .LVU161
 810 010a A4B2     		uxth	r4, r4
 811              	.LVL46:
 812              	.LBB822:
 813              	.LBI814:
 171:../../libDaisy/src/hid/disp/display.h ****     {
 814              		.loc 6 171 10 is_stmt 1 view .LVU162
 815              	.LBB817:
 173:../../libDaisy/src/hid/disp/display.h ****         currentY_ = (y >= Height()) ? Height() - 1 : y;
 816              		.loc 6 173 9 view .LVU163
 817 010c 8A42     		cmp	r2, r1
 818 010e 2DD1     		bne	.L49
 173:../../libDaisy/src/hid/disp/display.h ****         currentY_ = (y >= Height()) ? Height() - 1 : y;
 819              		.loc 6 173 33 is_stmt 0 view .LVU164
 820 0110 8020     		movs	r0, #128
 821              	.L31:
 173:../../libDaisy/src/hid/disp/display.h ****         currentY_ = (y >= Height()) ? Height() - 1 : y;
 822              		.loc 6 173 19 view .LVU165
 823 0112 8442     		cmp	r4, r0
 824 0114 1CD2     		bcs	.L50
 825              	.LVL47:
 826              	.L32:
 174:../../libDaisy/src/hid/disp/display.h ****     }
 827              		.loc 6 174 34 view .LVU166
 828 0116 9B68     		ldr	r3, [r3, #8]
 829 0118 204A     		ldr	r2, .L54+4
ARM GAS  C:\Users\etpen\AppData\Local\Temp\cciw2fvE.s 			page 40


 173:../../libDaisy/src/hid/disp/display.h ****         currentY_ = (y >= Height()) ? Height() - 1 : y;
 830              		.loc 6 173 19 view .LVU167
 831 011a A8F80440 		strh	r4, [r8, #4]	@ movhi
 174:../../libDaisy/src/hid/disp/display.h ****     }
 832              		.loc 6 174 9 is_stmt 1 view .LVU168
 833 011e 9342     		cmp	r3, r2
 834 0120 21D1     		bne	.L51
 174:../../libDaisy/src/hid/disp/display.h ****     }
 835              		.loc 6 174 34 is_stmt 0 view .LVU169
 836 0122 4020     		movs	r0, #64
 837              	.L34:
 174:../../libDaisy/src/hid/disp/display.h ****     }
 838              		.loc 6 174 19 view .LVU170
 839 0124 019B     		ldr	r3, [sp, #4]
 840 0126 8342     		cmp	r3, r0
 841 0128 07D3     		bcc	.L35
 174:../../libDaisy/src/hid/disp/display.h ****     }
 842              		.loc 6 174 46 view .LVU171
 843 012a D8F80030 		ldr	r3, [r8]
 844 012e 1B4A     		ldr	r2, .L54+4
 845 0130 9B68     		ldr	r3, [r3, #8]
 846 0132 9342     		cmp	r3, r2
 847 0134 29D1     		bne	.L52
 848 0136 3F23     		movs	r3, #63
 849 0138 0193     		str	r3, [sp, #4]
 850              	.LVL48:
 851              	.L35:
 174:../../libDaisy/src/hid/disp/display.h ****     }
 852              		.loc 6 174 19 view .LVU172
 853 013a DDE90003 		ldrd	r0, r3, [sp]
 854 013e A8F80630 		strh	r3, [r8, #6]	@ movhi
 855              	.LVL49:
 174:../../libDaisy/src/hid/disp/display.h ****     }
 856              		.loc 6 174 19 view .LVU173
 857              	.LBE817:
 858              	.LBE822:
 435:../../libDaisy/src/hid/disp/display.h **** 
 436:../../libDaisy/src/hid/disp/display.h ****         // Return written char for validation
 437:../../libDaisy/src/hid/disp/display.h ****         return ch;
 438:../../libDaisy/src/hid/disp/display.h ****     }
 859              		.loc 6 438 5 view .LVU174
 860 0142 05B0     		add	sp, sp, #20
 861              		.cfi_remember_state
 862              		.cfi_def_cfa_offset 36
 863              		@ sp needed
 864 0144 BDE8F08F 		pop	{r4, r5, r6, r7, r8, r9, r10, fp, pc}
 865              	.LVL50:
 866              	.L19:
 867              		.cfi_restore_state
 402:../../libDaisy/src/hid/disp/display.h **** 
 868              		.loc 6 402 20 view .LVU175
 869 0148 0020     		movs	r0, #0
 870              		.loc 6 438 5 view .LVU176
 871 014a 05B0     		add	sp, sp, #20
 872              		.cfi_remember_state
 873              		.cfi_def_cfa_offset 36
 874              		@ sp needed
ARM GAS  C:\Users\etpen\AppData\Local\Temp\cciw2fvE.s 			page 41


 875 014c BDE8F08F 		pop	{r4, r5, r6, r7, r8, r9, r10, fp, pc}
 876              	.LVL51:
 877              	.L50:
 878              		.cfi_restore_state
 879              	.LBB823:
 880              	.LBB818:
 173:../../libDaisy/src/hid/disp/display.h ****         currentY_ = (y >= Height()) ? Height() - 1 : y;
 881              		.loc 6 173 44 view .LVU177
 882 0150 DA68     		ldr	r2, [r3, #12]
 883 0152 1149     		ldr	r1, .L54
 884 0154 8A42     		cmp	r2, r1
 885 0156 11D1     		bne	.L53
 886 0158 7F24     		movs	r4, #127
 887              	.LVL52:
 173:../../libDaisy/src/hid/disp/display.h ****         currentY_ = (y >= Height()) ? Height() - 1 : y;
 888              		.loc 6 173 44 view .LVU178
 889 015a DCE7     		b	.L32
 890              	.LVL53:
 891              	.L46:
 173:../../libDaisy/src/hid/disp/display.h ****         currentY_ = (y >= Height()) ? Height() - 1 : y;
 892              		.loc 6 173 44 view .LVU179
 893              	.LBE818:
 894              	.LBE823:
 405:../../libDaisy/src/hid/disp/display.h ****            || Height() < (currentY_ + font.FontHeight))
 895              		.loc 6 405 17 view .LVU180
 896 015c 9847     		blx	r3
 897              	.LVL54:
 405:../../libDaisy/src/hid/disp/display.h ****            || Height() < (currentY_ + font.FontHeight))
 898              		.loc 6 405 17 view .LVU181
 899 015e 6AE7     		b	.L18
 900              	.L47:
 406:../../libDaisy/src/hid/disp/display.h ****         {
 901              		.loc 6 406 21 discriminator 2 view .LVU182
 902 0160 4046     		mov	r0, r8
 903 0162 9847     		blx	r3
 904              	.LVL55:
 905 0164 75E7     		b	.L20
 906              	.LVL56:
 907              	.L51:
 908              	.LBB824:
 909              	.LBB819:
 174:../../libDaisy/src/hid/disp/display.h ****     }
 910              		.loc 6 174 33 view .LVU183
 911 0166 4046     		mov	r0, r8
 912 0168 9847     		blx	r3
 913              	.LVL57:
 914 016a DBE7     		b	.L34
 915              	.LVL58:
 916              	.L49:
 173:../../libDaisy/src/hid/disp/display.h ****         currentY_ = (y >= Height()) ? Height() - 1 : y;
 917              		.loc 6 173 32 view .LVU184
 918 016c 4046     		mov	r0, r8
 919 016e 9047     		blx	r2
 920              	.LVL59:
 173:../../libDaisy/src/hid/disp/display.h ****         currentY_ = (y >= Height()) ? Height() - 1 : y;
 921              		.loc 6 173 44 view .LVU185
 922 0170 D8F80030 		ldr	r3, [r8]
ARM GAS  C:\Users\etpen\AppData\Local\Temp\cciw2fvE.s 			page 42


 923 0174 CDE7     		b	.L31
 924              	.LVL60:
 925              	.L21:
 173:../../libDaisy/src/hid/disp/display.h ****         currentY_ = (y >= Height()) ? Height() - 1 : y;
 926              		.loc 6 173 44 view .LVU186
 927              	.LBE819:
 928              	.LBE824:
 434:../../libDaisy/src/hid/disp/display.h **** 
 929              		.loc 6 434 19 view .LVU187
 930 0176 B8F804A0 		ldrh	r10, [r8, #4]
 931 017a C1E7     		b	.L23
 932              	.LVL61:
 933              	.L53:
 934              	.LBB825:
 935              	.LBB820:
 173:../../libDaisy/src/hid/disp/display.h ****         currentY_ = (y >= Height()) ? Height() - 1 : y;
 936              		.loc 6 173 43 view .LVU188
 937 017c 4046     		mov	r0, r8
 938 017e 9047     		blx	r2
 939              	.LVL62:
 173:../../libDaisy/src/hid/disp/display.h ****         currentY_ = (y >= Height()) ? Height() - 1 : y;
 940              		.loc 6 173 19 view .LVU189
 941 0180 0138     		subs	r0, r0, #1
 174:../../libDaisy/src/hid/disp/display.h ****     }
 942              		.loc 6 174 34 view .LVU190
 943 0182 D8F80030 		ldr	r3, [r8]
 173:../../libDaisy/src/hid/disp/display.h ****         currentY_ = (y >= Height()) ? Height() - 1 : y;
 944              		.loc 6 173 19 view .LVU191
 945 0186 84B2     		uxth	r4, r0
 946              	.LVL63:
 173:../../libDaisy/src/hid/disp/display.h ****         currentY_ = (y >= Height()) ? Height() - 1 : y;
 947              		.loc 6 173 19 view .LVU192
 948 0188 C5E7     		b	.L32
 949              	.L52:
 174:../../libDaisy/src/hid/disp/display.h ****     }
 950              		.loc 6 174 45 view .LVU193
 951 018a 4046     		mov	r0, r8
 952 018c 9847     		blx	r3
 953              	.LVL64:
 174:../../libDaisy/src/hid/disp/display.h ****     }
 954              		.loc 6 174 19 view .LVU194
 955 018e 0138     		subs	r0, r0, #1
 956 0190 83B2     		uxth	r3, r0
 957 0192 0193     		str	r3, [sp, #4]
 958              	.LVL65:
 174:../../libDaisy/src/hid/disp/display.h ****     }
 959              		.loc 6 174 19 view .LVU195
 960 0194 D1E7     		b	.L35
 961              	.L55:
 962 0196 00BF     		.align	2
 963              	.L54:
 964 0198 00000000 		.word	_ZNK5daisy11OledDisplayINS_13SSD130xDriverILj128ELj64ENS_24SSD130x4WireSpiTransportEEEE5Widt
 965 019c 00000000 		.word	_ZNK5daisy11OledDisplayINS_13SSD130xDriverILj128ELj64ENS_24SSD130x4WireSpiTransportEEEE6Heig
 966              	.LBE820:
 967              	.LBE825:
 968              		.cfi_endproc
 969              	.LFE4878:
ARM GAS  C:\Users\etpen\AppData\Local\Temp\cciw2fvE.s 			page 43


 971              		.section	.text._ZN5daisy11OledDisplayINS_13SSD130xDriverILj128ELj64ENS_24SSD130x4WireSpiTransportE
 972              		.align	1
 973              		.p2align 2,,3
 974              		.weak	_ZN5daisy11OledDisplayINS_13SSD130xDriverILj128ELj64ENS_24SSD130x4WireSpiTransportEEEE9DrawP
 975              		.syntax unified
 976              		.thumb
 977              		.thumb_func
 978              		.fpu fpv5-d16
 980              	_ZN5daisy11OledDisplayINS_13SSD130xDriverILj128ELj64ENS_24SSD130x4WireSpiTransportEEEE9DrawPixelEjj
 981              	.LVL66:
 982              	.LFB4920:
  41:../../libDaisy/src/hid/disp/oled_display.h ****     {
 983              		.loc 5 41 10 is_stmt 1 view -0
 984              		.cfi_startproc
 985              		@ args = 0, pretend = 0, frame = 0
 986              		@ frame_needed = 0, uses_anonymous_args = 0
 987              		@ link register save eliminated.
 988              	.LBB830:
 989              	.LBI830:
 239:../../libDaisy/src/dev/oled_ssd130x.h ****     {
 990              		.loc 15 239 10 view .LVU197
 991              	.LBB831:
 241:../../libDaisy/src/dev/oled_ssd130x.h ****             return;
 992              		.loc 15 241 9 is_stmt 0 view .LVU198
 993 0000 7F29     		cmp	r1, #127
 994 0002 1ED8     		bhi	.L56
 995 0004 3F2A     		cmp	r2, #63
 996 0006 1CD8     		bhi	.L56
 243:../../libDaisy/src/dev/oled_ssd130x.h ****             buffer_[x + (y / 8) * width] |= (1 << (y % 8));
 997              		.loc 15 243 9 view .LVU199
 998 0008 6BB1     		cbz	r3, .L58
 244:../../libDaisy/src/dev/oled_ssd130x.h ****         else
 999              		.loc 15 244 28 view .LVU200
 1000 000a D308     		lsrs	r3, r2, #3
 1001              	.LVL67:
 244:../../libDaisy/src/dev/oled_ssd130x.h ****         else
 1002              		.loc 15 244 48 view .LVU201
 1003 000c 4FF0010C 		mov	ip, #1
 244:../../libDaisy/src/dev/oled_ssd130x.h ****         else
 1004              		.loc 15 244 54 view .LVU202
 1005 0010 02F00702 		and	r2, r2, #7
 1006              	.LVL68:
 244:../../libDaisy/src/dev/oled_ssd130x.h ****         else
 1007              		.loc 15 244 42 view .LVU203
 1008 0014 01EBC313 		add	r3, r1, r3, lsl #7
 244:../../libDaisy/src/dev/oled_ssd130x.h ****         else
 1009              		.loc 15 244 48 view .LVU204
 1010 0018 0CFA02F2 		lsl	r2, ip, r2
 244:../../libDaisy/src/dev/oled_ssd130x.h ****         else
 1011              		.loc 15 244 42 view .LVU205
 1012 001c C118     		adds	r1, r0, r3
 1013              	.LVL69:
 244:../../libDaisy/src/dev/oled_ssd130x.h ****         else
 1014              		.loc 15 244 42 view .LVU206
 1015 001e 0B7D     		ldrb	r3, [r1, #20]	@ zero_extendqisi2
 1016 0020 1A43     		orrs	r2, r2, r3
 1017 0022 0A75     		strb	r2, [r1, #20]
ARM GAS  C:\Users\etpen\AppData\Local\Temp\cciw2fvE.s 			page 44


 1018 0024 7047     		bx	lr
 1019              	.LVL70:
 1020              	.L58:
 1021              	.LBB832:
 1022              	.LBI832:
 239:../../libDaisy/src/dev/oled_ssd130x.h ****     {
 1023              		.loc 15 239 10 is_stmt 1 view .LVU207
 1024              	.LBB833:
 246:../../libDaisy/src/dev/oled_ssd130x.h ****     }
 1025              		.loc 15 246 28 is_stmt 0 view .LVU208
 1026 0026 D308     		lsrs	r3, r2, #3
 1027              	.LVL71:
 246:../../libDaisy/src/dev/oled_ssd130x.h ****     }
 1028              		.loc 15 246 49 view .LVU209
 1029 0028 4FF0010C 		mov	ip, #1
 246:../../libDaisy/src/dev/oled_ssd130x.h ****     }
 1030              		.loc 15 246 55 view .LVU210
 1031 002c 02F00702 		and	r2, r2, #7
 1032              	.LVL72:
 246:../../libDaisy/src/dev/oled_ssd130x.h ****     }
 1033              		.loc 15 246 42 view .LVU211
 1034 0030 01EBC313 		add	r3, r1, r3, lsl #7
 246:../../libDaisy/src/dev/oled_ssd130x.h ****     }
 1035              		.loc 15 246 49 view .LVU212
 1036 0034 0CFA02FC 		lsl	ip, ip, r2
 246:../../libDaisy/src/dev/oled_ssd130x.h ****     }
 1037              		.loc 15 246 42 view .LVU213
 1038 0038 C118     		adds	r1, r0, r3
 1039              	.LVL73:
 246:../../libDaisy/src/dev/oled_ssd130x.h ****     }
 1040              		.loc 15 246 42 view .LVU214
 1041 003a 0A7D     		ldrb	r2, [r1, #20]	@ zero_extendqisi2
 1042 003c 22EA0C02 		bic	r2, r2, ip
 1043 0040 0A75     		strb	r2, [r1, #20]
 1044              	.LVL74:
 1045              	.L56:
 246:../../libDaisy/src/dev/oled_ssd130x.h ****     }
 1046              		.loc 15 246 42 view .LVU215
 1047              	.LBE833:
 1048              	.LBE832:
 1049              	.LBE831:
 1050              	.LBE830:
  44:../../libDaisy/src/hid/disp/oled_display.h **** 
 1051              		.loc 5 44 5 view .LVU216
 1052 0042 7047     		bx	lr
 1053              		.cfi_endproc
 1054              	.LFE4920:
 1056              		.section	.text._ZN5daisy25OneBitGraphicsDisplayImplINS_11OledDisplayINS_13SSD130xDriverILj128ELj64
 1057              		.align	1
 1058              		.p2align 2,,3
 1059              		.weak	_ZN5daisy25OneBitGraphicsDisplayImplINS_11OledDisplayINS_13SSD130xDriverILj128ELj64ENS_24SSD
 1060              		.syntax unified
 1061              		.thumb
 1062              		.thumb_func
 1063              		.fpu fpv5-d16
 1065              	_ZN5daisy25OneBitGraphicsDisplayImplINS_11OledDisplayINS_13SSD130xDriverILj128ELj64ENS_24SSD130x4Wi
 1066              	.LVL75:
ARM GAS  C:\Users\etpen\AppData\Local\Temp\cciw2fvE.s 			page 45


 1067              	.LFB4747:
 439:../../libDaisy/src/hid/disp/display.h **** 
 440:../../libDaisy/src/hid/disp/display.h ****     char WriteString(const char* str, FontDef font, bool on) override
 1068              		.loc 6 440 10 is_stmt 1 view -0
 1069              		.cfi_startproc
 1070              		@ args = 4, pretend = 0, frame = 32
 1071              		@ frame_needed = 0, uses_anonymous_args = 0
 1072              		.loc 6 440 10 is_stmt 0 view .LVU218
 1073 0000 2DE9F04F 		push	{r4, r5, r6, r7, r8, r9, r10, fp, lr}
 1074              		.cfi_def_cfa_offset 36
 1075              		.cfi_offset 4, -36
 1076              		.cfi_offset 5, -32
 1077              		.cfi_offset 6, -28
 1078              		.cfi_offset 7, -24
 1079              		.cfi_offset 8, -20
 1080              		.cfi_offset 9, -16
 1081              		.cfi_offset 10, -12
 1082              		.cfi_offset 11, -8
 1083              		.cfi_offset 14, -4
 1084 0004 89B0     		sub	sp, sp, #36
 1085              		.cfi_def_cfa_offset 72
 1086              		.loc 6 440 10 view .LVU219
 1087 0006 08AC     		add	r4, sp, #32
 1088 0008 9DF84870 		ldrb	r7, [sp, #72]	@ zero_extendqisi2
 1089 000c 0191     		str	r1, [sp, #4]
 1090 000e 04E90C00 		stmdb	r4, {r2, r3}
 441:../../libDaisy/src/hid/disp/display.h ****     {
 442:../../libDaisy/src/hid/disp/display.h ****         // Write until null-byte
 443:../../libDaisy/src/hid/disp/display.h ****         while(*str)
 1091              		.loc 6 443 9 is_stmt 1 view .LVU220
 1092 0012 0B78     		ldrb	r3, [r1]	@ zero_extendqisi2
 1093 0014 002B     		cmp	r3, #0
 1094 0016 00F0AB80 		beq	.L83
 1095 001a 1A46     		mov	r2, r3
 1096 001c 9DF81880 		ldrb	r8, [sp, #24]	@ zero_extendqisi2
 1097 0020 9DF81930 		ldrb	r3, [sp, #25]	@ zero_extendqisi2
 1098 0024 0646     		mov	r6, r0
 1099 0026 4546     		mov	r5, r8
 1100 0028 9046     		mov	r8, r2
 1101 002a 0393     		str	r3, [sp, #12]
 1102 002c 079B     		ldr	r3, [sp, #28]
 1103 002e 0593     		str	r3, [sp, #20]
 1104              	.LVL76:
 1105              	.L84:
 1106              	.LBB862:
 1107              	.LBI862:
 396:../../libDaisy/src/hid/disp/display.h ****     {
 1108              		.loc 6 396 10 view .LVU221
 1109              	.LBB863:
 401:../../libDaisy/src/hid/disp/display.h ****             return 0;
 1110              		.loc 6 401 20 is_stmt 0 view .LVU222
 1111 0030 A8F12004 		sub	r4, r8, #32
 401:../../libDaisy/src/hid/disp/display.h ****             return 0;
 1112              		.loc 6 401 9 view .LVU223
 1113 0034 E3B2     		uxtb	r3, r4
 1114 0036 5E2B     		cmp	r3, #94
 1115 0038 00F29E80 		bhi	.L65
ARM GAS  C:\Users\etpen\AppData\Local\Temp\cciw2fvE.s 			page 46


 405:../../libDaisy/src/hid/disp/display.h ****            || Height() < (currentY_ + font.FontHeight))
 1116              		.loc 6 405 17 view .LVU224
 1117 003c 3368     		ldr	r3, [r6]
 1118 003e 5E4A     		ldr	r2, .L105
 1119 0040 DB68     		ldr	r3, [r3, #12]
 1120 0042 9342     		cmp	r3, r2
 1121 0044 40F09B80 		bne	.L98
 1122 0048 8020     		movs	r0, #128
 1123              	.L64:
 405:../../libDaisy/src/hid/disp/display.h ****            || Height() < (currentY_ + font.FontHeight))
 1124              		.loc 6 405 23 view .LVU225
 1125 004a B388     		ldrh	r3, [r6, #4]
 405:../../libDaisy/src/hid/disp/display.h ****            || Height() < (currentY_ + font.FontHeight))
 1126              		.loc 6 405 33 view .LVU226
 1127 004c 2B44     		add	r3, r3, r5
 406:../../libDaisy/src/hid/disp/display.h ****         {
 1128              		.loc 6 406 12 view .LVU227
 1129 004e 8342     		cmp	r3, r0
 1130 0050 00F39280 		bgt	.L65
 406:../../libDaisy/src/hid/disp/display.h ****         {
 1131              		.loc 6 406 21 view .LVU228
 1132 0054 3368     		ldr	r3, [r6]
 1133 0056 594A     		ldr	r2, .L105+4
 1134 0058 9B68     		ldr	r3, [r3, #8]
 1135 005a 9342     		cmp	r3, r2
 1136 005c 40F09280 		bne	.L99
 1137 0060 4020     		movs	r0, #64
 1138              	.L66:
 406:../../libDaisy/src/hid/disp/display.h ****         {
 1139              		.loc 6 406 27 view .LVU229
 1140 0062 F188     		ldrh	r1, [r6, #6]
 406:../../libDaisy/src/hid/disp/display.h ****         {
 1141              		.loc 6 406 37 view .LVU230
 1142 0064 039A     		ldr	r2, [sp, #12]
 406:../../libDaisy/src/hid/disp/display.h ****         {
 1143              		.loc 6 406 27 view .LVU231
 1144 0066 0291     		str	r1, [sp, #8]
 406:../../libDaisy/src/hid/disp/display.h ****         {
 1145              		.loc 6 406 37 view .LVU232
 1146 0068 8B18     		adds	r3, r1, r2
 406:../../libDaisy/src/hid/disp/display.h ****         {
 1147              		.loc 6 406 12 view .LVU233
 1148 006a 8342     		cmp	r3, r0
 1149 006c 00F38480 		bgt	.L65
 1150              	.LVL77:
 413:../../libDaisy/src/hid/disp/display.h ****         {
 1151              		.loc 6 413 22 is_stmt 1 view .LVU234
 1152 0070 002A     		cmp	r2, #0
 1153 0072 00F09180 		beq	.L67
 415:../../libDaisy/src/hid/disp/display.h ****             for(j = 0; j < font.FontWidth; j++)
 1154              		.loc 6 415 37 is_stmt 0 view .LVU235
 1155 0076 02FB04F4 		mul	r4, r2, r4
 1156 007a 6FF00049 		mvn	r9, #-2147483648
 1157 007e 059B     		ldr	r3, [sp, #20]
 1158 0080 A144     		add	r9, r9, r4
 1159 0082 1444     		add	r4, r4, r2
 434:../../libDaisy/src/hid/disp/display.h **** 
ARM GAS  C:\Users\etpen\AppData\Local\Temp\cciw2fvE.s 			page 47


 1160              		.loc 6 434 19 view .LVU236
 1161 0084 B6F804B0 		ldrh	fp, [r6, #4]
 1162 0088 03EB4909 		add	r9, r3, r9, lsl #1
 1163 008c 023B     		subs	r3, r3, #2
 1164 008e CDF81080 		str	r8, [sp, #16]
 1165 0092 03EB4403 		add	r3, r3, r4, lsl #1
 1166 0096 0C46     		mov	r4, r1
 1167 0098 9A46     		mov	r10, r3
 1168              	.LVL78:
 1169              	.L70:
 415:../../libDaisy/src/hid/disp/display.h ****             for(j = 0; j < font.FontWidth; j++)
 1170              		.loc 6 415 15 view .LVU237
 1171 009a 39F802CF 		ldrh	ip, [r9, #2]!
 1172              	.LVL79:
 416:../../libDaisy/src/hid/disp/display.h ****             {
 1173              		.loc 6 416 26 is_stmt 1 view .LVU238
 1174 009e A5B3     		cbz	r5, .L75
 1175              	.LBB864:
 1176              	.LBB865:
 1177              	.LBB866:
 1178              	.LBB867:
 1179              	.LBB868:
 246:../../libDaisy/src/dev/oled_ssd130x.h ****     }
 1180              		.loc 15 246 55 is_stmt 0 view .LVU239
 1181 00a0 04F00703 		and	r3, r4, #7
 246:../../libDaisy/src/dev/oled_ssd130x.h ****     }
 1182              		.loc 15 246 49 view .LVU240
 1183 00a4 4FF0010E 		mov	lr, #1
 246:../../libDaisy/src/dev/oled_ssd130x.h ****     }
 1184              		.loc 15 246 28 view .LVU241
 1185 00a8 E208     		lsrs	r2, r4, #3
 1186 00aa 5946     		mov	r1, fp
 246:../../libDaisy/src/dev/oled_ssd130x.h ****     }
 1187              		.loc 15 246 49 view .LVU242
 1188 00ac 0EFA03FE 		lsl	lr, lr, r3
 1189 00b0 0BF11403 		add	r3, fp, #20
 246:../../libDaisy/src/dev/oled_ssd130x.h ****     }
 1190              		.loc 15 246 42 view .LVU243
 1191 00b4 4FFA8EFE 		sxtb	lr, lr
 1192 00b8 03EBC212 		add	r2, r3, r2, lsl #7
 1193              	.LBE868:
 1194              	.LBE867:
 1195              	.LBE866:
 1196              	.LBE865:
 1197              	.LBE864:
 416:../../libDaisy/src/hid/disp/display.h ****             {
 1198              		.loc 6 416 19 view .LVU244
 1199 00bc 0023     		movs	r3, #0
 1200              	.LBB886:
 1201              	.LBB881:
 1202              	.LBB876:
 1203              	.LBB872:
 1204              	.LBB869:
 246:../../libDaisy/src/dev/oled_ssd130x.h ****     }
 1205              		.loc 15 246 42 view .LVU245
 1206 00be 6FEA0E08 		mvn	r8, lr
 1207 00c2 3244     		add	r2, r2, r6
ARM GAS  C:\Users\etpen\AppData\Local\Temp\cciw2fvE.s 			page 48


 1208 00c4 0DE0     		b	.L76
 1209              	.LVL80:
 1210              	.L100:
 246:../../libDaisy/src/dev/oled_ssd130x.h ****     }
 1211              		.loc 15 246 42 view .LVU246
 1212              	.LBE869:
 1213              	.LBE872:
 1214              	.LBE876:
 1215              	.LBE881:
 1216              	.LBE886:
 1217              	.LBB887:
 1218              	.LBI887:
  41:../../libDaisy/src/hid/disp/oled_display.h ****     {
 1219              		.loc 5 41 10 is_stmt 1 view .LVU247
 1220              	.LBB888:
 1221              	.LBI888:
 239:../../libDaisy/src/dev/oled_ssd130x.h ****     {
 1222              		.loc 15 239 10 view .LVU248
 1223              	.LBB889:
 241:../../libDaisy/src/dev/oled_ssd130x.h ****             return;
 1224              		.loc 15 241 9 is_stmt 0 view .LVU249
 1225 00c6 7F29     		cmp	r1, #127
 1226 00c8 06D8     		bhi	.L72
 1227 00ca 3F2C     		cmp	r4, #63
 1228 00cc 04D8     		bhi	.L72
 244:../../libDaisy/src/dev/oled_ssd130x.h ****         else
 1229              		.loc 15 244 42 view .LVU250
 1230 00ce 1078     		ldrb	r0, [r2]	@ zero_extendqisi2
 243:../../libDaisy/src/dev/oled_ssd130x.h ****             buffer_[x + (y / 8) * width] |= (1 << (y % 8));
 1231              		.loc 15 243 9 view .LVU251
 1232 00d0 97B1     		cbz	r7, .L74
 1233              	.L97:
 243:../../libDaisy/src/dev/oled_ssd130x.h ****             buffer_[x + (y / 8) * width] |= (1 << (y % 8));
 1234              		.loc 15 243 9 view .LVU252
 1235              	.LBE889:
 1236              	.LBE888:
 1237              	.LBE887:
 1238              	.LBB890:
 1239              	.LBB882:
 1240              	.LBB877:
 244:../../libDaisy/src/dev/oled_ssd130x.h ****         else
 1241              		.loc 15 244 42 view .LVU253
 1242 00d2 4EEA0000 		orr	r0, lr, r0
 1243 00d6 1070     		strb	r0, [r2]
 1244              	.L72:
 1245              	.LBE877:
 1246              	.LBE882:
 1247              	.LBE890:
 416:../../libDaisy/src/hid/disp/display.h ****             {
 1248              		.loc 6 416 13 is_stmt 1 view .LVU254
 1249 00d8 0133     		adds	r3, r3, #1
 1250              	.LVL81:
 416:../../libDaisy/src/hid/disp/display.h ****             {
 1251              		.loc 6 416 26 view .LVU255
 1252 00da 0132     		adds	r2, r2, #1
 1253 00dc 0131     		adds	r1, r1, #1
 1254 00de AB42     		cmp	r3, r5
ARM GAS  C:\Users\etpen\AppData\Local\Temp\cciw2fvE.s 			page 49


 1255 00e0 13D0     		beq	.L75
 1256              	.LVL82:
 1257              	.L76:
 418:../../libDaisy/src/hid/disp/display.h ****                 {
 1258              		.loc 6 418 23 is_stmt 0 view .LVU256
 1259 00e2 0CFA03F0 		lsl	r0, ip, r3
 418:../../libDaisy/src/hid/disp/display.h ****                 {
 1260              		.loc 6 418 17 view .LVU257
 1261 00e6 0004     		lsls	r0, r0, #16
 1262 00e8 EDD4     		bmi	.L100
 1263              	.LVL83:
 1264              	.LBB891:
 1265              	.LBI864:
  41:../../libDaisy/src/hid/disp/oled_display.h ****     {
 1266              		.loc 5 41 10 is_stmt 1 view .LVU258
 1267              	.LBB883:
 1268              	.LBI865:
 239:../../libDaisy/src/dev/oled_ssd130x.h ****     {
 1269              		.loc 15 239 10 view .LVU259
 1270              	.LBB878:
 241:../../libDaisy/src/dev/oled_ssd130x.h ****             return;
 1271              		.loc 15 241 9 is_stmt 0 view .LVU260
 1272 00ea 7F29     		cmp	r1, #127
 1273 00ec F4D8     		bhi	.L72
 1274 00ee 3F2C     		cmp	r4, #63
 1275 00f0 F2D8     		bhi	.L72
 244:../../libDaisy/src/dev/oled_ssd130x.h ****         else
 1276              		.loc 15 244 42 view .LVU261
 1277 00f2 1078     		ldrb	r0, [r2]	@ zero_extendqisi2
 243:../../libDaisy/src/dev/oled_ssd130x.h ****             buffer_[x + (y / 8) * width] |= (1 << (y % 8));
 1278              		.loc 15 243 9 view .LVU262
 1279 00f4 002F     		cmp	r7, #0
 1280 00f6 ECD0     		beq	.L97
 1281              	.L74:
 1282              	.LVL84:
 1283              	.LBB873:
 1284              	.LBI867:
 239:../../libDaisy/src/dev/oled_ssd130x.h ****     {
 1285              		.loc 15 239 10 is_stmt 1 view .LVU263
 239:../../libDaisy/src/dev/oled_ssd130x.h ****     {
 1286              		.loc 15 239 10 is_stmt 0 view .LVU264
 1287              	.LBE873:
 1288              	.LBE878:
 1289              	.LBE883:
 1290              	.LBE891:
 416:../../libDaisy/src/hid/disp/display.h ****             {
 1291              		.loc 6 416 13 view .LVU265
 1292 00f8 0133     		adds	r3, r3, #1
 1293              	.LVL85:
 1294              	.LBB892:
 1295              	.LBB884:
 1296              	.LBB879:
 1297              	.LBB874:
 1298              	.LBB870:
 246:../../libDaisy/src/dev/oled_ssd130x.h ****     }
 1299              		.loc 15 246 42 view .LVU266
 1300 00fa 08EA0000 		and	r0, r8, r0
ARM GAS  C:\Users\etpen\AppData\Local\Temp\cciw2fvE.s 			page 50


 1301              	.LBE870:
 1302              	.LBE874:
 1303              	.LBE879:
 1304              	.LBE884:
 1305              	.LBE892:
 416:../../libDaisy/src/hid/disp/display.h ****             {
 1306              		.loc 6 416 26 view .LVU267
 1307 00fe 0132     		adds	r2, r2, #1
 1308 0100 0131     		adds	r1, r1, #1
 1309 0102 AB42     		cmp	r3, r5
 1310              	.LBB893:
 1311              	.LBB885:
 1312              	.LBB880:
 1313              	.LBB875:
 1314              	.LBB871:
 246:../../libDaisy/src/dev/oled_ssd130x.h ****     }
 1315              		.loc 15 246 42 view .LVU268
 1316 0104 02F8010C 		strb	r0, [r2, #-1]
 246:../../libDaisy/src/dev/oled_ssd130x.h ****     }
 1317              		.loc 15 246 42 view .LVU269
 1318              	.LBE871:
 1319              	.LBE875:
 1320              	.LBE880:
 1321              	.LBE885:
 1322              	.LBE893:
 416:../../libDaisy/src/hid/disp/display.h ****             {
 1323              		.loc 6 416 13 is_stmt 1 view .LVU270
 1324              	.LVL86:
 416:../../libDaisy/src/hid/disp/display.h ****             {
 1325              		.loc 6 416 26 view .LVU271
 1326 0108 EBD1     		bne	.L76
 1327              	.LVL87:
 1328              	.L75:
 413:../../libDaisy/src/hid/disp/display.h ****         {
 1329              		.loc 6 413 9 view .LVU272
 413:../../libDaisy/src/hid/disp/display.h ****         {
 1330              		.loc 6 413 22 view .LVU273
 1331 010a D145     		cmp	r9, r10
 1332 010c 04F10104 		add	r4, r4, #1
 1333 0110 C3D1     		bne	.L70
 1334 0112 DDF81080 		ldr	r8, [sp, #16]
 1335              	.LVL88:
 1336              	.L69:
 1337              	.LBB894:
 1338              	.LBB895:
 173:../../libDaisy/src/hid/disp/display.h ****         currentY_ = (y >= Height()) ? Height() - 1 : y;
 1339              		.loc 6 173 33 is_stmt 0 view .LVU274
 1340 0116 3268     		ldr	r2, [r6]
 1341              	.LBE895:
 1342              	.LBE894:
 434:../../libDaisy/src/hid/disp/display.h **** 
 1343              		.loc 6 434 18 view .LVU275
 1344 0118 0BEB0504 		add	r4, fp, r5
 1345 011c 2649     		ldr	r1, .L105
 1346              	.LBB900:
 1347              	.LBB896:
 173:../../libDaisy/src/hid/disp/display.h ****         currentY_ = (y >= Height()) ? Height() - 1 : y;
ARM GAS  C:\Users\etpen\AppData\Local\Temp\cciw2fvE.s 			page 51


 1348              		.loc 6 173 33 view .LVU276
 1349 011e D368     		ldr	r3, [r2, #12]
 1350              	.LBE896:
 1351              	.LBE900:
 434:../../libDaisy/src/hid/disp/display.h **** 
 1352              		.loc 6 434 18 view .LVU277
 1353 0120 A4B2     		uxth	r4, r4
 1354              	.LVL89:
 1355              	.LBB901:
 1356              	.LBI894:
 171:../../libDaisy/src/hid/disp/display.h ****     {
 1357              		.loc 6 171 10 is_stmt 1 view .LVU278
 1358              	.LBB897:
 173:../../libDaisy/src/hid/disp/display.h ****         currentY_ = (y >= Height()) ? Height() - 1 : y;
 1359              		.loc 6 173 9 view .LVU279
 1360 0122 8B42     		cmp	r3, r1
 1361 0124 34D1     		bne	.L101
 173:../../libDaisy/src/hid/disp/display.h ****         currentY_ = (y >= Height()) ? Height() - 1 : y;
 1362              		.loc 6 173 33 is_stmt 0 view .LVU280
 1363 0126 8020     		movs	r0, #128
 1364              	.L77:
 173:../../libDaisy/src/hid/disp/display.h ****         currentY_ = (y >= Height()) ? Height() - 1 : y;
 1365              		.loc 6 173 19 view .LVU281
 1366 0128 8442     		cmp	r4, r0
 1367 012a 04D3     		bcc	.L78
 173:../../libDaisy/src/hid/disp/display.h ****         currentY_ = (y >= Height()) ? Height() - 1 : y;
 1368              		.loc 6 173 44 view .LVU282
 1369 012c D368     		ldr	r3, [r2, #12]
 1370 012e 2249     		ldr	r1, .L105
 1371 0130 8B42     		cmp	r3, r1
 1372 0132 3AD1     		bne	.L102
 1373 0134 7F24     		movs	r4, #127
 1374              	.LVL90:
 1375              	.L78:
 174:../../libDaisy/src/hid/disp/display.h ****     }
 1376              		.loc 6 174 34 view .LVU283
 1377 0136 9368     		ldr	r3, [r2, #8]
 1378 0138 204A     		ldr	r2, .L105+4
 173:../../libDaisy/src/hid/disp/display.h ****         currentY_ = (y >= Height()) ? Height() - 1 : y;
 1379              		.loc 6 173 19 view .LVU284
 1380 013a B480     		strh	r4, [r6, #4]	@ movhi
 174:../../libDaisy/src/hid/disp/display.h ****     }
 1381              		.loc 6 174 9 is_stmt 1 view .LVU285
 1382 013c 9342     		cmp	r3, r2
 1383 013e 24D1     		bne	.L103
 174:../../libDaisy/src/hid/disp/display.h ****     }
 1384              		.loc 6 174 34 is_stmt 0 view .LVU286
 1385 0140 4020     		movs	r0, #64
 1386              	.L80:
 174:../../libDaisy/src/hid/disp/display.h ****     }
 1387              		.loc 6 174 19 view .LVU287
 1388 0142 029B     		ldr	r3, [sp, #8]
 1389 0144 8342     		cmp	r3, r0
 1390 0146 06D3     		bcc	.L81
 174:../../libDaisy/src/hid/disp/display.h ****     }
 1391              		.loc 6 174 46 view .LVU288
 1392 0148 3368     		ldr	r3, [r6]
ARM GAS  C:\Users\etpen\AppData\Local\Temp\cciw2fvE.s 			page 52


 1393 014a 1C4A     		ldr	r2, .L105+4
 1394 014c 9B68     		ldr	r3, [r3, #8]
 1395 014e 9342     		cmp	r3, r2
 1396 0150 25D1     		bne	.L104
 1397 0152 3F23     		movs	r3, #63
 1398 0154 0293     		str	r3, [sp, #8]
 1399              	.LVL91:
 1400              	.L81:
 174:../../libDaisy/src/hid/disp/display.h ****     }
 1401              		.loc 6 174 19 view .LVU289
 1402 0156 029B     		ldr	r3, [sp, #8]
 1403 0158 F380     		strh	r3, [r6, #6]	@ movhi
 1404              	.LVL92:
 1405              	.L63:
 174:../../libDaisy/src/hid/disp/display.h ****     }
 1406              		.loc 6 174 19 view .LVU290
 1407              	.LBE897:
 1408              	.LBE901:
 1409              	.LBE863:
 1410              	.LBE862:
 444:../../libDaisy/src/hid/disp/display.h ****         {
 445:../../libDaisy/src/hid/disp/display.h ****             if(((ChildType*)(this))->ChildType::WriteChar(*str, font, on)
 446:../../libDaisy/src/hid/disp/display.h ****                != *str)
 1411              		.loc 6 446 16 view .LVU291
 1412 015a 019B     		ldr	r3, [sp, #4]
 1413 015c 1878     		ldrb	r0, [r3]	@ zero_extendqisi2
 445:../../libDaisy/src/hid/disp/display.h ****                != *str)
 1414              		.loc 6 445 13 view .LVU292
 1415 015e 4045     		cmp	r0, r8
 1416 0160 07D1     		bne	.L61
 1417              	.LVL93:
 443:../../libDaisy/src/hid/disp/display.h ****         {
 1418              		.loc 6 443 9 is_stmt 1 view .LVU293
 1419 0162 13F8018F 		ldrb	r8, [r3, #1]!	@ zero_extendqisi2
 1420              	.LVL94:
 443:../../libDaisy/src/hid/disp/display.h ****         {
 1421              		.loc 6 443 9 is_stmt 0 view .LVU294
 1422 0166 0193     		str	r3, [sp, #4]
 1423 0168 B8F1000F 		cmp	r8, #0
 1424 016c 7FF460AF 		bne	.L84
 1425              	.LVL95:
 1426              	.L83:
 1427              	.LBB906:
 1428              	.LBB904:
 402:../../libDaisy/src/hid/disp/display.h **** 
 1429              		.loc 6 402 20 view .LVU295
 1430 0170 0020     		movs	r0, #0
 1431              	.L61:
 1432              	.LBE904:
 1433              	.LBE906:
 447:../../libDaisy/src/hid/disp/display.h ****             {
 448:../../libDaisy/src/hid/disp/display.h ****                 // Char could not be written
 449:../../libDaisy/src/hid/disp/display.h ****                 return *str;
 450:../../libDaisy/src/hid/disp/display.h ****             }
 451:../../libDaisy/src/hid/disp/display.h **** 
 452:../../libDaisy/src/hid/disp/display.h ****             // Next char
 453:../../libDaisy/src/hid/disp/display.h ****             str++;
ARM GAS  C:\Users\etpen\AppData\Local\Temp\cciw2fvE.s 			page 53


 454:../../libDaisy/src/hid/disp/display.h ****         }
 455:../../libDaisy/src/hid/disp/display.h **** 
 456:../../libDaisy/src/hid/disp/display.h ****         // Everything ok
 457:../../libDaisy/src/hid/disp/display.h ****         return *str;
 458:../../libDaisy/src/hid/disp/display.h ****     }
 1434              		.loc 6 458 5 view .LVU296
 1435 0172 09B0     		add	sp, sp, #36
 1436              		.cfi_remember_state
 1437              		.cfi_def_cfa_offset 36
 1438              		@ sp needed
 1439 0174 BDE8F08F 		pop	{r4, r5, r6, r7, r8, r9, r10, fp, pc}
 1440              	.LVL96:
 1441              	.L65:
 1442              		.cfi_restore_state
 1443              	.LBB907:
 1444              	.LBB905:
 402:../../libDaisy/src/hid/disp/display.h **** 
 1445              		.loc 6 402 20 view .LVU297
 1446 0178 4FF00008 		mov	r8, #0
 1447              	.LVL97:
 402:../../libDaisy/src/hid/disp/display.h **** 
 1448              		.loc 6 402 20 view .LVU298
 1449 017c EDE7     		b	.L63
 1450              	.LVL98:
 1451              	.L98:
 405:../../libDaisy/src/hid/disp/display.h ****            || Height() < (currentY_ + font.FontHeight))
 1452              		.loc 6 405 17 view .LVU299
 1453 017e 3046     		mov	r0, r6
 1454 0180 9847     		blx	r3
 1455              	.LVL99:
 1456 0182 62E7     		b	.L64
 1457              	.L99:
 406:../../libDaisy/src/hid/disp/display.h ****         {
 1458              		.loc 6 406 21 view .LVU300
 1459 0184 3046     		mov	r0, r6
 1460 0186 9847     		blx	r3
 1461              	.LVL100:
 1462 0188 6BE7     		b	.L66
 1463              	.LVL101:
 1464              	.L103:
 1465              	.LBB902:
 1466              	.LBB898:
 174:../../libDaisy/src/hid/disp/display.h ****     }
 1467              		.loc 6 174 33 view .LVU301
 1468 018a 3046     		mov	r0, r6
 1469 018c 9847     		blx	r3
 1470              	.LVL102:
 1471 018e D8E7     		b	.L80
 1472              	.LVL103:
 1473              	.L101:
 173:../../libDaisy/src/hid/disp/display.h ****         currentY_ = (y >= Height()) ? Height() - 1 : y;
 1474              		.loc 6 173 32 view .LVU302
 1475 0190 3046     		mov	r0, r6
 1476 0192 9847     		blx	r3
 1477              	.LVL104:
 173:../../libDaisy/src/hid/disp/display.h ****         currentY_ = (y >= Height()) ? Height() - 1 : y;
 1478              		.loc 6 173 44 view .LVU303
ARM GAS  C:\Users\etpen\AppData\Local\Temp\cciw2fvE.s 			page 54


 1479 0194 3268     		ldr	r2, [r6]
 1480 0196 C7E7     		b	.L77
 1481              	.LVL105:
 1482              	.L67:
 173:../../libDaisy/src/hid/disp/display.h ****         currentY_ = (y >= Height()) ? Height() - 1 : y;
 1483              		.loc 6 173 44 view .LVU304
 1484              	.LBE898:
 1485              	.LBE902:
 434:../../libDaisy/src/hid/disp/display.h **** 
 1486              		.loc 6 434 19 view .LVU305
 1487 0198 B6F804B0 		ldrh	fp, [r6, #4]
 1488 019c BBE7     		b	.L69
 1489              	.LVL106:
 1490              	.L104:
 1491              	.LBB903:
 1492              	.LBB899:
 174:../../libDaisy/src/hid/disp/display.h ****     }
 1493              		.loc 6 174 45 view .LVU306
 1494 019e 3046     		mov	r0, r6
 1495 01a0 9847     		blx	r3
 1496              	.LVL107:
 174:../../libDaisy/src/hid/disp/display.h ****     }
 1497              		.loc 6 174 19 view .LVU307
 1498 01a2 0138     		subs	r0, r0, #1
 1499 01a4 83B2     		uxth	r3, r0
 1500 01a6 0293     		str	r3, [sp, #8]
 1501              	.LVL108:
 174:../../libDaisy/src/hid/disp/display.h ****     }
 1502              		.loc 6 174 19 view .LVU308
 1503 01a8 D5E7     		b	.L81
 1504              	.LVL109:
 1505              	.L102:
 173:../../libDaisy/src/hid/disp/display.h ****         currentY_ = (y >= Height()) ? Height() - 1 : y;
 1506              		.loc 6 173 43 view .LVU309
 1507 01aa 3046     		mov	r0, r6
 1508 01ac 9847     		blx	r3
 1509              	.LVL110:
 173:../../libDaisy/src/hid/disp/display.h ****         currentY_ = (y >= Height()) ? Height() - 1 : y;
 1510              		.loc 6 173 19 view .LVU310
 1511 01ae 0138     		subs	r0, r0, #1
 174:../../libDaisy/src/hid/disp/display.h ****     }
 1512              		.loc 6 174 34 view .LVU311
 1513 01b0 3268     		ldr	r2, [r6]
 173:../../libDaisy/src/hid/disp/display.h ****         currentY_ = (y >= Height()) ? Height() - 1 : y;
 1514              		.loc 6 173 19 view .LVU312
 1515 01b2 84B2     		uxth	r4, r0
 1516              	.LVL111:
 173:../../libDaisy/src/hid/disp/display.h ****         currentY_ = (y >= Height()) ? Height() - 1 : y;
 1517              		.loc 6 173 19 view .LVU313
 1518 01b4 BFE7     		b	.L78
 1519              	.L106:
 1520 01b6 00BF     		.align	2
 1521              	.L105:
 1522 01b8 00000000 		.word	_ZNK5daisy11OledDisplayINS_13SSD130xDriverILj128ELj64ENS_24SSD130x4WireSpiTransportEEEE5Widt
 1523 01bc 00000000 		.word	_ZNK5daisy11OledDisplayINS_13SSD130xDriverILj128ELj64ENS_24SSD130x4WireSpiTransportEEEE6Heig
 1524              	.LBE899:
 1525              	.LBE903:
ARM GAS  C:\Users\etpen\AppData\Local\Temp\cciw2fvE.s 			page 55


 1526              	.LBE905:
 1527              	.LBE907:
 1528              		.cfi_endproc
 1529              	.LFE4747:
 1531              		.section	.text._ZN5daisy25OneBitGraphicsDisplayImplINS_11OledDisplayINS_13SSD130xDriverILj128ELj64
 1532              		.align	1
 1533              		.p2align 2,,3
 1534              		.weak	_ZN5daisy25OneBitGraphicsDisplayImplINS_11OledDisplayINS_13SSD130xDriverILj128ELj64ENS_24SSD
 1535              		.syntax unified
 1536              		.thumb
 1537              		.thumb_func
 1538              		.fpu fpv5-d16
 1540              	_ZN5daisy25OneBitGraphicsDisplayImplINS_11OledDisplayINS_13SSD130xDriverILj128ELj64ENS_24SSD130x4Wi
 1541              	.LVL112:
 1542              	.LFB5031:
 221:../../libDaisy/src/hid/disp/display.h ****                   uint_fast8_t y1,
 1543              		.loc 6 221 10 is_stmt 1 view -0
 1544              		.cfi_startproc
 1545              		@ args = 8, pretend = 0, frame = 8
 1546              		@ frame_needed = 0, uses_anonymous_args = 0
 221:../../libDaisy/src/hid/disp/display.h ****                   uint_fast8_t y1,
 1547              		.loc 6 221 10 is_stmt 0 view .LVU315
 1548 0000 2DE9F04F 		push	{r4, r5, r6, r7, r8, r9, r10, fp, lr}
 1549              		.cfi_def_cfa_offset 36
 1550              		.cfi_offset 4, -36
 1551              		.cfi_offset 5, -32
 1552              		.cfi_offset 6, -28
 1553              		.cfi_offset 7, -24
 1554              		.cfi_offset 8, -20
 1555              		.cfi_offset 9, -16
 1556              		.cfi_offset 10, -12
 1557              		.cfi_offset 11, -8
 1558              		.cfi_offset 14, -4
 1559 0004 83B0     		sub	sp, sp, #12
 1560              		.cfi_def_cfa_offset 48
 227:../../libDaisy/src/hid/disp/display.h ****         int_fast16_t deltaY = abs((int_fast16_t)y2 - (int_fast16_t)y1);
 1561              		.loc 6 227 52 view .LVU316
 1562 0006 5C1A     		subs	r4, r3, r1
 221:../../libDaisy/src/hid/disp/display.h ****                   uint_fast8_t y1,
 1563              		.loc 6 221 10 view .LVU317
 1564 0008 0C9E     		ldr	r6, [sp, #48]
 227:../../libDaisy/src/hid/disp/display.h ****         int_fast16_t deltaY = abs((int_fast16_t)y2 - (int_fast16_t)y1);
 1565              		.loc 6 227 22 view .LVU318
 1566 000a 002C     		cmp	r4, #0
 221:../../libDaisy/src/hid/disp/display.h ****                   uint_fast8_t y1,
 1567              		.loc 6 221 10 view .LVU319
 1568 000c 9DF83490 		ldrb	r9, [sp, #52]	@ zero_extendqisi2
 228:../../libDaisy/src/hid/disp/display.h ****         int_fast16_t signX  = ((x1 < x2) ? 1 : -1);
 1569              		.loc 6 228 52 view .LVU320
 1570 0010 A6EB0208 		sub	r8, r6, r2
 227:../../libDaisy/src/hid/disp/display.h ****         int_fast16_t deltaY = abs((int_fast16_t)y2 - (int_fast16_t)y1);
 1571              		.loc 6 227 22 view .LVU321
 1572 0014 B8BF     		it	lt
 1573 0016 6442     		rsblt	r4, r4, #0
 1574              	.LVL113:
 228:../../libDaisy/src/hid/disp/display.h ****         int_fast16_t signX  = ((x1 < x2) ? 1 : -1);
 1575              		.loc 6 228 22 view .LVU322
ARM GAS  C:\Users\etpen\AppData\Local\Temp\cciw2fvE.s 			page 56


 1576 0018 B8F1000F 		cmp	r8, #0
 1577 001c B8BF     		it	lt
 1578 001e C8F10008 		rsblt	r8, r8, #0
 1579              	.LVL114:
 229:../../libDaisy/src/hid/disp/display.h ****         int_fast16_t signY  = ((y1 < y2) ? 1 : -1);
 1580              		.loc 6 229 42 view .LVU323
 1581 0022 8B42     		cmp	r3, r1
 1582 0024 8CBF     		ite	hi
 1583 0026 4FF0010A 		movhi	r10, #1
 1584 002a 4FF0FF3A 		movls	r10, #-1
 1585              	.LVL115:
 230:../../libDaisy/src/hid/disp/display.h ****         int_fast16_t error  = deltaX - deltaY;
 1586              		.loc 6 230 42 view .LVU324
 1587 002e 9642     		cmp	r6, r2
 231:../../libDaisy/src/hid/disp/display.h ****         int_fast16_t error2;
 1588              		.loc 6 231 22 view .LVU325
 1589 0030 A4EB080C 		sub	ip, r4, r8
 230:../../libDaisy/src/hid/disp/display.h ****         int_fast16_t error  = deltaX - deltaY;
 1590              		.loc 6 230 42 view .LVU326
 1591 0034 51D8     		bhi	.L109
 1592              	.LVL116:
 1593              	.LBB924:
 1594              	.LBI924:
  41:../../libDaisy/src/hid/disp/oled_display.h ****     {
 1595              		.loc 5 41 10 is_stmt 1 discriminator 4 view .LVU327
 1596              	.LBB925:
 1597              	.LBI925:
 239:../../libDaisy/src/dev/oled_ssd130x.h ****     {
 1598              		.loc 15 239 10 discriminator 4 view .LVU328
 1599              	.LBE925:
 1600              	.LBE924:
 230:../../libDaisy/src/hid/disp/display.h ****         int_fast16_t error  = deltaX - deltaY;
 1601              		.loc 6 230 42 is_stmt 0 discriminator 4 view .LVU329
 1602 0036 4FF0FF35 		mov	r5, #-1
 1603              	.LBB941:
 1604              	.LBB935:
 1605              	.LBB926:
 241:../../libDaisy/src/dev/oled_ssd130x.h ****             return;
 1606              		.loc 15 241 9 discriminator 4 view .LVU330
 1607 003a 7F2B     		cmp	r3, #127
 1608              	.LBE926:
 1609              	.LBE935:
 1610              	.LBE941:
 230:../../libDaisy/src/hid/disp/display.h ****         int_fast16_t error  = deltaX - deltaY;
 1611              		.loc 6 230 42 discriminator 4 view .LVU331
 1612 003c 0195     		str	r5, [sp, #4]
 1613              	.LBB942:
 1614              	.LBB936:
 1615              	.LBB931:
 241:../../libDaisy/src/dev/oled_ssd130x.h ****             return;
 1616              		.loc 15 241 9 discriminator 4 view .LVU332
 1617 003e 12D8     		bhi	.L110
 1618 0040 3F2E     		cmp	r6, #63
 1619 0042 10D8     		bhi	.L110
 1620              	.LVL117:
 1621              	.L121:
 244:../../libDaisy/src/dev/oled_ssd130x.h ****         else
ARM GAS  C:\Users\etpen\AppData\Local\Temp\cciw2fvE.s 			page 57


 1622              		.loc 15 244 28 view .LVU333
 1623 0044 F508     		lsrs	r5, r6, #3
 244:../../libDaisy/src/dev/oled_ssd130x.h ****         else
 1624              		.loc 15 244 54 view .LVU334
 1625 0046 06F0070E 		and	lr, r6, #7
 244:../../libDaisy/src/dev/oled_ssd130x.h ****         else
 1626              		.loc 15 244 48 view .LVU335
 1627 004a 0127     		movs	r7, #1
 244:../../libDaisy/src/dev/oled_ssd130x.h ****         else
 1628              		.loc 15 244 42 view .LVU336
 1629 004c 03EBC515 		add	r5, r3, r5, lsl #7
 1630 0050 0544     		add	r5, r5, r0
 243:../../libDaisy/src/dev/oled_ssd130x.h ****             buffer_[x + (y / 8) * width] |= (1 << (y % 8));
 1631              		.loc 15 243 9 view .LVU337
 1632 0052 B9F1000F 		cmp	r9, #0
 1633 0056 47D0     		beq	.L111
 244:../../libDaisy/src/dev/oled_ssd130x.h ****         else
 1634              		.loc 15 244 48 view .LVU338
 1635 0058 07FA0EF7 		lsl	r7, r7, lr
 244:../../libDaisy/src/dev/oled_ssd130x.h ****         else
 1636              		.loc 15 244 42 view .LVU339
 1637 005c 95F814E0 		ldrb	lr, [r5, #20]	@ zero_extendqisi2
 1638 0060 47EA0E07 		orr	r7, r7, lr
 1639 0064 2F75     		strb	r7, [r5, #20]
 1640              	.LVL118:
 1641              	.L110:
 244:../../libDaisy/src/dev/oled_ssd130x.h ****         else
 1642              		.loc 15 244 42 view .LVU340
 1643              	.LBE931:
 1644              	.LBE936:
 1645              	.LBE942:
 239:../../libDaisy/src/hid/disp/display.h ****         {
 1646              		.loc 6 239 26 is_stmt 1 view .LVU341
 1647 0066 9642     		cmp	r6, r2
 1648 0068 01D1     		bne	.L114
 1649              	.L133:
 239:../../libDaisy/src/hid/disp/display.h ****         {
 1650              		.loc 6 239 26 is_stmt 0 view .LVU342
 1651 006a 8B42     		cmp	r3, r1
 1652 006c 29D0     		beq	.L107
 1653              	.L114:
 1654              	.LVL119:
 243:../../libDaisy/src/hid/disp/display.h ****             {
 1655              		.loc 6 243 23 view .LVU343
 1656 006e C8F10007 		rsb	r7, r8, #0
 1657              	.L116:
 1658              	.LVL120:
 1659              	.LBB943:
 1660              	.LBI943:
  41:../../libDaisy/src/hid/disp/oled_display.h ****     {
 1661              		.loc 5 41 10 is_stmt 1 view .LVU344
 1662              	.LBB944:
 1663              	.LBI944:
 239:../../libDaisy/src/dev/oled_ssd130x.h ****     {
 1664              		.loc 15 239 10 view .LVU345
 1665              	.LBB945:
 241:../../libDaisy/src/dev/oled_ssd130x.h ****             return;
ARM GAS  C:\Users\etpen\AppData\Local\Temp\cciw2fvE.s 			page 58


 1666              		.loc 15 241 9 is_stmt 0 view .LVU346
 1667 0072 7F29     		cmp	r1, #127
 1668 0074 14D8     		bhi	.L117
 1669 0076 3F2A     		cmp	r2, #63
 1670 0078 12D8     		bhi	.L117
 244:../../libDaisy/src/dev/oled_ssd130x.h ****         else
 1671              		.loc 15 244 28 view .LVU347
 1672 007a D508     		lsrs	r5, r2, #3
 244:../../libDaisy/src/dev/oled_ssd130x.h ****         else
 1673              		.loc 15 244 54 view .LVU348
 1674 007c 02F0070B 		and	fp, r2, #7
 244:../../libDaisy/src/dev/oled_ssd130x.h ****         else
 1675              		.loc 15 244 48 view .LVU349
 1676 0080 4FF0010E 		mov	lr, #1
 244:../../libDaisy/src/dev/oled_ssd130x.h ****         else
 1677              		.loc 15 244 42 view .LVU350
 1678 0084 01EBC515 		add	r5, r1, r5, lsl #7
 1679 0088 0544     		add	r5, r5, r0
 243:../../libDaisy/src/dev/oled_ssd130x.h ****             buffer_[x + (y / 8) * width] |= (1 << (y % 8));
 1680              		.loc 15 243 9 view .LVU351
 1681 008a B9F1000F 		cmp	r9, #0
 1682 008e 1BD0     		beq	.L118
 244:../../libDaisy/src/dev/oled_ssd130x.h ****         else
 1683              		.loc 15 244 48 view .LVU352
 1684 0090 0EFA0BFE 		lsl	lr, lr, fp
 244:../../libDaisy/src/dev/oled_ssd130x.h ****         else
 1685              		.loc 15 244 42 view .LVU353
 1686 0094 95F814B0 		ldrb	fp, [r5, #20]	@ zero_extendqisi2
 1687 0098 4EEA0B0E 		orr	lr, lr, fp
 1688 009c 85F814E0 		strb	lr, [r5, #20]
 1689              	.L117:
 1690              	.LVL121:
 244:../../libDaisy/src/dev/oled_ssd130x.h ****         else
 1691              		.loc 15 244 42 view .LVU354
 1692              	.LBE945:
 1693              	.LBE944:
 1694              	.LBE943:
 243:../../libDaisy/src/hid/disp/display.h ****             {
 1695              		.loc 6 243 13 view .LVU355
 1696 00a0 B7EB4C0F 		cmp	r7, ip, lsl #1
 242:../../libDaisy/src/hid/disp/display.h ****             if(error2 > -deltaY)
 1697              		.loc 6 242 20 view .LVU356
 1698 00a4 4FEA4C05 		lsl	r5, ip, #1
 1699              	.LVL122:
 243:../../libDaisy/src/hid/disp/display.h ****             {
 1700              		.loc 6 243 13 view .LVU357
 1701 00a8 02DA     		bge	.L119
 245:../../libDaisy/src/hid/disp/display.h ****                 x1 += signX;
 1702              		.loc 6 245 23 view .LVU358
 1703 00aa ACEB080C 		sub	ip, ip, r8
 1704              	.LVL123:
 246:../../libDaisy/src/hid/disp/display.h ****             }
 1705              		.loc 6 246 20 view .LVU359
 1706 00ae 5144     		add	r1, r1, r10
 1707              	.LVL124:
 1708              	.L119:
 249:../../libDaisy/src/hid/disp/display.h ****             {
ARM GAS  C:\Users\etpen\AppData\Local\Temp\cciw2fvE.s 			page 59


 1709              		.loc 6 249 13 view .LVU360
 1710 00b0 AC42     		cmp	r4, r5
 1711 00b2 02DD     		ble	.L120
 252:../../libDaisy/src/hid/disp/display.h ****             }
 1712              		.loc 6 252 20 view .LVU361
 1713 00b4 019D     		ldr	r5, [sp, #4]
 1714              	.LVL125:
 251:../../libDaisy/src/hid/disp/display.h ****                 y1 += signY;
 1715              		.loc 6 251 23 view .LVU362
 1716 00b6 A444     		add	ip, ip, r4
 1717              	.LVL126:
 252:../../libDaisy/src/hid/disp/display.h ****             }
 1718              		.loc 6 252 20 view .LVU363
 1719 00b8 2A44     		add	r2, r2, r5
 1720              	.LVL127:
 1721              	.L120:
 239:../../libDaisy/src/hid/disp/display.h ****         {
 1722              		.loc 6 239 26 is_stmt 1 view .LVU364
 1723 00ba 9942     		cmp	r1, r3
 1724 00bc D9D1     		bne	.L116
 239:../../libDaisy/src/hid/disp/display.h ****         {
 1725              		.loc 6 239 26 is_stmt 0 view .LVU365
 1726 00be 9642     		cmp	r6, r2
 1727 00c0 D7D1     		bne	.L116
 1728              	.L107:
 255:../../libDaisy/src/hid/disp/display.h **** 
 1729              		.loc 6 255 5 view .LVU366
 1730 00c2 03B0     		add	sp, sp, #12
 1731              		.cfi_remember_state
 1732              		.cfi_def_cfa_offset 36
 1733              		@ sp needed
 1734 00c4 BDE8F08F 		pop	{r4, r5, r6, r7, r8, r9, r10, fp, pc}
 1735              	.LVL128:
 1736              	.L118:
 1737              		.cfi_restore_state
 1738              	.LBB950:
 1739              	.LBB949:
 1740              	.LBB948:
 1741              	.LBB946:
 1742              	.LBI946:
 239:../../libDaisy/src/dev/oled_ssd130x.h ****     {
 1743              		.loc 15 239 10 is_stmt 1 view .LVU367
 1744              	.LBB947:
 246:../../libDaisy/src/dev/oled_ssd130x.h ****     }
 1745              		.loc 15 246 49 is_stmt 0 view .LVU368
 1746 00c8 0EFA0BFB 		lsl	fp, lr, fp
 246:../../libDaisy/src/dev/oled_ssd130x.h ****     }
 1747              		.loc 15 246 42 view .LVU369
 1748 00cc 95F814E0 		ldrb	lr, [r5, #20]	@ zero_extendqisi2
 1749 00d0 2EEA0B0E 		bic	lr, lr, fp
 1750 00d4 85F814E0 		strb	lr, [r5, #20]
 1751 00d8 E2E7     		b	.L117
 1752              	.LVL129:
 1753              	.L109:
 246:../../libDaisy/src/dev/oled_ssd130x.h ****     }
 1754              		.loc 15 246 42 view .LVU370
 1755              	.LBE947:
ARM GAS  C:\Users\etpen\AppData\Local\Temp\cciw2fvE.s 			page 60


 1756              	.LBE946:
 1757              	.LBE948:
 1758              	.LBE949:
 1759              	.LBE950:
 1760              	.LBB951:
  41:../../libDaisy/src/hid/disp/oled_display.h ****     {
 1761              		.loc 5 41 10 is_stmt 1 view .LVU371
 1762              	.LBB937:
 239:../../libDaisy/src/dev/oled_ssd130x.h ****     {
 1763              		.loc 15 239 10 view .LVU372
 1764              	.LBE937:
 1765              	.LBE951:
 230:../../libDaisy/src/hid/disp/display.h ****         int_fast16_t error  = deltaX - deltaY;
 1766              		.loc 6 230 42 is_stmt 0 view .LVU373
 1767 00da 0125     		movs	r5, #1
 1768              	.LBB952:
 1769              	.LBB938:
 1770              	.LBB932:
 241:../../libDaisy/src/dev/oled_ssd130x.h ****             return;
 1771              		.loc 15 241 9 view .LVU374
 1772 00dc 7F2B     		cmp	r3, #127
 1773              	.LBE932:
 1774              	.LBE938:
 1775              	.LBE952:
 230:../../libDaisy/src/hid/disp/display.h ****         int_fast16_t error  = deltaX - deltaY;
 1776              		.loc 6 230 42 view .LVU375
 1777 00de 0195     		str	r5, [sp, #4]
 1778              	.LBB953:
 1779              	.LBB939:
 1780              	.LBB933:
 241:../../libDaisy/src/dev/oled_ssd130x.h ****             return;
 1781              		.loc 15 241 9 view .LVU376
 1782 00e0 C5D8     		bhi	.L114
 1783 00e2 3F2E     		cmp	r6, #63
 1784 00e4 AED9     		bls	.L121
 1785 00e6 C2E7     		b	.L114
 1786              	.LVL130:
 1787              	.L111:
 1788              	.LBB927:
 1789              	.LBI927:
 239:../../libDaisy/src/dev/oled_ssd130x.h ****     {
 1790              		.loc 15 239 10 is_stmt 1 view .LVU377
 1791              	.LBB928:
 246:../../libDaisy/src/dev/oled_ssd130x.h ****     }
 1792              		.loc 15 246 49 is_stmt 0 view .LVU378
 1793 00e8 07FA0EFE 		lsl	lr, r7, lr
 246:../../libDaisy/src/dev/oled_ssd130x.h ****     }
 1794              		.loc 15 246 42 view .LVU379
 1795 00ec 2F7D     		ldrb	r7, [r5, #20]	@ zero_extendqisi2
 1796              	.LBE928:
 1797              	.LBE927:
 1798              	.LBE933:
 1799              	.LBE939:
 1800              	.LBE953:
 239:../../libDaisy/src/hid/disp/display.h ****         {
 1801              		.loc 6 239 26 view .LVU380
 1802 00ee 9642     		cmp	r6, r2
ARM GAS  C:\Users\etpen\AppData\Local\Temp\cciw2fvE.s 			page 61


 1803              	.LBB954:
 1804              	.LBB940:
 1805              	.LBB934:
 1806              	.LBB930:
 1807              	.LBB929:
 246:../../libDaisy/src/dev/oled_ssd130x.h ****     }
 1808              		.loc 15 246 42 view .LVU381
 1809 00f0 27EA0E07 		bic	r7, r7, lr
 1810 00f4 2F75     		strb	r7, [r5, #20]
 1811              	.LVL131:
 246:../../libDaisy/src/dev/oled_ssd130x.h ****     }
 1812              		.loc 15 246 42 view .LVU382
 1813              	.LBE929:
 1814              	.LBE930:
 1815              	.LBE934:
 1816              	.LBE940:
 1817              	.LBE954:
 239:../../libDaisy/src/hid/disp/display.h ****         {
 1818              		.loc 6 239 26 is_stmt 1 view .LVU383
 1819 00f6 B8D0     		beq	.L133
 1820 00f8 B9E7     		b	.L114
 1821              		.cfi_endproc
 1822              	.LFE5031:
 1824 00fa 00BF     		.section	.text._ZN5daisy25OneBitGraphicsDisplayImplINS_11OledDisplayINS_13SSD130xDriverILj128ELj64
 1825              		.align	1
 1826              		.p2align 2,,3
 1827              		.weak	_ZN5daisy25OneBitGraphicsDisplayImplINS_11OledDisplayINS_13SSD130xDriverILj128ELj64ENS_24SSD
 1828              		.syntax unified
 1829              		.thumb
 1830              		.thumb_func
 1831              		.fpu fpv5-d16
 1833              	_ZN5daisy25OneBitGraphicsDisplayImplINS_11OledDisplayINS_13SSD130xDriverILj128ELj64ENS_24SSD130x4Wi
 1834              	.LVL132:
 1835              	.LFB5033:
 283:../../libDaisy/src/hid/disp/display.h ****                  uint_fast8_t y,
 1836              		.loc 6 283 10 view -0
 1837              		.cfi_startproc
 1838              		@ args = 12, pretend = 0, frame = 8
 1839              		@ frame_needed = 0, uses_anonymous_args = 0
 283:../../libDaisy/src/hid/disp/display.h ****                  uint_fast8_t y,
 1840              		.loc 6 283 10 is_stmt 0 view .LVU385
 1841 0000 2DE9F04F 		push	{r4, r5, r6, r7, r8, r9, r10, fp, lr}
 1842              		.cfi_def_cfa_offset 36
 1843              		.cfi_offset 4, -36
 1844              		.cfi_offset 5, -32
 1845              		.cfi_offset 6, -28
 1846              		.cfi_offset 7, -24
 1847              		.cfi_offset 8, -20
 1848              		.cfi_offset 9, -16
 1849              		.cfi_offset 10, -12
 1850              		.cfi_offset 11, -8
 1851              		.cfi_offset 14, -4
 1852 0004 2DED068B 		vpush.64	{d8, d9, d10}
 1853              		.cfi_def_cfa_offset 60
 1854              		.cfi_offset 80, -60
 1855              		.cfi_offset 81, -56
 1856              		.cfi_offset 82, -52
ARM GAS  C:\Users\etpen\AppData\Local\Temp\cciw2fvE.s 			page 62


 1857              		.cfi_offset 83, -48
 1858              		.cfi_offset 84, -44
 1859              		.cfi_offset 85, -40
 1860 0008 83B0     		sub	sp, sp, #12
 1861              		.cfi_def_cfa_offset 72
 283:../../libDaisy/src/hid/disp/display.h ****                  uint_fast8_t y,
 1862              		.loc 6 283 10 view .LVU386
 1863 000a 1F46     		mov	r7, r3
 1864 000c 8046     		mov	r8, r0
 1865 000e 0D46     		mov	r5, r1
 1866 0010 9DF85030 		ldrb	r3, [sp, #80]	@ zero_extendqisi2
 1867              	.LVL133:
 283:../../libDaisy/src/hid/disp/display.h ****                  uint_fast8_t y,
 1868              		.loc 6 283 10 view .LVU387
 1869 0014 1646     		mov	r6, r2
 1870 0016 0193     		str	r3, [sp, #4]
 306:../../libDaisy/src/hid/disp/display.h ****         {
 1871              		.loc 6 306 9 view .LVU388
 1872 0018 139B     		ldr	r3, [sp, #76]
 1873 001a 002B     		cmp	r3, #0
 1874 001c C0F22182 		blt	.L135
 313:../../libDaisy/src/hid/disp/display.h **** 
 1875              		.loc 6 313 27 view .LVU389
 1876 0020 129A     		ldr	r2, [sp, #72]
 1877              	.LVL134:
 313:../../libDaisy/src/hid/disp/display.h **** 
 1878              		.loc 6 313 27 view .LVU390
 1879 0022 1344     		add	r3, r3, r2
 1880 0024 06EE103A 		vmov	s12, r3	@ int
 1881              	.LVL135:
 1882              	.L136:
 312:../../libDaisy/src/hid/disp/display.h ****         end_angle_rad   = deg2rad(start_angle + sweep);
 1883              		.loc 6 312 27 view .LVU391
 1884 0028 DDED127A 		vldr.32	s15, [sp, #72]	@ int
 313:../../libDaisy/src/hid/disp/display.h **** 
 1885              		.loc 6 313 27 view .LVU392
 1886 002c B8EEC66B 		vcvt.f64.s32	d6, s12
 312:../../libDaisy/src/hid/disp/display.h ****         end_angle_rad   = deg2rad(start_angle + sweep);
 1887              		.loc 6 312 27 view .LVU393
 1888 0030 9FEDCD4B 		vldr.64	d4, .L211
 1889 0034 B8EEE77B 		vcvt.f64.s32	d7, s15
 1890 0038 9FEDCD5B 		vldr.64	d5, .L211+8
 1891 003c 27EE047B 		vmul.f64	d7, d7, d4
 313:../../libDaisy/src/hid/disp/display.h **** 
 1892              		.loc 6 313 27 view .LVU394
 1893 0040 26EE046B 		vmul.f64	d6, d6, d4
 312:../../libDaisy/src/hid/disp/display.h ****         end_angle_rad   = deg2rad(start_angle + sweep);
 1894              		.loc 6 312 27 view .LVU395
 1895 0044 87EE050B 		vdiv.f64	d0, d7, d5
 313:../../libDaisy/src/hid/disp/display.h **** 
 1896              		.loc 6 313 27 view .LVU396
 1897 0048 86EE05AB 		vdiv.f64	d10, d6, d5
 312:../../libDaisy/src/hid/disp/display.h ****         end_angle_rad   = deg2rad(start_angle + sweep);
 1898              		.loc 6 312 25 view .LVU397
 1899 004c F7EEC08B 		vcvt.f32.f64	s17, d0
 1900              	.LVL136:
 1901              	.LBB987:
ARM GAS  C:\Users\etpen\AppData\Local\Temp\cciw2fvE.s 			page 63


 1902              	.LBB988:
 1903              		.file 16 "e:\\daisy\\daisytoolchain-0.3.1\\windows\\arm-none-eabi\\include\\c++\\10.2.1\\cmath"
   1:e:\daisy\daisytoolchain-0.3.1\windows\arm-none-eabi\include\c++\10.2.1\cmath **** // -*- C++ -*- C forwarding header.
   2:e:\daisy\daisytoolchain-0.3.1\windows\arm-none-eabi\include\c++\10.2.1\cmath **** 
   3:e:\daisy\daisytoolchain-0.3.1\windows\arm-none-eabi\include\c++\10.2.1\cmath **** // Copyright (C) 1997-2020 Free Software Foundation, Inc.
   4:e:\daisy\daisytoolchain-0.3.1\windows\arm-none-eabi\include\c++\10.2.1\cmath **** //
   5:e:\daisy\daisytoolchain-0.3.1\windows\arm-none-eabi\include\c++\10.2.1\cmath **** // This file is part of the GNU ISO C++ Library.  This library is free
   6:e:\daisy\daisytoolchain-0.3.1\windows\arm-none-eabi\include\c++\10.2.1\cmath **** // software; you can redistribute it and/or modify it under the
   7:e:\daisy\daisytoolchain-0.3.1\windows\arm-none-eabi\include\c++\10.2.1\cmath **** // terms of the GNU General Public License as published by the
   8:e:\daisy\daisytoolchain-0.3.1\windows\arm-none-eabi\include\c++\10.2.1\cmath **** // Free Software Foundation; either version 3, or (at your option)
   9:e:\daisy\daisytoolchain-0.3.1\windows\arm-none-eabi\include\c++\10.2.1\cmath **** // any later version.
  10:e:\daisy\daisytoolchain-0.3.1\windows\arm-none-eabi\include\c++\10.2.1\cmath **** 
  11:e:\daisy\daisytoolchain-0.3.1\windows\arm-none-eabi\include\c++\10.2.1\cmath **** // This library is distributed in the hope that it will be useful,
  12:e:\daisy\daisytoolchain-0.3.1\windows\arm-none-eabi\include\c++\10.2.1\cmath **** // but WITHOUT ANY WARRANTY; without even the implied warranty of
  13:e:\daisy\daisytoolchain-0.3.1\windows\arm-none-eabi\include\c++\10.2.1\cmath **** // MERCHANTABILITY or FITNESS FOR A PARTICULAR PURPOSE.  See the
  14:e:\daisy\daisytoolchain-0.3.1\windows\arm-none-eabi\include\c++\10.2.1\cmath **** // GNU General Public License for more details.
  15:e:\daisy\daisytoolchain-0.3.1\windows\arm-none-eabi\include\c++\10.2.1\cmath **** 
  16:e:\daisy\daisytoolchain-0.3.1\windows\arm-none-eabi\include\c++\10.2.1\cmath **** // Under Section 7 of GPL version 3, you are granted additional
  17:e:\daisy\daisytoolchain-0.3.1\windows\arm-none-eabi\include\c++\10.2.1\cmath **** // permissions described in the GCC Runtime Library Exception, version
  18:e:\daisy\daisytoolchain-0.3.1\windows\arm-none-eabi\include\c++\10.2.1\cmath **** // 3.1, as published by the Free Software Foundation.
  19:e:\daisy\daisytoolchain-0.3.1\windows\arm-none-eabi\include\c++\10.2.1\cmath **** 
  20:e:\daisy\daisytoolchain-0.3.1\windows\arm-none-eabi\include\c++\10.2.1\cmath **** // You should have received a copy of the GNU General Public License and
  21:e:\daisy\daisytoolchain-0.3.1\windows\arm-none-eabi\include\c++\10.2.1\cmath **** // a copy of the GCC Runtime Library Exception along with this program;
  22:e:\daisy\daisytoolchain-0.3.1\windows\arm-none-eabi\include\c++\10.2.1\cmath **** // see the files COPYING3 and COPYING.RUNTIME respectively.  If not, see
  23:e:\daisy\daisytoolchain-0.3.1\windows\arm-none-eabi\include\c++\10.2.1\cmath **** // <http://www.gnu.org/licenses/>.
  24:e:\daisy\daisytoolchain-0.3.1\windows\arm-none-eabi\include\c++\10.2.1\cmath **** 
  25:e:\daisy\daisytoolchain-0.3.1\windows\arm-none-eabi\include\c++\10.2.1\cmath **** /** @file include/cmath
  26:e:\daisy\daisytoolchain-0.3.1\windows\arm-none-eabi\include\c++\10.2.1\cmath ****  *  This is a Standard C++ Library file.  You should @c \#include this file
  27:e:\daisy\daisytoolchain-0.3.1\windows\arm-none-eabi\include\c++\10.2.1\cmath ****  *  in your programs, rather than any of the @a *.h implementation files.
  28:e:\daisy\daisytoolchain-0.3.1\windows\arm-none-eabi\include\c++\10.2.1\cmath ****  *
  29:e:\daisy\daisytoolchain-0.3.1\windows\arm-none-eabi\include\c++\10.2.1\cmath ****  *  This is the C++ version of the Standard C Library header @c math.h,
  30:e:\daisy\daisytoolchain-0.3.1\windows\arm-none-eabi\include\c++\10.2.1\cmath ****  *  and its contents are (mostly) the same as that header, but are all
  31:e:\daisy\daisytoolchain-0.3.1\windows\arm-none-eabi\include\c++\10.2.1\cmath ****  *  contained in the namespace @c std (except for names which are defined
  32:e:\daisy\daisytoolchain-0.3.1\windows\arm-none-eabi\include\c++\10.2.1\cmath ****  *  as macros in C).
  33:e:\daisy\daisytoolchain-0.3.1\windows\arm-none-eabi\include\c++\10.2.1\cmath ****  */
  34:e:\daisy\daisytoolchain-0.3.1\windows\arm-none-eabi\include\c++\10.2.1\cmath **** 
  35:e:\daisy\daisytoolchain-0.3.1\windows\arm-none-eabi\include\c++\10.2.1\cmath **** //
  36:e:\daisy\daisytoolchain-0.3.1\windows\arm-none-eabi\include\c++\10.2.1\cmath **** // ISO C++ 14882: 26.5  C library
  37:e:\daisy\daisytoolchain-0.3.1\windows\arm-none-eabi\include\c++\10.2.1\cmath **** //
  38:e:\daisy\daisytoolchain-0.3.1\windows\arm-none-eabi\include\c++\10.2.1\cmath **** 
  39:e:\daisy\daisytoolchain-0.3.1\windows\arm-none-eabi\include\c++\10.2.1\cmath **** #pragma GCC system_header
  40:e:\daisy\daisytoolchain-0.3.1\windows\arm-none-eabi\include\c++\10.2.1\cmath **** 
  41:e:\daisy\daisytoolchain-0.3.1\windows\arm-none-eabi\include\c++\10.2.1\cmath **** #include <bits/c++config.h>
  42:e:\daisy\daisytoolchain-0.3.1\windows\arm-none-eabi\include\c++\10.2.1\cmath **** #include <bits/cpp_type_traits.h>
  43:e:\daisy\daisytoolchain-0.3.1\windows\arm-none-eabi\include\c++\10.2.1\cmath **** #include <ext/type_traits.h>
  44:e:\daisy\daisytoolchain-0.3.1\windows\arm-none-eabi\include\c++\10.2.1\cmath **** #define _GLIBCXX_INCLUDE_NEXT_C_HEADERS
  45:e:\daisy\daisytoolchain-0.3.1\windows\arm-none-eabi\include\c++\10.2.1\cmath **** #include_next <math.h>
  46:e:\daisy\daisytoolchain-0.3.1\windows\arm-none-eabi\include\c++\10.2.1\cmath **** #undef _GLIBCXX_INCLUDE_NEXT_C_HEADERS
  47:e:\daisy\daisytoolchain-0.3.1\windows\arm-none-eabi\include\c++\10.2.1\cmath **** #include <bits/std_abs.h>
  48:e:\daisy\daisytoolchain-0.3.1\windows\arm-none-eabi\include\c++\10.2.1\cmath **** 
  49:e:\daisy\daisytoolchain-0.3.1\windows\arm-none-eabi\include\c++\10.2.1\cmath **** #ifndef _GLIBCXX_CMATH
  50:e:\daisy\daisytoolchain-0.3.1\windows\arm-none-eabi\include\c++\10.2.1\cmath **** #define _GLIBCXX_CMATH 1
  51:e:\daisy\daisytoolchain-0.3.1\windows\arm-none-eabi\include\c++\10.2.1\cmath **** 
  52:e:\daisy\daisytoolchain-0.3.1\windows\arm-none-eabi\include\c++\10.2.1\cmath **** // Get rid of those macros defined in <math.h> in lieu of real functions.
  53:e:\daisy\daisytoolchain-0.3.1\windows\arm-none-eabi\include\c++\10.2.1\cmath **** #undef div
  54:e:\daisy\daisytoolchain-0.3.1\windows\arm-none-eabi\include\c++\10.2.1\cmath **** #undef acos
  55:e:\daisy\daisytoolchain-0.3.1\windows\arm-none-eabi\include\c++\10.2.1\cmath **** #undef asin
ARM GAS  C:\Users\etpen\AppData\Local\Temp\cciw2fvE.s 			page 64


  56:e:\daisy\daisytoolchain-0.3.1\windows\arm-none-eabi\include\c++\10.2.1\cmath **** #undef atan
  57:e:\daisy\daisytoolchain-0.3.1\windows\arm-none-eabi\include\c++\10.2.1\cmath **** #undef atan2
  58:e:\daisy\daisytoolchain-0.3.1\windows\arm-none-eabi\include\c++\10.2.1\cmath **** #undef ceil
  59:e:\daisy\daisytoolchain-0.3.1\windows\arm-none-eabi\include\c++\10.2.1\cmath **** #undef cos
  60:e:\daisy\daisytoolchain-0.3.1\windows\arm-none-eabi\include\c++\10.2.1\cmath **** #undef cosh
  61:e:\daisy\daisytoolchain-0.3.1\windows\arm-none-eabi\include\c++\10.2.1\cmath **** #undef exp
  62:e:\daisy\daisytoolchain-0.3.1\windows\arm-none-eabi\include\c++\10.2.1\cmath **** #undef fabs
  63:e:\daisy\daisytoolchain-0.3.1\windows\arm-none-eabi\include\c++\10.2.1\cmath **** #undef floor
  64:e:\daisy\daisytoolchain-0.3.1\windows\arm-none-eabi\include\c++\10.2.1\cmath **** #undef fmod
  65:e:\daisy\daisytoolchain-0.3.1\windows\arm-none-eabi\include\c++\10.2.1\cmath **** #undef frexp
  66:e:\daisy\daisytoolchain-0.3.1\windows\arm-none-eabi\include\c++\10.2.1\cmath **** #undef ldexp
  67:e:\daisy\daisytoolchain-0.3.1\windows\arm-none-eabi\include\c++\10.2.1\cmath **** #undef log
  68:e:\daisy\daisytoolchain-0.3.1\windows\arm-none-eabi\include\c++\10.2.1\cmath **** #undef log10
  69:e:\daisy\daisytoolchain-0.3.1\windows\arm-none-eabi\include\c++\10.2.1\cmath **** #undef modf
  70:e:\daisy\daisytoolchain-0.3.1\windows\arm-none-eabi\include\c++\10.2.1\cmath **** #undef pow
  71:e:\daisy\daisytoolchain-0.3.1\windows\arm-none-eabi\include\c++\10.2.1\cmath **** #undef sin
  72:e:\daisy\daisytoolchain-0.3.1\windows\arm-none-eabi\include\c++\10.2.1\cmath **** #undef sinh
  73:e:\daisy\daisytoolchain-0.3.1\windows\arm-none-eabi\include\c++\10.2.1\cmath **** #undef sqrt
  74:e:\daisy\daisytoolchain-0.3.1\windows\arm-none-eabi\include\c++\10.2.1\cmath **** #undef tan
  75:e:\daisy\daisytoolchain-0.3.1\windows\arm-none-eabi\include\c++\10.2.1\cmath **** #undef tanh
  76:e:\daisy\daisytoolchain-0.3.1\windows\arm-none-eabi\include\c++\10.2.1\cmath **** 
  77:e:\daisy\daisytoolchain-0.3.1\windows\arm-none-eabi\include\c++\10.2.1\cmath **** extern "C++"
  78:e:\daisy\daisytoolchain-0.3.1\windows\arm-none-eabi\include\c++\10.2.1\cmath **** {
  79:e:\daisy\daisytoolchain-0.3.1\windows\arm-none-eabi\include\c++\10.2.1\cmath **** namespace std _GLIBCXX_VISIBILITY(default)
  80:e:\daisy\daisytoolchain-0.3.1\windows\arm-none-eabi\include\c++\10.2.1\cmath **** {
  81:e:\daisy\daisytoolchain-0.3.1\windows\arm-none-eabi\include\c++\10.2.1\cmath **** _GLIBCXX_BEGIN_NAMESPACE_VERSION
  82:e:\daisy\daisytoolchain-0.3.1\windows\arm-none-eabi\include\c++\10.2.1\cmath **** 
  83:e:\daisy\daisytoolchain-0.3.1\windows\arm-none-eabi\include\c++\10.2.1\cmath ****   using ::acos;
  84:e:\daisy\daisytoolchain-0.3.1\windows\arm-none-eabi\include\c++\10.2.1\cmath **** 
  85:e:\daisy\daisytoolchain-0.3.1\windows\arm-none-eabi\include\c++\10.2.1\cmath **** #ifndef __CORRECT_ISO_CPP_MATH_H_PROTO
  86:e:\daisy\daisytoolchain-0.3.1\windows\arm-none-eabi\include\c++\10.2.1\cmath ****   inline _GLIBCXX_CONSTEXPR float
  87:e:\daisy\daisytoolchain-0.3.1\windows\arm-none-eabi\include\c++\10.2.1\cmath ****   acos(float __x)
  88:e:\daisy\daisytoolchain-0.3.1\windows\arm-none-eabi\include\c++\10.2.1\cmath ****   { return __builtin_acosf(__x); }
  89:e:\daisy\daisytoolchain-0.3.1\windows\arm-none-eabi\include\c++\10.2.1\cmath **** 
  90:e:\daisy\daisytoolchain-0.3.1\windows\arm-none-eabi\include\c++\10.2.1\cmath ****   inline _GLIBCXX_CONSTEXPR long double
  91:e:\daisy\daisytoolchain-0.3.1\windows\arm-none-eabi\include\c++\10.2.1\cmath ****   acos(long double __x)
  92:e:\daisy\daisytoolchain-0.3.1\windows\arm-none-eabi\include\c++\10.2.1\cmath ****   { return __builtin_acosl(__x); }
  93:e:\daisy\daisytoolchain-0.3.1\windows\arm-none-eabi\include\c++\10.2.1\cmath **** #endif
  94:e:\daisy\daisytoolchain-0.3.1\windows\arm-none-eabi\include\c++\10.2.1\cmath **** 
  95:e:\daisy\daisytoolchain-0.3.1\windows\arm-none-eabi\include\c++\10.2.1\cmath ****   template<typename _Tp>
  96:e:\daisy\daisytoolchain-0.3.1\windows\arm-none-eabi\include\c++\10.2.1\cmath ****     inline _GLIBCXX_CONSTEXPR
  97:e:\daisy\daisytoolchain-0.3.1\windows\arm-none-eabi\include\c++\10.2.1\cmath ****     typename __gnu_cxx::__enable_if<__is_integer<_Tp>::__value, 
  98:e:\daisy\daisytoolchain-0.3.1\windows\arm-none-eabi\include\c++\10.2.1\cmath ****                                     double>::__type
  99:e:\daisy\daisytoolchain-0.3.1\windows\arm-none-eabi\include\c++\10.2.1\cmath ****     acos(_Tp __x)
 100:e:\daisy\daisytoolchain-0.3.1\windows\arm-none-eabi\include\c++\10.2.1\cmath ****     { return __builtin_acos(__x); }
 101:e:\daisy\daisytoolchain-0.3.1\windows\arm-none-eabi\include\c++\10.2.1\cmath **** 
 102:e:\daisy\daisytoolchain-0.3.1\windows\arm-none-eabi\include\c++\10.2.1\cmath ****   using ::asin;
 103:e:\daisy\daisytoolchain-0.3.1\windows\arm-none-eabi\include\c++\10.2.1\cmath **** 
 104:e:\daisy\daisytoolchain-0.3.1\windows\arm-none-eabi\include\c++\10.2.1\cmath **** #ifndef __CORRECT_ISO_CPP_MATH_H_PROTO
 105:e:\daisy\daisytoolchain-0.3.1\windows\arm-none-eabi\include\c++\10.2.1\cmath ****   inline _GLIBCXX_CONSTEXPR float
 106:e:\daisy\daisytoolchain-0.3.1\windows\arm-none-eabi\include\c++\10.2.1\cmath ****   asin(float __x)
 107:e:\daisy\daisytoolchain-0.3.1\windows\arm-none-eabi\include\c++\10.2.1\cmath ****   { return __builtin_asinf(__x); }
 108:e:\daisy\daisytoolchain-0.3.1\windows\arm-none-eabi\include\c++\10.2.1\cmath **** 
 109:e:\daisy\daisytoolchain-0.3.1\windows\arm-none-eabi\include\c++\10.2.1\cmath ****   inline _GLIBCXX_CONSTEXPR long double
 110:e:\daisy\daisytoolchain-0.3.1\windows\arm-none-eabi\include\c++\10.2.1\cmath ****   asin(long double __x)
 111:e:\daisy\daisytoolchain-0.3.1\windows\arm-none-eabi\include\c++\10.2.1\cmath ****   { return __builtin_asinl(__x); }
 112:e:\daisy\daisytoolchain-0.3.1\windows\arm-none-eabi\include\c++\10.2.1\cmath **** #endif
ARM GAS  C:\Users\etpen\AppData\Local\Temp\cciw2fvE.s 			page 65


 113:e:\daisy\daisytoolchain-0.3.1\windows\arm-none-eabi\include\c++\10.2.1\cmath **** 
 114:e:\daisy\daisytoolchain-0.3.1\windows\arm-none-eabi\include\c++\10.2.1\cmath ****   template<typename _Tp>
 115:e:\daisy\daisytoolchain-0.3.1\windows\arm-none-eabi\include\c++\10.2.1\cmath ****     inline _GLIBCXX_CONSTEXPR
 116:e:\daisy\daisytoolchain-0.3.1\windows\arm-none-eabi\include\c++\10.2.1\cmath ****     typename __gnu_cxx::__enable_if<__is_integer<_Tp>::__value,
 117:e:\daisy\daisytoolchain-0.3.1\windows\arm-none-eabi\include\c++\10.2.1\cmath ****                                     double>::__type
 118:e:\daisy\daisytoolchain-0.3.1\windows\arm-none-eabi\include\c++\10.2.1\cmath ****     asin(_Tp __x)
 119:e:\daisy\daisytoolchain-0.3.1\windows\arm-none-eabi\include\c++\10.2.1\cmath ****     { return __builtin_asin(__x); }
 120:e:\daisy\daisytoolchain-0.3.1\windows\arm-none-eabi\include\c++\10.2.1\cmath **** 
 121:e:\daisy\daisytoolchain-0.3.1\windows\arm-none-eabi\include\c++\10.2.1\cmath ****   using ::atan;
 122:e:\daisy\daisytoolchain-0.3.1\windows\arm-none-eabi\include\c++\10.2.1\cmath **** 
 123:e:\daisy\daisytoolchain-0.3.1\windows\arm-none-eabi\include\c++\10.2.1\cmath **** #ifndef __CORRECT_ISO_CPP_MATH_H_PROTO
 124:e:\daisy\daisytoolchain-0.3.1\windows\arm-none-eabi\include\c++\10.2.1\cmath ****   inline _GLIBCXX_CONSTEXPR float
 125:e:\daisy\daisytoolchain-0.3.1\windows\arm-none-eabi\include\c++\10.2.1\cmath ****   atan(float __x)
 126:e:\daisy\daisytoolchain-0.3.1\windows\arm-none-eabi\include\c++\10.2.1\cmath ****   { return __builtin_atanf(__x); }
 127:e:\daisy\daisytoolchain-0.3.1\windows\arm-none-eabi\include\c++\10.2.1\cmath **** 
 128:e:\daisy\daisytoolchain-0.3.1\windows\arm-none-eabi\include\c++\10.2.1\cmath ****   inline _GLIBCXX_CONSTEXPR long double
 129:e:\daisy\daisytoolchain-0.3.1\windows\arm-none-eabi\include\c++\10.2.1\cmath ****   atan(long double __x)
 130:e:\daisy\daisytoolchain-0.3.1\windows\arm-none-eabi\include\c++\10.2.1\cmath ****   { return __builtin_atanl(__x); }
 131:e:\daisy\daisytoolchain-0.3.1\windows\arm-none-eabi\include\c++\10.2.1\cmath **** #endif
 132:e:\daisy\daisytoolchain-0.3.1\windows\arm-none-eabi\include\c++\10.2.1\cmath **** 
 133:e:\daisy\daisytoolchain-0.3.1\windows\arm-none-eabi\include\c++\10.2.1\cmath ****   template<typename _Tp>
 134:e:\daisy\daisytoolchain-0.3.1\windows\arm-none-eabi\include\c++\10.2.1\cmath ****     inline _GLIBCXX_CONSTEXPR
 135:e:\daisy\daisytoolchain-0.3.1\windows\arm-none-eabi\include\c++\10.2.1\cmath ****     typename __gnu_cxx::__enable_if<__is_integer<_Tp>::__value,
 136:e:\daisy\daisytoolchain-0.3.1\windows\arm-none-eabi\include\c++\10.2.1\cmath ****                                     double>::__type
 137:e:\daisy\daisytoolchain-0.3.1\windows\arm-none-eabi\include\c++\10.2.1\cmath ****     atan(_Tp __x)
 138:e:\daisy\daisytoolchain-0.3.1\windows\arm-none-eabi\include\c++\10.2.1\cmath ****     { return __builtin_atan(__x); }
 139:e:\daisy\daisytoolchain-0.3.1\windows\arm-none-eabi\include\c++\10.2.1\cmath **** 
 140:e:\daisy\daisytoolchain-0.3.1\windows\arm-none-eabi\include\c++\10.2.1\cmath ****   using ::atan2;
 141:e:\daisy\daisytoolchain-0.3.1\windows\arm-none-eabi\include\c++\10.2.1\cmath **** 
 142:e:\daisy\daisytoolchain-0.3.1\windows\arm-none-eabi\include\c++\10.2.1\cmath **** #ifndef __CORRECT_ISO_CPP_MATH_H_PROTO
 143:e:\daisy\daisytoolchain-0.3.1\windows\arm-none-eabi\include\c++\10.2.1\cmath ****   inline _GLIBCXX_CONSTEXPR float
 144:e:\daisy\daisytoolchain-0.3.1\windows\arm-none-eabi\include\c++\10.2.1\cmath ****   atan2(float __y, float __x)
 145:e:\daisy\daisytoolchain-0.3.1\windows\arm-none-eabi\include\c++\10.2.1\cmath ****   { return __builtin_atan2f(__y, __x); }
 146:e:\daisy\daisytoolchain-0.3.1\windows\arm-none-eabi\include\c++\10.2.1\cmath **** 
 147:e:\daisy\daisytoolchain-0.3.1\windows\arm-none-eabi\include\c++\10.2.1\cmath ****   inline _GLIBCXX_CONSTEXPR long double
 148:e:\daisy\daisytoolchain-0.3.1\windows\arm-none-eabi\include\c++\10.2.1\cmath ****   atan2(long double __y, long double __x)
 149:e:\daisy\daisytoolchain-0.3.1\windows\arm-none-eabi\include\c++\10.2.1\cmath ****   { return __builtin_atan2l(__y, __x); }
 150:e:\daisy\daisytoolchain-0.3.1\windows\arm-none-eabi\include\c++\10.2.1\cmath **** #endif
 151:e:\daisy\daisytoolchain-0.3.1\windows\arm-none-eabi\include\c++\10.2.1\cmath **** 
 152:e:\daisy\daisytoolchain-0.3.1\windows\arm-none-eabi\include\c++\10.2.1\cmath ****   template<typename _Tp, typename _Up>
 153:e:\daisy\daisytoolchain-0.3.1\windows\arm-none-eabi\include\c++\10.2.1\cmath ****     inline _GLIBCXX_CONSTEXPR
 154:e:\daisy\daisytoolchain-0.3.1\windows\arm-none-eabi\include\c++\10.2.1\cmath ****     typename __gnu_cxx::__promote_2<_Tp, _Up>::__type
 155:e:\daisy\daisytoolchain-0.3.1\windows\arm-none-eabi\include\c++\10.2.1\cmath ****     atan2(_Tp __y, _Up __x)
 156:e:\daisy\daisytoolchain-0.3.1\windows\arm-none-eabi\include\c++\10.2.1\cmath ****     {
 157:e:\daisy\daisytoolchain-0.3.1\windows\arm-none-eabi\include\c++\10.2.1\cmath ****       typedef typename __gnu_cxx::__promote_2<_Tp, _Up>::__type __type;
 158:e:\daisy\daisytoolchain-0.3.1\windows\arm-none-eabi\include\c++\10.2.1\cmath ****       return atan2(__type(__y), __type(__x));
 159:e:\daisy\daisytoolchain-0.3.1\windows\arm-none-eabi\include\c++\10.2.1\cmath ****     }
 160:e:\daisy\daisytoolchain-0.3.1\windows\arm-none-eabi\include\c++\10.2.1\cmath **** 
 161:e:\daisy\daisytoolchain-0.3.1\windows\arm-none-eabi\include\c++\10.2.1\cmath ****   using ::ceil;
 162:e:\daisy\daisytoolchain-0.3.1\windows\arm-none-eabi\include\c++\10.2.1\cmath **** 
 163:e:\daisy\daisytoolchain-0.3.1\windows\arm-none-eabi\include\c++\10.2.1\cmath **** #ifndef __CORRECT_ISO_CPP_MATH_H_PROTO
 164:e:\daisy\daisytoolchain-0.3.1\windows\arm-none-eabi\include\c++\10.2.1\cmath ****   inline _GLIBCXX_CONSTEXPR float
 165:e:\daisy\daisytoolchain-0.3.1\windows\arm-none-eabi\include\c++\10.2.1\cmath ****   ceil(float __x)
 166:e:\daisy\daisytoolchain-0.3.1\windows\arm-none-eabi\include\c++\10.2.1\cmath ****   { return __builtin_ceilf(__x); }
 167:e:\daisy\daisytoolchain-0.3.1\windows\arm-none-eabi\include\c++\10.2.1\cmath **** 
 168:e:\daisy\daisytoolchain-0.3.1\windows\arm-none-eabi\include\c++\10.2.1\cmath ****   inline _GLIBCXX_CONSTEXPR long double
 169:e:\daisy\daisytoolchain-0.3.1\windows\arm-none-eabi\include\c++\10.2.1\cmath ****   ceil(long double __x)
ARM GAS  C:\Users\etpen\AppData\Local\Temp\cciw2fvE.s 			page 66


 170:e:\daisy\daisytoolchain-0.3.1\windows\arm-none-eabi\include\c++\10.2.1\cmath ****   { return __builtin_ceill(__x); }
 171:e:\daisy\daisytoolchain-0.3.1\windows\arm-none-eabi\include\c++\10.2.1\cmath **** #endif
 172:e:\daisy\daisytoolchain-0.3.1\windows\arm-none-eabi\include\c++\10.2.1\cmath **** 
 173:e:\daisy\daisytoolchain-0.3.1\windows\arm-none-eabi\include\c++\10.2.1\cmath ****   template<typename _Tp>
 174:e:\daisy\daisytoolchain-0.3.1\windows\arm-none-eabi\include\c++\10.2.1\cmath ****     inline _GLIBCXX_CONSTEXPR
 175:e:\daisy\daisytoolchain-0.3.1\windows\arm-none-eabi\include\c++\10.2.1\cmath ****     typename __gnu_cxx::__enable_if<__is_integer<_Tp>::__value, 
 176:e:\daisy\daisytoolchain-0.3.1\windows\arm-none-eabi\include\c++\10.2.1\cmath ****                                     double>::__type
 177:e:\daisy\daisytoolchain-0.3.1\windows\arm-none-eabi\include\c++\10.2.1\cmath ****     ceil(_Tp __x)
 178:e:\daisy\daisytoolchain-0.3.1\windows\arm-none-eabi\include\c++\10.2.1\cmath ****     { return __builtin_ceil(__x); }
 179:e:\daisy\daisytoolchain-0.3.1\windows\arm-none-eabi\include\c++\10.2.1\cmath **** 
 180:e:\daisy\daisytoolchain-0.3.1\windows\arm-none-eabi\include\c++\10.2.1\cmath ****   using ::cos;
 181:e:\daisy\daisytoolchain-0.3.1\windows\arm-none-eabi\include\c++\10.2.1\cmath **** 
 182:e:\daisy\daisytoolchain-0.3.1\windows\arm-none-eabi\include\c++\10.2.1\cmath **** #ifndef __CORRECT_ISO_CPP_MATH_H_PROTO
 183:e:\daisy\daisytoolchain-0.3.1\windows\arm-none-eabi\include\c++\10.2.1\cmath ****   inline _GLIBCXX_CONSTEXPR float
 184:e:\daisy\daisytoolchain-0.3.1\windows\arm-none-eabi\include\c++\10.2.1\cmath ****   cos(float __x)
 185:e:\daisy\daisytoolchain-0.3.1\windows\arm-none-eabi\include\c++\10.2.1\cmath ****   { return __builtin_cosf(__x); }
 1904              		.loc 16 185 26 view .LVU398
 1905 0050 B0EE680A 		vmov.f32	s0, s17
 1906 0054 FFF7FEFF 		bl	cosf
 1907              	.LVL137:
 1908              		.loc 16 185 26 view .LVU399
 1909              	.LBE988:
 1910              	.LBE987:
 315:../../libDaisy/src/hid/disp/display.h ****         start_y = -sin(start_angle_rad) * radius;
 1911              		.loc 6 315 17 view .LVU400
 1912 0058 07EE907A 		vmov	s15, r7	@ int
 313:../../libDaisy/src/hid/disp/display.h **** 
 1913              		.loc 6 313 25 view .LVU401
 1914 005c B7EECAAB 		vcvt.f32.f64	s20, d10
 1915              	.LVL138:
 1916              	.LBB991:
 1917              	.LBI987:
 184:e:\daisy\daisytoolchain-0.3.1\windows\arm-none-eabi\include\c++\10.2.1\cmath ****   { return __builtin_cosf(__x); }
 1918              		.loc 16 184 3 is_stmt 1 view .LVU402
 1919              	.LBB989:
 1920              		.loc 16 185 5 view .LVU403
 1921              		.loc 16 185 5 is_stmt 0 view .LVU404
 1922              	.LBE989:
 1923              	.LBE991:
 315:../../libDaisy/src/hid/disp/display.h ****         start_y = -sin(start_angle_rad) * radius;
 1924              		.loc 6 315 17 view .LVU405
 1925 0060 F8EE679A 		vcvt.f32.u32	s19, s15
 1926              	.LBB992:
 1927              	.LBB990:
 1928              		.loc 16 185 26 view .LVU406
 1929 0064 B0EE408A 		vmov.f32	s16, s0
 1930              	.LBE990:
 1931              	.LBE992:
 1932              	.LBB993:
 1933              	.LBB994:
 186:e:\daisy\daisytoolchain-0.3.1\windows\arm-none-eabi\include\c++\10.2.1\cmath **** 
 187:e:\daisy\daisytoolchain-0.3.1\windows\arm-none-eabi\include\c++\10.2.1\cmath ****   inline _GLIBCXX_CONSTEXPR long double
 188:e:\daisy\daisytoolchain-0.3.1\windows\arm-none-eabi\include\c++\10.2.1\cmath ****   cos(long double __x)
 189:e:\daisy\daisytoolchain-0.3.1\windows\arm-none-eabi\include\c++\10.2.1\cmath ****   { return __builtin_cosl(__x); }
 190:e:\daisy\daisytoolchain-0.3.1\windows\arm-none-eabi\include\c++\10.2.1\cmath **** #endif
 191:e:\daisy\daisytoolchain-0.3.1\windows\arm-none-eabi\include\c++\10.2.1\cmath **** 
 192:e:\daisy\daisytoolchain-0.3.1\windows\arm-none-eabi\include\c++\10.2.1\cmath ****   template<typename _Tp>
ARM GAS  C:\Users\etpen\AppData\Local\Temp\cciw2fvE.s 			page 67


 193:e:\daisy\daisytoolchain-0.3.1\windows\arm-none-eabi\include\c++\10.2.1\cmath ****     inline _GLIBCXX_CONSTEXPR
 194:e:\daisy\daisytoolchain-0.3.1\windows\arm-none-eabi\include\c++\10.2.1\cmath ****     typename __gnu_cxx::__enable_if<__is_integer<_Tp>::__value,
 195:e:\daisy\daisytoolchain-0.3.1\windows\arm-none-eabi\include\c++\10.2.1\cmath ****                                     double>::__type
 196:e:\daisy\daisytoolchain-0.3.1\windows\arm-none-eabi\include\c++\10.2.1\cmath ****     cos(_Tp __x)
 197:e:\daisy\daisytoolchain-0.3.1\windows\arm-none-eabi\include\c++\10.2.1\cmath ****     { return __builtin_cos(__x); }
 198:e:\daisy\daisytoolchain-0.3.1\windows\arm-none-eabi\include\c++\10.2.1\cmath **** 
 199:e:\daisy\daisytoolchain-0.3.1\windows\arm-none-eabi\include\c++\10.2.1\cmath ****   using ::cosh;
 200:e:\daisy\daisytoolchain-0.3.1\windows\arm-none-eabi\include\c++\10.2.1\cmath **** 
 201:e:\daisy\daisytoolchain-0.3.1\windows\arm-none-eabi\include\c++\10.2.1\cmath **** #ifndef __CORRECT_ISO_CPP_MATH_H_PROTO
 202:e:\daisy\daisytoolchain-0.3.1\windows\arm-none-eabi\include\c++\10.2.1\cmath ****   inline _GLIBCXX_CONSTEXPR float
 203:e:\daisy\daisytoolchain-0.3.1\windows\arm-none-eabi\include\c++\10.2.1\cmath ****   cosh(float __x)
 204:e:\daisy\daisytoolchain-0.3.1\windows\arm-none-eabi\include\c++\10.2.1\cmath ****   { return __builtin_coshf(__x); }
 205:e:\daisy\daisytoolchain-0.3.1\windows\arm-none-eabi\include\c++\10.2.1\cmath **** 
 206:e:\daisy\daisytoolchain-0.3.1\windows\arm-none-eabi\include\c++\10.2.1\cmath ****   inline _GLIBCXX_CONSTEXPR long double
 207:e:\daisy\daisytoolchain-0.3.1\windows\arm-none-eabi\include\c++\10.2.1\cmath ****   cosh(long double __x)
 208:e:\daisy\daisytoolchain-0.3.1\windows\arm-none-eabi\include\c++\10.2.1\cmath ****   { return __builtin_coshl(__x); }
 209:e:\daisy\daisytoolchain-0.3.1\windows\arm-none-eabi\include\c++\10.2.1\cmath **** #endif
 210:e:\daisy\daisytoolchain-0.3.1\windows\arm-none-eabi\include\c++\10.2.1\cmath **** 
 211:e:\daisy\daisytoolchain-0.3.1\windows\arm-none-eabi\include\c++\10.2.1\cmath ****   template<typename _Tp>
 212:e:\daisy\daisytoolchain-0.3.1\windows\arm-none-eabi\include\c++\10.2.1\cmath ****     inline _GLIBCXX_CONSTEXPR
 213:e:\daisy\daisytoolchain-0.3.1\windows\arm-none-eabi\include\c++\10.2.1\cmath ****     typename __gnu_cxx::__enable_if<__is_integer<_Tp>::__value,
 214:e:\daisy\daisytoolchain-0.3.1\windows\arm-none-eabi\include\c++\10.2.1\cmath ****                                     double>::__type
 215:e:\daisy\daisytoolchain-0.3.1\windows\arm-none-eabi\include\c++\10.2.1\cmath ****     cosh(_Tp __x)
 216:e:\daisy\daisytoolchain-0.3.1\windows\arm-none-eabi\include\c++\10.2.1\cmath ****     { return __builtin_cosh(__x); }
 217:e:\daisy\daisytoolchain-0.3.1\windows\arm-none-eabi\include\c++\10.2.1\cmath **** 
 218:e:\daisy\daisytoolchain-0.3.1\windows\arm-none-eabi\include\c++\10.2.1\cmath ****   using ::exp;
 219:e:\daisy\daisytoolchain-0.3.1\windows\arm-none-eabi\include\c++\10.2.1\cmath **** 
 220:e:\daisy\daisytoolchain-0.3.1\windows\arm-none-eabi\include\c++\10.2.1\cmath **** #ifndef __CORRECT_ISO_CPP_MATH_H_PROTO
 221:e:\daisy\daisytoolchain-0.3.1\windows\arm-none-eabi\include\c++\10.2.1\cmath ****   inline _GLIBCXX_CONSTEXPR float
 222:e:\daisy\daisytoolchain-0.3.1\windows\arm-none-eabi\include\c++\10.2.1\cmath ****   exp(float __x)
 223:e:\daisy\daisytoolchain-0.3.1\windows\arm-none-eabi\include\c++\10.2.1\cmath ****   { return __builtin_expf(__x); }
 224:e:\daisy\daisytoolchain-0.3.1\windows\arm-none-eabi\include\c++\10.2.1\cmath **** 
 225:e:\daisy\daisytoolchain-0.3.1\windows\arm-none-eabi\include\c++\10.2.1\cmath ****   inline _GLIBCXX_CONSTEXPR long double
 226:e:\daisy\daisytoolchain-0.3.1\windows\arm-none-eabi\include\c++\10.2.1\cmath ****   exp(long double __x)
 227:e:\daisy\daisytoolchain-0.3.1\windows\arm-none-eabi\include\c++\10.2.1\cmath ****   { return __builtin_expl(__x); }
 228:e:\daisy\daisytoolchain-0.3.1\windows\arm-none-eabi\include\c++\10.2.1\cmath **** #endif
 229:e:\daisy\daisytoolchain-0.3.1\windows\arm-none-eabi\include\c++\10.2.1\cmath **** 
 230:e:\daisy\daisytoolchain-0.3.1\windows\arm-none-eabi\include\c++\10.2.1\cmath ****   template<typename _Tp>
 231:e:\daisy\daisytoolchain-0.3.1\windows\arm-none-eabi\include\c++\10.2.1\cmath ****     inline _GLIBCXX_CONSTEXPR
 232:e:\daisy\daisytoolchain-0.3.1\windows\arm-none-eabi\include\c++\10.2.1\cmath ****     typename __gnu_cxx::__enable_if<__is_integer<_Tp>::__value,
 233:e:\daisy\daisytoolchain-0.3.1\windows\arm-none-eabi\include\c++\10.2.1\cmath ****                                     double>::__type
 234:e:\daisy\daisytoolchain-0.3.1\windows\arm-none-eabi\include\c++\10.2.1\cmath ****     exp(_Tp __x)
 235:e:\daisy\daisytoolchain-0.3.1\windows\arm-none-eabi\include\c++\10.2.1\cmath ****     { return __builtin_exp(__x); }
 236:e:\daisy\daisytoolchain-0.3.1\windows\arm-none-eabi\include\c++\10.2.1\cmath **** 
 237:e:\daisy\daisytoolchain-0.3.1\windows\arm-none-eabi\include\c++\10.2.1\cmath ****   using ::fabs;
 238:e:\daisy\daisytoolchain-0.3.1\windows\arm-none-eabi\include\c++\10.2.1\cmath **** 
 239:e:\daisy\daisytoolchain-0.3.1\windows\arm-none-eabi\include\c++\10.2.1\cmath **** #ifndef __CORRECT_ISO_CPP_MATH_H_PROTO
 240:e:\daisy\daisytoolchain-0.3.1\windows\arm-none-eabi\include\c++\10.2.1\cmath ****   inline _GLIBCXX_CONSTEXPR float
 241:e:\daisy\daisytoolchain-0.3.1\windows\arm-none-eabi\include\c++\10.2.1\cmath ****   fabs(float __x)
 242:e:\daisy\daisytoolchain-0.3.1\windows\arm-none-eabi\include\c++\10.2.1\cmath ****   { return __builtin_fabsf(__x); }
 243:e:\daisy\daisytoolchain-0.3.1\windows\arm-none-eabi\include\c++\10.2.1\cmath **** 
 244:e:\daisy\daisytoolchain-0.3.1\windows\arm-none-eabi\include\c++\10.2.1\cmath ****   inline _GLIBCXX_CONSTEXPR long double
 245:e:\daisy\daisytoolchain-0.3.1\windows\arm-none-eabi\include\c++\10.2.1\cmath ****   fabs(long double __x)
 246:e:\daisy\daisytoolchain-0.3.1\windows\arm-none-eabi\include\c++\10.2.1\cmath ****   { return __builtin_fabsl(__x); }
 247:e:\daisy\daisytoolchain-0.3.1\windows\arm-none-eabi\include\c++\10.2.1\cmath **** #endif
 248:e:\daisy\daisytoolchain-0.3.1\windows\arm-none-eabi\include\c++\10.2.1\cmath **** 
 249:e:\daisy\daisytoolchain-0.3.1\windows\arm-none-eabi\include\c++\10.2.1\cmath ****   template<typename _Tp>
ARM GAS  C:\Users\etpen\AppData\Local\Temp\cciw2fvE.s 			page 68


 250:e:\daisy\daisytoolchain-0.3.1\windows\arm-none-eabi\include\c++\10.2.1\cmath ****     inline _GLIBCXX_CONSTEXPR
 251:e:\daisy\daisytoolchain-0.3.1\windows\arm-none-eabi\include\c++\10.2.1\cmath ****     typename __gnu_cxx::__enable_if<__is_integer<_Tp>::__value,
 252:e:\daisy\daisytoolchain-0.3.1\windows\arm-none-eabi\include\c++\10.2.1\cmath ****                                     double>::__type
 253:e:\daisy\daisytoolchain-0.3.1\windows\arm-none-eabi\include\c++\10.2.1\cmath ****     fabs(_Tp __x)
 254:e:\daisy\daisytoolchain-0.3.1\windows\arm-none-eabi\include\c++\10.2.1\cmath ****     { return __builtin_fabs(__x); }
 255:e:\daisy\daisytoolchain-0.3.1\windows\arm-none-eabi\include\c++\10.2.1\cmath **** 
 256:e:\daisy\daisytoolchain-0.3.1\windows\arm-none-eabi\include\c++\10.2.1\cmath ****   using ::floor;
 257:e:\daisy\daisytoolchain-0.3.1\windows\arm-none-eabi\include\c++\10.2.1\cmath **** 
 258:e:\daisy\daisytoolchain-0.3.1\windows\arm-none-eabi\include\c++\10.2.1\cmath **** #ifndef __CORRECT_ISO_CPP_MATH_H_PROTO
 259:e:\daisy\daisytoolchain-0.3.1\windows\arm-none-eabi\include\c++\10.2.1\cmath ****   inline _GLIBCXX_CONSTEXPR float
 260:e:\daisy\daisytoolchain-0.3.1\windows\arm-none-eabi\include\c++\10.2.1\cmath ****   floor(float __x)
 261:e:\daisy\daisytoolchain-0.3.1\windows\arm-none-eabi\include\c++\10.2.1\cmath ****   { return __builtin_floorf(__x); }
 262:e:\daisy\daisytoolchain-0.3.1\windows\arm-none-eabi\include\c++\10.2.1\cmath **** 
 263:e:\daisy\daisytoolchain-0.3.1\windows\arm-none-eabi\include\c++\10.2.1\cmath ****   inline _GLIBCXX_CONSTEXPR long double
 264:e:\daisy\daisytoolchain-0.3.1\windows\arm-none-eabi\include\c++\10.2.1\cmath ****   floor(long double __x)
 265:e:\daisy\daisytoolchain-0.3.1\windows\arm-none-eabi\include\c++\10.2.1\cmath ****   { return __builtin_floorl(__x); }
 266:e:\daisy\daisytoolchain-0.3.1\windows\arm-none-eabi\include\c++\10.2.1\cmath **** #endif
 267:e:\daisy\daisytoolchain-0.3.1\windows\arm-none-eabi\include\c++\10.2.1\cmath **** 
 268:e:\daisy\daisytoolchain-0.3.1\windows\arm-none-eabi\include\c++\10.2.1\cmath ****   template<typename _Tp>
 269:e:\daisy\daisytoolchain-0.3.1\windows\arm-none-eabi\include\c++\10.2.1\cmath ****     inline _GLIBCXX_CONSTEXPR
 270:e:\daisy\daisytoolchain-0.3.1\windows\arm-none-eabi\include\c++\10.2.1\cmath ****     typename __gnu_cxx::__enable_if<__is_integer<_Tp>::__value,
 271:e:\daisy\daisytoolchain-0.3.1\windows\arm-none-eabi\include\c++\10.2.1\cmath ****                                     double>::__type
 272:e:\daisy\daisytoolchain-0.3.1\windows\arm-none-eabi\include\c++\10.2.1\cmath ****     floor(_Tp __x)
 273:e:\daisy\daisytoolchain-0.3.1\windows\arm-none-eabi\include\c++\10.2.1\cmath ****     { return __builtin_floor(__x); }
 274:e:\daisy\daisytoolchain-0.3.1\windows\arm-none-eabi\include\c++\10.2.1\cmath **** 
 275:e:\daisy\daisytoolchain-0.3.1\windows\arm-none-eabi\include\c++\10.2.1\cmath ****   using ::fmod;
 276:e:\daisy\daisytoolchain-0.3.1\windows\arm-none-eabi\include\c++\10.2.1\cmath **** 
 277:e:\daisy\daisytoolchain-0.3.1\windows\arm-none-eabi\include\c++\10.2.1\cmath **** #ifndef __CORRECT_ISO_CPP_MATH_H_PROTO
 278:e:\daisy\daisytoolchain-0.3.1\windows\arm-none-eabi\include\c++\10.2.1\cmath ****   inline _GLIBCXX_CONSTEXPR float
 279:e:\daisy\daisytoolchain-0.3.1\windows\arm-none-eabi\include\c++\10.2.1\cmath ****   fmod(float __x, float __y)
 280:e:\daisy\daisytoolchain-0.3.1\windows\arm-none-eabi\include\c++\10.2.1\cmath ****   { return __builtin_fmodf(__x, __y); }
 281:e:\daisy\daisytoolchain-0.3.1\windows\arm-none-eabi\include\c++\10.2.1\cmath **** 
 282:e:\daisy\daisytoolchain-0.3.1\windows\arm-none-eabi\include\c++\10.2.1\cmath ****   inline _GLIBCXX_CONSTEXPR long double
 283:e:\daisy\daisytoolchain-0.3.1\windows\arm-none-eabi\include\c++\10.2.1\cmath ****   fmod(long double __x, long double __y)
 284:e:\daisy\daisytoolchain-0.3.1\windows\arm-none-eabi\include\c++\10.2.1\cmath ****   { return __builtin_fmodl(__x, __y); }
 285:e:\daisy\daisytoolchain-0.3.1\windows\arm-none-eabi\include\c++\10.2.1\cmath **** #endif
 286:e:\daisy\daisytoolchain-0.3.1\windows\arm-none-eabi\include\c++\10.2.1\cmath **** 
 287:e:\daisy\daisytoolchain-0.3.1\windows\arm-none-eabi\include\c++\10.2.1\cmath ****   template<typename _Tp, typename _Up>
 288:e:\daisy\daisytoolchain-0.3.1\windows\arm-none-eabi\include\c++\10.2.1\cmath ****     inline _GLIBCXX_CONSTEXPR
 289:e:\daisy\daisytoolchain-0.3.1\windows\arm-none-eabi\include\c++\10.2.1\cmath ****     typename __gnu_cxx::__promote_2<_Tp, _Up>::__type
 290:e:\daisy\daisytoolchain-0.3.1\windows\arm-none-eabi\include\c++\10.2.1\cmath ****     fmod(_Tp __x, _Up __y)
 291:e:\daisy\daisytoolchain-0.3.1\windows\arm-none-eabi\include\c++\10.2.1\cmath ****     {
 292:e:\daisy\daisytoolchain-0.3.1\windows\arm-none-eabi\include\c++\10.2.1\cmath ****       typedef typename __gnu_cxx::__promote_2<_Tp, _Up>::__type __type;
 293:e:\daisy\daisytoolchain-0.3.1\windows\arm-none-eabi\include\c++\10.2.1\cmath ****       return fmod(__type(__x), __type(__y));
 294:e:\daisy\daisytoolchain-0.3.1\windows\arm-none-eabi\include\c++\10.2.1\cmath ****     }
 295:e:\daisy\daisytoolchain-0.3.1\windows\arm-none-eabi\include\c++\10.2.1\cmath **** 
 296:e:\daisy\daisytoolchain-0.3.1\windows\arm-none-eabi\include\c++\10.2.1\cmath ****   using ::frexp;
 297:e:\daisy\daisytoolchain-0.3.1\windows\arm-none-eabi\include\c++\10.2.1\cmath **** 
 298:e:\daisy\daisytoolchain-0.3.1\windows\arm-none-eabi\include\c++\10.2.1\cmath **** #ifndef __CORRECT_ISO_CPP_MATH_H_PROTO
 299:e:\daisy\daisytoolchain-0.3.1\windows\arm-none-eabi\include\c++\10.2.1\cmath ****   inline float
 300:e:\daisy\daisytoolchain-0.3.1\windows\arm-none-eabi\include\c++\10.2.1\cmath ****   frexp(float __x, int* __exp)
 301:e:\daisy\daisytoolchain-0.3.1\windows\arm-none-eabi\include\c++\10.2.1\cmath ****   { return __builtin_frexpf(__x, __exp); }
 302:e:\daisy\daisytoolchain-0.3.1\windows\arm-none-eabi\include\c++\10.2.1\cmath **** 
 303:e:\daisy\daisytoolchain-0.3.1\windows\arm-none-eabi\include\c++\10.2.1\cmath ****   inline long double
 304:e:\daisy\daisytoolchain-0.3.1\windows\arm-none-eabi\include\c++\10.2.1\cmath ****   frexp(long double __x, int* __exp)
 305:e:\daisy\daisytoolchain-0.3.1\windows\arm-none-eabi\include\c++\10.2.1\cmath ****   { return __builtin_frexpl(__x, __exp); }
 306:e:\daisy\daisytoolchain-0.3.1\windows\arm-none-eabi\include\c++\10.2.1\cmath **** #endif
ARM GAS  C:\Users\etpen\AppData\Local\Temp\cciw2fvE.s 			page 69


 307:e:\daisy\daisytoolchain-0.3.1\windows\arm-none-eabi\include\c++\10.2.1\cmath **** 
 308:e:\daisy\daisytoolchain-0.3.1\windows\arm-none-eabi\include\c++\10.2.1\cmath ****   template<typename _Tp>
 309:e:\daisy\daisytoolchain-0.3.1\windows\arm-none-eabi\include\c++\10.2.1\cmath ****     inline _GLIBCXX_CONSTEXPR
 310:e:\daisy\daisytoolchain-0.3.1\windows\arm-none-eabi\include\c++\10.2.1\cmath ****     typename __gnu_cxx::__enable_if<__is_integer<_Tp>::__value, 
 311:e:\daisy\daisytoolchain-0.3.1\windows\arm-none-eabi\include\c++\10.2.1\cmath ****                                     double>::__type
 312:e:\daisy\daisytoolchain-0.3.1\windows\arm-none-eabi\include\c++\10.2.1\cmath ****     frexp(_Tp __x, int* __exp)
 313:e:\daisy\daisytoolchain-0.3.1\windows\arm-none-eabi\include\c++\10.2.1\cmath ****     { return __builtin_frexp(__x, __exp); }
 314:e:\daisy\daisytoolchain-0.3.1\windows\arm-none-eabi\include\c++\10.2.1\cmath **** 
 315:e:\daisy\daisytoolchain-0.3.1\windows\arm-none-eabi\include\c++\10.2.1\cmath ****   using ::ldexp;
 316:e:\daisy\daisytoolchain-0.3.1\windows\arm-none-eabi\include\c++\10.2.1\cmath **** 
 317:e:\daisy\daisytoolchain-0.3.1\windows\arm-none-eabi\include\c++\10.2.1\cmath **** #ifndef __CORRECT_ISO_CPP_MATH_H_PROTO
 318:e:\daisy\daisytoolchain-0.3.1\windows\arm-none-eabi\include\c++\10.2.1\cmath ****   inline _GLIBCXX_CONSTEXPR float
 319:e:\daisy\daisytoolchain-0.3.1\windows\arm-none-eabi\include\c++\10.2.1\cmath ****   ldexp(float __x, int __exp)
 320:e:\daisy\daisytoolchain-0.3.1\windows\arm-none-eabi\include\c++\10.2.1\cmath ****   { return __builtin_ldexpf(__x, __exp); }
 321:e:\daisy\daisytoolchain-0.3.1\windows\arm-none-eabi\include\c++\10.2.1\cmath **** 
 322:e:\daisy\daisytoolchain-0.3.1\windows\arm-none-eabi\include\c++\10.2.1\cmath ****   inline _GLIBCXX_CONSTEXPR long double
 323:e:\daisy\daisytoolchain-0.3.1\windows\arm-none-eabi\include\c++\10.2.1\cmath ****   ldexp(long double __x, int __exp)
 324:e:\daisy\daisytoolchain-0.3.1\windows\arm-none-eabi\include\c++\10.2.1\cmath ****   { return __builtin_ldexpl(__x, __exp); }
 325:e:\daisy\daisytoolchain-0.3.1\windows\arm-none-eabi\include\c++\10.2.1\cmath **** #endif
 326:e:\daisy\daisytoolchain-0.3.1\windows\arm-none-eabi\include\c++\10.2.1\cmath **** 
 327:e:\daisy\daisytoolchain-0.3.1\windows\arm-none-eabi\include\c++\10.2.1\cmath ****   template<typename _Tp>
 328:e:\daisy\daisytoolchain-0.3.1\windows\arm-none-eabi\include\c++\10.2.1\cmath ****     inline _GLIBCXX_CONSTEXPR
 329:e:\daisy\daisytoolchain-0.3.1\windows\arm-none-eabi\include\c++\10.2.1\cmath ****     typename __gnu_cxx::__enable_if<__is_integer<_Tp>::__value, 
 330:e:\daisy\daisytoolchain-0.3.1\windows\arm-none-eabi\include\c++\10.2.1\cmath ****                                     double>::__type
 331:e:\daisy\daisytoolchain-0.3.1\windows\arm-none-eabi\include\c++\10.2.1\cmath ****     ldexp(_Tp __x, int __exp)
 332:e:\daisy\daisytoolchain-0.3.1\windows\arm-none-eabi\include\c++\10.2.1\cmath ****     { return __builtin_ldexp(__x, __exp); }
 333:e:\daisy\daisytoolchain-0.3.1\windows\arm-none-eabi\include\c++\10.2.1\cmath **** 
 334:e:\daisy\daisytoolchain-0.3.1\windows\arm-none-eabi\include\c++\10.2.1\cmath ****   using ::log;
 335:e:\daisy\daisytoolchain-0.3.1\windows\arm-none-eabi\include\c++\10.2.1\cmath **** 
 336:e:\daisy\daisytoolchain-0.3.1\windows\arm-none-eabi\include\c++\10.2.1\cmath **** #ifndef __CORRECT_ISO_CPP_MATH_H_PROTO
 337:e:\daisy\daisytoolchain-0.3.1\windows\arm-none-eabi\include\c++\10.2.1\cmath ****   inline _GLIBCXX_CONSTEXPR float
 338:e:\daisy\daisytoolchain-0.3.1\windows\arm-none-eabi\include\c++\10.2.1\cmath ****   log(float __x)
 339:e:\daisy\daisytoolchain-0.3.1\windows\arm-none-eabi\include\c++\10.2.1\cmath ****   { return __builtin_logf(__x); }
 340:e:\daisy\daisytoolchain-0.3.1\windows\arm-none-eabi\include\c++\10.2.1\cmath **** 
 341:e:\daisy\daisytoolchain-0.3.1\windows\arm-none-eabi\include\c++\10.2.1\cmath ****   inline _GLIBCXX_CONSTEXPR long double
 342:e:\daisy\daisytoolchain-0.3.1\windows\arm-none-eabi\include\c++\10.2.1\cmath ****   log(long double __x)
 343:e:\daisy\daisytoolchain-0.3.1\windows\arm-none-eabi\include\c++\10.2.1\cmath ****   { return __builtin_logl(__x); }
 344:e:\daisy\daisytoolchain-0.3.1\windows\arm-none-eabi\include\c++\10.2.1\cmath **** #endif
 345:e:\daisy\daisytoolchain-0.3.1\windows\arm-none-eabi\include\c++\10.2.1\cmath **** 
 346:e:\daisy\daisytoolchain-0.3.1\windows\arm-none-eabi\include\c++\10.2.1\cmath ****   template<typename _Tp>
 347:e:\daisy\daisytoolchain-0.3.1\windows\arm-none-eabi\include\c++\10.2.1\cmath ****     inline _GLIBCXX_CONSTEXPR
 348:e:\daisy\daisytoolchain-0.3.1\windows\arm-none-eabi\include\c++\10.2.1\cmath ****     typename __gnu_cxx::__enable_if<__is_integer<_Tp>::__value, 
 349:e:\daisy\daisytoolchain-0.3.1\windows\arm-none-eabi\include\c++\10.2.1\cmath ****                                     double>::__type
 350:e:\daisy\daisytoolchain-0.3.1\windows\arm-none-eabi\include\c++\10.2.1\cmath ****     log(_Tp __x)
 351:e:\daisy\daisytoolchain-0.3.1\windows\arm-none-eabi\include\c++\10.2.1\cmath ****     { return __builtin_log(__x); }
 352:e:\daisy\daisytoolchain-0.3.1\windows\arm-none-eabi\include\c++\10.2.1\cmath **** 
 353:e:\daisy\daisytoolchain-0.3.1\windows\arm-none-eabi\include\c++\10.2.1\cmath ****   using ::log10;
 354:e:\daisy\daisytoolchain-0.3.1\windows\arm-none-eabi\include\c++\10.2.1\cmath **** 
 355:e:\daisy\daisytoolchain-0.3.1\windows\arm-none-eabi\include\c++\10.2.1\cmath **** #ifndef __CORRECT_ISO_CPP_MATH_H_PROTO
 356:e:\daisy\daisytoolchain-0.3.1\windows\arm-none-eabi\include\c++\10.2.1\cmath ****   inline _GLIBCXX_CONSTEXPR float
 357:e:\daisy\daisytoolchain-0.3.1\windows\arm-none-eabi\include\c++\10.2.1\cmath ****   log10(float __x)
 358:e:\daisy\daisytoolchain-0.3.1\windows\arm-none-eabi\include\c++\10.2.1\cmath ****   { return __builtin_log10f(__x); }
 359:e:\daisy\daisytoolchain-0.3.1\windows\arm-none-eabi\include\c++\10.2.1\cmath **** 
 360:e:\daisy\daisytoolchain-0.3.1\windows\arm-none-eabi\include\c++\10.2.1\cmath ****   inline _GLIBCXX_CONSTEXPR long double
 361:e:\daisy\daisytoolchain-0.3.1\windows\arm-none-eabi\include\c++\10.2.1\cmath ****   log10(long double __x)
 362:e:\daisy\daisytoolchain-0.3.1\windows\arm-none-eabi\include\c++\10.2.1\cmath ****   { return __builtin_log10l(__x); }
 363:e:\daisy\daisytoolchain-0.3.1\windows\arm-none-eabi\include\c++\10.2.1\cmath **** #endif
ARM GAS  C:\Users\etpen\AppData\Local\Temp\cciw2fvE.s 			page 70


 364:e:\daisy\daisytoolchain-0.3.1\windows\arm-none-eabi\include\c++\10.2.1\cmath **** 
 365:e:\daisy\daisytoolchain-0.3.1\windows\arm-none-eabi\include\c++\10.2.1\cmath ****   template<typename _Tp>
 366:e:\daisy\daisytoolchain-0.3.1\windows\arm-none-eabi\include\c++\10.2.1\cmath ****     inline _GLIBCXX_CONSTEXPR
 367:e:\daisy\daisytoolchain-0.3.1\windows\arm-none-eabi\include\c++\10.2.1\cmath ****     typename __gnu_cxx::__enable_if<__is_integer<_Tp>::__value,
 368:e:\daisy\daisytoolchain-0.3.1\windows\arm-none-eabi\include\c++\10.2.1\cmath ****                                     double>::__type
 369:e:\daisy\daisytoolchain-0.3.1\windows\arm-none-eabi\include\c++\10.2.1\cmath ****     log10(_Tp __x)
 370:e:\daisy\daisytoolchain-0.3.1\windows\arm-none-eabi\include\c++\10.2.1\cmath ****     { return __builtin_log10(__x); }
 371:e:\daisy\daisytoolchain-0.3.1\windows\arm-none-eabi\include\c++\10.2.1\cmath **** 
 372:e:\daisy\daisytoolchain-0.3.1\windows\arm-none-eabi\include\c++\10.2.1\cmath ****   using ::modf;
 373:e:\daisy\daisytoolchain-0.3.1\windows\arm-none-eabi\include\c++\10.2.1\cmath **** 
 374:e:\daisy\daisytoolchain-0.3.1\windows\arm-none-eabi\include\c++\10.2.1\cmath **** #ifndef __CORRECT_ISO_CPP_MATH_H_PROTO
 375:e:\daisy\daisytoolchain-0.3.1\windows\arm-none-eabi\include\c++\10.2.1\cmath ****   inline float
 376:e:\daisy\daisytoolchain-0.3.1\windows\arm-none-eabi\include\c++\10.2.1\cmath ****   modf(float __x, float* __iptr)
 377:e:\daisy\daisytoolchain-0.3.1\windows\arm-none-eabi\include\c++\10.2.1\cmath ****   { return __builtin_modff(__x, __iptr); }
 378:e:\daisy\daisytoolchain-0.3.1\windows\arm-none-eabi\include\c++\10.2.1\cmath **** 
 379:e:\daisy\daisytoolchain-0.3.1\windows\arm-none-eabi\include\c++\10.2.1\cmath ****   inline long double
 380:e:\daisy\daisytoolchain-0.3.1\windows\arm-none-eabi\include\c++\10.2.1\cmath ****   modf(long double __x, long double* __iptr)
 381:e:\daisy\daisytoolchain-0.3.1\windows\arm-none-eabi\include\c++\10.2.1\cmath ****   { return __builtin_modfl(__x, __iptr); }
 382:e:\daisy\daisytoolchain-0.3.1\windows\arm-none-eabi\include\c++\10.2.1\cmath **** #endif
 383:e:\daisy\daisytoolchain-0.3.1\windows\arm-none-eabi\include\c++\10.2.1\cmath **** 
 384:e:\daisy\daisytoolchain-0.3.1\windows\arm-none-eabi\include\c++\10.2.1\cmath ****   using ::pow;
 385:e:\daisy\daisytoolchain-0.3.1\windows\arm-none-eabi\include\c++\10.2.1\cmath **** 
 386:e:\daisy\daisytoolchain-0.3.1\windows\arm-none-eabi\include\c++\10.2.1\cmath **** #ifndef __CORRECT_ISO_CPP_MATH_H_PROTO
 387:e:\daisy\daisytoolchain-0.3.1\windows\arm-none-eabi\include\c++\10.2.1\cmath ****   inline _GLIBCXX_CONSTEXPR float
 388:e:\daisy\daisytoolchain-0.3.1\windows\arm-none-eabi\include\c++\10.2.1\cmath ****   pow(float __x, float __y)
 389:e:\daisy\daisytoolchain-0.3.1\windows\arm-none-eabi\include\c++\10.2.1\cmath ****   { return __builtin_powf(__x, __y); }
 390:e:\daisy\daisytoolchain-0.3.1\windows\arm-none-eabi\include\c++\10.2.1\cmath **** 
 391:e:\daisy\daisytoolchain-0.3.1\windows\arm-none-eabi\include\c++\10.2.1\cmath ****   inline _GLIBCXX_CONSTEXPR long double
 392:e:\daisy\daisytoolchain-0.3.1\windows\arm-none-eabi\include\c++\10.2.1\cmath ****   pow(long double __x, long double __y)
 393:e:\daisy\daisytoolchain-0.3.1\windows\arm-none-eabi\include\c++\10.2.1\cmath ****   { return __builtin_powl(__x, __y); }
 394:e:\daisy\daisytoolchain-0.3.1\windows\arm-none-eabi\include\c++\10.2.1\cmath **** 
 395:e:\daisy\daisytoolchain-0.3.1\windows\arm-none-eabi\include\c++\10.2.1\cmath **** #if __cplusplus < 201103L
 396:e:\daisy\daisytoolchain-0.3.1\windows\arm-none-eabi\include\c++\10.2.1\cmath ****   // _GLIBCXX_RESOLVE_LIB_DEFECTS
 397:e:\daisy\daisytoolchain-0.3.1\windows\arm-none-eabi\include\c++\10.2.1\cmath ****   // DR 550. What should the return type of pow(float,int) be?
 398:e:\daisy\daisytoolchain-0.3.1\windows\arm-none-eabi\include\c++\10.2.1\cmath ****   inline double
 399:e:\daisy\daisytoolchain-0.3.1\windows\arm-none-eabi\include\c++\10.2.1\cmath ****   pow(double __x, int __i)
 400:e:\daisy\daisytoolchain-0.3.1\windows\arm-none-eabi\include\c++\10.2.1\cmath ****   { return __builtin_powi(__x, __i); }
 401:e:\daisy\daisytoolchain-0.3.1\windows\arm-none-eabi\include\c++\10.2.1\cmath **** 
 402:e:\daisy\daisytoolchain-0.3.1\windows\arm-none-eabi\include\c++\10.2.1\cmath ****   inline float
 403:e:\daisy\daisytoolchain-0.3.1\windows\arm-none-eabi\include\c++\10.2.1\cmath ****   pow(float __x, int __n)
 404:e:\daisy\daisytoolchain-0.3.1\windows\arm-none-eabi\include\c++\10.2.1\cmath ****   { return __builtin_powif(__x, __n); }
 405:e:\daisy\daisytoolchain-0.3.1\windows\arm-none-eabi\include\c++\10.2.1\cmath **** 
 406:e:\daisy\daisytoolchain-0.3.1\windows\arm-none-eabi\include\c++\10.2.1\cmath ****   inline long double
 407:e:\daisy\daisytoolchain-0.3.1\windows\arm-none-eabi\include\c++\10.2.1\cmath ****   pow(long double __x, int __n)
 408:e:\daisy\daisytoolchain-0.3.1\windows\arm-none-eabi\include\c++\10.2.1\cmath ****   { return __builtin_powil(__x, __n); }
 409:e:\daisy\daisytoolchain-0.3.1\windows\arm-none-eabi\include\c++\10.2.1\cmath **** #endif
 410:e:\daisy\daisytoolchain-0.3.1\windows\arm-none-eabi\include\c++\10.2.1\cmath **** #endif
 411:e:\daisy\daisytoolchain-0.3.1\windows\arm-none-eabi\include\c++\10.2.1\cmath **** 
 412:e:\daisy\daisytoolchain-0.3.1\windows\arm-none-eabi\include\c++\10.2.1\cmath ****   template<typename _Tp, typename _Up>
 413:e:\daisy\daisytoolchain-0.3.1\windows\arm-none-eabi\include\c++\10.2.1\cmath ****     inline _GLIBCXX_CONSTEXPR
 414:e:\daisy\daisytoolchain-0.3.1\windows\arm-none-eabi\include\c++\10.2.1\cmath ****     typename __gnu_cxx::__promote_2<_Tp, _Up>::__type
 415:e:\daisy\daisytoolchain-0.3.1\windows\arm-none-eabi\include\c++\10.2.1\cmath ****     pow(_Tp __x, _Up __y)
 416:e:\daisy\daisytoolchain-0.3.1\windows\arm-none-eabi\include\c++\10.2.1\cmath ****     {
 417:e:\daisy\daisytoolchain-0.3.1\windows\arm-none-eabi\include\c++\10.2.1\cmath ****       typedef typename __gnu_cxx::__promote_2<_Tp, _Up>::__type __type;
 418:e:\daisy\daisytoolchain-0.3.1\windows\arm-none-eabi\include\c++\10.2.1\cmath ****       return pow(__type(__x), __type(__y));
 419:e:\daisy\daisytoolchain-0.3.1\windows\arm-none-eabi\include\c++\10.2.1\cmath ****     }
 420:e:\daisy\daisytoolchain-0.3.1\windows\arm-none-eabi\include\c++\10.2.1\cmath **** 
ARM GAS  C:\Users\etpen\AppData\Local\Temp\cciw2fvE.s 			page 71


 421:e:\daisy\daisytoolchain-0.3.1\windows\arm-none-eabi\include\c++\10.2.1\cmath ****   using ::sin;
 422:e:\daisy\daisytoolchain-0.3.1\windows\arm-none-eabi\include\c++\10.2.1\cmath **** 
 423:e:\daisy\daisytoolchain-0.3.1\windows\arm-none-eabi\include\c++\10.2.1\cmath **** #ifndef __CORRECT_ISO_CPP_MATH_H_PROTO
 424:e:\daisy\daisytoolchain-0.3.1\windows\arm-none-eabi\include\c++\10.2.1\cmath ****   inline _GLIBCXX_CONSTEXPR float
 425:e:\daisy\daisytoolchain-0.3.1\windows\arm-none-eabi\include\c++\10.2.1\cmath ****   sin(float __x)
 426:e:\daisy\daisytoolchain-0.3.1\windows\arm-none-eabi\include\c++\10.2.1\cmath ****   { return __builtin_sinf(__x); }
 1934              		.loc 16 426 26 view .LVU407
 1935 0068 B0EE680A 		vmov.f32	s0, s17
 1936 006c FFF7FEFF 		bl	sinf
 1937              	.LVL139:
 1938              	.LBE994:
 1939              	.LBE993:
 316:../../libDaisy/src/hid/disp/display.h ****         end_x   = cos(end_angle_rad) * radius;
 1940              		.loc 6 316 17 view .LVU408
 1941 0070 60EE698A 		vnmul.f32	s17, s0, s19
 1942              	.LVL140:
 1943              	.LBB996:
 1944              	.LBB997:
 185:e:\daisy\daisytoolchain-0.3.1\windows\arm-none-eabi\include\c++\10.2.1\cmath **** 
 1945              		.loc 16 185 26 view .LVU409
 1946 0074 B0EE4A0A 		vmov.f32	s0, s20
 1947 0078 FFF7FEFF 		bl	cosf
 1948              	.LVL141:
 1949 007c B0EE409A 		vmov.f32	s18, s0
 1950              	.LBE997:
 1951              	.LBE996:
 1952              	.LBB999:
 1953              	.LBB1000:
 1954              		.loc 16 426 26 view .LVU410
 1955 0080 B0EE4A0A 		vmov.f32	s0, s20
 1956 0084 FFF7FEFF 		bl	sinf
 1957              	.LVL142:
 1958              	.LBE1000:
 1959              	.LBE999:
 318:../../libDaisy/src/hid/disp/display.h **** 
 1960              		.loc 6 318 17 view .LVU411
 1961 0088 20EE690A 		vnmul.f32	s0, s0, s19
 315:../../libDaisy/src/hid/disp/display.h ****         start_y = -sin(start_angle_rad) * radius;
 1962              		.loc 6 315 17 view .LVU412
 1963 008c 29EE888A 		vmul.f32	s16, s19, s16
 1964              	.LVL143:
 1965              	.LBB1002:
 1966              	.LBI993:
 425:e:\daisy\daisytoolchain-0.3.1\windows\arm-none-eabi\include\c++\10.2.1\cmath ****   { return __builtin_sinf(__x); }
