ARM GAS  /tmp/cczJxVBI.s 			page 1


   1              		.cpu cortex-m7
   2              		.eabi_attribute 28, 1
   3              		.eabi_attribute 20, 1
   4              		.eabi_attribute 21, 1
   5              		.eabi_attribute 23, 3
   6              		.eabi_attribute 24, 1
   7              		.eabi_attribute 25, 1
   8              		.eabi_attribute 26, 1
   9              		.eabi_attribute 30, 2
  10              		.eabi_attribute 34, 1
  11              		.eabi_attribute 18, 4
  12              		.file	"oscillator.cpp"
  13              		.text
  14              	.Ltext0:
  15              		.cfi_sections	.debug_frame
  16              		.section	.text._ZN7daisysp10OscillatorD2Ev,"axG",%progbits,_ZN7daisysp10OscillatorD5Ev,comdat
  17              		.align	1
  18              		.p2align 2,,3
  19              		.weak	_ZN7daisysp10OscillatorD2Ev
  20              		.arch armv7e-m
  21              		.syntax unified
  22              		.thumb
  23              		.thumb_func
  24              		.fpu fpv5-d16
  26              	_ZN7daisysp10OscillatorD2Ev:
  27              	.LVL0:
  28              	.LFB2797:
  29              		.file 1 "../../DaisySP/Source/Synthesis/oscillator.h"
   1:../../DaisySP/Source/Synthesis/oscillator.h **** #pragma once
   2:../../DaisySP/Source/Synthesis/oscillator.h **** #ifndef DSY_OSCILLATOR_H
   3:../../DaisySP/Source/Synthesis/oscillator.h **** #define DSY_OSCILLATOR_H
   4:../../DaisySP/Source/Synthesis/oscillator.h **** #include <stdint.h>
   5:../../DaisySP/Source/Synthesis/oscillator.h **** #include "Utility/dsp.h"
   6:../../DaisySP/Source/Synthesis/oscillator.h **** #ifdef __cplusplus
   7:../../DaisySP/Source/Synthesis/oscillator.h **** 
   8:../../DaisySP/Source/Synthesis/oscillator.h **** namespace daisysp
   9:../../DaisySP/Source/Synthesis/oscillator.h **** {
  10:../../DaisySP/Source/Synthesis/oscillator.h **** /** Synthesis of several waveforms, including polyBLEP bandlimited waveforms.
  11:../../DaisySP/Source/Synthesis/oscillator.h **** */
  12:../../DaisySP/Source/Synthesis/oscillator.h **** class Oscillator
  13:../../DaisySP/Source/Synthesis/oscillator.h **** {
  14:../../DaisySP/Source/Synthesis/oscillator.h ****   public:
  15:../../DaisySP/Source/Synthesis/oscillator.h ****     Oscillator() {}
  16:../../DaisySP/Source/Synthesis/oscillator.h ****     ~Oscillator() {}
  30              		.loc 1 16 5 view -0
  31              		.cfi_startproc
  32              		@ args = 0, pretend = 0, frame = 0
  33              		@ frame_needed = 0, uses_anonymous_args = 0
  34              		@ link register save eliminated.
  35              		.loc 1 16 20 is_stmt 0 view .LVU1
  36 0000 7047     		bx	lr
  37              		.cfi_endproc
  38              	.LFE2797:
  40              		.weak	_ZN7daisysp10OscillatorD1Ev
  41              		.thumb_set _ZN7daisysp10OscillatorD1Ev,_ZN7daisysp10OscillatorD2Ev
  42 0002 00BF     		.section	.text._ZN5daisy9DaisySeedD2Ev,"axG",%progbits,_ZN5daisy9DaisySeedD5Ev,comdat
  43              		.align	1
ARM GAS  /tmp/cczJxVBI.s 			page 2


  44              		.p2align 2,,3
  45              		.weak	_ZN5daisy9DaisySeedD2Ev
  46              		.syntax unified
  47              		.thumb
  48              		.thumb_func
  49              		.fpu fpv5-d16
  51              	_ZN5daisy9DaisySeedD2Ev:
  52              	.LVL1:
  53              	.LFB4207:
  54              		.file 2 "../../libdaisy/src/daisy_seed.h"
   1:../../libdaisy/src/daisy_seed.h **** #pragma once
   2:../../libdaisy/src/daisy_seed.h **** #ifndef DSY_SEED_H
   3:../../libdaisy/src/daisy_seed.h **** #define DSY_SEED_H
   4:../../libdaisy/src/daisy_seed.h **** 
   5:../../libdaisy/src/daisy_seed.h **** #include "daisy.h"
   6:../../libdaisy/src/daisy_seed.h **** 
   7:../../libdaisy/src/daisy_seed.h **** //Uncomment this out if you're still using the rev2 hardware
   8:../../libdaisy/src/daisy_seed.h **** //#define SEED_REV2
   9:../../libdaisy/src/daisy_seed.h **** 
  10:../../libdaisy/src/daisy_seed.h **** namespace daisy
  11:../../libdaisy/src/daisy_seed.h **** {
  12:../../libdaisy/src/daisy_seed.h **** /**
  13:../../libdaisy/src/daisy_seed.h ****    @brief This is the higher-level interface for the Daisy board. \n 
  14:../../libdaisy/src/daisy_seed.h ****     All basic peripheral configuration/initialization is setup here. \n
  15:../../libdaisy/src/daisy_seed.h **** 
  16:../../libdaisy/src/daisy_seed.h ****    @ingroup boards
  17:../../libdaisy/src/daisy_seed.h **** */
  18:../../libdaisy/src/daisy_seed.h **** class DaisySeed
  19:../../libdaisy/src/daisy_seed.h **** {
  20:../../libdaisy/src/daisy_seed.h ****   public:
  21:../../libdaisy/src/daisy_seed.h ****     DaisySeed() {}
  22:../../libdaisy/src/daisy_seed.h ****     ~DaisySeed() {}
  55              		.loc 2 22 5 is_stmt 1 view -0
  56              		.cfi_startproc
  57              		@ args = 0, pretend = 0, frame = 0
  58              		@ frame_needed = 0, uses_anonymous_args = 0
  59              		@ link register save eliminated.
  60              	.LBB65:
  61              	.LBI65:
  62              		.file 3 "../../libdaisy/src/sys/system.h"
   1:../../libdaisy/src/sys/system.h **** #ifndef DSY_SYSTEM_H
   2:../../libdaisy/src/sys/system.h **** #define DSY_SYSTEM_H
   3:../../libdaisy/src/sys/system.h **** 
   4:../../libdaisy/src/sys/system.h **** #ifndef UNIT_TEST // for unit tests, a dummy implementation is provided below
   5:../../libdaisy/src/sys/system.h **** 
   6:../../libdaisy/src/sys/system.h **** #include <cstdint>
   7:../../libdaisy/src/sys/system.h **** #include "per/tim.h"
   8:../../libdaisy/src/sys/system.h **** 
   9:../../libdaisy/src/sys/system.h **** namespace daisy
  10:../../libdaisy/src/sys/system.h **** {
  11:../../libdaisy/src/sys/system.h **** /** A handle for interacting with the Core System. 
  12:../../libdaisy/src/sys/system.h ****  ** This includes the Clock tree, MPU, global DMA initialization,
  13:../../libdaisy/src/sys/system.h ****  ** cache handling, and any other necessary global initiailzation
  14:../../libdaisy/src/sys/system.h ****  **
  15:../../libdaisy/src/sys/system.h ****  ** @author shensley
  16:../../libdaisy/src/sys/system.h ****  ** @addtogroup system
  17:../../libdaisy/src/sys/system.h ****  */
ARM GAS  /tmp/cczJxVBI.s 			page 3


  18:../../libdaisy/src/sys/system.h **** class System
  19:../../libdaisy/src/sys/system.h **** {
  20:../../libdaisy/src/sys/system.h ****   public:
  21:../../libdaisy/src/sys/system.h ****     /** Contains settings for initializing the System */
  22:../../libdaisy/src/sys/system.h ****     struct Config
  23:../../libdaisy/src/sys/system.h ****     {
  24:../../libdaisy/src/sys/system.h ****         /** Specifies the system clock frequency that feeds APB/AHB clocks, etc. */
  25:../../libdaisy/src/sys/system.h ****         enum class SysClkFreq
  26:../../libdaisy/src/sys/system.h ****         {
  27:../../libdaisy/src/sys/system.h ****             FREQ_400MHZ,
  28:../../libdaisy/src/sys/system.h ****             FREQ_480MHZ,
  29:../../libdaisy/src/sys/system.h ****         };
  30:../../libdaisy/src/sys/system.h **** 
  31:../../libdaisy/src/sys/system.h ****         /** Method to call on the struct to set to defaults
  32:../../libdaisy/src/sys/system.h ****          ** CPU Freq set to 400MHz
  33:../../libdaisy/src/sys/system.h ****          ** Cache Enabled 
  34:../../libdaisy/src/sys/system.h ****          ** */
  35:../../libdaisy/src/sys/system.h ****         void Defaults()
  36:../../libdaisy/src/sys/system.h ****         {
  37:../../libdaisy/src/sys/system.h ****             cpu_freq   = SysClkFreq::FREQ_400MHZ;
  38:../../libdaisy/src/sys/system.h ****             use_dcache = true;
  39:../../libdaisy/src/sys/system.h ****             use_icache = true;
  40:../../libdaisy/src/sys/system.h ****         }
  41:../../libdaisy/src/sys/system.h **** 
  42:../../libdaisy/src/sys/system.h ****         /** Method to call on the struct to set to boost mode:
  43:../../libdaisy/src/sys/system.h ****          ** CPU Freq set to 480MHz
  44:../../libdaisy/src/sys/system.h ****          ** Cache Enabled 
  45:../../libdaisy/src/sys/system.h ****          ** */
  46:../../libdaisy/src/sys/system.h ****         void Boost()
  47:../../libdaisy/src/sys/system.h ****         {
  48:../../libdaisy/src/sys/system.h ****             cpu_freq   = SysClkFreq::FREQ_480MHZ;
  49:../../libdaisy/src/sys/system.h ****             use_dcache = true;
  50:../../libdaisy/src/sys/system.h ****             use_icache = true;
  51:../../libdaisy/src/sys/system.h ****         }
  52:../../libdaisy/src/sys/system.h **** 
  53:../../libdaisy/src/sys/system.h ****         SysClkFreq cpu_freq;
  54:../../libdaisy/src/sys/system.h ****         bool       use_dcache;
  55:../../libdaisy/src/sys/system.h ****         bool       use_icache;
  56:../../libdaisy/src/sys/system.h ****     };
  57:../../libdaisy/src/sys/system.h **** 
  58:../../libdaisy/src/sys/system.h ****     System() {}
  59:../../libdaisy/src/sys/system.h ****     ~System() {}
  63              		.loc 3 59 5 view .LVU3
  64              		.loc 3 59 5 is_stmt 0 view .LVU4
  65              	.LBE65:
  66              	.LBB66:
  67              	.LBI66:
  68              		.file 4 "../../libdaisy/src/hid/usb.h"
   1:../../libdaisy/src/hid/usb.h **** #pragma once
   2:../../libdaisy/src/hid/usb.h **** #ifndef DSY_HID_USB_H
   3:../../libdaisy/src/hid/usb.h **** #define DSY_HID_USB_H
   4:../../libdaisy/src/hid/usb.h **** #include <stdint.h>
   5:../../libdaisy/src/hid/usb.h **** #include <stdlib.h>
   6:../../libdaisy/src/hid/usb.h **** 
   7:../../libdaisy/src/hid/usb.h **** namespace daisy
   8:../../libdaisy/src/hid/usb.h **** /** @addtogroup externals
   9:../../libdaisy/src/hid/usb.h ****     @{
ARM GAS  /tmp/cczJxVBI.s 			page 4


  10:../../libdaisy/src/hid/usb.h **** */
  11:../../libdaisy/src/hid/usb.h **** 
  12:../../libdaisy/src/hid/usb.h **** {
  13:../../libdaisy/src/hid/usb.h **** /** 
  14:../../libdaisy/src/hid/usb.h ****     @brief Interface for initializing and using the USB Peripherals on the daisy
  15:../../libdaisy/src/hid/usb.h ****     @author Stephen Hensley
  16:../../libdaisy/src/hid/usb.h ****     @date December 2019
  17:../../libdaisy/src/hid/usb.h **** */
  18:../../libdaisy/src/hid/usb.h **** class UsbHandle
  19:../../libdaisy/src/hid/usb.h **** {
  20:../../libdaisy/src/hid/usb.h ****   public:
  21:../../libdaisy/src/hid/usb.h ****     /** Return values for USBHandle Functions */
  22:../../libdaisy/src/hid/usb.h ****     enum class Result
  23:../../libdaisy/src/hid/usb.h ****     {
  24:../../libdaisy/src/hid/usb.h ****         OK,
  25:../../libdaisy/src/hid/usb.h ****         ERR,
  26:../../libdaisy/src/hid/usb.h ****     };
  27:../../libdaisy/src/hid/usb.h **** 
  28:../../libdaisy/src/hid/usb.h ****     /** Specified which of the two USB Peripherals to initialize. */
  29:../../libdaisy/src/hid/usb.h ****     enum UsbPeriph
  30:../../libdaisy/src/hid/usb.h ****     {
  31:../../libdaisy/src/hid/usb.h ****         FS_INTERNAL, /**< Internal pin */
  32:../../libdaisy/src/hid/usb.h ****         FS_EXTERNAL, /**< FS External D+ pin is Pin 38 (GPIO32). FS External D- pin is Pin 37 (GPIO
  33:../../libdaisy/src/hid/usb.h ****         FS_BOTH,     /**< Both */
  34:../../libdaisy/src/hid/usb.h ****     };
  35:../../libdaisy/src/hid/usb.h **** 
  36:../../libdaisy/src/hid/usb.h **** 
  37:../../libdaisy/src/hid/usb.h ****     /** Function called upon reception of a buffer */
  38:../../libdaisy/src/hid/usb.h ****     typedef void (*ReceiveCallback)(uint8_t* buff, uint32_t* len);
  39:../../libdaisy/src/hid/usb.h **** 
  40:../../libdaisy/src/hid/usb.h ****     UsbHandle() {}
  41:../../libdaisy/src/hid/usb.h **** 
  42:../../libdaisy/src/hid/usb.h ****     ~UsbHandle() {}
  69              		.loc 4 42 5 is_stmt 1 view .LVU5
  70              		.loc 4 42 5 is_stmt 0 view .LVU6
  71              	.LBE66:
  72              	.LBB67:
  73              	.LBI67:
  74              		.file 5 "../../libdaisy/src/per/adc.h"
   1:../../libdaisy/src/per/adc.h **** #pragma once
   2:../../libdaisy/src/per/adc.h **** #ifndef DSY_ADC_H
   3:../../libdaisy/src/per/adc.h **** #define DSY_ADC_H /**< Macro */
   4:../../libdaisy/src/per/adc.h **** #include <stdint.h>
   5:../../libdaisy/src/per/adc.h **** #include <stdlib.h>
   6:../../libdaisy/src/per/adc.h **** #include "daisy_core.h"
   7:../../libdaisy/src/per/adc.h **** #include "per/gpio.h"
   8:../../libdaisy/src/per/adc.h **** 
   9:../../libdaisy/src/per/adc.h **** #define DSY_ADC_MAX_CHANNELS 14 /**< Maximum number of ADC channels */
  10:../../libdaisy/src/per/adc.h **** 
  11:../../libdaisy/src/per/adc.h **** namespace daisy
  12:../../libdaisy/src/per/adc.h **** {
  13:../../libdaisy/src/per/adc.h **** /** @addtogroup analog_digital_conversion
  14:../../libdaisy/src/per/adc.h ****     @{
  15:../../libdaisy/src/per/adc.h **** */
  16:../../libdaisy/src/per/adc.h **** 
  17:../../libdaisy/src/per/adc.h **** /* While there may not be many configuration options here,
  18:../../libdaisy/src/per/adc.h **** using a struct like this allows us to add more configuration
ARM GAS  /tmp/cczJxVBI.s 			page 5


  19:../../libdaisy/src/per/adc.h **** later without breaking existing functionality.
  20:../../libdaisy/src/per/adc.h **** */
  21:../../libdaisy/src/per/adc.h **** 
  22:../../libdaisy/src/per/adc.h **** /** Configuration Structure for a given channel */
  23:../../libdaisy/src/per/adc.h **** struct AdcChannelConfig
  24:../../libdaisy/src/per/adc.h **** {
  25:../../libdaisy/src/per/adc.h ****     /** Which pin to use for multiplexing */
  26:../../libdaisy/src/per/adc.h ****     enum MuxPin
  27:../../libdaisy/src/per/adc.h ****     {
  28:../../libdaisy/src/per/adc.h ****         MUX_SEL_0,    /**< & */
  29:../../libdaisy/src/per/adc.h ****         MUX_SEL_1,    /**< & */
  30:../../libdaisy/src/per/adc.h ****         MUX_SEL_2,    /**< & */
  31:../../libdaisy/src/per/adc.h ****         MUX_SEL_LAST, /**< & */
  32:../../libdaisy/src/per/adc.h ****     };
  33:../../libdaisy/src/per/adc.h **** 
  34:../../libdaisy/src/per/adc.h ****     /** Initializes a single ADC pin as an ADC. 
  35:../../libdaisy/src/per/adc.h ****     \param pin Pin to init.
  36:../../libdaisy/src/per/adc.h ****      */
  37:../../libdaisy/src/per/adc.h ****     void InitSingle(dsy_gpio_pin pin);
  38:../../libdaisy/src/per/adc.h **** 
  39:../../libdaisy/src/per/adc.h ****     /** 
  40:../../libdaisy/src/per/adc.h ****     Initializes a single ADC pin as a Multiplexed ADC.
  41:../../libdaisy/src/per/adc.h ****     Requires a CD405X Multiplexer connected to the pin.
  42:../../libdaisy/src/per/adc.h ****     You only need to supply the mux pins that are required,
  43:../../libdaisy/src/per/adc.h ****     e.g. a 4052 mux would only require mux_0 and mux_1.
  44:../../libdaisy/src/per/adc.h ****     Internal Callbacks handle the pin addressing.
  45:../../libdaisy/src/per/adc.h ****     \param mux_channels must be 1-8
  46:../../libdaisy/src/per/adc.h ****     \param mux_0 First mux pin
  47:../../libdaisy/src/per/adc.h ****     \param mux_1 Second mux pin
  48:../../libdaisy/src/per/adc.h ****     \param mux_2 Third mux pin
  49:../../libdaisy/src/per/adc.h ****     \param adc_pin &
  50:../../libdaisy/src/per/adc.h ****     */
  51:../../libdaisy/src/per/adc.h ****     void InitMux(dsy_gpio_pin adc_pin,
  52:../../libdaisy/src/per/adc.h ****                  size_t       mux_channels,
  53:../../libdaisy/src/per/adc.h ****                  dsy_gpio_pin mux_0,
  54:../../libdaisy/src/per/adc.h ****                  dsy_gpio_pin mux_1 = {DSY_GPIOX, 0},
  55:../../libdaisy/src/per/adc.h ****                  dsy_gpio_pin mux_2 = {DSY_GPIOX, 0});
  56:../../libdaisy/src/per/adc.h **** 
  57:../../libdaisy/src/per/adc.h ****     dsy_gpio pin_;                   /**< & */
  58:../../libdaisy/src/per/adc.h ****     dsy_gpio mux_pin_[MUX_SEL_LAST]; /**< & */
  59:../../libdaisy/src/per/adc.h ****     uint8_t  mux_channels_;          /**< & */
  60:../../libdaisy/src/per/adc.h **** };
  61:../../libdaisy/src/per/adc.h **** 
  62:../../libdaisy/src/per/adc.h **** /**
  63:../../libdaisy/src/per/adc.h ****    Handler for analog to digital conversion
  64:../../libdaisy/src/per/adc.h **** */
  65:../../libdaisy/src/per/adc.h **** class AdcHandle
  66:../../libdaisy/src/per/adc.h **** {
  67:../../libdaisy/src/per/adc.h ****   public:
  68:../../libdaisy/src/per/adc.h ****     /** Supported oversampling amounts */
  69:../../libdaisy/src/per/adc.h ****     enum OverSampling
  70:../../libdaisy/src/per/adc.h ****     {
  71:../../libdaisy/src/per/adc.h ****         OVS_NONE, /**< & */
  72:../../libdaisy/src/per/adc.h ****         OVS_4,    /**< & */
  73:../../libdaisy/src/per/adc.h ****         OVS_8,    /**< & */
  74:../../libdaisy/src/per/adc.h ****         OVS_16,   /**< & */
  75:../../libdaisy/src/per/adc.h ****         OVS_32,   /**< & */
ARM GAS  /tmp/cczJxVBI.s 			page 6


  76:../../libdaisy/src/per/adc.h ****         OVS_64,   /**< & */
  77:../../libdaisy/src/per/adc.h ****         OVS_128,  /**< & */
  78:../../libdaisy/src/per/adc.h ****         OVS_256,  /**< & */
  79:../../libdaisy/src/per/adc.h ****         OVS_512,  /**< & */
  80:../../libdaisy/src/per/adc.h ****         OVS_1024, /**< & */
  81:../../libdaisy/src/per/adc.h ****         OVS_LAST, /**< & */
  82:../../libdaisy/src/per/adc.h ****     };
  83:../../libdaisy/src/per/adc.h **** 
  84:../../libdaisy/src/per/adc.h ****     AdcHandle() {}
  85:../../libdaisy/src/per/adc.h ****     ~AdcHandle() {}
  75              		.loc 5 85 5 is_stmt 1 view .LVU7
  76              		.loc 5 85 5 is_stmt 0 view .LVU8
  77              	.LBE67:
  78              	.LBB68:
  79              	.LBI68:
  80              		.file 6 "../../libdaisy/src/hid/audio.h"
   1:../../libdaisy/src/hid/audio.h **** #ifndef DSY_AUDIO_H
   2:../../libdaisy/src/hid/audio.h **** #define DSY_AUDIO_H /**< & */
   3:../../libdaisy/src/hid/audio.h **** 
   4:../../libdaisy/src/hid/audio.h **** #include "per/sai.h"
   5:../../libdaisy/src/hid/audio.h **** 
   6:../../libdaisy/src/hid/audio.h **** namespace daisy
   7:../../libdaisy/src/hid/audio.h **** {
   8:../../libdaisy/src/hid/audio.h **** class AudioHandle
   9:../../libdaisy/src/hid/audio.h **** {
  10:../../libdaisy/src/hid/audio.h ****   public:
  11:../../libdaisy/src/hid/audio.h ****     /** Manually configurable details about the Audio Engine */
  12:../../libdaisy/src/hid/audio.h ****     /** TODO: Figure out how to get samplerate in here. */
  13:../../libdaisy/src/hid/audio.h ****     struct Config
  14:../../libdaisy/src/hid/audio.h ****     {
  15:../../libdaisy/src/hid/audio.h ****         size_t                        blocksize;
  16:../../libdaisy/src/hid/audio.h ****         SaiHandle::Config::SampleRate samplerate;
  17:../../libdaisy/src/hid/audio.h ****         float                         postgain;
  18:../../libdaisy/src/hid/audio.h ****     };
  19:../../libdaisy/src/hid/audio.h **** 
  20:../../libdaisy/src/hid/audio.h ****     enum class Result
  21:../../libdaisy/src/hid/audio.h ****     {
  22:../../libdaisy/src/hid/audio.h ****         OK,
  23:../../libdaisy/src/hid/audio.h ****         ERR,
  24:../../libdaisy/src/hid/audio.h ****     };
  25:../../libdaisy/src/hid/audio.h **** 
  26:../../libdaisy/src/hid/audio.h ****     /** Non-Interleaving input buffer
  27:../../libdaisy/src/hid/audio.h ****      * Buffer arranged by float[chn][sample] 
  28:../../libdaisy/src/hid/audio.h ****      * const so that the user can't modify the input
  29:../../libdaisy/src/hid/audio.h ****     */
  30:../../libdaisy/src/hid/audio.h ****     typedef const float* const* InputBuffer;
  31:../../libdaisy/src/hid/audio.h **** 
  32:../../libdaisy/src/hid/audio.h ****     /** Non-Interleaving output buffer
  33:../../libdaisy/src/hid/audio.h ****      * Arranged by float[chn][sample] 
  34:../../libdaisy/src/hid/audio.h ****     */
  35:../../libdaisy/src/hid/audio.h ****     typedef float** OutputBuffer;
  36:../../libdaisy/src/hid/audio.h **** 
  37:../../libdaisy/src/hid/audio.h ****     /** Type for a Non-Interleaving audio callback 
  38:../../libdaisy/src/hid/audio.h ****    * Non-Interleaving audio callbacks in daisy will be of this type
  39:../../libdaisy/src/hid/audio.h ****   */
  40:../../libdaisy/src/hid/audio.h ****     typedef void (*AudioCallback)(InputBuffer  in,
  41:../../libdaisy/src/hid/audio.h ****                                   OutputBuffer out,
ARM GAS  /tmp/cczJxVBI.s 			page 7


  42:../../libdaisy/src/hid/audio.h ****                                   size_t       size);
  43:../../libdaisy/src/hid/audio.h **** 
  44:../../libdaisy/src/hid/audio.h ****     /** Interleaving Input buffer
  45:../../libdaisy/src/hid/audio.h ****      ** audio is prepared as { L0, R0, L1, R1, . . . LN, RN }]
  46:../../libdaisy/src/hid/audio.h ****      ** this is const, as the user shouldn't modify it
  47:../../libdaisy/src/hid/audio.h ****     */
  48:../../libdaisy/src/hid/audio.h ****     typedef const float* InterleavingInputBuffer;
  49:../../libdaisy/src/hid/audio.h **** 
  50:../../libdaisy/src/hid/audio.h ****     /** Interleaving Output buffer 
  51:../../libdaisy/src/hid/audio.h ****      ** audio is prepared as { L0, R0, L1, R1, . . . LN, RN }
  52:../../libdaisy/src/hid/audio.h ****     */
  53:../../libdaisy/src/hid/audio.h ****     typedef float* InterleavingOutputBuffer;
  54:../../libdaisy/src/hid/audio.h **** 
  55:../../libdaisy/src/hid/audio.h ****     /** Interleaving Audio Callback 
  56:../../libdaisy/src/hid/audio.h ****    * Interleaving audio callbacks in daisy must be of this type
  57:../../libdaisy/src/hid/audio.h ****   */
  58:../../libdaisy/src/hid/audio.h ****     typedef void (*InterleavingAudioCallback)(InterleavingInputBuffer  in,
  59:../../libdaisy/src/hid/audio.h ****                                               InterleavingOutputBuffer out,
  60:../../libdaisy/src/hid/audio.h ****                                               size_t                   size);
  61:../../libdaisy/src/hid/audio.h **** 
  62:../../libdaisy/src/hid/audio.h ****     AudioHandle() : pimpl_(nullptr) {}
  63:../../libdaisy/src/hid/audio.h ****     ~AudioHandle() {}
  81              		.loc 6 63 5 is_stmt 1 view .LVU9
  82              		.loc 6 63 5 is_stmt 0 view .LVU10
  83              	.LBE68:
  84              		.loc 2 22 19 view .LVU11
  85 0000 7047     		bx	lr
  86              		.cfi_endproc
  87              	.LFE4207:
  89              		.weak	_ZN5daisy9DaisySeedD1Ev
  90              		.thumb_set _ZN5daisy9DaisySeedD1Ev,_ZN5daisy9DaisySeedD2Ev
  91 0002 00BF     		.section	.text._ZL13AudioCallbackPKfPfj,"ax",%progbits
  92              		.align	1
  93              		.p2align 2,,3
  94              		.syntax unified
  95              		.thumb
  96              		.thumb_func
  97              		.fpu fpv5-d16
  99              	_ZL13AudioCallbackPKfPfj:
 100              	.LVL2:
 101              	.LFB4212:
 102              		.file 7 "oscillator.cpp"
   1:oscillator.cpp **** #include "daisysp.h"
   2:oscillator.cpp **** #include "daisy_seed.h"
   3:oscillator.cpp **** 
   4:oscillator.cpp **** using namespace daisysp;
   5:oscillator.cpp **** using namespace daisy;
   6:oscillator.cpp **** 
   7:oscillator.cpp **** static DaisySeed  seed;
   8:oscillator.cpp **** static Oscillator osc;
   9:oscillator.cpp **** 
  10:oscillator.cpp **** static void AudioCallback(AudioHandle::InterleavingInputBuffer  in,
  11:oscillator.cpp ****                           AudioHandle::InterleavingOutputBuffer out,
  12:oscillator.cpp ****                           size_t                                size)
  13:oscillator.cpp **** {
 103              		.loc 7 13 1 is_stmt 1 view -0
 104              		.cfi_startproc
ARM GAS  /tmp/cczJxVBI.s 			page 8


 105              		@ args = 0, pretend = 0, frame = 0
 106              		@ frame_needed = 0, uses_anonymous_args = 0
  14:oscillator.cpp ****     float sig;
 107              		.loc 7 14 5 view .LVU13
  15:oscillator.cpp ****     for(size_t i = 0; i < size; i += 2)
 108              		.loc 7 15 5 view .LVU14
 109              	.LBB69:
 110              		.loc 7 15 25 view .LVU15
 111 0000 92B1     		cbz	r2, .L12
 112 0002 013A     		subs	r2, r2, #1
 113              	.LVL3:
 114              		.loc 7 15 25 is_stmt 0 view .LVU16
 115              	.LBE69:
  13:oscillator.cpp ****     float sig;
 116              		.loc 7 13 1 view .LVU17
 117 0004 70B5     		push	{r4, r5, r6, lr}
 118              		.cfi_def_cfa_offset 16
 119              		.cfi_offset 4, -16
 120              		.cfi_offset 5, -12
 121              		.cfi_offset 6, -8
 122              		.cfi_offset 14, -4
 123 0006 0C46     		mov	r4, r1
 124              	.LBB70:
 125              		.loc 7 15 16 view .LVU18
 126 0008 0025     		movs	r5, #0
 127 000a 22F00106 		bic	r6, r2, #1
 128              	.LVL4:
 129              	.L6:
  16:oscillator.cpp ****     {
  17:oscillator.cpp ****         sig = osc.Process();
 130              		.loc 7 17 9 is_stmt 1 discriminator 2 view .LVU19
 131              		.loc 7 17 26 is_stmt 0 discriminator 2 view .LVU20
 132 000e 0748     		ldr	r0, .L15
 133 0010 0834     		adds	r4, r4, #8
 134 0012 FFF7FEFF 		bl	_ZN7daisysp10Oscillator7ProcessEv
 135              	.LVL5:
  18:oscillator.cpp **** 
  19:oscillator.cpp ****         // left out
  20:oscillator.cpp ****         out[i] = sig;
 136              		.loc 7 20 9 is_stmt 1 discriminator 2 view .LVU21
  15:oscillator.cpp ****     {
 137              		.loc 7 15 25 is_stmt 0 discriminator 2 view .LVU22
 138 0016 B542     		cmp	r5, r6
 139              		.loc 7 20 16 discriminator 2 view .LVU23
 140 0018 04ED020A 		vstr.32	s0, [r4, #-8]
  21:oscillator.cpp **** 
  22:oscillator.cpp ****         // right out
  23:oscillator.cpp ****         out[i + 1] = sig;
 141              		.loc 7 23 9 is_stmt 1 discriminator 2 view .LVU24
  15:oscillator.cpp ****     {
 142              		.loc 7 15 25 is_stmt 0 discriminator 2 view .LVU25
 143 001c 05F10205 		add	r5, r5, #2
 144              	.LVL6:
 145              		.loc 7 23 20 discriminator 2 view .LVU26
 146 0020 04ED010A 		vstr.32	s0, [r4, #-4]
  15:oscillator.cpp ****     {
 147              		.loc 7 15 5 is_stmt 1 discriminator 2 view .LVU27
ARM GAS  /tmp/cczJxVBI.s 			page 9


 148              	.LVL7:
  15:oscillator.cpp ****     {
 149              		.loc 7 15 25 discriminator 2 view .LVU28
 150 0024 F3D1     		bne	.L6
 151              	.LBE70:
  24:oscillator.cpp ****     }
  25:oscillator.cpp **** }
 152              		.loc 7 25 1 is_stmt 0 view .LVU29
 153 0026 70BD     		pop	{r4, r5, r6, pc}
 154              	.LVL8:
 155              	.L12:
 156              		.cfi_def_cfa_offset 0
 157              		.cfi_restore 4
 158              		.cfi_restore 5
 159              		.cfi_restore 6
 160              		.cfi_restore 14
 161              		.loc 7 25 1 view .LVU30
 162 0028 7047     		bx	lr
 163              	.L16:
 164 002a 00BF     		.align	2
 165              	.L15:
 166 002c 00000000 		.word	.LANCHOR0
 167              		.cfi_endproc
 168              	.LFE4212:
 170              		.section	.text.startup.main,"ax",%progbits
 171              		.align	1
 172              		.p2align 2,,3
 173              		.global	main
 174              		.syntax unified
 175              		.thumb
 176              		.thumb_func
 177              		.fpu fpv5-d16
 179              	main:
 180              	.LFB4213:
  26:oscillator.cpp **** 
  27:oscillator.cpp **** int main(void)
  28:oscillator.cpp **** {
 181              		.loc 7 28 1 is_stmt 1 view -0
 182              		.cfi_startproc
 183              		@ args = 0, pretend = 0, frame = 0
 184              		@ frame_needed = 0, uses_anonymous_args = 0
  29:oscillator.cpp ****     // initialize seed hardware and oscillator daisysp module
  30:oscillator.cpp ****     float sample_rate;
 185              		.loc 7 30 5 view .LVU32
  31:oscillator.cpp ****     seed.Configure();
 186              		.loc 7 31 5 view .LVU33
  28:oscillator.cpp ****     // initialize seed hardware and oscillator daisysp module
 187              		.loc 7 28 1 is_stmt 0 view .LVU34
 188 0000 38B5     		push	{r3, r4, r5, lr}
 189              		.cfi_def_cfa_offset 16
 190              		.cfi_offset 3, -16
 191              		.cfi_offset 4, -12
 192              		.cfi_offset 5, -8
 193              		.cfi_offset 14, -4
 194              		.loc 7 31 19 view .LVU35
 195 0002 1C48     		ldr	r0, .L20
 196              	.LBB71:
ARM GAS  /tmp/cczJxVBI.s 			page 10


 197              	.LBB72:
  17:../../DaisySP/Source/Synthesis/oscillator.h ****     /** Choices for output waveforms, POLYBLEP are appropriately labeled. Others are naive forms.
  18:../../DaisySP/Source/Synthesis/oscillator.h ****     */
  19:../../DaisySP/Source/Synthesis/oscillator.h ****     enum
  20:../../DaisySP/Source/Synthesis/oscillator.h ****     {
  21:../../DaisySP/Source/Synthesis/oscillator.h ****         WAVE_SIN,
  22:../../DaisySP/Source/Synthesis/oscillator.h ****         WAVE_TRI,
  23:../../DaisySP/Source/Synthesis/oscillator.h ****         WAVE_SAW,
  24:../../DaisySP/Source/Synthesis/oscillator.h ****         WAVE_RAMP,
  25:../../DaisySP/Source/Synthesis/oscillator.h ****         WAVE_SQUARE,
  26:../../DaisySP/Source/Synthesis/oscillator.h ****         WAVE_POLYBLEP_TRI,
  27:../../DaisySP/Source/Synthesis/oscillator.h ****         WAVE_POLYBLEP_SAW,
  28:../../DaisySP/Source/Synthesis/oscillator.h ****         WAVE_POLYBLEP_SQUARE,
  29:../../DaisySP/Source/Synthesis/oscillator.h ****         WAVE_LAST,
  30:../../DaisySP/Source/Synthesis/oscillator.h ****     };
  31:../../DaisySP/Source/Synthesis/oscillator.h **** 
  32:../../DaisySP/Source/Synthesis/oscillator.h **** 
  33:../../DaisySP/Source/Synthesis/oscillator.h ****     /** Initializes the Oscillator
  34:../../DaisySP/Source/Synthesis/oscillator.h **** 
  35:../../DaisySP/Source/Synthesis/oscillator.h ****         \param sample_rate - sample rate of the audio engine being run, and the frequency that the 
  36:../../DaisySP/Source/Synthesis/oscillator.h **** 
  37:../../DaisySP/Source/Synthesis/oscillator.h ****         Defaults:
  38:../../DaisySP/Source/Synthesis/oscillator.h ****         - freq_ = 100 Hz
  39:../../DaisySP/Source/Synthesis/oscillator.h ****         - amp_ = 0.5
  40:../../DaisySP/Source/Synthesis/oscillator.h ****         - waveform_ = sine wave.
  41:../../DaisySP/Source/Synthesis/oscillator.h ****     */
  42:../../DaisySP/Source/Synthesis/oscillator.h ****     void Init(float sample_rate)
  43:../../DaisySP/Source/Synthesis/oscillator.h ****     {
  44:../../DaisySP/Source/Synthesis/oscillator.h ****         sr_        = sample_rate;
  45:../../DaisySP/Source/Synthesis/oscillator.h ****         sr_recip_  = 1.0f / sample_rate;
  46:../../DaisySP/Source/Synthesis/oscillator.h ****         freq_      = 100.0f;
  47:../../DaisySP/Source/Synthesis/oscillator.h ****         amp_       = 0.5f;
 198              		.loc 1 47 20 view .LVU36
 199 0004 4FF07C55 		mov	r5, #1056964608
 200              	.LBE72:
 201              	.LBE71:
 202              		.loc 7 31 19 view .LVU37
 203 0008 FFF7FEFF 		bl	_ZN5daisy9DaisySeed9ConfigureEv
 204              	.LVL9:
  32:oscillator.cpp ****     seed.Init();
 205              		.loc 7 32 5 is_stmt 1 view .LVU38
 206              		.loc 7 32 14 is_stmt 0 view .LVU39
 207 000c 0021     		movs	r1, #0
 208 000e 1948     		ldr	r0, .L20
 209 0010 FFF7FEFF 		bl	_ZN5daisy9DaisySeed4InitEb
 210              	.LVL10:
  33:oscillator.cpp ****     sample_rate = seed.AudioSampleRate();
 211              		.loc 7 33 5 is_stmt 1 view .LVU40
 212              		.loc 7 33 39 is_stmt 0 view .LVU41
 213 0014 1748     		ldr	r0, .L20
 214 0016 FFF7FEFF 		bl	_ZN5daisy9DaisySeed15AudioSampleRateEv
 215              	.LVL11:
 216              	.LBB77:
 217              	.LBB73:
  45:../../DaisySP/Source/Synthesis/oscillator.h ****         freq_      = 100.0f;
 218              		.loc 1 45 27 view .LVU42
 219 001a F7EE006A 		vmov.f32	s13, #1.0e+0
ARM GAS  /tmp/cczJxVBI.s 			page 11


 220              	.LBE73:
 221              	.LBE77:
 222              		.loc 7 33 39 view .LVU43
 223 001e F0EE407A 		vmov.f32	s15, s0
 224              	.LVL12:
  34:oscillator.cpp ****     osc.Init(sample_rate);
 225              		.loc 7 34 5 is_stmt 1 view .LVU44
 226              	.LBB78:
 227              	.LBI71:
  42:../../DaisySP/Source/Synthesis/oscillator.h ****     {
 228              		.loc 1 42 10 view .LVU45
 229              	.LBB74:
  44:../../DaisySP/Source/Synthesis/oscillator.h ****         sr_recip_  = 1.0f / sample_rate;
 230              		.loc 1 44 9 view .LVU46
  44:../../DaisySP/Source/Synthesis/oscillator.h ****         sr_recip_  = 1.0f / sample_rate;
 231              		.loc 1 44 20 is_stmt 0 view .LVU47
 232 0022 154C     		ldr	r4, .L20+4
  48:../../DaisySP/Source/Synthesis/oscillator.h ****         phase_     = 0.0f;
 233              		.loc 1 48 20 view .LVU48
 234 0024 0023     		movs	r3, #0
  46:../../DaisySP/Source/Synthesis/oscillator.h ****         amp_       = 0.5f;
 235              		.loc 1 46 20 view .LVU49
 236 0026 9FED150A 		vldr.32	s0, .L20+8
 237              	.LVL13:
  49:../../DaisySP/Source/Synthesis/oscillator.h ****         phase_inc_ = CalcPhaseInc(freq_);
 238              		.loc 1 49 34 view .LVU50
 239 002a 2046     		mov	r0, r4
  47:../../DaisySP/Source/Synthesis/oscillator.h ****         phase_     = 0.0f;
 240              		.loc 1 47 20 view .LVU51
 241 002c 6560     		str	r5, [r4, #4]	@ float
  45:../../DaisySP/Source/Synthesis/oscillator.h ****         freq_      = 100.0f;
 242              		.loc 1 45 27 view .LVU52
 243 002e 86EEA77A 		vdiv.f32	s14, s13, s15
  44:../../DaisySP/Source/Synthesis/oscillator.h ****         sr_recip_  = 1.0f / sample_rate;
 244              		.loc 1 44 20 view .LVU53
 245 0032 C4ED037A 		vstr.32	s15, [r4, #12]
  45:../../DaisySP/Source/Synthesis/oscillator.h ****         freq_      = 100.0f;
 246              		.loc 1 45 9 is_stmt 1 view .LVU54
  48:../../DaisySP/Source/Synthesis/oscillator.h ****         phase_inc_ = CalcPhaseInc(freq_);
 247              		.loc 1 48 20 is_stmt 0 view .LVU55
 248 0036 6361     		str	r3, [r4, #20]	@ float
  46:../../DaisySP/Source/Synthesis/oscillator.h ****         amp_       = 0.5f;
 249              		.loc 1 46 20 view .LVU56
 250 0038 84ED020A 		vstr.32	s0, [r4, #8]
  45:../../DaisySP/Source/Synthesis/oscillator.h ****         freq_      = 100.0f;
 251              		.loc 1 45 20 view .LVU57
 252 003c 84ED047A 		vstr.32	s14, [r4, #16]
  46:../../DaisySP/Source/Synthesis/oscillator.h ****         amp_       = 0.5f;
 253              		.loc 1 46 9 is_stmt 1 view .LVU58
  47:../../DaisySP/Source/Synthesis/oscillator.h ****         phase_     = 0.0f;
 254              		.loc 1 47 9 view .LVU59
  48:../../DaisySP/Source/Synthesis/oscillator.h ****         phase_inc_ = CalcPhaseInc(freq_);
 255              		.loc 1 48 9 view .LVU60
 256              		.loc 1 49 9 view .LVU61
 257              		.loc 1 49 34 is_stmt 0 view .LVU62
 258 0040 FFF7FEFF 		bl	_ZN7daisysp10Oscillator12CalcPhaseIncEf
 259              	.LVL14:
ARM GAS  /tmp/cczJxVBI.s 			page 12


 260              		.loc 1 49 34 view .LVU63
 261 0044 F0EE407A 		vmov.f32	s15, s0
  50:../../DaisySP/Source/Synthesis/oscillator.h ****         waveform_  = WAVE_SIN;
 262              		.loc 1 50 20 view .LVU64
 263 0048 0022     		movs	r2, #0
 264              	.LBE74:
 265              	.LBE78:
 266              	.LBB79:
 267              	.LBB80:
  51:../../DaisySP/Source/Synthesis/oscillator.h ****         eoc_       = true;
  52:../../DaisySP/Source/Synthesis/oscillator.h ****         eor_       = true;
  53:../../DaisySP/Source/Synthesis/oscillator.h ****     }
  54:../../DaisySP/Source/Synthesis/oscillator.h **** 
  55:../../DaisySP/Source/Synthesis/oscillator.h **** 
  56:../../DaisySP/Source/Synthesis/oscillator.h ****     /** Changes the frequency of the Oscillator, and recalculates phase increment.
  57:../../DaisySP/Source/Synthesis/oscillator.h ****     */
  58:../../DaisySP/Source/Synthesis/oscillator.h ****     inline void SetFreq(const float f)
  59:../../DaisySP/Source/Synthesis/oscillator.h ****     {
  60:../../DaisySP/Source/Synthesis/oscillator.h ****         freq_      = f;
 268              		.loc 1 60 20 view .LVU65
 269 004a 9FED0D0A 		vldr.32	s0, .L20+12
 270              	.LBE80:
 271              	.LBE79:
 272              	.LBB84:
 273              	.LBB75:
  52:../../DaisySP/Source/Synthesis/oscillator.h ****     }
 274              		.loc 1 52 20 view .LVU66
 275 004e 40F20113 		movw	r3, #257
 276              	.LBE75:
 277              	.LBE84:
 278              	.LBB85:
 279              	.LBB81:
  61:../../DaisySP/Source/Synthesis/oscillator.h ****         phase_inc_ = CalcPhaseInc(f);
 280              		.loc 1 61 34 view .LVU67
 281 0052 2046     		mov	r0, r4
 282              	.LBE81:
 283              	.LBE85:
 284              	.LBB86:
 285              	.LBB76:
  50:../../DaisySP/Source/Synthesis/oscillator.h ****         eoc_       = true;
 286              		.loc 1 50 20 view .LVU68
 287 0054 2270     		strb	r2, [r4]
  49:../../DaisySP/Source/Synthesis/oscillator.h ****         waveform_  = WAVE_SIN;
 288              		.loc 1 49 20 view .LVU69
 289 0056 C4ED067A 		vstr.32	s15, [r4, #24]
  50:../../DaisySP/Source/Synthesis/oscillator.h ****         eoc_       = true;
 290              		.loc 1 50 9 is_stmt 1 view .LVU70
  51:../../DaisySP/Source/Synthesis/oscillator.h ****         eor_       = true;
 291              		.loc 1 51 9 view .LVU71
  52:../../DaisySP/Source/Synthesis/oscillator.h ****     }
 292              		.loc 1 52 9 view .LVU72
  52:../../DaisySP/Source/Synthesis/oscillator.h ****     }
 293              		.loc 1 52 20 is_stmt 0 view .LVU73
 294 005a A384     		strh	r3, [r4, #36]	@ movhi
 295              	.LVL15:
  52:../../DaisySP/Source/Synthesis/oscillator.h ****     }
 296              		.loc 1 52 20 view .LVU74
ARM GAS  /tmp/cczJxVBI.s 			page 13


 297              	.LBE76:
 298              	.LBE86:
  35:oscillator.cpp **** 
  36:oscillator.cpp ****     // Set parameters for oscillator
  37:oscillator.cpp ****     osc.SetWaveform(osc.WAVE_SIN);
 299              		.loc 7 37 5 is_stmt 1 view .LVU75
  62:../../DaisySP/Source/Synthesis/oscillator.h ****     }
  63:../../DaisySP/Source/Synthesis/oscillator.h **** 
  64:../../DaisySP/Source/Synthesis/oscillator.h **** 
  65:../../DaisySP/Source/Synthesis/oscillator.h ****     /** Sets the amplitude of the waveform.
  66:../../DaisySP/Source/Synthesis/oscillator.h ****     */
  67:../../DaisySP/Source/Synthesis/oscillator.h ****     inline void SetAmp(const float a) { amp_ = a; }
  68:../../DaisySP/Source/Synthesis/oscillator.h ****     /** Sets the waveform to be synthesized by the Process() function.
  69:../../DaisySP/Source/Synthesis/oscillator.h ****     */
  70:../../DaisySP/Source/Synthesis/oscillator.h ****     inline void SetWaveform(const uint8_t wf)
  71:../../DaisySP/Source/Synthesis/oscillator.h ****     {
  72:../../DaisySP/Source/Synthesis/oscillator.h ****         waveform_ = wf < WAVE_LAST ? wf : WAVE_SIN;
 300              		.loc 1 72 9 view .LVU76
  38:oscillator.cpp ****     osc.SetFreq(440);
 301              		.loc 7 38 5 view .LVU77
 302              	.LBB87:
 303              	.LBI79:
  58:../../DaisySP/Source/Synthesis/oscillator.h ****     {
 304              		.loc 1 58 17 view .LVU78
 305              	.LBB82:
  60:../../DaisySP/Source/Synthesis/oscillator.h ****         phase_inc_ = CalcPhaseInc(f);
 306              		.loc 1 60 9 view .LVU79
  60:../../DaisySP/Source/Synthesis/oscillator.h ****         phase_inc_ = CalcPhaseInc(f);
 307              		.loc 1 60 20 is_stmt 0 view .LVU80
 308 005c 84ED020A 		vstr.32	s0, [r4, #8]
  61:../../DaisySP/Source/Synthesis/oscillator.h ****     }
 309              		.loc 1 61 9 is_stmt 1 view .LVU81
  61:../../DaisySP/Source/Synthesis/oscillator.h ****     }
 310              		.loc 1 61 34 is_stmt 0 view .LVU82
 311 0060 FFF7FEFF 		bl	_ZN7daisysp10Oscillator12CalcPhaseIncEf
 312              	.LVL16:
 313              	.LBE82:
 314              	.LBE87:
  39:oscillator.cpp ****     osc.SetAmp(0.5);
  40:oscillator.cpp **** 
  41:oscillator.cpp **** 
  42:oscillator.cpp ****     // start callback
  43:oscillator.cpp ****     seed.StartAudio(AudioCallback);
 315              		.loc 7 43 20 view .LVU83
 316 0064 0749     		ldr	r1, .L20+16
 317 0066 0348     		ldr	r0, .L20
 318              	.LBB88:
 319              	.LBB89:
  67:../../DaisySP/Source/Synthesis/oscillator.h ****     /** Sets the waveform to be synthesized by the Process() function.
 320              		.loc 1 67 46 view .LVU84
 321 0068 6560     		str	r5, [r4, #4]	@ float
 322              	.LBE89:
 323              	.LBE88:
 324              	.LBB91:
 325              	.LBB83:
  61:../../DaisySP/Source/Synthesis/oscillator.h ****     }
 326              		.loc 1 61 20 view .LVU85
ARM GAS  /tmp/cczJxVBI.s 			page 14


 327 006a 84ED060A 		vstr.32	s0, [r4, #24]
 328              	.LVL17:
  61:../../DaisySP/Source/Synthesis/oscillator.h ****     }
 329              		.loc 1 61 20 view .LVU86
 330              	.LBE83:
 331              	.LBE91:
  39:oscillator.cpp ****     osc.SetAmp(0.5);
 332              		.loc 7 39 5 is_stmt 1 view .LVU87
 333              	.LBB92:
 334              	.LBI88:
  67:../../DaisySP/Source/Synthesis/oscillator.h ****     /** Sets the waveform to be synthesized by the Process() function.
 335              		.loc 1 67 17 view .LVU88
 336              	.LBB90:
  67:../../DaisySP/Source/Synthesis/oscillator.h ****     /** Sets the waveform to be synthesized by the Process() function.
 337              		.loc 1 67 41 view .LVU89
  67:../../DaisySP/Source/Synthesis/oscillator.h ****     /** Sets the waveform to be synthesized by the Process() function.
 338              		.loc 1 67 41 is_stmt 0 view .LVU90
 339              	.LBE90:
 340              	.LBE92:
 341              		.loc 7 43 5 is_stmt 1 view .LVU91
 342              		.loc 7 43 20 is_stmt 0 view .LVU92
 343 006e FFF7FEFF 		bl	_ZN5daisy9DaisySeed10StartAudioEPFvPKfPfjE
 344              	.LVL18:
 345              	.L18:
  44:oscillator.cpp **** 
  45:oscillator.cpp **** 
  46:oscillator.cpp ****     while(1) {}
 346              		.loc 7 46 5 is_stmt 1 discriminator 1 view .LVU93
 347              		.loc 7 46 5 discriminator 1 view .LVU94
 348              		.loc 7 46 5 discriminator 1 view .LVU95
 349              		.loc 7 46 5 discriminator 1 view .LVU96
 350 0072 FEE7     		b	.L18
 351              	.L21:
 352              		.align	2
 353              	.L20:
 354 0074 00000000 		.word	.LANCHOR1
 355 0078 00000000 		.word	.LANCHOR0
 356 007c 0000C842 		.word	1120403456
 357 0080 0000DC43 		.word	1138491392
 358 0084 00000000 		.word	_ZL13AudioCallbackPKfPfj
 359              		.cfi_endproc
 360              	.LFE4213:
 362              		.section	.text.startup._GLOBAL__sub_I_main,"ax",%progbits
 363              		.align	1
 364              		.p2align 2,,3
 365              		.syntax unified
 366              		.thumb
 367              		.thumb_func
 368              		.fpu fpv5-d16
 370              	_GLOBAL__sub_I_main:
 371              	.LFB4759:
  47:oscillator.cpp **** }
 372              		.loc 7 47 1 view -0
 373              		.cfi_startproc
 374              		@ args = 0, pretend = 0, frame = 0
 375              		@ frame_needed = 0, uses_anonymous_args = 0
 376              	.LBB110:
ARM GAS  /tmp/cczJxVBI.s 			page 15


 377              	.LBI110:
 378              		.loc 7 47 1 view .LVU98
 379              	.LVL19:
 380              	.LBB111:
 381              	.LBB112:
 382              	.LBI112:
  21:../../libdaisy/src/daisy_seed.h ****     ~DaisySeed() {}
 383              		.loc 2 21 5 view .LVU99
 384              	.LBB113:
 385              	.LBB114:
 386              	.LBI114:
  62:../../libdaisy/src/hid/audio.h ****     ~AudioHandle() {}
 387              		.loc 6 62 5 view .LVU100
 388              	.LBE114:
 389              	.LBE113:
 390              	.LBE112:
 391              	.LBE111:
 392              	.LBE110:
 393              		.loc 7 47 1 is_stmt 0 view .LVU101
 394 0000 08B5     		push	{r3, lr}
 395              		.cfi_def_cfa_offset 8
 396              		.cfi_offset 3, -8
 397              		.cfi_offset 14, -4
 398              	.LBB134:
 399              	.LBB132:
 400              	.LBB129:
 401              	.LBB127:
 402              	.LBB119:
 403              	.LBB115:
 404              	.LBB116:
  62:../../libdaisy/src/hid/audio.h ****     ~AudioHandle() {}
 405              		.loc 6 62 35 view .LVU102
 406 0002 0748     		ldr	r0, .L24
 407 0004 0023     		movs	r3, #0
 408              	.LBE116:
 409              	.LBE115:
 410              	.LBE119:
 411              	.LBE127:
 412              	.LBE129:
   7:oscillator.cpp **** static Oscillator osc;
 413              		.loc 7 7 19 view .LVU103
 414 0006 074A     		ldr	r2, .L24+4
 415 0008 0749     		ldr	r1, .L24+8
 416              	.LBB130:
 417              	.LBB128:
 418              	.LBB120:
 419              	.LBB118:
 420              	.LBB117:
  62:../../libdaisy/src/hid/audio.h ****     ~AudioHandle() {}
 421              		.loc 6 62 35 view .LVU104
 422 000a 4361     		str	r3, [r0, #20]
 423              	.LVL20:
  62:../../libdaisy/src/hid/audio.h ****     ~AudioHandle() {}
 424              		.loc 6 62 35 view .LVU105
 425              	.LBE117:
 426              	.LBE118:
 427              	.LBE120:
ARM GAS  /tmp/cczJxVBI.s 			page 16


 428              	.LBB121:
 429              	.LBI121:
  84:../../libdaisy/src/per/adc.h ****     ~AdcHandle() {}
 430              		.loc 5 84 5 is_stmt 1 view .LVU106
  84:../../libdaisy/src/per/adc.h ****     ~AdcHandle() {}
 431              		.loc 5 84 5 is_stmt 0 view .LVU107
 432              	.LBE121:
 433              	.LBB122:
 434              	.LBI122:
 435              		.file 8 "../../libdaisy/src/per/dac.h"
   1:../../libdaisy/src/per/dac.h **** #pragma once
   2:../../libdaisy/src/per/dac.h **** #ifndef DSY_DAC_H
   3:../../libdaisy/src/per/dac.h **** #define DSY_DAC_H
   4:../../libdaisy/src/per/dac.h **** 
   5:../../libdaisy/src/per/dac.h **** #include "daisy_core.h"
   6:../../libdaisy/src/per/dac.h **** 
   7:../../libdaisy/src/per/dac.h **** namespace daisy
   8:../../libdaisy/src/per/dac.h **** {
   9:../../libdaisy/src/per/dac.h **** /** DAC handle for Built-in DAC Peripheral 
  10:../../libdaisy/src/per/dac.h ****  ** 
  11:../../libdaisy/src/per/dac.h ****  ** For now only Normal Mode is supported,
  12:../../libdaisy/src/per/dac.h ****  ** Sample and hold mode provides reduced power consumption, but requires a bit more setup.
  13:../../libdaisy/src/per/dac.h ****  **
  14:../../libdaisy/src/per/dac.h ****  ** For now connecting the DAC through other internal periphearls is also not supported.
  15:../../libdaisy/src/per/dac.h ****  **
  16:../../libdaisy/src/per/dac.h ****  ** Since the DAC channels have dedicated pins we don't need to pass in a pin config like with
  17:../../libdaisy/src/per/dac.h ****  ** other modules. However, it is still important to not try to use the DAC pins for anything else.
  18:../../libdaisy/src/per/dac.h ****  ** DAC Channel 1 is on PA4, and DAC Channel 2 is on PA5
  19:../../libdaisy/src/per/dac.h ****  ***/
  20:../../libdaisy/src/per/dac.h **** class DacHandle
  21:../../libdaisy/src/per/dac.h **** {
  22:../../libdaisy/src/per/dac.h ****   public:
  23:../../libdaisy/src/per/dac.h ****     /** Return Values for the DacHandle class */
  24:../../libdaisy/src/per/dac.h ****     enum class Result
  25:../../libdaisy/src/per/dac.h ****     {
  26:../../libdaisy/src/per/dac.h ****         OK,
  27:../../libdaisy/src/per/dac.h ****         ERR,
  28:../../libdaisy/src/per/dac.h ****     };
  29:../../libdaisy/src/per/dac.h **** 
  30:../../libdaisy/src/per/dac.h ****     /** Selects which channel(s) will be configured for use. */
  31:../../libdaisy/src/per/dac.h ****     enum class Channel
  32:../../libdaisy/src/per/dac.h ****     {
  33:../../libdaisy/src/per/dac.h ****         ONE,
  34:../../libdaisy/src/per/dac.h ****         TWO,
  35:../../libdaisy/src/per/dac.h ****         BOTH,
  36:../../libdaisy/src/per/dac.h ****     };
  37:../../libdaisy/src/per/dac.h **** 
  38:../../libdaisy/src/per/dac.h ****     /** Sets the Mode for the DAC channels.
  39:../../libdaisy/src/per/dac.h ****      **
  40:../../libdaisy/src/per/dac.h ****      ** Polling mode uses the blocking mode to transmit a single value at a time.
  41:../../libdaisy/src/per/dac.h ****      **
  42:../../libdaisy/src/per/dac.h ****      ** DMA mode uses a buffer, and periodically transmits it triggering a 
  43:../../libdaisy/src/per/dac.h ****      ** callback to fill the buffer when it is ready for more samples.
  44:../../libdaisy/src/per/dac.h ****      ***/
  45:../../libdaisy/src/per/dac.h ****     enum class Mode
  46:../../libdaisy/src/per/dac.h ****     {
  47:../../libdaisy/src/per/dac.h ****         POLLING,
ARM GAS  /tmp/cczJxVBI.s 			page 17


  48:../../libdaisy/src/per/dac.h ****         DMA,
  49:../../libdaisy/src/per/dac.h ****     };
  50:../../libdaisy/src/per/dac.h **** 
  51:../../libdaisy/src/per/dac.h ****     /** Sets the number of bits per sample transmitted out of the DAC.
  52:../../libdaisy/src/per/dac.h ****      ** The output range will be: 0V - VDDA
  53:../../libdaisy/src/per/dac.h ****      ** The resolution will be roughly: bitdepth / (VDDA - 0V) 
  54:../../libdaisy/src/per/dac.h ****      ***/
  55:../../libdaisy/src/per/dac.h ****     enum class BitDepth
  56:../../libdaisy/src/per/dac.h ****     {
  57:../../libdaisy/src/per/dac.h ****         BITS_8,
  58:../../libdaisy/src/per/dac.h ****         BITS_12
  59:../../libdaisy/src/per/dac.h ****     };
  60:../../libdaisy/src/per/dac.h **** 
  61:../../libdaisy/src/per/dac.h ****     /** Sets whether the DAC output is buffered for higher drive ability. */
  62:../../libdaisy/src/per/dac.h ****     enum class BufferState
  63:../../libdaisy/src/per/dac.h ****     {
  64:../../libdaisy/src/per/dac.h ****         ENABLED,
  65:../../libdaisy/src/per/dac.h ****         DISABLED,
  66:../../libdaisy/src/per/dac.h ****     };
  67:../../libdaisy/src/per/dac.h **** 
  68:../../libdaisy/src/per/dac.h ****     /** Configuration structure for initializing the DAC structure. */
  69:../../libdaisy/src/per/dac.h ****     struct Config
  70:../../libdaisy/src/per/dac.h ****     {
  71:../../libdaisy/src/per/dac.h ****         /** Target Samplerate in Hz used to configure the internal 
  72:../../libdaisy/src/per/dac.h ****          ** timebase for DMA mode. Does nothing in POLLING mode.
  73:../../libdaisy/src/per/dac.h ****          ** If the value is 0 at Init time this will default to 48000Hz 
  74:../../libdaisy/src/per/dac.h ****          ** otherwise the driver will attempt meet the target.*/
  75:../../libdaisy/src/per/dac.h ****         uint32_t target_samplerate;
  76:../../libdaisy/src/per/dac.h **** 
  77:../../libdaisy/src/per/dac.h ****         Channel     chn;
  78:../../libdaisy/src/per/dac.h ****         Mode        mode;
  79:../../libdaisy/src/per/dac.h ****         BitDepth    bitdepth;
  80:../../libdaisy/src/per/dac.h ****         BufferState buff_state;
  81:../../libdaisy/src/per/dac.h ****     };
  82:../../libdaisy/src/per/dac.h **** 
  83:../../libdaisy/src/per/dac.h ****     DacHandle() : pimpl_(nullptr) {}
 436              		.loc 8 83 5 is_stmt 1 view .LVU108
 437              	.LBB123:
 438              	.LBB124:
 439              		.loc 8 83 33 is_stmt 0 view .LVU109
 440 000c 0362     		str	r3, [r0, #32]
 441              	.LVL21:
 442              		.loc 8 83 33 view .LVU110
 443              	.LBE124:
 444              	.LBE123:
 445              	.LBE122:
 446              	.LBB125:
 447              	.LBI125:
  40:../../libdaisy/src/hid/usb.h **** 
 448              		.loc 4 40 5 is_stmt 1 view .LVU111
  40:../../libdaisy/src/hid/usb.h **** 
 449              		.loc 4 40 5 is_stmt 0 view .LVU112
 450              	.LBE125:
 451              	.LBB126:
 452              	.LBI126:
  58:../../libdaisy/src/sys/system.h ****     ~System() {}
 453              		.loc 3 58 5 is_stmt 1 view .LVU113
ARM GAS  /tmp/cczJxVBI.s 			page 18


  58:../../libdaisy/src/sys/system.h ****     ~System() {}
 454              		.loc 3 58 5 is_stmt 0 view .LVU114
 455              	.LBE126:
 456              	.LBE128:
 457              	.LBE130:
   7:oscillator.cpp **** static Oscillator osc;
 458              		.loc 7 7 19 view .LVU115
 459 000e FFF7FEFF 		bl	__aeabi_atexit
 460              	.LVL22:
 461              	.LBB131:
 462              	.LBI131:
  15:../../DaisySP/Source/Synthesis/oscillator.h ****     ~Oscillator() {}
 463              		.loc 1 15 5 is_stmt 1 view .LVU116
  15:../../DaisySP/Source/Synthesis/oscillator.h ****     ~Oscillator() {}
 464              		.loc 1 15 5 is_stmt 0 view .LVU117
 465              	.LBE131:
   8:oscillator.cpp **** 
 466              		.loc 7 8 19 view .LVU118
 467 0012 044A     		ldr	r2, .L24+4
 468 0014 0549     		ldr	r1, .L24+12
 469 0016 0648     		ldr	r0, .L24+16
 470              	.LBE132:
 471              	.LBE134:
 472              		.loc 7 47 1 view .LVU119
 473 0018 BDE80840 		pop	{r3, lr}
 474              		.cfi_restore 14
 475              		.cfi_restore 3
 476              		.cfi_def_cfa_offset 0
 477              	.LBB135:
 478              	.LBB133:
   8:oscillator.cpp **** 
 479              		.loc 7 8 19 view .LVU120
 480 001c FFF7FEBF 		b	__aeabi_atexit
 481              	.LVL23:
 482              	.L25:
 483              		.align	2
 484              	.L24:
 485 0020 00000000 		.word	.LANCHOR1
 486 0024 00000000 		.word	__dso_handle
 487 0028 00000000 		.word	_ZN5daisy9DaisySeedD1Ev
 488 002c 00000000 		.word	_ZN7daisysp10OscillatorD1Ev
 489 0030 00000000 		.word	.LANCHOR0
 490              	.LBE133:
 491              	.LBE135:
 492              		.cfi_endproc
 493              	.LFE4759:
 495              		.section	.init_array,"aw",%init_array
 496              		.align	2
 497 0000 00000000 		.word	_GLOBAL__sub_I_main(target1)
 498              		.section	.bss._ZL3osc,"aw",%nobits
 499              		.align	2
 500              		.set	.LANCHOR0,. + 0
 503              	_ZL3osc:
 504 0000 00000000 		.space	40
 504      00000000 
 504      00000000 
 504      00000000 
ARM GAS  /tmp/cczJxVBI.s 			page 19


 504      00000000 
 505              		.section	.bss._ZL4seed,"aw",%nobits
 506              		.align	2
 507              		.set	.LANCHOR1,. + 0
 510              	_ZL4seed:
 511 0000 00000000 		.space	60
 511      00000000 
 511      00000000 
 511      00000000 
 511      00000000 
 512              		.text
 513              	.Letext0:
 514              		.file 9 "/usr/lib/gcc/arm-none-eabi/9.2.1/include/stdint.h"
 515              		.file 10 "../../libdaisy/Drivers/CMSIS/Include/core_cm7.h"
 516              		.file 11 "../../libdaisy/Drivers/CMSIS/Device/ST/STM32H7xx/Include/system_stm32h7xx.h"
 517              		.file 12 "/usr/lib/gcc/arm-none-eabi/9.2.1/include/stddef.h"
 518              		.file 13 "/usr/include/newlib/c++/9.2.1/cmath"
 519              		.file 14 "/usr/include/newlib/c++/9.2.1/bits/std_abs.h"
 520              		.file 15 "/usr/include/newlib/c++/9.2.1/cstdint"
 521              		.file 16 "/usr/include/newlib/c++/9.2.1/cstdlib"
 522              		.file 17 "/usr/include/newlib/c++/9.2.1/type_traits"
 523              		.file 18 "/usr/include/newlib/c++/9.2.1/arm-none-eabi/thumb/v7e-m+dp/hard/bits/c++config.h"
 524              		.file 19 "/usr/include/newlib/c++/9.2.1/bits/stl_pair.h"
 525              		.file 20 "/usr/include/newlib/c++/9.2.1/debug/debug.h"
 526              		.file 21 "/usr/include/newlib/c++/9.2.1/cwchar"
 527              		.file 22 "/usr/include/newlib/c++/9.2.1/bits/exception_ptr.h"
 528              		.file 23 "/usr/include/newlib/c++/9.2.1/new"
 529              		.file 24 "/usr/include/newlib/c++/9.2.1/clocale"
 530              		.file 25 "/usr/include/newlib/c++/9.2.1/cstdio"
 531              		.file 26 "/usr/include/newlib/c++/9.2.1/bits/basic_string.h"
 532              		.file 27 "/usr/include/newlib/c++/9.2.1/bits/uniform_int_dist.h"
 533              		.file 28 "/usr/include/newlib/c++/9.2.1/bits/random.h"
 534              		.file 29 "/usr/include/newlib/c++/9.2.1/cstring"
 535              		.file 30 "/usr/include/newlib/c++/9.2.1/bits/algorithmfwd.h"
 536              		.file 31 "/usr/include/newlib/c++/9.2.1/cstdarg"
 537              		.file 32 "/usr/include/newlib/c++/9.2.1/bits/predefined_ops.h"
 538              		.file 33 "/usr/include/newlib/c++/9.2.1/ext/new_allocator.h"
 539              		.file 34 "/usr/include/newlib/c++/9.2.1/ext/numeric_traits.h"
 540              		.file 35 "/usr/include/newlib/sys/_types.h"
 541              		.file 36 "<built-in>"
 542              		.file 37 "/usr/include/newlib/sys/reent.h"
 543              		.file 38 "/usr/include/newlib/sys/lock.h"
 544              		.file 39 "/usr/include/newlib/math.h"
 545              		.file 40 "/usr/include/newlib/stdlib.h"
 546              		.file 41 "/usr/include/newlib/c++/9.2.1/math.h"
 547              		.file 42 "../../libdaisy/Drivers/STM32H7xx_HAL_Driver/Inc/stm32h7xx_hal_def.h"
 548              		.file 43 "../../libdaisy/Drivers/STM32H7xx_HAL_Driver/Inc/stm32h7xx_hal_flash.h"
 549              		.file 44 "../../DaisySP/Source/Control/adenv.h"
 550              		.file 45 "../../DaisySP/Source/Utility/dsp.h"
 551              		.file 46 "/usr/lib/gcc/arm-none-eabi/9.2.1/include/stdarg.h"
 552              		.file 47 "/usr/include/newlib/wchar.h"
 553              		.file 48 "/usr/include/newlib/locale.h"
 554              		.file 49 "/usr/include/newlib/ctype.h"
 555              		.file 50 "/usr/include/newlib/stdio.h"
 556              		.file 51 "/usr/include/newlib/sys/errno.h"
 557              		.file 52 "/usr/include/newlib/c++/9.2.1/stdlib.h"
 558              		.file 53 "/usr/include/newlib/string.h"
ARM GAS  /tmp/cczJxVBI.s 			page 20


 559              		.file 54 "../../libdaisy/src/daisy_core.h"
 560              		.file 55 "../../libdaisy/src/per/tim.h"
 561              		.file 56 "../../libdaisy/src/per/sai.h"
 562              		.file 57 "../../libdaisy/src/util/wav_format.h"
 563              		.file 58 "../../libdaisy/src/per/qspi.h"
 564              		.file 59 "../../libdaisy/src/per/gpio.h"
 565              		.file 60 "../../libdaisy/src/dev/sdram.h"
 566              		.file 61 "/usr/include/newlib/sys/unistd.h"
 567              		.file 62 "../../libdaisy/src/util/oled_fonts.h"
 568              		.file 63 "../../libdaisy/Middlewares/Third_Party/FatFs/src/integer.h"
 569              		.file 64 "../../libdaisy/Middlewares/Third_Party/FatFs/src/ff.h"
 570              		.file 65 "../../libdaisy/Middlewares/Third_Party/FatFs/src/diskio.h"
 571              		.file 66 "../../libdaisy/Middlewares/Third_Party/FatFs/src/ff_gen_drv.h"
 572              		.file 67 "../../libdaisy/src/util/sd_diskio.h"
 573              		.file 68 "../../libdaisy/src/sys/fatfs.h"
 574              		.file 69 "../../libdaisy/src/dev/sr_595.h"
ARM GAS  /tmp/cczJxVBI.s 			page 21

