ARM GAS  /tmp/ccMpf4Yo.s 			page 1


   1              		.cpu cortex-m7
   2              		.eabi_attribute 28, 1
   3              		.eabi_attribute 20, 1
   4              		.eabi_attribute 21, 1
   5              		.eabi_attribute 23, 3
   6              		.eabi_attribute 24, 1
   7              		.eabi_attribute 25, 1
   8              		.eabi_attribute 26, 1
   9              		.eabi_attribute 30, 2
  10              		.eabi_attribute 34, 1
  11              		.eabi_attribute 18, 4
  12              		.file	"chorus.cpp"
  13              		.text
  14              	.Ltext0:
  15              		.cfi_sections	.debug_frame
  16              		.section	.text._ZN5daisy10DaisyFieldD2Ev,"axG",%progbits,_ZN5daisy10DaisyFieldD5Ev,comdat
  17              		.align	1
  18              		.p2align 2,,3
  19              		.weak	_ZN5daisy10DaisyFieldD2Ev
  20              		.arch armv7e-m
  21              		.syntax unified
  22              		.thumb
  23              		.thumb_func
  24              		.fpu fpv5-d16
  26              	_ZN5daisy10DaisyFieldD2Ev:
  27              	.LVL0:
  28              	.LFB2063:
  29              		.file 1 "../../libdaisy/src/daisy_field.h"
   1:../../libdaisy/src/daisy_field.h **** #pragma once
   2:../../libdaisy/src/daisy_field.h **** #ifndef DSY_FIELD_BSP_H
   3:../../libdaisy/src/daisy_field.h **** #define DSY_FIELD_BSP_H /**< & */
   4:../../libdaisy/src/daisy_field.h **** #include "daisy_seed.h"
   5:../../libdaisy/src/daisy_field.h **** #include "dev/oled_ssd130x.h"
   6:../../libdaisy/src/daisy_field.h **** 
   7:../../libdaisy/src/daisy_field.h **** /**
   8:../../libdaisy/src/daisy_field.h ****    @brief Hardware defines and helpers for daisy field platform.
   9:../../libdaisy/src/daisy_field.h **** */
  10:../../libdaisy/src/daisy_field.h **** namespace daisy
  11:../../libdaisy/src/daisy_field.h **** {
  12:../../libdaisy/src/daisy_field.h **** /** @addtogroup boards
  13:../../libdaisy/src/daisy_field.h ****     @{
  14:../../libdaisy/src/daisy_field.h **** */
  15:../../libdaisy/src/daisy_field.h **** class DaisyField
  16:../../libdaisy/src/daisy_field.h **** {
  17:../../libdaisy/src/daisy_field.h ****   public:
  18:../../libdaisy/src/daisy_field.h ****     /** enums for controls, etc.
  19:../../libdaisy/src/daisy_field.h **** */
  20:../../libdaisy/src/daisy_field.h ****     enum
  21:../../libdaisy/src/daisy_field.h ****     {
  22:../../libdaisy/src/daisy_field.h ****         SW_1,    /**< tactile switch */
  23:../../libdaisy/src/daisy_field.h ****         SW_2,    /**< tactile switch */
  24:../../libdaisy/src/daisy_field.h ****         SW_LAST, /**< & */
  25:../../libdaisy/src/daisy_field.h ****     };
  26:../../libdaisy/src/daisy_field.h **** 
  27:../../libdaisy/src/daisy_field.h ****     /** All knobs connect to Daisy Seed's ADC1 pin via CD4051 mux
  28:../../libdaisy/src/daisy_field.h ****         Knobs are in order that they are laid out on hardware.
  29:../../libdaisy/src/daisy_field.h ****     */
ARM GAS  /tmp/ccMpf4Yo.s 			page 2


  30:../../libdaisy/src/daisy_field.h ****     enum
  31:../../libdaisy/src/daisy_field.h ****     {
  32:../../libdaisy/src/daisy_field.h ****         KNOB_1,    /**< & */
  33:../../libdaisy/src/daisy_field.h ****         KNOB_2,    /**< & */
  34:../../libdaisy/src/daisy_field.h ****         KNOB_3,    /**< & */
  35:../../libdaisy/src/daisy_field.h ****         KNOB_4,    /**< & */
  36:../../libdaisy/src/daisy_field.h ****         KNOB_5,    /**< & */
  37:../../libdaisy/src/daisy_field.h ****         KNOB_6,    /**< & */
  38:../../libdaisy/src/daisy_field.h ****         KNOB_7,    /**< & */
  39:../../libdaisy/src/daisy_field.h ****         KNOB_8,    /**< & */
  40:../../libdaisy/src/daisy_field.h ****         KNOB_LAST, /**< & */
  41:../../libdaisy/src/daisy_field.h ****     };
  42:../../libdaisy/src/daisy_field.h **** 
  43:../../libdaisy/src/daisy_field.h ****     enum
  44:../../libdaisy/src/daisy_field.h ****     {
  45:../../libdaisy/src/daisy_field.h ****         CV_1,    /** Connected to ADC1_INP17 */
  46:../../libdaisy/src/daisy_field.h ****         CV_2,    /** Connected  to ADC1_INP15 */
  47:../../libdaisy/src/daisy_field.h ****         CV_3,    /** Connected to ADC1_INP4 */
  48:../../libdaisy/src/daisy_field.h ****         CV_4,    /** Connected to ADC1_INP11 */
  49:../../libdaisy/src/daisy_field.h ****         CV_LAST, /**< & */
  50:../../libdaisy/src/daisy_field.h ****     };
  51:../../libdaisy/src/daisy_field.h **** 
  52:../../libdaisy/src/daisy_field.h ****     enum
  53:../../libdaisy/src/daisy_field.h ****     {
  54:../../libdaisy/src/daisy_field.h ****         LED_KEY_B1, /**< & */
  55:../../libdaisy/src/daisy_field.h ****         LED_KEY_B2, /**< & */
  56:../../libdaisy/src/daisy_field.h ****         LED_KEY_B3, /**< & */
  57:../../libdaisy/src/daisy_field.h ****         LED_KEY_B4, /**< & */
  58:../../libdaisy/src/daisy_field.h ****         LED_KEY_B5, /**< & */
  59:../../libdaisy/src/daisy_field.h ****         LED_KEY_B6, /**< & */
  60:../../libdaisy/src/daisy_field.h ****         LED_KEY_B7, /**< & */
  61:../../libdaisy/src/daisy_field.h ****         LED_KEY_B8, /**< & */
  62:../../libdaisy/src/daisy_field.h ****         LED_KEY_A8, /**< & */
  63:../../libdaisy/src/daisy_field.h ****         LED_KEY_A7, /**< & */
  64:../../libdaisy/src/daisy_field.h ****         LED_KEY_A6, /**< & */
  65:../../libdaisy/src/daisy_field.h ****         LED_KEY_A5, /**< & */
  66:../../libdaisy/src/daisy_field.h ****         LED_KEY_A4, /**< & */
  67:../../libdaisy/src/daisy_field.h ****         LED_KEY_A3, /**< & */
  68:../../libdaisy/src/daisy_field.h ****         LED_KEY_A2, /**< & */
  69:../../libdaisy/src/daisy_field.h ****         LED_KEY_A1, /**< & */
  70:../../libdaisy/src/daisy_field.h ****         LED_KNOB_1, /**< & */
  71:../../libdaisy/src/daisy_field.h ****         LED_KNOB_2, /**< & */
  72:../../libdaisy/src/daisy_field.h ****         LED_KNOB_3, /**< & */
  73:../../libdaisy/src/daisy_field.h ****         LED_KNOB_4, /**< & */
  74:../../libdaisy/src/daisy_field.h ****         LED_KNOB_5, /**< & */
  75:../../libdaisy/src/daisy_field.h ****         LED_KNOB_6, /**< & */
  76:../../libdaisy/src/daisy_field.h ****         LED_KNOB_7, /**< & */
  77:../../libdaisy/src/daisy_field.h ****         LED_KNOB_8, /**< & */
  78:../../libdaisy/src/daisy_field.h ****         LED_SW_1,   /**< & */
  79:../../libdaisy/src/daisy_field.h ****         LED_SW_2,   /**< & */
  80:../../libdaisy/src/daisy_field.h ****         LED_LAST    /**< & */
  81:../../libdaisy/src/daisy_field.h ****     };
  82:../../libdaisy/src/daisy_field.h **** 
  83:../../libdaisy/src/daisy_field.h ****     DaisyField() {}
  84:../../libdaisy/src/daisy_field.h ****     ~DaisyField() {}
  30              		.loc 1 84 5 view -0
  31              		.cfi_startproc
ARM GAS  /tmp/ccMpf4Yo.s 			page 3


  32              		@ args = 0, pretend = 0, frame = 0
  33              		@ frame_needed = 0, uses_anonymous_args = 0
  34              		@ link register save eliminated.
  35              	.LBB400:
  36              	.LBI400:
  37              		.file 2 "../../libdaisy/src/dev/sr_4021.h"
   1:../../libdaisy/src/dev/sr_4021.h **** #pragma once
   2:../../libdaisy/src/dev/sr_4021.h **** #ifndef DEV_SR_4021_H
   3:../../libdaisy/src/dev/sr_4021.h **** #define DEV_SR_4021_H
   4:../../libdaisy/src/dev/sr_4021.h **** #include "per/gpio.h"
   5:../../libdaisy/src/dev/sr_4021.h **** #include "sys/system.h"
   6:../../libdaisy/src/dev/sr_4021.h **** 
   7:../../libdaisy/src/dev/sr_4021.h **** namespace daisy
   8:../../libdaisy/src/dev/sr_4021.h **** {
   9:../../libdaisy/src/dev/sr_4021.h **** /** @brief Device Driver for CD4021 shift register
  10:../../libdaisy/src/dev/sr_4021.h ****  ** @author shensley
  11:../../libdaisy/src/dev/sr_4021.h ****  ** @addtogroup shiftregister
  12:../../libdaisy/src/dev/sr_4021.h ****  **
  13:../../libdaisy/src/dev/sr_4021.h ****  ** CD4021B-Q1: CMOS 8-STAGE STATIC SHIFT REGISTER
  14:../../libdaisy/src/dev/sr_4021.h ****  ** 
  15:../../libdaisy/src/dev/sr_4021.h ****  ** Supply Voltage: 3V to 18V
  16:../../libdaisy/src/dev/sr_4021.h ****  ** Clock Freq: 3MHz at 5V (less at 3v3) -> 8.5MHz at 15V
  17:../../libdaisy/src/dev/sr_4021.h ****  ** Pin Descriptions:
  18:../../libdaisy/src/dev/sr_4021.h ****  ** - Parallel Data[1-8] - 7, 6, 5, 4, 13, 14, 115, 1
  19:../../libdaisy/src/dev/sr_4021.h ****  ** - Serial Data        - 11
  20:../../libdaisy/src/dev/sr_4021.h ****  ** - Clock              - 10
  21:../../libdaisy/src/dev/sr_4021.h ****  ** - P/!S               - 9
  22:../../libdaisy/src/dev/sr_4021.h ****  ** - Q[6-8]             - 2, 12, 3
  23:../../libdaisy/src/dev/sr_4021.h ****  **
  24:../../libdaisy/src/dev/sr_4021.h ****  ** Driver has support for daisy chaining and running up to 2 same-sized 
  25:../../libdaisy/src/dev/sr_4021.h ****  ** chains in parallel from a single set of clk/latch pins to reduce 
  26:../../libdaisy/src/dev/sr_4021.h ****  ** pin/code overhead when using multiple devices.
  27:../../libdaisy/src/dev/sr_4021.h ****  **
  28:../../libdaisy/src/dev/sr_4021.h ****  ** When dealing with multiple parallel/daisy-chained devices the 
  29:../../libdaisy/src/dev/sr_4021.h ****  ** states of all inputs will be filled in the following order (example uses two chained and two pa
  30:../../libdaisy/src/dev/sr_4021.h ****  ** data[chain0,parallel0], data[chain1,parallel0], data[chain0,parallel1], data[chain1,parallel1];
  31:../../libdaisy/src/dev/sr_4021.h ****  ** 
  32:../../libdaisy/src/dev/sr_4021.h ****  ** When combining multiple daisy chained and parallel devices the number of devices chained should
  33:../../libdaisy/src/dev/sr_4021.h ****  ** for each parallel device chain.
  34:../../libdaisy/src/dev/sr_4021.h ****  **
  35:../../libdaisy/src/dev/sr_4021.h ****  ***/
  36:../../libdaisy/src/dev/sr_4021.h **** template <size_t num_daisychained = 1, size_t num_parallel = 1>
  37:../../libdaisy/src/dev/sr_4021.h **** class ShiftRegister4021
  38:../../libdaisy/src/dev/sr_4021.h **** {
  39:../../libdaisy/src/dev/sr_4021.h ****   public:
  40:../../libdaisy/src/dev/sr_4021.h ****     /** Configuration Structure for handling the pin setting of the device */
  41:../../libdaisy/src/dev/sr_4021.h ****     struct Config
  42:../../libdaisy/src/dev/sr_4021.h ****     {
  43:../../libdaisy/src/dev/sr_4021.h ****         dsy_gpio_pin clk;   /**< Clock pin to attach to pin 10 of device(s) */
  44:../../libdaisy/src/dev/sr_4021.h ****         dsy_gpio_pin latch; /**< Latch pin to attach to pin 9 of device(s) */
  45:../../libdaisy/src/dev/sr_4021.h ****         dsy_gpio_pin data[num_parallel]; /**< Data Pin(s) */
  46:../../libdaisy/src/dev/sr_4021.h ****     };
  47:../../libdaisy/src/dev/sr_4021.h **** 
  48:../../libdaisy/src/dev/sr_4021.h ****     ShiftRegister4021() {}
  49:../../libdaisy/src/dev/sr_4021.h ****     ~ShiftRegister4021() {}
  38              		.loc 2 49 5 view .LVU1
  39              		.loc 2 49 5 is_stmt 0 view .LVU2
ARM GAS  /tmp/ccMpf4Yo.s 			page 4


  40              	.LBE400:
  41              	.LBB401:
  42              	.LBI401:
  43              		.file 3 "../../libdaisy/src/hid/midi.h"
   1:../../libdaisy/src/hid/midi.h **** #pragma once
   2:../../libdaisy/src/hid/midi.h **** #ifndef DSY_MIDI_H
   3:../../libdaisy/src/hid/midi.h **** #define DSY_MIDI_H
   4:../../libdaisy/src/hid/midi.h **** 
   5:../../libdaisy/src/hid/midi.h **** // TODO: make this adjustable
   6:../../libdaisy/src/hid/midi.h **** #define SYSEX_BUFFER_LEN 128
   7:../../libdaisy/src/hid/midi.h **** 
   8:../../libdaisy/src/hid/midi.h **** #include <stdint.h>
   9:../../libdaisy/src/hid/midi.h **** #include <stdlib.h>
  10:../../libdaisy/src/hid/midi.h **** #include "per/uart.h"
  11:../../libdaisy/src/hid/midi.h **** #include "util/ringbuffer.h"
  12:../../libdaisy/src/hid/midi.h **** #include "hid/MidiEvent.h"
  13:../../libdaisy/src/hid/midi.h **** #include "sys/system.h"
  14:../../libdaisy/src/hid/midi.h **** 
  15:../../libdaisy/src/hid/midi.h **** namespace daisy
  16:../../libdaisy/src/hid/midi.h **** {
  17:../../libdaisy/src/hid/midi.h **** /** @addtogroup external 
  18:../../libdaisy/src/hid/midi.h ****     @{ 
  19:../../libdaisy/src/hid/midi.h **** */
  20:../../libdaisy/src/hid/midi.h **** 
  21:../../libdaisy/src/hid/midi.h **** class MidiUartTransport
  22:../../libdaisy/src/hid/midi.h **** {
  23:../../libdaisy/src/hid/midi.h ****   public:
  24:../../libdaisy/src/hid/midi.h ****     MidiUartTransport() {}
  25:../../libdaisy/src/hid/midi.h ****     ~MidiUartTransport() {}
  26:../../libdaisy/src/hid/midi.h **** 
  27:../../libdaisy/src/hid/midi.h ****     struct Config
  28:../../libdaisy/src/hid/midi.h ****     {
  29:../../libdaisy/src/hid/midi.h ****         UartHandler::Config::Peripheral periph;
  30:../../libdaisy/src/hid/midi.h ****         dsy_gpio_pin                    rx;
  31:../../libdaisy/src/hid/midi.h ****         dsy_gpio_pin                    tx;
  32:../../libdaisy/src/hid/midi.h **** 
  33:../../libdaisy/src/hid/midi.h ****         Config()
  34:../../libdaisy/src/hid/midi.h ****         {
  35:../../libdaisy/src/hid/midi.h ****             periph = UartHandler::Config::Peripheral::USART_1;
  36:../../libdaisy/src/hid/midi.h ****             rx     = {DSY_GPIOB, 7};
  37:../../libdaisy/src/hid/midi.h ****             tx     = {DSY_GPIOB, 6};
  38:../../libdaisy/src/hid/midi.h ****         }
  39:../../libdaisy/src/hid/midi.h ****     };
  40:../../libdaisy/src/hid/midi.h **** 
  41:../../libdaisy/src/hid/midi.h ****     inline void Init(Config config)
  42:../../libdaisy/src/hid/midi.h ****     {
  43:../../libdaisy/src/hid/midi.h ****         UartHandler::Config uart_config;
  44:../../libdaisy/src/hid/midi.h **** 
  45:../../libdaisy/src/hid/midi.h ****         //defaults
  46:../../libdaisy/src/hid/midi.h ****         uart_config.baudrate   = 31250;
  47:../../libdaisy/src/hid/midi.h ****         uart_config.stopbits   = UartHandler::Config::StopBits::BITS_1;
  48:../../libdaisy/src/hid/midi.h ****         uart_config.parity     = UartHandler::Config::Parity::NONE;
  49:../../libdaisy/src/hid/midi.h ****         uart_config.mode       = UartHandler::Config::Mode::TX_RX;
  50:../../libdaisy/src/hid/midi.h ****         uart_config.wordlength = UartHandler::Config::WordLength::BITS_8;
  51:../../libdaisy/src/hid/midi.h **** 
  52:../../libdaisy/src/hid/midi.h ****         //user settings
  53:../../libdaisy/src/hid/midi.h ****         uart_config.periph        = config.periph;
ARM GAS  /tmp/ccMpf4Yo.s 			page 5


  54:../../libdaisy/src/hid/midi.h ****         uart_config.pin_config.rx = config.rx;
  55:../../libdaisy/src/hid/midi.h ****         uart_config.pin_config.tx = config.tx;
  56:../../libdaisy/src/hid/midi.h **** 
  57:../../libdaisy/src/hid/midi.h ****         uart_.Init(uart_config);
  58:../../libdaisy/src/hid/midi.h ****     }
  59:../../libdaisy/src/hid/midi.h **** 
  60:../../libdaisy/src/hid/midi.h ****     inline void    StartRx() { uart_.StartRx(); }
  61:../../libdaisy/src/hid/midi.h ****     inline size_t  Readable() { return uart_.Readable(); }
  62:../../libdaisy/src/hid/midi.h ****     inline uint8_t Rx() { return uart_.PopRx(); }
  63:../../libdaisy/src/hid/midi.h ****     inline bool    RxActive() { return uart_.RxActive(); }
  64:../../libdaisy/src/hid/midi.h ****     inline void    FlushRx() { uart_.FlushRx(); }
  65:../../libdaisy/src/hid/midi.h ****     inline void    Tx(uint8_t* buff, size_t size) { uart_.PollTx(buff, size); }
  66:../../libdaisy/src/hid/midi.h **** 
  67:../../libdaisy/src/hid/midi.h ****   private:
  68:../../libdaisy/src/hid/midi.h ****     UartHandler uart_;
  69:../../libdaisy/src/hid/midi.h **** };
  70:../../libdaisy/src/hid/midi.h **** 
  71:../../libdaisy/src/hid/midi.h **** /** 
  72:../../libdaisy/src/hid/midi.h ****     @brief Simple MIDI Handler \n 
  73:../../libdaisy/src/hid/midi.h ****     Parses bytes from an input into valid MidiEvents. \n 
  74:../../libdaisy/src/hid/midi.h ****     The MidiEvents fill a FIFO queue that the user can pop messages from.
  75:../../libdaisy/src/hid/midi.h ****     @author shensley
  76:../../libdaisy/src/hid/midi.h ****     @date March 2020
  77:../../libdaisy/src/hid/midi.h **** */
  78:../../libdaisy/src/hid/midi.h **** template <typename Transport>
  79:../../libdaisy/src/hid/midi.h **** class MidiHandler
  80:../../libdaisy/src/hid/midi.h **** {
  81:../../libdaisy/src/hid/midi.h ****   public:
  82:../../libdaisy/src/hid/midi.h ****     MidiHandler() {}
  83:../../libdaisy/src/hid/midi.h ****     ~MidiHandler() {}
  44              		.loc 3 83 5 is_stmt 1 view .LVU3
  45              	.LBB402:
  46              	.LBI402:
  25:../../libdaisy/src/hid/midi.h **** 
  47              		.loc 3 25 5 view .LVU4
  25:../../libdaisy/src/hid/midi.h **** 
  48              		.loc 3 25 5 is_stmt 0 view .LVU5
  49              	.LBE402:
  50              	.LBE401:
  51              	.LBB403:
  52              	.LBI403:
  53              		.file 4 "../../libdaisy/src/hid/gatein.h"
   1:../../libdaisy/src/hid/gatein.h **** #pragma once
   2:../../libdaisy/src/hid/gatein.h **** #ifndef DSY_GATEIN_H
   3:../../libdaisy/src/hid/gatein.h **** #define DSY_GATEIN_H
   4:../../libdaisy/src/hid/gatein.h **** #include "per/gpio.h"
   5:../../libdaisy/src/hid/gatein.h **** 
   6:../../libdaisy/src/hid/gatein.h **** namespace daisy
   7:../../libdaisy/src/hid/gatein.h **** {
   8:../../libdaisy/src/hid/gatein.h **** /** @file hid_gatein.h */
   9:../../libdaisy/src/hid/gatein.h **** /**
  10:../../libdaisy/src/hid/gatein.h ****    @brief Generic Class for handling gate inputs through GPIO.
  11:../../libdaisy/src/hid/gatein.h ****    @author Stephen Hensley
  12:../../libdaisy/src/hid/gatein.h ****    @date    March 2020
  13:../../libdaisy/src/hid/gatein.h ****    @ingroup controls
  14:../../libdaisy/src/hid/gatein.h **** */
  15:../../libdaisy/src/hid/gatein.h **** class GateIn
ARM GAS  /tmp/ccMpf4Yo.s 			page 6


  16:../../libdaisy/src/hid/gatein.h **** {
  17:../../libdaisy/src/hid/gatein.h ****   public:
  18:../../libdaisy/src/hid/gatein.h ****     /** GateIn 
  19:../../libdaisy/src/hid/gatein.h ****     Constructor 
  20:../../libdaisy/src/hid/gatein.h ****     */
  21:../../libdaisy/src/hid/gatein.h ****     GateIn() {}
  22:../../libdaisy/src/hid/gatein.h ****     /** GateIn~
  23:../../libdaisy/src/hid/gatein.h ****     Destructor 
  24:../../libdaisy/src/hid/gatein.h ****     */
  25:../../libdaisy/src/hid/gatein.h ****     ~GateIn() {}
  54              		.loc 4 25 5 is_stmt 1 view .LVU6
  55              		.loc 4 25 5 is_stmt 0 view .LVU7
  56              	.LBE403:
  57              	.LBB404:
  58              	.LBI404:
  59              		.file 5 "../../libdaisy/src/hid/disp/oled_display.h"
   1:../../libdaisy/src/hid/disp/oled_display.h **** #pragma once
   2:../../libdaisy/src/hid/disp/oled_display.h **** #ifndef DSY_OLED_DISPLAY_H
   3:../../libdaisy/src/hid/disp/oled_display.h **** #define DSY_OLED_DISPLAY_H /**< Macro */
   4:../../libdaisy/src/hid/disp/oled_display.h **** 
   5:../../libdaisy/src/hid/disp/oled_display.h **** #include "display.h"
   6:../../libdaisy/src/hid/disp/oled_display.h **** 
   7:../../libdaisy/src/hid/disp/oled_display.h **** namespace daisy
   8:../../libdaisy/src/hid/disp/oled_display.h **** {
   9:../../libdaisy/src/hid/disp/oled_display.h **** /** 
  10:../../libdaisy/src/hid/disp/oled_display.h ****  * This class is for drawing to a monochrome OLED display. 
  11:../../libdaisy/src/hid/disp/oled_display.h **** */
  12:../../libdaisy/src/hid/disp/oled_display.h **** template <typename DisplayDriver>
  13:../../libdaisy/src/hid/disp/oled_display.h **** class OledDisplay : public OneBitGraphicsDisplayImpl<OledDisplay<DisplayDriver>>
  14:../../libdaisy/src/hid/disp/oled_display.h **** {
  15:../../libdaisy/src/hid/disp/oled_display.h ****   public:
  16:../../libdaisy/src/hid/disp/oled_display.h ****     OledDisplay() {}
  17:../../libdaisy/src/hid/disp/oled_display.h ****     virtual ~OledDisplay() {}
  60              		.loc 5 17 13 is_stmt 1 view .LVU8
  61              	.LBB405:
  62              	.LBI405:
  63              		.file 6 "../../libdaisy/src/hid/disp/display.h"
   1:../../libdaisy/src/hid/disp/display.h **** #pragma once
   2:../../libdaisy/src/hid/disp/display.h **** #ifndef DSY_DISPLAY_H
   3:../../libdaisy/src/hid/disp/display.h **** #define DSY_DISPLAY_H /**< Macro */
   4:../../libdaisy/src/hid/disp/display.h **** #include <cmath>
   5:../../libdaisy/src/hid/disp/display.h **** #include "util/oled_fonts.h"
   6:../../libdaisy/src/hid/disp/display.h **** #include "daisy_core.h"
   7:../../libdaisy/src/hid/disp/display.h **** #include "graphics_common.h"
   8:../../libdaisy/src/hid/disp/display.h **** 
   9:../../libdaisy/src/hid/disp/display.h **** #ifndef deg2rad
  10:../../libdaisy/src/hid/disp/display.h **** #define deg2rad(deg) ((deg)*3.141592 / 180.0)
  11:../../libdaisy/src/hid/disp/display.h **** #endif
  12:../../libdaisy/src/hid/disp/display.h **** 
  13:../../libdaisy/src/hid/disp/display.h **** namespace daisy
  14:../../libdaisy/src/hid/disp/display.h **** {
  15:../../libdaisy/src/hid/disp/display.h **** /** 
  16:../../libdaisy/src/hid/disp/display.h ****  * This interface is used as a base class for all types of 1bit-per-pixel
  17:../../libdaisy/src/hid/disp/display.h ****  * graphics displays.
  18:../../libdaisy/src/hid/disp/display.h **** */
  19:../../libdaisy/src/hid/disp/display.h **** class OneBitGraphicsDisplay
  20:../../libdaisy/src/hid/disp/display.h **** {
ARM GAS  /tmp/ccMpf4Yo.s 			page 7


  21:../../libdaisy/src/hid/disp/display.h ****   public:
  22:../../libdaisy/src/hid/disp/display.h ****     OneBitGraphicsDisplay() {}
  23:../../libdaisy/src/hid/disp/display.h ****     virtual ~OneBitGraphicsDisplay() {}
  24:../../libdaisy/src/hid/disp/display.h **** 
  25:../../libdaisy/src/hid/disp/display.h ****     virtual uint16_t Height() const = 0;
  26:../../libdaisy/src/hid/disp/display.h ****     virtual uint16_t Width() const  = 0;
  27:../../libdaisy/src/hid/disp/display.h **** 
  28:../../libdaisy/src/hid/disp/display.h ****     Rectangle GetBounds() const
  29:../../libdaisy/src/hid/disp/display.h ****     {
  30:../../libdaisy/src/hid/disp/display.h ****         return Rectangle(int16_t(Width()), int16_t(Height()));
  31:../../libdaisy/src/hid/disp/display.h ****     }
  32:../../libdaisy/src/hid/disp/display.h **** 
  33:../../libdaisy/src/hid/disp/display.h **** 
  34:../../libdaisy/src/hid/disp/display.h ****     size_t CurrentX() { return currentX_; };
  35:../../libdaisy/src/hid/disp/display.h ****     size_t CurrentY() { return currentY_; };
  36:../../libdaisy/src/hid/disp/display.h **** 
  37:../../libdaisy/src/hid/disp/display.h ****     /** 
  38:../../libdaisy/src/hid/disp/display.h ****     Fills the entire display with either on/off.
  39:../../libdaisy/src/hid/disp/display.h ****     \param on Sets on or off.
  40:../../libdaisy/src/hid/disp/display.h ****     */
  41:../../libdaisy/src/hid/disp/display.h ****     virtual void Fill(bool on) = 0;
  42:../../libdaisy/src/hid/disp/display.h **** 
  43:../../libdaisy/src/hid/disp/display.h ****     /**
  44:../../libdaisy/src/hid/disp/display.h ****     Sets the pixel at the specified coordinate to be on/off.
  45:../../libdaisy/src/hid/disp/display.h ****     \param x   x Coordinate
  46:../../libdaisy/src/hid/disp/display.h ****     \param y   y coordinate
  47:../../libdaisy/src/hid/disp/display.h ****     \param on  on or off
  48:../../libdaisy/src/hid/disp/display.h ****     */
  49:../../libdaisy/src/hid/disp/display.h ****     virtual void DrawPixel(uint_fast8_t x, uint_fast8_t y, bool on) = 0;
  50:../../libdaisy/src/hid/disp/display.h **** 
  51:../../libdaisy/src/hid/disp/display.h ****     /**
  52:../../libdaisy/src/hid/disp/display.h ****     Draws a line from (x1, y1) to (y1, y2)
  53:../../libdaisy/src/hid/disp/display.h ****     \param x1  x Coordinate of the starting point
  54:../../libdaisy/src/hid/disp/display.h ****     \param y1  y Coordinate of the starting point
  55:../../libdaisy/src/hid/disp/display.h ****     \param x2  x Coordinate of the ending point
  56:../../libdaisy/src/hid/disp/display.h ****     \param y2  y Coordinate of the ending point
  57:../../libdaisy/src/hid/disp/display.h ****     \param on  on or off
  58:../../libdaisy/src/hid/disp/display.h ****     */
  59:../../libdaisy/src/hid/disp/display.h ****     virtual void DrawLine(uint_fast8_t x1,
  60:../../libdaisy/src/hid/disp/display.h ****                           uint_fast8_t y1,
  61:../../libdaisy/src/hid/disp/display.h ****                           uint_fast8_t x2,
  62:../../libdaisy/src/hid/disp/display.h ****                           uint_fast8_t y2,
  63:../../libdaisy/src/hid/disp/display.h ****                           bool         on)
  64:../../libdaisy/src/hid/disp/display.h ****         = 0;
  65:../../libdaisy/src/hid/disp/display.h **** 
  66:../../libdaisy/src/hid/disp/display.h ****     /**
  67:../../libdaisy/src/hid/disp/display.h ****     Draws a rectangle based on two coordinates.
  68:../../libdaisy/src/hid/disp/display.h ****     \param x1 x Coordinate of the first point
  69:../../libdaisy/src/hid/disp/display.h ****     \param y1 y Coordinate of the first point
  70:../../libdaisy/src/hid/disp/display.h ****     \param x2 x Coordinate of the second point
  71:../../libdaisy/src/hid/disp/display.h ****     \param y2 y Coordinate of the second point
  72:../../libdaisy/src/hid/disp/display.h ****     \param on on or off
  73:../../libdaisy/src/hid/disp/display.h ****     \param fill fill the rectangle or draw only the outline
  74:../../libdaisy/src/hid/disp/display.h ****     */
  75:../../libdaisy/src/hid/disp/display.h ****     virtual void DrawRect(uint_fast8_t x1,
  76:../../libdaisy/src/hid/disp/display.h ****                           uint_fast8_t y1,
  77:../../libdaisy/src/hid/disp/display.h ****                           uint_fast8_t x2,
ARM GAS  /tmp/ccMpf4Yo.s 			page 8


  78:../../libdaisy/src/hid/disp/display.h ****                           uint_fast8_t y2,
  79:../../libdaisy/src/hid/disp/display.h ****                           bool         on,
  80:../../libdaisy/src/hid/disp/display.h ****                           bool         fill = false)
  81:../../libdaisy/src/hid/disp/display.h ****         = 0;
  82:../../libdaisy/src/hid/disp/display.h **** 
  83:../../libdaisy/src/hid/disp/display.h ****     /**
  84:../../libdaisy/src/hid/disp/display.h ****     Draws a rectangle.
  85:../../libdaisy/src/hid/disp/display.h ****     \param rect the rectangle
  86:../../libdaisy/src/hid/disp/display.h ****     \param on   on or off
  87:../../libdaisy/src/hid/disp/display.h ****     \param fill fill the rectangle or draw only the outline
  88:../../libdaisy/src/hid/disp/display.h ****     */
  89:../../libdaisy/src/hid/disp/display.h ****     void DrawRect(const Rectangle& rect, bool on, bool fill = false)
  90:../../libdaisy/src/hid/disp/display.h ****     {
  91:../../libdaisy/src/hid/disp/display.h ****         DrawRect(rect.GetX(),
  92:../../libdaisy/src/hid/disp/display.h ****                  rect.GetY(),
  93:../../libdaisy/src/hid/disp/display.h ****                  rect.GetRight(),
  94:../../libdaisy/src/hid/disp/display.h ****                  rect.GetBottom(),
  95:../../libdaisy/src/hid/disp/display.h ****                  on,
  96:../../libdaisy/src/hid/disp/display.h ****                  fill);
  97:../../libdaisy/src/hid/disp/display.h ****     }
  98:../../libdaisy/src/hid/disp/display.h **** 
  99:../../libdaisy/src/hid/disp/display.h ****     /**
 100:../../libdaisy/src/hid/disp/display.h ****     Draws an arc around the specified coordinate
 101:../../libdaisy/src/hid/disp/display.h ****     \param x           x Coordinate of the center of the arc
 102:../../libdaisy/src/hid/disp/display.h ****     \param y           y Coordinate of the center of the arc
 103:../../libdaisy/src/hid/disp/display.h ****     \param radius      radius of the arc
 104:../../libdaisy/src/hid/disp/display.h ****     \param start_angle angle where to start the arc
 105:../../libdaisy/src/hid/disp/display.h ****     \param sweep       total angle of the arc
 106:../../libdaisy/src/hid/disp/display.h ****     \param on  on or off
 107:../../libdaisy/src/hid/disp/display.h ****     */
 108:../../libdaisy/src/hid/disp/display.h ****     virtual void DrawArc(uint_fast8_t x,
 109:../../libdaisy/src/hid/disp/display.h ****                          uint_fast8_t y,
 110:../../libdaisy/src/hid/disp/display.h ****                          uint_fast8_t radius,
 111:../../libdaisy/src/hid/disp/display.h ****                          int_fast16_t start_angle,
 112:../../libdaisy/src/hid/disp/display.h ****                          int_fast16_t sweep,
 113:../../libdaisy/src/hid/disp/display.h ****                          bool         on)
 114:../../libdaisy/src/hid/disp/display.h ****         = 0;
 115:../../libdaisy/src/hid/disp/display.h **** 
 116:../../libdaisy/src/hid/disp/display.h ****     /**
 117:../../libdaisy/src/hid/disp/display.h ****     Draws a circle around the specified coordinate
 118:../../libdaisy/src/hid/disp/display.h ****     \param x           x Coordinate of the center of the circle
 119:../../libdaisy/src/hid/disp/display.h ****     \param y           y Coordinate of the center of the circle
 120:../../libdaisy/src/hid/disp/display.h ****     \param radius      radius of the circle
 121:../../libdaisy/src/hid/disp/display.h ****     \param on  on or off
 122:../../libdaisy/src/hid/disp/display.h ****     */
 123:../../libdaisy/src/hid/disp/display.h ****     void
 124:../../libdaisy/src/hid/disp/display.h ****     DrawCircle(uint_fast8_t x, uint_fast8_t y, uint_fast8_t radius, bool on)
 125:../../libdaisy/src/hid/disp/display.h ****     {
 126:../../libdaisy/src/hid/disp/display.h ****         DrawArc(x, y, radius, 0, 360, on);
 127:../../libdaisy/src/hid/disp/display.h ****     };
 128:../../libdaisy/src/hid/disp/display.h **** 
 129:../../libdaisy/src/hid/disp/display.h ****     /** 
 130:../../libdaisy/src/hid/disp/display.h ****     Writes the character with the specific FontDef
 131:../../libdaisy/src/hid/disp/display.h ****     to the display buffer at the current Cursor position.
 132:../../libdaisy/src/hid/disp/display.h ****     \param ch character to be written
 133:../../libdaisy/src/hid/disp/display.h ****     \param font font to be written in
 134:../../libdaisy/src/hid/disp/display.h ****     \param on    on or off
ARM GAS  /tmp/ccMpf4Yo.s 			page 9


 135:../../libdaisy/src/hid/disp/display.h ****     \return &
 136:../../libdaisy/src/hid/disp/display.h ****     */
 137:../../libdaisy/src/hid/disp/display.h ****     virtual char WriteChar(char ch, FontDef font, bool on) = 0;
 138:../../libdaisy/src/hid/disp/display.h **** 
 139:../../libdaisy/src/hid/disp/display.h ****     /** 
 140:../../libdaisy/src/hid/disp/display.h ****     Similar to WriteChar, except it will handle an entire String.
 141:../../libdaisy/src/hid/disp/display.h ****     Wrapping does not happen automatically, so the width
 142:../../libdaisy/src/hid/disp/display.h ****     of the string must be kept within the dimensions of the screen.
 143:../../libdaisy/src/hid/disp/display.h ****     \param str string to be written
 144:../../libdaisy/src/hid/disp/display.h ****     \param font font to use
 145:../../libdaisy/src/hid/disp/display.h ****     \param on  on or off
 146:../../libdaisy/src/hid/disp/display.h ****     \return &
 147:../../libdaisy/src/hid/disp/display.h ****     */
 148:../../libdaisy/src/hid/disp/display.h ****     virtual char WriteString(const char* str, FontDef font, bool on) = 0;
 149:../../libdaisy/src/hid/disp/display.h **** 
 150:../../libdaisy/src/hid/disp/display.h ****     /** 
 151:../../libdaisy/src/hid/disp/display.h ****     Similar to WriteString but justified within a bounding box.
 152:../../libdaisy/src/hid/disp/display.h ****     \param str          string to be written
 153:../../libdaisy/src/hid/disp/display.h ****     \param font         font to use
 154:../../libdaisy/src/hid/disp/display.h ****     \param boundingBox  the bounding box to draw the text in
 155:../../libdaisy/src/hid/disp/display.h ****     \param alignment    the alignment to use
 156:../../libdaisy/src/hid/disp/display.h ****     \param on           on or off
 157:../../libdaisy/src/hid/disp/display.h ****     \return The rectangle that was drawn to
 158:../../libdaisy/src/hid/disp/display.h ****     */
 159:../../libdaisy/src/hid/disp/display.h ****     virtual Rectangle WriteStringAligned(const char*    str,
 160:../../libdaisy/src/hid/disp/display.h ****                                          const FontDef& font,
 161:../../libdaisy/src/hid/disp/display.h ****                                          Rectangle      boundingBox,
 162:../../libdaisy/src/hid/disp/display.h ****                                          Alignment      alignment,
 163:../../libdaisy/src/hid/disp/display.h ****                                          bool           on)
 164:../../libdaisy/src/hid/disp/display.h ****         = 0;
 165:../../libdaisy/src/hid/disp/display.h **** 
 166:../../libdaisy/src/hid/disp/display.h ****     /** 
 167:../../libdaisy/src/hid/disp/display.h ****     Moves the 'Cursor' position used for WriteChar, and WriteStr to the specified coordinate.
 168:../../libdaisy/src/hid/disp/display.h ****     \param x x pos
 169:../../libdaisy/src/hid/disp/display.h ****     \param y y pos
 170:../../libdaisy/src/hid/disp/display.h ****     */
 171:../../libdaisy/src/hid/disp/display.h ****     void SetCursor(uint16_t x, uint16_t y)
 172:../../libdaisy/src/hid/disp/display.h ****     {
 173:../../libdaisy/src/hid/disp/display.h ****         currentX_ = (x >= Width()) ? Width() - 1 : x;
 174:../../libdaisy/src/hid/disp/display.h ****         currentY_ = (y >= Height()) ? Height() - 1 : y;
 175:../../libdaisy/src/hid/disp/display.h ****     }
 176:../../libdaisy/src/hid/disp/display.h **** 
 177:../../libdaisy/src/hid/disp/display.h ****     /** 
 178:../../libdaisy/src/hid/disp/display.h ****     Writes the current display buffer to the OLED device using SPI or I2C depending on 
 179:../../libdaisy/src/hid/disp/display.h ****     how the object was initialized.
 180:../../libdaisy/src/hid/disp/display.h ****     */
 181:../../libdaisy/src/hid/disp/display.h ****     virtual void Update() = 0;
 182:../../libdaisy/src/hid/disp/display.h **** 
 183:../../libdaisy/src/hid/disp/display.h ****   protected:
 184:../../libdaisy/src/hid/disp/display.h ****     uint16_t currentX_;
 185:../../libdaisy/src/hid/disp/display.h ****     uint16_t currentY_;
 186:../../libdaisy/src/hid/disp/display.h **** };
 187:../../libdaisy/src/hid/disp/display.h **** 
 188:../../libdaisy/src/hid/disp/display.h **** /** This class is intended as a intermediary class for your actual implementation of the OneBitGrap
 189:../../libdaisy/src/hid/disp/display.h ****  *  interface. It uses the CRTP design pattern where the template argument is the child class. It p
 190:../../libdaisy/src/hid/disp/display.h ****  *  implementations for most of the functions, except DrawPixel(), Update() and Fill(), which you'l
 191:../../libdaisy/src/hid/disp/display.h ****  *  to provide in your child class.
ARM GAS  /tmp/ccMpf4Yo.s 			page 10


 192:../../libdaisy/src/hid/disp/display.h ****  *  The main goal of this class is to provide common drawing functions without relying on massive a
 193:../../libdaisy/src/hid/disp/display.h ****  *  virtual function calls that would result in a performance loss. To achieve this, any drawing fu
 194:../../libdaisy/src/hid/disp/display.h ****  *  is implemented here and internally calls other drawing functions (e.g. DrawRect() which interna
 195:../../libdaisy/src/hid/disp/display.h ****  *  DrawPixel() and DrawLine()) makes these calls via the qualified name of these functions to expl
 196:../../libdaisy/src/hid/disp/display.h ****  *  suppress the virtual dispatch mechanism like this:
 197:../../libdaisy/src/hid/disp/display.h ****  * 
 198:../../libdaisy/src/hid/disp/display.h ****  *      ChildType::DrawPixel(...); // no virtual function call; direct call into the child class fu
 199:../../libdaisy/src/hid/disp/display.h ****  *  
 200:../../libdaisy/src/hid/disp/display.h ****  *  To create a custom OneBitGraphicsDisplay implementation, you can 
 201:../../libdaisy/src/hid/disp/display.h ****  *  A) inherit from OneBitGraphicsDisplay directly and provide all the drawing functions yourself
 202:../../libdaisy/src/hid/disp/display.h ****  *  B) Inherit from OneBitGraphicsDisplayImpl and only provide DrawPixel(), Fill() and Update()
 203:../../libdaisy/src/hid/disp/display.h ****  *     like this:
 204:../../libdaisy/src/hid/disp/display.h ****  *  
 205:../../libdaisy/src/hid/disp/display.h ****  *      class MyDisplayClass : public OneBitGraphicsDisplayImpl<MyDisplayClass> 
 206:../../libdaisy/src/hid/disp/display.h ****  *      {
 207:../../libdaisy/src/hid/disp/display.h ****  *      public:
 208:../../libdaisy/src/hid/disp/display.h ****  *          void Fill() override { ... };
 209:../../libdaisy/src/hid/disp/display.h ****  *          void DrawPixel(uint_fast8_t x, uint_fast8_t y, bool on) override { ... };
 210:../../libdaisy/src/hid/disp/display.h ****  *          void Update() override { ... }
 211:../../libdaisy/src/hid/disp/display.h ****  *      };
 212:../../libdaisy/src/hid/disp/display.h ****  *  
 213:../../libdaisy/src/hid/disp/display.h ****  */
 214:../../libdaisy/src/hid/disp/display.h **** template <class ChildType>
 215:../../libdaisy/src/hid/disp/display.h **** class OneBitGraphicsDisplayImpl : public OneBitGraphicsDisplay
 216:../../libdaisy/src/hid/disp/display.h **** {
 217:../../libdaisy/src/hid/disp/display.h ****   public:
 218:../../libdaisy/src/hid/disp/display.h ****     OneBitGraphicsDisplayImpl() {}
 219:../../libdaisy/src/hid/disp/display.h ****     virtual ~OneBitGraphicsDisplayImpl() {}
  64              		.loc 6 219 13 view .LVU9
  65              	.LBB406:
  66              	.LBI406:
  23:../../libdaisy/src/hid/disp/display.h **** 
  67              		.loc 6 23 13 view .LVU10
  23:../../libdaisy/src/hid/disp/display.h **** 
  68              		.loc 6 23 13 is_stmt 0 view .LVU11
  69              	.LBE406:
  70              	.LBE405:
  71              	.LBE404:
  72              	.LBB407:
  73              	.LBI407:
  74              		.file 7 "../../libdaisy/src/daisy_seed.h"
   1:../../libdaisy/src/daisy_seed.h **** #pragma once
   2:../../libdaisy/src/daisy_seed.h **** #ifndef DSY_SEED_H
   3:../../libdaisy/src/daisy_seed.h **** #define DSY_SEED_H
   4:../../libdaisy/src/daisy_seed.h **** 
   5:../../libdaisy/src/daisy_seed.h **** #include "daisy.h"
   6:../../libdaisy/src/daisy_seed.h **** 
   7:../../libdaisy/src/daisy_seed.h **** //Uncomment this out if you're still using the rev2 hardware
   8:../../libdaisy/src/daisy_seed.h **** //#define SEED_REV2
   9:../../libdaisy/src/daisy_seed.h **** 
  10:../../libdaisy/src/daisy_seed.h **** namespace daisy
  11:../../libdaisy/src/daisy_seed.h **** {
  12:../../libdaisy/src/daisy_seed.h **** /**
  13:../../libdaisy/src/daisy_seed.h ****    @brief This is the higher-level interface for the Daisy board. \n 
  14:../../libdaisy/src/daisy_seed.h ****     All basic peripheral configuration/initialization is setup here. \n
  15:../../libdaisy/src/daisy_seed.h **** 
  16:../../libdaisy/src/daisy_seed.h ****    @ingroup boards
ARM GAS  /tmp/ccMpf4Yo.s 			page 11


  17:../../libdaisy/src/daisy_seed.h **** */
  18:../../libdaisy/src/daisy_seed.h **** class DaisySeed
  19:../../libdaisy/src/daisy_seed.h **** {
  20:../../libdaisy/src/daisy_seed.h ****   public:
  21:../../libdaisy/src/daisy_seed.h ****     DaisySeed() {}
  22:../../libdaisy/src/daisy_seed.h ****     ~DaisySeed() {}
  75              		.loc 7 22 5 is_stmt 1 view .LVU12
  76              	.LBB408:
  77              	.LBI408:
  78              		.file 8 "../../libdaisy/src/sys/system.h"
   1:../../libdaisy/src/sys/system.h **** #ifndef DSY_SYSTEM_H
   2:../../libdaisy/src/sys/system.h **** #define DSY_SYSTEM_H
   3:../../libdaisy/src/sys/system.h **** 
   4:../../libdaisy/src/sys/system.h **** #ifndef UNIT_TEST // for unit tests, a dummy implementation is provided below
   5:../../libdaisy/src/sys/system.h **** 
   6:../../libdaisy/src/sys/system.h **** #include <cstdint>
   7:../../libdaisy/src/sys/system.h **** #include "per/tim.h"
   8:../../libdaisy/src/sys/system.h **** 
   9:../../libdaisy/src/sys/system.h **** namespace daisy
  10:../../libdaisy/src/sys/system.h **** {
  11:../../libdaisy/src/sys/system.h **** /** A handle for interacting with the Core System. 
  12:../../libdaisy/src/sys/system.h ****  ** This includes the Clock tree, MPU, global DMA initialization,
  13:../../libdaisy/src/sys/system.h ****  ** cache handling, and any other necessary global initiailzation
  14:../../libdaisy/src/sys/system.h ****  **
  15:../../libdaisy/src/sys/system.h ****  ** @author shensley
  16:../../libdaisy/src/sys/system.h ****  ** @addtogroup system
  17:../../libdaisy/src/sys/system.h ****  */
  18:../../libdaisy/src/sys/system.h **** class System
  19:../../libdaisy/src/sys/system.h **** {
  20:../../libdaisy/src/sys/system.h ****   public:
  21:../../libdaisy/src/sys/system.h ****     /** Contains settings for initializing the System */
  22:../../libdaisy/src/sys/system.h ****     struct Config
  23:../../libdaisy/src/sys/system.h ****     {
  24:../../libdaisy/src/sys/system.h ****         /** Specifies the system clock frequency that feeds APB/AHB clocks, etc. */
  25:../../libdaisy/src/sys/system.h ****         enum class SysClkFreq
  26:../../libdaisy/src/sys/system.h ****         {
  27:../../libdaisy/src/sys/system.h ****             FREQ_400MHZ,
  28:../../libdaisy/src/sys/system.h ****             FREQ_480MHZ,
  29:../../libdaisy/src/sys/system.h ****         };
  30:../../libdaisy/src/sys/system.h **** 
  31:../../libdaisy/src/sys/system.h ****         /** Method to call on the struct to set to defaults
  32:../../libdaisy/src/sys/system.h ****          ** CPU Freq set to 400MHz
  33:../../libdaisy/src/sys/system.h ****          ** Cache Enabled 
  34:../../libdaisy/src/sys/system.h ****          ** */
  35:../../libdaisy/src/sys/system.h ****         void Defaults()
  36:../../libdaisy/src/sys/system.h ****         {
  37:../../libdaisy/src/sys/system.h ****             cpu_freq   = SysClkFreq::FREQ_400MHZ;
  38:../../libdaisy/src/sys/system.h ****             use_dcache = true;
  39:../../libdaisy/src/sys/system.h ****             use_icache = true;
  40:../../libdaisy/src/sys/system.h ****         }
  41:../../libdaisy/src/sys/system.h **** 
  42:../../libdaisy/src/sys/system.h ****         /** Method to call on the struct to set to boost mode:
  43:../../libdaisy/src/sys/system.h ****          ** CPU Freq set to 480MHz
  44:../../libdaisy/src/sys/system.h ****          ** Cache Enabled 
  45:../../libdaisy/src/sys/system.h ****          ** */
  46:../../libdaisy/src/sys/system.h ****         void Boost()
  47:../../libdaisy/src/sys/system.h ****         {
ARM GAS  /tmp/ccMpf4Yo.s 			page 12


  48:../../libdaisy/src/sys/system.h ****             cpu_freq   = SysClkFreq::FREQ_480MHZ;
  49:../../libdaisy/src/sys/system.h ****             use_dcache = true;
  50:../../libdaisy/src/sys/system.h ****             use_icache = true;
  51:../../libdaisy/src/sys/system.h ****         }
  52:../../libdaisy/src/sys/system.h **** 
  53:../../libdaisy/src/sys/system.h ****         SysClkFreq cpu_freq;
  54:../../libdaisy/src/sys/system.h ****         bool       use_dcache;
  55:../../libdaisy/src/sys/system.h ****         bool       use_icache;
  56:../../libdaisy/src/sys/system.h ****     };
  57:../../libdaisy/src/sys/system.h **** 
  58:../../libdaisy/src/sys/system.h ****     System() {}
  59:../../libdaisy/src/sys/system.h ****     ~System() {}
  79              		.loc 8 59 5 view .LVU13
  80              		.loc 8 59 5 is_stmt 0 view .LVU14
  81              	.LBE408:
  82              	.LBB409:
  83              	.LBI409:
  84              		.file 9 "../../libdaisy/src/hid/usb.h"
   1:../../libdaisy/src/hid/usb.h **** #pragma once
   2:../../libdaisy/src/hid/usb.h **** #ifndef DSY_HID_USB_H
   3:../../libdaisy/src/hid/usb.h **** #define DSY_HID_USB_H
   4:../../libdaisy/src/hid/usb.h **** #include <stdint.h>
   5:../../libdaisy/src/hid/usb.h **** #include <stdlib.h>
   6:../../libdaisy/src/hid/usb.h **** 
   7:../../libdaisy/src/hid/usb.h **** namespace daisy
   8:../../libdaisy/src/hid/usb.h **** /** @addtogroup externals
   9:../../libdaisy/src/hid/usb.h ****     @{
  10:../../libdaisy/src/hid/usb.h **** */
  11:../../libdaisy/src/hid/usb.h **** 
  12:../../libdaisy/src/hid/usb.h **** {
  13:../../libdaisy/src/hid/usb.h **** /** 
  14:../../libdaisy/src/hid/usb.h ****     @brief Interface for initializing and using the USB Peripherals on the daisy
  15:../../libdaisy/src/hid/usb.h ****     @author Stephen Hensley
  16:../../libdaisy/src/hid/usb.h ****     @date December 2019
  17:../../libdaisy/src/hid/usb.h **** */
  18:../../libdaisy/src/hid/usb.h **** class UsbHandle
  19:../../libdaisy/src/hid/usb.h **** {
  20:../../libdaisy/src/hid/usb.h ****   public:
  21:../../libdaisy/src/hid/usb.h ****     /** Return values for USBHandle Functions */
  22:../../libdaisy/src/hid/usb.h ****     enum class Result
  23:../../libdaisy/src/hid/usb.h ****     {
  24:../../libdaisy/src/hid/usb.h ****         OK,
  25:../../libdaisy/src/hid/usb.h ****         ERR,
  26:../../libdaisy/src/hid/usb.h ****     };
  27:../../libdaisy/src/hid/usb.h **** 
  28:../../libdaisy/src/hid/usb.h ****     /** Specified which of the two USB Peripherals to initialize. */
  29:../../libdaisy/src/hid/usb.h ****     enum UsbPeriph
  30:../../libdaisy/src/hid/usb.h ****     {
  31:../../libdaisy/src/hid/usb.h ****         FS_INTERNAL, /**< Internal pin */
  32:../../libdaisy/src/hid/usb.h ****         FS_EXTERNAL, /**< FS External D+ pin is Pin 38 (GPIO32). FS External D- pin is Pin 37 (GPIO
  33:../../libdaisy/src/hid/usb.h ****         FS_BOTH,     /**< Both */
  34:../../libdaisy/src/hid/usb.h ****     };
  35:../../libdaisy/src/hid/usb.h **** 
  36:../../libdaisy/src/hid/usb.h **** 
  37:../../libdaisy/src/hid/usb.h ****     /** Function called upon reception of a buffer */
  38:../../libdaisy/src/hid/usb.h ****     typedef void (*ReceiveCallback)(uint8_t* buff, uint32_t* len);
  39:../../libdaisy/src/hid/usb.h **** 
ARM GAS  /tmp/ccMpf4Yo.s 			page 13


  40:../../libdaisy/src/hid/usb.h ****     UsbHandle() {}
  41:../../libdaisy/src/hid/usb.h **** 
  42:../../libdaisy/src/hid/usb.h ****     ~UsbHandle() {}
  85              		.loc 9 42 5 is_stmt 1 view .LVU15
  86              		.loc 9 42 5 is_stmt 0 view .LVU16
  87              	.LBE409:
  88              	.LBB410:
  89              	.LBI410:
  90              		.file 10 "../../libdaisy/src/per/adc.h"
   1:../../libdaisy/src/per/adc.h **** #pragma once
   2:../../libdaisy/src/per/adc.h **** #ifndef DSY_ADC_H
   3:../../libdaisy/src/per/adc.h **** #define DSY_ADC_H /**< Macro */
   4:../../libdaisy/src/per/adc.h **** #include <stdint.h>
   5:../../libdaisy/src/per/adc.h **** #include <stdlib.h>
   6:../../libdaisy/src/per/adc.h **** #include "daisy_core.h"
   7:../../libdaisy/src/per/adc.h **** #include "per/gpio.h"
   8:../../libdaisy/src/per/adc.h **** 
   9:../../libdaisy/src/per/adc.h **** #define DSY_ADC_MAX_CHANNELS 14 /**< Maximum number of ADC channels */
  10:../../libdaisy/src/per/adc.h **** 
  11:../../libdaisy/src/per/adc.h **** namespace daisy
  12:../../libdaisy/src/per/adc.h **** {
  13:../../libdaisy/src/per/adc.h **** /** @addtogroup analog_digital_conversion
  14:../../libdaisy/src/per/adc.h ****     @{
  15:../../libdaisy/src/per/adc.h **** */
  16:../../libdaisy/src/per/adc.h **** 
  17:../../libdaisy/src/per/adc.h **** /* While there may not be many configuration options here,
  18:../../libdaisy/src/per/adc.h **** using a struct like this allows us to add more configuration
  19:../../libdaisy/src/per/adc.h **** later without breaking existing functionality.
  20:../../libdaisy/src/per/adc.h **** */
  21:../../libdaisy/src/per/adc.h **** 
  22:../../libdaisy/src/per/adc.h **** /** Configuration Structure for a given channel */
  23:../../libdaisy/src/per/adc.h **** struct AdcChannelConfig
  24:../../libdaisy/src/per/adc.h **** {
  25:../../libdaisy/src/per/adc.h ****     /** Which pin to use for multiplexing */
  26:../../libdaisy/src/per/adc.h ****     enum MuxPin
  27:../../libdaisy/src/per/adc.h ****     {
  28:../../libdaisy/src/per/adc.h ****         MUX_SEL_0,    /**< & */
  29:../../libdaisy/src/per/adc.h ****         MUX_SEL_1,    /**< & */
  30:../../libdaisy/src/per/adc.h ****         MUX_SEL_2,    /**< & */
  31:../../libdaisy/src/per/adc.h ****         MUX_SEL_LAST, /**< & */
  32:../../libdaisy/src/per/adc.h ****     };
  33:../../libdaisy/src/per/adc.h **** 
  34:../../libdaisy/src/per/adc.h ****     /** Initializes a single ADC pin as an ADC. 
  35:../../libdaisy/src/per/adc.h ****     \param pin Pin to init.
  36:../../libdaisy/src/per/adc.h ****      */
  37:../../libdaisy/src/per/adc.h ****     void InitSingle(dsy_gpio_pin pin);
  38:../../libdaisy/src/per/adc.h **** 
  39:../../libdaisy/src/per/adc.h ****     /** 
  40:../../libdaisy/src/per/adc.h ****     Initializes a single ADC pin as a Multiplexed ADC.
  41:../../libdaisy/src/per/adc.h ****     Requires a CD405X Multiplexer connected to the pin.
  42:../../libdaisy/src/per/adc.h ****     You only need to supply the mux pins that are required,
  43:../../libdaisy/src/per/adc.h ****     e.g. a 4052 mux would only require mux_0 and mux_1.
  44:../../libdaisy/src/per/adc.h ****     Internal Callbacks handle the pin addressing.
  45:../../libdaisy/src/per/adc.h ****     \param mux_channels must be 1-8
  46:../../libdaisy/src/per/adc.h ****     \param mux_0 First mux pin
  47:../../libdaisy/src/per/adc.h ****     \param mux_1 Second mux pin
  48:../../libdaisy/src/per/adc.h ****     \param mux_2 Third mux pin
ARM GAS  /tmp/ccMpf4Yo.s 			page 14


  49:../../libdaisy/src/per/adc.h ****     \param adc_pin &
  50:../../libdaisy/src/per/adc.h ****     */
  51:../../libdaisy/src/per/adc.h ****     void InitMux(dsy_gpio_pin adc_pin,
  52:../../libdaisy/src/per/adc.h ****                  size_t       mux_channels,
  53:../../libdaisy/src/per/adc.h ****                  dsy_gpio_pin mux_0,
  54:../../libdaisy/src/per/adc.h ****                  dsy_gpio_pin mux_1 = {DSY_GPIOX, 0},
  55:../../libdaisy/src/per/adc.h ****                  dsy_gpio_pin mux_2 = {DSY_GPIOX, 0});
  56:../../libdaisy/src/per/adc.h **** 
  57:../../libdaisy/src/per/adc.h ****     dsy_gpio pin_;                   /**< & */
  58:../../libdaisy/src/per/adc.h ****     dsy_gpio mux_pin_[MUX_SEL_LAST]; /**< & */
  59:../../libdaisy/src/per/adc.h ****     uint8_t  mux_channels_;          /**< & */
  60:../../libdaisy/src/per/adc.h **** };
  61:../../libdaisy/src/per/adc.h **** 
  62:../../libdaisy/src/per/adc.h **** /**
  63:../../libdaisy/src/per/adc.h ****    Handler for analog to digital conversion
  64:../../libdaisy/src/per/adc.h **** */
  65:../../libdaisy/src/per/adc.h **** class AdcHandle
  66:../../libdaisy/src/per/adc.h **** {
  67:../../libdaisy/src/per/adc.h ****   public:
  68:../../libdaisy/src/per/adc.h ****     /** Supported oversampling amounts */
  69:../../libdaisy/src/per/adc.h ****     enum OverSampling
  70:../../libdaisy/src/per/adc.h ****     {
  71:../../libdaisy/src/per/adc.h ****         OVS_NONE, /**< & */
  72:../../libdaisy/src/per/adc.h ****         OVS_4,    /**< & */
  73:../../libdaisy/src/per/adc.h ****         OVS_8,    /**< & */
  74:../../libdaisy/src/per/adc.h ****         OVS_16,   /**< & */
  75:../../libdaisy/src/per/adc.h ****         OVS_32,   /**< & */
  76:../../libdaisy/src/per/adc.h ****         OVS_64,   /**< & */
  77:../../libdaisy/src/per/adc.h ****         OVS_128,  /**< & */
  78:../../libdaisy/src/per/adc.h ****         OVS_256,  /**< & */
  79:../../libdaisy/src/per/adc.h ****         OVS_512,  /**< & */
  80:../../libdaisy/src/per/adc.h ****         OVS_1024, /**< & */
  81:../../libdaisy/src/per/adc.h ****         OVS_LAST, /**< & */
  82:../../libdaisy/src/per/adc.h ****     };
  83:../../libdaisy/src/per/adc.h **** 
  84:../../libdaisy/src/per/adc.h ****     AdcHandle() {}
  85:../../libdaisy/src/per/adc.h ****     ~AdcHandle() {}
  91              		.loc 10 85 5 is_stmt 1 view .LVU17
  92              		.loc 10 85 5 is_stmt 0 view .LVU18
  93              	.LBE410:
  94              	.LBB411:
  95              	.LBI411:
  96              		.file 11 "../../libdaisy/src/hid/audio.h"
   1:../../libdaisy/src/hid/audio.h **** #ifndef DSY_AUDIO_H
   2:../../libdaisy/src/hid/audio.h **** #define DSY_AUDIO_H /**< & */
   3:../../libdaisy/src/hid/audio.h **** 
   4:../../libdaisy/src/hid/audio.h **** #include "per/sai.h"
   5:../../libdaisy/src/hid/audio.h **** 
   6:../../libdaisy/src/hid/audio.h **** namespace daisy
   7:../../libdaisy/src/hid/audio.h **** {
   8:../../libdaisy/src/hid/audio.h **** class AudioHandle
   9:../../libdaisy/src/hid/audio.h **** {
  10:../../libdaisy/src/hid/audio.h ****   public:
  11:../../libdaisy/src/hid/audio.h ****     /** Manually configurable details about the Audio Engine */
  12:../../libdaisy/src/hid/audio.h ****     /** TODO: Figure out how to get samplerate in here. */
  13:../../libdaisy/src/hid/audio.h ****     struct Config
  14:../../libdaisy/src/hid/audio.h ****     {
ARM GAS  /tmp/ccMpf4Yo.s 			page 15


  15:../../libdaisy/src/hid/audio.h ****         size_t                        blocksize;
  16:../../libdaisy/src/hid/audio.h ****         SaiHandle::Config::SampleRate samplerate;
  17:../../libdaisy/src/hid/audio.h ****         float                         postgain;
  18:../../libdaisy/src/hid/audio.h ****     };
  19:../../libdaisy/src/hid/audio.h **** 
  20:../../libdaisy/src/hid/audio.h ****     enum class Result
  21:../../libdaisy/src/hid/audio.h ****     {
  22:../../libdaisy/src/hid/audio.h ****         OK,
  23:../../libdaisy/src/hid/audio.h ****         ERR,
  24:../../libdaisy/src/hid/audio.h ****     };
  25:../../libdaisy/src/hid/audio.h **** 
  26:../../libdaisy/src/hid/audio.h ****     /** Non-Interleaving input buffer
  27:../../libdaisy/src/hid/audio.h ****      * Buffer arranged by float[chn][sample] 
  28:../../libdaisy/src/hid/audio.h ****      * const so that the user can't modify the input
  29:../../libdaisy/src/hid/audio.h ****     */
  30:../../libdaisy/src/hid/audio.h ****     typedef const float* const* InputBuffer;
  31:../../libdaisy/src/hid/audio.h **** 
  32:../../libdaisy/src/hid/audio.h ****     /** Non-Interleaving output buffer
  33:../../libdaisy/src/hid/audio.h ****      * Arranged by float[chn][sample] 
  34:../../libdaisy/src/hid/audio.h ****     */
  35:../../libdaisy/src/hid/audio.h ****     typedef float** OutputBuffer;
  36:../../libdaisy/src/hid/audio.h **** 
  37:../../libdaisy/src/hid/audio.h ****     /** Type for a Non-Interleaving audio callback 
  38:../../libdaisy/src/hid/audio.h ****    * Non-Interleaving audio callbacks in daisy will be of this type
  39:../../libdaisy/src/hid/audio.h ****   */
  40:../../libdaisy/src/hid/audio.h ****     typedef void (*AudioCallback)(InputBuffer  in,
  41:../../libdaisy/src/hid/audio.h ****                                   OutputBuffer out,
  42:../../libdaisy/src/hid/audio.h ****                                   size_t       size);
  43:../../libdaisy/src/hid/audio.h **** 
  44:../../libdaisy/src/hid/audio.h ****     /** Interleaving Input buffer
  45:../../libdaisy/src/hid/audio.h ****      ** audio is prepared as { L0, R0, L1, R1, . . . LN, RN }]
  46:../../libdaisy/src/hid/audio.h ****      ** this is const, as the user shouldn't modify it
  47:../../libdaisy/src/hid/audio.h ****     */
  48:../../libdaisy/src/hid/audio.h ****     typedef const float* InterleavingInputBuffer;
  49:../../libdaisy/src/hid/audio.h **** 
  50:../../libdaisy/src/hid/audio.h ****     /** Interleaving Output buffer 
  51:../../libdaisy/src/hid/audio.h ****      ** audio is prepared as { L0, R0, L1, R1, . . . LN, RN }
  52:../../libdaisy/src/hid/audio.h ****     */
  53:../../libdaisy/src/hid/audio.h ****     typedef float* InterleavingOutputBuffer;
  54:../../libdaisy/src/hid/audio.h **** 
  55:../../libdaisy/src/hid/audio.h ****     /** Interleaving Audio Callback 
  56:../../libdaisy/src/hid/audio.h ****    * Interleaving audio callbacks in daisy must be of this type
  57:../../libdaisy/src/hid/audio.h ****   */
  58:../../libdaisy/src/hid/audio.h ****     typedef void (*InterleavingAudioCallback)(InterleavingInputBuffer  in,
  59:../../libdaisy/src/hid/audio.h ****                                               InterleavingOutputBuffer out,
  60:../../libdaisy/src/hid/audio.h ****                                               size_t                   size);
  61:../../libdaisy/src/hid/audio.h **** 
  62:../../libdaisy/src/hid/audio.h ****     AudioHandle() : pimpl_(nullptr) {}
  63:../../libdaisy/src/hid/audio.h ****     ~AudioHandle() {}
  97              		.loc 11 63 5 is_stmt 1 view .LVU19
  98              		.loc 11 63 5 is_stmt 0 view .LVU20
  99              	.LBE411:
 100              	.LBE407:
 101              		.loc 1 84 20 view .LVU21
 102 0000 7047     		bx	lr
 103              		.cfi_endproc
 104              	.LFE2063:
ARM GAS  /tmp/ccMpf4Yo.s 			page 16


 106              		.weak	_ZN5daisy10DaisyFieldD1Ev
 107              		.thumb_set _ZN5daisy10DaisyFieldD1Ev,_ZN5daisy10DaisyFieldD2Ev
 108 0002 00BF     		.section	.text._ZN7daisysp6ChorusD2Ev,"axG",%progbits,_ZN7daisysp6ChorusD5Ev,comdat
 109              		.align	1
 110              		.p2align 2,,3
 111              		.weak	_ZN7daisysp6ChorusD2Ev
 112              		.syntax unified
 113              		.thumb
 114              		.thumb_func
 115              		.fpu fpv5-d16
 117              	_ZN7daisysp6ChorusD2Ev:
 118              	.LVL1:
 119              	.LFB3871:
 120              		.file 12 "../../DaisySP/Source/Effects/chorus.h"
   1:../../DaisySP/Source/Effects/chorus.h **** #pragma once
   2:../../DaisySP/Source/Effects/chorus.h **** #ifndef DSY_CHORUS_H
   3:../../DaisySP/Source/Effects/chorus.h **** #define DSY_CHORUS_H
   4:../../DaisySP/Source/Effects/chorus.h **** #ifdef __cplusplus
   5:../../DaisySP/Source/Effects/chorus.h **** 
   6:../../DaisySP/Source/Effects/chorus.h **** #include <stdint.h>
   7:../../DaisySP/Source/Effects/chorus.h **** #include "Utility/delayline.h"
   8:../../DaisySP/Source/Effects/chorus.h **** 
   9:../../DaisySP/Source/Effects/chorus.h **** /** @file chorus.h */
  10:../../DaisySP/Source/Effects/chorus.h **** 
  11:../../DaisySP/Source/Effects/chorus.h **** namespace daisysp
  12:../../DaisySP/Source/Effects/chorus.h **** {
  13:../../DaisySP/Source/Effects/chorus.h **** /**  
  14:../../DaisySP/Source/Effects/chorus.h ****     @brief Single Chorus engine. Used in Chorus.
  15:../../DaisySP/Source/Effects/chorus.h ****     @author Ben Sergentanis
  16:../../DaisySP/Source/Effects/chorus.h **** */
  17:../../DaisySP/Source/Effects/chorus.h **** class ChorusEngine
  18:../../DaisySP/Source/Effects/chorus.h **** {
  19:../../DaisySP/Source/Effects/chorus.h ****   public:
  20:../../DaisySP/Source/Effects/chorus.h ****     ChorusEngine() {}
  21:../../DaisySP/Source/Effects/chorus.h ****     ~ChorusEngine() {}
  22:../../DaisySP/Source/Effects/chorus.h **** 
  23:../../DaisySP/Source/Effects/chorus.h ****     /** Initialize the module
  24:../../DaisySP/Source/Effects/chorus.h ****         \param sample_rate Audio engine sample rate.
  25:../../DaisySP/Source/Effects/chorus.h ****     */
  26:../../DaisySP/Source/Effects/chorus.h ****     void Init(float sample_rate);
  27:../../DaisySP/Source/Effects/chorus.h **** 
  28:../../DaisySP/Source/Effects/chorus.h ****     /** Get the next sample
  29:../../DaisySP/Source/Effects/chorus.h ****         \param in Sample to process
  30:../../DaisySP/Source/Effects/chorus.h ****     */
  31:../../DaisySP/Source/Effects/chorus.h ****     float Process(float in);
  32:../../DaisySP/Source/Effects/chorus.h **** 
  33:../../DaisySP/Source/Effects/chorus.h ****     /** How much to modulate the delay by.
  34:../../DaisySP/Source/Effects/chorus.h ****         \param depth Works 0-1.
  35:../../DaisySP/Source/Effects/chorus.h ****     */
  36:../../DaisySP/Source/Effects/chorus.h ****     void SetLfoDepth(float depth);
  37:../../DaisySP/Source/Effects/chorus.h **** 
  38:../../DaisySP/Source/Effects/chorus.h ****     /** Set lfo frequency.
  39:../../DaisySP/Source/Effects/chorus.h ****         \param freq Frequency in Hz
  40:../../DaisySP/Source/Effects/chorus.h ****     */
  41:../../DaisySP/Source/Effects/chorus.h ****     void SetLfoFreq(float freq);
  42:../../DaisySP/Source/Effects/chorus.h **** 
  43:../../DaisySP/Source/Effects/chorus.h ****     /** Set the internal delay rate. 
ARM GAS  /tmp/ccMpf4Yo.s 			page 17


  44:../../DaisySP/Source/Effects/chorus.h ****         \param delay Tuned for 0-1. Maps to .1 to 50 ms.
  45:../../DaisySP/Source/Effects/chorus.h ****     */
  46:../../DaisySP/Source/Effects/chorus.h ****     void SetDelay(float delay);
  47:../../DaisySP/Source/Effects/chorus.h **** 
  48:../../DaisySP/Source/Effects/chorus.h ****     /** Set the delay time in ms.
  49:../../DaisySP/Source/Effects/chorus.h ****         \param ms Delay time in ms.
  50:../../DaisySP/Source/Effects/chorus.h ****     */
  51:../../DaisySP/Source/Effects/chorus.h ****     void SetDelayMs(float ms);
  52:../../DaisySP/Source/Effects/chorus.h **** 
  53:../../DaisySP/Source/Effects/chorus.h ****     /** Set the feedback amount.
  54:../../DaisySP/Source/Effects/chorus.h ****         \param feedback Amount from 0-1.
  55:../../DaisySP/Source/Effects/chorus.h ****     */
  56:../../DaisySP/Source/Effects/chorus.h ****     void SetFeedback(float feedback);
  57:../../DaisySP/Source/Effects/chorus.h **** 
  58:../../DaisySP/Source/Effects/chorus.h ****   private:
  59:../../DaisySP/Source/Effects/chorus.h ****     float                    sample_rate_;
  60:../../DaisySP/Source/Effects/chorus.h ****     static constexpr int32_t kDelayLength
  61:../../DaisySP/Source/Effects/chorus.h ****         = 2400; // 50 ms at 48kHz = .05 * 48000
  62:../../DaisySP/Source/Effects/chorus.h **** 
  63:../../DaisySP/Source/Effects/chorus.h ****     //triangle lfos
  64:../../DaisySP/Source/Effects/chorus.h ****     float lfo_phase_;
  65:../../DaisySP/Source/Effects/chorus.h ****     float lfo_freq_;
  66:../../DaisySP/Source/Effects/chorus.h ****     float lfo_amp_;
  67:../../DaisySP/Source/Effects/chorus.h **** 
  68:../../DaisySP/Source/Effects/chorus.h ****     float feedback_;
  69:../../DaisySP/Source/Effects/chorus.h **** 
  70:../../DaisySP/Source/Effects/chorus.h ****     float delay_;
  71:../../DaisySP/Source/Effects/chorus.h **** 
  72:../../DaisySP/Source/Effects/chorus.h ****     DelayLine<float, kDelayLength> del_;
  73:../../DaisySP/Source/Effects/chorus.h **** 
  74:../../DaisySP/Source/Effects/chorus.h ****     float ProcessLfo();
  75:../../DaisySP/Source/Effects/chorus.h **** };
  76:../../DaisySP/Source/Effects/chorus.h **** 
  77:../../DaisySP/Source/Effects/chorus.h **** //wraps up all of the chorus engines
  78:../../DaisySP/Source/Effects/chorus.h **** /**  
  79:../../DaisySP/Source/Effects/chorus.h ****     @brief Chorus Effect.
  80:../../DaisySP/Source/Effects/chorus.h ****     @author Ben Sergentanis
  81:../../DaisySP/Source/Effects/chorus.h ****     @date Jan 2021
  82:../../DaisySP/Source/Effects/chorus.h ****     Based on https://www.izotope.com/en/learn/understanding-chorus-flangers-and-phasers-in-audio-pr
  83:../../DaisySP/Source/Effects/chorus.h ****     and https://www.researchgate.net/publication/236629475_Implementing_Professional_Audio_Effects_
  84:../../DaisySP/Source/Effects/chorus.h **** */
  85:../../DaisySP/Source/Effects/chorus.h **** class Chorus
  86:../../DaisySP/Source/Effects/chorus.h **** {
  87:../../DaisySP/Source/Effects/chorus.h ****   public:
  88:../../DaisySP/Source/Effects/chorus.h ****     Chorus() {}
  89:../../DaisySP/Source/Effects/chorus.h ****     ~Chorus() {}
 121              		.loc 12 89 5 is_stmt 1 view -0
 122              		.cfi_startproc
 123              		@ args = 0, pretend = 0, frame = 0
 124              		@ frame_needed = 0, uses_anonymous_args = 0
 125              		@ link register save eliminated.
 126              		.loc 12 89 16 is_stmt 0 view .LVU23
 127 0000 7047     		bx	lr
 128              		.cfi_endproc
 129              	.LFE3871:
 131              		.weak	_ZN7daisysp6ChorusD1Ev
 132              		.thumb_set _ZN7daisysp6ChorusD1Ev,_ZN7daisysp6ChorusD2Ev
ARM GAS  /tmp/ccMpf4Yo.s 			page 18


 133 0002 00BF     		.section	.text._ZN5daisy11OledDisplayINS_13SSD130xDriverILj128ELj64ENS_24SSD130x4WireSpiTransportE
 134              		.align	1
 135              		.p2align 2,,3
 136              		.weak	_ZN5daisy11OledDisplayINS_13SSD130xDriverILj128ELj64ENS_24SSD130x4WireSpiTransportEEEED2Ev
 137              		.syntax unified
 138              		.thumb
 139              		.thumb_func
 140              		.fpu fpv5-d16
 142              	_ZN5daisy11OledDisplayINS_13SSD130xDriverILj128ELj64ENS_24SSD130x4WireSpiTransportEEEED2Ev:
 143              	.LVL2:
 144              	.LFB4258:
 145              		.loc 5 17 13 is_stmt 1 view -0
 146              		.cfi_startproc
 147              		@ args = 0, pretend = 0, frame = 0
 148              		@ frame_needed = 0, uses_anonymous_args = 0
 149              		@ link register save eliminated.
 150              	.LBB412:
 151              	.LBI412:
 152              		.loc 6 219 13 view .LVU25
 153              	.LBB413:
 154              	.LBI413:
  23:../../libdaisy/src/hid/disp/display.h **** 
 155              		.loc 6 23 13 view .LVU26
  23:../../libdaisy/src/hid/disp/display.h **** 
 156              		.loc 6 23 13 is_stmt 0 view .LVU27
 157              	.LBE413:
 158              	.LBE412:
 159              		.loc 5 17 29 view .LVU28
 160 0000 7047     		bx	lr
 161              		.cfi_endproc
 162              	.LFE4258:
 164              		.weak	_ZN5daisy11OledDisplayINS_13SSD130xDriverILj128ELj64ENS_24SSD130x4WireSpiTransportEEEED1Ev
 165              		.thumb_set _ZN5daisy11OledDisplayINS_13SSD130xDriverILj128ELj64ENS_24SSD130x4WireSpiTransportEEEED
 166 0002 00BF     		.section	.text._ZN5daisy11OledDisplayINS_13SSD130xDriverILj128ELj64ENS_24SSD130x4WireSpiTransportE
 167              		.align	1
 168              		.p2align 2,,3
 169              		.weak	_ZN5daisy11OledDisplayINS_13SSD130xDriverILj128ELj64ENS_24SSD130x4WireSpiTransportEEEE4FillE
 170              		.syntax unified
 171              		.thumb
 172              		.thumb_func
 173              		.fpu fpv5-d16
 175              	_ZN5daisy11OledDisplayINS_13SSD130xDriverILj128ELj64ENS_24SSD130x4WireSpiTransportEEEE4FillEb:
 176              	.LVL3:
 177              	.LFB4562:
  18:../../libdaisy/src/hid/disp/oled_display.h **** 
  19:../../libdaisy/src/hid/disp/oled_display.h ****     struct Config
  20:../../libdaisy/src/hid/disp/oled_display.h ****     {
  21:../../libdaisy/src/hid/disp/oled_display.h ****         typename DisplayDriver::Config driver_config;
  22:../../libdaisy/src/hid/disp/oled_display.h ****     };
  23:../../libdaisy/src/hid/disp/oled_display.h **** 
  24:../../libdaisy/src/hid/disp/oled_display.h ****     void Init(Config config) { driver_.Init(config.driver_config); }
  25:../../libdaisy/src/hid/disp/oled_display.h **** 
  26:../../libdaisy/src/hid/disp/oled_display.h ****     uint16_t Height() const override { return driver_.Height(); }
  27:../../libdaisy/src/hid/disp/oled_display.h ****     uint16_t Width() const override { return driver_.Width(); }
  28:../../libdaisy/src/hid/disp/oled_display.h **** 
  29:../../libdaisy/src/hid/disp/oled_display.h ****     /** 
  30:../../libdaisy/src/hid/disp/oled_display.h ****     Fills the entire display with either on/off.
ARM GAS  /tmp/ccMpf4Yo.s 			page 19


  31:../../libdaisy/src/hid/disp/oled_display.h ****     \param on Sets on or off.
  32:../../libdaisy/src/hid/disp/oled_display.h ****     */
  33:../../libdaisy/src/hid/disp/oled_display.h ****     void Fill(bool on) override { driver_.Fill(on); }
 178              		.loc 5 33 10 is_stmt 1 view -0
 179              		.cfi_startproc
 180              		@ args = 0, pretend = 0, frame = 0
 181              		@ frame_needed = 0, uses_anonymous_args = 0
 182              		@ link register save eliminated.
 183              	.LBB414:
 184              	.LBI414:
 185              		.file 13 "../../libdaisy/src/dev/oled_ssd130x.h"
   1:../../libdaisy/src/dev/oled_ssd130x.h **** #pragma once
   2:../../libdaisy/src/dev/oled_ssd130x.h **** #ifndef SA_OLED_SSD130X_H
   3:../../libdaisy/src/dev/oled_ssd130x.h **** #define SA_OLED_SSD130X_H /**< & */
   4:../../libdaisy/src/dev/oled_ssd130x.h **** 
   5:../../libdaisy/src/dev/oled_ssd130x.h **** #include "per/i2c.h"
   6:../../libdaisy/src/dev/oled_ssd130x.h **** #include "per/spi.h"
   7:../../libdaisy/src/dev/oled_ssd130x.h **** #include "per/gpio.h"
   8:../../libdaisy/src/dev/oled_ssd130x.h **** #include "sys/system.h"
   9:../../libdaisy/src/dev/oled_ssd130x.h **** 
  10:../../libdaisy/src/dev/oled_ssd130x.h **** namespace daisy
  11:../../libdaisy/src/dev/oled_ssd130x.h **** {
  12:../../libdaisy/src/dev/oled_ssd130x.h **** /**
  13:../../libdaisy/src/dev/oled_ssd130x.h ****  * I2C Transport for SSD1306 / SSD1309 OLED display devices
  14:../../libdaisy/src/dev/oled_ssd130x.h ****  */
  15:../../libdaisy/src/dev/oled_ssd130x.h **** class SSD130xI2CTransport
  16:../../libdaisy/src/dev/oled_ssd130x.h **** {
  17:../../libdaisy/src/dev/oled_ssd130x.h ****   public:
  18:../../libdaisy/src/dev/oled_ssd130x.h ****     struct Config
  19:../../libdaisy/src/dev/oled_ssd130x.h ****     {
  20:../../libdaisy/src/dev/oled_ssd130x.h ****         I2CHandle::Config i2c_config;
  21:../../libdaisy/src/dev/oled_ssd130x.h ****         uint8_t           i2c_address;
  22:../../libdaisy/src/dev/oled_ssd130x.h ****         void              Defaults()
  23:../../libdaisy/src/dev/oled_ssd130x.h ****         {
  24:../../libdaisy/src/dev/oled_ssd130x.h ****             i2c_config.periph         = I2CHandle::Config::Peripheral::I2C_1;
  25:../../libdaisy/src/dev/oled_ssd130x.h ****             i2c_config.speed          = I2CHandle::Config::Speed::I2C_1MHZ;
  26:../../libdaisy/src/dev/oled_ssd130x.h ****             i2c_config.mode           = I2CHandle::Config::Mode::I2C_MASTER;
  27:../../libdaisy/src/dev/oled_ssd130x.h ****             i2c_config.pin_config.scl = {DSY_GPIOB, 8};
  28:../../libdaisy/src/dev/oled_ssd130x.h ****             i2c_config.pin_config.sda = {DSY_GPIOB, 9};
  29:../../libdaisy/src/dev/oled_ssd130x.h ****             i2c_address               = 0x3C;
  30:../../libdaisy/src/dev/oled_ssd130x.h ****         }
  31:../../libdaisy/src/dev/oled_ssd130x.h ****     };
  32:../../libdaisy/src/dev/oled_ssd130x.h ****     void Init(const Config& config)
  33:../../libdaisy/src/dev/oled_ssd130x.h ****     {
  34:../../libdaisy/src/dev/oled_ssd130x.h ****         i2c_address_ = config.i2c_address;
  35:../../libdaisy/src/dev/oled_ssd130x.h ****         i2c_.Init(config.i2c_config);
  36:../../libdaisy/src/dev/oled_ssd130x.h ****     };
  37:../../libdaisy/src/dev/oled_ssd130x.h ****     void SendCommand(uint8_t cmd)
  38:../../libdaisy/src/dev/oled_ssd130x.h ****     {
  39:../../libdaisy/src/dev/oled_ssd130x.h ****         uint8_t buf[2] = {0X00, cmd};
  40:../../libdaisy/src/dev/oled_ssd130x.h ****         i2c_.TransmitBlocking(i2c_address_, buf, 2, 1000);
  41:../../libdaisy/src/dev/oled_ssd130x.h ****     };
  42:../../libdaisy/src/dev/oled_ssd130x.h **** 
  43:../../libdaisy/src/dev/oled_ssd130x.h ****     void SendData(uint8_t* buff, size_t size)
  44:../../libdaisy/src/dev/oled_ssd130x.h ****     {
  45:../../libdaisy/src/dev/oled_ssd130x.h ****         for(size_t i = 0; i < size; i++)
  46:../../libdaisy/src/dev/oled_ssd130x.h ****         {
ARM GAS  /tmp/ccMpf4Yo.s 			page 20


  47:../../libdaisy/src/dev/oled_ssd130x.h ****             uint8_t buf[2] = {0X40, buff[i]};
  48:../../libdaisy/src/dev/oled_ssd130x.h ****             i2c_.TransmitBlocking(i2c_address_, buf, 2, 1000);
  49:../../libdaisy/src/dev/oled_ssd130x.h ****         }
  50:../../libdaisy/src/dev/oled_ssd130x.h ****     };
  51:../../libdaisy/src/dev/oled_ssd130x.h **** 
  52:../../libdaisy/src/dev/oled_ssd130x.h ****   private:
  53:../../libdaisy/src/dev/oled_ssd130x.h ****     daisy::I2CHandle i2c_;
  54:../../libdaisy/src/dev/oled_ssd130x.h ****     uint8_t          i2c_address_;
  55:../../libdaisy/src/dev/oled_ssd130x.h **** };
  56:../../libdaisy/src/dev/oled_ssd130x.h **** 
  57:../../libdaisy/src/dev/oled_ssd130x.h **** /**
  58:../../libdaisy/src/dev/oled_ssd130x.h ****  * 4 Wire SPI Transport for SSD1306 / SSD1309 OLED display devices
  59:../../libdaisy/src/dev/oled_ssd130x.h ****  */
  60:../../libdaisy/src/dev/oled_ssd130x.h **** class SSD130x4WireSpiTransport
  61:../../libdaisy/src/dev/oled_ssd130x.h **** {
  62:../../libdaisy/src/dev/oled_ssd130x.h ****   public:
  63:../../libdaisy/src/dev/oled_ssd130x.h ****     struct Config
  64:../../libdaisy/src/dev/oled_ssd130x.h ****     {
  65:../../libdaisy/src/dev/oled_ssd130x.h ****         struct
  66:../../libdaisy/src/dev/oled_ssd130x.h ****         {
  67:../../libdaisy/src/dev/oled_ssd130x.h ****             dsy_gpio_pin dc;    /**< & */
  68:../../libdaisy/src/dev/oled_ssd130x.h ****             dsy_gpio_pin reset; /**< & */
  69:../../libdaisy/src/dev/oled_ssd130x.h ****         } pin_config;
  70:../../libdaisy/src/dev/oled_ssd130x.h ****         void Defaults()
  71:../../libdaisy/src/dev/oled_ssd130x.h ****         {
  72:../../libdaisy/src/dev/oled_ssd130x.h ****             pin_config.dc    = {DSY_GPIOB, 4};
  73:../../libdaisy/src/dev/oled_ssd130x.h ****             pin_config.reset = {DSY_GPIOB, 15};
  74:../../libdaisy/src/dev/oled_ssd130x.h ****         }
  75:../../libdaisy/src/dev/oled_ssd130x.h ****     };
  76:../../libdaisy/src/dev/oled_ssd130x.h ****     void Init(const Config& config)
  77:../../libdaisy/src/dev/oled_ssd130x.h ****     {
  78:../../libdaisy/src/dev/oled_ssd130x.h ****         // Initialize both GPIO
  79:../../libdaisy/src/dev/oled_ssd130x.h ****         pin_dc_.mode = DSY_GPIO_MODE_OUTPUT_PP;
  80:../../libdaisy/src/dev/oled_ssd130x.h ****         pin_dc_.pin  = config.pin_config.dc;
  81:../../libdaisy/src/dev/oled_ssd130x.h ****         dsy_gpio_init(&pin_dc_);
  82:../../libdaisy/src/dev/oled_ssd130x.h ****         pin_reset_.mode = DSY_GPIO_MODE_OUTPUT_PP;
  83:../../libdaisy/src/dev/oled_ssd130x.h ****         pin_reset_.pin  = config.pin_config.reset;
  84:../../libdaisy/src/dev/oled_ssd130x.h ****         dsy_gpio_init(&pin_reset_);
  85:../../libdaisy/src/dev/oled_ssd130x.h ****         // Initialize SPI
  86:../../libdaisy/src/dev/oled_ssd130x.h ****         SpiHandle::Config spi_config;
  87:../../libdaisy/src/dev/oled_ssd130x.h ****         spi_config.periph    = SpiHandle::Config::Peripheral::SPI_1;
  88:../../libdaisy/src/dev/oled_ssd130x.h ****         spi_config.mode      = SpiHandle::Config::Mode::MASTER;
  89:../../libdaisy/src/dev/oled_ssd130x.h ****         spi_config.direction = SpiHandle::Config::Direction::TWO_LINES_TX_ONLY;
  90:../../libdaisy/src/dev/oled_ssd130x.h ****         spi_config.datasize  = 8;
  91:../../libdaisy/src/dev/oled_ssd130x.h ****         spi_config.clock_polarity = SpiHandle::Config::ClockPolarity::LOW;
  92:../../libdaisy/src/dev/oled_ssd130x.h ****         spi_config.clock_phase    = SpiHandle::Config::ClockPhase::ONE_EDGE;
  93:../../libdaisy/src/dev/oled_ssd130x.h ****         spi_config.nss            = SpiHandle::Config::NSS::HARD_OUTPUT;
  94:../../libdaisy/src/dev/oled_ssd130x.h ****         spi_config.baud_prescaler = SpiHandle::Config::BaudPrescaler::PS_8;
  95:../../libdaisy/src/dev/oled_ssd130x.h **** 
  96:../../libdaisy/src/dev/oled_ssd130x.h ****         spi_config.pin_config.sclk = {DSY_GPIOG, 11};
  97:../../libdaisy/src/dev/oled_ssd130x.h ****         spi_config.pin_config.miso = {DSY_GPIOX, 0};
  98:../../libdaisy/src/dev/oled_ssd130x.h ****         spi_config.pin_config.mosi = {DSY_GPIOB, 5};
  99:../../libdaisy/src/dev/oled_ssd130x.h ****         spi_config.pin_config.nss  = {DSY_GPIOG, 10};
 100:../../libdaisy/src/dev/oled_ssd130x.h **** 
 101:../../libdaisy/src/dev/oled_ssd130x.h ****         spi_.Init(spi_config);
 102:../../libdaisy/src/dev/oled_ssd130x.h **** 
 103:../../libdaisy/src/dev/oled_ssd130x.h ****         // Reset and Configure OLED.
ARM GAS  /tmp/ccMpf4Yo.s 			page 21


 104:../../libdaisy/src/dev/oled_ssd130x.h ****         dsy_gpio_write(&pin_reset_, 0);
 105:../../libdaisy/src/dev/oled_ssd130x.h ****         System::Delay(10);
 106:../../libdaisy/src/dev/oled_ssd130x.h ****         dsy_gpio_write(&pin_reset_, 1);
 107:../../libdaisy/src/dev/oled_ssd130x.h ****         System::Delay(10);
 108:../../libdaisy/src/dev/oled_ssd130x.h ****     };
 109:../../libdaisy/src/dev/oled_ssd130x.h ****     void SendCommand(uint8_t cmd)
 110:../../libdaisy/src/dev/oled_ssd130x.h ****     {
 111:../../libdaisy/src/dev/oled_ssd130x.h ****         dsy_gpio_write(&pin_dc_, 0);
 112:../../libdaisy/src/dev/oled_ssd130x.h ****         spi_.BlockingTransmit(&cmd, 1);
 113:../../libdaisy/src/dev/oled_ssd130x.h ****     };
 114:../../libdaisy/src/dev/oled_ssd130x.h **** 
 115:../../libdaisy/src/dev/oled_ssd130x.h ****     void SendData(uint8_t* buff, size_t size)
 116:../../libdaisy/src/dev/oled_ssd130x.h ****     {
 117:../../libdaisy/src/dev/oled_ssd130x.h ****         dsy_gpio_write(&pin_dc_, 1);
 118:../../libdaisy/src/dev/oled_ssd130x.h ****         spi_.BlockingTransmit(buff, size);
 119:../../libdaisy/src/dev/oled_ssd130x.h ****     };
 120:../../libdaisy/src/dev/oled_ssd130x.h **** 
 121:../../libdaisy/src/dev/oled_ssd130x.h ****   private:
 122:../../libdaisy/src/dev/oled_ssd130x.h ****     SpiHandle spi_;
 123:../../libdaisy/src/dev/oled_ssd130x.h ****     dsy_gpio  pin_reset_;
 124:../../libdaisy/src/dev/oled_ssd130x.h ****     dsy_gpio  pin_dc_;
 125:../../libdaisy/src/dev/oled_ssd130x.h **** };
 126:../../libdaisy/src/dev/oled_ssd130x.h **** 
 127:../../libdaisy/src/dev/oled_ssd130x.h **** 
 128:../../libdaisy/src/dev/oled_ssd130x.h **** /**
 129:../../libdaisy/src/dev/oled_ssd130x.h ****  * A driver implementation for the SSD1306/SSD1309
 130:../../libdaisy/src/dev/oled_ssd130x.h ****  */
 131:../../libdaisy/src/dev/oled_ssd130x.h **** template <size_t width, size_t height, typename Transport>
 132:../../libdaisy/src/dev/oled_ssd130x.h **** class SSD130xDriver
 133:../../libdaisy/src/dev/oled_ssd130x.h **** {
 134:../../libdaisy/src/dev/oled_ssd130x.h ****   public:
 135:../../libdaisy/src/dev/oled_ssd130x.h ****     struct Config
 136:../../libdaisy/src/dev/oled_ssd130x.h ****     {
 137:../../libdaisy/src/dev/oled_ssd130x.h ****         typename Transport::Config transport_config;
 138:../../libdaisy/src/dev/oled_ssd130x.h ****     };
 139:../../libdaisy/src/dev/oled_ssd130x.h **** 
 140:../../libdaisy/src/dev/oled_ssd130x.h ****     void Init(Config config)
 141:../../libdaisy/src/dev/oled_ssd130x.h ****     {
 142:../../libdaisy/src/dev/oled_ssd130x.h ****         transport_.Init(config.transport_config);
 143:../../libdaisy/src/dev/oled_ssd130x.h **** 
 144:../../libdaisy/src/dev/oled_ssd130x.h ****         // Init routine...
 145:../../libdaisy/src/dev/oled_ssd130x.h **** 
 146:../../libdaisy/src/dev/oled_ssd130x.h ****         // Display Off
 147:../../libdaisy/src/dev/oled_ssd130x.h ****         transport_.SendCommand(0xaE);
 148:../../libdaisy/src/dev/oled_ssd130x.h ****         // Dimension dependent commands...
 149:../../libdaisy/src/dev/oled_ssd130x.h ****         switch(height)
 150:../../libdaisy/src/dev/oled_ssd130x.h ****         {
 151:../../libdaisy/src/dev/oled_ssd130x.h ****             case 16:
 152:../../libdaisy/src/dev/oled_ssd130x.h ****                 // Display Clock Divide Ratio
 153:../../libdaisy/src/dev/oled_ssd130x.h ****                 transport_.SendCommand(0xD5);
 154:../../libdaisy/src/dev/oled_ssd130x.h ****                 transport_.SendCommand(0x60);
 155:../../libdaisy/src/dev/oled_ssd130x.h ****                 // Multiplex Ratio
 156:../../libdaisy/src/dev/oled_ssd130x.h ****                 transport_.SendCommand(0xA8);
 157:../../libdaisy/src/dev/oled_ssd130x.h ****                 transport_.SendCommand(0x0F);
 158:../../libdaisy/src/dev/oled_ssd130x.h ****                 // COM Pins
 159:../../libdaisy/src/dev/oled_ssd130x.h ****                 transport_.SendCommand(0xDA);
 160:../../libdaisy/src/dev/oled_ssd130x.h ****                 transport_.SendCommand(0x02);
ARM GAS  /tmp/ccMpf4Yo.s 			page 22


 161:../../libdaisy/src/dev/oled_ssd130x.h ****                 break;
 162:../../libdaisy/src/dev/oled_ssd130x.h ****             case 32:
 163:../../libdaisy/src/dev/oled_ssd130x.h ****                 // Display Clock Divide Ratio
 164:../../libdaisy/src/dev/oled_ssd130x.h ****                 transport_.SendCommand(0xD5);
 165:../../libdaisy/src/dev/oled_ssd130x.h ****                 transport_.SendCommand(0x80);
 166:../../libdaisy/src/dev/oled_ssd130x.h ****                 // Multiplex Ratio
 167:../../libdaisy/src/dev/oled_ssd130x.h ****                 transport_.SendCommand(0xA8);
 168:../../libdaisy/src/dev/oled_ssd130x.h ****                 transport_.SendCommand(0x1F);
 169:../../libdaisy/src/dev/oled_ssd130x.h ****                 // COM Pins
 170:../../libdaisy/src/dev/oled_ssd130x.h ****                 transport_.SendCommand(0xDA);
 171:../../libdaisy/src/dev/oled_ssd130x.h ****                 if(width == 64)
 172:../../libdaisy/src/dev/oled_ssd130x.h ****                 {
 173:../../libdaisy/src/dev/oled_ssd130x.h ****                     transport_.SendCommand(0x12);
 174:../../libdaisy/src/dev/oled_ssd130x.h ****                 }
 175:../../libdaisy/src/dev/oled_ssd130x.h ****                 else
 176:../../libdaisy/src/dev/oled_ssd130x.h ****                 {
 177:../../libdaisy/src/dev/oled_ssd130x.h ****                     transport_.SendCommand(0x02);
 178:../../libdaisy/src/dev/oled_ssd130x.h ****                 }
 179:../../libdaisy/src/dev/oled_ssd130x.h **** 
 180:../../libdaisy/src/dev/oled_ssd130x.h ****                 break;
 181:../../libdaisy/src/dev/oled_ssd130x.h ****             case 48:
 182:../../libdaisy/src/dev/oled_ssd130x.h ****                 // Display Clock Divide Ratio
 183:../../libdaisy/src/dev/oled_ssd130x.h ****                 transport_.SendCommand(0xD5);
 184:../../libdaisy/src/dev/oled_ssd130x.h ****                 transport_.SendCommand(0x80);
 185:../../libdaisy/src/dev/oled_ssd130x.h ****                 // Multiplex Ratio
 186:../../libdaisy/src/dev/oled_ssd130x.h ****                 transport_.SendCommand(0xA8);
 187:../../libdaisy/src/dev/oled_ssd130x.h ****                 transport_.SendCommand(0x2F);
 188:../../libdaisy/src/dev/oled_ssd130x.h ****                 // COM Pins
 189:../../libdaisy/src/dev/oled_ssd130x.h ****                 transport_.SendCommand(0xDA);
 190:../../libdaisy/src/dev/oled_ssd130x.h ****                 transport_.SendCommand(0x12);
 191:../../libdaisy/src/dev/oled_ssd130x.h ****                 break;
 192:../../libdaisy/src/dev/oled_ssd130x.h ****             default: // 128
 193:../../libdaisy/src/dev/oled_ssd130x.h ****                 // Display Clock Divide Ratio
 194:../../libdaisy/src/dev/oled_ssd130x.h ****                 transport_.SendCommand(0xD5);
 195:../../libdaisy/src/dev/oled_ssd130x.h ****                 transport_.SendCommand(0x80);
 196:../../libdaisy/src/dev/oled_ssd130x.h ****                 // Multiplex Ratio
 197:../../libdaisy/src/dev/oled_ssd130x.h ****                 transport_.SendCommand(0xA8);
 198:../../libdaisy/src/dev/oled_ssd130x.h ****                 transport_.SendCommand(0x3F);
 199:../../libdaisy/src/dev/oled_ssd130x.h ****                 // COM Pins
 200:../../libdaisy/src/dev/oled_ssd130x.h ****                 transport_.SendCommand(0xDA);
 201:../../libdaisy/src/dev/oled_ssd130x.h ****                 transport_.SendCommand(0x12);
 202:../../libdaisy/src/dev/oled_ssd130x.h ****                 break;
 203:../../libdaisy/src/dev/oled_ssd130x.h ****         }
 204:../../libdaisy/src/dev/oled_ssd130x.h **** 
 205:../../libdaisy/src/dev/oled_ssd130x.h ****         // Display Offset
 206:../../libdaisy/src/dev/oled_ssd130x.h ****         transport_.SendCommand(0xD3);
 207:../../libdaisy/src/dev/oled_ssd130x.h ****         transport_.SendCommand(0x00);
 208:../../libdaisy/src/dev/oled_ssd130x.h ****         // Start Line Address
 209:../../libdaisy/src/dev/oled_ssd130x.h ****         transport_.SendCommand(0x40);
 210:../../libdaisy/src/dev/oled_ssd130x.h ****         // Normal Display
 211:../../libdaisy/src/dev/oled_ssd130x.h ****         transport_.SendCommand(0xA6);
 212:../../libdaisy/src/dev/oled_ssd130x.h ****         // All On Resume
 213:../../libdaisy/src/dev/oled_ssd130x.h ****         transport_.SendCommand(0xA4);
 214:../../libdaisy/src/dev/oled_ssd130x.h ****         // Charge Pump
 215:../../libdaisy/src/dev/oled_ssd130x.h ****         transport_.SendCommand(0x8D);
 216:../../libdaisy/src/dev/oled_ssd130x.h ****         transport_.SendCommand(0x14);
 217:../../libdaisy/src/dev/oled_ssd130x.h ****         // Set Segment Remap
ARM GAS  /tmp/ccMpf4Yo.s 			page 23


 218:../../libdaisy/src/dev/oled_ssd130x.h ****         transport_.SendCommand(0xA1);
 219:../../libdaisy/src/dev/oled_ssd130x.h ****         // COM Output Scan Direction
 220:../../libdaisy/src/dev/oled_ssd130x.h ****         transport_.SendCommand(0xC8);
 221:../../libdaisy/src/dev/oled_ssd130x.h ****         // Contrast Control
 222:../../libdaisy/src/dev/oled_ssd130x.h ****         transport_.SendCommand(0x81);
 223:../../libdaisy/src/dev/oled_ssd130x.h ****         transport_.SendCommand(0x8F);
 224:../../libdaisy/src/dev/oled_ssd130x.h ****         // Pre Charge
 225:../../libdaisy/src/dev/oled_ssd130x.h ****         transport_.SendCommand(0xD9);
 226:../../libdaisy/src/dev/oled_ssd130x.h ****         transport_.SendCommand(0x25);
 227:../../libdaisy/src/dev/oled_ssd130x.h ****         // VCOM Detect
 228:../../libdaisy/src/dev/oled_ssd130x.h ****         transport_.SendCommand(0xDB);
 229:../../libdaisy/src/dev/oled_ssd130x.h ****         transport_.SendCommand(0x34);
 230:../../libdaisy/src/dev/oled_ssd130x.h **** 
 231:../../libdaisy/src/dev/oled_ssd130x.h **** 
 232:../../libdaisy/src/dev/oled_ssd130x.h ****         // Display On
 233:../../libdaisy/src/dev/oled_ssd130x.h ****         transport_.SendCommand(0xAF); //--turn on oled panel
 234:../../libdaisy/src/dev/oled_ssd130x.h ****     };
 235:../../libdaisy/src/dev/oled_ssd130x.h **** 
 236:../../libdaisy/src/dev/oled_ssd130x.h ****     size_t Width() const { return width; };
 237:../../libdaisy/src/dev/oled_ssd130x.h ****     size_t Height() const { return height; };
 238:../../libdaisy/src/dev/oled_ssd130x.h **** 
 239:../../libdaisy/src/dev/oled_ssd130x.h ****     void DrawPixel(uint_fast8_t x, uint_fast8_t y, bool on)
 240:../../libdaisy/src/dev/oled_ssd130x.h ****     {
 241:../../libdaisy/src/dev/oled_ssd130x.h ****         if(x >= width || y >= height)
 242:../../libdaisy/src/dev/oled_ssd130x.h ****             return;
 243:../../libdaisy/src/dev/oled_ssd130x.h ****         if(on)
 244:../../libdaisy/src/dev/oled_ssd130x.h ****             buffer_[x + (y / 8) * width] |= (1 << (y % 8));
 245:../../libdaisy/src/dev/oled_ssd130x.h ****         else
 246:../../libdaisy/src/dev/oled_ssd130x.h ****             buffer_[x + (y / 8) * width] &= ~(1 << (y % 8));
 247:../../libdaisy/src/dev/oled_ssd130x.h ****     }
 248:../../libdaisy/src/dev/oled_ssd130x.h **** 
 249:../../libdaisy/src/dev/oled_ssd130x.h ****     void Fill(bool on)
 186              		.loc 13 249 10 view .LVU30
 187              	.LBB415:
 250:../../libdaisy/src/dev/oled_ssd130x.h ****     {
 251:../../libdaisy/src/dev/oled_ssd130x.h ****         for(size_t i = 0; i < sizeof(buffer_); i++)
 188              		.loc 13 251 29 view .LVU31
 189 0000 4942     		rsbs	r1, r1, #0
 190              	.LVL4:
 191              		.loc 13 251 29 is_stmt 0 view .LVU32
 192 0002 00F11303 		add	r3, r0, #19
 193 0006 00F21342 		addw	r2, r0, #1043
 194 000a C9B2     		uxtb	r1, r1
 195              	.LVL5:
 196              	.L6:
 252:../../libdaisy/src/dev/oled_ssd130x.h ****         {
 253:../../libdaisy/src/dev/oled_ssd130x.h ****             buffer_[i] = on ? 0xff : 0x00;
 197              		.loc 13 253 13 view .LVU33
 198 000c 03F8011F 		strb	r1, [r3, #1]!
 199              	.LVL6:
 251:../../libdaisy/src/dev/oled_ssd130x.h ****         {
 200              		.loc 13 251 9 is_stmt 1 view .LVU34
 251:../../libdaisy/src/dev/oled_ssd130x.h ****         {
 201              		.loc 13 251 29 view .LVU35
 202 0010 9342     		cmp	r3, r2
 203 0012 FBD1     		bne	.L6
 204              	.LBE415:
ARM GAS  /tmp/ccMpf4Yo.s 			page 24


 205              	.LBE414:
 206              		.loc 5 33 53 is_stmt 0 view .LVU36
 207 0014 7047     		bx	lr
 208              		.cfi_endproc
 209              	.LFE4562:
 211 0016 00BF     		.section	.text._ZNK5daisy11OledDisplayINS_13SSD130xDriverILj128ELj64ENS_24SSD130x4WireSpiTransport
 212              		.align	1
 213              		.p2align 2,,3
 214              		.weak	_ZNK5daisy11OledDisplayINS_13SSD130xDriverILj128ELj64ENS_24SSD130x4WireSpiTransportEEEE6Heig
 215              		.syntax unified
 216              		.thumb
 217              		.thumb_func
 218              		.fpu fpv5-d16
 220              	_ZNK5daisy11OledDisplayINS_13SSD130xDriverILj128ELj64ENS_24SSD130x4WireSpiTransportEEEE6HeightEv:
 221              	.LVL7:
 222              	.LFB4830:
  26:../../libdaisy/src/hid/disp/oled_display.h ****     uint16_t Width() const override { return driver_.Width(); }
 223              		.loc 5 26 14 is_stmt 1 view -0
 224              		.cfi_startproc
 225              		@ args = 0, pretend = 0, frame = 0
 226              		@ frame_needed = 0, uses_anonymous_args = 0
 227              		@ link register save eliminated.
  26:../../libdaisy/src/hid/disp/oled_display.h ****     uint16_t Width() const override { return driver_.Width(); }
 228              		.loc 5 26 65 is_stmt 0 view .LVU38
 229 0000 4020     		movs	r0, #64
 230              	.LVL8:
  26:../../libdaisy/src/hid/disp/oled_display.h ****     uint16_t Width() const override { return driver_.Width(); }
 231              		.loc 5 26 65 view .LVU39
 232 0002 7047     		bx	lr
 233              		.cfi_endproc
 234              	.LFE4830:
 236              		.section	.text._ZNK5daisy11OledDisplayINS_13SSD130xDriverILj128ELj64ENS_24SSD130x4WireSpiTransport
 237              		.align	1
 238              		.p2align 2,,3
 239              		.weak	_ZNK5daisy11OledDisplayINS_13SSD130xDriverILj128ELj64ENS_24SSD130x4WireSpiTransportEEEE5Widt
 240              		.syntax unified
 241              		.thumb
 242              		.thumb_func
 243              		.fpu fpv5-d16
 245              	_ZNK5daisy11OledDisplayINS_13SSD130xDriverILj128ELj64ENS_24SSD130x4WireSpiTransportEEEE5WidthEv:
 246              	.LVL9:
 247              	.LFB4831:
  27:../../libdaisy/src/hid/disp/oled_display.h **** 
 248              		.loc 5 27 14 is_stmt 1 view -0
 249              		.cfi_startproc
 250              		@ args = 0, pretend = 0, frame = 0
 251              		@ frame_needed = 0, uses_anonymous_args = 0
 252              		@ link register save eliminated.
  27:../../libdaisy/src/hid/disp/oled_display.h **** 
 253              		.loc 5 27 63 is_stmt 0 view .LVU41
 254 0000 8020     		movs	r0, #128
 255              	.LVL10:
  27:../../libdaisy/src/hid/disp/oled_display.h **** 
 256              		.loc 5 27 63 view .LVU42
 257 0002 7047     		bx	lr
 258              		.cfi_endproc
 259              	.LFE4831:
ARM GAS  /tmp/ccMpf4Yo.s 			page 25


 261              		.section	.text._ZN5daisy11OledDisplayINS_13SSD130xDriverILj128ELj64ENS_24SSD130x4WireSpiTransportE
 262              		.align	1
 263              		.p2align 2,,3
 264              		.weak	_ZN5daisy11OledDisplayINS_13SSD130xDriverILj128ELj64ENS_24SSD130x4WireSpiTransportEEEED0Ev
 265              		.syntax unified
 266              		.thumb
 267              		.thumb_func
 268              		.fpu fpv5-d16
 270              	_ZN5daisy11OledDisplayINS_13SSD130xDriverILj128ELj64ENS_24SSD130x4WireSpiTransportEEEED0Ev:
 271              	.LVL11:
 272              	.LFB4260:
  17:../../libdaisy/src/hid/disp/oled_display.h **** 
 273              		.loc 5 17 13 is_stmt 1 view -0
 274              		.cfi_startproc
 275              		@ args = 0, pretend = 0, frame = 0
 276              		@ frame_needed = 0, uses_anonymous_args = 0
  17:../../libdaisy/src/hid/disp/oled_display.h **** 
 277              		.loc 5 17 13 is_stmt 0 view .LVU44
 278 0000 10B5     		push	{r4, lr}
 279              		.cfi_def_cfa_offset 8
 280              		.cfi_offset 4, -8
 281              		.cfi_offset 14, -4
  17:../../libdaisy/src/hid/disp/oled_display.h **** 
 282              		.loc 5 17 13 view .LVU45
 283 0002 0446     		mov	r4, r0
 284              	.LVL12:
 285              	.LBB416:
 286              	.LBI416:
  17:../../libdaisy/src/hid/disp/oled_display.h **** 
 287              		.loc 5 17 13 is_stmt 1 view .LVU46
 288              	.LBB417:
 289              	.LBI417:
 290              		.loc 6 219 13 view .LVU47
 291              	.LBB418:
 292              	.LBI418:
  23:../../libdaisy/src/hid/disp/display.h **** 
 293              		.loc 6 23 13 view .LVU48
  23:../../libdaisy/src/hid/disp/display.h **** 
 294              		.loc 6 23 13 is_stmt 0 view .LVU49
 295              	.LBE418:
 296              	.LBE417:
 297              	.LBE416:
  17:../../libdaisy/src/hid/disp/oled_display.h **** 
 298              		.loc 5 17 29 view .LVU50
 299 0004 40F21441 		movw	r1, #1044
 300 0008 FFF7FEFF 		bl	_ZdlPvj
 301              	.LVL13:
  17:../../libdaisy/src/hid/disp/oled_display.h **** 
 302              		.loc 5 17 29 view .LVU51
 303 000c 2046     		mov	r0, r4
 304 000e 10BD     		pop	{r4, pc}
  17:../../libdaisy/src/hid/disp/oled_display.h **** 
 305              		.loc 5 17 29 view .LVU52
 306              		.cfi_endproc
 307              	.LFE4260:
 309              		.section	.text._ZN5daisy11OledDisplayINS_13SSD130xDriverILj128ELj64ENS_24SSD130x4WireSpiTransportE
 310              		.align	1
ARM GAS  /tmp/ccMpf4Yo.s 			page 26


 311              		.p2align 2,,3
 312              		.weak	_ZN5daisy11OledDisplayINS_13SSD130xDriverILj128ELj64ENS_24SSD130x4WireSpiTransportEEEE6Updat
 313              		.syntax unified
 314              		.thumb
 315              		.thumb_func
 316              		.fpu fpv5-d16
 318              	_ZN5daisy11OledDisplayINS_13SSD130xDriverILj128ELj64ENS_24SSD130x4WireSpiTransportEEEE6UpdateEv:
 319              	.LVL14:
 320              	.LFB4564:
  34:../../libdaisy/src/hid/disp/oled_display.h **** 
  35:../../libdaisy/src/hid/disp/oled_display.h ****     /**
  36:../../libdaisy/src/hid/disp/oled_display.h ****     Sets the pixel at the specified coordinate to be on/off.
  37:../../libdaisy/src/hid/disp/oled_display.h ****     \param x   x Coordinate
  38:../../libdaisy/src/hid/disp/oled_display.h ****     \param y   y coordinate
  39:../../libdaisy/src/hid/disp/oled_display.h ****     \param on  on or off
  40:../../libdaisy/src/hid/disp/oled_display.h ****     */
  41:../../libdaisy/src/hid/disp/oled_display.h ****     void DrawPixel(uint_fast8_t x, uint_fast8_t y, bool on) override
  42:../../libdaisy/src/hid/disp/oled_display.h ****     {
  43:../../libdaisy/src/hid/disp/oled_display.h ****         driver_.DrawPixel(x, y, on);
  44:../../libdaisy/src/hid/disp/oled_display.h ****     }
  45:../../libdaisy/src/hid/disp/oled_display.h **** 
  46:../../libdaisy/src/hid/disp/oled_display.h ****     /** 
  47:../../libdaisy/src/hid/disp/oled_display.h ****     Writes the current display buffer to the OLED device using SPI or I2C depending on 
  48:../../libdaisy/src/hid/disp/oled_display.h ****     how the object was initialized.
  49:../../libdaisy/src/hid/disp/oled_display.h ****     */
  50:../../libdaisy/src/hid/disp/oled_display.h ****     void Update() override { driver_.Update(); }
 321              		.loc 5 50 10 is_stmt 1 view -0
 322              		.cfi_startproc
 323              		@ args = 0, pretend = 0, frame = 8
 324              		@ frame_needed = 0, uses_anonymous_args = 0
 325              	.LBB429:
 326              	.LBI429:
 254:../../libdaisy/src/dev/oled_ssd130x.h ****         }
 255:../../libdaisy/src/dev/oled_ssd130x.h ****     };
 256:../../libdaisy/src/dev/oled_ssd130x.h **** 
 257:../../libdaisy/src/dev/oled_ssd130x.h ****     /**
 258:../../libdaisy/src/dev/oled_ssd130x.h ****      * Update the display 
 259:../../libdaisy/src/dev/oled_ssd130x.h ****     */
 260:../../libdaisy/src/dev/oled_ssd130x.h ****     void Update()
 327              		.loc 13 260 10 view .LVU54
 328              	.LBB430:
 261:../../libdaisy/src/dev/oled_ssd130x.h ****     {
 262:../../libdaisy/src/dev/oled_ssd130x.h ****         uint8_t i;
 263:../../libdaisy/src/dev/oled_ssd130x.h ****         uint8_t high_column_addr;
 264:../../libdaisy/src/dev/oled_ssd130x.h ****         switch(height)
 265:../../libdaisy/src/dev/oled_ssd130x.h ****         {
 266:../../libdaisy/src/dev/oled_ssd130x.h ****             case 32: high_column_addr = 0x12; break;
 267:../../libdaisy/src/dev/oled_ssd130x.h **** 
 268:../../libdaisy/src/dev/oled_ssd130x.h ****             default: high_column_addr = 0x10; break;
 269:../../libdaisy/src/dev/oled_ssd130x.h ****         }
 270:../../libdaisy/src/dev/oled_ssd130x.h ****         for(i = 0; i < (height / 8); i++)
 329              		.loc 13 270 22 view .LVU55
 330              	.LBE430:
 331              	.LBE429:
 332              		.loc 5 50 10 is_stmt 0 view .LVU56
 333 0000 2DE9F041 		push	{r4, r5, r6, r7, r8, lr}
 334              		.cfi_def_cfa_offset 24
ARM GAS  /tmp/ccMpf4Yo.s 			page 27


 335              		.cfi_offset 4, -24
 336              		.cfi_offset 5, -20
 337              		.cfi_offset 6, -16
 338              		.cfi_offset 7, -12
 339              		.cfi_offset 8, -8
 340              		.cfi_offset 14, -4
 341 0004 B025     		movs	r5, #176
 342 0006 82B0     		sub	sp, sp, #8
 343              		.cfi_def_cfa_offset 32
 344 0008 00F10807 		add	r7, r0, #8
 345 000c 00F11006 		add	r6, r0, #16
 346 0010 00F11404 		add	r4, r0, #20
 347              	.LVL15:
 348              	.L13:
 349              	.LBB443:
 350              	.LBB442:
 351              	.LBB431:
 352              	.LBB432:
 111:../../libdaisy/src/dev/oled_ssd130x.h ****         spi_.BlockingTransmit(&cmd, 1);
 353              		.loc 13 111 23 view .LVU57
 354 0014 0021     		movs	r1, #0
 355 0016 3046     		mov	r0, r6
 356 0018 8DF80750 		strb	r5, [sp, #7]
 357              	.LVL16:
 111:../../libdaisy/src/dev/oled_ssd130x.h ****         spi_.BlockingTransmit(&cmd, 1);
 358              		.loc 13 111 23 view .LVU58
 359              	.LBE432:
 360              	.LBI431:
 109:../../libdaisy/src/dev/oled_ssd130x.h ****     {
 361              		.loc 13 109 10 is_stmt 1 view .LVU59
 362              	.LBB433:
 111:../../libdaisy/src/dev/oled_ssd130x.h ****         spi_.BlockingTransmit(&cmd, 1);
 363              		.loc 13 111 9 view .LVU60
 364 001c 0135     		adds	r5, r5, #1
 365              	.LVL17:
 111:../../libdaisy/src/dev/oled_ssd130x.h ****         spi_.BlockingTransmit(&cmd, 1);
 366              		.loc 13 111 9 is_stmt 0 view .LVU61
 367 001e 8846     		mov	r8, r1
 111:../../libdaisy/src/dev/oled_ssd130x.h ****         spi_.BlockingTransmit(&cmd, 1);
 368              		.loc 13 111 23 view .LVU62
 369 0020 FFF7FEFF 		bl	dsy_gpio_write
 370              	.LVL18:
 112:../../libdaisy/src/dev/oled_ssd130x.h ****     };
 371              		.loc 13 112 9 is_stmt 1 view .LVU63
 112:../../libdaisy/src/dev/oled_ssd130x.h ****     };
 372              		.loc 13 112 30 is_stmt 0 view .LVU64
 373 0024 6423     		movs	r3, #100
 374 0026 0122     		movs	r2, #1
 375 0028 0DF10701 		add	r1, sp, #7
 376 002c 3846     		mov	r0, r7
 377 002e FFF7FEFF 		bl	_ZN5daisy9SpiHandle16BlockingTransmitEPhjm
 378              	.LVL19:
 112:../../libdaisy/src/dev/oled_ssd130x.h ****     };
 379              		.loc 13 112 30 view .LVU65
 380              	.LBE433:
 381              	.LBE431:
 382              	.LBB434:
ARM GAS  /tmp/ccMpf4Yo.s 			page 28


 383              	.LBB435:
 111:../../libdaisy/src/dev/oled_ssd130x.h ****         spi_.BlockingTransmit(&cmd, 1);
 384              		.loc 13 111 23 view .LVU66
 385 0032 4146     		mov	r1, r8
 386 0034 3046     		mov	r0, r6
 387 0036 8DF80780 		strb	r8, [sp, #7]
 388              	.LVL20:
 111:../../libdaisy/src/dev/oled_ssd130x.h ****         spi_.BlockingTransmit(&cmd, 1);
 389              		.loc 13 111 23 view .LVU67
 390              	.LBE435:
 391              	.LBI434:
 109:../../libdaisy/src/dev/oled_ssd130x.h ****     {
 392              		.loc 13 109 10 is_stmt 1 view .LVU68
 393              	.LBB436:
 111:../../libdaisy/src/dev/oled_ssd130x.h ****         spi_.BlockingTransmit(&cmd, 1);
 394              		.loc 13 111 9 view .LVU69
 111:../../libdaisy/src/dev/oled_ssd130x.h ****         spi_.BlockingTransmit(&cmd, 1);
 395              		.loc 13 111 23 is_stmt 0 view .LVU70
 396 003a FFF7FEFF 		bl	dsy_gpio_write
 397              	.LVL21:
 112:../../libdaisy/src/dev/oled_ssd130x.h ****     };
 398              		.loc 13 112 9 is_stmt 1 view .LVU71
 112:../../libdaisy/src/dev/oled_ssd130x.h ****     };
 399              		.loc 13 112 30 is_stmt 0 view .LVU72
 400 003e 0122     		movs	r2, #1
 401 0040 6423     		movs	r3, #100
 402 0042 0DF10701 		add	r1, sp, #7
 403 0046 3846     		mov	r0, r7
 404 0048 EDB2     		uxtb	r5, r5
 405 004a FFF7FEFF 		bl	_ZN5daisy9SpiHandle16BlockingTransmitEPhjm
 406              	.LVL22:
 112:../../libdaisy/src/dev/oled_ssd130x.h ****     };
 407              		.loc 13 112 30 view .LVU73
 408 004e 1023     		movs	r3, #16
 409              	.LBE436:
 410              	.LBE434:
 411              	.LBB437:
 412              	.LBB438:
 111:../../libdaisy/src/dev/oled_ssd130x.h ****         spi_.BlockingTransmit(&cmd, 1);
 413              		.loc 13 111 23 view .LVU74
 414 0050 4146     		mov	r1, r8
 415 0052 3046     		mov	r0, r6
 416 0054 8DF80730 		strb	r3, [sp, #7]
 417              	.LVL23:
 111:../../libdaisy/src/dev/oled_ssd130x.h ****         spi_.BlockingTransmit(&cmd, 1);
 418              		.loc 13 111 23 view .LVU75
 419              	.LBE438:
 420              	.LBI437:
 109:../../libdaisy/src/dev/oled_ssd130x.h ****     {
 421              		.loc 13 109 10 is_stmt 1 view .LVU76
 422              	.LBB439:
 111:../../libdaisy/src/dev/oled_ssd130x.h ****         spi_.BlockingTransmit(&cmd, 1);
 423              		.loc 13 111 9 view .LVU77
 111:../../libdaisy/src/dev/oled_ssd130x.h ****         spi_.BlockingTransmit(&cmd, 1);
 424              		.loc 13 111 23 is_stmt 0 view .LVU78
 425 0058 FFF7FEFF 		bl	dsy_gpio_write
 426              	.LVL24:
ARM GAS  /tmp/ccMpf4Yo.s 			page 29


 112:../../libdaisy/src/dev/oled_ssd130x.h ****     };
 427              		.loc 13 112 9 is_stmt 1 view .LVU79
 112:../../libdaisy/src/dev/oled_ssd130x.h ****     };
 428              		.loc 13 112 30 is_stmt 0 view .LVU80
 429 005c 6423     		movs	r3, #100
 430 005e 0122     		movs	r2, #1
 431 0060 0DF10701 		add	r1, sp, #7
 432 0064 3846     		mov	r0, r7
 433 0066 FFF7FEFF 		bl	_ZN5daisy9SpiHandle16BlockingTransmitEPhjm
 434              	.LVL25:
 112:../../libdaisy/src/dev/oled_ssd130x.h ****     };
 435              		.loc 13 112 30 view .LVU81
 436              	.LBE439:
 437              	.LBE437:
 438              	.LBB440:
 439              	.LBI440:
 115:../../libdaisy/src/dev/oled_ssd130x.h ****     {
 440              		.loc 13 115 10 is_stmt 1 view .LVU82
 441              	.LBB441:
 117:../../libdaisy/src/dev/oled_ssd130x.h ****         spi_.BlockingTransmit(buff, size);
 442              		.loc 13 117 9 view .LVU83
 117:../../libdaisy/src/dev/oled_ssd130x.h ****         spi_.BlockingTransmit(buff, size);
 443              		.loc 13 117 23 is_stmt 0 view .LVU84
 444 006a 0121     		movs	r1, #1
 445 006c 3046     		mov	r0, r6
 446 006e FFF7FEFF 		bl	dsy_gpio_write
 447              	.LVL26:
 118:../../libdaisy/src/dev/oled_ssd130x.h ****     };
 448              		.loc 13 118 9 is_stmt 1 view .LVU85
 118:../../libdaisy/src/dev/oled_ssd130x.h ****     };
 449              		.loc 13 118 30 is_stmt 0 view .LVU86
 450 0072 8022     		movs	r2, #128
 451 0074 2146     		mov	r1, r4
 452 0076 6423     		movs	r3, #100
 453 0078 3846     		mov	r0, r7
 454 007a 1444     		add	r4, r4, r2
 455              	.LVL27:
 118:../../libdaisy/src/dev/oled_ssd130x.h ****     };
 456              		.loc 13 118 30 view .LVU87
 457 007c FFF7FEFF 		bl	_ZN5daisy9SpiHandle16BlockingTransmitEPhjm
 458              	.LVL28:
 118:../../libdaisy/src/dev/oled_ssd130x.h ****     };
 459              		.loc 13 118 30 view .LVU88
 460              	.LBE441:
 461              	.LBE440:
 462              		.loc 13 270 9 is_stmt 1 view .LVU89
 463              		.loc 13 270 22 view .LVU90
 464 0080 B82D     		cmp	r5, #184
 465 0082 C7D1     		bne	.L13
 466              	.LBE442:
 467              	.LBE443:
 468              		.loc 5 50 48 is_stmt 0 view .LVU91
 469 0084 02B0     		add	sp, sp, #8
 470              		.cfi_def_cfa_offset 24
 471              		@ sp needed
 472 0086 BDE8F081 		pop	{r4, r5, r6, r7, r8, pc}
 473              		.loc 5 50 48 view .LVU92
ARM GAS  /tmp/ccMpf4Yo.s 			page 30


 474              		.cfi_endproc
 475              	.LFE4564:
 477 008a 00BF     		.section	.text._ZN5daisy25OneBitGraphicsDisplayImplINS_11OledDisplayINS_13SSD130xDriverILj128ELj64
 478              		.align	1
 479              		.p2align 2,,3
 480              		.weak	_ZN5daisy25OneBitGraphicsDisplayImplINS_11OledDisplayINS_13SSD130xDriverILj128ELj64ENS_24SSD
 481              		.syntax unified
 482              		.thumb
 483              		.thumb_func
 484              		.fpu fpv5-d16
 486              	_ZN5daisy25OneBitGraphicsDisplayImplINS_11OledDisplayINS_13SSD130xDriverILj128ELj64ENS_24SSD130x4Wi
 487              	.LVL29:
 488              	.LFB4691:
 220:../../libdaisy/src/hid/disp/display.h **** 
 221:../../libdaisy/src/hid/disp/display.h ****     void DrawLine(uint_fast8_t x1,
 222:../../libdaisy/src/hid/disp/display.h ****                   uint_fast8_t y1,
 223:../../libdaisy/src/hid/disp/display.h ****                   uint_fast8_t x2,
 224:../../libdaisy/src/hid/disp/display.h ****                   uint_fast8_t y2,
 225:../../libdaisy/src/hid/disp/display.h ****                   bool         on) override
 226:../../libdaisy/src/hid/disp/display.h ****     {
 227:../../libdaisy/src/hid/disp/display.h ****         int_fast16_t deltaX = abs((int_fast16_t)x2 - (int_fast16_t)x1);
 228:../../libdaisy/src/hid/disp/display.h ****         int_fast16_t deltaY = abs((int_fast16_t)y2 - (int_fast16_t)y1);
 229:../../libdaisy/src/hid/disp/display.h ****         int_fast16_t signX  = ((x1 < x2) ? 1 : -1);
 230:../../libdaisy/src/hid/disp/display.h ****         int_fast16_t signY  = ((y1 < y2) ? 1 : -1);
 231:../../libdaisy/src/hid/disp/display.h ****         int_fast16_t error  = deltaX - deltaY;
 232:../../libdaisy/src/hid/disp/display.h ****         int_fast16_t error2;
 233:../../libdaisy/src/hid/disp/display.h **** 
 234:../../libdaisy/src/hid/disp/display.h ****         // If we write "ChildType::DrawPixel(x2, y2, on);", we end up with
 235:../../libdaisy/src/hid/disp/display.h ****         // all sorts of weird compiler errors when the Child class is a template
 236:../../libdaisy/src/hid/disp/display.h ****         // class. The only way around this is to use this very verbose syntax:
 237:../../libdaisy/src/hid/disp/display.h ****         ((ChildType*)(this))->ChildType::DrawPixel(x2, y2, on);
 238:../../libdaisy/src/hid/disp/display.h **** 
 239:../../libdaisy/src/hid/disp/display.h ****         while((x1 != x2) || (y1 != y2))
 240:../../libdaisy/src/hid/disp/display.h ****         {
 241:../../libdaisy/src/hid/disp/display.h ****             ((ChildType*)(this))->ChildType::DrawPixel(x1, y1, on);
 242:../../libdaisy/src/hid/disp/display.h ****             error2 = error * 2;
 243:../../libdaisy/src/hid/disp/display.h ****             if(error2 > -deltaY)
 244:../../libdaisy/src/hid/disp/display.h ****             {
 245:../../libdaisy/src/hid/disp/display.h ****                 error -= deltaY;
 246:../../libdaisy/src/hid/disp/display.h ****                 x1 += signX;
 247:../../libdaisy/src/hid/disp/display.h ****             }
 248:../../libdaisy/src/hid/disp/display.h **** 
 249:../../libdaisy/src/hid/disp/display.h ****             if(error2 < deltaX)
 250:../../libdaisy/src/hid/disp/display.h ****             {
 251:../../libdaisy/src/hid/disp/display.h ****                 error += deltaX;
 252:../../libdaisy/src/hid/disp/display.h ****                 y1 += signY;
 253:../../libdaisy/src/hid/disp/display.h ****             }
 254:../../libdaisy/src/hid/disp/display.h ****         }
 255:../../libdaisy/src/hid/disp/display.h ****     }
 256:../../libdaisy/src/hid/disp/display.h **** 
 257:../../libdaisy/src/hid/disp/display.h ****     void DrawRect(uint_fast8_t x1,
 258:../../libdaisy/src/hid/disp/display.h ****                   uint_fast8_t y1,
 259:../../libdaisy/src/hid/disp/display.h ****                   uint_fast8_t x2,
 260:../../libdaisy/src/hid/disp/display.h ****                   uint_fast8_t y2,
 261:../../libdaisy/src/hid/disp/display.h ****                   bool         on,
 262:../../libdaisy/src/hid/disp/display.h ****                   bool         fill = false) override
 263:../../libdaisy/src/hid/disp/display.h ****     {
ARM GAS  /tmp/ccMpf4Yo.s 			page 31


 264:../../libdaisy/src/hid/disp/display.h ****         if(fill)
 265:../../libdaisy/src/hid/disp/display.h ****         {
 266:../../libdaisy/src/hid/disp/display.h ****             for(uint_fast8_t x = x1; x <= x2; x++)
 267:../../libdaisy/src/hid/disp/display.h ****             {
 268:../../libdaisy/src/hid/disp/display.h ****                 for(uint_fast8_t y = y1; y <= y2; y++)
 269:../../libdaisy/src/hid/disp/display.h ****                 {
 270:../../libdaisy/src/hid/disp/display.h ****                     ((ChildType*)(this))->ChildType::DrawPixel(x, y, on);
 271:../../libdaisy/src/hid/disp/display.h ****                 }
 272:../../libdaisy/src/hid/disp/display.h ****             }
 273:../../libdaisy/src/hid/disp/display.h ****         }
 274:../../libdaisy/src/hid/disp/display.h ****         else
 275:../../libdaisy/src/hid/disp/display.h ****         {
 276:../../libdaisy/src/hid/disp/display.h ****             ((ChildType*)(this))->ChildType::DrawLine(x1, y1, x2, y1, on);
 277:../../libdaisy/src/hid/disp/display.h ****             ((ChildType*)(this))->ChildType::DrawLine(x2, y1, x2, y2, on);
 278:../../libdaisy/src/hid/disp/display.h ****             ((ChildType*)(this))->ChildType::DrawLine(x2, y2, x1, y2, on);
 279:../../libdaisy/src/hid/disp/display.h ****             ((ChildType*)(this))->ChildType::DrawLine(x1, y2, x1, y1, on);
 280:../../libdaisy/src/hid/disp/display.h ****         }
 281:../../libdaisy/src/hid/disp/display.h ****     }
 282:../../libdaisy/src/hid/disp/display.h **** 
 283:../../libdaisy/src/hid/disp/display.h ****     void DrawArc(uint_fast8_t x,
 284:../../libdaisy/src/hid/disp/display.h ****                  uint_fast8_t y,
 285:../../libdaisy/src/hid/disp/display.h ****                  uint_fast8_t radius,
 286:../../libdaisy/src/hid/disp/display.h ****                  int_fast16_t start_angle,
 287:../../libdaisy/src/hid/disp/display.h ****                  int_fast16_t sweep,
 288:../../libdaisy/src/hid/disp/display.h ****                  bool         on) override
 289:../../libdaisy/src/hid/disp/display.h ****     {
 290:../../libdaisy/src/hid/disp/display.h ****         // Values to calculate the circle
 291:../../libdaisy/src/hid/disp/display.h ****         int_fast16_t t_x, t_y, err, e2;
 292:../../libdaisy/src/hid/disp/display.h **** 
 293:../../libdaisy/src/hid/disp/display.h ****         // Temporary values to speed up comparisons
 294:../../libdaisy/src/hid/disp/display.h ****         float t_sxy, t_syx, t_sxny, t_synx;
 295:../../libdaisy/src/hid/disp/display.h ****         float t_exy, t_eyx, t_exny, t_eynx;
 296:../../libdaisy/src/hid/disp/display.h **** 
 297:../../libdaisy/src/hid/disp/display.h ****         float start_angle_rad, end_angle_rad;
 298:../../libdaisy/src/hid/disp/display.h ****         float start_x, start_y, end_x, end_y;
 299:../../libdaisy/src/hid/disp/display.h **** 
 300:../../libdaisy/src/hid/disp/display.h ****         bool d1, d2, d3, d4;
 301:../../libdaisy/src/hid/disp/display.h **** 
 302:../../libdaisy/src/hid/disp/display.h ****         d1 = d2 = d3 = d4 = true;
 303:../../libdaisy/src/hid/disp/display.h **** 
 304:../../libdaisy/src/hid/disp/display.h ****         bool circle = false;
 305:../../libdaisy/src/hid/disp/display.h **** 
 306:../../libdaisy/src/hid/disp/display.h ****         if(sweep < 0)
 307:../../libdaisy/src/hid/disp/display.h ****         {
 308:../../libdaisy/src/hid/disp/display.h ****             start_angle += sweep;
 309:../../libdaisy/src/hid/disp/display.h ****             sweep = -sweep;
 310:../../libdaisy/src/hid/disp/display.h ****         }
 311:../../libdaisy/src/hid/disp/display.h **** 
 312:../../libdaisy/src/hid/disp/display.h ****         start_angle_rad = deg2rad(start_angle);
 313:../../libdaisy/src/hid/disp/display.h ****         end_angle_rad   = deg2rad(start_angle + sweep);
 314:../../libdaisy/src/hid/disp/display.h **** 
 315:../../libdaisy/src/hid/disp/display.h ****         start_x = cos(start_angle_rad) * radius;
 316:../../libdaisy/src/hid/disp/display.h ****         start_y = -sin(start_angle_rad) * radius;
 317:../../libdaisy/src/hid/disp/display.h ****         end_x   = cos(end_angle_rad) * radius;
 318:../../libdaisy/src/hid/disp/display.h ****         end_y   = -sin(end_angle_rad) * radius;
 319:../../libdaisy/src/hid/disp/display.h **** 
 320:../../libdaisy/src/hid/disp/display.h ****         // Check if start and endpoint are very near
ARM GAS  /tmp/ccMpf4Yo.s 			page 32


 321:../../libdaisy/src/hid/disp/display.h ****         if((end_x - start_x) * (end_x - start_x)
 322:../../libdaisy/src/hid/disp/display.h ****                + (end_y - start_y) * (end_y - start_y)
 323:../../libdaisy/src/hid/disp/display.h ****            < 2.0f)
 324:../../libdaisy/src/hid/disp/display.h ****         {
 325:../../libdaisy/src/hid/disp/display.h ****             if(sweep > 180)
 326:../../libdaisy/src/hid/disp/display.h ****                 circle = true;
 327:../../libdaisy/src/hid/disp/display.h ****             else
 328:../../libdaisy/src/hid/disp/display.h ****                 // Nothing to draw
 329:../../libdaisy/src/hid/disp/display.h ****                 return;
 330:../../libdaisy/src/hid/disp/display.h ****         }
 331:../../libdaisy/src/hid/disp/display.h **** 
 332:../../libdaisy/src/hid/disp/display.h ****         t_x = -radius;
 333:../../libdaisy/src/hid/disp/display.h ****         t_y = 0;
 334:../../libdaisy/src/hid/disp/display.h ****         err = 2 - 2 * radius;
 335:../../libdaisy/src/hid/disp/display.h **** 
 336:../../libdaisy/src/hid/disp/display.h ****         do
 337:../../libdaisy/src/hid/disp/display.h ****         {
 338:../../libdaisy/src/hid/disp/display.h ****             if(!circle)
 339:../../libdaisy/src/hid/disp/display.h ****             {
 340:../../libdaisy/src/hid/disp/display.h ****                 t_sxy  = start_x * t_y;
 341:../../libdaisy/src/hid/disp/display.h ****                 t_syx  = start_y * t_x;
 342:../../libdaisy/src/hid/disp/display.h ****                 t_sxny = start_x * -t_y;
 343:../../libdaisy/src/hid/disp/display.h ****                 t_synx = start_y * -t_x;
 344:../../libdaisy/src/hid/disp/display.h ****                 t_exy  = end_x * t_y;
 345:../../libdaisy/src/hid/disp/display.h ****                 t_eyx  = end_y * t_x;
 346:../../libdaisy/src/hid/disp/display.h ****                 t_exny = end_x * -t_y;
 347:../../libdaisy/src/hid/disp/display.h ****                 t_eynx = end_y * -t_x;
 348:../../libdaisy/src/hid/disp/display.h **** 
 349:../../libdaisy/src/hid/disp/display.h ****                 if(sweep > 180)
 350:../../libdaisy/src/hid/disp/display.h ****                 {
 351:../../libdaisy/src/hid/disp/display.h ****                     d1 = (t_sxy - t_synx < 0 || t_exy - t_eynx > 0);
 352:../../libdaisy/src/hid/disp/display.h ****                     d2 = (t_sxy - t_syx < 0 || t_exy - t_eyx > 0);
 353:../../libdaisy/src/hid/disp/display.h ****                     d3 = (t_sxny - t_syx < 0 || t_exny - t_eyx > 0);
 354:../../libdaisy/src/hid/disp/display.h ****                     d4 = (t_sxny - t_synx < 0 || t_exny - t_eynx > 0);
 355:../../libdaisy/src/hid/disp/display.h ****                 }
 356:../../libdaisy/src/hid/disp/display.h ****                 else
 357:../../libdaisy/src/hid/disp/display.h ****                 {
 358:../../libdaisy/src/hid/disp/display.h ****                     d1 = (t_sxy - t_synx < 0 && t_exy - t_eynx > 0);
 359:../../libdaisy/src/hid/disp/display.h ****                     d2 = (t_sxy - t_syx < 0 && t_exy - t_eyx > 0);
 360:../../libdaisy/src/hid/disp/display.h ****                     d3 = (t_sxny - t_syx < 0 && t_exny - t_eyx > 0);
 361:../../libdaisy/src/hid/disp/display.h ****                     d4 = (t_sxny - t_synx < 0 && t_exny - t_eynx > 0);
 362:../../libdaisy/src/hid/disp/display.h ****                 }
 363:../../libdaisy/src/hid/disp/display.h ****             }
 364:../../libdaisy/src/hid/disp/display.h **** 
 365:../../libdaisy/src/hid/disp/display.h ****             if(d1)
 366:../../libdaisy/src/hid/disp/display.h ****                 ((ChildType*)(this))
 367:../../libdaisy/src/hid/disp/display.h ****                     ->ChildType::DrawPixel(x - t_x, y + t_y, on);
 368:../../libdaisy/src/hid/disp/display.h ****             if(d2)
 369:../../libdaisy/src/hid/disp/display.h ****                 ((ChildType*)(this))
 370:../../libdaisy/src/hid/disp/display.h ****                     ->ChildType::DrawPixel(x + t_x, y + t_y, on);
 371:../../libdaisy/src/hid/disp/display.h ****             if(d3)
 372:../../libdaisy/src/hid/disp/display.h ****                 ((ChildType*)(this))
 373:../../libdaisy/src/hid/disp/display.h ****                     ->ChildType::DrawPixel(x + t_x, y - t_y, on);
 374:../../libdaisy/src/hid/disp/display.h ****             if(d4)
 375:../../libdaisy/src/hid/disp/display.h ****                 ((ChildType*)(this))
 376:../../libdaisy/src/hid/disp/display.h ****                     ->ChildType::DrawPixel(x - t_x, y - t_y, on);
 377:../../libdaisy/src/hid/disp/display.h **** 
ARM GAS  /tmp/ccMpf4Yo.s 			page 33


 378:../../libdaisy/src/hid/disp/display.h ****             e2 = err;
 379:../../libdaisy/src/hid/disp/display.h ****             if(e2 <= t_y)
 380:../../libdaisy/src/hid/disp/display.h ****             {
 381:../../libdaisy/src/hid/disp/display.h ****                 t_y++;
 382:../../libdaisy/src/hid/disp/display.h ****                 err = err + (t_y * 2 + 1);
 383:../../libdaisy/src/hid/disp/display.h ****                 if(-t_x == t_y && e2 <= t_x)
 384:../../libdaisy/src/hid/disp/display.h ****                 {
 385:../../libdaisy/src/hid/disp/display.h ****                     e2 = 0;
 386:../../libdaisy/src/hid/disp/display.h ****                 }
 387:../../libdaisy/src/hid/disp/display.h ****             }
 388:../../libdaisy/src/hid/disp/display.h ****             if(e2 > t_x)
 389:../../libdaisy/src/hid/disp/display.h ****             {
 390:../../libdaisy/src/hid/disp/display.h ****                 t_x++;
 391:../../libdaisy/src/hid/disp/display.h ****                 err = err + (t_x * 2 + 1);
 392:../../libdaisy/src/hid/disp/display.h ****             }
 393:../../libdaisy/src/hid/disp/display.h ****         } while(t_x <= 0);
 394:../../libdaisy/src/hid/disp/display.h ****     }
 395:../../libdaisy/src/hid/disp/display.h **** 
 396:../../libdaisy/src/hid/disp/display.h ****     char WriteChar(char ch, FontDef font, bool on) override
 489              		.loc 6 396 10 is_stmt 1 view -0
 490              		.cfi_startproc
 491              		@ args = 4, pretend = 0, frame = 16
 492              		@ frame_needed = 0, uses_anonymous_args = 0
 493              		.loc 6 396 10 is_stmt 0 view .LVU94
 494 0000 2DE9F04F 		push	{r4, r5, r6, r7, r8, r9, r10, fp, lr}
 495              		.cfi_def_cfa_offset 36
 496              		.cfi_offset 4, -36
 497              		.cfi_offset 5, -32
 498              		.cfi_offset 6, -28
 499              		.cfi_offset 7, -24
 500              		.cfi_offset 8, -20
 501              		.cfi_offset 9, -16
 502              		.cfi_offset 10, -12
 503              		.cfi_offset 11, -8
 504              		.cfi_offset 14, -4
 505 0004 85B0     		sub	sp, sp, #20
 506              		.cfi_def_cfa_offset 56
 507              	.LVL30:
 397:../../libdaisy/src/hid/disp/display.h ****     {
 398:../../libdaisy/src/hid/disp/display.h ****         uint32_t i, b, j;
 399:../../libdaisy/src/hid/disp/display.h **** 
 400:../../libdaisy/src/hid/disp/display.h ****         // Check if character is valid
 401:../../libdaisy/src/hid/disp/display.h ****         if(ch < 32 || ch > 126)
 508              		.loc 6 401 20 view .LVU95
 509 0006 A1F12004 		sub	r4, r1, #32
 396:../../libdaisy/src/hid/disp/display.h ****     {
 510              		.loc 6 396 10 view .LVU96
 511 000a 0091     		str	r1, [sp]
 512 000c 04A9     		add	r1, sp, #16
 513              	.LVL31:
 396:../../libdaisy/src/hid/disp/display.h ****     {
 514              		.loc 6 396 10 view .LVU97
 515 000e 9DF83880 		ldrb	r8, [sp, #56]	@ zero_extendqisi2
 516 0012 01E90C00 		stmdb	r1, {r2, r3}
 517              	.LVL32:
 518              		.loc 6 401 9 view .LVU98
 519 0016 E3B2     		uxtb	r3, r4
ARM GAS  /tmp/ccMpf4Yo.s 			page 34


 520 0018 5E2B     		cmp	r3, #94
 521 001a 00F29480 		bhi	.L20
 402:../../libdaisy/src/hid/disp/display.h ****             return 0;
 403:../../libdaisy/src/hid/disp/display.h **** 
 404:../../libdaisy/src/hid/disp/display.h ****         // Check remaining space on current line
 405:../../libdaisy/src/hid/disp/display.h ****         if(Width() < (currentX_ + font.FontWidth)
 522              		.loc 6 405 17 view .LVU99
 523 001e 0368     		ldr	r3, [r0]
 524 0020 8146     		mov	r9, r0
 525 0022 5C4A     		ldr	r2, .L56
 526 0024 DB68     		ldr	r3, [r3, #12]
 527 0026 9DF80860 		ldrb	r6, [sp, #8]	@ zero_extendqisi2
 528 002a 9342     		cmp	r3, r2
 529 002c 9DF80950 		ldrb	r5, [sp, #9]	@ zero_extendqisi2
 530 0030 40F09380 		bne	.L47
 531 0034 8020     		movs	r0, #128
 532              	.LVL33:
 533              	.L19:
 534              		.loc 6 405 23 view .LVU100
 535 0036 B9F80430 		ldrh	r3, [r9, #4]
 536              		.loc 6 405 33 view .LVU101
 537 003a 3344     		add	r3, r3, r6
 406:../../libdaisy/src/hid/disp/display.h ****            || Height() < (currentY_ + font.FontHeight))
 538              		.loc 6 406 12 view .LVU102
 539 003c 8342     		cmp	r3, r0
 540 003e 00F38280 		bgt	.L20
 541              		.loc 6 406 21 discriminator 2 view .LVU103
 542 0042 D9F80030 		ldr	r3, [r9]
 543 0046 544A     		ldr	r2, .L56+4
 544 0048 9B68     		ldr	r3, [r3, #8]
 545 004a 9342     		cmp	r3, r2
 546 004c 40F08780 		bne	.L48
 547              		.loc 6 406 21 view .LVU104
 548 0050 4020     		movs	r0, #64
 549              	.L21:
 550              		.loc 6 406 27 discriminator 2 view .LVU105
 551 0052 B9F80610 		ldrh	r1, [r9, #6]
 552              		.loc 6 406 37 discriminator 2 view .LVU106
 553 0056 4B19     		adds	r3, r1, r5
 554              		.loc 6 406 27 discriminator 2 view .LVU107
 555 0058 0191     		str	r1, [sp, #4]
 556              		.loc 6 406 12 discriminator 2 view .LVU108
 557 005a 8342     		cmp	r3, r0
 558 005c 73DC     		bgt	.L20
 559              	.LVL34:
 407:../../libdaisy/src/hid/disp/display.h ****         {
 408:../../libdaisy/src/hid/disp/display.h ****             // Not enough space on current line
 409:../../libdaisy/src/hid/disp/display.h ****             return 0;
 410:../../libdaisy/src/hid/disp/display.h ****         }
 411:../../libdaisy/src/hid/disp/display.h **** 
 412:../../libdaisy/src/hid/disp/display.h ****         // Use the font to write
 413:../../libdaisy/src/hid/disp/display.h ****         for(i = 0; i < font.FontHeight; i++)
 560              		.loc 6 413 22 is_stmt 1 view .LVU109
 561 005e 002D     		cmp	r5, #0
 562 0060 00F08880 		beq	.L22
 414:../../libdaisy/src/hid/disp/display.h ****         {
 415:../../libdaisy/src/hid/disp/display.h ****             b = font.data[(ch - 32) * font.FontHeight + i];
ARM GAS  /tmp/ccMpf4Yo.s 			page 35


 563              		.loc 6 415 37 is_stmt 0 view .LVU110
 564 0064 05FB04F4 		mul	r4, r5, r4
 565              		.loc 6 415 22 view .LVU111
 566 0068 039A     		ldr	r2, [sp, #12]
 567 006a 6FF00043 		mvn	r3, #-2147483648
 568 006e B9F804A0 		ldrh	r10, [r9, #4]
 569 0072 2544     		add	r5, r5, r4
 570 0074 A2F1020B 		sub	fp, r2, #2
 571 0078 2344     		add	r3, r3, r4
 572 007a 0BEB450B 		add	fp, fp, r5, lsl #1
 573 007e 0D46     		mov	r5, r1
 574 0080 02EB430E 		add	lr, r2, r3, lsl #1
 575              	.LVL35:
 576              	.L25:
 577              		.loc 6 415 13 view .LVU112
 578 0084 3EF8024F 		ldrh	r4, [lr, #2]!
 579              	.LVL36:
 416:../../libdaisy/src/hid/disp/display.h ****             for(j = 0; j < font.FontWidth; j++)
 580              		.loc 6 416 26 is_stmt 1 view .LVU113
 581 0088 A6B3     		cbz	r6, .L30
 582              	.LBB474:
 583              	.LBB475:
 584              	.LBB476:
 585              	.LBB477:
 586              	.LBB478:
 246:../../libdaisy/src/dev/oled_ssd130x.h ****     }
 587              		.loc 13 246 55 is_stmt 0 view .LVU114
 588 008a 05F00703 		and	r3, r5, #7
 246:../../libdaisy/src/dev/oled_ssd130x.h ****     }
 589              		.loc 13 246 49 view .LVU115
 590 008e 0127     		movs	r7, #1
 246:../../libdaisy/src/dev/oled_ssd130x.h ****     }
 591              		.loc 13 246 28 view .LVU116
 592 0090 E808     		lsrs	r0, r5, #3
 246:../../libdaisy/src/dev/oled_ssd130x.h ****     }
 593              		.loc 13 246 42 view .LVU117
 594 0092 4146     		mov	r1, r8
 246:../../libdaisy/src/dev/oled_ssd130x.h ****     }
 595              		.loc 13 246 49 view .LVU118
 596 0094 9F40     		lsls	r7, r7, r3
 597              	.LBE478:
 598              	.LBE477:
 599              	.LBE476:
 600              	.LBE475:
 601              	.LBE474:
 602              		.loc 6 416 19 view .LVU119
 603 0096 0022     		movs	r2, #0
 604 0098 0AEBC013 		add	r3, r10, r0, lsl #7
 605              	.LBB496:
 606              	.LBB491:
 607              	.LBB486:
 608              	.LBB482:
 609              	.LBB479:
 246:../../libdaisy/src/dev/oled_ssd130x.h ****     }
 610              		.loc 13 246 42 view .LVU120
 611 009c 7FB2     		sxtb	r7, r7
 612 009e 4B44     		add	r3, r3, r9
ARM GAS  /tmp/ccMpf4Yo.s 			page 36


 613 00a0 09EBC010 		add	r0, r9, r0, lsl #7
 614 00a4 6FEA070C 		mvn	ip, r7
 615 00a8 B846     		mov	r8, r7
 616 00aa 0F46     		mov	r7, r1
 617 00ac 0CE0     		b	.L31
 618              	.LVL37:
 619              	.L50:
 246:../../libdaisy/src/dev/oled_ssd130x.h ****     }
 620              		.loc 13 246 42 view .LVU121
 621              	.LBE479:
 622              	.LBE482:
 623              	.LBE486:
 624              	.LBE491:
 625              	.LBE496:
 626              	.LBB497:
 627              	.LBI497:
  41:../../libdaisy/src/hid/disp/oled_display.h ****     {
 628              		.loc 5 41 10 is_stmt 1 view .LVU122
 629              	.LBB498:
 630              	.LBI498:
 239:../../libdaisy/src/dev/oled_ssd130x.h ****     {
 631              		.loc 13 239 10 view .LVU123
 632              	.LBB499:
 241:../../libdaisy/src/dev/oled_ssd130x.h ****             return;
 633              		.loc 13 241 9 is_stmt 0 view .LVU124
 634 00ae 7F29     		cmp	r1, #127
 635 00b0 06D8     		bhi	.L27
 636 00b2 3F2D     		cmp	r5, #63
 637 00b4 04D8     		bhi	.L27
 244:../../libdaisy/src/dev/oled_ssd130x.h ****         else
 638              		.loc 13 244 42 view .LVU125
 639 00b6 197D     		ldrb	r1, [r3, #20]	@ zero_extendqisi2
 243:../../libdaisy/src/dev/oled_ssd130x.h ****             buffer_[x + (y / 8) * width] |= (1 << (y % 8));
 640              		.loc 13 243 9 view .LVU126
 641 00b8 A7B1     		cbz	r7, .L29
 642              	.L46:
 243:../../libdaisy/src/dev/oled_ssd130x.h ****             buffer_[x + (y / 8) * width] |= (1 << (y % 8));
 643              		.loc 13 243 9 view .LVU127
 644              	.LBE499:
 645              	.LBE498:
 646              	.LBE497:
 647              	.LBB502:
 648              	.LBB492:
 649              	.LBB487:
 244:../../libdaisy/src/dev/oled_ssd130x.h ****         else
 650              		.loc 13 244 42 view .LVU128
 651 00ba 48EA0101 		orr	r1, r8, r1
 244:../../libdaisy/src/dev/oled_ssd130x.h ****         else
 652              		.loc 13 244 13 view .LVU129
 653 00be 1975     		strb	r1, [r3, #20]
 654              	.L27:
 655              	.LBE487:
 656              	.LBE492:
 657              	.LBE502:
 658              		.loc 6 416 13 is_stmt 1 discriminator 2 view .LVU130
 659 00c0 0132     		adds	r2, r2, #1
 660              	.LVL38:
ARM GAS  /tmp/ccMpf4Yo.s 			page 37


 661              		.loc 6 416 26 discriminator 2 view .LVU131
 662 00c2 0133     		adds	r3, r3, #1
 663 00c4 9642     		cmp	r6, r2
 664 00c6 14D0     		beq	.L49
 665              	.LVL39:
 666              	.L31:
 417:../../libdaisy/src/hid/disp/display.h ****             {
 418:../../libdaisy/src/hid/disp/display.h ****                 if((b << j) & 0x8000)
 667              		.loc 6 418 23 is_stmt 0 view .LVU132
 668 00c8 04FA02F1 		lsl	r1, r4, r2
 669              		.loc 6 418 17 view .LVU133
 670 00cc 11F4004F 		tst	r1, #32768
 671              	.LBB503:
 672              	.LBB501:
 673              	.LBB500:
 241:../../libdaisy/src/dev/oled_ssd130x.h ****             return;
 674              		.loc 13 241 14 view .LVU134
 675 00d0 A3EB0001 		sub	r1, r3, r0
 676              	.LBE500:
 677              	.LBE501:
 678              	.LBE503:
 679              		.loc 6 418 17 view .LVU135
 680 00d4 EBD1     		bne	.L50
 681              	.LVL40:
 682              	.LBB504:
 683              	.LBI474:
  41:../../libdaisy/src/hid/disp/oled_display.h ****     {
 684              		.loc 5 41 10 is_stmt 1 view .LVU136
 685              	.LBB493:
 686              	.LBI475:
 239:../../libdaisy/src/dev/oled_ssd130x.h ****     {
 687              		.loc 13 239 10 view .LVU137
 688              	.LBB488:
 241:../../libdaisy/src/dev/oled_ssd130x.h ****             return;
 689              		.loc 13 241 9 is_stmt 0 view .LVU138
 690 00d6 7F29     		cmp	r1, #127
 691 00d8 F2D8     		bhi	.L27
 692 00da 3F2D     		cmp	r5, #63
 693 00dc F0D8     		bhi	.L27
 244:../../libdaisy/src/dev/oled_ssd130x.h ****         else
 694              		.loc 13 244 42 view .LVU139
 695 00de 197D     		ldrb	r1, [r3, #20]	@ zero_extendqisi2
 243:../../libdaisy/src/dev/oled_ssd130x.h ****             buffer_[x + (y / 8) * width] |= (1 << (y % 8));
 696              		.loc 13 243 9 view .LVU140
 697 00e0 002F     		cmp	r7, #0
 698 00e2 EAD0     		beq	.L46
 699              	.L29:
 700              	.LVL41:
 701              	.LBB483:
 702              	.LBI477:
 239:../../libdaisy/src/dev/oled_ssd130x.h ****     {
 703              		.loc 13 239 10 is_stmt 1 view .LVU141
 239:../../libdaisy/src/dev/oled_ssd130x.h ****     {
 704              		.loc 13 239 10 is_stmt 0 view .LVU142
 705              	.LBE483:
 706              	.LBE488:
 707              	.LBE493:
ARM GAS  /tmp/ccMpf4Yo.s 			page 38


 708              	.LBE504:
 416:../../libdaisy/src/hid/disp/display.h ****             {
 709              		.loc 6 416 13 view .LVU143
 710 00e4 0132     		adds	r2, r2, #1
 711              	.LVL42:
 712              	.LBB505:
 713              	.LBB494:
 714              	.LBB489:
 715              	.LBB484:
 716              	.LBB480:
 246:../../libdaisy/src/dev/oled_ssd130x.h ****     }
 717              		.loc 13 246 42 view .LVU144
 718 00e6 0CEA0101 		and	r1, ip, r1
 719 00ea 0133     		adds	r3, r3, #1
 720              	.LBE480:
 721              	.LBE484:
 722              	.LBE489:
 723              	.LBE494:
 724              	.LBE505:
 416:../../libdaisy/src/hid/disp/display.h ****             {
 725              		.loc 6 416 26 view .LVU145
 726 00ec 9642     		cmp	r6, r2
 727              	.LBB506:
 728              	.LBB495:
 729              	.LBB490:
 730              	.LBB485:
 731              	.LBB481:
 246:../../libdaisy/src/dev/oled_ssd130x.h ****     }
 732              		.loc 13 246 13 view .LVU146
 733 00ee D974     		strb	r1, [r3, #19]
 246:../../libdaisy/src/dev/oled_ssd130x.h ****     }
 734              		.loc 13 246 13 view .LVU147
 735              	.LBE481:
 736              	.LBE485:
 737              	.LBE490:
 738              	.LBE495:
 739              	.LBE506:
 416:../../libdaisy/src/hid/disp/display.h ****             {
 740              		.loc 6 416 13 is_stmt 1 view .LVU148
 741              	.LVL43:
 416:../../libdaisy/src/hid/disp/display.h ****             {
 742              		.loc 6 416 26 view .LVU149
 743 00f0 EAD1     		bne	.L31
 744              	.L49:
 416:../../libdaisy/src/hid/disp/display.h ****             {
 745              		.loc 6 416 26 is_stmt 0 view .LVU150
 746 00f2 B846     		mov	r8, r7
 747              	.LVL44:
 748              	.L30:
 413:../../libdaisy/src/hid/disp/display.h ****         {
 749              		.loc 6 413 9 is_stmt 1 view .LVU151
 413:../../libdaisy/src/hid/disp/display.h ****         {
 750              		.loc 6 413 22 view .LVU152
 751 00f4 F345     		cmp	fp, lr
 752 00f6 05F10105 		add	r5, r5, #1
 753 00fa C3D1     		bne	.L25
 754              	.LVL45:
ARM GAS  /tmp/ccMpf4Yo.s 			page 39


 755              	.L24:
 756              	.LBB507:
 757              	.LBB508:
 173:../../libdaisy/src/hid/disp/display.h ****         currentY_ = (y >= Height()) ? Height() - 1 : y;
 758              		.loc 6 173 33 is_stmt 0 view .LVU153
 759 00fc D9F80030 		ldr	r3, [r9]
 760              	.LBE508:
 761              	.LBE507:
 419:../../libdaisy/src/hid/disp/display.h ****                 {
 420:../../libdaisy/src/hid/disp/display.h ****                     ((ChildType*)(this))
 421:../../libdaisy/src/hid/disp/display.h ****                         ->ChildType::DrawPixel(
 422:../../libdaisy/src/hid/disp/display.h ****                             currentX_ + j, (currentY_ + i), on);
 423:../../libdaisy/src/hid/disp/display.h ****                 }
 424:../../libdaisy/src/hid/disp/display.h ****                 else
 425:../../libdaisy/src/hid/disp/display.h ****                 {
 426:../../libdaisy/src/hid/disp/display.h ****                     ((ChildType*)(this))
 427:../../libdaisy/src/hid/disp/display.h ****                         ->ChildType::DrawPixel(
 428:../../libdaisy/src/hid/disp/display.h ****                             currentX_ + j, (currentY_ + i), !on);
 429:../../libdaisy/src/hid/disp/display.h ****                 }
 430:../../libdaisy/src/hid/disp/display.h ****             }
 431:../../libdaisy/src/hid/disp/display.h ****         }
 432:../../libdaisy/src/hid/disp/display.h **** 
 433:../../libdaisy/src/hid/disp/display.h ****         // The current space is now taken
 434:../../libdaisy/src/hid/disp/display.h ****         SetCursor(currentX_ + font.FontWidth, currentY_);
 762              		.loc 6 434 18 view .LVU154
 763 0100 0AEB0604 		add	r4, r10, r6
 764 0104 2349     		ldr	r1, .L56
 765              	.LBB513:
 766              	.LBB509:
 173:../../libdaisy/src/hid/disp/display.h ****         currentY_ = (y >= Height()) ? Height() - 1 : y;
 767              		.loc 6 173 33 view .LVU155
 768 0106 DA68     		ldr	r2, [r3, #12]
 769              	.LBE509:
 770              	.LBE513:
 771              		.loc 6 434 18 view .LVU156
 772 0108 A4B2     		uxth	r4, r4
 773              	.LVL46:
 774              	.LBB514:
 775              	.LBI507:
 171:../../libdaisy/src/hid/disp/display.h ****     {
 776              		.loc 6 171 10 is_stmt 1 view .LVU157
 777              	.LBB510:
 173:../../libdaisy/src/hid/disp/display.h ****         currentY_ = (y >= Height()) ? Height() - 1 : y;
 778              		.loc 6 173 9 view .LVU158
 779 010a 8A42     		cmp	r2, r1
 780 010c 2DD1     		bne	.L51
 173:../../libdaisy/src/hid/disp/display.h ****         currentY_ = (y >= Height()) ? Height() - 1 : y;
 781              		.loc 6 173 33 is_stmt 0 view .LVU159
 782 010e 8020     		movs	r0, #128
 783              	.L32:
 173:../../libdaisy/src/hid/disp/display.h ****         currentY_ = (y >= Height()) ? Height() - 1 : y;
 784              		.loc 6 173 19 view .LVU160
 785 0110 8442     		cmp	r4, r0
 786 0112 1CD2     		bcs	.L52
 787              	.LVL47:
 788              	.L33:
 174:../../libdaisy/src/hid/disp/display.h ****     }
ARM GAS  /tmp/ccMpf4Yo.s 			page 40


 789              		.loc 6 174 34 view .LVU161
 790 0114 9B68     		ldr	r3, [r3, #8]
 791 0116 204A     		ldr	r2, .L56+4
 173:../../libdaisy/src/hid/disp/display.h ****         currentY_ = (y >= Height()) ? Height() - 1 : y;
 792              		.loc 6 173 19 view .LVU162
 793 0118 A9F80440 		strh	r4, [r9, #4]	@ movhi
 174:../../libdaisy/src/hid/disp/display.h ****     }
 794              		.loc 6 174 9 is_stmt 1 view .LVU163
 795 011c 9342     		cmp	r3, r2
 796 011e 21D1     		bne	.L53
 174:../../libdaisy/src/hid/disp/display.h ****     }
 797              		.loc 6 174 34 is_stmt 0 view .LVU164
 798 0120 4020     		movs	r0, #64
 799              	.L35:
 174:../../libdaisy/src/hid/disp/display.h ****     }
 800              		.loc 6 174 19 view .LVU165
 801 0122 019B     		ldr	r3, [sp, #4]
 802 0124 8342     		cmp	r3, r0
 803 0126 07D3     		bcc	.L36
 174:../../libdaisy/src/hid/disp/display.h ****     }
 804              		.loc 6 174 46 view .LVU166
 805 0128 D9F80030 		ldr	r3, [r9]
 806 012c 1A4A     		ldr	r2, .L56+4
 807 012e 9B68     		ldr	r3, [r3, #8]
 808 0130 9342     		cmp	r3, r2
 809 0132 29D1     		bne	.L54
 810 0134 3F23     		movs	r3, #63
 811 0136 0193     		str	r3, [sp, #4]
 812              	.LVL48:
 813              	.L36:
 174:../../libdaisy/src/hid/disp/display.h ****     }
 814              		.loc 6 174 19 view .LVU167
 815 0138 DDE90003 		ldrd	r0, r3, [sp]
 816 013c A9F80630 		strh	r3, [r9, #6]	@ movhi
 817              	.LVL49:
 174:../../libdaisy/src/hid/disp/display.h ****     }
 818              		.loc 6 174 19 view .LVU168
 819              	.LBE510:
 820              	.LBE514:
 435:../../libdaisy/src/hid/disp/display.h **** 
 436:../../libdaisy/src/hid/disp/display.h ****         // Return written char for validation
 437:../../libdaisy/src/hid/disp/display.h ****         return ch;
 438:../../libdaisy/src/hid/disp/display.h ****     }
 821              		.loc 6 438 5 view .LVU169
 822 0140 05B0     		add	sp, sp, #20
 823              		.cfi_remember_state
 824              		.cfi_def_cfa_offset 36
 825              		@ sp needed
 826 0142 BDE8F08F 		pop	{r4, r5, r6, r7, r8, r9, r10, fp, pc}
 827              	.LVL50:
 828              	.L20:
 829              		.cfi_restore_state
 402:../../libdaisy/src/hid/disp/display.h **** 
 830              		.loc 6 402 20 view .LVU170
 831 0146 0020     		movs	r0, #0
 832              		.loc 6 438 5 view .LVU171
 833 0148 05B0     		add	sp, sp, #20
ARM GAS  /tmp/ccMpf4Yo.s 			page 41


 834              		.cfi_remember_state
 835              		.cfi_def_cfa_offset 36
 836              		@ sp needed
 837 014a BDE8F08F 		pop	{r4, r5, r6, r7, r8, r9, r10, fp, pc}
 838              	.LVL51:
 839              	.L52:
 840              		.cfi_restore_state
 841              	.LBB515:
 842              	.LBB511:
 173:../../libdaisy/src/hid/disp/display.h ****         currentY_ = (y >= Height()) ? Height() - 1 : y;
 843              		.loc 6 173 44 view .LVU172
 844 014e DA68     		ldr	r2, [r3, #12]
 845 0150 1049     		ldr	r1, .L56
 846 0152 8A42     		cmp	r2, r1
 847 0154 11D1     		bne	.L55
 848 0156 7F24     		movs	r4, #127
 849              	.LVL52:
 173:../../libdaisy/src/hid/disp/display.h ****         currentY_ = (y >= Height()) ? Height() - 1 : y;
 850              		.loc 6 173 44 view .LVU173
 851 0158 DCE7     		b	.L33
 852              	.LVL53:
 853              	.L47:
 173:../../libdaisy/src/hid/disp/display.h ****         currentY_ = (y >= Height()) ? Height() - 1 : y;
 854              		.loc 6 173 44 view .LVU174
 855              	.LBE511:
 856              	.LBE515:
 405:../../libdaisy/src/hid/disp/display.h ****            || Height() < (currentY_ + font.FontHeight))
 857              		.loc 6 405 17 view .LVU175
 858 015a 9847     		blx	r3
 859              	.LVL54:
 405:../../libdaisy/src/hid/disp/display.h ****            || Height() < (currentY_ + font.FontHeight))
 860              		.loc 6 405 17 view .LVU176
 861 015c 6BE7     		b	.L19
 862              	.L48:
 406:../../libdaisy/src/hid/disp/display.h ****         {
 863              		.loc 6 406 21 discriminator 2 view .LVU177
 864 015e 4846     		mov	r0, r9
 865 0160 9847     		blx	r3
 866              	.LVL55:
 867 0162 76E7     		b	.L21
 868              	.LVL56:
 869              	.L53:
 870              	.LBB516:
 871              	.LBB512:
 174:../../libdaisy/src/hid/disp/display.h ****     }
 872              		.loc 6 174 33 view .LVU178
 873 0164 4846     		mov	r0, r9
 874 0166 9847     		blx	r3
 875              	.LVL57:
 876 0168 DBE7     		b	.L35
 877              	.LVL58:
 878              	.L51:
 173:../../libdaisy/src/hid/disp/display.h ****         currentY_ = (y >= Height()) ? Height() - 1 : y;
 879              		.loc 6 173 32 view .LVU179
 880 016a 4846     		mov	r0, r9
 881 016c 9047     		blx	r2
 882              	.LVL59:
ARM GAS  /tmp/ccMpf4Yo.s 			page 42


 883 016e D9F80030 		ldr	r3, [r9]
 884 0172 CDE7     		b	.L32
 885              	.LVL60:
 886              	.L22:
 173:../../libdaisy/src/hid/disp/display.h ****         currentY_ = (y >= Height()) ? Height() - 1 : y;
 887              		.loc 6 173 32 view .LVU180
 888 0174 B9F804A0 		ldrh	r10, [r9, #4]
 889 0178 C0E7     		b	.L24
 890              	.LVL61:
 891              	.L55:
 173:../../libdaisy/src/hid/disp/display.h ****         currentY_ = (y >= Height()) ? Height() - 1 : y;
 892              		.loc 6 173 43 view .LVU181
 893 017a 4846     		mov	r0, r9
 894 017c 9047     		blx	r2
 895              	.LVL62:
 896 017e 0138     		subs	r0, r0, #1
 897 0180 D9F80030 		ldr	r3, [r9]
 898 0184 84B2     		uxth	r4, r0
 899              	.LVL63:
 173:../../libdaisy/src/hid/disp/display.h ****         currentY_ = (y >= Height()) ? Height() - 1 : y;
 900              		.loc 6 173 43 view .LVU182
 901 0186 C5E7     		b	.L33
 902              	.L54:
 174:../../libdaisy/src/hid/disp/display.h ****     }
 903              		.loc 6 174 45 view .LVU183
 904 0188 4846     		mov	r0, r9
 905 018a 9847     		blx	r3
 906              	.LVL64:
 907 018c 0138     		subs	r0, r0, #1
 908 018e 83B2     		uxth	r3, r0
 909 0190 0193     		str	r3, [sp, #4]
 910              	.LVL65:
 174:../../libdaisy/src/hid/disp/display.h ****     }
 911              		.loc 6 174 45 view .LVU184
 912 0192 D1E7     		b	.L36
 913              	.L57:
 914              		.align	2
 915              	.L56:
 916 0194 00000000 		.word	_ZNK5daisy11OledDisplayINS_13SSD130xDriverILj128ELj64ENS_24SSD130x4WireSpiTransportEEEE5Widt
 917 0198 00000000 		.word	_ZNK5daisy11OledDisplayINS_13SSD130xDriverILj128ELj64ENS_24SSD130x4WireSpiTransportEEEE6Heig
 918              	.LBE512:
 919              	.LBE516:
 920              		.cfi_endproc
 921              	.LFE4691:
 923              		.section	.text._ZN5daisy25OneBitGraphicsDisplayImplINS_11OledDisplayINS_13SSD130xDriverILj128ELj64
 924              		.align	1
 925              		.p2align 2,,3
 926              		.weak	_ZN5daisy25OneBitGraphicsDisplayImplINS_11OledDisplayINS_13SSD130xDriverILj128ELj64ENS_24SSD
 927              		.syntax unified
 928              		.thumb
 929              		.thumb_func
 930              		.fpu fpv5-d16
 932              	_ZN5daisy25OneBitGraphicsDisplayImplINS_11OledDisplayINS_13SSD130xDriverILj128ELj64ENS_24SSD130x4Wi
 933              	.LVL66:
 934              	.LFB4563:
 439:../../libdaisy/src/hid/disp/display.h **** 
 440:../../libdaisy/src/hid/disp/display.h ****     char WriteString(const char* str, FontDef font, bool on) override
ARM GAS  /tmp/ccMpf4Yo.s 			page 43


 935              		.loc 6 440 10 is_stmt 1 view -0
 936              		.cfi_startproc
 937              		@ args = 4, pretend = 0, frame = 32
 938              		@ frame_needed = 0, uses_anonymous_args = 0
 939              		.loc 6 440 10 is_stmt 0 view .LVU186
 940 0000 2DE9F04F 		push	{r4, r5, r6, r7, r8, r9, r10, fp, lr}
 941              		.cfi_def_cfa_offset 36
 942              		.cfi_offset 4, -36
 943              		.cfi_offset 5, -32
 944              		.cfi_offset 6, -28
 945              		.cfi_offset 7, -24
 946              		.cfi_offset 8, -20
 947              		.cfi_offset 9, -16
 948              		.cfi_offset 10, -12
 949              		.cfi_offset 11, -8
 950              		.cfi_offset 14, -4
 951 0004 89B0     		sub	sp, sp, #36
 952              		.cfi_def_cfa_offset 72
 953              		.loc 6 440 10 view .LVU187
 954 0006 8B46     		mov	fp, r1
 441:../../libdaisy/src/hid/disp/display.h ****     {
 442:../../libdaisy/src/hid/disp/display.h ****         // Write until null-byte
 443:../../libdaisy/src/hid/disp/display.h ****         while(*str)
 955              		.loc 6 443 9 is_stmt 1 view .LVU188
 956 0008 91F80090 		ldrb	r9, [r1]	@ zero_extendqisi2
 440:../../libdaisy/src/hid/disp/display.h ****     {
 957              		.loc 6 440 10 is_stmt 0 view .LVU189
 958 000c 9DF84840 		ldrb	r4, [sp, #72]	@ zero_extendqisi2
 959 0010 08A9     		add	r1, sp, #32
 960              	.LVL67:
 440:../../libdaisy/src/hid/disp/display.h ****     {
 961              		.loc 6 440 10 view .LVU190
 962 0012 0494     		str	r4, [sp, #16]
 963 0014 01E90C00 		stmdb	r1, {r2, r3}
 964              		.loc 6 443 9 view .LVU191
 965 0018 B9F1000F 		cmp	r9, #0
 966 001c 00F0B780 		beq	.L82
 967 0020 9DF81930 		ldrb	r3, [sp, #25]	@ zero_extendqisi2
 968 0024 8046     		mov	r8, r0
 969 0026 9DF818A0 		ldrb	r10, [sp, #24]	@ zero_extendqisi2
 970 002a 4D46     		mov	r5, r9
 971 002c 0193     		str	r3, [sp, #4]
 972 002e 079B     		ldr	r3, [sp, #28]
 973 0030 0593     		str	r3, [sp, #20]
 974              	.LVL68:
 975              	.L83:
 976              	.LBB545:
 977              	.LBI545:
 396:../../libdaisy/src/hid/disp/display.h ****     {
 978              		.loc 6 396 10 is_stmt 1 view .LVU192
 979              	.LBB546:
 401:../../libdaisy/src/hid/disp/display.h ****             return 0;
 980              		.loc 6 401 20 is_stmt 0 view .LVU193
 981 0032 A5F12004 		sub	r4, r5, #32
 401:../../libdaisy/src/hid/disp/display.h ****             return 0;
 982              		.loc 6 401 9 view .LVU194
 983 0036 E3B2     		uxtb	r3, r4
ARM GAS  /tmp/ccMpf4Yo.s 			page 44


 984 0038 5E2B     		cmp	r3, #94
 985 003a 00F2AC80 		bhi	.L64
 405:../../libdaisy/src/hid/disp/display.h ****            || Height() < (currentY_ + font.FontHeight))
 986              		.loc 6 405 17 view .LVU195
 987 003e D8F80030 		ldr	r3, [r8]
 988 0042 654A     		ldr	r2, .L104
 989 0044 DB68     		ldr	r3, [r3, #12]
 990 0046 9342     		cmp	r3, r2
 991 0048 40F0A780 		bne	.L97
 992 004c 8020     		movs	r0, #128
 993              	.L63:
 405:../../libdaisy/src/hid/disp/display.h ****            || Height() < (currentY_ + font.FontHeight))
 994              		.loc 6 405 23 view .LVU196
 995 004e B8F80430 		ldrh	r3, [r8, #4]
 405:../../libdaisy/src/hid/disp/display.h ****            || Height() < (currentY_ + font.FontHeight))
 996              		.loc 6 405 33 view .LVU197
 997 0052 5344     		add	r3, r3, r10
 406:../../libdaisy/src/hid/disp/display.h ****         {
 998              		.loc 6 406 12 view .LVU198
 999 0054 8342     		cmp	r3, r0
 1000 0056 00F39E80 		bgt	.L64
 406:../../libdaisy/src/hid/disp/display.h ****         {
 1001              		.loc 6 406 21 view .LVU199
 1002 005a D8F80030 		ldr	r3, [r8]
 1003 005e 5F4A     		ldr	r2, .L104+4
 1004 0060 9B68     		ldr	r3, [r3, #8]
 1005 0062 9342     		cmp	r3, r2
 1006 0064 40F09C80 		bne	.L98
 1007 0068 4020     		movs	r0, #64
 1008              	.L65:
 406:../../libdaisy/src/hid/disp/display.h ****         {
 1009              		.loc 6 406 27 view .LVU200
 1010 006a B8F80610 		ldrh	r1, [r8, #6]
 406:../../libdaisy/src/hid/disp/display.h ****         {
 1011              		.loc 6 406 37 view .LVU201
 1012 006e 019A     		ldr	r2, [sp, #4]
 406:../../libdaisy/src/hid/disp/display.h ****         {
 1013              		.loc 6 406 27 view .LVU202
 1014 0070 0091     		str	r1, [sp]
 406:../../libdaisy/src/hid/disp/display.h ****         {
 1015              		.loc 6 406 37 view .LVU203
 1016 0072 8B18     		adds	r3, r1, r2
 406:../../libdaisy/src/hid/disp/display.h ****         {
 1017              		.loc 6 406 12 view .LVU204
 1018 0074 8342     		cmp	r3, r0
 1019 0076 00F38E80 		bgt	.L64
 1020              	.LVL69:
 413:../../libdaisy/src/hid/disp/display.h ****         {
 1021              		.loc 6 413 22 is_stmt 1 view .LVU205
 1022 007a 1046     		mov	r0, r2
 1023 007c 002A     		cmp	r2, #0
 1024 007e 00F09A80 		beq	.L66
 415:../../libdaisy/src/hid/disp/display.h ****             for(j = 0; j < font.FontWidth; j++)
 1025              		.loc 6 415 37 is_stmt 0 view .LVU206
 1026 0082 1346     		mov	r3, r2
 1027 0084 6FF00046 		mvn	r6, #-2147483648
 1028 0088 B8F80470 		ldrh	r7, [r8, #4]
ARM GAS  /tmp/ccMpf4Yo.s 			page 45


 1029 008c 03FB04F3 		mul	r3, r3, r4
 1030 0090 059C     		ldr	r4, [sp, #20]
 1031 0092 BE46     		mov	lr, r7
 1032 0094 CDF80CB0 		str	fp, [sp, #12]
 1033 0098 1E44     		add	r6, r6, r3
 1034 009a A21E     		subs	r2, r4, #2
 1035 009c 0344     		add	r3, r3, r0
 1036 009e 5746     		mov	r7, r10
 1037 00a0 04EB4606 		add	r6, r4, r6, lsl #1
 1038 00a4 DDF81090 		ldr	r9, [sp, #16]
 1039 00a8 02EB4303 		add	r3, r2, r3, lsl #1
 1040 00ac 0295     		str	r5, [sp, #8]
 1041 00ae 9B46     		mov	fp, r3
 1042              	.LVL70:
 1043              	.L69:
 415:../../libdaisy/src/hid/disp/display.h ****             for(j = 0; j < font.FontWidth; j++)
 1044              		.loc 6 415 13 view .LVU207
 1045 00b0 36F802AF 		ldrh	r10, [r6, #2]!
 1046              	.LVL71:
 416:../../libdaisy/src/hid/disp/display.h ****             {
 1047              		.loc 6 416 26 is_stmt 1 view .LVU208
 1048 00b4 A7B3     		cbz	r7, .L74
 1049              	.LBB547:
 1050              	.LBB548:
 1051              	.LBB549:
 1052              	.LBB550:
 1053              	.LBB551:
 246:../../libdaisy/src/dev/oled_ssd130x.h ****     }
 1054              		.loc 13 246 49 is_stmt 0 view .LVU209
 1055 00b6 0124     		movs	r4, #1
 246:../../libdaisy/src/dev/oled_ssd130x.h ****     }
 1056              		.loc 13 246 55 view .LVU210
 1057 00b8 01F00702 		and	r2, r1, #7
 246:../../libdaisy/src/dev/oled_ssd130x.h ****     }
 1058              		.loc 13 246 28 view .LVU211
 1059 00bc C808     		lsrs	r0, r1, #3
 1060 00be 0EF11403 		add	r3, lr, #20
 246:../../libdaisy/src/dev/oled_ssd130x.h ****     }
 1061              		.loc 13 246 49 view .LVU212
 1062 00c2 04FA02F2 		lsl	r2, r4, r2
 1063 00c6 7446     		mov	r4, lr
 1064 00c8 03EBC013 		add	r3, r3, r0, lsl #7
 1065              	.LBE551:
 1066              	.LBE550:
 1067              	.LBE549:
 1068              	.LBE548:
 1069              	.LBE547:
 416:../../libdaisy/src/hid/disp/display.h ****             {
 1070              		.loc 6 416 19 view .LVU213
 1071 00cc 0020     		movs	r0, #0
 1072              	.LBB569:
 1073              	.LBB564:
 1074              	.LBB559:
 1075              	.LBB555:
 1076              	.LBB552:
 246:../../libdaisy/src/dev/oled_ssd130x.h ****     }
 1077              		.loc 13 246 42 view .LVU214
ARM GAS  /tmp/ccMpf4Yo.s 			page 46


 1078 00ce 52B2     		sxtb	r2, r2
 1079 00d0 4344     		add	r3, r3, r8
 1080 00d2 6FEA020C 		mvn	ip, r2
 1081 00d6 0EE0     		b	.L75
 1082              	.LVL72:
 1083              	.L99:
 246:../../libdaisy/src/dev/oled_ssd130x.h ****     }
 1084              		.loc 13 246 42 view .LVU215
 1085              	.LBE552:
 1086              	.LBE555:
 1087              	.LBE559:
 1088              	.LBE564:
 1089              	.LBE569:
 1090              	.LBB570:
 1091              	.LBI570:
  41:../../libdaisy/src/hid/disp/oled_display.h ****     {
 1092              		.loc 5 41 10 is_stmt 1 view .LVU216
 1093              	.LBB571:
 1094              	.LBI571:
 239:../../libdaisy/src/dev/oled_ssd130x.h ****     {
 1095              		.loc 13 239 10 view .LVU217
 1096              	.LBB572:
 241:../../libdaisy/src/dev/oled_ssd130x.h ****             return;
 1097              		.loc 13 241 9 is_stmt 0 view .LVU218
 1098 00d8 7F2C     		cmp	r4, #127
 1099 00da 07D8     		bhi	.L71
 1100 00dc 3F29     		cmp	r1, #63
 1101 00de 05D8     		bhi	.L71
 244:../../libdaisy/src/dev/oled_ssd130x.h ****         else
 1102              		.loc 13 244 42 view .LVU219
 1103 00e0 1D78     		ldrb	r5, [r3]	@ zero_extendqisi2
 243:../../libdaisy/src/dev/oled_ssd130x.h ****             buffer_[x + (y / 8) * width] |= (1 << (y % 8));
 1104              		.loc 13 243 9 view .LVU220
 1105 00e2 B9F1000F 		cmp	r9, #0
 1106 00e6 12D0     		beq	.L73
 1107              	.L96:
 243:../../libdaisy/src/dev/oled_ssd130x.h ****             buffer_[x + (y / 8) * width] |= (1 << (y % 8));
 1108              		.loc 13 243 9 view .LVU221
 1109              	.LBE572:
 1110              	.LBE571:
 1111              	.LBE570:
 1112              	.LBB573:
 1113              	.LBB565:
 1114              	.LBB560:
 244:../../libdaisy/src/dev/oled_ssd130x.h ****         else
 1115              		.loc 13 244 42 view .LVU222
 1116 00e8 1543     		orrs	r5, r5, r2
 244:../../libdaisy/src/dev/oled_ssd130x.h ****         else
 1117              		.loc 13 244 13 view .LVU223
 1118 00ea 1D70     		strb	r5, [r3]
 1119              	.L71:
 1120              	.LBE560:
 1121              	.LBE565:
 1122              	.LBE573:
 416:../../libdaisy/src/hid/disp/display.h ****             {
 1123              		.loc 6 416 13 is_stmt 1 view .LVU224
 1124 00ec 0130     		adds	r0, r0, #1
ARM GAS  /tmp/ccMpf4Yo.s 			page 47


 1125              	.LVL73:
 416:../../libdaisy/src/hid/disp/display.h ****             {
 1126              		.loc 6 416 26 view .LVU225
 1127 00ee 0133     		adds	r3, r3, #1
 1128 00f0 0134     		adds	r4, r4, #1
 1129 00f2 B842     		cmp	r0, r7
 1130 00f4 14D0     		beq	.L74
 1131              	.LVL74:
 1132              	.L75:
 418:../../libdaisy/src/hid/disp/display.h ****                 {
 1133              		.loc 6 418 23 is_stmt 0 view .LVU226
 1134 00f6 0AFA00F5 		lsl	r5, r10, r0
 418:../../libdaisy/src/hid/disp/display.h ****                 {
 1135              		.loc 6 418 17 view .LVU227
 1136 00fa 2D04     		lsls	r5, r5, #16
 1137 00fc ECD4     		bmi	.L99
 1138              	.LVL75:
 1139              	.LBB574:
 1140              	.LBI547:
  41:../../libdaisy/src/hid/disp/oled_display.h ****     {
 1141              		.loc 5 41 10 is_stmt 1 view .LVU228
 1142              	.LBB566:
 1143              	.LBI548:
 239:../../libdaisy/src/dev/oled_ssd130x.h ****     {
 1144              		.loc 13 239 10 view .LVU229
 1145              	.LBB561:
 241:../../libdaisy/src/dev/oled_ssd130x.h ****             return;
 1146              		.loc 13 241 9 is_stmt 0 view .LVU230
 1147 00fe 7F2C     		cmp	r4, #127
 1148 0100 F4D8     		bhi	.L71
 1149 0102 3F29     		cmp	r1, #63
 1150 0104 F2D8     		bhi	.L71
 244:../../libdaisy/src/dev/oled_ssd130x.h ****         else
 1151              		.loc 13 244 42 view .LVU231
 1152 0106 1D78     		ldrb	r5, [r3]	@ zero_extendqisi2
 243:../../libdaisy/src/dev/oled_ssd130x.h ****             buffer_[x + (y / 8) * width] |= (1 << (y % 8));
 1153              		.loc 13 243 9 view .LVU232
 1154 0108 B9F1000F 		cmp	r9, #0
 1155 010c ECD0     		beq	.L96
 1156              	.L73:
 1157              	.LVL76:
 1158              	.LBB556:
 1159              	.LBI550:
 239:../../libdaisy/src/dev/oled_ssd130x.h ****     {
 1160              		.loc 13 239 10 is_stmt 1 view .LVU233
 239:../../libdaisy/src/dev/oled_ssd130x.h ****     {
 1161              		.loc 13 239 10 is_stmt 0 view .LVU234
 1162              	.LBE556:
 1163              	.LBE561:
 1164              	.LBE566:
 1165              	.LBE574:
 416:../../libdaisy/src/hid/disp/display.h ****             {
 1166              		.loc 6 416 13 view .LVU235
 1167 010e 0130     		adds	r0, r0, #1
 1168              	.LVL77:
 1169              	.LBB575:
 1170              	.LBB567:
ARM GAS  /tmp/ccMpf4Yo.s 			page 48


 1171              	.LBB562:
 1172              	.LBB557:
 1173              	.LBB553:
 246:../../libdaisy/src/dev/oled_ssd130x.h ****     }
 1174              		.loc 13 246 42 view .LVU236
 1175 0110 0CEA0505 		and	r5, ip, r5
 1176 0114 0133     		adds	r3, r3, #1
 1177 0116 0134     		adds	r4, r4, #1
 1178              	.LBE553:
 1179              	.LBE557:
 1180              	.LBE562:
 1181              	.LBE567:
 1182              	.LBE575:
 416:../../libdaisy/src/hid/disp/display.h ****             {
 1183              		.loc 6 416 26 view .LVU237
 1184 0118 B842     		cmp	r0, r7
 1185              	.LBB576:
 1186              	.LBB568:
 1187              	.LBB563:
 1188              	.LBB558:
 1189              	.LBB554:
 246:../../libdaisy/src/dev/oled_ssd130x.h ****     }
 1190              		.loc 13 246 13 view .LVU238
 1191 011a 03F8015C 		strb	r5, [r3, #-1]
 246:../../libdaisy/src/dev/oled_ssd130x.h ****     }
 1192              		.loc 13 246 13 view .LVU239
 1193              	.LBE554:
 1194              	.LBE558:
 1195              	.LBE563:
 1196              	.LBE568:
 1197              	.LBE576:
 416:../../libdaisy/src/hid/disp/display.h ****             {
 1198              		.loc 6 416 13 is_stmt 1 view .LVU240
 1199              	.LVL78:
 416:../../libdaisy/src/hid/disp/display.h ****             {
 1200              		.loc 6 416 26 view .LVU241
 1201 011e EAD1     		bne	.L75
 1202              	.LVL79:
 1203              	.L74:
 413:../../libdaisy/src/hid/disp/display.h ****         {
 1204              		.loc 6 413 9 view .LVU242
 413:../../libdaisy/src/hid/disp/display.h ****         {
 1205              		.loc 6 413 22 view .LVU243
 1206 0120 5E45     		cmp	r6, fp
 1207 0122 01F10101 		add	r1, r1, #1
 1208 0126 C3D1     		bne	.L69
 1209 0128 BA46     		mov	r10, r7
 1210              	.LVL80:
 413:../../libdaisy/src/hid/disp/display.h ****         {
 1211              		.loc 6 413 22 is_stmt 0 view .LVU244
 1212 012a 029D     		ldr	r5, [sp, #8]
 1213 012c 7746     		mov	r7, lr
 1214 012e DDF80CB0 		ldr	fp, [sp, #12]
 1215              	.L68:
 1216              	.LBB577:
 1217              	.LBB578:
 173:../../libdaisy/src/hid/disp/display.h ****         currentY_ = (y >= Height()) ? Height() - 1 : y;
ARM GAS  /tmp/ccMpf4Yo.s 			page 49


 1218              		.loc 6 173 33 view .LVU245
 1219 0132 D8F80020 		ldr	r2, [r8]
 1220              	.LBE578:
 1221              	.LBE577:
 434:../../libdaisy/src/hid/disp/display.h **** 
 1222              		.loc 6 434 18 view .LVU246
 1223 0136 5744     		add	r7, r7, r10
 1224 0138 2749     		ldr	r1, .L104
 1225              	.LBB582:
 1226              	.LBB579:
 173:../../libdaisy/src/hid/disp/display.h ****         currentY_ = (y >= Height()) ? Height() - 1 : y;
 1227              		.loc 6 173 33 view .LVU247
 1228 013a D368     		ldr	r3, [r2, #12]
 1229              	.LBE579:
 1230              	.LBE582:
 434:../../libdaisy/src/hid/disp/display.h **** 
 1231              		.loc 6 434 18 view .LVU248
 1232 013c BFB2     		uxth	r7, r7
 1233              	.LVL81:
 1234              	.LBB583:
 1235              	.LBI577:
 171:../../libdaisy/src/hid/disp/display.h ****     {
 1236              		.loc 6 171 10 is_stmt 1 view .LVU249
 1237              	.LBB580:
 173:../../libdaisy/src/hid/disp/display.h ****         currentY_ = (y >= Height()) ? Height() - 1 : y;
 1238              		.loc 6 173 9 view .LVU250
 1239 013e 8B42     		cmp	r3, r1
 1240 0140 34D1     		bne	.L100
 173:../../libdaisy/src/hid/disp/display.h ****         currentY_ = (y >= Height()) ? Height() - 1 : y;
 1241              		.loc 6 173 33 is_stmt 0 view .LVU251
 1242 0142 8020     		movs	r0, #128
 1243              	.L76:
 173:../../libdaisy/src/hid/disp/display.h ****         currentY_ = (y >= Height()) ? Height() - 1 : y;
 1244              		.loc 6 173 19 view .LVU252
 1245 0144 8742     		cmp	r7, r0
 1246 0146 04D3     		bcc	.L77
 173:../../libdaisy/src/hid/disp/display.h ****         currentY_ = (y >= Height()) ? Height() - 1 : y;
 1247              		.loc 6 173 44 view .LVU253
 1248 0148 D368     		ldr	r3, [r2, #12]
 1249 014a 2349     		ldr	r1, .L104
 1250 014c 8B42     		cmp	r3, r1
 1251 014e 3BD1     		bne	.L101
 1252 0150 7F27     		movs	r7, #127
 1253              	.LVL82:
 1254              	.L77:
 174:../../libdaisy/src/hid/disp/display.h ****     }
 1255              		.loc 6 174 34 view .LVU254
 1256 0152 9368     		ldr	r3, [r2, #8]
 1257 0154 214A     		ldr	r2, .L104+4
 173:../../libdaisy/src/hid/disp/display.h ****         currentY_ = (y >= Height()) ? Height() - 1 : y;
 1258              		.loc 6 173 19 view .LVU255
 1259 0156 A8F80470 		strh	r7, [r8, #4]	@ movhi
 174:../../libdaisy/src/hid/disp/display.h ****     }
 1260              		.loc 6 174 9 is_stmt 1 view .LVU256
 1261 015a 9342     		cmp	r3, r2
 1262 015c 23D1     		bne	.L102
 174:../../libdaisy/src/hid/disp/display.h ****     }
ARM GAS  /tmp/ccMpf4Yo.s 			page 50


 1263              		.loc 6 174 34 is_stmt 0 view .LVU257
 1264 015e 4020     		movs	r0, #64
 1265              	.L79:
 174:../../libdaisy/src/hid/disp/display.h ****     }
 1266              		.loc 6 174 19 view .LVU258
 1267 0160 009B     		ldr	r3, [sp]
 1268 0162 8342     		cmp	r3, r0
 1269 0164 07D3     		bcc	.L80
 174:../../libdaisy/src/hid/disp/display.h ****     }
 1270              		.loc 6 174 46 view .LVU259
 1271 0166 D8F80030 		ldr	r3, [r8]
 1272 016a 1C4A     		ldr	r2, .L104+4
 1273 016c 9B68     		ldr	r3, [r3, #8]
 1274 016e 9342     		cmp	r3, r2
 1275 0170 24D1     		bne	.L103
 1276 0172 3F23     		movs	r3, #63
 1277 0174 0093     		str	r3, [sp]
 1278              	.LVL83:
 1279              	.L80:
 174:../../libdaisy/src/hid/disp/display.h ****     }
 1280              		.loc 6 174 19 view .LVU260
 1281 0176 009B     		ldr	r3, [sp]
 1282 0178 A8F80630 		strh	r3, [r8, #6]	@ movhi
 1283              	.LVL84:
 1284              	.L62:
 174:../../libdaisy/src/hid/disp/display.h ****     }
 1285              		.loc 6 174 19 view .LVU261
 1286              	.LBE580:
 1287              	.LBE583:
 1288              	.LBE546:
 1289              	.LBE545:
 444:../../libdaisy/src/hid/disp/display.h ****         {
 445:../../libdaisy/src/hid/disp/display.h ****             if(((ChildType*)(this))->ChildType::WriteChar(*str, font, on)
 446:../../libdaisy/src/hid/disp/display.h ****                != *str)
 1290              		.loc 6 446 16 view .LVU262
 1291 017c 9BF80000 		ldrb	r0, [fp]	@ zero_extendqisi2
 445:../../libdaisy/src/hid/disp/display.h ****                != *str)
 1292              		.loc 6 445 13 view .LVU263
 1293 0180 A842     		cmp	r0, r5
 1294 0182 05D1     		bne	.L60
 1295              	.LVL85:
 443:../../libdaisy/src/hid/disp/display.h ****         {
 1296              		.loc 6 443 9 is_stmt 1 view .LVU264
 1297 0184 1BF8015F 		ldrb	r5, [fp, #1]!	@ zero_extendqisi2
 1298              	.LVL86:
 443:../../libdaisy/src/hid/disp/display.h ****         {
 1299              		.loc 6 443 9 is_stmt 0 view .LVU265
 1300 0188 002D     		cmp	r5, #0
 1301 018a 7FF452AF 		bne	.L83
 1302              	.LVL87:
 1303              	.L82:
 1304              	.LBB587:
 1305              	.LBB585:
 402:../../libdaisy/src/hid/disp/display.h **** 
 1306              		.loc 6 402 20 view .LVU266
 1307 018e 0020     		movs	r0, #0
 1308              	.LVL88:
ARM GAS  /tmp/ccMpf4Yo.s 			page 51


 1309              	.L60:
 402:../../libdaisy/src/hid/disp/display.h **** 
 1310              		.loc 6 402 20 view .LVU267
 1311              	.LBE585:
 1312              	.LBE587:
 447:../../libdaisy/src/hid/disp/display.h ****             {
 448:../../libdaisy/src/hid/disp/display.h ****                 // Char could not be written
 449:../../libdaisy/src/hid/disp/display.h ****                 return *str;
 450:../../libdaisy/src/hid/disp/display.h ****             }
 451:../../libdaisy/src/hid/disp/display.h **** 
 452:../../libdaisy/src/hid/disp/display.h ****             // Next char
 453:../../libdaisy/src/hid/disp/display.h ****             str++;
 454:../../libdaisy/src/hid/disp/display.h ****         }
 455:../../libdaisy/src/hid/disp/display.h **** 
 456:../../libdaisy/src/hid/disp/display.h ****         // Everything ok
 457:../../libdaisy/src/hid/disp/display.h ****         return *str;
 458:../../libdaisy/src/hid/disp/display.h ****     }
 1313              		.loc 6 458 5 view .LVU268
 1314 0190 09B0     		add	sp, sp, #36
 1315              		.cfi_remember_state
 1316              		.cfi_def_cfa_offset 36
 1317              		@ sp needed
 1318 0192 BDE8F08F 		pop	{r4, r5, r6, r7, r8, r9, r10, fp, pc}
 1319              	.LVL89:
 1320              	.L64:
 1321              		.cfi_restore_state
 1322              	.LBB588:
 1323              	.LBB586:
 402:../../libdaisy/src/hid/disp/display.h **** 
 1324              		.loc 6 402 20 view .LVU269
 1325 0196 0025     		movs	r5, #0
 1326              	.LVL90:
 402:../../libdaisy/src/hid/disp/display.h **** 
 1327              		.loc 6 402 20 view .LVU270
 1328 0198 F0E7     		b	.L62
 1329              	.LVL91:
 1330              	.L97:
 405:../../libdaisy/src/hid/disp/display.h ****            || Height() < (currentY_ + font.FontHeight))
 1331              		.loc 6 405 17 view .LVU271
 1332 019a 4046     		mov	r0, r8
 1333 019c 9847     		blx	r3
 1334              	.LVL92:
 1335 019e 56E7     		b	.L63
 1336              	.L98:
 406:../../libdaisy/src/hid/disp/display.h ****         {
 1337              		.loc 6 406 21 view .LVU272
 1338 01a0 4046     		mov	r0, r8
 1339 01a2 9847     		blx	r3
 1340              	.LVL93:
 1341 01a4 61E7     		b	.L65
 1342              	.LVL94:
 1343              	.L102:
 1344              	.LBB584:
 1345              	.LBB581:
 174:../../libdaisy/src/hid/disp/display.h ****     }
 1346              		.loc 6 174 33 view .LVU273
 1347 01a6 4046     		mov	r0, r8
ARM GAS  /tmp/ccMpf4Yo.s 			page 52


 1348 01a8 9847     		blx	r3
 1349              	.LVL95:
 1350 01aa D9E7     		b	.L79
 1351              	.LVL96:
 1352              	.L100:
 173:../../libdaisy/src/hid/disp/display.h ****         currentY_ = (y >= Height()) ? Height() - 1 : y;
 1353              		.loc 6 173 32 view .LVU274
 1354 01ac 4046     		mov	r0, r8
 1355 01ae 9847     		blx	r3
 1356              	.LVL97:
 1357 01b0 D8F80020 		ldr	r2, [r8]
 1358 01b4 C6E7     		b	.L76
 1359              	.LVL98:
 1360              	.L66:
 173:../../libdaisy/src/hid/disp/display.h ****         currentY_ = (y >= Height()) ? Height() - 1 : y;
 1361              		.loc 6 173 32 view .LVU275
 1362 01b6 B8F80470 		ldrh	r7, [r8, #4]
 1363 01ba BAE7     		b	.L68
 1364              	.LVL99:
 1365              	.L103:
 174:../../libdaisy/src/hid/disp/display.h ****     }
 1366              		.loc 6 174 45 view .LVU276
 1367 01bc 4046     		mov	r0, r8
 1368 01be 9847     		blx	r3
 1369              	.LVL100:
 1370 01c0 0138     		subs	r0, r0, #1
 1371 01c2 83B2     		uxth	r3, r0
 1372 01c4 0093     		str	r3, [sp]
 1373              	.LVL101:
 174:../../libdaisy/src/hid/disp/display.h ****     }
 1374              		.loc 6 174 45 view .LVU277
 1375 01c6 D6E7     		b	.L80
 1376              	.LVL102:
 1377              	.L101:
 173:../../libdaisy/src/hid/disp/display.h ****         currentY_ = (y >= Height()) ? Height() - 1 : y;
 1378              		.loc 6 173 43 view .LVU278
 1379 01c8 4046     		mov	r0, r8
 1380 01ca 9847     		blx	r3
 1381              	.LVL103:
 1382 01cc 0138     		subs	r0, r0, #1
 1383 01ce D8F80020 		ldr	r2, [r8]
 1384 01d2 87B2     		uxth	r7, r0
 1385              	.LVL104:
 173:../../libdaisy/src/hid/disp/display.h ****         currentY_ = (y >= Height()) ? Height() - 1 : y;
 1386              		.loc 6 173 43 view .LVU279
 1387 01d4 BDE7     		b	.L77
 1388              	.L105:
 1389 01d6 00BF     		.align	2
 1390              	.L104:
 1391 01d8 00000000 		.word	_ZNK5daisy11OledDisplayINS_13SSD130xDriverILj128ELj64ENS_24SSD130x4WireSpiTransportEEEE5Widt
 1392 01dc 00000000 		.word	_ZNK5daisy11OledDisplayINS_13SSD130xDriverILj128ELj64ENS_24SSD130x4WireSpiTransportEEEE6Heig
 1393              	.LBE581:
 1394              	.LBE584:
 1395              	.LBE586:
 1396              	.LBE588:
 1397              		.cfi_endproc
 1398              	.LFE4563:
ARM GAS  /tmp/ccMpf4Yo.s 			page 53


 1400              		.section	.text._ZN5daisy11OledDisplayINS_13SSD130xDriverILj128ELj64ENS_24SSD130x4WireSpiTransportE
 1401              		.align	1
 1402              		.p2align 2,,3
 1403              		.weak	_ZN5daisy11OledDisplayINS_13SSD130xDriverILj128ELj64ENS_24SSD130x4WireSpiTransportEEEE9DrawP
 1404              		.syntax unified
 1405              		.thumb
 1406              		.thumb_func
 1407              		.fpu fpv5-d16
 1409              	_ZN5daisy11OledDisplayINS_13SSD130xDriverILj128ELj64ENS_24SSD130x4WireSpiTransportEEEE9DrawPixelEjj
 1410              	.LVL105:
 1411              	.LFB4729:
  41:../../libdaisy/src/hid/disp/oled_display.h ****     {
 1412              		.loc 5 41 10 is_stmt 1 view -0
 1413              		.cfi_startproc
 1414              		@ args = 0, pretend = 0, frame = 0
 1415              		@ frame_needed = 0, uses_anonymous_args = 0
 1416              		@ link register save eliminated.
 1417              	.LBB593:
 1418              	.LBI593:
 239:../../libdaisy/src/dev/oled_ssd130x.h ****     {
 1419              		.loc 13 239 10 view .LVU281
 1420              	.LBB594:
 241:../../libdaisy/src/dev/oled_ssd130x.h ****             return;
 1421              		.loc 13 241 9 is_stmt 0 view .LVU282
 1422 0000 7F29     		cmp	r1, #127
 1423 0002 21D8     		bhi	.L110
 1424 0004 3F2A     		cmp	r2, #63
 1425 0006 1FD8     		bhi	.L110
 1426              	.LBE594:
 1427              	.LBE593:
  41:../../libdaisy/src/hid/disp/oled_display.h ****     {
 1428              		.loc 5 41 10 view .LVU283
 1429 0008 10B4     		push	{r4}
 1430              		.cfi_def_cfa_offset 4
 1431              		.cfi_offset 4, -4
 1432              	.LBB599:
 1433              	.LBB597:
 243:../../libdaisy/src/dev/oled_ssd130x.h ****             buffer_[x + (y / 8) * width] |= (1 << (y % 8));
 1434              		.loc 13 243 9 view .LVU284
 1435 000a 73B9     		cbnz	r3, .L113
 1436              	.LVL106:
 1437              	.LBB595:
 1438              	.LBI595:
 239:../../libdaisy/src/dev/oled_ssd130x.h ****     {
 1439              		.loc 13 239 10 is_stmt 1 view .LVU285
 1440              	.LBB596:
 246:../../libdaisy/src/dev/oled_ssd130x.h ****     }
 1441              		.loc 13 246 28 is_stmt 0 view .LVU286
 1442 000c D308     		lsrs	r3, r2, #3
 1443              	.LVL107:
 246:../../libdaisy/src/dev/oled_ssd130x.h ****     }
 1444              		.loc 13 246 49 view .LVU287
 1445 000e 0124     		movs	r4, #1
 246:../../libdaisy/src/dev/oled_ssd130x.h ****     }
 1446              		.loc 13 246 55 view .LVU288
 1447 0010 02F00702 		and	r2, r2, #7
 1448              	.LVL108:
ARM GAS  /tmp/ccMpf4Yo.s 			page 54


 246:../../libdaisy/src/dev/oled_ssd130x.h ****     }
 1449              		.loc 13 246 42 view .LVU289
 1450 0014 01EBC313 		add	r3, r1, r3, lsl #7
 246:../../libdaisy/src/dev/oled_ssd130x.h ****     }
 1451              		.loc 13 246 49 view .LVU290
 1452 0018 9440     		lsls	r4, r4, r2
 246:../../libdaisy/src/dev/oled_ssd130x.h ****     }
 1453              		.loc 13 246 13 view .LVU291
 1454 001a C118     		adds	r1, r0, r3
 1455              	.LVL109:
 246:../../libdaisy/src/dev/oled_ssd130x.h ****     }
 1456              		.loc 13 246 42 view .LVU292
 1457 001c 0A7D     		ldrb	r2, [r1, #20]	@ zero_extendqisi2
 1458 001e 22EA0402 		bic	r2, r2, r4
 246:../../libdaisy/src/dev/oled_ssd130x.h ****     }
 1459              		.loc 13 246 13 view .LVU293
 1460 0022 0A75     		strb	r2, [r1, #20]
 1461              	.LVL110:
 246:../../libdaisy/src/dev/oled_ssd130x.h ****     }
 1462              		.loc 13 246 13 view .LVU294
 1463              	.LBE596:
 1464              	.LBE595:
 1465              	.LBE597:
 1466              	.LBE599:
  44:../../libdaisy/src/hid/disp/oled_display.h **** 
 1467              		.loc 5 44 5 view .LVU295
 1468 0024 5DF8044B 		ldr	r4, [sp], #4
 1469              		.cfi_remember_state
 1470              		.cfi_restore 4
 1471              		.cfi_def_cfa_offset 0
 1472 0028 7047     		bx	lr
 1473              	.LVL111:
 1474              	.L113:
 1475              		.cfi_restore_state
 1476              	.LBB600:
 1477              	.LBB598:
 244:../../libdaisy/src/dev/oled_ssd130x.h ****         else
 1478              		.loc 13 244 28 view .LVU296
 1479 002a D408     		lsrs	r4, r2, #3
 244:../../libdaisy/src/dev/oled_ssd130x.h ****         else
 1480              		.loc 13 244 48 view .LVU297
 1481 002c 0123     		movs	r3, #1
 1482              	.LVL112:
 244:../../libdaisy/src/dev/oled_ssd130x.h ****         else
 1483              		.loc 13 244 54 view .LVU298
 1484 002e 02F00702 		and	r2, r2, #7
 1485              	.LVL113:
 244:../../libdaisy/src/dev/oled_ssd130x.h ****         else
 1486              		.loc 13 244 42 view .LVU299
 1487 0032 01EBC414 		add	r4, r1, r4, lsl #7
 244:../../libdaisy/src/dev/oled_ssd130x.h ****         else
 1488              		.loc 13 244 48 view .LVU300
 1489 0036 03FA02F2 		lsl	r2, r3, r2
 244:../../libdaisy/src/dev/oled_ssd130x.h ****         else
 1490              		.loc 13 244 13 view .LVU301
 1491 003a 0119     		adds	r1, r0, r4
 1492              	.LVL114:
ARM GAS  /tmp/ccMpf4Yo.s 			page 55


 244:../../libdaisy/src/dev/oled_ssd130x.h ****         else
 1493              		.loc 13 244 42 view .LVU302
 1494 003c 0B7D     		ldrb	r3, [r1, #20]	@ zero_extendqisi2
 1495 003e 1A43     		orrs	r2, r2, r3
 244:../../libdaisy/src/dev/oled_ssd130x.h ****         else
 1496              		.loc 13 244 13 view .LVU303
 1497 0040 0A75     		strb	r2, [r1, #20]
 1498              	.LBE598:
 1499              	.LBE600:
  44:../../libdaisy/src/hid/disp/oled_display.h **** 
 1500              		.loc 5 44 5 view .LVU304
 1501 0042 5DF8044B 		ldr	r4, [sp], #4
 1502              		.cfi_restore 4
 1503              		.cfi_def_cfa_offset 0
 1504 0046 7047     		bx	lr
 1505              	.LVL115:
 1506              	.L110:
  44:../../libdaisy/src/hid/disp/oled_display.h **** 
 1507              		.loc 5 44 5 view .LVU305
 1508 0048 7047     		bx	lr
 1509              		.cfi_endproc
 1510              	.LFE4729:
 1512 004a 00BF     		.section	.text._ZN5daisy25OneBitGraphicsDisplayImplINS_11OledDisplayINS_13SSD130xDriverILj128ELj64
 1513              		.align	1
 1514              		.p2align 2,,3
 1515              		.weak	_ZN5daisy25OneBitGraphicsDisplayImplINS_11OledDisplayINS_13SSD130xDriverILj128ELj64ENS_24SSD
 1516              		.syntax unified
 1517              		.thumb
 1518              		.thumb_func
 1519              		.fpu fpv5-d16
 1521              	_ZN5daisy25OneBitGraphicsDisplayImplINS_11OledDisplayINS_13SSD130xDriverILj128ELj64ENS_24SSD130x4Wi
 1522              	.LVL116:
 1523              	.LFB4835:
 459:../../libdaisy/src/hid/disp/display.h **** 
 460:../../libdaisy/src/hid/disp/display.h ****     Rectangle WriteStringAligned(const char*    str,
 1524              		.loc 6 460 15 is_stmt 1 view -0
 1525              		.cfi_startproc
 1526              		@ args = 12, pretend = 0, frame = 40
 1527              		@ frame_needed = 0, uses_anonymous_args = 0
 1528              		.loc 6 460 15 is_stmt 0 view .LVU307
 1529 0000 2DE9F04F 		push	{r4, r5, r6, r7, r8, r9, r10, fp, lr}
 1530              		.cfi_def_cfa_offset 36
 1531              		.cfi_offset 4, -36
 1532              		.cfi_offset 5, -32
 1533              		.cfi_offset 6, -28
 1534              		.cfi_offset 7, -24
 1535              		.cfi_offset 8, -20
 1536              		.cfi_offset 9, -16
 1537              		.cfi_offset 10, -12
 1538              		.cfi_offset 11, -8
 1539              		.cfi_offset 14, -4
 1540 0004 0C46     		mov	r4, r1
 1541 0006 8BB0     		sub	sp, sp, #44
 1542              		.cfi_def_cfa_offset 80
 1543              	.LBB735:
 1544              	.LBB736:
 1545              	.LBB737:
ARM GAS  /tmp/ccMpf4Yo.s 			page 56


 1546              	.LBB738:
 461:../../libdaisy/src/hid/disp/display.h ****                                  const FontDef& font,
 462:../../libdaisy/src/hid/disp/display.h ****                                  Rectangle      boundingBox,
 463:../../libdaisy/src/hid/disp/display.h ****                                  Alignment      alignment,
 464:../../libdaisy/src/hid/disp/display.h ****                                  bool           on) override
 465:../../libdaisy/src/hid/disp/display.h ****     {
 466:../../libdaisy/src/hid/disp/display.h ****         const auto alignedRect
 467:../../libdaisy/src/hid/disp/display.h ****             = GetTextRect(str, font).AlignedWithin(boundingBox, alignment);
 468:../../libdaisy/src/hid/disp/display.h ****         SetCursor(alignedRect.GetX(), alignedRect.GetY());
 469:../../libdaisy/src/hid/disp/display.h ****         ((ChildType*)(this))->ChildType::WriteString(str, font, on);
 470:../../libdaisy/src/hid/disp/display.h ****         return alignedRect;
 471:../../libdaisy/src/hid/disp/display.h ****     }
 472:../../libdaisy/src/hid/disp/display.h **** 
 473:../../libdaisy/src/hid/disp/display.h ****   private:
 474:../../libdaisy/src/hid/disp/display.h ****     uint32_t strlen(const char* string)
 475:../../libdaisy/src/hid/disp/display.h ****     {
 476:../../libdaisy/src/hid/disp/display.h ****         uint32_t result = 0;
 477:../../libdaisy/src/hid/disp/display.h ****         while(*string++ != '\0')
 1547              		.loc 6 477 25 view .LVU308
 1548 0008 1146     		mov	r1, r2
 1549              	.LVL117:
 1550              		.loc 6 477 25 view .LVU309
 1551              	.LBE738:
 1552              	.LBE737:
 1553              	.LBE736:
 1554              	.LBE735:
 460:../../libdaisy/src/hid/disp/display.h ****                                  const FontDef& font,
 1555              		.loc 6 460 15 view .LVU310
 1556 000a 9046     		mov	r8, r2
 1557 000c 0990     		str	r0, [sp, #36]
 1558 000e 1D46     		mov	r5, r3
 1559              	.LVL118:
 1560              	.LBB753:
 1561              	.LBI735:
 478:../../libdaisy/src/hid/disp/display.h ****             result++;
 479:../../libdaisy/src/hid/disp/display.h ****         return result;
 480:../../libdaisy/src/hid/disp/display.h ****     }
 481:../../libdaisy/src/hid/disp/display.h **** 
 482:../../libdaisy/src/hid/disp/display.h ****     Rectangle GetTextRect(const char* text, const FontDef& font)
 1562              		.loc 6 482 15 is_stmt 1 view .LVU311
 1563              	.LBB749:
 1564              	.LBB742:
 1565              	.LBB739:
 477:../../libdaisy/src/hid/disp/display.h ****             result++;
 1566              		.loc 6 477 25 view .LVU312
 477:../../libdaisy/src/hid/disp/display.h ****             result++;
 1567              		.loc 6 477 25 is_stmt 0 view .LVU313
 1568              	.LBE739:
 1569              	.LBE742:
 1570              	.LBE749:
 1571              	.LBE753:
 460:../../libdaisy/src/hid/disp/display.h ****                                  const FontDef& font,
 1572              		.loc 6 460 15 view .LVU314
 1573 0010 9DF85800 		ldrb	r0, [sp, #88]	@ zero_extendqisi2
 1574              	.LVL119:
 1575              	.LBB754:
 1576              	.LBB750:
ARM GAS  /tmp/ccMpf4Yo.s 			page 57


 1577              	.LBB743:
 1578              	.LBB740:
 477:../../libdaisy/src/hid/disp/display.h ****             result++;
 1579              		.loc 6 477 25 view .LVU315
 1580 0014 11F8012B 		ldrb	r2, [r1], #1	@ zero_extendqisi2
 1581              	.LVL120:
 477:../../libdaisy/src/hid/disp/display.h ****             result++;
 1582              		.loc 6 477 25 view .LVU316
 1583              	.LBE740:
 1584              	.LBE743:
 1585              	.LBE750:
 1586              	.LBE754:
 460:../../libdaisy/src/hid/disp/display.h ****                                  const FontDef& font,
 1587              		.loc 6 460 15 view .LVU317
 1588 0018 0890     		str	r0, [sp, #32]
 1589 001a DDE91463 		ldrd	r6, r3, [sp, #80]
 1590              	.LVL121:
 1591              	.LBB755:
 1592              	.LBB751:
 1593              	.LBB744:
 1594              	.LBB741:
 477:../../libdaisy/src/hid/disp/display.h ****             result++;
 1595              		.loc 6 477 25 view .LVU318
 1596 001e 32B1     		cbz	r2, .L115
 476:../../libdaisy/src/hid/disp/display.h ****         while(*string++ != '\0')
 1597              		.loc 6 476 18 view .LVU319
 1598 0020 0022     		movs	r2, #0
 1599              	.LVL122:
 1600              	.L116:
 477:../../libdaisy/src/hid/disp/display.h ****             result++;
 1601              		.loc 6 477 25 view .LVU320
 1602 0022 11F8010B 		ldrb	r0, [r1], #1	@ zero_extendqisi2
 1603              	.LVL123:
 478:../../libdaisy/src/hid/disp/display.h ****             result++;
 1604              		.loc 6 478 13 view .LVU321
 1605 0026 0132     		adds	r2, r2, #1
 1606              	.LVL124:
 477:../../libdaisy/src/hid/disp/display.h ****             result++;
 1607              		.loc 6 477 25 is_stmt 1 view .LVU322
 1608 0028 0028     		cmp	r0, #0
 1609 002a FAD1     		bne	.L116
 1610 002c 92B2     		uxth	r2, r2
 1611              	.LVL125:
 1612              	.L115:
 477:../../libdaisy/src/hid/disp/display.h ****             result++;
 1613              		.loc 6 477 25 is_stmt 0 view .LVU323
 1614              	.LBE741:
 1615              	.LBE744:
 483:../../libdaisy/src/hid/disp/display.h ****     {
 484:../../libdaisy/src/hid/disp/display.h ****         const auto numChars = strlen(text);
 485:../../libdaisy/src/hid/disp/display.h ****         return {int16_t(numChars * font.FontWidth), font.FontHeight};
 1616              		.loc 6 485 68 view .LVU324
 1617 002e 2978     		ldrb	r1, [r5]	@ zero_extendqisi2
 1618              		.loc 6 485 58 view .LVU325
 1619 0030 6878     		ldrb	r0, [r5, #1]	@ zero_extendqisi2
 1620              		.loc 6 485 68 view .LVU326
 1621 0032 11FB02F2 		smulbb	r2, r1, r2
ARM GAS  /tmp/ccMpf4Yo.s 			page 58


 1622 0036 01B2     		sxth	r1, r0
 1623              	.LVL126:
 1624              	.LBB745:
 1625              	.LBI745:
 1626              		.file 14 "../../libdaisy/src/hid/disp/graphics_common.h"
   1:../../libdaisy/src/hid/disp/graphics_common.h **** #pragma once
   2:../../libdaisy/src/hid/disp/graphics_common.h **** 
   3:../../libdaisy/src/hid/disp/graphics_common.h **** #include <cstdint>
   4:../../libdaisy/src/hid/disp/graphics_common.h **** 
   5:../../libdaisy/src/hid/disp/graphics_common.h **** namespace daisy
   6:../../libdaisy/src/hid/disp/graphics_common.h **** {
   7:../../libdaisy/src/hid/disp/graphics_common.h **** /** Justifications */
   8:../../libdaisy/src/hid/disp/graphics_common.h **** enum class Alignment
   9:../../libdaisy/src/hid/disp/graphics_common.h **** {
  10:../../libdaisy/src/hid/disp/graphics_common.h ****     centered,
  11:../../libdaisy/src/hid/disp/graphics_common.h ****     topLeft,
  12:../../libdaisy/src/hid/disp/graphics_common.h ****     topCentered,
  13:../../libdaisy/src/hid/disp/graphics_common.h ****     topRight,
  14:../../libdaisy/src/hid/disp/graphics_common.h ****     bottomLeft,
  15:../../libdaisy/src/hid/disp/graphics_common.h ****     bottomCentered,
  16:../../libdaisy/src/hid/disp/graphics_common.h ****     bottomRight,
  17:../../libdaisy/src/hid/disp/graphics_common.h ****     centeredLeft,
  18:../../libdaisy/src/hid/disp/graphics_common.h ****     centeredRight
  19:../../libdaisy/src/hid/disp/graphics_common.h **** };
  20:../../libdaisy/src/hid/disp/graphics_common.h **** 
  21:../../libdaisy/src/hid/disp/graphics_common.h **** class Rectangle
  22:../../libdaisy/src/hid/disp/graphics_common.h **** {
  23:../../libdaisy/src/hid/disp/graphics_common.h ****   public:
  24:../../libdaisy/src/hid/disp/graphics_common.h ****     Rectangle() : x_(0), y_(0), width_(0), height_(0) {}
  25:../../libdaisy/src/hid/disp/graphics_common.h **** 
  26:../../libdaisy/src/hid/disp/graphics_common.h ****     Rectangle(int16_t width, int16_t height)
 1627              		.loc 14 26 5 is_stmt 1 view .LVU327
 1628              	.LBB746:
 1629              	.LBI746:
  27:../../libdaisy/src/hid/disp/graphics_common.h ****     : x_(0), y_(0), width_(max(0, width)), height_(max(0, height))
  28:../../libdaisy/src/hid/disp/graphics_common.h ****     {
  29:../../libdaisy/src/hid/disp/graphics_common.h ****     }
  30:../../libdaisy/src/hid/disp/graphics_common.h **** 
  31:../../libdaisy/src/hid/disp/graphics_common.h ****     Rectangle(int16_t x, int16_t y, int16_t width, int16_t height)
  32:../../libdaisy/src/hid/disp/graphics_common.h ****     : x_(x), y_(y), width_(max(0, width)), height_(max(0, height))
  33:../../libdaisy/src/hid/disp/graphics_common.h ****     {
  34:../../libdaisy/src/hid/disp/graphics_common.h ****     }
  35:../../libdaisy/src/hid/disp/graphics_common.h **** 
  36:../../libdaisy/src/hid/disp/graphics_common.h ****     Rectangle(const Rectangle& other) { *this = other; }
  37:../../libdaisy/src/hid/disp/graphics_common.h **** 
  38:../../libdaisy/src/hid/disp/graphics_common.h ****     Rectangle& operator=(const Rectangle& other)
  39:../../libdaisy/src/hid/disp/graphics_common.h ****     {
  40:../../libdaisy/src/hid/disp/graphics_common.h ****         x_      = other.x_;
  41:../../libdaisy/src/hid/disp/graphics_common.h ****         y_      = other.y_;
  42:../../libdaisy/src/hid/disp/graphics_common.h ****         width_  = other.width_;
  43:../../libdaisy/src/hid/disp/graphics_common.h ****         height_ = other.height_;
  44:../../libdaisy/src/hid/disp/graphics_common.h ****         return *this;
  45:../../libdaisy/src/hid/disp/graphics_common.h ****     }
  46:../../libdaisy/src/hid/disp/graphics_common.h **** 
  47:../../libdaisy/src/hid/disp/graphics_common.h ****     bool operator==(const Rectangle& other) const
  48:../../libdaisy/src/hid/disp/graphics_common.h ****     {
  49:../../libdaisy/src/hid/disp/graphics_common.h ****         return (x_ == other.x_) && (y_ == other.y_) && (width_ == other.width_)
ARM GAS  /tmp/ccMpf4Yo.s 			page 59


  50:../../libdaisy/src/hid/disp/graphics_common.h ****                && (height_ == other.height_);
  51:../../libdaisy/src/hid/disp/graphics_common.h ****     }
  52:../../libdaisy/src/hid/disp/graphics_common.h ****     bool operator!=(const Rectangle& other) const { return !(*this == other); }
  53:../../libdaisy/src/hid/disp/graphics_common.h **** 
  54:../../libdaisy/src/hid/disp/graphics_common.h ****     bool IsEmpty() const { return (width_ <= 0) || (height_ <= 0); }
  55:../../libdaisy/src/hid/disp/graphics_common.h **** 
  56:../../libdaisy/src/hid/disp/graphics_common.h ****     int16_t GetX() const { return x_; }
  57:../../libdaisy/src/hid/disp/graphics_common.h ****     int16_t GetY() const { return y_; }
  58:../../libdaisy/src/hid/disp/graphics_common.h ****     int16_t GetWidth() const { return width_; }
  59:../../libdaisy/src/hid/disp/graphics_common.h ****     int16_t GetHeight() const { return height_; }
  60:../../libdaisy/src/hid/disp/graphics_common.h ****     int16_t GetRight() const { return x_ + width_; }
  61:../../libdaisy/src/hid/disp/graphics_common.h ****     int16_t GetBottom() const { return y_ + height_; }
  62:../../libdaisy/src/hid/disp/graphics_common.h ****     int16_t GetCenterX() const { return x_ + width_ / 2; }
  63:../../libdaisy/src/hid/disp/graphics_common.h ****     int16_t GetCenterY() const { return y_ + height_ / 2; }
  64:../../libdaisy/src/hid/disp/graphics_common.h **** 
  65:../../libdaisy/src/hid/disp/graphics_common.h ****     Rectangle WithX(int16_t x) const { return {x, y_, width_, height_}; }
  66:../../libdaisy/src/hid/disp/graphics_common.h ****     Rectangle WithY(int16_t y) const { return {x_, y, width_, height_}; }
  67:../../libdaisy/src/hid/disp/graphics_common.h ****     Rectangle WithWidth(int16_t width) const
  68:../../libdaisy/src/hid/disp/graphics_common.h ****     {
  69:../../libdaisy/src/hid/disp/graphics_common.h ****         return {x_, y_, width, height_};
  70:../../libdaisy/src/hid/disp/graphics_common.h ****     }
  71:../../libdaisy/src/hid/disp/graphics_common.h ****     Rectangle WithHeight(int16_t height) const
  72:../../libdaisy/src/hid/disp/graphics_common.h ****     {
  73:../../libdaisy/src/hid/disp/graphics_common.h ****         return {x_, y_, width_, height};
  74:../../libdaisy/src/hid/disp/graphics_common.h ****     }
  75:../../libdaisy/src/hid/disp/graphics_common.h ****     Rectangle WithSize(int16_t width, int16_t height) const
  76:../../libdaisy/src/hid/disp/graphics_common.h ****     {
  77:../../libdaisy/src/hid/disp/graphics_common.h ****         return {x_, y_, width, height};
  78:../../libdaisy/src/hid/disp/graphics_common.h ****     }
  79:../../libdaisy/src/hid/disp/graphics_common.h ****     Rectangle WithWidthKeepingCenter(int16_t width) const
  80:../../libdaisy/src/hid/disp/graphics_common.h ****     {
  81:../../libdaisy/src/hid/disp/graphics_common.h ****         return Rectangle(x_, y_, width, height_)
  82:../../libdaisy/src/hid/disp/graphics_common.h ****             .WithCenter(GetCenterX(), GetCenterY());
  83:../../libdaisy/src/hid/disp/graphics_common.h ****     }
  84:../../libdaisy/src/hid/disp/graphics_common.h ****     Rectangle WithHeightKeepingCenter(int16_t height) const
  85:../../libdaisy/src/hid/disp/graphics_common.h ****     {
  86:../../libdaisy/src/hid/disp/graphics_common.h ****         return Rectangle(x_, y_, width_, height)
  87:../../libdaisy/src/hid/disp/graphics_common.h ****             .WithCenter(GetCenterX(), GetCenterY());
  88:../../libdaisy/src/hid/disp/graphics_common.h ****     }
  89:../../libdaisy/src/hid/disp/graphics_common.h ****     Rectangle WithSizeKeepingCenter(int16_t width, int16_t height) const
  90:../../libdaisy/src/hid/disp/graphics_common.h ****     {
  91:../../libdaisy/src/hid/disp/graphics_common.h ****         return Rectangle(x_, y_, width, height)
  92:../../libdaisy/src/hid/disp/graphics_common.h ****             .WithCenter(GetCenterX(), GetCenterY());
  93:../../libdaisy/src/hid/disp/graphics_common.h ****     }
  94:../../libdaisy/src/hid/disp/graphics_common.h **** 
  95:../../libdaisy/src/hid/disp/graphics_common.h ****     Rectangle Reduced(int16_t sizeToReduce) const
  96:../../libdaisy/src/hid/disp/graphics_common.h ****     {
  97:../../libdaisy/src/hid/disp/graphics_common.h ****         return {int16_t(x_ + sizeToReduce),
  98:../../libdaisy/src/hid/disp/graphics_common.h ****                 int16_t(y_ + sizeToReduce),
  99:../../libdaisy/src/hid/disp/graphics_common.h ****                 int16_t(width_ - 2 * sizeToReduce),
 100:../../libdaisy/src/hid/disp/graphics_common.h ****                 int16_t(height_ - 2 * sizeToReduce)};
 101:../../libdaisy/src/hid/disp/graphics_common.h ****     }
 102:../../libdaisy/src/hid/disp/graphics_common.h ****     Rectangle Reduced(int16_t xToReduce, int16_t yToReduce) const
 103:../../libdaisy/src/hid/disp/graphics_common.h ****     {
 104:../../libdaisy/src/hid/disp/graphics_common.h ****         return {int16_t(x_ + xToReduce),
 105:../../libdaisy/src/hid/disp/graphics_common.h ****                 int16_t(y_ + yToReduce),
 106:../../libdaisy/src/hid/disp/graphics_common.h ****                 int16_t(width_ - 2 * xToReduce),
ARM GAS  /tmp/ccMpf4Yo.s 			page 60


 107:../../libdaisy/src/hid/disp/graphics_common.h ****                 int16_t(height_ - 2 * yToReduce)};
 108:../../libdaisy/src/hid/disp/graphics_common.h ****     }
 109:../../libdaisy/src/hid/disp/graphics_common.h **** 
 110:../../libdaisy/src/hid/disp/graphics_common.h ****     Rectangle Translated(int16_t x, int16_t y) const
 111:../../libdaisy/src/hid/disp/graphics_common.h ****     {
 112:../../libdaisy/src/hid/disp/graphics_common.h ****         return {int16_t(x_ + x), int16_t(y_ + y), width_, height_};
 113:../../libdaisy/src/hid/disp/graphics_common.h ****     }
 114:../../libdaisy/src/hid/disp/graphics_common.h **** 
 115:../../libdaisy/src/hid/disp/graphics_common.h ****     Rectangle WithLeft(int16_t left) const
 116:../../libdaisy/src/hid/disp/graphics_common.h ****     {
 117:../../libdaisy/src/hid/disp/graphics_common.h ****         const auto newWidth = int16_t((x_ - left) + width_);
 118:../../libdaisy/src/hid/disp/graphics_common.h ****         return {left, y_, newWidth, height_};
 119:../../libdaisy/src/hid/disp/graphics_common.h ****     }
 120:../../libdaisy/src/hid/disp/graphics_common.h **** 
 121:../../libdaisy/src/hid/disp/graphics_common.h ****     Rectangle WithRight(int16_t right) const
 122:../../libdaisy/src/hid/disp/graphics_common.h ****     {
 123:../../libdaisy/src/hid/disp/graphics_common.h ****         const auto newWidth = int16_t(right - x_);
 124:../../libdaisy/src/hid/disp/graphics_common.h ****         return {x_, y_, newWidth, height_};
 125:../../libdaisy/src/hid/disp/graphics_common.h ****     }
 126:../../libdaisy/src/hid/disp/graphics_common.h **** 
 127:../../libdaisy/src/hid/disp/graphics_common.h ****     Rectangle WithTop(int16_t top) const
 128:../../libdaisy/src/hid/disp/graphics_common.h ****     {
 129:../../libdaisy/src/hid/disp/graphics_common.h ****         const auto newHeight = int16_t((y_ - top) + height_);
 130:../../libdaisy/src/hid/disp/graphics_common.h ****         return {x_, top, width_, newHeight};
 131:../../libdaisy/src/hid/disp/graphics_common.h ****     }
 132:../../libdaisy/src/hid/disp/graphics_common.h **** 
 133:../../libdaisy/src/hid/disp/graphics_common.h ****     Rectangle WithBottom(int16_t bottom) const
 134:../../libdaisy/src/hid/disp/graphics_common.h ****     {
 135:../../libdaisy/src/hid/disp/graphics_common.h ****         const auto newHeight = int16_t(bottom - y_);
 136:../../libdaisy/src/hid/disp/graphics_common.h ****         return {x_, y_, width_, newHeight};
 137:../../libdaisy/src/hid/disp/graphics_common.h ****     }
 138:../../libdaisy/src/hid/disp/graphics_common.h **** 
 139:../../libdaisy/src/hid/disp/graphics_common.h ****     Rectangle WithTrimmedLeft(int16_t pxToTrim) const
 140:../../libdaisy/src/hid/disp/graphics_common.h ****     {
 141:../../libdaisy/src/hid/disp/graphics_common.h ****         return {
 142:../../libdaisy/src/hid/disp/graphics_common.h ****             int16_t(x_ + pxToTrim), y_, int16_t(width_ - pxToTrim), height_};
 143:../../libdaisy/src/hid/disp/graphics_common.h ****     }
 144:../../libdaisy/src/hid/disp/graphics_common.h **** 
 145:../../libdaisy/src/hid/disp/graphics_common.h ****     Rectangle WithTrimmedRight(int16_t pxToTrim) const
 146:../../libdaisy/src/hid/disp/graphics_common.h ****     {
 147:../../libdaisy/src/hid/disp/graphics_common.h ****         return {x_, y_, int16_t(width_ - pxToTrim), height_};
 148:../../libdaisy/src/hid/disp/graphics_common.h ****     }
 149:../../libdaisy/src/hid/disp/graphics_common.h **** 
 150:../../libdaisy/src/hid/disp/graphics_common.h ****     Rectangle WithTrimmedTop(int16_t pxToTrim) const
 151:../../libdaisy/src/hid/disp/graphics_common.h ****     {
 152:../../libdaisy/src/hid/disp/graphics_common.h ****         return {
 153:../../libdaisy/src/hid/disp/graphics_common.h ****             x_, int16_t(y_ + pxToTrim), width_, int16_t(height_ - pxToTrim)};
 154:../../libdaisy/src/hid/disp/graphics_common.h ****     }
 155:../../libdaisy/src/hid/disp/graphics_common.h **** 
 156:../../libdaisy/src/hid/disp/graphics_common.h ****     Rectangle WithTrimmedBottom(int16_t pxToTrim) const
 157:../../libdaisy/src/hid/disp/graphics_common.h ****     {
 158:../../libdaisy/src/hid/disp/graphics_common.h ****         return {x_, y_, width_, int16_t(height_ - pxToTrim)};
 159:../../libdaisy/src/hid/disp/graphics_common.h ****     }
 160:../../libdaisy/src/hid/disp/graphics_common.h **** 
 161:../../libdaisy/src/hid/disp/graphics_common.h ****     Rectangle WithCenterX(int16_t centerX) const
 162:../../libdaisy/src/hid/disp/graphics_common.h ****     {
 163:../../libdaisy/src/hid/disp/graphics_common.h ****         return {int16_t(x_ + centerX - GetCenterX()), y_, width_, height_};
ARM GAS  /tmp/ccMpf4Yo.s 			page 61


 164:../../libdaisy/src/hid/disp/graphics_common.h ****     }
 165:../../libdaisy/src/hid/disp/graphics_common.h **** 
 166:../../libdaisy/src/hid/disp/graphics_common.h ****     Rectangle WithCenterY(int16_t centerY) const
 167:../../libdaisy/src/hid/disp/graphics_common.h ****     {
 168:../../libdaisy/src/hid/disp/graphics_common.h ****         return {x_, int16_t(y_ + centerY - GetCenterY()), width_, height_};
 169:../../libdaisy/src/hid/disp/graphics_common.h ****     }
 170:../../libdaisy/src/hid/disp/graphics_common.h **** 
 171:../../libdaisy/src/hid/disp/graphics_common.h ****     Rectangle WithCenter(int16_t centerX, int16_t centerY) const
 172:../../libdaisy/src/hid/disp/graphics_common.h ****     {
 173:../../libdaisy/src/hid/disp/graphics_common.h ****         return {int16_t(x_ + centerX - GetCenterX()),
 174:../../libdaisy/src/hid/disp/graphics_common.h ****                 int16_t(y_ + centerY - GetCenterY()),
 175:../../libdaisy/src/hid/disp/graphics_common.h ****                 width_,
 176:../../libdaisy/src/hid/disp/graphics_common.h ****                 height_};
 177:../../libdaisy/src/hid/disp/graphics_common.h ****     }
 178:../../libdaisy/src/hid/disp/graphics_common.h **** 
 179:../../libdaisy/src/hid/disp/graphics_common.h ****     Rectangle RemoveFromLeft(int16_t pxToRemove)
 180:../../libdaisy/src/hid/disp/graphics_common.h ****     {
 181:../../libdaisy/src/hid/disp/graphics_common.h ****         const auto result = this->WithWidth(min(pxToRemove, width_));
 182:../../libdaisy/src/hid/disp/graphics_common.h ****         x_ += min(pxToRemove, width_);
 183:../../libdaisy/src/hid/disp/graphics_common.h ****         width_ = max(int16_t(width_ - pxToRemove), 0);
 184:../../libdaisy/src/hid/disp/graphics_common.h ****         return result;
 185:../../libdaisy/src/hid/disp/graphics_common.h ****     }
 186:../../libdaisy/src/hid/disp/graphics_common.h **** 
 187:../../libdaisy/src/hid/disp/graphics_common.h ****     Rectangle RemoveFromRight(int16_t pxToRemove)
 188:../../libdaisy/src/hid/disp/graphics_common.h ****     {
 189:../../libdaisy/src/hid/disp/graphics_common.h ****         const auto canRemove = min(pxToRemove, width_);
 190:../../libdaisy/src/hid/disp/graphics_common.h ****         width_ -= canRemove;
 191:../../libdaisy/src/hid/disp/graphics_common.h ****         return {int16_t(x_ + width_), y_, canRemove, height_};
 192:../../libdaisy/src/hid/disp/graphics_common.h ****     }
 193:../../libdaisy/src/hid/disp/graphics_common.h **** 
 194:../../libdaisy/src/hid/disp/graphics_common.h ****     Rectangle RemoveFromTop(int16_t pxToRemove)
 195:../../libdaisy/src/hid/disp/graphics_common.h ****     {
 196:../../libdaisy/src/hid/disp/graphics_common.h ****         const auto result = this->WithHeight(min(pxToRemove, height_));
 197:../../libdaisy/src/hid/disp/graphics_common.h ****         y_ += min(pxToRemove, height_);
 198:../../libdaisy/src/hid/disp/graphics_common.h ****         height_ = max(height_ - pxToRemove, 0);
 199:../../libdaisy/src/hid/disp/graphics_common.h ****         return result;
 200:../../libdaisy/src/hid/disp/graphics_common.h ****     }
 201:../../libdaisy/src/hid/disp/graphics_common.h **** 
 202:../../libdaisy/src/hid/disp/graphics_common.h ****     Rectangle RemoveFromBottom(int16_t pxToRemove)
 203:../../libdaisy/src/hid/disp/graphics_common.h ****     {
 204:../../libdaisy/src/hid/disp/graphics_common.h ****         const auto canRemove = min(pxToRemove, height_);
 205:../../libdaisy/src/hid/disp/graphics_common.h ****         height_ -= canRemove;
 206:../../libdaisy/src/hid/disp/graphics_common.h ****         return {x_, int16_t(y_ + height_), width_, canRemove};
 207:../../libdaisy/src/hid/disp/graphics_common.h ****     }
 208:../../libdaisy/src/hid/disp/graphics_common.h **** 
 209:../../libdaisy/src/hid/disp/graphics_common.h ****     Rectangle AlignedWithin(const Rectangle& other, Alignment alignment) const
 210:../../libdaisy/src/hid/disp/graphics_common.h ****     {
 211:../../libdaisy/src/hid/disp/graphics_common.h ****         switch(alignment)
 212:../../libdaisy/src/hid/disp/graphics_common.h ****         {
 213:../../libdaisy/src/hid/disp/graphics_common.h ****             case Alignment::topLeft:
 214:../../libdaisy/src/hid/disp/graphics_common.h ****                 return {other.x_, other.y_, width_, height_};
 215:../../libdaisy/src/hid/disp/graphics_common.h ****             case Alignment::topRight:
 216:../../libdaisy/src/hid/disp/graphics_common.h ****                 return {int16_t(other.GetRight() - width_),
 217:../../libdaisy/src/hid/disp/graphics_common.h ****                         other.y_,
 218:../../libdaisy/src/hid/disp/graphics_common.h ****                         width_,
 219:../../libdaisy/src/hid/disp/graphics_common.h ****                         height_};
 220:../../libdaisy/src/hid/disp/graphics_common.h ****             case Alignment::topCentered:
ARM GAS  /tmp/ccMpf4Yo.s 			page 62


 221:../../libdaisy/src/hid/disp/graphics_common.h ****                 return {int16_t(x_ + (other.GetCenterX() - GetCenterX())),
 222:../../libdaisy/src/hid/disp/graphics_common.h ****                         other.y_,
 223:../../libdaisy/src/hid/disp/graphics_common.h ****                         width_,
 224:../../libdaisy/src/hid/disp/graphics_common.h ****                         height_};
 225:../../libdaisy/src/hid/disp/graphics_common.h ****             case Alignment::bottomLeft:
 226:../../libdaisy/src/hid/disp/graphics_common.h ****                 return {other.x_,
 227:../../libdaisy/src/hid/disp/graphics_common.h ****                         int16_t(other.GetBottom() - height_),
 228:../../libdaisy/src/hid/disp/graphics_common.h ****                         width_,
 229:../../libdaisy/src/hid/disp/graphics_common.h ****                         height_};
 230:../../libdaisy/src/hid/disp/graphics_common.h ****             case Alignment::bottomRight:
 231:../../libdaisy/src/hid/disp/graphics_common.h ****                 return {int16_t(other.GetRight() - width_),
 232:../../libdaisy/src/hid/disp/graphics_common.h ****                         int16_t(other.GetBottom() - height_),
 233:../../libdaisy/src/hid/disp/graphics_common.h ****                         width_,
 234:../../libdaisy/src/hid/disp/graphics_common.h ****                         height_};
 235:../../libdaisy/src/hid/disp/graphics_common.h ****             case Alignment::bottomCentered:
 236:../../libdaisy/src/hid/disp/graphics_common.h ****                 return {int16_t(x_ + (other.GetCenterX() - GetCenterX())),
 237:../../libdaisy/src/hid/disp/graphics_common.h ****                         int16_t(other.GetBottom() - height_),
 238:../../libdaisy/src/hid/disp/graphics_common.h ****                         width_,
 239:../../libdaisy/src/hid/disp/graphics_common.h ****                         height_};
 240:../../libdaisy/src/hid/disp/graphics_common.h ****             case Alignment::centeredLeft:
 241:../../libdaisy/src/hid/disp/graphics_common.h ****                 return {other.x_,
 242:../../libdaisy/src/hid/disp/graphics_common.h ****                         int16_t(y_ + (other.GetCenterY() - GetCenterY())),
 243:../../libdaisy/src/hid/disp/graphics_common.h ****                         width_,
 244:../../libdaisy/src/hid/disp/graphics_common.h ****                         height_};
 245:../../libdaisy/src/hid/disp/graphics_common.h ****             case Alignment::centeredRight:
 246:../../libdaisy/src/hid/disp/graphics_common.h ****                 return {int16_t(other.GetRight() - width_),
 247:../../libdaisy/src/hid/disp/graphics_common.h ****                         int16_t(y_ + (other.GetCenterY() - GetCenterY())),
 248:../../libdaisy/src/hid/disp/graphics_common.h ****                         width_,
 249:../../libdaisy/src/hid/disp/graphics_common.h ****                         height_};
 250:../../libdaisy/src/hid/disp/graphics_common.h ****             case Alignment::centered:
 251:../../libdaisy/src/hid/disp/graphics_common.h ****                 return {int16_t(x_ + (other.GetCenterX() - GetCenterX())),
 252:../../libdaisy/src/hid/disp/graphics_common.h ****                         int16_t(y_ + (other.GetCenterY() - GetCenterY())),
 253:../../libdaisy/src/hid/disp/graphics_common.h ****                         width_,
 254:../../libdaisy/src/hid/disp/graphics_common.h ****                         height_};
 255:../../libdaisy/src/hid/disp/graphics_common.h ****             default: return {};
 256:../../libdaisy/src/hid/disp/graphics_common.h ****         }
 257:../../libdaisy/src/hid/disp/graphics_common.h ****     }
 258:../../libdaisy/src/hid/disp/graphics_common.h **** 
 259:../../libdaisy/src/hid/disp/graphics_common.h ****   private:
 260:../../libdaisy/src/hid/disp/graphics_common.h ****     int16_t x_, y_, width_, height_;
 261:../../libdaisy/src/hid/disp/graphics_common.h ****     int16_t max(int16_t a, int16_t b) { return (a > b) ? a : b; }
 1630              		.loc 14 261 13 view .LVU328
 1631              		.loc 14 261 13 is_stmt 0 view .LVU329
 1632              	.LBE746:
 1633              	.LBE745:
 1634              	.LBE751:
 1635              	.LBE755:
 1636              		.loc 14 261 41 is_stmt 1 view .LVU330
 1637 0038 12B2     		sxth	r2, r2
 1638 003a 22EAE272 		bic	r2, r2, r2, asr #31
 1639              	.LVL127:
 1640              	.LBB756:
 1641              	.LBB752:
 1642              	.LBB748:
 1643              	.LBB747:
 1644              	.LBI747:
 1645              		.loc 14 261 13 view .LVU331
ARM GAS  /tmp/ccMpf4Yo.s 			page 63


 1646              		.loc 14 261 13 is_stmt 0 view .LVU332
 1647              	.LBE747:
 1648              	.LBE748:
 1649              	.LBE752:
 1650              	.LBE756:
 1651              		.loc 14 261 41 is_stmt 1 view .LVU333
 1652              	.LBB757:
 1653              	.LBI757:
 209:../../libdaisy/src/hid/disp/graphics_common.h ****     {
 1654              		.loc 14 209 15 view .LVU334
 1655              	.LBB758:
 211:../../libdaisy/src/hid/disp/graphics_common.h ****         {
 1656              		.loc 14 211 9 view .LVU335
 1657 003e 082B     		cmp	r3, #8
 1658 0040 00F2AD81 		bhi	.L117
 1659 0044 DFE813F0 		tbh	[pc, r3, lsl #1]
 1660              	.L119:
 1661 0048 0001     		.2byte	(.L127-.L119)/2
 1662 004a 1201     		.2byte	(.L126-.L119)/2
 1663 004c 1E01     		.2byte	(.L125-.L119)/2
 1664 004e 3201     		.2byte	(.L124-.L119)/2
 1665 0050 4001     		.2byte	(.L123-.L119)/2
 1666 0052 5001     		.2byte	(.L122-.L119)/2
 1667 0054 6B01     		.2byte	(.L121-.L119)/2
 1668 0056 7801     		.2byte	(.L120-.L119)/2
 1669 0058 0900     		.2byte	(.L118-.L119)/2
 1670              		.p2align 1
 1671              	.L118:
 245:../../libdaisy/src/hid/disp/graphics_common.h ****                 return {int16_t(other.GetRight() - width_),
 1672              		.loc 14 245 13 view .LVU336
 246:../../libdaisy/src/hid/disp/graphics_common.h ****                         int16_t(y_ + (other.GetCenterY() - GetCenterY())),
 1673              		.loc 14 246 17 view .LVU337
 1674              	.LBB759:
 1675              	.LBI759:
  60:../../libdaisy/src/hid/disp/graphics_common.h ****     int16_t GetBottom() const { return y_ + height_; }
 1676              		.loc 14 60 13 view .LVU338
 1677              	.LVL128:
 1678              	.LBB760:
  60:../../libdaisy/src/hid/disp/graphics_common.h ****     int16_t GetBottom() const { return y_ + height_; }
 1679              		.loc 14 60 32 view .LVU339
  60:../../libdaisy/src/hid/disp/graphics_common.h ****     int16_t GetBottom() const { return y_ + height_; }
 1680              		.loc 14 60 42 is_stmt 0 view .LVU340
 1681 005a 3788     		ldrh	r7, [r6]
 1682 005c B088     		ldrh	r0, [r6, #4]
 1683              	.LBE760:
 1684              	.LBE759:
 1685              	.LBB762:
 1686              	.LBB763:
  63:../../libdaisy/src/hid/disp/graphics_common.h **** 
 1687              		.loc 14 63 54 view .LVU341
 1688 005e B6F90630 		ldrsh	r3, [r6, #6]
 1689              	.LVL129:
  63:../../libdaisy/src/hid/disp/graphics_common.h **** 
 1690              		.loc 14 63 54 view .LVU342
 1691              	.LBE763:
 1692              	.LBE762:
 1693              	.LBB767:
ARM GAS  /tmp/ccMpf4Yo.s 			page 64


 1694              	.LBB761:
  60:../../libdaisy/src/hid/disp/graphics_common.h ****     int16_t GetBottom() const { return y_ + height_; }
 1695              		.loc 14 60 42 view .LVU343
 1696 0062 0744     		add	r7, r7, r0
 1697              	.LBE761:
 1698              	.LBE767:
 1699              	.LBB768:
 1700              	.LBB764:
  63:../../libdaisy/src/hid/disp/graphics_common.h **** 
 1701              		.loc 14 63 54 view .LVU344
 1702 0064 002B     		cmp	r3, #0
 1703              	.LBE764:
 1704              	.LBE768:
 246:../../libdaisy/src/hid/disp/graphics_common.h ****                         int16_t(y_ + (other.GetCenterY() - GetCenterY())),
 1705              		.loc 14 246 50 view .LVU345
 1706 0066 A7EB0207 		sub	r7, r7, r2
 1707 006a BFB2     		uxth	r7, r7
 1708              	.LBB769:
 1709              	.LBI762:
  63:../../libdaisy/src/hid/disp/graphics_common.h **** 
 1710              		.loc 14 63 13 is_stmt 1 view .LVU346
 1711              	.LVL130:
 1712              	.LBB765:
  63:../../libdaisy/src/hid/disp/graphics_common.h **** 
 1713              		.loc 14 63 34 view .LVU347
  63:../../libdaisy/src/hid/disp/graphics_common.h **** 
 1714              		.loc 14 63 34 is_stmt 0 view .LVU348
 1715              	.LBE765:
 1716              	.LBE769:
 1717              	.LBB770:
 1718              	.LBI770:
  63:../../libdaisy/src/hid/disp/graphics_common.h **** 
 1719              		.loc 14 63 13 is_stmt 1 view .LVU349
 1720              	.LBB771:
  63:../../libdaisy/src/hid/disp/graphics_common.h **** 
 1721              		.loc 14 63 34 view .LVU350
 1722              	.LBE771:
 1723              	.LBE770:
 1724              	.LBB772:
 1725              	.LBB766:
  63:../../libdaisy/src/hid/disp/graphics_common.h **** 
 1726              		.loc 14 63 54 is_stmt 0 view .LVU351
 1727 006c C0F2FC80 		blt	.L191
 1728              	.LVL131:
 1729              	.L134:
  63:../../libdaisy/src/hid/disp/graphics_common.h **** 
 1730              		.loc 14 63 54 view .LVU352
 1731              	.LBE766:
 1732              	.LBE772:
 1733              	.LBB773:
 1734              	.LBB774:
  63:../../libdaisy/src/hid/disp/graphics_common.h **** 
 1735              		.loc 14 63 44 view .LVU353
 1736 0070 B6F802C0 		ldrh	ip, [r6, #2]
 1737              	.LBE774:
 1738              	.LBE773:
 1739              	.LBB780:
ARM GAS  /tmp/ccMpf4Yo.s 			page 65


 1740              	.LBB781:
 1741              	.LBB782:
  32:../../libdaisy/src/hid/disp/graphics_common.h ****     {
 1742              		.loc 14 32 66 view .LVU354
 1743 0074 0998     		ldr	r0, [sp, #36]
 1744              	.LBE782:
 1745              	.LBE781:
 1746              	.LBE780:
 1747              	.LBB791:
 1748              	.LBB775:
  63:../../libdaisy/src/hid/disp/graphics_common.h **** 
 1749              		.loc 14 63 44 view .LVU355
 1750 0076 0CEB6306 		add	r6, ip, r3, asr #1
 1751              	.LVL132:
  63:../../libdaisy/src/hid/disp/graphics_common.h **** 
 1752              		.loc 14 63 44 view .LVU356
 1753              	.LBE775:
 1754              	.LBE791:
 1755              	.LBB792:
 1756              	.LBB788:
 1757              	.LBB785:
  32:../../libdaisy/src/hid/disp/graphics_common.h ****     {
 1758              		.loc 14 32 66 view .LVU357
 1759 007a 0346     		mov	r3, r0
 1760 007c 0780     		strh	r7, [r0]	@ movhi
 1761              	.L189:
  32:../../libdaisy/src/hid/disp/graphics_common.h ****     {
 1762              		.loc 14 32 66 view .LVU358
 1763 007e 8280     		strh	r2, [r0, #4]	@ movhi
 1764 0080 D980     		strh	r1, [r3, #6]	@ movhi
 1765              	.LBE785:
 1766              	.LBE788:
 1767              	.LBE792:
 252:../../libdaisy/src/hid/disp/graphics_common.h ****                         width_,
 1768              		.loc 14 252 58 view .LVU359
 1769 0082 A6EB5101 		sub	r1, r6, r1, lsr #1
 1770 0086 8EB2     		uxth	r6, r1
 1771              	.LVL133:
 1772              	.LBB793:
 1773              	.LBI780:
  31:../../libdaisy/src/hid/disp/graphics_common.h ****     : x_(x), y_(y), width_(max(0, width)), height_(max(0, height))
 1774              		.loc 14 31 5 is_stmt 1 view .LVU360
 1775              	.LBB789:
 1776              	.LBB786:
  32:../../libdaisy/src/hid/disp/graphics_common.h ****     {
 1777              		.loc 14 32 66 is_stmt 0 view .LVU361
 1778 0088 5E80     		strh	r6, [r3, #2]	@ movhi
 1779              	.LVL134:
 1780              	.LBB783:
 1781              	.LBI783:
 1782              		.loc 14 261 13 is_stmt 1 view .LVU362
 1783              		.loc 14 261 13 is_stmt 0 view .LVU363
 1784              	.LBE783:
 1785              	.LBE786:
 1786              	.LBE789:
 1787              	.LBE793:
 1788              	.LBE758:
ARM GAS  /tmp/ccMpf4Yo.s 			page 66


 1789              	.LBE757:
 1790              		.loc 14 261 41 is_stmt 1 view .LVU364
 1791              	.LBB978:
 1792              	.LBB963:
 1793              	.LBB794:
 1794              	.LBB790:
 1795              	.LBB787:
 1796              	.LBB784:
 1797              	.LBI784:
 1798              		.loc 14 261 13 view .LVU365
 1799              		.loc 14 261 13 is_stmt 0 view .LVU366
 1800              	.LBE784:
 1801              	.LBE787:
 1802              	.LBE790:
 1803              	.LBE794:
 1804              	.LBE963:
 1805              	.LBE978:
 1806              		.loc 14 261 41 is_stmt 1 view .LVU367
 1807              	.L128:
  56:../../libdaisy/src/hid/disp/graphics_common.h ****     int16_t GetY() const { return y_; }
 1808              		.loc 14 56 28 view .LVU368
  57:../../libdaisy/src/hid/disp/graphics_common.h ****     int16_t GetWidth() const { return width_; }
 1809              		.loc 14 57 28 view .LVU369
 1810              	.LBB979:
 1811              	.LBI979:
 171:../../libdaisy/src/hid/disp/display.h ****     {
 1812              		.loc 6 171 10 view .LVU370
 1813              	.LBB980:
 173:../../libdaisy/src/hid/disp/display.h ****         currentY_ = (y >= Height()) ? Height() - 1 : y;
 1814              		.loc 6 173 9 view .LVU371
 1815 008a B64A     		ldr	r2, .L201
 173:../../libdaisy/src/hid/disp/display.h ****         currentY_ = (y >= Height()) ? Height() - 1 : y;
 1816              		.loc 6 173 33 is_stmt 0 view .LVU372
 1817 008c 2368     		ldr	r3, [r4]
 1818 008e 1146     		mov	r1, r2
 1819 0090 0192     		str	r2, [sp, #4]
 1820 0092 DA68     		ldr	r2, [r3, #12]
 1821 0094 8A42     		cmp	r2, r1
 1822 0096 40F08F81 		bne	.L136
 1823 009a 8020     		movs	r0, #128
 1824              	.LVL135:
 1825              	.L137:
 173:../../libdaisy/src/hid/disp/display.h ****         currentY_ = (y >= Height()) ? Height() - 1 : y;
 1826              		.loc 6 173 19 view .LVU373
 1827 009c B842     		cmp	r0, r7
 1828 009e 05D8     		bhi	.L138
 173:../../libdaisy/src/hid/disp/display.h ****         currentY_ = (y >= Height()) ? Height() - 1 : y;
 1829              		.loc 6 173 44 view .LVU374
 1830 00a0 DA68     		ldr	r2, [r3, #12]
 1831 00a2 0199     		ldr	r1, [sp, #4]
 1832 00a4 8A42     		cmp	r2, r1
 1833 00a6 40F09A81 		bne	.L192
 1834 00aa 7F27     		movs	r7, #127
 1835              	.L138:
 174:../../libdaisy/src/hid/disp/display.h ****     }
 1836              		.loc 6 174 34 view .LVU375
 1837 00ac 9B68     		ldr	r3, [r3, #8]
ARM GAS  /tmp/ccMpf4Yo.s 			page 67


 1838 00ae AE4A     		ldr	r2, .L201+4
 173:../../libdaisy/src/hid/disp/display.h ****         currentY_ = (y >= Height()) ? Height() - 1 : y;
 1839              		.loc 6 173 19 view .LVU376
 1840 00b0 A780     		strh	r7, [r4, #4]	@ movhi
 174:../../libdaisy/src/hid/disp/display.h ****     }
 1841              		.loc 6 174 9 is_stmt 1 view .LVU377
 1842 00b2 9342     		cmp	r3, r2
 1843 00b4 0392     		str	r2, [sp, #12]
 1844 00b6 40F08A81 		bne	.L168
 174:../../libdaisy/src/hid/disp/display.h ****     }
 1845              		.loc 6 174 34 is_stmt 0 view .LVU378
 1846 00ba 4020     		movs	r0, #64
 1847              	.L140:
 174:../../libdaisy/src/hid/disp/display.h ****     }
 1848              		.loc 6 174 19 view .LVU379
 1849 00bc B042     		cmp	r0, r6
 1850 00be 06D8     		bhi	.L142
 174:../../libdaisy/src/hid/disp/display.h ****     }
 1851              		.loc 6 174 46 view .LVU380
 1852 00c0 2368     		ldr	r3, [r4]
 1853 00c2 039A     		ldr	r2, [sp, #12]
 1854 00c4 9B68     		ldr	r3, [r3, #8]
 1855 00c6 9342     		cmp	r3, r2
 1856 00c8 40F08481 		bne	.L193
 1857 00cc 3F26     		movs	r6, #63
 1858              	.L142:
 174:../../libdaisy/src/hid/disp/display.h ****     }
 1859              		.loc 6 174 46 view .LVU381
 1860 00ce 6B78     		ldrb	r3, [r5, #1]	@ zero_extendqisi2
 174:../../libdaisy/src/hid/disp/display.h ****     }
 1861              		.loc 6 174 19 view .LVU382
 1862 00d0 E680     		strh	r6, [r4, #6]	@ movhi
 1863              	.LVL136:
 174:../../libdaisy/src/hid/disp/display.h ****     }
 1864              		.loc 6 174 19 view .LVU383
 1865 00d2 0493     		str	r3, [sp, #16]
 1866              	.LBE980:
 1867              	.LBE979:
 1868              	.LBB984:
 1869              	.LBB985:
 443:../../libdaisy/src/hid/disp/display.h ****         {
 1870              		.loc 6 443 9 view .LVU384
 1871 00d4 98F80060 		ldrb	r6, [r8]	@ zero_extendqisi2
 1872 00d8 6B68     		ldr	r3, [r5, #4]
 1873 00da 95F800B0 		ldrb	fp, [r5]	@ zero_extendqisi2
 1874              	.LVL137:
 443:../../libdaisy/src/hid/disp/display.h ****         {
 1875              		.loc 6 443 9 view .LVU385
 1876 00de 0793     		str	r3, [sp, #28]
 1877              	.LVL138:
 443:../../libdaisy/src/hid/disp/display.h ****         {
 1878              		.loc 6 443 9 view .LVU386
 1879              	.LBE985:
 1880              	.LBI984:
 440:../../libdaisy/src/hid/disp/display.h ****     {
 1881              		.loc 6 440 10 is_stmt 1 view .LVU387
 1882              	.LBB1028:
ARM GAS  /tmp/ccMpf4Yo.s 			page 68


 443:../../libdaisy/src/hid/disp/display.h ****         {
 1883              		.loc 6 443 9 view .LVU388
 1884 00e0 002E     		cmp	r6, #0
 1885 00e2 00F0AD80 		beq	.L114
 1886              	.LVL139:
 1887              	.L144:
 1888              	.LBB986:
 1889              	.LBI986:
 396:../../libdaisy/src/hid/disp/display.h ****     {
 1890              		.loc 6 396 10 view .LVU389
 1891              	.LBB987:
 401:../../libdaisy/src/hid/disp/display.h ****             return 0;
 1892              		.loc 6 401 20 is_stmt 0 view .LVU390
 1893 00e6 A6F12005 		sub	r5, r6, #32
 401:../../libdaisy/src/hid/disp/display.h ****             return 0;
 1894              		.loc 6 401 9 view .LVU391
 1895 00ea EBB2     		uxtb	r3, r5
 1896 00ec 5E2B     		cmp	r3, #94
 1897 00ee 00F23481 		bhi	.L148
 405:../../libdaisy/src/hid/disp/display.h ****            || Height() < (currentY_ + font.FontHeight))
 1898              		.loc 6 405 17 view .LVU392
 1899 00f2 2368     		ldr	r3, [r4]
 1900 00f4 019A     		ldr	r2, [sp, #4]
 1901 00f6 DB68     		ldr	r3, [r3, #12]
 1902 00f8 9342     		cmp	r3, r2
 1903 00fa 40F03081 		bne	.L194
 1904 00fe 8020     		movs	r0, #128
 1905              	.L147:
 405:../../libdaisy/src/hid/disp/display.h ****            || Height() < (currentY_ + font.FontHeight))
 1906              		.loc 6 405 23 view .LVU393
 1907 0100 A388     		ldrh	r3, [r4, #4]
 405:../../libdaisy/src/hid/disp/display.h ****            || Height() < (currentY_ + font.FontHeight))
 1908              		.loc 6 405 33 view .LVU394
 1909 0102 5B44     		add	r3, r3, fp
 406:../../libdaisy/src/hid/disp/display.h ****         {
 1910              		.loc 6 406 12 view .LVU395
 1911 0104 9842     		cmp	r0, r3
 1912 0106 C0F22881 		blt	.L148
 406:../../libdaisy/src/hid/disp/display.h ****         {
 1913              		.loc 6 406 21 view .LVU396
 1914 010a 2368     		ldr	r3, [r4]
 1915 010c 039A     		ldr	r2, [sp, #12]
 1916 010e 9B68     		ldr	r3, [r3, #8]
 1917 0110 9342     		cmp	r3, r2
 1918 0112 40F02B81 		bne	.L195
 1919 0116 4020     		movs	r0, #64
 1920              	.L149:
 406:../../libdaisy/src/hid/disp/display.h ****         {
 1921              		.loc 6 406 27 view .LVU397
 1922 0118 E188     		ldrh	r1, [r4, #6]
 406:../../libdaisy/src/hid/disp/display.h ****         {
 1923              		.loc 6 406 37 view .LVU398
 1924 011a 049A     		ldr	r2, [sp, #16]
 406:../../libdaisy/src/hid/disp/display.h ****         {
 1925              		.loc 6 406 27 view .LVU399
 1926 011c 0291     		str	r1, [sp, #8]
 406:../../libdaisy/src/hid/disp/display.h ****         {
ARM GAS  /tmp/ccMpf4Yo.s 			page 69


 1927              		.loc 6 406 37 view .LVU400
 1928 011e 8B18     		adds	r3, r1, r2
 406:../../libdaisy/src/hid/disp/display.h ****         {
 1929              		.loc 6 406 12 view .LVU401
 1930 0120 9842     		cmp	r0, r3
 1931 0122 C0F21A81 		blt	.L148
 1932              	.LVL140:
 413:../../libdaisy/src/hid/disp/display.h ****         {
 1933              		.loc 6 413 22 is_stmt 1 view .LVU402
 1934 0126 1046     		mov	r0, r2
 1935 0128 002A     		cmp	r2, #0
 1936 012a 00F02981 		beq	.L150
 415:../../libdaisy/src/hid/disp/display.h ****             for(j = 0; j < font.FontWidth; j++)
 1937              		.loc 6 415 37 is_stmt 0 view .LVU403
 1938 012e 1346     		mov	r3, r2
 1939 0130 6FF00047 		mvn	r7, #-2147483648
 1940 0134 B4F804C0 		ldrh	ip, [r4, #4]
 1941 0138 03FB05F3 		mul	r3, r3, r5
 1942 013c 079D     		ldr	r5, [sp, #28]
 1943 013e CDF81880 		str	r8, [sp, #24]
 1944 0142 AA1E     		subs	r2, r5, #2
 1945 0144 1F44     		add	r7, r7, r3
 1946 0146 0344     		add	r3, r3, r0
 1947 0148 DDF82090 		ldr	r9, [sp, #32]
 1948 014c 05EB4707 		add	r7, r5, r7, lsl #1
 1949 0150 0596     		str	r6, [sp, #20]
 1950 0152 02EB4303 		add	r3, r2, r3, lsl #1
 1951 0156 2246     		mov	r2, r4
 1952 0158 5C46     		mov	r4, fp
 1953              	.LVL141:
 415:../../libdaisy/src/hid/disp/display.h ****             for(j = 0; j < font.FontWidth; j++)
 1954              		.loc 6 415 37 view .LVU404
 1955 015a 9846     		mov	r8, r3
 1956              	.LVL142:
 415:../../libdaisy/src/hid/disp/display.h ****             for(j = 0; j < font.FontWidth; j++)
 1957              		.loc 6 415 37 view .LVU405
 1958 015c 9346     		mov	fp, r2
 1959              	.LVL143:
 1960              	.L153:
 415:../../libdaisy/src/hid/disp/display.h ****             for(j = 0; j < font.FontWidth; j++)
 1961              		.loc 6 415 13 view .LVU406
 1962 015e 37F802AF 		ldrh	r10, [r7, #2]!
 1963              	.LVL144:
 416:../../libdaisy/src/hid/disp/display.h ****             {
 1964              		.loc 6 416 26 is_stmt 1 view .LVU407
 1965 0162 A4B3     		cbz	r4, .L158
 1966              	.LBB988:
 1967              	.LBB989:
 1968              	.LBB990:
 1969              	.LBB991:
 1970              	.LBB992:
 246:../../libdaisy/src/dev/oled_ssd130x.h ****     }
 1971              		.loc 13 246 49 is_stmt 0 view .LVU408
 1972 0164 0125     		movs	r5, #1
 246:../../libdaisy/src/dev/oled_ssd130x.h ****     }
 1973              		.loc 13 246 55 view .LVU409
 1974 0166 01F00702 		and	r2, r1, #7
ARM GAS  /tmp/ccMpf4Yo.s 			page 70


 246:../../libdaisy/src/dev/oled_ssd130x.h ****     }
 1975              		.loc 13 246 28 view .LVU410
 1976 016a C808     		lsrs	r0, r1, #3
 1977 016c 0CF11403 		add	r3, ip, #20
 246:../../libdaisy/src/dev/oled_ssd130x.h ****     }
 1978              		.loc 13 246 49 view .LVU411
 1979 0170 05FA02F2 		lsl	r2, r5, r2
 1980 0174 6546     		mov	r5, ip
 1981 0176 03EBC013 		add	r3, r3, r0, lsl #7
 1982              	.LBE992:
 1983              	.LBE991:
 1984              	.LBE990:
 1985              	.LBE989:
 1986              	.LBE988:
 416:../../libdaisy/src/hid/disp/display.h ****             {
 1987              		.loc 6 416 19 view .LVU412
 1988 017a 0020     		movs	r0, #0
 1989              	.LBB1010:
 1990              	.LBB1005:
 1991              	.LBB1000:
 1992              	.LBB996:
 1993              	.LBB993:
 246:../../libdaisy/src/dev/oled_ssd130x.h ****     }
 1994              		.loc 13 246 42 view .LVU413
 1995 017c 52B2     		sxtb	r2, r2
 1996 017e 5B44     		add	r3, r3, fp
 1997 0180 6FEA020E 		mvn	lr, r2
 1998 0184 0EE0     		b	.L159
 1999              	.LVL145:
 2000              	.L196:
 246:../../libdaisy/src/dev/oled_ssd130x.h ****     }
 2001              		.loc 13 246 42 view .LVU414
 2002              	.LBE993:
 2003              	.LBE996:
 2004              	.LBE1000:
 2005              	.LBE1005:
 2006              	.LBE1010:
 2007              	.LBB1011:
 2008              	.LBI1011:
  41:../../libdaisy/src/hid/disp/oled_display.h ****     {
 2009              		.loc 5 41 10 is_stmt 1 view .LVU415
 2010              	.LBB1012:
 2011              	.LBI1012:
 239:../../libdaisy/src/dev/oled_ssd130x.h ****     {
 2012              		.loc 13 239 10 view .LVU416
 2013              	.LBB1013:
 241:../../libdaisy/src/dev/oled_ssd130x.h ****             return;
 2014              		.loc 13 241 9 is_stmt 0 view .LVU417
 2015 0186 7F2D     		cmp	r5, #127
 2016 0188 07D8     		bhi	.L155
 2017 018a 3F29     		cmp	r1, #63
 2018 018c 05D8     		bhi	.L155
 244:../../libdaisy/src/dev/oled_ssd130x.h ****         else
 2019              		.loc 13 244 42 view .LVU418
 2020 018e 1E78     		ldrb	r6, [r3]	@ zero_extendqisi2
 243:../../libdaisy/src/dev/oled_ssd130x.h ****             buffer_[x + (y / 8) * width] |= (1 << (y % 8));
 2021              		.loc 13 243 9 view .LVU419
ARM GAS  /tmp/ccMpf4Yo.s 			page 71


 2022 0190 B9F1000F 		cmp	r9, #0
 2023 0194 12D0     		beq	.L157
 2024              	.L190:
 243:../../libdaisy/src/dev/oled_ssd130x.h ****             buffer_[x + (y / 8) * width] |= (1 << (y % 8));
 2025              		.loc 13 243 9 view .LVU420
 2026              	.LBE1013:
 2027              	.LBE1012:
 2028              	.LBE1011:
 2029              	.LBB1014:
 2030              	.LBB1006:
 2031              	.LBB1001:
 244:../../libdaisy/src/dev/oled_ssd130x.h ****         else
 2032              		.loc 13 244 42 view .LVU421
 2033 0196 1643     		orrs	r6, r6, r2
 244:../../libdaisy/src/dev/oled_ssd130x.h ****         else
 2034              		.loc 13 244 13 view .LVU422
 2035 0198 1E70     		strb	r6, [r3]
 2036              	.L155:
 2037              	.LBE1001:
 2038              	.LBE1006:
 2039              	.LBE1014:
 416:../../libdaisy/src/hid/disp/display.h ****             {
 2040              		.loc 6 416 13 is_stmt 1 view .LVU423
 2041 019a 0130     		adds	r0, r0, #1
 2042              	.LVL146:
 416:../../libdaisy/src/hid/disp/display.h ****             {
 2043              		.loc 6 416 26 view .LVU424
 2044 019c 0133     		adds	r3, r3, #1
 2045 019e 0135     		adds	r5, r5, #1
 2046 01a0 8442     		cmp	r4, r0
 2047 01a2 14D0     		beq	.L158
 2048              	.LVL147:
 2049              	.L159:
 418:../../libdaisy/src/hid/disp/display.h ****                 {
 2050              		.loc 6 418 23 is_stmt 0 view .LVU425
 2051 01a4 0AFA00F6 		lsl	r6, r10, r0
 418:../../libdaisy/src/hid/disp/display.h ****                 {
 2052              		.loc 6 418 17 view .LVU426
 2053 01a8 3604     		lsls	r6, r6, #16
 2054 01aa ECD4     		bmi	.L196
 2055              	.LVL148:
 2056              	.LBB1015:
 2057              	.LBI988:
  41:../../libdaisy/src/hid/disp/oled_display.h ****     {
 2058              		.loc 5 41 10 is_stmt 1 view .LVU427
 2059              	.LBB1007:
 2060              	.LBI989:
 239:../../libdaisy/src/dev/oled_ssd130x.h ****     {
 2061              		.loc 13 239 10 view .LVU428
 2062              	.LBB1002:
 241:../../libdaisy/src/dev/oled_ssd130x.h ****             return;
 2063              		.loc 13 241 9 is_stmt 0 view .LVU429
 2064 01ac 7F2D     		cmp	r5, #127
 2065 01ae F4D8     		bhi	.L155
 2066 01b0 3F29     		cmp	r1, #63
 2067 01b2 F2D8     		bhi	.L155
 244:../../libdaisy/src/dev/oled_ssd130x.h ****         else
ARM GAS  /tmp/ccMpf4Yo.s 			page 72


 2068              		.loc 13 244 42 view .LVU430
 2069 01b4 1E78     		ldrb	r6, [r3]	@ zero_extendqisi2
 243:../../libdaisy/src/dev/oled_ssd130x.h ****             buffer_[x + (y / 8) * width] |= (1 << (y % 8));
 2070              		.loc 13 243 9 view .LVU431
 2071 01b6 B9F1000F 		cmp	r9, #0
 2072 01ba ECD0     		beq	.L190
 2073              	.L157:
 2074              	.LVL149:
 2075              	.LBB997:
 2076              	.LBI991:
 239:../../libdaisy/src/dev/oled_ssd130x.h ****     {
 2077              		.loc 13 239 10 is_stmt 1 view .LVU432
 239:../../libdaisy/src/dev/oled_ssd130x.h ****     {
 2078              		.loc 13 239 10 is_stmt 0 view .LVU433
 2079              	.LBE997:
 2080              	.LBE1002:
 2081              	.LBE1007:
 2082              	.LBE1015:
 416:../../libdaisy/src/hid/disp/display.h ****             {
 2083              		.loc 6 416 13 view .LVU434
 2084 01bc 0130     		adds	r0, r0, #1
 2085              	.LVL150:
 2086              	.LBB1016:
 2087              	.LBB1008:
 2088              	.LBB1003:
 2089              	.LBB998:
 2090              	.LBB994:
 246:../../libdaisy/src/dev/oled_ssd130x.h ****     }
 2091              		.loc 13 246 42 view .LVU435
 2092 01be 0EEA0606 		and	r6, lr, r6
 2093 01c2 0133     		adds	r3, r3, #1
 2094 01c4 0135     		adds	r5, r5, #1
 2095              	.LBE994:
 2096              	.LBE998:
 2097              	.LBE1003:
 2098              	.LBE1008:
 2099              	.LBE1016:
 416:../../libdaisy/src/hid/disp/display.h ****             {
 2100              		.loc 6 416 26 view .LVU436
 2101 01c6 8442     		cmp	r4, r0
 2102              	.LBB1017:
 2103              	.LBB1009:
 2104              	.LBB1004:
 2105              	.LBB999:
 2106              	.LBB995:
 246:../../libdaisy/src/dev/oled_ssd130x.h ****     }
 2107              		.loc 13 246 13 view .LVU437
 2108 01c8 03F8016C 		strb	r6, [r3, #-1]
 246:../../libdaisy/src/dev/oled_ssd130x.h ****     }
 2109              		.loc 13 246 13 view .LVU438
 2110              	.LBE995:
 2111              	.LBE999:
 2112              	.LBE1004:
 2113              	.LBE1009:
 2114              	.LBE1017:
 416:../../libdaisy/src/hid/disp/display.h ****             {
 2115              		.loc 6 416 13 is_stmt 1 view .LVU439
ARM GAS  /tmp/ccMpf4Yo.s 			page 73


 2116              	.LVL151:
 416:../../libdaisy/src/hid/disp/display.h ****             {
 2117              		.loc 6 416 26 view .LVU440
 2118 01cc EAD1     		bne	.L159
 2119              	.LVL152:
 2120              	.L158:
 413:../../libdaisy/src/hid/disp/display.h ****         {
 2121              		.loc 6 413 9 view .LVU441
 413:../../libdaisy/src/hid/disp/display.h ****         {
 2122              		.loc 6 413 22 view .LVU442
 2123 01ce B845     		cmp	r8, r7
 2124 01d0 01F10101 		add	r1, r1, #1
 2125 01d4 C3D1     		bne	.L153
 2126 01d6 5B46     		mov	r3, fp
 2127 01d8 059E     		ldr	r6, [sp, #20]
 2128 01da A346     		mov	fp, r4
 2129              	.LVL153:
 413:../../libdaisy/src/hid/disp/display.h ****         {
 2130              		.loc 6 413 22 is_stmt 0 view .LVU443
 2131 01dc DDF81880 		ldr	r8, [sp, #24]
 2132 01e0 1C46     		mov	r4, r3
 2133              	.LVL154:
 2134              	.L152:
 2135              	.LBB1018:
 2136              	.LBB1019:
 173:../../libdaisy/src/hid/disp/display.h ****         currentY_ = (y >= Height()) ? Height() - 1 : y;
 2137              		.loc 6 173 33 view .LVU444
 2138 01e2 2268     		ldr	r2, [r4]
 2139              	.LBE1019:
 2140              	.LBE1018:
 434:../../libdaisy/src/hid/disp/display.h **** 
 2141              		.loc 6 434 18 view .LVU445
 2142 01e4 DC44     		add	ip, ip, fp
 2143 01e6 0199     		ldr	r1, [sp, #4]
 2144              	.LBB1023:
 2145              	.LBB1020:
 173:../../libdaisy/src/hid/disp/display.h ****         currentY_ = (y >= Height()) ? Height() - 1 : y;
 2146              		.loc 6 173 33 view .LVU446
 2147 01e8 D368     		ldr	r3, [r2, #12]
 2148              	.LBE1020:
 2149              	.LBE1023:
 434:../../libdaisy/src/hid/disp/display.h **** 
 2150              		.loc 6 434 18 view .LVU447
 2151 01ea 1FFA8CF5 		uxth	r5, ip
 2152              	.LVL155:
 2153              	.LBB1024:
 2154              	.LBI1018:
 171:../../libdaisy/src/hid/disp/display.h ****     {
 2155              		.loc 6 171 10 is_stmt 1 view .LVU448
 2156              	.LBB1021:
 173:../../libdaisy/src/hid/disp/display.h ****         currentY_ = (y >= Height()) ? Height() - 1 : y;
 2157              		.loc 6 173 9 view .LVU449
 2158 01ee 8B42     		cmp	r3, r1
 2159 01f0 40F0C280 		bne	.L197
 173:../../libdaisy/src/hid/disp/display.h ****         currentY_ = (y >= Height()) ? Height() - 1 : y;
 2160              		.loc 6 173 33 is_stmt 0 view .LVU450
 2161 01f4 8020     		movs	r0, #128
ARM GAS  /tmp/ccMpf4Yo.s 			page 74


 2162              	.L160:
 173:../../libdaisy/src/hid/disp/display.h ****         currentY_ = (y >= Height()) ? Height() - 1 : y;
 2163              		.loc 6 173 19 view .LVU451
 2164 01f6 8542     		cmp	r5, r0
 2165 01f8 05D3     		bcc	.L161
 173:../../libdaisy/src/hid/disp/display.h ****         currentY_ = (y >= Height()) ? Height() - 1 : y;
 2166              		.loc 6 173 44 view .LVU452
 2167 01fa D368     		ldr	r3, [r2, #12]
 2168 01fc 0199     		ldr	r1, [sp, #4]
 2169 01fe 8B42     		cmp	r3, r1
 2170 0200 40F0C780 		bne	.L198
 2171 0204 7F25     		movs	r5, #127
 2172              	.LVL156:
 2173              	.L161:
 174:../../libdaisy/src/hid/disp/display.h ****     }
 2174              		.loc 6 174 34 view .LVU453
 2175 0206 9368     		ldr	r3, [r2, #8]
 2176 0208 039A     		ldr	r2, [sp, #12]
 173:../../libdaisy/src/hid/disp/display.h ****         currentY_ = (y >= Height()) ? Height() - 1 : y;
 2177              		.loc 6 173 19 view .LVU454
 2178 020a A580     		strh	r5, [r4, #4]	@ movhi
 174:../../libdaisy/src/hid/disp/display.h ****     }
 2179              		.loc 6 174 9 is_stmt 1 view .LVU455
 2180 020c 9342     		cmp	r3, r2
 2181 020e 40F0B080 		bne	.L199
 174:../../libdaisy/src/hid/disp/display.h ****     }
 2182              		.loc 6 174 34 is_stmt 0 view .LVU456
 2183 0212 4020     		movs	r0, #64
 2184              	.L163:
 174:../../libdaisy/src/hid/disp/display.h ****     }
 2185              		.loc 6 174 19 view .LVU457
 2186 0214 029B     		ldr	r3, [sp, #8]
 2187 0216 8342     		cmp	r3, r0
 2188 0218 07D3     		bcc	.L164
 174:../../libdaisy/src/hid/disp/display.h ****     }
 2189              		.loc 6 174 46 view .LVU458
 2190 021a 2368     		ldr	r3, [r4]
 2191 021c 039A     		ldr	r2, [sp, #12]
 2192 021e 9B68     		ldr	r3, [r3, #8]
 2193 0220 9342     		cmp	r3, r2
 2194 0222 40F0B080 		bne	.L200
 2195 0226 3F23     		movs	r3, #63
 2196 0228 0293     		str	r3, [sp, #8]
 2197              	.LVL157:
 2198              	.L164:
 174:../../libdaisy/src/hid/disp/display.h ****     }
 2199              		.loc 6 174 19 view .LVU459
 2200 022a 029B     		ldr	r3, [sp, #8]
 2201 022c E380     		strh	r3, [r4, #6]	@ movhi
 2202              	.LVL158:
 2203              	.L146:
 174:../../libdaisy/src/hid/disp/display.h ****     }
 2204              		.loc 6 174 19 view .LVU460
 2205              	.LBE1021:
 2206              	.LBE1024:
 2207              	.LBE987:
 2208              	.LBE986:
ARM GAS  /tmp/ccMpf4Yo.s 			page 75


 445:../../libdaisy/src/hid/disp/display.h ****                != *str)
 2209              		.loc 6 445 13 view .LVU461
 2210 022e 98F80030 		ldrb	r3, [r8]	@ zero_extendqisi2
 2211 0232 B342     		cmp	r3, r6
 2212 0234 04D1     		bne	.L114
 2213              	.LVL159:
 443:../../libdaisy/src/hid/disp/display.h ****         {
 2214              		.loc 6 443 9 is_stmt 1 view .LVU462
 2215 0236 18F8016F 		ldrb	r6, [r8, #1]!	@ zero_extendqisi2
 2216              	.LVL160:
 443:../../libdaisy/src/hid/disp/display.h ****         {
 2217              		.loc 6 443 9 is_stmt 0 view .LVU463
 2218 023a 002E     		cmp	r6, #0
 2219 023c 7FF453AF 		bne	.L144
 2220              	.LVL161:
 2221              	.L114:
 443:../../libdaisy/src/hid/disp/display.h ****         {
 2222              		.loc 6 443 9 view .LVU464
 2223              	.LBE1028:
 2224              	.LBE984:
 471:../../libdaisy/src/hid/disp/display.h **** 
 2225              		.loc 6 471 5 view .LVU465
 2226 0240 0998     		ldr	r0, [sp, #36]
 2227 0242 0BB0     		add	sp, sp, #44
 2228              		.cfi_remember_state
 2229              		.cfi_def_cfa_offset 36
 2230              		@ sp needed
 2231 0244 BDE8F08F 		pop	{r4, r5, r6, r7, r8, r9, r10, fp, pc}
 2232              	.LVL162:
 2233              	.L127:
 2234              		.cfi_restore_state
 2235              	.LBB1030:
 2236              	.LBB964:
 250:../../libdaisy/src/hid/disp/graphics_common.h ****                 return {int16_t(x_ + (other.GetCenterX() - GetCenterX())),
 2237              		.loc 14 250 13 is_stmt 1 view .LVU466
 251:../../libdaisy/src/hid/disp/graphics_common.h ****                         int16_t(y_ + (other.GetCenterY() - GetCenterY())),
 2238              		.loc 14 251 17 view .LVU467
 2239              	.LBB795:
 2240              	.LBI795:
  62:../../libdaisy/src/hid/disp/graphics_common.h ****     int16_t GetCenterY() const { return y_ + height_ / 2; }
 2241              		.loc 14 62 13 view .LVU468
 2242              	.LBB796:
  62:../../libdaisy/src/hid/disp/graphics_common.h ****     int16_t GetCenterY() const { return y_ + height_ / 2; }
 2243              		.loc 14 62 34 view .LVU469
  62:../../libdaisy/src/hid/disp/graphics_common.h ****     int16_t GetCenterY() const { return y_ + height_ / 2; }
 2244              		.loc 14 62 34 is_stmt 0 view .LVU470
 2245              	.LBE796:
 2246              	.LBE795:
 2247              	.LBB800:
 2248              	.LBI800:
  62:../../libdaisy/src/hid/disp/graphics_common.h ****     int16_t GetCenterY() const { return y_ + height_ / 2; }
 2249              		.loc 14 62 13 is_stmt 1 view .LVU471
 2250              	.LBB801:
  62:../../libdaisy/src/hid/disp/graphics_common.h ****     int16_t GetCenterY() const { return y_ + height_ / 2; }
 2251              		.loc 14 62 34 view .LVU472
 2252              	.LBE801:
 2253              	.LBE800:
ARM GAS  /tmp/ccMpf4Yo.s 			page 76


 2254              	.LBB802:
 2255              	.LBB797:
  62:../../libdaisy/src/hid/disp/graphics_common.h ****     int16_t GetCenterY() const { return y_ + height_ / 2; }
 2256              		.loc 14 62 53 is_stmt 0 view .LVU473
 2257 0248 B6F90400 		ldrsh	r0, [r6, #4]
  62:../../libdaisy/src/hid/disp/graphics_common.h ****     int16_t GetCenterY() const { return y_ + height_ / 2; }
 2258              		.loc 14 62 44 view .LVU474
 2259 024c 3788     		ldrh	r7, [r6]
  62:../../libdaisy/src/hid/disp/graphics_common.h ****     int16_t GetCenterY() const { return y_ + height_ / 2; }
 2260              		.loc 14 62 53 view .LVU475
 2261 024e 0028     		cmp	r0, #0
 2262              	.LBE797:
 2263              	.LBE802:
 2264              	.LBB803:
 2265              	.LBB776:
  63:../../libdaisy/src/hid/disp/graphics_common.h **** 
 2266              		.loc 14 63 54 view .LVU476
 2267 0250 B6F90630 		ldrsh	r3, [r6, #6]
 2268              	.LVL163:
  63:../../libdaisy/src/hid/disp/graphics_common.h **** 
 2269              		.loc 14 63 54 view .LVU477
 2270              	.LBE776:
 2271              	.LBE803:
 2272              	.LBB804:
 2273              	.LBB798:
  62:../../libdaisy/src/hid/disp/graphics_common.h ****     int16_t GetCenterY() const { return y_ + height_ / 2; }
 2274              		.loc 14 62 53 view .LVU478
 2275 0254 B8BF     		it	lt
 2276 0256 0130     		addlt	r0, r0, #1
 2277              	.LBE798:
 2278              	.LBE804:
 2279              	.LBB805:
 2280              	.LBB777:
  63:../../libdaisy/src/hid/disp/graphics_common.h **** 
 2281              		.loc 14 63 54 view .LVU479
 2282 0258 002B     		cmp	r3, #0
 2283              	.LBE777:
 2284              	.LBE805:
 2285              	.LBB806:
 2286              	.LBB799:
  62:../../libdaisy/src/hid/disp/graphics_common.h ****     int16_t GetCenterY() const { return y_ + height_ / 2; }
 2287              		.loc 14 62 44 view .LVU480
 2288 025a 07EB6007 		add	r7, r7, r0, asr #1
 2289              	.LBE799:
 2290              	.LBE806:
 251:../../libdaisy/src/hid/disp/graphics_common.h ****                         int16_t(y_ + (other.GetCenterY() - GetCenterY())),
 2291              		.loc 14 251 58 view .LVU481
 2292 025e A7EB6207 		sub	r7, r7, r2, asr #1
 2293 0262 BFB2     		uxth	r7, r7
 2294              	.LBB807:
 2295              	.LBI773:
  63:../../libdaisy/src/hid/disp/graphics_common.h **** 
 2296              		.loc 14 63 13 is_stmt 1 view .LVU482
 2297              	.LVL164:
 2298              	.LBB778:
  63:../../libdaisy/src/hid/disp/graphics_common.h **** 
 2299              		.loc 14 63 34 view .LVU483
ARM GAS  /tmp/ccMpf4Yo.s 			page 77


  63:../../libdaisy/src/hid/disp/graphics_common.h **** 
 2300              		.loc 14 63 34 is_stmt 0 view .LVU484
 2301              	.LBE778:
 2302              	.LBE807:
 2303              	.LBB808:
 2304              	.LBI808:
  63:../../libdaisy/src/hid/disp/graphics_common.h **** 
 2305              		.loc 14 63 13 is_stmt 1 view .LVU485
 2306              	.LBB809:
  63:../../libdaisy/src/hid/disp/graphics_common.h **** 
 2307              		.loc 14 63 34 view .LVU486
 2308              	.LBE809:
 2309              	.LBE808:
 2310              	.LBB810:
 2311              	.LBB779:
  63:../../libdaisy/src/hid/disp/graphics_common.h **** 
 2312              		.loc 14 63 54 is_stmt 0 view .LVU487
 2313 0264 BFF604AF 		bge	.L134
 2314              	.LVL165:
 2315              	.L191:
  63:../../libdaisy/src/hid/disp/graphics_common.h **** 
 2316              		.loc 14 63 54 view .LVU488
 2317 0268 0133     		adds	r3, r3, #1
 2318 026a 01E7     		b	.L134
 2319              	.LVL166:
 2320              	.L126:
  63:../../libdaisy/src/hid/disp/graphics_common.h **** 
 2321              		.loc 14 63 54 view .LVU489
 2322              	.LBE779:
 2323              	.LBE810:
 213:../../libdaisy/src/hid/disp/graphics_common.h ****                 return {other.x_, other.y_, width_, height_};
 2324              		.loc 14 213 13 is_stmt 1 view .LVU490
 214:../../libdaisy/src/hid/disp/graphics_common.h ****             case Alignment::topRight:
 2325              		.loc 14 214 17 view .LVU491
 214:../../libdaisy/src/hid/disp/graphics_common.h ****             case Alignment::topRight:
 2326              		.loc 14 214 31 is_stmt 0 view .LVU492
 2327 026c B6F90070 		ldrsh	r7, [r6]
 2328              	.LBB811:
 2329              	.LBB812:
 2330              	.LBB813:
  32:../../libdaisy/src/hid/disp/graphics_common.h ****     {
 2331              		.loc 14 32 66 view .LVU493
 2332 0270 099B     		ldr	r3, [sp, #36]
 2333              	.LVL167:
  32:../../libdaisy/src/hid/disp/graphics_common.h ****     {
 2334              		.loc 14 32 66 view .LVU494
 2335              	.LBE813:
 2336              	.LBE812:
 2337              	.LBE811:
 214:../../libdaisy/src/hid/disp/graphics_common.h ****             case Alignment::topRight:
 2338              		.loc 14 214 41 view .LVU495
 2339 0272 B6F90260 		ldrsh	r6, [r6, #2]
 2340              	.LVL168:
 2341              	.LBB822:
 2342              	.LBI811:
  31:../../libdaisy/src/hid/disp/graphics_common.h ****     : x_(x), y_(y), width_(max(0, width)), height_(max(0, height))
 2343              		.loc 14 31 5 is_stmt 1 view .LVU496
ARM GAS  /tmp/ccMpf4Yo.s 			page 78


 2344              	.LBB819:
 2345              	.LBB816:
  32:../../libdaisy/src/hid/disp/graphics_common.h ****     {
 2346              		.loc 14 32 66 is_stmt 0 view .LVU497
 2347 0276 1F80     		strh	r7, [r3]	@ movhi
 2348 0278 BFB2     		uxth	r7, r7
 2349              	.LVL169:
  32:../../libdaisy/src/hid/disp/graphics_common.h ****     {
 2350              		.loc 14 32 66 view .LVU498
 2351 027a 5E80     		strh	r6, [r3, #2]	@ movhi
 2352              	.LVL170:
 2353              	.LBB814:
 2354              	.LBI814:
 2355              		.loc 14 261 13 is_stmt 1 view .LVU499
 2356              		.loc 14 261 13 is_stmt 0 view .LVU500
 2357              	.LBE814:
 2358              	.LBE816:
 2359              	.LBE819:
 2360              	.LBE822:
 2361              	.LBE964:
 2362              	.LBE1030:
 2363              		.loc 14 261 41 is_stmt 1 view .LVU501
 2364              		.loc 14 261 41 is_stmt 0 view .LVU502
 2365 027c B6B2     		uxth	r6, r6
 2366              	.LVL171:
 2367              	.LBB1031:
 2368              	.LBB965:
 2369              	.LBB823:
 2370              	.LBB820:
 2371              	.LBB817:
  32:../../libdaisy/src/hid/disp/graphics_common.h ****     {
 2372              		.loc 14 32 66 view .LVU503
 2373 027e 9A80     		strh	r2, [r3, #4]	@ movhi
 2374              	.LVL172:
 2375              	.LBB815:
 2376              	.LBI815:
 2377              		.loc 14 261 13 is_stmt 1 view .LVU504
 2378              		.loc 14 261 13 is_stmt 0 view .LVU505
 2379              	.LBE815:
 2380              	.LBE817:
 2381              	.LBE820:
 2382              	.LBE823:
 2383              	.LBE965:
 2384              	.LBE1031:
 2385              		.loc 14 261 41 is_stmt 1 view .LVU506
 2386              	.LBB1032:
 2387              	.LBB966:
 2388              	.LBB824:
 2389              	.LBB821:
 2390              	.LBB818:
  32:../../libdaisy/src/hid/disp/graphics_common.h ****     {
 2391              		.loc 14 32 66 is_stmt 0 view .LVU507
 2392 0280 D980     		strh	r1, [r3, #6]	@ movhi
 2393              	.LBE818:
  34:../../libdaisy/src/hid/disp/graphics_common.h **** 
 2394              		.loc 14 34 5 view .LVU508
 2395 0282 02E7     		b	.L128
ARM GAS  /tmp/ccMpf4Yo.s 			page 79


 2396              	.LVL173:
 2397              	.L125:
  34:../../libdaisy/src/hid/disp/graphics_common.h **** 
 2398              		.loc 14 34 5 view .LVU509
 2399              	.LBE821:
 2400              	.LBE824:
 220:../../libdaisy/src/hid/disp/graphics_common.h ****                 return {int16_t(x_ + (other.GetCenterX() - GetCenterX())),
 2401              		.loc 14 220 13 is_stmt 1 view .LVU510
 221:../../libdaisy/src/hid/disp/graphics_common.h ****                         other.y_,
 2402              		.loc 14 221 17 view .LVU511
 2403              	.LBB825:
 2404              	.LBI825:
  62:../../libdaisy/src/hid/disp/graphics_common.h ****     int16_t GetCenterY() const { return y_ + height_ / 2; }
 2405              		.loc 14 62 13 view .LVU512
 2406              	.LBB826:
  62:../../libdaisy/src/hid/disp/graphics_common.h ****     int16_t GetCenterY() const { return y_ + height_ / 2; }
 2407              		.loc 14 62 34 view .LVU513
  62:../../libdaisy/src/hid/disp/graphics_common.h ****     int16_t GetCenterY() const { return y_ + height_ / 2; }
