ARM GAS  /tmp/cceRX0y9.s 			page 1


   1              		.cpu cortex-m7
   2              		.eabi_attribute 28, 1
   3              		.eabi_attribute 20, 1
   4              		.eabi_attribute 21, 1
   5              		.eabi_attribute 23, 3
   6              		.eabi_attribute 24, 1
   7              		.eabi_attribute 25, 1
   8              		.eabi_attribute 26, 1
   9              		.eabi_attribute 30, 2
  10              		.eabi_attribute 34, 1
  11              		.eabi_attribute 18, 4
  12              		.file	"QuadEnvelope.cpp"
  13              		.text
  14              	.Ltext0:
  15              		.cfi_sections	.debug_frame
  16              		.section	.text._ZN5daisy10DaisyPatchD2Ev,"axG",%progbits,_ZN5daisy10DaisyPatchD5Ev,comdat
  17              		.align	1
  18              		.p2align 2,,3
  19              		.weak	_ZN5daisy10DaisyPatchD2Ev
  20              		.arch armv7e-m
  21              		.syntax unified
  22              		.thumb
  23              		.thumb_func
  24              		.fpu fpv5-d16
  26              	_ZN5daisy10DaisyPatchD2Ev:
  27              	.LVL0:
  28              	.LFB2060:
  29              		.file 1 "../../libdaisy/src/daisy_patch.h"
   1:../../libdaisy/src/daisy_patch.h **** #pragma once
   2:../../libdaisy/src/daisy_patch.h **** #ifndef DSY_PATCH_BSP_H
   3:../../libdaisy/src/daisy_patch.h **** #define DSY_PATCH_BSP_H
   4:../../libdaisy/src/daisy_patch.h **** #include "daisy_seed.h"
   5:../../libdaisy/src/daisy_patch.h **** #include "dev/oled_ssd130x.h"
   6:../../libdaisy/src/daisy_patch.h **** 
   7:../../libdaisy/src/daisy_patch.h **** namespace daisy
   8:../../libdaisy/src/daisy_patch.h **** {
   9:../../libdaisy/src/daisy_patch.h **** /**
  10:../../libdaisy/src/daisy_patch.h ****     @brief Class that handles initializing all of the hardware specific to the Daisy Patch Board. \
  11:../../libdaisy/src/daisy_patch.h ****     Helper funtions are also in place to provide easy access to built-in controls and peripherals.
  12:../../libdaisy/src/daisy_patch.h ****     @author Stephen Hensley
  13:../../libdaisy/src/daisy_patch.h ****     @date November 2019
  14:../../libdaisy/src/daisy_patch.h ****     @ingroup boards
  15:../../libdaisy/src/daisy_patch.h **** */
  16:../../libdaisy/src/daisy_patch.h **** class DaisyPatch
  17:../../libdaisy/src/daisy_patch.h **** {
  18:../../libdaisy/src/daisy_patch.h ****   public:
  19:../../libdaisy/src/daisy_patch.h ****     /** Enum of Ctrls to represent the four CV/Knob combos on the Patch
  20:../../libdaisy/src/daisy_patch.h ****      */
  21:../../libdaisy/src/daisy_patch.h ****     enum Ctrl
  22:../../libdaisy/src/daisy_patch.h ****     {
  23:../../libdaisy/src/daisy_patch.h ****         CTRL_1,    /**< */
  24:../../libdaisy/src/daisy_patch.h ****         CTRL_2,    /**< */
  25:../../libdaisy/src/daisy_patch.h ****         CTRL_3,    /**< */
  26:../../libdaisy/src/daisy_patch.h ****         CTRL_4,    /**< */
  27:../../libdaisy/src/daisy_patch.h ****         CTRL_LAST, /**< */
  28:../../libdaisy/src/daisy_patch.h ****     };
  29:../../libdaisy/src/daisy_patch.h **** 
ARM GAS  /tmp/cceRX0y9.s 			page 2


  30:../../libdaisy/src/daisy_patch.h ****     /** Daisy patch gate inputs */
  31:../../libdaisy/src/daisy_patch.h ****     enum GateInput
  32:../../libdaisy/src/daisy_patch.h ****     {
  33:../../libdaisy/src/daisy_patch.h ****         GATE_IN_1,    /**< */
  34:../../libdaisy/src/daisy_patch.h ****         GATE_IN_2,    /** <*/
  35:../../libdaisy/src/daisy_patch.h ****         GATE_IN_LAST, /**< */
  36:../../libdaisy/src/daisy_patch.h ****     };
  37:../../libdaisy/src/daisy_patch.h **** 
  38:../../libdaisy/src/daisy_patch.h ****     /** Constructor */
  39:../../libdaisy/src/daisy_patch.h ****     DaisyPatch() {}
  40:../../libdaisy/src/daisy_patch.h ****     /** Destructor */
  41:../../libdaisy/src/daisy_patch.h ****     ~DaisyPatch() {}
  30              		.loc 1 41 5 view -0
  31              		.cfi_startproc
  32              		@ args = 0, pretend = 0, frame = 0
  33              		@ frame_needed = 0, uses_anonymous_args = 0
  34              		@ link register save eliminated.
  35              	.LBB769:
  36              	.LBI769:
  37              		.file 2 "../../libdaisy/src/hid/disp/oled_display.h"
   1:../../libdaisy/src/hid/disp/oled_display.h **** #pragma once
   2:../../libdaisy/src/hid/disp/oled_display.h **** #ifndef DSY_OLED_DISPLAY_H
   3:../../libdaisy/src/hid/disp/oled_display.h **** #define DSY_OLED_DISPLAY_H /**< Macro */
   4:../../libdaisy/src/hid/disp/oled_display.h **** 
   5:../../libdaisy/src/hid/disp/oled_display.h **** #include "display.h"
   6:../../libdaisy/src/hid/disp/oled_display.h **** 
   7:../../libdaisy/src/hid/disp/oled_display.h **** namespace daisy
   8:../../libdaisy/src/hid/disp/oled_display.h **** {
   9:../../libdaisy/src/hid/disp/oled_display.h **** /** 
  10:../../libdaisy/src/hid/disp/oled_display.h ****  * This class is for drawing to a monochrome OLED display. 
  11:../../libdaisy/src/hid/disp/oled_display.h **** */
  12:../../libdaisy/src/hid/disp/oled_display.h **** template <typename DisplayDriver>
  13:../../libdaisy/src/hid/disp/oled_display.h **** class OledDisplay : public OneBitGraphicsDisplayImpl<OledDisplay<DisplayDriver>>
  14:../../libdaisy/src/hid/disp/oled_display.h **** {
  15:../../libdaisy/src/hid/disp/oled_display.h ****   public:
  16:../../libdaisy/src/hid/disp/oled_display.h ****     OledDisplay() {}
  17:../../libdaisy/src/hid/disp/oled_display.h ****     virtual ~OledDisplay() {}
  38              		.loc 2 17 13 view .LVU1
  39              	.LBB770:
  40              	.LBI770:
  41              		.file 3 "../../libdaisy/src/hid/disp/display.h"
   1:../../libdaisy/src/hid/disp/display.h **** #pragma once
   2:../../libdaisy/src/hid/disp/display.h **** #ifndef DSY_DISPLAY_H
   3:../../libdaisy/src/hid/disp/display.h **** #define DSY_DISPLAY_H /**< Macro */
   4:../../libdaisy/src/hid/disp/display.h **** #include <cmath>
   5:../../libdaisy/src/hid/disp/display.h **** #include "util/oled_fonts.h"
   6:../../libdaisy/src/hid/disp/display.h **** #include "daisy_core.h"
   7:../../libdaisy/src/hid/disp/display.h **** #include "graphics_common.h"
   8:../../libdaisy/src/hid/disp/display.h **** 
   9:../../libdaisy/src/hid/disp/display.h **** #ifndef deg2rad
  10:../../libdaisy/src/hid/disp/display.h **** #define deg2rad(deg) ((deg)*3.141592 / 180.0)
  11:../../libdaisy/src/hid/disp/display.h **** #endif
  12:../../libdaisy/src/hid/disp/display.h **** 
  13:../../libdaisy/src/hid/disp/display.h **** namespace daisy
  14:../../libdaisy/src/hid/disp/display.h **** {
  15:../../libdaisy/src/hid/disp/display.h **** /** 
  16:../../libdaisy/src/hid/disp/display.h ****  * This interface is used as a base class for all types of 1bit-per-pixel
ARM GAS  /tmp/cceRX0y9.s 			page 3


  17:../../libdaisy/src/hid/disp/display.h ****  * graphics displays.
  18:../../libdaisy/src/hid/disp/display.h **** */
  19:../../libdaisy/src/hid/disp/display.h **** class OneBitGraphicsDisplay
  20:../../libdaisy/src/hid/disp/display.h **** {
  21:../../libdaisy/src/hid/disp/display.h ****   public:
  22:../../libdaisy/src/hid/disp/display.h ****     OneBitGraphicsDisplay() {}
  23:../../libdaisy/src/hid/disp/display.h ****     virtual ~OneBitGraphicsDisplay() {}
  24:../../libdaisy/src/hid/disp/display.h **** 
  25:../../libdaisy/src/hid/disp/display.h ****     virtual uint16_t Height() const = 0;
  26:../../libdaisy/src/hid/disp/display.h ****     virtual uint16_t Width() const  = 0;
  27:../../libdaisy/src/hid/disp/display.h **** 
  28:../../libdaisy/src/hid/disp/display.h ****     Rectangle GetBounds() const
  29:../../libdaisy/src/hid/disp/display.h ****     {
  30:../../libdaisy/src/hid/disp/display.h ****         return Rectangle(int16_t(Width()), int16_t(Height()));
  31:../../libdaisy/src/hid/disp/display.h ****     }
  32:../../libdaisy/src/hid/disp/display.h **** 
  33:../../libdaisy/src/hid/disp/display.h **** 
  34:../../libdaisy/src/hid/disp/display.h ****     size_t CurrentX() { return currentX_; };
  35:../../libdaisy/src/hid/disp/display.h ****     size_t CurrentY() { return currentY_; };
  36:../../libdaisy/src/hid/disp/display.h **** 
  37:../../libdaisy/src/hid/disp/display.h ****     /** 
  38:../../libdaisy/src/hid/disp/display.h ****     Fills the entire display with either on/off.
  39:../../libdaisy/src/hid/disp/display.h ****     \param on Sets on or off.
  40:../../libdaisy/src/hid/disp/display.h ****     */
  41:../../libdaisy/src/hid/disp/display.h ****     virtual void Fill(bool on) = 0;
  42:../../libdaisy/src/hid/disp/display.h **** 
  43:../../libdaisy/src/hid/disp/display.h ****     /**
  44:../../libdaisy/src/hid/disp/display.h ****     Sets the pixel at the specified coordinate to be on/off.
  45:../../libdaisy/src/hid/disp/display.h ****     \param x   x Coordinate
  46:../../libdaisy/src/hid/disp/display.h ****     \param y   y coordinate
  47:../../libdaisy/src/hid/disp/display.h ****     \param on  on or off
  48:../../libdaisy/src/hid/disp/display.h ****     */
  49:../../libdaisy/src/hid/disp/display.h ****     virtual void DrawPixel(uint_fast8_t x, uint_fast8_t y, bool on) = 0;
  50:../../libdaisy/src/hid/disp/display.h **** 
  51:../../libdaisy/src/hid/disp/display.h ****     /**
  52:../../libdaisy/src/hid/disp/display.h ****     Draws a line from (x1, y1) to (y1, y2)
  53:../../libdaisy/src/hid/disp/display.h ****     \param x1  x Coordinate of the starting point
  54:../../libdaisy/src/hid/disp/display.h ****     \param y1  y Coordinate of the starting point
  55:../../libdaisy/src/hid/disp/display.h ****     \param x2  x Coordinate of the ending point
  56:../../libdaisy/src/hid/disp/display.h ****     \param y2  y Coordinate of the ending point
  57:../../libdaisy/src/hid/disp/display.h ****     \param on  on or off
  58:../../libdaisy/src/hid/disp/display.h ****     */
  59:../../libdaisy/src/hid/disp/display.h ****     virtual void DrawLine(uint_fast8_t x1,
  60:../../libdaisy/src/hid/disp/display.h ****                           uint_fast8_t y1,
  61:../../libdaisy/src/hid/disp/display.h ****                           uint_fast8_t x2,
  62:../../libdaisy/src/hid/disp/display.h ****                           uint_fast8_t y2,
  63:../../libdaisy/src/hid/disp/display.h ****                           bool         on)
  64:../../libdaisy/src/hid/disp/display.h ****         = 0;
  65:../../libdaisy/src/hid/disp/display.h **** 
  66:../../libdaisy/src/hid/disp/display.h ****     /**
  67:../../libdaisy/src/hid/disp/display.h ****     Draws a rectangle based on two coordinates.
  68:../../libdaisy/src/hid/disp/display.h ****     \param x1 x Coordinate of the first point
  69:../../libdaisy/src/hid/disp/display.h ****     \param y1 y Coordinate of the first point
  70:../../libdaisy/src/hid/disp/display.h ****     \param x2 x Coordinate of the second point
  71:../../libdaisy/src/hid/disp/display.h ****     \param y2 y Coordinate of the second point
  72:../../libdaisy/src/hid/disp/display.h ****     \param on on or off
  73:../../libdaisy/src/hid/disp/display.h ****     \param fill fill the rectangle or draw only the outline
ARM GAS  /tmp/cceRX0y9.s 			page 4


  74:../../libdaisy/src/hid/disp/display.h ****     */
  75:../../libdaisy/src/hid/disp/display.h ****     virtual void DrawRect(uint_fast8_t x1,
  76:../../libdaisy/src/hid/disp/display.h ****                           uint_fast8_t y1,
  77:../../libdaisy/src/hid/disp/display.h ****                           uint_fast8_t x2,
  78:../../libdaisy/src/hid/disp/display.h ****                           uint_fast8_t y2,
  79:../../libdaisy/src/hid/disp/display.h ****                           bool         on,
  80:../../libdaisy/src/hid/disp/display.h ****                           bool         fill = false)
  81:../../libdaisy/src/hid/disp/display.h ****         = 0;
  82:../../libdaisy/src/hid/disp/display.h **** 
  83:../../libdaisy/src/hid/disp/display.h ****     /**
  84:../../libdaisy/src/hid/disp/display.h ****     Draws a rectangle.
  85:../../libdaisy/src/hid/disp/display.h ****     \param rect the rectangle
  86:../../libdaisy/src/hid/disp/display.h ****     \param on   on or off
  87:../../libdaisy/src/hid/disp/display.h ****     \param fill fill the rectangle or draw only the outline
  88:../../libdaisy/src/hid/disp/display.h ****     */
  89:../../libdaisy/src/hid/disp/display.h ****     void DrawRect(const Rectangle& rect, bool on, bool fill = false)
  90:../../libdaisy/src/hid/disp/display.h ****     {
  91:../../libdaisy/src/hid/disp/display.h ****         DrawRect(rect.GetX(),
  92:../../libdaisy/src/hid/disp/display.h ****                  rect.GetY(),
  93:../../libdaisy/src/hid/disp/display.h ****                  rect.GetRight(),
  94:../../libdaisy/src/hid/disp/display.h ****                  rect.GetBottom(),
  95:../../libdaisy/src/hid/disp/display.h ****                  on,
  96:../../libdaisy/src/hid/disp/display.h ****                  fill);
  97:../../libdaisy/src/hid/disp/display.h ****     }
  98:../../libdaisy/src/hid/disp/display.h **** 
  99:../../libdaisy/src/hid/disp/display.h ****     /**
 100:../../libdaisy/src/hid/disp/display.h ****     Draws an arc around the specified coordinate
 101:../../libdaisy/src/hid/disp/display.h ****     \param x           x Coordinate of the center of the arc
 102:../../libdaisy/src/hid/disp/display.h ****     \param y           y Coordinate of the center of the arc
 103:../../libdaisy/src/hid/disp/display.h ****     \param radius      radius of the arc
 104:../../libdaisy/src/hid/disp/display.h ****     \param start_angle angle where to start the arc
 105:../../libdaisy/src/hid/disp/display.h ****     \param sweep       total angle of the arc
 106:../../libdaisy/src/hid/disp/display.h ****     \param on  on or off
 107:../../libdaisy/src/hid/disp/display.h ****     */
 108:../../libdaisy/src/hid/disp/display.h ****     virtual void DrawArc(uint_fast8_t x,
 109:../../libdaisy/src/hid/disp/display.h ****                          uint_fast8_t y,
 110:../../libdaisy/src/hid/disp/display.h ****                          uint_fast8_t radius,
 111:../../libdaisy/src/hid/disp/display.h ****                          int_fast16_t start_angle,
 112:../../libdaisy/src/hid/disp/display.h ****                          int_fast16_t sweep,
 113:../../libdaisy/src/hid/disp/display.h ****                          bool         on)
 114:../../libdaisy/src/hid/disp/display.h ****         = 0;
 115:../../libdaisy/src/hid/disp/display.h **** 
 116:../../libdaisy/src/hid/disp/display.h ****     /**
 117:../../libdaisy/src/hid/disp/display.h ****     Draws a circle around the specified coordinate
 118:../../libdaisy/src/hid/disp/display.h ****     \param x           x Coordinate of the center of the circle
 119:../../libdaisy/src/hid/disp/display.h ****     \param y           y Coordinate of the center of the circle
 120:../../libdaisy/src/hid/disp/display.h ****     \param radius      radius of the circle
 121:../../libdaisy/src/hid/disp/display.h ****     \param on  on or off
 122:../../libdaisy/src/hid/disp/display.h ****     */
 123:../../libdaisy/src/hid/disp/display.h ****     void
 124:../../libdaisy/src/hid/disp/display.h ****     DrawCircle(uint_fast8_t x, uint_fast8_t y, uint_fast8_t radius, bool on)
 125:../../libdaisy/src/hid/disp/display.h ****     {
 126:../../libdaisy/src/hid/disp/display.h ****         DrawArc(x, y, radius, 0, 360, on);
 127:../../libdaisy/src/hid/disp/display.h ****     };
 128:../../libdaisy/src/hid/disp/display.h **** 
 129:../../libdaisy/src/hid/disp/display.h ****     /** 
 130:../../libdaisy/src/hid/disp/display.h ****     Writes the character with the specific FontDef
ARM GAS  /tmp/cceRX0y9.s 			page 5


 131:../../libdaisy/src/hid/disp/display.h ****     to the display buffer at the current Cursor position.
 132:../../libdaisy/src/hid/disp/display.h ****     \param ch character to be written
 133:../../libdaisy/src/hid/disp/display.h ****     \param font font to be written in
 134:../../libdaisy/src/hid/disp/display.h ****     \param on    on or off
 135:../../libdaisy/src/hid/disp/display.h ****     \return &
 136:../../libdaisy/src/hid/disp/display.h ****     */
 137:../../libdaisy/src/hid/disp/display.h ****     virtual char WriteChar(char ch, FontDef font, bool on) = 0;
 138:../../libdaisy/src/hid/disp/display.h **** 
 139:../../libdaisy/src/hid/disp/display.h ****     /** 
 140:../../libdaisy/src/hid/disp/display.h ****     Similar to WriteChar, except it will handle an entire String.
 141:../../libdaisy/src/hid/disp/display.h ****     Wrapping does not happen automatically, so the width
 142:../../libdaisy/src/hid/disp/display.h ****     of the string must be kept within the dimensions of the screen.
 143:../../libdaisy/src/hid/disp/display.h ****     \param str string to be written
 144:../../libdaisy/src/hid/disp/display.h ****     \param font font to use
 145:../../libdaisy/src/hid/disp/display.h ****     \param on  on or off
 146:../../libdaisy/src/hid/disp/display.h ****     \return &
 147:../../libdaisy/src/hid/disp/display.h ****     */
 148:../../libdaisy/src/hid/disp/display.h ****     virtual char WriteString(const char* str, FontDef font, bool on) = 0;
 149:../../libdaisy/src/hid/disp/display.h **** 
 150:../../libdaisy/src/hid/disp/display.h ****     /** 
 151:../../libdaisy/src/hid/disp/display.h ****     Similar to WriteString but justified within a bounding box.
 152:../../libdaisy/src/hid/disp/display.h ****     \param str          string to be written
 153:../../libdaisy/src/hid/disp/display.h ****     \param font         font to use
 154:../../libdaisy/src/hid/disp/display.h ****     \param boundingBox  the bounding box to draw the text in
 155:../../libdaisy/src/hid/disp/display.h ****     \param alignment    the alignment to use
 156:../../libdaisy/src/hid/disp/display.h ****     \param on           on or off
 157:../../libdaisy/src/hid/disp/display.h ****     \return The rectangle that was drawn to
 158:../../libdaisy/src/hid/disp/display.h ****     */
 159:../../libdaisy/src/hid/disp/display.h ****     virtual Rectangle WriteStringAligned(const char*    str,
 160:../../libdaisy/src/hid/disp/display.h ****                                          const FontDef& font,
 161:../../libdaisy/src/hid/disp/display.h ****                                          Rectangle      boundingBox,
 162:../../libdaisy/src/hid/disp/display.h ****                                          Alignment      alignment,
 163:../../libdaisy/src/hid/disp/display.h ****                                          bool           on)
 164:../../libdaisy/src/hid/disp/display.h ****         = 0;
 165:../../libdaisy/src/hid/disp/display.h **** 
 166:../../libdaisy/src/hid/disp/display.h ****     /** 
 167:../../libdaisy/src/hid/disp/display.h ****     Moves the 'Cursor' position used for WriteChar, and WriteStr to the specified coordinate.
 168:../../libdaisy/src/hid/disp/display.h ****     \param x x pos
 169:../../libdaisy/src/hid/disp/display.h ****     \param y y pos
 170:../../libdaisy/src/hid/disp/display.h ****     */
 171:../../libdaisy/src/hid/disp/display.h ****     void SetCursor(uint16_t x, uint16_t y)
 172:../../libdaisy/src/hid/disp/display.h ****     {
 173:../../libdaisy/src/hid/disp/display.h ****         currentX_ = (x >= Width()) ? Width() - 1 : x;
 174:../../libdaisy/src/hid/disp/display.h ****         currentY_ = (y >= Height()) ? Height() - 1 : y;
 175:../../libdaisy/src/hid/disp/display.h ****     }
 176:../../libdaisy/src/hid/disp/display.h **** 
 177:../../libdaisy/src/hid/disp/display.h ****     /** 
 178:../../libdaisy/src/hid/disp/display.h ****     Writes the current display buffer to the OLED device using SPI or I2C depending on 
 179:../../libdaisy/src/hid/disp/display.h ****     how the object was initialized.
 180:../../libdaisy/src/hid/disp/display.h ****     */
 181:../../libdaisy/src/hid/disp/display.h ****     virtual void Update() = 0;
 182:../../libdaisy/src/hid/disp/display.h **** 
 183:../../libdaisy/src/hid/disp/display.h ****   protected:
 184:../../libdaisy/src/hid/disp/display.h ****     uint16_t currentX_;
 185:../../libdaisy/src/hid/disp/display.h ****     uint16_t currentY_;
 186:../../libdaisy/src/hid/disp/display.h **** };
 187:../../libdaisy/src/hid/disp/display.h **** 
ARM GAS  /tmp/cceRX0y9.s 			page 6


 188:../../libdaisy/src/hid/disp/display.h **** /** This class is intended as a intermediary class for your actual implementation of the OneBitGrap
 189:../../libdaisy/src/hid/disp/display.h ****  *  interface. It uses the CRTP design pattern where the template argument is the child class. It p
 190:../../libdaisy/src/hid/disp/display.h ****  *  implementations for most of the functions, except DrawPixel(), Update() and Fill(), which you'l
 191:../../libdaisy/src/hid/disp/display.h ****  *  to provide in your child class.
 192:../../libdaisy/src/hid/disp/display.h ****  *  The main goal of this class is to provide common drawing functions without relying on massive a
 193:../../libdaisy/src/hid/disp/display.h ****  *  virtual function calls that would result in a performance loss. To achieve this, any drawing fu
 194:../../libdaisy/src/hid/disp/display.h ****  *  is implemented here and internally calls other drawing functions (e.g. DrawRect() which interna
 195:../../libdaisy/src/hid/disp/display.h ****  *  DrawPixel() and DrawLine()) makes these calls via the qualified name of these functions to expl
 196:../../libdaisy/src/hid/disp/display.h ****  *  suppress the virtual dispatch mechanism like this:
 197:../../libdaisy/src/hid/disp/display.h ****  * 
 198:../../libdaisy/src/hid/disp/display.h ****  *      ChildType::DrawPixel(...); // no virtual function call; direct call into the child class fu
 199:../../libdaisy/src/hid/disp/display.h ****  *  
 200:../../libdaisy/src/hid/disp/display.h ****  *  To create a custom OneBitGraphicsDisplay implementation, you can 
 201:../../libdaisy/src/hid/disp/display.h ****  *  A) inherit from OneBitGraphicsDisplay directly and provide all the drawing functions yourself
 202:../../libdaisy/src/hid/disp/display.h ****  *  B) Inherit from OneBitGraphicsDisplayImpl and only provide DrawPixel(), Fill() and Update()
 203:../../libdaisy/src/hid/disp/display.h ****  *     like this:
 204:../../libdaisy/src/hid/disp/display.h ****  *  
 205:../../libdaisy/src/hid/disp/display.h ****  *      class MyDisplayClass : public OneBitGraphicsDisplayImpl<MyDisplayClass> 
 206:../../libdaisy/src/hid/disp/display.h ****  *      {
 207:../../libdaisy/src/hid/disp/display.h ****  *      public:
 208:../../libdaisy/src/hid/disp/display.h ****  *          void Fill() override { ... };
 209:../../libdaisy/src/hid/disp/display.h ****  *          void DrawPixel(uint_fast8_t x, uint_fast8_t y, bool on) override { ... };
 210:../../libdaisy/src/hid/disp/display.h ****  *          void Update() override { ... }
 211:../../libdaisy/src/hid/disp/display.h ****  *      };
 212:../../libdaisy/src/hid/disp/display.h ****  *  
 213:../../libdaisy/src/hid/disp/display.h ****  */
 214:../../libdaisy/src/hid/disp/display.h **** template <class ChildType>
 215:../../libdaisy/src/hid/disp/display.h **** class OneBitGraphicsDisplayImpl : public OneBitGraphicsDisplay
 216:../../libdaisy/src/hid/disp/display.h **** {
 217:../../libdaisy/src/hid/disp/display.h ****   public:
 218:../../libdaisy/src/hid/disp/display.h ****     OneBitGraphicsDisplayImpl() {}
 219:../../libdaisy/src/hid/disp/display.h ****     virtual ~OneBitGraphicsDisplayImpl() {}
  42              		.loc 3 219 13 view .LVU2
  43              	.LBB771:
  44              	.LBI771:
  23:../../libdaisy/src/hid/disp/display.h **** 
  45              		.loc 3 23 13 view .LVU3
  23:../../libdaisy/src/hid/disp/display.h **** 
  46              		.loc 3 23 13 is_stmt 0 view .LVU4
  47              	.LBE771:
  48              	.LBE770:
  49              	.LBE769:
  50              	.LBB772:
  51              	.LBI772:
  52              		.file 4 "../../libdaisy/src/hid/midi.h"
   1:../../libdaisy/src/hid/midi.h **** #pragma once
   2:../../libdaisy/src/hid/midi.h **** #ifndef DSY_MIDI_H
   3:../../libdaisy/src/hid/midi.h **** #define DSY_MIDI_H
   4:../../libdaisy/src/hid/midi.h **** 
   5:../../libdaisy/src/hid/midi.h **** // TODO: make this adjustable
   6:../../libdaisy/src/hid/midi.h **** #define SYSEX_BUFFER_LEN 128
   7:../../libdaisy/src/hid/midi.h **** 
   8:../../libdaisy/src/hid/midi.h **** #include <stdint.h>
   9:../../libdaisy/src/hid/midi.h **** #include <stdlib.h>
  10:../../libdaisy/src/hid/midi.h **** #include "per/uart.h"
  11:../../libdaisy/src/hid/midi.h **** #include "util/ringbuffer.h"
  12:../../libdaisy/src/hid/midi.h **** #include "hid/MidiEvent.h"
ARM GAS  /tmp/cceRX0y9.s 			page 7


  13:../../libdaisy/src/hid/midi.h **** #include "sys/system.h"
  14:../../libdaisy/src/hid/midi.h **** 
  15:../../libdaisy/src/hid/midi.h **** namespace daisy
  16:../../libdaisy/src/hid/midi.h **** {
  17:../../libdaisy/src/hid/midi.h **** /** @addtogroup external 
  18:../../libdaisy/src/hid/midi.h ****     @{ 
  19:../../libdaisy/src/hid/midi.h **** */
  20:../../libdaisy/src/hid/midi.h **** 
  21:../../libdaisy/src/hid/midi.h **** class MidiUartTransport
  22:../../libdaisy/src/hid/midi.h **** {
  23:../../libdaisy/src/hid/midi.h ****   public:
  24:../../libdaisy/src/hid/midi.h ****     MidiUartTransport() {}
  25:../../libdaisy/src/hid/midi.h ****     ~MidiUartTransport() {}
  26:../../libdaisy/src/hid/midi.h **** 
  27:../../libdaisy/src/hid/midi.h ****     struct Config
  28:../../libdaisy/src/hid/midi.h ****     {
  29:../../libdaisy/src/hid/midi.h ****         UartHandler::Config::Peripheral periph;
  30:../../libdaisy/src/hid/midi.h ****         dsy_gpio_pin                    rx;
  31:../../libdaisy/src/hid/midi.h ****         dsy_gpio_pin                    tx;
  32:../../libdaisy/src/hid/midi.h **** 
  33:../../libdaisy/src/hid/midi.h ****         Config()
  34:../../libdaisy/src/hid/midi.h ****         {
  35:../../libdaisy/src/hid/midi.h ****             periph = UartHandler::Config::Peripheral::USART_1;
  36:../../libdaisy/src/hid/midi.h ****             rx     = {DSY_GPIOB, 7};
  37:../../libdaisy/src/hid/midi.h ****             tx     = {DSY_GPIOB, 6};
  38:../../libdaisy/src/hid/midi.h ****         }
  39:../../libdaisy/src/hid/midi.h ****     };
  40:../../libdaisy/src/hid/midi.h **** 
  41:../../libdaisy/src/hid/midi.h ****     inline void Init(Config config)
  42:../../libdaisy/src/hid/midi.h ****     {
  43:../../libdaisy/src/hid/midi.h ****         UartHandler::Config uart_config;
  44:../../libdaisy/src/hid/midi.h **** 
  45:../../libdaisy/src/hid/midi.h ****         //defaults
  46:../../libdaisy/src/hid/midi.h ****         uart_config.baudrate   = 31250;
  47:../../libdaisy/src/hid/midi.h ****         uart_config.stopbits   = UartHandler::Config::StopBits::BITS_1;
  48:../../libdaisy/src/hid/midi.h ****         uart_config.parity     = UartHandler::Config::Parity::NONE;
  49:../../libdaisy/src/hid/midi.h ****         uart_config.mode       = UartHandler::Config::Mode::TX_RX;
  50:../../libdaisy/src/hid/midi.h ****         uart_config.wordlength = UartHandler::Config::WordLength::BITS_8;
  51:../../libdaisy/src/hid/midi.h **** 
  52:../../libdaisy/src/hid/midi.h ****         //user settings
  53:../../libdaisy/src/hid/midi.h ****         uart_config.periph        = config.periph;
  54:../../libdaisy/src/hid/midi.h ****         uart_config.pin_config.rx = config.rx;
  55:../../libdaisy/src/hid/midi.h ****         uart_config.pin_config.tx = config.tx;
  56:../../libdaisy/src/hid/midi.h **** 
  57:../../libdaisy/src/hid/midi.h ****         uart_.Init(uart_config);
  58:../../libdaisy/src/hid/midi.h ****     }
  59:../../libdaisy/src/hid/midi.h **** 
  60:../../libdaisy/src/hid/midi.h ****     inline void    StartRx() { uart_.StartRx(); }
  61:../../libdaisy/src/hid/midi.h ****     inline size_t  Readable() { return uart_.Readable(); }
  62:../../libdaisy/src/hid/midi.h ****     inline uint8_t Rx() { return uart_.PopRx(); }
  63:../../libdaisy/src/hid/midi.h ****     inline bool    RxActive() { return uart_.RxActive(); }
  64:../../libdaisy/src/hid/midi.h ****     inline void    FlushRx() { uart_.FlushRx(); }
  65:../../libdaisy/src/hid/midi.h ****     inline void    Tx(uint8_t* buff, size_t size) { uart_.PollTx(buff, size); }
  66:../../libdaisy/src/hid/midi.h **** 
  67:../../libdaisy/src/hid/midi.h ****   private:
  68:../../libdaisy/src/hid/midi.h ****     UartHandler uart_;
  69:../../libdaisy/src/hid/midi.h **** };
ARM GAS  /tmp/cceRX0y9.s 			page 8


  70:../../libdaisy/src/hid/midi.h **** 
  71:../../libdaisy/src/hid/midi.h **** /** 
  72:../../libdaisy/src/hid/midi.h ****     @brief Simple MIDI Handler \n 
  73:../../libdaisy/src/hid/midi.h ****     Parses bytes from an input into valid MidiEvents. \n 
  74:../../libdaisy/src/hid/midi.h ****     The MidiEvents fill a FIFO queue that the user can pop messages from.
  75:../../libdaisy/src/hid/midi.h ****     @author shensley
  76:../../libdaisy/src/hid/midi.h ****     @date March 2020
  77:../../libdaisy/src/hid/midi.h **** */
  78:../../libdaisy/src/hid/midi.h **** template <typename Transport>
  79:../../libdaisy/src/hid/midi.h **** class MidiHandler
  80:../../libdaisy/src/hid/midi.h **** {
  81:../../libdaisy/src/hid/midi.h ****   public:
  82:../../libdaisy/src/hid/midi.h ****     MidiHandler() {}
  83:../../libdaisy/src/hid/midi.h ****     ~MidiHandler() {}
  53              		.loc 4 83 5 is_stmt 1 view .LVU5
  54              	.LBB773:
  55              	.LBI773:
  25:../../libdaisy/src/hid/midi.h **** 
  56              		.loc 4 25 5 view .LVU6
  25:../../libdaisy/src/hid/midi.h **** 
  57              		.loc 4 25 5 is_stmt 0 view .LVU7
  58              	.LBE773:
  59              	.LBE772:
  60              	.LBB774:
  61              	.LBI774:
  62              		.file 5 "../../libdaisy/src/hid/encoder.h"
   1:../../libdaisy/src/hid/encoder.h **** #pragma once
   2:../../libdaisy/src/hid/encoder.h **** #ifndef DSY_ENCODER_H
   3:../../libdaisy/src/hid/encoder.h **** #define DSY_ENCODER_H
   4:../../libdaisy/src/hid/encoder.h **** #include "daisy_core.h"
   5:../../libdaisy/src/hid/encoder.h **** #include "per/gpio.h"
   6:../../libdaisy/src/hid/encoder.h **** #include "hid/switch.h"
   7:../../libdaisy/src/hid/encoder.h **** 
   8:../../libdaisy/src/hid/encoder.h **** namespace daisy
   9:../../libdaisy/src/hid/encoder.h **** {
  10:../../libdaisy/src/hid/encoder.h **** /** 
  11:../../libdaisy/src/hid/encoder.h ****     @brief Generic Class for handling Quadrature Encoders \n 
  12:../../libdaisy/src/hid/encoder.h ****     Inspired/influenced by Mutable Instruments (pichenettes) Encoder classes
  13:../../libdaisy/src/hid/encoder.h ****     @author Stephen Hensley
  14:../../libdaisy/src/hid/encoder.h ****     @date December 2019
  15:../../libdaisy/src/hid/encoder.h ****     @ingroup controls
  16:../../libdaisy/src/hid/encoder.h **** */
  17:../../libdaisy/src/hid/encoder.h **** class Encoder
  18:../../libdaisy/src/hid/encoder.h **** {
  19:../../libdaisy/src/hid/encoder.h ****   public:
  20:../../libdaisy/src/hid/encoder.h ****     Encoder() {}
  21:../../libdaisy/src/hid/encoder.h ****     ~Encoder() {}
  63              		.loc 5 21 5 is_stmt 1 view .LVU8
  64              	.LBB775:
  65              	.LBI775:
  66              		.file 6 "../../libdaisy/src/hid/switch.h"
   1:../../libdaisy/src/hid/switch.h **** #pragma once
   2:../../libdaisy/src/hid/switch.h **** #ifndef DSY_SWITCH_H
   3:../../libdaisy/src/hid/switch.h **** #define DSY_SWITCH_H
   4:../../libdaisy/src/hid/switch.h **** #include "daisy_core.h"
   5:../../libdaisy/src/hid/switch.h **** #include "per/gpio.h"
   6:../../libdaisy/src/hid/switch.h **** 
ARM GAS  /tmp/cceRX0y9.s 			page 9


   7:../../libdaisy/src/hid/switch.h **** namespace daisy
   8:../../libdaisy/src/hid/switch.h **** {
   9:../../libdaisy/src/hid/switch.h **** /** 
  10:../../libdaisy/src/hid/switch.h ****     Generic Class for handling momentary/latching switches \n 
  11:../../libdaisy/src/hid/switch.h ****     Inspired/influenced by Mutable Instruments (pichenettes) Switch classes
  12:../../libdaisy/src/hid/switch.h ****     @author Stephen Hensley
  13:../../libdaisy/src/hid/switch.h ****     @date December 2019
  14:../../libdaisy/src/hid/switch.h ****     @ingroup controls
  15:../../libdaisy/src/hid/switch.h **** */
  16:../../libdaisy/src/hid/switch.h **** class Switch
  17:../../libdaisy/src/hid/switch.h **** {
  18:../../libdaisy/src/hid/switch.h ****   public:
  19:../../libdaisy/src/hid/switch.h ****     /** Specifies the expected behavior of the switch */
  20:../../libdaisy/src/hid/switch.h ****     enum Type
  21:../../libdaisy/src/hid/switch.h ****     {
  22:../../libdaisy/src/hid/switch.h ****         TYPE_TOGGLE,    /**< & */
  23:../../libdaisy/src/hid/switch.h ****         TYPE_MOMENTARY, /**< & */
  24:../../libdaisy/src/hid/switch.h ****     };
  25:../../libdaisy/src/hid/switch.h ****     /** Specifies whether the pressed is HIGH or LOW. */
  26:../../libdaisy/src/hid/switch.h ****     enum Polarity
  27:../../libdaisy/src/hid/switch.h ****     {
  28:../../libdaisy/src/hid/switch.h ****         POLARITY_NORMAL,   /**< & */
  29:../../libdaisy/src/hid/switch.h ****         POLARITY_INVERTED, /**< & */
  30:../../libdaisy/src/hid/switch.h ****     };
  31:../../libdaisy/src/hid/switch.h **** 
  32:../../libdaisy/src/hid/switch.h ****     /** Specifies whether to use built-in Pull Up/Down resistors to hold button at a given state wh
  33:../../libdaisy/src/hid/switch.h ****     enum Pull
  34:../../libdaisy/src/hid/switch.h ****     {
  35:../../libdaisy/src/hid/switch.h ****         PULL_UP,   /**< & */
  36:../../libdaisy/src/hid/switch.h ****         PULL_DOWN, /**< & */
  37:../../libdaisy/src/hid/switch.h ****         PULL_NONE, /**< & */
  38:../../libdaisy/src/hid/switch.h ****     };
  39:../../libdaisy/src/hid/switch.h **** 
  40:../../libdaisy/src/hid/switch.h ****     Switch() {}
  41:../../libdaisy/src/hid/switch.h ****     ~Switch() {}
  67              		.loc 6 41 5 view .LVU9
  68              		.loc 6 41 5 is_stmt 0 view .LVU10
  69              	.LBE775:
  70              	.LBE774:
  71              	.LBB776:
  72              	.LBI776:
  73              		.file 7 "../../libdaisy/src/daisy_seed.h"
   1:../../libdaisy/src/daisy_seed.h **** #pragma once
   2:../../libdaisy/src/daisy_seed.h **** #ifndef DSY_SEED_H
   3:../../libdaisy/src/daisy_seed.h **** #define DSY_SEED_H
   4:../../libdaisy/src/daisy_seed.h **** 
   5:../../libdaisy/src/daisy_seed.h **** #include "daisy.h"
   6:../../libdaisy/src/daisy_seed.h **** 
   7:../../libdaisy/src/daisy_seed.h **** //Uncomment this out if you're still using the rev2 hardware
   8:../../libdaisy/src/daisy_seed.h **** //#define SEED_REV2
   9:../../libdaisy/src/daisy_seed.h **** 
  10:../../libdaisy/src/daisy_seed.h **** namespace daisy
  11:../../libdaisy/src/daisy_seed.h **** {
  12:../../libdaisy/src/daisy_seed.h **** /**
  13:../../libdaisy/src/daisy_seed.h ****    @brief This is the higher-level interface for the Daisy board. \n 
  14:../../libdaisy/src/daisy_seed.h ****     All basic peripheral configuration/initialization is setup here. \n
  15:../../libdaisy/src/daisy_seed.h **** 
ARM GAS  /tmp/cceRX0y9.s 			page 10


  16:../../libdaisy/src/daisy_seed.h ****    @ingroup boards
  17:../../libdaisy/src/daisy_seed.h **** */
  18:../../libdaisy/src/daisy_seed.h **** class DaisySeed
  19:../../libdaisy/src/daisy_seed.h **** {
  20:../../libdaisy/src/daisy_seed.h ****   public:
  21:../../libdaisy/src/daisy_seed.h ****     DaisySeed() {}
  22:../../libdaisy/src/daisy_seed.h ****     ~DaisySeed() {}
  74              		.loc 7 22 5 is_stmt 1 view .LVU11
  75              	.LBB777:
  76              	.LBI777:
  77              		.file 8 "../../libdaisy/src/sys/system.h"
   1:../../libdaisy/src/sys/system.h **** #ifndef DSY_SYSTEM_H
   2:../../libdaisy/src/sys/system.h **** #define DSY_SYSTEM_H
   3:../../libdaisy/src/sys/system.h **** 
   4:../../libdaisy/src/sys/system.h **** #ifndef UNIT_TEST // for unit tests, a dummy implementation is provided below
   5:../../libdaisy/src/sys/system.h **** 
   6:../../libdaisy/src/sys/system.h **** #include <cstdint>
   7:../../libdaisy/src/sys/system.h **** #include "per/tim.h"
   8:../../libdaisy/src/sys/system.h **** 
   9:../../libdaisy/src/sys/system.h **** namespace daisy
  10:../../libdaisy/src/sys/system.h **** {
  11:../../libdaisy/src/sys/system.h **** /** A handle for interacting with the Core System. 
  12:../../libdaisy/src/sys/system.h ****  ** This includes the Clock tree, MPU, global DMA initialization,
  13:../../libdaisy/src/sys/system.h ****  ** cache handling, and any other necessary global initiailzation
  14:../../libdaisy/src/sys/system.h ****  **
  15:../../libdaisy/src/sys/system.h ****  ** @author shensley
  16:../../libdaisy/src/sys/system.h ****  ** @addtogroup system
  17:../../libdaisy/src/sys/system.h ****  */
  18:../../libdaisy/src/sys/system.h **** class System
  19:../../libdaisy/src/sys/system.h **** {
  20:../../libdaisy/src/sys/system.h ****   public:
  21:../../libdaisy/src/sys/system.h ****     /** Contains settings for initializing the System */
  22:../../libdaisy/src/sys/system.h ****     struct Config
  23:../../libdaisy/src/sys/system.h ****     {
  24:../../libdaisy/src/sys/system.h ****         /** Specifies the system clock frequency that feeds APB/AHB clocks, etc. */
  25:../../libdaisy/src/sys/system.h ****         enum class SysClkFreq
  26:../../libdaisy/src/sys/system.h ****         {
  27:../../libdaisy/src/sys/system.h ****             FREQ_400MHZ,
  28:../../libdaisy/src/sys/system.h ****             FREQ_480MHZ,
  29:../../libdaisy/src/sys/system.h ****         };
  30:../../libdaisy/src/sys/system.h **** 
  31:../../libdaisy/src/sys/system.h ****         /** Method to call on the struct to set to defaults
  32:../../libdaisy/src/sys/system.h ****          ** CPU Freq set to 400MHz
  33:../../libdaisy/src/sys/system.h ****          ** Cache Enabled 
  34:../../libdaisy/src/sys/system.h ****          ** */
  35:../../libdaisy/src/sys/system.h ****         void Defaults()
  36:../../libdaisy/src/sys/system.h ****         {
  37:../../libdaisy/src/sys/system.h ****             cpu_freq   = SysClkFreq::FREQ_400MHZ;
  38:../../libdaisy/src/sys/system.h ****             use_dcache = true;
  39:../../libdaisy/src/sys/system.h ****             use_icache = true;
  40:../../libdaisy/src/sys/system.h ****         }
  41:../../libdaisy/src/sys/system.h **** 
  42:../../libdaisy/src/sys/system.h ****         /** Method to call on the struct to set to boost mode:
  43:../../libdaisy/src/sys/system.h ****          ** CPU Freq set to 480MHz
  44:../../libdaisy/src/sys/system.h ****          ** Cache Enabled 
  45:../../libdaisy/src/sys/system.h ****          ** */
  46:../../libdaisy/src/sys/system.h ****         void Boost()
ARM GAS  /tmp/cceRX0y9.s 			page 11


  47:../../libdaisy/src/sys/system.h ****         {
  48:../../libdaisy/src/sys/system.h ****             cpu_freq   = SysClkFreq::FREQ_480MHZ;
  49:../../libdaisy/src/sys/system.h ****             use_dcache = true;
  50:../../libdaisy/src/sys/system.h ****             use_icache = true;
  51:../../libdaisy/src/sys/system.h ****         }
  52:../../libdaisy/src/sys/system.h **** 
  53:../../libdaisy/src/sys/system.h ****         SysClkFreq cpu_freq;
  54:../../libdaisy/src/sys/system.h ****         bool       use_dcache;
  55:../../libdaisy/src/sys/system.h ****         bool       use_icache;
  56:../../libdaisy/src/sys/system.h ****     };
  57:../../libdaisy/src/sys/system.h **** 
  58:../../libdaisy/src/sys/system.h ****     System() {}
  59:../../libdaisy/src/sys/system.h ****     ~System() {}
  78              		.loc 8 59 5 view .LVU12
  79              		.loc 8 59 5 is_stmt 0 view .LVU13
  80              	.LBE777:
  81              	.LBB778:
  82              	.LBI778:
  83              		.file 9 "../../libdaisy/src/hid/usb.h"
   1:../../libdaisy/src/hid/usb.h **** #pragma once
   2:../../libdaisy/src/hid/usb.h **** #ifndef DSY_HID_USB_H
   3:../../libdaisy/src/hid/usb.h **** #define DSY_HID_USB_H
   4:../../libdaisy/src/hid/usb.h **** #include <stdint.h>
   5:../../libdaisy/src/hid/usb.h **** #include <stdlib.h>
   6:../../libdaisy/src/hid/usb.h **** 
   7:../../libdaisy/src/hid/usb.h **** namespace daisy
   8:../../libdaisy/src/hid/usb.h **** /** @addtogroup externals
   9:../../libdaisy/src/hid/usb.h ****     @{
  10:../../libdaisy/src/hid/usb.h **** */
  11:../../libdaisy/src/hid/usb.h **** 
  12:../../libdaisy/src/hid/usb.h **** {
  13:../../libdaisy/src/hid/usb.h **** /** 
  14:../../libdaisy/src/hid/usb.h ****     @brief Interface for initializing and using the USB Peripherals on the daisy
  15:../../libdaisy/src/hid/usb.h ****     @author Stephen Hensley
  16:../../libdaisy/src/hid/usb.h ****     @date December 2019
  17:../../libdaisy/src/hid/usb.h **** */
  18:../../libdaisy/src/hid/usb.h **** class UsbHandle
  19:../../libdaisy/src/hid/usb.h **** {
  20:../../libdaisy/src/hid/usb.h ****   public:
  21:../../libdaisy/src/hid/usb.h ****     /** Return values for USBHandle Functions */
  22:../../libdaisy/src/hid/usb.h ****     enum class Result
  23:../../libdaisy/src/hid/usb.h ****     {
  24:../../libdaisy/src/hid/usb.h ****         OK,
  25:../../libdaisy/src/hid/usb.h ****         ERR,
  26:../../libdaisy/src/hid/usb.h ****     };
  27:../../libdaisy/src/hid/usb.h **** 
  28:../../libdaisy/src/hid/usb.h ****     /** Specified which of the two USB Peripherals to initialize. */
  29:../../libdaisy/src/hid/usb.h ****     enum UsbPeriph
  30:../../libdaisy/src/hid/usb.h ****     {
  31:../../libdaisy/src/hid/usb.h ****         FS_INTERNAL, /**< Internal pin */
  32:../../libdaisy/src/hid/usb.h ****         FS_EXTERNAL, /**< FS External D+ pin is Pin 38 (GPIO32). FS External D- pin is Pin 37 (GPIO
  33:../../libdaisy/src/hid/usb.h ****         FS_BOTH,     /**< Both */
  34:../../libdaisy/src/hid/usb.h ****     };
  35:../../libdaisy/src/hid/usb.h **** 
  36:../../libdaisy/src/hid/usb.h **** 
  37:../../libdaisy/src/hid/usb.h ****     /** Function called upon reception of a buffer */
  38:../../libdaisy/src/hid/usb.h ****     typedef void (*ReceiveCallback)(uint8_t* buff, uint32_t* len);
ARM GAS  /tmp/cceRX0y9.s 			page 12


  39:../../libdaisy/src/hid/usb.h **** 
  40:../../libdaisy/src/hid/usb.h ****     UsbHandle() {}
  41:../../libdaisy/src/hid/usb.h **** 
  42:../../libdaisy/src/hid/usb.h ****     ~UsbHandle() {}
  84              		.loc 9 42 5 is_stmt 1 view .LVU14
  85              		.loc 9 42 5 is_stmt 0 view .LVU15
  86              	.LBE778:
  87              	.LBB779:
  88              	.LBI779:
  89              		.file 10 "../../libdaisy/src/per/adc.h"
   1:../../libdaisy/src/per/adc.h **** #pragma once
   2:../../libdaisy/src/per/adc.h **** #ifndef DSY_ADC_H
   3:../../libdaisy/src/per/adc.h **** #define DSY_ADC_H /**< Macro */
   4:../../libdaisy/src/per/adc.h **** #include <stdint.h>
   5:../../libdaisy/src/per/adc.h **** #include <stdlib.h>
   6:../../libdaisy/src/per/adc.h **** #include "daisy_core.h"
   7:../../libdaisy/src/per/adc.h **** #include "per/gpio.h"
   8:../../libdaisy/src/per/adc.h **** 
   9:../../libdaisy/src/per/adc.h **** #define DSY_ADC_MAX_CHANNELS 14 /**< Maximum number of ADC channels */
  10:../../libdaisy/src/per/adc.h **** 
  11:../../libdaisy/src/per/adc.h **** namespace daisy
  12:../../libdaisy/src/per/adc.h **** {
  13:../../libdaisy/src/per/adc.h **** /** @addtogroup analog_digital_conversion
  14:../../libdaisy/src/per/adc.h ****     @{
  15:../../libdaisy/src/per/adc.h **** */
  16:../../libdaisy/src/per/adc.h **** 
  17:../../libdaisy/src/per/adc.h **** /* While there may not be many configuration options here,
  18:../../libdaisy/src/per/adc.h **** using a struct like this allows us to add more configuration
  19:../../libdaisy/src/per/adc.h **** later without breaking existing functionality.
  20:../../libdaisy/src/per/adc.h **** */
  21:../../libdaisy/src/per/adc.h **** 
  22:../../libdaisy/src/per/adc.h **** /** Configuration Structure for a given channel */
  23:../../libdaisy/src/per/adc.h **** struct AdcChannelConfig
  24:../../libdaisy/src/per/adc.h **** {
  25:../../libdaisy/src/per/adc.h ****     /** Which pin to use for multiplexing */
  26:../../libdaisy/src/per/adc.h ****     enum MuxPin
  27:../../libdaisy/src/per/adc.h ****     {
  28:../../libdaisy/src/per/adc.h ****         MUX_SEL_0,    /**< & */
  29:../../libdaisy/src/per/adc.h ****         MUX_SEL_1,    /**< & */
  30:../../libdaisy/src/per/adc.h ****         MUX_SEL_2,    /**< & */
  31:../../libdaisy/src/per/adc.h ****         MUX_SEL_LAST, /**< & */
  32:../../libdaisy/src/per/adc.h ****     };
  33:../../libdaisy/src/per/adc.h **** 
  34:../../libdaisy/src/per/adc.h ****     /** Initializes a single ADC pin as an ADC. 
  35:../../libdaisy/src/per/adc.h ****     \param pin Pin to init.
  36:../../libdaisy/src/per/adc.h ****      */
  37:../../libdaisy/src/per/adc.h ****     void InitSingle(dsy_gpio_pin pin);
  38:../../libdaisy/src/per/adc.h **** 
  39:../../libdaisy/src/per/adc.h ****     /** 
  40:../../libdaisy/src/per/adc.h ****     Initializes a single ADC pin as a Multiplexed ADC.
  41:../../libdaisy/src/per/adc.h ****     Requires a CD405X Multiplexer connected to the pin.
  42:../../libdaisy/src/per/adc.h ****     You only need to supply the mux pins that are required,
  43:../../libdaisy/src/per/adc.h ****     e.g. a 4052 mux would only require mux_0 and mux_1.
  44:../../libdaisy/src/per/adc.h ****     Internal Callbacks handle the pin addressing.
  45:../../libdaisy/src/per/adc.h ****     \param mux_channels must be 1-8
  46:../../libdaisy/src/per/adc.h ****     \param mux_0 First mux pin
  47:../../libdaisy/src/per/adc.h ****     \param mux_1 Second mux pin
ARM GAS  /tmp/cceRX0y9.s 			page 13


  48:../../libdaisy/src/per/adc.h ****     \param mux_2 Third mux pin
  49:../../libdaisy/src/per/adc.h ****     \param adc_pin &
  50:../../libdaisy/src/per/adc.h ****     */
  51:../../libdaisy/src/per/adc.h ****     void InitMux(dsy_gpio_pin adc_pin,
  52:../../libdaisy/src/per/adc.h ****                  size_t       mux_channels,
  53:../../libdaisy/src/per/adc.h ****                  dsy_gpio_pin mux_0,
  54:../../libdaisy/src/per/adc.h ****                  dsy_gpio_pin mux_1 = {DSY_GPIOX, 0},
  55:../../libdaisy/src/per/adc.h ****                  dsy_gpio_pin mux_2 = {DSY_GPIOX, 0});
  56:../../libdaisy/src/per/adc.h **** 
  57:../../libdaisy/src/per/adc.h ****     dsy_gpio pin_;                   /**< & */
  58:../../libdaisy/src/per/adc.h ****     dsy_gpio mux_pin_[MUX_SEL_LAST]; /**< & */
  59:../../libdaisy/src/per/adc.h ****     uint8_t  mux_channels_;          /**< & */
  60:../../libdaisy/src/per/adc.h **** };
  61:../../libdaisy/src/per/adc.h **** 
  62:../../libdaisy/src/per/adc.h **** /**
  63:../../libdaisy/src/per/adc.h ****    Handler for analog to digital conversion
  64:../../libdaisy/src/per/adc.h **** */
  65:../../libdaisy/src/per/adc.h **** class AdcHandle
  66:../../libdaisy/src/per/adc.h **** {
  67:../../libdaisy/src/per/adc.h ****   public:
  68:../../libdaisy/src/per/adc.h ****     /** Supported oversampling amounts */
  69:../../libdaisy/src/per/adc.h ****     enum OverSampling
  70:../../libdaisy/src/per/adc.h ****     {
  71:../../libdaisy/src/per/adc.h ****         OVS_NONE, /**< & */
  72:../../libdaisy/src/per/adc.h ****         OVS_4,    /**< & */
  73:../../libdaisy/src/per/adc.h ****         OVS_8,    /**< & */
  74:../../libdaisy/src/per/adc.h ****         OVS_16,   /**< & */
  75:../../libdaisy/src/per/adc.h ****         OVS_32,   /**< & */
  76:../../libdaisy/src/per/adc.h ****         OVS_64,   /**< & */
  77:../../libdaisy/src/per/adc.h ****         OVS_128,  /**< & */
  78:../../libdaisy/src/per/adc.h ****         OVS_256,  /**< & */
  79:../../libdaisy/src/per/adc.h ****         OVS_512,  /**< & */
  80:../../libdaisy/src/per/adc.h ****         OVS_1024, /**< & */
  81:../../libdaisy/src/per/adc.h ****         OVS_LAST, /**< & */
  82:../../libdaisy/src/per/adc.h ****     };
  83:../../libdaisy/src/per/adc.h **** 
  84:../../libdaisy/src/per/adc.h ****     AdcHandle() {}
  85:../../libdaisy/src/per/adc.h ****     ~AdcHandle() {}
  90              		.loc 10 85 5 is_stmt 1 view .LVU16
  91              		.loc 10 85 5 is_stmt 0 view .LVU17
  92              	.LBE779:
  93              	.LBB780:
  94              	.LBI780:
  95              		.file 11 "../../libdaisy/src/hid/audio.h"
   1:../../libdaisy/src/hid/audio.h **** #ifndef DSY_AUDIO_H
   2:../../libdaisy/src/hid/audio.h **** #define DSY_AUDIO_H /**< & */
   3:../../libdaisy/src/hid/audio.h **** 
   4:../../libdaisy/src/hid/audio.h **** #include "per/sai.h"
   5:../../libdaisy/src/hid/audio.h **** 
   6:../../libdaisy/src/hid/audio.h **** namespace daisy
   7:../../libdaisy/src/hid/audio.h **** {
   8:../../libdaisy/src/hid/audio.h **** class AudioHandle
   9:../../libdaisy/src/hid/audio.h **** {
  10:../../libdaisy/src/hid/audio.h ****   public:
  11:../../libdaisy/src/hid/audio.h ****     /** Manually configurable details about the Audio Engine */
  12:../../libdaisy/src/hid/audio.h ****     /** TODO: Figure out how to get samplerate in here. */
  13:../../libdaisy/src/hid/audio.h ****     struct Config
ARM GAS  /tmp/cceRX0y9.s 			page 14


  14:../../libdaisy/src/hid/audio.h ****     {
  15:../../libdaisy/src/hid/audio.h ****         size_t                        blocksize;
  16:../../libdaisy/src/hid/audio.h ****         SaiHandle::Config::SampleRate samplerate;
  17:../../libdaisy/src/hid/audio.h ****         float                         postgain;
  18:../../libdaisy/src/hid/audio.h ****     };
  19:../../libdaisy/src/hid/audio.h **** 
  20:../../libdaisy/src/hid/audio.h ****     enum class Result
  21:../../libdaisy/src/hid/audio.h ****     {
  22:../../libdaisy/src/hid/audio.h ****         OK,
  23:../../libdaisy/src/hid/audio.h ****         ERR,
  24:../../libdaisy/src/hid/audio.h ****     };
  25:../../libdaisy/src/hid/audio.h **** 
  26:../../libdaisy/src/hid/audio.h ****     /** Non-Interleaving input buffer
  27:../../libdaisy/src/hid/audio.h ****      * Buffer arranged by float[chn][sample] 
  28:../../libdaisy/src/hid/audio.h ****      * const so that the user can't modify the input
  29:../../libdaisy/src/hid/audio.h ****     */
  30:../../libdaisy/src/hid/audio.h ****     typedef const float* const* InputBuffer;
  31:../../libdaisy/src/hid/audio.h **** 
  32:../../libdaisy/src/hid/audio.h ****     /** Non-Interleaving output buffer
  33:../../libdaisy/src/hid/audio.h ****      * Arranged by float[chn][sample] 
  34:../../libdaisy/src/hid/audio.h ****     */
  35:../../libdaisy/src/hid/audio.h ****     typedef float** OutputBuffer;
  36:../../libdaisy/src/hid/audio.h **** 
  37:../../libdaisy/src/hid/audio.h ****     /** Type for a Non-Interleaving audio callback 
  38:../../libdaisy/src/hid/audio.h ****    * Non-Interleaving audio callbacks in daisy will be of this type
  39:../../libdaisy/src/hid/audio.h ****   */
  40:../../libdaisy/src/hid/audio.h ****     typedef void (*AudioCallback)(InputBuffer  in,
  41:../../libdaisy/src/hid/audio.h ****                                   OutputBuffer out,
  42:../../libdaisy/src/hid/audio.h ****                                   size_t       size);
  43:../../libdaisy/src/hid/audio.h **** 
  44:../../libdaisy/src/hid/audio.h ****     /** Interleaving Input buffer
  45:../../libdaisy/src/hid/audio.h ****      ** audio is prepared as { L0, R0, L1, R1, . . . LN, RN }]
  46:../../libdaisy/src/hid/audio.h ****      ** this is const, as the user shouldn't modify it
  47:../../libdaisy/src/hid/audio.h ****     */
  48:../../libdaisy/src/hid/audio.h ****     typedef const float* InterleavingInputBuffer;
  49:../../libdaisy/src/hid/audio.h **** 
  50:../../libdaisy/src/hid/audio.h ****     /** Interleaving Output buffer 
  51:../../libdaisy/src/hid/audio.h ****      ** audio is prepared as { L0, R0, L1, R1, . . . LN, RN }
  52:../../libdaisy/src/hid/audio.h ****     */
  53:../../libdaisy/src/hid/audio.h ****     typedef float* InterleavingOutputBuffer;
  54:../../libdaisy/src/hid/audio.h **** 
  55:../../libdaisy/src/hid/audio.h ****     /** Interleaving Audio Callback 
  56:../../libdaisy/src/hid/audio.h ****    * Interleaving audio callbacks in daisy must be of this type
  57:../../libdaisy/src/hid/audio.h ****   */
  58:../../libdaisy/src/hid/audio.h ****     typedef void (*InterleavingAudioCallback)(InterleavingInputBuffer  in,
  59:../../libdaisy/src/hid/audio.h ****                                               InterleavingOutputBuffer out,
  60:../../libdaisy/src/hid/audio.h ****                                               size_t                   size);
  61:../../libdaisy/src/hid/audio.h **** 
  62:../../libdaisy/src/hid/audio.h ****     AudioHandle() : pimpl_(nullptr) {}
  63:../../libdaisy/src/hid/audio.h ****     ~AudioHandle() {}
  96              		.loc 11 63 5 is_stmt 1 view .LVU18
  97              		.loc 11 63 5 is_stmt 0 view .LVU19
  98              	.LBE780:
  99              	.LBE776:
 100              		.loc 1 41 20 view .LVU20
 101 0000 7047     		bx	lr
 102              		.cfi_endproc
ARM GAS  /tmp/cceRX0y9.s 			page 15


 103              	.LFE2060:
 105              		.weak	_ZN5daisy10DaisyPatchD1Ev
 106              		.thumb_set _ZN5daisy10DaisyPatchD1Ev,_ZN5daisy10DaisyPatchD2Ev
 107 0002 00BF     		.section	.text._ZN5daisy11OledDisplayINS_13SSD130xDriverILj128ELj64ENS_24SSD130x4WireSpiTransportE
 108              		.align	1
 109              		.p2align 2,,3
 110              		.weak	_ZN5daisy11OledDisplayINS_13SSD130xDriverILj128ELj64ENS_24SSD130x4WireSpiTransportEEEED2Ev
 111              		.syntax unified
 112              		.thumb
 113              		.thumb_func
 114              		.fpu fpv5-d16
 116              	_ZN5daisy11OledDisplayINS_13SSD130xDriverILj128ELj64ENS_24SSD130x4WireSpiTransportEEEED2Ev:
 117              	.LVL1:
 118              	.LFB4272:
 119              		.loc 2 17 13 is_stmt 1 view -0
 120              		.cfi_startproc
 121              		@ args = 0, pretend = 0, frame = 0
 122              		@ frame_needed = 0, uses_anonymous_args = 0
 123              		@ link register save eliminated.
 124              	.LBB781:
 125              	.LBI781:
 126              		.loc 3 219 13 view .LVU22
 127              	.LBB782:
 128              	.LBI782:
  23:../../libdaisy/src/hid/disp/display.h **** 
 129              		.loc 3 23 13 view .LVU23
  23:../../libdaisy/src/hid/disp/display.h **** 
 130              		.loc 3 23 13 is_stmt 0 view .LVU24
 131              	.LBE782:
 132              	.LBE781:
 133              		.loc 2 17 29 view .LVU25
 134 0000 7047     		bx	lr
 135              		.cfi_endproc
 136              	.LFE4272:
 138              		.weak	_ZN5daisy11OledDisplayINS_13SSD130xDriverILj128ELj64ENS_24SSD130x4WireSpiTransportEEEED1Ev
 139              		.thumb_set _ZN5daisy11OledDisplayINS_13SSD130xDriverILj128ELj64ENS_24SSD130x4WireSpiTransportEEEED
 140 0002 00BF     		.section	.text._ZN5daisy11OledDisplayINS_13SSD130xDriverILj128ELj64ENS_24SSD130x4WireSpiTransportE
 141              		.align	1
 142              		.p2align 2,,3
 143              		.weak	_ZN5daisy11OledDisplayINS_13SSD130xDriverILj128ELj64ENS_24SSD130x4WireSpiTransportEEEE4FillE
 144              		.syntax unified
 145              		.thumb
 146              		.thumb_func
 147              		.fpu fpv5-d16
 149              	_ZN5daisy11OledDisplayINS_13SSD130xDriverILj128ELj64ENS_24SSD130x4WireSpiTransportEEEE4FillEb:
 150              	.LVL2:
 151              	.LFB4561:
  18:../../libdaisy/src/hid/disp/oled_display.h **** 
  19:../../libdaisy/src/hid/disp/oled_display.h ****     struct Config
  20:../../libdaisy/src/hid/disp/oled_display.h ****     {
  21:../../libdaisy/src/hid/disp/oled_display.h ****         typename DisplayDriver::Config driver_config;
  22:../../libdaisy/src/hid/disp/oled_display.h ****     };
  23:../../libdaisy/src/hid/disp/oled_display.h **** 
  24:../../libdaisy/src/hid/disp/oled_display.h ****     void Init(Config config) { driver_.Init(config.driver_config); }
  25:../../libdaisy/src/hid/disp/oled_display.h **** 
  26:../../libdaisy/src/hid/disp/oled_display.h ****     uint16_t Height() const override { return driver_.Height(); }
  27:../../libdaisy/src/hid/disp/oled_display.h ****     uint16_t Width() const override { return driver_.Width(); }
ARM GAS  /tmp/cceRX0y9.s 			page 16


  28:../../libdaisy/src/hid/disp/oled_display.h **** 
  29:../../libdaisy/src/hid/disp/oled_display.h ****     /** 
  30:../../libdaisy/src/hid/disp/oled_display.h ****     Fills the entire display with either on/off.
  31:../../libdaisy/src/hid/disp/oled_display.h ****     \param on Sets on or off.
  32:../../libdaisy/src/hid/disp/oled_display.h ****     */
  33:../../libdaisy/src/hid/disp/oled_display.h ****     void Fill(bool on) override { driver_.Fill(on); }
 152              		.loc 2 33 10 is_stmt 1 view -0
 153              		.cfi_startproc
 154              		@ args = 0, pretend = 0, frame = 0
 155              		@ frame_needed = 0, uses_anonymous_args = 0
 156              		@ link register save eliminated.
 157              	.LBB783:
 158              	.LBI783:
 159              		.file 12 "../../libdaisy/src/dev/oled_ssd130x.h"
   1:../../libdaisy/src/dev/oled_ssd130x.h **** #pragma once
   2:../../libdaisy/src/dev/oled_ssd130x.h **** #ifndef SA_OLED_SSD130X_H
   3:../../libdaisy/src/dev/oled_ssd130x.h **** #define SA_OLED_SSD130X_H /**< & */
   4:../../libdaisy/src/dev/oled_ssd130x.h **** 
   5:../../libdaisy/src/dev/oled_ssd130x.h **** #include "per/i2c.h"
   6:../../libdaisy/src/dev/oled_ssd130x.h **** #include "per/spi.h"
   7:../../libdaisy/src/dev/oled_ssd130x.h **** #include "per/gpio.h"
   8:../../libdaisy/src/dev/oled_ssd130x.h **** #include "sys/system.h"
   9:../../libdaisy/src/dev/oled_ssd130x.h **** 
  10:../../libdaisy/src/dev/oled_ssd130x.h **** namespace daisy
  11:../../libdaisy/src/dev/oled_ssd130x.h **** {
  12:../../libdaisy/src/dev/oled_ssd130x.h **** /**
  13:../../libdaisy/src/dev/oled_ssd130x.h ****  * I2C Transport for SSD1306 / SSD1309 OLED display devices
  14:../../libdaisy/src/dev/oled_ssd130x.h ****  */
  15:../../libdaisy/src/dev/oled_ssd130x.h **** class SSD130xI2CTransport
  16:../../libdaisy/src/dev/oled_ssd130x.h **** {
  17:../../libdaisy/src/dev/oled_ssd130x.h ****   public:
  18:../../libdaisy/src/dev/oled_ssd130x.h ****     struct Config
  19:../../libdaisy/src/dev/oled_ssd130x.h ****     {
  20:../../libdaisy/src/dev/oled_ssd130x.h ****         I2CHandle::Config i2c_config;
  21:../../libdaisy/src/dev/oled_ssd130x.h ****         uint8_t           i2c_address;
  22:../../libdaisy/src/dev/oled_ssd130x.h ****         void              Defaults()
  23:../../libdaisy/src/dev/oled_ssd130x.h ****         {
  24:../../libdaisy/src/dev/oled_ssd130x.h ****             i2c_config.periph         = I2CHandle::Config::Peripheral::I2C_1;
  25:../../libdaisy/src/dev/oled_ssd130x.h ****             i2c_config.speed          = I2CHandle::Config::Speed::I2C_1MHZ;
  26:../../libdaisy/src/dev/oled_ssd130x.h ****             i2c_config.mode           = I2CHandle::Config::Mode::I2C_MASTER;
  27:../../libdaisy/src/dev/oled_ssd130x.h ****             i2c_config.pin_config.scl = {DSY_GPIOB, 8};
  28:../../libdaisy/src/dev/oled_ssd130x.h ****             i2c_config.pin_config.sda = {DSY_GPIOB, 9};
  29:../../libdaisy/src/dev/oled_ssd130x.h ****             i2c_address               = 0x3C;
  30:../../libdaisy/src/dev/oled_ssd130x.h ****         }
  31:../../libdaisy/src/dev/oled_ssd130x.h ****     };
  32:../../libdaisy/src/dev/oled_ssd130x.h ****     void Init(const Config& config)
  33:../../libdaisy/src/dev/oled_ssd130x.h ****     {
  34:../../libdaisy/src/dev/oled_ssd130x.h ****         i2c_address_ = config.i2c_address;
  35:../../libdaisy/src/dev/oled_ssd130x.h ****         i2c_.Init(config.i2c_config);
  36:../../libdaisy/src/dev/oled_ssd130x.h ****     };
  37:../../libdaisy/src/dev/oled_ssd130x.h ****     void SendCommand(uint8_t cmd)
  38:../../libdaisy/src/dev/oled_ssd130x.h ****     {
  39:../../libdaisy/src/dev/oled_ssd130x.h ****         uint8_t buf[2] = {0X00, cmd};
  40:../../libdaisy/src/dev/oled_ssd130x.h ****         i2c_.TransmitBlocking(i2c_address_, buf, 2, 1000);
  41:../../libdaisy/src/dev/oled_ssd130x.h ****     };
  42:../../libdaisy/src/dev/oled_ssd130x.h **** 
  43:../../libdaisy/src/dev/oled_ssd130x.h ****     void SendData(uint8_t* buff, size_t size)
ARM GAS  /tmp/cceRX0y9.s 			page 17


  44:../../libdaisy/src/dev/oled_ssd130x.h ****     {
  45:../../libdaisy/src/dev/oled_ssd130x.h ****         for(size_t i = 0; i < size; i++)
  46:../../libdaisy/src/dev/oled_ssd130x.h ****         {
  47:../../libdaisy/src/dev/oled_ssd130x.h ****             uint8_t buf[2] = {0X40, buff[i]};
  48:../../libdaisy/src/dev/oled_ssd130x.h ****             i2c_.TransmitBlocking(i2c_address_, buf, 2, 1000);
  49:../../libdaisy/src/dev/oled_ssd130x.h ****         }
  50:../../libdaisy/src/dev/oled_ssd130x.h ****     };
  51:../../libdaisy/src/dev/oled_ssd130x.h **** 
  52:../../libdaisy/src/dev/oled_ssd130x.h ****   private:
  53:../../libdaisy/src/dev/oled_ssd130x.h ****     daisy::I2CHandle i2c_;
  54:../../libdaisy/src/dev/oled_ssd130x.h ****     uint8_t          i2c_address_;
  55:../../libdaisy/src/dev/oled_ssd130x.h **** };
  56:../../libdaisy/src/dev/oled_ssd130x.h **** 
  57:../../libdaisy/src/dev/oled_ssd130x.h **** /**
  58:../../libdaisy/src/dev/oled_ssd130x.h ****  * 4 Wire SPI Transport for SSD1306 / SSD1309 OLED display devices
  59:../../libdaisy/src/dev/oled_ssd130x.h ****  */
  60:../../libdaisy/src/dev/oled_ssd130x.h **** class SSD130x4WireSpiTransport
  61:../../libdaisy/src/dev/oled_ssd130x.h **** {
  62:../../libdaisy/src/dev/oled_ssd130x.h ****   public:
  63:../../libdaisy/src/dev/oled_ssd130x.h ****     struct Config
  64:../../libdaisy/src/dev/oled_ssd130x.h ****     {
  65:../../libdaisy/src/dev/oled_ssd130x.h ****         struct
  66:../../libdaisy/src/dev/oled_ssd130x.h ****         {
  67:../../libdaisy/src/dev/oled_ssd130x.h ****             dsy_gpio_pin dc;    /**< & */
  68:../../libdaisy/src/dev/oled_ssd130x.h ****             dsy_gpio_pin reset; /**< & */
  69:../../libdaisy/src/dev/oled_ssd130x.h ****         } pin_config;
  70:../../libdaisy/src/dev/oled_ssd130x.h ****         void Defaults()
  71:../../libdaisy/src/dev/oled_ssd130x.h ****         {
  72:../../libdaisy/src/dev/oled_ssd130x.h ****             pin_config.dc    = {DSY_GPIOB, 4};
  73:../../libdaisy/src/dev/oled_ssd130x.h ****             pin_config.reset = {DSY_GPIOB, 15};
  74:../../libdaisy/src/dev/oled_ssd130x.h ****         }
  75:../../libdaisy/src/dev/oled_ssd130x.h ****     };
  76:../../libdaisy/src/dev/oled_ssd130x.h ****     void Init(const Config& config)
  77:../../libdaisy/src/dev/oled_ssd130x.h ****     {
  78:../../libdaisy/src/dev/oled_ssd130x.h ****         // Initialize both GPIO
  79:../../libdaisy/src/dev/oled_ssd130x.h ****         pin_dc_.mode = DSY_GPIO_MODE_OUTPUT_PP;
  80:../../libdaisy/src/dev/oled_ssd130x.h ****         pin_dc_.pin  = config.pin_config.dc;
  81:../../libdaisy/src/dev/oled_ssd130x.h ****         dsy_gpio_init(&pin_dc_);
  82:../../libdaisy/src/dev/oled_ssd130x.h ****         pin_reset_.mode = DSY_GPIO_MODE_OUTPUT_PP;
  83:../../libdaisy/src/dev/oled_ssd130x.h ****         pin_reset_.pin  = config.pin_config.reset;
  84:../../libdaisy/src/dev/oled_ssd130x.h ****         dsy_gpio_init(&pin_reset_);
  85:../../libdaisy/src/dev/oled_ssd130x.h ****         // Initialize SPI
  86:../../libdaisy/src/dev/oled_ssd130x.h ****         SpiHandle::Config spi_config;
  87:../../libdaisy/src/dev/oled_ssd130x.h ****         spi_config.periph    = SpiHandle::Config::Peripheral::SPI_1;
  88:../../libdaisy/src/dev/oled_ssd130x.h ****         spi_config.mode      = SpiHandle::Config::Mode::MASTER;
  89:../../libdaisy/src/dev/oled_ssd130x.h ****         spi_config.direction = SpiHandle::Config::Direction::TWO_LINES_TX_ONLY;
  90:../../libdaisy/src/dev/oled_ssd130x.h ****         spi_config.datasize  = 8;
  91:../../libdaisy/src/dev/oled_ssd130x.h ****         spi_config.clock_polarity = SpiHandle::Config::ClockPolarity::LOW;
  92:../../libdaisy/src/dev/oled_ssd130x.h ****         spi_config.clock_phase    = SpiHandle::Config::ClockPhase::ONE_EDGE;
  93:../../libdaisy/src/dev/oled_ssd130x.h ****         spi_config.nss            = SpiHandle::Config::NSS::HARD_OUTPUT;
  94:../../libdaisy/src/dev/oled_ssd130x.h ****         spi_config.baud_prescaler = SpiHandle::Config::BaudPrescaler::PS_8;
  95:../../libdaisy/src/dev/oled_ssd130x.h **** 
  96:../../libdaisy/src/dev/oled_ssd130x.h ****         spi_config.pin_config.sclk = {DSY_GPIOG, 11};
  97:../../libdaisy/src/dev/oled_ssd130x.h ****         spi_config.pin_config.miso = {DSY_GPIOX, 0};
  98:../../libdaisy/src/dev/oled_ssd130x.h ****         spi_config.pin_config.mosi = {DSY_GPIOB, 5};
  99:../../libdaisy/src/dev/oled_ssd130x.h ****         spi_config.pin_config.nss  = {DSY_GPIOG, 10};
 100:../../libdaisy/src/dev/oled_ssd130x.h **** 
ARM GAS  /tmp/cceRX0y9.s 			page 18


 101:../../libdaisy/src/dev/oled_ssd130x.h ****         spi_.Init(spi_config);
 102:../../libdaisy/src/dev/oled_ssd130x.h **** 
 103:../../libdaisy/src/dev/oled_ssd130x.h ****         // Reset and Configure OLED.
 104:../../libdaisy/src/dev/oled_ssd130x.h ****         dsy_gpio_write(&pin_reset_, 0);
 105:../../libdaisy/src/dev/oled_ssd130x.h ****         System::Delay(10);
 106:../../libdaisy/src/dev/oled_ssd130x.h ****         dsy_gpio_write(&pin_reset_, 1);
 107:../../libdaisy/src/dev/oled_ssd130x.h ****         System::Delay(10);
 108:../../libdaisy/src/dev/oled_ssd130x.h ****     };
 109:../../libdaisy/src/dev/oled_ssd130x.h ****     void SendCommand(uint8_t cmd)
 110:../../libdaisy/src/dev/oled_ssd130x.h ****     {
 111:../../libdaisy/src/dev/oled_ssd130x.h ****         dsy_gpio_write(&pin_dc_, 0);
 112:../../libdaisy/src/dev/oled_ssd130x.h ****         spi_.BlockingTransmit(&cmd, 1);
 113:../../libdaisy/src/dev/oled_ssd130x.h ****     };
 114:../../libdaisy/src/dev/oled_ssd130x.h **** 
 115:../../libdaisy/src/dev/oled_ssd130x.h ****     void SendData(uint8_t* buff, size_t size)
 116:../../libdaisy/src/dev/oled_ssd130x.h ****     {
 117:../../libdaisy/src/dev/oled_ssd130x.h ****         dsy_gpio_write(&pin_dc_, 1);
 118:../../libdaisy/src/dev/oled_ssd130x.h ****         spi_.BlockingTransmit(buff, size);
 119:../../libdaisy/src/dev/oled_ssd130x.h ****     };
 120:../../libdaisy/src/dev/oled_ssd130x.h **** 
 121:../../libdaisy/src/dev/oled_ssd130x.h ****   private:
 122:../../libdaisy/src/dev/oled_ssd130x.h ****     SpiHandle spi_;
 123:../../libdaisy/src/dev/oled_ssd130x.h ****     dsy_gpio  pin_reset_;
 124:../../libdaisy/src/dev/oled_ssd130x.h ****     dsy_gpio  pin_dc_;
 125:../../libdaisy/src/dev/oled_ssd130x.h **** };
 126:../../libdaisy/src/dev/oled_ssd130x.h **** 
 127:../../libdaisy/src/dev/oled_ssd130x.h **** 
 128:../../libdaisy/src/dev/oled_ssd130x.h **** /**
 129:../../libdaisy/src/dev/oled_ssd130x.h ****  * A driver implementation for the SSD1306/SSD1309
 130:../../libdaisy/src/dev/oled_ssd130x.h ****  */
 131:../../libdaisy/src/dev/oled_ssd130x.h **** template <size_t width, size_t height, typename Transport>
 132:../../libdaisy/src/dev/oled_ssd130x.h **** class SSD130xDriver
 133:../../libdaisy/src/dev/oled_ssd130x.h **** {
 134:../../libdaisy/src/dev/oled_ssd130x.h ****   public:
 135:../../libdaisy/src/dev/oled_ssd130x.h ****     struct Config
 136:../../libdaisy/src/dev/oled_ssd130x.h ****     {
 137:../../libdaisy/src/dev/oled_ssd130x.h ****         typename Transport::Config transport_config;
 138:../../libdaisy/src/dev/oled_ssd130x.h ****     };
 139:../../libdaisy/src/dev/oled_ssd130x.h **** 
 140:../../libdaisy/src/dev/oled_ssd130x.h ****     void Init(Config config)
 141:../../libdaisy/src/dev/oled_ssd130x.h ****     {
 142:../../libdaisy/src/dev/oled_ssd130x.h ****         transport_.Init(config.transport_config);
 143:../../libdaisy/src/dev/oled_ssd130x.h **** 
 144:../../libdaisy/src/dev/oled_ssd130x.h ****         // Init routine...
 145:../../libdaisy/src/dev/oled_ssd130x.h **** 
 146:../../libdaisy/src/dev/oled_ssd130x.h ****         // Display Off
 147:../../libdaisy/src/dev/oled_ssd130x.h ****         transport_.SendCommand(0xaE);
 148:../../libdaisy/src/dev/oled_ssd130x.h ****         // Dimension dependent commands...
 149:../../libdaisy/src/dev/oled_ssd130x.h ****         switch(height)
 150:../../libdaisy/src/dev/oled_ssd130x.h ****         {
 151:../../libdaisy/src/dev/oled_ssd130x.h ****             case 16:
 152:../../libdaisy/src/dev/oled_ssd130x.h ****                 // Display Clock Divide Ratio
 153:../../libdaisy/src/dev/oled_ssd130x.h ****                 transport_.SendCommand(0xD5);
 154:../../libdaisy/src/dev/oled_ssd130x.h ****                 transport_.SendCommand(0x60);
 155:../../libdaisy/src/dev/oled_ssd130x.h ****                 // Multiplex Ratio
 156:../../libdaisy/src/dev/oled_ssd130x.h ****                 transport_.SendCommand(0xA8);
 157:../../libdaisy/src/dev/oled_ssd130x.h ****                 transport_.SendCommand(0x0F);
ARM GAS  /tmp/cceRX0y9.s 			page 19


 158:../../libdaisy/src/dev/oled_ssd130x.h ****                 // COM Pins
 159:../../libdaisy/src/dev/oled_ssd130x.h ****                 transport_.SendCommand(0xDA);
 160:../../libdaisy/src/dev/oled_ssd130x.h ****                 transport_.SendCommand(0x02);
 161:../../libdaisy/src/dev/oled_ssd130x.h ****                 break;
 162:../../libdaisy/src/dev/oled_ssd130x.h ****             case 32:
 163:../../libdaisy/src/dev/oled_ssd130x.h ****                 // Display Clock Divide Ratio
 164:../../libdaisy/src/dev/oled_ssd130x.h ****                 transport_.SendCommand(0xD5);
 165:../../libdaisy/src/dev/oled_ssd130x.h ****                 transport_.SendCommand(0x80);
 166:../../libdaisy/src/dev/oled_ssd130x.h ****                 // Multiplex Ratio
 167:../../libdaisy/src/dev/oled_ssd130x.h ****                 transport_.SendCommand(0xA8);
 168:../../libdaisy/src/dev/oled_ssd130x.h ****                 transport_.SendCommand(0x1F);
 169:../../libdaisy/src/dev/oled_ssd130x.h ****                 // COM Pins
 170:../../libdaisy/src/dev/oled_ssd130x.h ****                 transport_.SendCommand(0xDA);
 171:../../libdaisy/src/dev/oled_ssd130x.h ****                 if(width == 64)
 172:../../libdaisy/src/dev/oled_ssd130x.h ****                 {
 173:../../libdaisy/src/dev/oled_ssd130x.h ****                     transport_.SendCommand(0x12);
 174:../../libdaisy/src/dev/oled_ssd130x.h ****                 }
 175:../../libdaisy/src/dev/oled_ssd130x.h ****                 else
 176:../../libdaisy/src/dev/oled_ssd130x.h ****                 {
 177:../../libdaisy/src/dev/oled_ssd130x.h ****                     transport_.SendCommand(0x02);
 178:../../libdaisy/src/dev/oled_ssd130x.h ****                 }
 179:../../libdaisy/src/dev/oled_ssd130x.h **** 
 180:../../libdaisy/src/dev/oled_ssd130x.h ****                 break;
 181:../../libdaisy/src/dev/oled_ssd130x.h ****             case 48:
 182:../../libdaisy/src/dev/oled_ssd130x.h ****                 // Display Clock Divide Ratio
 183:../../libdaisy/src/dev/oled_ssd130x.h ****                 transport_.SendCommand(0xD5);
 184:../../libdaisy/src/dev/oled_ssd130x.h ****                 transport_.SendCommand(0x80);
 185:../../libdaisy/src/dev/oled_ssd130x.h ****                 // Multiplex Ratio
 186:../../libdaisy/src/dev/oled_ssd130x.h ****                 transport_.SendCommand(0xA8);
 187:../../libdaisy/src/dev/oled_ssd130x.h ****                 transport_.SendCommand(0x2F);
 188:../../libdaisy/src/dev/oled_ssd130x.h ****                 // COM Pins
 189:../../libdaisy/src/dev/oled_ssd130x.h ****                 transport_.SendCommand(0xDA);
 190:../../libdaisy/src/dev/oled_ssd130x.h ****                 transport_.SendCommand(0x12);
 191:../../libdaisy/src/dev/oled_ssd130x.h ****                 break;
 192:../../libdaisy/src/dev/oled_ssd130x.h ****             default: // 128
 193:../../libdaisy/src/dev/oled_ssd130x.h ****                 // Display Clock Divide Ratio
 194:../../libdaisy/src/dev/oled_ssd130x.h ****                 transport_.SendCommand(0xD5);
 195:../../libdaisy/src/dev/oled_ssd130x.h ****                 transport_.SendCommand(0x80);
 196:../../libdaisy/src/dev/oled_ssd130x.h ****                 // Multiplex Ratio
 197:../../libdaisy/src/dev/oled_ssd130x.h ****                 transport_.SendCommand(0xA8);
 198:../../libdaisy/src/dev/oled_ssd130x.h ****                 transport_.SendCommand(0x3F);
 199:../../libdaisy/src/dev/oled_ssd130x.h ****                 // COM Pins
 200:../../libdaisy/src/dev/oled_ssd130x.h ****                 transport_.SendCommand(0xDA);
 201:../../libdaisy/src/dev/oled_ssd130x.h ****                 transport_.SendCommand(0x12);
 202:../../libdaisy/src/dev/oled_ssd130x.h ****                 break;
 203:../../libdaisy/src/dev/oled_ssd130x.h ****         }
 204:../../libdaisy/src/dev/oled_ssd130x.h **** 
 205:../../libdaisy/src/dev/oled_ssd130x.h ****         // Display Offset
 206:../../libdaisy/src/dev/oled_ssd130x.h ****         transport_.SendCommand(0xD3);
 207:../../libdaisy/src/dev/oled_ssd130x.h ****         transport_.SendCommand(0x00);
 208:../../libdaisy/src/dev/oled_ssd130x.h ****         // Start Line Address
 209:../../libdaisy/src/dev/oled_ssd130x.h ****         transport_.SendCommand(0x40);
 210:../../libdaisy/src/dev/oled_ssd130x.h ****         // Normal Display
 211:../../libdaisy/src/dev/oled_ssd130x.h ****         transport_.SendCommand(0xA6);
 212:../../libdaisy/src/dev/oled_ssd130x.h ****         // All On Resume
 213:../../libdaisy/src/dev/oled_ssd130x.h ****         transport_.SendCommand(0xA4);
 214:../../libdaisy/src/dev/oled_ssd130x.h ****         // Charge Pump
ARM GAS  /tmp/cceRX0y9.s 			page 20


 215:../../libdaisy/src/dev/oled_ssd130x.h ****         transport_.SendCommand(0x8D);
 216:../../libdaisy/src/dev/oled_ssd130x.h ****         transport_.SendCommand(0x14);
 217:../../libdaisy/src/dev/oled_ssd130x.h ****         // Set Segment Remap
 218:../../libdaisy/src/dev/oled_ssd130x.h ****         transport_.SendCommand(0xA1);
 219:../../libdaisy/src/dev/oled_ssd130x.h ****         // COM Output Scan Direction
 220:../../libdaisy/src/dev/oled_ssd130x.h ****         transport_.SendCommand(0xC8);
 221:../../libdaisy/src/dev/oled_ssd130x.h ****         // Contrast Control
 222:../../libdaisy/src/dev/oled_ssd130x.h ****         transport_.SendCommand(0x81);
 223:../../libdaisy/src/dev/oled_ssd130x.h ****         transport_.SendCommand(0x8F);
 224:../../libdaisy/src/dev/oled_ssd130x.h ****         // Pre Charge
 225:../../libdaisy/src/dev/oled_ssd130x.h ****         transport_.SendCommand(0xD9);
 226:../../libdaisy/src/dev/oled_ssd130x.h ****         transport_.SendCommand(0x25);
 227:../../libdaisy/src/dev/oled_ssd130x.h ****         // VCOM Detect
 228:../../libdaisy/src/dev/oled_ssd130x.h ****         transport_.SendCommand(0xDB);
 229:../../libdaisy/src/dev/oled_ssd130x.h ****         transport_.SendCommand(0x34);
 230:../../libdaisy/src/dev/oled_ssd130x.h **** 
 231:../../libdaisy/src/dev/oled_ssd130x.h **** 
 232:../../libdaisy/src/dev/oled_ssd130x.h ****         // Display On
 233:../../libdaisy/src/dev/oled_ssd130x.h ****         transport_.SendCommand(0xAF); //--turn on oled panel
 234:../../libdaisy/src/dev/oled_ssd130x.h ****     };
 235:../../libdaisy/src/dev/oled_ssd130x.h **** 
 236:../../libdaisy/src/dev/oled_ssd130x.h ****     size_t Width() const { return width; };
 237:../../libdaisy/src/dev/oled_ssd130x.h ****     size_t Height() const { return height; };
 238:../../libdaisy/src/dev/oled_ssd130x.h **** 
 239:../../libdaisy/src/dev/oled_ssd130x.h ****     void DrawPixel(uint_fast8_t x, uint_fast8_t y, bool on)
 240:../../libdaisy/src/dev/oled_ssd130x.h ****     {
 241:../../libdaisy/src/dev/oled_ssd130x.h ****         if(x >= width || y >= height)
 242:../../libdaisy/src/dev/oled_ssd130x.h ****             return;
 243:../../libdaisy/src/dev/oled_ssd130x.h ****         if(on)
 244:../../libdaisy/src/dev/oled_ssd130x.h ****             buffer_[x + (y / 8) * width] |= (1 << (y % 8));
 245:../../libdaisy/src/dev/oled_ssd130x.h ****         else
 246:../../libdaisy/src/dev/oled_ssd130x.h ****             buffer_[x + (y / 8) * width] &= ~(1 << (y % 8));
 247:../../libdaisy/src/dev/oled_ssd130x.h ****     }
 248:../../libdaisy/src/dev/oled_ssd130x.h **** 
 249:../../libdaisy/src/dev/oled_ssd130x.h ****     void Fill(bool on)
 160              		.loc 12 249 10 view .LVU27
 161              	.LBB784:
 250:../../libdaisy/src/dev/oled_ssd130x.h ****     {
 251:../../libdaisy/src/dev/oled_ssd130x.h ****         for(size_t i = 0; i < sizeof(buffer_); i++)
 162              		.loc 12 251 29 view .LVU28
 163 0000 4942     		rsbs	r1, r1, #0
 164              	.LVL3:
 165              		.loc 12 251 29 is_stmt 0 view .LVU29
 166 0002 00F11303 		add	r3, r0, #19
 167 0006 00F21342 		addw	r2, r0, #1043
 168 000a C9B2     		uxtb	r1, r1
 169              	.LVL4:
 170              	.L5:
 252:../../libdaisy/src/dev/oled_ssd130x.h ****         {
 253:../../libdaisy/src/dev/oled_ssd130x.h ****             buffer_[i] = on ? 0xff : 0x00;
 171              		.loc 12 253 13 view .LVU30
 172 000c 03F8011F 		strb	r1, [r3, #1]!
 173              	.LVL5:
 251:../../libdaisy/src/dev/oled_ssd130x.h ****         {
 174              		.loc 12 251 9 is_stmt 1 view .LVU31
 251:../../libdaisy/src/dev/oled_ssd130x.h ****         {
 175              		.loc 12 251 29 view .LVU32
ARM GAS  /tmp/cceRX0y9.s 			page 21


 176 0010 9342     		cmp	r3, r2
 177 0012 FBD1     		bne	.L5
 178              	.LBE784:
 179              	.LBE783:
 180              		.loc 2 33 53 is_stmt 0 view .LVU33
 181 0014 7047     		bx	lr
 182              		.cfi_endproc
 183              	.LFE4561:
 185 0016 00BF     		.section	.text.__tcf_0,"ax",%progbits
 186              		.align	1
 187              		.p2align 2,,3
 188              		.syntax unified
 189              		.thumb
 190              		.thumb_func
 191              		.fpu fpv5-d16
 193              	__tcf_0:
 194              	.LFB4836:
 195              		.file 13 "QuadEnvelope.cpp"
   1:QuadEnvelope.cpp **** #include "daisy_patch.h"
   2:QuadEnvelope.cpp **** #include "daisysp.h"
   3:QuadEnvelope.cpp **** #include <string>
   4:QuadEnvelope.cpp **** 
   5:QuadEnvelope.cpp **** using namespace daisy;
   6:QuadEnvelope.cpp **** using namespace daisysp;
   7:QuadEnvelope.cpp **** 
   8:QuadEnvelope.cpp **** DaisyPatch hw;
   9:QuadEnvelope.cpp **** 
  10:QuadEnvelope.cpp **** int curveTimeMode;
  11:QuadEnvelope.cpp **** 
  12:QuadEnvelope.cpp **** struct envStruct
  13:QuadEnvelope.cpp **** {
  14:QuadEnvelope.cpp ****     AdEnv     env;
  15:QuadEnvelope.cpp ****     Parameter attackParam;
  16:QuadEnvelope.cpp ****     Parameter decayParam;
  17:QuadEnvelope.cpp ****     Parameter curveParam;
  18:QuadEnvelope.cpp ****     float     envSig;
  19:QuadEnvelope.cpp **** };
  20:QuadEnvelope.cpp **** 
  21:QuadEnvelope.cpp **** envStruct envelopes[2];
 196              		.loc 13 21 11 is_stmt 1 view -0
 197              		.cfi_startproc
 198              		@ args = 0, pretend = 0, frame = 0
 199              		@ frame_needed = 0, uses_anonymous_args = 0
 200              		@ link register save eliminated.
 201              		.loc 13 21 11 is_stmt 0 view .LVU35
 202 0000 7047     		bx	lr
 203              		.cfi_endproc
 204              	.LFE4836:
 206 0002 00BF     		.section	.text._ZNK5daisy11OledDisplayINS_13SSD130xDriverILj128ELj64ENS_24SSD130x4WireSpiTransport
 207              		.align	1
 208              		.p2align 2,,3
 209              		.weak	_ZNK5daisy11OledDisplayINS_13SSD130xDriverILj128ELj64ENS_24SSD130x4WireSpiTransportEEEE6Heig
 210              		.syntax unified
 211              		.thumb
 212              		.thumb_func
 213              		.fpu fpv5-d16
 215              	_ZNK5daisy11OledDisplayINS_13SSD130xDriverILj128ELj64ENS_24SSD130x4WireSpiTransportEEEE6HeightEv:
ARM GAS  /tmp/cceRX0y9.s 			page 22


 216              	.LVL6:
 217              	.LFB4837:
  26:../../libdaisy/src/hid/disp/oled_display.h ****     uint16_t Width() const override { return driver_.Width(); }
 218              		.loc 2 26 14 is_stmt 1 view -0
 219              		.cfi_startproc
 220              		@ args = 0, pretend = 0, frame = 0
 221              		@ frame_needed = 0, uses_anonymous_args = 0
 222              		@ link register save eliminated.
  26:../../libdaisy/src/hid/disp/oled_display.h ****     uint16_t Width() const override { return driver_.Width(); }
 223              		.loc 2 26 65 is_stmt 0 view .LVU37
 224 0000 4020     		movs	r0, #64
 225              	.LVL7:
  26:../../libdaisy/src/hid/disp/oled_display.h ****     uint16_t Width() const override { return driver_.Width(); }
 226              		.loc 2 26 65 view .LVU38
 227 0002 7047     		bx	lr
 228              		.cfi_endproc
 229              	.LFE4837:
 231              		.section	.text._ZNK5daisy11OledDisplayINS_13SSD130xDriverILj128ELj64ENS_24SSD130x4WireSpiTransport
 232              		.align	1
 233              		.p2align 2,,3
 234              		.weak	_ZNK5daisy11OledDisplayINS_13SSD130xDriverILj128ELj64ENS_24SSD130x4WireSpiTransportEEEE5Widt
 235              		.syntax unified
 236              		.thumb
 237              		.thumb_func
 238              		.fpu fpv5-d16
 240              	_ZNK5daisy11OledDisplayINS_13SSD130xDriverILj128ELj64ENS_24SSD130x4WireSpiTransportEEEE5WidthEv:
 241              	.LVL8:
 242              	.LFB4838:
  27:../../libdaisy/src/hid/disp/oled_display.h **** 
 243              		.loc 2 27 14 is_stmt 1 view -0
 244              		.cfi_startproc
 245              		@ args = 0, pretend = 0, frame = 0
 246              		@ frame_needed = 0, uses_anonymous_args = 0
 247              		@ link register save eliminated.
  27:../../libdaisy/src/hid/disp/oled_display.h **** 
 248              		.loc 2 27 63 is_stmt 0 view .LVU40
 249 0000 8020     		movs	r0, #128
 250              	.LVL9:
  27:../../libdaisy/src/hid/disp/oled_display.h **** 
 251              		.loc 2 27 63 view .LVU41
 252 0002 7047     		bx	lr
 253              		.cfi_endproc
 254              	.LFE4838:
 256              		.section	.text._ZN5daisy11OledDisplayINS_13SSD130xDriverILj128ELj64ENS_24SSD130x4WireSpiTransportE
 257              		.align	1
 258              		.p2align 2,,3
 259              		.weak	_ZN5daisy11OledDisplayINS_13SSD130xDriverILj128ELj64ENS_24SSD130x4WireSpiTransportEEEED0Ev
 260              		.syntax unified
 261              		.thumb
 262              		.thumb_func
 263              		.fpu fpv5-d16
 265              	_ZN5daisy11OledDisplayINS_13SSD130xDriverILj128ELj64ENS_24SSD130x4WireSpiTransportEEEED0Ev:
 266              	.LVL10:
 267              	.LFB4274:
  17:../../libdaisy/src/hid/disp/oled_display.h **** 
 268              		.loc 2 17 13 is_stmt 1 view -0
 269              		.cfi_startproc
ARM GAS  /tmp/cceRX0y9.s 			page 23


 270              		@ args = 0, pretend = 0, frame = 0
 271              		@ frame_needed = 0, uses_anonymous_args = 0
  17:../../libdaisy/src/hid/disp/oled_display.h **** 
 272              		.loc 2 17 13 is_stmt 0 view .LVU43
 273 0000 10B5     		push	{r4, lr}
 274              		.cfi_def_cfa_offset 8
 275              		.cfi_offset 4, -8
 276              		.cfi_offset 14, -4
  17:../../libdaisy/src/hid/disp/oled_display.h **** 
 277              		.loc 2 17 13 view .LVU44
 278 0002 0446     		mov	r4, r0
 279              	.LVL11:
 280              	.LBB785:
 281              	.LBI785:
  17:../../libdaisy/src/hid/disp/oled_display.h **** 
 282              		.loc 2 17 13 is_stmt 1 view .LVU45
 283              	.LBB786:
 284              	.LBI786:
 285              		.loc 3 219 13 view .LVU46
 286              	.LBB787:
 287              	.LBI787:
  23:../../libdaisy/src/hid/disp/display.h **** 
 288              		.loc 3 23 13 view .LVU47
  23:../../libdaisy/src/hid/disp/display.h **** 
 289              		.loc 3 23 13 is_stmt 0 view .LVU48
 290              	.LBE787:
 291              	.LBE786:
 292              	.LBE785:
  17:../../libdaisy/src/hid/disp/oled_display.h **** 
 293              		.loc 2 17 29 view .LVU49
 294 0004 40F21441 		movw	r1, #1044
 295 0008 FFF7FEFF 		bl	_ZdlPvj
 296              	.LVL12:
  17:../../libdaisy/src/hid/disp/oled_display.h **** 
 297              		.loc 2 17 29 view .LVU50
 298 000c 2046     		mov	r0, r4
 299 000e 10BD     		pop	{r4, pc}
  17:../../libdaisy/src/hid/disp/oled_display.h **** 
 300              		.loc 2 17 29 view .LVU51
 301              		.cfi_endproc
 302              	.LFE4274:
 304              		.section	.text._ZN5daisy11OledDisplayINS_13SSD130xDriverILj128ELj64ENS_24SSD130x4WireSpiTransportE
 305              		.align	1
 306              		.p2align 2,,3
 307              		.weak	_ZN5daisy11OledDisplayINS_13SSD130xDriverILj128ELj64ENS_24SSD130x4WireSpiTransportEEEE6Updat
 308              		.syntax unified
 309              		.thumb
 310              		.thumb_func
 311              		.fpu fpv5-d16
 313              	_ZN5daisy11OledDisplayINS_13SSD130xDriverILj128ELj64ENS_24SSD130x4WireSpiTransportEEEE6UpdateEv:
 314              	.LVL13:
 315              	.LFB4565:
  34:../../libdaisy/src/hid/disp/oled_display.h **** 
  35:../../libdaisy/src/hid/disp/oled_display.h ****     /**
  36:../../libdaisy/src/hid/disp/oled_display.h ****     Sets the pixel at the specified coordinate to be on/off.
  37:../../libdaisy/src/hid/disp/oled_display.h ****     \param x   x Coordinate
  38:../../libdaisy/src/hid/disp/oled_display.h ****     \param y   y coordinate
ARM GAS  /tmp/cceRX0y9.s 			page 24


  39:../../libdaisy/src/hid/disp/oled_display.h ****     \param on  on or off
  40:../../libdaisy/src/hid/disp/oled_display.h ****     */
  41:../../libdaisy/src/hid/disp/oled_display.h ****     void DrawPixel(uint_fast8_t x, uint_fast8_t y, bool on) override
  42:../../libdaisy/src/hid/disp/oled_display.h ****     {
  43:../../libdaisy/src/hid/disp/oled_display.h ****         driver_.DrawPixel(x, y, on);
  44:../../libdaisy/src/hid/disp/oled_display.h ****     }
  45:../../libdaisy/src/hid/disp/oled_display.h **** 
  46:../../libdaisy/src/hid/disp/oled_display.h ****     /** 
  47:../../libdaisy/src/hid/disp/oled_display.h ****     Writes the current display buffer to the OLED device using SPI or I2C depending on 
  48:../../libdaisy/src/hid/disp/oled_display.h ****     how the object was initialized.
  49:../../libdaisy/src/hid/disp/oled_display.h ****     */
  50:../../libdaisy/src/hid/disp/oled_display.h ****     void Update() override { driver_.Update(); }
 316              		.loc 2 50 10 is_stmt 1 view -0
 317              		.cfi_startproc
 318              		@ args = 0, pretend = 0, frame = 8
 319              		@ frame_needed = 0, uses_anonymous_args = 0
 320              	.LBB798:
 321              	.LBI798:
 254:../../libdaisy/src/dev/oled_ssd130x.h ****         }
 255:../../libdaisy/src/dev/oled_ssd130x.h ****     };
 256:../../libdaisy/src/dev/oled_ssd130x.h **** 
 257:../../libdaisy/src/dev/oled_ssd130x.h ****     /**
 258:../../libdaisy/src/dev/oled_ssd130x.h ****      * Update the display 
 259:../../libdaisy/src/dev/oled_ssd130x.h ****     */
 260:../../libdaisy/src/dev/oled_ssd130x.h ****     void Update()
 322              		.loc 12 260 10 view .LVU53
 323              	.LBB799:
 261:../../libdaisy/src/dev/oled_ssd130x.h ****     {
 262:../../libdaisy/src/dev/oled_ssd130x.h ****         uint8_t i;
 263:../../libdaisy/src/dev/oled_ssd130x.h ****         uint8_t high_column_addr;
 264:../../libdaisy/src/dev/oled_ssd130x.h ****         switch(height)
 265:../../libdaisy/src/dev/oled_ssd130x.h ****         {
 266:../../libdaisy/src/dev/oled_ssd130x.h ****             case 32: high_column_addr = 0x12; break;
 267:../../libdaisy/src/dev/oled_ssd130x.h **** 
 268:../../libdaisy/src/dev/oled_ssd130x.h ****             default: high_column_addr = 0x10; break;
 269:../../libdaisy/src/dev/oled_ssd130x.h ****         }
 270:../../libdaisy/src/dev/oled_ssd130x.h ****         for(i = 0; i < (height / 8); i++)
 324              		.loc 12 270 22 view .LVU54
 325              	.LBE799:
 326              	.LBE798:
 327              		.loc 2 50 10 is_stmt 0 view .LVU55
 328 0000 2DE9F041 		push	{r4, r5, r6, r7, r8, lr}
 329              		.cfi_def_cfa_offset 24
 330              		.cfi_offset 4, -24
 331              		.cfi_offset 5, -20
 332              		.cfi_offset 6, -16
 333              		.cfi_offset 7, -12
 334              		.cfi_offset 8, -8
 335              		.cfi_offset 14, -4
 336 0004 B025     		movs	r5, #176
 337 0006 82B0     		sub	sp, sp, #8
 338              		.cfi_def_cfa_offset 32
 339 0008 00F10807 		add	r7, r0, #8
 340 000c 00F11006 		add	r6, r0, #16
 341 0010 00F11404 		add	r4, r0, #20
 342              	.LVL14:
 343              	.L13:
ARM GAS  /tmp/cceRX0y9.s 			page 25


 344              	.LBB812:
 345              	.LBB811:
 346              	.LBB800:
 347              	.LBB801:
 111:../../libdaisy/src/dev/oled_ssd130x.h ****         spi_.BlockingTransmit(&cmd, 1);
 348              		.loc 12 111 23 view .LVU56
 349 0014 0021     		movs	r1, #0
 350 0016 3046     		mov	r0, r6
 351 0018 8DF80750 		strb	r5, [sp, #7]
 352              	.LVL15:
 111:../../libdaisy/src/dev/oled_ssd130x.h ****         spi_.BlockingTransmit(&cmd, 1);
 353              		.loc 12 111 23 view .LVU57
 354              	.LBE801:
 355              	.LBI800:
 109:../../libdaisy/src/dev/oled_ssd130x.h ****     {
 356              		.loc 12 109 10 is_stmt 1 view .LVU58
 357              	.LBB802:
 111:../../libdaisy/src/dev/oled_ssd130x.h ****         spi_.BlockingTransmit(&cmd, 1);
 358              		.loc 12 111 9 view .LVU59
 359 001c 0135     		adds	r5, r5, #1
 360              	.LVL16:
 111:../../libdaisy/src/dev/oled_ssd130x.h ****         spi_.BlockingTransmit(&cmd, 1);
 361              		.loc 12 111 9 is_stmt 0 view .LVU60
 362 001e 8846     		mov	r8, r1
 111:../../libdaisy/src/dev/oled_ssd130x.h ****         spi_.BlockingTransmit(&cmd, 1);
 363              		.loc 12 111 23 view .LVU61
 364 0020 FFF7FEFF 		bl	dsy_gpio_write
 365              	.LVL17:
 112:../../libdaisy/src/dev/oled_ssd130x.h ****     };
 366              		.loc 12 112 9 is_stmt 1 view .LVU62
 112:../../libdaisy/src/dev/oled_ssd130x.h ****     };
 367              		.loc 12 112 30 is_stmt 0 view .LVU63
 368 0024 6423     		movs	r3, #100
 369 0026 0122     		movs	r2, #1
 370 0028 0DF10701 		add	r1, sp, #7
 371 002c 3846     		mov	r0, r7
 372 002e FFF7FEFF 		bl	_ZN5daisy9SpiHandle16BlockingTransmitEPhjm
 373              	.LVL18:
 112:../../libdaisy/src/dev/oled_ssd130x.h ****     };
 374              		.loc 12 112 30 view .LVU64
 375              	.LBE802:
 376              	.LBE800:
 377              	.LBB803:
 378              	.LBB804:
 111:../../libdaisy/src/dev/oled_ssd130x.h ****         spi_.BlockingTransmit(&cmd, 1);
 379              		.loc 12 111 23 view .LVU65
 380 0032 4146     		mov	r1, r8
 381 0034 3046     		mov	r0, r6
 382 0036 8DF80780 		strb	r8, [sp, #7]
 383              	.LVL19:
 111:../../libdaisy/src/dev/oled_ssd130x.h ****         spi_.BlockingTransmit(&cmd, 1);
 384              		.loc 12 111 23 view .LVU66
 385              	.LBE804:
 386              	.LBI803:
 109:../../libdaisy/src/dev/oled_ssd130x.h ****     {
 387              		.loc 12 109 10 is_stmt 1 view .LVU67
 388              	.LBB805:
ARM GAS  /tmp/cceRX0y9.s 			page 26


 111:../../libdaisy/src/dev/oled_ssd130x.h ****         spi_.BlockingTransmit(&cmd, 1);
 389              		.loc 12 111 9 view .LVU68
 111:../../libdaisy/src/dev/oled_ssd130x.h ****         spi_.BlockingTransmit(&cmd, 1);
 390              		.loc 12 111 23 is_stmt 0 view .LVU69
 391 003a FFF7FEFF 		bl	dsy_gpio_write
 392              	.LVL20:
 112:../../libdaisy/src/dev/oled_ssd130x.h ****     };
 393              		.loc 12 112 9 is_stmt 1 view .LVU70
 112:../../libdaisy/src/dev/oled_ssd130x.h ****     };
 394              		.loc 12 112 30 is_stmt 0 view .LVU71
 395 003e 0122     		movs	r2, #1
 396 0040 6423     		movs	r3, #100
 397 0042 0DF10701 		add	r1, sp, #7
 398 0046 3846     		mov	r0, r7
 399 0048 EDB2     		uxtb	r5, r5
 400 004a FFF7FEFF 		bl	_ZN5daisy9SpiHandle16BlockingTransmitEPhjm
 401              	.LVL21:
 112:../../libdaisy/src/dev/oled_ssd130x.h ****     };
 402              		.loc 12 112 30 view .LVU72
 403 004e 1023     		movs	r3, #16
 404              	.LBE805:
 405              	.LBE803:
 406              	.LBB806:
 407              	.LBB807:
 111:../../libdaisy/src/dev/oled_ssd130x.h ****         spi_.BlockingTransmit(&cmd, 1);
 408              		.loc 12 111 23 view .LVU73
 409 0050 4146     		mov	r1, r8
 410 0052 3046     		mov	r0, r6
 411 0054 8DF80730 		strb	r3, [sp, #7]
 412              	.LVL22:
 111:../../libdaisy/src/dev/oled_ssd130x.h ****         spi_.BlockingTransmit(&cmd, 1);
 413              		.loc 12 111 23 view .LVU74
 414              	.LBE807:
 415              	.LBI806:
 109:../../libdaisy/src/dev/oled_ssd130x.h ****     {
 416              		.loc 12 109 10 is_stmt 1 view .LVU75
 417              	.LBB808:
 111:../../libdaisy/src/dev/oled_ssd130x.h ****         spi_.BlockingTransmit(&cmd, 1);
 418              		.loc 12 111 9 view .LVU76
 111:../../libdaisy/src/dev/oled_ssd130x.h ****         spi_.BlockingTransmit(&cmd, 1);
 419              		.loc 12 111 23 is_stmt 0 view .LVU77
 420 0058 FFF7FEFF 		bl	dsy_gpio_write
 421              	.LVL23:
 112:../../libdaisy/src/dev/oled_ssd130x.h ****     };
 422              		.loc 12 112 9 is_stmt 1 view .LVU78
 112:../../libdaisy/src/dev/oled_ssd130x.h ****     };
 423              		.loc 12 112 30 is_stmt 0 view .LVU79
 424 005c 6423     		movs	r3, #100
 425 005e 0122     		movs	r2, #1
 426 0060 0DF10701 		add	r1, sp, #7
 427 0064 3846     		mov	r0, r7
 428 0066 FFF7FEFF 		bl	_ZN5daisy9SpiHandle16BlockingTransmitEPhjm
 429              	.LVL24:
 112:../../libdaisy/src/dev/oled_ssd130x.h ****     };
 430              		.loc 12 112 30 view .LVU80
 431              	.LBE808:
 432              	.LBE806:
ARM GAS  /tmp/cceRX0y9.s 			page 27


 433              	.LBB809:
 434              	.LBI809:
 115:../../libdaisy/src/dev/oled_ssd130x.h ****     {
 435              		.loc 12 115 10 is_stmt 1 view .LVU81
 436              	.LBB810:
 117:../../libdaisy/src/dev/oled_ssd130x.h ****         spi_.BlockingTransmit(buff, size);
 437              		.loc 12 117 9 view .LVU82
 117:../../libdaisy/src/dev/oled_ssd130x.h ****         spi_.BlockingTransmit(buff, size);
 438              		.loc 12 117 23 is_stmt 0 view .LVU83
 439 006a 0121     		movs	r1, #1
 440 006c 3046     		mov	r0, r6
 441 006e FFF7FEFF 		bl	dsy_gpio_write
 442              	.LVL25:
 118:../../libdaisy/src/dev/oled_ssd130x.h ****     };
 443              		.loc 12 118 9 is_stmt 1 view .LVU84
 118:../../libdaisy/src/dev/oled_ssd130x.h ****     };
 444              		.loc 12 118 30 is_stmt 0 view .LVU85
 445 0072 8022     		movs	r2, #128
 446 0074 2146     		mov	r1, r4
 447 0076 6423     		movs	r3, #100
 448 0078 3846     		mov	r0, r7
 449 007a 1444     		add	r4, r4, r2
 450              	.LVL26:
 118:../../libdaisy/src/dev/oled_ssd130x.h ****     };
 451              		.loc 12 118 30 view .LVU86
 452 007c FFF7FEFF 		bl	_ZN5daisy9SpiHandle16BlockingTransmitEPhjm
 453              	.LVL27:
 118:../../libdaisy/src/dev/oled_ssd130x.h ****     };
 454              		.loc 12 118 30 view .LVU87
 455              	.LBE810:
 456              	.LBE809:
 457              		.loc 12 270 9 is_stmt 1 view .LVU88
 458              		.loc 12 270 22 view .LVU89
 459 0080 B82D     		cmp	r5, #184
 460 0082 C7D1     		bne	.L13
 461              	.LBE811:
 462              	.LBE812:
 463              		.loc 2 50 48 is_stmt 0 view .LVU90
 464 0084 02B0     		add	sp, sp, #8
 465              		.cfi_def_cfa_offset 24
 466              		@ sp needed
 467 0086 BDE8F081 		pop	{r4, r5, r6, r7, r8, pc}
 468              		.loc 2 50 48 view .LVU91
 469              		.cfi_endproc
 470              	.LFE4565:
 472 008a 00BF     		.section	.text._ZN5daisy25OneBitGraphicsDisplayImplINS_11OledDisplayINS_13SSD130xDriverILj128ELj64
 473              		.align	1
 474              		.p2align 2,,3
 475              		.weak	_ZN5daisy25OneBitGraphicsDisplayImplINS_11OledDisplayINS_13SSD130xDriverILj128ELj64ENS_24SSD
 476              		.syntax unified
 477              		.thumb
 478              		.thumb_func
 479              		.fpu fpv5-d16
 481              	_ZN5daisy25OneBitGraphicsDisplayImplINS_11OledDisplayINS_13SSD130xDriverILj128ELj64ENS_24SSD130x4Wi
 482              	.LVL28:
 483              	.LFB4692:
 220:../../libdaisy/src/hid/disp/display.h **** 
ARM GAS  /tmp/cceRX0y9.s 			page 28


 221:../../libdaisy/src/hid/disp/display.h ****     void DrawLine(uint_fast8_t x1,
 222:../../libdaisy/src/hid/disp/display.h ****                   uint_fast8_t y1,
 223:../../libdaisy/src/hid/disp/display.h ****                   uint_fast8_t x2,
 224:../../libdaisy/src/hid/disp/display.h ****                   uint_fast8_t y2,
 225:../../libdaisy/src/hid/disp/display.h ****                   bool         on) override
 226:../../libdaisy/src/hid/disp/display.h ****     {
 227:../../libdaisy/src/hid/disp/display.h ****         int_fast16_t deltaX = abs((int_fast16_t)x2 - (int_fast16_t)x1);
 228:../../libdaisy/src/hid/disp/display.h ****         int_fast16_t deltaY = abs((int_fast16_t)y2 - (int_fast16_t)y1);
 229:../../libdaisy/src/hid/disp/display.h ****         int_fast16_t signX  = ((x1 < x2) ? 1 : -1);
 230:../../libdaisy/src/hid/disp/display.h ****         int_fast16_t signY  = ((y1 < y2) ? 1 : -1);
 231:../../libdaisy/src/hid/disp/display.h ****         int_fast16_t error  = deltaX - deltaY;
 232:../../libdaisy/src/hid/disp/display.h ****         int_fast16_t error2;
 233:../../libdaisy/src/hid/disp/display.h **** 
 234:../../libdaisy/src/hid/disp/display.h ****         // If we write "ChildType::DrawPixel(x2, y2, on);", we end up with
 235:../../libdaisy/src/hid/disp/display.h ****         // all sorts of weird compiler errors when the Child class is a template
 236:../../libdaisy/src/hid/disp/display.h ****         // class. The only way around this is to use this very verbose syntax:
 237:../../libdaisy/src/hid/disp/display.h ****         ((ChildType*)(this))->ChildType::DrawPixel(x2, y2, on);
 238:../../libdaisy/src/hid/disp/display.h **** 
 239:../../libdaisy/src/hid/disp/display.h ****         while((x1 != x2) || (y1 != y2))
 240:../../libdaisy/src/hid/disp/display.h ****         {
 241:../../libdaisy/src/hid/disp/display.h ****             ((ChildType*)(this))->ChildType::DrawPixel(x1, y1, on);
 242:../../libdaisy/src/hid/disp/display.h ****             error2 = error * 2;
 243:../../libdaisy/src/hid/disp/display.h ****             if(error2 > -deltaY)
 244:../../libdaisy/src/hid/disp/display.h ****             {
 245:../../libdaisy/src/hid/disp/display.h ****                 error -= deltaY;
 246:../../libdaisy/src/hid/disp/display.h ****                 x1 += signX;
 247:../../libdaisy/src/hid/disp/display.h ****             }
 248:../../libdaisy/src/hid/disp/display.h **** 
 249:../../libdaisy/src/hid/disp/display.h ****             if(error2 < deltaX)
 250:../../libdaisy/src/hid/disp/display.h ****             {
 251:../../libdaisy/src/hid/disp/display.h ****                 error += deltaX;
 252:../../libdaisy/src/hid/disp/display.h ****                 y1 += signY;
 253:../../libdaisy/src/hid/disp/display.h ****             }
 254:../../libdaisy/src/hid/disp/display.h ****         }
 255:../../libdaisy/src/hid/disp/display.h ****     }
 256:../../libdaisy/src/hid/disp/display.h **** 
 257:../../libdaisy/src/hid/disp/display.h ****     void DrawRect(uint_fast8_t x1,
 258:../../libdaisy/src/hid/disp/display.h ****                   uint_fast8_t y1,
 259:../../libdaisy/src/hid/disp/display.h ****                   uint_fast8_t x2,
 260:../../libdaisy/src/hid/disp/display.h ****                   uint_fast8_t y2,
 261:../../libdaisy/src/hid/disp/display.h ****                   bool         on,
 262:../../libdaisy/src/hid/disp/display.h ****                   bool         fill = false) override
 263:../../libdaisy/src/hid/disp/display.h ****     {
 264:../../libdaisy/src/hid/disp/display.h ****         if(fill)
 265:../../libdaisy/src/hid/disp/display.h ****         {
 266:../../libdaisy/src/hid/disp/display.h ****             for(uint_fast8_t x = x1; x <= x2; x++)
 267:../../libdaisy/src/hid/disp/display.h ****             {
 268:../../libdaisy/src/hid/disp/display.h ****                 for(uint_fast8_t y = y1; y <= y2; y++)
 269:../../libdaisy/src/hid/disp/display.h ****                 {
 270:../../libdaisy/src/hid/disp/display.h ****                     ((ChildType*)(this))->ChildType::DrawPixel(x, y, on);
 271:../../libdaisy/src/hid/disp/display.h ****                 }
 272:../../libdaisy/src/hid/disp/display.h ****             }
 273:../../libdaisy/src/hid/disp/display.h ****         }
 274:../../libdaisy/src/hid/disp/display.h ****         else
 275:../../libdaisy/src/hid/disp/display.h ****         {
 276:../../libdaisy/src/hid/disp/display.h ****             ((ChildType*)(this))->ChildType::DrawLine(x1, y1, x2, y1, on);
 277:../../libdaisy/src/hid/disp/display.h ****             ((ChildType*)(this))->ChildType::DrawLine(x2, y1, x2, y2, on);
ARM GAS  /tmp/cceRX0y9.s 			page 29


 278:../../libdaisy/src/hid/disp/display.h ****             ((ChildType*)(this))->ChildType::DrawLine(x2, y2, x1, y2, on);
 279:../../libdaisy/src/hid/disp/display.h ****             ((ChildType*)(this))->ChildType::DrawLine(x1, y2, x1, y1, on);
 280:../../libdaisy/src/hid/disp/display.h ****         }
 281:../../libdaisy/src/hid/disp/display.h ****     }
 282:../../libdaisy/src/hid/disp/display.h **** 
 283:../../libdaisy/src/hid/disp/display.h ****     void DrawArc(uint_fast8_t x,
 284:../../libdaisy/src/hid/disp/display.h ****                  uint_fast8_t y,
 285:../../libdaisy/src/hid/disp/display.h ****                  uint_fast8_t radius,
 286:../../libdaisy/src/hid/disp/display.h ****                  int_fast16_t start_angle,
 287:../../libdaisy/src/hid/disp/display.h ****                  int_fast16_t sweep,
 288:../../libdaisy/src/hid/disp/display.h ****                  bool         on) override
 289:../../libdaisy/src/hid/disp/display.h ****     {
 290:../../libdaisy/src/hid/disp/display.h ****         // Values to calculate the circle
 291:../../libdaisy/src/hid/disp/display.h ****         int_fast16_t t_x, t_y, err, e2;
 292:../../libdaisy/src/hid/disp/display.h **** 
 293:../../libdaisy/src/hid/disp/display.h ****         // Temporary values to speed up comparisons
 294:../../libdaisy/src/hid/disp/display.h ****         float t_sxy, t_syx, t_sxny, t_synx;
 295:../../libdaisy/src/hid/disp/display.h ****         float t_exy, t_eyx, t_exny, t_eynx;
 296:../../libdaisy/src/hid/disp/display.h **** 
 297:../../libdaisy/src/hid/disp/display.h ****         float start_angle_rad, end_angle_rad;
 298:../../libdaisy/src/hid/disp/display.h ****         float start_x, start_y, end_x, end_y;
 299:../../libdaisy/src/hid/disp/display.h **** 
 300:../../libdaisy/src/hid/disp/display.h ****         bool d1, d2, d3, d4;
 301:../../libdaisy/src/hid/disp/display.h **** 
 302:../../libdaisy/src/hid/disp/display.h ****         d1 = d2 = d3 = d4 = true;
 303:../../libdaisy/src/hid/disp/display.h **** 
 304:../../libdaisy/src/hid/disp/display.h ****         bool circle = false;
 305:../../libdaisy/src/hid/disp/display.h **** 
 306:../../libdaisy/src/hid/disp/display.h ****         if(sweep < 0)
 307:../../libdaisy/src/hid/disp/display.h ****         {
 308:../../libdaisy/src/hid/disp/display.h ****             start_angle += sweep;
 309:../../libdaisy/src/hid/disp/display.h ****             sweep = -sweep;
 310:../../libdaisy/src/hid/disp/display.h ****         }
 311:../../libdaisy/src/hid/disp/display.h **** 
 312:../../libdaisy/src/hid/disp/display.h ****         start_angle_rad = deg2rad(start_angle);
 313:../../libdaisy/src/hid/disp/display.h ****         end_angle_rad   = deg2rad(start_angle + sweep);
 314:../../libdaisy/src/hid/disp/display.h **** 
 315:../../libdaisy/src/hid/disp/display.h ****         start_x = cos(start_angle_rad) * radius;
 316:../../libdaisy/src/hid/disp/display.h ****         start_y = -sin(start_angle_rad) * radius;
 317:../../libdaisy/src/hid/disp/display.h ****         end_x   = cos(end_angle_rad) * radius;
 318:../../libdaisy/src/hid/disp/display.h ****         end_y   = -sin(end_angle_rad) * radius;
 319:../../libdaisy/src/hid/disp/display.h **** 
 320:../../libdaisy/src/hid/disp/display.h ****         // Check if start and endpoint are very near
 321:../../libdaisy/src/hid/disp/display.h ****         if((end_x - start_x) * (end_x - start_x)
 322:../../libdaisy/src/hid/disp/display.h ****                + (end_y - start_y) * (end_y - start_y)
 323:../../libdaisy/src/hid/disp/display.h ****            < 2.0f)
 324:../../libdaisy/src/hid/disp/display.h ****         {
 325:../../libdaisy/src/hid/disp/display.h ****             if(sweep > 180)
 326:../../libdaisy/src/hid/disp/display.h ****                 circle = true;
 327:../../libdaisy/src/hid/disp/display.h ****             else
 328:../../libdaisy/src/hid/disp/display.h ****                 // Nothing to draw
 329:../../libdaisy/src/hid/disp/display.h ****                 return;
 330:../../libdaisy/src/hid/disp/display.h ****         }
 331:../../libdaisy/src/hid/disp/display.h **** 
 332:../../libdaisy/src/hid/disp/display.h ****         t_x = -radius;
 333:../../libdaisy/src/hid/disp/display.h ****         t_y = 0;
 334:../../libdaisy/src/hid/disp/display.h ****         err = 2 - 2 * radius;
ARM GAS  /tmp/cceRX0y9.s 			page 30


 335:../../libdaisy/src/hid/disp/display.h **** 
 336:../../libdaisy/src/hid/disp/display.h ****         do
 337:../../libdaisy/src/hid/disp/display.h ****         {
 338:../../libdaisy/src/hid/disp/display.h ****             if(!circle)
 339:../../libdaisy/src/hid/disp/display.h ****             {
 340:../../libdaisy/src/hid/disp/display.h ****                 t_sxy  = start_x * t_y;
 341:../../libdaisy/src/hid/disp/display.h ****                 t_syx  = start_y * t_x;
 342:../../libdaisy/src/hid/disp/display.h ****                 t_sxny = start_x * -t_y;
 343:../../libdaisy/src/hid/disp/display.h ****                 t_synx = start_y * -t_x;
 344:../../libdaisy/src/hid/disp/display.h ****                 t_exy  = end_x * t_y;
 345:../../libdaisy/src/hid/disp/display.h ****                 t_eyx  = end_y * t_x;
 346:../../libdaisy/src/hid/disp/display.h ****                 t_exny = end_x * -t_y;
 347:../../libdaisy/src/hid/disp/display.h ****                 t_eynx = end_y * -t_x;
 348:../../libdaisy/src/hid/disp/display.h **** 
 349:../../libdaisy/src/hid/disp/display.h ****                 if(sweep > 180)
 350:../../libdaisy/src/hid/disp/display.h ****                 {
 351:../../libdaisy/src/hid/disp/display.h ****                     d1 = (t_sxy - t_synx < 0 || t_exy - t_eynx > 0);
 352:../../libdaisy/src/hid/disp/display.h ****                     d2 = (t_sxy - t_syx < 0 || t_exy - t_eyx > 0);
 353:../../libdaisy/src/hid/disp/display.h ****                     d3 = (t_sxny - t_syx < 0 || t_exny - t_eyx > 0);
 354:../../libdaisy/src/hid/disp/display.h ****                     d4 = (t_sxny - t_synx < 0 || t_exny - t_eynx > 0);
 355:../../libdaisy/src/hid/disp/display.h ****                 }
 356:../../libdaisy/src/hid/disp/display.h ****                 else
 357:../../libdaisy/src/hid/disp/display.h ****                 {
 358:../../libdaisy/src/hid/disp/display.h ****                     d1 = (t_sxy - t_synx < 0 && t_exy - t_eynx > 0);
 359:../../libdaisy/src/hid/disp/display.h ****                     d2 = (t_sxy - t_syx < 0 && t_exy - t_eyx > 0);
 360:../../libdaisy/src/hid/disp/display.h ****                     d3 = (t_sxny - t_syx < 0 && t_exny - t_eyx > 0);
 361:../../libdaisy/src/hid/disp/display.h ****                     d4 = (t_sxny - t_synx < 0 && t_exny - t_eynx > 0);
 362:../../libdaisy/src/hid/disp/display.h ****                 }
 363:../../libdaisy/src/hid/disp/display.h ****             }
 364:../../libdaisy/src/hid/disp/display.h **** 
 365:../../libdaisy/src/hid/disp/display.h ****             if(d1)
 366:../../libdaisy/src/hid/disp/display.h ****                 ((ChildType*)(this))
 367:../../libdaisy/src/hid/disp/display.h ****                     ->ChildType::DrawPixel(x - t_x, y + t_y, on);
 368:../../libdaisy/src/hid/disp/display.h ****             if(d2)
 369:../../libdaisy/src/hid/disp/display.h ****                 ((ChildType*)(this))
 370:../../libdaisy/src/hid/disp/display.h ****                     ->ChildType::DrawPixel(x + t_x, y + t_y, on);
 371:../../libdaisy/src/hid/disp/display.h ****             if(d3)
 372:../../libdaisy/src/hid/disp/display.h ****                 ((ChildType*)(this))
 373:../../libdaisy/src/hid/disp/display.h ****                     ->ChildType::DrawPixel(x + t_x, y - t_y, on);
 374:../../libdaisy/src/hid/disp/display.h ****             if(d4)
 375:../../libdaisy/src/hid/disp/display.h ****                 ((ChildType*)(this))
 376:../../libdaisy/src/hid/disp/display.h ****                     ->ChildType::DrawPixel(x - t_x, y - t_y, on);
 377:../../libdaisy/src/hid/disp/display.h **** 
 378:../../libdaisy/src/hid/disp/display.h ****             e2 = err;
 379:../../libdaisy/src/hid/disp/display.h ****             if(e2 <= t_y)
 380:../../libdaisy/src/hid/disp/display.h ****             {
 381:../../libdaisy/src/hid/disp/display.h ****                 t_y++;
 382:../../libdaisy/src/hid/disp/display.h ****                 err = err + (t_y * 2 + 1);
 383:../../libdaisy/src/hid/disp/display.h ****                 if(-t_x == t_y && e2 <= t_x)
 384:../../libdaisy/src/hid/disp/display.h ****                 {
 385:../../libdaisy/src/hid/disp/display.h ****                     e2 = 0;
 386:../../libdaisy/src/hid/disp/display.h ****                 }
 387:../../libdaisy/src/hid/disp/display.h ****             }
 388:../../libdaisy/src/hid/disp/display.h ****             if(e2 > t_x)
 389:../../libdaisy/src/hid/disp/display.h ****             {
 390:../../libdaisy/src/hid/disp/display.h ****                 t_x++;
 391:../../libdaisy/src/hid/disp/display.h ****                 err = err + (t_x * 2 + 1);
ARM GAS  /tmp/cceRX0y9.s 			page 31


 392:../../libdaisy/src/hid/disp/display.h ****             }
 393:../../libdaisy/src/hid/disp/display.h ****         } while(t_x <= 0);
 394:../../libdaisy/src/hid/disp/display.h ****     }
 395:../../libdaisy/src/hid/disp/display.h **** 
 396:../../libdaisy/src/hid/disp/display.h ****     char WriteChar(char ch, FontDef font, bool on) override
 484              		.loc 3 396 10 is_stmt 1 view -0
 485              		.cfi_startproc
 486              		@ args = 4, pretend = 0, frame = 16
 487              		@ frame_needed = 0, uses_anonymous_args = 0
 488              		.loc 3 396 10 is_stmt 0 view .LVU93
 489 0000 2DE9F04F 		push	{r4, r5, r6, r7, r8, r9, r10, fp, lr}
 490              		.cfi_def_cfa_offset 36
 491              		.cfi_offset 4, -36
 492              		.cfi_offset 5, -32
 493              		.cfi_offset 6, -28
 494              		.cfi_offset 7, -24
 495              		.cfi_offset 8, -20
 496              		.cfi_offset 9, -16
 497              		.cfi_offset 10, -12
 498              		.cfi_offset 11, -8
 499              		.cfi_offset 14, -4
 500 0004 85B0     		sub	sp, sp, #20
 501              		.cfi_def_cfa_offset 56
 502              	.LVL29:
 397:../../libdaisy/src/hid/disp/display.h ****     {
 398:../../libdaisy/src/hid/disp/display.h ****         uint32_t i, b, j;
 399:../../libdaisy/src/hid/disp/display.h **** 
 400:../../libdaisy/src/hid/disp/display.h ****         // Check if character is valid
 401:../../libdaisy/src/hid/disp/display.h ****         if(ch < 32 || ch > 126)
 503              		.loc 3 401 20 view .LVU94
 504 0006 A1F12004 		sub	r4, r1, #32
 396:../../libdaisy/src/hid/disp/display.h ****     {
 505              		.loc 3 396 10 view .LVU95
 506 000a 0091     		str	r1, [sp]
 507 000c 04A9     		add	r1, sp, #16
 508              	.LVL30:
 396:../../libdaisy/src/hid/disp/display.h ****     {
 509              		.loc 3 396 10 view .LVU96
 510 000e 9DF83880 		ldrb	r8, [sp, #56]	@ zero_extendqisi2
 511 0012 01E90C00 		stmdb	r1, {r2, r3}
 512              	.LVL31:
 513              		.loc 3 401 9 view .LVU97
 514 0016 E3B2     		uxtb	r3, r4
 515 0018 5E2B     		cmp	r3, #94
 516 001a 00F29480 		bhi	.L20
 402:../../libdaisy/src/hid/disp/display.h ****             return 0;
 403:../../libdaisy/src/hid/disp/display.h **** 
 404:../../libdaisy/src/hid/disp/display.h ****         // Check remaining space on current line
 405:../../libdaisy/src/hid/disp/display.h ****         if(Width() < (currentX_ + font.FontWidth)
 517              		.loc 3 405 17 view .LVU98
 518 001e 0368     		ldr	r3, [r0]
 519 0020 8146     		mov	r9, r0
 520 0022 5C4A     		ldr	r2, .L56
 521 0024 DB68     		ldr	r3, [r3, #12]
 522 0026 9DF80860 		ldrb	r6, [sp, #8]	@ zero_extendqisi2
 523 002a 9342     		cmp	r3, r2
 524 002c 9DF80950 		ldrb	r5, [sp, #9]	@ zero_extendqisi2
ARM GAS  /tmp/cceRX0y9.s 			page 32


 525 0030 40F09380 		bne	.L47
 526 0034 8020     		movs	r0, #128
 527              	.LVL32:
 528              	.L19:
 529              		.loc 3 405 23 view .LVU99
 530 0036 B9F80430 		ldrh	r3, [r9, #4]
 531              		.loc 3 405 33 view .LVU100
 532 003a 3344     		add	r3, r3, r6
 406:../../libdaisy/src/hid/disp/display.h ****            || Height() < (currentY_ + font.FontHeight))
 533              		.loc 3 406 12 view .LVU101
 534 003c 8342     		cmp	r3, r0
 535 003e 00F38280 		bgt	.L20
 536              		.loc 3 406 21 discriminator 2 view .LVU102
 537 0042 D9F80030 		ldr	r3, [r9]
 538 0046 544A     		ldr	r2, .L56+4
 539 0048 9B68     		ldr	r3, [r3, #8]
 540 004a 9342     		cmp	r3, r2
 541 004c 40F08780 		bne	.L48
 542              		.loc 3 406 21 view .LVU103
 543 0050 4020     		movs	r0, #64
 544              	.L21:
 545              		.loc 3 406 27 discriminator 2 view .LVU104
 546 0052 B9F80610 		ldrh	r1, [r9, #6]
 547              		.loc 3 406 37 discriminator 2 view .LVU105
 548 0056 4B19     		adds	r3, r1, r5
 549              		.loc 3 406 27 discriminator 2 view .LVU106
 550 0058 0191     		str	r1, [sp, #4]
 551              		.loc 3 406 12 discriminator 2 view .LVU107
 552 005a 8342     		cmp	r3, r0
 553 005c 73DC     		bgt	.L20
 554              	.LVL33:
 407:../../libdaisy/src/hid/disp/display.h ****         {
 408:../../libdaisy/src/hid/disp/display.h ****             // Not enough space on current line
 409:../../libdaisy/src/hid/disp/display.h ****             return 0;
 410:../../libdaisy/src/hid/disp/display.h ****         }
 411:../../libdaisy/src/hid/disp/display.h **** 
 412:../../libdaisy/src/hid/disp/display.h ****         // Use the font to write
 413:../../libdaisy/src/hid/disp/display.h ****         for(i = 0; i < font.FontHeight; i++)
 555              		.loc 3 413 22 is_stmt 1 view .LVU108
 556 005e 002D     		cmp	r5, #0
 557 0060 00F08880 		beq	.L22
 414:../../libdaisy/src/hid/disp/display.h ****         {
 415:../../libdaisy/src/hid/disp/display.h ****             b = font.data[(ch - 32) * font.FontHeight + i];
 558              		.loc 3 415 37 is_stmt 0 view .LVU109
 559 0064 05FB04F4 		mul	r4, r5, r4
 560              		.loc 3 415 22 view .LVU110
 561 0068 039A     		ldr	r2, [sp, #12]
 562 006a 6FF00043 		mvn	r3, #-2147483648
 563 006e B9F804A0 		ldrh	r10, [r9, #4]
 564 0072 2544     		add	r5, r5, r4
 565 0074 A2F1020B 		sub	fp, r2, #2
 566 0078 2344     		add	r3, r3, r4
 567 007a 0BEB450B 		add	fp, fp, r5, lsl #1
 568 007e 0D46     		mov	r5, r1
 569 0080 02EB430E 		add	lr, r2, r3, lsl #1
 570              	.LVL34:
 571              	.L25:
ARM GAS  /tmp/cceRX0y9.s 			page 33


 572              		.loc 3 415 13 view .LVU111
 573 0084 3EF8024F 		ldrh	r4, [lr, #2]!
 574              	.LVL35:
 416:../../libdaisy/src/hid/disp/display.h ****             for(j = 0; j < font.FontWidth; j++)
 575              		.loc 3 416 26 is_stmt 1 view .LVU112
 576 0088 A6B3     		cbz	r6, .L30
 577              	.LBB843:
 578              	.LBB844:
 579              	.LBB845:
 580              	.LBB846:
 581              	.LBB847:
 246:../../libdaisy/src/dev/oled_ssd130x.h ****     }
 582              		.loc 12 246 55 is_stmt 0 view .LVU113
 583 008a 05F00703 		and	r3, r5, #7
 246:../../libdaisy/src/dev/oled_ssd130x.h ****     }
 584              		.loc 12 246 49 view .LVU114
 585 008e 0127     		movs	r7, #1
 246:../../libdaisy/src/dev/oled_ssd130x.h ****     }
 586              		.loc 12 246 28 view .LVU115
 587 0090 E808     		lsrs	r0, r5, #3
 246:../../libdaisy/src/dev/oled_ssd130x.h ****     }
 588              		.loc 12 246 42 view .LVU116
 589 0092 4146     		mov	r1, r8
 246:../../libdaisy/src/dev/oled_ssd130x.h ****     }
 590              		.loc 12 246 49 view .LVU117
 591 0094 9F40     		lsls	r7, r7, r3
 592              	.LBE847:
 593              	.LBE846:
 594              	.LBE845:
 595              	.LBE844:
 596              	.LBE843:
 597              		.loc 3 416 19 view .LVU118
 598 0096 0022     		movs	r2, #0
 599 0098 0AEBC013 		add	r3, r10, r0, lsl #7
 600              	.LBB865:
 601              	.LBB860:
 602              	.LBB855:
 603              	.LBB851:
 604              	.LBB848:
 246:../../libdaisy/src/dev/oled_ssd130x.h ****     }
 605              		.loc 12 246 42 view .LVU119
 606 009c 7FB2     		sxtb	r7, r7
 607 009e 4B44     		add	r3, r3, r9
 608 00a0 09EBC010 		add	r0, r9, r0, lsl #7
 609 00a4 6FEA070C 		mvn	ip, r7
 610 00a8 B846     		mov	r8, r7
 611 00aa 0F46     		mov	r7, r1
 612 00ac 0CE0     		b	.L31
 613              	.LVL36:
 614              	.L50:
 246:../../libdaisy/src/dev/oled_ssd130x.h ****     }
 615              		.loc 12 246 42 view .LVU120
 616              	.LBE848:
 617              	.LBE851:
 618              	.LBE855:
 619              	.LBE860:
 620              	.LBE865:
ARM GAS  /tmp/cceRX0y9.s 			page 34


 621              	.LBB866:
 622              	.LBI866:
  41:../../libdaisy/src/hid/disp/oled_display.h ****     {
 623              		.loc 2 41 10 is_stmt 1 view .LVU121
 624              	.LBB867:
 625              	.LBI867:
 239:../../libdaisy/src/dev/oled_ssd130x.h ****     {
 626              		.loc 12 239 10 view .LVU122
 627              	.LBB868:
 241:../../libdaisy/src/dev/oled_ssd130x.h ****             return;
 628              		.loc 12 241 9 is_stmt 0 view .LVU123
 629 00ae 7F29     		cmp	r1, #127
 630 00b0 06D8     		bhi	.L27
 631 00b2 3F2D     		cmp	r5, #63
 632 00b4 04D8     		bhi	.L27
 244:../../libdaisy/src/dev/oled_ssd130x.h ****         else
 633              		.loc 12 244 42 view .LVU124
 634 00b6 197D     		ldrb	r1, [r3, #20]	@ zero_extendqisi2
 243:../../libdaisy/src/dev/oled_ssd130x.h ****             buffer_[x + (y / 8) * width] |= (1 << (y % 8));
 635              		.loc 12 243 9 view .LVU125
 636 00b8 A7B1     		cbz	r7, .L29
 637              	.L46:
 243:../../libdaisy/src/dev/oled_ssd130x.h ****             buffer_[x + (y / 8) * width] |= (1 << (y % 8));
 638              		.loc 12 243 9 view .LVU126
 639              	.LBE868:
 640              	.LBE867:
 641              	.LBE866:
 642              	.LBB871:
 643              	.LBB861:
 644              	.LBB856:
 244:../../libdaisy/src/dev/oled_ssd130x.h ****         else
 645              		.loc 12 244 42 view .LVU127
 646 00ba 48EA0101 		orr	r1, r8, r1
 244:../../libdaisy/src/dev/oled_ssd130x.h ****         else
 647              		.loc 12 244 13 view .LVU128
 648 00be 1975     		strb	r1, [r3, #20]
 649              	.L27:
 650              	.LBE856:
 651              	.LBE861:
 652              	.LBE871:
 653              		.loc 3 416 13 is_stmt 1 discriminator 2 view .LVU129
 654 00c0 0132     		adds	r2, r2, #1
 655              	.LVL37:
 656              		.loc 3 416 26 discriminator 2 view .LVU130
 657 00c2 0133     		adds	r3, r3, #1
 658 00c4 9642     		cmp	r6, r2
 659 00c6 14D0     		beq	.L49
 660              	.LVL38:
 661              	.L31:
 417:../../libdaisy/src/hid/disp/display.h ****             {
 418:../../libdaisy/src/hid/disp/display.h ****                 if((b << j) & 0x8000)
 662              		.loc 3 418 23 is_stmt 0 view .LVU131
 663 00c8 04FA02F1 		lsl	r1, r4, r2
 664              		.loc 3 418 17 view .LVU132
 665 00cc 11F4004F 		tst	r1, #32768
 666              	.LBB872:
 667              	.LBB870:
ARM GAS  /tmp/cceRX0y9.s 			page 35


 668              	.LBB869:
 241:../../libdaisy/src/dev/oled_ssd130x.h ****             return;
 669              		.loc 12 241 14 view .LVU133
 670 00d0 A3EB0001 		sub	r1, r3, r0
 671              	.LBE869:
 672              	.LBE870:
 673              	.LBE872:
 674              		.loc 3 418 17 view .LVU134
 675 00d4 EBD1     		bne	.L50
 676              	.LVL39:
 677              	.LBB873:
 678              	.LBI843:
  41:../../libdaisy/src/hid/disp/oled_display.h ****     {
 679              		.loc 2 41 10 is_stmt 1 view .LVU135
 680              	.LBB862:
 681              	.LBI844:
 239:../../libdaisy/src/dev/oled_ssd130x.h ****     {
 682              		.loc 12 239 10 view .LVU136
 683              	.LBB857:
 241:../../libdaisy/src/dev/oled_ssd130x.h ****             return;
 684              		.loc 12 241 9 is_stmt 0 view .LVU137
 685 00d6 7F29     		cmp	r1, #127
 686 00d8 F2D8     		bhi	.L27
 687 00da 3F2D     		cmp	r5, #63
 688 00dc F0D8     		bhi	.L27
 244:../../libdaisy/src/dev/oled_ssd130x.h ****         else
 689              		.loc 12 244 42 view .LVU138
 690 00de 197D     		ldrb	r1, [r3, #20]	@ zero_extendqisi2
 243:../../libdaisy/src/dev/oled_ssd130x.h ****             buffer_[x + (y / 8) * width] |= (1 << (y % 8));
 691              		.loc 12 243 9 view .LVU139
 692 00e0 002F     		cmp	r7, #0
 693 00e2 EAD0     		beq	.L46
 694              	.L29:
 695              	.LVL40:
 696              	.LBB852:
 697              	.LBI846:
 239:../../libdaisy/src/dev/oled_ssd130x.h ****     {
 698              		.loc 12 239 10 is_stmt 1 view .LVU140
 239:../../libdaisy/src/dev/oled_ssd130x.h ****     {
 699              		.loc 12 239 10 is_stmt 0 view .LVU141
 700              	.LBE852:
 701              	.LBE857:
 702              	.LBE862:
 703              	.LBE873:
 416:../../libdaisy/src/hid/disp/display.h ****             {
 704              		.loc 3 416 13 view .LVU142
 705 00e4 0132     		adds	r2, r2, #1
 706              	.LVL41:
 707              	.LBB874:
 708              	.LBB863:
 709              	.LBB858:
 710              	.LBB853:
 711              	.LBB849:
 246:../../libdaisy/src/dev/oled_ssd130x.h ****     }
 712              		.loc 12 246 42 view .LVU143
 713 00e6 0CEA0101 		and	r1, ip, r1
 714 00ea 0133     		adds	r3, r3, #1
ARM GAS  /tmp/cceRX0y9.s 			page 36


 715              	.LBE849:
 716              	.LBE853:
 717              	.LBE858:
 718              	.LBE863:
 719              	.LBE874:
 416:../../libdaisy/src/hid/disp/display.h ****             {
 720              		.loc 3 416 26 view .LVU144
 721 00ec 9642     		cmp	r6, r2
 722              	.LBB875:
 723              	.LBB864:
 724              	.LBB859:
 725              	.LBB854:
 726              	.LBB850:
 246:../../libdaisy/src/dev/oled_ssd130x.h ****     }
 727              		.loc 12 246 13 view .LVU145
 728 00ee D974     		strb	r1, [r3, #19]
 246:../../libdaisy/src/dev/oled_ssd130x.h ****     }
 729              		.loc 12 246 13 view .LVU146
 730              	.LBE850:
 731              	.LBE854:
 732              	.LBE859:
 733              	.LBE864:
 734              	.LBE875:
 416:../../libdaisy/src/hid/disp/display.h ****             {
 735              		.loc 3 416 13 is_stmt 1 view .LVU147
 736              	.LVL42:
 416:../../libdaisy/src/hid/disp/display.h ****             {
 737              		.loc 3 416 26 view .LVU148
 738 00f0 EAD1     		bne	.L31
 739              	.L49:
 416:../../libdaisy/src/hid/disp/display.h ****             {
 740              		.loc 3 416 26 is_stmt 0 view .LVU149
 741 00f2 B846     		mov	r8, r7
 742              	.LVL43:
 743              	.L30:
 413:../../libdaisy/src/hid/disp/display.h ****         {
 744              		.loc 3 413 9 is_stmt 1 view .LVU150
 413:../../libdaisy/src/hid/disp/display.h ****         {
 745              		.loc 3 413 22 view .LVU151
 746 00f4 F345     		cmp	fp, lr
 747 00f6 05F10105 		add	r5, r5, #1
 748 00fa C3D1     		bne	.L25
 749              	.LVL44:
 750              	.L24:
 751              	.LBB876:
 752              	.LBB877:
 173:../../libdaisy/src/hid/disp/display.h ****         currentY_ = (y >= Height()) ? Height() - 1 : y;
 753              		.loc 3 173 33 is_stmt 0 view .LVU152
 754 00fc D9F80030 		ldr	r3, [r9]
 755              	.LBE877:
 756              	.LBE876:
 419:../../libdaisy/src/hid/disp/display.h ****                 {
 420:../../libdaisy/src/hid/disp/display.h ****                     ((ChildType*)(this))
 421:../../libdaisy/src/hid/disp/display.h ****                         ->ChildType::DrawPixel(
 422:../../libdaisy/src/hid/disp/display.h ****                             currentX_ + j, (currentY_ + i), on);
 423:../../libdaisy/src/hid/disp/display.h ****                 }
 424:../../libdaisy/src/hid/disp/display.h ****                 else
ARM GAS  /tmp/cceRX0y9.s 			page 37


 425:../../libdaisy/src/hid/disp/display.h ****                 {
 426:../../libdaisy/src/hid/disp/display.h ****                     ((ChildType*)(this))
 427:../../libdaisy/src/hid/disp/display.h ****                         ->ChildType::DrawPixel(
 428:../../libdaisy/src/hid/disp/display.h ****                             currentX_ + j, (currentY_ + i), !on);
 429:../../libdaisy/src/hid/disp/display.h ****                 }
 430:../../libdaisy/src/hid/disp/display.h ****             }
 431:../../libdaisy/src/hid/disp/display.h ****         }
 432:../../libdaisy/src/hid/disp/display.h **** 
 433:../../libdaisy/src/hid/disp/display.h ****         // The current space is now taken
 434:../../libdaisy/src/hid/disp/display.h ****         SetCursor(currentX_ + font.FontWidth, currentY_);
 757              		.loc 3 434 18 view .LVU153
 758 0100 0AEB0604 		add	r4, r10, r6
 759 0104 2349     		ldr	r1, .L56
 760              	.LBB882:
 761              	.LBB878:
 173:../../libdaisy/src/hid/disp/display.h ****         currentY_ = (y >= Height()) ? Height() - 1 : y;
 762              		.loc 3 173 33 view .LVU154
 763 0106 DA68     		ldr	r2, [r3, #12]
 764              	.LBE878:
 765              	.LBE882:
 766              		.loc 3 434 18 view .LVU155
 767 0108 A4B2     		uxth	r4, r4
 768              	.LVL45:
 769              	.LBB883:
 770              	.LBI876:
 171:../../libdaisy/src/hid/disp/display.h ****     {
 771              		.loc 3 171 10 is_stmt 1 view .LVU156
 772              	.LBB879:
 173:../../libdaisy/src/hid/disp/display.h ****         currentY_ = (y >= Height()) ? Height() - 1 : y;
 773              		.loc 3 173 9 view .LVU157
 774 010a 8A42     		cmp	r2, r1
 775 010c 2DD1     		bne	.L51
 173:../../libdaisy/src/hid/disp/display.h ****         currentY_ = (y >= Height()) ? Height() - 1 : y;
 776              		.loc 3 173 33 is_stmt 0 view .LVU158
 777 010e 8020     		movs	r0, #128
 778              	.L32:
 173:../../libdaisy/src/hid/disp/display.h ****         currentY_ = (y >= Height()) ? Height() - 1 : y;
 779              		.loc 3 173 19 view .LVU159
 780 0110 8442     		cmp	r4, r0
 781 0112 1CD2     		bcs	.L52
 782              	.LVL46:
 783              	.L33:
 174:../../libdaisy/src/hid/disp/display.h ****     }
 784              		.loc 3 174 34 view .LVU160
 785 0114 9B68     		ldr	r3, [r3, #8]
 786 0116 204A     		ldr	r2, .L56+4
 173:../../libdaisy/src/hid/disp/display.h ****         currentY_ = (y >= Height()) ? Height() - 1 : y;
 787              		.loc 3 173 19 view .LVU161
 788 0118 A9F80440 		strh	r4, [r9, #4]	@ movhi
 174:../../libdaisy/src/hid/disp/display.h ****     }
 789              		.loc 3 174 9 is_stmt 1 view .LVU162
 790 011c 9342     		cmp	r3, r2
 791 011e 21D1     		bne	.L53
 174:../../libdaisy/src/hid/disp/display.h ****     }
 792              		.loc 3 174 34 is_stmt 0 view .LVU163
 793 0120 4020     		movs	r0, #64
 794              	.L35:
ARM GAS  /tmp/cceRX0y9.s 			page 38


 174:../../libdaisy/src/hid/disp/display.h ****     }
 795              		.loc 3 174 19 view .LVU164
 796 0122 019B     		ldr	r3, [sp, #4]
 797 0124 8342     		cmp	r3, r0
 798 0126 07D3     		bcc	.L36
 174:../../libdaisy/src/hid/disp/display.h ****     }
 799              		.loc 3 174 46 view .LVU165
 800 0128 D9F80030 		ldr	r3, [r9]
 801 012c 1A4A     		ldr	r2, .L56+4
 802 012e 9B68     		ldr	r3, [r3, #8]
 803 0130 9342     		cmp	r3, r2
 804 0132 29D1     		bne	.L54
 805 0134 3F23     		movs	r3, #63
 806 0136 0193     		str	r3, [sp, #4]
 807              	.LVL47:
 808              	.L36:
 174:../../libdaisy/src/hid/disp/display.h ****     }
 809              		.loc 3 174 19 view .LVU166
 810 0138 DDE90003 		ldrd	r0, r3, [sp]
 811 013c A9F80630 		strh	r3, [r9, #6]	@ movhi
 812              	.LVL48:
 174:../../libdaisy/src/hid/disp/display.h ****     }
 813              		.loc 3 174 19 view .LVU167
 814              	.LBE879:
 815              	.LBE883:
 435:../../libdaisy/src/hid/disp/display.h **** 
 436:../../libdaisy/src/hid/disp/display.h ****         // Return written char for validation
 437:../../libdaisy/src/hid/disp/display.h ****         return ch;
 438:../../libdaisy/src/hid/disp/display.h ****     }
 816              		.loc 3 438 5 view .LVU168
 817 0140 05B0     		add	sp, sp, #20
 818              		.cfi_remember_state
 819              		.cfi_def_cfa_offset 36
 820              		@ sp needed
 821 0142 BDE8F08F 		pop	{r4, r5, r6, r7, r8, r9, r10, fp, pc}
 822              	.LVL49:
 823              	.L20:
 824              		.cfi_restore_state
 402:../../libdaisy/src/hid/disp/display.h **** 
 825              		.loc 3 402 20 view .LVU169
 826 0146 0020     		movs	r0, #0
 827              		.loc 3 438 5 view .LVU170
 828 0148 05B0     		add	sp, sp, #20
 829              		.cfi_remember_state
 830              		.cfi_def_cfa_offset 36
 831              		@ sp needed
 832 014a BDE8F08F 		pop	{r4, r5, r6, r7, r8, r9, r10, fp, pc}
 833              	.LVL50:
 834              	.L52:
 835              		.cfi_restore_state
 836              	.LBB884:
 837              	.LBB880:
 173:../../libdaisy/src/hid/disp/display.h ****         currentY_ = (y >= Height()) ? Height() - 1 : y;
 838              		.loc 3 173 44 view .LVU171
 839 014e DA68     		ldr	r2, [r3, #12]
 840 0150 1049     		ldr	r1, .L56
 841 0152 8A42     		cmp	r2, r1
ARM GAS  /tmp/cceRX0y9.s 			page 39


 842 0154 11D1     		bne	.L55
 843 0156 7F24     		movs	r4, #127
 844              	.LVL51:
 173:../../libdaisy/src/hid/disp/display.h ****         currentY_ = (y >= Height()) ? Height() - 1 : y;
 845              		.loc 3 173 44 view .LVU172
 846 0158 DCE7     		b	.L33
 847              	.LVL52:
 848              	.L47:
 173:../../libdaisy/src/hid/disp/display.h ****         currentY_ = (y >= Height()) ? Height() - 1 : y;
 849              		.loc 3 173 44 view .LVU173
 850              	.LBE880:
 851              	.LBE884:
 405:../../libdaisy/src/hid/disp/display.h ****            || Height() < (currentY_ + font.FontHeight))
 852              		.loc 3 405 17 view .LVU174
 853 015a 9847     		blx	r3
 854              	.LVL53:
 405:../../libdaisy/src/hid/disp/display.h ****            || Height() < (currentY_ + font.FontHeight))
 855              		.loc 3 405 17 view .LVU175
 856 015c 6BE7     		b	.L19
 857              	.L48:
 406:../../libdaisy/src/hid/disp/display.h ****         {
 858              		.loc 3 406 21 discriminator 2 view .LVU176
 859 015e 4846     		mov	r0, r9
 860 0160 9847     		blx	r3
 861              	.LVL54:
 862 0162 76E7     		b	.L21
 863              	.LVL55:
 864              	.L53:
 865              	.LBB885:
 866              	.LBB881:
 174:../../libdaisy/src/hid/disp/display.h ****     }
 867              		.loc 3 174 33 view .LVU177
 868 0164 4846     		mov	r0, r9
 869 0166 9847     		blx	r3
 870              	.LVL56:
 871 0168 DBE7     		b	.L35
 872              	.LVL57:
 873              	.L51:
 173:../../libdaisy/src/hid/disp/display.h ****         currentY_ = (y >= Height()) ? Height() - 1 : y;
 874              		.loc 3 173 32 view .LVU178
 875 016a 4846     		mov	r0, r9
 876 016c 9047     		blx	r2
 877              	.LVL58:
 878 016e D9F80030 		ldr	r3, [r9]
 879 0172 CDE7     		b	.L32
 880              	.LVL59:
 881              	.L22:
 173:../../libdaisy/src/hid/disp/display.h ****         currentY_ = (y >= Height()) ? Height() - 1 : y;
 882              		.loc 3 173 32 view .LVU179
 883 0174 B9F804A0 		ldrh	r10, [r9, #4]
 884 0178 C0E7     		b	.L24
 885              	.LVL60:
 886              	.L55:
 173:../../libdaisy/src/hid/disp/display.h ****         currentY_ = (y >= Height()) ? Height() - 1 : y;
 887              		.loc 3 173 43 view .LVU180
 888 017a 4846     		mov	r0, r9
 889 017c 9047     		blx	r2
ARM GAS  /tmp/cceRX0y9.s 			page 40


 890              	.LVL61:
 891 017e 0138     		subs	r0, r0, #1
 892 0180 D9F80030 		ldr	r3, [r9]
 893 0184 84B2     		uxth	r4, r0
 894              	.LVL62:
 173:../../libdaisy/src/hid/disp/display.h ****         currentY_ = (y >= Height()) ? Height() - 1 : y;
 895              		.loc 3 173 43 view .LVU181
 896 0186 C5E7     		b	.L33
 897              	.L54:
 174:../../libdaisy/src/hid/disp/display.h ****     }
 898              		.loc 3 174 45 view .LVU182
 899 0188 4846     		mov	r0, r9
 900 018a 9847     		blx	r3
 901              	.LVL63:
 902 018c 0138     		subs	r0, r0, #1
 903 018e 83B2     		uxth	r3, r0
 904 0190 0193     		str	r3, [sp, #4]
 905              	.LVL64:
 174:../../libdaisy/src/hid/disp/display.h ****     }
 906              		.loc 3 174 45 view .LVU183
 907 0192 D1E7     		b	.L36
 908              	.L57:
 909              		.align	2
 910              	.L56:
 911 0194 00000000 		.word	_ZNK5daisy11OledDisplayINS_13SSD130xDriverILj128ELj64ENS_24SSD130x4WireSpiTransportEEEE5Widt
 912 0198 00000000 		.word	_ZNK5daisy11OledDisplayINS_13SSD130xDriverILj128ELj64ENS_24SSD130x4WireSpiTransportEEEE6Heig
 913              	.LBE881:
 914              	.LBE885:
 915              		.cfi_endproc
 916              	.LFE4692:
 918              		.section	.text._ZN5daisy11OledDisplayINS_13SSD130xDriverILj128ELj64ENS_24SSD130x4WireSpiTransportE
 919              		.align	1
 920              		.p2align 2,,3
 921              		.weak	_ZN5daisy11OledDisplayINS_13SSD130xDriverILj128ELj64ENS_24SSD130x4WireSpiTransportEEEE9DrawP
 922              		.syntax unified
 923              		.thumb
 924              		.thumb_func
 925              		.fpu fpv5-d16
 927              	_ZN5daisy11OledDisplayINS_13SSD130xDriverILj128ELj64ENS_24SSD130x4WireSpiTransportEEEE9DrawPixelEjj
 928              	.LVL65:
 929              	.LFB4731:
  41:../../libdaisy/src/hid/disp/oled_display.h ****     {
 930              		.loc 2 41 10 is_stmt 1 view -0
 931              		.cfi_startproc
 932              		@ args = 0, pretend = 0, frame = 0
 933              		@ frame_needed = 0, uses_anonymous_args = 0
 934              		@ link register save eliminated.
 935              	.LBB890:
 936              	.LBI890:
 239:../../libdaisy/src/dev/oled_ssd130x.h ****     {
 937              		.loc 12 239 10 view .LVU185
 938              	.LBB891:
 241:../../libdaisy/src/dev/oled_ssd130x.h ****             return;
 939              		.loc 12 241 9 is_stmt 0 view .LVU186
 940 0000 7F29     		cmp	r1, #127
 941 0002 21D8     		bhi	.L62
 942 0004 3F2A     		cmp	r2, #63
ARM GAS  /tmp/cceRX0y9.s 			page 41


 943 0006 1FD8     		bhi	.L62
 944              	.LBE891:
 945              	.LBE890:
  41:../../libdaisy/src/hid/disp/oled_display.h ****     {
 946              		.loc 2 41 10 view .LVU187
 947 0008 10B4     		push	{r4}
 948              		.cfi_def_cfa_offset 4
 949              		.cfi_offset 4, -4
 950              	.LBB896:
 951              	.LBB894:
 243:../../libdaisy/src/dev/oled_ssd130x.h ****             buffer_[x + (y / 8) * width] |= (1 << (y % 8));
 952              		.loc 12 243 9 view .LVU188
 953 000a 73B9     		cbnz	r3, .L65
 954              	.LVL66:
 955              	.LBB892:
 956              	.LBI892:
 239:../../libdaisy/src/dev/oled_ssd130x.h ****     {
 957              		.loc 12 239 10 is_stmt 1 view .LVU189
 958              	.LBB893:
 246:../../libdaisy/src/dev/oled_ssd130x.h ****     }
 959              		.loc 12 246 28 is_stmt 0 view .LVU190
 960 000c D308     		lsrs	r3, r2, #3
 961              	.LVL67:
 246:../../libdaisy/src/dev/oled_ssd130x.h ****     }
 962              		.loc 12 246 49 view .LVU191
 963 000e 0124     		movs	r4, #1
 246:../../libdaisy/src/dev/oled_ssd130x.h ****     }
 964              		.loc 12 246 55 view .LVU192
 965 0010 02F00702 		and	r2, r2, #7
 966              	.LVL68:
 246:../../libdaisy/src/dev/oled_ssd130x.h ****     }
 967              		.loc 12 246 42 view .LVU193
 968 0014 01EBC313 		add	r3, r1, r3, lsl #7
 246:../../libdaisy/src/dev/oled_ssd130x.h ****     }
 969              		.loc 12 246 49 view .LVU194
 970 0018 9440     		lsls	r4, r4, r2
 246:../../libdaisy/src/dev/oled_ssd130x.h ****     }
 971              		.loc 12 246 13 view .LVU195
 972 001a C118     		adds	r1, r0, r3
 973              	.LVL69:
 246:../../libdaisy/src/dev/oled_ssd130x.h ****     }
 974              		.loc 12 246 42 view .LVU196
 975 001c 0A7D     		ldrb	r2, [r1, #20]	@ zero_extendqisi2
 976 001e 22EA0402 		bic	r2, r2, r4
 246:../../libdaisy/src/dev/oled_ssd130x.h ****     }
 977              		.loc 12 246 13 view .LVU197
 978 0022 0A75     		strb	r2, [r1, #20]
 979              	.LVL70:
 246:../../libdaisy/src/dev/oled_ssd130x.h ****     }
 980              		.loc 12 246 13 view .LVU198
 981              	.LBE893:
 982              	.LBE892:
 983              	.LBE894:
 984              	.LBE896:
  44:../../libdaisy/src/hid/disp/oled_display.h **** 
 985              		.loc 2 44 5 view .LVU199
 986 0024 5DF8044B 		ldr	r4, [sp], #4
ARM GAS  /tmp/cceRX0y9.s 			page 42


 987              		.cfi_remember_state
 988              		.cfi_restore 4
 989              		.cfi_def_cfa_offset 0
 990 0028 7047     		bx	lr
 991              	.LVL71:
 992              	.L65:
 993              		.cfi_restore_state
 994              	.LBB897:
 995              	.LBB895:
 244:../../libdaisy/src/dev/oled_ssd130x.h ****         else
 996              		.loc 12 244 28 view .LVU200
 997 002a D408     		lsrs	r4, r2, #3
 244:../../libdaisy/src/dev/oled_ssd130x.h ****         else
 998              		.loc 12 244 48 view .LVU201
 999 002c 0123     		movs	r3, #1
 1000              	.LVL72:
 244:../../libdaisy/src/dev/oled_ssd130x.h ****         else
 1001              		.loc 12 244 54 view .LVU202
 1002 002e 02F00702 		and	r2, r2, #7
 1003              	.LVL73:
 244:../../libdaisy/src/dev/oled_ssd130x.h ****         else
 1004              		.loc 12 244 42 view .LVU203
 1005 0032 01EBC414 		add	r4, r1, r4, lsl #7
 244:../../libdaisy/src/dev/oled_ssd130x.h ****         else
 1006              		.loc 12 244 48 view .LVU204
 1007 0036 03FA02F2 		lsl	r2, r3, r2
 244:../../libdaisy/src/dev/oled_ssd130x.h ****         else
 1008              		.loc 12 244 13 view .LVU205
 1009 003a 0119     		adds	r1, r0, r4
 1010              	.LVL74:
 244:../../libdaisy/src/dev/oled_ssd130x.h ****         else
 1011              		.loc 12 244 42 view .LVU206
 1012 003c 0B7D     		ldrb	r3, [r1, #20]	@ zero_extendqisi2
 1013 003e 1A43     		orrs	r2, r2, r3
 244:../../libdaisy/src/dev/oled_ssd130x.h ****         else
 1014              		.loc 12 244 13 view .LVU207
 1015 0040 0A75     		strb	r2, [r1, #20]
 1016              	.LBE895:
 1017              	.LBE897:
  44:../../libdaisy/src/hid/disp/oled_display.h **** 
 1018              		.loc 2 44 5 view .LVU208
 1019 0042 5DF8044B 		ldr	r4, [sp], #4
 1020              		.cfi_restore 4
 1021              		.cfi_def_cfa_offset 0
 1022 0046 7047     		bx	lr
 1023              	.LVL75:
 1024              	.L62:
  44:../../libdaisy/src/hid/disp/oled_display.h **** 
 1025              		.loc 2 44 5 view .LVU209
 1026 0048 7047     		bx	lr
 1027              		.cfi_endproc
 1028              	.LFE4731:
 1030 004a 00BF     		.section	.text._ZN5daisy25OneBitGraphicsDisplayImplINS_11OledDisplayINS_13SSD130xDriverILj128ELj64
 1031              		.align	1
 1032              		.p2align 2,,3
 1033              		.weak	_ZN5daisy25OneBitGraphicsDisplayImplINS_11OledDisplayINS_13SSD130xDriverILj128ELj64ENS_24SSD
 1034              		.syntax unified
ARM GAS  /tmp/cceRX0y9.s 			page 43


 1035              		.thumb
 1036              		.thumb_func
 1037              		.fpu fpv5-d16
 1039              	_ZN5daisy25OneBitGraphicsDisplayImplINS_11OledDisplayINS_13SSD130xDriverILj128ELj64ENS_24SSD130x4Wi
 1040              	.LVL76:
 1041              	.LFB4563:
 439:../../libdaisy/src/hid/disp/display.h **** 
 440:../../libdaisy/src/hid/disp/display.h ****     char WriteString(const char* str, FontDef font, bool on) override
 1042              		.loc 3 440 10 is_stmt 1 view -0
 1043              		.cfi_startproc
 1044              		@ args = 4, pretend = 0, frame = 32
 1045              		@ frame_needed = 0, uses_anonymous_args = 0
 1046              		.loc 3 440 10 is_stmt 0 view .LVU211
 1047 0000 2DE9F04F 		push	{r4, r5, r6, r7, r8, r9, r10, fp, lr}
 1048              		.cfi_def_cfa_offset 36
 1049              		.cfi_offset 4, -36
 1050              		.cfi_offset 5, -32
 1051              		.cfi_offset 6, -28
 1052              		.cfi_offset 7, -24
 1053              		.cfi_offset 8, -20
 1054              		.cfi_offset 9, -16
 1055              		.cfi_offset 10, -12
 1056              		.cfi_offset 11, -8
 1057              		.cfi_offset 14, -4
 1058 0004 89B0     		sub	sp, sp, #36
 1059              		.cfi_def_cfa_offset 72
 1060              		.loc 3 440 10 view .LVU212
 1061 0006 8B46     		mov	fp, r1
 441:../../libdaisy/src/hid/disp/display.h ****     {
 442:../../libdaisy/src/hid/disp/display.h ****         // Write until null-byte
 443:../../libdaisy/src/hid/disp/display.h ****         while(*str)
 1062              		.loc 3 443 9 is_stmt 1 view .LVU213
 1063 0008 91F80090 		ldrb	r9, [r1]	@ zero_extendqisi2
 440:../../libdaisy/src/hid/disp/display.h ****     {
 1064              		.loc 3 440 10 is_stmt 0 view .LVU214
 1065 000c 9DF84840 		ldrb	r4, [sp, #72]	@ zero_extendqisi2
 1066 0010 08A9     		add	r1, sp, #32
 1067              	.LVL77:
 440:../../libdaisy/src/hid/disp/display.h ****     {
 1068              		.loc 3 440 10 view .LVU215
 1069 0012 0494     		str	r4, [sp, #16]
 1070 0014 01E90C00 		stmdb	r1, {r2, r3}
 1071              		.loc 3 443 9 view .LVU216
 1072 0018 B9F1000F 		cmp	r9, #0
 1073 001c 00F0B780 		beq	.L90
 1074 0020 9DF81930 		ldrb	r3, [sp, #25]	@ zero_extendqisi2
 1075 0024 8046     		mov	r8, r0
 1076 0026 9DF818A0 		ldrb	r10, [sp, #24]	@ zero_extendqisi2
 1077 002a 4D46     		mov	r5, r9
 1078 002c 0193     		str	r3, [sp, #4]
 1079 002e 079B     		ldr	r3, [sp, #28]
 1080 0030 0593     		str	r3, [sp, #20]
 1081              	.LVL78:
 1082              	.L91:
 1083              	.LBB926:
 1084              	.LBI926:
 396:../../libdaisy/src/hid/disp/display.h ****     {
ARM GAS  /tmp/cceRX0y9.s 			page 44


 1085              		.loc 3 396 10 is_stmt 1 view .LVU217
 1086              	.LBB927:
 401:../../libdaisy/src/hid/disp/display.h ****             return 0;
 1087              		.loc 3 401 20 is_stmt 0 view .LVU218
 1088 0032 A5F12004 		sub	r4, r5, #32
 401:../../libdaisy/src/hid/disp/display.h ****             return 0;
 1089              		.loc 3 401 9 view .LVU219
 1090 0036 E3B2     		uxtb	r3, r4
 1091 0038 5E2B     		cmp	r3, #94
 1092 003a 00F2AC80 		bhi	.L72
 405:../../libdaisy/src/hid/disp/display.h ****            || Height() < (currentY_ + font.FontHeight))
 1093              		.loc 3 405 17 view .LVU220
 1094 003e D8F80030 		ldr	r3, [r8]
 1095 0042 654A     		ldr	r2, .L112
 1096 0044 DB68     		ldr	r3, [r3, #12]
 1097 0046 9342     		cmp	r3, r2
 1098 0048 40F0A780 		bne	.L105
 1099 004c 8020     		movs	r0, #128
 1100              	.L71:
 405:../../libdaisy/src/hid/disp/display.h ****            || Height() < (currentY_ + font.FontHeight))
 1101              		.loc 3 405 23 view .LVU221
 1102 004e B8F80430 		ldrh	r3, [r8, #4]
 405:../../libdaisy/src/hid/disp/display.h ****            || Height() < (currentY_ + font.FontHeight))
 1103              		.loc 3 405 33 view .LVU222
 1104 0052 5344     		add	r3, r3, r10
 406:../../libdaisy/src/hid/disp/display.h ****         {
 1105              		.loc 3 406 12 view .LVU223
 1106 0054 8342     		cmp	r3, r0
 1107 0056 00F39E80 		bgt	.L72
 406:../../libdaisy/src/hid/disp/display.h ****         {
 1108              		.loc 3 406 21 view .LVU224
 1109 005a D8F80030 		ldr	r3, [r8]
 1110 005e 5F4A     		ldr	r2, .L112+4
 1111 0060 9B68     		ldr	r3, [r3, #8]
 1112 0062 9342     		cmp	r3, r2
 1113 0064 40F09C80 		bne	.L106
 1114 0068 4020     		movs	r0, #64
 1115              	.L73:
 406:../../libdaisy/src/hid/disp/display.h ****         {
 1116              		.loc 3 406 27 view .LVU225
 1117 006a B8F80610 		ldrh	r1, [r8, #6]
 406:../../libdaisy/src/hid/disp/display.h ****         {
 1118              		.loc 3 406 37 view .LVU226
 1119 006e 019A     		ldr	r2, [sp, #4]
 406:../../libdaisy/src/hid/disp/display.h ****         {
 1120              		.loc 3 406 27 view .LVU227
 1121 0070 0091     		str	r1, [sp]
 406:../../libdaisy/src/hid/disp/display.h ****         {
 1122              		.loc 3 406 37 view .LVU228
 1123 0072 8B18     		adds	r3, r1, r2
 406:../../libdaisy/src/hid/disp/display.h ****         {
 1124              		.loc 3 406 12 view .LVU229
 1125 0074 8342     		cmp	r3, r0
 1126 0076 00F38E80 		bgt	.L72
 1127              	.LVL79:
 413:../../libdaisy/src/hid/disp/display.h ****         {
 1128              		.loc 3 413 22 is_stmt 1 view .LVU230
ARM GAS  /tmp/cceRX0y9.s 			page 45


 1129 007a 1046     		mov	r0, r2
 1130 007c 002A     		cmp	r2, #0
 1131 007e 00F09A80 		beq	.L74
 415:../../libdaisy/src/hid/disp/display.h ****             for(j = 0; j < font.FontWidth; j++)
 1132              		.loc 3 415 37 is_stmt 0 view .LVU231
 1133 0082 1346     		mov	r3, r2
 1134 0084 6FF00046 		mvn	r6, #-2147483648
 1135 0088 B8F80470 		ldrh	r7, [r8, #4]
 1136 008c 03FB04F3 		mul	r3, r3, r4
 1137 0090 059C     		ldr	r4, [sp, #20]
 1138 0092 BE46     		mov	lr, r7
 1139 0094 CDF80CB0 		str	fp, [sp, #12]
 1140 0098 1E44     		add	r6, r6, r3
 1141 009a A21E     		subs	r2, r4, #2
 1142 009c 0344     		add	r3, r3, r0
 1143 009e 5746     		mov	r7, r10
 1144 00a0 04EB4606 		add	r6, r4, r6, lsl #1
 1145 00a4 DDF81090 		ldr	r9, [sp, #16]
 1146 00a8 02EB4303 		add	r3, r2, r3, lsl #1
 1147 00ac 0295     		str	r5, [sp, #8]
 1148 00ae 9B46     		mov	fp, r3
 1149              	.LVL80:
 1150              	.L77:
 415:../../libdaisy/src/hid/disp/display.h ****             for(j = 0; j < font.FontWidth; j++)
 1151              		.loc 3 415 13 view .LVU232
 1152 00b0 36F802AF 		ldrh	r10, [r6, #2]!
 1153              	.LVL81:
 416:../../libdaisy/src/hid/disp/display.h ****             {
 1154              		.loc 3 416 26 is_stmt 1 view .LVU233
 1155 00b4 A7B3     		cbz	r7, .L82
 1156              	.LBB928:
 1157              	.LBB929:
 1158              	.LBB930:
 1159              	.LBB931:
 1160              	.LBB932:
 246:../../libdaisy/src/dev/oled_ssd130x.h ****     }
 1161              		.loc 12 246 49 is_stmt 0 view .LVU234
 1162 00b6 0124     		movs	r4, #1
 246:../../libdaisy/src/dev/oled_ssd130x.h ****     }
 1163              		.loc 12 246 55 view .LVU235
 1164 00b8 01F00702 		and	r2, r1, #7
 246:../../libdaisy/src/dev/oled_ssd130x.h ****     }
 1165              		.loc 12 246 28 view .LVU236
 1166 00bc C808     		lsrs	r0, r1, #3
 1167 00be 0EF11403 		add	r3, lr, #20
 246:../../libdaisy/src/dev/oled_ssd130x.h ****     }
 1168              		.loc 12 246 49 view .LVU237
 1169 00c2 04FA02F2 		lsl	r2, r4, r2
 1170 00c6 7446     		mov	r4, lr
 1171 00c8 03EBC013 		add	r3, r3, r0, lsl #7
 1172              	.LBE932:
 1173              	.LBE931:
 1174              	.LBE930:
 1175              	.LBE929:
 1176              	.LBE928:
 416:../../libdaisy/src/hid/disp/display.h ****             {
 1177              		.loc 3 416 19 view .LVU238
ARM GAS  /tmp/cceRX0y9.s 			page 46


 1178 00cc 0020     		movs	r0, #0
 1179              	.LBB950:
 1180              	.LBB945:
 1181              	.LBB940:
 1182              	.LBB936:
 1183              	.LBB933:
 246:../../libdaisy/src/dev/oled_ssd130x.h ****     }
 1184              		.loc 12 246 42 view .LVU239
 1185 00ce 52B2     		sxtb	r2, r2
 1186 00d0 4344     		add	r3, r3, r8
 1187 00d2 6FEA020C 		mvn	ip, r2
 1188 00d6 0EE0     		b	.L83
 1189              	.LVL82:
 1190              	.L107:
 246:../../libdaisy/src/dev/oled_ssd130x.h ****     }
 1191              		.loc 12 246 42 view .LVU240
 1192              	.LBE933:
 1193              	.LBE936:
 1194              	.LBE940:
 1195              	.LBE945:
 1196              	.LBE950:
 1197              	.LBB951:
 1198              	.LBI951:
  41:../../libdaisy/src/hid/disp/oled_display.h ****     {
 1199              		.loc 2 41 10 is_stmt 1 view .LVU241
 1200              	.LBB952:
 1201              	.LBI952:
 239:../../libdaisy/src/dev/oled_ssd130x.h ****     {
 1202              		.loc 12 239 10 view .LVU242
 1203              	.LBB953:
 241:../../libdaisy/src/dev/oled_ssd130x.h ****             return;
 1204              		.loc 12 241 9 is_stmt 0 view .LVU243
 1205 00d8 7F2C     		cmp	r4, #127
 1206 00da 07D8     		bhi	.L79
 1207 00dc 3F29     		cmp	r1, #63
 1208 00de 05D8     		bhi	.L79
 244:../../libdaisy/src/dev/oled_ssd130x.h ****         else
 1209              		.loc 12 244 42 view .LVU244
 1210 00e0 1D78     		ldrb	r5, [r3]	@ zero_extendqisi2
 243:../../libdaisy/src/dev/oled_ssd130x.h ****             buffer_[x + (y / 8) * width] |= (1 << (y % 8));
 1211              		.loc 12 243 9 view .LVU245
 1212 00e2 B9F1000F 		cmp	r9, #0
 1213 00e6 12D0     		beq	.L81
 1214              	.L104:
 243:../../libdaisy/src/dev/oled_ssd130x.h ****             buffer_[x + (y / 8) * width] |= (1 << (y % 8));
 1215              		.loc 12 243 9 view .LVU246
 1216              	.LBE953:
 1217              	.LBE952:
 1218              	.LBE951:
 1219              	.LBB954:
 1220              	.LBB946:
 1221              	.LBB941:
 244:../../libdaisy/src/dev/oled_ssd130x.h ****         else
 1222              		.loc 12 244 42 view .LVU247
 1223 00e8 1543     		orrs	r5, r5, r2
 244:../../libdaisy/src/dev/oled_ssd130x.h ****         else
 1224              		.loc 12 244 13 view .LVU248
ARM GAS  /tmp/cceRX0y9.s 			page 47


 1225 00ea 1D70     		strb	r5, [r3]
 1226              	.L79:
 1227              	.LBE941:
 1228              	.LBE946:
 1229              	.LBE954:
 416:../../libdaisy/src/hid/disp/display.h ****             {
 1230              		.loc 3 416 13 is_stmt 1 view .LVU249
 1231 00ec 0130     		adds	r0, r0, #1
 1232              	.LVL83:
 416:../../libdaisy/src/hid/disp/display.h ****             {
 1233              		.loc 3 416 26 view .LVU250
 1234 00ee 0133     		adds	r3, r3, #1
 1235 00f0 0134     		adds	r4, r4, #1
 1236 00f2 B842     		cmp	r0, r7
 1237 00f4 14D0     		beq	.L82
 1238              	.LVL84:
 1239              	.L83:
 418:../../libdaisy/src/hid/disp/display.h ****                 {
 1240              		.loc 3 418 23 is_stmt 0 view .LVU251
 1241 00f6 0AFA00F5 		lsl	r5, r10, r0
 418:../../libdaisy/src/hid/disp/display.h ****                 {
 1242              		.loc 3 418 17 view .LVU252
 1243 00fa 2D04     		lsls	r5, r5, #16
 1244 00fc ECD4     		bmi	.L107
 1245              	.LVL85:
 1246              	.LBB955:
 1247              	.LBI928:
  41:../../libdaisy/src/hid/disp/oled_display.h ****     {
 1248              		.loc 2 41 10 is_stmt 1 view .LVU253
 1249              	.LBB947:
 1250              	.LBI929:
 239:../../libdaisy/src/dev/oled_ssd130x.h ****     {
 1251              		.loc 12 239 10 view .LVU254
 1252              	.LBB942:
 241:../../libdaisy/src/dev/oled_ssd130x.h ****             return;
 1253              		.loc 12 241 9 is_stmt 0 view .LVU255
 1254 00fe 7F2C     		cmp	r4, #127
 1255 0100 F4D8     		bhi	.L79
 1256 0102 3F29     		cmp	r1, #63
 1257 0104 F2D8     		bhi	.L79
 244:../../libdaisy/src/dev/oled_ssd130x.h ****         else
 1258              		.loc 12 244 42 view .LVU256
 1259 0106 1D78     		ldrb	r5, [r3]	@ zero_extendqisi2
 243:../../libdaisy/src/dev/oled_ssd130x.h ****             buffer_[x + (y / 8) * width] |= (1 << (y % 8));
 1260              		.loc 12 243 9 view .LVU257
 1261 0108 B9F1000F 		cmp	r9, #0
 1262 010c ECD0     		beq	.L104
 1263              	.L81:
 1264              	.LVL86:
 1265              	.LBB937:
 1266              	.LBI931:
 239:../../libdaisy/src/dev/oled_ssd130x.h ****     {
 1267              		.loc 12 239 10 is_stmt 1 view .LVU258
 239:../../libdaisy/src/dev/oled_ssd130x.h ****     {
 1268              		.loc 12 239 10 is_stmt 0 view .LVU259
 1269              	.LBE937:
 1270              	.LBE942:
ARM GAS  /tmp/cceRX0y9.s 			page 48


 1271              	.LBE947:
 1272              	.LBE955:
 416:../../libdaisy/src/hid/disp/display.h ****             {
 1273              		.loc 3 416 13 view .LVU260
 1274 010e 0130     		adds	r0, r0, #1
 1275              	.LVL87:
 1276              	.LBB956:
 1277              	.LBB948:
 1278              	.LBB943:
 1279              	.LBB938:
 1280              	.LBB934:
 246:../../libdaisy/src/dev/oled_ssd130x.h ****     }
 1281              		.loc 12 246 42 view .LVU261
 1282 0110 0CEA0505 		and	r5, ip, r5
 1283 0114 0133     		adds	r3, r3, #1
 1284 0116 0134     		adds	r4, r4, #1
 1285              	.LBE934:
 1286              	.LBE938:
 1287              	.LBE943:
 1288              	.LBE948:
 1289              	.LBE956:
 416:../../libdaisy/src/hid/disp/display.h ****             {
 1290              		.loc 3 416 26 view .LVU262
 1291 0118 B842     		cmp	r0, r7
 1292              	.LBB957:
 1293              	.LBB949:
 1294              	.LBB944:
 1295              	.LBB939:
 1296              	.LBB935:
 246:../../libdaisy/src/dev/oled_ssd130x.h ****     }
 1297              		.loc 12 246 13 view .LVU263
 1298 011a 03F8015C 		strb	r5, [r3, #-1]
 246:../../libdaisy/src/dev/oled_ssd130x.h ****     }
 1299              		.loc 12 246 13 view .LVU264
 1300              	.LBE935:
 1301              	.LBE939:
 1302              	.LBE944:
 1303              	.LBE949:
 1304              	.LBE957:
 416:../../libdaisy/src/hid/disp/display.h ****             {
 1305              		.loc 3 416 13 is_stmt 1 view .LVU265
 1306              	.LVL88:
 416:../../libdaisy/src/hid/disp/display.h ****             {
 1307              		.loc 3 416 26 view .LVU266
 1308 011e EAD1     		bne	.L83
 1309              	.LVL89:
 1310              	.L82:
 413:../../libdaisy/src/hid/disp/display.h ****         {
 1311              		.loc 3 413 9 view .LVU267
 413:../../libdaisy/src/hid/disp/display.h ****         {
 1312              		.loc 3 413 22 view .LVU268
 1313 0120 5E45     		cmp	r6, fp
 1314 0122 01F10101 		add	r1, r1, #1
 1315 0126 C3D1     		bne	.L77
 1316 0128 BA46     		mov	r10, r7
 1317              	.LVL90:
 413:../../libdaisy/src/hid/disp/display.h ****         {
ARM GAS  /tmp/cceRX0y9.s 			page 49


 1318              		.loc 3 413 22 is_stmt 0 view .LVU269
 1319 012a 029D     		ldr	r5, [sp, #8]
 1320 012c 7746     		mov	r7, lr
 1321 012e DDF80CB0 		ldr	fp, [sp, #12]
 1322              	.L76:
 1323              	.LBB958:
 1324              	.LBB959:
 173:../../libdaisy/src/hid/disp/display.h ****         currentY_ = (y >= Height()) ? Height() - 1 : y;
 1325              		.loc 3 173 33 view .LVU270
 1326 0132 D8F80020 		ldr	r2, [r8]
 1327              	.LBE959:
 1328              	.LBE958:
 434:../../libdaisy/src/hid/disp/display.h **** 
 1329              		.loc 3 434 18 view .LVU271
 1330 0136 5744     		add	r7, r7, r10
 1331 0138 2749     		ldr	r1, .L112
 1332              	.LBB963:
 1333              	.LBB960:
 173:../../libdaisy/src/hid/disp/display.h ****         currentY_ = (y >= Height()) ? Height() - 1 : y;
 1334              		.loc 3 173 33 view .LVU272
 1335 013a D368     		ldr	r3, [r2, #12]
 1336              	.LBE960:
 1337              	.LBE963:
 434:../../libdaisy/src/hid/disp/display.h **** 
 1338              		.loc 3 434 18 view .LVU273
 1339 013c BFB2     		uxth	r7, r7
 1340              	.LVL91:
 1341              	.LBB964:
 1342              	.LBI958:
 171:../../libdaisy/src/hid/disp/display.h ****     {
 1343              		.loc 3 171 10 is_stmt 1 view .LVU274
 1344              	.LBB961:
 173:../../libdaisy/src/hid/disp/display.h ****         currentY_ = (y >= Height()) ? Height() - 1 : y;
 1345              		.loc 3 173 9 view .LVU275
 1346 013e 8B42     		cmp	r3, r1
 1347 0140 34D1     		bne	.L108
 173:../../libdaisy/src/hid/disp/display.h ****         currentY_ = (y >= Height()) ? Height() - 1 : y;
 1348              		.loc 3 173 33 is_stmt 0 view .LVU276
 1349 0142 8020     		movs	r0, #128
 1350              	.L84:
 173:../../libdaisy/src/hid/disp/display.h ****         currentY_ = (y >= Height()) ? Height() - 1 : y;
 1351              		.loc 3 173 19 view .LVU277
 1352 0144 8742     		cmp	r7, r0
 1353 0146 04D3     		bcc	.L85
 173:../../libdaisy/src/hid/disp/display.h ****         currentY_ = (y >= Height()) ? Height() - 1 : y;
 1354              		.loc 3 173 44 view .LVU278
 1355 0148 D368     		ldr	r3, [r2, #12]
 1356 014a 2349     		ldr	r1, .L112
 1357 014c 8B42     		cmp	r3, r1
 1358 014e 3BD1     		bne	.L109
 1359 0150 7F27     		movs	r7, #127
 1360              	.LVL92:
 1361              	.L85:
 174:../../libdaisy/src/hid/disp/display.h ****     }
 1362              		.loc 3 174 34 view .LVU279
 1363 0152 9368     		ldr	r3, [r2, #8]
 1364 0154 214A     		ldr	r2, .L112+4
ARM GAS  /tmp/cceRX0y9.s 			page 50


 173:../../libdaisy/src/hid/disp/display.h ****         currentY_ = (y >= Height()) ? Height() - 1 : y;
 1365              		.loc 3 173 19 view .LVU280
 1366 0156 A8F80470 		strh	r7, [r8, #4]	@ movhi
 174:../../libdaisy/src/hid/disp/display.h ****     }
 1367              		.loc 3 174 9 is_stmt 1 view .LVU281
 1368 015a 9342     		cmp	r3, r2
 1369 015c 23D1     		bne	.L110
 174:../../libdaisy/src/hid/disp/display.h ****     }
 1370              		.loc 3 174 34 is_stmt 0 view .LVU282
 1371 015e 4020     		movs	r0, #64
 1372              	.L87:
 174:../../libdaisy/src/hid/disp/display.h ****     }
 1373              		.loc 3 174 19 view .LVU283
 1374 0160 009B     		ldr	r3, [sp]
 1375 0162 8342     		cmp	r3, r0
 1376 0164 07D3     		bcc	.L88
 174:../../libdaisy/src/hid/disp/display.h ****     }
 1377              		.loc 3 174 46 view .LVU284
 1378 0166 D8F80030 		ldr	r3, [r8]
 1379 016a 1C4A     		ldr	r2, .L112+4
 1380 016c 9B68     		ldr	r3, [r3, #8]
 1381 016e 9342     		cmp	r3, r2
 1382 0170 24D1     		bne	.L111
 1383 0172 3F23     		movs	r3, #63
 1384 0174 0093     		str	r3, [sp]
 1385              	.LVL93:
 1386              	.L88:
 174:../../libdaisy/src/hid/disp/display.h ****     }
 1387              		.loc 3 174 19 view .LVU285
 1388 0176 009B     		ldr	r3, [sp]
 1389 0178 A8F80630 		strh	r3, [r8, #6]	@ movhi
 1390              	.LVL94:
 1391              	.L70:
 174:../../libdaisy/src/hid/disp/display.h ****     }
 1392              		.loc 3 174 19 view .LVU286
 1393              	.LBE961:
 1394              	.LBE964:
 1395              	.LBE927:
 1396              	.LBE926:
 444:../../libdaisy/src/hid/disp/display.h ****         {
 445:../../libdaisy/src/hid/disp/display.h ****             if(((ChildType*)(this))->ChildType::WriteChar(*str, font, on)
 446:../../libdaisy/src/hid/disp/display.h ****                != *str)
 1397              		.loc 3 446 16 view .LVU287
 1398 017c 9BF80000 		ldrb	r0, [fp]	@ zero_extendqisi2
 445:../../libdaisy/src/hid/disp/display.h ****                != *str)
 1399              		.loc 3 445 13 view .LVU288
 1400 0180 A842     		cmp	r0, r5
 1401 0182 05D1     		bne	.L68
 1402              	.LVL95:
 443:../../libdaisy/src/hid/disp/display.h ****         {
 1403              		.loc 3 443 9 is_stmt 1 view .LVU289
 1404 0184 1BF8015F 		ldrb	r5, [fp, #1]!	@ zero_extendqisi2
 1405              	.LVL96:
 443:../../libdaisy/src/hid/disp/display.h ****         {
 1406              		.loc 3 443 9 is_stmt 0 view .LVU290
 1407 0188 002D     		cmp	r5, #0
 1408 018a 7FF452AF 		bne	.L91
ARM GAS  /tmp/cceRX0y9.s 			page 51


 1409              	.LVL97:
 1410              	.L90:
 1411              	.LBB968:
 1412              	.LBB966:
 402:../../libdaisy/src/hid/disp/display.h **** 
 1413              		.loc 3 402 20 view .LVU291
 1414 018e 0020     		movs	r0, #0
 1415              	.LVL98:
 1416              	.L68:
 402:../../libdaisy/src/hid/disp/display.h **** 
 1417              		.loc 3 402 20 view .LVU292
 1418              	.LBE966:
 1419              	.LBE968:
 447:../../libdaisy/src/hid/disp/display.h ****             {
 448:../../libdaisy/src/hid/disp/display.h ****                 // Char could not be written
 449:../../libdaisy/src/hid/disp/display.h ****                 return *str;
 450:../../libdaisy/src/hid/disp/display.h ****             }
 451:../../libdaisy/src/hid/disp/display.h **** 
 452:../../libdaisy/src/hid/disp/display.h ****             // Next char
 453:../../libdaisy/src/hid/disp/display.h ****             str++;
 454:../../libdaisy/src/hid/disp/display.h ****         }
 455:../../libdaisy/src/hid/disp/display.h **** 
 456:../../libdaisy/src/hid/disp/display.h ****         // Everything ok
 457:../../libdaisy/src/hid/disp/display.h ****         return *str;
 458:../../libdaisy/src/hid/disp/display.h ****     }
 1420              		.loc 3 458 5 view .LVU293
 1421 0190 09B0     		add	sp, sp, #36
 1422              		.cfi_remember_state
 1423              		.cfi_def_cfa_offset 36
 1424              		@ sp needed
 1425 0192 BDE8F08F 		pop	{r4, r5, r6, r7, r8, r9, r10, fp, pc}
 1426              	.LVL99:
 1427              	.L72:
 1428              		.cfi_restore_state
 1429              	.LBB969:
 1430              	.LBB967:
 402:../../libdaisy/src/hid/disp/display.h **** 
 1431              		.loc 3 402 20 view .LVU294
 1432 0196 0025     		movs	r5, #0
 1433              	.LVL100:
 402:../../libdaisy/src/hid/disp/display.h **** 
 1434              		.loc 3 402 20 view .LVU295
 1435 0198 F0E7     		b	.L70
 1436              	.LVL101:
 1437              	.L105:
 405:../../libdaisy/src/hid/disp/display.h ****            || Height() < (currentY_ + font.FontHeight))
 1438              		.loc 3 405 17 view .LVU296
 1439 019a 4046     		mov	r0, r8
 1440 019c 9847     		blx	r3
 1441              	.LVL102:
 1442 019e 56E7     		b	.L71
 1443              	.L106:
 406:../../libdaisy/src/hid/disp/display.h ****         {
 1444              		.loc 3 406 21 view .LVU297
 1445 01a0 4046     		mov	r0, r8
 1446 01a2 9847     		blx	r3
 1447              	.LVL103:
ARM GAS  /tmp/cceRX0y9.s 			page 52


 1448 01a4 61E7     		b	.L73
 1449              	.LVL104:
 1450              	.L110:
 1451              	.LBB965:
 1452              	.LBB962:
 174:../../libdaisy/src/hid/disp/display.h ****     }
 1453              		.loc 3 174 33 view .LVU298
 1454 01a6 4046     		mov	r0, r8
 1455 01a8 9847     		blx	r3
 1456              	.LVL105:
 1457 01aa D9E7     		b	.L87
 1458              	.LVL106:
 1459              	.L108:
 173:../../libdaisy/src/hid/disp/display.h ****         currentY_ = (y >= Height()) ? Height() - 1 : y;
 1460              		.loc 3 173 32 view .LVU299
 1461 01ac 4046     		mov	r0, r8
 1462 01ae 9847     		blx	r3
 1463              	.LVL107:
 1464 01b0 D8F80020 		ldr	r2, [r8]
 1465 01b4 C6E7     		b	.L84
 1466              	.LVL108:
 1467              	.L74:
 173:../../libdaisy/src/hid/disp/display.h ****         currentY_ = (y >= Height()) ? Height() - 1 : y;
 1468              		.loc 3 173 32 view .LVU300
 1469 01b6 B8F80470 		ldrh	r7, [r8, #4]
 1470 01ba BAE7     		b	.L76
 1471              	.LVL109:
 1472              	.L111:
 174:../../libdaisy/src/hid/disp/display.h ****     }
 1473              		.loc 3 174 45 view .LVU301
 1474 01bc 4046     		mov	r0, r8
 1475 01be 9847     		blx	r3
 1476              	.LVL110:
 1477 01c0 0138     		subs	r0, r0, #1
 1478 01c2 83B2     		uxth	r3, r0
 1479 01c4 0093     		str	r3, [sp]
 1480              	.LVL111:
 174:../../libdaisy/src/hid/disp/display.h ****     }
 1481              		.loc 3 174 45 view .LVU302
 1482 01c6 D6E7     		b	.L88
 1483              	.LVL112:
 1484              	.L109:
 173:../../libdaisy/src/hid/disp/display.h ****         currentY_ = (y >= Height()) ? Height() - 1 : y;
 1485              		.loc 3 173 43 view .LVU303
 1486 01c8 4046     		mov	r0, r8
 1487 01ca 9847     		blx	r3
 1488              	.LVL113:
 1489 01cc 0138     		subs	r0, r0, #1
 1490 01ce D8F80020 		ldr	r2, [r8]
 1491 01d2 87B2     		uxth	r7, r0
 1492              	.LVL114:
 173:../../libdaisy/src/hid/disp/display.h ****         currentY_ = (y >= Height()) ? Height() - 1 : y;
 1493              		.loc 3 173 43 view .LVU304
 1494 01d4 BDE7     		b	.L85
 1495              	.L113:
 1496 01d6 00BF     		.align	2
 1497              	.L112:
ARM GAS  /tmp/cceRX0y9.s 			page 53


 1498 01d8 00000000 		.word	_ZNK5daisy11OledDisplayINS_13SSD130xDriverILj128ELj64ENS_24SSD130x4WireSpiTransportEEEE5Widt
 1499 01dc 00000000 		.word	_ZNK5daisy11OledDisplayINS_13SSD130xDriverILj128ELj64ENS_24SSD130x4WireSpiTransportEEEE6Heig
 1500              	.LBE962:
 1501              	.LBE965:
 1502              	.LBE967:
 1503              	.LBE969:
 1504              		.cfi_endproc
 1505              	.LFE4563:
 1507              		.section	.text._ZN5daisy25OneBitGraphicsDisplayImplINS_11OledDisplayINS_13SSD130xDriverILj128ELj64
 1508              		.align	1
 1509              		.p2align 2,,3
 1510              		.weak	_ZN5daisy25OneBitGraphicsDisplayImplINS_11OledDisplayINS_13SSD130xDriverILj128ELj64ENS_24SSD
 1511              		.syntax unified
 1512              		.thumb
 1513              		.thumb_func
 1514              		.fpu fpv5-d16
 1516              	_ZN5daisy25OneBitGraphicsDisplayImplINS_11OledDisplayINS_13SSD130xDriverILj128ELj64ENS_24SSD130x4Wi
 1517              	.LVL115:
 1518              	.LFB4839:
 221:../../libdaisy/src/hid/disp/display.h ****                   uint_fast8_t y1,
 1519              		.loc 3 221 10 is_stmt 1 view -0
 1520              		.cfi_startproc
 1521              		@ args = 8, pretend = 0, frame = 8
 1522              		@ frame_needed = 0, uses_anonymous_args = 0
 221:../../libdaisy/src/hid/disp/display.h ****                   uint_fast8_t y1,
 1523              		.loc 3 221 10 is_stmt 0 view .LVU306
 1524 0000 2DE9F04F 		push	{r4, r5, r6, r7, r8, r9, r10, fp, lr}
 1525              		.cfi_def_cfa_offset 36
 1526              		.cfi_offset 4, -36
 1527              		.cfi_offset 5, -32
 1528              		.cfi_offset 6, -28
 1529              		.cfi_offset 7, -24
 1530              		.cfi_offset 8, -20
 1531              		.cfi_offset 9, -16
 1532              		.cfi_offset 10, -12
 1533              		.cfi_offset 11, -8
 1534              		.cfi_offset 14, -4
 1535 0004 83B0     		sub	sp, sp, #12
 1536              		.cfi_def_cfa_offset 48
 227:../../libdaisy/src/hid/disp/display.h ****         int_fast16_t deltaY = abs((int_fast16_t)y2 - (int_fast16_t)y1);
 1537              		.loc 3 227 52 view .LVU307
 1538 0006 5E1A     		subs	r6, r3, r1
 221:../../libdaisy/src/hid/disp/display.h ****                   uint_fast8_t y1,
 1539              		.loc 3 221 10 view .LVU308
 1540 0008 0C9F     		ldr	r7, [sp, #48]
 1541 000a 9DF83480 		ldrb	r8, [sp, #52]	@ zero_extendqisi2
 228:../../libdaisy/src/hid/disp/display.h ****         int_fast16_t signX  = ((x1 < x2) ? 1 : -1);
 1542              		.loc 3 228 52 view .LVU309
 1543 000e A7EB020E 		sub	lr, r7, r2
 228:../../libdaisy/src/hid/disp/display.h ****         int_fast16_t signX  = ((x1 < x2) ? 1 : -1);
 1544              		.loc 3 228 22 view .LVU310
 1545 0012 BEF1000F 		cmp	lr, #0
 1546 0016 B8BF     		it	lt
 1547 0018 CEF1000E 		rsblt	lr, lr, #0
 229:../../libdaisy/src/hid/disp/display.h ****         int_fast16_t signY  = ((y1 < y2) ? 1 : -1);
 1548              		.loc 3 229 22 view .LVU311
 1549 001c 8B42     		cmp	r3, r1
ARM GAS  /tmp/cceRX0y9.s 			page 54


 1550 001e 8CBF     		ite	hi
 1551 0020 4FF00109 		movhi	r9, #1
 1552 0024 4FF0FF39 		movls	r9, #-1
 227:../../libdaisy/src/hid/disp/display.h ****         int_fast16_t deltaY = abs((int_fast16_t)y2 - (int_fast16_t)y1);
 1553              		.loc 3 227 22 view .LVU312
 1554 0028 002E     		cmp	r6, #0
 1555 002a B8BF     		it	lt
 1556 002c 7642     		rsblt	r6, r6, #0
 1557              	.LVL116:
 230:../../libdaisy/src/hid/disp/display.h ****         int_fast16_t error  = deltaX - deltaY;
 1558              		.loc 3 230 22 view .LVU313
 1559 002e 9742     		cmp	r7, r2
 231:../../libdaisy/src/hid/disp/display.h ****         int_fast16_t error2;
 1560              		.loc 3 231 22 view .LVU314
 1561 0030 A6EB0E04 		sub	r4, r6, lr
 230:../../libdaisy/src/hid/disp/display.h ****         int_fast16_t error  = deltaX - deltaY;
 1562              		.loc 3 230 22 view .LVU315
 1563 0034 4FD8     		bhi	.L116
 1564              	.LVL117:
 1565              	.LBB986:
 1566              	.LBI986:
  41:../../libdaisy/src/hid/disp/oled_display.h ****     {
 1567              		.loc 2 41 10 is_stmt 1 discriminator 4 view .LVU316
 1568              	.LBB987:
 1569              	.LBI987:
 239:../../libdaisy/src/dev/oled_ssd130x.h ****     {
 1570              		.loc 12 239 10 discriminator 4 view .LVU317
 1571              	.LBE987:
 1572              	.LBE986:
 230:../../libdaisy/src/hid/disp/display.h ****         int_fast16_t error  = deltaX - deltaY;
 1573              		.loc 3 230 22 is_stmt 0 discriminator 4 view .LVU318
 1574 0036 4FF0FF35 		mov	r5, #-1
 1575              	.LBB1003:
 1576              	.LBB997:
 1577              	.LBB988:
 241:../../libdaisy/src/dev/oled_ssd130x.h ****             return;
 1578              		.loc 12 241 9 discriminator 4 view .LVU319
 1579 003a 7F2B     		cmp	r3, #127
 1580              	.LBE988:
 1581              	.LBE997:
 1582              	.LBE1003:
 230:../../libdaisy/src/hid/disp/display.h ****         int_fast16_t error  = deltaX - deltaY;
 1583              		.loc 3 230 22 discriminator 4 view .LVU320
 1584 003c 0195     		str	r5, [sp, #4]
 1585              	.LBB1004:
 1586              	.LBB998:
 1587              	.LBB993:
 241:../../libdaisy/src/dev/oled_ssd130x.h ****             return;
 1588              		.loc 12 241 9 discriminator 4 view .LVU321
 1589 003e 14D8     		bhi	.L117
 1590 0040 3F2F     		cmp	r7, #63
 1591 0042 12D8     		bhi	.L117
 1592              	.LVL118:
 1593              	.L128:
 244:../../libdaisy/src/dev/oled_ssd130x.h ****         else
 1594              		.loc 12 244 28 view .LVU322
 1595 0044 FD08     		lsrs	r5, r7, #3
ARM GAS  /tmp/cceRX0y9.s 			page 55


 244:../../libdaisy/src/dev/oled_ssd130x.h ****         else
 1596              		.loc 12 244 54 view .LVU323
 1597 0046 07F0070C 		and	ip, r7, #7
 244:../../libdaisy/src/dev/oled_ssd130x.h ****         else
 1598              		.loc 12 244 48 view .LVU324
 1599 004a 4FF0010A 		mov	r10, #1
 244:../../libdaisy/src/dev/oled_ssd130x.h ****         else
 1600              		.loc 12 244 42 view .LVU325
 1601 004e 03EBC515 		add	r5, r3, r5, lsl #7
 243:../../libdaisy/src/dev/oled_ssd130x.h ****             buffer_[x + (y / 8) * width] |= (1 << (y % 8));
 1602              		.loc 12 243 9 view .LVU326
 1603 0052 B8F1000F 		cmp	r8, #0
 1604 0056 45D0     		beq	.L118
 244:../../libdaisy/src/dev/oled_ssd130x.h ****         else
 1605              		.loc 12 244 13 view .LVU327
 1606 0058 0544     		add	r5, r5, r0
 244:../../libdaisy/src/dev/oled_ssd130x.h ****         else
 1607              		.loc 12 244 48 view .LVU328
 1608 005a 0AFA0CFC 		lsl	ip, r10, ip
 244:../../libdaisy/src/dev/oled_ssd130x.h ****         else
 1609              		.loc 12 244 42 view .LVU329
 1610 005e 95F814A0 		ldrb	r10, [r5, #20]	@ zero_extendqisi2
 1611 0062 4CEA0A0C 		orr	ip, ip, r10
 244:../../libdaisy/src/dev/oled_ssd130x.h ****         else
 1612              		.loc 12 244 13 view .LVU330
 1613 0066 85F814C0 		strb	ip, [r5, #20]
 1614              	.L117:
 1615              	.LVL119:
 244:../../libdaisy/src/dev/oled_ssd130x.h ****         else
 1616              		.loc 12 244 13 view .LVU331
 1617              	.LBE993:
 1618              	.LBE998:
 1619              	.LBE1004:
 239:../../libdaisy/src/hid/disp/display.h ****         {
 1620              		.loc 3 239 26 is_stmt 1 view .LVU332
 1621 006a 9742     		cmp	r7, r2
 1622 006c 01D1     		bne	.L121
 1623              	.L140:
 239:../../libdaisy/src/hid/disp/display.h ****         {
 1624              		.loc 3 239 26 is_stmt 0 view .LVU333
 1625 006e 8B42     		cmp	r3, r1
 1626 0070 29D0     		beq	.L114
 1627              	.L121:
 1628              	.LVL120:
 239:../../libdaisy/src/hid/disp/display.h ****         {
 1629              		.loc 3 239 26 view .LVU334
 1630 0072 CEF1000C 		rsb	ip, lr, #0
 1631              	.L123:
 1632              	.LVL121:
 1633              	.LBB1005:
 1634              	.LBI1005:
  41:../../libdaisy/src/hid/disp/oled_display.h ****     {
 1635              		.loc 2 41 10 is_stmt 1 view .LVU335
 1636              	.LBB1006:
 1637              	.LBI1006:
 239:../../libdaisy/src/dev/oled_ssd130x.h ****     {
 1638              		.loc 12 239 10 view .LVU336
ARM GAS  /tmp/cceRX0y9.s 			page 56


 1639              	.LBB1007:
 241:../../libdaisy/src/dev/oled_ssd130x.h ****             return;
 1640              		.loc 12 241 9 is_stmt 0 view .LVU337
 1641 0076 7F29     		cmp	r1, #127
 1642 0078 14D8     		bhi	.L124
 1643 007a 3F2A     		cmp	r2, #63
 1644 007c 12D8     		bhi	.L124
 244:../../libdaisy/src/dev/oled_ssd130x.h ****         else
 1645              		.loc 12 244 28 view .LVU338
 1646 007e D508     		lsrs	r5, r2, #3
 244:../../libdaisy/src/dev/oled_ssd130x.h ****         else
 1647              		.loc 12 244 48 view .LVU339
 1648 0080 4FF0010B 		mov	fp, #1
 244:../../libdaisy/src/dev/oled_ssd130x.h ****         else
 1649              		.loc 12 244 54 view .LVU340
 1650 0084 02F0070A 		and	r10, r2, #7
 244:../../libdaisy/src/dev/oled_ssd130x.h ****         else
 1651              		.loc 12 244 42 view .LVU341
 1652 0088 01EBC515 		add	r5, r1, r5, lsl #7
 244:../../libdaisy/src/dev/oled_ssd130x.h ****         else
 1653              		.loc 12 244 48 view .LVU342
 1654 008c 0BFA0AFA 		lsl	r10, fp, r10
 244:../../libdaisy/src/dev/oled_ssd130x.h ****         else
 1655              		.loc 12 244 13 view .LVU343
 1656 0090 0544     		add	r5, r5, r0
 244:../../libdaisy/src/dev/oled_ssd130x.h ****         else
 1657              		.loc 12 244 42 view .LVU344
 1658 0092 95F814B0 		ldrb	fp, [r5, #20]	@ zero_extendqisi2
 243:../../libdaisy/src/dev/oled_ssd130x.h ****             buffer_[x + (y / 8) * width] |= (1 << (y % 8));
 1659              		.loc 12 243 9 view .LVU345
 1660 0096 B8F1000F 		cmp	r8, #0
 1661 009a 17D0     		beq	.L125
 244:../../libdaisy/src/dev/oled_ssd130x.h ****         else
 1662              		.loc 12 244 42 view .LVU346
 1663 009c 4AEA0B0A 		orr	r10, r10, fp
 244:../../libdaisy/src/dev/oled_ssd130x.h ****         else
 1664              		.loc 12 244 13 view .LVU347
 1665 00a0 85F814A0 		strb	r10, [r5, #20]
 1666              	.L124:
 1667              	.LVL122:
 244:../../libdaisy/src/dev/oled_ssd130x.h ****         else
 1668              		.loc 12 244 13 view .LVU348
 1669              	.LBE1007:
 1670              	.LBE1006:
 1671              	.LBE1005:
 243:../../libdaisy/src/hid/disp/display.h ****             {
 1672              		.loc 3 243 13 view .LVU349
 1673 00a4 BCEB440F 		cmp	ip, r4, lsl #1
 242:../../libdaisy/src/hid/disp/display.h ****             if(error2 > -deltaY)
 1674              		.loc 3 242 13 view .LVU350
 1675 00a8 4FEA4405 		lsl	r5, r4, #1
 1676              	.LVL123:
 243:../../libdaisy/src/hid/disp/display.h ****             {
 1677              		.loc 3 243 13 view .LVU351
 1678 00ac 02DA     		bge	.L126
 245:../../libdaisy/src/hid/disp/display.h ****                 x1 += signX;
 1679              		.loc 3 245 17 view .LVU352
ARM GAS  /tmp/cceRX0y9.s 			page 57


 1680 00ae A4EB0E04 		sub	r4, r4, lr
 1681              	.LVL124:
 246:../../libdaisy/src/hid/disp/display.h ****             }
 1682              		.loc 3 246 17 view .LVU353
 1683 00b2 4944     		add	r1, r1, r9
 1684              	.LVL125:
 1685              	.L126:
 249:../../libdaisy/src/hid/disp/display.h ****             {
 1686              		.loc 3 249 13 view .LVU354
 1687 00b4 AE42     		cmp	r6, r5
 1688 00b6 02DD     		ble	.L127
 252:../../libdaisy/src/hid/disp/display.h ****             }
 1689              		.loc 3 252 17 view .LVU355
 1690 00b8 019D     		ldr	r5, [sp, #4]
 1691              	.LVL126:
 251:../../libdaisy/src/hid/disp/display.h ****                 y1 += signY;
 1692              		.loc 3 251 17 view .LVU356
 1693 00ba 3444     		add	r4, r4, r6
 1694              	.LVL127:
 252:../../libdaisy/src/hid/disp/display.h ****             }
 1695              		.loc 3 252 17 view .LVU357
 1696 00bc 2A44     		add	r2, r2, r5
 1697              	.LVL128:
 1698              	.L127:
 239:../../libdaisy/src/hid/disp/display.h ****         {
 1699              		.loc 3 239 26 is_stmt 1 view .LVU358
 1700 00be 9942     		cmp	r1, r3
 1701 00c0 D9D1     		bne	.L123
 239:../../libdaisy/src/hid/disp/display.h ****         {
 1702              		.loc 3 239 26 is_stmt 0 view .LVU359
 1703 00c2 9742     		cmp	r7, r2
 1704 00c4 D7D1     		bne	.L123
 1705              	.L114:
 255:../../libdaisy/src/hid/disp/display.h **** 
 1706              		.loc 3 255 5 view .LVU360
 1707 00c6 03B0     		add	sp, sp, #12
 1708              		.cfi_remember_state
 1709              		.cfi_def_cfa_offset 36
 1710              		@ sp needed
 1711 00c8 BDE8F08F 		pop	{r4, r5, r6, r7, r8, r9, r10, fp, pc}
 1712              	.LVL129:
 1713              	.L125:
 1714              		.cfi_restore_state
 1715              	.LBB1012:
 1716              	.LBB1011:
 1717              	.LBB1010:
 1718              	.LBB1008:
 1719              	.LBI1008:
 239:../../libdaisy/src/dev/oled_ssd130x.h ****     {
 1720              		.loc 12 239 10 is_stmt 1 view .LVU361
 1721              	.LBB1009:
 246:../../libdaisy/src/dev/oled_ssd130x.h ****     }
 1722              		.loc 12 246 42 is_stmt 0 view .LVU362
 1723 00cc 2BEA0A0A 		bic	r10, fp, r10
 246:../../libdaisy/src/dev/oled_ssd130x.h ****     }
 1724              		.loc 12 246 13 view .LVU363
 1725 00d0 85F814A0 		strb	r10, [r5, #20]
ARM GAS  /tmp/cceRX0y9.s 			page 58


 1726 00d4 E6E7     		b	.L124
 1727              	.LVL130:
 1728              	.L116:
 246:../../libdaisy/src/dev/oled_ssd130x.h ****     }
 1729              		.loc 12 246 13 view .LVU364
 1730              	.LBE1009:
 1731              	.LBE1008:
 1732              	.LBE1010:
 1733              	.LBE1011:
 1734              	.LBE1012:
 1735              	.LBB1013:
  41:../../libdaisy/src/hid/disp/oled_display.h ****     {
 1736              		.loc 2 41 10 is_stmt 1 view .LVU365
 1737              	.LBB999:
 239:../../libdaisy/src/dev/oled_ssd130x.h ****     {
 1738              		.loc 12 239 10 view .LVU366
 1739              	.LBE999:
 1740              	.LBE1013:
 230:../../libdaisy/src/hid/disp/display.h ****         int_fast16_t error  = deltaX - deltaY;
 1741              		.loc 3 230 22 is_stmt 0 view .LVU367
 1742 00d6 0125     		movs	r5, #1
 1743              	.LBB1014:
 1744              	.LBB1000:
 1745              	.LBB994:
 241:../../libdaisy/src/dev/oled_ssd130x.h ****             return;
 1746              		.loc 12 241 9 view .LVU368
 1747 00d8 7F2B     		cmp	r3, #127
 1748              	.LBE994:
 1749              	.LBE1000:
 1750              	.LBE1014:
 230:../../libdaisy/src/hid/disp/display.h ****         int_fast16_t error  = deltaX - deltaY;
 1751              		.loc 3 230 22 view .LVU369
 1752 00da 0195     		str	r5, [sp, #4]
 1753              	.LBB1015:
 1754              	.LBB1001:
 1755              	.LBB995:
 241:../../libdaisy/src/dev/oled_ssd130x.h ****             return;
 1756              		.loc 12 241 9 view .LVU370
 1757 00dc C9D8     		bhi	.L121
 1758 00de 3F2F     		cmp	r7, #63
 1759 00e0 B0D9     		bls	.L128
 1760 00e2 C6E7     		b	.L121
 1761              	.LVL131:
 1762              	.L118:
 1763              	.LBB989:
 1764              	.LBI989:
 239:../../libdaisy/src/dev/oled_ssd130x.h ****     {
 1765              		.loc 12 239 10 is_stmt 1 view .LVU371
 1766              	.LBB990:
 246:../../libdaisy/src/dev/oled_ssd130x.h ****     }
 1767              		.loc 12 246 13 is_stmt 0 view .LVU372
 1768 00e4 0544     		add	r5, r5, r0
 246:../../libdaisy/src/dev/oled_ssd130x.h ****     }
 1769              		.loc 12 246 49 view .LVU373
 1770 00e6 0AFA0CFA 		lsl	r10, r10, ip
 1771              	.LBE990:
 1772              	.LBE989:
ARM GAS  /tmp/cceRX0y9.s 			page 59


 1773              	.LBE995:
 1774              	.LBE1001:
 1775              	.LBE1015:
 239:../../libdaisy/src/hid/disp/display.h ****         {
 1776              		.loc 3 239 26 view .LVU374
 1777 00ea 9742     		cmp	r7, r2
 1778              	.LBB1016:
 1779              	.LBB1002:
 1780              	.LBB996:
 1781              	.LBB992:
 1782              	.LBB991:
 246:../../libdaisy/src/dev/oled_ssd130x.h ****     }
 1783              		.loc 12 246 42 view .LVU375
 1784 00ec 95F814C0 		ldrb	ip, [r5, #20]	@ zero_extendqisi2
 1785 00f0 2CEA0A0C 		bic	ip, ip, r10
 246:../../libdaisy/src/dev/oled_ssd130x.h ****     }
 1786              		.loc 12 246 13 view .LVU376
 1787 00f4 85F814C0 		strb	ip, [r5, #20]
 1788              	.LVL132:
 246:../../libdaisy/src/dev/oled_ssd130x.h ****     }
 1789              		.loc 12 246 13 view .LVU377
 1790              	.LBE991:
 1791              	.LBE992:
 1792              	.LBE996:
 1793              	.LBE1002:
 1794              	.LBE1016:
 239:../../libdaisy/src/hid/disp/display.h ****         {
 1795              		.loc 3 239 26 is_stmt 1 view .LVU378
 1796 00f8 B9D0     		beq	.L140
 1797 00fa BAE7     		b	.L121
 1798              		.cfi_endproc
 1799              	.LFE4839:
 1801              		.section	.text._ZN5daisy25OneBitGraphicsDisplayImplINS_11OledDisplayINS_13SSD130xDriverILj128ELj64
 1802              		.align	1
 1803              		.p2align 2,,3
 1804              		.weak	_ZN5daisy25OneBitGraphicsDisplayImplINS_11OledDisplayINS_13SSD130xDriverILj128ELj64ENS_24SSD
 1805              		.syntax unified
 1806              		.thumb
 1807              		.thumb_func
 1808              		.fpu fpv5-d16
 1810              	_ZN5daisy25OneBitGraphicsDisplayImplINS_11OledDisplayINS_13SSD130xDriverILj128ELj64ENS_24SSD130x4Wi
 1811              	.LVL133:
 1812              	.LFB4841:
 283:../../libdaisy/src/hid/disp/display.h ****                  uint_fast8_t y,
 1813              		.loc 3 283 10 view -0
 1814              		.cfi_startproc
 1815              		@ args = 12, pretend = 0, frame = 16
 1816              		@ frame_needed = 0, uses_anonymous_args = 0
 283:../../libdaisy/src/hid/disp/display.h ****                  uint_fast8_t y,
 1817              		.loc 3 283 10 is_stmt 0 view .LVU380
 1818 0000 2DE9F04F 		push	{r4, r5, r6, r7, r8, r9, r10, fp, lr}
 1819              		.cfi_def_cfa_offset 36
 1820              		.cfi_offset 4, -36
 1821              		.cfi_offset 5, -32
 1822              		.cfi_offset 6, -28
 1823              		.cfi_offset 7, -24
 1824              		.cfi_offset 8, -20
ARM GAS  /tmp/cceRX0y9.s 			page 60


 1825              		.cfi_offset 9, -16
 1826              		.cfi_offset 10, -12
 1827              		.cfi_offset 11, -8
 1828              		.cfi_offset 14, -4
 1829 0004 2DED068B 		vpush.64	{d8, d9, d10}
 1830              		.cfi_def_cfa_offset 60
 1831              		.cfi_offset 80, -60
 1832              		.cfi_offset 81, -56
 1833              		.cfi_offset 82, -52
 1834              		.cfi_offset 83, -48
 1835              		.cfi_offset 84, -44
 1836              		.cfi_offset 85, -40
 1837 0008 85B0     		sub	sp, sp, #20
 1838              		.cfi_def_cfa_offset 80
 283:../../libdaisy/src/hid/disp/display.h ****                  uint_fast8_t y,
 1839              		.loc 3 283 10 view .LVU381
 1840 000a 1C46     		mov	r4, r3
 1841 000c 0F46     		mov	r7, r1
 1842 000e 9046     		mov	r8, r2
 1843 0010 9DF85830 		ldrb	r3, [sp, #88]	@ zero_extendqisi2
 1844              	.LVL134:
 283:../../libdaisy/src/hid/disp/display.h ****                  uint_fast8_t y,
 1845              		.loc 3 283 10 view .LVU382
 1846 0014 0390     		str	r0, [sp, #12]
 1847 0016 0293     		str	r3, [sp, #8]
 306:../../libdaisy/src/hid/disp/display.h ****         {
 1848              		.loc 3 306 9 view .LVU383
 1849 0018 159B     		ldr	r3, [sp, #84]
 1850 001a 002B     		cmp	r3, #0
 1851 001c C0F2F281 		blt	.L142
 1852 0020 149A     		ldr	r2, [sp, #80]
 1853              	.LVL135:
 306:../../libdaisy/src/hid/disp/display.h ****         {
 1854              		.loc 3 306 9 view .LVU384
 1855 0022 1344     		add	r3, r3, r2
 1856 0024 06EE103A 		vmov	s12, r3	@ int
 1857              	.LVL136:
 1858              	.L143:
 312:../../libdaisy/src/hid/disp/display.h ****         end_angle_rad   = deg2rad(start_angle + sweep);
 1859              		.loc 3 312 27 view .LVU385
 1860 0028 DDED147A 		vldr.32	s15, [sp, #80]	@ int
 313:../../libdaisy/src/hid/disp/display.h **** 
 1861              		.loc 3 313 27 view .LVU386
 1862 002c B8EEC66B 		vcvt.f64.s32	d6, s12
 312:../../libdaisy/src/hid/disp/display.h ****         end_angle_rad   = deg2rad(start_angle + sweep);
 1863              		.loc 3 312 27 view .LVU387
 1864 0030 9FEDD54B 		vldr.64	d4, .L216
 1865 0034 B8EEE77B 		vcvt.f64.s32	d7, s15
 1866 0038 9FEDD55B 		vldr.64	d5, .L216+8
 1867 003c 27EE047B 		vmul.f64	d7, d7, d4
 313:../../libdaisy/src/hid/disp/display.h **** 
 1868              		.loc 3 313 27 view .LVU388
 1869 0040 26EE046B 		vmul.f64	d6, d6, d4
 312:../../libdaisy/src/hid/disp/display.h ****         end_angle_rad   = deg2rad(start_angle + sweep);
 1870              		.loc 3 312 27 view .LVU389
 1871 0044 87EE050B 		vdiv.f64	d0, d7, d5
 313:../../libdaisy/src/hid/disp/display.h **** 
ARM GAS  /tmp/cceRX0y9.s 			page 61


 1872              		.loc 3 313 27 view .LVU390
 1873 0048 86EE05AB 		vdiv.f64	d10, d6, d5
 312:../../libdaisy/src/hid/disp/display.h ****         end_angle_rad   = deg2rad(start_angle + sweep);
 1874              		.loc 3 312 9 view .LVU391
 1875 004c F7EEC08B 		vcvt.f32.f64	s17, d0
 1876              	.LVL137:
 1877              	.LBB1049:
 1878              	.LBB1050:
 1879              		.file 14 "/usr/include/newlib/c++/9.2.1/cmath"
   1:/usr/include/newlib/c++/9.2.1/cmath **** // -*- C++ -*- C forwarding header.
   2:/usr/include/newlib/c++/9.2.1/cmath **** 
   3:/usr/include/newlib/c++/9.2.1/cmath **** // Copyright (C) 1997-2019 Free Software Foundation, Inc.
   4:/usr/include/newlib/c++/9.2.1/cmath **** //
   5:/usr/include/newlib/c++/9.2.1/cmath **** // This file is part of the GNU ISO C++ Library.  This library is free
   6:/usr/include/newlib/c++/9.2.1/cmath **** // software; you can redistribute it and/or modify it under the
   7:/usr/include/newlib/c++/9.2.1/cmath **** // terms of the GNU General Public License as published by the
   8:/usr/include/newlib/c++/9.2.1/cmath **** // Free Software Foundation; either version 3, or (at your option)
   9:/usr/include/newlib/c++/9.2.1/cmath **** // any later version.
  10:/usr/include/newlib/c++/9.2.1/cmath **** 
  11:/usr/include/newlib/c++/9.2.1/cmath **** // This library is distributed in the hope that it will be useful,
  12:/usr/include/newlib/c++/9.2.1/cmath **** // but WITHOUT ANY WARRANTY; without even the implied warranty of
  13:/usr/include/newlib/c++/9.2.1/cmath **** // MERCHANTABILITY or FITNESS FOR A PARTICULAR PURPOSE.  See the
  14:/usr/include/newlib/c++/9.2.1/cmath **** // GNU General Public License for more details.
  15:/usr/include/newlib/c++/9.2.1/cmath **** 
  16:/usr/include/newlib/c++/9.2.1/cmath **** // Under Section 7 of GPL version 3, you are granted additional
  17:/usr/include/newlib/c++/9.2.1/cmath **** // permissions described in the GCC Runtime Library Exception, version
  18:/usr/include/newlib/c++/9.2.1/cmath **** // 3.1, as published by the Free Software Foundation.
  19:/usr/include/newlib/c++/9.2.1/cmath **** 
  20:/usr/include/newlib/c++/9.2.1/cmath **** // You should have received a copy of the GNU General Public License and
  21:/usr/include/newlib/c++/9.2.1/cmath **** // a copy of the GCC Runtime Library Exception along with this program;
  22:/usr/include/newlib/c++/9.2.1/cmath **** // see the files COPYING3 and COPYING.RUNTIME respectively.  If not, see
  23:/usr/include/newlib/c++/9.2.1/cmath **** // <http://www.gnu.org/licenses/>.
  24:/usr/include/newlib/c++/9.2.1/cmath **** 
  25:/usr/include/newlib/c++/9.2.1/cmath **** /** @file include/cmath
  26:/usr/include/newlib/c++/9.2.1/cmath ****  *  This is a Standard C++ Library file.  You should @c \#include this file
  27:/usr/include/newlib/c++/9.2.1/cmath ****  *  in your programs, rather than any of the @a *.h implementation files.
  28:/usr/include/newlib/c++/9.2.1/cmath ****  *
  29:/usr/include/newlib/c++/9.2.1/cmath ****  *  This is the C++ version of the Standard C Library header @c math.h,
  30:/usr/include/newlib/c++/9.2.1/cmath ****  *  and its contents are (mostly) the same as that header, but are all
  31:/usr/include/newlib/c++/9.2.1/cmath ****  *  contained in the namespace @c std (except for names which are defined
  32:/usr/include/newlib/c++/9.2.1/cmath ****  *  as macros in C).
  33:/usr/include/newlib/c++/9.2.1/cmath ****  */
  34:/usr/include/newlib/c++/9.2.1/cmath **** 
  35:/usr/include/newlib/c++/9.2.1/cmath **** //
  36:/usr/include/newlib/c++/9.2.1/cmath **** // ISO C++ 14882: 26.5  C library
  37:/usr/include/newlib/c++/9.2.1/cmath **** //
  38:/usr/include/newlib/c++/9.2.1/cmath **** 
  39:/usr/include/newlib/c++/9.2.1/cmath **** #pragma GCC system_header
  40:/usr/include/newlib/c++/9.2.1/cmath **** 
  41:/usr/include/newlib/c++/9.2.1/cmath **** #include <bits/c++config.h>
  42:/usr/include/newlib/c++/9.2.1/cmath **** #include <bits/cpp_type_traits.h>
  43:/usr/include/newlib/c++/9.2.1/cmath **** #include <ext/type_traits.h>
  44:/usr/include/newlib/c++/9.2.1/cmath **** #define _GLIBCXX_INCLUDE_NEXT_C_HEADERS
  45:/usr/include/newlib/c++/9.2.1/cmath **** #include_next <math.h>
  46:/usr/include/newlib/c++/9.2.1/cmath **** #undef _GLIBCXX_INCLUDE_NEXT_C_HEADERS
  47:/usr/include/newlib/c++/9.2.1/cmath **** #include <bits/std_abs.h>
  48:/usr/include/newlib/c++/9.2.1/cmath **** 
ARM GAS  /tmp/cceRX0y9.s 			page 62


  49:/usr/include/newlib/c++/9.2.1/cmath **** #ifndef _GLIBCXX_CMATH
  50:/usr/include/newlib/c++/9.2.1/cmath **** #define _GLIBCXX_CMATH 1
  51:/usr/include/newlib/c++/9.2.1/cmath **** 
  52:/usr/include/newlib/c++/9.2.1/cmath **** // Get rid of those macros defined in <math.h> in lieu of real functions.
  53:/usr/include/newlib/c++/9.2.1/cmath **** #undef div
  54:/usr/include/newlib/c++/9.2.1/cmath **** #undef acos
  55:/usr/include/newlib/c++/9.2.1/cmath **** #undef asin
  56:/usr/include/newlib/c++/9.2.1/cmath **** #undef atan
  57:/usr/include/newlib/c++/9.2.1/cmath **** #undef atan2
  58:/usr/include/newlib/c++/9.2.1/cmath **** #undef ceil
  59:/usr/include/newlib/c++/9.2.1/cmath **** #undef cos
  60:/usr/include/newlib/c++/9.2.1/cmath **** #undef cosh
  61:/usr/include/newlib/c++/9.2.1/cmath **** #undef exp
  62:/usr/include/newlib/c++/9.2.1/cmath **** #undef fabs
  63:/usr/include/newlib/c++/9.2.1/cmath **** #undef floor
  64:/usr/include/newlib/c++/9.2.1/cmath **** #undef fmod
  65:/usr/include/newlib/c++/9.2.1/cmath **** #undef frexp
  66:/usr/include/newlib/c++/9.2.1/cmath **** #undef ldexp
  67:/usr/include/newlib/c++/9.2.1/cmath **** #undef log
  68:/usr/include/newlib/c++/9.2.1/cmath **** #undef log10
  69:/usr/include/newlib/c++/9.2.1/cmath **** #undef modf
  70:/usr/include/newlib/c++/9.2.1/cmath **** #undef pow
  71:/usr/include/newlib/c++/9.2.1/cmath **** #undef sin
  72:/usr/include/newlib/c++/9.2.1/cmath **** #undef sinh
  73:/usr/include/newlib/c++/9.2.1/cmath **** #undef sqrt
  74:/usr/include/newlib/c++/9.2.1/cmath **** #undef tan
  75:/usr/include/newlib/c++/9.2.1/cmath **** #undef tanh
  76:/usr/include/newlib/c++/9.2.1/cmath **** 
  77:/usr/include/newlib/c++/9.2.1/cmath **** extern "C++"
  78:/usr/include/newlib/c++/9.2.1/cmath **** {
  79:/usr/include/newlib/c++/9.2.1/cmath **** namespace std _GLIBCXX_VISIBILITY(default)
  80:/usr/include/newlib/c++/9.2.1/cmath **** {
  81:/usr/include/newlib/c++/9.2.1/cmath **** _GLIBCXX_BEGIN_NAMESPACE_VERSION
  82:/usr/include/newlib/c++/9.2.1/cmath **** 
  83:/usr/include/newlib/c++/9.2.1/cmath ****   using ::acos;
  84:/usr/include/newlib/c++/9.2.1/cmath **** 
  85:/usr/include/newlib/c++/9.2.1/cmath **** #ifndef __CORRECT_ISO_CPP_MATH_H_PROTO
  86:/usr/include/newlib/c++/9.2.1/cmath ****   inline _GLIBCXX_CONSTEXPR float
  87:/usr/include/newlib/c++/9.2.1/cmath ****   acos(float __x)
  88:/usr/include/newlib/c++/9.2.1/cmath ****   { return __builtin_acosf(__x); }
  89:/usr/include/newlib/c++/9.2.1/cmath **** 
  90:/usr/include/newlib/c++/9.2.1/cmath ****   inline _GLIBCXX_CONSTEXPR long double
  91:/usr/include/newlib/c++/9.2.1/cmath ****   acos(long double __x)
  92:/usr/include/newlib/c++/9.2.1/cmath ****   { return __builtin_acosl(__x); }
  93:/usr/include/newlib/c++/9.2.1/cmath **** #endif
  94:/usr/include/newlib/c++/9.2.1/cmath **** 
  95:/usr/include/newlib/c++/9.2.1/cmath ****   template<typename _Tp>
  96:/usr/include/newlib/c++/9.2.1/cmath ****     inline _GLIBCXX_CONSTEXPR
  97:/usr/include/newlib/c++/9.2.1/cmath ****     typename __gnu_cxx::__enable_if<__is_integer<_Tp>::__value, 
  98:/usr/include/newlib/c++/9.2.1/cmath ****                                     double>::__type
  99:/usr/include/newlib/c++/9.2.1/cmath ****     acos(_Tp __x)
 100:/usr/include/newlib/c++/9.2.1/cmath ****     { return __builtin_acos(__x); }
 101:/usr/include/newlib/c++/9.2.1/cmath **** 
 102:/usr/include/newlib/c++/9.2.1/cmath ****   using ::asin;
 103:/usr/include/newlib/c++/9.2.1/cmath **** 
 104:/usr/include/newlib/c++/9.2.1/cmath **** #ifndef __CORRECT_ISO_CPP_MATH_H_PROTO
 105:/usr/include/newlib/c++/9.2.1/cmath ****   inline _GLIBCXX_CONSTEXPR float
ARM GAS  /tmp/cceRX0y9.s 			page 63


 106:/usr/include/newlib/c++/9.2.1/cmath ****   asin(float __x)
 107:/usr/include/newlib/c++/9.2.1/cmath ****   { return __builtin_asinf(__x); }
 108:/usr/include/newlib/c++/9.2.1/cmath **** 
 109:/usr/include/newlib/c++/9.2.1/cmath ****   inline _GLIBCXX_CONSTEXPR long double
 110:/usr/include/newlib/c++/9.2.1/cmath ****   asin(long double __x)
 111:/usr/include/newlib/c++/9.2.1/cmath ****   { return __builtin_asinl(__x); }
 112:/usr/include/newlib/c++/9.2.1/cmath **** #endif
 113:/usr/include/newlib/c++/9.2.1/cmath **** 
 114:/usr/include/newlib/c++/9.2.1/cmath ****   template<typename _Tp>
 115:/usr/include/newlib/c++/9.2.1/cmath ****     inline _GLIBCXX_CONSTEXPR
 116:/usr/include/newlib/c++/9.2.1/cmath ****     typename __gnu_cxx::__enable_if<__is_integer<_Tp>::__value,
 117:/usr/include/newlib/c++/9.2.1/cmath ****                                     double>::__type
 118:/usr/include/newlib/c++/9.2.1/cmath ****     asin(_Tp __x)
 119:/usr/include/newlib/c++/9.2.1/cmath ****     { return __builtin_asin(__x); }
 120:/usr/include/newlib/c++/9.2.1/cmath **** 
 121:/usr/include/newlib/c++/9.2.1/cmath ****   using ::atan;
 122:/usr/include/newlib/c++/9.2.1/cmath **** 
 123:/usr/include/newlib/c++/9.2.1/cmath **** #ifndef __CORRECT_ISO_CPP_MATH_H_PROTO
 124:/usr/include/newlib/c++/9.2.1/cmath ****   inline _GLIBCXX_CONSTEXPR float
 125:/usr/include/newlib/c++/9.2.1/cmath ****   atan(float __x)
 126:/usr/include/newlib/c++/9.2.1/cmath ****   { return __builtin_atanf(__x); }
 127:/usr/include/newlib/c++/9.2.1/cmath **** 
 128:/usr/include/newlib/c++/9.2.1/cmath ****   inline _GLIBCXX_CONSTEXPR long double
 129:/usr/include/newlib/c++/9.2.1/cmath ****   atan(long double __x)
 130:/usr/include/newlib/c++/9.2.1/cmath ****   { return __builtin_atanl(__x); }
 131:/usr/include/newlib/c++/9.2.1/cmath **** #endif
 132:/usr/include/newlib/c++/9.2.1/cmath **** 
 133:/usr/include/newlib/c++/9.2.1/cmath ****   template<typename _Tp>
 134:/usr/include/newlib/c++/9.2.1/cmath ****     inline _GLIBCXX_CONSTEXPR
 135:/usr/include/newlib/c++/9.2.1/cmath ****     typename __gnu_cxx::__enable_if<__is_integer<_Tp>::__value,
 136:/usr/include/newlib/c++/9.2.1/cmath ****                                     double>::__type
 137:/usr/include/newlib/c++/9.2.1/cmath ****     atan(_Tp __x)
 138:/usr/include/newlib/c++/9.2.1/cmath ****     { return __builtin_atan(__x); }
 139:/usr/include/newlib/c++/9.2.1/cmath **** 
 140:/usr/include/newlib/c++/9.2.1/cmath ****   using ::atan2;
 141:/usr/include/newlib/c++/9.2.1/cmath **** 
 142:/usr/include/newlib/c++/9.2.1/cmath **** #ifndef __CORRECT_ISO_CPP_MATH_H_PROTO
 143:/usr/include/newlib/c++/9.2.1/cmath ****   inline _GLIBCXX_CONSTEXPR float
 144:/usr/include/newlib/c++/9.2.1/cmath ****   atan2(float __y, float __x)
 145:/usr/include/newlib/c++/9.2.1/cmath ****   { return __builtin_atan2f(__y, __x); }
 146:/usr/include/newlib/c++/9.2.1/cmath **** 
 147:/usr/include/newlib/c++/9.2.1/cmath ****   inline _GLIBCXX_CONSTEXPR long double
 148:/usr/include/newlib/c++/9.2.1/cmath ****   atan2(long double __y, long double __x)
 149:/usr/include/newlib/c++/9.2.1/cmath ****   { return __builtin_atan2l(__y, __x); }
 150:/usr/include/newlib/c++/9.2.1/cmath **** #endif
 151:/usr/include/newlib/c++/9.2.1/cmath **** 
 152:/usr/include/newlib/c++/9.2.1/cmath ****   template<typename _Tp, typename _Up>
 153:/usr/include/newlib/c++/9.2.1/cmath ****     inline _GLIBCXX_CONSTEXPR
 154:/usr/include/newlib/c++/9.2.1/cmath ****     typename __gnu_cxx::__promote_2<_Tp, _Up>::__type
 155:/usr/include/newlib/c++/9.2.1/cmath ****     atan2(_Tp __y, _Up __x)
 156:/usr/include/newlib/c++/9.2.1/cmath ****     {
 157:/usr/include/newlib/c++/9.2.1/cmath ****       typedef typename __gnu_cxx::__promote_2<_Tp, _Up>::__type __type;
 158:/usr/include/newlib/c++/9.2.1/cmath ****       return atan2(__type(__y), __type(__x));
 159:/usr/include/newlib/c++/9.2.1/cmath ****     }
 160:/usr/include/newlib/c++/9.2.1/cmath **** 
 161:/usr/include/newlib/c++/9.2.1/cmath ****   using ::ceil;
 162:/usr/include/newlib/c++/9.2.1/cmath **** 
ARM GAS  /tmp/cceRX0y9.s 			page 64


 163:/usr/include/newlib/c++/9.2.1/cmath **** #ifndef __CORRECT_ISO_CPP_MATH_H_PROTO
 164:/usr/include/newlib/c++/9.2.1/cmath ****   inline _GLIBCXX_CONSTEXPR float
 165:/usr/include/newlib/c++/9.2.1/cmath ****   ceil(float __x)
 166:/usr/include/newlib/c++/9.2.1/cmath ****   { return __builtin_ceilf(__x); }
 167:/usr/include/newlib/c++/9.2.1/cmath **** 
 168:/usr/include/newlib/c++/9.2.1/cmath ****   inline _GLIBCXX_CONSTEXPR long double
 169:/usr/include/newlib/c++/9.2.1/cmath ****   ceil(long double __x)
 170:/usr/include/newlib/c++/9.2.1/cmath ****   { return __builtin_ceill(__x); }
 171:/usr/include/newlib/c++/9.2.1/cmath **** #endif
 172:/usr/include/newlib/c++/9.2.1/cmath **** 
 173:/usr/include/newlib/c++/9.2.1/cmath ****   template<typename _Tp>
 174:/usr/include/newlib/c++/9.2.1/cmath ****     inline _GLIBCXX_CONSTEXPR
 175:/usr/include/newlib/c++/9.2.1/cmath ****     typename __gnu_cxx::__enable_if<__is_integer<_Tp>::__value, 
 176:/usr/include/newlib/c++/9.2.1/cmath ****                                     double>::__type
 177:/usr/include/newlib/c++/9.2.1/cmath ****     ceil(_Tp __x)
 178:/usr/include/newlib/c++/9.2.1/cmath ****     { return __builtin_ceil(__x); }
 179:/usr/include/newlib/c++/9.2.1/cmath **** 
 180:/usr/include/newlib/c++/9.2.1/cmath ****   using ::cos;
 181:/usr/include/newlib/c++/9.2.1/cmath **** 
 182:/usr/include/newlib/c++/9.2.1/cmath **** #ifndef __CORRECT_ISO_CPP_MATH_H_PROTO
 183:/usr/include/newlib/c++/9.2.1/cmath ****   inline _GLIBCXX_CONSTEXPR float
 184:/usr/include/newlib/c++/9.2.1/cmath ****   cos(float __x)
 185:/usr/include/newlib/c++/9.2.1/cmath ****   { return __builtin_cosf(__x); }
 1880              		.loc 14 185 26 view .LVU392
 1881 0050 B0EE680A 		vmov.f32	s0, s17
 1882 0054 FFF7FEFF 		bl	cosf
 1883              	.LVL138:
 1884              		.loc 14 185 26 view .LVU393
 1885              	.LBE1050:
 1886              	.LBE1049:
 313:../../libdaisy/src/hid/disp/display.h **** 
 1887              		.loc 3 313 9 view .LVU394
 1888 0058 B7EECAAB 		vcvt.f32.f64	s20, d10
 1889              	.LVL139:
 1890              	.LBB1053:
 1891              	.LBI1049:
 184:/usr/include/newlib/c++/9.2.1/cmath ****   { return __builtin_cosf(__x); }
 1892              		.loc 14 184 3 is_stmt 1 view .LVU395
 1893              	.LBB1051:
 1894              		.loc 14 185 5 view .LVU396
 1895              		.loc 14 185 5 is_stmt 0 view .LVU397
 1896              	.LBE1051:
 1897              	.LBE1053:
 315:../../libdaisy/src/hid/disp/display.h ****         start_y = -sin(start_angle_rad) * radius;
 1898              		.loc 3 315 9 view .LVU398
 1899 005c 07EE904A 		vmov	s15, r4	@ int
 1900              	.LBB1054:
 1901              	.LBB1052:
 1902              		.loc 14 185 26 view .LVU399
 1903 0060 B0EE408A 		vmov.f32	s16, s0
 1904              	.LBE1052:
 1905              	.LBE1054:
 1906              	.LBB1055:
 1907              	.LBB1056:
 186:/usr/include/newlib/c++/9.2.1/cmath **** 
 187:/usr/include/newlib/c++/9.2.1/cmath ****   inline _GLIBCXX_CONSTEXPR long double
 188:/usr/include/newlib/c++/9.2.1/cmath ****   cos(long double __x)
ARM GAS  /tmp/cceRX0y9.s 			page 65


 189:/usr/include/newlib/c++/9.2.1/cmath ****   { return __builtin_cosl(__x); }
 190:/usr/include/newlib/c++/9.2.1/cmath **** #endif
 191:/usr/include/newlib/c++/9.2.1/cmath **** 
 192:/usr/include/newlib/c++/9.2.1/cmath ****   template<typename _Tp>
 193:/usr/include/newlib/c++/9.2.1/cmath ****     inline _GLIBCXX_CONSTEXPR
 194:/usr/include/newlib/c++/9.2.1/cmath ****     typename __gnu_cxx::__enable_if<__is_integer<_Tp>::__value,
 195:/usr/include/newlib/c++/9.2.1/cmath ****                                     double>::__type
 196:/usr/include/newlib/c++/9.2.1/cmath ****     cos(_Tp __x)
 197:/usr/include/newlib/c++/9.2.1/cmath ****     { return __builtin_cos(__x); }
 198:/usr/include/newlib/c++/9.2.1/cmath **** 
 199:/usr/include/newlib/c++/9.2.1/cmath ****   using ::cosh;
 200:/usr/include/newlib/c++/9.2.1/cmath **** 
 201:/usr/include/newlib/c++/9.2.1/cmath **** #ifndef __CORRECT_ISO_CPP_MATH_H_PROTO
 202:/usr/include/newlib/c++/9.2.1/cmath ****   inline _GLIBCXX_CONSTEXPR float
 203:/usr/include/newlib/c++/9.2.1/cmath ****   cosh(float __x)
 204:/usr/include/newlib/c++/9.2.1/cmath ****   { return __builtin_coshf(__x); }
 205:/usr/include/newlib/c++/9.2.1/cmath **** 
 206:/usr/include/newlib/c++/9.2.1/cmath ****   inline _GLIBCXX_CONSTEXPR long double
 207:/usr/include/newlib/c++/9.2.1/cmath ****   cosh(long double __x)
 208:/usr/include/newlib/c++/9.2.1/cmath ****   { return __builtin_coshl(__x); }
 209:/usr/include/newlib/c++/9.2.1/cmath **** #endif
 210:/usr/include/newlib/c++/9.2.1/cmath **** 
 211:/usr/include/newlib/c++/9.2.1/cmath ****   template<typename _Tp>
 212:/usr/include/newlib/c++/9.2.1/cmath ****     inline _GLIBCXX_CONSTEXPR
 213:/usr/include/newlib/c++/9.2.1/cmath ****     typename __gnu_cxx::__enable_if<__is_integer<_Tp>::__value,
 214:/usr/include/newlib/c++/9.2.1/cmath ****                                     double>::__type
 215:/usr/include/newlib/c++/9.2.1/cmath ****     cosh(_Tp __x)
 216:/usr/include/newlib/c++/9.2.1/cmath ****     { return __builtin_cosh(__x); }
 217:/usr/include/newlib/c++/9.2.1/cmath **** 
 218:/usr/include/newlib/c++/9.2.1/cmath ****   using ::exp;
 219:/usr/include/newlib/c++/9.2.1/cmath **** 
 220:/usr/include/newlib/c++/9.2.1/cmath **** #ifndef __CORRECT_ISO_CPP_MATH_H_PROTO
 221:/usr/include/newlib/c++/9.2.1/cmath ****   inline _GLIBCXX_CONSTEXPR float
 222:/usr/include/newlib/c++/9.2.1/cmath ****   exp(float __x)
 223:/usr/include/newlib/c++/9.2.1/cmath ****   { return __builtin_expf(__x); }
 224:/usr/include/newlib/c++/9.2.1/cmath **** 
 225:/usr/include/newlib/c++/9.2.1/cmath ****   inline _GLIBCXX_CONSTEXPR long double
 226:/usr/include/newlib/c++/9.2.1/cmath ****   exp(long double __x)
 227:/usr/include/newlib/c++/9.2.1/cmath ****   { return __builtin_expl(__x); }
 228:/usr/include/newlib/c++/9.2.1/cmath **** #endif
 229:/usr/include/newlib/c++/9.2.1/cmath **** 
 230:/usr/include/newlib/c++/9.2.1/cmath ****   template<typename _Tp>
 231:/usr/include/newlib/c++/9.2.1/cmath ****     inline _GLIBCXX_CONSTEXPR
 232:/usr/include/newlib/c++/9.2.1/cmath ****     typename __gnu_cxx::__enable_if<__is_integer<_Tp>::__value,
 233:/usr/include/newlib/c++/9.2.1/cmath ****                                     double>::__type
 234:/usr/include/newlib/c++/9.2.1/cmath ****     exp(_Tp __x)
 235:/usr/include/newlib/c++/9.2.1/cmath ****     { return __builtin_exp(__x); }
 236:/usr/include/newlib/c++/9.2.1/cmath **** 
 237:/usr/include/newlib/c++/9.2.1/cmath ****   using ::fabs;
 238:/usr/include/newlib/c++/9.2.1/cmath **** 
 239:/usr/include/newlib/c++/9.2.1/cmath **** #ifndef __CORRECT_ISO_CPP_MATH_H_PROTO
 240:/usr/include/newlib/c++/9.2.1/cmath ****   inline _GLIBCXX_CONSTEXPR float
 241:/usr/include/newlib/c++/9.2.1/cmath ****   fabs(float __x)
 242:/usr/include/newlib/c++/9.2.1/cmath ****   { return __builtin_fabsf(__x); }
 243:/usr/include/newlib/c++/9.2.1/cmath **** 
 244:/usr/include/newlib/c++/9.2.1/cmath ****   inline _GLIBCXX_CONSTEXPR long double
 245:/usr/include/newlib/c++/9.2.1/cmath ****   fabs(long double __x)
ARM GAS  /tmp/cceRX0y9.s 			page 66


 246:/usr/include/newlib/c++/9.2.1/cmath ****   { return __builtin_fabsl(__x); }
 247:/usr/include/newlib/c++/9.2.1/cmath **** #endif
 248:/usr/include/newlib/c++/9.2.1/cmath **** 
 249:/usr/include/newlib/c++/9.2.1/cmath ****   template<typename _Tp>
 250:/usr/include/newlib/c++/9.2.1/cmath ****     inline _GLIBCXX_CONSTEXPR
 251:/usr/include/newlib/c++/9.2.1/cmath ****     typename __gnu_cxx::__enable_if<__is_integer<_Tp>::__value,
 252:/usr/include/newlib/c++/9.2.1/cmath ****                                     double>::__type
 253:/usr/include/newlib/c++/9.2.1/cmath ****     fabs(_Tp __x)
 254:/usr/include/newlib/c++/9.2.1/cmath ****     { return __builtin_fabs(__x); }
 255:/usr/include/newlib/c++/9.2.1/cmath **** 
 256:/usr/include/newlib/c++/9.2.1/cmath ****   using ::floor;
 257:/usr/include/newlib/c++/9.2.1/cmath **** 
 258:/usr/include/newlib/c++/9.2.1/cmath **** #ifndef __CORRECT_ISO_CPP_MATH_H_PROTO
 259:/usr/include/newlib/c++/9.2.1/cmath ****   inline _GLIBCXX_CONSTEXPR float
 260:/usr/include/newlib/c++/9.2.1/cmath ****   floor(float __x)
 261:/usr/include/newlib/c++/9.2.1/cmath ****   { return __builtin_floorf(__x); }
 262:/usr/include/newlib/c++/9.2.1/cmath **** 
 263:/usr/include/newlib/c++/9.2.1/cmath ****   inline _GLIBCXX_CONSTEXPR long double
 264:/usr/include/newlib/c++/9.2.1/cmath ****   floor(long double __x)
 265:/usr/include/newlib/c++/9.2.1/cmath ****   { return __builtin_floorl(__x); }
 266:/usr/include/newlib/c++/9.2.1/cmath **** #endif
 267:/usr/include/newlib/c++/9.2.1/cmath **** 
 268:/usr/include/newlib/c++/9.2.1/cmath ****   template<typename _Tp>
 269:/usr/include/newlib/c++/9.2.1/cmath ****     inline _GLIBCXX_CONSTEXPR
 270:/usr/include/newlib/c++/9.2.1/cmath ****     typename __gnu_cxx::__enable_if<__is_integer<_Tp>::__value,
 271:/usr/include/newlib/c++/9.2.1/cmath ****                                     double>::__type
 272:/usr/include/newlib/c++/9.2.1/cmath ****     floor(_Tp __x)
 273:/usr/include/newlib/c++/9.2.1/cmath ****     { return __builtin_floor(__x); }
 274:/usr/include/newlib/c++/9.2.1/cmath **** 
 275:/usr/include/newlib/c++/9.2.1/cmath ****   using ::fmod;
 276:/usr/include/newlib/c++/9.2.1/cmath **** 
 277:/usr/include/newlib/c++/9.2.1/cmath **** #ifndef __CORRECT_ISO_CPP_MATH_H_PROTO
 278:/usr/include/newlib/c++/9.2.1/cmath ****   inline _GLIBCXX_CONSTEXPR float
 279:/usr/include/newlib/c++/9.2.1/cmath ****   fmod(float __x, float __y)
 280:/usr/include/newlib/c++/9.2.1/cmath ****   { return __builtin_fmodf(__x, __y); }
 281:/usr/include/newlib/c++/9.2.1/cmath **** 
 282:/usr/include/newlib/c++/9.2.1/cmath ****   inline _GLIBCXX_CONSTEXPR long double
 283:/usr/include/newlib/c++/9.2.1/cmath ****   fmod(long double __x, long double __y)
 284:/usr/include/newlib/c++/9.2.1/cmath ****   { return __builtin_fmodl(__x, __y); }
 285:/usr/include/newlib/c++/9.2.1/cmath **** #endif
 286:/usr/include/newlib/c++/9.2.1/cmath **** 
 287:/usr/include/newlib/c++/9.2.1/cmath ****   template<typename _Tp, typename _Up>
 288:/usr/include/newlib/c++/9.2.1/cmath ****     inline _GLIBCXX_CONSTEXPR
 289:/usr/include/newlib/c++/9.2.1/cmath ****     typename __gnu_cxx::__promote_2<_Tp, _Up>::__type
 290:/usr/include/newlib/c++/9.2.1/cmath ****     fmod(_Tp __x, _Up __y)
 291:/usr/include/newlib/c++/9.2.1/cmath ****     {
 292:/usr/include/newlib/c++/9.2.1/cmath ****       typedef typename __gnu_cxx::__promote_2<_Tp, _Up>::__type __type;
 293:/usr/include/newlib/c++/9.2.1/cmath ****       return fmod(__type(__x), __type(__y));
 294:/usr/include/newlib/c++/9.2.1/cmath ****     }
 295:/usr/include/newlib/c++/9.2.1/cmath **** 
 296:/usr/include/newlib/c++/9.2.1/cmath ****   using ::frexp;
 297:/usr/include/newlib/c++/9.2.1/cmath **** 
 298:/usr/include/newlib/c++/9.2.1/cmath **** #ifndef __CORRECT_ISO_CPP_MATH_H_PROTO
 299:/usr/include/newlib/c++/9.2.1/cmath ****   inline float
 300:/usr/include/newlib/c++/9.2.1/cmath ****   frexp(float __x, int* __exp)
 301:/usr/include/newlib/c++/9.2.1/cmath ****   { return __builtin_frexpf(__x, __exp); }
 302:/usr/include/newlib/c++/9.2.1/cmath **** 
ARM GAS  /tmp/cceRX0y9.s 			page 67


 303:/usr/include/newlib/c++/9.2.1/cmath ****   inline long double
 304:/usr/include/newlib/c++/9.2.1/cmath ****   frexp(long double __x, int* __exp)
 305:/usr/include/newlib/c++/9.2.1/cmath ****   { return __builtin_frexpl(__x, __exp); }
 306:/usr/include/newlib/c++/9.2.1/cmath **** #endif
 307:/usr/include/newlib/c++/9.2.1/cmath **** 
 308:/usr/include/newlib/c++/9.2.1/cmath ****   template<typename _Tp>
 309:/usr/include/newlib/c++/9.2.1/cmath ****     inline _GLIBCXX_CONSTEXPR
 310:/usr/include/newlib/c++/9.2.1/cmath ****     typename __gnu_cxx::__enable_if<__is_integer<_Tp>::__value, 
 311:/usr/include/newlib/c++/9.2.1/cmath ****                                     double>::__type
 312:/usr/include/newlib/c++/9.2.1/cmath ****     frexp(_Tp __x, int* __exp)
 313:/usr/include/newlib/c++/9.2.1/cmath ****     { return __builtin_frexp(__x, __exp); }
 314:/usr/include/newlib/c++/9.2.1/cmath **** 
 315:/usr/include/newlib/c++/9.2.1/cmath ****   using ::ldexp;
 316:/usr/include/newlib/c++/9.2.1/cmath **** 
 317:/usr/include/newlib/c++/9.2.1/cmath **** #ifndef __CORRECT_ISO_CPP_MATH_H_PROTO
 318:/usr/include/newlib/c++/9.2.1/cmath ****   inline _GLIBCXX_CONSTEXPR float
 319:/usr/include/newlib/c++/9.2.1/cmath ****   ldexp(float __x, int __exp)
 320:/usr/include/newlib/c++/9.2.1/cmath ****   { return __builtin_ldexpf(__x, __exp); }
 321:/usr/include/newlib/c++/9.2.1/cmath **** 
 322:/usr/include/newlib/c++/9.2.1/cmath ****   inline _GLIBCXX_CONSTEXPR long double
 323:/usr/include/newlib/c++/9.2.1/cmath ****   ldexp(long double __x, int __exp)
 324:/usr/include/newlib/c++/9.2.1/cmath ****   { return __builtin_ldexpl(__x, __exp); }
 325:/usr/include/newlib/c++/9.2.1/cmath **** #endif
 326:/usr/include/newlib/c++/9.2.1/cmath **** 
 327:/usr/include/newlib/c++/9.2.1/cmath ****   template<typename _Tp>
 328:/usr/include/newlib/c++/9.2.1/cmath ****     inline _GLIBCXX_CONSTEXPR
 329:/usr/include/newlib/c++/9.2.1/cmath ****     typename __gnu_cxx::__enable_if<__is_integer<_Tp>::__value, 
 330:/usr/include/newlib/c++/9.2.1/cmath ****                                     double>::__type
 331:/usr/include/newlib/c++/9.2.1/cmath ****     ldexp(_Tp __x, int __exp)
 332:/usr/include/newlib/c++/9.2.1/cmath ****     { return __builtin_ldexp(__x, __exp); }
 333:/usr/include/newlib/c++/9.2.1/cmath **** 
 334:/usr/include/newlib/c++/9.2.1/cmath ****   using ::log;
 335:/usr/include/newlib/c++/9.2.1/cmath **** 
 336:/usr/include/newlib/c++/9.2.1/cmath **** #ifndef __CORRECT_ISO_CPP_MATH_H_PROTO
 337:/usr/include/newlib/c++/9.2.1/cmath ****   inline _GLIBCXX_CONSTEXPR float
 338:/usr/include/newlib/c++/9.2.1/cmath ****   log(float __x)
 339:/usr/include/newlib/c++/9.2.1/cmath ****   { return __builtin_logf(__x); }
 340:/usr/include/newlib/c++/9.2.1/cmath **** 
 341:/usr/include/newlib/c++/9.2.1/cmath ****   inline _GLIBCXX_CONSTEXPR long double
 342:/usr/include/newlib/c++/9.2.1/cmath ****   log(long double __x)
 343:/usr/include/newlib/c++/9.2.1/cmath ****   { return __builtin_logl(__x); }
 344:/usr/include/newlib/c++/9.2.1/cmath **** #endif
 345:/usr/include/newlib/c++/9.2.1/cmath **** 
 346:/usr/include/newlib/c++/9.2.1/cmath ****   template<typename _Tp>
 347:/usr/include/newlib/c++/9.2.1/cmath ****     inline _GLIBCXX_CONSTEXPR
 348:/usr/include/newlib/c++/9.2.1/cmath ****     typename __gnu_cxx::__enable_if<__is_integer<_Tp>::__value, 
 349:/usr/include/newlib/c++/9.2.1/cmath ****                                     double>::__type
 350:/usr/include/newlib/c++/9.2.1/cmath ****     log(_Tp __x)
 351:/usr/include/newlib/c++/9.2.1/cmath ****     { return __builtin_log(__x); }
 352:/usr/include/newlib/c++/9.2.1/cmath **** 
 353:/usr/include/newlib/c++/9.2.1/cmath ****   using ::log10;
 354:/usr/include/newlib/c++/9.2.1/cmath **** 
 355:/usr/include/newlib/c++/9.2.1/cmath **** #ifndef __CORRECT_ISO_CPP_MATH_H_PROTO
 356:/usr/include/newlib/c++/9.2.1/cmath ****   inline _GLIBCXX_CONSTEXPR float
 357:/usr/include/newlib/c++/9.2.1/cmath ****   log10(float __x)
 358:/usr/include/newlib/c++/9.2.1/cmath ****   { return __builtin_log10f(__x); }
 359:/usr/include/newlib/c++/9.2.1/cmath **** 
ARM GAS  /tmp/cceRX0y9.s 			page 68


 360:/usr/include/newlib/c++/9.2.1/cmath ****   inline _GLIBCXX_CONSTEXPR long double
 361:/usr/include/newlib/c++/9.2.1/cmath ****   log10(long double __x)
 362:/usr/include/newlib/c++/9.2.1/cmath ****   { return __builtin_log10l(__x); }
 363:/usr/include/newlib/c++/9.2.1/cmath **** #endif
 364:/usr/include/newlib/c++/9.2.1/cmath **** 
 365:/usr/include/newlib/c++/9.2.1/cmath ****   template<typename _Tp>
 366:/usr/include/newlib/c++/9.2.1/cmath ****     inline _GLIBCXX_CONSTEXPR
 367:/usr/include/newlib/c++/9.2.1/cmath ****     typename __gnu_cxx::__enable_if<__is_integer<_Tp>::__value,
 368:/usr/include/newlib/c++/9.2.1/cmath ****                                     double>::__type
 369:/usr/include/newlib/c++/9.2.1/cmath ****     log10(_Tp __x)
 370:/usr/include/newlib/c++/9.2.1/cmath ****     { return __builtin_log10(__x); }
 371:/usr/include/newlib/c++/9.2.1/cmath **** 
 372:/usr/include/newlib/c++/9.2.1/cmath ****   using ::modf;
 373:/usr/include/newlib/c++/9.2.1/cmath **** 
 374:/usr/include/newlib/c++/9.2.1/cmath **** #ifndef __CORRECT_ISO_CPP_MATH_H_PROTO
 375:/usr/include/newlib/c++/9.2.1/cmath ****   inline float
 376:/usr/include/newlib/c++/9.2.1/cmath ****   modf(float __x, float* __iptr)
 377:/usr/include/newlib/c++/9.2.1/cmath ****   { return __builtin_modff(__x, __iptr); }
 378:/usr/include/newlib/c++/9.2.1/cmath **** 
 379:/usr/include/newlib/c++/9.2.1/cmath ****   inline long double
 380:/usr/include/newlib/c++/9.2.1/cmath ****   modf(long double __x, long double* __iptr)
 381:/usr/include/newlib/c++/9.2.1/cmath ****   { return __builtin_modfl(__x, __iptr); }
 382:/usr/include/newlib/c++/9.2.1/cmath **** #endif
 383:/usr/include/newlib/c++/9.2.1/cmath **** 
 384:/usr/include/newlib/c++/9.2.1/cmath ****   using ::pow;
 385:/usr/include/newlib/c++/9.2.1/cmath **** 
 386:/usr/include/newlib/c++/9.2.1/cmath **** #ifndef __CORRECT_ISO_CPP_MATH_H_PROTO
 387:/usr/include/newlib/c++/9.2.1/cmath ****   inline _GLIBCXX_CONSTEXPR float
 388:/usr/include/newlib/c++/9.2.1/cmath ****   pow(float __x, float __y)
 389:/usr/include/newlib/c++/9.2.1/cmath ****   { return __builtin_powf(__x, __y); }
 390:/usr/include/newlib/c++/9.2.1/cmath **** 
 391:/usr/include/newlib/c++/9.2.1/cmath ****   inline _GLIBCXX_CONSTEXPR long double
 392:/usr/include/newlib/c++/9.2.1/cmath ****   pow(long double __x, long double __y)
 393:/usr/include/newlib/c++/9.2.1/cmath ****   { return __builtin_powl(__x, __y); }
 394:/usr/include/newlib/c++/9.2.1/cmath **** 
 395:/usr/include/newlib/c++/9.2.1/cmath **** #if __cplusplus < 201103L
 396:/usr/include/newlib/c++/9.2.1/cmath ****   // _GLIBCXX_RESOLVE_LIB_DEFECTS
 397:/usr/include/newlib/c++/9.2.1/cmath ****   // DR 550. What should the return type of pow(float,int) be?
 398:/usr/include/newlib/c++/9.2.1/cmath ****   inline double
 399:/usr/include/newlib/c++/9.2.1/cmath ****   pow(double __x, int __i)
 400:/usr/include/newlib/c++/9.2.1/cmath ****   { return __builtin_powi(__x, __i); }
 401:/usr/include/newlib/c++/9.2.1/cmath **** 
 402:/usr/include/newlib/c++/9.2.1/cmath ****   inline float
 403:/usr/include/newlib/c++/9.2.1/cmath ****   pow(float __x, int __n)
 404:/usr/include/newlib/c++/9.2.1/cmath ****   { return __builtin_powif(__x, __n); }
 405:/usr/include/newlib/c++/9.2.1/cmath **** 
 406:/usr/include/newlib/c++/9.2.1/cmath ****   inline long double
 407:/usr/include/newlib/c++/9.2.1/cmath ****   pow(long double __x, int __n)
 408:/usr/include/newlib/c++/9.2.1/cmath ****   { return __builtin_powil(__x, __n); }
 409:/usr/include/newlib/c++/9.2.1/cmath **** #endif
 410:/usr/include/newlib/c++/9.2.1/cmath **** #endif
 411:/usr/include/newlib/c++/9.2.1/cmath **** 
 412:/usr/include/newlib/c++/9.2.1/cmath ****   template<typename _Tp, typename _Up>
 413:/usr/include/newlib/c++/9.2.1/cmath ****     inline _GLIBCXX_CONSTEXPR
 414:/usr/include/newlib/c++/9.2.1/cmath ****     typename __gnu_cxx::__promote_2<_Tp, _Up>::__type
 415:/usr/include/newlib/c++/9.2.1/cmath ****     pow(_Tp __x, _Up __y)
 416:/usr/include/newlib/c++/9.2.1/cmath ****     {
ARM GAS  /tmp/cceRX0y9.s 			page 69


 417:/usr/include/newlib/c++/9.2.1/cmath ****       typedef typename __gnu_cxx::__promote_2<_Tp, _Up>::__type __type;
 418:/usr/include/newlib/c++/9.2.1/cmath ****       return pow(__type(__x), __type(__y));
 419:/usr/include/newlib/c++/9.2.1/cmath ****     }
 420:/usr/include/newlib/c++/9.2.1/cmath **** 
 421:/usr/include/newlib/c++/9.2.1/cmath ****   using ::sin;
 422:/usr/include/newlib/c++/9.2.1/cmath **** 
 423:/usr/include/newlib/c++/9.2.1/cmath **** #ifndef __CORRECT_ISO_CPP_MATH_H_PROTO
 424:/usr/include/newlib/c++/9.2.1/cmath ****   inline _GLIBCXX_CONSTEXPR float
 425:/usr/include/newlib/c++/9.2.1/cmath ****   sin(float __x)
 426:/usr/include/newlib/c++/9.2.1/cmath ****   { return __builtin_sinf(__x); }
 1908              		.loc 14 426 26 view .LVU400
 1909 0064 B0EE680A 		vmov.f32	s0, s17
 1910              	.LBE1056:
 1911              	.LBE1055:
 315:../../libdaisy/src/hid/disp/display.h ****         start_y = -sin(start_angle_rad) * radius;
 1912              		.loc 3 315 9 view .LVU401
 1913 0068 F8EE679A 		vcvt.f32.u32	s19, s15
 1914              	.LBB1059:
 1915              	.LBB1057:
 1916              		.loc 14 426 26 view .LVU402
 1917 006c FFF7FEFF 		bl	sinf
 1918              	.LVL140:
 1919 0070 F0EE408A 		vmov.f32	s17, s0
 1920              	.LVL141:
 1921              		.loc 14 426 26 view .LVU403
 1922              	.LBE1057:
 1923              	.LBE1059:
 1924              	.LBB1060:
 1925              	.LBB1061:
 185:/usr/include/newlib/c++/9.2.1/cmath **** 
 1926              		.loc 14 185 26 view .LVU404
 1927 0074 B0EE4A0A 		vmov.f32	s0, s20
 1928 0078 FFF7FEFF 		bl	cosf
 1929              	.LVL142:
 1930 007c B0EE409A 		vmov.f32	s18, s0
 1931              	.LBE1061:
 1932              	.LBE1060:
 1933              	.LBB1063:
 1934              	.LBB1064:
 1935              		.loc 14 426 26 view .LVU405
 1936 0080 B0EE4A0A 		vmov.f32	s0, s20
 1937 0084 FFF7FEFF 		bl	sinf
 1938              	.LVL143:
 1939              	.LBE1064:
 1940              	.LBE1063:
 316:../../libdaisy/src/hid/disp/display.h ****         end_x   = cos(end_angle_rad) * radius;
 1941              		.loc 3 316 9 view .LVU406
 1942 0088 68EEE98A 		vnmul.f32	s17, s17, s19
 318:../../libdaisy/src/hid/disp/display.h **** 
 1943              		.loc 3 318 9 view .LVU407
 1944 008c 20EE690A 		vnmul.f32	s0, s0, s19
 315:../../libdaisy/src/hid/disp/display.h ****         start_y = -sin(start_angle_rad) * radius;
 1945              		.loc 3 315 9 view .LVU408
 1946 0090 29EE888A 		vmul.f32	s16, s19, s16
 1947              	.LVL144:
 1948              	.LBB1066:
 1949              	.LBI1055:
ARM GAS  /tmp/cceRX0y9.s 			page 70


 425:/usr/include/newlib/c++/9.2.1/cmath ****   { return __builtin_sinf(__x); }
 1950              		.loc 14 425 3 is_stmt 1 view .LVU409
 1951              	.LBB1058:
 1952              		.loc 14 426 5 view .LVU410
 1953              		.loc 14 426 5 is_stmt 0 view .LVU411
 1954              	.LBE1058:
 1955              	.LBE1066:
 1956              	.LBB1067:
 1957              	.LBI1060:
 184:/usr/include/newlib/c++/9.2.1/cmath ****   { return __builtin_cosf(__x); }
 1958              		.loc 14 184 3 is_stmt 1 view .LVU412
 1959              	.LBB1062:
 185:/usr/include/newlib/c++/9.2.1/cmath **** 
 1960              		.loc 14 185 5 view .LVU413
 185:/usr/include/newlib/c++/9.2.1/cmath **** 
 1961              		.loc 14 185 5 is_stmt 0 view .LVU414
 1962              	.LBE1062:
 1963              	.LBE1067:
 317:../../libdaisy/src/hid/disp/display.h ****         end_y   = -sin(end_angle_rad) * radius;
 1964              		.loc 3 317 9 view .LVU415
 1965 0094 29EE899A 		vmul.f32	s18, s19, s18
 1966              	.LVL145:
 1967              	.LBB1068:
 1968              	.LBI1063:
 425:/usr/include/newlib/c++/9.2.1/cmath ****   { return __builtin_sinf(__x); }
 1969              		.loc 14 425 3 is_stmt 1 view .LVU416
 1970              	.LBB1065:
 1971              		.loc 14 426 5 view .LVU417
 1972              		.loc 14 426 5 is_stmt 0 view .LVU418
 1973              	.LBE1065:
 1974              	.LBE1068:
 322:../../libdaisy/src/hid/disp/display.h ****            < 2.0f)
 1975              		.loc 3 322 25 view .LVU419
 1976 0098 70EE687A 		vsub.f32	s15, s0, s17
 321:../../libdaisy/src/hid/disp/display.h ****                + (end_y - start_y) * (end_y - start_y)
 1977              		.loc 3 321 9 view .LVU420
 1978 009c F0EE006A 		vmov.f32	s13, #2.0e+0
 321:../../libdaisy/src/hid/disp/display.h ****                + (end_y - start_y) * (end_y - start_y)
 1979              		.loc 3 321 19 view .LVU421
 1980 00a0 39EE487A 		vsub.f32	s14, s18, s16
 322:../../libdaisy/src/hid/disp/display.h ****            < 2.0f)
 1981              		.loc 3 322 36 view .LVU422
 1982 00a4 67EEA77A 		vmul.f32	s15, s15, s15
 322:../../libdaisy/src/hid/disp/display.h ****            < 2.0f)
 1983              		.loc 3 322 16 view .LVU423
 1984 00a8 E7EE077A 		vfma.f32	s15, s14, s14
 321:../../libdaisy/src/hid/disp/display.h ****                + (end_y - start_y) * (end_y - start_y)
 1985              		.loc 3 321 9 view .LVU424
 1986 00ac F4EEE67A 		vcmpe.f32	s15, s13
 1987 00b0 F1EE10FA 		vmrs	APSR_nzcv, FPSCR
 1988 00b4 06D5     		bpl	.L200
 325:../../libdaisy/src/hid/disp/display.h ****                 circle = true;
 1989              		.loc 3 325 13 view .LVU425
 1990 00b6 159B     		ldr	r3, [sp, #84]
 1991 00b8 B42B     		cmp	r3, #180
 1992 00ba 40F3EE80 		ble	.L141
 326:../../libdaisy/src/hid/disp/display.h ****             else
ARM GAS  /tmp/cceRX0y9.s 			page 71


 1993              		.loc 3 326 17 view .LVU426
 1994 00be 4FF0010E 		mov	lr, #1
 1995 00c2 01E0     		b	.L144
 1996              	.L200:
 304:../../libdaisy/src/hid/disp/display.h **** 
 1997              		.loc 3 304 14 view .LVU427
 1998 00c4 4FF0000E 		mov	lr, #0
 1999              	.L144:
 2000              	.LVL146:
 302:../../libdaisy/src/hid/disp/display.h **** 
 2001              		.loc 3 302 9 view .LVU428
 2002 00c8 0126     		movs	r6, #1
 334:../../libdaisy/src/hid/disp/display.h **** 
 2003              		.loc 3 334 17 view .LVU429
 2004 00ca C4F10103 		rsb	r3, r4, #1
 302:../../libdaisy/src/hid/disp/display.h **** 
 2005              		.loc 3 302 9 view .LVU430
 2006 00ce 3A46     		mov	r2, r7
 332:../../libdaisy/src/hid/disp/display.h ****         t_y = 0;
 2007              		.loc 3 332 9 view .LVU431
 2008 00d0 6042     		rsbs	r0, r4, #0
 2009              	.LVL147:
 334:../../libdaisy/src/hid/disp/display.h **** 
 2010              		.loc 3 334 17 view .LVU432
 2011 00d2 B340     		lsls	r3, r3, r6
 2012              	.LVL148:
 333:../../libdaisy/src/hid/disp/display.h ****         err = 2 - 2 * radius;
 2013              		.loc 3 333 9 view .LVU433
 2014 00d4 0024     		movs	r4, #0
 2015              	.LVL149:
 302:../../libdaisy/src/hid/disp/display.h **** 
 2016              		.loc 3 302 9 view .LVU434
 2017 00d6 3146     		mov	r1, r6
 2018 00d8 3746     		mov	r7, r6
 2019              	.LVL150:
 302:../../libdaisy/src/hid/disp/display.h **** 
 2020              		.loc 3 302 9 view .LVU435
 2021 00da 9446     		mov	ip, r2
 2022 00dc 0196     		str	r6, [sp, #4]
 2023              	.LVL151:
 2024              	.L170:
 338:../../libdaisy/src/hid/disp/display.h ****             {
 2025              		.loc 3 338 13 view .LVU436
 2026 00de BEF1000F 		cmp	lr, #0
 2027 00e2 6AD1     		bne	.L146
 343:../../libdaisy/src/hid/disp/display.h ****                 t_exy  = end_x * t_y;
 2028              		.loc 3 343 34 view .LVU437
 2029 00e4 4242     		rsbs	r2, r0, #0
 340:../../libdaisy/src/hid/disp/display.h ****                 t_syx  = start_y * t_x;
 2030              		.loc 3 340 17 view .LVU438
 2031 00e6 06EE904A 		vmov	s13, r4	@ int
 342:../../libdaisy/src/hid/disp/display.h ****                 t_synx = start_y * -t_x;
 2032              		.loc 3 342 34 view .LVU439
 2033 00ea 6142     		rsbs	r1, r4, #0
 2034              	.LVL152:
 343:../../libdaisy/src/hid/disp/display.h ****                 t_exy  = end_x * t_y;
 2035              		.loc 3 343 34 view .LVU440
ARM GAS  /tmp/cceRX0y9.s 			page 72


 2036 00ec 07EE102A 		vmov	s14, r2	@ int
 340:../../libdaisy/src/hid/disp/display.h ****                 t_syx  = start_y * t_x;
 2037              		.loc 3 340 17 view .LVU441
 2038 00f0 F8EEE66A 		vcvt.f32.s32	s13, s13
 342:../../libdaisy/src/hid/disp/display.h ****                 t_synx = start_y * -t_x;
 2039              		.loc 3 342 34 view .LVU442
 2040 00f4 07EE901A 		vmov	s15, r1	@ int
 349:../../libdaisy/src/hid/disp/display.h ****                 {
 2041              		.loc 3 349 17 view .LVU443
 2042 00f8 159A     		ldr	r2, [sp, #84]
 343:../../libdaisy/src/hid/disp/display.h ****                 t_exy  = end_x * t_y;
 2043              		.loc 3 343 34 view .LVU444
 2044 00fa B8EEC77A 		vcvt.f32.s32	s14, s14
 340:../../libdaisy/src/hid/disp/display.h ****                 t_syx  = start_y * t_x;
 2045              		.loc 3 340 17 view .LVU445
 2046 00fe 66EE884A 		vmul.f32	s9, s13, s16
 2047              	.LVL153:
 349:../../libdaisy/src/hid/disp/display.h ****                 {
 2048              		.loc 3 349 17 view .LVU446
 2049 0102 B42A     		cmp	r2, #180
 344:../../libdaisy/src/hid/disp/display.h ****                 t_eyx  = end_y * t_x;
 2050              		.loc 3 344 17 view .LVU447
 2051 0104 26EE896A 		vmul.f32	s12, s13, s18
 341:../../libdaisy/src/hid/disp/display.h ****                 t_sxny = start_x * -t_y;
 2052              		.loc 3 341 17 view .LVU448
 2053 0108 06EE900A 		vmov	s13, r0	@ int
 343:../../libdaisy/src/hid/disp/display.h ****                 t_exy  = end_x * t_y;
 2054              		.loc 3 343 17 view .LVU449
 2055 010c 27EE284A 		vmul.f32	s8, s14, s17
 342:../../libdaisy/src/hid/disp/display.h ****                 t_synx = start_y * -t_x;
 2056              		.loc 3 342 34 view .LVU450
 2057 0110 F8EEE77A 		vcvt.f32.s32	s15, s15
 341:../../libdaisy/src/hid/disp/display.h ****                 t_sxny = start_x * -t_y;
 2058              		.loc 3 341 17 view .LVU451
 2059 0114 F8EEE66A 		vcvt.f32.s32	s13, s13
 351:../../libdaisy/src/hid/disp/display.h ****                     d2 = (t_sxy - t_syx < 0 || t_exy - t_eyx > 0);
 2060              		.loc 3 351 33 view .LVU452
 2061 0118 74EEC43A 		vsub.f32	s7, s9, s8
 342:../../libdaisy/src/hid/disp/display.h ****                 t_synx = start_y * -t_x;
 2062              		.loc 3 342 17 view .LVU453
 2063 011c 67EE885A 		vmul.f32	s11, s15, s16
 341:../../libdaisy/src/hid/disp/display.h ****                 t_sxny = start_x * -t_y;
 2064              		.loc 3 341 17 view .LVU454
 2065 0120 26EEA85A 		vmul.f32	s10, s13, s17
 2066              	.LVL154:
 346:../../libdaisy/src/hid/disp/display.h ****                 t_eynx = end_y * -t_x;
 2067              		.loc 3 346 17 view .LVU455
 2068 0124 67EE897A 		vmul.f32	s15, s15, s18
 347:../../libdaisy/src/hid/disp/display.h **** 
 2069              		.loc 3 347 17 view .LVU456
 2070 0128 27EE007A 		vmul.f32	s14, s14, s0
 345:../../libdaisy/src/hid/disp/display.h ****                 t_exny = end_x * -t_y;
 2071              		.loc 3 345 17 view .LVU457
 2072 012c 66EE806A 		vmul.f32	s13, s13, s0
 2073              	.LVL155:
 351:../../libdaisy/src/hid/disp/display.h ****                     d2 = (t_sxy - t_syx < 0 || t_exy - t_eyx > 0);
 2074              		.loc 3 351 46 view .LVU458
ARM GAS  /tmp/cceRX0y9.s 			page 73


 2075 0130 F5EEC03A 		vcmpe.f32	s7, #0
 349:../../libdaisy/src/hid/disp/display.h ****                 {
 2076              		.loc 3 349 17 view .LVU459
 2077 0134 40F3DC80 		ble	.L147
 351:../../libdaisy/src/hid/disp/display.h ****                     d2 = (t_sxy - t_syx < 0 || t_exy - t_eyx > 0);
 2078              		.loc 3 351 46 view .LVU460
 2079 0138 F1EE10FA 		vmrs	APSR_nzcv, FPSCR
 2080 013c 00F14D81 		bmi	.L173
 351:../../libdaisy/src/hid/disp/display.h ****                     d2 = (t_sxy - t_syx < 0 || t_exy - t_eyx > 0);
 2081              		.loc 3 351 55 discriminator 2 view .LVU461
 2082 0140 76EE473A 		vsub.f32	s7, s12, s14
 352:../../libdaisy/src/hid/disp/display.h ****                     d3 = (t_sxny - t_syx < 0 || t_exny - t_eyx > 0);
 2083              		.loc 3 352 33 discriminator 2 view .LVU462
 2084 0144 74EEC54A 		vsub.f32	s9, s9, s10
 2085              	.LVL156:
 351:../../libdaisy/src/hid/disp/display.h ****                     d2 = (t_sxy - t_syx < 0 || t_exy - t_eyx > 0);
 2086              		.loc 3 351 46 discriminator 2 view .LVU463
 2087 0148 F5EEC03A 		vcmpe.f32	s7, #0
 2088 014c F1EE10FA 		vmrs	APSR_nzcv, FPSCR
 352:../../libdaisy/src/hid/disp/display.h ****                     d3 = (t_sxny - t_syx < 0 || t_exny - t_eyx > 0);
 2089              		.loc 3 352 45 discriminator 2 view .LVU464
 2090 0150 F5EEC04A 		vcmpe.f32	s9, #0
 351:../../libdaisy/src/hid/disp/display.h ****                     d2 = (t_sxy - t_syx < 0 || t_exy - t_eyx > 0);
 2091              		.loc 3 351 46 discriminator 2 view .LVU465
 2092 0154 CCBF     		ite	gt
 2093 0156 0122     		movgt	r2, #1
 2094 0158 0022     		movle	r2, #0
 352:../../libdaisy/src/hid/disp/display.h ****                     d3 = (t_sxny - t_syx < 0 || t_exny - t_eyx > 0);
 2095              		.loc 3 352 45 discriminator 2 view .LVU466
 2096 015a F1EE10FA 		vmrs	APSR_nzcv, FPSCR
 351:../../libdaisy/src/hid/disp/display.h ****                     d2 = (t_sxy - t_syx < 0 || t_exy - t_eyx > 0);
 2097              		.loc 3 351 46 discriminator 2 view .LVU467
 2098 015e 0192     		str	r2, [sp, #4]
 2099              	.LVL157:
 352:../../libdaisy/src/hid/disp/display.h ****                     d3 = (t_sxny - t_syx < 0 || t_exny - t_eyx > 0);
 2100              		.loc 3 352 45 discriminator 2 view .LVU468
 2101 0160 00F14581 		bmi	.L174
 2102              	.L214:
 352:../../libdaisy/src/hid/disp/display.h ****                     d3 = (t_sxny - t_syx < 0 || t_exny - t_eyx > 0);
 2103              		.loc 3 352 54 discriminator 2 view .LVU469
 2104 0164 36EE666A 		vsub.f32	s12, s12, s13
 2105              	.LVL158:
 353:../../libdaisy/src/hid/disp/display.h ****                     d4 = (t_sxny - t_synx < 0 || t_exny - t_eynx > 0);
 2106              		.loc 3 353 34 discriminator 2 view .LVU470
 2107 0168 35EEC55A 		vsub.f32	s10, s11, s10
 2108              	.LVL159:
 352:../../libdaisy/src/hid/disp/display.h ****                     d3 = (t_sxny - t_syx < 0 || t_exny - t_eyx > 0);
 2109              		.loc 3 352 45 discriminator 2 view .LVU471
 2110 016c B5EEC06A 		vcmpe.f32	s12, #0
 2111 0170 F1EE10FA 		vmrs	APSR_nzcv, FPSCR
 353:../../libdaisy/src/hid/disp/display.h ****                     d4 = (t_sxny - t_synx < 0 || t_exny - t_eynx > 0);
 2112              		.loc 3 353 46 discriminator 2 view .LVU472
 2113 0174 B5EEC05A 		vcmpe.f32	s10, #0
 352:../../libdaisy/src/hid/disp/display.h ****                     d3 = (t_sxny - t_syx < 0 || t_exny - t_eyx > 0);
 2114              		.loc 3 352 45 discriminator 2 view .LVU473
 2115 0178 CCBF     		ite	gt
 2116 017a 0121     		movgt	r1, #1
ARM GAS  /tmp/cceRX0y9.s 			page 74


 2117 017c 0021     		movle	r1, #0
 2118              	.LVL160:
 353:../../libdaisy/src/hid/disp/display.h ****                     d4 = (t_sxny - t_synx < 0 || t_exny - t_eynx > 0);
 2119              		.loc 3 353 46 discriminator 2 view .LVU474
 2120 017e F1EE10FA 		vmrs	APSR_nzcv, FPSCR
 2121 0182 00F13D81 		bmi	.L175
 2122              	.L215:
 353:../../libdaisy/src/hid/disp/display.h ****                     d4 = (t_sxny - t_synx < 0 || t_exny - t_eynx > 0);
 2123              		.loc 3 353 56 discriminator 2 view .LVU475
 2124 0186 77EEE66A 		vsub.f32	s13, s15, s13
 2125              	.LVL161:
 353:../../libdaisy/src/hid/disp/display.h ****                     d4 = (t_sxny - t_synx < 0 || t_exny - t_eynx > 0);
 2126              		.loc 3 353 46 discriminator 2 view .LVU476
 2127 018a F5EEC06A 		vcmpe.f32	s13, #0
 2128 018e F1EE10FA 		vmrs	APSR_nzcv, FPSCR
 2129 0192 CCBF     		ite	gt
 2130 0194 0126     		movgt	r6, #1
 2131              	.LVL162:
 353:../../libdaisy/src/hid/disp/display.h ****                     d4 = (t_sxny - t_synx < 0 || t_exny - t_eynx > 0);
 2132              		.loc 3 353 46 discriminator 2 view .LVU477
 2133 0196 0026     		movle	r6, #0
 2134              	.L150:
 2135              	.LVL163:
 354:../../libdaisy/src/hid/disp/display.h ****                 }
 2136              		.loc 3 354 34 discriminator 6 view .LVU478
 2137 0198 75EEC45A 		vsub.f32	s11, s11, s8
 2138              	.LVL164:
 354:../../libdaisy/src/hid/disp/display.h ****                 }
 2139              		.loc 3 354 47 discriminator 6 view .LVU479
 2140 019c F5EEC05A 		vcmpe.f32	s11, #0
 2141 01a0 F1EE10FA 		vmrs	APSR_nzcv, FPSCR
 2142 01a4 00F11781 		bmi	.L176
 2143              	.L206:
 361:../../libdaisy/src/hid/disp/display.h ****                 }
 2144              		.loc 3 361 57 discriminator 1 view .LVU480
 2145 01a8 77EEC77A 		vsub.f32	s15, s15, s14
 2146              	.LVL165:
 361:../../libdaisy/src/hid/disp/display.h ****                 }
 2147              		.loc 3 361 47 discriminator 1 view .LVU481
 2148 01ac F5EEC07A 		vcmpe.f32	s15, #0
 2149 01b0 F1EE10FA 		vmrs	APSR_nzcv, FPSCR
 2150 01b4 CCBF     		ite	gt
 2151 01b6 0127     		movgt	r7, #1
 2152              	.LVL166:
 361:../../libdaisy/src/hid/disp/display.h ****                 }
 2153              		.loc 3 361 47 discriminator 1 view .LVU482
 2154 01b8 0027     		movle	r7, #0
 2155              	.LVL167:
 2156              	.L146:
 365:../../libdaisy/src/hid/disp/display.h ****                 ((ChildType*)(this))
 2157              		.loc 3 365 13 view .LVU483
 2158 01ba 019A     		ldr	r2, [sp, #4]
 2159 01bc F2B1     		cbz	r2, .L158
 366:../../libdaisy/src/hid/disp/display.h ****                     ->ChildType::DrawPixel(x - t_x, y + t_y, on);
 2160              		.loc 3 366 17 view .LVU484
 2161 01be ACEB0009 		sub	r9, ip, r0
 2162 01c2 04EB0805 		add	r5, r4, r8
ARM GAS  /tmp/cceRX0y9.s 			page 75


 2163              	.LVL168:
 2164              	.LBB1069:
 2165              	.LBI1069:
  41:../../libdaisy/src/hid/disp/oled_display.h ****     {
 2166              		.loc 2 41 10 is_stmt 1 view .LVU485
 2167              	.LBB1070:
 2168              	.LBI1070:
 239:../../libdaisy/src/dev/oled_ssd130x.h ****     {
 2169              		.loc 12 239 10 view .LVU486
 2170              	.LBB1071:
 241:../../libdaisy/src/dev/oled_ssd130x.h ****             return;
 2171              		.loc 12 241 9 is_stmt 0 view .LVU487
 2172 01c6 B9F17F0F 		cmp	r9, #127
 2173 01ca 17D8     		bhi	.L158
 2174 01cc 3F2D     		cmp	r5, #63
 2175 01ce 15D8     		bhi	.L158
 244:../../libdaisy/src/dev/oled_ssd130x.h ****         else
 2176              		.loc 12 244 28 view .LVU488
 2177 01d0 4FEAD50A 		lsr	r10, r5, #3
 244:../../libdaisy/src/dev/oled_ssd130x.h ****         else
 2178              		.loc 12 244 48 view .LVU489
 2179 01d4 4FF0010B 		mov	fp, #1
 244:../../libdaisy/src/dev/oled_ssd130x.h ****         else
 2180              		.loc 12 244 54 view .LVU490
 2181 01d8 05F00705 		and	r5, r5, #7
 2182              	.LVL169:
 243:../../libdaisy/src/dev/oled_ssd130x.h ****             buffer_[x + (y / 8) * width] |= (1 << (y % 8));
 2183              		.loc 12 243 9 view .LVU491
 2184 01dc 029A     		ldr	r2, [sp, #8]
 244:../../libdaisy/src/dev/oled_ssd130x.h ****         else
 2185              		.loc 12 244 42 view .LVU492
 2186 01de 09EBCA19 		add	r9, r9, r10, lsl #7
 2187              	.LVL170:
 244:../../libdaisy/src/dev/oled_ssd130x.h ****         else
 2188              		.loc 12 244 48 view .LVU493
 2189 01e2 0BFA05F5 		lsl	r5, fp, r5
 243:../../libdaisy/src/dev/oled_ssd130x.h ****             buffer_[x + (y / 8) * width] |= (1 << (y % 8));
 2190              		.loc 12 243 9 view .LVU494
 2191 01e6 002A     		cmp	r2, #0
 2192 01e8 00F0C280 		beq	.L159
 244:../../libdaisy/src/dev/oled_ssd130x.h ****         else
 2193              		.loc 12 244 13 view .LVU495
 2194 01ec 039A     		ldr	r2, [sp, #12]
 2195 01ee 9144     		add	r9, r9, r2
 244:../../libdaisy/src/dev/oled_ssd130x.h ****         else
 2196              		.loc 12 244 42 view .LVU496
 2197 01f0 99F814B0 		ldrb	fp, [r9, #20]	@ zero_extendqisi2
 2198 01f4 45EA0B05 		orr	r5, r5, fp
 244:../../libdaisy/src/dev/oled_ssd130x.h ****         else
 2199              		.loc 12 244 13 view .LVU497
 2200 01f8 89F81450 		strb	r5, [r9, #20]
 2201              	.LVL171:
 2202              	.L158:
 244:../../libdaisy/src/dev/oled_ssd130x.h ****         else
 2203              		.loc 12 244 13 view .LVU498
 2204              	.LBE1071:
 2205              	.LBE1070:
ARM GAS  /tmp/cceRX0y9.s 			page 76


 2206              	.LBE1069:
 368:../../libdaisy/src/hid/disp/display.h ****                 ((ChildType*)(this))
 2207              		.loc 3 368 13 view .LVU499
 2208 01fc F1B1     		cbz	r1, .L160
 2209              	.L213:
 369:../../libdaisy/src/hid/disp/display.h ****                     ->ChildType::DrawPixel(x + t_x, y + t_y, on);
 2210              		.loc 3 369 17 view .LVU500
 2211 01fe 00EB0C09 		add	r9, r0, ip
 2212 0202 04EB0805 		add	r5, r4, r8
 2213              	.LVL172:
 2214              	.LBB1076:
 2215              	.LBI1076:
  41:../../libdaisy/src/hid/disp/oled_display.h ****     {
 2216              		.loc 2 41 10 is_stmt 1 view .LVU501
 2217              	.LBB1077:
 2218              	.LBI1077:
 239:../../libdaisy/src/dev/oled_ssd130x.h ****     {
 2219              		.loc 12 239 10 view .LVU502
 2220              	.LBB1078:
 241:../../libdaisy/src/dev/oled_ssd130x.h ****             return;
 2221              		.loc 12 241 9 is_stmt 0 view .LVU503
 2222 0206 B9F17F0F 		cmp	r9, #127
 2223 020a 17D8     		bhi	.L160
 2224 020c 3F2D     		cmp	r5, #63
 2225 020e 15D8     		bhi	.L160
 244:../../libdaisy/src/dev/oled_ssd130x.h ****         else
 2226              		.loc 12 244 28 view .LVU504
 2227 0210 4FEAD50A 		lsr	r10, r5, #3
 244:../../libdaisy/src/dev/oled_ssd130x.h ****         else
 2228              		.loc 12 244 48 view .LVU505
 2229 0214 4FF0010B 		mov	fp, #1
 244:../../libdaisy/src/dev/oled_ssd130x.h ****         else
 2230              		.loc 12 244 54 view .LVU506
 2231 0218 05F00705 		and	r5, r5, #7
 2232              	.LVL173:
 243:../../libdaisy/src/dev/oled_ssd130x.h ****             buffer_[x + (y / 8) * width] |= (1 << (y % 8));
 2233              		.loc 12 243 9 view .LVU507
 2234 021c 029A     		ldr	r2, [sp, #8]
 244:../../libdaisy/src/dev/oled_ssd130x.h ****         else
 2235              		.loc 12 244 42 view .LVU508
 2236 021e 09EBCA19 		add	r9, r9, r10, lsl #7
 2237              	.LVL174:
 244:../../libdaisy/src/dev/oled_ssd130x.h ****         else
 2238              		.loc 12 244 48 view .LVU509
 2239 0222 0BFA05F5 		lsl	r5, fp, r5
 243:../../libdaisy/src/dev/oled_ssd130x.h ****             buffer_[x + (y / 8) * width] |= (1 << (y % 8));
 2240              		.loc 12 243 9 view .LVU510
 2241 0226 002A     		cmp	r2, #0
 2242 0228 00F08E80 		beq	.L161
 244:../../libdaisy/src/dev/oled_ssd130x.h ****         else
 2243              		.loc 12 244 13 view .LVU511
 2244 022c 039A     		ldr	r2, [sp, #12]
 2245 022e 9144     		add	r9, r9, r2
 244:../../libdaisy/src/dev/oled_ssd130x.h ****         else
 2246              		.loc 12 244 42 view .LVU512
 2247 0230 99F814B0 		ldrb	fp, [r9, #20]	@ zero_extendqisi2
 2248 0234 45EA0B05 		orr	r5, r5, fp
ARM GAS  /tmp/cceRX0y9.s 			page 77


 244:../../libdaisy/src/dev/oled_ssd130x.h ****         else
 2249              		.loc 12 244 13 view .LVU513
 2250 0238 89F81450 		strb	r5, [r9, #20]
 2251              	.LVL175:
 2252              	.L160:
 244:../../libdaisy/src/dev/oled_ssd130x.h ****         else
 2253              		.loc 12 244 13 view .LVU514
 2254              	.LBE1078:
 2255              	.LBE1077:
 2256              	.LBE1076:
 371:../../libdaisy/src/hid/disp/display.h ****                 ((ChildType*)(this))
 2257              		.loc 3 371 13 view .LVU515
 2258 023c EEB1     		cbz	r6, .L162
 2259              	.L212:
 372:../../libdaisy/src/hid/disp/display.h ****                     ->ChildType::DrawPixel(x + t_x, y - t_y, on);
 2260              		.loc 3 372 17 view .LVU516
 2261 023e 00EB0C09 		add	r9, r0, ip
 2262 0242 A8EB0405 		sub	r5, r8, r4
 2263              	.LVL176:
 2264              	.LBB1083:
 2265              	.LBI1083:
  41:../../libdaisy/src/hid/disp/oled_display.h ****     {
 2266              		.loc 2 41 10 is_stmt 1 view .LVU517
 2267              	.LBB1084:
 2268              	.LBI1084:
 239:../../libdaisy/src/dev/oled_ssd130x.h ****     {
 2269              		.loc 12 239 10 view .LVU518
 2270              	.LBB1085:
 241:../../libdaisy/src/dev/oled_ssd130x.h ****             return;
 2271              		.loc 12 241 9 is_stmt 0 view .LVU519
 2272 0246 B9F17F0F 		cmp	r9, #127
 2273 024a 16D8     		bhi	.L162
 2274 024c 3F2D     		cmp	r5, #63
 2275 024e 14D8     		bhi	.L162
 244:../../libdaisy/src/dev/oled_ssd130x.h ****         else
 2276              		.loc 12 244 28 view .LVU520
 2277 0250 4FEAD50A 		lsr	r10, r5, #3
 244:../../libdaisy/src/dev/oled_ssd130x.h ****         else
 2278              		.loc 12 244 48 view .LVU521
 2279 0254 4FF0010B 		mov	fp, #1
 244:../../libdaisy/src/dev/oled_ssd130x.h ****         else
 2280              		.loc 12 244 54 view .LVU522
 2281 0258 05F00705 		and	r5, r5, #7
 2282              	.LVL177:
 243:../../libdaisy/src/dev/oled_ssd130x.h ****             buffer_[x + (y / 8) * width] |= (1 << (y % 8));
 2283              		.loc 12 243 9 view .LVU523
 2284 025c 029A     		ldr	r2, [sp, #8]
 244:../../libdaisy/src/dev/oled_ssd130x.h ****         else
 2285              		.loc 12 244 42 view .LVU524
 2286 025e 09EBCA19 		add	r9, r9, r10, lsl #7
 2287              	.LVL178:
 244:../../libdaisy/src/dev/oled_ssd130x.h ****         else
 2288              		.loc 12 244 48 view .LVU525
 2289 0262 0BFA05F5 		lsl	r5, fp, r5
 243:../../libdaisy/src/dev/oled_ssd130x.h ****             buffer_[x + (y / 8) * width] |= (1 << (y % 8));
 2290              		.loc 12 243 9 view .LVU526
 2291 0266 002A     		cmp	r2, #0
ARM GAS  /tmp/cceRX0y9.s 			page 78


 2292 0268 65D0     		beq	.L163
 244:../../libdaisy/src/dev/oled_ssd130x.h ****         else
 2293              		.loc 12 244 13 view .LVU527
 2294 026a 039A     		ldr	r2, [sp, #12]
 2295 026c 9144     		add	r9, r9, r2
 244:../../libdaisy/src/dev/oled_ssd130x.h ****         else
 2296              		.loc 12 244 42 view .LVU528
 2297 026e 99F814B0 		ldrb	fp, [r9, #20]	@ zero_extendqisi2
 2298 0272 45EA0B05 		orr	r5, r5, fp
 244:../../libdaisy/src/dev/oled_ssd130x.h ****         else
 2299              		.loc 12 244 13 view .LVU529
 2300 0276 89F81450 		strb	r5, [r9, #20]
 2301              	.LVL179:
 2302              	.L162:
 244:../../libdaisy/src/dev/oled_ssd130x.h ****         else
 2303              		.loc 12 244 13 view .LVU530
 2304              	.LBE1085:
 2305              	.LBE1084:
 2306              	.LBE1083:
 374:../../libdaisy/src/hid/disp/display.h ****                 ((ChildType*)(this))
 2307              		.loc 3 374 13 view .LVU531
 2308 027a D7B9     		cbnz	r7, .L207
 2309              	.L164:
 2310              	.LVL180:
 379:../../libdaisy/src/hid/disp/display.h ****             {
 2311              		.loc 3 379 13 view .LVU532
 2312 027c 9C42     		cmp	r4, r3
 2313 027e 16DB     		blt	.L181
 381:../../libdaisy/src/hid/disp/display.h ****                 err = err + (t_y * 2 + 1);
 2314              		.loc 3 381 17 view .LVU533
 2315 0280 0134     		adds	r4, r4, #1
 2316              	.LVL181:
 382:../../libdaisy/src/hid/disp/display.h ****                 if(-t_x == t_y && e2 <= t_x)
 2317              		.loc 3 382 38 view .LVU534
 2318 0282 03EB4405 		add	r5, r3, r4, lsl #1
 383:../../libdaisy/src/hid/disp/display.h ****                 {
 2319              		.loc 3 383 17 view .LVU535
 2320 0286 C442     		cmn	r4, r0
 382:../../libdaisy/src/hid/disp/display.h ****                 if(-t_x == t_y && e2 <= t_x)
 2321              		.loc 3 382 17 view .LVU536
 2322 0288 05F10105 		add	r5, r5, #1
 2323              	.LVL182:
 383:../../libdaisy/src/hid/disp/display.h ****                 {
 2324              		.loc 3 383 17 view .LVU537
 2325 028c 4FD0     		beq	.L208
 2326              	.LVL183:
 2327              	.L166:
 388:../../libdaisy/src/hid/disp/display.h ****             {
 2328              		.loc 3 388 13 view .LVU538
 2329 028e 9842     		cmp	r0, r3
 2330 0290 08DB     		blt	.L167
 388:../../libdaisy/src/hid/disp/display.h ****             {
 2331              		.loc 3 388 13 view .LVU539
 2332 0292 2B46     		mov	r3, r5
 2333              	.LVL184:
 2334              	.L168:
 393:../../libdaisy/src/hid/disp/display.h ****     }
ARM GAS  /tmp/cceRX0y9.s 			page 79


 2335              		.loc 3 393 21 is_stmt 1 view .LVU540
 2336 0294 0028     		cmp	r0, #0
 2337 0296 7FF722AF 		ble	.L170
 2338              	.LVL185:
 2339              	.L141:
 394:../../libdaisy/src/hid/disp/display.h **** 
 2340              		.loc 3 394 5 is_stmt 0 view .LVU541
 2341 029a 05B0     		add	sp, sp, #20
 2342              		.cfi_remember_state
 2343              		.cfi_def_cfa_offset 60
 2344              		@ sp needed
 2345 029c BDEC068B 		vldm	sp!, {d8-d10}
 2346              		.cfi_restore 84
 2347              		.cfi_restore 85
 2348              		.cfi_restore 82
 2349              		.cfi_restore 83
 2350              		.cfi_restore 80
 2351              		.cfi_restore 81
 2352              		.cfi_def_cfa_offset 36
 2353              	.LVL186:
 394:../../libdaisy/src/hid/disp/display.h **** 
 2354              		.loc 3 394 5 view .LVU542
 2355 02a0 BDE8F08F 		pop	{r4, r5, r6, r7, r8, r9, r10, fp, pc}
 2356              	.LVL187:
 2357              	.L167:
 2358              		.cfi_restore_state
 390:../../libdaisy/src/hid/disp/display.h ****                 err = err + (t_x * 2 + 1);
 2359              		.loc 3 390 17 view .LVU543
