ARM GAS  /tmp/ccB8ZK0y.s 			page 1


   1              		.cpu cortex-m7
   2              		.eabi_attribute 28, 1
   3              		.eabi_attribute 20, 1
   4              		.eabi_attribute 21, 1
   5              		.eabi_attribute 23, 3
   6              		.eabi_attribute 24, 1
   7              		.eabi_attribute 25, 1
   8              		.eabi_attribute 26, 1
   9              		.eabi_attribute 30, 2
  10              		.eabi_attribute 34, 1
  11              		.eabi_attribute 18, 4
  12              		.file	"autowah.cpp"
  13              		.text
  14              	.Ltext0:
  15              		.cfi_sections	.debug_frame
  16              		.section	.text._ZN7daisysp5AdEnvD2Ev,"axG",%progbits,_ZN7daisysp5AdEnvD5Ev,comdat
  17              		.align	1
  18              		.p2align 2,,3
  19              		.weak	_ZN7daisysp5AdEnvD2Ev
  20              		.arch armv7e-m
  21              		.syntax unified
  22              		.thumb
  23              		.thumb_func
  24              		.fpu fpv5-d16
  26              	_ZN7daisysp5AdEnvD2Ev:
  27              	.LVL0:
  28              	.LFB548:
  29              		.file 1 "../../DaisySP/Source/Control/adenv.h"
   1:../../DaisySP/Source/Control/adenv.h **** #pragma once
   2:../../DaisySP/Source/Control/adenv.h **** #ifndef ADENV_H
   3:../../DaisySP/Source/Control/adenv.h **** #define ADENV_H
   4:../../DaisySP/Source/Control/adenv.h **** #include <stdint.h>
   5:../../DaisySP/Source/Control/adenv.h **** #ifdef __cplusplus
   6:../../DaisySP/Source/Control/adenv.h **** 
   7:../../DaisySP/Source/Control/adenv.h **** namespace daisysp
   8:../../DaisySP/Source/Control/adenv.h **** {
   9:../../DaisySP/Source/Control/adenv.h **** /** Distinct stages that the phase of the envelope can be located in.
  10:../../DaisySP/Source/Control/adenv.h ****     @see AdEnv
  11:../../DaisySP/Source/Control/adenv.h **** */
  12:../../DaisySP/Source/Control/adenv.h **** enum AdEnvSegment
  13:../../DaisySP/Source/Control/adenv.h **** {
  14:../../DaisySP/Source/Control/adenv.h ****     /** located at phase location 0, and not currently running */
  15:../../DaisySP/Source/Control/adenv.h ****     ADENV_SEG_IDLE,
  16:../../DaisySP/Source/Control/adenv.h ****     /** First segment of envelope where phase moves from MIN value to MAX value */
  17:../../DaisySP/Source/Control/adenv.h ****     ADENV_SEG_ATTACK,
  18:../../DaisySP/Source/Control/adenv.h ****     /** Second segment of envelope where phase moves from MAX to MIN value */
  19:../../DaisySP/Source/Control/adenv.h ****     ADENV_SEG_DECAY,
  20:../../DaisySP/Source/Control/adenv.h ****     /** The final segment of the envelope (currently decay) */
  21:../../DaisySP/Source/Control/adenv.h ****     ADENV_SEG_LAST,
  22:../../DaisySP/Source/Control/adenv.h **** };
  23:../../DaisySP/Source/Control/adenv.h **** 
  24:../../DaisySP/Source/Control/adenv.h **** /** Trigger-able envelope with adjustable min/max, and independent per-segment time control.
  25:../../DaisySP/Source/Control/adenv.h **** 
  26:../../DaisySP/Source/Control/adenv.h ****     \author shensley
  27:../../DaisySP/Source/Control/adenv.h ****     \todo - Add Cycling
  28:../../DaisySP/Source/Control/adenv.h ****     \todo - Implement Curve (its only linear for now).
  29:../../DaisySP/Source/Control/adenv.h ****     \todo - Maybe make this an ADsr_ that has AD/AR/Asr_ modes.
ARM GAS  /tmp/ccB8ZK0y.s 			page 2


  30:../../DaisySP/Source/Control/adenv.h ****  */
  31:../../DaisySP/Source/Control/adenv.h **** class AdEnv
  32:../../DaisySP/Source/Control/adenv.h **** {
  33:../../DaisySP/Source/Control/adenv.h ****   public:
  34:../../DaisySP/Source/Control/adenv.h ****     AdEnv() {}
  35:../../DaisySP/Source/Control/adenv.h ****     ~AdEnv() {}
  30              		.loc 1 35 5 view -0
  31              		.cfi_startproc
  32              		@ args = 0, pretend = 0, frame = 0
  33              		@ frame_needed = 0, uses_anonymous_args = 0
  34              		@ link register save eliminated.
  35              		.loc 1 35 15 is_stmt 0 view .LVU1
  36 0000 7047     		bx	lr
  37              		.cfi_endproc
  38              	.LFE548:
  40              		.weak	_ZN7daisysp5AdEnvD1Ev
  41              		.thumb_set _ZN7daisysp5AdEnvD1Ev,_ZN7daisysp5AdEnvD2Ev
  42 0002 00BF     		.section	.text._ZN7daisysp10OscillatorD2Ev,"axG",%progbits,_ZN7daisysp10OscillatorD5Ev,comdat
  43              		.align	1
  44              		.p2align 2,,3
  45              		.weak	_ZN7daisysp10OscillatorD2Ev
  46              		.syntax unified
  47              		.thumb
  48              		.thumb_func
  49              		.fpu fpv5-d16
  51              	_ZN7daisysp10OscillatorD2Ev:
  52              	.LVL1:
  53              	.LFB2797:
  54              		.file 2 "../../DaisySP/Source/Synthesis/oscillator.h"
   1:../../DaisySP/Source/Synthesis/oscillator.h **** #pragma once
   2:../../DaisySP/Source/Synthesis/oscillator.h **** #ifndef DSY_OSCILLATOR_H
   3:../../DaisySP/Source/Synthesis/oscillator.h **** #define DSY_OSCILLATOR_H
   4:../../DaisySP/Source/Synthesis/oscillator.h **** #include <stdint.h>
   5:../../DaisySP/Source/Synthesis/oscillator.h **** #include "Utility/dsp.h"
   6:../../DaisySP/Source/Synthesis/oscillator.h **** #ifdef __cplusplus
   7:../../DaisySP/Source/Synthesis/oscillator.h **** 
   8:../../DaisySP/Source/Synthesis/oscillator.h **** namespace daisysp
   9:../../DaisySP/Source/Synthesis/oscillator.h **** {
  10:../../DaisySP/Source/Synthesis/oscillator.h **** /** Synthesis of several waveforms, including polyBLEP bandlimited waveforms.
  11:../../DaisySP/Source/Synthesis/oscillator.h **** */
  12:../../DaisySP/Source/Synthesis/oscillator.h **** class Oscillator
  13:../../DaisySP/Source/Synthesis/oscillator.h **** {
  14:../../DaisySP/Source/Synthesis/oscillator.h ****   public:
  15:../../DaisySP/Source/Synthesis/oscillator.h ****     Oscillator() {}
  16:../../DaisySP/Source/Synthesis/oscillator.h ****     ~Oscillator() {}
  55              		.loc 2 16 5 is_stmt 1 view -0
  56              		.cfi_startproc
  57              		@ args = 0, pretend = 0, frame = 0
  58              		@ frame_needed = 0, uses_anonymous_args = 0
  59              		@ link register save eliminated.
  60              		.loc 2 16 20 is_stmt 0 view .LVU3
  61 0000 7047     		bx	lr
  62              		.cfi_endproc
  63              	.LFE2797:
  65              		.weak	_ZN7daisysp10OscillatorD1Ev
  66              		.thumb_set _ZN7daisysp10OscillatorD1Ev,_ZN7daisysp10OscillatorD2Ev
  67 0002 00BF     		.section	.text._ZN7daisysp7AutowahD2Ev,"axG",%progbits,_ZN7daisysp7AutowahD5Ev,comdat
ARM GAS  /tmp/ccB8ZK0y.s 			page 3


  68              		.align	1
  69              		.p2align 2,,3
  70              		.weak	_ZN7daisysp7AutowahD2Ev
  71              		.syntax unified
  72              		.thumb
  73              		.thumb_func
  74              		.fpu fpv5-d16
  76              	_ZN7daisysp7AutowahD2Ev:
  77              	.LVL2:
  78              	.LFB2936:
  79              		.file 3 "../../DaisySP/Source/Effects/autowah.h"
   1:../../DaisySP/Source/Effects/autowah.h **** #pragma once
   2:../../DaisySP/Source/Effects/autowah.h **** #ifndef DSY_AUTOWAH_H
   3:../../DaisySP/Source/Effects/autowah.h **** #define DSY_AUTOWAH_H
   4:../../DaisySP/Source/Effects/autowah.h **** 
   5:../../DaisySP/Source/Effects/autowah.h **** #include <stdint.h>
   6:../../DaisySP/Source/Effects/autowah.h **** #ifdef __cplusplus
   7:../../DaisySP/Source/Effects/autowah.h **** 
   8:../../DaisySP/Source/Effects/autowah.h **** namespace daisysp
   9:../../DaisySP/Source/Effects/autowah.h **** {
  10:../../DaisySP/Source/Effects/autowah.h **** /** Autowah module
  11:../../DaisySP/Source/Effects/autowah.h **** 
  12:../../DaisySP/Source/Effects/autowah.h ****     Original author(s) :
  13:../../DaisySP/Source/Effects/autowah.h **** 
  14:../../DaisySP/Source/Effects/autowah.h ****     Ported from soundpipe by Ben Sergentanis, May 2020
  15:../../DaisySP/Source/Effects/autowah.h **** */
  16:../../DaisySP/Source/Effects/autowah.h **** class Autowah
  17:../../DaisySP/Source/Effects/autowah.h **** {
  18:../../DaisySP/Source/Effects/autowah.h ****   public:
  19:../../DaisySP/Source/Effects/autowah.h ****     Autowah() {}
  20:../../DaisySP/Source/Effects/autowah.h ****     ~Autowah() {}
  80              		.loc 3 20 5 is_stmt 1 view -0
  81              		.cfi_startproc
  82              		@ args = 0, pretend = 0, frame = 0
  83              		@ frame_needed = 0, uses_anonymous_args = 0
  84              		@ link register save eliminated.
  85              		.loc 3 20 17 is_stmt 0 view .LVU5
  86 0000 7047     		bx	lr
  87              		.cfi_endproc
  88              	.LFE2936:
  90              		.weak	_ZN7daisysp7AutowahD1Ev
  91              		.thumb_set _ZN7daisysp7AutowahD1Ev,_ZN7daisysp7AutowahD2Ev
  92 0002 00BF     		.section	.text._ZN7daisysp5MetroD2Ev,"axG",%progbits,_ZN7daisysp5MetroD5Ev,comdat
  93              		.align	1
  94              		.p2align 2,,3
  95              		.weak	_ZN7daisysp5MetroD2Ev
  96              		.syntax unified
  97              		.thumb
  98              		.thumb_func
  99              		.fpu fpv5-d16
 101              	_ZN7daisysp5MetroD2Ev:
 102              	.LVL3:
 103              	.LFB3332:
 104              		.file 4 "../../DaisySP/Source/Utility/metro.h"
   1:../../DaisySP/Source/Utility/metro.h **** #pragma once
   2:../../DaisySP/Source/Utility/metro.h **** #ifndef DSY_METRO_H
   3:../../DaisySP/Source/Utility/metro.h **** #define DSY_METRO_H
ARM GAS  /tmp/ccB8ZK0y.s 			page 4


   4:../../DaisySP/Source/Utility/metro.h **** #include <stdint.h>
   5:../../DaisySP/Source/Utility/metro.h **** #ifdef __cplusplus
   6:../../DaisySP/Source/Utility/metro.h **** 
   7:../../DaisySP/Source/Utility/metro.h **** namespace daisysp
   8:../../DaisySP/Source/Utility/metro.h **** {
   9:../../DaisySP/Source/Utility/metro.h **** /** Creates a clock signal at a specific frequency.
  10:../../DaisySP/Source/Utility/metro.h **** */
  11:../../DaisySP/Source/Utility/metro.h **** class Metro
  12:../../DaisySP/Source/Utility/metro.h **** {
  13:../../DaisySP/Source/Utility/metro.h ****   public:
  14:../../DaisySP/Source/Utility/metro.h ****     Metro() {}
  15:../../DaisySP/Source/Utility/metro.h ****     ~Metro() {}
 105              		.loc 4 15 5 is_stmt 1 view -0
 106              		.cfi_startproc
 107              		@ args = 0, pretend = 0, frame = 0
 108              		@ frame_needed = 0, uses_anonymous_args = 0
 109              		@ link register save eliminated.
 110              		.loc 4 15 15 is_stmt 0 view .LVU7
 111 0000 7047     		bx	lr
 112              		.cfi_endproc
 113              	.LFE3332:
 115              		.weak	_ZN7daisysp5MetroD1Ev
 116              		.thumb_set _ZN7daisysp5MetroD1Ev,_ZN7daisysp5MetroD2Ev
 117 0002 00BF     		.section	.text._ZN5daisy9DaisySeedD2Ev,"axG",%progbits,_ZN5daisy9DaisySeedD5Ev,comdat
 118              		.align	1
 119              		.p2align 2,,3
 120              		.weak	_ZN5daisy9DaisySeedD2Ev
 121              		.syntax unified
 122              		.thumb
 123              		.thumb_func
 124              		.fpu fpv5-d16
 126              	_ZN5daisy9DaisySeedD2Ev:
 127              	.LVL4:
 128              	.LFB4207:
 129              		.file 5 "../../libdaisy/src/daisy_seed.h"
   1:../../libdaisy/src/daisy_seed.h **** #pragma once
   2:../../libdaisy/src/daisy_seed.h **** #ifndef DSY_SEED_H
   3:../../libdaisy/src/daisy_seed.h **** #define DSY_SEED_H
   4:../../libdaisy/src/daisy_seed.h **** 
   5:../../libdaisy/src/daisy_seed.h **** #include "daisy.h"
   6:../../libdaisy/src/daisy_seed.h **** 
   7:../../libdaisy/src/daisy_seed.h **** //Uncomment this out if you're still using the rev2 hardware
   8:../../libdaisy/src/daisy_seed.h **** //#define SEED_REV2
   9:../../libdaisy/src/daisy_seed.h **** 
  10:../../libdaisy/src/daisy_seed.h **** namespace daisy
  11:../../libdaisy/src/daisy_seed.h **** {
  12:../../libdaisy/src/daisy_seed.h **** /**
  13:../../libdaisy/src/daisy_seed.h ****    @brief This is the higher-level interface for the Daisy board. \n 
  14:../../libdaisy/src/daisy_seed.h ****     All basic peripheral configuration/initialization is setup here. \n
  15:../../libdaisy/src/daisy_seed.h **** 
  16:../../libdaisy/src/daisy_seed.h ****    @ingroup boards
  17:../../libdaisy/src/daisy_seed.h **** */
  18:../../libdaisy/src/daisy_seed.h **** class DaisySeed
  19:../../libdaisy/src/daisy_seed.h **** {
  20:../../libdaisy/src/daisy_seed.h ****   public:
  21:../../libdaisy/src/daisy_seed.h ****     DaisySeed() {}
  22:../../libdaisy/src/daisy_seed.h ****     ~DaisySeed() {}
ARM GAS  /tmp/ccB8ZK0y.s 			page 5


 130              		.loc 5 22 5 is_stmt 1 view -0
 131              		.cfi_startproc
 132              		@ args = 0, pretend = 0, frame = 0
 133              		@ frame_needed = 0, uses_anonymous_args = 0
 134              		@ link register save eliminated.
 135              	.LBB98:
 136              	.LBI98:
 137              		.file 6 "../../libdaisy/src/sys/system.h"
   1:../../libdaisy/src/sys/system.h **** #ifndef DSY_SYSTEM_H
   2:../../libdaisy/src/sys/system.h **** #define DSY_SYSTEM_H
   3:../../libdaisy/src/sys/system.h **** 
   4:../../libdaisy/src/sys/system.h **** #ifndef UNIT_TEST // for unit tests, a dummy implementation is provided below
   5:../../libdaisy/src/sys/system.h **** 
   6:../../libdaisy/src/sys/system.h **** #include <cstdint>
   7:../../libdaisy/src/sys/system.h **** #include "per/tim.h"
   8:../../libdaisy/src/sys/system.h **** 
   9:../../libdaisy/src/sys/system.h **** namespace daisy
  10:../../libdaisy/src/sys/system.h **** {
  11:../../libdaisy/src/sys/system.h **** /** A handle for interacting with the Core System. 
  12:../../libdaisy/src/sys/system.h ****  ** This includes the Clock tree, MPU, global DMA initialization,
  13:../../libdaisy/src/sys/system.h ****  ** cache handling, and any other necessary global initiailzation
  14:../../libdaisy/src/sys/system.h ****  **
  15:../../libdaisy/src/sys/system.h ****  ** @author shensley
  16:../../libdaisy/src/sys/system.h ****  ** @addtogroup system
  17:../../libdaisy/src/sys/system.h ****  */
  18:../../libdaisy/src/sys/system.h **** class System
  19:../../libdaisy/src/sys/system.h **** {
  20:../../libdaisy/src/sys/system.h ****   public:
  21:../../libdaisy/src/sys/system.h ****     /** Contains settings for initializing the System */
  22:../../libdaisy/src/sys/system.h ****     struct Config
  23:../../libdaisy/src/sys/system.h ****     {
  24:../../libdaisy/src/sys/system.h ****         /** Specifies the system clock frequency that feeds APB/AHB clocks, etc. */
  25:../../libdaisy/src/sys/system.h ****         enum class SysClkFreq
  26:../../libdaisy/src/sys/system.h ****         {
  27:../../libdaisy/src/sys/system.h ****             FREQ_400MHZ,
  28:../../libdaisy/src/sys/system.h ****             FREQ_480MHZ,
  29:../../libdaisy/src/sys/system.h ****         };
  30:../../libdaisy/src/sys/system.h **** 
  31:../../libdaisy/src/sys/system.h ****         /** Method to call on the struct to set to defaults
  32:../../libdaisy/src/sys/system.h ****          ** CPU Freq set to 400MHz
  33:../../libdaisy/src/sys/system.h ****          ** Cache Enabled 
  34:../../libdaisy/src/sys/system.h ****          ** */
  35:../../libdaisy/src/sys/system.h ****         void Defaults()
  36:../../libdaisy/src/sys/system.h ****         {
  37:../../libdaisy/src/sys/system.h ****             cpu_freq   = SysClkFreq::FREQ_400MHZ;
  38:../../libdaisy/src/sys/system.h ****             use_dcache = true;
  39:../../libdaisy/src/sys/system.h ****             use_icache = true;
  40:../../libdaisy/src/sys/system.h ****         }
  41:../../libdaisy/src/sys/system.h **** 
  42:../../libdaisy/src/sys/system.h ****         /** Method to call on the struct to set to boost mode:
  43:../../libdaisy/src/sys/system.h ****          ** CPU Freq set to 480MHz
  44:../../libdaisy/src/sys/system.h ****          ** Cache Enabled 
  45:../../libdaisy/src/sys/system.h ****          ** */
  46:../../libdaisy/src/sys/system.h ****         void Boost()
  47:../../libdaisy/src/sys/system.h ****         {
  48:../../libdaisy/src/sys/system.h ****             cpu_freq   = SysClkFreq::FREQ_480MHZ;
  49:../../libdaisy/src/sys/system.h ****             use_dcache = true;
ARM GAS  /tmp/ccB8ZK0y.s 			page 6


  50:../../libdaisy/src/sys/system.h ****             use_icache = true;
  51:../../libdaisy/src/sys/system.h ****         }
  52:../../libdaisy/src/sys/system.h **** 
  53:../../libdaisy/src/sys/system.h ****         SysClkFreq cpu_freq;
  54:../../libdaisy/src/sys/system.h ****         bool       use_dcache;
  55:../../libdaisy/src/sys/system.h ****         bool       use_icache;
  56:../../libdaisy/src/sys/system.h ****     };
  57:../../libdaisy/src/sys/system.h **** 
  58:../../libdaisy/src/sys/system.h ****     System() {}
  59:../../libdaisy/src/sys/system.h ****     ~System() {}
 138              		.loc 6 59 5 view .LVU9
 139              		.loc 6 59 5 is_stmt 0 view .LVU10
 140              	.LBE98:
 141              	.LBB99:
 142              	.LBI99:
 143              		.file 7 "../../libdaisy/src/hid/usb.h"
   1:../../libdaisy/src/hid/usb.h **** #pragma once
   2:../../libdaisy/src/hid/usb.h **** #ifndef DSY_HID_USB_H
   3:../../libdaisy/src/hid/usb.h **** #define DSY_HID_USB_H
   4:../../libdaisy/src/hid/usb.h **** #include <stdint.h>
   5:../../libdaisy/src/hid/usb.h **** #include <stdlib.h>
   6:../../libdaisy/src/hid/usb.h **** 
   7:../../libdaisy/src/hid/usb.h **** namespace daisy
   8:../../libdaisy/src/hid/usb.h **** /** @addtogroup externals
   9:../../libdaisy/src/hid/usb.h ****     @{
  10:../../libdaisy/src/hid/usb.h **** */
  11:../../libdaisy/src/hid/usb.h **** 
  12:../../libdaisy/src/hid/usb.h **** {
  13:../../libdaisy/src/hid/usb.h **** /** 
  14:../../libdaisy/src/hid/usb.h ****     @brief Interface for initializing and using the USB Peripherals on the daisy
  15:../../libdaisy/src/hid/usb.h ****     @author Stephen Hensley
  16:../../libdaisy/src/hid/usb.h ****     @date December 2019
  17:../../libdaisy/src/hid/usb.h **** */
  18:../../libdaisy/src/hid/usb.h **** class UsbHandle
  19:../../libdaisy/src/hid/usb.h **** {
  20:../../libdaisy/src/hid/usb.h ****   public:
  21:../../libdaisy/src/hid/usb.h ****     /** Return values for USBHandle Functions */
  22:../../libdaisy/src/hid/usb.h ****     enum class Result
  23:../../libdaisy/src/hid/usb.h ****     {
  24:../../libdaisy/src/hid/usb.h ****         OK,
  25:../../libdaisy/src/hid/usb.h ****         ERR,
  26:../../libdaisy/src/hid/usb.h ****     };
  27:../../libdaisy/src/hid/usb.h **** 
  28:../../libdaisy/src/hid/usb.h ****     /** Specified which of the two USB Peripherals to initialize. */
  29:../../libdaisy/src/hid/usb.h ****     enum UsbPeriph
  30:../../libdaisy/src/hid/usb.h ****     {
  31:../../libdaisy/src/hid/usb.h ****         FS_INTERNAL, /**< Internal pin */
  32:../../libdaisy/src/hid/usb.h ****         FS_EXTERNAL, /**< FS External D+ pin is Pin 38 (GPIO32). FS External D- pin is Pin 37 (GPIO
  33:../../libdaisy/src/hid/usb.h ****         FS_BOTH,     /**< Both */
  34:../../libdaisy/src/hid/usb.h ****     };
  35:../../libdaisy/src/hid/usb.h **** 
  36:../../libdaisy/src/hid/usb.h **** 
  37:../../libdaisy/src/hid/usb.h ****     /** Function called upon reception of a buffer */
  38:../../libdaisy/src/hid/usb.h ****     typedef void (*ReceiveCallback)(uint8_t* buff, uint32_t* len);
  39:../../libdaisy/src/hid/usb.h **** 
  40:../../libdaisy/src/hid/usb.h ****     UsbHandle() {}
  41:../../libdaisy/src/hid/usb.h **** 
ARM GAS  /tmp/ccB8ZK0y.s 			page 7


  42:../../libdaisy/src/hid/usb.h ****     ~UsbHandle() {}
 144              		.loc 7 42 5 is_stmt 1 view .LVU11
 145              		.loc 7 42 5 is_stmt 0 view .LVU12
 146              	.LBE99:
 147              	.LBB100:
 148              	.LBI100:
 149              		.file 8 "../../libdaisy/src/per/adc.h"
   1:../../libdaisy/src/per/adc.h **** #pragma once
   2:../../libdaisy/src/per/adc.h **** #ifndef DSY_ADC_H
   3:../../libdaisy/src/per/adc.h **** #define DSY_ADC_H /**< Macro */
   4:../../libdaisy/src/per/adc.h **** #include <stdint.h>
   5:../../libdaisy/src/per/adc.h **** #include <stdlib.h>
   6:../../libdaisy/src/per/adc.h **** #include "daisy_core.h"
   7:../../libdaisy/src/per/adc.h **** #include "per/gpio.h"
   8:../../libdaisy/src/per/adc.h **** 
   9:../../libdaisy/src/per/adc.h **** #define DSY_ADC_MAX_CHANNELS 14 /**< Maximum number of ADC channels */
  10:../../libdaisy/src/per/adc.h **** 
  11:../../libdaisy/src/per/adc.h **** namespace daisy
  12:../../libdaisy/src/per/adc.h **** {
  13:../../libdaisy/src/per/adc.h **** /** @addtogroup analog_digital_conversion
  14:../../libdaisy/src/per/adc.h ****     @{
  15:../../libdaisy/src/per/adc.h **** */
  16:../../libdaisy/src/per/adc.h **** 
  17:../../libdaisy/src/per/adc.h **** /* While there may not be many configuration options here,
  18:../../libdaisy/src/per/adc.h **** using a struct like this allows us to add more configuration
  19:../../libdaisy/src/per/adc.h **** later without breaking existing functionality.
  20:../../libdaisy/src/per/adc.h **** */
  21:../../libdaisy/src/per/adc.h **** 
  22:../../libdaisy/src/per/adc.h **** /** Configuration Structure for a given channel */
  23:../../libdaisy/src/per/adc.h **** struct AdcChannelConfig
  24:../../libdaisy/src/per/adc.h **** {
  25:../../libdaisy/src/per/adc.h ****     /** Which pin to use for multiplexing */
  26:../../libdaisy/src/per/adc.h ****     enum MuxPin
  27:../../libdaisy/src/per/adc.h ****     {
  28:../../libdaisy/src/per/adc.h ****         MUX_SEL_0,    /**< & */
  29:../../libdaisy/src/per/adc.h ****         MUX_SEL_1,    /**< & */
  30:../../libdaisy/src/per/adc.h ****         MUX_SEL_2,    /**< & */
  31:../../libdaisy/src/per/adc.h ****         MUX_SEL_LAST, /**< & */
  32:../../libdaisy/src/per/adc.h ****     };
  33:../../libdaisy/src/per/adc.h **** 
  34:../../libdaisy/src/per/adc.h ****     /** Initializes a single ADC pin as an ADC. 
  35:../../libdaisy/src/per/adc.h ****     \param pin Pin to init.
  36:../../libdaisy/src/per/adc.h ****      */
  37:../../libdaisy/src/per/adc.h ****     void InitSingle(dsy_gpio_pin pin);
  38:../../libdaisy/src/per/adc.h **** 
  39:../../libdaisy/src/per/adc.h ****     /** 
  40:../../libdaisy/src/per/adc.h ****     Initializes a single ADC pin as a Multiplexed ADC.
  41:../../libdaisy/src/per/adc.h ****     Requires a CD405X Multiplexer connected to the pin.
  42:../../libdaisy/src/per/adc.h ****     You only need to supply the mux pins that are required,
  43:../../libdaisy/src/per/adc.h ****     e.g. a 4052 mux would only require mux_0 and mux_1.
  44:../../libdaisy/src/per/adc.h ****     Internal Callbacks handle the pin addressing.
  45:../../libdaisy/src/per/adc.h ****     \param mux_channels must be 1-8
  46:../../libdaisy/src/per/adc.h ****     \param mux_0 First mux pin
  47:../../libdaisy/src/per/adc.h ****     \param mux_1 Second mux pin
  48:../../libdaisy/src/per/adc.h ****     \param mux_2 Third mux pin
  49:../../libdaisy/src/per/adc.h ****     \param adc_pin &
  50:../../libdaisy/src/per/adc.h ****     */
ARM GAS  /tmp/ccB8ZK0y.s 			page 8


  51:../../libdaisy/src/per/adc.h ****     void InitMux(dsy_gpio_pin adc_pin,
  52:../../libdaisy/src/per/adc.h ****                  size_t       mux_channels,
  53:../../libdaisy/src/per/adc.h ****                  dsy_gpio_pin mux_0,
  54:../../libdaisy/src/per/adc.h ****                  dsy_gpio_pin mux_1 = {DSY_GPIOX, 0},
  55:../../libdaisy/src/per/adc.h ****                  dsy_gpio_pin mux_2 = {DSY_GPIOX, 0});
  56:../../libdaisy/src/per/adc.h **** 
  57:../../libdaisy/src/per/adc.h ****     dsy_gpio pin_;                   /**< & */
  58:../../libdaisy/src/per/adc.h ****     dsy_gpio mux_pin_[MUX_SEL_LAST]; /**< & */
  59:../../libdaisy/src/per/adc.h ****     uint8_t  mux_channels_;          /**< & */
  60:../../libdaisy/src/per/adc.h **** };
  61:../../libdaisy/src/per/adc.h **** 
  62:../../libdaisy/src/per/adc.h **** /**
  63:../../libdaisy/src/per/adc.h ****    Handler for analog to digital conversion
  64:../../libdaisy/src/per/adc.h **** */
  65:../../libdaisy/src/per/adc.h **** class AdcHandle
  66:../../libdaisy/src/per/adc.h **** {
  67:../../libdaisy/src/per/adc.h ****   public:
  68:../../libdaisy/src/per/adc.h ****     /** Supported oversampling amounts */
  69:../../libdaisy/src/per/adc.h ****     enum OverSampling
  70:../../libdaisy/src/per/adc.h ****     {
  71:../../libdaisy/src/per/adc.h ****         OVS_NONE, /**< & */
  72:../../libdaisy/src/per/adc.h ****         OVS_4,    /**< & */
  73:../../libdaisy/src/per/adc.h ****         OVS_8,    /**< & */
  74:../../libdaisy/src/per/adc.h ****         OVS_16,   /**< & */
  75:../../libdaisy/src/per/adc.h ****         OVS_32,   /**< & */
  76:../../libdaisy/src/per/adc.h ****         OVS_64,   /**< & */
  77:../../libdaisy/src/per/adc.h ****         OVS_128,  /**< & */
  78:../../libdaisy/src/per/adc.h ****         OVS_256,  /**< & */
  79:../../libdaisy/src/per/adc.h ****         OVS_512,  /**< & */
  80:../../libdaisy/src/per/adc.h ****         OVS_1024, /**< & */
  81:../../libdaisy/src/per/adc.h ****         OVS_LAST, /**< & */
  82:../../libdaisy/src/per/adc.h ****     };
  83:../../libdaisy/src/per/adc.h **** 
  84:../../libdaisy/src/per/adc.h ****     AdcHandle() {}
  85:../../libdaisy/src/per/adc.h ****     ~AdcHandle() {}
 150              		.loc 8 85 5 is_stmt 1 view .LVU13
 151              		.loc 8 85 5 is_stmt 0 view .LVU14
 152              	.LBE100:
 153              	.LBB101:
 154              	.LBI101:
 155              		.file 9 "../../libdaisy/src/hid/audio.h"
   1:../../libdaisy/src/hid/audio.h **** #ifndef DSY_AUDIO_H
   2:../../libdaisy/src/hid/audio.h **** #define DSY_AUDIO_H /**< & */
   3:../../libdaisy/src/hid/audio.h **** 
   4:../../libdaisy/src/hid/audio.h **** #include "per/sai.h"
   5:../../libdaisy/src/hid/audio.h **** 
   6:../../libdaisy/src/hid/audio.h **** namespace daisy
   7:../../libdaisy/src/hid/audio.h **** {
   8:../../libdaisy/src/hid/audio.h **** class AudioHandle
   9:../../libdaisy/src/hid/audio.h **** {
  10:../../libdaisy/src/hid/audio.h ****   public:
  11:../../libdaisy/src/hid/audio.h ****     /** Manually configurable details about the Audio Engine */
  12:../../libdaisy/src/hid/audio.h ****     /** TODO: Figure out how to get samplerate in here. */
  13:../../libdaisy/src/hid/audio.h ****     struct Config
  14:../../libdaisy/src/hid/audio.h ****     {
  15:../../libdaisy/src/hid/audio.h ****         size_t                        blocksize;
  16:../../libdaisy/src/hid/audio.h ****         SaiHandle::Config::SampleRate samplerate;
ARM GAS  /tmp/ccB8ZK0y.s 			page 9


  17:../../libdaisy/src/hid/audio.h ****         float                         postgain;
  18:../../libdaisy/src/hid/audio.h ****     };
  19:../../libdaisy/src/hid/audio.h **** 
  20:../../libdaisy/src/hid/audio.h ****     enum class Result
  21:../../libdaisy/src/hid/audio.h ****     {
  22:../../libdaisy/src/hid/audio.h ****         OK,
  23:../../libdaisy/src/hid/audio.h ****         ERR,
  24:../../libdaisy/src/hid/audio.h ****     };
  25:../../libdaisy/src/hid/audio.h **** 
  26:../../libdaisy/src/hid/audio.h ****     /** Non-Interleaving input buffer
  27:../../libdaisy/src/hid/audio.h ****      * Buffer arranged by float[chn][sample] 
  28:../../libdaisy/src/hid/audio.h ****      * const so that the user can't modify the input
  29:../../libdaisy/src/hid/audio.h ****     */
  30:../../libdaisy/src/hid/audio.h ****     typedef const float* const* InputBuffer;
  31:../../libdaisy/src/hid/audio.h **** 
  32:../../libdaisy/src/hid/audio.h ****     /** Non-Interleaving output buffer
  33:../../libdaisy/src/hid/audio.h ****      * Arranged by float[chn][sample] 
  34:../../libdaisy/src/hid/audio.h ****     */
  35:../../libdaisy/src/hid/audio.h ****     typedef float** OutputBuffer;
  36:../../libdaisy/src/hid/audio.h **** 
  37:../../libdaisy/src/hid/audio.h ****     /** Type for a Non-Interleaving audio callback 
  38:../../libdaisy/src/hid/audio.h ****    * Non-Interleaving audio callbacks in daisy will be of this type
  39:../../libdaisy/src/hid/audio.h ****   */
  40:../../libdaisy/src/hid/audio.h ****     typedef void (*AudioCallback)(InputBuffer  in,
  41:../../libdaisy/src/hid/audio.h ****                                   OutputBuffer out,
  42:../../libdaisy/src/hid/audio.h ****                                   size_t       size);
  43:../../libdaisy/src/hid/audio.h **** 
  44:../../libdaisy/src/hid/audio.h ****     /** Interleaving Input buffer
  45:../../libdaisy/src/hid/audio.h ****      ** audio is prepared as { L0, R0, L1, R1, . . . LN, RN }]
  46:../../libdaisy/src/hid/audio.h ****      ** this is const, as the user shouldn't modify it
  47:../../libdaisy/src/hid/audio.h ****     */
  48:../../libdaisy/src/hid/audio.h ****     typedef const float* InterleavingInputBuffer;
  49:../../libdaisy/src/hid/audio.h **** 
  50:../../libdaisy/src/hid/audio.h ****     /** Interleaving Output buffer 
  51:../../libdaisy/src/hid/audio.h ****      ** audio is prepared as { L0, R0, L1, R1, . . . LN, RN }
  52:../../libdaisy/src/hid/audio.h ****     */
  53:../../libdaisy/src/hid/audio.h ****     typedef float* InterleavingOutputBuffer;
  54:../../libdaisy/src/hid/audio.h **** 
  55:../../libdaisy/src/hid/audio.h ****     /** Interleaving Audio Callback 
  56:../../libdaisy/src/hid/audio.h ****    * Interleaving audio callbacks in daisy must be of this type
  57:../../libdaisy/src/hid/audio.h ****   */
  58:../../libdaisy/src/hid/audio.h ****     typedef void (*InterleavingAudioCallback)(InterleavingInputBuffer  in,
  59:../../libdaisy/src/hid/audio.h ****                                               InterleavingOutputBuffer out,
  60:../../libdaisy/src/hid/audio.h ****                                               size_t                   size);
  61:../../libdaisy/src/hid/audio.h **** 
  62:../../libdaisy/src/hid/audio.h ****     AudioHandle() : pimpl_(nullptr) {}
  63:../../libdaisy/src/hid/audio.h ****     ~AudioHandle() {}
 156              		.loc 9 63 5 is_stmt 1 view .LVU15
 157              		.loc 9 63 5 is_stmt 0 view .LVU16
 158              	.LBE101:
 159              		.loc 5 22 19 view .LVU17
 160 0000 7047     		bx	lr
 161              		.cfi_endproc
 162              	.LFE4207:
 164              		.weak	_ZN5daisy9DaisySeedD1Ev
 165              		.thumb_set _ZN5daisy9DaisySeedD1Ev,_ZN5daisy9DaisySeedD2Ev
 166 0002 00BF     		.section	.text._ZL13AudioCallbackPKfPfj,"ax",%progbits
ARM GAS  /tmp/ccB8ZK0y.s 			page 10


 167              		.align	1
 168              		.p2align 2,,3
 169              		.syntax unified
 170              		.thumb
 171              		.thumb_func
 172              		.fpu fpv5-d16
 174              	_ZL13AudioCallbackPKfPfj:
 175              	.LVL5:
 176              	.LFB4212:
 177              		.file 10 "autowah.cpp"
   1:autowah.cpp   **** #include "daisysp.h"
   2:autowah.cpp   **** #include "daisy_seed.h"
   3:autowah.cpp   **** 
   4:autowah.cpp   **** // Shortening long macro for sample rate
   5:autowah.cpp   **** #ifndef sample_rate
   6:autowah.cpp   **** 
   7:autowah.cpp   **** #endif
   8:autowah.cpp   **** 
   9:autowah.cpp   **** // Interleaved audio definitions
  10:autowah.cpp   **** #define LEFT (i)
  11:autowah.cpp   **** #define RIGHT (i + 1)
  12:autowah.cpp   **** 
  13:autowah.cpp   **** using namespace daisysp;
  14:autowah.cpp   **** using namespace daisy;
  15:autowah.cpp   **** 
  16:autowah.cpp   **** static DaisySeed  seed;
  17:autowah.cpp   **** static AdEnv      env;
  18:autowah.cpp   **** static Oscillator osc;
  19:autowah.cpp   **** static Metro      tick;
  20:autowah.cpp   **** static Autowah    autowah;
  21:autowah.cpp   **** 
  22:autowah.cpp   **** static void AudioCallback(AudioHandle::InterleavingInputBuffer  in,
  23:autowah.cpp   ****                           AudioHandle::InterleavingOutputBuffer out,
  24:autowah.cpp   ****                           size_t                                size)
  25:autowah.cpp   **** {
 178              		.loc 10 25 1 is_stmt 1 view -0
 179              		.cfi_startproc
 180              		@ args = 0, pretend = 0, frame = 0
 181              		@ frame_needed = 0, uses_anonymous_args = 0
  26:autowah.cpp   ****     float osc_out, env_out;
 182              		.loc 10 26 5 view .LVU19
  27:autowah.cpp   ****     for(size_t i = 0; i < size; i += 2)
 183              		.loc 10 27 5 view .LVU20
 184              	.LBB102:
 185              		.loc 10 27 25 view .LVU21
 186 0000 1AB3     		cbz	r2, .L19
 187 0002 013A     		subs	r2, r2, #1
 188              	.LVL6:
 189              		.loc 10 27 25 is_stmt 0 view .LVU22
 190              	.LBE102:
  25:autowah.cpp   ****     float osc_out, env_out;
 191              		.loc 10 25 1 view .LVU23
 192 0004 F8B5     		push	{r3, r4, r5, r6, r7, lr}
 193              		.cfi_def_cfa_offset 24
 194              		.cfi_offset 3, -24
 195              		.cfi_offset 4, -20
 196              		.cfi_offset 5, -16
ARM GAS  /tmp/ccB8ZK0y.s 			page 11


 197              		.cfi_offset 6, -12
 198              		.cfi_offset 7, -8
 199              		.cfi_offset 14, -4
 200 0006 0C46     		mov	r4, r1
 201              	.LBB113:
 202              		.loc 10 27 16 view .LVU24
 203 0008 0025     		movs	r5, #0
 204 000a 104F     		ldr	r7, .L22
 205 000c 22F00106 		bic	r6, r2, #1
 206              	.LVL7:
 207              	.L10:
  28:autowah.cpp   ****     {
  29:autowah.cpp   ****         // When the metro ticks, trigger the envelope to start.
  30:autowah.cpp   ****         if(tick.Process())
 208              		.loc 10 30 9 is_stmt 1 view .LVU25
 209              		.loc 10 30 24 is_stmt 0 view .LVU26
 210 0010 0F48     		ldr	r0, .L22+4
 211 0012 FFF7FEFF 		bl	_ZN7daisysp5Metro7ProcessEv
 212              	.LVL8:
  31:autowah.cpp   ****         {
  32:autowah.cpp   ****             env.Trigger();
 213              		.loc 10 32 13 is_stmt 1 view .LVU27
 214              	.LBB103:
 215              	.LBI103:
  36:../../DaisySP/Source/Control/adenv.h ****     /** Initializes the ad envelope.
  37:../../DaisySP/Source/Control/adenv.h **** 
  38:../../DaisySP/Source/Control/adenv.h ****         Defaults:
  39:../../DaisySP/Source/Control/adenv.h ****             - current segment = idle
  40:../../DaisySP/Source/Control/adenv.h ****             - curve = linear
  41:../../DaisySP/Source/Control/adenv.h ****             - phase = 0
  42:../../DaisySP/Source/Control/adenv.h ****             - min = 0
  43:../../DaisySP/Source/Control/adenv.h ****             - max = 1
  44:../../DaisySP/Source/Control/adenv.h **** 
  45:../../DaisySP/Source/Control/adenv.h ****         \param sample_rate      sample rate of the audio engine being run
  46:../../DaisySP/Source/Control/adenv.h ****     */
  47:../../DaisySP/Source/Control/adenv.h ****     void Init(float sample_rate);
  48:../../DaisySP/Source/Control/adenv.h **** 
  49:../../DaisySP/Source/Control/adenv.h ****     /** Processes the current sample of the envelope. This should be called once
  50:../../DaisySP/Source/Control/adenv.h ****         per sample period.
  51:../../DaisySP/Source/Control/adenv.h ****         \return the current envelope value.
  52:../../DaisySP/Source/Control/adenv.h ****     */
  53:../../DaisySP/Source/Control/adenv.h ****     float Process();
  54:../../DaisySP/Source/Control/adenv.h **** 
  55:../../DaisySP/Source/Control/adenv.h ****     /** Starts or retriggers the envelope.*/
  56:../../DaisySP/Source/Control/adenv.h ****     inline void Trigger() { trigger_ = 1; }
 216              		.loc 1 56 17 view .LVU28
 217              	.LBB104:
 218              		.loc 1 56 29 view .LVU29
 219              	.LBE104:
 220              	.LBE103:
  33:autowah.cpp   ****         }
  34:autowah.cpp   **** 
  35:autowah.cpp   ****         // Use envelope to control the amplitude of the oscillator.
  36:autowah.cpp   ****         // Apply autowah on the signal.
  37:autowah.cpp   ****         env_out = env.Process();
 221              		.loc 10 37 9 view .LVU30
  30:autowah.cpp   ****         {
ARM GAS  /tmp/ccB8ZK0y.s 			page 12


 222              		.loc 10 30 24 is_stmt 0 view .LVU31
 223 0016 0346     		mov	r3, r0
 224              	.LBB107:
 225              	.LBB105:
 226              		.loc 1 56 38 view .LVU32
 227 0018 0121     		movs	r1, #1
 228              	.LBE105:
 229              	.LBE107:
 230              		.loc 10 37 30 view .LVU33
 231 001a 0E48     		ldr	r0, .L22+8
  30:autowah.cpp   ****         {
 232              		.loc 10 30 9 view .LVU34
 233 001c 0BB1     		cbz	r3, .L9
 234              	.LBB108:
 235              	.LBB106:
 236              		.loc 1 56 38 view .LVU35
 237 001e 80F83410 		strb	r1, [r0, #52]
 238              	.L9:
 239              	.LBE106:
 240              	.LBE108:
 241              		.loc 10 37 30 discriminator 2 view .LVU36
 242 0022 FFF7FEFF 		bl	_ZN7daisysp5AdEnv7ProcessEv
 243              	.LVL9:
  38:autowah.cpp   ****         osc.SetAmp(env_out);
 244              		.loc 10 38 9 is_stmt 1 discriminator 2 view .LVU37
 245              	.LBB109:
 246              	.LBI109:
  17:../../DaisySP/Source/Synthesis/oscillator.h ****     /** Choices for output waveforms, POLYBLEP are appropriately labeled. Others are naive forms.
  18:../../DaisySP/Source/Synthesis/oscillator.h ****     */
  19:../../DaisySP/Source/Synthesis/oscillator.h ****     enum
  20:../../DaisySP/Source/Synthesis/oscillator.h ****     {
  21:../../DaisySP/Source/Synthesis/oscillator.h ****         WAVE_SIN,
  22:../../DaisySP/Source/Synthesis/oscillator.h ****         WAVE_TRI,
  23:../../DaisySP/Source/Synthesis/oscillator.h ****         WAVE_SAW,
  24:../../DaisySP/Source/Synthesis/oscillator.h ****         WAVE_RAMP,
  25:../../DaisySP/Source/Synthesis/oscillator.h ****         WAVE_SQUARE,
  26:../../DaisySP/Source/Synthesis/oscillator.h ****         WAVE_POLYBLEP_TRI,
  27:../../DaisySP/Source/Synthesis/oscillator.h ****         WAVE_POLYBLEP_SAW,
  28:../../DaisySP/Source/Synthesis/oscillator.h ****         WAVE_POLYBLEP_SQUARE,
  29:../../DaisySP/Source/Synthesis/oscillator.h ****         WAVE_LAST,
  30:../../DaisySP/Source/Synthesis/oscillator.h ****     };
  31:../../DaisySP/Source/Synthesis/oscillator.h **** 
  32:../../DaisySP/Source/Synthesis/oscillator.h **** 
  33:../../DaisySP/Source/Synthesis/oscillator.h ****     /** Initializes the Oscillator
  34:../../DaisySP/Source/Synthesis/oscillator.h **** 
  35:../../DaisySP/Source/Synthesis/oscillator.h ****         \param sample_rate - sample rate of the audio engine being run, and the frequency that the 
  36:../../DaisySP/Source/Synthesis/oscillator.h **** 
  37:../../DaisySP/Source/Synthesis/oscillator.h ****         Defaults:
  38:../../DaisySP/Source/Synthesis/oscillator.h ****         - freq_ = 100 Hz
  39:../../DaisySP/Source/Synthesis/oscillator.h ****         - amp_ = 0.5
  40:../../DaisySP/Source/Synthesis/oscillator.h ****         - waveform_ = sine wave.
  41:../../DaisySP/Source/Synthesis/oscillator.h ****     */
  42:../../DaisySP/Source/Synthesis/oscillator.h ****     void Init(float sample_rate)
  43:../../DaisySP/Source/Synthesis/oscillator.h ****     {
  44:../../DaisySP/Source/Synthesis/oscillator.h ****         sr_        = sample_rate;
  45:../../DaisySP/Source/Synthesis/oscillator.h ****         sr_recip_  = 1.0f / sample_rate;
  46:../../DaisySP/Source/Synthesis/oscillator.h ****         freq_      = 100.0f;
ARM GAS  /tmp/ccB8ZK0y.s 			page 13


  47:../../DaisySP/Source/Synthesis/oscillator.h ****         amp_       = 0.5f;
  48:../../DaisySP/Source/Synthesis/oscillator.h ****         phase_     = 0.0f;
  49:../../DaisySP/Source/Synthesis/oscillator.h ****         phase_inc_ = CalcPhaseInc(freq_);
  50:../../DaisySP/Source/Synthesis/oscillator.h ****         waveform_  = WAVE_SIN;
  51:../../DaisySP/Source/Synthesis/oscillator.h ****         eoc_       = true;
  52:../../DaisySP/Source/Synthesis/oscillator.h ****         eor_       = true;
  53:../../DaisySP/Source/Synthesis/oscillator.h ****     }
  54:../../DaisySP/Source/Synthesis/oscillator.h **** 
  55:../../DaisySP/Source/Synthesis/oscillator.h **** 
  56:../../DaisySP/Source/Synthesis/oscillator.h ****     /** Changes the frequency of the Oscillator, and recalculates phase increment.
  57:../../DaisySP/Source/Synthesis/oscillator.h ****     */
  58:../../DaisySP/Source/Synthesis/oscillator.h ****     inline void SetFreq(const float f)
  59:../../DaisySP/Source/Synthesis/oscillator.h ****     {
  60:../../DaisySP/Source/Synthesis/oscillator.h ****         freq_      = f;
  61:../../DaisySP/Source/Synthesis/oscillator.h ****         phase_inc_ = CalcPhaseInc(f);
  62:../../DaisySP/Source/Synthesis/oscillator.h ****     }
  63:../../DaisySP/Source/Synthesis/oscillator.h **** 
  64:../../DaisySP/Source/Synthesis/oscillator.h **** 
  65:../../DaisySP/Source/Synthesis/oscillator.h ****     /** Sets the amplitude of the waveform.
  66:../../DaisySP/Source/Synthesis/oscillator.h ****     */
  67:../../DaisySP/Source/Synthesis/oscillator.h ****     inline void SetAmp(const float a) { amp_ = a; }
 247              		.loc 2 67 17 discriminator 2 view .LVU38
 248              	.LBB110:
 249              		.loc 2 67 41 discriminator 2 view .LVU39
 250              	.LBE110:
 251              	.LBE109:
  39:autowah.cpp   ****         osc_out = osc.Process();
 252              		.loc 10 39 30 is_stmt 0 discriminator 2 view .LVU40
 253 0026 0948     		ldr	r0, .L22
 254              	.LBB112:
 255              	.LBB111:
 256              		.loc 2 67 46 discriminator 2 view .LVU41
 257 0028 87ED010A 		vstr.32	s0, [r7, #4]
 258              	.LVL10:
 259              		.loc 2 67 46 discriminator 2 view .LVU42
 260              	.LBE111:
 261              	.LBE112:
 262              		.loc 10 39 9 is_stmt 1 discriminator 2 view .LVU43
 263              		.loc 10 39 30 is_stmt 0 discriminator 2 view .LVU44
 264 002c FFF7FEFF 		bl	_ZN7daisysp10Oscillator7ProcessEv
 265              	.LVL11:
  40:autowah.cpp   ****         osc_out = autowah.Process(osc_out);
 266              		.loc 10 40 9 is_stmt 1 discriminator 2 view .LVU45
 267              		.loc 10 40 34 is_stmt 0 discriminator 2 view .LVU46
 268 0030 0948     		ldr	r0, .L22+12
 269 0032 0834     		adds	r4, r4, #8
 270 0034 FFF7FEFF 		bl	_ZN7daisysp7Autowah7ProcessEf
 271              	.LVL12:
  27:autowah.cpp   ****     {
 272              		.loc 10 27 35 discriminator 2 view .LVU47
 273 0038 AB1C     		adds	r3, r5, #2
 274              	.LVL13:
  41:autowah.cpp   **** 
  42:autowah.cpp   ****         out[LEFT]  = osc_out;
 275              		.loc 10 42 9 is_stmt 1 discriminator 2 view .LVU48
  27:autowah.cpp   ****     {
 276              		.loc 10 27 25 is_stmt 0 discriminator 2 view .LVU49
ARM GAS  /tmp/ccB8ZK0y.s 			page 14


 277 003a B542     		cmp	r5, r6
 278              		.loc 10 42 20 discriminator 2 view .LVU50
 279 003c 04ED020A 		vstr.32	s0, [r4, #-8]
  43:autowah.cpp   ****         out[RIGHT] = osc_out;
 280              		.loc 10 43 9 is_stmt 1 discriminator 2 view .LVU51
 281              		.loc 10 43 20 is_stmt 0 discriminator 2 view .LVU52
 282 0040 04ED010A 		vstr.32	s0, [r4, #-4]
  27:autowah.cpp   ****     {
 283              		.loc 10 27 5 is_stmt 1 discriminator 2 view .LVU53
 284              	.LVL14:
  27:autowah.cpp   ****     {
 285              		.loc 10 27 25 discriminator 2 view .LVU54
 286 0044 1D46     		mov	r5, r3
 287 0046 E3D1     		bne	.L10
 288              	.LBE113:
  44:autowah.cpp   ****     }
  45:autowah.cpp   **** }
 289              		.loc 10 45 1 is_stmt 0 view .LVU55
 290 0048 F8BD     		pop	{r3, r4, r5, r6, r7, pc}
 291              	.LVL15:
 292              	.L19:
 293              		.cfi_def_cfa_offset 0
 294              		.cfi_restore 3
 295              		.cfi_restore 4
 296              		.cfi_restore 5
 297              		.cfi_restore 6
 298              		.cfi_restore 7
 299              		.cfi_restore 14
 300              		.loc 10 45 1 view .LVU56
 301 004a 7047     		bx	lr
 302              	.L23:
 303              		.align	2
 304              	.L22:
 305 004c 00000000 		.word	.LANCHOR2
 306 0050 00000000 		.word	.LANCHOR0
 307 0054 00000000 		.word	.LANCHOR1
 308 0058 00000000 		.word	.LANCHOR3
 309              		.cfi_endproc
 310              	.LFE4212:
 312              		.section	.text.startup.main,"ax",%progbits
 313              		.align	1
 314              		.p2align 2,,3
 315              		.global	main
 316              		.syntax unified
 317              		.thumb
 318              		.thumb_func
 319              		.fpu fpv5-d16
 321              	main:
 322              	.LFB4213:
  46:autowah.cpp   **** 
  47:autowah.cpp   **** int main(void)
  48:autowah.cpp   **** {
 323              		.loc 10 48 1 is_stmt 1 view -0
 324              		.cfi_startproc
 325              		@ args = 0, pretend = 0, frame = 0
 326              		@ frame_needed = 0, uses_anonymous_args = 0
  49:autowah.cpp   ****     // initialize seed hardware and daisysp modules
ARM GAS  /tmp/ccB8ZK0y.s 			page 15


  50:autowah.cpp   ****     float sample_rate;
 327              		.loc 10 50 5 view .LVU58
  51:autowah.cpp   ****     seed.Configure();
 328              		.loc 10 51 5 view .LVU59
  48:autowah.cpp   ****     // initialize seed hardware and daisysp modules
 329              		.loc 10 48 1 is_stmt 0 view .LVU60
 330 0000 2DE9F041 		push	{r4, r5, r6, r7, r8, lr}
 331              		.cfi_def_cfa_offset 24
 332              		.cfi_offset 4, -24
 333              		.cfi_offset 5, -20
 334              		.cfi_offset 6, -16
 335              		.cfi_offset 7, -12
 336              		.cfi_offset 8, -8
 337              		.cfi_offset 14, -4
 338              		.loc 10 51 19 view .LVU61
 339 0004 3048     		ldr	r0, .L27
 340              	.LBB114:
 341              	.LBB115:
  47:../../DaisySP/Source/Synthesis/oscillator.h ****         phase_     = 0.0f;
 342              		.loc 2 47 20 view .LVU62
 343 0006 4FF07C58 		mov	r8, #1056964608
 344              	.LBE115:
 345              	.LBE114:
  52:autowah.cpp   ****     seed.Init();
  53:autowah.cpp   ****     sample_rate = seed.AudioSampleRate();
  54:autowah.cpp   ****     env.Init(sample_rate);
 346              		.loc 10 54 13 view .LVU63
 347 000a 304D     		ldr	r5, .L27+4
 348              	.LBB121:
 349              	.LBB116:
  48:../../DaisySP/Source/Synthesis/oscillator.h ****         phase_inc_ = CalcPhaseInc(freq_);
 350              		.loc 2 48 20 view .LVU64
 351 000c 0027     		movs	r7, #0
  44:../../DaisySP/Source/Synthesis/oscillator.h ****         sr_recip_  = 1.0f / sample_rate;
 352              		.loc 2 44 20 view .LVU65
 353 000e 304C     		ldr	r4, .L27+8
 354              	.LBE116:
 355              	.LBE121:
  55:autowah.cpp   ****     osc.Init(sample_rate);
  56:autowah.cpp   ****     autowah.Init(sample_rate);
 356              		.loc 10 56 17 view .LVU66
 357 0010 304E     		ldr	r6, .L27+12
  48:autowah.cpp   ****     // initialize seed hardware and daisysp modules
 358              		.loc 10 48 1 view .LVU67
 359 0012 2DED048B 		vpush.64	{d8, d9}
 360              		.cfi_def_cfa_offset 40
 361              		.cfi_offset 80, -40
 362              		.cfi_offset 81, -36
 363              		.cfi_offset 82, -32
 364              		.cfi_offset 83, -28
  51:autowah.cpp   ****     seed.Init();
 365              		.loc 10 51 19 view .LVU68
 366 0016 FFF7FEFF 		bl	_ZN5daisy9DaisySeed9ConfigureEv
 367              	.LVL16:
  52:autowah.cpp   ****     sample_rate = seed.AudioSampleRate();
 368              		.loc 10 52 5 is_stmt 1 view .LVU69
  52:autowah.cpp   ****     sample_rate = seed.AudioSampleRate();
ARM GAS  /tmp/ccB8ZK0y.s 			page 16


 369              		.loc 10 52 14 is_stmt 0 view .LVU70
 370 001a 0021     		movs	r1, #0
 371 001c 2A48     		ldr	r0, .L27
 372              	.LBB122:
 373              	.LBB117:
  45:../../DaisySP/Source/Synthesis/oscillator.h ****         freq_      = 100.0f;
 374              		.loc 2 45 27 view .LVU71
 375 001e F7EE008A 		vmov.f32	s17, #1.0e+0
 376              	.LBE117:
 377              	.LBE122:
  52:autowah.cpp   ****     sample_rate = seed.AudioSampleRate();
 378              		.loc 10 52 14 view .LVU72
 379 0022 FFF7FEFF 		bl	_ZN5daisy9DaisySeed4InitEb
 380              	.LVL17:
  53:autowah.cpp   ****     env.Init(sample_rate);
 381              		.loc 10 53 5 is_stmt 1 view .LVU73
  53:autowah.cpp   ****     env.Init(sample_rate);
 382              		.loc 10 53 39 is_stmt 0 view .LVU74
 383 0026 2848     		ldr	r0, .L27
 384 0028 FFF7FEFF 		bl	_ZN5daisy9DaisySeed15AudioSampleRateEv
 385              	.LVL18:
 386 002c B0EE408A 		vmov.f32	s16, s0
 387              	.LVL19:
  54:autowah.cpp   ****     osc.Init(sample_rate);
 388              		.loc 10 54 5 is_stmt 1 view .LVU75
  54:autowah.cpp   ****     osc.Init(sample_rate);
 389              		.loc 10 54 13 is_stmt 0 view .LVU76
 390 0030 2846     		mov	r0, r5
 391              	.LBB123:
 392              	.LBB118:
  46:../../DaisySP/Source/Synthesis/oscillator.h ****         amp_       = 0.5f;
 393              		.loc 2 46 20 view .LVU77
 394 0032 9FED299A 		vldr.32	s18, .L27+16
 395              	.LBE118:
 396              	.LBE123:
  54:autowah.cpp   ****     osc.Init(sample_rate);
 397              		.loc 10 54 13 view .LVU78
 398 0036 FFF7FEFF 		bl	_ZN7daisysp5AdEnv4InitEf
 399              	.LVL20:
  55:autowah.cpp   ****     autowah.Init(sample_rate);
 400              		.loc 10 55 5 is_stmt 1 view .LVU79
 401              	.LBB124:
 402              	.LBI114:
  42:../../DaisySP/Source/Synthesis/oscillator.h ****     {
 403              		.loc 2 42 10 view .LVU80
 404              	.LBB119:
  44:../../DaisySP/Source/Synthesis/oscillator.h ****         sr_recip_  = 1.0f / sample_rate;
 405              		.loc 2 44 9 view .LVU81
  49:../../DaisySP/Source/Synthesis/oscillator.h ****         waveform_  = WAVE_SIN;
 406              		.loc 2 49 34 is_stmt 0 view .LVU82
 407 003a 2046     		mov	r0, r4
  45:../../DaisySP/Source/Synthesis/oscillator.h ****         freq_      = 100.0f;
 408              		.loc 2 45 27 view .LVU83
 409 003c C8EE887A 		vdiv.f32	s15, s17, s16
  44:../../DaisySP/Source/Synthesis/oscillator.h ****         sr_recip_  = 1.0f / sample_rate;
 410              		.loc 2 44 20 view .LVU84
 411 0040 84ED038A 		vstr.32	s16, [r4, #12]
ARM GAS  /tmp/ccB8ZK0y.s 			page 17


  45:../../DaisySP/Source/Synthesis/oscillator.h ****         freq_      = 100.0f;
 412              		.loc 2 45 9 is_stmt 1 view .LVU85
  46:../../DaisySP/Source/Synthesis/oscillator.h ****         amp_       = 0.5f;
 413              		.loc 2 46 20 is_stmt 0 view .LVU86
 414 0044 84ED029A 		vstr.32	s18, [r4, #8]
  47:../../DaisySP/Source/Synthesis/oscillator.h ****         phase_     = 0.0f;
 415              		.loc 2 47 20 view .LVU87
 416 0048 C4F80480 		str	r8, [r4, #4]	@ float
  48:../../DaisySP/Source/Synthesis/oscillator.h ****         phase_inc_ = CalcPhaseInc(freq_);
 417              		.loc 2 48 20 view .LVU88
 418 004c 6761     		str	r7, [r4, #20]	@ float
  49:../../DaisySP/Source/Synthesis/oscillator.h ****         waveform_  = WAVE_SIN;
 419              		.loc 2 49 34 view .LVU89
 420 004e B0EE490A 		vmov.f32	s0, s18
  45:../../DaisySP/Source/Synthesis/oscillator.h ****         freq_      = 100.0f;
 421              		.loc 2 45 20 view .LVU90
 422 0052 C4ED047A 		vstr.32	s15, [r4, #16]
  46:../../DaisySP/Source/Synthesis/oscillator.h ****         amp_       = 0.5f;
 423              		.loc 2 46 9 is_stmt 1 view .LVU91
  47:../../DaisySP/Source/Synthesis/oscillator.h ****         phase_     = 0.0f;
 424              		.loc 2 47 9 view .LVU92
  48:../../DaisySP/Source/Synthesis/oscillator.h ****         phase_inc_ = CalcPhaseInc(freq_);
 425              		.loc 2 48 9 view .LVU93
  49:../../DaisySP/Source/Synthesis/oscillator.h ****         waveform_  = WAVE_SIN;
 426              		.loc 2 49 9 view .LVU94
  49:../../DaisySP/Source/Synthesis/oscillator.h ****         waveform_  = WAVE_SIN;
 427              		.loc 2 49 34 is_stmt 0 view .LVU95
 428 0056 FFF7FEFF 		bl	_ZN7daisysp10Oscillator12CalcPhaseIncEf
 429              	.LVL21:
 430 005a F0EE407A 		vmov.f32	s15, s0
  50:../../DaisySP/Source/Synthesis/oscillator.h ****         eoc_       = true;
 431              		.loc 2 50 20 view .LVU96
 432 005e 0022     		movs	r2, #0
  52:../../DaisySP/Source/Synthesis/oscillator.h ****     }
 433              		.loc 2 52 20 view .LVU97
 434 0060 40F20113 		movw	r3, #257
 435              	.LBE119:
 436              	.LBE124:
 437              		.loc 10 56 17 view .LVU98
 438 0064 B0EE480A 		vmov.f32	s0, s16
 439 0068 3046     		mov	r0, r6
 440              	.LBB125:
 441              	.LBB120:
  50:../../DaisySP/Source/Synthesis/oscillator.h ****         eoc_       = true;
 442              		.loc 2 50 20 view .LVU99
 443 006a 2270     		strb	r2, [r4]
  49:../../DaisySP/Source/Synthesis/oscillator.h ****         waveform_  = WAVE_SIN;
 444              		.loc 2 49 20 view .LVU100
 445 006c C4ED067A 		vstr.32	s15, [r4, #24]
  50:../../DaisySP/Source/Synthesis/oscillator.h ****         eoc_       = true;
 446              		.loc 2 50 9 is_stmt 1 view .LVU101
  51:../../DaisySP/Source/Synthesis/oscillator.h ****         eor_       = true;
 447              		.loc 2 51 9 view .LVU102
  52:../../DaisySP/Source/Synthesis/oscillator.h ****     }
 448              		.loc 2 52 9 view .LVU103
  52:../../DaisySP/Source/Synthesis/oscillator.h ****     }
 449              		.loc 2 52 20 is_stmt 0 view .LVU104
ARM GAS  /tmp/ccB8ZK0y.s 			page 18


 450 0070 A384     		strh	r3, [r4, #36]	@ movhi
 451              	.LVL22:
  52:../../DaisySP/Source/Synthesis/oscillator.h ****     }
 452              		.loc 2 52 20 view .LVU105
 453              	.LBE120:
 454              	.LBE125:
 455              		.loc 10 56 5 is_stmt 1 view .LVU106
 456              		.loc 10 56 17 is_stmt 0 view .LVU107
 457 0072 FFF7FEFF 		bl	_ZN7daisysp7Autowah4InitEf
 458              	.LVL23:
  57:autowah.cpp   **** 
  58:autowah.cpp   ****     // Set up metro to pulse every second
  59:autowah.cpp   ****     tick.Init(1.0f, sample_rate);
 459              		.loc 10 59 5 is_stmt 1 view .LVU108
 460              		.loc 10 59 14 is_stmt 0 view .LVU109
 461 0076 F0EE480A 		vmov.f32	s1, s16
 462 007a 1848     		ldr	r0, .L27+20
 463 007c B0EE680A 		vmov.f32	s0, s17
 464 0080 FFF7FEFF 		bl	_ZN7daisysp5Metro4InitEff
 465              	.LVL24:
  60:autowah.cpp   **** 
  61:autowah.cpp   ****     // set adenv parameters
  62:autowah.cpp   ****     env.SetTime(ADENV_SEG_ATTACK, 0.01);
 466              		.loc 10 62 5 is_stmt 1 view .LVU110
 467              	.LBB126:
 468              	.LBI126:
  57:../../DaisySP/Source/Control/adenv.h ****     /** Sets the length of time (in seconds) for a specific segment. */
  58:../../DaisySP/Source/Control/adenv.h ****     inline void SetTime(uint8_t seg, float time) { segment_time_[seg] = time; }
 469              		.loc 1 58 17 view .LVU111
 470              	.LBB127:
 471              		.loc 1 58 52 view .LVU112
 472              		.loc 1 58 71 is_stmt 0 view .LVU113
 473 0084 164A     		ldr	r2, .L27+24
 474              	.LBE127:
 475              	.LBE126:
 476              	.LBB129:
 477              	.LBB130:
  68:../../DaisySP/Source/Synthesis/oscillator.h ****     /** Sets the waveform to be synthesized by the Process() function.
  69:../../DaisySP/Source/Synthesis/oscillator.h ****     */
  70:../../DaisySP/Source/Synthesis/oscillator.h ****     inline void SetWaveform(const uint8_t wf)
  71:../../DaisySP/Source/Synthesis/oscillator.h ****     {
  72:../../DaisySP/Source/Synthesis/oscillator.h ****         waveform_ = wf < WAVE_LAST ? wf : WAVE_SIN;
 478              		.loc 2 72 19 view .LVU114
 479 0086 0223     		movs	r3, #2
 480              	.LBE130:
 481              	.LBE129:
 482              	.LBB132:
 483              	.LBB133:
  60:../../DaisySP/Source/Synthesis/oscillator.h ****         phase_inc_ = CalcPhaseInc(f);
 484              		.loc 2 60 20 view .LVU115
 485 0088 9FED160A 		vldr.32	s0, .L27+28
  61:../../DaisySP/Source/Synthesis/oscillator.h ****     }
 486              		.loc 2 61 34 view .LVU116
 487 008c 2046     		mov	r0, r4
 488              	.LBE133:
 489              	.LBE132:
 490              	.LBB137:
ARM GAS  /tmp/ccB8ZK0y.s 			page 19


 491              	.LBB128:
 492              		.loc 1 58 71 view .LVU117
 493 008e AA60     		str	r2, [r5, #8]	@ float
 494              	.LVL25:
 495              		.loc 1 58 71 view .LVU118
 496              	.LBE128:
 497              	.LBE137:
  63:autowah.cpp   ****     env.SetTime(ADENV_SEG_DECAY, 0.5);
 498              		.loc 10 63 5 is_stmt 1 view .LVU119
 499              	.LBB138:
 500              	.LBI138:
 501              		.loc 1 58 17 view .LVU120
 502              	.LBB139:
 503              		.loc 1 58 52 view .LVU121
 504              		.loc 1 58 52 is_stmt 0 view .LVU122
 505              	.LBE139:
 506              	.LBE138:
  64:autowah.cpp   ****     env.SetMin(0.0);
 507              		.loc 10 64 5 is_stmt 1 view .LVU123
 508              	.LBB141:
 509              	.LBI141:
  59:../../DaisySP/Source/Control/adenv.h ****     /** Sets the amount of curve applied. A positve value will create a log
  60:../../DaisySP/Source/Control/adenv.h ****         curve. Input range: -100 to 100.  (or more)
  61:../../DaisySP/Source/Control/adenv.h ****     */
  62:../../DaisySP/Source/Control/adenv.h ****     inline void SetCurve(float scalar) { curve_scalar_ = scalar; }
  63:../../DaisySP/Source/Control/adenv.h ****     /** Sets the minimum value of the envelope output.
  64:../../DaisySP/Source/Control/adenv.h ****         Input range: -FLTmax_, to FLTmax_
  65:../../DaisySP/Source/Control/adenv.h ****     */
  66:../../DaisySP/Source/Control/adenv.h ****     inline void SetMin(float min) { min_ = min; }
 510              		.loc 1 66 17 view .LVU124
 511              	.LBB142:
 512              		.loc 1 66 37 view .LVU125
 513              		.loc 1 66 37 is_stmt 0 view .LVU126
 514              	.LBE142:
 515              	.LBE141:
  65:autowah.cpp   ****     env.SetMax(0.5);
 516              		.loc 10 65 5 is_stmt 1 view .LVU127
 517              	.LBB144:
 518              	.LBI144:
  67:../../DaisySP/Source/Control/adenv.h ****     /** Sets the maximum value of the envelope output.
  68:../../DaisySP/Source/Control/adenv.h ****         Input range: -FLTmax_, to FLTmax_
  69:../../DaisySP/Source/Control/adenv.h ****     */
  70:../../DaisySP/Source/Control/adenv.h ****     inline void SetMax(float max) { max_ = max; }
 519              		.loc 1 70 17 view .LVU128
 520              	.LBB145:
 521              		.loc 1 70 37 view .LVU129
 522              		.loc 1 70 37 is_stmt 0 view .LVU130
 523              	.LBE145:
 524              	.LBE144:
  66:autowah.cpp   ****     env.SetCurve(0); // linear
 525              		.loc 10 66 5 is_stmt 1 view .LVU131
 526              	.LBB147:
 527              	.LBI147:
  62:../../DaisySP/Source/Control/adenv.h ****     /** Sets the minimum value of the envelope output.
 528              		.loc 1 62 17 view .LVU132
 529              	.LBB148:
  62:../../DaisySP/Source/Control/adenv.h ****     /** Sets the minimum value of the envelope output.
ARM GAS  /tmp/ccB8ZK0y.s 			page 20


 530              		.loc 1 62 42 view .LVU133
  62:../../DaisySP/Source/Control/adenv.h ****     /** Sets the minimum value of the envelope output.
 531              		.loc 1 62 42 is_stmt 0 view .LVU134
 532              	.LBE148:
 533              	.LBE147:
  67:autowah.cpp   **** 
  68:autowah.cpp   ****     // Set parameters for oscillator
  69:autowah.cpp   ****     osc.SetWaveform(osc.WAVE_SAW);
 534              		.loc 10 69 5 is_stmt 1 view .LVU135
 535              	.LBB150:
 536              	.LBI129:
  70:../../DaisySP/Source/Synthesis/oscillator.h ****     {
 537              		.loc 2 70 17 view .LVU136
 538              	.LBB131:
 539              		.loc 2 72 9 view .LVU137
 540              		.loc 2 72 19 is_stmt 0 view .LVU138
 541 0090 2370     		strb	r3, [r4]
 542              	.LVL26:
 543              		.loc 2 72 19 view .LVU139
 544              	.LBE131:
 545              	.LBE150:
  70:autowah.cpp   ****     osc.SetFreq(220);
 546              		.loc 10 70 5 is_stmt 1 view .LVU140
 547              	.LBB151:
 548              	.LBI132:
  58:../../DaisySP/Source/Synthesis/oscillator.h ****     {
 549              		.loc 2 58 17 view .LVU141
 550              	.LBB134:
  60:../../DaisySP/Source/Synthesis/oscillator.h ****         phase_inc_ = CalcPhaseInc(f);
 551              		.loc 2 60 9 view .LVU142
 552              	.LBE134:
 553              	.LBE151:
 554              	.LBB152:
 555              	.LBB140:
  58:../../DaisySP/Source/Control/adenv.h ****     /** Sets the amount of curve applied. A positve value will create a log
 556              		.loc 1 58 71 is_stmt 0 view .LVU143
 557 0092 C5F80C80 		str	r8, [r5, #12]	@ float
 558              	.LBE140:
 559              	.LBE152:
 560              	.LBB153:
 561              	.LBB143:
  66:../../DaisySP/Source/Control/adenv.h ****     /** Sets the maximum value of the envelope output.
 562              		.loc 1 66 42 view .LVU144
 563 0096 6F61     		str	r7, [r5, #20]	@ float
 564              	.LBE143:
 565              	.LBE153:
 566              	.LBB154:
 567              	.LBB146:
 568              		.loc 1 70 42 view .LVU145
 569 0098 C5F81880 		str	r8, [r5, #24]	@ float
 570              	.LBE146:
 571              	.LBE154:
 572              	.LBB155:
 573              	.LBB149:
  62:../../DaisySP/Source/Control/adenv.h ****     /** Sets the minimum value of the envelope output.
 574              		.loc 1 62 56 view .LVU146
 575 009c 2F62     		str	r7, [r5, #32]	@ float
ARM GAS  /tmp/ccB8ZK0y.s 			page 21


 576              	.LBE149:
 577              	.LBE155:
 578              	.LBB156:
 579              	.LBB135:
  60:../../DaisySP/Source/Synthesis/oscillator.h ****         phase_inc_ = CalcPhaseInc(f);
 580              		.loc 2 60 20 view .LVU147
 581 009e 84ED020A 		vstr.32	s0, [r4, #8]
  61:../../DaisySP/Source/Synthesis/oscillator.h ****     }
 582              		.loc 2 61 9 is_stmt 1 view .LVU148
  61:../../DaisySP/Source/Synthesis/oscillator.h ****     }
 583              		.loc 2 61 34 is_stmt 0 view .LVU149
 584 00a2 FFF7FEFF 		bl	_ZN7daisysp10Oscillator12CalcPhaseIncEf
 585              	.LVL27:
 586              	.LBE135:
 587              	.LBE156:
 588              	.LBB157:
 589              	.LBB158:
  67:../../DaisySP/Source/Synthesis/oscillator.h ****     /** Sets the waveform to be synthesized by the Process() function.
 590              		.loc 2 67 46 view .LVU150
 591 00a6 4FF07A52 		mov	r2, #1048576000
 592              	.LBE158:
 593              	.LBE157:
 594              	.LBB160:
 595              	.LBB161:
  21:../../DaisySP/Source/Effects/autowah.h ****     /** Initializes the Autowah module.
  22:../../DaisySP/Source/Effects/autowah.h ****         \param sample_rate - The sample rate of the audio engine being run. 
  23:../../DaisySP/Source/Effects/autowah.h ****     */
  24:../../DaisySP/Source/Effects/autowah.h ****     void Init(float sample_rate);
  25:../../DaisySP/Source/Effects/autowah.h **** 
  26:../../DaisySP/Source/Effects/autowah.h **** 
  27:../../DaisySP/Source/Effects/autowah.h ****     /** Initializes the Autowah module.
  28:../../DaisySP/Source/Effects/autowah.h ****         \param in - input signal to be wah'd
  29:../../DaisySP/Source/Effects/autowah.h ****     */
  30:../../DaisySP/Source/Effects/autowah.h ****     float Process(float in);
  31:../../DaisySP/Source/Effects/autowah.h **** 
  32:../../DaisySP/Source/Effects/autowah.h **** 
  33:../../DaisySP/Source/Effects/autowah.h ****     /** sets wah
  34:../../DaisySP/Source/Effects/autowah.h ****         \param wah : set wah amount
  35:../../DaisySP/Source/Effects/autowah.h ****     */
  36:../../DaisySP/Source/Effects/autowah.h ****     inline void SetWah(float wah) { wah_ = wah; }
  37:../../DaisySP/Source/Effects/autowah.h ****     /** sets mix amount
  38:../../DaisySP/Source/Effects/autowah.h ****         \param drywet : set effect dry/wet
  39:../../DaisySP/Source/Effects/autowah.h ****     */
  40:../../DaisySP/Source/Effects/autowah.h ****     inline void SetDryWet(float drywet) { wet_dry_ = drywet; }
  41:../../DaisySP/Source/Effects/autowah.h ****     /** sets wah level
  42:../../DaisySP/Source/Effects/autowah.h ****         \param level : set wah level
  43:../../DaisySP/Source/Effects/autowah.h ****     */
  44:../../DaisySP/Source/Effects/autowah.h ****     inline void SetLevel(float level) { level_ = level; }
 596              		.loc 3 44 48 view .LVU151
 597 00aa 0F4B     		ldr	r3, .L27+32
 598              	.LBE161:
 599              	.LBE160:
  71:autowah.cpp   ****     osc.SetAmp(0.25);
  72:autowah.cpp   **** 
  73:autowah.cpp   ****     //set autowah parameters
  74:autowah.cpp   ****     autowah.SetLevel(.1);
  75:autowah.cpp   ****     autowah.SetDryWet(100);
ARM GAS  /tmp/ccB8ZK0y.s 			page 22


  76:autowah.cpp   ****     autowah.SetWah(1);
  77:autowah.cpp   **** 
  78:autowah.cpp   **** 
  79:autowah.cpp   ****     // start callback
  80:autowah.cpp   ****     seed.StartAudio(AudioCallback);
 600              		.loc 10 80 20 view .LVU152
 601 00ac 0F49     		ldr	r1, .L27+36
 602 00ae 0648     		ldr	r0, .L27
 603              	.LBB163:
 604              	.LBB164:
  40:../../DaisySP/Source/Effects/autowah.h ****     /** sets wah level
 605              		.loc 3 40 52 view .LVU153
 606 00b0 86ED069A 		vstr.32	s18, [r6, #24]
 607              	.LBE164:
 608              	.LBE163:
 609              	.LBB166:
 610              	.LBB167:
  36:../../DaisySP/Source/Effects/autowah.h ****     /** sets mix amount
 611              		.loc 3 36 42 view .LVU154
 612 00b4 C6ED048A 		vstr.32	s17, [r6, #16]
 613              	.LBE167:
 614              	.LBE166:
 615              	.LBB169:
 616              	.LBB136:
  61:../../DaisySP/Source/Synthesis/oscillator.h ****     }
 617              		.loc 2 61 20 view .LVU155
 618 00b8 84ED060A 		vstr.32	s0, [r4, #24]
 619              	.LVL28:
  61:../../DaisySP/Source/Synthesis/oscillator.h ****     }
 620              		.loc 2 61 20 view .LVU156
 621              	.LBE136:
 622              	.LBE169:
  71:autowah.cpp   **** 
 623              		.loc 10 71 5 is_stmt 1 view .LVU157
 624              	.LBB170:
 625              	.LBI157:
  67:../../DaisySP/Source/Synthesis/oscillator.h ****     /** Sets the waveform to be synthesized by the Process() function.
 626              		.loc 2 67 17 view .LVU158
 627              	.LBB159:
  67:../../DaisySP/Source/Synthesis/oscillator.h ****     /** Sets the waveform to be synthesized by the Process() function.
 628              		.loc 2 67 41 view .LVU159
  67:../../DaisySP/Source/Synthesis/oscillator.h ****     /** Sets the waveform to be synthesized by the Process() function.
 629              		.loc 2 67 46 is_stmt 0 view .LVU160
 630 00bc 6260     		str	r2, [r4, #4]	@ float
 631              	.LVL29:
  67:../../DaisySP/Source/Synthesis/oscillator.h ****     /** Sets the waveform to be synthesized by the Process() function.
 632              		.loc 2 67 46 view .LVU161
 633              	.LBE159:
 634              	.LBE170:
  74:autowah.cpp   ****     autowah.SetDryWet(100);
 635              		.loc 10 74 5 is_stmt 1 view .LVU162
 636              	.LBB171:
 637              	.LBI160:
 638              		.loc 3 44 17 view .LVU163
 639              	.LBB162:
 640              		.loc 3 44 41 view .LVU164
 641              		.loc 3 44 48 is_stmt 0 view .LVU165
ARM GAS  /tmp/ccB8ZK0y.s 			page 23


 642 00be 7361     		str	r3, [r6, #20]	@ float
 643              	.LVL30:
 644              		.loc 3 44 48 view .LVU166
 645              	.LBE162:
 646              	.LBE171:
  75:autowah.cpp   ****     autowah.SetWah(1);
 647              		.loc 10 75 5 is_stmt 1 view .LVU167
 648              	.LBB172:
 649              	.LBI163:
  40:../../DaisySP/Source/Effects/autowah.h ****     /** sets wah level
 650              		.loc 3 40 17 view .LVU168
 651              	.LBB165:
  40:../../DaisySP/Source/Effects/autowah.h ****     /** sets wah level
 652              		.loc 3 40 43 view .LVU169
  40:../../DaisySP/Source/Effects/autowah.h ****     /** sets wah level
 653              		.loc 3 40 43 is_stmt 0 view .LVU170
 654              	.LBE165:
 655              	.LBE172:
  76:autowah.cpp   **** 
 656              		.loc 10 76 5 is_stmt 1 view .LVU171
 657              	.LBB173:
 658              	.LBI166:
  36:../../DaisySP/Source/Effects/autowah.h ****     /** sets mix amount
 659              		.loc 3 36 17 view .LVU172
 660              	.LBB168:
  36:../../DaisySP/Source/Effects/autowah.h ****     /** sets mix amount
 661              		.loc 3 36 37 view .LVU173
  36:../../DaisySP/Source/Effects/autowah.h ****     /** sets mix amount
 662              		.loc 3 36 37 is_stmt 0 view .LVU174
 663              	.LBE168:
 664              	.LBE173:
 665              		.loc 10 80 5 is_stmt 1 view .LVU175
 666              		.loc 10 80 20 is_stmt 0 view .LVU176
 667 00c0 FFF7FEFF 		bl	_ZN5daisy9DaisySeed10StartAudioEPFvPKfPfjE
 668              	.LVL31:
 669              	.L25:
  81:autowah.cpp   **** 
  82:autowah.cpp   **** 
  83:autowah.cpp   ****     while(1) {}
 670              		.loc 10 83 5 is_stmt 1 discriminator 1 view .LVU177
 671              		.loc 10 83 5 discriminator 1 view .LVU178
 672              		.loc 10 83 5 discriminator 1 view .LVU179
 673              		.loc 10 83 5 discriminator 1 view .LVU180
 674 00c4 FEE7     		b	.L25
 675              	.L28:
 676 00c6 00BF     		.align	2
 677              	.L27:
 678 00c8 00000000 		.word	.LANCHOR4
 679 00cc 00000000 		.word	.LANCHOR1
 680 00d0 00000000 		.word	.LANCHOR2
 681 00d4 00000000 		.word	.LANCHOR3
 682 00d8 0000C842 		.word	1120403456
 683 00dc 00000000 		.word	.LANCHOR0
 684 00e0 0AD7233C 		.word	1008981770
 685 00e4 00005C43 		.word	1130102784
 686 00e8 CDCCCC3D 		.word	1036831949
 687 00ec 00000000 		.word	_ZL13AudioCallbackPKfPfj
ARM GAS  /tmp/ccB8ZK0y.s 			page 24


 688              		.cfi_endproc
 689              	.LFE4213:
 691              		.section	.text.startup._GLOBAL__sub_I_main,"ax",%progbits
 692              		.align	1
 693              		.p2align 2,,3
 694              		.syntax unified
 695              		.thumb
 696              		.thumb_func
 697              		.fpu fpv5-d16
 699              	_GLOBAL__sub_I_main:
 700              	.LFB4759:
  84:autowah.cpp   **** }
 701              		.loc 10 84 1 view -0
 702              		.cfi_startproc
 703              		@ args = 0, pretend = 0, frame = 0
 704              		@ frame_needed = 0, uses_anonymous_args = 0
 705              	.LBB197:
 706              	.LBI197:
 707              		.loc 10 84 1 view .LVU182
 708              	.LVL32:
 709              	.LBB198:
 710              	.LBB199:
 711              	.LBI199:
  21:../../libdaisy/src/daisy_seed.h ****     ~DaisySeed() {}
 712              		.loc 5 21 5 view .LVU183
 713              	.LBB200:
 714              	.LBB201:
 715              	.LBI201:
  62:../../libdaisy/src/hid/audio.h ****     ~AudioHandle() {}
 716              		.loc 9 62 5 view .LVU184
 717              	.LBE201:
 718              	.LBE200:
 719              	.LBE199:
 720              	.LBE198:
 721              	.LBE197:
 722              		.loc 10 84 1 is_stmt 0 view .LVU185
 723 0000 08B5     		push	{r3, lr}
 724              		.cfi_def_cfa_offset 8
 725              		.cfi_offset 3, -8
 726              		.cfi_offset 14, -4
 727              	.LBB224:
 728              	.LBB222:
 729              	.LBB216:
 730              	.LBB214:
 731              	.LBB206:
 732              	.LBB202:
 733              	.LBB203:
  62:../../libdaisy/src/hid/audio.h ****     ~AudioHandle() {}
 734              		.loc 9 62 35 view .LVU186
 735 0002 0F48     		ldr	r0, .L31
 736 0004 0023     		movs	r3, #0
 737              	.LBE203:
 738              	.LBE202:
 739              	.LBE206:
 740              	.LBE214:
 741              	.LBE216:
  16:autowah.cpp   **** static AdEnv      env;
ARM GAS  /tmp/ccB8ZK0y.s 			page 25


 742              		.loc 10 16 19 view .LVU187
 743 0006 0F4A     		ldr	r2, .L31+4
 744              	.LBB217:
 745              	.LBB215:
 746              	.LBB207:
 747              	.LBB205:
 748              	.LBB204:
  62:../../libdaisy/src/hid/audio.h ****     ~AudioHandle() {}
 749              		.loc 9 62 35 view .LVU188
 750 0008 4361     		str	r3, [r0, #20]
 751              	.LVL33:
  62:../../libdaisy/src/hid/audio.h ****     ~AudioHandle() {}
 752              		.loc 9 62 35 view .LVU189
 753              	.LBE204:
 754              	.LBE205:
 755              	.LBE207:
 756              	.LBB208:
 757              	.LBI208:
  84:../../libdaisy/src/per/adc.h ****     ~AdcHandle() {}
 758              		.loc 8 84 5 is_stmt 1 view .LVU190
  84:../../libdaisy/src/per/adc.h ****     ~AdcHandle() {}
 759              		.loc 8 84 5 is_stmt 0 view .LVU191
 760              	.LBE208:
 761              	.LBB209:
 762              	.LBI209:
 763              		.file 11 "../../libdaisy/src/per/dac.h"
   1:../../libdaisy/src/per/dac.h **** #pragma once
   2:../../libdaisy/src/per/dac.h **** #ifndef DSY_DAC_H
   3:../../libdaisy/src/per/dac.h **** #define DSY_DAC_H
   4:../../libdaisy/src/per/dac.h **** 
   5:../../libdaisy/src/per/dac.h **** #include "daisy_core.h"
   6:../../libdaisy/src/per/dac.h **** 
   7:../../libdaisy/src/per/dac.h **** namespace daisy
   8:../../libdaisy/src/per/dac.h **** {
   9:../../libdaisy/src/per/dac.h **** /** DAC handle for Built-in DAC Peripheral 
  10:../../libdaisy/src/per/dac.h ****  ** 
  11:../../libdaisy/src/per/dac.h ****  ** For now only Normal Mode is supported,
  12:../../libdaisy/src/per/dac.h ****  ** Sample and hold mode provides reduced power consumption, but requires a bit more setup.
  13:../../libdaisy/src/per/dac.h ****  **
  14:../../libdaisy/src/per/dac.h ****  ** For now connecting the DAC through other internal periphearls is also not supported.
  15:../../libdaisy/src/per/dac.h ****  **
  16:../../libdaisy/src/per/dac.h ****  ** Since the DAC channels have dedicated pins we don't need to pass in a pin config like with
  17:../../libdaisy/src/per/dac.h ****  ** other modules. However, it is still important to not try to use the DAC pins for anything else.
  18:../../libdaisy/src/per/dac.h ****  ** DAC Channel 1 is on PA4, and DAC Channel 2 is on PA5
  19:../../libdaisy/src/per/dac.h ****  ***/
  20:../../libdaisy/src/per/dac.h **** class DacHandle
  21:../../libdaisy/src/per/dac.h **** {
  22:../../libdaisy/src/per/dac.h ****   public:
  23:../../libdaisy/src/per/dac.h ****     /** Return Values for the DacHandle class */
  24:../../libdaisy/src/per/dac.h ****     enum class Result
  25:../../libdaisy/src/per/dac.h ****     {
  26:../../libdaisy/src/per/dac.h ****         OK,
  27:../../libdaisy/src/per/dac.h ****         ERR,
  28:../../libdaisy/src/per/dac.h ****     };
  29:../../libdaisy/src/per/dac.h **** 
  30:../../libdaisy/src/per/dac.h ****     /** Selects which channel(s) will be configured for use. */
  31:../../libdaisy/src/per/dac.h ****     enum class Channel
ARM GAS  /tmp/ccB8ZK0y.s 			page 26


  32:../../libdaisy/src/per/dac.h ****     {
  33:../../libdaisy/src/per/dac.h ****         ONE,
  34:../../libdaisy/src/per/dac.h ****         TWO,
  35:../../libdaisy/src/per/dac.h ****         BOTH,
  36:../../libdaisy/src/per/dac.h ****     };
  37:../../libdaisy/src/per/dac.h **** 
  38:../../libdaisy/src/per/dac.h ****     /** Sets the Mode for the DAC channels.
  39:../../libdaisy/src/per/dac.h ****      **
  40:../../libdaisy/src/per/dac.h ****      ** Polling mode uses the blocking mode to transmit a single value at a time.
  41:../../libdaisy/src/per/dac.h ****      **
  42:../../libdaisy/src/per/dac.h ****      ** DMA mode uses a buffer, and periodically transmits it triggering a 
  43:../../libdaisy/src/per/dac.h ****      ** callback to fill the buffer when it is ready for more samples.
  44:../../libdaisy/src/per/dac.h ****      ***/
  45:../../libdaisy/src/per/dac.h ****     enum class Mode
  46:../../libdaisy/src/per/dac.h ****     {
  47:../../libdaisy/src/per/dac.h ****         POLLING,
  48:../../libdaisy/src/per/dac.h ****         DMA,
  49:../../libdaisy/src/per/dac.h ****     };
  50:../../libdaisy/src/per/dac.h **** 
  51:../../libdaisy/src/per/dac.h ****     /** Sets the number of bits per sample transmitted out of the DAC.
  52:../../libdaisy/src/per/dac.h ****      ** The output range will be: 0V - VDDA
  53:../../libdaisy/src/per/dac.h ****      ** The resolution will be roughly: bitdepth / (VDDA - 0V) 
  54:../../libdaisy/src/per/dac.h ****      ***/
  55:../../libdaisy/src/per/dac.h ****     enum class BitDepth
  56:../../libdaisy/src/per/dac.h ****     {
  57:../../libdaisy/src/per/dac.h ****         BITS_8,
  58:../../libdaisy/src/per/dac.h ****         BITS_12
  59:../../libdaisy/src/per/dac.h ****     };
  60:../../libdaisy/src/per/dac.h **** 
  61:../../libdaisy/src/per/dac.h ****     /** Sets whether the DAC output is buffered for higher drive ability. */
  62:../../libdaisy/src/per/dac.h ****     enum class BufferState
  63:../../libdaisy/src/per/dac.h ****     {
  64:../../libdaisy/src/per/dac.h ****         ENABLED,
  65:../../libdaisy/src/per/dac.h ****         DISABLED,
  66:../../libdaisy/src/per/dac.h ****     };
  67:../../libdaisy/src/per/dac.h **** 
  68:../../libdaisy/src/per/dac.h ****     /** Configuration structure for initializing the DAC structure. */
  69:../../libdaisy/src/per/dac.h ****     struct Config
  70:../../libdaisy/src/per/dac.h ****     {
  71:../../libdaisy/src/per/dac.h ****         /** Target Samplerate in Hz used to configure the internal 
  72:../../libdaisy/src/per/dac.h ****          ** timebase for DMA mode. Does nothing in POLLING mode.
  73:../../libdaisy/src/per/dac.h ****          ** If the value is 0 at Init time this will default to 48000Hz 
  74:../../libdaisy/src/per/dac.h ****          ** otherwise the driver will attempt meet the target.*/
  75:../../libdaisy/src/per/dac.h ****         uint32_t target_samplerate;
  76:../../libdaisy/src/per/dac.h **** 
  77:../../libdaisy/src/per/dac.h ****         Channel     chn;
  78:../../libdaisy/src/per/dac.h ****         Mode        mode;
  79:../../libdaisy/src/per/dac.h ****         BitDepth    bitdepth;
  80:../../libdaisy/src/per/dac.h ****         BufferState buff_state;
  81:../../libdaisy/src/per/dac.h ****     };
  82:../../libdaisy/src/per/dac.h **** 
  83:../../libdaisy/src/per/dac.h ****     DacHandle() : pimpl_(nullptr) {}
 764              		.loc 11 83 5 is_stmt 1 view .LVU192
 765              	.LBB210:
 766              	.LBB211:
 767              		.loc 11 83 33 is_stmt 0 view .LVU193
 768 000a 0362     		str	r3, [r0, #32]
ARM GAS  /tmp/ccB8ZK0y.s 			page 27


 769              	.LVL34:
 770              		.loc 11 83 33 view .LVU194
 771              	.LBE211:
 772              	.LBE210:
 773              	.LBE209:
 774              	.LBB212:
 775              	.LBI212:
  40:../../libdaisy/src/hid/usb.h **** 
 776              		.loc 7 40 5 is_stmt 1 view .LVU195
  40:../../libdaisy/src/hid/usb.h **** 
 777              		.loc 7 40 5 is_stmt 0 view .LVU196
 778              	.LBE212:
 779              	.LBB213:
 780              	.LBI213:
  58:../../libdaisy/src/sys/system.h ****     ~System() {}
 781              		.loc 6 58 5 is_stmt 1 view .LVU197
  58:../../libdaisy/src/sys/system.h ****     ~System() {}
 782              		.loc 6 58 5 is_stmt 0 view .LVU198
 783              	.LBE213:
 784              	.LBE215:
 785              	.LBE217:
  16:autowah.cpp   **** static AdEnv      env;
 786              		.loc 10 16 19 view .LVU199
 787 000c 0E49     		ldr	r1, .L31+8
 788 000e FFF7FEFF 		bl	__aeabi_atexit
 789              	.LVL35:
 790              	.LBB218:
 791              	.LBI218:
  34:../../DaisySP/Source/Control/adenv.h ****     ~AdEnv() {}
 792              		.loc 1 34 5 is_stmt 1 view .LVU200
  34:../../DaisySP/Source/Control/adenv.h ****     ~AdEnv() {}
 793              		.loc 1 34 5 is_stmt 0 view .LVU201
 794              	.LBE218:
  17:autowah.cpp   **** static Oscillator osc;
 795              		.loc 10 17 19 view .LVU202
 796 0012 0C4A     		ldr	r2, .L31+4
 797 0014 0D49     		ldr	r1, .L31+12
 798 0016 0E48     		ldr	r0, .L31+16
 799 0018 FFF7FEFF 		bl	__aeabi_atexit
 800              	.LVL36:
 801              	.LBB219:
 802              	.LBI219:
  15:../../DaisySP/Source/Synthesis/oscillator.h ****     ~Oscillator() {}
 803              		.loc 2 15 5 is_stmt 1 view .LVU203
  15:../../DaisySP/Source/Synthesis/oscillator.h ****     ~Oscillator() {}
 804              		.loc 2 15 5 is_stmt 0 view .LVU204
 805              	.LBE219:
  18:autowah.cpp   **** static Metro      tick;
 806              		.loc 10 18 19 view .LVU205
 807 001c 094A     		ldr	r2, .L31+4
 808 001e 0D49     		ldr	r1, .L31+20
 809 0020 0D48     		ldr	r0, .L31+24
 810 0022 FFF7FEFF 		bl	__aeabi_atexit
 811              	.LVL37:
 812              	.LBB220:
 813              	.LBI220:
  14:../../DaisySP/Source/Utility/metro.h ****     ~Metro() {}
ARM GAS  /tmp/ccB8ZK0y.s 			page 28


 814              		.loc 4 14 5 is_stmt 1 view .LVU206
  14:../../DaisySP/Source/Utility/metro.h ****     ~Metro() {}
 815              		.loc 4 14 5 is_stmt 0 view .LVU207
 816              	.LBE220:
  19:autowah.cpp   **** static Autowah    autowah;
 817              		.loc 10 19 19 view .LVU208
 818 0026 074A     		ldr	r2, .L31+4
 819 0028 0C49     		ldr	r1, .L31+28
 820 002a 0D48     		ldr	r0, .L31+32
 821 002c FFF7FEFF 		bl	__aeabi_atexit
 822              	.LVL38:
 823              	.LBB221:
 824              	.LBI221:
  19:../../DaisySP/Source/Effects/autowah.h ****     ~Autowah() {}
 825              		.loc 3 19 5 is_stmt 1 view .LVU209
  19:../../DaisySP/Source/Effects/autowah.h ****     ~Autowah() {}
 826              		.loc 3 19 5 is_stmt 0 view .LVU210
 827              	.LBE221:
  20:autowah.cpp   **** 
 828              		.loc 10 20 19 view .LVU211
 829 0030 044A     		ldr	r2, .L31+4
 830 0032 0C49     		ldr	r1, .L31+36
 831 0034 0C48     		ldr	r0, .L31+40
 832              	.LBE222:
 833              	.LBE224:
 834              		.loc 10 84 1 view .LVU212
 835 0036 BDE80840 		pop	{r3, lr}
 836              		.cfi_restore 14
 837              		.cfi_restore 3
 838              		.cfi_def_cfa_offset 0
 839              	.LBB225:
 840              	.LBB223:
  20:autowah.cpp   **** 
 841              		.loc 10 20 19 view .LVU213
 842 003a FFF7FEBF 		b	__aeabi_atexit
 843              	.LVL39:
 844              	.L32:
 845 003e 00BF     		.align	2
 846              	.L31:
 847 0040 00000000 		.word	.LANCHOR4
 848 0044 00000000 		.word	__dso_handle
 849 0048 00000000 		.word	_ZN5daisy9DaisySeedD1Ev
 850 004c 00000000 		.word	_ZN7daisysp5AdEnvD1Ev
 851 0050 00000000 		.word	.LANCHOR1
 852 0054 00000000 		.word	_ZN7daisysp10OscillatorD1Ev
 853 0058 00000000 		.word	.LANCHOR2
 854 005c 00000000 		.word	_ZN7daisysp5MetroD1Ev
 855 0060 00000000 		.word	.LANCHOR0
 856 0064 00000000 		.word	_ZN7daisysp7AutowahD1Ev
 857 0068 00000000 		.word	.LANCHOR3
 858              	.LBE223:
 859              	.LBE225:
 860              		.cfi_endproc
 861              	.LFE4759:
 863              		.section	.init_array,"aw",%init_array
 864              		.align	2
 865 0000 00000000 		.word	_GLOBAL__sub_I_main(target1)
ARM GAS  /tmp/ccB8ZK0y.s 			page 29


 866              		.section	.bss._ZL3env,"aw",%nobits
 867              		.align	2
 868              		.set	.LANCHOR1,. + 0
 871              	_ZL3env:
 872 0000 00000000 		.space	56
 872      00000000 
 872      00000000 
 872      00000000 
 872      00000000 
 873              		.section	.bss._ZL3osc,"aw",%nobits
 874              		.align	2
 875              		.set	.LANCHOR2,. + 0
 878              	_ZL3osc:
 879 0000 00000000 		.space	40
 879      00000000 
 879      00000000 
 879      00000000 
 879      00000000 
 880              		.section	.bss._ZL4seed,"aw",%nobits
 881              		.align	2
 882              		.set	.LANCHOR4,. + 0
 885              	_ZL4seed:
 886 0000 00000000 		.space	60
 886      00000000 
 886      00000000 
 886      00000000 
 886      00000000 
 887              		.section	.bss._ZL4tick,"aw",%nobits
 888              		.align	2
 889              		.set	.LANCHOR0,. + 0
 892              	_ZL4tick:
 893 0000 00000000 		.space	16
 893      00000000 
 893      00000000 
 893      00000000 
 894              		.section	.bss._ZL7autowah,"aw",%nobits
 895              		.align	2
 896              		.set	.LANCHOR3,. + 0
 899              	_ZL7autowah:
 900 0000 00000000 		.space	80
 900      00000000 
 900      00000000 
 900      00000000 
 900      00000000 
 901              		.text
 902              	.Letext0:
 903              		.file 12 "/usr/lib/gcc/arm-none-eabi/9.2.1/include/stdint.h"
 904              		.file 13 "../../libdaisy/Drivers/CMSIS/Include/core_cm7.h"
 905              		.file 14 "../../libdaisy/Drivers/CMSIS/Device/ST/STM32H7xx/Include/system_stm32h7xx.h"
 906              		.file 15 "/usr/lib/gcc/arm-none-eabi/9.2.1/include/stddef.h"
 907              		.file 16 "/usr/include/newlib/c++/9.2.1/cmath"
 908              		.file 17 "/usr/include/newlib/c++/9.2.1/bits/std_abs.h"
 909              		.file 18 "/usr/include/newlib/c++/9.2.1/cstdint"
 910              		.file 19 "/usr/include/newlib/c++/9.2.1/cstdlib"
 911              		.file 20 "/usr/include/newlib/c++/9.2.1/type_traits"
 912              		.file 21 "/usr/include/newlib/c++/9.2.1/arm-none-eabi/thumb/v7e-m+dp/hard/bits/c++config.h"
 913              		.file 22 "/usr/include/newlib/c++/9.2.1/bits/stl_pair.h"
ARM GAS  /tmp/ccB8ZK0y.s 			page 30


 914              		.file 23 "/usr/include/newlib/c++/9.2.1/debug/debug.h"
 915              		.file 24 "/usr/include/newlib/c++/9.2.1/cwchar"
 916              		.file 25 "/usr/include/newlib/c++/9.2.1/bits/exception_ptr.h"
 917              		.file 26 "/usr/include/newlib/c++/9.2.1/new"
 918              		.file 27 "/usr/include/newlib/c++/9.2.1/clocale"
 919              		.file 28 "/usr/include/newlib/c++/9.2.1/cstdio"
 920              		.file 29 "/usr/include/newlib/c++/9.2.1/bits/basic_string.h"
 921              		.file 30 "/usr/include/newlib/c++/9.2.1/bits/uniform_int_dist.h"
 922              		.file 31 "/usr/include/newlib/c++/9.2.1/bits/random.h"
 923              		.file 32 "/usr/include/newlib/c++/9.2.1/cstring"
 924              		.file 33 "/usr/include/newlib/c++/9.2.1/bits/algorithmfwd.h"
 925              		.file 34 "/usr/include/newlib/c++/9.2.1/cstdarg"
 926              		.file 35 "/usr/include/newlib/c++/9.2.1/bits/predefined_ops.h"
 927              		.file 36 "/usr/include/newlib/c++/9.2.1/ext/new_allocator.h"
 928              		.file 37 "/usr/include/newlib/c++/9.2.1/ext/numeric_traits.h"
 929              		.file 38 "/usr/include/newlib/sys/_types.h"
 930              		.file 39 "<built-in>"
 931              		.file 40 "/usr/include/newlib/sys/reent.h"
 932              		.file 41 "/usr/include/newlib/sys/lock.h"
 933              		.file 42 "/usr/include/newlib/math.h"
 934              		.file 43 "/usr/include/newlib/stdlib.h"
 935              		.file 44 "/usr/include/newlib/c++/9.2.1/math.h"
 936              		.file 45 "../../libdaisy/Drivers/STM32H7xx_HAL_Driver/Inc/stm32h7xx_hal_def.h"
 937              		.file 46 "../../libdaisy/Drivers/STM32H7xx_HAL_Driver/Inc/stm32h7xx_hal_flash.h"
 938              		.file 47 "../../DaisySP/Source/Utility/dsp.h"
 939              		.file 48 "/usr/lib/gcc/arm-none-eabi/9.2.1/include/stdarg.h"
 940              		.file 49 "/usr/include/newlib/wchar.h"
 941              		.file 50 "/usr/include/newlib/locale.h"
 942              		.file 51 "/usr/include/newlib/ctype.h"
 943              		.file 52 "/usr/include/newlib/stdio.h"
 944              		.file 53 "/usr/include/newlib/sys/errno.h"
 945              		.file 54 "/usr/include/newlib/c++/9.2.1/stdlib.h"
 946              		.file 55 "/usr/include/newlib/string.h"
 947              		.file 56 "../../libdaisy/src/daisy_core.h"
 948              		.file 57 "../../libdaisy/src/per/tim.h"
 949              		.file 58 "../../libdaisy/src/per/sai.h"
 950              		.file 59 "../../libdaisy/src/util/wav_format.h"
 951              		.file 60 "../../libdaisy/src/per/qspi.h"
 952              		.file 61 "../../libdaisy/src/per/gpio.h"
 953              		.file 62 "../../libdaisy/src/dev/sdram.h"
 954              		.file 63 "/usr/include/newlib/sys/unistd.h"
 955              		.file 64 "../../libdaisy/src/util/oled_fonts.h"
 956              		.file 65 "../../libdaisy/Middlewares/Third_Party/FatFs/src/integer.h"
 957              		.file 66 "../../libdaisy/Middlewares/Third_Party/FatFs/src/ff.h"
 958              		.file 67 "../../libdaisy/Middlewares/Third_Party/FatFs/src/diskio.h"
 959              		.file 68 "../../libdaisy/Middlewares/Third_Party/FatFs/src/ff_gen_drv.h"
 960              		.file 69 "../../libdaisy/src/util/sd_diskio.h"
 961              		.file 70 "../../libdaisy/src/sys/fatfs.h"
 962              		.file 71 "../../libdaisy/src/dev/sr_595.h"
ARM GAS  /tmp/ccB8ZK0y.s 			page 31

