ARM GAS  /tmp/ccpeNZea.s 			page 1


   1              		.cpu cortex-m7
   2              		.eabi_attribute 28, 1
   3              		.eabi_attribute 20, 1
   4              		.eabi_attribute 21, 1
   5              		.eabi_attribute 23, 3
   6              		.eabi_attribute 24, 1
   7              		.eabi_attribute 25, 1
   8              		.eabi_attribute 26, 1
   9              		.eabi_attribute 30, 2
  10              		.eabi_attribute 34, 1
  11              		.eabi_attribute 18, 4
  12              		.file	"comb.cpp"
  13              		.text
  14              	.Ltext0:
  15              		.cfi_sections	.debug_frame
  16              		.section	.text._ZN7daisysp4CombD2Ev,"axG",%progbits,_ZN7daisysp4CombD5Ev,comdat
  17              		.align	1
  18              		.p2align 2,,3
  19              		.weak	_ZN7daisysp4CombD2Ev
  20              		.arch armv7e-m
  21              		.syntax unified
  22              		.thumb
  23              		.thumb_func
  24              		.fpu fpv5-d16
  26              	_ZN7daisysp4CombD2Ev:
  27              	.LVL0:
  28              	.LFB3069:
  29              		.file 1 "../../DaisySP/Source/Filters/comb.h"
   1:../../DaisySP/Source/Filters/comb.h **** #pragma once
   2:../../DaisySP/Source/Filters/comb.h **** #ifndef DSY_COMB_H
   3:../../DaisySP/Source/Filters/comb.h **** #define DSY_COMB_H
   4:../../DaisySP/Source/Filters/comb.h **** #ifdef __cplusplus
   5:../../DaisySP/Source/Filters/comb.h **** 
   6:../../DaisySP/Source/Filters/comb.h **** #include "Utility/dsp.h"
   7:../../DaisySP/Source/Filters/comb.h **** 
   8:../../DaisySP/Source/Filters/comb.h **** namespace daisysp
   9:../../DaisySP/Source/Filters/comb.h **** {
  10:../../DaisySP/Source/Filters/comb.h **** /** Comb filter module
  11:../../DaisySP/Source/Filters/comb.h **** 
  12:../../DaisySP/Source/Filters/comb.h ****     Original author(s) :
  13:../../DaisySP/Source/Filters/comb.h **** 
  14:../../DaisySP/Source/Filters/comb.h ****     Ported from soundpipe by Ben Sergentanis, May 2020
  15:../../DaisySP/Source/Filters/comb.h **** */
  16:../../DaisySP/Source/Filters/comb.h **** class Comb
  17:../../DaisySP/Source/Filters/comb.h **** {
  18:../../DaisySP/Source/Filters/comb.h ****   public:
  19:../../DaisySP/Source/Filters/comb.h ****     Comb() {}
  20:../../DaisySP/Source/Filters/comb.h ****     ~Comb() {}
  30              		.loc 1 20 5 view -0
  31              		.cfi_startproc
  32              		@ args = 0, pretend = 0, frame = 0
  33              		@ frame_needed = 0, uses_anonymous_args = 0
  34              		@ link register save eliminated.
  35              		.loc 1 20 14 is_stmt 0 view .LVU1
  36 0000 7047     		bx	lr
  37              		.cfi_endproc
  38              	.LFE3069:
ARM GAS  /tmp/ccpeNZea.s 			page 2


  40              		.weak	_ZN7daisysp4CombD1Ev
  41              		.thumb_set _ZN7daisysp4CombD1Ev,_ZN7daisysp4CombD2Ev
  42 0002 00BF     		.section	.text._ZN7daisysp10WhiteNoiseD2Ev,"axG",%progbits,_ZN7daisysp10WhiteNoiseD5Ev,comdat
  43              		.align	1
  44              		.p2align 2,,3
  45              		.weak	_ZN7daisysp10WhiteNoiseD2Ev
  46              		.syntax unified
  47              		.thumb
  48              		.thumb_func
  49              		.fpu fpv5-d16
  51              	_ZN7daisysp10WhiteNoiseD2Ev:
  52              	.LVL1:
  53              	.LFB3188:
  54              		.file 2 "../../DaisySP/Source/Noise/whitenoise.h"
   1:../../DaisySP/Source/Noise/whitenoise.h **** #pragma once
   2:../../DaisySP/Source/Noise/whitenoise.h **** #ifndef DSY_WHITENOISE_H
   3:../../DaisySP/Source/Noise/whitenoise.h **** #define DSY_WHITENOISE_H
   4:../../DaisySP/Source/Noise/whitenoise.h **** #include <stdint.h>
   5:../../DaisySP/Source/Noise/whitenoise.h **** #ifdef __cplusplus
   6:../../DaisySP/Source/Noise/whitenoise.h **** namespace daisysp
   7:../../DaisySP/Source/Noise/whitenoise.h **** {
   8:../../DaisySP/Source/Noise/whitenoise.h **** /** fast white noise generator
   9:../../DaisySP/Source/Noise/whitenoise.h **** 
  10:../../DaisySP/Source/Noise/whitenoise.h ****     I think this came from musicdsp.org at some point
  11:../../DaisySP/Source/Noise/whitenoise.h **** */
  12:../../DaisySP/Source/Noise/whitenoise.h **** class WhiteNoise
  13:../../DaisySP/Source/Noise/whitenoise.h **** {
  14:../../DaisySP/Source/Noise/whitenoise.h ****   public:
  15:../../DaisySP/Source/Noise/whitenoise.h ****     WhiteNoise() {}
  16:../../DaisySP/Source/Noise/whitenoise.h ****     ~WhiteNoise() {}
  55              		.loc 2 16 5 is_stmt 1 view -0
  56              		.cfi_startproc
  57              		@ args = 0, pretend = 0, frame = 0
  58              		@ frame_needed = 0, uses_anonymous_args = 0
  59              		@ link register save eliminated.
  60              		.loc 2 16 20 is_stmt 0 view .LVU3
  61 0000 7047     		bx	lr
  62              		.cfi_endproc
  63              	.LFE3188:
  65              		.weak	_ZN7daisysp10WhiteNoiseD1Ev
  66              		.thumb_set _ZN7daisysp10WhiteNoiseD1Ev,_ZN7daisysp10WhiteNoiseD2Ev
  67 0002 00BF     		.section	.text._ZN5daisy9DaisySeedD2Ev,"axG",%progbits,_ZN5daisy9DaisySeedD5Ev,comdat
  68              		.align	1
  69              		.p2align 2,,3
  70              		.weak	_ZN5daisy9DaisySeedD2Ev
  71              		.syntax unified
  72              		.thumb
  73              		.thumb_func
  74              		.fpu fpv5-d16
  76              	_ZN5daisy9DaisySeedD2Ev:
  77              	.LVL2:
  78              	.LFB4207:
  79              		.file 3 "../../libdaisy/src/daisy_seed.h"
   1:../../libdaisy/src/daisy_seed.h **** #pragma once
   2:../../libdaisy/src/daisy_seed.h **** #ifndef DSY_SEED_H
   3:../../libdaisy/src/daisy_seed.h **** #define DSY_SEED_H
   4:../../libdaisy/src/daisy_seed.h **** 
ARM GAS  /tmp/ccpeNZea.s 			page 3


   5:../../libdaisy/src/daisy_seed.h **** #include "daisy.h"
   6:../../libdaisy/src/daisy_seed.h **** 
   7:../../libdaisy/src/daisy_seed.h **** //Uncomment this out if you're still using the rev2 hardware
   8:../../libdaisy/src/daisy_seed.h **** //#define SEED_REV2
   9:../../libdaisy/src/daisy_seed.h **** 
  10:../../libdaisy/src/daisy_seed.h **** namespace daisy
  11:../../libdaisy/src/daisy_seed.h **** {
  12:../../libdaisy/src/daisy_seed.h **** /**
  13:../../libdaisy/src/daisy_seed.h ****    @brief This is the higher-level interface for the Daisy board. \n 
  14:../../libdaisy/src/daisy_seed.h ****     All basic peripheral configuration/initialization is setup here. \n
  15:../../libdaisy/src/daisy_seed.h **** 
  16:../../libdaisy/src/daisy_seed.h ****    @ingroup boards
  17:../../libdaisy/src/daisy_seed.h **** */
  18:../../libdaisy/src/daisy_seed.h **** class DaisySeed
  19:../../libdaisy/src/daisy_seed.h **** {
  20:../../libdaisy/src/daisy_seed.h ****   public:
  21:../../libdaisy/src/daisy_seed.h ****     DaisySeed() {}
  22:../../libdaisy/src/daisy_seed.h ****     ~DaisySeed() {}
  80              		.loc 3 22 5 is_stmt 1 view -0
  81              		.cfi_startproc
  82              		@ args = 0, pretend = 0, frame = 0
  83              		@ frame_needed = 0, uses_anonymous_args = 0
  84              		@ link register save eliminated.
  85              	.LBB69:
  86              	.LBI69:
  87              		.file 4 "../../libdaisy/src/sys/system.h"
   1:../../libdaisy/src/sys/system.h **** #ifndef DSY_SYSTEM_H
   2:../../libdaisy/src/sys/system.h **** #define DSY_SYSTEM_H
   3:../../libdaisy/src/sys/system.h **** 
   4:../../libdaisy/src/sys/system.h **** #ifndef UNIT_TEST // for unit tests, a dummy implementation is provided below
   5:../../libdaisy/src/sys/system.h **** 
   6:../../libdaisy/src/sys/system.h **** #include <cstdint>
   7:../../libdaisy/src/sys/system.h **** #include "per/tim.h"
   8:../../libdaisy/src/sys/system.h **** 
   9:../../libdaisy/src/sys/system.h **** namespace daisy
  10:../../libdaisy/src/sys/system.h **** {
  11:../../libdaisy/src/sys/system.h **** /** A handle for interacting with the Core System. 
  12:../../libdaisy/src/sys/system.h ****  ** This includes the Clock tree, MPU, global DMA initialization,
  13:../../libdaisy/src/sys/system.h ****  ** cache handling, and any other necessary global initiailzation
  14:../../libdaisy/src/sys/system.h ****  **
  15:../../libdaisy/src/sys/system.h ****  ** @author shensley
  16:../../libdaisy/src/sys/system.h ****  ** @addtogroup system
  17:../../libdaisy/src/sys/system.h ****  */
  18:../../libdaisy/src/sys/system.h **** class System
  19:../../libdaisy/src/sys/system.h **** {
  20:../../libdaisy/src/sys/system.h ****   public:
  21:../../libdaisy/src/sys/system.h ****     /** Contains settings for initializing the System */
  22:../../libdaisy/src/sys/system.h ****     struct Config
  23:../../libdaisy/src/sys/system.h ****     {
  24:../../libdaisy/src/sys/system.h ****         /** Specifies the system clock frequency that feeds APB/AHB clocks, etc. */
  25:../../libdaisy/src/sys/system.h ****         enum class SysClkFreq
  26:../../libdaisy/src/sys/system.h ****         {
  27:../../libdaisy/src/sys/system.h ****             FREQ_400MHZ,
  28:../../libdaisy/src/sys/system.h ****             FREQ_480MHZ,
  29:../../libdaisy/src/sys/system.h ****         };
  30:../../libdaisy/src/sys/system.h **** 
  31:../../libdaisy/src/sys/system.h ****         /** Method to call on the struct to set to defaults
ARM GAS  /tmp/ccpeNZea.s 			page 4


  32:../../libdaisy/src/sys/system.h ****          ** CPU Freq set to 400MHz
  33:../../libdaisy/src/sys/system.h ****          ** Cache Enabled 
  34:../../libdaisy/src/sys/system.h ****          ** */
  35:../../libdaisy/src/sys/system.h ****         void Defaults()
  36:../../libdaisy/src/sys/system.h ****         {
  37:../../libdaisy/src/sys/system.h ****             cpu_freq   = SysClkFreq::FREQ_400MHZ;
  38:../../libdaisy/src/sys/system.h ****             use_dcache = true;
  39:../../libdaisy/src/sys/system.h ****             use_icache = true;
  40:../../libdaisy/src/sys/system.h ****         }
  41:../../libdaisy/src/sys/system.h **** 
  42:../../libdaisy/src/sys/system.h ****         /** Method to call on the struct to set to boost mode:
  43:../../libdaisy/src/sys/system.h ****          ** CPU Freq set to 480MHz
  44:../../libdaisy/src/sys/system.h ****          ** Cache Enabled 
  45:../../libdaisy/src/sys/system.h ****          ** */
  46:../../libdaisy/src/sys/system.h ****         void Boost()
  47:../../libdaisy/src/sys/system.h ****         {
  48:../../libdaisy/src/sys/system.h ****             cpu_freq   = SysClkFreq::FREQ_480MHZ;
  49:../../libdaisy/src/sys/system.h ****             use_dcache = true;
  50:../../libdaisy/src/sys/system.h ****             use_icache = true;
  51:../../libdaisy/src/sys/system.h ****         }
  52:../../libdaisy/src/sys/system.h **** 
  53:../../libdaisy/src/sys/system.h ****         SysClkFreq cpu_freq;
  54:../../libdaisy/src/sys/system.h ****         bool       use_dcache;
  55:../../libdaisy/src/sys/system.h ****         bool       use_icache;
  56:../../libdaisy/src/sys/system.h ****     };
  57:../../libdaisy/src/sys/system.h **** 
  58:../../libdaisy/src/sys/system.h ****     System() {}
  59:../../libdaisy/src/sys/system.h ****     ~System() {}
  88              		.loc 4 59 5 view .LVU5
  89              		.loc 4 59 5 is_stmt 0 view .LVU6
  90              	.LBE69:
  91              	.LBB70:
  92              	.LBI70:
  93              		.file 5 "../../libdaisy/src/hid/usb.h"
   1:../../libdaisy/src/hid/usb.h **** #pragma once
   2:../../libdaisy/src/hid/usb.h **** #ifndef DSY_HID_USB_H
   3:../../libdaisy/src/hid/usb.h **** #define DSY_HID_USB_H
   4:../../libdaisy/src/hid/usb.h **** #include <stdint.h>
   5:../../libdaisy/src/hid/usb.h **** #include <stdlib.h>
   6:../../libdaisy/src/hid/usb.h **** 
   7:../../libdaisy/src/hid/usb.h **** namespace daisy
   8:../../libdaisy/src/hid/usb.h **** /** @addtogroup externals
   9:../../libdaisy/src/hid/usb.h ****     @{
  10:../../libdaisy/src/hid/usb.h **** */
  11:../../libdaisy/src/hid/usb.h **** 
  12:../../libdaisy/src/hid/usb.h **** {
  13:../../libdaisy/src/hid/usb.h **** /** 
  14:../../libdaisy/src/hid/usb.h ****     @brief Interface for initializing and using the USB Peripherals on the daisy
  15:../../libdaisy/src/hid/usb.h ****     @author Stephen Hensley
  16:../../libdaisy/src/hid/usb.h ****     @date December 2019
  17:../../libdaisy/src/hid/usb.h **** */
  18:../../libdaisy/src/hid/usb.h **** class UsbHandle
  19:../../libdaisy/src/hid/usb.h **** {
  20:../../libdaisy/src/hid/usb.h ****   public:
  21:../../libdaisy/src/hid/usb.h ****     /** Return values for USBHandle Functions */
  22:../../libdaisy/src/hid/usb.h ****     enum class Result
  23:../../libdaisy/src/hid/usb.h ****     {
ARM GAS  /tmp/ccpeNZea.s 			page 5


  24:../../libdaisy/src/hid/usb.h ****         OK,
  25:../../libdaisy/src/hid/usb.h ****         ERR,
  26:../../libdaisy/src/hid/usb.h ****     };
  27:../../libdaisy/src/hid/usb.h **** 
  28:../../libdaisy/src/hid/usb.h ****     /** Specified which of the two USB Peripherals to initialize. */
  29:../../libdaisy/src/hid/usb.h ****     enum UsbPeriph
  30:../../libdaisy/src/hid/usb.h ****     {
  31:../../libdaisy/src/hid/usb.h ****         FS_INTERNAL, /**< Internal pin */
  32:../../libdaisy/src/hid/usb.h ****         FS_EXTERNAL, /**< FS External D+ pin is Pin 38 (GPIO32). FS External D- pin is Pin 37 (GPIO
  33:../../libdaisy/src/hid/usb.h ****         FS_BOTH,     /**< Both */
  34:../../libdaisy/src/hid/usb.h ****     };
  35:../../libdaisy/src/hid/usb.h **** 
  36:../../libdaisy/src/hid/usb.h **** 
  37:../../libdaisy/src/hid/usb.h ****     /** Function called upon reception of a buffer */
  38:../../libdaisy/src/hid/usb.h ****     typedef void (*ReceiveCallback)(uint8_t* buff, uint32_t* len);
  39:../../libdaisy/src/hid/usb.h **** 
  40:../../libdaisy/src/hid/usb.h ****     UsbHandle() {}
  41:../../libdaisy/src/hid/usb.h **** 
  42:../../libdaisy/src/hid/usb.h ****     ~UsbHandle() {}
  94              		.loc 5 42 5 is_stmt 1 view .LVU7
  95              		.loc 5 42 5 is_stmt 0 view .LVU8
  96              	.LBE70:
  97              	.LBB71:
  98              	.LBI71:
  99              		.file 6 "../../libdaisy/src/per/adc.h"
   1:../../libdaisy/src/per/adc.h **** #pragma once
   2:../../libdaisy/src/per/adc.h **** #ifndef DSY_ADC_H
   3:../../libdaisy/src/per/adc.h **** #define DSY_ADC_H /**< Macro */
   4:../../libdaisy/src/per/adc.h **** #include <stdint.h>
   5:../../libdaisy/src/per/adc.h **** #include <stdlib.h>
   6:../../libdaisy/src/per/adc.h **** #include "daisy_core.h"
   7:../../libdaisy/src/per/adc.h **** #include "per/gpio.h"
   8:../../libdaisy/src/per/adc.h **** 
   9:../../libdaisy/src/per/adc.h **** #define DSY_ADC_MAX_CHANNELS 14 /**< Maximum number of ADC channels */
  10:../../libdaisy/src/per/adc.h **** 
  11:../../libdaisy/src/per/adc.h **** namespace daisy
  12:../../libdaisy/src/per/adc.h **** {
  13:../../libdaisy/src/per/adc.h **** /** @addtogroup analog_digital_conversion
  14:../../libdaisy/src/per/adc.h ****     @{
  15:../../libdaisy/src/per/adc.h **** */
  16:../../libdaisy/src/per/adc.h **** 
  17:../../libdaisy/src/per/adc.h **** /* While there may not be many configuration options here,
  18:../../libdaisy/src/per/adc.h **** using a struct like this allows us to add more configuration
  19:../../libdaisy/src/per/adc.h **** later without breaking existing functionality.
  20:../../libdaisy/src/per/adc.h **** */
  21:../../libdaisy/src/per/adc.h **** 
  22:../../libdaisy/src/per/adc.h **** /** Configuration Structure for a given channel */
  23:../../libdaisy/src/per/adc.h **** struct AdcChannelConfig
  24:../../libdaisy/src/per/adc.h **** {
  25:../../libdaisy/src/per/adc.h ****     /** Which pin to use for multiplexing */
  26:../../libdaisy/src/per/adc.h ****     enum MuxPin
  27:../../libdaisy/src/per/adc.h ****     {
  28:../../libdaisy/src/per/adc.h ****         MUX_SEL_0,    /**< & */
  29:../../libdaisy/src/per/adc.h ****         MUX_SEL_1,    /**< & */
  30:../../libdaisy/src/per/adc.h ****         MUX_SEL_2,    /**< & */
  31:../../libdaisy/src/per/adc.h ****         MUX_SEL_LAST, /**< & */
  32:../../libdaisy/src/per/adc.h ****     };
ARM GAS  /tmp/ccpeNZea.s 			page 6


  33:../../libdaisy/src/per/adc.h **** 
  34:../../libdaisy/src/per/adc.h ****     /** Initializes a single ADC pin as an ADC. 
  35:../../libdaisy/src/per/adc.h ****     \param pin Pin to init.
  36:../../libdaisy/src/per/adc.h ****      */
  37:../../libdaisy/src/per/adc.h ****     void InitSingle(dsy_gpio_pin pin);
  38:../../libdaisy/src/per/adc.h **** 
  39:../../libdaisy/src/per/adc.h ****     /** 
  40:../../libdaisy/src/per/adc.h ****     Initializes a single ADC pin as a Multiplexed ADC.
  41:../../libdaisy/src/per/adc.h ****     Requires a CD405X Multiplexer connected to the pin.
  42:../../libdaisy/src/per/adc.h ****     You only need to supply the mux pins that are required,
  43:../../libdaisy/src/per/adc.h ****     e.g. a 4052 mux would only require mux_0 and mux_1.
  44:../../libdaisy/src/per/adc.h ****     Internal Callbacks handle the pin addressing.
  45:../../libdaisy/src/per/adc.h ****     \param mux_channels must be 1-8
  46:../../libdaisy/src/per/adc.h ****     \param mux_0 First mux pin
  47:../../libdaisy/src/per/adc.h ****     \param mux_1 Second mux pin
  48:../../libdaisy/src/per/adc.h ****     \param mux_2 Third mux pin
  49:../../libdaisy/src/per/adc.h ****     \param adc_pin &
  50:../../libdaisy/src/per/adc.h ****     */
  51:../../libdaisy/src/per/adc.h ****     void InitMux(dsy_gpio_pin adc_pin,
  52:../../libdaisy/src/per/adc.h ****                  size_t       mux_channels,
  53:../../libdaisy/src/per/adc.h ****                  dsy_gpio_pin mux_0,
  54:../../libdaisy/src/per/adc.h ****                  dsy_gpio_pin mux_1 = {DSY_GPIOX, 0},
  55:../../libdaisy/src/per/adc.h ****                  dsy_gpio_pin mux_2 = {DSY_GPIOX, 0});
  56:../../libdaisy/src/per/adc.h **** 
  57:../../libdaisy/src/per/adc.h ****     dsy_gpio pin_;                   /**< & */
  58:../../libdaisy/src/per/adc.h ****     dsy_gpio mux_pin_[MUX_SEL_LAST]; /**< & */
  59:../../libdaisy/src/per/adc.h ****     uint8_t  mux_channels_;          /**< & */
  60:../../libdaisy/src/per/adc.h **** };
  61:../../libdaisy/src/per/adc.h **** 
  62:../../libdaisy/src/per/adc.h **** /**
  63:../../libdaisy/src/per/adc.h ****    Handler for analog to digital conversion
  64:../../libdaisy/src/per/adc.h **** */
  65:../../libdaisy/src/per/adc.h **** class AdcHandle
  66:../../libdaisy/src/per/adc.h **** {
  67:../../libdaisy/src/per/adc.h ****   public:
  68:../../libdaisy/src/per/adc.h ****     /** Supported oversampling amounts */
  69:../../libdaisy/src/per/adc.h ****     enum OverSampling
  70:../../libdaisy/src/per/adc.h ****     {
  71:../../libdaisy/src/per/adc.h ****         OVS_NONE, /**< & */
  72:../../libdaisy/src/per/adc.h ****         OVS_4,    /**< & */
  73:../../libdaisy/src/per/adc.h ****         OVS_8,    /**< & */
  74:../../libdaisy/src/per/adc.h ****         OVS_16,   /**< & */
  75:../../libdaisy/src/per/adc.h ****         OVS_32,   /**< & */
  76:../../libdaisy/src/per/adc.h ****         OVS_64,   /**< & */
  77:../../libdaisy/src/per/adc.h ****         OVS_128,  /**< & */
  78:../../libdaisy/src/per/adc.h ****         OVS_256,  /**< & */
  79:../../libdaisy/src/per/adc.h ****         OVS_512,  /**< & */
  80:../../libdaisy/src/per/adc.h ****         OVS_1024, /**< & */
  81:../../libdaisy/src/per/adc.h ****         OVS_LAST, /**< & */
  82:../../libdaisy/src/per/adc.h ****     };
  83:../../libdaisy/src/per/adc.h **** 
  84:../../libdaisy/src/per/adc.h ****     AdcHandle() {}
  85:../../libdaisy/src/per/adc.h ****     ~AdcHandle() {}
 100              		.loc 6 85 5 is_stmt 1 view .LVU9
 101              		.loc 6 85 5 is_stmt 0 view .LVU10
 102              	.LBE71:
 103              	.LBB72:
ARM GAS  /tmp/ccpeNZea.s 			page 7


 104              	.LBI72:
 105              		.file 7 "../../libdaisy/src/hid/audio.h"
   1:../../libdaisy/src/hid/audio.h **** #ifndef DSY_AUDIO_H
   2:../../libdaisy/src/hid/audio.h **** #define DSY_AUDIO_H /**< & */
   3:../../libdaisy/src/hid/audio.h **** 
   4:../../libdaisy/src/hid/audio.h **** #include "per/sai.h"
   5:../../libdaisy/src/hid/audio.h **** 
   6:../../libdaisy/src/hid/audio.h **** namespace daisy
   7:../../libdaisy/src/hid/audio.h **** {
   8:../../libdaisy/src/hid/audio.h **** class AudioHandle
   9:../../libdaisy/src/hid/audio.h **** {
  10:../../libdaisy/src/hid/audio.h ****   public:
  11:../../libdaisy/src/hid/audio.h ****     /** Manually configurable details about the Audio Engine */
  12:../../libdaisy/src/hid/audio.h ****     /** TODO: Figure out how to get samplerate in here. */
  13:../../libdaisy/src/hid/audio.h ****     struct Config
  14:../../libdaisy/src/hid/audio.h ****     {
  15:../../libdaisy/src/hid/audio.h ****         size_t                        blocksize;
  16:../../libdaisy/src/hid/audio.h ****         SaiHandle::Config::SampleRate samplerate;
  17:../../libdaisy/src/hid/audio.h ****         float                         postgain;
  18:../../libdaisy/src/hid/audio.h ****     };
  19:../../libdaisy/src/hid/audio.h **** 
  20:../../libdaisy/src/hid/audio.h ****     enum class Result
  21:../../libdaisy/src/hid/audio.h ****     {
  22:../../libdaisy/src/hid/audio.h ****         OK,
  23:../../libdaisy/src/hid/audio.h ****         ERR,
  24:../../libdaisy/src/hid/audio.h ****     };
  25:../../libdaisy/src/hid/audio.h **** 
  26:../../libdaisy/src/hid/audio.h ****     /** Non-Interleaving input buffer
  27:../../libdaisy/src/hid/audio.h ****      * Buffer arranged by float[chn][sample] 
  28:../../libdaisy/src/hid/audio.h ****      * const so that the user can't modify the input
  29:../../libdaisy/src/hid/audio.h ****     */
  30:../../libdaisy/src/hid/audio.h ****     typedef const float* const* InputBuffer;
  31:../../libdaisy/src/hid/audio.h **** 
  32:../../libdaisy/src/hid/audio.h ****     /** Non-Interleaving output buffer
  33:../../libdaisy/src/hid/audio.h ****      * Arranged by float[chn][sample] 
  34:../../libdaisy/src/hid/audio.h ****     */
  35:../../libdaisy/src/hid/audio.h ****     typedef float** OutputBuffer;
  36:../../libdaisy/src/hid/audio.h **** 
  37:../../libdaisy/src/hid/audio.h ****     /** Type for a Non-Interleaving audio callback 
  38:../../libdaisy/src/hid/audio.h ****    * Non-Interleaving audio callbacks in daisy will be of this type
  39:../../libdaisy/src/hid/audio.h ****   */
  40:../../libdaisy/src/hid/audio.h ****     typedef void (*AudioCallback)(InputBuffer  in,
  41:../../libdaisy/src/hid/audio.h ****                                   OutputBuffer out,
  42:../../libdaisy/src/hid/audio.h ****                                   size_t       size);
  43:../../libdaisy/src/hid/audio.h **** 
  44:../../libdaisy/src/hid/audio.h ****     /** Interleaving Input buffer
  45:../../libdaisy/src/hid/audio.h ****      ** audio is prepared as { L0, R0, L1, R1, . . . LN, RN }]
  46:../../libdaisy/src/hid/audio.h ****      ** this is const, as the user shouldn't modify it
  47:../../libdaisy/src/hid/audio.h ****     */
  48:../../libdaisy/src/hid/audio.h ****     typedef const float* InterleavingInputBuffer;
  49:../../libdaisy/src/hid/audio.h **** 
  50:../../libdaisy/src/hid/audio.h ****     /** Interleaving Output buffer 
  51:../../libdaisy/src/hid/audio.h ****      ** audio is prepared as { L0, R0, L1, R1, . . . LN, RN }
  52:../../libdaisy/src/hid/audio.h ****     */
  53:../../libdaisy/src/hid/audio.h ****     typedef float* InterleavingOutputBuffer;
  54:../../libdaisy/src/hid/audio.h **** 
  55:../../libdaisy/src/hid/audio.h ****     /** Interleaving Audio Callback 
ARM GAS  /tmp/ccpeNZea.s 			page 8


  56:../../libdaisy/src/hid/audio.h ****    * Interleaving audio callbacks in daisy must be of this type
  57:../../libdaisy/src/hid/audio.h ****   */
  58:../../libdaisy/src/hid/audio.h ****     typedef void (*InterleavingAudioCallback)(InterleavingInputBuffer  in,
  59:../../libdaisy/src/hid/audio.h ****                                               InterleavingOutputBuffer out,
  60:../../libdaisy/src/hid/audio.h ****                                               size_t                   size);
  61:../../libdaisy/src/hid/audio.h **** 
  62:../../libdaisy/src/hid/audio.h ****     AudioHandle() : pimpl_(nullptr) {}
  63:../../libdaisy/src/hid/audio.h ****     ~AudioHandle() {}
 106              		.loc 7 63 5 is_stmt 1 view .LVU11
 107              		.loc 7 63 5 is_stmt 0 view .LVU12
 108              	.LBE72:
 109              		.loc 3 22 19 view .LVU13
 110 0000 7047     		bx	lr
 111              		.cfi_endproc
 112              	.LFE4207:
 114              		.weak	_ZN5daisy9DaisySeedD1Ev
 115              		.thumb_set _ZN5daisy9DaisySeedD1Ev,_ZN5daisy9DaisySeedD2Ev
 116 0002 00BF     		.section	.text._ZL13AudioCallbackPKfPfj,"ax",%progbits
 117              		.align	1
 118              		.p2align 2,,3
 119              		.syntax unified
 120              		.thumb
 121              		.thumb_func
 122              		.fpu fpv5-d16
 124              	_ZL13AudioCallbackPKfPfj:
 125              	.LVL3:
 126              	.LFB4212:
 127              		.file 8 "comb.cpp"
   1:comb.cpp      **** #include "daisysp.h"
   2:comb.cpp      **** #include "daisy_seed.h"
   3:comb.cpp      **** 
   4:comb.cpp      **** using namespace daisysp;
   5:comb.cpp      **** using namespace daisy;
   6:comb.cpp      **** 
   7:comb.cpp      **** static DaisySeed  seed;
   8:comb.cpp      **** Comb              flt;
   9:comb.cpp      **** static WhiteNoise noise;
  10:comb.cpp      **** 
  11:comb.cpp      **** float buf[9600];
  12:comb.cpp      **** 
  13:comb.cpp      **** static void AudioCallback(AudioHandle::InterleavingInputBuffer  in,
  14:comb.cpp      ****                           AudioHandle::InterleavingOutputBuffer out,
  15:comb.cpp      ****                           size_t                                size)
  16:comb.cpp      **** {
 128              		.loc 8 16 1 is_stmt 1 view -0
 129              		.cfi_startproc
 130              		@ args = 0, pretend = 0, frame = 0
 131              		@ frame_needed = 0, uses_anonymous_args = 0
  17:comb.cpp      ****     float output;
 132              		.loc 8 17 5 view .LVU15
  18:comb.cpp      ****     for(size_t i = 0; i < size; i += 2)
 133              		.loc 8 18 5 view .LVU16
 134              	.LBB73:
 135              		.loc 8 18 25 view .LVU17
 136 0000 2AB3     		cbz	r2, .L13
 137 0002 013A     		subs	r2, r2, #1
 138              	.LVL4:
ARM GAS  /tmp/ccpeNZea.s 			page 9


 139              		.loc 8 18 25 is_stmt 0 view .LVU18
 140              	.LBE73:
  16:comb.cpp      ****     float output;
 141              		.loc 8 16 1 view .LVU19
 142 0004 F8B5     		push	{r3, r4, r5, r6, r7, lr}
 143              		.cfi_def_cfa_offset 24
 144              		.cfi_offset 3, -24
 145              		.cfi_offset 4, -20
 146              		.cfi_offset 5, -16
 147              		.cfi_offset 6, -12
 148              		.cfi_offset 7, -8
 149              		.cfi_offset 14, -4
 150 0006 0C46     		mov	r4, r1
 151              	.LBB80:
 152              		.loc 8 18 16 view .LVU20
 153 0008 0026     		movs	r6, #0
 154 000a 114D     		ldr	r5, .L16
 155 000c 22F00107 		bic	r7, r2, #1
 156              	.LVL5:
 157              	.L7:
  19:comb.cpp      ****     {
  20:comb.cpp      ****         output = noise.Process();
 158              		.loc 8 20 9 is_stmt 1 discriminator 2 view .LVU21
 159              	.LBB74:
 160              	.LBB75:
  17:../../DaisySP/Source/Noise/whitenoise.h ****     /** Initializes the WhiteNoise object
  18:../../DaisySP/Source/Noise/whitenoise.h ****     */
  19:../../DaisySP/Source/Noise/whitenoise.h ****     void Init()
  20:../../DaisySP/Source/Noise/whitenoise.h ****     {
  21:../../DaisySP/Source/Noise/whitenoise.h ****         amp_      = 1.0f;
  22:../../DaisySP/Source/Noise/whitenoise.h ****         randseed_ = 1;
  23:../../DaisySP/Source/Noise/whitenoise.h ****     }
  24:../../DaisySP/Source/Noise/whitenoise.h **** 
  25:../../DaisySP/Source/Noise/whitenoise.h ****     /** sets the amplitude of the noise output
  26:../../DaisySP/Source/Noise/whitenoise.h ****     */
  27:../../DaisySP/Source/Noise/whitenoise.h ****     inline void SetAmp(float a) { amp_ = a; }
  28:../../DaisySP/Source/Noise/whitenoise.h ****     /** returns a new sample of noise in the range of -amp_ to amp_
  29:../../DaisySP/Source/Noise/whitenoise.h ****     */
  30:../../DaisySP/Source/Noise/whitenoise.h ****     inline float Process()
  31:../../DaisySP/Source/Noise/whitenoise.h ****     {
  32:../../DaisySP/Source/Noise/whitenoise.h ****         randseed_ *= 16807;
 161              		.loc 2 32 19 is_stmt 0 discriminator 2 view .LVU22
 162 0010 6A68     		ldr	r2, [r5, #4]
 163 0012 44F2A713 		movw	r3, #16807
 164              	.LBE75:
 165              	.LBE74:
 166              		.loc 8 20 31 discriminator 2 view .LVU23
 167 0016 D5ED007A 		vldr.32	s15, [r5]
 168              	.LBB78:
 169              	.LBI74:
  30:../../DaisySP/Source/Noise/whitenoise.h ****     {
 170              		.loc 2 30 18 is_stmt 1 discriminator 2 view .LVU24
 171              	.LVL6:
 172              	.LBB76:
 173              		.loc 2 32 9 discriminator 2 view .LVU25
 174 001a 0834     		adds	r4, r4, #8
 175              		.loc 2 32 19 is_stmt 0 discriminator 2 view .LVU26
ARM GAS  /tmp/ccpeNZea.s 			page 10


 176 001c 03FB02F3 		mul	r3, r3, r2
 177              	.LBE76:
 178              	.LBE78:
  21:comb.cpp      **** 
  22:comb.cpp      ****         output = 0.5 * flt.Process(output);
 179              		.loc 8 22 35 discriminator 2 view .LVU27
 180 0020 0C48     		ldr	r0, .L16+4
 181              	.LBB79:
 182              	.LBB77:
  33:../../DaisySP/Source/Noise/whitenoise.h ****         return (randseed_ * coeff_) * amp_;
 183              		.loc 2 33 27 discriminator 2 view .LVU28
 184 0022 00EE103A 		vmov	s0, r3	@ int
  32:../../DaisySP/Source/Noise/whitenoise.h ****         return (randseed_ * coeff_) * amp_;
 185              		.loc 2 32 19 discriminator 2 view .LVU29
 186 0026 6B60     		str	r3, [r5, #4]
 187              		.loc 2 33 27 discriminator 2 view .LVU30
 188 0028 BAEEE00A 		vcvt.f32.s32	s0, s0, #31
 189              		.loc 2 33 9 is_stmt 1 discriminator 2 view .LVU31
 190              	.LVL7:
 191              		.loc 2 33 9 is_stmt 0 discriminator 2 view .LVU32
 192              	.LBE77:
 193              	.LBE79:
 194              		.loc 8 22 9 is_stmt 1 discriminator 2 view .LVU33
 195              		.loc 8 22 35 is_stmt 0 discriminator 2 view .LVU34
 196 002c 20EE270A 		vmul.f32	s0, s0, s15
 197 0030 FFF7FEFF 		bl	_ZN7daisysp4Comb7ProcessEf
 198              	.LVL8:
 199              		.loc 8 22 16 discriminator 2 view .LVU35
 200 0034 F6EE007A 		vmov.f32	s15, #5.0e-1
  18:comb.cpp      ****     {
 201              		.loc 8 18 25 discriminator 2 view .LVU36
 202 0038 BE42     		cmp	r6, r7
 203 003a 06F10206 		add	r6, r6, #2
 204              	.LVL9:
 205              		.loc 8 22 16 discriminator 2 view .LVU37
 206 003e 20EE270A 		vmul.f32	s0, s0, s15
 207              	.LVL10:
  23:comb.cpp      **** 
  24:comb.cpp      ****         // left out
  25:comb.cpp      ****         out[i] = output;
 208              		.loc 8 25 9 is_stmt 1 discriminator 2 view .LVU38
 209              		.loc 8 25 16 is_stmt 0 discriminator 2 view .LVU39
 210 0042 04ED020A 		vstr.32	s0, [r4, #-8]
  26:comb.cpp      **** 
  27:comb.cpp      ****         // right out
  28:comb.cpp      ****         out[i + 1] = output;
 211              		.loc 8 28 9 is_stmt 1 discriminator 2 view .LVU40
 212              		.loc 8 28 20 is_stmt 0 discriminator 2 view .LVU41
 213 0046 04ED010A 		vstr.32	s0, [r4, #-4]
  18:comb.cpp      ****     {
 214              		.loc 8 18 5 is_stmt 1 discriminator 2 view .LVU42
 215              	.LVL11:
  18:comb.cpp      ****     {
 216              		.loc 8 18 25 discriminator 2 view .LVU43
 217 004a E1D1     		bne	.L7
 218              	.LBE80:
  29:comb.cpp      ****     }
ARM GAS  /tmp/ccpeNZea.s 			page 11


  30:comb.cpp      **** }
 219              		.loc 8 30 1 is_stmt 0 view .LVU44
 220 004c F8BD     		pop	{r3, r4, r5, r6, r7, pc}
 221              	.LVL12:
 222              	.L13:
 223              		.cfi_def_cfa_offset 0
 224              		.cfi_restore 3
 225              		.cfi_restore 4
 226              		.cfi_restore 5
 227              		.cfi_restore 6
 228              		.cfi_restore 7
 229              		.cfi_restore 14
 230              		.loc 8 30 1 view .LVU45
 231 004e 7047     		bx	lr
 232              	.L17:
 233              		.align	2
 234              	.L16:
 235 0050 00000000 		.word	.LANCHOR0
 236 0054 00000000 		.word	.LANCHOR1
 237              		.cfi_endproc
 238              	.LFE4212:
 240              		.section	.text.startup.main,"ax",%progbits
 241              		.align	1
 242              		.p2align 2,,3
 243              		.global	main
 244              		.syntax unified
 245              		.thumb
 246              		.thumb_func
 247              		.fpu fpv5-d16
 249              	main:
 250              	.LFB4213:
  31:comb.cpp      **** 
  32:comb.cpp      **** int main(void)
  33:comb.cpp      **** {
 251              		.loc 8 33 1 is_stmt 1 view -0
 252              		.cfi_startproc
 253              		@ args = 0, pretend = 0, frame = 0
 254              		@ frame_needed = 0, uses_anonymous_args = 0
  34:comb.cpp      ****     // initialize seed hardware and daisysp modules
  35:comb.cpp      ****     float sample_rate;
 255              		.loc 8 35 5 view .LVU47
  36:comb.cpp      ****     seed.Configure();
 256              		.loc 8 36 5 view .LVU48
  33:comb.cpp      ****     // initialize seed hardware and daisysp modules
 257              		.loc 8 33 1 is_stmt 0 view .LVU49
 258 0000 10B5     		push	{r4, lr}
 259              		.cfi_def_cfa_offset 8
 260              		.cfi_offset 4, -8
 261              		.cfi_offset 14, -4
 262              		.loc 8 36 19 view .LVU50
 263 0002 1448     		ldr	r0, .L23
 264 0004 FFF7FEFF 		bl	_ZN5daisy9DaisySeed9ConfigureEv
 265              	.LVL13:
  37:comb.cpp      ****     seed.Init();
 266              		.loc 8 37 5 is_stmt 1 view .LVU51
 267              		.loc 8 37 14 is_stmt 0 view .LVU52
 268 0008 0021     		movs	r1, #0
ARM GAS  /tmp/ccpeNZea.s 			page 12


 269 000a 1248     		ldr	r0, .L23
 270 000c FFF7FEFF 		bl	_ZN5daisy9DaisySeed4InitEb
 271              	.LVL14:
  38:comb.cpp      ****     sample_rate = seed.AudioSampleRate();
 272              		.loc 8 38 5 is_stmt 1 view .LVU53
 273              		.loc 8 38 39 is_stmt 0 view .LVU54
 274 0010 1048     		ldr	r0, .L23
 275 0012 FFF7FEFF 		bl	_ZN5daisy9DaisySeed15AudioSampleRateEv
 276              	.LVL15:
 277 0016 104B     		ldr	r3, .L23+4
 278              	.LVL16:
  39:comb.cpp      **** 
  40:comb.cpp      ****     for(int i = 0; i < 9600; i++)
 279              		.loc 8 40 5 is_stmt 1 view .LVU55
 280              	.LBB81:
 281              		.loc 8 40 22 view .LVU56
 282 0018 03F51641 		add	r1, r3, #38400
 283              	.LVL17:
 284              	.L19:
  41:comb.cpp      ****     {
  42:comb.cpp      ****         buf[i] = 0.0f;
 285              		.loc 8 42 9 discriminator 2 view .LVU57
 286              		.loc 8 42 16 is_stmt 0 discriminator 2 view .LVU58
 287 001c 0022     		movs	r2, #0
 288 001e 43F8042B 		str	r2, [r3], #4	@ float
  40:comb.cpp      ****     {
 289              		.loc 8 40 5 is_stmt 1 discriminator 2 view .LVU59
  40:comb.cpp      ****     {
 290              		.loc 8 40 22 discriminator 2 view .LVU60
 291 0022 8B42     		cmp	r3, r1
 292 0024 FAD1     		bne	.L19
 293              	.LBE81:
  43:comb.cpp      ****     }
  44:comb.cpp      **** 
  45:comb.cpp      ****     // initialize Comb object
  46:comb.cpp      ****     flt.Init(sample_rate, buf, 9600);
 294              		.loc 8 46 5 view .LVU61
 295              		.loc 8 46 13 is_stmt 0 view .LVU62
 296 0026 4FF41652 		mov	r2, #9600
 297 002a 0B49     		ldr	r1, .L23+4
 298 002c 0B48     		ldr	r0, .L23+8
 299              	.LBB82:
 300              	.LBB83:
  21:../../DaisySP/Source/Noise/whitenoise.h ****         randseed_ = 1;
 301              		.loc 2 21 19 view .LVU63
 302 002e 4FF07E54 		mov	r4, #1065353216
 303              	.LBE83:
 304              	.LBE82:
 305              		.loc 8 46 13 view .LVU64
 306 0032 FFF7FEFF 		bl	_ZN7daisysp4Comb4InitEfPfj
 307              	.LVL18:
  47:comb.cpp      ****     flt.SetFreq(500);
 308              		.loc 8 47 5 is_stmt 1 view .LVU65
 309              	.LBB86:
 310              	.LBI86:
  21:../../DaisySP/Source/Filters/comb.h **** 
  22:../../DaisySP/Source/Filters/comb.h ****     /** Initializes the Comb module.
ARM GAS  /tmp/ccpeNZea.s 			page 13


  23:../../DaisySP/Source/Filters/comb.h ****         \param sample_rate - The sample rate of the audio engine being run. 
  24:../../DaisySP/Source/Filters/comb.h ****         \param buff - input buffer, kept in either main() or global space
  25:../../DaisySP/Source/Filters/comb.h ****         \param size - size of buff
  26:../../DaisySP/Source/Filters/comb.h ****     */
  27:../../DaisySP/Source/Filters/comb.h ****     void Init(float sample_rate, float* buff, size_t size);
  28:../../DaisySP/Source/Filters/comb.h **** 
  29:../../DaisySP/Source/Filters/comb.h **** 
  30:../../DaisySP/Source/Filters/comb.h ****     /** processes the comb filter
  31:../../DaisySP/Source/Filters/comb.h ****     */
  32:../../DaisySP/Source/Filters/comb.h ****     float Process(float in);
  33:../../DaisySP/Source/Filters/comb.h **** 
  34:../../DaisySP/Source/Filters/comb.h **** 
  35:../../DaisySP/Source/Filters/comb.h ****     /** Sets the period of the comb filter in seconds
  36:../../DaisySP/Source/Filters/comb.h ****     */
  37:../../DaisySP/Source/Filters/comb.h ****     void SetPeriod(float looptime);
  38:../../DaisySP/Source/Filters/comb.h **** 
  39:../../DaisySP/Source/Filters/comb.h ****     /** Sets the frequency of the comb filter in Hz
  40:../../DaisySP/Source/Filters/comb.h ****     */
  41:../../DaisySP/Source/Filters/comb.h ****     inline void SetFreq(float freq)
 311              		.loc 1 41 17 view .LVU66
 312              	.LBB87:
  42:../../DaisySP/Source/Filters/comb.h ****     {
  43:../../DaisySP/Source/Filters/comb.h ****         if(freq > 0)
 313              		.loc 1 43 9 view .LVU67
  44:../../DaisySP/Source/Filters/comb.h ****         {
  45:../../DaisySP/Source/Filters/comb.h ****             SetPeriod(1.f / freq);
 314              		.loc 1 45 13 view .LVU68
 315              		.loc 1 45 22 is_stmt 0 view .LVU69
 316 0036 0948     		ldr	r0, .L23+8
 317 0038 9FED090A 		vldr.32	s0, .L23+12
 318 003c FFF7FEFF 		bl	_ZN7daisysp4Comb9SetPeriodEf
 319              	.LVL19:
 320              		.loc 1 45 22 view .LVU70
 321              	.LBE87:
 322              	.LBE86:
  48:comb.cpp      **** 
  49:comb.cpp      ****     //initialize noise
  50:comb.cpp      ****     noise.Init();
 323              		.loc 8 50 5 is_stmt 1 view .LVU71
 324              	.LBB88:
 325              	.LBI82:
  19:../../DaisySP/Source/Noise/whitenoise.h ****     {
 326              		.loc 2 19 10 view .LVU72
 327              	.LBB84:
  21:../../DaisySP/Source/Noise/whitenoise.h ****         randseed_ = 1;
 328              		.loc 2 21 9 view .LVU73
  21:../../DaisySP/Source/Noise/whitenoise.h ****         randseed_ = 1;
 329              		.loc 2 21 19 is_stmt 0 view .LVU74
 330 0040 084B     		ldr	r3, .L23+16
  22:../../DaisySP/Source/Noise/whitenoise.h ****     }
 331              		.loc 2 22 19 view .LVU75
 332 0042 0122     		movs	r2, #1
 333              	.LBE84:
 334              	.LBE88:
  51:comb.cpp      **** 
  52:comb.cpp      ****     // start callback
  53:comb.cpp      ****     seed.StartAudio(AudioCallback);
ARM GAS  /tmp/ccpeNZea.s 			page 14


 335              		.loc 8 53 20 view .LVU76
 336 0044 0849     		ldr	r1, .L23+20
 337 0046 0348     		ldr	r0, .L23
 338              	.LBB89:
 339              	.LBB85:
  21:../../DaisySP/Source/Noise/whitenoise.h ****         randseed_ = 1;
 340              		.loc 2 21 19 view .LVU77
 341 0048 1C60     		str	r4, [r3]	@ float
  22:../../DaisySP/Source/Noise/whitenoise.h ****     }
 342              		.loc 2 22 9 is_stmt 1 view .LVU78
  22:../../DaisySP/Source/Noise/whitenoise.h ****     }
 343              		.loc 2 22 19 is_stmt 0 view .LVU79
 344 004a 5A60     		str	r2, [r3, #4]
 345              	.LBE85:
 346              	.LBE89:
 347              		.loc 8 53 5 is_stmt 1 view .LVU80
 348              		.loc 8 53 20 is_stmt 0 view .LVU81
 349 004c FFF7FEFF 		bl	_ZN5daisy9DaisySeed10StartAudioEPFvPKfPfjE
 350              	.LVL20:
 351              	.L20:
  54:comb.cpp      **** 
  55:comb.cpp      **** 
  56:comb.cpp      ****     while(1) {}
 352              		.loc 8 56 5 is_stmt 1 discriminator 1 view .LVU82
 353              		.loc 8 56 5 discriminator 1 view .LVU83
 354              		.loc 8 56 5 discriminator 1 view .LVU84
 355              		.loc 8 56 5 discriminator 1 view .LVU85
 356 0050 FEE7     		b	.L20
 357              	.L24:
 358 0052 00BF     		.align	2
 359              	.L23:
 360 0054 00000000 		.word	.LANCHOR2
 361 0058 00000000 		.word	buf
 362 005c 00000000 		.word	.LANCHOR1
 363 0060 6F12033B 		.word	990057071
 364 0064 00000000 		.word	.LANCHOR0
 365 0068 00000000 		.word	_ZL13AudioCallbackPKfPfj
 366              		.cfi_endproc
 367              	.LFE4213:
 369              		.section	.text.startup._GLOBAL__sub_I_flt,"ax",%progbits
 370              		.align	1
 371              		.p2align 2,,3
 372              		.syntax unified
 373              		.thumb
 374              		.thumb_func
 375              		.fpu fpv5-d16
 377              	_GLOBAL__sub_I_flt:
 378              	.LFB4759:
  57:comb.cpp      **** }
 379              		.loc 8 57 1 view -0
 380              		.cfi_startproc
 381              		@ args = 0, pretend = 0, frame = 0
 382              		@ frame_needed = 0, uses_anonymous_args = 0
 383              	.LBB109:
 384              	.LBI109:
 385              		.loc 8 57 1 view .LVU87
 386              	.LVL21:
ARM GAS  /tmp/ccpeNZea.s 			page 15


 387              	.LBB110:
 388              	.LBB111:
 389              	.LBI111:
  21:../../libdaisy/src/daisy_seed.h ****     ~DaisySeed() {}
 390              		.loc 3 21 5 view .LVU88
 391              	.LBB112:
 392              	.LBB113:
 393              	.LBI113:
  62:../../libdaisy/src/hid/audio.h ****     ~AudioHandle() {}
 394              		.loc 7 62 5 view .LVU89
 395              	.LBE113:
 396              	.LBE112:
 397              	.LBE111:
 398              	.LBE110:
 399              	.LBE109:
 400              		.loc 8 57 1 is_stmt 0 view .LVU90
 401 0000 08B5     		push	{r3, lr}
 402              		.cfi_def_cfa_offset 8
 403              		.cfi_offset 3, -8
 404              		.cfi_offset 14, -4
 405              	.LBB134:
 406              	.LBB132:
 407              	.LBB128:
 408              	.LBB126:
 409              	.LBB118:
 410              	.LBB114:
 411              	.LBB115:
  62:../../libdaisy/src/hid/audio.h ****     ~AudioHandle() {}
 412              		.loc 7 62 35 view .LVU91
 413 0002 0A48     		ldr	r0, .L27
 414 0004 0023     		movs	r3, #0
 415              	.LBE115:
 416              	.LBE114:
 417              	.LBE118:
 418              	.LBE126:
 419              	.LBE128:
   7:comb.cpp      **** Comb              flt;
 420              		.loc 8 7 19 view .LVU92
 421 0006 0A4A     		ldr	r2, .L27+4
 422              	.LBB129:
 423              	.LBB127:
 424              	.LBB119:
 425              	.LBB117:
 426              	.LBB116:
  62:../../libdaisy/src/hid/audio.h ****     ~AudioHandle() {}
 427              		.loc 7 62 35 view .LVU93
 428 0008 4361     		str	r3, [r0, #20]
 429              	.LVL22:
  62:../../libdaisy/src/hid/audio.h ****     ~AudioHandle() {}
 430              		.loc 7 62 35 view .LVU94
 431              	.LBE116:
 432              	.LBE117:
 433              	.LBE119:
 434              	.LBB120:
 435              	.LBI120:
  84:../../libdaisy/src/per/adc.h ****     ~AdcHandle() {}
 436              		.loc 6 84 5 is_stmt 1 view .LVU95
ARM GAS  /tmp/ccpeNZea.s 			page 16


  84:../../libdaisy/src/per/adc.h ****     ~AdcHandle() {}
 437              		.loc 6 84 5 is_stmt 0 view .LVU96
 438              	.LBE120:
 439              	.LBB121:
 440              	.LBI121:
 441              		.file 9 "../../libdaisy/src/per/dac.h"
   1:../../libdaisy/src/per/dac.h **** #pragma once
   2:../../libdaisy/src/per/dac.h **** #ifndef DSY_DAC_H
   3:../../libdaisy/src/per/dac.h **** #define DSY_DAC_H
   4:../../libdaisy/src/per/dac.h **** 
   5:../../libdaisy/src/per/dac.h **** #include "daisy_core.h"
   6:../../libdaisy/src/per/dac.h **** 
   7:../../libdaisy/src/per/dac.h **** namespace daisy
   8:../../libdaisy/src/per/dac.h **** {
   9:../../libdaisy/src/per/dac.h **** /** DAC handle for Built-in DAC Peripheral 
  10:../../libdaisy/src/per/dac.h ****  ** 
  11:../../libdaisy/src/per/dac.h ****  ** For now only Normal Mode is supported,
  12:../../libdaisy/src/per/dac.h ****  ** Sample and hold mode provides reduced power consumption, but requires a bit more setup.
  13:../../libdaisy/src/per/dac.h ****  **
  14:../../libdaisy/src/per/dac.h ****  ** For now connecting the DAC through other internal periphearls is also not supported.
  15:../../libdaisy/src/per/dac.h ****  **
  16:../../libdaisy/src/per/dac.h ****  ** Since the DAC channels have dedicated pins we don't need to pass in a pin config like with
  17:../../libdaisy/src/per/dac.h ****  ** other modules. However, it is still important to not try to use the DAC pins for anything else.
  18:../../libdaisy/src/per/dac.h ****  ** DAC Channel 1 is on PA4, and DAC Channel 2 is on PA5
  19:../../libdaisy/src/per/dac.h ****  ***/
  20:../../libdaisy/src/per/dac.h **** class DacHandle
  21:../../libdaisy/src/per/dac.h **** {
  22:../../libdaisy/src/per/dac.h ****   public:
  23:../../libdaisy/src/per/dac.h ****     /** Return Values for the DacHandle class */
  24:../../libdaisy/src/per/dac.h ****     enum class Result
  25:../../libdaisy/src/per/dac.h ****     {
  26:../../libdaisy/src/per/dac.h ****         OK,
  27:../../libdaisy/src/per/dac.h ****         ERR,
  28:../../libdaisy/src/per/dac.h ****     };
  29:../../libdaisy/src/per/dac.h **** 
  30:../../libdaisy/src/per/dac.h ****     /** Selects which channel(s) will be configured for use. */
  31:../../libdaisy/src/per/dac.h ****     enum class Channel
  32:../../libdaisy/src/per/dac.h ****     {
  33:../../libdaisy/src/per/dac.h ****         ONE,
  34:../../libdaisy/src/per/dac.h ****         TWO,
  35:../../libdaisy/src/per/dac.h ****         BOTH,
  36:../../libdaisy/src/per/dac.h ****     };
  37:../../libdaisy/src/per/dac.h **** 
  38:../../libdaisy/src/per/dac.h ****     /** Sets the Mode for the DAC channels.
  39:../../libdaisy/src/per/dac.h ****      **
  40:../../libdaisy/src/per/dac.h ****      ** Polling mode uses the blocking mode to transmit a single value at a time.
  41:../../libdaisy/src/per/dac.h ****      **
  42:../../libdaisy/src/per/dac.h ****      ** DMA mode uses a buffer, and periodically transmits it triggering a 
  43:../../libdaisy/src/per/dac.h ****      ** callback to fill the buffer when it is ready for more samples.
  44:../../libdaisy/src/per/dac.h ****      ***/
  45:../../libdaisy/src/per/dac.h ****     enum class Mode
  46:../../libdaisy/src/per/dac.h ****     {
  47:../../libdaisy/src/per/dac.h ****         POLLING,
  48:../../libdaisy/src/per/dac.h ****         DMA,
  49:../../libdaisy/src/per/dac.h ****     };
  50:../../libdaisy/src/per/dac.h **** 
  51:../../libdaisy/src/per/dac.h ****     /** Sets the number of bits per sample transmitted out of the DAC.
ARM GAS  /tmp/ccpeNZea.s 			page 17


  52:../../libdaisy/src/per/dac.h ****      ** The output range will be: 0V - VDDA
  53:../../libdaisy/src/per/dac.h ****      ** The resolution will be roughly: bitdepth / (VDDA - 0V) 
  54:../../libdaisy/src/per/dac.h ****      ***/
  55:../../libdaisy/src/per/dac.h ****     enum class BitDepth
  56:../../libdaisy/src/per/dac.h ****     {
  57:../../libdaisy/src/per/dac.h ****         BITS_8,
  58:../../libdaisy/src/per/dac.h ****         BITS_12
  59:../../libdaisy/src/per/dac.h ****     };
  60:../../libdaisy/src/per/dac.h **** 
  61:../../libdaisy/src/per/dac.h ****     /** Sets whether the DAC output is buffered for higher drive ability. */
  62:../../libdaisy/src/per/dac.h ****     enum class BufferState
  63:../../libdaisy/src/per/dac.h ****     {
  64:../../libdaisy/src/per/dac.h ****         ENABLED,
  65:../../libdaisy/src/per/dac.h ****         DISABLED,
  66:../../libdaisy/src/per/dac.h ****     };
  67:../../libdaisy/src/per/dac.h **** 
  68:../../libdaisy/src/per/dac.h ****     /** Configuration structure for initializing the DAC structure. */
  69:../../libdaisy/src/per/dac.h ****     struct Config
  70:../../libdaisy/src/per/dac.h ****     {
  71:../../libdaisy/src/per/dac.h ****         /** Target Samplerate in Hz used to configure the internal 
  72:../../libdaisy/src/per/dac.h ****          ** timebase for DMA mode. Does nothing in POLLING mode.
  73:../../libdaisy/src/per/dac.h ****          ** If the value is 0 at Init time this will default to 48000Hz 
  74:../../libdaisy/src/per/dac.h ****          ** otherwise the driver will attempt meet the target.*/
  75:../../libdaisy/src/per/dac.h ****         uint32_t target_samplerate;
  76:../../libdaisy/src/per/dac.h **** 
  77:../../libdaisy/src/per/dac.h ****         Channel     chn;
  78:../../libdaisy/src/per/dac.h ****         Mode        mode;
  79:../../libdaisy/src/per/dac.h ****         BitDepth    bitdepth;
  80:../../libdaisy/src/per/dac.h ****         BufferState buff_state;
  81:../../libdaisy/src/per/dac.h ****     };
  82:../../libdaisy/src/per/dac.h **** 
  83:../../libdaisy/src/per/dac.h ****     DacHandle() : pimpl_(nullptr) {}
 442              		.loc 9 83 5 is_stmt 1 view .LVU97
 443              	.LBB122:
 444              	.LBB123:
 445              		.loc 9 83 33 is_stmt 0 view .LVU98
 446 000a 0362     		str	r3, [r0, #32]
 447              	.LVL23:
 448              		.loc 9 83 33 view .LVU99
 449              	.LBE123:
 450              	.LBE122:
 451              	.LBE121:
 452              	.LBB124:
 453              	.LBI124:
  40:../../libdaisy/src/hid/usb.h **** 
 454              		.loc 5 40 5 is_stmt 1 view .LVU100
  40:../../libdaisy/src/hid/usb.h **** 
 455              		.loc 5 40 5 is_stmt 0 view .LVU101
 456              	.LBE124:
 457              	.LBB125:
 458              	.LBI125:
  58:../../libdaisy/src/sys/system.h ****     ~System() {}
 459              		.loc 4 58 5 is_stmt 1 view .LVU102
  58:../../libdaisy/src/sys/system.h ****     ~System() {}
 460              		.loc 4 58 5 is_stmt 0 view .LVU103
 461              	.LBE125:
 462              	.LBE127:
ARM GAS  /tmp/ccpeNZea.s 			page 18


 463              	.LBE129:
   7:comb.cpp      **** Comb              flt;
 464              		.loc 8 7 19 view .LVU104
 465 000c 0949     		ldr	r1, .L27+8
 466 000e FFF7FEFF 		bl	__aeabi_atexit
 467              	.LVL24:
 468              	.LBB130:
 469              	.LBI130:
  19:../../DaisySP/Source/Filters/comb.h ****     ~Comb() {}
 470              		.loc 1 19 5 is_stmt 1 view .LVU105
  19:../../DaisySP/Source/Filters/comb.h ****     ~Comb() {}
 471              		.loc 1 19 5 is_stmt 0 view .LVU106
 472              	.LBE130:
   8:comb.cpp      **** static WhiteNoise noise;
 473              		.loc 8 8 19 view .LVU107
 474 0012 074A     		ldr	r2, .L27+4
 475 0014 0849     		ldr	r1, .L27+12
 476 0016 0948     		ldr	r0, .L27+16
 477 0018 FFF7FEFF 		bl	__aeabi_atexit
 478              	.LVL25:
 479              	.LBB131:
 480              	.LBI131:
  15:../../DaisySP/Source/Noise/whitenoise.h ****     ~WhiteNoise() {}
 481              		.loc 2 15 5 is_stmt 1 view .LVU108
  15:../../DaisySP/Source/Noise/whitenoise.h ****     ~WhiteNoise() {}
 482              		.loc 2 15 5 is_stmt 0 view .LVU109
 483              	.LBE131:
   9:comb.cpp      **** 
 484              		.loc 8 9 19 view .LVU110
 485 001c 044A     		ldr	r2, .L27+4
 486 001e 0849     		ldr	r1, .L27+20
 487 0020 0848     		ldr	r0, .L27+24
 488              	.LBE132:
 489              	.LBE134:
 490              		.loc 8 57 1 view .LVU111
 491 0022 BDE80840 		pop	{r3, lr}
 492              		.cfi_restore 14
 493              		.cfi_restore 3
 494              		.cfi_def_cfa_offset 0
 495              	.LBB135:
 496              	.LBB133:
   9:comb.cpp      **** 
 497              		.loc 8 9 19 view .LVU112
 498 0026 FFF7FEBF 		b	__aeabi_atexit
 499              	.LVL26:
 500              	.L28:
 501 002a 00BF     		.align	2
 502              	.L27:
 503 002c 00000000 		.word	.LANCHOR2
 504 0030 00000000 		.word	__dso_handle
 505 0034 00000000 		.word	_ZN5daisy9DaisySeedD1Ev
 506 0038 00000000 		.word	_ZN7daisysp4CombD1Ev
 507 003c 00000000 		.word	.LANCHOR1
 508 0040 00000000 		.word	_ZN7daisysp10WhiteNoiseD1Ev
 509 0044 00000000 		.word	.LANCHOR0
 510              	.LBE133:
 511              	.LBE135:
ARM GAS  /tmp/ccpeNZea.s 			page 19


 512              		.cfi_endproc
 513              	.LFE4759:
 515              		.section	.init_array,"aw",%init_array
 516              		.align	2
 517 0000 00000000 		.word	_GLOBAL__sub_I_flt(target1)
 518              		.global	buf
 519              		.global	flt
 520              		.section	.bss._ZL4seed,"aw",%nobits
 521              		.align	2
 522              		.set	.LANCHOR2,. + 0
 525              	_ZL4seed:
 526 0000 00000000 		.space	60
 526      00000000 
 526      00000000 
 526      00000000 
 526      00000000 
 527              		.section	.bss._ZL5noise,"aw",%nobits
 528              		.align	2
 529              		.set	.LANCHOR0,. + 0
 532              	_ZL5noise:
 533 0000 00000000 		.space	8
 533      00000000 
 534              		.section	.bss.buf,"aw",%nobits
 535              		.align	2
 538              	buf:
 539 0000 00000000 		.space	38400
 539      00000000 
 539      00000000 
 539      00000000 
 539      00000000 
 540              		.section	.bss.flt,"aw",%nobits
 541              		.align	2
 542              		.set	.LANCHOR1,. + 0
 545              	flt:
 546 0000 00000000 		.space	40
 546      00000000 
 546      00000000 
 546      00000000 
 546      00000000 
 547              		.text
 548              	.Letext0:
 549              		.file 10 "/usr/lib/gcc/arm-none-eabi/9.2.1/include/stdint.h"
 550              		.file 11 "../../libdaisy/Drivers/CMSIS/Include/core_cm7.h"
 551              		.file 12 "../../libdaisy/Drivers/CMSIS/Device/ST/STM32H7xx/Include/system_stm32h7xx.h"
 552              		.file 13 "/usr/lib/gcc/arm-none-eabi/9.2.1/include/stddef.h"
 553              		.file 14 "/usr/include/newlib/c++/9.2.1/cmath"
 554              		.file 15 "/usr/include/newlib/c++/9.2.1/bits/std_abs.h"
 555              		.file 16 "/usr/include/newlib/c++/9.2.1/cstdint"
 556              		.file 17 "/usr/include/newlib/c++/9.2.1/cstdlib"
 557              		.file 18 "/usr/include/newlib/c++/9.2.1/type_traits"
 558              		.file 19 "/usr/include/newlib/c++/9.2.1/arm-none-eabi/thumb/v7e-m+dp/hard/bits/c++config.h"
 559              		.file 20 "/usr/include/newlib/c++/9.2.1/bits/stl_pair.h"
 560              		.file 21 "/usr/include/newlib/c++/9.2.1/debug/debug.h"
 561              		.file 22 "/usr/include/newlib/c++/9.2.1/cwchar"
 562              		.file 23 "/usr/include/newlib/c++/9.2.1/bits/exception_ptr.h"
 563              		.file 24 "/usr/include/newlib/c++/9.2.1/new"
 564              		.file 25 "/usr/include/newlib/c++/9.2.1/clocale"
ARM GAS  /tmp/ccpeNZea.s 			page 20


 565              		.file 26 "/usr/include/newlib/c++/9.2.1/cstdio"
 566              		.file 27 "/usr/include/newlib/c++/9.2.1/bits/basic_string.h"
 567              		.file 28 "/usr/include/newlib/c++/9.2.1/bits/uniform_int_dist.h"
 568              		.file 29 "/usr/include/newlib/c++/9.2.1/bits/random.h"
 569              		.file 30 "/usr/include/newlib/c++/9.2.1/cstring"
 570              		.file 31 "/usr/include/newlib/c++/9.2.1/bits/algorithmfwd.h"
 571              		.file 32 "/usr/include/newlib/c++/9.2.1/cstdarg"
 572              		.file 33 "/usr/include/newlib/c++/9.2.1/bits/predefined_ops.h"
 573              		.file 34 "/usr/include/newlib/c++/9.2.1/ext/new_allocator.h"
 574              		.file 35 "/usr/include/newlib/c++/9.2.1/ext/numeric_traits.h"
 575              		.file 36 "/usr/include/newlib/sys/_types.h"
 576              		.file 37 "<built-in>"
 577              		.file 38 "/usr/include/newlib/sys/reent.h"
 578              		.file 39 "/usr/include/newlib/sys/lock.h"
 579              		.file 40 "/usr/include/newlib/math.h"
 580              		.file 41 "/usr/include/newlib/stdlib.h"
 581              		.file 42 "/usr/include/newlib/c++/9.2.1/math.h"
 582              		.file 43 "../../libdaisy/Drivers/STM32H7xx_HAL_Driver/Inc/stm32h7xx_hal_def.h"
 583              		.file 44 "../../libdaisy/Drivers/STM32H7xx_HAL_Driver/Inc/stm32h7xx_hal_flash.h"
 584              		.file 45 "../../DaisySP/Source/Control/adenv.h"
 585              		.file 46 "../../DaisySP/Source/Utility/dsp.h"
 586              		.file 47 "/usr/lib/gcc/arm-none-eabi/9.2.1/include/stdarg.h"
 587              		.file 48 "/usr/include/newlib/wchar.h"
 588              		.file 49 "/usr/include/newlib/locale.h"
 589              		.file 50 "/usr/include/newlib/ctype.h"
 590              		.file 51 "/usr/include/newlib/stdio.h"
 591              		.file 52 "/usr/include/newlib/sys/errno.h"
 592              		.file 53 "/usr/include/newlib/c++/9.2.1/stdlib.h"
 593              		.file 54 "/usr/include/newlib/string.h"
 594              		.file 55 "../../libdaisy/src/daisy_core.h"
 595              		.file 56 "../../libdaisy/src/per/tim.h"
 596              		.file 57 "../../libdaisy/src/per/sai.h"
 597              		.file 58 "../../libdaisy/src/util/wav_format.h"
 598              		.file 59 "../../libdaisy/src/per/qspi.h"
 599              		.file 60 "../../libdaisy/src/per/gpio.h"
 600              		.file 61 "../../libdaisy/src/dev/sdram.h"
 601              		.file 62 "/usr/include/newlib/sys/unistd.h"
 602              		.file 63 "../../libdaisy/src/util/oled_fonts.h"
 603              		.file 64 "../../libdaisy/Middlewares/Third_Party/FatFs/src/integer.h"
 604              		.file 65 "../../libdaisy/Middlewares/Third_Party/FatFs/src/ff.h"
 605              		.file 66 "../../libdaisy/Middlewares/Third_Party/FatFs/src/diskio.h"
 606              		.file 67 "../../libdaisy/Middlewares/Third_Party/FatFs/src/ff_gen_drv.h"
 607              		.file 68 "../../libdaisy/src/util/sd_diskio.h"
 608              		.file 69 "../../libdaisy/src/sys/fatfs.h"
 609              		.file 70 "../../libdaisy/src/dev/sr_595.h"
ARM GAS  /tmp/ccpeNZea.s 			page 21

