ARM GAS  /tmp/ccU9pGY3.s 			page 1


   1              		.cpu cortex-m7
   2              		.eabi_attribute 28, 1
   3              		.eabi_attribute 20, 1
   4              		.eabi_attribute 21, 1
   5              		.eabi_attribute 23, 3
   6              		.eabi_attribute 24, 1
   7              		.eabi_attribute 25, 1
   8              		.eabi_attribute 26, 1
   9              		.eabi_attribute 30, 2
  10              		.eabi_attribute 34, 1
  11              		.eabi_attribute 18, 4
  12              		.file	"EuclideanDrums.cpp"
  13              		.text
  14              	.Ltext0:
  15              		.cfi_sections	.debug_frame
  16              		.section	.text._ZN7daisysp5AdEnvD2Ev,"axG",%progbits,_ZN7daisysp5AdEnvD5Ev,comdat
  17              		.align	1
  18              		.p2align 2,,3
  19              		.weak	_ZN7daisysp5AdEnvD2Ev
  20              		.arch armv7e-m
  21              		.syntax unified
  22              		.thumb
  23              		.thumb_func
  24              		.fpu fpv5-d16
  26              	_ZN7daisysp5AdEnvD2Ev:
  27              	.LVL0:
  28              	.LFB548:
  29              		.file 1 "../../DaisySP/Source/Control/adenv.h"
   1:../../DaisySP/Source/Control/adenv.h **** #pragma once
   2:../../DaisySP/Source/Control/adenv.h **** #ifndef ADENV_H
   3:../../DaisySP/Source/Control/adenv.h **** #define ADENV_H
   4:../../DaisySP/Source/Control/adenv.h **** #include <stdint.h>
   5:../../DaisySP/Source/Control/adenv.h **** #ifdef __cplusplus
   6:../../DaisySP/Source/Control/adenv.h **** 
   7:../../DaisySP/Source/Control/adenv.h **** namespace daisysp
   8:../../DaisySP/Source/Control/adenv.h **** {
   9:../../DaisySP/Source/Control/adenv.h **** /** Distinct stages that the phase of the envelope can be located in.
  10:../../DaisySP/Source/Control/adenv.h ****     @see AdEnv
  11:../../DaisySP/Source/Control/adenv.h **** */
  12:../../DaisySP/Source/Control/adenv.h **** enum AdEnvSegment
  13:../../DaisySP/Source/Control/adenv.h **** {
  14:../../DaisySP/Source/Control/adenv.h ****     /** located at phase location 0, and not currently running */
  15:../../DaisySP/Source/Control/adenv.h ****     ADENV_SEG_IDLE,
  16:../../DaisySP/Source/Control/adenv.h ****     /** First segment of envelope where phase moves from MIN value to MAX value */
  17:../../DaisySP/Source/Control/adenv.h ****     ADENV_SEG_ATTACK,
  18:../../DaisySP/Source/Control/adenv.h ****     /** Second segment of envelope where phase moves from MAX to MIN value */
  19:../../DaisySP/Source/Control/adenv.h ****     ADENV_SEG_DECAY,
  20:../../DaisySP/Source/Control/adenv.h ****     /** The final segment of the envelope (currently decay) */
  21:../../DaisySP/Source/Control/adenv.h ****     ADENV_SEG_LAST,
  22:../../DaisySP/Source/Control/adenv.h **** };
  23:../../DaisySP/Source/Control/adenv.h **** 
  24:../../DaisySP/Source/Control/adenv.h **** /** Trigger-able envelope with adjustable min/max, and independent per-segment time control.
  25:../../DaisySP/Source/Control/adenv.h **** 
  26:../../DaisySP/Source/Control/adenv.h ****     \author shensley
  27:../../DaisySP/Source/Control/adenv.h ****     \todo - Add Cycling
  28:../../DaisySP/Source/Control/adenv.h ****     \todo - Implement Curve (its only linear for now).
  29:../../DaisySP/Source/Control/adenv.h ****     \todo - Maybe make this an ADsr_ that has AD/AR/Asr_ modes.
ARM GAS  /tmp/ccU9pGY3.s 			page 2


  30:../../DaisySP/Source/Control/adenv.h ****  */
  31:../../DaisySP/Source/Control/adenv.h **** class AdEnv
  32:../../DaisySP/Source/Control/adenv.h **** {
  33:../../DaisySP/Source/Control/adenv.h ****   public:
  34:../../DaisySP/Source/Control/adenv.h ****     AdEnv() {}
  35:../../DaisySP/Source/Control/adenv.h ****     ~AdEnv() {}
  30              		.loc 1 35 5 view -0
  31              		.cfi_startproc
  32              		@ args = 0, pretend = 0, frame = 0
  33              		@ frame_needed = 0, uses_anonymous_args = 0
  34              		@ link register save eliminated.
  35              		.loc 1 35 15 is_stmt 0 view .LVU1
  36 0000 7047     		bx	lr
  37              		.cfi_endproc
  38              	.LFE548:
  40              		.weak	_ZN7daisysp5AdEnvD1Ev
  41              		.thumb_set _ZN7daisysp5AdEnvD1Ev,_ZN7daisysp5AdEnvD2Ev
  42 0002 00BF     		.section	.text._ZN7daisysp10OscillatorD2Ev,"axG",%progbits,_ZN7daisysp10OscillatorD5Ev,comdat
  43              		.align	1
  44              		.p2align 2,,3
  45              		.weak	_ZN7daisysp10OscillatorD2Ev
  46              		.syntax unified
  47              		.thumb
  48              		.thumb_func
  49              		.fpu fpv5-d16
  51              	_ZN7daisysp10OscillatorD2Ev:
  52              	.LVL1:
  53              	.LFB2797:
  54              		.file 2 "../../DaisySP/Source/Synthesis/oscillator.h"
   1:../../DaisySP/Source/Synthesis/oscillator.h **** #pragma once
   2:../../DaisySP/Source/Synthesis/oscillator.h **** #ifndef DSY_OSCILLATOR_H
   3:../../DaisySP/Source/Synthesis/oscillator.h **** #define DSY_OSCILLATOR_H
   4:../../DaisySP/Source/Synthesis/oscillator.h **** #include <stdint.h>
   5:../../DaisySP/Source/Synthesis/oscillator.h **** #include "Utility/dsp.h"
   6:../../DaisySP/Source/Synthesis/oscillator.h **** #ifdef __cplusplus
   7:../../DaisySP/Source/Synthesis/oscillator.h **** 
   8:../../DaisySP/Source/Synthesis/oscillator.h **** namespace daisysp
   9:../../DaisySP/Source/Synthesis/oscillator.h **** {
  10:../../DaisySP/Source/Synthesis/oscillator.h **** /** Synthesis of several waveforms, including polyBLEP bandlimited waveforms.
  11:../../DaisySP/Source/Synthesis/oscillator.h **** */
  12:../../DaisySP/Source/Synthesis/oscillator.h **** class Oscillator
  13:../../DaisySP/Source/Synthesis/oscillator.h **** {
  14:../../DaisySP/Source/Synthesis/oscillator.h ****   public:
  15:../../DaisySP/Source/Synthesis/oscillator.h ****     Oscillator() {}
  16:../../DaisySP/Source/Synthesis/oscillator.h ****     ~Oscillator() {}
  55              		.loc 2 16 5 is_stmt 1 view -0
  56              		.cfi_startproc
  57              		@ args = 0, pretend = 0, frame = 0
  58              		@ frame_needed = 0, uses_anonymous_args = 0
  59              		@ link register save eliminated.
  60              		.loc 2 16 20 is_stmt 0 view .LVU3
  61 0000 7047     		bx	lr
  62              		.cfi_endproc
  63              	.LFE2797:
  65              		.weak	_ZN7daisysp10OscillatorD1Ev
  66              		.thumb_set _ZN7daisysp10OscillatorD1Ev,_ZN7daisysp10OscillatorD2Ev
  67 0002 00BF     		.section	.text._ZN7daisysp10WhiteNoiseD2Ev,"axG",%progbits,_ZN7daisysp10WhiteNoiseD5Ev,comdat
ARM GAS  /tmp/ccU9pGY3.s 			page 3


  68              		.align	1
  69              		.p2align 2,,3
  70              		.weak	_ZN7daisysp10WhiteNoiseD2Ev
  71              		.syntax unified
  72              		.thumb
  73              		.thumb_func
  74              		.fpu fpv5-d16
  76              	_ZN7daisysp10WhiteNoiseD2Ev:
  77              	.LVL2:
  78              	.LFB3188:
  79              		.file 3 "../../DaisySP/Source/Noise/whitenoise.h"
   1:../../DaisySP/Source/Noise/whitenoise.h **** #pragma once
   2:../../DaisySP/Source/Noise/whitenoise.h **** #ifndef DSY_WHITENOISE_H
   3:../../DaisySP/Source/Noise/whitenoise.h **** #define DSY_WHITENOISE_H
   4:../../DaisySP/Source/Noise/whitenoise.h **** #include <stdint.h>
   5:../../DaisySP/Source/Noise/whitenoise.h **** #ifdef __cplusplus
   6:../../DaisySP/Source/Noise/whitenoise.h **** namespace daisysp
   7:../../DaisySP/Source/Noise/whitenoise.h **** {
   8:../../DaisySP/Source/Noise/whitenoise.h **** /** fast white noise generator
   9:../../DaisySP/Source/Noise/whitenoise.h **** 
  10:../../DaisySP/Source/Noise/whitenoise.h ****     I think this came from musicdsp.org at some point
  11:../../DaisySP/Source/Noise/whitenoise.h **** */
  12:../../DaisySP/Source/Noise/whitenoise.h **** class WhiteNoise
  13:../../DaisySP/Source/Noise/whitenoise.h **** {
  14:../../DaisySP/Source/Noise/whitenoise.h ****   public:
  15:../../DaisySP/Source/Noise/whitenoise.h ****     WhiteNoise() {}
  16:../../DaisySP/Source/Noise/whitenoise.h ****     ~WhiteNoise() {}
  80              		.loc 3 16 5 is_stmt 1 view -0
  81              		.cfi_startproc
  82              		@ args = 0, pretend = 0, frame = 0
  83              		@ frame_needed = 0, uses_anonymous_args = 0
  84              		@ link register save eliminated.
  85              		.loc 3 16 20 is_stmt 0 view .LVU5
  86 0000 7047     		bx	lr
  87              		.cfi_endproc
  88              	.LFE3188:
  90              		.weak	_ZN7daisysp10WhiteNoiseD1Ev
  91              		.thumb_set _ZN7daisysp10WhiteNoiseD1Ev,_ZN7daisysp10WhiteNoiseD2Ev
  92 0002 00BF     		.section	.text._ZN7daisysp5MetroD2Ev,"axG",%progbits,_ZN7daisysp5MetroD5Ev,comdat
  93              		.align	1
  94              		.p2align 2,,3
  95              		.weak	_ZN7daisysp5MetroD2Ev
  96              		.syntax unified
  97              		.thumb
  98              		.thumb_func
  99              		.fpu fpv5-d16
 101              	_ZN7daisysp5MetroD2Ev:
 102              	.LVL3:
 103              	.LFB3332:
 104              		.file 4 "../../DaisySP/Source/Utility/metro.h"
   1:../../DaisySP/Source/Utility/metro.h **** #pragma once
   2:../../DaisySP/Source/Utility/metro.h **** #ifndef DSY_METRO_H
   3:../../DaisySP/Source/Utility/metro.h **** #define DSY_METRO_H
   4:../../DaisySP/Source/Utility/metro.h **** #include <stdint.h>
   5:../../DaisySP/Source/Utility/metro.h **** #ifdef __cplusplus
   6:../../DaisySP/Source/Utility/metro.h **** 
   7:../../DaisySP/Source/Utility/metro.h **** namespace daisysp
ARM GAS  /tmp/ccU9pGY3.s 			page 4


   8:../../DaisySP/Source/Utility/metro.h **** {
   9:../../DaisySP/Source/Utility/metro.h **** /** Creates a clock signal at a specific frequency.
  10:../../DaisySP/Source/Utility/metro.h **** */
  11:../../DaisySP/Source/Utility/metro.h **** class Metro
  12:../../DaisySP/Source/Utility/metro.h **** {
  13:../../DaisySP/Source/Utility/metro.h ****   public:
  14:../../DaisySP/Source/Utility/metro.h ****     Metro() {}
  15:../../DaisySP/Source/Utility/metro.h ****     ~Metro() {}
 105              		.loc 4 15 5 is_stmt 1 view -0
 106              		.cfi_startproc
 107              		@ args = 0, pretend = 0, frame = 0
 108              		@ frame_needed = 0, uses_anonymous_args = 0
 109              		@ link register save eliminated.
 110              		.loc 4 15 15 is_stmt 0 view .LVU7
 111 0000 7047     		bx	lr
 112              		.cfi_endproc
 113              	.LFE3332:
 115              		.weak	_ZN7daisysp5MetroD1Ev
 116              		.thumb_set _ZN7daisysp5MetroD1Ev,_ZN7daisysp5MetroD2Ev
 117 0002 00BF     		.section	.text._ZN5daisy9ParameterD2Ev,"axG",%progbits,_ZN5daisy9ParameterD5Ev,comdat
 118              		.align	1
 119              		.p2align 2,,3
 120              		.weak	_ZN5daisy9ParameterD2Ev
 121              		.syntax unified
 122              		.thumb
 123              		.thumb_func
 124              		.fpu fpv5-d16
 126              	_ZN5daisy9ParameterD2Ev:
 127              	.LVL4:
 128              	.LFB3778:
 129              		.file 5 "../../libdaisy/src/hid/parameter.h"
   1:../../libdaisy/src/hid/parameter.h **** #pragma once
   2:../../libdaisy/src/hid/parameter.h **** #include <stdint.h>
   3:../../libdaisy/src/hid/parameter.h **** #include "hid/ctrl.h"
   4:../../libdaisy/src/hid/parameter.h **** 
   5:../../libdaisy/src/hid/parameter.h **** namespace daisy
   6:../../libdaisy/src/hid/parameter.h **** {
   7:../../libdaisy/src/hid/parameter.h **** /** @addtogroup controls
   8:../../libdaisy/src/hid/parameter.h ****     @{
   9:../../libdaisy/src/hid/parameter.h **** */
  10:../../libdaisy/src/hid/parameter.h **** 
  11:../../libdaisy/src/hid/parameter.h **** /**      Simple parameter mapping tool that takes a 0-1 input from an hid_ctrl. */
  12:../../libdaisy/src/hid/parameter.h **** class Parameter
  13:../../libdaisy/src/hid/parameter.h **** {
  14:../../libdaisy/src/hid/parameter.h ****   public:
  15:../../libdaisy/src/hid/parameter.h ****     /** Curves are applied to the output signal */
  16:../../libdaisy/src/hid/parameter.h ****     enum Curve
  17:../../libdaisy/src/hid/parameter.h ****     {
  18:../../libdaisy/src/hid/parameter.h ****         LINEAR,      /**< Linear curve */
  19:../../libdaisy/src/hid/parameter.h ****         EXPONENTIAL, /**< Exponential curve */
  20:../../libdaisy/src/hid/parameter.h ****         LOGARITHMIC, /**<  Logarithmic curve */
  21:../../libdaisy/src/hid/parameter.h ****         CUBE,        /**< Cubic curve */
  22:../../libdaisy/src/hid/parameter.h ****         LAST,        /**< Final enum element. */
  23:../../libdaisy/src/hid/parameter.h ****     };
  24:../../libdaisy/src/hid/parameter.h ****     /** Constructor */
  25:../../libdaisy/src/hid/parameter.h ****     Parameter() {}
  26:../../libdaisy/src/hid/parameter.h ****     /** Destructor */
ARM GAS  /tmp/ccU9pGY3.s 			page 5


  27:../../libdaisy/src/hid/parameter.h ****     ~Parameter() {}
 130              		.loc 5 27 5 is_stmt 1 view -0
 131              		.cfi_startproc
 132              		@ args = 0, pretend = 0, frame = 0
 133              		@ frame_needed = 0, uses_anonymous_args = 0
 134              		@ link register save eliminated.
 135              	.LBB442:
 136              	.LBI442:
 137              		.file 6 "../../libdaisy/src/hid/ctrl.h"
   1:../../libdaisy/src/hid/ctrl.h **** #pragma once
   2:../../libdaisy/src/hid/ctrl.h **** #ifndef DSY_KNOB_H
   3:../../libdaisy/src/hid/ctrl.h **** #define DSY_KNOB_H /**< & */
   4:../../libdaisy/src/hid/ctrl.h **** #include <stdint.h>
   5:../../libdaisy/src/hid/ctrl.h **** 
   6:../../libdaisy/src/hid/ctrl.h **** #ifdef __cplusplus
   7:../../libdaisy/src/hid/ctrl.h **** namespace daisy
   8:../../libdaisy/src/hid/ctrl.h **** {
   9:../../libdaisy/src/hid/ctrl.h **** /**
  10:../../libdaisy/src/hid/ctrl.h ****     @brief Hardware Interface for control inputs \n 
  11:../../libdaisy/src/hid/ctrl.h ****     Primarily designed for ADC input controls such as \n 
  12:../../libdaisy/src/hid/ctrl.h ****     potentiometers, and control voltage. \n 
  13:../../libdaisy/src/hid/ctrl.h ****     @author Stephen Hensley
  14:../../libdaisy/src/hid/ctrl.h ****     @date November 2019
  15:../../libdaisy/src/hid/ctrl.h ****     @ingroup controls
  16:../../libdaisy/src/hid/ctrl.h **** */
  17:../../libdaisy/src/hid/ctrl.h **** class AnalogControl
  18:../../libdaisy/src/hid/ctrl.h **** {
  19:../../libdaisy/src/hid/ctrl.h ****   public:
  20:../../libdaisy/src/hid/ctrl.h ****     /** Constructor */
  21:../../libdaisy/src/hid/ctrl.h ****     AnalogControl() {}
  22:../../libdaisy/src/hid/ctrl.h ****     /** destructor */
  23:../../libdaisy/src/hid/ctrl.h ****     ~AnalogControl() {}
 138              		.loc 6 23 5 view .LVU9
 139              		.loc 6 23 5 is_stmt 0 view .LVU10
 140              	.LBE442:
 141              		.loc 5 27 19 view .LVU11
 142 0000 7047     		bx	lr
 143              		.cfi_endproc
 144              	.LFE3778:
 146              		.weak	_ZN5daisy9ParameterD1Ev
 147              		.thumb_set _ZN5daisy9ParameterD1Ev,_ZN5daisy9ParameterD2Ev
 148 0002 00BF     		.section	.text._ZN5daisy8DaisyPodD2Ev,"axG",%progbits,_ZN5daisy8DaisyPodD5Ev,comdat
 149              		.align	1
 150              		.p2align 2,,3
 151              		.weak	_ZN5daisy8DaisyPodD2Ev
 152              		.syntax unified
 153              		.thumb
 154              		.thumb_func
 155              		.fpu fpv5-d16
 157              	_ZN5daisy8DaisyPodD2Ev:
 158              	.LVL5:
 159              	.LFB4216:
 160              		.file 7 "../../libdaisy/src/daisy_pod.h"
   1:../../libdaisy/src/daisy_pod.h **** #pragma once
   2:../../libdaisy/src/daisy_pod.h **** #ifndef DSY_POD_BSP_H
   3:../../libdaisy/src/daisy_pod.h **** #define DSY_POD_BSP_H
   4:../../libdaisy/src/daisy_pod.h **** 
ARM GAS  /tmp/ccU9pGY3.s 			page 6


   5:../../libdaisy/src/daisy_pod.h **** #include "daisy_seed.h"
   6:../../libdaisy/src/daisy_pod.h **** 
   7:../../libdaisy/src/daisy_pod.h **** namespace daisy
   8:../../libdaisy/src/daisy_pod.h **** {
   9:../../libdaisy/src/daisy_pod.h **** /**
  10:../../libdaisy/src/daisy_pod.h ****     @brief Class that handles initializing all of the hardware specific to the Daisy Patch Board. \
  11:../../libdaisy/src/daisy_pod.h ****     Helper funtions are also in place to provide easy access to built-in controls and peripherals.
  12:../../libdaisy/src/daisy_pod.h ****     @author Stephen Hensley
  13:../../libdaisy/src/daisy_pod.h ****     @date November 2019
  14:../../libdaisy/src/daisy_pod.h ****     @ingroup boards
  15:../../libdaisy/src/daisy_pod.h **** */
  16:../../libdaisy/src/daisy_pod.h **** class DaisyPod
  17:../../libdaisy/src/daisy_pod.h **** {
  18:../../libdaisy/src/daisy_pod.h ****   public:
  19:../../libdaisy/src/daisy_pod.h ****     /** Switches */
  20:../../libdaisy/src/daisy_pod.h ****     enum Sw
  21:../../libdaisy/src/daisy_pod.h ****     {
  22:../../libdaisy/src/daisy_pod.h ****         BUTTON_1,    /** & */
  23:../../libdaisy/src/daisy_pod.h ****         BUTTON_2,    /** & */
  24:../../libdaisy/src/daisy_pod.h ****         BUTTON_LAST, /** &  */
  25:../../libdaisy/src/daisy_pod.h ****     };
  26:../../libdaisy/src/daisy_pod.h **** 
  27:../../libdaisy/src/daisy_pod.h ****     /** Knobs */
  28:../../libdaisy/src/daisy_pod.h ****     enum Knob
  29:../../libdaisy/src/daisy_pod.h ****     {
  30:../../libdaisy/src/daisy_pod.h ****         KNOB_1,    /** &  */
  31:../../libdaisy/src/daisy_pod.h ****         KNOB_2,    /** & */
  32:../../libdaisy/src/daisy_pod.h ****         KNOB_LAST, /** & */
  33:../../libdaisy/src/daisy_pod.h ****     };
  34:../../libdaisy/src/daisy_pod.h **** 
  35:../../libdaisy/src/daisy_pod.h ****     DaisyPod() {}
  36:../../libdaisy/src/daisy_pod.h ****     ~DaisyPod() {}
 161              		.loc 7 36 5 is_stmt 1 view -0
 162              		.cfi_startproc
 163              		@ args = 0, pretend = 0, frame = 0
 164              		@ frame_needed = 0, uses_anonymous_args = 0
 165              		@ link register save eliminated.
 166              	.LBB443:
 167              	.LBI443:
 168              		.file 8 "../../libdaisy/src/hid/midi.h"
   1:../../libdaisy/src/hid/midi.h **** #pragma once
   2:../../libdaisy/src/hid/midi.h **** #ifndef DSY_MIDI_H
   3:../../libdaisy/src/hid/midi.h **** #define DSY_MIDI_H
   4:../../libdaisy/src/hid/midi.h **** 
   5:../../libdaisy/src/hid/midi.h **** // TODO: make this adjustable
   6:../../libdaisy/src/hid/midi.h **** #define SYSEX_BUFFER_LEN 128
   7:../../libdaisy/src/hid/midi.h **** 
   8:../../libdaisy/src/hid/midi.h **** #include <stdint.h>
   9:../../libdaisy/src/hid/midi.h **** #include <stdlib.h>
  10:../../libdaisy/src/hid/midi.h **** #include "per/uart.h"
  11:../../libdaisy/src/hid/midi.h **** #include "util/ringbuffer.h"
  12:../../libdaisy/src/hid/midi.h **** #include "hid/MidiEvent.h"
  13:../../libdaisy/src/hid/midi.h **** #include "sys/system.h"
  14:../../libdaisy/src/hid/midi.h **** 
  15:../../libdaisy/src/hid/midi.h **** namespace daisy
  16:../../libdaisy/src/hid/midi.h **** {
  17:../../libdaisy/src/hid/midi.h **** /** @addtogroup external 
ARM GAS  /tmp/ccU9pGY3.s 			page 7


  18:../../libdaisy/src/hid/midi.h ****     @{ 
  19:../../libdaisy/src/hid/midi.h **** */
  20:../../libdaisy/src/hid/midi.h **** 
  21:../../libdaisy/src/hid/midi.h **** class MidiUartTransport
  22:../../libdaisy/src/hid/midi.h **** {
  23:../../libdaisy/src/hid/midi.h ****   public:
  24:../../libdaisy/src/hid/midi.h ****     MidiUartTransport() {}
  25:../../libdaisy/src/hid/midi.h ****     ~MidiUartTransport() {}
  26:../../libdaisy/src/hid/midi.h **** 
  27:../../libdaisy/src/hid/midi.h ****     struct Config
  28:../../libdaisy/src/hid/midi.h ****     {
  29:../../libdaisy/src/hid/midi.h ****         UartHandler::Config::Peripheral periph;
  30:../../libdaisy/src/hid/midi.h ****         dsy_gpio_pin                    rx;
  31:../../libdaisy/src/hid/midi.h ****         dsy_gpio_pin                    tx;
  32:../../libdaisy/src/hid/midi.h **** 
  33:../../libdaisy/src/hid/midi.h ****         Config()
  34:../../libdaisy/src/hid/midi.h ****         {
  35:../../libdaisy/src/hid/midi.h ****             periph = UartHandler::Config::Peripheral::USART_1;
  36:../../libdaisy/src/hid/midi.h ****             rx     = {DSY_GPIOB, 7};
  37:../../libdaisy/src/hid/midi.h ****             tx     = {DSY_GPIOB, 6};
  38:../../libdaisy/src/hid/midi.h ****         }
  39:../../libdaisy/src/hid/midi.h ****     };
  40:../../libdaisy/src/hid/midi.h **** 
  41:../../libdaisy/src/hid/midi.h ****     inline void Init(Config config)
  42:../../libdaisy/src/hid/midi.h ****     {
  43:../../libdaisy/src/hid/midi.h ****         UartHandler::Config uart_config;
  44:../../libdaisy/src/hid/midi.h **** 
  45:../../libdaisy/src/hid/midi.h ****         //defaults
  46:../../libdaisy/src/hid/midi.h ****         uart_config.baudrate   = 31250;
  47:../../libdaisy/src/hid/midi.h ****         uart_config.stopbits   = UartHandler::Config::StopBits::BITS_1;
  48:../../libdaisy/src/hid/midi.h ****         uart_config.parity     = UartHandler::Config::Parity::NONE;
  49:../../libdaisy/src/hid/midi.h ****         uart_config.mode       = UartHandler::Config::Mode::TX_RX;
  50:../../libdaisy/src/hid/midi.h ****         uart_config.wordlength = UartHandler::Config::WordLength::BITS_8;
  51:../../libdaisy/src/hid/midi.h **** 
  52:../../libdaisy/src/hid/midi.h ****         //user settings
  53:../../libdaisy/src/hid/midi.h ****         uart_config.periph        = config.periph;
  54:../../libdaisy/src/hid/midi.h ****         uart_config.pin_config.rx = config.rx;
  55:../../libdaisy/src/hid/midi.h ****         uart_config.pin_config.tx = config.tx;
  56:../../libdaisy/src/hid/midi.h **** 
  57:../../libdaisy/src/hid/midi.h ****         uart_.Init(uart_config);
  58:../../libdaisy/src/hid/midi.h ****     }
  59:../../libdaisy/src/hid/midi.h **** 
  60:../../libdaisy/src/hid/midi.h ****     inline void    StartRx() { uart_.StartRx(); }
  61:../../libdaisy/src/hid/midi.h ****     inline size_t  Readable() { return uart_.Readable(); }
  62:../../libdaisy/src/hid/midi.h ****     inline uint8_t Rx() { return uart_.PopRx(); }
  63:../../libdaisy/src/hid/midi.h ****     inline bool    RxActive() { return uart_.RxActive(); }
  64:../../libdaisy/src/hid/midi.h ****     inline void    FlushRx() { uart_.FlushRx(); }
  65:../../libdaisy/src/hid/midi.h ****     inline void    Tx(uint8_t* buff, size_t size) { uart_.PollTx(buff, size); }
  66:../../libdaisy/src/hid/midi.h **** 
  67:../../libdaisy/src/hid/midi.h ****   private:
  68:../../libdaisy/src/hid/midi.h ****     UartHandler uart_;
  69:../../libdaisy/src/hid/midi.h **** };
  70:../../libdaisy/src/hid/midi.h **** 
  71:../../libdaisy/src/hid/midi.h **** /** 
  72:../../libdaisy/src/hid/midi.h ****     @brief Simple MIDI Handler \n 
  73:../../libdaisy/src/hid/midi.h ****     Parses bytes from an input into valid MidiEvents. \n 
  74:../../libdaisy/src/hid/midi.h ****     The MidiEvents fill a FIFO queue that the user can pop messages from.
ARM GAS  /tmp/ccU9pGY3.s 			page 8


  75:../../libdaisy/src/hid/midi.h ****     @author shensley
  76:../../libdaisy/src/hid/midi.h ****     @date March 2020
  77:../../libdaisy/src/hid/midi.h **** */
  78:../../libdaisy/src/hid/midi.h **** template <typename Transport>
  79:../../libdaisy/src/hid/midi.h **** class MidiHandler
  80:../../libdaisy/src/hid/midi.h **** {
  81:../../libdaisy/src/hid/midi.h ****   public:
  82:../../libdaisy/src/hid/midi.h ****     MidiHandler() {}
  83:../../libdaisy/src/hid/midi.h ****     ~MidiHandler() {}
 169              		.loc 8 83 5 view .LVU13
 170              	.LBB444:
 171              	.LBI444:
  25:../../libdaisy/src/hid/midi.h **** 
 172              		.loc 8 25 5 view .LVU14
  25:../../libdaisy/src/hid/midi.h **** 
 173              		.loc 8 25 5 is_stmt 0 view .LVU15
 174              	.LBE444:
 175              	.LBE443:
 176              	.LBB445:
 177              	.LBI445:
 178              		.file 9 "../../libdaisy/src/hid/rgb_led.h"
   1:../../libdaisy/src/hid/rgb_led.h **** #pragma once
   2:../../libdaisy/src/hid/rgb_led.h **** #ifndef DSY_RGB_LED_H
   3:../../libdaisy/src/hid/rgb_led.h **** #define DSY_RGB_LED_H
   4:../../libdaisy/src/hid/rgb_led.h **** #include "hid/led.h"
   5:../../libdaisy/src/hid/rgb_led.h **** #include "util/color.h"
   6:../../libdaisy/src/hid/rgb_led.h **** 
   7:../../libdaisy/src/hid/rgb_led.h **** namespace daisy
   8:../../libdaisy/src/hid/rgb_led.h **** {
   9:../../libdaisy/src/hid/rgb_led.h **** /** @addtogroup feedback
  10:../../libdaisy/src/hid/rgb_led.h ****     @{
  11:../../libdaisy/src/hid/rgb_led.h **** */
  12:../../libdaisy/src/hid/rgb_led.h **** 
  13:../../libdaisy/src/hid/rgb_led.h **** /** 3x LEDs configured as an RGB for ease of use. */
  14:../../libdaisy/src/hid/rgb_led.h **** class RgbLed
  15:../../libdaisy/src/hid/rgb_led.h **** {
  16:../../libdaisy/src/hid/rgb_led.h ****   public:
  17:../../libdaisy/src/hid/rgb_led.h ****     RgbLed() {}
  18:../../libdaisy/src/hid/rgb_led.h ****     ~RgbLed() {}
 179              		.loc 9 18 5 is_stmt 1 view .LVU16
 180              	.LBB446:
 181              	.LBI446:
 182              		.file 10 "../../libdaisy/src/hid/led.h"
   1:../../libdaisy/src/hid/led.h **** 
   2:../../libdaisy/src/hid/led.h **** #pragma once
   3:../../libdaisy/src/hid/led.h **** #ifndef DSY_LED_H
   4:../../libdaisy/src/hid/led.h **** #define DSY_LED_H
   5:../../libdaisy/src/hid/led.h **** #include "daisy_core.h"
   6:../../libdaisy/src/hid/led.h **** #include "per/gpio.h"
   7:../../libdaisy/src/hid/led.h **** 
   8:../../libdaisy/src/hid/led.h **** /* TODO - Get this set up to work with the dev_leddriver stuff as well
   9:../../libdaisy/src/hid/led.h **** - Setup Hardware PWM for pins that have it
  10:../../libdaisy/src/hid/led.h **** */
  11:../../libdaisy/src/hid/led.h **** 
  12:../../libdaisy/src/hid/led.h **** namespace daisy
  13:../../libdaisy/src/hid/led.h **** {
  14:../../libdaisy/src/hid/led.h **** /**
ARM GAS  /tmp/ccU9pGY3.s 			page 9


  15:../../libdaisy/src/hid/led.h ****     @brief LED Class providing simple Software PWM ability, etc \n 
  16:../../libdaisy/src/hid/led.h ****     Eventually this will work with hardware PWM, and external LED Driver devices as well.
  17:../../libdaisy/src/hid/led.h ****     @author shensley
  18:../../libdaisy/src/hid/led.h ****     @date March 2020
  19:../../libdaisy/src/hid/led.h ****     @ingroup feedback
  20:../../libdaisy/src/hid/led.h **** */
  21:../../libdaisy/src/hid/led.h **** class Led
  22:../../libdaisy/src/hid/led.h **** {
  23:../../libdaisy/src/hid/led.h ****   public:
  24:../../libdaisy/src/hid/led.h ****     Led() {}
  25:../../libdaisy/src/hid/led.h ****     ~Led() {}
 183              		.loc 10 25 5 view .LVU17
 184              		.loc 10 25 5 is_stmt 0 view .LVU18
 185              	.LBE446:
 186              	.LBB447:
 187              	.LBI447:
 188              		.loc 10 25 5 is_stmt 1 view .LVU19
 189              		.loc 10 25 5 is_stmt 0 view .LVU20
 190              	.LBE447:
 191              	.LBB448:
 192              	.LBI448:
 193              		.loc 10 25 5 is_stmt 1 view .LVU21
 194              		.loc 10 25 5 is_stmt 0 view .LVU22
 195              	.LBE448:
 196              	.LBE445:
 197              	.LBB449:
 198              	.LBI449:
 199              		.loc 9 18 5 is_stmt 1 view .LVU23
 200              	.LBB450:
 201              	.LBI450:
 202              		.loc 10 25 5 view .LVU24
 203              		.loc 10 25 5 is_stmt 0 view .LVU25
 204              	.LBE450:
 205              	.LBB451:
 206              	.LBI451:
 207              		.loc 10 25 5 is_stmt 1 view .LVU26
 208              		.loc 10 25 5 is_stmt 0 view .LVU27
 209              	.LBE451:
 210              	.LBB452:
 211              	.LBI452:
 212              		.loc 10 25 5 is_stmt 1 view .LVU28
 213              		.loc 10 25 5 is_stmt 0 view .LVU29
 214              	.LBE452:
 215              	.LBE449:
 216              	.LBB453:
 217              	.LBI453:
 218              		.file 11 "../../libdaisy/src/hid/switch.h"
   1:../../libdaisy/src/hid/switch.h **** #pragma once
   2:../../libdaisy/src/hid/switch.h **** #ifndef DSY_SWITCH_H
   3:../../libdaisy/src/hid/switch.h **** #define DSY_SWITCH_H
   4:../../libdaisy/src/hid/switch.h **** #include "daisy_core.h"
   5:../../libdaisy/src/hid/switch.h **** #include "per/gpio.h"
   6:../../libdaisy/src/hid/switch.h **** 
   7:../../libdaisy/src/hid/switch.h **** namespace daisy
   8:../../libdaisy/src/hid/switch.h **** {
   9:../../libdaisy/src/hid/switch.h **** /** 
  10:../../libdaisy/src/hid/switch.h ****     Generic Class for handling momentary/latching switches \n 
ARM GAS  /tmp/ccU9pGY3.s 			page 10


  11:../../libdaisy/src/hid/switch.h ****     Inspired/influenced by Mutable Instruments (pichenettes) Switch classes
  12:../../libdaisy/src/hid/switch.h ****     @author Stephen Hensley
  13:../../libdaisy/src/hid/switch.h ****     @date December 2019
  14:../../libdaisy/src/hid/switch.h ****     @ingroup controls
  15:../../libdaisy/src/hid/switch.h **** */
  16:../../libdaisy/src/hid/switch.h **** class Switch
  17:../../libdaisy/src/hid/switch.h **** {
  18:../../libdaisy/src/hid/switch.h ****   public:
  19:../../libdaisy/src/hid/switch.h ****     /** Specifies the expected behavior of the switch */
  20:../../libdaisy/src/hid/switch.h ****     enum Type
  21:../../libdaisy/src/hid/switch.h ****     {
  22:../../libdaisy/src/hid/switch.h ****         TYPE_TOGGLE,    /**< & */
  23:../../libdaisy/src/hid/switch.h ****         TYPE_MOMENTARY, /**< & */
  24:../../libdaisy/src/hid/switch.h ****     };
  25:../../libdaisy/src/hid/switch.h ****     /** Specifies whether the pressed is HIGH or LOW. */
  26:../../libdaisy/src/hid/switch.h ****     enum Polarity
  27:../../libdaisy/src/hid/switch.h ****     {
  28:../../libdaisy/src/hid/switch.h ****         POLARITY_NORMAL,   /**< & */
  29:../../libdaisy/src/hid/switch.h ****         POLARITY_INVERTED, /**< & */
  30:../../libdaisy/src/hid/switch.h ****     };
  31:../../libdaisy/src/hid/switch.h **** 
  32:../../libdaisy/src/hid/switch.h ****     /** Specifies whether to use built-in Pull Up/Down resistors to hold button at a given state wh
  33:../../libdaisy/src/hid/switch.h ****     enum Pull
  34:../../libdaisy/src/hid/switch.h ****     {
  35:../../libdaisy/src/hid/switch.h ****         PULL_UP,   /**< & */
  36:../../libdaisy/src/hid/switch.h ****         PULL_DOWN, /**< & */
  37:../../libdaisy/src/hid/switch.h ****         PULL_NONE, /**< & */
  38:../../libdaisy/src/hid/switch.h ****     };
  39:../../libdaisy/src/hid/switch.h **** 
  40:../../libdaisy/src/hid/switch.h ****     Switch() {}
  41:../../libdaisy/src/hid/switch.h ****     ~Switch() {}
 219              		.loc 11 41 5 is_stmt 1 view .LVU30
 220              		.loc 11 41 5 is_stmt 0 view .LVU31
 221              	.LBE453:
 222              	.LBB454:
 223              	.LBI454:
 224              		.loc 11 41 5 is_stmt 1 view .LVU32
 225              		.loc 11 41 5 is_stmt 0 view .LVU33
 226              	.LBE454:
 227              	.LBB455:
 228              	.LBI455:
 229              		.loc 6 23 5 is_stmt 1 view .LVU34
 230              		.loc 6 23 5 is_stmt 0 view .LVU35
 231              	.LBE455:
 232              	.LBB456:
 233              	.LBI456:
 234              		.loc 6 23 5 is_stmt 1 view .LVU36
 235              		.loc 6 23 5 is_stmt 0 view .LVU37
 236              	.LBE456:
 237              	.LBB457:
 238              	.LBI457:
 239              		.file 12 "../../libdaisy/src/hid/encoder.h"
   1:../../libdaisy/src/hid/encoder.h **** #pragma once
   2:../../libdaisy/src/hid/encoder.h **** #ifndef DSY_ENCODER_H
   3:../../libdaisy/src/hid/encoder.h **** #define DSY_ENCODER_H
   4:../../libdaisy/src/hid/encoder.h **** #include "daisy_core.h"
   5:../../libdaisy/src/hid/encoder.h **** #include "per/gpio.h"
ARM GAS  /tmp/ccU9pGY3.s 			page 11


   6:../../libdaisy/src/hid/encoder.h **** #include "hid/switch.h"
   7:../../libdaisy/src/hid/encoder.h **** 
   8:../../libdaisy/src/hid/encoder.h **** namespace daisy
   9:../../libdaisy/src/hid/encoder.h **** {
  10:../../libdaisy/src/hid/encoder.h **** /** 
  11:../../libdaisy/src/hid/encoder.h ****     @brief Generic Class for handling Quadrature Encoders \n 
  12:../../libdaisy/src/hid/encoder.h ****     Inspired/influenced by Mutable Instruments (pichenettes) Encoder classes
  13:../../libdaisy/src/hid/encoder.h ****     @author Stephen Hensley
  14:../../libdaisy/src/hid/encoder.h ****     @date December 2019
  15:../../libdaisy/src/hid/encoder.h ****     @ingroup controls
  16:../../libdaisy/src/hid/encoder.h **** */
  17:../../libdaisy/src/hid/encoder.h **** class Encoder
  18:../../libdaisy/src/hid/encoder.h **** {
  19:../../libdaisy/src/hid/encoder.h ****   public:
  20:../../libdaisy/src/hid/encoder.h ****     Encoder() {}
  21:../../libdaisy/src/hid/encoder.h ****     ~Encoder() {}
 240              		.loc 12 21 5 is_stmt 1 view .LVU38
 241              	.LBB458:
 242              	.LBI458:
 243              		.loc 11 41 5 view .LVU39
 244              		.loc 11 41 5 is_stmt 0 view .LVU40
 245              	.LBE458:
 246              	.LBE457:
 247              	.LBB459:
 248              	.LBI459:
 249              		.file 13 "../../libdaisy/src/daisy_seed.h"
   1:../../libdaisy/src/daisy_seed.h **** #pragma once
   2:../../libdaisy/src/daisy_seed.h **** #ifndef DSY_SEED_H
   3:../../libdaisy/src/daisy_seed.h **** #define DSY_SEED_H
   4:../../libdaisy/src/daisy_seed.h **** 
   5:../../libdaisy/src/daisy_seed.h **** #include "daisy.h"
   6:../../libdaisy/src/daisy_seed.h **** 
   7:../../libdaisy/src/daisy_seed.h **** //Uncomment this out if you're still using the rev2 hardware
   8:../../libdaisy/src/daisy_seed.h **** //#define SEED_REV2
   9:../../libdaisy/src/daisy_seed.h **** 
  10:../../libdaisy/src/daisy_seed.h **** namespace daisy
  11:../../libdaisy/src/daisy_seed.h **** {
  12:../../libdaisy/src/daisy_seed.h **** /**
  13:../../libdaisy/src/daisy_seed.h ****    @brief This is the higher-level interface for the Daisy board. \n 
  14:../../libdaisy/src/daisy_seed.h ****     All basic peripheral configuration/initialization is setup here. \n
  15:../../libdaisy/src/daisy_seed.h **** 
  16:../../libdaisy/src/daisy_seed.h ****    @ingroup boards
  17:../../libdaisy/src/daisy_seed.h **** */
  18:../../libdaisy/src/daisy_seed.h **** class DaisySeed
  19:../../libdaisy/src/daisy_seed.h **** {
  20:../../libdaisy/src/daisy_seed.h ****   public:
  21:../../libdaisy/src/daisy_seed.h ****     DaisySeed() {}
  22:../../libdaisy/src/daisy_seed.h ****     ~DaisySeed() {}
 250              		.loc 13 22 5 is_stmt 1 view .LVU41
 251              	.LBB460:
 252              	.LBI460:
 253              		.file 14 "../../libdaisy/src/sys/system.h"
   1:../../libdaisy/src/sys/system.h **** #ifndef DSY_SYSTEM_H
   2:../../libdaisy/src/sys/system.h **** #define DSY_SYSTEM_H
   3:../../libdaisy/src/sys/system.h **** 
   4:../../libdaisy/src/sys/system.h **** #ifndef UNIT_TEST // for unit tests, a dummy implementation is provided below
   5:../../libdaisy/src/sys/system.h **** 
ARM GAS  /tmp/ccU9pGY3.s 			page 12


   6:../../libdaisy/src/sys/system.h **** #include <cstdint>
   7:../../libdaisy/src/sys/system.h **** #include "per/tim.h"
   8:../../libdaisy/src/sys/system.h **** 
   9:../../libdaisy/src/sys/system.h **** namespace daisy
  10:../../libdaisy/src/sys/system.h **** {
  11:../../libdaisy/src/sys/system.h **** /** A handle for interacting with the Core System. 
  12:../../libdaisy/src/sys/system.h ****  ** This includes the Clock tree, MPU, global DMA initialization,
  13:../../libdaisy/src/sys/system.h ****  ** cache handling, and any other necessary global initiailzation
  14:../../libdaisy/src/sys/system.h ****  **
  15:../../libdaisy/src/sys/system.h ****  ** @author shensley
  16:../../libdaisy/src/sys/system.h ****  ** @addtogroup system
  17:../../libdaisy/src/sys/system.h ****  */
  18:../../libdaisy/src/sys/system.h **** class System
  19:../../libdaisy/src/sys/system.h **** {
  20:../../libdaisy/src/sys/system.h ****   public:
  21:../../libdaisy/src/sys/system.h ****     /** Contains settings for initializing the System */
  22:../../libdaisy/src/sys/system.h ****     struct Config
  23:../../libdaisy/src/sys/system.h ****     {
  24:../../libdaisy/src/sys/system.h ****         /** Specifies the system clock frequency that feeds APB/AHB clocks, etc. */
  25:../../libdaisy/src/sys/system.h ****         enum class SysClkFreq
  26:../../libdaisy/src/sys/system.h ****         {
  27:../../libdaisy/src/sys/system.h ****             FREQ_400MHZ,
  28:../../libdaisy/src/sys/system.h ****             FREQ_480MHZ,
  29:../../libdaisy/src/sys/system.h ****         };
  30:../../libdaisy/src/sys/system.h **** 
  31:../../libdaisy/src/sys/system.h ****         /** Method to call on the struct to set to defaults
  32:../../libdaisy/src/sys/system.h ****          ** CPU Freq set to 400MHz
  33:../../libdaisy/src/sys/system.h ****          ** Cache Enabled 
  34:../../libdaisy/src/sys/system.h ****          ** */
  35:../../libdaisy/src/sys/system.h ****         void Defaults()
  36:../../libdaisy/src/sys/system.h ****         {
  37:../../libdaisy/src/sys/system.h ****             cpu_freq   = SysClkFreq::FREQ_400MHZ;
  38:../../libdaisy/src/sys/system.h ****             use_dcache = true;
  39:../../libdaisy/src/sys/system.h ****             use_icache = true;
  40:../../libdaisy/src/sys/system.h ****         }
  41:../../libdaisy/src/sys/system.h **** 
  42:../../libdaisy/src/sys/system.h ****         /** Method to call on the struct to set to boost mode:
  43:../../libdaisy/src/sys/system.h ****          ** CPU Freq set to 480MHz
  44:../../libdaisy/src/sys/system.h ****          ** Cache Enabled 
  45:../../libdaisy/src/sys/system.h ****          ** */
  46:../../libdaisy/src/sys/system.h ****         void Boost()
  47:../../libdaisy/src/sys/system.h ****         {
  48:../../libdaisy/src/sys/system.h ****             cpu_freq   = SysClkFreq::FREQ_480MHZ;
  49:../../libdaisy/src/sys/system.h ****             use_dcache = true;
  50:../../libdaisy/src/sys/system.h ****             use_icache = true;
  51:../../libdaisy/src/sys/system.h ****         }
  52:../../libdaisy/src/sys/system.h **** 
  53:../../libdaisy/src/sys/system.h ****         SysClkFreq cpu_freq;
  54:../../libdaisy/src/sys/system.h ****         bool       use_dcache;
  55:../../libdaisy/src/sys/system.h ****         bool       use_icache;
  56:../../libdaisy/src/sys/system.h ****     };
  57:../../libdaisy/src/sys/system.h **** 
  58:../../libdaisy/src/sys/system.h ****     System() {}
  59:../../libdaisy/src/sys/system.h ****     ~System() {}
 254              		.loc 14 59 5 view .LVU42
 255              		.loc 14 59 5 is_stmt 0 view .LVU43
 256              	.LBE460:
ARM GAS  /tmp/ccU9pGY3.s 			page 13


 257              	.LBB461:
 258              	.LBI461:
 259              		.file 15 "../../libdaisy/src/hid/usb.h"
   1:../../libdaisy/src/hid/usb.h **** #pragma once
   2:../../libdaisy/src/hid/usb.h **** #ifndef DSY_HID_USB_H
   3:../../libdaisy/src/hid/usb.h **** #define DSY_HID_USB_H
   4:../../libdaisy/src/hid/usb.h **** #include <stdint.h>
   5:../../libdaisy/src/hid/usb.h **** #include <stdlib.h>
   6:../../libdaisy/src/hid/usb.h **** 
   7:../../libdaisy/src/hid/usb.h **** namespace daisy
   8:../../libdaisy/src/hid/usb.h **** /** @addtogroup externals
   9:../../libdaisy/src/hid/usb.h ****     @{
  10:../../libdaisy/src/hid/usb.h **** */
  11:../../libdaisy/src/hid/usb.h **** 
  12:../../libdaisy/src/hid/usb.h **** {
  13:../../libdaisy/src/hid/usb.h **** /** 
  14:../../libdaisy/src/hid/usb.h ****     @brief Interface for initializing and using the USB Peripherals on the daisy
  15:../../libdaisy/src/hid/usb.h ****     @author Stephen Hensley
  16:../../libdaisy/src/hid/usb.h ****     @date December 2019
  17:../../libdaisy/src/hid/usb.h **** */
  18:../../libdaisy/src/hid/usb.h **** class UsbHandle
  19:../../libdaisy/src/hid/usb.h **** {
  20:../../libdaisy/src/hid/usb.h ****   public:
  21:../../libdaisy/src/hid/usb.h ****     /** Return values for USBHandle Functions */
  22:../../libdaisy/src/hid/usb.h ****     enum class Result
  23:../../libdaisy/src/hid/usb.h ****     {
  24:../../libdaisy/src/hid/usb.h ****         OK,
  25:../../libdaisy/src/hid/usb.h ****         ERR,
  26:../../libdaisy/src/hid/usb.h ****     };
  27:../../libdaisy/src/hid/usb.h **** 
  28:../../libdaisy/src/hid/usb.h ****     /** Specified which of the two USB Peripherals to initialize. */
  29:../../libdaisy/src/hid/usb.h ****     enum UsbPeriph
  30:../../libdaisy/src/hid/usb.h ****     {
  31:../../libdaisy/src/hid/usb.h ****         FS_INTERNAL, /**< Internal pin */
  32:../../libdaisy/src/hid/usb.h ****         FS_EXTERNAL, /**< FS External D+ pin is Pin 38 (GPIO32). FS External D- pin is Pin 37 (GPIO
  33:../../libdaisy/src/hid/usb.h ****         FS_BOTH,     /**< Both */
  34:../../libdaisy/src/hid/usb.h ****     };
  35:../../libdaisy/src/hid/usb.h **** 
  36:../../libdaisy/src/hid/usb.h **** 
  37:../../libdaisy/src/hid/usb.h ****     /** Function called upon reception of a buffer */
  38:../../libdaisy/src/hid/usb.h ****     typedef void (*ReceiveCallback)(uint8_t* buff, uint32_t* len);
  39:../../libdaisy/src/hid/usb.h **** 
  40:../../libdaisy/src/hid/usb.h ****     UsbHandle() {}
  41:../../libdaisy/src/hid/usb.h **** 
  42:../../libdaisy/src/hid/usb.h ****     ~UsbHandle() {}
 260              		.loc 15 42 5 is_stmt 1 view .LVU44
 261              		.loc 15 42 5 is_stmt 0 view .LVU45
 262              	.LBE461:
 263              	.LBB462:
 264              	.LBI462:
 265              		.file 16 "../../libdaisy/src/per/adc.h"
   1:../../libdaisy/src/per/adc.h **** #pragma once
   2:../../libdaisy/src/per/adc.h **** #ifndef DSY_ADC_H
   3:../../libdaisy/src/per/adc.h **** #define DSY_ADC_H /**< Macro */
   4:../../libdaisy/src/per/adc.h **** #include <stdint.h>
   5:../../libdaisy/src/per/adc.h **** #include <stdlib.h>
   6:../../libdaisy/src/per/adc.h **** #include "daisy_core.h"
ARM GAS  /tmp/ccU9pGY3.s 			page 14


   7:../../libdaisy/src/per/adc.h **** #include "per/gpio.h"
   8:../../libdaisy/src/per/adc.h **** 
   9:../../libdaisy/src/per/adc.h **** #define DSY_ADC_MAX_CHANNELS 14 /**< Maximum number of ADC channels */
  10:../../libdaisy/src/per/adc.h **** 
  11:../../libdaisy/src/per/adc.h **** namespace daisy
  12:../../libdaisy/src/per/adc.h **** {
  13:../../libdaisy/src/per/adc.h **** /** @addtogroup analog_digital_conversion
  14:../../libdaisy/src/per/adc.h ****     @{
  15:../../libdaisy/src/per/adc.h **** */
  16:../../libdaisy/src/per/adc.h **** 
  17:../../libdaisy/src/per/adc.h **** /* While there may not be many configuration options here,
  18:../../libdaisy/src/per/adc.h **** using a struct like this allows us to add more configuration
  19:../../libdaisy/src/per/adc.h **** later without breaking existing functionality.
  20:../../libdaisy/src/per/adc.h **** */
  21:../../libdaisy/src/per/adc.h **** 
  22:../../libdaisy/src/per/adc.h **** /** Configuration Structure for a given channel */
  23:../../libdaisy/src/per/adc.h **** struct AdcChannelConfig
  24:../../libdaisy/src/per/adc.h **** {
  25:../../libdaisy/src/per/adc.h ****     /** Which pin to use for multiplexing */
  26:../../libdaisy/src/per/adc.h ****     enum MuxPin
  27:../../libdaisy/src/per/adc.h ****     {
  28:../../libdaisy/src/per/adc.h ****         MUX_SEL_0,    /**< & */
  29:../../libdaisy/src/per/adc.h ****         MUX_SEL_1,    /**< & */
  30:../../libdaisy/src/per/adc.h ****         MUX_SEL_2,    /**< & */
  31:../../libdaisy/src/per/adc.h ****         MUX_SEL_LAST, /**< & */
  32:../../libdaisy/src/per/adc.h ****     };
  33:../../libdaisy/src/per/adc.h **** 
  34:../../libdaisy/src/per/adc.h ****     /** Initializes a single ADC pin as an ADC. 
  35:../../libdaisy/src/per/adc.h ****     \param pin Pin to init.
  36:../../libdaisy/src/per/adc.h ****      */
  37:../../libdaisy/src/per/adc.h ****     void InitSingle(dsy_gpio_pin pin);
  38:../../libdaisy/src/per/adc.h **** 
  39:../../libdaisy/src/per/adc.h ****     /** 
  40:../../libdaisy/src/per/adc.h ****     Initializes a single ADC pin as a Multiplexed ADC.
  41:../../libdaisy/src/per/adc.h ****     Requires a CD405X Multiplexer connected to the pin.
  42:../../libdaisy/src/per/adc.h ****     You only need to supply the mux pins that are required,
  43:../../libdaisy/src/per/adc.h ****     e.g. a 4052 mux would only require mux_0 and mux_1.
  44:../../libdaisy/src/per/adc.h ****     Internal Callbacks handle the pin addressing.
  45:../../libdaisy/src/per/adc.h ****     \param mux_channels must be 1-8
  46:../../libdaisy/src/per/adc.h ****     \param mux_0 First mux pin
  47:../../libdaisy/src/per/adc.h ****     \param mux_1 Second mux pin
  48:../../libdaisy/src/per/adc.h ****     \param mux_2 Third mux pin
  49:../../libdaisy/src/per/adc.h ****     \param adc_pin &
  50:../../libdaisy/src/per/adc.h ****     */
  51:../../libdaisy/src/per/adc.h ****     void InitMux(dsy_gpio_pin adc_pin,
  52:../../libdaisy/src/per/adc.h ****                  size_t       mux_channels,
  53:../../libdaisy/src/per/adc.h ****                  dsy_gpio_pin mux_0,
  54:../../libdaisy/src/per/adc.h ****                  dsy_gpio_pin mux_1 = {DSY_GPIOX, 0},
  55:../../libdaisy/src/per/adc.h ****                  dsy_gpio_pin mux_2 = {DSY_GPIOX, 0});
  56:../../libdaisy/src/per/adc.h **** 
  57:../../libdaisy/src/per/adc.h ****     dsy_gpio pin_;                   /**< & */
  58:../../libdaisy/src/per/adc.h ****     dsy_gpio mux_pin_[MUX_SEL_LAST]; /**< & */
  59:../../libdaisy/src/per/adc.h ****     uint8_t  mux_channels_;          /**< & */
  60:../../libdaisy/src/per/adc.h **** };
  61:../../libdaisy/src/per/adc.h **** 
  62:../../libdaisy/src/per/adc.h **** /**
  63:../../libdaisy/src/per/adc.h ****    Handler for analog to digital conversion
ARM GAS  /tmp/ccU9pGY3.s 			page 15


  64:../../libdaisy/src/per/adc.h **** */
  65:../../libdaisy/src/per/adc.h **** class AdcHandle
  66:../../libdaisy/src/per/adc.h **** {
  67:../../libdaisy/src/per/adc.h ****   public:
  68:../../libdaisy/src/per/adc.h ****     /** Supported oversampling amounts */
  69:../../libdaisy/src/per/adc.h ****     enum OverSampling
  70:../../libdaisy/src/per/adc.h ****     {
  71:../../libdaisy/src/per/adc.h ****         OVS_NONE, /**< & */
  72:../../libdaisy/src/per/adc.h ****         OVS_4,    /**< & */
  73:../../libdaisy/src/per/adc.h ****         OVS_8,    /**< & */
  74:../../libdaisy/src/per/adc.h ****         OVS_16,   /**< & */
  75:../../libdaisy/src/per/adc.h ****         OVS_32,   /**< & */
  76:../../libdaisy/src/per/adc.h ****         OVS_64,   /**< & */
  77:../../libdaisy/src/per/adc.h ****         OVS_128,  /**< & */
  78:../../libdaisy/src/per/adc.h ****         OVS_256,  /**< & */
  79:../../libdaisy/src/per/adc.h ****         OVS_512,  /**< & */
  80:../../libdaisy/src/per/adc.h ****         OVS_1024, /**< & */
  81:../../libdaisy/src/per/adc.h ****         OVS_LAST, /**< & */
  82:../../libdaisy/src/per/adc.h ****     };
  83:../../libdaisy/src/per/adc.h **** 
  84:../../libdaisy/src/per/adc.h ****     AdcHandle() {}
  85:../../libdaisy/src/per/adc.h ****     ~AdcHandle() {}
 266              		.loc 16 85 5 is_stmt 1 view .LVU46
 267              		.loc 16 85 5 is_stmt 0 view .LVU47
 268              	.LBE462:
 269              	.LBB463:
 270              	.LBI463:
 271              		.file 17 "../../libdaisy/src/hid/audio.h"
   1:../../libdaisy/src/hid/audio.h **** #ifndef DSY_AUDIO_H
   2:../../libdaisy/src/hid/audio.h **** #define DSY_AUDIO_H /**< & */
   3:../../libdaisy/src/hid/audio.h **** 
   4:../../libdaisy/src/hid/audio.h **** #include "per/sai.h"
   5:../../libdaisy/src/hid/audio.h **** 
   6:../../libdaisy/src/hid/audio.h **** namespace daisy
   7:../../libdaisy/src/hid/audio.h **** {
   8:../../libdaisy/src/hid/audio.h **** class AudioHandle
   9:../../libdaisy/src/hid/audio.h **** {
  10:../../libdaisy/src/hid/audio.h ****   public:
  11:../../libdaisy/src/hid/audio.h ****     /** Manually configurable details about the Audio Engine */
  12:../../libdaisy/src/hid/audio.h ****     /** TODO: Figure out how to get samplerate in here. */
  13:../../libdaisy/src/hid/audio.h ****     struct Config
  14:../../libdaisy/src/hid/audio.h ****     {
  15:../../libdaisy/src/hid/audio.h ****         size_t                        blocksize;
  16:../../libdaisy/src/hid/audio.h ****         SaiHandle::Config::SampleRate samplerate;
  17:../../libdaisy/src/hid/audio.h ****         float                         postgain;
  18:../../libdaisy/src/hid/audio.h ****     };
  19:../../libdaisy/src/hid/audio.h **** 
  20:../../libdaisy/src/hid/audio.h ****     enum class Result
  21:../../libdaisy/src/hid/audio.h ****     {
  22:../../libdaisy/src/hid/audio.h ****         OK,
  23:../../libdaisy/src/hid/audio.h ****         ERR,
  24:../../libdaisy/src/hid/audio.h ****     };
  25:../../libdaisy/src/hid/audio.h **** 
  26:../../libdaisy/src/hid/audio.h ****     /** Non-Interleaving input buffer
  27:../../libdaisy/src/hid/audio.h ****      * Buffer arranged by float[chn][sample] 
  28:../../libdaisy/src/hid/audio.h ****      * const so that the user can't modify the input
  29:../../libdaisy/src/hid/audio.h ****     */
ARM GAS  /tmp/ccU9pGY3.s 			page 16


  30:../../libdaisy/src/hid/audio.h ****     typedef const float* const* InputBuffer;
  31:../../libdaisy/src/hid/audio.h **** 
  32:../../libdaisy/src/hid/audio.h ****     /** Non-Interleaving output buffer
  33:../../libdaisy/src/hid/audio.h ****      * Arranged by float[chn][sample] 
  34:../../libdaisy/src/hid/audio.h ****     */
  35:../../libdaisy/src/hid/audio.h ****     typedef float** OutputBuffer;
  36:../../libdaisy/src/hid/audio.h **** 
  37:../../libdaisy/src/hid/audio.h ****     /** Type for a Non-Interleaving audio callback 
  38:../../libdaisy/src/hid/audio.h ****    * Non-Interleaving audio callbacks in daisy will be of this type
  39:../../libdaisy/src/hid/audio.h ****   */
  40:../../libdaisy/src/hid/audio.h ****     typedef void (*AudioCallback)(InputBuffer  in,
  41:../../libdaisy/src/hid/audio.h ****                                   OutputBuffer out,
  42:../../libdaisy/src/hid/audio.h ****                                   size_t       size);
  43:../../libdaisy/src/hid/audio.h **** 
  44:../../libdaisy/src/hid/audio.h ****     /** Interleaving Input buffer
  45:../../libdaisy/src/hid/audio.h ****      ** audio is prepared as { L0, R0, L1, R1, . . . LN, RN }]
  46:../../libdaisy/src/hid/audio.h ****      ** this is const, as the user shouldn't modify it
  47:../../libdaisy/src/hid/audio.h ****     */
  48:../../libdaisy/src/hid/audio.h ****     typedef const float* InterleavingInputBuffer;
  49:../../libdaisy/src/hid/audio.h **** 
  50:../../libdaisy/src/hid/audio.h ****     /** Interleaving Output buffer 
  51:../../libdaisy/src/hid/audio.h ****      ** audio is prepared as { L0, R0, L1, R1, . . . LN, RN }
  52:../../libdaisy/src/hid/audio.h ****     */
  53:../../libdaisy/src/hid/audio.h ****     typedef float* InterleavingOutputBuffer;
  54:../../libdaisy/src/hid/audio.h **** 
  55:../../libdaisy/src/hid/audio.h ****     /** Interleaving Audio Callback 
  56:../../libdaisy/src/hid/audio.h ****    * Interleaving audio callbacks in daisy must be of this type
  57:../../libdaisy/src/hid/audio.h ****   */
  58:../../libdaisy/src/hid/audio.h ****     typedef void (*InterleavingAudioCallback)(InterleavingInputBuffer  in,
  59:../../libdaisy/src/hid/audio.h ****                                               InterleavingOutputBuffer out,
  60:../../libdaisy/src/hid/audio.h ****                                               size_t                   size);
  61:../../libdaisy/src/hid/audio.h **** 
  62:../../libdaisy/src/hid/audio.h ****     AudioHandle() : pimpl_(nullptr) {}
  63:../../libdaisy/src/hid/audio.h ****     ~AudioHandle() {}
 272              		.loc 17 63 5 is_stmt 1 view .LVU48
 273              		.loc 17 63 5 is_stmt 0 view .LVU49
 274              	.LBE463:
 275              	.LBE459:
 276              		.loc 7 36 18 view .LVU50
 277 0000 7047     		bx	lr
 278              		.cfi_endproc
 279              	.LFE4216:
 281              		.weak	_ZN5daisy8DaisyPodD1Ev
 282              		.thumb_set _ZN5daisy8DaisyPodD1Ev,_ZN5daisy8DaisyPodD2Ev
 283 0002 00BF     		.section	.text._Z10SetupDrumsf,"ax",%progbits
 284              		.align	1
 285              		.p2align 2,,3
 286              		.global	_Z10SetupDrumsf
 287              		.syntax unified
 288              		.thumb
 289              		.thumb_func
 290              		.fpu fpv5-d16
 292              	_Z10SetupDrumsf:
 293              	.LVL6:
 294              	.LFB4220:
 295              		.file 18 "EuclideanDrums.cpp"
   1:EuclideanDrums.cpp **** #include "daisysp.h"
ARM GAS  /tmp/ccU9pGY3.s 			page 17


   2:EuclideanDrums.cpp **** #include "daisy_pod.h"
   3:EuclideanDrums.cpp **** 
   4:EuclideanDrums.cpp **** #define UINT32_MSB 0x80000000U
   5:EuclideanDrums.cpp **** #define MAX_LENGTH 32U
   6:EuclideanDrums.cpp **** 
   7:EuclideanDrums.cpp **** using namespace daisy;
   8:EuclideanDrums.cpp **** using namespace daisysp;
   9:EuclideanDrums.cpp **** 
  10:EuclideanDrums.cpp **** DaisyPod hardware;
  11:EuclideanDrums.cpp **** 
  12:EuclideanDrums.cpp **** Oscillator osc;
  13:EuclideanDrums.cpp **** WhiteNoise noise;
  14:EuclideanDrums.cpp **** 
  15:EuclideanDrums.cpp **** AdEnv     kickVolEnv, kickPitchEnv, snareEnv;
  16:EuclideanDrums.cpp **** Metro     tick;
  17:EuclideanDrums.cpp **** Parameter lengthParam;
  18:EuclideanDrums.cpp **** 
  19:EuclideanDrums.cpp **** bool    kickSeq[MAX_LENGTH];
  20:EuclideanDrums.cpp **** bool    snareSeq[MAX_LENGTH];
  21:EuclideanDrums.cpp **** uint8_t kickStep  = 0;
  22:EuclideanDrums.cpp **** uint8_t snareStep = 0;
  23:EuclideanDrums.cpp **** 
  24:EuclideanDrums.cpp **** void ProcessTick();
  25:EuclideanDrums.cpp **** void ProcessControls();
  26:EuclideanDrums.cpp **** 
  27:EuclideanDrums.cpp **** void AudioCallback(AudioHandle::InterleavingInputBuffer  in,
  28:EuclideanDrums.cpp ****                    AudioHandle::InterleavingOutputBuffer out,
  29:EuclideanDrums.cpp ****                    size_t                                size)
  30:EuclideanDrums.cpp **** {
  31:EuclideanDrums.cpp ****     float osc_out, noise_out, snr_env_out, kck_env_out, sig;
  32:EuclideanDrums.cpp **** 
  33:EuclideanDrums.cpp ****     ProcessTick();
  34:EuclideanDrums.cpp **** 
  35:EuclideanDrums.cpp ****     ProcessControls();
  36:EuclideanDrums.cpp **** 
  37:EuclideanDrums.cpp ****     //audio
  38:EuclideanDrums.cpp ****     for(size_t i = 0; i < size; i += 2)
  39:EuclideanDrums.cpp ****     {
  40:EuclideanDrums.cpp ****         snr_env_out = snareEnv.Process();
  41:EuclideanDrums.cpp ****         kck_env_out = kickVolEnv.Process();
  42:EuclideanDrums.cpp **** 
  43:EuclideanDrums.cpp ****         osc.SetFreq(kickPitchEnv.Process());
  44:EuclideanDrums.cpp ****         osc.SetAmp(kck_env_out);
  45:EuclideanDrums.cpp ****         osc_out = osc.Process();
  46:EuclideanDrums.cpp **** 
  47:EuclideanDrums.cpp ****         noise_out = noise.Process();
  48:EuclideanDrums.cpp ****         noise_out *= snr_env_out;
  49:EuclideanDrums.cpp **** 
  50:EuclideanDrums.cpp ****         sig = .5 * noise_out + .5 * osc_out;
  51:EuclideanDrums.cpp **** 
  52:EuclideanDrums.cpp ****         out[i]     = sig;
  53:EuclideanDrums.cpp ****         out[i + 1] = sig;
  54:EuclideanDrums.cpp ****     }
  55:EuclideanDrums.cpp **** }
  56:EuclideanDrums.cpp **** 
  57:EuclideanDrums.cpp **** void SetupDrums(float samplerate)
  58:EuclideanDrums.cpp **** {
ARM GAS  /tmp/ccU9pGY3.s 			page 18


 296              		.loc 18 58 1 is_stmt 1 view -0
 297              		.cfi_startproc
 298              		@ args = 0, pretend = 0, frame = 0
 299              		@ frame_needed = 0, uses_anonymous_args = 0
  59:EuclideanDrums.cpp ****     osc.Init(samplerate);
 300              		.loc 18 59 5 view .LVU52
  58:EuclideanDrums.cpp ****     osc.Init(samplerate);
 301              		.loc 18 58 1 is_stmt 0 view .LVU53
 302 0000 2DE9F843 		push	{r3, r4, r5, r6, r7, r8, r9, lr}
 303              		.cfi_def_cfa_offset 32
 304              		.cfi_offset 3, -32
 305              		.cfi_offset 4, -28
 306              		.cfi_offset 5, -24
 307              		.cfi_offset 6, -20
 308              		.cfi_offset 7, -16
 309              		.cfi_offset 8, -12
 310              		.cfi_offset 9, -8
 311              		.cfi_offset 14, -4
 312 0004 2DED028B 		vpush.64	{d8}
 313              		.cfi_def_cfa_offset 40
 314              		.cfi_offset 80, -40
 315              		.cfi_offset 81, -36
 316              	.LBB464:
 317              	.LBB465:
  17:../../DaisySP/Source/Synthesis/oscillator.h ****     /** Choices for output waveforms, POLYBLEP are appropriately labeled. Others are naive forms.
  18:../../DaisySP/Source/Synthesis/oscillator.h ****     */
  19:../../DaisySP/Source/Synthesis/oscillator.h ****     enum
  20:../../DaisySP/Source/Synthesis/oscillator.h ****     {
  21:../../DaisySP/Source/Synthesis/oscillator.h ****         WAVE_SIN,
  22:../../DaisySP/Source/Synthesis/oscillator.h ****         WAVE_TRI,
  23:../../DaisySP/Source/Synthesis/oscillator.h ****         WAVE_SAW,
  24:../../DaisySP/Source/Synthesis/oscillator.h ****         WAVE_RAMP,
  25:../../DaisySP/Source/Synthesis/oscillator.h ****         WAVE_SQUARE,
  26:../../DaisySP/Source/Synthesis/oscillator.h ****         WAVE_POLYBLEP_TRI,
  27:../../DaisySP/Source/Synthesis/oscillator.h ****         WAVE_POLYBLEP_SAW,
  28:../../DaisySP/Source/Synthesis/oscillator.h ****         WAVE_POLYBLEP_SQUARE,
  29:../../DaisySP/Source/Synthesis/oscillator.h ****         WAVE_LAST,
  30:../../DaisySP/Source/Synthesis/oscillator.h ****     };
  31:../../DaisySP/Source/Synthesis/oscillator.h **** 
  32:../../DaisySP/Source/Synthesis/oscillator.h **** 
  33:../../DaisySP/Source/Synthesis/oscillator.h ****     /** Initializes the Oscillator
  34:../../DaisySP/Source/Synthesis/oscillator.h **** 
  35:../../DaisySP/Source/Synthesis/oscillator.h ****         \param sample_rate - sample rate of the audio engine being run, and the frequency that the 
  36:../../DaisySP/Source/Synthesis/oscillator.h **** 
  37:../../DaisySP/Source/Synthesis/oscillator.h ****         Defaults:
  38:../../DaisySP/Source/Synthesis/oscillator.h ****         - freq_ = 100 Hz
  39:../../DaisySP/Source/Synthesis/oscillator.h ****         - amp_ = 0.5
  40:../../DaisySP/Source/Synthesis/oscillator.h ****         - waveform_ = sine wave.
  41:../../DaisySP/Source/Synthesis/oscillator.h ****     */
  42:../../DaisySP/Source/Synthesis/oscillator.h ****     void Init(float sample_rate)
  43:../../DaisySP/Source/Synthesis/oscillator.h ****     {
  44:../../DaisySP/Source/Synthesis/oscillator.h ****         sr_        = sample_rate;
  45:../../DaisySP/Source/Synthesis/oscillator.h ****         sr_recip_  = 1.0f / sample_rate;
 318              		.loc 2 45 27 view .LVU54
 319 0008 F7EE008A 		vmov.f32	s17, #1.0e+0
  44:../../DaisySP/Source/Synthesis/oscillator.h ****         sr_recip_  = 1.0f / sample_rate;
 320              		.loc 2 44 20 view .LVU55
ARM GAS  /tmp/ccU9pGY3.s 			page 19


 321 000c 2A4C     		ldr	r4, .L10
 322              	.LBE465:
 323              	.LBE464:
  58:EuclideanDrums.cpp ****     osc.Init(samplerate);
 324              		.loc 18 58 1 view .LVU56
 325 000e B0EE408A 		vmov.f32	s16, s0
 326              	.LVL7:
 327              	.LBB470:
 328              	.LBI464:
  42:../../DaisySP/Source/Synthesis/oscillator.h ****     {
 329              		.loc 2 42 10 is_stmt 1 view .LVU57
 330              	.LBB466:
  44:../../DaisySP/Source/Synthesis/oscillator.h ****         sr_recip_  = 1.0f / sample_rate;
 331              		.loc 2 44 9 view .LVU58
  46:../../DaisySP/Source/Synthesis/oscillator.h ****         freq_      = 100.0f;
  47:../../DaisySP/Source/Synthesis/oscillator.h ****         amp_       = 0.5f;
 332              		.loc 2 47 20 is_stmt 0 view .LVU59
 333 0012 4FF07C53 		mov	r3, #1056964608
  48:../../DaisySP/Source/Synthesis/oscillator.h ****         phase_     = 0.0f;
 334              		.loc 2 48 20 view .LVU60
 335 0016 4FF00009 		mov	r9, #0
  46:../../DaisySP/Source/Synthesis/oscillator.h ****         freq_      = 100.0f;
 336              		.loc 2 46 20 view .LVU61
 337 001a 9FED280A 		vldr.32	s0, .L10+4
 338              	.LVL8:
  49:../../DaisySP/Source/Synthesis/oscillator.h ****         phase_inc_ = CalcPhaseInc(freq_);
 339              		.loc 2 49 34 view .LVU62
 340 001e 2046     		mov	r0, r4
  47:../../DaisySP/Source/Synthesis/oscillator.h ****         phase_     = 0.0f;
 341              		.loc 2 47 20 view .LVU63
 342 0020 6360     		str	r3, [r4, #4]	@ float
  45:../../DaisySP/Source/Synthesis/oscillator.h ****         freq_      = 100.0f;
 343              		.loc 2 45 27 view .LVU64
 344 0022 C8EE887A 		vdiv.f32	s15, s17, s16
  44:../../DaisySP/Source/Synthesis/oscillator.h ****         sr_recip_  = 1.0f / sample_rate;
 345              		.loc 2 44 20 view .LVU65
 346 0026 84ED038A 		vstr.32	s16, [r4, #12]
  45:../../DaisySP/Source/Synthesis/oscillator.h ****         freq_      = 100.0f;
 347              		.loc 2 45 9 is_stmt 1 view .LVU66
  46:../../DaisySP/Source/Synthesis/oscillator.h ****         amp_       = 0.5f;
 348              		.loc 2 46 20 is_stmt 0 view .LVU67
 349 002a 84ED020A 		vstr.32	s0, [r4, #8]
  48:../../DaisySP/Source/Synthesis/oscillator.h ****         phase_inc_ = CalcPhaseInc(freq_);
 350              		.loc 2 48 20 view .LVU68
 351 002e C4F81490 		str	r9, [r4, #20]	@ float
 352              	.LBE466:
 353              	.LBE470:
  60:EuclideanDrums.cpp ****     osc.SetWaveform(Oscillator::WAVE_TRI);
  61:EuclideanDrums.cpp ****     osc.SetAmp(1);
  62:EuclideanDrums.cpp **** 
  63:EuclideanDrums.cpp ****     noise.Init();
  64:EuclideanDrums.cpp **** 
  65:EuclideanDrums.cpp ****     snareEnv.Init(samplerate);
 354              		.loc 18 65 18 view .LVU69
 355 0032 234F     		ldr	r7, .L10+8
  66:EuclideanDrums.cpp ****     snareEnv.SetTime(ADENV_SEG_ATTACK, .01);
  67:EuclideanDrums.cpp ****     snareEnv.SetTime(ADENV_SEG_DECAY, .2);
ARM GAS  /tmp/ccU9pGY3.s 			page 20


  68:EuclideanDrums.cpp ****     snareEnv.SetMax(1);
  69:EuclideanDrums.cpp ****     snareEnv.SetMin(0);
  70:EuclideanDrums.cpp **** 
  71:EuclideanDrums.cpp ****     kickPitchEnv.Init(samplerate);
 356              		.loc 18 71 22 view .LVU70
 357 0034 234E     		ldr	r6, .L10+12
 358              	.LBB471:
 359              	.LBB472:
  36:../../DaisySP/Source/Control/adenv.h ****     /** Initializes the ad envelope.
  37:../../DaisySP/Source/Control/adenv.h **** 
  38:../../DaisySP/Source/Control/adenv.h ****         Defaults:
  39:../../DaisySP/Source/Control/adenv.h ****             - current segment = idle
  40:../../DaisySP/Source/Control/adenv.h ****             - curve = linear
  41:../../DaisySP/Source/Control/adenv.h ****             - phase = 0
  42:../../DaisySP/Source/Control/adenv.h ****             - min = 0
  43:../../DaisySP/Source/Control/adenv.h ****             - max = 1
  44:../../DaisySP/Source/Control/adenv.h **** 
  45:../../DaisySP/Source/Control/adenv.h ****         \param sample_rate      sample rate of the audio engine being run
  46:../../DaisySP/Source/Control/adenv.h ****     */
  47:../../DaisySP/Source/Control/adenv.h ****     void Init(float sample_rate);
  48:../../DaisySP/Source/Control/adenv.h **** 
  49:../../DaisySP/Source/Control/adenv.h ****     /** Processes the current sample of the envelope. This should be called once
  50:../../DaisySP/Source/Control/adenv.h ****         per sample period.
  51:../../DaisySP/Source/Control/adenv.h ****         \return the current envelope value.
  52:../../DaisySP/Source/Control/adenv.h ****     */
  53:../../DaisySP/Source/Control/adenv.h ****     float Process();
  54:../../DaisySP/Source/Control/adenv.h **** 
  55:../../DaisySP/Source/Control/adenv.h ****     /** Starts or retriggers the envelope.*/
  56:../../DaisySP/Source/Control/adenv.h ****     inline void Trigger() { trigger_ = 1; }
  57:../../DaisySP/Source/Control/adenv.h ****     /** Sets the length of time (in seconds) for a specific segment. */
  58:../../DaisySP/Source/Control/adenv.h ****     inline void SetTime(uint8_t seg, float time) { segment_time_[seg] = time; }
 360              		.loc 1 58 71 view .LVU71
 361 0036 DFF8A880 		ldr	r8, .L10+40
 362              	.LBE472:
 363              	.LBE471:
  72:EuclideanDrums.cpp ****     kickPitchEnv.SetTime(ADENV_SEG_ATTACK, .01);
  73:EuclideanDrums.cpp ****     kickPitchEnv.SetTime(ADENV_SEG_DECAY, .05);
  74:EuclideanDrums.cpp ****     kickPitchEnv.SetMax(400);
  75:EuclideanDrums.cpp ****     kickPitchEnv.SetMin(50);
  76:EuclideanDrums.cpp **** 
  77:EuclideanDrums.cpp ****     kickVolEnv.Init(samplerate);
 364              		.loc 18 77 20 view .LVU72
 365 003a 234D     		ldr	r5, .L10+16
 366              	.LBB475:
 367              	.LBB467:
  45:../../DaisySP/Source/Synthesis/oscillator.h ****         freq_      = 100.0f;
 368              		.loc 2 45 20 view .LVU73
 369 003c C4ED047A 		vstr.32	s15, [r4, #16]
  46:../../DaisySP/Source/Synthesis/oscillator.h ****         amp_       = 0.5f;
 370              		.loc 2 46 9 is_stmt 1 view .LVU74
  47:../../DaisySP/Source/Synthesis/oscillator.h ****         phase_     = 0.0f;
 371              		.loc 2 47 9 view .LVU75
  48:../../DaisySP/Source/Synthesis/oscillator.h ****         phase_inc_ = CalcPhaseInc(freq_);
 372              		.loc 2 48 9 view .LVU76
 373              		.loc 2 49 9 view .LVU77
 374              		.loc 2 49 34 is_stmt 0 view .LVU78
 375 0040 FFF7FEFF 		bl	_ZN7daisysp10Oscillator12CalcPhaseIncEf
ARM GAS  /tmp/ccU9pGY3.s 			page 21


 376              	.LVL9:
  50:../../DaisySP/Source/Synthesis/oscillator.h ****         waveform_  = WAVE_SIN;
  51:../../DaisySP/Source/Synthesis/oscillator.h ****         eoc_       = true;
  52:../../DaisySP/Source/Synthesis/oscillator.h ****         eor_       = true;
 377              		.loc 2 52 20 view .LVU79
 378 0044 40F20113 		movw	r3, #257
  49:../../DaisySP/Source/Synthesis/oscillator.h ****         waveform_  = WAVE_SIN;
 379              		.loc 2 49 34 view .LVU80
 380 0048 F0EE407A 		vmov.f32	s15, s0
 381              	.LBE467:
 382              	.LBE475:
 383              	.LBB476:
 384              	.LBB477:
  53:../../DaisySP/Source/Synthesis/oscillator.h ****     }
  54:../../DaisySP/Source/Synthesis/oscillator.h **** 
  55:../../DaisySP/Source/Synthesis/oscillator.h **** 
  56:../../DaisySP/Source/Synthesis/oscillator.h ****     /** Changes the frequency of the Oscillator, and recalculates phase increment.
  57:../../DaisySP/Source/Synthesis/oscillator.h ****     */
  58:../../DaisySP/Source/Synthesis/oscillator.h ****     inline void SetFreq(const float f)
  59:../../DaisySP/Source/Synthesis/oscillator.h ****     {
  60:../../DaisySP/Source/Synthesis/oscillator.h ****         freq_      = f;
  61:../../DaisySP/Source/Synthesis/oscillator.h ****         phase_inc_ = CalcPhaseInc(f);
  62:../../DaisySP/Source/Synthesis/oscillator.h ****     }
  63:../../DaisySP/Source/Synthesis/oscillator.h **** 
  64:../../DaisySP/Source/Synthesis/oscillator.h **** 
  65:../../DaisySP/Source/Synthesis/oscillator.h ****     /** Sets the amplitude of the waveform.
  66:../../DaisySP/Source/Synthesis/oscillator.h ****     */
  67:../../DaisySP/Source/Synthesis/oscillator.h ****     inline void SetAmp(const float a) { amp_ = a; }
  68:../../DaisySP/Source/Synthesis/oscillator.h ****     /** Sets the waveform to be synthesized by the Process() function.
  69:../../DaisySP/Source/Synthesis/oscillator.h ****     */
  70:../../DaisySP/Source/Synthesis/oscillator.h ****     inline void SetWaveform(const uint8_t wf)
  71:../../DaisySP/Source/Synthesis/oscillator.h ****     {
  72:../../DaisySP/Source/Synthesis/oscillator.h ****         waveform_ = wf < WAVE_LAST ? wf : WAVE_SIN;
 385              		.loc 2 72 19 view .LVU81
 386 004c 0122     		movs	r2, #1
 387              	.LBE477:
 388              	.LBE476:
  65:EuclideanDrums.cpp ****     snareEnv.SetTime(ADENV_SEG_ATTACK, .01);
 389              		.loc 18 65 18 view .LVU82
 390 004e B0EE480A 		vmov.f32	s0, s16
 391              	.LBB480:
 392              	.LBB468:
  52:../../DaisySP/Source/Synthesis/oscillator.h ****     }
 393              		.loc 2 52 20 view .LVU83
 394 0052 A384     		strh	r3, [r4, #36]	@ movhi
 395              	.LBE468:
 396              	.LBE480:
  65:EuclideanDrums.cpp ****     snareEnv.SetTime(ADENV_SEG_ATTACK, .01);
 397              		.loc 18 65 18 view .LVU84
 398 0054 3846     		mov	r0, r7
 399              	.LBB481:
 400              	.LBB482:
  17:../../DaisySP/Source/Noise/whitenoise.h ****     /** Initializes the WhiteNoise object
  18:../../DaisySP/Source/Noise/whitenoise.h ****     */
  19:../../DaisySP/Source/Noise/whitenoise.h ****     void Init()
  20:../../DaisySP/Source/Noise/whitenoise.h ****     {
  21:../../DaisySP/Source/Noise/whitenoise.h ****         amp_      = 1.0f;
ARM GAS  /tmp/ccU9pGY3.s 			page 22


 401              		.loc 3 21 19 view .LVU85
 402 0056 1D4B     		ldr	r3, .L10+20
 403              	.LBE482:
 404              	.LBE481:
 405              	.LBB485:
 406              	.LBB469:
  49:../../DaisySP/Source/Synthesis/oscillator.h ****         waveform_  = WAVE_SIN;
 407              		.loc 2 49 20 view .LVU86
 408 0058 C4ED067A 		vstr.32	s15, [r4, #24]
  50:../../DaisySP/Source/Synthesis/oscillator.h ****         eoc_       = true;
 409              		.loc 2 50 9 is_stmt 1 view .LVU87
  51:../../DaisySP/Source/Synthesis/oscillator.h ****         eor_       = true;
 410              		.loc 2 51 9 view .LVU88
  52:../../DaisySP/Source/Synthesis/oscillator.h ****     }
 411              		.loc 2 52 9 view .LVU89
 412              	.LVL10:
  52:../../DaisySP/Source/Synthesis/oscillator.h ****     }
 413              		.loc 2 52 9 is_stmt 0 view .LVU90
 414              	.LBE469:
 415              	.LBE485:
  60:EuclideanDrums.cpp ****     osc.SetAmp(1);
 416              		.loc 18 60 5 is_stmt 1 view .LVU91
 417              	.LBB486:
 418              	.LBI476:
  70:../../DaisySP/Source/Synthesis/oscillator.h ****     {
 419              		.loc 2 70 17 view .LVU92
 420              	.LBB478:
 421              		.loc 2 72 9 view .LVU93
 422              	.LBE478:
 423              	.LBE486:
 424              	.LBB487:
 425              	.LBB483:
  22:../../DaisySP/Source/Noise/whitenoise.h ****         randseed_ = 1;
 426              		.loc 3 22 19 is_stmt 0 view .LVU94
 427 005c 5A60     		str	r2, [r3, #4]
  21:../../DaisySP/Source/Noise/whitenoise.h ****         randseed_ = 1;
 428              		.loc 3 21 19 view .LVU95
 429 005e C3ED008A 		vstr.32	s17, [r3]
 430              	.LBE483:
 431              	.LBE487:
 432              	.LBB488:
 433              	.LBB479:
 434              		.loc 2 72 19 view .LVU96
 435 0062 2270     		strb	r2, [r4]
 436              	.LVL11:
 437              		.loc 2 72 19 view .LVU97
 438              	.LBE479:
 439              	.LBE488:
  61:EuclideanDrums.cpp **** 
 440              		.loc 18 61 5 is_stmt 1 view .LVU98
 441              	.LBB489:
 442              	.LBI489:
  67:../../DaisySP/Source/Synthesis/oscillator.h ****     /** Sets the waveform to be synthesized by the Process() function.
 443              		.loc 2 67 17 view .LVU99
 444              	.LBB490:
  67:../../DaisySP/Source/Synthesis/oscillator.h ****     /** Sets the waveform to be synthesized by the Process() function.
 445              		.loc 2 67 41 view .LVU100
ARM GAS  /tmp/ccU9pGY3.s 			page 23


  67:../../DaisySP/Source/Synthesis/oscillator.h ****     /** Sets the waveform to be synthesized by the Process() function.
 446              		.loc 2 67 41 is_stmt 0 view .LVU101
 447              	.LBE490:
 448              	.LBE489:
  63:EuclideanDrums.cpp **** 
 449              		.loc 18 63 5 is_stmt 1 view .LVU102
 450              	.LBB492:
 451              	.LBI481:
  19:../../DaisySP/Source/Noise/whitenoise.h ****     {
 452              		.loc 3 19 10 view .LVU103
 453              	.LBB484:
  21:../../DaisySP/Source/Noise/whitenoise.h ****         randseed_ = 1;
 454              		.loc 3 21 9 view .LVU104
 455              		.loc 3 22 9 view .LVU105
 456              	.LBE484:
 457              	.LBE492:
  65:EuclideanDrums.cpp ****     snareEnv.SetTime(ADENV_SEG_ATTACK, .01);
 458              		.loc 18 65 5 view .LVU106
 459              	.LBB493:
 460              	.LBB491:
  67:../../DaisySP/Source/Synthesis/oscillator.h ****     /** Sets the waveform to be synthesized by the Process() function.
 461              		.loc 2 67 46 is_stmt 0 view .LVU107
 462 0064 C4ED018A 		vstr.32	s17, [r4, #4]
 463              	.LBE491:
 464              	.LBE493:
  65:EuclideanDrums.cpp ****     snareEnv.SetTime(ADENV_SEG_ATTACK, .01);
 465              		.loc 18 65 18 view .LVU108
 466 0068 FFF7FEFF 		bl	_ZN7daisysp5AdEnv4InitEf
 467              	.LVL12:
  66:EuclideanDrums.cpp ****     snareEnv.SetTime(ADENV_SEG_DECAY, .2);
 468              		.loc 18 66 5 is_stmt 1 view .LVU109
 469              	.LBB494:
 470              	.LBI471:
 471              		.loc 1 58 17 view .LVU110
 472              	.LBB473:
 473              		.loc 1 58 52 view .LVU111
 474              	.LBE473:
 475              	.LBE494:
 476              	.LBB495:
 477              	.LBB496:
 478              		.loc 1 58 71 is_stmt 0 view .LVU112
 479 006c 184B     		ldr	r3, .L10+24
 480              	.LBE496:
 481              	.LBE495:
  71:EuclideanDrums.cpp ****     kickPitchEnv.SetTime(ADENV_SEG_ATTACK, .01);
 482              		.loc 18 71 22 view .LVU113
 483 006e B0EE480A 		vmov.f32	s0, s16
 484 0072 3046     		mov	r0, r6
 485              	.LBB499:
 486              	.LBB500:
  59:../../DaisySP/Source/Control/adenv.h ****     /** Sets the amount of curve applied. A positve value will create a log
  60:../../DaisySP/Source/Control/adenv.h ****         curve. Input range: -100 to 100.  (or more)
  61:../../DaisySP/Source/Control/adenv.h ****     */
  62:../../DaisySP/Source/Control/adenv.h ****     inline void SetCurve(float scalar) { curve_scalar_ = scalar; }
  63:../../DaisySP/Source/Control/adenv.h ****     /** Sets the minimum value of the envelope output.
  64:../../DaisySP/Source/Control/adenv.h ****         Input range: -FLTmax_, to FLTmax_
  65:../../DaisySP/Source/Control/adenv.h ****     */
ARM GAS  /tmp/ccU9pGY3.s 			page 24


  66:../../DaisySP/Source/Control/adenv.h ****     inline void SetMin(float min) { min_ = min; }
  67:../../DaisySP/Source/Control/adenv.h ****     /** Sets the maximum value of the envelope output.
  68:../../DaisySP/Source/Control/adenv.h ****         Input range: -FLTmax_, to FLTmax_
  69:../../DaisySP/Source/Control/adenv.h ****     */
  70:../../DaisySP/Source/Control/adenv.h ****     inline void SetMax(float max) { max_ = max; }
 487              		.loc 1 70 42 view .LVU114
 488 0074 C7ED068A 		vstr.32	s17, [r7, #24]
 489              	.LBE500:
 490              	.LBE499:
 491              	.LBB502:
 492              	.LBB497:
  58:../../DaisySP/Source/Control/adenv.h ****     /** Sets the amount of curve applied. A positve value will create a log
 493              		.loc 1 58 71 view .LVU115
 494 0078 FB60     		str	r3, [r7, #12]	@ float
 495              	.LBE497:
 496              	.LBE502:
 497              	.LBB503:
 498              	.LBB504:
  66:../../DaisySP/Source/Control/adenv.h ****     /** Sets the maximum value of the envelope output.
 499              		.loc 1 66 42 view .LVU116
 500 007a C7F81490 		str	r9, [r7, #20]	@ float
 501              	.LBE504:
 502              	.LBE503:
 503              	.LBB506:
 504              	.LBB474:
  58:../../DaisySP/Source/Control/adenv.h ****     /** Sets the amount of curve applied. A positve value will create a log
 505              		.loc 1 58 71 view .LVU117
 506 007e C7F80880 		str	r8, [r7, #8]	@ float
 507              	.LVL13:
  58:../../DaisySP/Source/Control/adenv.h ****     /** Sets the amount of curve applied. A positve value will create a log
 508              		.loc 1 58 71 view .LVU118
 509              	.LBE474:
 510              	.LBE506:
  67:EuclideanDrums.cpp ****     snareEnv.SetMax(1);
 511              		.loc 18 67 5 is_stmt 1 view .LVU119
 512              	.LBB507:
 513              	.LBI495:
  58:../../DaisySP/Source/Control/adenv.h ****     /** Sets the amount of curve applied. A positve value will create a log
 514              		.loc 1 58 17 view .LVU120
 515              	.LBB498:
  58:../../DaisySP/Source/Control/adenv.h ****     /** Sets the amount of curve applied. A positve value will create a log
 516              		.loc 1 58 52 view .LVU121
  58:../../DaisySP/Source/Control/adenv.h ****     /** Sets the amount of curve applied. A positve value will create a log
 517              		.loc 1 58 52 is_stmt 0 view .LVU122
 518              	.LBE498:
 519              	.LBE507:
  68:EuclideanDrums.cpp ****     snareEnv.SetMin(0);
 520              		.loc 18 68 5 is_stmt 1 view .LVU123
 521              	.LBB508:
 522              	.LBI499:
 523              		.loc 1 70 17 view .LVU124
 524              	.LBB501:
 525              		.loc 1 70 37 view .LVU125
 526              		.loc 1 70 37 is_stmt 0 view .LVU126
 527              	.LBE501:
 528              	.LBE508:
  69:EuclideanDrums.cpp **** 
ARM GAS  /tmp/ccU9pGY3.s 			page 25


 529              		.loc 18 69 5 is_stmt 1 view .LVU127
 530              	.LBB509:
 531              	.LBI503:
  66:../../DaisySP/Source/Control/adenv.h ****     /** Sets the maximum value of the envelope output.
 532              		.loc 1 66 17 view .LVU128
 533              	.LBB505:
  66:../../DaisySP/Source/Control/adenv.h ****     /** Sets the maximum value of the envelope output.
 534              		.loc 1 66 37 view .LVU129
  66:../../DaisySP/Source/Control/adenv.h ****     /** Sets the maximum value of the envelope output.
 535              		.loc 1 66 37 is_stmt 0 view .LVU130
 536              	.LBE505:
 537              	.LBE509:
  71:EuclideanDrums.cpp ****     kickPitchEnv.SetTime(ADENV_SEG_ATTACK, .01);
 538              		.loc 18 71 5 is_stmt 1 view .LVU131
  71:EuclideanDrums.cpp ****     kickPitchEnv.SetTime(ADENV_SEG_ATTACK, .01);
 539              		.loc 18 71 22 is_stmt 0 view .LVU132
 540 0082 FFF7FEFF 		bl	_ZN7daisysp5AdEnv4InitEf
 541              	.LVL14:
  72:EuclideanDrums.cpp ****     kickPitchEnv.SetTime(ADENV_SEG_DECAY, .05);
 542              		.loc 18 72 5 is_stmt 1 view .LVU133
 543              	.LBB510:
 544              	.LBI510:
  58:../../DaisySP/Source/Control/adenv.h ****     /** Sets the amount of curve applied. A positve value will create a log
 545              		.loc 1 58 17 view .LVU134
 546              	.LBB511:
  58:../../DaisySP/Source/Control/adenv.h ****     /** Sets the amount of curve applied. A positve value will create a log
 547              		.loc 1 58 52 view .LVU135
 548              	.LBE511:
 549              	.LBE510:
 550              	.LBB513:
 551              	.LBB514:
 552              		.loc 1 70 42 is_stmt 0 view .LVU136
 553 0086 134B     		ldr	r3, .L10+28
 554              	.LBE514:
 555              	.LBE513:
 556              		.loc 18 77 20 view .LVU137
 557 0088 B0EE480A 		vmov.f32	s0, s16
 558              	.LBB517:
 559              	.LBB518:
  58:../../DaisySP/Source/Control/adenv.h ****     /** Sets the amount of curve applied. A positve value will create a log
 560              		.loc 1 58 71 view .LVU138
 561 008c 124A     		ldr	r2, .L10+32
 562              	.LBE518:
 563              	.LBE517:
 564              		.loc 18 77 20 view .LVU139
 565 008e 2846     		mov	r0, r5
 566              	.LBB520:
 567              	.LBB515:
 568              		.loc 1 70 42 view .LVU140
 569 0090 B361     		str	r3, [r6, #24]	@ float
 570              	.LBE515:
 571              	.LBE520:
 572              	.LBB521:
 573              	.LBB522:
  66:../../DaisySP/Source/Control/adenv.h ****     /** Sets the maximum value of the envelope output.
 574              		.loc 1 66 42 view .LVU141
 575 0092 124B     		ldr	r3, .L10+36
ARM GAS  /tmp/ccU9pGY3.s 			page 26


 576              	.LBE522:
 577              	.LBE521:
 578              	.LBB524:
 579              	.LBB512:
  58:../../DaisySP/Source/Control/adenv.h ****     /** Sets the amount of curve applied. A positve value will create a log
 580              		.loc 1 58 71 view .LVU142
 581 0094 C6F80880 		str	r8, [r6, #8]	@ float
 582              	.LVL15:
  58:../../DaisySP/Source/Control/adenv.h ****     /** Sets the amount of curve applied. A positve value will create a log
 583              		.loc 1 58 71 view .LVU143
 584              	.LBE512:
 585              	.LBE524:
  73:EuclideanDrums.cpp ****     kickPitchEnv.SetMax(400);
 586              		.loc 18 73 5 is_stmt 1 view .LVU144
 587              	.LBB525:
 588              	.LBI517:
  58:../../DaisySP/Source/Control/adenv.h ****     /** Sets the amount of curve applied. A positve value will create a log
 589              		.loc 1 58 17 view .LVU145
 590              	.LBB519:
  58:../../DaisySP/Source/Control/adenv.h ****     /** Sets the amount of curve applied. A positve value will create a log
 591              		.loc 1 58 52 view .LVU146
  58:../../DaisySP/Source/Control/adenv.h ****     /** Sets the amount of curve applied. A positve value will create a log
 592              		.loc 1 58 71 is_stmt 0 view .LVU147
 593 0098 F260     		str	r2, [r6, #12]	@ float
 594              	.LVL16:
  58:../../DaisySP/Source/Control/adenv.h ****     /** Sets the amount of curve applied. A positve value will create a log
 595              		.loc 1 58 71 view .LVU148
 596              	.LBE519:
 597              	.LBE525:
  74:EuclideanDrums.cpp ****     kickPitchEnv.SetMin(50);
 598              		.loc 18 74 5 is_stmt 1 view .LVU149
 599              	.LBB526:
 600              	.LBI513:
 601              		.loc 1 70 17 view .LVU150
 602              	.LBB516:
 603              		.loc 1 70 37 view .LVU151
 604              		.loc 1 70 37 is_stmt 0 view .LVU152
 605              	.LBE516:
 606              	.LBE526:
  75:EuclideanDrums.cpp **** 
 607              		.loc 18 75 5 is_stmt 1 view .LVU153
 608              	.LBB527:
 609              	.LBI521:
  66:../../DaisySP/Source/Control/adenv.h ****     /** Sets the maximum value of the envelope output.
 610              		.loc 1 66 17 view .LVU154
 611              	.LBB523:
  66:../../DaisySP/Source/Control/adenv.h ****     /** Sets the maximum value of the envelope output.
 612              		.loc 1 66 37 view .LVU155
  66:../../DaisySP/Source/Control/adenv.h ****     /** Sets the maximum value of the envelope output.
 613              		.loc 1 66 42 is_stmt 0 view .LVU156
 614 009a 7361     		str	r3, [r6, #20]	@ float
 615              	.LVL17:
  66:../../DaisySP/Source/Control/adenv.h ****     /** Sets the maximum value of the envelope output.
 616              		.loc 1 66 42 view .LVU157
 617              	.LBE523:
 618              	.LBE527:
 619              		.loc 18 77 5 is_stmt 1 view .LVU158
ARM GAS  /tmp/ccU9pGY3.s 			page 27


 620              		.loc 18 77 20 is_stmt 0 view .LVU159
 621 009c FFF7FEFF 		bl	_ZN7daisysp5AdEnv4InitEf
 622              	.LVL18:
  78:EuclideanDrums.cpp ****     kickVolEnv.SetTime(ADENV_SEG_ATTACK, .01);
 623              		.loc 18 78 5 is_stmt 1 view .LVU160
 624              	.LBB528:
 625              	.LBI528:
  58:../../DaisySP/Source/Control/adenv.h ****     /** Sets the amount of curve applied. A positve value will create a log
 626              		.loc 1 58 17 view .LVU161
 627              	.LBB529:
  58:../../DaisySP/Source/Control/adenv.h ****     /** Sets the amount of curve applied. A positve value will create a log
 628              		.loc 1 58 52 view .LVU162
 629              	.LBE529:
 630              	.LBE528:
 631              	.LBB531:
 632              	.LBB532:
  58:../../DaisySP/Source/Control/adenv.h ****     /** Sets the amount of curve applied. A positve value will create a log
 633              		.loc 1 58 71 is_stmt 0 view .LVU163
 634 00a0 C5ED038A 		vstr.32	s17, [r5, #12]
 635              	.LBE532:
 636              	.LBE531:
 637              	.LBB534:
 638              	.LBB535:
 639              		.loc 1 70 42 view .LVU164
 640 00a4 C5ED068A 		vstr.32	s17, [r5, #24]
 641              	.LBE535:
 642              	.LBE534:
 643              	.LBB537:
 644              	.LBB538:
  66:../../DaisySP/Source/Control/adenv.h ****     /** Sets the maximum value of the envelope output.
 645              		.loc 1 66 42 view .LVU165
 646 00a8 C5F81490 		str	r9, [r5, #20]	@ float
 647              	.LBE538:
 648              	.LBE537:
 649              	.LBB540:
 650              	.LBB530:
  58:../../DaisySP/Source/Control/adenv.h ****     /** Sets the amount of curve applied. A positve value will create a log
 651              		.loc 1 58 71 view .LVU166
 652 00ac C5F80880 		str	r8, [r5, #8]	@ float
 653              	.LVL19:
  58:../../DaisySP/Source/Control/adenv.h ****     /** Sets the amount of curve applied. A positve value will create a log
 654              		.loc 1 58 71 view .LVU167
 655              	.LBE530:
 656              	.LBE540:
  79:EuclideanDrums.cpp ****     kickVolEnv.SetTime(ADENV_SEG_DECAY, 1);
 657              		.loc 18 79 5 is_stmt 1 view .LVU168
 658              	.LBB541:
 659              	.LBI531:
  58:../../DaisySP/Source/Control/adenv.h ****     /** Sets the amount of curve applied. A positve value will create a log
 660              		.loc 1 58 17 view .LVU169
 661              	.LBB533:
  58:../../DaisySP/Source/Control/adenv.h ****     /** Sets the amount of curve applied. A positve value will create a log
 662              		.loc 1 58 52 view .LVU170
  58:../../DaisySP/Source/Control/adenv.h ****     /** Sets the amount of curve applied. A positve value will create a log
 663              		.loc 1 58 52 is_stmt 0 view .LVU171
 664              	.LBE533:
 665              	.LBE541:
ARM GAS  /tmp/ccU9pGY3.s 			page 28


  80:EuclideanDrums.cpp ****     kickVolEnv.SetMax(1);
 666              		.loc 18 80 5 is_stmt 1 view .LVU172
 667              	.LBB542:
 668              	.LBI534:
 669              		.loc 1 70 17 view .LVU173
 670              	.LBB536:
 671              		.loc 1 70 37 view .LVU174
 672              		.loc 1 70 37 is_stmt 0 view .LVU175
 673              	.LBE536:
 674              	.LBE542:
  81:EuclideanDrums.cpp ****     kickVolEnv.SetMin(0);
 675              		.loc 18 81 5 is_stmt 1 view .LVU176
 676              	.LBB543:
 677              	.LBI537:
  66:../../DaisySP/Source/Control/adenv.h ****     /** Sets the maximum value of the envelope output.
 678              		.loc 1 66 17 view .LVU177
 679              	.LBB539:
  66:../../DaisySP/Source/Control/adenv.h ****     /** Sets the maximum value of the envelope output.
 680              		.loc 1 66 37 view .LVU178
  66:../../DaisySP/Source/Control/adenv.h ****     /** Sets the maximum value of the envelope output.
 681              		.loc 1 66 37 is_stmt 0 view .LVU179
 682              	.LBE539:
 683              	.LBE543:
  82:EuclideanDrums.cpp **** }
 684              		.loc 18 82 1 view .LVU180
 685 00b0 BDEC028B 		vldm	sp!, {d8}
 686              		.cfi_restore 80
 687              		.cfi_restore 81
 688              		.cfi_def_cfa_offset 32
 689              	.LVL20:
 690              		.loc 18 82 1 view .LVU181
 691 00b4 BDE8F883 		pop	{r3, r4, r5, r6, r7, r8, r9, pc}
 692              	.L11:
 693              		.align	2
 694              	.L10:
 695 00b8 00000000 		.word	.LANCHOR0
 696 00bc 0000C842 		.word	1120403456
 697 00c0 00000000 		.word	.LANCHOR2
 698 00c4 00000000 		.word	.LANCHOR3
 699 00c8 00000000 		.word	.LANCHOR4
 700 00cc 00000000 		.word	.LANCHOR1
 701 00d0 CDCC4C3E 		.word	1045220557
 702 00d4 0000C843 		.word	1137180672
 703 00d8 CDCC4C3D 		.word	1028443341
 704 00dc 00004842 		.word	1112014848
 705 00e0 0AD7233C 		.word	1008981770
 706              		.cfi_endproc
 707              	.LFE4220:
 709              		.section	.text._Z6SetSeqPbb,"ax",%progbits
 710              		.align	1
 711              		.p2align 2,,3
 712              		.global	_Z6SetSeqPbb
 713              		.syntax unified
 714              		.thumb
 715              		.thumb_func
 716              		.fpu fpv5-d16
 718              	_Z6SetSeqPbb:
ARM GAS  /tmp/ccU9pGY3.s 			page 29


 719              	.LVL21:
 720              	.LFB4221:
  83:EuclideanDrums.cpp **** 
  84:EuclideanDrums.cpp **** void SetSeq(bool* seq, bool in)
  85:EuclideanDrums.cpp **** {
 721              		.loc 18 85 1 is_stmt 1 view -0
 722              		.cfi_startproc
 723              		@ args = 0, pretend = 0, frame = 0
 724              		@ frame_needed = 0, uses_anonymous_args = 0
 725              		@ link register save eliminated.
  86:EuclideanDrums.cpp ****     for(uint32_t i = 0; i < MAX_LENGTH; i++)
 726              		.loc 18 86 5 view .LVU183
 727              	.LBB544:
 728              		.loc 18 86 27 view .LVU184
 729 0000 431E     		subs	r3, r0, #1
 730 0002 00F11F02 		add	r2, r0, #31
 731              	.LVL22:
 732              	.L13:
  87:EuclideanDrums.cpp ****     {
  88:EuclideanDrums.cpp ****         seq[i] = in;
 733              		.loc 18 88 9 discriminator 2 view .LVU185
 734              		.loc 18 88 16 is_stmt 0 discriminator 2 view .LVU186
 735 0006 03F8011F 		strb	r1, [r3, #1]!
 736              	.LVL23:
  86:EuclideanDrums.cpp ****     for(uint32_t i = 0; i < MAX_LENGTH; i++)
 737              		.loc 18 86 5 is_stmt 1 discriminator 2 view .LVU187
  86:EuclideanDrums.cpp ****     for(uint32_t i = 0; i < MAX_LENGTH; i++)
 738              		.loc 18 86 27 discriminator 2 view .LVU188
 739 000a 9342     		cmp	r3, r2
 740 000c FBD1     		bne	.L13
  86:EuclideanDrums.cpp ****     for(uint32_t i = 0; i < MAX_LENGTH; i++)
 741              		.loc 18 86 27 is_stmt 0 discriminator 2 view .LVU189
 742              	.LBE544:
  89:EuclideanDrums.cpp ****     }
  90:EuclideanDrums.cpp **** }
 743              		.loc 18 90 1 view .LVU190
 744 000e 7047     		bx	lr
 745              		.cfi_endproc
 746              	.LFE4221:
 748              		.section	.text.startup.main,"ax",%progbits
 749              		.align	1
 750              		.p2align 2,,3
 751              		.global	main
 752              		.syntax unified
 753              		.thumb
 754              		.thumb_func
 755              		.fpu fpv5-d16
 757              	main:
 758              	.LFB4222:
  91:EuclideanDrums.cpp **** 
  92:EuclideanDrums.cpp **** int main(void)
  93:EuclideanDrums.cpp **** {
 759              		.loc 18 93 1 is_stmt 1 view -0
 760              		.cfi_startproc
 761              		@ args = 0, pretend = 0, frame = 40
 762              		@ frame_needed = 0, uses_anonymous_args = 0
  94:EuclideanDrums.cpp ****     hardware.Init();
ARM GAS  /tmp/ccU9pGY3.s 			page 30


 763              		.loc 18 94 5 view .LVU192
  93:EuclideanDrums.cpp ****     hardware.Init();
 764              		.loc 18 93 1 is_stmt 0 view .LVU193
 765 0000 30B5     		push	{r4, r5, lr}
 766              		.cfi_def_cfa_offset 12
 767              		.cfi_offset 4, -12
 768              		.cfi_offset 5, -8
 769              		.cfi_offset 14, -4
 770              		.loc 18 94 18 view .LVU194
 771 0002 0021     		movs	r1, #0
 772 0004 2248     		ldr	r0, .L22
  95:EuclideanDrums.cpp ****     float samplerate   = hardware.AudioSampleRate();
  96:EuclideanDrums.cpp ****     float callbackrate = hardware.AudioCallbackRate();
  97:EuclideanDrums.cpp **** 
  98:EuclideanDrums.cpp ****     //setup the drum sounds
  99:EuclideanDrums.cpp ****     SetupDrums(samplerate);
 100:EuclideanDrums.cpp **** 
 101:EuclideanDrums.cpp ****     tick.Init(5, callbackrate);
 102:EuclideanDrums.cpp **** 
 103:EuclideanDrums.cpp ****     lengthParam.Init(hardware.knob2, 1, 32, lengthParam.LINEAR);
 773              		.loc 18 103 31 view .LVU195
 774 0006 234D     		ldr	r5, .L22+4
  93:EuclideanDrums.cpp ****     hardware.Init();
 775              		.loc 18 93 1 view .LVU196
 776 0008 2DED028B 		vpush.64	{d8}
 777              		.cfi_def_cfa_offset 20
 778              		.cfi_offset 80, -20
 779              		.cfi_offset 81, -16
 780 000c 8BB0     		sub	sp, sp, #44
 781              		.cfi_def_cfa_offset 64
  94:EuclideanDrums.cpp ****     float samplerate   = hardware.AudioSampleRate();
 782              		.loc 18 94 18 view .LVU197
 783 000e FFF7FEFF 		bl	_ZN5daisy8DaisyPod4InitEb
 784              	.LVL24:
  95:EuclideanDrums.cpp ****     float samplerate   = hardware.AudioSampleRate();
 785              		.loc 18 95 5 is_stmt 1 view .LVU198
  95:EuclideanDrums.cpp ****     float samplerate   = hardware.AudioSampleRate();
 786              		.loc 18 95 50 is_stmt 0 view .LVU199
 787 0012 1F48     		ldr	r0, .L22
 788 0014 FFF7FEFF 		bl	_ZN5daisy8DaisyPod15AudioSampleRateEv
 789              	.LVL25:
  96:EuclideanDrums.cpp **** 
 790              		.loc 18 96 52 view .LVU200
 791 0018 1D48     		ldr	r0, .L22
  95:EuclideanDrums.cpp ****     float samplerate   = hardware.AudioSampleRate();
 792              		.loc 18 95 50 view .LVU201
 793 001a B0EE408A 		vmov.f32	s16, s0
 794              	.LVL26:
  96:EuclideanDrums.cpp **** 
 795              		.loc 18 96 5 is_stmt 1 view .LVU202
  96:EuclideanDrums.cpp **** 
 796              		.loc 18 96 52 is_stmt 0 view .LVU203
 797 001e FFF7FEFF 		bl	_ZN5daisy8DaisyPod17AudioCallbackRateEv
 798              	.LVL27:
  96:EuclideanDrums.cpp **** 
 799              		.loc 18 96 52 view .LVU204
 800 0022 F0EE400A 		vmov.f32	s1, s0
ARM GAS  /tmp/ccU9pGY3.s 			page 31


 801              		.loc 18 103 31 view .LVU205
 802 0026 02AC     		add	r4, sp, #8
  99:EuclideanDrums.cpp **** 
 803              		.loc 18 99 15 view .LVU206
 804 0028 B0EE480A 		vmov.f32	s0, s16
  96:EuclideanDrums.cpp **** 
 805              		.loc 18 96 52 view .LVU207
 806 002c CDED010A 		vstr.32	s1, [sp, #4]	@ int
 807              	.LVL28:
  99:EuclideanDrums.cpp **** 
 808              		.loc 18 99 5 is_stmt 1 view .LVU208
  99:EuclideanDrums.cpp **** 
 809              		.loc 18 99 15 is_stmt 0 view .LVU209
 810 0030 FFF7FEFF 		bl	_Z10SetupDrumsf
 811              	.LVL29:
 101:EuclideanDrums.cpp **** 
 812              		.loc 18 101 5 is_stmt 1 view .LVU210
 101:EuclideanDrums.cpp **** 
 813              		.loc 18 101 14 is_stmt 0 view .LVU211
 814 0034 B1EE040A 		vmov.f32	s0, #5.0e+0
 815 0038 DDED010A 		vldr.32	s1, [sp, #4]	@ int
 816 003c 1648     		ldr	r0, .L22+8
 817 003e FFF7FEFF 		bl	_ZN7daisysp5Metro4InitEff
 818              	.LVL30:
 819              		.loc 18 103 5 is_stmt 1 view .LVU212
 820              		.loc 18 103 21 is_stmt 0 view .LVU213
 821 0042 B7EE000A 		vmov.f32	s0, #1.0e+0
 822 0046 DFED150A 		vldr.32	s1, .L22+12
 823              		.loc 18 103 31 view .LVU214
 824 004a 0FCD     		ldmia	r5!, {r0, r1, r2, r3}
 825 004c 0FC4     		stmia	r4!, {r0, r1, r2, r3}
 826 004e 95E80F00 		ldm	r5, {r0, r1, r2, r3}
 827 0052 84E80F00 		stm	r4, {r0, r1, r2, r3}
 828              		.loc 18 103 21 view .LVU215
 829 0056 02A9     		add	r1, sp, #8
 830 0058 0022     		movs	r2, #0
 831 005a 1148     		ldr	r0, .L22+16
 832 005c FFF7FEFF 		bl	_ZN5daisy9Parameter4InitENS_13AnalogControlEffNS0_5CurveE
 833              	.LVL31:
 834              	.LBB545:
 835              	.LBI545:
 836              		.loc 6 23 5 is_stmt 1 view .LVU216
 837              		.loc 6 23 5 is_stmt 0 view .LVU217
 838              	.LBE545:
 104:EuclideanDrums.cpp **** 
 105:EuclideanDrums.cpp ****     SetSeq(snareSeq, 0);
 839              		.loc 18 105 5 is_stmt 1 view .LVU218
 840              	.LBB546:
 841              	.LBI546:
  84:EuclideanDrums.cpp **** {
 842              		.loc 18 84 6 view .LVU219
 843              	.LBB547:
  86:EuclideanDrums.cpp ****     {
 844              		.loc 18 86 27 view .LVU220
 845 0060 104B     		ldr	r3, .L22+20
 846 0062 03F12001 		add	r1, r3, #32
 847              	.LVL32:
ARM GAS  /tmp/ccU9pGY3.s 			page 32


 848              	.L16:
  88:EuclideanDrums.cpp ****     }
 849              		.loc 18 88 9 view .LVU221
  88:EuclideanDrums.cpp ****     }
 850              		.loc 18 88 16 is_stmt 0 view .LVU222
 851 0066 0022     		movs	r2, #0
 852 0068 03F8012F 		strb	r2, [r3, #1]!
 853              	.LVL33:
  86:EuclideanDrums.cpp ****     {
 854              		.loc 18 86 5 is_stmt 1 view .LVU223
  86:EuclideanDrums.cpp ****     {
 855              		.loc 18 86 27 view .LVU224
 856 006c 8B42     		cmp	r3, r1
 857 006e FAD1     		bne	.L16
 858 0070 0D4B     		ldr	r3, .L22+24
 859              	.LVL34:
  86:EuclideanDrums.cpp ****     {
 860              		.loc 18 86 27 is_stmt 0 view .LVU225
 861 0072 03F12001 		add	r1, r3, #32
 862              	.LVL35:
 863              	.L17:
  86:EuclideanDrums.cpp ****     {
 864              		.loc 18 86 27 view .LVU226
 865              	.LBE547:
 866              	.LBE546:
 867              	.LBB548:
 868              	.LBB549:
  88:EuclideanDrums.cpp ****     }
 869              		.loc 18 88 9 is_stmt 1 view .LVU227
  88:EuclideanDrums.cpp ****     }
 870              		.loc 18 88 16 is_stmt 0 view .LVU228
 871 0076 0022     		movs	r2, #0
 872 0078 03F8012F 		strb	r2, [r3, #1]!
 873              	.LVL36:
  86:EuclideanDrums.cpp ****     {
 874              		.loc 18 86 5 is_stmt 1 view .LVU229
  86:EuclideanDrums.cpp ****     {
 875              		.loc 18 86 27 view .LVU230
 876 007c 8B42     		cmp	r3, r1
 877 007e FAD1     		bne	.L17
 878              	.LVL37:
  86:EuclideanDrums.cpp ****     {
 879              		.loc 18 86 27 is_stmt 0 view .LVU231
 880              	.LBE549:
 881              	.LBE548:
 106:EuclideanDrums.cpp ****     SetSeq(kickSeq, 0);
 107:EuclideanDrums.cpp **** 
 108:EuclideanDrums.cpp ****     hardware.StartAdc();
 882              		.loc 18 108 5 is_stmt 1 view .LVU232
 883              		.loc 18 108 22 is_stmt 0 view .LVU233
 884 0080 0348     		ldr	r0, .L22
 885 0082 FFF7FEFF 		bl	_ZN5daisy8DaisyPod8StartAdcEv
 886              	.LVL38:
 109:EuclideanDrums.cpp ****     hardware.StartAudio(AudioCallback);
 887              		.loc 18 109 5 is_stmt 1 view .LVU234
 888              		.loc 18 109 24 is_stmt 0 view .LVU235
 889 0086 0949     		ldr	r1, .L22+28
ARM GAS  /tmp/ccU9pGY3.s 			page 33


 890 0088 0148     		ldr	r0, .L22
 891 008a FFF7FEFF 		bl	_ZN5daisy8DaisyPod10StartAudioEPFvPKfPfjE
 892              	.LVL39:
 893              	.L18:
 110:EuclideanDrums.cpp **** 
 111:EuclideanDrums.cpp ****     // Loop forever
 112:EuclideanDrums.cpp ****     for(;;) {}
 894              		.loc 18 112 5 is_stmt 1 discriminator 1 view .LVU236
 895              		.loc 18 112 5 discriminator 1 view .LVU237
 896              		.loc 18 112 5 discriminator 1 view .LVU238
 897              		.loc 18 112 5 discriminator 1 view .LVU239
 898 008e FEE7     		b	.L18
 899              	.L23:
 900              		.align	2
 901              	.L22:
 902 0090 00000000 		.word	hardware
 903 0094 7C000000 		.word	hardware+124
 904 0098 00000000 		.word	.LANCHOR5
 905 009c 00000042 		.word	1107296256
 906 00a0 00000000 		.word	.LANCHOR6
 907 00a4 FFFFFFFF 		.word	.LANCHOR7-1
 908 00a8 FFFFFFFF 		.word	.LANCHOR8-1
 909 00ac 00000000 		.word	_Z13AudioCallbackPKfPfj
 910              		.cfi_endproc
 911              	.LFE4222:
 913              		.section	.text._Z14IncrementStepsv,"ax",%progbits
 914              		.align	1
 915              		.p2align 2,,3
 916              		.global	_Z14IncrementStepsv
 917              		.syntax unified
 918              		.thumb
 919              		.thumb_func
 920              		.fpu fpv5-d16
 922              	_Z14IncrementStepsv:
 923              	.LFB4223:
 113:EuclideanDrums.cpp **** }
 114:EuclideanDrums.cpp **** 
 115:EuclideanDrums.cpp **** float snareLength = 32.f;
 116:EuclideanDrums.cpp **** float kickLength  = 32.f;
 117:EuclideanDrums.cpp **** 
 118:EuclideanDrums.cpp **** void IncrementSteps()
 119:EuclideanDrums.cpp **** {
 924              		.loc 18 119 1 view -0
 925              		.cfi_startproc
 926              		@ args = 0, pretend = 0, frame = 0
 927              		@ frame_needed = 0, uses_anonymous_args = 0
 928              		@ link register save eliminated.
 120:EuclideanDrums.cpp ****     snareStep++;
 929              		.loc 18 120 5 view .LVU241
 121:EuclideanDrums.cpp ****     kickStep++;
 930              		.loc 18 121 5 view .LVU242
 122:EuclideanDrums.cpp ****     snareStep %= (int)snareLength;
 123:EuclideanDrums.cpp ****     kickStep %= (int)kickLength;
 931              		.loc 18 123 17 is_stmt 0 view .LVU243
 932 0000 1149     		ldr	r1, .L26
 122:EuclideanDrums.cpp ****     snareStep %= (int)snareLength;
 933              		.loc 18 122 18 view .LVU244
ARM GAS  /tmp/ccU9pGY3.s 			page 34


 934 0002 124B     		ldr	r3, .L26+4
 935              		.loc 18 123 17 view .LVU245
 936 0004 91ED007A 		vldr.32	s14, [r1]
 122:EuclideanDrums.cpp ****     snareStep %= (int)snareLength;
 937              		.loc 18 122 18 view .LVU246
 938 0008 D3ED007A 		vldr.32	s15, [r3]
 939              		.loc 18 123 17 view .LVU247
 940 000c BDEEC77A 		vcvt.s32.f32	s14, s14
 122:EuclideanDrums.cpp ****     snareStep %= (int)snareLength;
 941              		.loc 18 122 18 view .LVU248
 942 0010 FDEEE77A 		vcvt.s32.f32	s15, s15
 119:EuclideanDrums.cpp ****     snareStep++;
 943              		.loc 18 119 1 view .LVU249
 944 0014 70B4     		push	{r4, r5, r6}
 945              		.cfi_def_cfa_offset 12
 946              		.cfi_offset 4, -12
 947              		.cfi_offset 5, -8
 948              		.cfi_offset 6, -4
 121:EuclideanDrums.cpp ****     kickStep++;
 949              		.loc 18 121 13 view .LVU250
 950 0016 0E4E     		ldr	r6, .L26+8
 951              		.loc 18 123 17 view .LVU251
 952 0018 17EE100A 		vmov	r0, s14	@ int
 122:EuclideanDrums.cpp ****     snareStep %= (int)snareLength;
 953              		.loc 18 122 15 view .LVU252
 954 001c 0D4D     		ldr	r5, .L26+12
 122:EuclideanDrums.cpp ****     snareStep %= (int)snareLength;
 955              		.loc 18 122 18 view .LVU253
 956 001e 17EE901A 		vmov	r1, s15	@ int
 121:EuclideanDrums.cpp ****     kickStep++;
 957              		.loc 18 121 13 view .LVU254
 958 0022 3278     		ldrb	r2, [r6]	@ zero_extendqisi2
 120:EuclideanDrums.cpp ****     kickStep++;
 959              		.loc 18 120 14 view .LVU255
 960 0024 2B78     		ldrb	r3, [r5]	@ zero_extendqisi2
 121:EuclideanDrums.cpp ****     snareStep %= (int)snareLength;
 961              		.loc 18 121 13 view .LVU256
 962 0026 0132     		adds	r2, r2, #1
 120:EuclideanDrums.cpp ****     kickStep++;
 963              		.loc 18 120 14 view .LVU257
 964 0028 0133     		adds	r3, r3, #1
 121:EuclideanDrums.cpp ****     snareStep %= (int)snareLength;
 965              		.loc 18 121 13 view .LVU258
 966 002a D2B2     		uxtb	r2, r2
 122:EuclideanDrums.cpp ****     kickStep %= (int)kickLength;
 967              		.loc 18 122 5 is_stmt 1 view .LVU259
 122:EuclideanDrums.cpp ****     kickStep %= (int)kickLength;
 968              		.loc 18 122 15 is_stmt 0 view .LVU260
 969 002c DBB2     		uxtb	r3, r3
 970              		.loc 18 123 14 view .LVU261
 971 002e 92FBF0F4 		sdiv	r4, r2, r0
 972 0032 00FB1422 		mls	r2, r0, r4, r2
 122:EuclideanDrums.cpp ****     kickStep %= (int)kickLength;
 973              		.loc 18 122 15 view .LVU262
 974 0036 93FBF1F4 		sdiv	r4, r3, r1
 975 003a 01FB1433 		mls	r3, r1, r4, r3
 976              		.loc 18 123 14 view .LVU263
ARM GAS  /tmp/ccU9pGY3.s 			page 35


 977 003e 3270     		strb	r2, [r6]
 122:EuclideanDrums.cpp ****     kickStep %= (int)kickLength;
 978              		.loc 18 122 15 view .LVU264
 979 0040 2B70     		strb	r3, [r5]
 980              		.loc 18 123 5 is_stmt 1 view .LVU265
 124:EuclideanDrums.cpp **** }
 981              		.loc 18 124 1 is_stmt 0 view .LVU266
 982 0042 70BC     		pop	{r4, r5, r6}
 983              		.cfi_restore 6
 984              		.cfi_restore 5
 985              		.cfi_restore 4
 986              		.cfi_def_cfa_offset 0
 987 0044 7047     		bx	lr
 988              	.L27:
 989 0046 00BF     		.align	2
 990              	.L26:
 991 0048 00000000 		.word	.LANCHOR12
 992 004c 00000000 		.word	.LANCHOR11
 993 0050 00000000 		.word	.LANCHOR9
 994 0054 00000000 		.word	.LANCHOR10
 995              		.cfi_endproc
 996              	.LFE4223:
 998              		.section	.text._Z11ProcessTickv,"ax",%progbits
 999              		.align	1
 1000              		.p2align 2,,3
 1001              		.global	_Z11ProcessTickv
 1002              		.syntax unified
 1003              		.thumb
 1004              		.thumb_func
 1005              		.fpu fpv5-d16
 1007              	_Z11ProcessTickv:
 1008              	.LFB4224:
 125:EuclideanDrums.cpp **** 
 126:EuclideanDrums.cpp **** void ProcessTick()
 127:EuclideanDrums.cpp **** {
 1009              		.loc 18 127 1 is_stmt 1 view -0
 1010              		.cfi_startproc
 1011              		@ args = 0, pretend = 0, frame = 0
 1012              		@ frame_needed = 0, uses_anonymous_args = 0
 128:EuclideanDrums.cpp ****     if(tick.Process())
 1013              		.loc 18 128 5 view .LVU268
 127:EuclideanDrums.cpp ****     if(tick.Process())
 1014              		.loc 18 127 1 is_stmt 0 view .LVU269
 1015 0000 70B5     		push	{r4, r5, r6, lr}
 1016              		.cfi_def_cfa_offset 16
 1017              		.cfi_offset 4, -16
 1018              		.cfi_offset 5, -12
 1019              		.cfi_offset 6, -8
 1020              		.cfi_offset 14, -4
 1021              		.loc 18 128 20 view .LVU270
 1022 0002 1B48     		ldr	r0, .L40
 1023 0004 FFF7FEFF 		bl	_ZN7daisysp5Metro7ProcessEv
 1024              	.LVL40:
 1025              		.loc 18 128 5 view .LVU271
 1026 0008 80B3     		cbz	r0, .L28
 1027              	.LBB560:
 1028              	.LBI560:
ARM GAS  /tmp/ccU9pGY3.s 			page 36


 126:EuclideanDrums.cpp **** {
 1029              		.loc 18 126 6 is_stmt 1 view .LVU272
 1030              	.LBB561:
 129:EuclideanDrums.cpp ****     {
 130:EuclideanDrums.cpp ****         IncrementSteps();
 1031              		.loc 18 130 9 view .LVU273
 1032              	.LBB562:
 1033              	.LBI562:
 118:EuclideanDrums.cpp **** {
 1034              		.loc 18 118 6 view .LVU274
 1035              	.LBB563:
 120:EuclideanDrums.cpp ****     kickStep++;
 1036              		.loc 18 120 5 view .LVU275
 121:EuclideanDrums.cpp ****     snareStep %= (int)snareLength;
 1037              		.loc 18 121 5 view .LVU276
 123:EuclideanDrums.cpp **** }
 1038              		.loc 18 123 17 is_stmt 0 view .LVU277
 1039 000a 1A4B     		ldr	r3, .L40+4
 121:EuclideanDrums.cpp ****     snareStep %= (int)snareLength;
 1040              		.loc 18 121 13 view .LVU278
 1041 000c 1A4E     		ldr	r6, .L40+8
 123:EuclideanDrums.cpp **** }
 1042              		.loc 18 123 17 view .LVU279
 1043 000e D3ED007A 		vldr.32	s15, [r3]
 121:EuclideanDrums.cpp ****     snareStep %= (int)snareLength;
 1044              		.loc 18 121 13 view .LVU280
 1045 0012 3278     		ldrb	r2, [r6]	@ zero_extendqisi2
 123:EuclideanDrums.cpp **** }
 1046              		.loc 18 123 17 view .LVU281
 1047 0014 FDEEE77A 		vcvt.s32.f32	s15, s15
 122:EuclideanDrums.cpp ****     kickStep %= (int)kickLength;
 1048              		.loc 18 122 18 view .LVU282
 1049 0018 1849     		ldr	r1, .L40+12
 120:EuclideanDrums.cpp ****     kickStep++;
 1050              		.loc 18 120 14 view .LVU283
 1051 001a 194D     		ldr	r5, .L40+16
 121:EuclideanDrums.cpp ****     snareStep %= (int)snareLength;
 1052              		.loc 18 121 13 view .LVU284
 1053 001c 0132     		adds	r2, r2, #1
 123:EuclideanDrums.cpp **** }
 1054              		.loc 18 123 17 view .LVU285
 1055 001e 17EE904A 		vmov	r4, s15	@ int
 122:EuclideanDrums.cpp ****     kickStep %= (int)kickLength;
 1056              		.loc 18 122 18 view .LVU286
 1057 0022 D1ED007A 		vldr.32	s15, [r1]
 120:EuclideanDrums.cpp ****     kickStep++;
 1058              		.loc 18 120 14 view .LVU287
 1059 0026 2B78     		ldrb	r3, [r5]	@ zero_extendqisi2
 121:EuclideanDrums.cpp ****     snareStep %= (int)snareLength;
 1060              		.loc 18 121 13 view .LVU288
 1061 0028 D2B2     		uxtb	r2, r2
 122:EuclideanDrums.cpp ****     kickStep %= (int)kickLength;
 1062              		.loc 18 122 5 is_stmt 1 view .LVU289
 122:EuclideanDrums.cpp ****     kickStep %= (int)kickLength;
 1063              		.loc 18 122 18 is_stmt 0 view .LVU290
 1064 002a FDEEE77A 		vcvt.s32.f32	s15, s15
 120:EuclideanDrums.cpp ****     kickStep++;
ARM GAS  /tmp/ccU9pGY3.s 			page 37


 1065              		.loc 18 120 14 view .LVU291
 1066 002e 0133     		adds	r3, r3, #1
 123:EuclideanDrums.cpp **** }
 1067              		.loc 18 123 14 view .LVU292
 1068 0030 92FBF4F1 		sdiv	r1, r2, r4
 122:EuclideanDrums.cpp ****     kickStep %= (int)kickLength;
 1069              		.loc 18 122 18 view .LVU293
 1070 0034 17EE900A 		vmov	r0, s15	@ int
 122:EuclideanDrums.cpp ****     kickStep %= (int)kickLength;
 1071              		.loc 18 122 15 view .LVU294
 1072 0038 DBB2     		uxtb	r3, r3
 123:EuclideanDrums.cpp **** }
 1073              		.loc 18 123 14 view .LVU295
 1074 003a 04FB1122 		mls	r2, r4, r1, r2
 1075              	.LBE563:
 1076              	.LBE562:
 131:EuclideanDrums.cpp **** 
 132:EuclideanDrums.cpp ****         if(kickSeq[kickStep])
 1077              		.loc 18 132 28 view .LVU296
 1078 003e 114C     		ldr	r4, .L40+20
 1079              	.LBB566:
 1080              	.LBB564:
 122:EuclideanDrums.cpp ****     kickStep %= (int)kickLength;
 1081              		.loc 18 122 15 view .LVU297
 1082 0040 93FBF0F1 		sdiv	r1, r3, r0
 1083              	.LBE564:
 1084              	.LBE566:
 1085              		.loc 18 132 9 view .LVU298
 1086 0044 A45C     		ldrb	r4, [r4, r2]	@ zero_extendqisi2
 1087              	.LBB567:
 1088              	.LBB565:
 122:EuclideanDrums.cpp ****     kickStep %= (int)kickLength;
 1089              		.loc 18 122 15 view .LVU299
 1090 0046 00FB1133 		mls	r3, r0, r1, r3
 123:EuclideanDrums.cpp **** }
 1091              		.loc 18 123 14 view .LVU300
 1092 004a 3270     		strb	r2, [r6]
 122:EuclideanDrums.cpp ****     kickStep %= (int)kickLength;
 1093              		.loc 18 122 15 view .LVU301
 1094 004c 2B70     		strb	r3, [r5]
 123:EuclideanDrums.cpp **** }
 1095              		.loc 18 123 5 is_stmt 1 view .LVU302
 1096              	.LBE565:
 1097              	.LBE567:
 1098              		.loc 18 132 9 view .LVU303
 1099 004e 34B1     		cbz	r4, .L31
 133:EuclideanDrums.cpp ****         {
 134:EuclideanDrums.cpp ****             kickVolEnv.Trigger();
 1100              		.loc 18 134 13 view .LVU304
 1101              	.LBB568:
 1102              	.LBI568:
  56:../../DaisySP/Source/Control/adenv.h ****     /** Sets the length of time (in seconds) for a specific segment. */
 1103              		.loc 1 56 17 view .LVU305
 1104              	.LVL41:
 1105              	.LBB569:
  56:../../DaisySP/Source/Control/adenv.h ****     /** Sets the length of time (in seconds) for a specific segment. */
 1106              		.loc 1 56 29 view .LVU306
ARM GAS  /tmp/ccU9pGY3.s 			page 38


  56:../../DaisySP/Source/Control/adenv.h ****     /** Sets the length of time (in seconds) for a specific segment. */
 1107              		.loc 1 56 38 is_stmt 0 view .LVU307
 1108 0050 0122     		movs	r2, #1
 1109 0052 0D48     		ldr	r0, .L40+24
 1110              	.LBE569:
 1111              	.LBE568:
 1112              	.LBB571:
 1113              	.LBB572:
 1114 0054 0D49     		ldr	r1, .L40+28
 1115              	.LBE572:
 1116              	.LBE571:
 1117              	.LBB574:
 1118              	.LBB570:
 1119 0056 80F83420 		strb	r2, [r0, #52]
 1120              	.LBE570:
 1121              	.LBE574:
 135:EuclideanDrums.cpp ****             kickPitchEnv.Trigger();
 1122              		.loc 18 135 13 is_stmt 1 view .LVU308
 1123              	.LVL42:
 1124              	.LBB575:
 1125              	.LBI571:
  56:../../DaisySP/Source/Control/adenv.h ****     /** Sets the length of time (in seconds) for a specific segment. */
 1126              		.loc 1 56 17 view .LVU309
 1127              	.LBB573:
  56:../../DaisySP/Source/Control/adenv.h ****     /** Sets the length of time (in seconds) for a specific segment. */
 1128              		.loc 1 56 29 view .LVU310
  56:../../DaisySP/Source/Control/adenv.h ****     /** Sets the length of time (in seconds) for a specific segment. */
 1129              		.loc 1 56 38 is_stmt 0 view .LVU311
 1130 005a 81F83420 		strb	r2, [r1, #52]
 1131              	.LVL43:
 1132              	.L31:
  56:../../DaisySP/Source/Control/adenv.h ****     /** Sets the length of time (in seconds) for a specific segment. */
 1133              		.loc 1 56 38 view .LVU312
 1134              	.LBE573:
 1135              	.LBE575:
 136:EuclideanDrums.cpp ****         }
 137:EuclideanDrums.cpp **** 
 138:EuclideanDrums.cpp ****         if(snareSeq[snareStep])
 1136              		.loc 18 138 9 is_stmt 1 view .LVU313
 1137              		.loc 18 138 30 is_stmt 0 view .LVU314
 1138 005e 0C4A     		ldr	r2, .L40+32
 1139              		.loc 18 138 9 view .LVU315
 1140 0060 D35C     		ldrb	r3, [r2, r3]	@ zero_extendqisi2
 1141 0062 1BB1     		cbz	r3, .L28
 139:EuclideanDrums.cpp ****         {
 140:EuclideanDrums.cpp ****             snareEnv.Trigger();
 1142              		.loc 18 140 13 is_stmt 1 view .LVU316
 1143              	.LBB576:
 1144              	.LBI576:
  56:../../DaisySP/Source/Control/adenv.h ****     /** Sets the length of time (in seconds) for a specific segment. */
 1145              		.loc 1 56 17 view .LVU317
 1146              	.LVL44:
 1147              	.LBB577:
  56:../../DaisySP/Source/Control/adenv.h ****     /** Sets the length of time (in seconds) for a specific segment. */
 1148              		.loc 1 56 29 view .LVU318
  56:../../DaisySP/Source/Control/adenv.h ****     /** Sets the length of time (in seconds) for a specific segment. */
 1149              		.loc 1 56 38 is_stmt 0 view .LVU319
ARM GAS  /tmp/ccU9pGY3.s 			page 39


 1150 0064 0B4B     		ldr	r3, .L40+36
 1151 0066 0122     		movs	r2, #1
 1152 0068 83F83420 		strb	r2, [r3, #52]
 1153              	.LVL45:
 1154              	.L28:
  56:../../DaisySP/Source/Control/adenv.h ****     /** Sets the length of time (in seconds) for a specific segment. */
 1155              		.loc 1 56 38 view .LVU320
 1156              	.LBE577:
 1157              	.LBE576:
 1158              	.LBE561:
 1159              	.LBE560:
 141:EuclideanDrums.cpp ****         }
 142:EuclideanDrums.cpp ****     }
 143:EuclideanDrums.cpp **** }
 1160              		.loc 18 143 1 view .LVU321
 1161 006c 70BD     		pop	{r4, r5, r6, pc}
 1162              	.L41:
 1163 006e 00BF     		.align	2
 1164              	.L40:
 1165 0070 00000000 		.word	.LANCHOR5
 1166 0074 00000000 		.word	.LANCHOR12
 1167 0078 00000000 		.word	.LANCHOR9
 1168 007c 00000000 		.word	.LANCHOR11
 1169 0080 00000000 		.word	.LANCHOR10
 1170 0084 00000000 		.word	.LANCHOR8
 1171 0088 00000000 		.word	.LANCHOR4
 1172 008c 00000000 		.word	.LANCHOR3
 1173 0090 00000000 		.word	.LANCHOR7
 1174 0094 00000000 		.word	.LANCHOR2
 1175              		.cfi_endproc
 1176              	.LFE4224:
 1178              		.section	.text._Z8SetArrayPbif,"ax",%progbits
 1179              		.align	1
 1180              		.p2align 2,,3
 1181              		.global	_Z8SetArrayPbif
 1182              		.syntax unified
 1183              		.thumb
 1184              		.thumb_func
 1185              		.fpu fpv5-d16
 1187              	_Z8SetArrayPbif:
 1188              	.LVL46:
 1189              	.LFB4225:
 144:EuclideanDrums.cpp **** 
 145:EuclideanDrums.cpp **** void SetArray(bool* seq, int arrayLen, float density)
 146:EuclideanDrums.cpp **** {
 1190              		.loc 18 146 1 is_stmt 1 view -0
 1191              		.cfi_startproc
 1192              		@ args = 0, pretend = 0, frame = 0
 1193              		@ frame_needed = 1, uses_anonymous_args = 0
 1194              		.loc 18 146 1 is_stmt 0 view .LVU323
 1195 0000 00F1FF3C 		add	ip, r0, #-1
 1196 0004 2DE9F843 		push	{r3, r4, r5, r6, r7, r8, r9, lr}
 1197              		.cfi_def_cfa_offset 32
 1198              		.cfi_offset 3, -32
 1199              		.cfi_offset 4, -28
 1200              		.cfi_offset 5, -24
 1201              		.cfi_offset 6, -20
ARM GAS  /tmp/ccU9pGY3.s 			page 40


 1202              		.cfi_offset 7, -16
 1203              		.cfi_offset 8, -12
 1204              		.cfi_offset 9, -8
 1205              		.cfi_offset 14, -4
 1206 0008 00F11F04 		add	r4, r0, #31
 1207 000c 00AF     		add	r7, sp, #0
 1208              		.cfi_def_cfa_register 7
 147:EuclideanDrums.cpp ****     SetSeq(seq, 0);
 148:EuclideanDrums.cpp **** 
 149:EuclideanDrums.cpp ****     int ones  = (int)round(arrayLen * density);
 150:EuclideanDrums.cpp ****     int zeros = arrayLen - ones;
 151:EuclideanDrums.cpp **** 
 152:EuclideanDrums.cpp ****     if(ones == 0)
 153:EuclideanDrums.cpp ****         return;
 154:EuclideanDrums.cpp **** 
 155:EuclideanDrums.cpp ****     if(zeros == 0)
 156:EuclideanDrums.cpp ****     {
 157:EuclideanDrums.cpp ****         SetSeq(seq, 1);
 158:EuclideanDrums.cpp ****         return;
 159:EuclideanDrums.cpp ****     }
 160:EuclideanDrums.cpp **** 
 161:EuclideanDrums.cpp ****     int oneArr[ones];
 162:EuclideanDrums.cpp ****     int zeroArr[ones];
 163:EuclideanDrums.cpp **** 
 164:EuclideanDrums.cpp ****     for(int i = 0; i < ones; i++)
 165:EuclideanDrums.cpp ****     {
 166:EuclideanDrums.cpp ****         oneArr[i] = zeroArr[i] = 0;
 167:EuclideanDrums.cpp ****     }
 168:EuclideanDrums.cpp **** 
 169:EuclideanDrums.cpp ****     //how many zeroes per each one
 170:EuclideanDrums.cpp ****     int idx = 0;
 171:EuclideanDrums.cpp ****     for(int i = 0; i < zeros; i++)
 172:EuclideanDrums.cpp ****     {
 173:EuclideanDrums.cpp ****         zeroArr[idx] += 1;
 174:EuclideanDrums.cpp ****         idx++;
 175:EuclideanDrums.cpp ****         idx %= ones;
 176:EuclideanDrums.cpp ****     }
 177:EuclideanDrums.cpp **** 
 178:EuclideanDrums.cpp ****     //how many ones remain
 179:EuclideanDrums.cpp ****     int rem = 0;
 180:EuclideanDrums.cpp ****     for(int i = 0; i < ones; i++)
 181:EuclideanDrums.cpp ****     {
 182:EuclideanDrums.cpp ****         if(zeroArr[i] == 0)
 183:EuclideanDrums.cpp ****             rem++;
 184:EuclideanDrums.cpp ****     }
 185:EuclideanDrums.cpp **** 
 186:EuclideanDrums.cpp ****     //how many ones on each prior one
 187:EuclideanDrums.cpp ****     idx = 0;
 188:EuclideanDrums.cpp ****     for(int i = 0; i < rem; i++)
 189:EuclideanDrums.cpp ****     {
 190:EuclideanDrums.cpp ****         oneArr[idx] += 1;
 191:EuclideanDrums.cpp ****         idx++;
 192:EuclideanDrums.cpp ****         idx %= ones - rem;
 193:EuclideanDrums.cpp ****     }
 194:EuclideanDrums.cpp **** 
 195:EuclideanDrums.cpp ****     //fill the global seq
 196:EuclideanDrums.cpp ****     idx = 0;
ARM GAS  /tmp/ccU9pGY3.s 			page 41


 197:EuclideanDrums.cpp ****     for(int i = 0; i < (ones - rem); i++)
 198:EuclideanDrums.cpp ****     {
 199:EuclideanDrums.cpp ****         seq[idx] = 1;
 200:EuclideanDrums.cpp ****         idx++;
 201:EuclideanDrums.cpp **** 
 202:EuclideanDrums.cpp ****         for(int j = 0; j < zeroArr[i]; j++)
 203:EuclideanDrums.cpp ****         {
 204:EuclideanDrums.cpp ****             seq[idx] = 0;
 205:EuclideanDrums.cpp ****             idx++;
 206:EuclideanDrums.cpp ****         }
 207:EuclideanDrums.cpp **** 
 208:EuclideanDrums.cpp ****         for(int j = 0; j < oneArr[i]; j++)
 209:EuclideanDrums.cpp ****         {
 210:EuclideanDrums.cpp ****             seq[idx] = 1;
 211:EuclideanDrums.cpp ****             idx++;
 212:EuclideanDrums.cpp ****         }
 213:EuclideanDrums.cpp ****     }
 1209              		.loc 18 213 5 view .LVU324
 1210 000e 6E46     		mov	r6, sp
 147:EuclideanDrums.cpp ****     SetSeq(seq, 0);
 1211              		.loc 18 147 5 is_stmt 1 view .LVU325
 1212              	.LVL47:
 1213              	.LBB578:
 1214              	.LBI578:
  84:EuclideanDrums.cpp **** {
 1215              		.loc 18 84 6 view .LVU326
 1216              	.LBE578:
  86:EuclideanDrums.cpp ****     {
 1217              		.loc 18 86 5 view .LVU327
 1218              	.LBB581:
 1219              	.LBB579:
  86:EuclideanDrums.cpp ****     {
 1220              		.loc 18 86 27 view .LVU328
 1221              	.LBE579:
 1222              	.LBE581:
 1223              		.loc 18 213 5 is_stmt 0 view .LVU329
 1224 0010 6346     		mov	r3, ip
 1225              	.LVL48:
 1226              	.L43:
 1227              	.LBB582:
 1228              	.LBB580:
  88:EuclideanDrums.cpp ****     }
 1229              		.loc 18 88 9 is_stmt 1 view .LVU330
  88:EuclideanDrums.cpp ****     }
 1230              		.loc 18 88 16 is_stmt 0 view .LVU331
 1231 0012 0022     		movs	r2, #0
 1232 0014 03F8012F 		strb	r2, [r3, #1]!
 1233              	.LVL49:
  86:EuclideanDrums.cpp ****     {
 1234              		.loc 18 86 5 is_stmt 1 view .LVU332
  86:EuclideanDrums.cpp ****     {
 1235              		.loc 18 86 27 view .LVU333
 1236 0018 A342     		cmp	r3, r4
 1237 001a FAD1     		bne	.L43
 1238              	.LVL50:
  86:EuclideanDrums.cpp ****     {
 1239              		.loc 18 86 27 is_stmt 0 view .LVU334
ARM GAS  /tmp/ccU9pGY3.s 			page 42


 1240              	.LBE580:
 1241              	.LBE582:
 149:EuclideanDrums.cpp ****     int zeros = arrayLen - ones;
 1242              		.loc 18 149 5 is_stmt 1 view .LVU335
 1243              	.LBB583:
 1244              	.LBI583:
 1245              		.file 19 "/usr/include/newlib/c++/9.2.1/cmath"
   1:/usr/include/newlib/c++/9.2.1/cmath **** // -*- C++ -*- C forwarding header.
   2:/usr/include/newlib/c++/9.2.1/cmath **** 
   3:/usr/include/newlib/c++/9.2.1/cmath **** // Copyright (C) 1997-2019 Free Software Foundation, Inc.
   4:/usr/include/newlib/c++/9.2.1/cmath **** //
   5:/usr/include/newlib/c++/9.2.1/cmath **** // This file is part of the GNU ISO C++ Library.  This library is free
   6:/usr/include/newlib/c++/9.2.1/cmath **** // software; you can redistribute it and/or modify it under the
   7:/usr/include/newlib/c++/9.2.1/cmath **** // terms of the GNU General Public License as published by the
   8:/usr/include/newlib/c++/9.2.1/cmath **** // Free Software Foundation; either version 3, or (at your option)
   9:/usr/include/newlib/c++/9.2.1/cmath **** // any later version.
  10:/usr/include/newlib/c++/9.2.1/cmath **** 
  11:/usr/include/newlib/c++/9.2.1/cmath **** // This library is distributed in the hope that it will be useful,
  12:/usr/include/newlib/c++/9.2.1/cmath **** // but WITHOUT ANY WARRANTY; without even the implied warranty of
  13:/usr/include/newlib/c++/9.2.1/cmath **** // MERCHANTABILITY or FITNESS FOR A PARTICULAR PURPOSE.  See the
  14:/usr/include/newlib/c++/9.2.1/cmath **** // GNU General Public License for more details.
  15:/usr/include/newlib/c++/9.2.1/cmath **** 
  16:/usr/include/newlib/c++/9.2.1/cmath **** // Under Section 7 of GPL version 3, you are granted additional
  17:/usr/include/newlib/c++/9.2.1/cmath **** // permissions described in the GCC Runtime Library Exception, version
  18:/usr/include/newlib/c++/9.2.1/cmath **** // 3.1, as published by the Free Software Foundation.
  19:/usr/include/newlib/c++/9.2.1/cmath **** 
  20:/usr/include/newlib/c++/9.2.1/cmath **** // You should have received a copy of the GNU General Public License and
  21:/usr/include/newlib/c++/9.2.1/cmath **** // a copy of the GCC Runtime Library Exception along with this program;
  22:/usr/include/newlib/c++/9.2.1/cmath **** // see the files COPYING3 and COPYING.RUNTIME respectively.  If not, see
  23:/usr/include/newlib/c++/9.2.1/cmath **** // <http://www.gnu.org/licenses/>.
  24:/usr/include/newlib/c++/9.2.1/cmath **** 
  25:/usr/include/newlib/c++/9.2.1/cmath **** /** @file include/cmath
  26:/usr/include/newlib/c++/9.2.1/cmath ****  *  This is a Standard C++ Library file.  You should @c \#include this file
  27:/usr/include/newlib/c++/9.2.1/cmath ****  *  in your programs, rather than any of the @a *.h implementation files.
  28:/usr/include/newlib/c++/9.2.1/cmath ****  *
  29:/usr/include/newlib/c++/9.2.1/cmath ****  *  This is the C++ version of the Standard C Library header @c math.h,
  30:/usr/include/newlib/c++/9.2.1/cmath ****  *  and its contents are (mostly) the same as that header, but are all
  31:/usr/include/newlib/c++/9.2.1/cmath ****  *  contained in the namespace @c std (except for names which are defined
  32:/usr/include/newlib/c++/9.2.1/cmath ****  *  as macros in C).
  33:/usr/include/newlib/c++/9.2.1/cmath ****  */
  34:/usr/include/newlib/c++/9.2.1/cmath **** 
  35:/usr/include/newlib/c++/9.2.1/cmath **** //
  36:/usr/include/newlib/c++/9.2.1/cmath **** // ISO C++ 14882: 26.5  C library
  37:/usr/include/newlib/c++/9.2.1/cmath **** //
  38:/usr/include/newlib/c++/9.2.1/cmath **** 
  39:/usr/include/newlib/c++/9.2.1/cmath **** #pragma GCC system_header
  40:/usr/include/newlib/c++/9.2.1/cmath **** 
  41:/usr/include/newlib/c++/9.2.1/cmath **** #include <bits/c++config.h>
  42:/usr/include/newlib/c++/9.2.1/cmath **** #include <bits/cpp_type_traits.h>
  43:/usr/include/newlib/c++/9.2.1/cmath **** #include <ext/type_traits.h>
  44:/usr/include/newlib/c++/9.2.1/cmath **** #define _GLIBCXX_INCLUDE_NEXT_C_HEADERS
  45:/usr/include/newlib/c++/9.2.1/cmath **** #include_next <math.h>
  46:/usr/include/newlib/c++/9.2.1/cmath **** #undef _GLIBCXX_INCLUDE_NEXT_C_HEADERS
  47:/usr/include/newlib/c++/9.2.1/cmath **** #include <bits/std_abs.h>
  48:/usr/include/newlib/c++/9.2.1/cmath **** 
  49:/usr/include/newlib/c++/9.2.1/cmath **** #ifndef _GLIBCXX_CMATH
  50:/usr/include/newlib/c++/9.2.1/cmath **** #define _GLIBCXX_CMATH 1
ARM GAS  /tmp/ccU9pGY3.s 			page 43


  51:/usr/include/newlib/c++/9.2.1/cmath **** 
  52:/usr/include/newlib/c++/9.2.1/cmath **** // Get rid of those macros defined in <math.h> in lieu of real functions.
  53:/usr/include/newlib/c++/9.2.1/cmath **** #undef div
  54:/usr/include/newlib/c++/9.2.1/cmath **** #undef acos
  55:/usr/include/newlib/c++/9.2.1/cmath **** #undef asin
  56:/usr/include/newlib/c++/9.2.1/cmath **** #undef atan
  57:/usr/include/newlib/c++/9.2.1/cmath **** #undef atan2
  58:/usr/include/newlib/c++/9.2.1/cmath **** #undef ceil
  59:/usr/include/newlib/c++/9.2.1/cmath **** #undef cos
  60:/usr/include/newlib/c++/9.2.1/cmath **** #undef cosh
  61:/usr/include/newlib/c++/9.2.1/cmath **** #undef exp
  62:/usr/include/newlib/c++/9.2.1/cmath **** #undef fabs
  63:/usr/include/newlib/c++/9.2.1/cmath **** #undef floor
  64:/usr/include/newlib/c++/9.2.1/cmath **** #undef fmod
  65:/usr/include/newlib/c++/9.2.1/cmath **** #undef frexp
  66:/usr/include/newlib/c++/9.2.1/cmath **** #undef ldexp
  67:/usr/include/newlib/c++/9.2.1/cmath **** #undef log
  68:/usr/include/newlib/c++/9.2.1/cmath **** #undef log10
  69:/usr/include/newlib/c++/9.2.1/cmath **** #undef modf
  70:/usr/include/newlib/c++/9.2.1/cmath **** #undef pow
  71:/usr/include/newlib/c++/9.2.1/cmath **** #undef sin
  72:/usr/include/newlib/c++/9.2.1/cmath **** #undef sinh
  73:/usr/include/newlib/c++/9.2.1/cmath **** #undef sqrt
  74:/usr/include/newlib/c++/9.2.1/cmath **** #undef tan
  75:/usr/include/newlib/c++/9.2.1/cmath **** #undef tanh
  76:/usr/include/newlib/c++/9.2.1/cmath **** 
  77:/usr/include/newlib/c++/9.2.1/cmath **** extern "C++"
  78:/usr/include/newlib/c++/9.2.1/cmath **** {
  79:/usr/include/newlib/c++/9.2.1/cmath **** namespace std _GLIBCXX_VISIBILITY(default)
  80:/usr/include/newlib/c++/9.2.1/cmath **** {
  81:/usr/include/newlib/c++/9.2.1/cmath **** _GLIBCXX_BEGIN_NAMESPACE_VERSION
  82:/usr/include/newlib/c++/9.2.1/cmath **** 
  83:/usr/include/newlib/c++/9.2.1/cmath ****   using ::acos;
  84:/usr/include/newlib/c++/9.2.1/cmath **** 
  85:/usr/include/newlib/c++/9.2.1/cmath **** #ifndef __CORRECT_ISO_CPP_MATH_H_PROTO
  86:/usr/include/newlib/c++/9.2.1/cmath ****   inline _GLIBCXX_CONSTEXPR float
  87:/usr/include/newlib/c++/9.2.1/cmath ****   acos(float __x)
  88:/usr/include/newlib/c++/9.2.1/cmath ****   { return __builtin_acosf(__x); }
  89:/usr/include/newlib/c++/9.2.1/cmath **** 
  90:/usr/include/newlib/c++/9.2.1/cmath ****   inline _GLIBCXX_CONSTEXPR long double
  91:/usr/include/newlib/c++/9.2.1/cmath ****   acos(long double __x)
  92:/usr/include/newlib/c++/9.2.1/cmath ****   { return __builtin_acosl(__x); }
  93:/usr/include/newlib/c++/9.2.1/cmath **** #endif
  94:/usr/include/newlib/c++/9.2.1/cmath **** 
  95:/usr/include/newlib/c++/9.2.1/cmath ****   template<typename _Tp>
  96:/usr/include/newlib/c++/9.2.1/cmath ****     inline _GLIBCXX_CONSTEXPR
  97:/usr/include/newlib/c++/9.2.1/cmath ****     typename __gnu_cxx::__enable_if<__is_integer<_Tp>::__value, 
  98:/usr/include/newlib/c++/9.2.1/cmath ****                                     double>::__type
  99:/usr/include/newlib/c++/9.2.1/cmath ****     acos(_Tp __x)
 100:/usr/include/newlib/c++/9.2.1/cmath ****     { return __builtin_acos(__x); }
 101:/usr/include/newlib/c++/9.2.1/cmath **** 
 102:/usr/include/newlib/c++/9.2.1/cmath ****   using ::asin;
 103:/usr/include/newlib/c++/9.2.1/cmath **** 
 104:/usr/include/newlib/c++/9.2.1/cmath **** #ifndef __CORRECT_ISO_CPP_MATH_H_PROTO
 105:/usr/include/newlib/c++/9.2.1/cmath ****   inline _GLIBCXX_CONSTEXPR float
 106:/usr/include/newlib/c++/9.2.1/cmath ****   asin(float __x)
 107:/usr/include/newlib/c++/9.2.1/cmath ****   { return __builtin_asinf(__x); }
ARM GAS  /tmp/ccU9pGY3.s 			page 44


 108:/usr/include/newlib/c++/9.2.1/cmath **** 
 109:/usr/include/newlib/c++/9.2.1/cmath ****   inline _GLIBCXX_CONSTEXPR long double
 110:/usr/include/newlib/c++/9.2.1/cmath ****   asin(long double __x)
 111:/usr/include/newlib/c++/9.2.1/cmath ****   { return __builtin_asinl(__x); }
 112:/usr/include/newlib/c++/9.2.1/cmath **** #endif
 113:/usr/include/newlib/c++/9.2.1/cmath **** 
 114:/usr/include/newlib/c++/9.2.1/cmath ****   template<typename _Tp>
 115:/usr/include/newlib/c++/9.2.1/cmath ****     inline _GLIBCXX_CONSTEXPR
 116:/usr/include/newlib/c++/9.2.1/cmath ****     typename __gnu_cxx::__enable_if<__is_integer<_Tp>::__value,
 117:/usr/include/newlib/c++/9.2.1/cmath ****                                     double>::__type
 118:/usr/include/newlib/c++/9.2.1/cmath ****     asin(_Tp __x)
 119:/usr/include/newlib/c++/9.2.1/cmath ****     { return __builtin_asin(__x); }
 120:/usr/include/newlib/c++/9.2.1/cmath **** 
 121:/usr/include/newlib/c++/9.2.1/cmath ****   using ::atan;
 122:/usr/include/newlib/c++/9.2.1/cmath **** 
 123:/usr/include/newlib/c++/9.2.1/cmath **** #ifndef __CORRECT_ISO_CPP_MATH_H_PROTO
 124:/usr/include/newlib/c++/9.2.1/cmath ****   inline _GLIBCXX_CONSTEXPR float
 125:/usr/include/newlib/c++/9.2.1/cmath ****   atan(float __x)
 126:/usr/include/newlib/c++/9.2.1/cmath ****   { return __builtin_atanf(__x); }
 127:/usr/include/newlib/c++/9.2.1/cmath **** 
 128:/usr/include/newlib/c++/9.2.1/cmath ****   inline _GLIBCXX_CONSTEXPR long double
 129:/usr/include/newlib/c++/9.2.1/cmath ****   atan(long double __x)
 130:/usr/include/newlib/c++/9.2.1/cmath ****   { return __builtin_atanl(__x); }
 131:/usr/include/newlib/c++/9.2.1/cmath **** #endif
 132:/usr/include/newlib/c++/9.2.1/cmath **** 
 133:/usr/include/newlib/c++/9.2.1/cmath ****   template<typename _Tp>
 134:/usr/include/newlib/c++/9.2.1/cmath ****     inline _GLIBCXX_CONSTEXPR
 135:/usr/include/newlib/c++/9.2.1/cmath ****     typename __gnu_cxx::__enable_if<__is_integer<_Tp>::__value,
 136:/usr/include/newlib/c++/9.2.1/cmath ****                                     double>::__type
 137:/usr/include/newlib/c++/9.2.1/cmath ****     atan(_Tp __x)
 138:/usr/include/newlib/c++/9.2.1/cmath ****     { return __builtin_atan(__x); }
 139:/usr/include/newlib/c++/9.2.1/cmath **** 
 140:/usr/include/newlib/c++/9.2.1/cmath ****   using ::atan2;
 141:/usr/include/newlib/c++/9.2.1/cmath **** 
 142:/usr/include/newlib/c++/9.2.1/cmath **** #ifndef __CORRECT_ISO_CPP_MATH_H_PROTO
 143:/usr/include/newlib/c++/9.2.1/cmath ****   inline _GLIBCXX_CONSTEXPR float
 144:/usr/include/newlib/c++/9.2.1/cmath ****   atan2(float __y, float __x)
 145:/usr/include/newlib/c++/9.2.1/cmath ****   { return __builtin_atan2f(__y, __x); }
 146:/usr/include/newlib/c++/9.2.1/cmath **** 
 147:/usr/include/newlib/c++/9.2.1/cmath ****   inline _GLIBCXX_CONSTEXPR long double
 148:/usr/include/newlib/c++/9.2.1/cmath ****   atan2(long double __y, long double __x)
 149:/usr/include/newlib/c++/9.2.1/cmath ****   { return __builtin_atan2l(__y, __x); }
 150:/usr/include/newlib/c++/9.2.1/cmath **** #endif
 151:/usr/include/newlib/c++/9.2.1/cmath **** 
 152:/usr/include/newlib/c++/9.2.1/cmath ****   template<typename _Tp, typename _Up>
 153:/usr/include/newlib/c++/9.2.1/cmath ****     inline _GLIBCXX_CONSTEXPR
 154:/usr/include/newlib/c++/9.2.1/cmath ****     typename __gnu_cxx::__promote_2<_Tp, _Up>::__type
 155:/usr/include/newlib/c++/9.2.1/cmath ****     atan2(_Tp __y, _Up __x)
 156:/usr/include/newlib/c++/9.2.1/cmath ****     {
 157:/usr/include/newlib/c++/9.2.1/cmath ****       typedef typename __gnu_cxx::__promote_2<_Tp, _Up>::__type __type;
 158:/usr/include/newlib/c++/9.2.1/cmath ****       return atan2(__type(__y), __type(__x));
 159:/usr/include/newlib/c++/9.2.1/cmath ****     }
 160:/usr/include/newlib/c++/9.2.1/cmath **** 
 161:/usr/include/newlib/c++/9.2.1/cmath ****   using ::ceil;
 162:/usr/include/newlib/c++/9.2.1/cmath **** 
 163:/usr/include/newlib/c++/9.2.1/cmath **** #ifndef __CORRECT_ISO_CPP_MATH_H_PROTO
 164:/usr/include/newlib/c++/9.2.1/cmath ****   inline _GLIBCXX_CONSTEXPR float
ARM GAS  /tmp/ccU9pGY3.s 			page 45


 165:/usr/include/newlib/c++/9.2.1/cmath ****   ceil(float __x)
 166:/usr/include/newlib/c++/9.2.1/cmath ****   { return __builtin_ceilf(__x); }
 167:/usr/include/newlib/c++/9.2.1/cmath **** 
 168:/usr/include/newlib/c++/9.2.1/cmath ****   inline _GLIBCXX_CONSTEXPR long double
 169:/usr/include/newlib/c++/9.2.1/cmath ****   ceil(long double __x)
 170:/usr/include/newlib/c++/9.2.1/cmath ****   { return __builtin_ceill(__x); }
 171:/usr/include/newlib/c++/9.2.1/cmath **** #endif
 172:/usr/include/newlib/c++/9.2.1/cmath **** 
 173:/usr/include/newlib/c++/9.2.1/cmath ****   template<typename _Tp>
 174:/usr/include/newlib/c++/9.2.1/cmath ****     inline _GLIBCXX_CONSTEXPR
 175:/usr/include/newlib/c++/9.2.1/cmath ****     typename __gnu_cxx::__enable_if<__is_integer<_Tp>::__value, 
 176:/usr/include/newlib/c++/9.2.1/cmath ****                                     double>::__type
 177:/usr/include/newlib/c++/9.2.1/cmath ****     ceil(_Tp __x)
 178:/usr/include/newlib/c++/9.2.1/cmath ****     { return __builtin_ceil(__x); }
 179:/usr/include/newlib/c++/9.2.1/cmath **** 
 180:/usr/include/newlib/c++/9.2.1/cmath ****   using ::cos;
 181:/usr/include/newlib/c++/9.2.1/cmath **** 
 182:/usr/include/newlib/c++/9.2.1/cmath **** #ifndef __CORRECT_ISO_CPP_MATH_H_PROTO
 183:/usr/include/newlib/c++/9.2.1/cmath ****   inline _GLIBCXX_CONSTEXPR float
 184:/usr/include/newlib/c++/9.2.1/cmath ****   cos(float __x)
 185:/usr/include/newlib/c++/9.2.1/cmath ****   { return __builtin_cosf(__x); }
 186:/usr/include/newlib/c++/9.2.1/cmath **** 
 187:/usr/include/newlib/c++/9.2.1/cmath ****   inline _GLIBCXX_CONSTEXPR long double
 188:/usr/include/newlib/c++/9.2.1/cmath ****   cos(long double __x)
 189:/usr/include/newlib/c++/9.2.1/cmath ****   { return __builtin_cosl(__x); }
 190:/usr/include/newlib/c++/9.2.1/cmath **** #endif
 191:/usr/include/newlib/c++/9.2.1/cmath **** 
 192:/usr/include/newlib/c++/9.2.1/cmath ****   template<typename _Tp>
 193:/usr/include/newlib/c++/9.2.1/cmath ****     inline _GLIBCXX_CONSTEXPR
 194:/usr/include/newlib/c++/9.2.1/cmath ****     typename __gnu_cxx::__enable_if<__is_integer<_Tp>::__value,
 195:/usr/include/newlib/c++/9.2.1/cmath ****                                     double>::__type
 196:/usr/include/newlib/c++/9.2.1/cmath ****     cos(_Tp __x)
 197:/usr/include/newlib/c++/9.2.1/cmath ****     { return __builtin_cos(__x); }
 198:/usr/include/newlib/c++/9.2.1/cmath **** 
 199:/usr/include/newlib/c++/9.2.1/cmath ****   using ::cosh;
 200:/usr/include/newlib/c++/9.2.1/cmath **** 
 201:/usr/include/newlib/c++/9.2.1/cmath **** #ifndef __CORRECT_ISO_CPP_MATH_H_PROTO
 202:/usr/include/newlib/c++/9.2.1/cmath ****   inline _GLIBCXX_CONSTEXPR float
 203:/usr/include/newlib/c++/9.2.1/cmath ****   cosh(float __x)
 204:/usr/include/newlib/c++/9.2.1/cmath ****   { return __builtin_coshf(__x); }
 205:/usr/include/newlib/c++/9.2.1/cmath **** 
 206:/usr/include/newlib/c++/9.2.1/cmath ****   inline _GLIBCXX_CONSTEXPR long double
 207:/usr/include/newlib/c++/9.2.1/cmath ****   cosh(long double __x)
 208:/usr/include/newlib/c++/9.2.1/cmath ****   { return __builtin_coshl(__x); }
 209:/usr/include/newlib/c++/9.2.1/cmath **** #endif
 210:/usr/include/newlib/c++/9.2.1/cmath **** 
 211:/usr/include/newlib/c++/9.2.1/cmath ****   template<typename _Tp>
 212:/usr/include/newlib/c++/9.2.1/cmath ****     inline _GLIBCXX_CONSTEXPR
 213:/usr/include/newlib/c++/9.2.1/cmath ****     typename __gnu_cxx::__enable_if<__is_integer<_Tp>::__value,
 214:/usr/include/newlib/c++/9.2.1/cmath ****                                     double>::__type
 215:/usr/include/newlib/c++/9.2.1/cmath ****     cosh(_Tp __x)
 216:/usr/include/newlib/c++/9.2.1/cmath ****     { return __builtin_cosh(__x); }
 217:/usr/include/newlib/c++/9.2.1/cmath **** 
 218:/usr/include/newlib/c++/9.2.1/cmath ****   using ::exp;
 219:/usr/include/newlib/c++/9.2.1/cmath **** 
 220:/usr/include/newlib/c++/9.2.1/cmath **** #ifndef __CORRECT_ISO_CPP_MATH_H_PROTO
 221:/usr/include/newlib/c++/9.2.1/cmath ****   inline _GLIBCXX_CONSTEXPR float
ARM GAS  /tmp/ccU9pGY3.s 			page 46


 222:/usr/include/newlib/c++/9.2.1/cmath ****   exp(float __x)
 223:/usr/include/newlib/c++/9.2.1/cmath ****   { return __builtin_expf(__x); }
 224:/usr/include/newlib/c++/9.2.1/cmath **** 
 225:/usr/include/newlib/c++/9.2.1/cmath ****   inline _GLIBCXX_CONSTEXPR long double
 226:/usr/include/newlib/c++/9.2.1/cmath ****   exp(long double __x)
 227:/usr/include/newlib/c++/9.2.1/cmath ****   { return __builtin_expl(__x); }
 228:/usr/include/newlib/c++/9.2.1/cmath **** #endif
 229:/usr/include/newlib/c++/9.2.1/cmath **** 
 230:/usr/include/newlib/c++/9.2.1/cmath ****   template<typename _Tp>
 231:/usr/include/newlib/c++/9.2.1/cmath ****     inline _GLIBCXX_CONSTEXPR
 232:/usr/include/newlib/c++/9.2.1/cmath ****     typename __gnu_cxx::__enable_if<__is_integer<_Tp>::__value,
 233:/usr/include/newlib/c++/9.2.1/cmath ****                                     double>::__type
 234:/usr/include/newlib/c++/9.2.1/cmath ****     exp(_Tp __x)
 235:/usr/include/newlib/c++/9.2.1/cmath ****     { return __builtin_exp(__x); }
 236:/usr/include/newlib/c++/9.2.1/cmath **** 
 237:/usr/include/newlib/c++/9.2.1/cmath ****   using ::fabs;
 238:/usr/include/newlib/c++/9.2.1/cmath **** 
 239:/usr/include/newlib/c++/9.2.1/cmath **** #ifndef __CORRECT_ISO_CPP_MATH_H_PROTO
 240:/usr/include/newlib/c++/9.2.1/cmath ****   inline _GLIBCXX_CONSTEXPR float
 241:/usr/include/newlib/c++/9.2.1/cmath ****   fabs(float __x)
 242:/usr/include/newlib/c++/9.2.1/cmath ****   { return __builtin_fabsf(__x); }
 243:/usr/include/newlib/c++/9.2.1/cmath **** 
 244:/usr/include/newlib/c++/9.2.1/cmath ****   inline _GLIBCXX_CONSTEXPR long double
 245:/usr/include/newlib/c++/9.2.1/cmath ****   fabs(long double __x)
 246:/usr/include/newlib/c++/9.2.1/cmath ****   { return __builtin_fabsl(__x); }
 247:/usr/include/newlib/c++/9.2.1/cmath **** #endif
 248:/usr/include/newlib/c++/9.2.1/cmath **** 
 249:/usr/include/newlib/c++/9.2.1/cmath ****   template<typename _Tp>
 250:/usr/include/newlib/c++/9.2.1/cmath ****     inline _GLIBCXX_CONSTEXPR
 251:/usr/include/newlib/c++/9.2.1/cmath ****     typename __gnu_cxx::__enable_if<__is_integer<_Tp>::__value,
 252:/usr/include/newlib/c++/9.2.1/cmath ****                                     double>::__type
 253:/usr/include/newlib/c++/9.2.1/cmath ****     fabs(_Tp __x)
 254:/usr/include/newlib/c++/9.2.1/cmath ****     { return __builtin_fabs(__x); }
 255:/usr/include/newlib/c++/9.2.1/cmath **** 
 256:/usr/include/newlib/c++/9.2.1/cmath ****   using ::floor;
 257:/usr/include/newlib/c++/9.2.1/cmath **** 
 258:/usr/include/newlib/c++/9.2.1/cmath **** #ifndef __CORRECT_ISO_CPP_MATH_H_PROTO
 259:/usr/include/newlib/c++/9.2.1/cmath ****   inline _GLIBCXX_CONSTEXPR float
 260:/usr/include/newlib/c++/9.2.1/cmath ****   floor(float __x)
 261:/usr/include/newlib/c++/9.2.1/cmath ****   { return __builtin_floorf(__x); }
 262:/usr/include/newlib/c++/9.2.1/cmath **** 
 263:/usr/include/newlib/c++/9.2.1/cmath ****   inline _GLIBCXX_CONSTEXPR long double
 264:/usr/include/newlib/c++/9.2.1/cmath ****   floor(long double __x)
 265:/usr/include/newlib/c++/9.2.1/cmath ****   { return __builtin_floorl(__x); }
 266:/usr/include/newlib/c++/9.2.1/cmath **** #endif
 267:/usr/include/newlib/c++/9.2.1/cmath **** 
 268:/usr/include/newlib/c++/9.2.1/cmath ****   template<typename _Tp>
 269:/usr/include/newlib/c++/9.2.1/cmath ****     inline _GLIBCXX_CONSTEXPR
 270:/usr/include/newlib/c++/9.2.1/cmath ****     typename __gnu_cxx::__enable_if<__is_integer<_Tp>::__value,
 271:/usr/include/newlib/c++/9.2.1/cmath ****                                     double>::__type
 272:/usr/include/newlib/c++/9.2.1/cmath ****     floor(_Tp __x)
 273:/usr/include/newlib/c++/9.2.1/cmath ****     { return __builtin_floor(__x); }
 274:/usr/include/newlib/c++/9.2.1/cmath **** 
 275:/usr/include/newlib/c++/9.2.1/cmath ****   using ::fmod;
 276:/usr/include/newlib/c++/9.2.1/cmath **** 
 277:/usr/include/newlib/c++/9.2.1/cmath **** #ifndef __CORRECT_ISO_CPP_MATH_H_PROTO
 278:/usr/include/newlib/c++/9.2.1/cmath ****   inline _GLIBCXX_CONSTEXPR float
ARM GAS  /tmp/ccU9pGY3.s 			page 47


 279:/usr/include/newlib/c++/9.2.1/cmath ****   fmod(float __x, float __y)
 280:/usr/include/newlib/c++/9.2.1/cmath ****   { return __builtin_fmodf(__x, __y); }
 281:/usr/include/newlib/c++/9.2.1/cmath **** 
 282:/usr/include/newlib/c++/9.2.1/cmath ****   inline _GLIBCXX_CONSTEXPR long double
 283:/usr/include/newlib/c++/9.2.1/cmath ****   fmod(long double __x, long double __y)
 284:/usr/include/newlib/c++/9.2.1/cmath ****   { return __builtin_fmodl(__x, __y); }
 285:/usr/include/newlib/c++/9.2.1/cmath **** #endif
 286:/usr/include/newlib/c++/9.2.1/cmath **** 
 287:/usr/include/newlib/c++/9.2.1/cmath ****   template<typename _Tp, typename _Up>
 288:/usr/include/newlib/c++/9.2.1/cmath ****     inline _GLIBCXX_CONSTEXPR
 289:/usr/include/newlib/c++/9.2.1/cmath ****     typename __gnu_cxx::__promote_2<_Tp, _Up>::__type
 290:/usr/include/newlib/c++/9.2.1/cmath ****     fmod(_Tp __x, _Up __y)
 291:/usr/include/newlib/c++/9.2.1/cmath ****     {
 292:/usr/include/newlib/c++/9.2.1/cmath ****       typedef typename __gnu_cxx::__promote_2<_Tp, _Up>::__type __type;
 293:/usr/include/newlib/c++/9.2.1/cmath ****       return fmod(__type(__x), __type(__y));
 294:/usr/include/newlib/c++/9.2.1/cmath ****     }
 295:/usr/include/newlib/c++/9.2.1/cmath **** 
 296:/usr/include/newlib/c++/9.2.1/cmath ****   using ::frexp;
 297:/usr/include/newlib/c++/9.2.1/cmath **** 
 298:/usr/include/newlib/c++/9.2.1/cmath **** #ifndef __CORRECT_ISO_CPP_MATH_H_PROTO
 299:/usr/include/newlib/c++/9.2.1/cmath ****   inline float
 300:/usr/include/newlib/c++/9.2.1/cmath ****   frexp(float __x, int* __exp)
 301:/usr/include/newlib/c++/9.2.1/cmath ****   { return __builtin_frexpf(__x, __exp); }
 302:/usr/include/newlib/c++/9.2.1/cmath **** 
 303:/usr/include/newlib/c++/9.2.1/cmath ****   inline long double
 304:/usr/include/newlib/c++/9.2.1/cmath ****   frexp(long double __x, int* __exp)
 305:/usr/include/newlib/c++/9.2.1/cmath ****   { return __builtin_frexpl(__x, __exp); }
 306:/usr/include/newlib/c++/9.2.1/cmath **** #endif
 307:/usr/include/newlib/c++/9.2.1/cmath **** 
 308:/usr/include/newlib/c++/9.2.1/cmath ****   template<typename _Tp>
 309:/usr/include/newlib/c++/9.2.1/cmath ****     inline _GLIBCXX_CONSTEXPR
 310:/usr/include/newlib/c++/9.2.1/cmath ****     typename __gnu_cxx::__enable_if<__is_integer<_Tp>::__value, 
 311:/usr/include/newlib/c++/9.2.1/cmath ****                                     double>::__type
 312:/usr/include/newlib/c++/9.2.1/cmath ****     frexp(_Tp __x, int* __exp)
 313:/usr/include/newlib/c++/9.2.1/cmath ****     { return __builtin_frexp(__x, __exp); }
 314:/usr/include/newlib/c++/9.2.1/cmath **** 
 315:/usr/include/newlib/c++/9.2.1/cmath ****   using ::ldexp;
 316:/usr/include/newlib/c++/9.2.1/cmath **** 
 317:/usr/include/newlib/c++/9.2.1/cmath **** #ifndef __CORRECT_ISO_CPP_MATH_H_PROTO
 318:/usr/include/newlib/c++/9.2.1/cmath ****   inline _GLIBCXX_CONSTEXPR float
 319:/usr/include/newlib/c++/9.2.1/cmath ****   ldexp(float __x, int __exp)
 320:/usr/include/newlib/c++/9.2.1/cmath ****   { return __builtin_ldexpf(__x, __exp); }
 321:/usr/include/newlib/c++/9.2.1/cmath **** 
 322:/usr/include/newlib/c++/9.2.1/cmath ****   inline _GLIBCXX_CONSTEXPR long double
 323:/usr/include/newlib/c++/9.2.1/cmath ****   ldexp(long double __x, int __exp)
 324:/usr/include/newlib/c++/9.2.1/cmath ****   { return __builtin_ldexpl(__x, __exp); }
 325:/usr/include/newlib/c++/9.2.1/cmath **** #endif
 326:/usr/include/newlib/c++/9.2.1/cmath **** 
 327:/usr/include/newlib/c++/9.2.1/cmath ****   template<typename _Tp>
 328:/usr/include/newlib/c++/9.2.1/cmath ****     inline _GLIBCXX_CONSTEXPR
 329:/usr/include/newlib/c++/9.2.1/cmath ****     typename __gnu_cxx::__enable_if<__is_integer<_Tp>::__value, 
 330:/usr/include/newlib/c++/9.2.1/cmath ****                                     double>::__type
 331:/usr/include/newlib/c++/9.2.1/cmath ****     ldexp(_Tp __x, int __exp)
 332:/usr/include/newlib/c++/9.2.1/cmath ****     { return __builtin_ldexp(__x, __exp); }
 333:/usr/include/newlib/c++/9.2.1/cmath **** 
 334:/usr/include/newlib/c++/9.2.1/cmath ****   using ::log;
 335:/usr/include/newlib/c++/9.2.1/cmath **** 
ARM GAS  /tmp/ccU9pGY3.s 			page 48


 336:/usr/include/newlib/c++/9.2.1/cmath **** #ifndef __CORRECT_ISO_CPP_MATH_H_PROTO
 337:/usr/include/newlib/c++/9.2.1/cmath ****   inline _GLIBCXX_CONSTEXPR float
 338:/usr/include/newlib/c++/9.2.1/cmath ****   log(float __x)
 339:/usr/include/newlib/c++/9.2.1/cmath ****   { return __builtin_logf(__x); }
 340:/usr/include/newlib/c++/9.2.1/cmath **** 
 341:/usr/include/newlib/c++/9.2.1/cmath ****   inline _GLIBCXX_CONSTEXPR long double
 342:/usr/include/newlib/c++/9.2.1/cmath ****   log(long double __x)
 343:/usr/include/newlib/c++/9.2.1/cmath ****   { return __builtin_logl(__x); }
 344:/usr/include/newlib/c++/9.2.1/cmath **** #endif
 345:/usr/include/newlib/c++/9.2.1/cmath **** 
 346:/usr/include/newlib/c++/9.2.1/cmath ****   template<typename _Tp>
 347:/usr/include/newlib/c++/9.2.1/cmath ****     inline _GLIBCXX_CONSTEXPR
 348:/usr/include/newlib/c++/9.2.1/cmath ****     typename __gnu_cxx::__enable_if<__is_integer<_Tp>::__value, 
 349:/usr/include/newlib/c++/9.2.1/cmath ****                                     double>::__type
 350:/usr/include/newlib/c++/9.2.1/cmath ****     log(_Tp __x)
 351:/usr/include/newlib/c++/9.2.1/cmath ****     { return __builtin_log(__x); }
 352:/usr/include/newlib/c++/9.2.1/cmath **** 
 353:/usr/include/newlib/c++/9.2.1/cmath ****   using ::log10;
 354:/usr/include/newlib/c++/9.2.1/cmath **** 
 355:/usr/include/newlib/c++/9.2.1/cmath **** #ifndef __CORRECT_ISO_CPP_MATH_H_PROTO
 356:/usr/include/newlib/c++/9.2.1/cmath ****   inline _GLIBCXX_CONSTEXPR float
 357:/usr/include/newlib/c++/9.2.1/cmath ****   log10(float __x)
 358:/usr/include/newlib/c++/9.2.1/cmath ****   { return __builtin_log10f(__x); }
 359:/usr/include/newlib/c++/9.2.1/cmath **** 
 360:/usr/include/newlib/c++/9.2.1/cmath ****   inline _GLIBCXX_CONSTEXPR long double
 361:/usr/include/newlib/c++/9.2.1/cmath ****   log10(long double __x)
 362:/usr/include/newlib/c++/9.2.1/cmath ****   { return __builtin_log10l(__x); }
 363:/usr/include/newlib/c++/9.2.1/cmath **** #endif
 364:/usr/include/newlib/c++/9.2.1/cmath **** 
 365:/usr/include/newlib/c++/9.2.1/cmath ****   template<typename _Tp>
 366:/usr/include/newlib/c++/9.2.1/cmath ****     inline _GLIBCXX_CONSTEXPR
 367:/usr/include/newlib/c++/9.2.1/cmath ****     typename __gnu_cxx::__enable_if<__is_integer<_Tp>::__value,
 368:/usr/include/newlib/c++/9.2.1/cmath ****                                     double>::__type
 369:/usr/include/newlib/c++/9.2.1/cmath ****     log10(_Tp __x)
 370:/usr/include/newlib/c++/9.2.1/cmath ****     { return __builtin_log10(__x); }
 371:/usr/include/newlib/c++/9.2.1/cmath **** 
 372:/usr/include/newlib/c++/9.2.1/cmath ****   using ::modf;
 373:/usr/include/newlib/c++/9.2.1/cmath **** 
 374:/usr/include/newlib/c++/9.2.1/cmath **** #ifndef __CORRECT_ISO_CPP_MATH_H_PROTO
 375:/usr/include/newlib/c++/9.2.1/cmath ****   inline float
 376:/usr/include/newlib/c++/9.2.1/cmath ****   modf(float __x, float* __iptr)
 377:/usr/include/newlib/c++/9.2.1/cmath ****   { return __builtin_modff(__x, __iptr); }
 378:/usr/include/newlib/c++/9.2.1/cmath **** 
 379:/usr/include/newlib/c++/9.2.1/cmath ****   inline long double
 380:/usr/include/newlib/c++/9.2.1/cmath ****   modf(long double __x, long double* __iptr)
 381:/usr/include/newlib/c++/9.2.1/cmath ****   { return __builtin_modfl(__x, __iptr); }
 382:/usr/include/newlib/c++/9.2.1/cmath **** #endif
 383:/usr/include/newlib/c++/9.2.1/cmath **** 
 384:/usr/include/newlib/c++/9.2.1/cmath ****   using ::pow;
 385:/usr/include/newlib/c++/9.2.1/cmath **** 
 386:/usr/include/newlib/c++/9.2.1/cmath **** #ifndef __CORRECT_ISO_CPP_MATH_H_PROTO
 387:/usr/include/newlib/c++/9.2.1/cmath ****   inline _GLIBCXX_CONSTEXPR float
 388:/usr/include/newlib/c++/9.2.1/cmath ****   pow(float __x, float __y)
 389:/usr/include/newlib/c++/9.2.1/cmath ****   { return __builtin_powf(__x, __y); }
 390:/usr/include/newlib/c++/9.2.1/cmath **** 
 391:/usr/include/newlib/c++/9.2.1/cmath ****   inline _GLIBCXX_CONSTEXPR long double
 392:/usr/include/newlib/c++/9.2.1/cmath ****   pow(long double __x, long double __y)
ARM GAS  /tmp/ccU9pGY3.s 			page 49


 393:/usr/include/newlib/c++/9.2.1/cmath ****   { return __builtin_powl(__x, __y); }
 394:/usr/include/newlib/c++/9.2.1/cmath **** 
 395:/usr/include/newlib/c++/9.2.1/cmath **** #if __cplusplus < 201103L
 396:/usr/include/newlib/c++/9.2.1/cmath ****   // _GLIBCXX_RESOLVE_LIB_DEFECTS
 397:/usr/include/newlib/c++/9.2.1/cmath ****   // DR 550. What should the return type of pow(float,int) be?
 398:/usr/include/newlib/c++/9.2.1/cmath ****   inline double
 399:/usr/include/newlib/c++/9.2.1/cmath ****   pow(double __x, int __i)
 400:/usr/include/newlib/c++/9.2.1/cmath ****   { return __builtin_powi(__x, __i); }
 401:/usr/include/newlib/c++/9.2.1/cmath **** 
 402:/usr/include/newlib/c++/9.2.1/cmath ****   inline float
 403:/usr/include/newlib/c++/9.2.1/cmath ****   pow(float __x, int __n)
 404:/usr/include/newlib/c++/9.2.1/cmath ****   { return __builtin_powif(__x, __n); }
 405:/usr/include/newlib/c++/9.2.1/cmath **** 
 406:/usr/include/newlib/c++/9.2.1/cmath ****   inline long double
 407:/usr/include/newlib/c++/9.2.1/cmath ****   pow(long double __x, int __n)
 408:/usr/include/newlib/c++/9.2.1/cmath ****   { return __builtin_powil(__x, __n); }
 409:/usr/include/newlib/c++/9.2.1/cmath **** #endif
 410:/usr/include/newlib/c++/9.2.1/cmath **** #endif
 411:/usr/include/newlib/c++/9.2.1/cmath **** 
 412:/usr/include/newlib/c++/9.2.1/cmath ****   template<typename _Tp, typename _Up>
 413:/usr/include/newlib/c++/9.2.1/cmath ****     inline _GLIBCXX_CONSTEXPR
 414:/usr/include/newlib/c++/9.2.1/cmath ****     typename __gnu_cxx::__promote_2<_Tp, _Up>::__type
 415:/usr/include/newlib/c++/9.2.1/cmath ****     pow(_Tp __x, _Up __y)
 416:/usr/include/newlib/c++/9.2.1/cmath ****     {
 417:/usr/include/newlib/c++/9.2.1/cmath ****       typedef typename __gnu_cxx::__promote_2<_Tp, _Up>::__type __type;
 418:/usr/include/newlib/c++/9.2.1/cmath ****       return pow(__type(__x), __type(__y));
 419:/usr/include/newlib/c++/9.2.1/cmath ****     }
 420:/usr/include/newlib/c++/9.2.1/cmath **** 
 421:/usr/include/newlib/c++/9.2.1/cmath ****   using ::sin;
 422:/usr/include/newlib/c++/9.2.1/cmath **** 
 423:/usr/include/newlib/c++/9.2.1/cmath **** #ifndef __CORRECT_ISO_CPP_MATH_H_PROTO
 424:/usr/include/newlib/c++/9.2.1/cmath ****   inline _GLIBCXX_CONSTEXPR float
 425:/usr/include/newlib/c++/9.2.1/cmath ****   sin(float __x)
 426:/usr/include/newlib/c++/9.2.1/cmath ****   { return __builtin_sinf(__x); }
 427:/usr/include/newlib/c++/9.2.1/cmath **** 
 428:/usr/include/newlib/c++/9.2.1/cmath ****   inline _GLIBCXX_CONSTEXPR long double
 429:/usr/include/newlib/c++/9.2.1/cmath ****   sin(long double __x)
 430:/usr/include/newlib/c++/9.2.1/cmath ****   { return __builtin_sinl(__x); }
 431:/usr/include/newlib/c++/9.2.1/cmath **** #endif
 432:/usr/include/newlib/c++/9.2.1/cmath **** 
 433:/usr/include/newlib/c++/9.2.1/cmath ****   template<typename _Tp>
 434:/usr/include/newlib/c++/9.2.1/cmath ****     inline _GLIBCXX_CONSTEXPR
 435:/usr/include/newlib/c++/9.2.1/cmath ****     typename __gnu_cxx::__enable_if<__is_integer<_Tp>::__value, 
 436:/usr/include/newlib/c++/9.2.1/cmath ****                                     double>::__type
 437:/usr/include/newlib/c++/9.2.1/cmath ****     sin(_Tp __x)
 438:/usr/include/newlib/c++/9.2.1/cmath ****     { return __builtin_sin(__x); }
 439:/usr/include/newlib/c++/9.2.1/cmath **** 
 440:/usr/include/newlib/c++/9.2.1/cmath ****   using ::sinh;
 441:/usr/include/newlib/c++/9.2.1/cmath **** 
 442:/usr/include/newlib/c++/9.2.1/cmath **** #ifndef __CORRECT_ISO_CPP_MATH_H_PROTO
 443:/usr/include/newlib/c++/9.2.1/cmath ****   inline _GLIBCXX_CONSTEXPR float
 444:/usr/include/newlib/c++/9.2.1/cmath ****   sinh(float __x)
 445:/usr/include/newlib/c++/9.2.1/cmath ****   { return __builtin_sinhf(__x); }
 446:/usr/include/newlib/c++/9.2.1/cmath **** 
 447:/usr/include/newlib/c++/9.2.1/cmath ****   inline _GLIBCXX_CONSTEXPR long double
 448:/usr/include/newlib/c++/9.2.1/cmath ****   sinh(long double __x)
 449:/usr/include/newlib/c++/9.2.1/cmath ****   { return __builtin_sinhl(__x); }
ARM GAS  /tmp/ccU9pGY3.s 			page 50


 450:/usr/include/newlib/c++/9.2.1/cmath **** #endif
 451:/usr/include/newlib/c++/9.2.1/cmath **** 
 452:/usr/include/newlib/c++/9.2.1/cmath ****   template<typename _Tp>
 453:/usr/include/newlib/c++/9.2.1/cmath ****     inline _GLIBCXX_CONSTEXPR
 454:/usr/include/newlib/c++/9.2.1/cmath ****     typename __gnu_cxx::__enable_if<__is_integer<_Tp>::__value, 
 455:/usr/include/newlib/c++/9.2.1/cmath ****                                     double>::__type
 456:/usr/include/newlib/c++/9.2.1/cmath ****     sinh(_Tp __x)
 457:/usr/include/newlib/c++/9.2.1/cmath ****     { return __builtin_sinh(__x); }
 458:/usr/include/newlib/c++/9.2.1/cmath **** 
 459:/usr/include/newlib/c++/9.2.1/cmath ****   using ::sqrt;
 460:/usr/include/newlib/c++/9.2.1/cmath **** 
 461:/usr/include/newlib/c++/9.2.1/cmath **** #ifndef __CORRECT_ISO_CPP_MATH_H_PROTO
 462:/usr/include/newlib/c++/9.2.1/cmath ****   inline _GLIBCXX_CONSTEXPR float
 463:/usr/include/newlib/c++/9.2.1/cmath ****   sqrt(float __x)
 464:/usr/include/newlib/c++/9.2.1/cmath ****   { return __builtin_sqrtf(__x); }
 465:/usr/include/newlib/c++/9.2.1/cmath **** 
 466:/usr/include/newlib/c++/9.2.1/cmath ****   inline _GLIBCXX_CONSTEXPR long double
 467:/usr/include/newlib/c++/9.2.1/cmath ****   sqrt(long double __x)
 468:/usr/include/newlib/c++/9.2.1/cmath ****   { return __builtin_sqrtl(__x); }
 469:/usr/include/newlib/c++/9.2.1/cmath **** #endif
 470:/usr/include/newlib/c++/9.2.1/cmath **** 
 471:/usr/include/newlib/c++/9.2.1/cmath ****   template<typename _Tp>
 472:/usr/include/newlib/c++/9.2.1/cmath ****     inline _GLIBCXX_CONSTEXPR
 473:/usr/include/newlib/c++/9.2.1/cmath ****     typename __gnu_cxx::__enable_if<__is_integer<_Tp>::__value, 
 474:/usr/include/newlib/c++/9.2.1/cmath ****                                     double>::__type
 475:/usr/include/newlib/c++/9.2.1/cmath ****     sqrt(_Tp __x)
 476:/usr/include/newlib/c++/9.2.1/cmath ****     { return __builtin_sqrt(__x); }
 477:/usr/include/newlib/c++/9.2.1/cmath **** 
 478:/usr/include/newlib/c++/9.2.1/cmath ****   using ::tan;
 479:/usr/include/newlib/c++/9.2.1/cmath **** 
 480:/usr/include/newlib/c++/9.2.1/cmath **** #ifndef __CORRECT_ISO_CPP_MATH_H_PROTO
 481:/usr/include/newlib/c++/9.2.1/cmath ****   inline _GLIBCXX_CONSTEXPR float
 482:/usr/include/newlib/c++/9.2.1/cmath ****   tan(float __x)
 483:/usr/include/newlib/c++/9.2.1/cmath ****   { return __builtin_tanf(__x); }
 484:/usr/include/newlib/c++/9.2.1/cmath **** 
 485:/usr/include/newlib/c++/9.2.1/cmath ****   inline _GLIBCXX_CONSTEXPR long double
 486:/usr/include/newlib/c++/9.2.1/cmath ****   tan(long double __x)
 487:/usr/include/newlib/c++/9.2.1/cmath ****   { return __builtin_tanl(__x); }
 488:/usr/include/newlib/c++/9.2.1/cmath **** #endif
 489:/usr/include/newlib/c++/9.2.1/cmath **** 
 490:/usr/include/newlib/c++/9.2.1/cmath ****   template<typename _Tp>
 491:/usr/include/newlib/c++/9.2.1/cmath ****     inline _GLIBCXX_CONSTEXPR
 492:/usr/include/newlib/c++/9.2.1/cmath ****     typename __gnu_cxx::__enable_if<__is_integer<_Tp>::__value, 
 493:/usr/include/newlib/c++/9.2.1/cmath ****                                     double>::__type
 494:/usr/include/newlib/c++/9.2.1/cmath ****     tan(_Tp __x)
 495:/usr/include/newlib/c++/9.2.1/cmath ****     { return __builtin_tan(__x); }
 496:/usr/include/newlib/c++/9.2.1/cmath **** 
 497:/usr/include/newlib/c++/9.2.1/cmath ****   using ::tanh;
 498:/usr/include/newlib/c++/9.2.1/cmath **** 
 499:/usr/include/newlib/c++/9.2.1/cmath **** #ifndef __CORRECT_ISO_CPP_MATH_H_PROTO
 500:/usr/include/newlib/c++/9.2.1/cmath ****   inline _GLIBCXX_CONSTEXPR float
 501:/usr/include/newlib/c++/9.2.1/cmath ****   tanh(float __x)
 502:/usr/include/newlib/c++/9.2.1/cmath ****   { return __builtin_tanhf(__x); }
 503:/usr/include/newlib/c++/9.2.1/cmath **** 
 504:/usr/include/newlib/c++/9.2.1/cmath ****   inline _GLIBCXX_CONSTEXPR long double
 505:/usr/include/newlib/c++/9.2.1/cmath ****   tanh(long double __x)
 506:/usr/include/newlib/c++/9.2.1/cmath ****   { return __builtin_tanhl(__x); }
ARM GAS  /tmp/ccU9pGY3.s 			page 51


 507:/usr/include/newlib/c++/9.2.1/cmath **** #endif
 508:/usr/include/newlib/c++/9.2.1/cmath **** 
 509:/usr/include/newlib/c++/9.2.1/cmath ****   template<typename _Tp>
 510:/usr/include/newlib/c++/9.2.1/cmath ****     inline _GLIBCXX_CONSTEXPR
 511:/usr/include/newlib/c++/9.2.1/cmath ****     typename __gnu_cxx::__enable_if<__is_integer<_Tp>::__value, 
 512:/usr/include/newlib/c++/9.2.1/cmath ****                                     double>::__type
 513:/usr/include/newlib/c++/9.2.1/cmath ****     tanh(_Tp __x)
 514:/usr/include/newlib/c++/9.2.1/cmath ****     { return __builtin_tanh(__x); }
 515:/usr/include/newlib/c++/9.2.1/cmath **** 
 516:/usr/include/newlib/c++/9.2.1/cmath **** #if _GLIBCXX_USE_C99_MATH
 517:/usr/include/newlib/c++/9.2.1/cmath **** #if !_GLIBCXX_USE_C99_FP_MACROS_DYNAMIC
 518:/usr/include/newlib/c++/9.2.1/cmath **** 
 519:/usr/include/newlib/c++/9.2.1/cmath **** // These are possible macros imported from C99-land.
 520:/usr/include/newlib/c++/9.2.1/cmath **** #undef fpclassify
 521:/usr/include/newlib/c++/9.2.1/cmath **** #undef isfinite
 522:/usr/include/newlib/c++/9.2.1/cmath **** #undef isinf
 523:/usr/include/newlib/c++/9.2.1/cmath **** #undef isnan
 524:/usr/include/newlib/c++/9.2.1/cmath **** #undef isnormal
 525:/usr/include/newlib/c++/9.2.1/cmath **** #undef signbit
 526:/usr/include/newlib/c++/9.2.1/cmath **** #undef isgreater
 527:/usr/include/newlib/c++/9.2.1/cmath **** #undef isgreaterequal
 528:/usr/include/newlib/c++/9.2.1/cmath **** #undef isless
 529:/usr/include/newlib/c++/9.2.1/cmath **** #undef islessequal
 530:/usr/include/newlib/c++/9.2.1/cmath **** #undef islessgreater
 531:/usr/include/newlib/c++/9.2.1/cmath **** #undef isunordered
 532:/usr/include/newlib/c++/9.2.1/cmath **** 
 533:/usr/include/newlib/c++/9.2.1/cmath **** #if __cplusplus >= 201103L
 534:/usr/include/newlib/c++/9.2.1/cmath **** 
 535:/usr/include/newlib/c++/9.2.1/cmath **** #ifndef __CORRECT_ISO_CPP11_MATH_H_PROTO_FP
 536:/usr/include/newlib/c++/9.2.1/cmath ****   constexpr int
 537:/usr/include/newlib/c++/9.2.1/cmath ****   fpclassify(float __x)
 538:/usr/include/newlib/c++/9.2.1/cmath ****   { return __builtin_fpclassify(FP_NAN, FP_INFINITE, FP_NORMAL,
 539:/usr/include/newlib/c++/9.2.1/cmath **** 				FP_SUBNORMAL, FP_ZERO, __x); }
 540:/usr/include/newlib/c++/9.2.1/cmath **** 
 541:/usr/include/newlib/c++/9.2.1/cmath ****   constexpr int
 542:/usr/include/newlib/c++/9.2.1/cmath ****   fpclassify(double __x)
 543:/usr/include/newlib/c++/9.2.1/cmath ****   { return __builtin_fpclassify(FP_NAN, FP_INFINITE, FP_NORMAL,
 544:/usr/include/newlib/c++/9.2.1/cmath **** 				FP_SUBNORMAL, FP_ZERO, __x); }
 545:/usr/include/newlib/c++/9.2.1/cmath **** 
 546:/usr/include/newlib/c++/9.2.1/cmath ****   constexpr int
 547:/usr/include/newlib/c++/9.2.1/cmath ****   fpclassify(long double __x)
 548:/usr/include/newlib/c++/9.2.1/cmath ****   { return __builtin_fpclassify(FP_NAN, FP_INFINITE, FP_NORMAL,
 549:/usr/include/newlib/c++/9.2.1/cmath **** 				FP_SUBNORMAL, FP_ZERO, __x); }
 550:/usr/include/newlib/c++/9.2.1/cmath **** #endif
 551:/usr/include/newlib/c++/9.2.1/cmath **** 
 552:/usr/include/newlib/c++/9.2.1/cmath **** #ifndef __CORRECT_ISO_CPP11_MATH_H_PROTO_INT
 553:/usr/include/newlib/c++/9.2.1/cmath ****   template<typename _Tp>
 554:/usr/include/newlib/c++/9.2.1/cmath ****     constexpr typename __gnu_cxx::__enable_if<__is_integer<_Tp>::__value,
 555:/usr/include/newlib/c++/9.2.1/cmath ****                                               int>::__type
 556:/usr/include/newlib/c++/9.2.1/cmath ****     fpclassify(_Tp __x)
 557:/usr/include/newlib/c++/9.2.1/cmath ****     { return __x != 0 ? FP_NORMAL : FP_ZERO; }
 558:/usr/include/newlib/c++/9.2.1/cmath **** #endif
 559:/usr/include/newlib/c++/9.2.1/cmath **** 
 560:/usr/include/newlib/c++/9.2.1/cmath **** #ifndef __CORRECT_ISO_CPP11_MATH_H_PROTO_FP
 561:/usr/include/newlib/c++/9.2.1/cmath ****   constexpr bool
 562:/usr/include/newlib/c++/9.2.1/cmath ****   isfinite(float __x)
 563:/usr/include/newlib/c++/9.2.1/cmath ****   { return __builtin_isfinite(__x); }
ARM GAS  /tmp/ccU9pGY3.s 			page 52


 564:/usr/include/newlib/c++/9.2.1/cmath **** 
 565:/usr/include/newlib/c++/9.2.1/cmath ****   constexpr bool
 566:/usr/include/newlib/c++/9.2.1/cmath ****   isfinite(double __x)
 567:/usr/include/newlib/c++/9.2.1/cmath ****   { return __builtin_isfinite(__x); }
 568:/usr/include/newlib/c++/9.2.1/cmath **** 
 569:/usr/include/newlib/c++/9.2.1/cmath ****   constexpr bool
 570:/usr/include/newlib/c++/9.2.1/cmath ****   isfinite(long double __x)
 571:/usr/include/newlib/c++/9.2.1/cmath ****   { return __builtin_isfinite(__x); }
 572:/usr/include/newlib/c++/9.2.1/cmath **** #endif
 573:/usr/include/newlib/c++/9.2.1/cmath **** 
 574:/usr/include/newlib/c++/9.2.1/cmath **** #ifndef __CORRECT_ISO_CPP11_MATH_H_PROTO_INT
 575:/usr/include/newlib/c++/9.2.1/cmath ****   template<typename _Tp>
 576:/usr/include/newlib/c++/9.2.1/cmath ****     constexpr typename __gnu_cxx::__enable_if<__is_integer<_Tp>::__value,
 577:/usr/include/newlib/c++/9.2.1/cmath ****                                               bool>::__type
 578:/usr/include/newlib/c++/9.2.1/cmath ****     isfinite(_Tp __x)
 579:/usr/include/newlib/c++/9.2.1/cmath ****     { return true; }
 580:/usr/include/newlib/c++/9.2.1/cmath **** #endif
 581:/usr/include/newlib/c++/9.2.1/cmath **** 
 582:/usr/include/newlib/c++/9.2.1/cmath **** #ifndef __CORRECT_ISO_CPP11_MATH_H_PROTO_FP
 583:/usr/include/newlib/c++/9.2.1/cmath ****   constexpr bool
 584:/usr/include/newlib/c++/9.2.1/cmath ****   isinf(float __x)
 585:/usr/include/newlib/c++/9.2.1/cmath ****   { return __builtin_isinf(__x); }
 586:/usr/include/newlib/c++/9.2.1/cmath **** 
 587:/usr/include/newlib/c++/9.2.1/cmath **** #if _GLIBCXX_HAVE_OBSOLETE_ISINF \
 588:/usr/include/newlib/c++/9.2.1/cmath ****   && !_GLIBCXX_NO_OBSOLETE_ISINF_ISNAN_DYNAMIC
 589:/usr/include/newlib/c++/9.2.1/cmath ****   using ::isinf;
 590:/usr/include/newlib/c++/9.2.1/cmath **** #else
 591:/usr/include/newlib/c++/9.2.1/cmath ****   constexpr bool
 592:/usr/include/newlib/c++/9.2.1/cmath ****   isinf(double __x)
 593:/usr/include/newlib/c++/9.2.1/cmath ****   { return __builtin_isinf(__x); }
 594:/usr/include/newlib/c++/9.2.1/cmath **** #endif
 595:/usr/include/newlib/c++/9.2.1/cmath **** 
 596:/usr/include/newlib/c++/9.2.1/cmath ****   constexpr bool
 597:/usr/include/newlib/c++/9.2.1/cmath ****   isinf(long double __x)
 598:/usr/include/newlib/c++/9.2.1/cmath ****   { return __builtin_isinf(__x); }
 599:/usr/include/newlib/c++/9.2.1/cmath **** #endif
 600:/usr/include/newlib/c++/9.2.1/cmath **** 
 601:/usr/include/newlib/c++/9.2.1/cmath **** #ifndef __CORRECT_ISO_CPP11_MATH_H_PROTO_INT
 602:/usr/include/newlib/c++/9.2.1/cmath ****   template<typename _Tp>
 603:/usr/include/newlib/c++/9.2.1/cmath ****     constexpr typename __gnu_cxx::__enable_if<__is_integer<_Tp>::__value,
 604:/usr/include/newlib/c++/9.2.1/cmath ****                                               bool>::__type
 605:/usr/include/newlib/c++/9.2.1/cmath ****     isinf(_Tp __x)
 606:/usr/include/newlib/c++/9.2.1/cmath ****     { return false; }
 607:/usr/include/newlib/c++/9.2.1/cmath **** #endif
 608:/usr/include/newlib/c++/9.2.1/cmath **** 
 609:/usr/include/newlib/c++/9.2.1/cmath **** #ifndef __CORRECT_ISO_CPP11_MATH_H_PROTO_FP
 610:/usr/include/newlib/c++/9.2.1/cmath ****   constexpr bool
 611:/usr/include/newlib/c++/9.2.1/cmath ****   isnan(float __x)
 612:/usr/include/newlib/c++/9.2.1/cmath ****   { return __builtin_isnan(__x); }
 613:/usr/include/newlib/c++/9.2.1/cmath **** 
 614:/usr/include/newlib/c++/9.2.1/cmath **** #if _GLIBCXX_HAVE_OBSOLETE_ISNAN \
 615:/usr/include/newlib/c++/9.2.1/cmath ****   && !_GLIBCXX_NO_OBSOLETE_ISINF_ISNAN_DYNAMIC
 616:/usr/include/newlib/c++/9.2.1/cmath ****   using ::isnan;
 617:/usr/include/newlib/c++/9.2.1/cmath **** #else
 618:/usr/include/newlib/c++/9.2.1/cmath ****   constexpr bool
 619:/usr/include/newlib/c++/9.2.1/cmath ****   isnan(double __x)
 620:/usr/include/newlib/c++/9.2.1/cmath ****   { return __builtin_isnan(__x); }
ARM GAS  /tmp/ccU9pGY3.s 			page 53


 621:/usr/include/newlib/c++/9.2.1/cmath **** #endif
 622:/usr/include/newlib/c++/9.2.1/cmath **** 
 623:/usr/include/newlib/c++/9.2.1/cmath ****   constexpr bool
 624:/usr/include/newlib/c++/9.2.1/cmath ****   isnan(long double __x)
 625:/usr/include/newlib/c++/9.2.1/cmath ****   { return __builtin_isnan(__x); }
 626:/usr/include/newlib/c++/9.2.1/cmath **** #endif
 627:/usr/include/newlib/c++/9.2.1/cmath **** 
 628:/usr/include/newlib/c++/9.2.1/cmath **** #ifndef __CORRECT_ISO_CPP11_MATH_H_PROTO_INT
 629:/usr/include/newlib/c++/9.2.1/cmath ****   template<typename _Tp>
 630:/usr/include/newlib/c++/9.2.1/cmath ****     constexpr typename __gnu_cxx::__enable_if<__is_integer<_Tp>::__value,
 631:/usr/include/newlib/c++/9.2.1/cmath ****                                               bool>::__type
 632:/usr/include/newlib/c++/9.2.1/cmath ****     isnan(_Tp __x)
 633:/usr/include/newlib/c++/9.2.1/cmath ****     { return false; }
 634:/usr/include/newlib/c++/9.2.1/cmath **** #endif
 635:/usr/include/newlib/c++/9.2.1/cmath **** 
 636:/usr/include/newlib/c++/9.2.1/cmath **** #ifndef __CORRECT_ISO_CPP11_MATH_H_PROTO_FP
 637:/usr/include/newlib/c++/9.2.1/cmath ****   constexpr bool
 638:/usr/include/newlib/c++/9.2.1/cmath ****   isnormal(float __x)
 639:/usr/include/newlib/c++/9.2.1/cmath ****   { return __builtin_isnormal(__x); }
 640:/usr/include/newlib/c++/9.2.1/cmath **** 
 641:/usr/include/newlib/c++/9.2.1/cmath ****   constexpr bool
 642:/usr/include/newlib/c++/9.2.1/cmath ****   isnormal(double __x)
 643:/usr/include/newlib/c++/9.2.1/cmath ****   { return __builtin_isnormal(__x); }
 644:/usr/include/newlib/c++/9.2.1/cmath **** 
 645:/usr/include/newlib/c++/9.2.1/cmath ****   constexpr bool
 646:/usr/include/newlib/c++/9.2.1/cmath ****   isnormal(long double __x)
 647:/usr/include/newlib/c++/9.2.1/cmath ****   { return __builtin_isnormal(__x); }
 648:/usr/include/newlib/c++/9.2.1/cmath **** #endif
 649:/usr/include/newlib/c++/9.2.1/cmath **** 
 650:/usr/include/newlib/c++/9.2.1/cmath **** #ifndef __CORRECT_ISO_CPP11_MATH_H_PROTO_INT
 651:/usr/include/newlib/c++/9.2.1/cmath ****   template<typename _Tp>
 652:/usr/include/newlib/c++/9.2.1/cmath ****     constexpr typename __gnu_cxx::__enable_if<__is_integer<_Tp>::__value,
 653:/usr/include/newlib/c++/9.2.1/cmath ****                                               bool>::__type
 654:/usr/include/newlib/c++/9.2.1/cmath ****     isnormal(_Tp __x)
 655:/usr/include/newlib/c++/9.2.1/cmath ****     { return __x != 0 ? true : false; }
 656:/usr/include/newlib/c++/9.2.1/cmath **** #endif
 657:/usr/include/newlib/c++/9.2.1/cmath **** 
 658:/usr/include/newlib/c++/9.2.1/cmath **** #ifndef __CORRECT_ISO_CPP11_MATH_H_PROTO_FP
 659:/usr/include/newlib/c++/9.2.1/cmath ****   // Note: middle-end/36757 is fixed, __builtin_signbit is type-generic.
 660:/usr/include/newlib/c++/9.2.1/cmath ****   constexpr bool
 661:/usr/include/newlib/c++/9.2.1/cmath ****   signbit(float __x)
 662:/usr/include/newlib/c++/9.2.1/cmath ****   { return __builtin_signbit(__x); }
 663:/usr/include/newlib/c++/9.2.1/cmath **** 
 664:/usr/include/newlib/c++/9.2.1/cmath ****   constexpr bool
 665:/usr/include/newlib/c++/9.2.1/cmath ****   signbit(double __x)
 666:/usr/include/newlib/c++/9.2.1/cmath ****   { return __builtin_signbit(__x); }
 667:/usr/include/newlib/c++/9.2.1/cmath **** 
 668:/usr/include/newlib/c++/9.2.1/cmath ****   constexpr bool
 669:/usr/include/newlib/c++/9.2.1/cmath ****   signbit(long double __x)
 670:/usr/include/newlib/c++/9.2.1/cmath ****   { return __builtin_signbit(__x); }
 671:/usr/include/newlib/c++/9.2.1/cmath **** #endif
 672:/usr/include/newlib/c++/9.2.1/cmath **** 
 673:/usr/include/newlib/c++/9.2.1/cmath **** #ifndef __CORRECT_ISO_CPP11_MATH_H_PROTO_INT
 674:/usr/include/newlib/c++/9.2.1/cmath ****   template<typename _Tp>
 675:/usr/include/newlib/c++/9.2.1/cmath ****     constexpr typename __gnu_cxx::__enable_if<__is_integer<_Tp>::__value,
 676:/usr/include/newlib/c++/9.2.1/cmath ****                                               bool>::__type
 677:/usr/include/newlib/c++/9.2.1/cmath ****     signbit(_Tp __x)
ARM GAS  /tmp/ccU9pGY3.s 			page 54


 678:/usr/include/newlib/c++/9.2.1/cmath ****     { return __x < 0 ? true : false; }
 679:/usr/include/newlib/c++/9.2.1/cmath **** #endif
 680:/usr/include/newlib/c++/9.2.1/cmath **** 
 681:/usr/include/newlib/c++/9.2.1/cmath **** #ifndef __CORRECT_ISO_CPP11_MATH_H_PROTO_FP
 682:/usr/include/newlib/c++/9.2.1/cmath ****   constexpr bool
 683:/usr/include/newlib/c++/9.2.1/cmath ****   isgreater(float __x, float __y)
 684:/usr/include/newlib/c++/9.2.1/cmath ****   { return __builtin_isgreater(__x, __y); }
 685:/usr/include/newlib/c++/9.2.1/cmath **** 
 686:/usr/include/newlib/c++/9.2.1/cmath ****   constexpr bool
 687:/usr/include/newlib/c++/9.2.1/cmath ****   isgreater(double __x, double __y)
 688:/usr/include/newlib/c++/9.2.1/cmath ****   { return __builtin_isgreater(__x, __y); }
 689:/usr/include/newlib/c++/9.2.1/cmath **** 
 690:/usr/include/newlib/c++/9.2.1/cmath ****   constexpr bool
 691:/usr/include/newlib/c++/9.2.1/cmath ****   isgreater(long double __x, long double __y)
 692:/usr/include/newlib/c++/9.2.1/cmath ****   { return __builtin_isgreater(__x, __y); }
 693:/usr/include/newlib/c++/9.2.1/cmath **** #endif
 694:/usr/include/newlib/c++/9.2.1/cmath **** 
 695:/usr/include/newlib/c++/9.2.1/cmath **** #ifndef __CORRECT_ISO_CPP11_MATH_H_PROTO_INT
 696:/usr/include/newlib/c++/9.2.1/cmath ****   template<typename _Tp, typename _Up>
 697:/usr/include/newlib/c++/9.2.1/cmath ****     constexpr typename
 698:/usr/include/newlib/c++/9.2.1/cmath ****     __gnu_cxx::__enable_if<(__is_arithmetic<_Tp>::__value
 699:/usr/include/newlib/c++/9.2.1/cmath **** 			    && __is_arithmetic<_Up>::__value), bool>::__type
 700:/usr/include/newlib/c++/9.2.1/cmath ****     isgreater(_Tp __x, _Up __y)
 701:/usr/include/newlib/c++/9.2.1/cmath ****     {
 702:/usr/include/newlib/c++/9.2.1/cmath ****       typedef typename __gnu_cxx::__promote_2<_Tp, _Up>::__type __type;
 703:/usr/include/newlib/c++/9.2.1/cmath ****       return __builtin_isgreater(__type(__x), __type(__y));
 704:/usr/include/newlib/c++/9.2.1/cmath ****     }
 705:/usr/include/newlib/c++/9.2.1/cmath **** #endif
 706:/usr/include/newlib/c++/9.2.1/cmath **** 
 707:/usr/include/newlib/c++/9.2.1/cmath **** #ifndef __CORRECT_ISO_CPP11_MATH_H_PROTO_FP
 708:/usr/include/newlib/c++/9.2.1/cmath ****   constexpr bool
 709:/usr/include/newlib/c++/9.2.1/cmath ****   isgreaterequal(float __x, float __y)
 710:/usr/include/newlib/c++/9.2.1/cmath ****   { return __builtin_isgreaterequal(__x, __y); }
 711:/usr/include/newlib/c++/9.2.1/cmath **** 
 712:/usr/include/newlib/c++/9.2.1/cmath ****   constexpr bool
 713:/usr/include/newlib/c++/9.2.1/cmath ****   isgreaterequal(double __x, double __y)
 714:/usr/include/newlib/c++/9.2.1/cmath ****   { return __builtin_isgreaterequal(__x, __y); }
 715:/usr/include/newlib/c++/9.2.1/cmath **** 
 716:/usr/include/newlib/c++/9.2.1/cmath ****   constexpr bool
 717:/usr/include/newlib/c++/9.2.1/cmath ****   isgreaterequal(long double __x, long double __y)
 718:/usr/include/newlib/c++/9.2.1/cmath ****   { return __builtin_isgreaterequal(__x, __y); }
 719:/usr/include/newlib/c++/9.2.1/cmath **** #endif
 720:/usr/include/newlib/c++/9.2.1/cmath **** 
 721:/usr/include/newlib/c++/9.2.1/cmath **** #ifndef __CORRECT_ISO_CPP11_MATH_H_PROTO_INT
 722:/usr/include/newlib/c++/9.2.1/cmath ****   template<typename _Tp, typename _Up>
 723:/usr/include/newlib/c++/9.2.1/cmath ****     constexpr typename
 724:/usr/include/newlib/c++/9.2.1/cmath ****     __gnu_cxx::__enable_if<(__is_arithmetic<_Tp>::__value
 725:/usr/include/newlib/c++/9.2.1/cmath **** 			    && __is_arithmetic<_Up>::__value), bool>::__type
 726:/usr/include/newlib/c++/9.2.1/cmath ****     isgreaterequal(_Tp __x, _Up __y)
 727:/usr/include/newlib/c++/9.2.1/cmath ****     {
 728:/usr/include/newlib/c++/9.2.1/cmath ****       typedef typename __gnu_cxx::__promote_2<_Tp, _Up>::__type __type;
 729:/usr/include/newlib/c++/9.2.1/cmath ****       return __builtin_isgreaterequal(__type(__x), __type(__y));
 730:/usr/include/newlib/c++/9.2.1/cmath ****     }
 731:/usr/include/newlib/c++/9.2.1/cmath **** #endif
 732:/usr/include/newlib/c++/9.2.1/cmath **** 
 733:/usr/include/newlib/c++/9.2.1/cmath **** #ifndef __CORRECT_ISO_CPP11_MATH_H_PROTO_FP
 734:/usr/include/newlib/c++/9.2.1/cmath ****   constexpr bool
ARM GAS  /tmp/ccU9pGY3.s 			page 55


 735:/usr/include/newlib/c++/9.2.1/cmath ****   isless(float __x, float __y)
 736:/usr/include/newlib/c++/9.2.1/cmath ****   { return __builtin_isless(__x, __y); }
 737:/usr/include/newlib/c++/9.2.1/cmath **** 
 738:/usr/include/newlib/c++/9.2.1/cmath ****   constexpr bool
 739:/usr/include/newlib/c++/9.2.1/cmath ****   isless(double __x, double __y)
 740:/usr/include/newlib/c++/9.2.1/cmath ****   { return __builtin_isless(__x, __y); }
 741:/usr/include/newlib/c++/9.2.1/cmath **** 
 742:/usr/include/newlib/c++/9.2.1/cmath ****   constexpr bool
 743:/usr/include/newlib/c++/9.2.1/cmath ****   isless(long double __x, long double __y)
 744:/usr/include/newlib/c++/9.2.1/cmath ****   { return __builtin_isless(__x, __y); }
 745:/usr/include/newlib/c++/9.2.1/cmath **** #endif
 746:/usr/include/newlib/c++/9.2.1/cmath **** 
 747:/usr/include/newlib/c++/9.2.1/cmath **** #ifndef __CORRECT_ISO_CPP11_MATH_H_PROTO_INT
 748:/usr/include/newlib/c++/9.2.1/cmath ****   template<typename _Tp, typename _Up>
 749:/usr/include/newlib/c++/9.2.1/cmath ****     constexpr typename
 750:/usr/include/newlib/c++/9.2.1/cmath ****     __gnu_cxx::__enable_if<(__is_arithmetic<_Tp>::__value
 751:/usr/include/newlib/c++/9.2.1/cmath **** 			    && __is_arithmetic<_Up>::__value), bool>::__type
 752:/usr/include/newlib/c++/9.2.1/cmath ****     isless(_Tp __x, _Up __y)
 753:/usr/include/newlib/c++/9.2.1/cmath ****     {
 754:/usr/include/newlib/c++/9.2.1/cmath ****       typedef typename __gnu_cxx::__promote_2<_Tp, _Up>::__type __type;
 755:/usr/include/newlib/c++/9.2.1/cmath ****       return __builtin_isless(__type(__x), __type(__y));
 756:/usr/include/newlib/c++/9.2.1/cmath ****     }
 757:/usr/include/newlib/c++/9.2.1/cmath **** #endif
 758:/usr/include/newlib/c++/9.2.1/cmath **** 
 759:/usr/include/newlib/c++/9.2.1/cmath **** #ifndef __CORRECT_ISO_CPP11_MATH_H_PROTO_FP
 760:/usr/include/newlib/c++/9.2.1/cmath ****   constexpr bool
 761:/usr/include/newlib/c++/9.2.1/cmath ****   islessequal(float __x, float __y)
 762:/usr/include/newlib/c++/9.2.1/cmath ****   { return __builtin_islessequal(__x, __y); }
 763:/usr/include/newlib/c++/9.2.1/cmath **** 
 764:/usr/include/newlib/c++/9.2.1/cmath ****   constexpr bool
 765:/usr/include/newlib/c++/9.2.1/cmath ****   islessequal(double __x, double __y)
 766:/usr/include/newlib/c++/9.2.1/cmath ****   { return __builtin_islessequal(__x, __y); }
 767:/usr/include/newlib/c++/9.2.1/cmath **** 
 768:/usr/include/newlib/c++/9.2.1/cmath ****   constexpr bool
 769:/usr/include/newlib/c++/9.2.1/cmath ****   islessequal(long double __x, long double __y)
 770:/usr/include/newlib/c++/9.2.1/cmath ****   { return __builtin_islessequal(__x, __y); }
 771:/usr/include/newlib/c++/9.2.1/cmath **** #endif
 772:/usr/include/newlib/c++/9.2.1/cmath **** 
 773:/usr/include/newlib/c++/9.2.1/cmath **** #ifndef __CORRECT_ISO_CPP11_MATH_H_PROTO_INT
 774:/usr/include/newlib/c++/9.2.1/cmath ****   template<typename _Tp, typename _Up>
 775:/usr/include/newlib/c++/9.2.1/cmath ****     constexpr typename
 776:/usr/include/newlib/c++/9.2.1/cmath ****     __gnu_cxx::__enable_if<(__is_arithmetic<_Tp>::__value
 777:/usr/include/newlib/c++/9.2.1/cmath **** 			    && __is_arithmetic<_Up>::__value), bool>::__type
 778:/usr/include/newlib/c++/9.2.1/cmath ****     islessequal(_Tp __x, _Up __y)
 779:/usr/include/newlib/c++/9.2.1/cmath ****     {
 780:/usr/include/newlib/c++/9.2.1/cmath ****       typedef typename __gnu_cxx::__promote_2<_Tp, _Up>::__type __type;
 781:/usr/include/newlib/c++/9.2.1/cmath ****       return __builtin_islessequal(__type(__x), __type(__y));
 782:/usr/include/newlib/c++/9.2.1/cmath ****     }
 783:/usr/include/newlib/c++/9.2.1/cmath **** #endif
 784:/usr/include/newlib/c++/9.2.1/cmath **** 
 785:/usr/include/newlib/c++/9.2.1/cmath **** #ifndef __CORRECT_ISO_CPP11_MATH_H_PROTO_FP
 786:/usr/include/newlib/c++/9.2.1/cmath ****   constexpr bool
 787:/usr/include/newlib/c++/9.2.1/cmath ****   islessgreater(float __x, float __y)
 788:/usr/include/newlib/c++/9.2.1/cmath ****   { return __builtin_islessgreater(__x, __y); }
 789:/usr/include/newlib/c++/9.2.1/cmath **** 
 790:/usr/include/newlib/c++/9.2.1/cmath ****   constexpr bool
 791:/usr/include/newlib/c++/9.2.1/cmath ****   islessgreater(double __x, double __y)
ARM GAS  /tmp/ccU9pGY3.s 			page 56


 792:/usr/include/newlib/c++/9.2.1/cmath ****   { return __builtin_islessgreater(__x, __y); }
 793:/usr/include/newlib/c++/9.2.1/cmath **** 
 794:/usr/include/newlib/c++/9.2.1/cmath ****   constexpr bool
 795:/usr/include/newlib/c++/9.2.1/cmath ****   islessgreater(long double __x, long double __y)
 796:/usr/include/newlib/c++/9.2.1/cmath ****   { return __builtin_islessgreater(__x, __y); }
 797:/usr/include/newlib/c++/9.2.1/cmath **** #endif
 798:/usr/include/newlib/c++/9.2.1/cmath **** 
 799:/usr/include/newlib/c++/9.2.1/cmath **** #ifndef __CORRECT_ISO_CPP11_MATH_H_PROTO_INT
 800:/usr/include/newlib/c++/9.2.1/cmath ****   template<typename _Tp, typename _Up>
 801:/usr/include/newlib/c++/9.2.1/cmath ****     constexpr typename
 802:/usr/include/newlib/c++/9.2.1/cmath ****     __gnu_cxx::__enable_if<(__is_arithmetic<_Tp>::__value
 803:/usr/include/newlib/c++/9.2.1/cmath **** 			    && __is_arithmetic<_Up>::__value), bool>::__type
 804:/usr/include/newlib/c++/9.2.1/cmath ****     islessgreater(_Tp __x, _Up __y)
 805:/usr/include/newlib/c++/9.2.1/cmath ****     {
 806:/usr/include/newlib/c++/9.2.1/cmath ****       typedef typename __gnu_cxx::__promote_2<_Tp, _Up>::__type __type;
 807:/usr/include/newlib/c++/9.2.1/cmath ****       return __builtin_islessgreater(__type(__x), __type(__y));
 808:/usr/include/newlib/c++/9.2.1/cmath ****     }
 809:/usr/include/newlib/c++/9.2.1/cmath **** #endif
 810:/usr/include/newlib/c++/9.2.1/cmath **** 
 811:/usr/include/newlib/c++/9.2.1/cmath **** #ifndef __CORRECT_ISO_CPP11_MATH_H_PROTO_FP
 812:/usr/include/newlib/c++/9.2.1/cmath ****   constexpr bool
 813:/usr/include/newlib/c++/9.2.1/cmath ****   isunordered(float __x, float __y)
 814:/usr/include/newlib/c++/9.2.1/cmath ****   { return __builtin_isunordered(__x, __y); }
 815:/usr/include/newlib/c++/9.2.1/cmath **** 
 816:/usr/include/newlib/c++/9.2.1/cmath ****   constexpr bool
 817:/usr/include/newlib/c++/9.2.1/cmath ****   isunordered(double __x, double __y)
 818:/usr/include/newlib/c++/9.2.1/cmath ****   { return __builtin_isunordered(__x, __y); }
 819:/usr/include/newlib/c++/9.2.1/cmath **** 
 820:/usr/include/newlib/c++/9.2.1/cmath ****   constexpr bool
 821:/usr/include/newlib/c++/9.2.1/cmath ****   isunordered(long double __x, long double __y)
 822:/usr/include/newlib/c++/9.2.1/cmath ****   { return __builtin_isunordered(__x, __y); }
 823:/usr/include/newlib/c++/9.2.1/cmath **** #endif
 824:/usr/include/newlib/c++/9.2.1/cmath **** 
 825:/usr/include/newlib/c++/9.2.1/cmath **** #ifndef __CORRECT_ISO_CPP11_MATH_H_PROTO_INT
 826:/usr/include/newlib/c++/9.2.1/cmath ****   template<typename _Tp, typename _Up>
 827:/usr/include/newlib/c++/9.2.1/cmath ****     constexpr typename
 828:/usr/include/newlib/c++/9.2.1/cmath ****     __gnu_cxx::__enable_if<(__is_arithmetic<_Tp>::__value
 829:/usr/include/newlib/c++/9.2.1/cmath **** 			    && __is_arithmetic<_Up>::__value), bool>::__type
 830:/usr/include/newlib/c++/9.2.1/cmath ****     isunordered(_Tp __x, _Up __y)
 831:/usr/include/newlib/c++/9.2.1/cmath ****     {
 832:/usr/include/newlib/c++/9.2.1/cmath ****       typedef typename __gnu_cxx::__promote_2<_Tp, _Up>::__type __type;
 833:/usr/include/newlib/c++/9.2.1/cmath ****       return __builtin_isunordered(__type(__x), __type(__y));
 834:/usr/include/newlib/c++/9.2.1/cmath ****     }
 835:/usr/include/newlib/c++/9.2.1/cmath **** #endif
 836:/usr/include/newlib/c++/9.2.1/cmath **** 
 837:/usr/include/newlib/c++/9.2.1/cmath **** #else
 838:/usr/include/newlib/c++/9.2.1/cmath **** 
 839:/usr/include/newlib/c++/9.2.1/cmath ****   template<typename _Tp>
 840:/usr/include/newlib/c++/9.2.1/cmath ****     inline typename __gnu_cxx::__enable_if<__is_arithmetic<_Tp>::__value,
 841:/usr/include/newlib/c++/9.2.1/cmath **** 					   int>::__type
 842:/usr/include/newlib/c++/9.2.1/cmath ****     fpclassify(_Tp __f)
 843:/usr/include/newlib/c++/9.2.1/cmath ****     {
 844:/usr/include/newlib/c++/9.2.1/cmath ****       typedef typename __gnu_cxx::__promote<_Tp>::__type __type;
 845:/usr/include/newlib/c++/9.2.1/cmath ****       return __builtin_fpclassify(FP_NAN, FP_INFINITE, FP_NORMAL,
 846:/usr/include/newlib/c++/9.2.1/cmath **** 				  FP_SUBNORMAL, FP_ZERO, __type(__f));
 847:/usr/include/newlib/c++/9.2.1/cmath ****     }
 848:/usr/include/newlib/c++/9.2.1/cmath **** 
ARM GAS  /tmp/ccU9pGY3.s 			page 57


 849:/usr/include/newlib/c++/9.2.1/cmath ****   template<typename _Tp>
 850:/usr/include/newlib/c++/9.2.1/cmath ****     inline typename __gnu_cxx::__enable_if<__is_arithmetic<_Tp>::__value,
 851:/usr/include/newlib/c++/9.2.1/cmath **** 					   int>::__type
 852:/usr/include/newlib/c++/9.2.1/cmath ****     isfinite(_Tp __f)
 853:/usr/include/newlib/c++/9.2.1/cmath ****     {
 854:/usr/include/newlib/c++/9.2.1/cmath ****       typedef typename __gnu_cxx::__promote<_Tp>::__type __type;
 855:/usr/include/newlib/c++/9.2.1/cmath ****       return __builtin_isfinite(__type(__f));
 856:/usr/include/newlib/c++/9.2.1/cmath ****     }
 857:/usr/include/newlib/c++/9.2.1/cmath **** 
 858:/usr/include/newlib/c++/9.2.1/cmath ****   template<typename _Tp>
 859:/usr/include/newlib/c++/9.2.1/cmath ****     inline typename __gnu_cxx::__enable_if<__is_arithmetic<_Tp>::__value,
 860:/usr/include/newlib/c++/9.2.1/cmath **** 					   int>::__type
 861:/usr/include/newlib/c++/9.2.1/cmath ****     isinf(_Tp __f)
 862:/usr/include/newlib/c++/9.2.1/cmath ****     {
 863:/usr/include/newlib/c++/9.2.1/cmath ****       typedef typename __gnu_cxx::__promote<_Tp>::__type __type;
 864:/usr/include/newlib/c++/9.2.1/cmath ****       return __builtin_isinf(__type(__f));
 865:/usr/include/newlib/c++/9.2.1/cmath ****     }
 866:/usr/include/newlib/c++/9.2.1/cmath **** 
 867:/usr/include/newlib/c++/9.2.1/cmath ****   template<typename _Tp>
 868:/usr/include/newlib/c++/9.2.1/cmath ****     inline typename __gnu_cxx::__enable_if<__is_arithmetic<_Tp>::__value,
 869:/usr/include/newlib/c++/9.2.1/cmath **** 					   int>::__type
 870:/usr/include/newlib/c++/9.2.1/cmath ****     isnan(_Tp __f)
 871:/usr/include/newlib/c++/9.2.1/cmath ****     {
 872:/usr/include/newlib/c++/9.2.1/cmath ****       typedef typename __gnu_cxx::__promote<_Tp>::__type __type;
 873:/usr/include/newlib/c++/9.2.1/cmath ****       return __builtin_isnan(__type(__f));
 874:/usr/include/newlib/c++/9.2.1/cmath ****     }
 875:/usr/include/newlib/c++/9.2.1/cmath **** 
 876:/usr/include/newlib/c++/9.2.1/cmath ****   template<typename _Tp>
 877:/usr/include/newlib/c++/9.2.1/cmath ****     inline typename __gnu_cxx::__enable_if<__is_arithmetic<_Tp>::__value,
 878:/usr/include/newlib/c++/9.2.1/cmath **** 					   int>::__type
 879:/usr/include/newlib/c++/9.2.1/cmath ****     isnormal(_Tp __f)
 880:/usr/include/newlib/c++/9.2.1/cmath ****     {
 881:/usr/include/newlib/c++/9.2.1/cmath ****       typedef typename __gnu_cxx::__promote<_Tp>::__type __type;
 882:/usr/include/newlib/c++/9.2.1/cmath ****       return __builtin_isnormal(__type(__f));
 883:/usr/include/newlib/c++/9.2.1/cmath ****     }
 884:/usr/include/newlib/c++/9.2.1/cmath **** 
 885:/usr/include/newlib/c++/9.2.1/cmath ****   template<typename _Tp>
 886:/usr/include/newlib/c++/9.2.1/cmath ****     inline typename __gnu_cxx::__enable_if<__is_arithmetic<_Tp>::__value,
 887:/usr/include/newlib/c++/9.2.1/cmath **** 					   int>::__type
 888:/usr/include/newlib/c++/9.2.1/cmath ****     signbit(_Tp __f)
 889:/usr/include/newlib/c++/9.2.1/cmath ****     {
 890:/usr/include/newlib/c++/9.2.1/cmath ****       typedef typename __gnu_cxx::__promote<_Tp>::__type __type;
 891:/usr/include/newlib/c++/9.2.1/cmath ****       return __builtin_signbit(__type(__f));
 892:/usr/include/newlib/c++/9.2.1/cmath ****     }
 893:/usr/include/newlib/c++/9.2.1/cmath **** 
 894:/usr/include/newlib/c++/9.2.1/cmath ****   template<typename _Tp>
 895:/usr/include/newlib/c++/9.2.1/cmath ****     inline typename __gnu_cxx::__enable_if<__is_arithmetic<_Tp>::__value,
 896:/usr/include/newlib/c++/9.2.1/cmath **** 					   int>::__type
 897:/usr/include/newlib/c++/9.2.1/cmath ****     isgreater(_Tp __f1, _Tp __f2)
 898:/usr/include/newlib/c++/9.2.1/cmath ****     {
 899:/usr/include/newlib/c++/9.2.1/cmath ****       typedef typename __gnu_cxx::__promote<_Tp>::__type __type;
 900:/usr/include/newlib/c++/9.2.1/cmath ****       return __builtin_isgreater(__type(__f1), __type(__f2));
 901:/usr/include/newlib/c++/9.2.1/cmath ****     }
 902:/usr/include/newlib/c++/9.2.1/cmath **** 
 903:/usr/include/newlib/c++/9.2.1/cmath ****   template<typename _Tp>
 904:/usr/include/newlib/c++/9.2.1/cmath ****     inline typename __gnu_cxx::__enable_if<__is_arithmetic<_Tp>::__value,
 905:/usr/include/newlib/c++/9.2.1/cmath **** 					   int>::__type
ARM GAS  /tmp/ccU9pGY3.s 			page 58


 906:/usr/include/newlib/c++/9.2.1/cmath ****     isgreaterequal(_Tp __f1, _Tp __f2)
 907:/usr/include/newlib/c++/9.2.1/cmath ****     {
 908:/usr/include/newlib/c++/9.2.1/cmath ****       typedef typename __gnu_cxx::__promote<_Tp>::__type __type;
 909:/usr/include/newlib/c++/9.2.1/cmath ****       return __builtin_isgreaterequal(__type(__f1), __type(__f2));
 910:/usr/include/newlib/c++/9.2.1/cmath ****     }
 911:/usr/include/newlib/c++/9.2.1/cmath **** 
 912:/usr/include/newlib/c++/9.2.1/cmath ****   template<typename _Tp>
 913:/usr/include/newlib/c++/9.2.1/cmath ****     inline typename __gnu_cxx::__enable_if<__is_arithmetic<_Tp>::__value,
 914:/usr/include/newlib/c++/9.2.1/cmath **** 					   int>::__type
 915:/usr/include/newlib/c++/9.2.1/cmath ****     isless(_Tp __f1, _Tp __f2)
 916:/usr/include/newlib/c++/9.2.1/cmath ****     {
 917:/usr/include/newlib/c++/9.2.1/cmath ****       typedef typename __gnu_cxx::__promote<_Tp>::__type __type;
 918:/usr/include/newlib/c++/9.2.1/cmath ****       return __builtin_isless(__type(__f1), __type(__f2));
 919:/usr/include/newlib/c++/9.2.1/cmath ****     }
 920:/usr/include/newlib/c++/9.2.1/cmath **** 
 921:/usr/include/newlib/c++/9.2.1/cmath ****   template<typename _Tp>
 922:/usr/include/newlib/c++/9.2.1/cmath ****     inline typename __gnu_cxx::__enable_if<__is_arithmetic<_Tp>::__value,
 923:/usr/include/newlib/c++/9.2.1/cmath **** 					   int>::__type
 924:/usr/include/newlib/c++/9.2.1/cmath ****     islessequal(_Tp __f1, _Tp __f2)
 925:/usr/include/newlib/c++/9.2.1/cmath ****     {
 926:/usr/include/newlib/c++/9.2.1/cmath ****       typedef typename __gnu_cxx::__promote<_Tp>::__type __type;
 927:/usr/include/newlib/c++/9.2.1/cmath ****       return __builtin_islessequal(__type(__f1), __type(__f2));
 928:/usr/include/newlib/c++/9.2.1/cmath ****     }
 929:/usr/include/newlib/c++/9.2.1/cmath **** 
 930:/usr/include/newlib/c++/9.2.1/cmath ****   template<typename _Tp>
 931:/usr/include/newlib/c++/9.2.1/cmath ****     inline typename __gnu_cxx::__enable_if<__is_arithmetic<_Tp>::__value,
 932:/usr/include/newlib/c++/9.2.1/cmath **** 					   int>::__type
 933:/usr/include/newlib/c++/9.2.1/cmath ****     islessgreater(_Tp __f1, _Tp __f2)
 934:/usr/include/newlib/c++/9.2.1/cmath ****     {
 935:/usr/include/newlib/c++/9.2.1/cmath ****       typedef typename __gnu_cxx::__promote<_Tp>::__type __type;
 936:/usr/include/newlib/c++/9.2.1/cmath ****       return __builtin_islessgreater(__type(__f1), __type(__f2));
 937:/usr/include/newlib/c++/9.2.1/cmath ****     }
 938:/usr/include/newlib/c++/9.2.1/cmath **** 
 939:/usr/include/newlib/c++/9.2.1/cmath ****   template<typename _Tp>
 940:/usr/include/newlib/c++/9.2.1/cmath ****     inline typename __gnu_cxx::__enable_if<__is_arithmetic<_Tp>::__value,
 941:/usr/include/newlib/c++/9.2.1/cmath **** 					   int>::__type
 942:/usr/include/newlib/c++/9.2.1/cmath ****     isunordered(_Tp __f1, _Tp __f2)
 943:/usr/include/newlib/c++/9.2.1/cmath ****     {
 944:/usr/include/newlib/c++/9.2.1/cmath ****       typedef typename __gnu_cxx::__promote<_Tp>::__type __type;
 945:/usr/include/newlib/c++/9.2.1/cmath ****       return __builtin_isunordered(__type(__f1), __type(__f2));
 946:/usr/include/newlib/c++/9.2.1/cmath ****     }
 947:/usr/include/newlib/c++/9.2.1/cmath **** 
 948:/usr/include/newlib/c++/9.2.1/cmath **** #endif // C++11
 949:/usr/include/newlib/c++/9.2.1/cmath **** #endif /* _GLIBCXX_USE_C99_FP_MACROS_DYNAMIC */
 950:/usr/include/newlib/c++/9.2.1/cmath **** #endif /* _GLIBCXX_USE_C99_MATH */
 951:/usr/include/newlib/c++/9.2.1/cmath **** 
 952:/usr/include/newlib/c++/9.2.1/cmath **** #if __cplusplus >= 201103L
 953:/usr/include/newlib/c++/9.2.1/cmath **** 
 954:/usr/include/newlib/c++/9.2.1/cmath **** #ifdef _GLIBCXX_USE_C99_MATH_TR1
 955:/usr/include/newlib/c++/9.2.1/cmath **** 
 956:/usr/include/newlib/c++/9.2.1/cmath **** #undef acosh
 957:/usr/include/newlib/c++/9.2.1/cmath **** #undef acoshf
 958:/usr/include/newlib/c++/9.2.1/cmath **** #undef acoshl
 959:/usr/include/newlib/c++/9.2.1/cmath **** #undef asinh
 960:/usr/include/newlib/c++/9.2.1/cmath **** #undef asinhf
 961:/usr/include/newlib/c++/9.2.1/cmath **** #undef asinhl
 962:/usr/include/newlib/c++/9.2.1/cmath **** #undef atanh
ARM GAS  /tmp/ccU9pGY3.s 			page 59


 963:/usr/include/newlib/c++/9.2.1/cmath **** #undef atanhf
 964:/usr/include/newlib/c++/9.2.1/cmath **** #undef atanhl
 965:/usr/include/newlib/c++/9.2.1/cmath **** #undef cbrt
 966:/usr/include/newlib/c++/9.2.1/cmath **** #undef cbrtf
 967:/usr/include/newlib/c++/9.2.1/cmath **** #undef cbrtl
 968:/usr/include/newlib/c++/9.2.1/cmath **** #undef copysign
 969:/usr/include/newlib/c++/9.2.1/cmath **** #undef copysignf
 970:/usr/include/newlib/c++/9.2.1/cmath **** #undef copysignl
 971:/usr/include/newlib/c++/9.2.1/cmath **** #undef erf
 972:/usr/include/newlib/c++/9.2.1/cmath **** #undef erff
 973:/usr/include/newlib/c++/9.2.1/cmath **** #undef erfl
 974:/usr/include/newlib/c++/9.2.1/cmath **** #undef erfc
 975:/usr/include/newlib/c++/9.2.1/cmath **** #undef erfcf
 976:/usr/include/newlib/c++/9.2.1/cmath **** #undef erfcl
 977:/usr/include/newlib/c++/9.2.1/cmath **** #undef exp2
 978:/usr/include/newlib/c++/9.2.1/cmath **** #undef exp2f
 979:/usr/include/newlib/c++/9.2.1/cmath **** #undef exp2l
 980:/usr/include/newlib/c++/9.2.1/cmath **** #undef expm1
 981:/usr/include/newlib/c++/9.2.1/cmath **** #undef expm1f
 982:/usr/include/newlib/c++/9.2.1/cmath **** #undef expm1l
 983:/usr/include/newlib/c++/9.2.1/cmath **** #undef fdim
 984:/usr/include/newlib/c++/9.2.1/cmath **** #undef fdimf
 985:/usr/include/newlib/c++/9.2.1/cmath **** #undef fdiml
 986:/usr/include/newlib/c++/9.2.1/cmath **** #undef fma
 987:/usr/include/newlib/c++/9.2.1/cmath **** #undef fmaf
 988:/usr/include/newlib/c++/9.2.1/cmath **** #undef fmal
 989:/usr/include/newlib/c++/9.2.1/cmath **** #undef fmax
 990:/usr/include/newlib/c++/9.2.1/cmath **** #undef fmaxf
 991:/usr/include/newlib/c++/9.2.1/cmath **** #undef fmaxl
 992:/usr/include/newlib/c++/9.2.1/cmath **** #undef fmin
 993:/usr/include/newlib/c++/9.2.1/cmath **** #undef fminf
 994:/usr/include/newlib/c++/9.2.1/cmath **** #undef fminl
 995:/usr/include/newlib/c++/9.2.1/cmath **** #undef hypot
 996:/usr/include/newlib/c++/9.2.1/cmath **** #undef hypotf
 997:/usr/include/newlib/c++/9.2.1/cmath **** #undef hypotl
 998:/usr/include/newlib/c++/9.2.1/cmath **** #undef ilogb
 999:/usr/include/newlib/c++/9.2.1/cmath **** #undef ilogbf
1000:/usr/include/newlib/c++/9.2.1/cmath **** #undef ilogbl
1001:/usr/include/newlib/c++/9.2.1/cmath **** #undef lgamma
1002:/usr/include/newlib/c++/9.2.1/cmath **** #undef lgammaf
1003:/usr/include/newlib/c++/9.2.1/cmath **** #undef lgammal
1004:/usr/include/newlib/c++/9.2.1/cmath **** #ifndef _GLIBCXX_NO_C99_ROUNDING_FUNCS
1005:/usr/include/newlib/c++/9.2.1/cmath **** #undef llrint
1006:/usr/include/newlib/c++/9.2.1/cmath **** #undef llrintf
1007:/usr/include/newlib/c++/9.2.1/cmath **** #undef llrintl
1008:/usr/include/newlib/c++/9.2.1/cmath **** #undef llround
1009:/usr/include/newlib/c++/9.2.1/cmath **** #undef llroundf
1010:/usr/include/newlib/c++/9.2.1/cmath **** #undef llroundl
1011:/usr/include/newlib/c++/9.2.1/cmath **** #endif
1012:/usr/include/newlib/c++/9.2.1/cmath **** #undef log1p
1013:/usr/include/newlib/c++/9.2.1/cmath **** #undef log1pf
1014:/usr/include/newlib/c++/9.2.1/cmath **** #undef log1pl
1015:/usr/include/newlib/c++/9.2.1/cmath **** #undef log2
1016:/usr/include/newlib/c++/9.2.1/cmath **** #undef log2f
1017:/usr/include/newlib/c++/9.2.1/cmath **** #undef log2l
1018:/usr/include/newlib/c++/9.2.1/cmath **** #undef logb
1019:/usr/include/newlib/c++/9.2.1/cmath **** #undef logbf
ARM GAS  /tmp/ccU9pGY3.s 			page 60


1020:/usr/include/newlib/c++/9.2.1/cmath **** #undef logbl
1021:/usr/include/newlib/c++/9.2.1/cmath **** #undef lrint
1022:/usr/include/newlib/c++/9.2.1/cmath **** #undef lrintf
1023:/usr/include/newlib/c++/9.2.1/cmath **** #undef lrintl
1024:/usr/include/newlib/c++/9.2.1/cmath **** #undef lround
1025:/usr/include/newlib/c++/9.2.1/cmath **** #undef lroundf
1026:/usr/include/newlib/c++/9.2.1/cmath **** #undef lroundl
1027:/usr/include/newlib/c++/9.2.1/cmath **** #undef nan
1028:/usr/include/newlib/c++/9.2.1/cmath **** #undef nanf
1029:/usr/include/newlib/c++/9.2.1/cmath **** #undef nanl
1030:/usr/include/newlib/c++/9.2.1/cmath **** #undef nearbyint
1031:/usr/include/newlib/c++/9.2.1/cmath **** #undef nearbyintf
1032:/usr/include/newlib/c++/9.2.1/cmath **** #undef nearbyintl
1033:/usr/include/newlib/c++/9.2.1/cmath **** #undef nextafter
1034:/usr/include/newlib/c++/9.2.1/cmath **** #undef nextafterf
1035:/usr/include/newlib/c++/9.2.1/cmath **** #undef nextafterl
1036:/usr/include/newlib/c++/9.2.1/cmath **** #undef nexttoward
1037:/usr/include/newlib/c++/9.2.1/cmath **** #undef nexttowardf
1038:/usr/include/newlib/c++/9.2.1/cmath **** #undef nexttowardl
1039:/usr/include/newlib/c++/9.2.1/cmath **** #undef remainder
1040:/usr/include/newlib/c++/9.2.1/cmath **** #undef remainderf
1041:/usr/include/newlib/c++/9.2.1/cmath **** #undef remainderl
1042:/usr/include/newlib/c++/9.2.1/cmath **** #undef remquo
1043:/usr/include/newlib/c++/9.2.1/cmath **** #undef remquof
1044:/usr/include/newlib/c++/9.2.1/cmath **** #undef remquol
1045:/usr/include/newlib/c++/9.2.1/cmath **** #undef rint
1046:/usr/include/newlib/c++/9.2.1/cmath **** #undef rintf
1047:/usr/include/newlib/c++/9.2.1/cmath **** #undef rintl
1048:/usr/include/newlib/c++/9.2.1/cmath **** #undef round
1049:/usr/include/newlib/c++/9.2.1/cmath **** #undef roundf
1050:/usr/include/newlib/c++/9.2.1/cmath **** #undef roundl
1051:/usr/include/newlib/c++/9.2.1/cmath **** #undef scalbln
1052:/usr/include/newlib/c++/9.2.1/cmath **** #undef scalblnf
1053:/usr/include/newlib/c++/9.2.1/cmath **** #undef scalblnl
1054:/usr/include/newlib/c++/9.2.1/cmath **** #undef scalbn
1055:/usr/include/newlib/c++/9.2.1/cmath **** #undef scalbnf
1056:/usr/include/newlib/c++/9.2.1/cmath **** #undef scalbnl
1057:/usr/include/newlib/c++/9.2.1/cmath **** #undef tgamma
1058:/usr/include/newlib/c++/9.2.1/cmath **** #undef tgammaf
1059:/usr/include/newlib/c++/9.2.1/cmath **** #undef tgammal
1060:/usr/include/newlib/c++/9.2.1/cmath **** #undef trunc
1061:/usr/include/newlib/c++/9.2.1/cmath **** #undef truncf
1062:/usr/include/newlib/c++/9.2.1/cmath **** #undef truncl
1063:/usr/include/newlib/c++/9.2.1/cmath **** 
1064:/usr/include/newlib/c++/9.2.1/cmath ****   // types
1065:/usr/include/newlib/c++/9.2.1/cmath ****   using ::double_t;
1066:/usr/include/newlib/c++/9.2.1/cmath ****   using ::float_t;
1067:/usr/include/newlib/c++/9.2.1/cmath **** 
1068:/usr/include/newlib/c++/9.2.1/cmath ****   // functions
1069:/usr/include/newlib/c++/9.2.1/cmath ****   using ::acosh;
1070:/usr/include/newlib/c++/9.2.1/cmath ****   using ::acoshf;
1071:/usr/include/newlib/c++/9.2.1/cmath ****   using ::acoshl;
1072:/usr/include/newlib/c++/9.2.1/cmath **** 
1073:/usr/include/newlib/c++/9.2.1/cmath ****   using ::asinh;
1074:/usr/include/newlib/c++/9.2.1/cmath ****   using ::asinhf;
1075:/usr/include/newlib/c++/9.2.1/cmath ****   using ::asinhl;
1076:/usr/include/newlib/c++/9.2.1/cmath **** 
ARM GAS  /tmp/ccU9pGY3.s 			page 61


1077:/usr/include/newlib/c++/9.2.1/cmath ****   using ::atanh;
1078:/usr/include/newlib/c++/9.2.1/cmath ****   using ::atanhf;
1079:/usr/include/newlib/c++/9.2.1/cmath ****   using ::atanhl;
1080:/usr/include/newlib/c++/9.2.1/cmath **** 
1081:/usr/include/newlib/c++/9.2.1/cmath ****   using ::cbrt;
1082:/usr/include/newlib/c++/9.2.1/cmath ****   using ::cbrtf;
1083:/usr/include/newlib/c++/9.2.1/cmath ****   using ::cbrtl;
1084:/usr/include/newlib/c++/9.2.1/cmath **** 
1085:/usr/include/newlib/c++/9.2.1/cmath ****   using ::copysign;
1086:/usr/include/newlib/c++/9.2.1/cmath ****   using ::copysignf;
1087:/usr/include/newlib/c++/9.2.1/cmath ****   using ::copysignl;
1088:/usr/include/newlib/c++/9.2.1/cmath **** 
1089:/usr/include/newlib/c++/9.2.1/cmath ****   using ::erf;
1090:/usr/include/newlib/c++/9.2.1/cmath ****   using ::erff;
1091:/usr/include/newlib/c++/9.2.1/cmath ****   using ::erfl;
1092:/usr/include/newlib/c++/9.2.1/cmath **** 
1093:/usr/include/newlib/c++/9.2.1/cmath ****   using ::erfc;
1094:/usr/include/newlib/c++/9.2.1/cmath ****   using ::erfcf;
1095:/usr/include/newlib/c++/9.2.1/cmath ****   using ::erfcl;
1096:/usr/include/newlib/c++/9.2.1/cmath **** 
1097:/usr/include/newlib/c++/9.2.1/cmath ****   using ::exp2;
1098:/usr/include/newlib/c++/9.2.1/cmath ****   using ::exp2f;
1099:/usr/include/newlib/c++/9.2.1/cmath ****   using ::exp2l;
1100:/usr/include/newlib/c++/9.2.1/cmath **** 
1101:/usr/include/newlib/c++/9.2.1/cmath ****   using ::expm1;
1102:/usr/include/newlib/c++/9.2.1/cmath ****   using ::expm1f;
1103:/usr/include/newlib/c++/9.2.1/cmath ****   using ::expm1l;
1104:/usr/include/newlib/c++/9.2.1/cmath **** 
1105:/usr/include/newlib/c++/9.2.1/cmath ****   using ::fdim;
1106:/usr/include/newlib/c++/9.2.1/cmath ****   using ::fdimf;
1107:/usr/include/newlib/c++/9.2.1/cmath ****   using ::fdiml;
1108:/usr/include/newlib/c++/9.2.1/cmath **** 
1109:/usr/include/newlib/c++/9.2.1/cmath ****   using ::fma;
1110:/usr/include/newlib/c++/9.2.1/cmath ****   using ::fmaf;
1111:/usr/include/newlib/c++/9.2.1/cmath ****   using ::fmal;
1112:/usr/include/newlib/c++/9.2.1/cmath **** 
1113:/usr/include/newlib/c++/9.2.1/cmath ****   using ::fmax;
1114:/usr/include/newlib/c++/9.2.1/cmath ****   using ::fmaxf;
1115:/usr/include/newlib/c++/9.2.1/cmath ****   using ::fmaxl;
1116:/usr/include/newlib/c++/9.2.1/cmath **** 
1117:/usr/include/newlib/c++/9.2.1/cmath ****   using ::fmin;
1118:/usr/include/newlib/c++/9.2.1/cmath ****   using ::fminf;
1119:/usr/include/newlib/c++/9.2.1/cmath ****   using ::fminl;
1120:/usr/include/newlib/c++/9.2.1/cmath **** 
1121:/usr/include/newlib/c++/9.2.1/cmath ****   using ::hypot;
1122:/usr/include/newlib/c++/9.2.1/cmath ****   using ::hypotf;
1123:/usr/include/newlib/c++/9.2.1/cmath ****   using ::hypotl;
1124:/usr/include/newlib/c++/9.2.1/cmath **** 
1125:/usr/include/newlib/c++/9.2.1/cmath ****   using ::ilogb;
1126:/usr/include/newlib/c++/9.2.1/cmath ****   using ::ilogbf;
1127:/usr/include/newlib/c++/9.2.1/cmath ****   using ::ilogbl;
1128:/usr/include/newlib/c++/9.2.1/cmath **** 
1129:/usr/include/newlib/c++/9.2.1/cmath ****   using ::lgamma;
1130:/usr/include/newlib/c++/9.2.1/cmath ****   using ::lgammaf;
1131:/usr/include/newlib/c++/9.2.1/cmath ****   using ::lgammal;
1132:/usr/include/newlib/c++/9.2.1/cmath **** 
1133:/usr/include/newlib/c++/9.2.1/cmath **** #ifndef _GLIBCXX_NO_C99_ROUNDING_FUNCS
ARM GAS  /tmp/ccU9pGY3.s 			page 62


1134:/usr/include/newlib/c++/9.2.1/cmath ****   using ::llrint;
1135:/usr/include/newlib/c++/9.2.1/cmath ****   using ::llrintf;
1136:/usr/include/newlib/c++/9.2.1/cmath ****   using ::llrintl;
1137:/usr/include/newlib/c++/9.2.1/cmath **** 
1138:/usr/include/newlib/c++/9.2.1/cmath ****   using ::llround;
1139:/usr/include/newlib/c++/9.2.1/cmath ****   using ::llroundf;
1140:/usr/include/newlib/c++/9.2.1/cmath ****   using ::llroundl;
1141:/usr/include/newlib/c++/9.2.1/cmath **** #endif
1142:/usr/include/newlib/c++/9.2.1/cmath **** 
1143:/usr/include/newlib/c++/9.2.1/cmath ****   using ::log1p;
1144:/usr/include/newlib/c++/9.2.1/cmath ****   using ::log1pf;
1145:/usr/include/newlib/c++/9.2.1/cmath ****   using ::log1pl;
1146:/usr/include/newlib/c++/9.2.1/cmath **** 
1147:/usr/include/newlib/c++/9.2.1/cmath ****   using ::log2;
1148:/usr/include/newlib/c++/9.2.1/cmath ****   using ::log2f;
1149:/usr/include/newlib/c++/9.2.1/cmath ****   using ::log2l;
1150:/usr/include/newlib/c++/9.2.1/cmath **** 
1151:/usr/include/newlib/c++/9.2.1/cmath ****   using ::logb;
1152:/usr/include/newlib/c++/9.2.1/cmath ****   using ::logbf;
1153:/usr/include/newlib/c++/9.2.1/cmath ****   using ::logbl;
1154:/usr/include/newlib/c++/9.2.1/cmath **** 
1155:/usr/include/newlib/c++/9.2.1/cmath ****   using ::lrint;
1156:/usr/include/newlib/c++/9.2.1/cmath ****   using ::lrintf;
1157:/usr/include/newlib/c++/9.2.1/cmath ****   using ::lrintl;
1158:/usr/include/newlib/c++/9.2.1/cmath **** 
1159:/usr/include/newlib/c++/9.2.1/cmath ****   using ::lround;
1160:/usr/include/newlib/c++/9.2.1/cmath ****   using ::lroundf;
1161:/usr/include/newlib/c++/9.2.1/cmath ****   using ::lroundl;
1162:/usr/include/newlib/c++/9.2.1/cmath **** 
1163:/usr/include/newlib/c++/9.2.1/cmath ****   using ::nan;
1164:/usr/include/newlib/c++/9.2.1/cmath ****   using ::nanf;
1165:/usr/include/newlib/c++/9.2.1/cmath ****   using ::nanl;
1166:/usr/include/newlib/c++/9.2.1/cmath **** 
1167:/usr/include/newlib/c++/9.2.1/cmath ****   using ::nearbyint;
1168:/usr/include/newlib/c++/9.2.1/cmath ****   using ::nearbyintf;
1169:/usr/include/newlib/c++/9.2.1/cmath ****   using ::nearbyintl;
1170:/usr/include/newlib/c++/9.2.1/cmath **** 
1171:/usr/include/newlib/c++/9.2.1/cmath ****   using ::nextafter;
1172:/usr/include/newlib/c++/9.2.1/cmath ****   using ::nextafterf;
1173:/usr/include/newlib/c++/9.2.1/cmath ****   using ::nextafterl;
1174:/usr/include/newlib/c++/9.2.1/cmath **** 
1175:/usr/include/newlib/c++/9.2.1/cmath ****   using ::nexttoward;
1176:/usr/include/newlib/c++/9.2.1/cmath ****   using ::nexttowardf;
1177:/usr/include/newlib/c++/9.2.1/cmath ****   using ::nexttowardl;
1178:/usr/include/newlib/c++/9.2.1/cmath **** 
1179:/usr/include/newlib/c++/9.2.1/cmath ****   using ::remainder;
1180:/usr/include/newlib/c++/9.2.1/cmath ****   using ::remainderf;
1181:/usr/include/newlib/c++/9.2.1/cmath ****   using ::remainderl;
1182:/usr/include/newlib/c++/9.2.1/cmath **** 
1183:/usr/include/newlib/c++/9.2.1/cmath ****   using ::remquo;
1184:/usr/include/newlib/c++/9.2.1/cmath ****   using ::remquof;
1185:/usr/include/newlib/c++/9.2.1/cmath ****   using ::remquol;
1186:/usr/include/newlib/c++/9.2.1/cmath **** 
1187:/usr/include/newlib/c++/9.2.1/cmath ****   using ::rint;
1188:/usr/include/newlib/c++/9.2.1/cmath ****   using ::rintf;
1189:/usr/include/newlib/c++/9.2.1/cmath ****   using ::rintl;
1190:/usr/include/newlib/c++/9.2.1/cmath **** 
ARM GAS  /tmp/ccU9pGY3.s 			page 63


1191:/usr/include/newlib/c++/9.2.1/cmath ****   using ::round;
1192:/usr/include/newlib/c++/9.2.1/cmath ****   using ::roundf;
1193:/usr/include/newlib/c++/9.2.1/cmath ****   using ::roundl;
1194:/usr/include/newlib/c++/9.2.1/cmath **** 
1195:/usr/include/newlib/c++/9.2.1/cmath ****   using ::scalbln;
1196:/usr/include/newlib/c++/9.2.1/cmath ****   using ::scalblnf;
1197:/usr/include/newlib/c++/9.2.1/cmath ****   using ::scalblnl;
1198:/usr/include/newlib/c++/9.2.1/cmath **** 
1199:/usr/include/newlib/c++/9.2.1/cmath ****   using ::scalbn;
1200:/usr/include/newlib/c++/9.2.1/cmath ****   using ::scalbnf;
1201:/usr/include/newlib/c++/9.2.1/cmath ****   using ::scalbnl;
1202:/usr/include/newlib/c++/9.2.1/cmath **** 
1203:/usr/include/newlib/c++/9.2.1/cmath ****   using ::tgamma;
1204:/usr/include/newlib/c++/9.2.1/cmath ****   using ::tgammaf;
1205:/usr/include/newlib/c++/9.2.1/cmath ****   using ::tgammal;
1206:/usr/include/newlib/c++/9.2.1/cmath **** 
1207:/usr/include/newlib/c++/9.2.1/cmath ****   using ::trunc;
1208:/usr/include/newlib/c++/9.2.1/cmath ****   using ::truncf;
1209:/usr/include/newlib/c++/9.2.1/cmath ****   using ::truncl;
1210:/usr/include/newlib/c++/9.2.1/cmath **** 
1211:/usr/include/newlib/c++/9.2.1/cmath ****   /// Additional overloads.
1212:/usr/include/newlib/c++/9.2.1/cmath **** #ifndef __CORRECT_ISO_CPP11_MATH_H_PROTO_FP
1213:/usr/include/newlib/c++/9.2.1/cmath ****   constexpr float
1214:/usr/include/newlib/c++/9.2.1/cmath ****   acosh(float __x)
1215:/usr/include/newlib/c++/9.2.1/cmath ****   { return __builtin_acoshf(__x); }
1216:/usr/include/newlib/c++/9.2.1/cmath **** 
1217:/usr/include/newlib/c++/9.2.1/cmath ****   constexpr long double
1218:/usr/include/newlib/c++/9.2.1/cmath ****   acosh(long double __x)
1219:/usr/include/newlib/c++/9.2.1/cmath ****   { return __builtin_acoshl(__x); }
1220:/usr/include/newlib/c++/9.2.1/cmath **** #endif
1221:/usr/include/newlib/c++/9.2.1/cmath **** 
1222:/usr/include/newlib/c++/9.2.1/cmath **** #ifndef __CORRECT_ISO_CPP11_MATH_H_PROTO_INT
1223:/usr/include/newlib/c++/9.2.1/cmath ****   template<typename _Tp>
1224:/usr/include/newlib/c++/9.2.1/cmath ****     constexpr typename __gnu_cxx::__enable_if<__is_integer<_Tp>::__value, 
1225:/usr/include/newlib/c++/9.2.1/cmath ****                                               double>::__type
1226:/usr/include/newlib/c++/9.2.1/cmath ****     acosh(_Tp __x)
1227:/usr/include/newlib/c++/9.2.1/cmath ****     { return __builtin_acosh(__x); }
1228:/usr/include/newlib/c++/9.2.1/cmath **** #endif
1229:/usr/include/newlib/c++/9.2.1/cmath **** 
1230:/usr/include/newlib/c++/9.2.1/cmath **** #ifndef __CORRECT_ISO_CPP11_MATH_H_PROTO_FP
1231:/usr/include/newlib/c++/9.2.1/cmath ****   constexpr float
1232:/usr/include/newlib/c++/9.2.1/cmath ****   asinh(float __x)
1233:/usr/include/newlib/c++/9.2.1/cmath ****   { return __builtin_asinhf(__x); }
1234:/usr/include/newlib/c++/9.2.1/cmath **** 
1235:/usr/include/newlib/c++/9.2.1/cmath ****   constexpr long double
1236:/usr/include/newlib/c++/9.2.1/cmath ****   asinh(long double __x)
1237:/usr/include/newlib/c++/9.2.1/cmath ****   { return __builtin_asinhl(__x); }
1238:/usr/include/newlib/c++/9.2.1/cmath **** #endif
1239:/usr/include/newlib/c++/9.2.1/cmath **** 
1240:/usr/include/newlib/c++/9.2.1/cmath **** #ifndef __CORRECT_ISO_CPP11_MATH_H_PROTO_INT
1241:/usr/include/newlib/c++/9.2.1/cmath ****   template<typename _Tp>
1242:/usr/include/newlib/c++/9.2.1/cmath ****     constexpr typename __gnu_cxx::__enable_if<__is_integer<_Tp>::__value, 
1243:/usr/include/newlib/c++/9.2.1/cmath ****                                               double>::__type
1244:/usr/include/newlib/c++/9.2.1/cmath ****     asinh(_Tp __x)
1245:/usr/include/newlib/c++/9.2.1/cmath ****     { return __builtin_asinh(__x); }
1246:/usr/include/newlib/c++/9.2.1/cmath **** #endif
1247:/usr/include/newlib/c++/9.2.1/cmath **** 
ARM GAS  /tmp/ccU9pGY3.s 			page 64


1248:/usr/include/newlib/c++/9.2.1/cmath **** #ifndef __CORRECT_ISO_CPP11_MATH_H_PROTO_FP
1249:/usr/include/newlib/c++/9.2.1/cmath ****   constexpr float
1250:/usr/include/newlib/c++/9.2.1/cmath ****   atanh(float __x)
1251:/usr/include/newlib/c++/9.2.1/cmath ****   { return __builtin_atanhf(__x); }
1252:/usr/include/newlib/c++/9.2.1/cmath **** 
1253:/usr/include/newlib/c++/9.2.1/cmath ****   constexpr long double
1254:/usr/include/newlib/c++/9.2.1/cmath ****   atanh(long double __x)
1255:/usr/include/newlib/c++/9.2.1/cmath ****   { return __builtin_atanhl(__x); }
1256:/usr/include/newlib/c++/9.2.1/cmath **** #endif
1257:/usr/include/newlib/c++/9.2.1/cmath **** 
1258:/usr/include/newlib/c++/9.2.1/cmath **** #ifndef __CORRECT_ISO_CPP11_MATH_H_PROTO_INT
1259:/usr/include/newlib/c++/9.2.1/cmath ****   template<typename _Tp>
1260:/usr/include/newlib/c++/9.2.1/cmath ****     constexpr typename __gnu_cxx::__enable_if<__is_integer<_Tp>::__value, 
1261:/usr/include/newlib/c++/9.2.1/cmath ****                                               double>::__type
1262:/usr/include/newlib/c++/9.2.1/cmath ****     atanh(_Tp __x)
1263:/usr/include/newlib/c++/9.2.1/cmath ****     { return __builtin_atanh(__x); }
1264:/usr/include/newlib/c++/9.2.1/cmath **** #endif
1265:/usr/include/newlib/c++/9.2.1/cmath **** 
1266:/usr/include/newlib/c++/9.2.1/cmath **** #ifndef __CORRECT_ISO_CPP11_MATH_H_PROTO_FP
1267:/usr/include/newlib/c++/9.2.1/cmath ****   constexpr float
1268:/usr/include/newlib/c++/9.2.1/cmath ****   cbrt(float __x)
1269:/usr/include/newlib/c++/9.2.1/cmath ****   { return __builtin_cbrtf(__x); }
1270:/usr/include/newlib/c++/9.2.1/cmath **** 
1271:/usr/include/newlib/c++/9.2.1/cmath ****   constexpr long double
1272:/usr/include/newlib/c++/9.2.1/cmath ****   cbrt(long double __x)
1273:/usr/include/newlib/c++/9.2.1/cmath ****   { return __builtin_cbrtl(__x); }
1274:/usr/include/newlib/c++/9.2.1/cmath **** #endif
1275:/usr/include/newlib/c++/9.2.1/cmath **** 
1276:/usr/include/newlib/c++/9.2.1/cmath **** #ifndef __CORRECT_ISO_CPP11_MATH_H_PROTO_INT
1277:/usr/include/newlib/c++/9.2.1/cmath ****   template<typename _Tp>
1278:/usr/include/newlib/c++/9.2.1/cmath ****     constexpr typename __gnu_cxx::__enable_if<__is_integer<_Tp>::__value, 
1279:/usr/include/newlib/c++/9.2.1/cmath ****                                               double>::__type
1280:/usr/include/newlib/c++/9.2.1/cmath ****     cbrt(_Tp __x)
1281:/usr/include/newlib/c++/9.2.1/cmath ****     { return __builtin_cbrt(__x); }
1282:/usr/include/newlib/c++/9.2.1/cmath **** #endif
1283:/usr/include/newlib/c++/9.2.1/cmath **** 
1284:/usr/include/newlib/c++/9.2.1/cmath **** #ifndef __CORRECT_ISO_CPP11_MATH_H_PROTO_FP
1285:/usr/include/newlib/c++/9.2.1/cmath ****   constexpr float
1286:/usr/include/newlib/c++/9.2.1/cmath ****   copysign(float __x, float __y)
1287:/usr/include/newlib/c++/9.2.1/cmath ****   { return __builtin_copysignf(__x, __y); }
1288:/usr/include/newlib/c++/9.2.1/cmath **** 
1289:/usr/include/newlib/c++/9.2.1/cmath ****   constexpr long double
1290:/usr/include/newlib/c++/9.2.1/cmath ****   copysign(long double __x, long double __y)
1291:/usr/include/newlib/c++/9.2.1/cmath ****   { return __builtin_copysignl(__x, __y); }
1292:/usr/include/newlib/c++/9.2.1/cmath **** #endif
1293:/usr/include/newlib/c++/9.2.1/cmath **** 
1294:/usr/include/newlib/c++/9.2.1/cmath **** #ifndef __CORRECT_ISO_CPP11_MATH_H_PROTO_INT
1295:/usr/include/newlib/c++/9.2.1/cmath ****   template<typename _Tp, typename _Up>
1296:/usr/include/newlib/c++/9.2.1/cmath ****     constexpr typename __gnu_cxx::__promote_2<_Tp, _Up>::__type
1297:/usr/include/newlib/c++/9.2.1/cmath ****     copysign(_Tp __x, _Up __y)
1298:/usr/include/newlib/c++/9.2.1/cmath ****     {
1299:/usr/include/newlib/c++/9.2.1/cmath ****       typedef typename __gnu_cxx::__promote_2<_Tp, _Up>::__type __type;
1300:/usr/include/newlib/c++/9.2.1/cmath ****       return copysign(__type(__x), __type(__y));
1301:/usr/include/newlib/c++/9.2.1/cmath ****     }
1302:/usr/include/newlib/c++/9.2.1/cmath **** #endif
1303:/usr/include/newlib/c++/9.2.1/cmath **** 
1304:/usr/include/newlib/c++/9.2.1/cmath **** #ifndef __CORRECT_ISO_CPP11_MATH_H_PROTO_FP
ARM GAS  /tmp/ccU9pGY3.s 			page 65


1305:/usr/include/newlib/c++/9.2.1/cmath ****   constexpr float
1306:/usr/include/newlib/c++/9.2.1/cmath ****   erf(float __x)
1307:/usr/include/newlib/c++/9.2.1/cmath ****   { return __builtin_erff(__x); }
1308:/usr/include/newlib/c++/9.2.1/cmath **** 
1309:/usr/include/newlib/c++/9.2.1/cmath ****   constexpr long double
1310:/usr/include/newlib/c++/9.2.1/cmath ****   erf(long double __x)
1311:/usr/include/newlib/c++/9.2.1/cmath ****   { return __builtin_erfl(__x); }
1312:/usr/include/newlib/c++/9.2.1/cmath **** #endif
1313:/usr/include/newlib/c++/9.2.1/cmath **** 
1314:/usr/include/newlib/c++/9.2.1/cmath **** #ifndef __CORRECT_ISO_CPP11_MATH_H_PROTO_INT
1315:/usr/include/newlib/c++/9.2.1/cmath ****   template<typename _Tp>
1316:/usr/include/newlib/c++/9.2.1/cmath ****     constexpr typename __gnu_cxx::__enable_if<__is_integer<_Tp>::__value, 
1317:/usr/include/newlib/c++/9.2.1/cmath ****                                               double>::__type
1318:/usr/include/newlib/c++/9.2.1/cmath ****     erf(_Tp __x)
1319:/usr/include/newlib/c++/9.2.1/cmath ****     { return __builtin_erf(__x); }
1320:/usr/include/newlib/c++/9.2.1/cmath **** #endif
1321:/usr/include/newlib/c++/9.2.1/cmath **** 
1322:/usr/include/newlib/c++/9.2.1/cmath **** #ifndef __CORRECT_ISO_CPP11_MATH_H_PROTO_FP
1323:/usr/include/newlib/c++/9.2.1/cmath ****   constexpr float
1324:/usr/include/newlib/c++/9.2.1/cmath ****   erfc(float __x)
1325:/usr/include/newlib/c++/9.2.1/cmath ****   { return __builtin_erfcf(__x); }
1326:/usr/include/newlib/c++/9.2.1/cmath **** 
1327:/usr/include/newlib/c++/9.2.1/cmath ****   constexpr long double
1328:/usr/include/newlib/c++/9.2.1/cmath ****   erfc(long double __x)
1329:/usr/include/newlib/c++/9.2.1/cmath ****   { return __builtin_erfcl(__x); }
1330:/usr/include/newlib/c++/9.2.1/cmath **** #endif
1331:/usr/include/newlib/c++/9.2.1/cmath **** 
1332:/usr/include/newlib/c++/9.2.1/cmath **** #ifndef __CORRECT_ISO_CPP11_MATH_H_PROTO_INT
1333:/usr/include/newlib/c++/9.2.1/cmath ****   template<typename _Tp>
1334:/usr/include/newlib/c++/9.2.1/cmath ****     constexpr typename __gnu_cxx::__enable_if<__is_integer<_Tp>::__value, 
1335:/usr/include/newlib/c++/9.2.1/cmath ****                                               double>::__type
1336:/usr/include/newlib/c++/9.2.1/cmath ****     erfc(_Tp __x)
1337:/usr/include/newlib/c++/9.2.1/cmath ****     { return __builtin_erfc(__x); }
1338:/usr/include/newlib/c++/9.2.1/cmath **** #endif
1339:/usr/include/newlib/c++/9.2.1/cmath **** 
1340:/usr/include/newlib/c++/9.2.1/cmath **** #ifndef __CORRECT_ISO_CPP11_MATH_H_PROTO_FP
1341:/usr/include/newlib/c++/9.2.1/cmath ****   constexpr float
1342:/usr/include/newlib/c++/9.2.1/cmath ****   exp2(float __x)
1343:/usr/include/newlib/c++/9.2.1/cmath ****   { return __builtin_exp2f(__x); }
1344:/usr/include/newlib/c++/9.2.1/cmath **** 
1345:/usr/include/newlib/c++/9.2.1/cmath ****   constexpr long double
1346:/usr/include/newlib/c++/9.2.1/cmath ****   exp2(long double __x)
1347:/usr/include/newlib/c++/9.2.1/cmath ****   { return __builtin_exp2l(__x); }
1348:/usr/include/newlib/c++/9.2.1/cmath **** #endif
1349:/usr/include/newlib/c++/9.2.1/cmath **** 
1350:/usr/include/newlib/c++/9.2.1/cmath **** #ifndef __CORRECT_ISO_CPP11_MATH_H_PROTO_INT
1351:/usr/include/newlib/c++/9.2.1/cmath ****   template<typename _Tp>
1352:/usr/include/newlib/c++/9.2.1/cmath ****     constexpr typename __gnu_cxx::__enable_if<__is_integer<_Tp>::__value, 
1353:/usr/include/newlib/c++/9.2.1/cmath ****                                               double>::__type
1354:/usr/include/newlib/c++/9.2.1/cmath ****     exp2(_Tp __x)
1355:/usr/include/newlib/c++/9.2.1/cmath ****     { return __builtin_exp2(__x); }
1356:/usr/include/newlib/c++/9.2.1/cmath **** #endif
1357:/usr/include/newlib/c++/9.2.1/cmath **** 
1358:/usr/include/newlib/c++/9.2.1/cmath **** #ifndef __CORRECT_ISO_CPP11_MATH_H_PROTO_FP
1359:/usr/include/newlib/c++/9.2.1/cmath ****   constexpr float
1360:/usr/include/newlib/c++/9.2.1/cmath ****   expm1(float __x)
1361:/usr/include/newlib/c++/9.2.1/cmath ****   { return __builtin_expm1f(__x); }
ARM GAS  /tmp/ccU9pGY3.s 			page 66


1362:/usr/include/newlib/c++/9.2.1/cmath **** 
1363:/usr/include/newlib/c++/9.2.1/cmath ****   constexpr long double
1364:/usr/include/newlib/c++/9.2.1/cmath ****   expm1(long double __x)
1365:/usr/include/newlib/c++/9.2.1/cmath ****   { return __builtin_expm1l(__x); }
1366:/usr/include/newlib/c++/9.2.1/cmath **** #endif
1367:/usr/include/newlib/c++/9.2.1/cmath **** 
1368:/usr/include/newlib/c++/9.2.1/cmath **** #ifndef __CORRECT_ISO_CPP11_MATH_H_PROTO_INT
1369:/usr/include/newlib/c++/9.2.1/cmath ****   template<typename _Tp>
1370:/usr/include/newlib/c++/9.2.1/cmath ****     constexpr typename __gnu_cxx::__enable_if<__is_integer<_Tp>::__value, 
1371:/usr/include/newlib/c++/9.2.1/cmath ****                                               double>::__type
1372:/usr/include/newlib/c++/9.2.1/cmath ****     expm1(_Tp __x)
1373:/usr/include/newlib/c++/9.2.1/cmath ****     { return __builtin_expm1(__x); }
1374:/usr/include/newlib/c++/9.2.1/cmath **** #endif
1375:/usr/include/newlib/c++/9.2.1/cmath **** 
1376:/usr/include/newlib/c++/9.2.1/cmath **** #ifndef __CORRECT_ISO_CPP11_MATH_H_PROTO_FP
1377:/usr/include/newlib/c++/9.2.1/cmath ****   constexpr float
1378:/usr/include/newlib/c++/9.2.1/cmath ****   fdim(float __x, float __y)
1379:/usr/include/newlib/c++/9.2.1/cmath ****   { return __builtin_fdimf(__x, __y); }
1380:/usr/include/newlib/c++/9.2.1/cmath **** 
1381:/usr/include/newlib/c++/9.2.1/cmath ****   constexpr long double
1382:/usr/include/newlib/c++/9.2.1/cmath ****   fdim(long double __x, long double __y)
1383:/usr/include/newlib/c++/9.2.1/cmath ****   { return __builtin_fdiml(__x, __y); }
1384:/usr/include/newlib/c++/9.2.1/cmath **** #endif
1385:/usr/include/newlib/c++/9.2.1/cmath **** 
1386:/usr/include/newlib/c++/9.2.1/cmath **** #ifndef __CORRECT_ISO_CPP11_MATH_H_PROTO_INT
1387:/usr/include/newlib/c++/9.2.1/cmath ****   template<typename _Tp, typename _Up>
1388:/usr/include/newlib/c++/9.2.1/cmath ****     constexpr typename __gnu_cxx::__promote_2<_Tp, _Up>::__type
1389:/usr/include/newlib/c++/9.2.1/cmath ****     fdim(_Tp __x, _Up __y)
1390:/usr/include/newlib/c++/9.2.1/cmath ****     {
1391:/usr/include/newlib/c++/9.2.1/cmath ****       typedef typename __gnu_cxx::__promote_2<_Tp, _Up>::__type __type;
1392:/usr/include/newlib/c++/9.2.1/cmath ****       return fdim(__type(__x), __type(__y));
1393:/usr/include/newlib/c++/9.2.1/cmath ****     }
1394:/usr/include/newlib/c++/9.2.1/cmath **** #endif
1395:/usr/include/newlib/c++/9.2.1/cmath **** 
1396:/usr/include/newlib/c++/9.2.1/cmath **** #ifndef __CORRECT_ISO_CPP11_MATH_H_PROTO_FP
1397:/usr/include/newlib/c++/9.2.1/cmath ****   constexpr float
1398:/usr/include/newlib/c++/9.2.1/cmath ****   fma(float __x, float __y, float __z)
1399:/usr/include/newlib/c++/9.2.1/cmath ****   { return __builtin_fmaf(__x, __y, __z); }
1400:/usr/include/newlib/c++/9.2.1/cmath **** 
1401:/usr/include/newlib/c++/9.2.1/cmath ****   constexpr long double
1402:/usr/include/newlib/c++/9.2.1/cmath ****   fma(long double __x, long double __y, long double __z)
1403:/usr/include/newlib/c++/9.2.1/cmath ****   { return __builtin_fmal(__x, __y, __z); }
1404:/usr/include/newlib/c++/9.2.1/cmath **** #endif
1405:/usr/include/newlib/c++/9.2.1/cmath **** 
1406:/usr/include/newlib/c++/9.2.1/cmath **** #ifndef __CORRECT_ISO_CPP11_MATH_H_PROTO_INT
1407:/usr/include/newlib/c++/9.2.1/cmath ****   template<typename _Tp, typename _Up, typename _Vp>
1408:/usr/include/newlib/c++/9.2.1/cmath ****     constexpr typename __gnu_cxx::__promote_3<_Tp, _Up, _Vp>::__type
1409:/usr/include/newlib/c++/9.2.1/cmath ****     fma(_Tp __x, _Up __y, _Vp __z)
1410:/usr/include/newlib/c++/9.2.1/cmath ****     {
1411:/usr/include/newlib/c++/9.2.1/cmath ****       typedef typename __gnu_cxx::__promote_3<_Tp, _Up, _Vp>::__type __type;
1412:/usr/include/newlib/c++/9.2.1/cmath ****       return fma(__type(__x), __type(__y), __type(__z));
1413:/usr/include/newlib/c++/9.2.1/cmath ****     }
1414:/usr/include/newlib/c++/9.2.1/cmath **** #endif
1415:/usr/include/newlib/c++/9.2.1/cmath **** 
1416:/usr/include/newlib/c++/9.2.1/cmath **** #ifndef __CORRECT_ISO_CPP11_MATH_H_PROTO_FP
1417:/usr/include/newlib/c++/9.2.1/cmath ****   constexpr float
1418:/usr/include/newlib/c++/9.2.1/cmath ****   fmax(float __x, float __y)
ARM GAS  /tmp/ccU9pGY3.s 			page 67


1419:/usr/include/newlib/c++/9.2.1/cmath ****   { return __builtin_fmaxf(__x, __y); }
1420:/usr/include/newlib/c++/9.2.1/cmath **** 
1421:/usr/include/newlib/c++/9.2.1/cmath ****   constexpr long double
1422:/usr/include/newlib/c++/9.2.1/cmath ****   fmax(long double __x, long double __y)
1423:/usr/include/newlib/c++/9.2.1/cmath ****   { return __builtin_fmaxl(__x, __y); }
1424:/usr/include/newlib/c++/9.2.1/cmath **** #endif
1425:/usr/include/newlib/c++/9.2.1/cmath **** 
1426:/usr/include/newlib/c++/9.2.1/cmath **** #ifndef __CORRECT_ISO_CPP11_MATH_H_PROTO_INT
1427:/usr/include/newlib/c++/9.2.1/cmath ****   template<typename _Tp, typename _Up>
1428:/usr/include/newlib/c++/9.2.1/cmath ****     constexpr typename __gnu_cxx::__promote_2<_Tp, _Up>::__type
1429:/usr/include/newlib/c++/9.2.1/cmath ****     fmax(_Tp __x, _Up __y)
1430:/usr/include/newlib/c++/9.2.1/cmath ****     {
1431:/usr/include/newlib/c++/9.2.1/cmath ****       typedef typename __gnu_cxx::__promote_2<_Tp, _Up>::__type __type;
1432:/usr/include/newlib/c++/9.2.1/cmath ****       return fmax(__type(__x), __type(__y));
1433:/usr/include/newlib/c++/9.2.1/cmath ****     }
1434:/usr/include/newlib/c++/9.2.1/cmath **** #endif
1435:/usr/include/newlib/c++/9.2.1/cmath **** 
1436:/usr/include/newlib/c++/9.2.1/cmath **** #ifndef __CORRECT_ISO_CPP11_MATH_H_PROTO_FP
1437:/usr/include/newlib/c++/9.2.1/cmath ****   constexpr float
1438:/usr/include/newlib/c++/9.2.1/cmath ****   fmin(float __x, float __y)
1439:/usr/include/newlib/c++/9.2.1/cmath ****   { return __builtin_fminf(__x, __y); }
1440:/usr/include/newlib/c++/9.2.1/cmath **** 
1441:/usr/include/newlib/c++/9.2.1/cmath ****   constexpr long double
1442:/usr/include/newlib/c++/9.2.1/cmath ****   fmin(long double __x, long double __y)
1443:/usr/include/newlib/c++/9.2.1/cmath ****   { return __builtin_fminl(__x, __y); }
1444:/usr/include/newlib/c++/9.2.1/cmath **** #endif
1445:/usr/include/newlib/c++/9.2.1/cmath **** 
1446:/usr/include/newlib/c++/9.2.1/cmath **** #ifndef __CORRECT_ISO_CPP11_MATH_H_PROTO_INT
1447:/usr/include/newlib/c++/9.2.1/cmath ****   template<typename _Tp, typename _Up>
1448:/usr/include/newlib/c++/9.2.1/cmath ****     constexpr typename __gnu_cxx::__promote_2<_Tp, _Up>::__type
1449:/usr/include/newlib/c++/9.2.1/cmath ****     fmin(_Tp __x, _Up __y)
1450:/usr/include/newlib/c++/9.2.1/cmath ****     {
1451:/usr/include/newlib/c++/9.2.1/cmath ****       typedef typename __gnu_cxx::__promote_2<_Tp, _Up>::__type __type;
1452:/usr/include/newlib/c++/9.2.1/cmath ****       return fmin(__type(__x), __type(__y));
1453:/usr/include/newlib/c++/9.2.1/cmath ****     }
1454:/usr/include/newlib/c++/9.2.1/cmath **** #endif
1455:/usr/include/newlib/c++/9.2.1/cmath **** 
1456:/usr/include/newlib/c++/9.2.1/cmath **** #ifndef __CORRECT_ISO_CPP11_MATH_H_PROTO_FP
1457:/usr/include/newlib/c++/9.2.1/cmath ****   constexpr float
1458:/usr/include/newlib/c++/9.2.1/cmath ****   hypot(float __x, float __y)
1459:/usr/include/newlib/c++/9.2.1/cmath ****   { return __builtin_hypotf(__x, __y); }
1460:/usr/include/newlib/c++/9.2.1/cmath **** 
1461:/usr/include/newlib/c++/9.2.1/cmath ****   constexpr long double
1462:/usr/include/newlib/c++/9.2.1/cmath ****   hypot(long double __x, long double __y)
1463:/usr/include/newlib/c++/9.2.1/cmath ****   { return __builtin_hypotl(__x, __y); }
1464:/usr/include/newlib/c++/9.2.1/cmath **** #endif
1465:/usr/include/newlib/c++/9.2.1/cmath **** 
1466:/usr/include/newlib/c++/9.2.1/cmath **** #ifndef __CORRECT_ISO_CPP11_MATH_H_PROTO_INT
1467:/usr/include/newlib/c++/9.2.1/cmath ****   template<typename _Tp, typename _Up>
1468:/usr/include/newlib/c++/9.2.1/cmath ****     constexpr typename __gnu_cxx::__promote_2<_Tp, _Up>::__type
1469:/usr/include/newlib/c++/9.2.1/cmath ****     hypot(_Tp __x, _Up __y)
1470:/usr/include/newlib/c++/9.2.1/cmath ****     {
1471:/usr/include/newlib/c++/9.2.1/cmath ****       typedef typename __gnu_cxx::__promote_2<_Tp, _Up>::__type __type;
1472:/usr/include/newlib/c++/9.2.1/cmath ****       return hypot(__type(__x), __type(__y));
1473:/usr/include/newlib/c++/9.2.1/cmath ****     }
1474:/usr/include/newlib/c++/9.2.1/cmath **** #endif
1475:/usr/include/newlib/c++/9.2.1/cmath **** 
ARM GAS  /tmp/ccU9pGY3.s 			page 68


1476:/usr/include/newlib/c++/9.2.1/cmath **** #ifndef __CORRECT_ISO_CPP11_MATH_H_PROTO_FP
1477:/usr/include/newlib/c++/9.2.1/cmath ****   constexpr int
1478:/usr/include/newlib/c++/9.2.1/cmath ****   ilogb(float __x)
1479:/usr/include/newlib/c++/9.2.1/cmath ****   { return __builtin_ilogbf(__x); }
1480:/usr/include/newlib/c++/9.2.1/cmath **** 
1481:/usr/include/newlib/c++/9.2.1/cmath ****   constexpr int
1482:/usr/include/newlib/c++/9.2.1/cmath ****   ilogb(long double __x)
1483:/usr/include/newlib/c++/9.2.1/cmath ****   { return __builtin_ilogbl(__x); }
1484:/usr/include/newlib/c++/9.2.1/cmath **** #endif
1485:/usr/include/newlib/c++/9.2.1/cmath **** 
1486:/usr/include/newlib/c++/9.2.1/cmath **** #ifndef __CORRECT_ISO_CPP11_MATH_H_PROTO_INT
1487:/usr/include/newlib/c++/9.2.1/cmath ****   template<typename _Tp>
1488:/usr/include/newlib/c++/9.2.1/cmath ****     constexpr
1489:/usr/include/newlib/c++/9.2.1/cmath ****     typename __gnu_cxx::__enable_if<__is_integer<_Tp>::__value, 
1490:/usr/include/newlib/c++/9.2.1/cmath ****                                     int>::__type
1491:/usr/include/newlib/c++/9.2.1/cmath ****     ilogb(_Tp __x)
1492:/usr/include/newlib/c++/9.2.1/cmath ****     { return __builtin_ilogb(__x); }
1493:/usr/include/newlib/c++/9.2.1/cmath **** #endif
1494:/usr/include/newlib/c++/9.2.1/cmath **** 
1495:/usr/include/newlib/c++/9.2.1/cmath **** #ifndef __CORRECT_ISO_CPP11_MATH_H_PROTO_FP
1496:/usr/include/newlib/c++/9.2.1/cmath ****   constexpr float
1497:/usr/include/newlib/c++/9.2.1/cmath ****   lgamma(float __x)
1498:/usr/include/newlib/c++/9.2.1/cmath ****   { return __builtin_lgammaf(__x); }
1499:/usr/include/newlib/c++/9.2.1/cmath **** 
1500:/usr/include/newlib/c++/9.2.1/cmath ****   constexpr long double
1501:/usr/include/newlib/c++/9.2.1/cmath ****   lgamma(long double __x)
1502:/usr/include/newlib/c++/9.2.1/cmath ****   { return __builtin_lgammal(__x); }
1503:/usr/include/newlib/c++/9.2.1/cmath **** #endif
1504:/usr/include/newlib/c++/9.2.1/cmath **** 
1505:/usr/include/newlib/c++/9.2.1/cmath **** #ifndef __CORRECT_ISO_CPP11_MATH_H_PROTO_INT
1506:/usr/include/newlib/c++/9.2.1/cmath ****   template<typename _Tp>
1507:/usr/include/newlib/c++/9.2.1/cmath ****     constexpr typename __gnu_cxx::__enable_if<__is_integer<_Tp>::__value, 
1508:/usr/include/newlib/c++/9.2.1/cmath ****                                               double>::__type
1509:/usr/include/newlib/c++/9.2.1/cmath ****     lgamma(_Tp __x)
1510:/usr/include/newlib/c++/9.2.1/cmath ****     { return __builtin_lgamma(__x); }
1511:/usr/include/newlib/c++/9.2.1/cmath **** #endif
1512:/usr/include/newlib/c++/9.2.1/cmath **** 
1513:/usr/include/newlib/c++/9.2.1/cmath **** #ifndef __CORRECT_ISO_CPP11_MATH_H_PROTO_FP
1514:/usr/include/newlib/c++/9.2.1/cmath ****   constexpr long long
1515:/usr/include/newlib/c++/9.2.1/cmath ****   llrint(float __x)
1516:/usr/include/newlib/c++/9.2.1/cmath ****   { return __builtin_llrintf(__x); }
1517:/usr/include/newlib/c++/9.2.1/cmath **** 
1518:/usr/include/newlib/c++/9.2.1/cmath ****   constexpr long long
1519:/usr/include/newlib/c++/9.2.1/cmath ****   llrint(long double __x)
1520:/usr/include/newlib/c++/9.2.1/cmath ****   { return __builtin_llrintl(__x); }
1521:/usr/include/newlib/c++/9.2.1/cmath **** #endif
1522:/usr/include/newlib/c++/9.2.1/cmath **** 
1523:/usr/include/newlib/c++/9.2.1/cmath **** #ifndef __CORRECT_ISO_CPP11_MATH_H_PROTO_INT
1524:/usr/include/newlib/c++/9.2.1/cmath ****   template<typename _Tp>
1525:/usr/include/newlib/c++/9.2.1/cmath ****     constexpr typename __gnu_cxx::__enable_if<__is_integer<_Tp>::__value, 
1526:/usr/include/newlib/c++/9.2.1/cmath ****                                               long long>::__type
1527:/usr/include/newlib/c++/9.2.1/cmath ****     llrint(_Tp __x)
1528:/usr/include/newlib/c++/9.2.1/cmath ****     { return __builtin_llrint(__x); }
1529:/usr/include/newlib/c++/9.2.1/cmath **** #endif
1530:/usr/include/newlib/c++/9.2.1/cmath **** 
1531:/usr/include/newlib/c++/9.2.1/cmath **** #ifndef __CORRECT_ISO_CPP11_MATH_H_PROTO_FP
1532:/usr/include/newlib/c++/9.2.1/cmath ****   constexpr long long
ARM GAS  /tmp/ccU9pGY3.s 			page 69


1533:/usr/include/newlib/c++/9.2.1/cmath ****   llround(float __x)
1534:/usr/include/newlib/c++/9.2.1/cmath ****   { return __builtin_llroundf(__x); }
1535:/usr/include/newlib/c++/9.2.1/cmath **** 
1536:/usr/include/newlib/c++/9.2.1/cmath ****   constexpr long long
1537:/usr/include/newlib/c++/9.2.1/cmath ****   llround(long double __x)
1538:/usr/include/newlib/c++/9.2.1/cmath ****   { return __builtin_llroundl(__x); }
1539:/usr/include/newlib/c++/9.2.1/cmath **** #endif
1540:/usr/include/newlib/c++/9.2.1/cmath **** 
1541:/usr/include/newlib/c++/9.2.1/cmath **** #ifndef __CORRECT_ISO_CPP11_MATH_H_PROTO_INT
1542:/usr/include/newlib/c++/9.2.1/cmath ****   template<typename _Tp>
1543:/usr/include/newlib/c++/9.2.1/cmath ****     constexpr typename __gnu_cxx::__enable_if<__is_integer<_Tp>::__value, 
1544:/usr/include/newlib/c++/9.2.1/cmath ****                                               long long>::__type
1545:/usr/include/newlib/c++/9.2.1/cmath ****     llround(_Tp __x)
1546:/usr/include/newlib/c++/9.2.1/cmath ****     { return __builtin_llround(__x); }
1547:/usr/include/newlib/c++/9.2.1/cmath **** #endif
1548:/usr/include/newlib/c++/9.2.1/cmath **** 
1549:/usr/include/newlib/c++/9.2.1/cmath **** #ifndef __CORRECT_ISO_CPP11_MATH_H_PROTO_FP
1550:/usr/include/newlib/c++/9.2.1/cmath ****   constexpr float
1551:/usr/include/newlib/c++/9.2.1/cmath ****   log1p(float __x)
1552:/usr/include/newlib/c++/9.2.1/cmath ****   { return __builtin_log1pf(__x); }
1553:/usr/include/newlib/c++/9.2.1/cmath **** 
1554:/usr/include/newlib/c++/9.2.1/cmath ****   constexpr long double
1555:/usr/include/newlib/c++/9.2.1/cmath ****   log1p(long double __x)
1556:/usr/include/newlib/c++/9.2.1/cmath ****   { return __builtin_log1pl(__x); }
1557:/usr/include/newlib/c++/9.2.1/cmath **** #endif
1558:/usr/include/newlib/c++/9.2.1/cmath **** 
1559:/usr/include/newlib/c++/9.2.1/cmath **** #ifndef __CORRECT_ISO_CPP11_MATH_H_PROTO_INT
1560:/usr/include/newlib/c++/9.2.1/cmath ****   template<typename _Tp>
1561:/usr/include/newlib/c++/9.2.1/cmath ****     constexpr typename __gnu_cxx::__enable_if<__is_integer<_Tp>::__value, 
1562:/usr/include/newlib/c++/9.2.1/cmath ****                                               double>::__type
1563:/usr/include/newlib/c++/9.2.1/cmath ****     log1p(_Tp __x)
1564:/usr/include/newlib/c++/9.2.1/cmath ****     { return __builtin_log1p(__x); }
1565:/usr/include/newlib/c++/9.2.1/cmath **** #endif
1566:/usr/include/newlib/c++/9.2.1/cmath **** 
1567:/usr/include/newlib/c++/9.2.1/cmath **** #ifndef __CORRECT_ISO_CPP11_MATH_H_PROTO_FP
1568:/usr/include/newlib/c++/9.2.1/cmath ****   // DR 568.
1569:/usr/include/newlib/c++/9.2.1/cmath ****   constexpr float
1570:/usr/include/newlib/c++/9.2.1/cmath ****   log2(float __x)
1571:/usr/include/newlib/c++/9.2.1/cmath ****   { return __builtin_log2f(__x); }
1572:/usr/include/newlib/c++/9.2.1/cmath **** 
1573:/usr/include/newlib/c++/9.2.1/cmath ****   constexpr long double
1574:/usr/include/newlib/c++/9.2.1/cmath ****   log2(long double __x)
1575:/usr/include/newlib/c++/9.2.1/cmath ****   { return __builtin_log2l(__x); }
1576:/usr/include/newlib/c++/9.2.1/cmath **** #endif
1577:/usr/include/newlib/c++/9.2.1/cmath **** 
1578:/usr/include/newlib/c++/9.2.1/cmath **** #ifndef __CORRECT_ISO_CPP11_MATH_H_PROTO_INT
1579:/usr/include/newlib/c++/9.2.1/cmath ****   template<typename _Tp>
1580:/usr/include/newlib/c++/9.2.1/cmath ****     constexpr typename __gnu_cxx::__enable_if<__is_integer<_Tp>::__value, 
1581:/usr/include/newlib/c++/9.2.1/cmath ****                                               double>::__type
1582:/usr/include/newlib/c++/9.2.1/cmath ****     log2(_Tp __x)
1583:/usr/include/newlib/c++/9.2.1/cmath ****     { return __builtin_log2(__x); }
1584:/usr/include/newlib/c++/9.2.1/cmath **** #endif
1585:/usr/include/newlib/c++/9.2.1/cmath **** 
1586:/usr/include/newlib/c++/9.2.1/cmath **** #ifndef __CORRECT_ISO_CPP11_MATH_H_PROTO_FP
1587:/usr/include/newlib/c++/9.2.1/cmath ****   constexpr float
1588:/usr/include/newlib/c++/9.2.1/cmath ****   logb(float __x)
1589:/usr/include/newlib/c++/9.2.1/cmath ****   { return __builtin_logbf(__x); }
ARM GAS  /tmp/ccU9pGY3.s 			page 70


1590:/usr/include/newlib/c++/9.2.1/cmath **** 
1591:/usr/include/newlib/c++/9.2.1/cmath ****   constexpr long double
1592:/usr/include/newlib/c++/9.2.1/cmath ****   logb(long double __x)
1593:/usr/include/newlib/c++/9.2.1/cmath ****   { return __builtin_logbl(__x); }
1594:/usr/include/newlib/c++/9.2.1/cmath **** #endif
1595:/usr/include/newlib/c++/9.2.1/cmath **** 
1596:/usr/include/newlib/c++/9.2.1/cmath **** #ifndef __CORRECT_ISO_CPP11_MATH_H_PROTO_INT
1597:/usr/include/newlib/c++/9.2.1/cmath ****   template<typename _Tp>
1598:/usr/include/newlib/c++/9.2.1/cmath ****     constexpr typename __gnu_cxx::__enable_if<__is_integer<_Tp>::__value, 
1599:/usr/include/newlib/c++/9.2.1/cmath ****                                               double>::__type
1600:/usr/include/newlib/c++/9.2.1/cmath ****     logb(_Tp __x)
1601:/usr/include/newlib/c++/9.2.1/cmath ****     { return __builtin_logb(__x); }
1602:/usr/include/newlib/c++/9.2.1/cmath **** #endif
1603:/usr/include/newlib/c++/9.2.1/cmath **** 
1604:/usr/include/newlib/c++/9.2.1/cmath **** #ifndef __CORRECT_ISO_CPP11_MATH_H_PROTO_FP
1605:/usr/include/newlib/c++/9.2.1/cmath ****   constexpr long
1606:/usr/include/newlib/c++/9.2.1/cmath ****   lrint(float __x)
1607:/usr/include/newlib/c++/9.2.1/cmath ****   { return __builtin_lrintf(__x); }
1608:/usr/include/newlib/c++/9.2.1/cmath **** 
1609:/usr/include/newlib/c++/9.2.1/cmath ****   constexpr long
1610:/usr/include/newlib/c++/9.2.1/cmath ****   lrint(long double __x)
1611:/usr/include/newlib/c++/9.2.1/cmath ****   { return __builtin_lrintl(__x); }
1612:/usr/include/newlib/c++/9.2.1/cmath **** #endif
1613:/usr/include/newlib/c++/9.2.1/cmath **** 
1614:/usr/include/newlib/c++/9.2.1/cmath **** #ifndef __CORRECT_ISO_CPP11_MATH_H_PROTO_INT
1615:/usr/include/newlib/c++/9.2.1/cmath ****   template<typename _Tp>
1616:/usr/include/newlib/c++/9.2.1/cmath ****     constexpr typename __gnu_cxx::__enable_if<__is_integer<_Tp>::__value, 
1617:/usr/include/newlib/c++/9.2.1/cmath ****                                               long>::__type
1618:/usr/include/newlib/c++/9.2.1/cmath ****     lrint(_Tp __x)
1619:/usr/include/newlib/c++/9.2.1/cmath ****     { return __builtin_lrint(__x); }
1620:/usr/include/newlib/c++/9.2.1/cmath **** #endif
1621:/usr/include/newlib/c++/9.2.1/cmath **** 
1622:/usr/include/newlib/c++/9.2.1/cmath **** #ifndef __CORRECT_ISO_CPP11_MATH_H_PROTO_FP
1623:/usr/include/newlib/c++/9.2.1/cmath ****   constexpr long
1624:/usr/include/newlib/c++/9.2.1/cmath ****   lround(float __x)
1625:/usr/include/newlib/c++/9.2.1/cmath ****   { return __builtin_lroundf(__x); }
1626:/usr/include/newlib/c++/9.2.1/cmath **** 
1627:/usr/include/newlib/c++/9.2.1/cmath ****   constexpr long
1628:/usr/include/newlib/c++/9.2.1/cmath ****   lround(long double __x)
1629:/usr/include/newlib/c++/9.2.1/cmath ****   { return __builtin_lroundl(__x); }
1630:/usr/include/newlib/c++/9.2.1/cmath **** #endif
1631:/usr/include/newlib/c++/9.2.1/cmath **** 
1632:/usr/include/newlib/c++/9.2.1/cmath **** #ifndef __CORRECT_ISO_CPP11_MATH_H_PROTO_INT
1633:/usr/include/newlib/c++/9.2.1/cmath ****   template<typename _Tp>
1634:/usr/include/newlib/c++/9.2.1/cmath ****     constexpr typename __gnu_cxx::__enable_if<__is_integer<_Tp>::__value, 
1635:/usr/include/newlib/c++/9.2.1/cmath ****                                               long>::__type
1636:/usr/include/newlib/c++/9.2.1/cmath ****     lround(_Tp __x)
1637:/usr/include/newlib/c++/9.2.1/cmath ****     { return __builtin_lround(__x); }
1638:/usr/include/newlib/c++/9.2.1/cmath **** #endif
1639:/usr/include/newlib/c++/9.2.1/cmath **** 
1640:/usr/include/newlib/c++/9.2.1/cmath **** #ifndef __CORRECT_ISO_CPP11_MATH_H_PROTO_FP
1641:/usr/include/newlib/c++/9.2.1/cmath ****   constexpr float
1642:/usr/include/newlib/c++/9.2.1/cmath ****   nearbyint(float __x)
1643:/usr/include/newlib/c++/9.2.1/cmath ****   { return __builtin_nearbyintf(__x); }
1644:/usr/include/newlib/c++/9.2.1/cmath **** 
1645:/usr/include/newlib/c++/9.2.1/cmath ****   constexpr long double
1646:/usr/include/newlib/c++/9.2.1/cmath ****   nearbyint(long double __x)
ARM GAS  /tmp/ccU9pGY3.s 			page 71


1647:/usr/include/newlib/c++/9.2.1/cmath ****   { return __builtin_nearbyintl(__x); }
1648:/usr/include/newlib/c++/9.2.1/cmath **** #endif
1649:/usr/include/newlib/c++/9.2.1/cmath **** 
1650:/usr/include/newlib/c++/9.2.1/cmath **** #ifndef __CORRECT_ISO_CPP11_MATH_H_PROTO_INT
1651:/usr/include/newlib/c++/9.2.1/cmath ****   template<typename _Tp>
1652:/usr/include/newlib/c++/9.2.1/cmath ****     constexpr typename __gnu_cxx::__enable_if<__is_integer<_Tp>::__value, 
1653:/usr/include/newlib/c++/9.2.1/cmath ****                                               double>::__type
1654:/usr/include/newlib/c++/9.2.1/cmath ****     nearbyint(_Tp __x)
1655:/usr/include/newlib/c++/9.2.1/cmath ****     { return __builtin_nearbyint(__x); }
1656:/usr/include/newlib/c++/9.2.1/cmath **** #endif
1657:/usr/include/newlib/c++/9.2.1/cmath **** 
1658:/usr/include/newlib/c++/9.2.1/cmath **** #ifndef __CORRECT_ISO_CPP11_MATH_H_PROTO_FP
1659:/usr/include/newlib/c++/9.2.1/cmath ****   constexpr float
1660:/usr/include/newlib/c++/9.2.1/cmath ****   nextafter(float __x, float __y)
1661:/usr/include/newlib/c++/9.2.1/cmath ****   { return __builtin_nextafterf(__x, __y); }
1662:/usr/include/newlib/c++/9.2.1/cmath **** 
1663:/usr/include/newlib/c++/9.2.1/cmath ****   constexpr long double
1664:/usr/include/newlib/c++/9.2.1/cmath ****   nextafter(long double __x, long double __y)
1665:/usr/include/newlib/c++/9.2.1/cmath ****   { return __builtin_nextafterl(__x, __y); }
1666:/usr/include/newlib/c++/9.2.1/cmath **** #endif
1667:/usr/include/newlib/c++/9.2.1/cmath **** 
1668:/usr/include/newlib/c++/9.2.1/cmath **** #ifndef __CORRECT_ISO_CPP11_MATH_H_PROTO_INT
1669:/usr/include/newlib/c++/9.2.1/cmath ****   template<typename _Tp, typename _Up>
1670:/usr/include/newlib/c++/9.2.1/cmath ****     constexpr typename __gnu_cxx::__promote_2<_Tp, _Up>::__type
1671:/usr/include/newlib/c++/9.2.1/cmath ****     nextafter(_Tp __x, _Up __y)
1672:/usr/include/newlib/c++/9.2.1/cmath ****     {
1673:/usr/include/newlib/c++/9.2.1/cmath ****       typedef typename __gnu_cxx::__promote_2<_Tp, _Up>::__type __type;
1674:/usr/include/newlib/c++/9.2.1/cmath ****       return nextafter(__type(__x), __type(__y));
1675:/usr/include/newlib/c++/9.2.1/cmath ****     }
1676:/usr/include/newlib/c++/9.2.1/cmath **** #endif
1677:/usr/include/newlib/c++/9.2.1/cmath **** 
1678:/usr/include/newlib/c++/9.2.1/cmath **** #ifndef __CORRECT_ISO_CPP11_MATH_H_PROTO_FP
1679:/usr/include/newlib/c++/9.2.1/cmath ****   constexpr float
1680:/usr/include/newlib/c++/9.2.1/cmath ****   nexttoward(float __x, long double __y)
1681:/usr/include/newlib/c++/9.2.1/cmath ****   { return __builtin_nexttowardf(__x, __y); }
1682:/usr/include/newlib/c++/9.2.1/cmath **** 
1683:/usr/include/newlib/c++/9.2.1/cmath ****   constexpr long double
1684:/usr/include/newlib/c++/9.2.1/cmath ****   nexttoward(long double __x, long double __y)
1685:/usr/include/newlib/c++/9.2.1/cmath ****   { return __builtin_nexttowardl(__x, __y); }
1686:/usr/include/newlib/c++/9.2.1/cmath **** #endif
1687:/usr/include/newlib/c++/9.2.1/cmath **** 
1688:/usr/include/newlib/c++/9.2.1/cmath **** #ifndef __CORRECT_ISO_CPP11_MATH_H_PROTO_INT
1689:/usr/include/newlib/c++/9.2.1/cmath ****   template<typename _Tp>
1690:/usr/include/newlib/c++/9.2.1/cmath ****     constexpr typename __gnu_cxx::__enable_if<__is_integer<_Tp>::__value, 
1691:/usr/include/newlib/c++/9.2.1/cmath ****                                               double>::__type
1692:/usr/include/newlib/c++/9.2.1/cmath ****     nexttoward(_Tp __x, long double __y)
1693:/usr/include/newlib/c++/9.2.1/cmath ****     { return __builtin_nexttoward(__x, __y); }
1694:/usr/include/newlib/c++/9.2.1/cmath **** #endif
1695:/usr/include/newlib/c++/9.2.1/cmath **** 
1696:/usr/include/newlib/c++/9.2.1/cmath **** #ifndef __CORRECT_ISO_CPP11_MATH_H_PROTO_FP
1697:/usr/include/newlib/c++/9.2.1/cmath ****   constexpr float
1698:/usr/include/newlib/c++/9.2.1/cmath ****   remainder(float __x, float __y)
1699:/usr/include/newlib/c++/9.2.1/cmath ****   { return __builtin_remainderf(__x, __y); }
1700:/usr/include/newlib/c++/9.2.1/cmath **** 
1701:/usr/include/newlib/c++/9.2.1/cmath ****   constexpr long double
1702:/usr/include/newlib/c++/9.2.1/cmath ****   remainder(long double __x, long double __y)
1703:/usr/include/newlib/c++/9.2.1/cmath ****   { return __builtin_remainderl(__x, __y); }
ARM GAS  /tmp/ccU9pGY3.s 			page 72


1704:/usr/include/newlib/c++/9.2.1/cmath **** #endif
1705:/usr/include/newlib/c++/9.2.1/cmath **** 
1706:/usr/include/newlib/c++/9.2.1/cmath **** #ifndef __CORRECT_ISO_CPP11_MATH_H_PROTO_INT
1707:/usr/include/newlib/c++/9.2.1/cmath ****   template<typename _Tp, typename _Up>
1708:/usr/include/newlib/c++/9.2.1/cmath ****     constexpr typename __gnu_cxx::__promote_2<_Tp, _Up>::__type
1709:/usr/include/newlib/c++/9.2.1/cmath ****     remainder(_Tp __x, _Up __y)
1710:/usr/include/newlib/c++/9.2.1/cmath ****     {
1711:/usr/include/newlib/c++/9.2.1/cmath ****       typedef typename __gnu_cxx::__promote_2<_Tp, _Up>::__type __type;
1712:/usr/include/newlib/c++/9.2.1/cmath ****       return remainder(__type(__x), __type(__y));
1713:/usr/include/newlib/c++/9.2.1/cmath ****     }
1714:/usr/include/newlib/c++/9.2.1/cmath **** #endif
1715:/usr/include/newlib/c++/9.2.1/cmath **** 
1716:/usr/include/newlib/c++/9.2.1/cmath **** #ifndef __CORRECT_ISO_CPP11_MATH_H_PROTO_FP
1717:/usr/include/newlib/c++/9.2.1/cmath ****   inline float
1718:/usr/include/newlib/c++/9.2.1/cmath ****   remquo(float __x, float __y, int* __pquo)
1719:/usr/include/newlib/c++/9.2.1/cmath ****   { return __builtin_remquof(__x, __y, __pquo); }
1720:/usr/include/newlib/c++/9.2.1/cmath **** 
1721:/usr/include/newlib/c++/9.2.1/cmath ****   inline long double
1722:/usr/include/newlib/c++/9.2.1/cmath ****   remquo(long double __x, long double __y, int* __pquo)
1723:/usr/include/newlib/c++/9.2.1/cmath ****   { return __builtin_remquol(__x, __y, __pquo); }
1724:/usr/include/newlib/c++/9.2.1/cmath **** #endif
1725:/usr/include/newlib/c++/9.2.1/cmath **** 
1726:/usr/include/newlib/c++/9.2.1/cmath **** #ifndef __CORRECT_ISO_CPP11_MATH_H_PROTO_INT
1727:/usr/include/newlib/c++/9.2.1/cmath ****   template<typename _Tp, typename _Up>
1728:/usr/include/newlib/c++/9.2.1/cmath ****     inline typename __gnu_cxx::__promote_2<_Tp, _Up>::__type
1729:/usr/include/newlib/c++/9.2.1/cmath ****     remquo(_Tp __x, _Up __y, int* __pquo)
1730:/usr/include/newlib/c++/9.2.1/cmath ****     {
1731:/usr/include/newlib/c++/9.2.1/cmath ****       typedef typename __gnu_cxx::__promote_2<_Tp, _Up>::__type __type;
1732:/usr/include/newlib/c++/9.2.1/cmath ****       return remquo(__type(__x), __type(__y), __pquo);
1733:/usr/include/newlib/c++/9.2.1/cmath ****     }
1734:/usr/include/newlib/c++/9.2.1/cmath **** #endif
1735:/usr/include/newlib/c++/9.2.1/cmath **** 
1736:/usr/include/newlib/c++/9.2.1/cmath **** #ifndef __CORRECT_ISO_CPP11_MATH_H_PROTO_FP
1737:/usr/include/newlib/c++/9.2.1/cmath ****   constexpr float
1738:/usr/include/newlib/c++/9.2.1/cmath ****   rint(float __x)
1739:/usr/include/newlib/c++/9.2.1/cmath ****   { return __builtin_rintf(__x); }
1740:/usr/include/newlib/c++/9.2.1/cmath **** 
1741:/usr/include/newlib/c++/9.2.1/cmath ****   constexpr long double
1742:/usr/include/newlib/c++/9.2.1/cmath ****   rint(long double __x)
1743:/usr/include/newlib/c++/9.2.1/cmath ****   { return __builtin_rintl(__x); }
1744:/usr/include/newlib/c++/9.2.1/cmath **** #endif
1745:/usr/include/newlib/c++/9.2.1/cmath **** 
1746:/usr/include/newlib/c++/9.2.1/cmath **** #ifndef __CORRECT_ISO_CPP11_MATH_H_PROTO_INT
1747:/usr/include/newlib/c++/9.2.1/cmath ****   template<typename _Tp>
1748:/usr/include/newlib/c++/9.2.1/cmath ****     constexpr typename __gnu_cxx::__enable_if<__is_integer<_Tp>::__value, 
1749:/usr/include/newlib/c++/9.2.1/cmath ****                                               double>::__type
1750:/usr/include/newlib/c++/9.2.1/cmath ****     rint(_Tp __x)
1751:/usr/include/newlib/c++/9.2.1/cmath ****     { return __builtin_rint(__x); }
1752:/usr/include/newlib/c++/9.2.1/cmath **** #endif
1753:/usr/include/newlib/c++/9.2.1/cmath **** 
1754:/usr/include/newlib/c++/9.2.1/cmath **** #ifndef __CORRECT_ISO_CPP11_MATH_H_PROTO_FP
1755:/usr/include/newlib/c++/9.2.1/cmath ****   constexpr float
1756:/usr/include/newlib/c++/9.2.1/cmath ****   round(float __x)
 1246              		.loc 19 1756 3 view .LVU336
 1247              	.LBB584:
1757:/usr/include/newlib/c++/9.2.1/cmath ****   { return __builtin_roundf(__x); }
 1248              		.loc 19 1757 5 view .LVU337
ARM GAS  /tmp/ccU9pGY3.s 			page 73


 1249              	.LBE584:
 1250              	.LBE583:
 149:EuclideanDrums.cpp ****     int zeros = arrayLen - ones;
 1251              		.loc 18 149 27 is_stmt 0 view .LVU338
 1252 001c 07EE901A 		vmov	s15, r1	@ int
 1253 0020 B8EEE77A 		vcvt.f32.s32	s14, s15
 1254 0024 67EE007A 		vmul.f32	s15, s14, s0
 1255              	.LVL51:
 1256              	.LBB586:
 1257              	.LBB585:
 1258              		.loc 19 1757 28 view .LVU339
 1259 0028 F8FE677A 		vrinta.f32	s15, s15
 1260              	.LVL52:
 1261              		.loc 19 1757 28 view .LVU340
 1262              	.LBE585:
 1263              	.LBE586:
 149:EuclideanDrums.cpp ****     int zeros = arrayLen - ones;
 1264              		.loc 18 149 46 view .LVU341
 1265 002c FDEEE77A 		vcvt.s32.f32	s15, s15
 1266 0030 17EE905A 		vmov	r5, s15	@ int
 1267              	.LVL53:
 150:EuclideanDrums.cpp **** 
