ARM GAS  /tmp/ccrjAVS4.s 			page 1


   1              		.cpu cortex-m7
   2              		.eabi_attribute 28, 1
   3              		.eabi_attribute 20, 1
   4              		.eabi_attribute 21, 1
   5              		.eabi_attribute 23, 3
   6              		.eabi_attribute 24, 1
   7              		.eabi_attribute 25, 1
   8              		.eabi_attribute 26, 1
   9              		.eabi_attribute 30, 2
  10              		.eabi_attribute 34, 1
  11              		.eabi_attribute 18, 4
  12              		.file	"reverbsc.cpp"
  13              		.text
  14              	.Ltext0:
  15              		.cfi_sections	.debug_frame
  16              		.section	.text._ZN7daisysp5AdEnvD2Ev,"axG",%progbits,_ZN7daisysp5AdEnvD5Ev,comdat
  17              		.align	1
  18              		.p2align 2,,3
  19              		.weak	_ZN7daisysp5AdEnvD2Ev
  20              		.arch armv7e-m
  21              		.syntax unified
  22              		.thumb
  23              		.thumb_func
  24              		.fpu fpv5-d16
  26              	_ZN7daisysp5AdEnvD2Ev:
  27              	.LVL0:
  28              	.LFB548:
  29              		.file 1 "../../DaisySP/Source/Control/adenv.h"
   1:../../DaisySP/Source/Control/adenv.h **** #pragma once
   2:../../DaisySP/Source/Control/adenv.h **** #ifndef ADENV_H
   3:../../DaisySP/Source/Control/adenv.h **** #define ADENV_H
   4:../../DaisySP/Source/Control/adenv.h **** #include <stdint.h>
   5:../../DaisySP/Source/Control/adenv.h **** #ifdef __cplusplus
   6:../../DaisySP/Source/Control/adenv.h **** 
   7:../../DaisySP/Source/Control/adenv.h **** namespace daisysp
   8:../../DaisySP/Source/Control/adenv.h **** {
   9:../../DaisySP/Source/Control/adenv.h **** /** Distinct stages that the phase of the envelope can be located in.
  10:../../DaisySP/Source/Control/adenv.h ****     @see AdEnv
  11:../../DaisySP/Source/Control/adenv.h **** */
  12:../../DaisySP/Source/Control/adenv.h **** enum AdEnvSegment
  13:../../DaisySP/Source/Control/adenv.h **** {
  14:../../DaisySP/Source/Control/adenv.h ****     /** located at phase location 0, and not currently running */
  15:../../DaisySP/Source/Control/adenv.h ****     ADENV_SEG_IDLE,
  16:../../DaisySP/Source/Control/adenv.h ****     /** First segment of envelope where phase moves from MIN value to MAX value */
  17:../../DaisySP/Source/Control/adenv.h ****     ADENV_SEG_ATTACK,
  18:../../DaisySP/Source/Control/adenv.h ****     /** Second segment of envelope where phase moves from MAX to MIN value */
  19:../../DaisySP/Source/Control/adenv.h ****     ADENV_SEG_DECAY,
  20:../../DaisySP/Source/Control/adenv.h ****     /** The final segment of the envelope (currently decay) */
  21:../../DaisySP/Source/Control/adenv.h ****     ADENV_SEG_LAST,
  22:../../DaisySP/Source/Control/adenv.h **** };
  23:../../DaisySP/Source/Control/adenv.h **** 
  24:../../DaisySP/Source/Control/adenv.h **** /** Trigger-able envelope with adjustable min/max, and independent per-segment time control.
  25:../../DaisySP/Source/Control/adenv.h **** 
  26:../../DaisySP/Source/Control/adenv.h ****     \author shensley
  27:../../DaisySP/Source/Control/adenv.h ****     \todo - Add Cycling
  28:../../DaisySP/Source/Control/adenv.h ****     \todo - Implement Curve (its only linear for now).
  29:../../DaisySP/Source/Control/adenv.h ****     \todo - Maybe make this an ADsr_ that has AD/AR/Asr_ modes.
ARM GAS  /tmp/ccrjAVS4.s 			page 2


  30:../../DaisySP/Source/Control/adenv.h ****  */
  31:../../DaisySP/Source/Control/adenv.h **** class AdEnv
  32:../../DaisySP/Source/Control/adenv.h **** {
  33:../../DaisySP/Source/Control/adenv.h ****   public:
  34:../../DaisySP/Source/Control/adenv.h ****     AdEnv() {}
  35:../../DaisySP/Source/Control/adenv.h ****     ~AdEnv() {}
  30              		.loc 1 35 5 view -0
  31              		.cfi_startproc
  32              		@ args = 0, pretend = 0, frame = 0
  33              		@ frame_needed = 0, uses_anonymous_args = 0
  34              		@ link register save eliminated.
  35              		.loc 1 35 15 is_stmt 0 view .LVU1
  36 0000 7047     		bx	lr
  37              		.cfi_endproc
  38              	.LFE548:
  40              		.weak	_ZN7daisysp5AdEnvD1Ev
  41              		.thumb_set _ZN7daisysp5AdEnvD1Ev,_ZN7daisysp5AdEnvD2Ev
  42 0002 00BF     		.section	.text._ZN7daisysp10OscillatorD2Ev,"axG",%progbits,_ZN7daisysp10OscillatorD5Ev,comdat
  43              		.align	1
  44              		.p2align 2,,3
  45              		.weak	_ZN7daisysp10OscillatorD2Ev
  46              		.syntax unified
  47              		.thumb
  48              		.thumb_func
  49              		.fpu fpv5-d16
  51              	_ZN7daisysp10OscillatorD2Ev:
  52              	.LVL1:
  53              	.LFB2797:
  54              		.file 2 "../../DaisySP/Source/Synthesis/oscillator.h"
   1:../../DaisySP/Source/Synthesis/oscillator.h **** #pragma once
   2:../../DaisySP/Source/Synthesis/oscillator.h **** #ifndef DSY_OSCILLATOR_H
   3:../../DaisySP/Source/Synthesis/oscillator.h **** #define DSY_OSCILLATOR_H
   4:../../DaisySP/Source/Synthesis/oscillator.h **** #include <stdint.h>
   5:../../DaisySP/Source/Synthesis/oscillator.h **** #include "Utility/dsp.h"
   6:../../DaisySP/Source/Synthesis/oscillator.h **** #ifdef __cplusplus
   7:../../DaisySP/Source/Synthesis/oscillator.h **** 
   8:../../DaisySP/Source/Synthesis/oscillator.h **** namespace daisysp
   9:../../DaisySP/Source/Synthesis/oscillator.h **** {
  10:../../DaisySP/Source/Synthesis/oscillator.h **** /** Synthesis of several waveforms, including polyBLEP bandlimited waveforms.
  11:../../DaisySP/Source/Synthesis/oscillator.h **** */
  12:../../DaisySP/Source/Synthesis/oscillator.h **** class Oscillator
  13:../../DaisySP/Source/Synthesis/oscillator.h **** {
  14:../../DaisySP/Source/Synthesis/oscillator.h ****   public:
  15:../../DaisySP/Source/Synthesis/oscillator.h ****     Oscillator() {}
  16:../../DaisySP/Source/Synthesis/oscillator.h ****     ~Oscillator() {}
  55              		.loc 2 16 5 is_stmt 1 view -0
  56              		.cfi_startproc
  57              		@ args = 0, pretend = 0, frame = 0
  58              		@ frame_needed = 0, uses_anonymous_args = 0
  59              		@ link register save eliminated.
  60              		.loc 2 16 20 is_stmt 0 view .LVU3
  61 0000 7047     		bx	lr
  62              		.cfi_endproc
  63              	.LFE2797:
  65              		.weak	_ZN7daisysp10OscillatorD1Ev
  66              		.thumb_set _ZN7daisysp10OscillatorD1Ev,_ZN7daisysp10OscillatorD2Ev
  67 0002 00BF     		.section	.text._ZN7daisysp8ReverbScD2Ev,"axG",%progbits,_ZN7daisysp8ReverbScD5Ev,comdat
ARM GAS  /tmp/ccrjAVS4.s 			page 3


  68              		.align	1
  69              		.p2align 2,,3
  70              		.weak	_ZN7daisysp8ReverbScD2Ev
  71              		.syntax unified
  72              		.thumb
  73              		.thumb_func
  74              		.fpu fpv5-d16
  76              	_ZN7daisysp8ReverbScD2Ev:
  77              	.LVL2:
  78              	.LFB3000:
  79              		.file 3 "../../DaisySP/Source/Effects/reverbsc.h"
   1:../../DaisySP/Source/Effects/reverbsc.h **** #pragma once
   2:../../DaisySP/Source/Effects/reverbsc.h **** #ifndef DSYSP_REVERBSC_H
   3:../../DaisySP/Source/Effects/reverbsc.h **** #define DSYSP_REVERBSC_H
   4:../../DaisySP/Source/Effects/reverbsc.h **** 
   5:../../DaisySP/Source/Effects/reverbsc.h **** #define DSY_REVERBSC_MAX_SIZE 98936
   6:../../DaisySP/Source/Effects/reverbsc.h **** 
   7:../../DaisySP/Source/Effects/reverbsc.h **** namespace daisysp
   8:../../DaisySP/Source/Effects/reverbsc.h **** {
   9:../../DaisySP/Source/Effects/reverbsc.h **** /**Delay line for internal reverb use
  10:../../DaisySP/Source/Effects/reverbsc.h **** */
  11:../../DaisySP/Source/Effects/reverbsc.h **** typedef struct
  12:../../DaisySP/Source/Effects/reverbsc.h **** {
  13:../../DaisySP/Source/Effects/reverbsc.h ****     int    write_pos;         /**< write position */
  14:../../DaisySP/Source/Effects/reverbsc.h ****     int    buffer_size;       /**< buffer size */
  15:../../DaisySP/Source/Effects/reverbsc.h ****     int    read_pos;          /**< read position */
  16:../../DaisySP/Source/Effects/reverbsc.h ****     int    read_pos_frac;     /**< fractional component of read pos */
  17:../../DaisySP/Source/Effects/reverbsc.h ****     int    read_pos_frac_inc; /**< increment for fractional */
  18:../../DaisySP/Source/Effects/reverbsc.h ****     int    dummy;             /**<  dummy var */
  19:../../DaisySP/Source/Effects/reverbsc.h ****     int    seed_val;          /**< randseed */
  20:../../DaisySP/Source/Effects/reverbsc.h ****     int    rand_line_cnt;     /**< number of random lines */
  21:../../DaisySP/Source/Effects/reverbsc.h ****     float  filter_state;      /**< state of filter */
  22:../../DaisySP/Source/Effects/reverbsc.h ****     float *buf;               /**< buffer ptr */
  23:../../DaisySP/Source/Effects/reverbsc.h **** } ReverbScDl;
  24:../../DaisySP/Source/Effects/reverbsc.h **** 
  25:../../DaisySP/Source/Effects/reverbsc.h **** /** Stereo Reverb
  26:../../DaisySP/Source/Effects/reverbsc.h **** 
  27:../../DaisySP/Source/Effects/reverbsc.h **** Reverb SC:               Ported from csound/soundpipe
  28:../../DaisySP/Source/Effects/reverbsc.h **** 
  29:../../DaisySP/Source/Effects/reverbsc.h **** Original author(s):        Sean Costello, Istvan Varga
  30:../../DaisySP/Source/Effects/reverbsc.h **** 
  31:../../DaisySP/Source/Effects/reverbsc.h **** Year:                    1999, 2005
  32:../../DaisySP/Source/Effects/reverbsc.h **** 
  33:../../DaisySP/Source/Effects/reverbsc.h **** Ported to soundpipe by:  Paul Batchelor
  34:../../DaisySP/Source/Effects/reverbsc.h **** 
  35:../../DaisySP/Source/Effects/reverbsc.h **** Ported by:                Stephen Hensley
  36:../../DaisySP/Source/Effects/reverbsc.h **** */
  37:../../DaisySP/Source/Effects/reverbsc.h **** class ReverbSc
  38:../../DaisySP/Source/Effects/reverbsc.h **** {
  39:../../DaisySP/Source/Effects/reverbsc.h ****   public:
  40:../../DaisySP/Source/Effects/reverbsc.h ****     ReverbSc() {}
  41:../../DaisySP/Source/Effects/reverbsc.h ****     ~ReverbSc() {}
  80              		.loc 3 41 5 is_stmt 1 view -0
  81              		.cfi_startproc
  82              		@ args = 0, pretend = 0, frame = 0
  83              		@ frame_needed = 0, uses_anonymous_args = 0
  84              		@ link register save eliminated.
ARM GAS  /tmp/ccrjAVS4.s 			page 4


  85              		.loc 3 41 18 is_stmt 0 view .LVU5
  86 0000 7047     		bx	lr
  87              		.cfi_endproc
  88              	.LFE3000:
  90              		.weak	_ZN7daisysp8ReverbScD1Ev
  91              		.thumb_set _ZN7daisysp8ReverbScD1Ev,_ZN7daisysp8ReverbScD2Ev
  92 0002 00BF     		.section	.text._ZN7daisysp5MetroD2Ev,"axG",%progbits,_ZN7daisysp5MetroD5Ev,comdat
  93              		.align	1
  94              		.p2align 2,,3
  95              		.weak	_ZN7daisysp5MetroD2Ev
  96              		.syntax unified
  97              		.thumb
  98              		.thumb_func
  99              		.fpu fpv5-d16
 101              	_ZN7daisysp5MetroD2Ev:
 102              	.LVL3:
 103              	.LFB3332:
 104              		.file 4 "../../DaisySP/Source/Utility/metro.h"
   1:../../DaisySP/Source/Utility/metro.h **** #pragma once
   2:../../DaisySP/Source/Utility/metro.h **** #ifndef DSY_METRO_H
   3:../../DaisySP/Source/Utility/metro.h **** #define DSY_METRO_H
   4:../../DaisySP/Source/Utility/metro.h **** #include <stdint.h>
   5:../../DaisySP/Source/Utility/metro.h **** #ifdef __cplusplus
   6:../../DaisySP/Source/Utility/metro.h **** 
   7:../../DaisySP/Source/Utility/metro.h **** namespace daisysp
   8:../../DaisySP/Source/Utility/metro.h **** {
   9:../../DaisySP/Source/Utility/metro.h **** /** Creates a clock signal at a specific frequency.
  10:../../DaisySP/Source/Utility/metro.h **** */
  11:../../DaisySP/Source/Utility/metro.h **** class Metro
  12:../../DaisySP/Source/Utility/metro.h **** {
  13:../../DaisySP/Source/Utility/metro.h ****   public:
  14:../../DaisySP/Source/Utility/metro.h ****     Metro() {}
  15:../../DaisySP/Source/Utility/metro.h ****     ~Metro() {}
 105              		.loc 4 15 5 is_stmt 1 view -0
 106              		.cfi_startproc
 107              		@ args = 0, pretend = 0, frame = 0
 108              		@ frame_needed = 0, uses_anonymous_args = 0
 109              		@ link register save eliminated.
 110              		.loc 4 15 15 is_stmt 0 view .LVU7
 111 0000 7047     		bx	lr
 112              		.cfi_endproc
 113              	.LFE3332:
 115              		.weak	_ZN7daisysp5MetroD1Ev
 116              		.thumb_set _ZN7daisysp5MetroD1Ev,_ZN7daisysp5MetroD2Ev
 117 0002 00BF     		.section	.text._ZN5daisy9DaisySeedD2Ev,"axG",%progbits,_ZN5daisy9DaisySeedD5Ev,comdat
 118              		.align	1
 119              		.p2align 2,,3
 120              		.weak	_ZN5daisy9DaisySeedD2Ev
 121              		.syntax unified
 122              		.thumb
 123              		.thumb_func
 124              		.fpu fpv5-d16
 126              	_ZN5daisy9DaisySeedD2Ev:
 127              	.LVL4:
 128              	.LFB4207:
 129              		.file 5 "../../libdaisy/src/daisy_seed.h"
   1:../../libdaisy/src/daisy_seed.h **** #pragma once
ARM GAS  /tmp/ccrjAVS4.s 			page 5


   2:../../libdaisy/src/daisy_seed.h **** #ifndef DSY_SEED_H
   3:../../libdaisy/src/daisy_seed.h **** #define DSY_SEED_H
   4:../../libdaisy/src/daisy_seed.h **** 
   5:../../libdaisy/src/daisy_seed.h **** #include "daisy.h"
   6:../../libdaisy/src/daisy_seed.h **** 
   7:../../libdaisy/src/daisy_seed.h **** //Uncomment this out if you're still using the rev2 hardware
   8:../../libdaisy/src/daisy_seed.h **** //#define SEED_REV2
   9:../../libdaisy/src/daisy_seed.h **** 
  10:../../libdaisy/src/daisy_seed.h **** namespace daisy
  11:../../libdaisy/src/daisy_seed.h **** {
  12:../../libdaisy/src/daisy_seed.h **** /**
  13:../../libdaisy/src/daisy_seed.h ****    @brief This is the higher-level interface for the Daisy board. \n 
  14:../../libdaisy/src/daisy_seed.h ****     All basic peripheral configuration/initialization is setup here. \n
  15:../../libdaisy/src/daisy_seed.h **** 
  16:../../libdaisy/src/daisy_seed.h ****    @ingroup boards
  17:../../libdaisy/src/daisy_seed.h **** */
  18:../../libdaisy/src/daisy_seed.h **** class DaisySeed
  19:../../libdaisy/src/daisy_seed.h **** {
  20:../../libdaisy/src/daisy_seed.h ****   public:
  21:../../libdaisy/src/daisy_seed.h ****     DaisySeed() {}
  22:../../libdaisy/src/daisy_seed.h ****     ~DaisySeed() {}
 130              		.loc 5 22 5 is_stmt 1 view -0
 131              		.cfi_startproc
 132              		@ args = 0, pretend = 0, frame = 0
 133              		@ frame_needed = 0, uses_anonymous_args = 0
 134              		@ link register save eliminated.
 135              	.LBB93:
 136              	.LBI93:
 137              		.file 6 "../../libdaisy/src/sys/system.h"
   1:../../libdaisy/src/sys/system.h **** #ifndef DSY_SYSTEM_H
   2:../../libdaisy/src/sys/system.h **** #define DSY_SYSTEM_H
   3:../../libdaisy/src/sys/system.h **** 
   4:../../libdaisy/src/sys/system.h **** #ifndef UNIT_TEST // for unit tests, a dummy implementation is provided below
   5:../../libdaisy/src/sys/system.h **** 
   6:../../libdaisy/src/sys/system.h **** #include <cstdint>
   7:../../libdaisy/src/sys/system.h **** #include "per/tim.h"
   8:../../libdaisy/src/sys/system.h **** 
   9:../../libdaisy/src/sys/system.h **** namespace daisy
  10:../../libdaisy/src/sys/system.h **** {
  11:../../libdaisy/src/sys/system.h **** /** A handle for interacting with the Core System. 
  12:../../libdaisy/src/sys/system.h ****  ** This includes the Clock tree, MPU, global DMA initialization,
  13:../../libdaisy/src/sys/system.h ****  ** cache handling, and any other necessary global initiailzation
  14:../../libdaisy/src/sys/system.h ****  **
  15:../../libdaisy/src/sys/system.h ****  ** @author shensley
  16:../../libdaisy/src/sys/system.h ****  ** @addtogroup system
  17:../../libdaisy/src/sys/system.h ****  */
  18:../../libdaisy/src/sys/system.h **** class System
  19:../../libdaisy/src/sys/system.h **** {
  20:../../libdaisy/src/sys/system.h ****   public:
  21:../../libdaisy/src/sys/system.h ****     /** Contains settings for initializing the System */
  22:../../libdaisy/src/sys/system.h ****     struct Config
  23:../../libdaisy/src/sys/system.h ****     {
  24:../../libdaisy/src/sys/system.h ****         /** Specifies the system clock frequency that feeds APB/AHB clocks, etc. */
  25:../../libdaisy/src/sys/system.h ****         enum class SysClkFreq
  26:../../libdaisy/src/sys/system.h ****         {
  27:../../libdaisy/src/sys/system.h ****             FREQ_400MHZ,
  28:../../libdaisy/src/sys/system.h ****             FREQ_480MHZ,
ARM GAS  /tmp/ccrjAVS4.s 			page 6


  29:../../libdaisy/src/sys/system.h ****         };
  30:../../libdaisy/src/sys/system.h **** 
  31:../../libdaisy/src/sys/system.h ****         /** Method to call on the struct to set to defaults
  32:../../libdaisy/src/sys/system.h ****          ** CPU Freq set to 400MHz
  33:../../libdaisy/src/sys/system.h ****          ** Cache Enabled 
  34:../../libdaisy/src/sys/system.h ****          ** */
  35:../../libdaisy/src/sys/system.h ****         void Defaults()
  36:../../libdaisy/src/sys/system.h ****         {
  37:../../libdaisy/src/sys/system.h ****             cpu_freq   = SysClkFreq::FREQ_400MHZ;
  38:../../libdaisy/src/sys/system.h ****             use_dcache = true;
  39:../../libdaisy/src/sys/system.h ****             use_icache = true;
  40:../../libdaisy/src/sys/system.h ****         }
  41:../../libdaisy/src/sys/system.h **** 
  42:../../libdaisy/src/sys/system.h ****         /** Method to call on the struct to set to boost mode:
  43:../../libdaisy/src/sys/system.h ****          ** CPU Freq set to 480MHz
  44:../../libdaisy/src/sys/system.h ****          ** Cache Enabled 
  45:../../libdaisy/src/sys/system.h ****          ** */
  46:../../libdaisy/src/sys/system.h ****         void Boost()
  47:../../libdaisy/src/sys/system.h ****         {
  48:../../libdaisy/src/sys/system.h ****             cpu_freq   = SysClkFreq::FREQ_480MHZ;
  49:../../libdaisy/src/sys/system.h ****             use_dcache = true;
  50:../../libdaisy/src/sys/system.h ****             use_icache = true;
  51:../../libdaisy/src/sys/system.h ****         }
  52:../../libdaisy/src/sys/system.h **** 
  53:../../libdaisy/src/sys/system.h ****         SysClkFreq cpu_freq;
  54:../../libdaisy/src/sys/system.h ****         bool       use_dcache;
  55:../../libdaisy/src/sys/system.h ****         bool       use_icache;
  56:../../libdaisy/src/sys/system.h ****     };
  57:../../libdaisy/src/sys/system.h **** 
  58:../../libdaisy/src/sys/system.h ****     System() {}
  59:../../libdaisy/src/sys/system.h ****     ~System() {}
 138              		.loc 6 59 5 view .LVU9
 139              		.loc 6 59 5 is_stmt 0 view .LVU10
 140              	.LBE93:
 141              	.LBB94:
 142              	.LBI94:
 143              		.file 7 "../../libdaisy/src/hid/usb.h"
   1:../../libdaisy/src/hid/usb.h **** #pragma once
   2:../../libdaisy/src/hid/usb.h **** #ifndef DSY_HID_USB_H
   3:../../libdaisy/src/hid/usb.h **** #define DSY_HID_USB_H
   4:../../libdaisy/src/hid/usb.h **** #include <stdint.h>
   5:../../libdaisy/src/hid/usb.h **** #include <stdlib.h>
   6:../../libdaisy/src/hid/usb.h **** 
   7:../../libdaisy/src/hid/usb.h **** namespace daisy
   8:../../libdaisy/src/hid/usb.h **** /** @addtogroup externals
   9:../../libdaisy/src/hid/usb.h ****     @{
  10:../../libdaisy/src/hid/usb.h **** */
  11:../../libdaisy/src/hid/usb.h **** 
  12:../../libdaisy/src/hid/usb.h **** {
  13:../../libdaisy/src/hid/usb.h **** /** 
  14:../../libdaisy/src/hid/usb.h ****     @brief Interface for initializing and using the USB Peripherals on the daisy
  15:../../libdaisy/src/hid/usb.h ****     @author Stephen Hensley
  16:../../libdaisy/src/hid/usb.h ****     @date December 2019
  17:../../libdaisy/src/hid/usb.h **** */
  18:../../libdaisy/src/hid/usb.h **** class UsbHandle
  19:../../libdaisy/src/hid/usb.h **** {
  20:../../libdaisy/src/hid/usb.h ****   public:
ARM GAS  /tmp/ccrjAVS4.s 			page 7


  21:../../libdaisy/src/hid/usb.h ****     /** Return values for USBHandle Functions */
  22:../../libdaisy/src/hid/usb.h ****     enum class Result
  23:../../libdaisy/src/hid/usb.h ****     {
  24:../../libdaisy/src/hid/usb.h ****         OK,
  25:../../libdaisy/src/hid/usb.h ****         ERR,
  26:../../libdaisy/src/hid/usb.h ****     };
  27:../../libdaisy/src/hid/usb.h **** 
  28:../../libdaisy/src/hid/usb.h ****     /** Specified which of the two USB Peripherals to initialize. */
  29:../../libdaisy/src/hid/usb.h ****     enum UsbPeriph
  30:../../libdaisy/src/hid/usb.h ****     {
  31:../../libdaisy/src/hid/usb.h ****         FS_INTERNAL, /**< Internal pin */
  32:../../libdaisy/src/hid/usb.h ****         FS_EXTERNAL, /**< FS External D+ pin is Pin 38 (GPIO32). FS External D- pin is Pin 37 (GPIO
  33:../../libdaisy/src/hid/usb.h ****         FS_BOTH,     /**< Both */
  34:../../libdaisy/src/hid/usb.h ****     };
  35:../../libdaisy/src/hid/usb.h **** 
  36:../../libdaisy/src/hid/usb.h **** 
  37:../../libdaisy/src/hid/usb.h ****     /** Function called upon reception of a buffer */
  38:../../libdaisy/src/hid/usb.h ****     typedef void (*ReceiveCallback)(uint8_t* buff, uint32_t* len);
  39:../../libdaisy/src/hid/usb.h **** 
  40:../../libdaisy/src/hid/usb.h ****     UsbHandle() {}
  41:../../libdaisy/src/hid/usb.h **** 
  42:../../libdaisy/src/hid/usb.h ****     ~UsbHandle() {}
 144              		.loc 7 42 5 is_stmt 1 view .LVU11
 145              		.loc 7 42 5 is_stmt 0 view .LVU12
 146              	.LBE94:
 147              	.LBB95:
 148              	.LBI95:
 149              		.file 8 "../../libdaisy/src/per/adc.h"
   1:../../libdaisy/src/per/adc.h **** #pragma once
   2:../../libdaisy/src/per/adc.h **** #ifndef DSY_ADC_H
   3:../../libdaisy/src/per/adc.h **** #define DSY_ADC_H /**< Macro */
   4:../../libdaisy/src/per/adc.h **** #include <stdint.h>
   5:../../libdaisy/src/per/adc.h **** #include <stdlib.h>
   6:../../libdaisy/src/per/adc.h **** #include "daisy_core.h"
   7:../../libdaisy/src/per/adc.h **** #include "per/gpio.h"
   8:../../libdaisy/src/per/adc.h **** 
   9:../../libdaisy/src/per/adc.h **** #define DSY_ADC_MAX_CHANNELS 14 /**< Maximum number of ADC channels */
  10:../../libdaisy/src/per/adc.h **** 
  11:../../libdaisy/src/per/adc.h **** namespace daisy
  12:../../libdaisy/src/per/adc.h **** {
  13:../../libdaisy/src/per/adc.h **** /** @addtogroup analog_digital_conversion
  14:../../libdaisy/src/per/adc.h ****     @{
  15:../../libdaisy/src/per/adc.h **** */
  16:../../libdaisy/src/per/adc.h **** 
  17:../../libdaisy/src/per/adc.h **** /* While there may not be many configuration options here,
  18:../../libdaisy/src/per/adc.h **** using a struct like this allows us to add more configuration
  19:../../libdaisy/src/per/adc.h **** later without breaking existing functionality.
  20:../../libdaisy/src/per/adc.h **** */
  21:../../libdaisy/src/per/adc.h **** 
  22:../../libdaisy/src/per/adc.h **** /** Configuration Structure for a given channel */
  23:../../libdaisy/src/per/adc.h **** struct AdcChannelConfig
  24:../../libdaisy/src/per/adc.h **** {
  25:../../libdaisy/src/per/adc.h ****     /** Which pin to use for multiplexing */
  26:../../libdaisy/src/per/adc.h ****     enum MuxPin
  27:../../libdaisy/src/per/adc.h ****     {
  28:../../libdaisy/src/per/adc.h ****         MUX_SEL_0,    /**< & */
  29:../../libdaisy/src/per/adc.h ****         MUX_SEL_1,    /**< & */
ARM GAS  /tmp/ccrjAVS4.s 			page 8


  30:../../libdaisy/src/per/adc.h ****         MUX_SEL_2,    /**< & */
  31:../../libdaisy/src/per/adc.h ****         MUX_SEL_LAST, /**< & */
  32:../../libdaisy/src/per/adc.h ****     };
  33:../../libdaisy/src/per/adc.h **** 
  34:../../libdaisy/src/per/adc.h ****     /** Initializes a single ADC pin as an ADC. 
  35:../../libdaisy/src/per/adc.h ****     \param pin Pin to init.
  36:../../libdaisy/src/per/adc.h ****      */
  37:../../libdaisy/src/per/adc.h ****     void InitSingle(dsy_gpio_pin pin);
  38:../../libdaisy/src/per/adc.h **** 
  39:../../libdaisy/src/per/adc.h ****     /** 
  40:../../libdaisy/src/per/adc.h ****     Initializes a single ADC pin as a Multiplexed ADC.
  41:../../libdaisy/src/per/adc.h ****     Requires a CD405X Multiplexer connected to the pin.
  42:../../libdaisy/src/per/adc.h ****     You only need to supply the mux pins that are required,
  43:../../libdaisy/src/per/adc.h ****     e.g. a 4052 mux would only require mux_0 and mux_1.
  44:../../libdaisy/src/per/adc.h ****     Internal Callbacks handle the pin addressing.
  45:../../libdaisy/src/per/adc.h ****     \param mux_channels must be 1-8
  46:../../libdaisy/src/per/adc.h ****     \param mux_0 First mux pin
  47:../../libdaisy/src/per/adc.h ****     \param mux_1 Second mux pin
  48:../../libdaisy/src/per/adc.h ****     \param mux_2 Third mux pin
  49:../../libdaisy/src/per/adc.h ****     \param adc_pin &
  50:../../libdaisy/src/per/adc.h ****     */
  51:../../libdaisy/src/per/adc.h ****     void InitMux(dsy_gpio_pin adc_pin,
  52:../../libdaisy/src/per/adc.h ****                  size_t       mux_channels,
  53:../../libdaisy/src/per/adc.h ****                  dsy_gpio_pin mux_0,
  54:../../libdaisy/src/per/adc.h ****                  dsy_gpio_pin mux_1 = {DSY_GPIOX, 0},
  55:../../libdaisy/src/per/adc.h ****                  dsy_gpio_pin mux_2 = {DSY_GPIOX, 0});
  56:../../libdaisy/src/per/adc.h **** 
  57:../../libdaisy/src/per/adc.h ****     dsy_gpio pin_;                   /**< & */
  58:../../libdaisy/src/per/adc.h ****     dsy_gpio mux_pin_[MUX_SEL_LAST]; /**< & */
  59:../../libdaisy/src/per/adc.h ****     uint8_t  mux_channels_;          /**< & */
  60:../../libdaisy/src/per/adc.h **** };
  61:../../libdaisy/src/per/adc.h **** 
  62:../../libdaisy/src/per/adc.h **** /**
  63:../../libdaisy/src/per/adc.h ****    Handler for analog to digital conversion
  64:../../libdaisy/src/per/adc.h **** */
  65:../../libdaisy/src/per/adc.h **** class AdcHandle
  66:../../libdaisy/src/per/adc.h **** {
  67:../../libdaisy/src/per/adc.h ****   public:
  68:../../libdaisy/src/per/adc.h ****     /** Supported oversampling amounts */
  69:../../libdaisy/src/per/adc.h ****     enum OverSampling
  70:../../libdaisy/src/per/adc.h ****     {
  71:../../libdaisy/src/per/adc.h ****         OVS_NONE, /**< & */
  72:../../libdaisy/src/per/adc.h ****         OVS_4,    /**< & */
  73:../../libdaisy/src/per/adc.h ****         OVS_8,    /**< & */
  74:../../libdaisy/src/per/adc.h ****         OVS_16,   /**< & */
  75:../../libdaisy/src/per/adc.h ****         OVS_32,   /**< & */
  76:../../libdaisy/src/per/adc.h ****         OVS_64,   /**< & */
  77:../../libdaisy/src/per/adc.h ****         OVS_128,  /**< & */
  78:../../libdaisy/src/per/adc.h ****         OVS_256,  /**< & */
  79:../../libdaisy/src/per/adc.h ****         OVS_512,  /**< & */
  80:../../libdaisy/src/per/adc.h ****         OVS_1024, /**< & */
  81:../../libdaisy/src/per/adc.h ****         OVS_LAST, /**< & */
  82:../../libdaisy/src/per/adc.h ****     };
  83:../../libdaisy/src/per/adc.h **** 
  84:../../libdaisy/src/per/adc.h ****     AdcHandle() {}
  85:../../libdaisy/src/per/adc.h ****     ~AdcHandle() {}
 150              		.loc 8 85 5 is_stmt 1 view .LVU13
ARM GAS  /tmp/ccrjAVS4.s 			page 9


 151              		.loc 8 85 5 is_stmt 0 view .LVU14
 152              	.LBE95:
 153              	.LBB96:
 154              	.LBI96:
 155              		.file 9 "../../libdaisy/src/hid/audio.h"
   1:../../libdaisy/src/hid/audio.h **** #ifndef DSY_AUDIO_H
   2:../../libdaisy/src/hid/audio.h **** #define DSY_AUDIO_H /**< & */
   3:../../libdaisy/src/hid/audio.h **** 
   4:../../libdaisy/src/hid/audio.h **** #include "per/sai.h"
   5:../../libdaisy/src/hid/audio.h **** 
   6:../../libdaisy/src/hid/audio.h **** namespace daisy
   7:../../libdaisy/src/hid/audio.h **** {
   8:../../libdaisy/src/hid/audio.h **** class AudioHandle
   9:../../libdaisy/src/hid/audio.h **** {
  10:../../libdaisy/src/hid/audio.h ****   public:
  11:../../libdaisy/src/hid/audio.h ****     /** Manually configurable details about the Audio Engine */
  12:../../libdaisy/src/hid/audio.h ****     /** TODO: Figure out how to get samplerate in here. */
  13:../../libdaisy/src/hid/audio.h ****     struct Config
  14:../../libdaisy/src/hid/audio.h ****     {
  15:../../libdaisy/src/hid/audio.h ****         size_t                        blocksize;
  16:../../libdaisy/src/hid/audio.h ****         SaiHandle::Config::SampleRate samplerate;
  17:../../libdaisy/src/hid/audio.h ****         float                         postgain;
  18:../../libdaisy/src/hid/audio.h ****     };
  19:../../libdaisy/src/hid/audio.h **** 
  20:../../libdaisy/src/hid/audio.h ****     enum class Result
  21:../../libdaisy/src/hid/audio.h ****     {
  22:../../libdaisy/src/hid/audio.h ****         OK,
  23:../../libdaisy/src/hid/audio.h ****         ERR,
  24:../../libdaisy/src/hid/audio.h ****     };
  25:../../libdaisy/src/hid/audio.h **** 
  26:../../libdaisy/src/hid/audio.h ****     /** Non-Interleaving input buffer
  27:../../libdaisy/src/hid/audio.h ****      * Buffer arranged by float[chn][sample] 
  28:../../libdaisy/src/hid/audio.h ****      * const so that the user can't modify the input
  29:../../libdaisy/src/hid/audio.h ****     */
  30:../../libdaisy/src/hid/audio.h ****     typedef const float* const* InputBuffer;
  31:../../libdaisy/src/hid/audio.h **** 
  32:../../libdaisy/src/hid/audio.h ****     /** Non-Interleaving output buffer
  33:../../libdaisy/src/hid/audio.h ****      * Arranged by float[chn][sample] 
  34:../../libdaisy/src/hid/audio.h ****     */
  35:../../libdaisy/src/hid/audio.h ****     typedef float** OutputBuffer;
  36:../../libdaisy/src/hid/audio.h **** 
  37:../../libdaisy/src/hid/audio.h ****     /** Type for a Non-Interleaving audio callback 
  38:../../libdaisy/src/hid/audio.h ****    * Non-Interleaving audio callbacks in daisy will be of this type
  39:../../libdaisy/src/hid/audio.h ****   */
  40:../../libdaisy/src/hid/audio.h ****     typedef void (*AudioCallback)(InputBuffer  in,
  41:../../libdaisy/src/hid/audio.h ****                                   OutputBuffer out,
  42:../../libdaisy/src/hid/audio.h ****                                   size_t       size);
  43:../../libdaisy/src/hid/audio.h **** 
  44:../../libdaisy/src/hid/audio.h ****     /** Interleaving Input buffer
  45:../../libdaisy/src/hid/audio.h ****      ** audio is prepared as { L0, R0, L1, R1, . . . LN, RN }]
  46:../../libdaisy/src/hid/audio.h ****      ** this is const, as the user shouldn't modify it
  47:../../libdaisy/src/hid/audio.h ****     */
  48:../../libdaisy/src/hid/audio.h ****     typedef const float* InterleavingInputBuffer;
  49:../../libdaisy/src/hid/audio.h **** 
  50:../../libdaisy/src/hid/audio.h ****     /** Interleaving Output buffer 
  51:../../libdaisy/src/hid/audio.h ****      ** audio is prepared as { L0, R0, L1, R1, . . . LN, RN }
  52:../../libdaisy/src/hid/audio.h ****     */
ARM GAS  /tmp/ccrjAVS4.s 			page 10


  53:../../libdaisy/src/hid/audio.h ****     typedef float* InterleavingOutputBuffer;
  54:../../libdaisy/src/hid/audio.h **** 
  55:../../libdaisy/src/hid/audio.h ****     /** Interleaving Audio Callback 
  56:../../libdaisy/src/hid/audio.h ****    * Interleaving audio callbacks in daisy must be of this type
  57:../../libdaisy/src/hid/audio.h ****   */
  58:../../libdaisy/src/hid/audio.h ****     typedef void (*InterleavingAudioCallback)(InterleavingInputBuffer  in,
  59:../../libdaisy/src/hid/audio.h ****                                               InterleavingOutputBuffer out,
  60:../../libdaisy/src/hid/audio.h ****                                               size_t                   size);
  61:../../libdaisy/src/hid/audio.h **** 
  62:../../libdaisy/src/hid/audio.h ****     AudioHandle() : pimpl_(nullptr) {}
  63:../../libdaisy/src/hid/audio.h ****     ~AudioHandle() {}
 156              		.loc 9 63 5 is_stmt 1 view .LVU15
 157              		.loc 9 63 5 is_stmt 0 view .LVU16
 158              	.LBE96:
 159              		.loc 5 22 19 view .LVU17
 160 0000 7047     		bx	lr
 161              		.cfi_endproc
 162              	.LFE4207:
 164              		.weak	_ZN5daisy9DaisySeedD1Ev
 165              		.thumb_set _ZN5daisy9DaisySeedD1Ev,_ZN5daisy9DaisySeedD2Ev
 166 0002 00BF     		.section	.text._ZL13AudioCallbackPKfPfj,"ax",%progbits
 167              		.align	1
 168              		.p2align 2,,3
 169              		.syntax unified
 170              		.thumb
 171              		.thumb_func
 172              		.fpu fpv5-d16
 174              	_ZL13AudioCallbackPKfPfj:
 175              	.LVL5:
 176              	.LFB4212:
 177              		.file 10 "reverbsc.cpp"
   1:reverbsc.cpp  **** #include "daisysp.h"
   2:reverbsc.cpp  **** #include "daisy_seed.h"
   3:reverbsc.cpp  **** 
   4:reverbsc.cpp  **** using namespace daisysp;
   5:reverbsc.cpp  **** using namespace daisy;
   6:reverbsc.cpp  **** 
   7:reverbsc.cpp  **** static DaisySeed seed;
   8:reverbsc.cpp  **** 
   9:reverbsc.cpp  **** ReverbSc   verb;
  10:reverbsc.cpp  **** Oscillator osc;
  11:reverbsc.cpp  **** AdEnv      env;
  12:reverbsc.cpp  **** Metro      tick;
  13:reverbsc.cpp  **** 
  14:reverbsc.cpp  **** static void AudioCallback(AudioHandle::InterleavingInputBuffer  in,
  15:reverbsc.cpp  ****                           AudioHandle::InterleavingOutputBuffer out,
  16:reverbsc.cpp  ****                           size_t                                size)
  17:reverbsc.cpp  **** {
 178              		.loc 10 17 1 is_stmt 1 view -0
 179              		.cfi_startproc
 180              		@ args = 0, pretend = 0, frame = 8
 181              		@ frame_needed = 0, uses_anonymous_args = 0
  18:reverbsc.cpp  ****     for(size_t i = 0; i < size; i += 2)
 182              		.loc 10 18 5 view .LVU19
 183              	.LBB97:
 184              		.loc 10 18 25 view .LVU20
 185 0000 72B3     		cbz	r2, .L19
ARM GAS  /tmp/ccrjAVS4.s 			page 11


 186 0002 013A     		subs	r2, r2, #1
 187              	.LVL6:
 188              		.loc 10 18 25 is_stmt 0 view .LVU21
 189              	.LBE97:
  17:reverbsc.cpp  ****     for(size_t i = 0; i < size; i += 2)
 190              		.loc 10 17 1 view .LVU22
 191 0004 70B5     		push	{r4, r5, r6, lr}
 192              		.cfi_def_cfa_offset 16
 193              		.cfi_offset 4, -16
 194              		.cfi_offset 5, -12
 195              		.cfi_offset 6, -8
 196              		.cfi_offset 14, -4
 197 0006 0C46     		mov	r4, r1
 198              	.LBB105:
 199              		.loc 10 18 16 view .LVU23
 200 0008 0025     		movs	r5, #0
 201 000a 22F00106 		bic	r6, r2, #1
 202              	.LBE105:
  17:reverbsc.cpp  ****     for(size_t i = 0; i < size; i += 2)
 203              		.loc 10 17 1 view .LVU24
 204 000e 2DED028B 		vpush.64	{d8}
 205              		.cfi_def_cfa_offset 24
 206              		.cfi_offset 80, -24
 207              		.cfi_offset 81, -20
 208 0012 84B0     		sub	sp, sp, #16
 209              		.cfi_def_cfa_offset 40
 210              	.LVL7:
 211              	.L10:
 212              	.LBB106:
 213              	.LBB98:
  19:reverbsc.cpp  ****     {
  20:reverbsc.cpp  ****         if(tick.Process())
 214              		.loc 10 20 9 is_stmt 1 view .LVU25
 215              		.loc 10 20 24 is_stmt 0 view .LVU26
 216 0014 1348     		ldr	r0, .L22
 217 0016 FFF7FEFF 		bl	_ZN7daisysp5Metro7ProcessEv
 218              	.LVL8:
  21:reverbsc.cpp  ****         {
  22:reverbsc.cpp  ****             env.Trigger();
 219              		.loc 10 22 13 is_stmt 1 view .LVU27
 220              	.LBB99:
 221              	.LBI99:
  36:../../DaisySP/Source/Control/adenv.h ****     /** Initializes the ad envelope.
  37:../../DaisySP/Source/Control/adenv.h **** 
  38:../../DaisySP/Source/Control/adenv.h ****         Defaults:
  39:../../DaisySP/Source/Control/adenv.h ****             - current segment = idle
  40:../../DaisySP/Source/Control/adenv.h ****             - curve = linear
  41:../../DaisySP/Source/Control/adenv.h ****             - phase = 0
  42:../../DaisySP/Source/Control/adenv.h ****             - min = 0
  43:../../DaisySP/Source/Control/adenv.h ****             - max = 1
  44:../../DaisySP/Source/Control/adenv.h **** 
  45:../../DaisySP/Source/Control/adenv.h ****         \param sample_rate      sample rate of the audio engine being run
  46:../../DaisySP/Source/Control/adenv.h ****     */
  47:../../DaisySP/Source/Control/adenv.h ****     void Init(float sample_rate);
  48:../../DaisySP/Source/Control/adenv.h **** 
  49:../../DaisySP/Source/Control/adenv.h ****     /** Processes the current sample of the envelope. This should be called once
  50:../../DaisySP/Source/Control/adenv.h ****         per sample period.
ARM GAS  /tmp/ccrjAVS4.s 			page 12


  51:../../DaisySP/Source/Control/adenv.h ****         \return the current envelope value.
  52:../../DaisySP/Source/Control/adenv.h ****     */
  53:../../DaisySP/Source/Control/adenv.h ****     float Process();
  54:../../DaisySP/Source/Control/adenv.h **** 
  55:../../DaisySP/Source/Control/adenv.h ****     /** Starts or retriggers the envelope.*/
  56:../../DaisySP/Source/Control/adenv.h ****     inline void Trigger() { trigger_ = 1; }
 222              		.loc 1 56 17 view .LVU28
 223              	.LBB100:
 224              		.loc 1 56 29 view .LVU29
 225              	.LBE100:
 226              	.LBE99:
  23:reverbsc.cpp  ****         }
  24:reverbsc.cpp  **** 
  25:reverbsc.cpp  ****         float sig = env.Process() * osc.Process();
 227              		.loc 10 25 9 view .LVU30
  20:reverbsc.cpp  ****         {
 228              		.loc 10 20 24 is_stmt 0 view .LVU31
 229 001a 0346     		mov	r3, r0
 230              	.LBB103:
 231              	.LBB101:
 232              		.loc 1 56 38 view .LVU32
 233 001c 0121     		movs	r1, #1
 234              	.LBE101:
 235              	.LBE103:
 236              		.loc 10 25 32 view .LVU33
 237 001e 1248     		ldr	r0, .L22+4
  20:reverbsc.cpp  ****         {
 238              		.loc 10 20 9 view .LVU34
 239 0020 0BB1     		cbz	r3, .L9
 240              	.LBB104:
 241              	.LBB102:
 242              		.loc 1 56 38 view .LVU35
 243 0022 80F83410 		strb	r1, [r0, #52]
 244              	.L9:
 245              	.LBE102:
 246              	.LBE104:
 247              		.loc 10 25 32 discriminator 2 view .LVU36
 248 0026 FFF7FEFF 		bl	_ZN7daisysp5AdEnv7ProcessEv
 249              	.LVL9:
 250 002a B0EE408A 		vmov.f32	s16, s0
 251              		.loc 10 25 48 discriminator 2 view .LVU37
 252 002e 0F48     		ldr	r0, .L22+8
 253 0030 FFF7FEFF 		bl	_ZN7daisysp10Oscillator7ProcessEv
 254              	.LVL10:
  26:reverbsc.cpp  ****         verb.Process(sig, sig, &out[i], &out[i + 1]);
 255              		.loc 10 26 21 discriminator 2 view .LVU38
 256 0034 211D     		adds	r1, r4, #4
  25:reverbsc.cpp  ****         verb.Process(sig, sig, &out[i], &out[i + 1]);
 257              		.loc 10 25 35 discriminator 2 view .LVU39
 258 0036 28EE000A 		vmul.f32	s0, s16, s0
 259              		.loc 10 26 21 discriminator 2 view .LVU40
 260 003a 03AA     		add	r2, sp, #12
 261 003c 2346     		mov	r3, r4
 262 003e 0091     		str	r1, [sp]
 263 0040 0B48     		ldr	r0, .L22+12
 264 0042 1146     		mov	r1, r2
  25:reverbsc.cpp  ****         verb.Process(sig, sig, &out[i], &out[i + 1]);
ARM GAS  /tmp/ccrjAVS4.s 			page 13


 265              		.loc 10 25 49 discriminator 2 view .LVU41
 266 0044 8DED030A 		vstr.32	s0, [sp, #12]
 267              		.loc 10 26 9 is_stmt 1 discriminator 2 view .LVU42
 268              		.loc 10 26 21 is_stmt 0 discriminator 2 view .LVU43
 269 0048 FFF7FEFF 		bl	_ZN7daisysp8ReverbSc7ProcessERKfS2_PfS3_
 270              	.LVL11:
 271              	.LBE98:
  18:reverbsc.cpp  ****     {
 272              		.loc 10 18 5 is_stmt 1 discriminator 2 view .LVU44
  18:reverbsc.cpp  ****     {
 273              		.loc 10 18 35 is_stmt 0 discriminator 2 view .LVU45
 274 004c AB1C     		adds	r3, r5, #2
 275              	.LVL12:
  18:reverbsc.cpp  ****     {
 276              		.loc 10 18 25 is_stmt 1 discriminator 2 view .LVU46
 277 004e B542     		cmp	r5, r6
 278 0050 04F10804 		add	r4, r4, #8
 279 0054 1D46     		mov	r5, r3
 280 0056 DDD1     		bne	.L10
 281              	.LBE106:
  27:reverbsc.cpp  ****     }
  28:reverbsc.cpp  **** }
 282              		.loc 10 28 1 is_stmt 0 view .LVU47
 283 0058 04B0     		add	sp, sp, #16
 284              		.cfi_def_cfa_offset 24
 285              		@ sp needed
 286 005a BDEC028B 		vldm	sp!, {d8}
 287              		.cfi_restore 80
 288              		.cfi_restore 81
 289              		.cfi_def_cfa_offset 16
 290 005e 70BD     		pop	{r4, r5, r6, pc}
 291              	.LVL13:
 292              	.L19:
 293              		.cfi_def_cfa_offset 0
 294              		.cfi_restore 4
 295              		.cfi_restore 5
 296              		.cfi_restore 6
 297              		.cfi_restore 14
 298              		.loc 10 28 1 view .LVU48
 299 0060 7047     		bx	lr
 300              	.L23:
 301 0062 00BF     		.align	2
 302              	.L22:
 303 0064 00000000 		.word	.LANCHOR0
 304 0068 00000000 		.word	.LANCHOR1
 305 006c 00000000 		.word	.LANCHOR2
 306 0070 00000000 		.word	verb
 307              		.cfi_endproc
 308              	.LFE4212:
 310              		.section	.text.startup.main,"ax",%progbits
 311              		.align	1
 312              		.p2align 2,,3
 313              		.global	main
 314              		.syntax unified
 315              		.thumb
 316              		.thumb_func
 317              		.fpu fpv5-d16
ARM GAS  /tmp/ccrjAVS4.s 			page 14


 319              	main:
 320              	.LFB4213:
  29:reverbsc.cpp  **** 
  30:reverbsc.cpp  **** int main(void)
  31:reverbsc.cpp  **** {
 321              		.loc 10 31 1 is_stmt 1 view -0
 322              		.cfi_startproc
 323              		@ args = 0, pretend = 0, frame = 0
 324              		@ frame_needed = 0, uses_anonymous_args = 0
  32:reverbsc.cpp  ****     // initialize seed hardware and whitenoise daisysp module
  33:reverbsc.cpp  ****     float sample_rate;
 325              		.loc 10 33 5 view .LVU50
  34:reverbsc.cpp  ****     seed.Configure();
 326              		.loc 10 34 5 view .LVU51
  31:reverbsc.cpp  ****     // initialize seed hardware and whitenoise daisysp module
 327              		.loc 10 31 1 is_stmt 0 view .LVU52
 328 0000 70B5     		push	{r4, r5, r6, lr}
 329              		.cfi_def_cfa_offset 16
 330              		.cfi_offset 4, -16
 331              		.cfi_offset 5, -12
 332              		.cfi_offset 6, -8
 333              		.cfi_offset 14, -4
 334              		.loc 10 34 19 view .LVU53
 335 0002 2C48     		ldr	r0, .L27
  35:reverbsc.cpp  ****     seed.Init();
  36:reverbsc.cpp  ****     sample_rate = seed.AudioSampleRate();
  37:reverbsc.cpp  **** 
  38:reverbsc.cpp  ****     //setup reverb
  39:reverbsc.cpp  ****     verb.Init(sample_rate);
 336              		.loc 10 39 14 view .LVU54
 337 0004 2C4E     		ldr	r6, .L27+4
  40:reverbsc.cpp  ****     verb.SetFeedback(0.9f);
  41:reverbsc.cpp  ****     verb.SetLpFreq(18000.0f);
  42:reverbsc.cpp  **** 
  43:reverbsc.cpp  ****     //setup metro
  44:reverbsc.cpp  ****     tick.Init(1.f, sample_rate);
  45:reverbsc.cpp  **** 
  46:reverbsc.cpp  ****     //setup envelope
  47:reverbsc.cpp  ****     env.Init(sample_rate);
 338              		.loc 10 47 13 view .LVU55
 339 0006 2D4D     		ldr	r5, .L27+8
 340              	.LBB107:
 341              	.LBB108:
  17:../../DaisySP/Source/Synthesis/oscillator.h ****     /** Choices for output waveforms, POLYBLEP are appropriately labeled. Others are naive forms.
  18:../../DaisySP/Source/Synthesis/oscillator.h ****     */
  19:../../DaisySP/Source/Synthesis/oscillator.h ****     enum
  20:../../DaisySP/Source/Synthesis/oscillator.h ****     {
  21:../../DaisySP/Source/Synthesis/oscillator.h ****         WAVE_SIN,
  22:../../DaisySP/Source/Synthesis/oscillator.h ****         WAVE_TRI,
  23:../../DaisySP/Source/Synthesis/oscillator.h ****         WAVE_SAW,
  24:../../DaisySP/Source/Synthesis/oscillator.h ****         WAVE_RAMP,
  25:../../DaisySP/Source/Synthesis/oscillator.h ****         WAVE_SQUARE,
  26:../../DaisySP/Source/Synthesis/oscillator.h ****         WAVE_POLYBLEP_TRI,
  27:../../DaisySP/Source/Synthesis/oscillator.h ****         WAVE_POLYBLEP_SAW,
  28:../../DaisySP/Source/Synthesis/oscillator.h ****         WAVE_POLYBLEP_SQUARE,
  29:../../DaisySP/Source/Synthesis/oscillator.h ****         WAVE_LAST,
  30:../../DaisySP/Source/Synthesis/oscillator.h ****     };
ARM GAS  /tmp/ccrjAVS4.s 			page 15


  31:../../DaisySP/Source/Synthesis/oscillator.h **** 
  32:../../DaisySP/Source/Synthesis/oscillator.h **** 
  33:../../DaisySP/Source/Synthesis/oscillator.h ****     /** Initializes the Oscillator
  34:../../DaisySP/Source/Synthesis/oscillator.h **** 
  35:../../DaisySP/Source/Synthesis/oscillator.h ****         \param sample_rate - sample rate of the audio engine being run, and the frequency that the 
  36:../../DaisySP/Source/Synthesis/oscillator.h **** 
  37:../../DaisySP/Source/Synthesis/oscillator.h ****         Defaults:
  38:../../DaisySP/Source/Synthesis/oscillator.h ****         - freq_ = 100 Hz
  39:../../DaisySP/Source/Synthesis/oscillator.h ****         - amp_ = 0.5
  40:../../DaisySP/Source/Synthesis/oscillator.h ****         - waveform_ = sine wave.
  41:../../DaisySP/Source/Synthesis/oscillator.h ****     */
  42:../../DaisySP/Source/Synthesis/oscillator.h ****     void Init(float sample_rate)
  43:../../DaisySP/Source/Synthesis/oscillator.h ****     {
  44:../../DaisySP/Source/Synthesis/oscillator.h ****         sr_        = sample_rate;
 342              		.loc 2 44 20 view .LVU56
 343 0008 2D4C     		ldr	r4, .L27+12
 344              	.LBE108:
 345              	.LBE107:
  31:reverbsc.cpp  ****     // initialize seed hardware and whitenoise daisysp module
 346              		.loc 10 31 1 view .LVU57
 347 000a 2DED028B 		vpush.64	{d8}
 348              		.cfi_def_cfa_offset 24
 349              		.cfi_offset 80, -24
 350              		.cfi_offset 81, -20
  34:reverbsc.cpp  ****     seed.Init();
 351              		.loc 10 34 19 view .LVU58
 352 000e FFF7FEFF 		bl	_ZN5daisy9DaisySeed9ConfigureEv
 353              	.LVL14:
  35:reverbsc.cpp  ****     sample_rate = seed.AudioSampleRate();
 354              		.loc 10 35 5 is_stmt 1 view .LVU59
  35:reverbsc.cpp  ****     sample_rate = seed.AudioSampleRate();
 355              		.loc 10 35 14 is_stmt 0 view .LVU60
 356 0012 0021     		movs	r1, #0
 357 0014 2748     		ldr	r0, .L27
 358 0016 FFF7FEFF 		bl	_ZN5daisy9DaisySeed4InitEb
 359              	.LVL15:
  36:reverbsc.cpp  **** 
 360              		.loc 10 36 5 is_stmt 1 view .LVU61
  36:reverbsc.cpp  **** 
 361              		.loc 10 36 39 is_stmt 0 view .LVU62
 362 001a 2648     		ldr	r0, .L27
 363 001c FFF7FEFF 		bl	_ZN5daisy9DaisySeed15AudioSampleRateEv
 364              	.LVL16:
 365 0020 B0EE408A 		vmov.f32	s16, s0
 366              	.LVL17:
  39:reverbsc.cpp  ****     verb.SetFeedback(0.9f);
 367              		.loc 10 39 5 is_stmt 1 view .LVU63
  39:reverbsc.cpp  ****     verb.SetFeedback(0.9f);
 368              		.loc 10 39 14 is_stmt 0 view .LVU64
 369 0024 3046     		mov	r0, r6
 370 0026 FFF7FEFF 		bl	_ZN7daisysp8ReverbSc4InitEf
 371              	.LVL18:
  40:reverbsc.cpp  ****     verb.SetLpFreq(18000.0f);
 372              		.loc 10 40 5 is_stmt 1 view .LVU65
 373              	.LBB114:
 374              	.LBI114:
  42:../../DaisySP/Source/Effects/reverbsc.h ****     /** Initializes the reverb module, and sets the sample_rate at which the Process function will 
ARM GAS  /tmp/ccrjAVS4.s 			page 16


  43:../../DaisySP/Source/Effects/reverbsc.h ****         Returns 0 if all good, or 1 if it runs out of delay times exceed maximum allowed.
  44:../../DaisySP/Source/Effects/reverbsc.h ****     */
  45:../../DaisySP/Source/Effects/reverbsc.h ****     int Init(float sample_rate);
  46:../../DaisySP/Source/Effects/reverbsc.h **** 
  47:../../DaisySP/Source/Effects/reverbsc.h ****     /** Process the input through the reverb, and updates values of out1, and out2 with the new pro
  48:../../DaisySP/Source/Effects/reverbsc.h ****     */
  49:../../DaisySP/Source/Effects/reverbsc.h ****     int Process(const float &in1, const float &in2, float *out1, float *out2);
  50:../../DaisySP/Source/Effects/reverbsc.h **** 
  51:../../DaisySP/Source/Effects/reverbsc.h ****     /** controls the reverb time. reverb tail becomes infinite when set to 1.0
  52:../../DaisySP/Source/Effects/reverbsc.h ****         \param fb - sets reverb time. range: 0.0 to 1.0
  53:../../DaisySP/Source/Effects/reverbsc.h ****     */
  54:../../DaisySP/Source/Effects/reverbsc.h ****     inline void SetFeedback(const float &fb) { feedback_ = fb; }
 375              		.loc 3 54 17 view .LVU66
 376              	.LBB115:
 377              		.loc 3 54 48 view .LVU67
 378              		.loc 3 54 58 is_stmt 0 view .LVU68
 379 002a 264A     		ldr	r2, .L27+16
 380              	.LBE115:
 381              	.LBE114:
 382              	.LBB117:
 383              	.LBB118:
  55:../../DaisySP/Source/Effects/reverbsc.h ****     /** controls the internal dampening filter's cutoff frequency.
  56:../../DaisySP/Source/Effects/reverbsc.h ****         \param freq - low pass frequency. range: 0.0 to sample_rate / 2
  57:../../DaisySP/Source/Effects/reverbsc.h ****     */
  58:../../DaisySP/Source/Effects/reverbsc.h ****     inline void SetLpFreq(const float &freq) { lpfreq_ = freq; }
 384              		.loc 3 58 56 view .LVU69
 385 002c 264B     		ldr	r3, .L27+20
 386              	.LBE118:
 387              	.LBE117:
  44:reverbsc.cpp  **** 
 388              		.loc 10 44 14 view .LVU70
 389 002e F0EE480A 		vmov.f32	s1, s16
 390 0032 B7EE000A 		vmov.f32	s0, #1.0e+0
 391 0036 2548     		ldr	r0, .L27+24
 392              	.LBB120:
 393              	.LBB116:
  54:../../DaisySP/Source/Effects/reverbsc.h ****     /** controls the internal dampening filter's cutoff frequency.
 394              		.loc 3 54 58 view .LVU71
 395 0038 3260     		str	r2, [r6]	@ float
 396              	.LBE116:
 397              	.LBE120:
  41:reverbsc.cpp  **** 
 398              		.loc 10 41 5 is_stmt 1 view .LVU72
 399              	.LBB121:
 400              	.LBI117:
 401              		.loc 3 58 17 view .LVU73
 402              	.LVL19:
 403              	.LBB119:
 404              		.loc 3 58 48 view .LVU74
 405              		.loc 3 58 56 is_stmt 0 view .LVU75
 406 003a 7360     		str	r3, [r6, #4]	@ float
 407              	.LBE119:
 408              	.LBE121:
  44:reverbsc.cpp  **** 
 409              		.loc 10 44 5 is_stmt 1 view .LVU76
  44:reverbsc.cpp  **** 
 410              		.loc 10 44 14 is_stmt 0 view .LVU77
ARM GAS  /tmp/ccrjAVS4.s 			page 17


 411 003c FFF7FEFF 		bl	_ZN7daisysp5Metro4InitEff
 412              	.LVL20:
 413              		.loc 10 47 5 is_stmt 1 view .LVU78
 414              		.loc 10 47 13 is_stmt 0 view .LVU79
 415 0040 B0EE480A 		vmov.f32	s0, s16
 416 0044 2846     		mov	r0, r5
 417 0046 FFF7FEFF 		bl	_ZN7daisysp5AdEnv4InitEf
 418              	.LVL21:
  48:reverbsc.cpp  ****     env.SetTime(ADENV_SEG_ATTACK, .1f);
 419              		.loc 10 48 5 is_stmt 1 view .LVU80
 420              	.LBB122:
 421              	.LBI122:
  57:../../DaisySP/Source/Control/adenv.h ****     /** Sets the length of time (in seconds) for a specific segment. */
  58:../../DaisySP/Source/Control/adenv.h ****     inline void SetTime(uint8_t seg, float time) { segment_time_[seg] = time; }
 422              		.loc 1 58 17 view .LVU81
 423              	.LBB123:
 424              		.loc 1 58 52 view .LVU82
 425              	.LBE123:
 426              	.LBE122:
 427              	.LBB126:
 428              	.LBB127:
  59:../../DaisySP/Source/Control/adenv.h ****     /** Sets the amount of curve applied. A positve value will create a log
  60:../../DaisySP/Source/Control/adenv.h ****         curve. Input range: -100 to 100.  (or more)
  61:../../DaisySP/Source/Control/adenv.h ****     */
  62:../../DaisySP/Source/Control/adenv.h ****     inline void SetCurve(float scalar) { curve_scalar_ = scalar; }
  63:../../DaisySP/Source/Control/adenv.h ****     /** Sets the minimum value of the envelope output.
  64:../../DaisySP/Source/Control/adenv.h ****         Input range: -FLTmax_, to FLTmax_
  65:../../DaisySP/Source/Control/adenv.h ****     */
  66:../../DaisySP/Source/Control/adenv.h ****     inline void SetMin(float min) { min_ = min; }
  67:../../DaisySP/Source/Control/adenv.h ****     /** Sets the maximum value of the envelope output.
  68:../../DaisySP/Source/Control/adenv.h ****         Input range: -FLTmax_, to FLTmax_
  69:../../DaisySP/Source/Control/adenv.h ****     */
  70:../../DaisySP/Source/Control/adenv.h ****     inline void SetMax(float max) { max_ = max; }
 429              		.loc 1 70 42 is_stmt 0 view .LVU83
 430 004a F7EE007A 		vmov.f32	s15, #1.0e+0
 431              	.LBE127:
 432              	.LBE126:
 433              	.LBB130:
 434              	.LBB131:
  66:../../DaisySP/Source/Control/adenv.h ****     /** Sets the maximum value of the envelope output.
 435              		.loc 1 66 42 view .LVU84
 436 004e 0023     		movs	r3, #0
 437              	.LBE131:
 438              	.LBE130:
 439              	.LBB133:
 440              	.LBB109:
  45:../../DaisySP/Source/Synthesis/oscillator.h ****         sr_recip_  = 1.0f / sample_rate;
  46:../../DaisySP/Source/Synthesis/oscillator.h ****         freq_      = 100.0f;
  47:../../DaisySP/Source/Synthesis/oscillator.h ****         amp_       = 0.5f;
 441              		.loc 2 47 20 view .LVU85
 442 0050 4FF07C51 		mov	r1, #1056964608
 443              	.LBE109:
 444              	.LBE133:
 445              	.LBB134:
 446              	.LBB124:
  58:../../DaisySP/Source/Control/adenv.h ****     /** Sets the amount of curve applied. A positve value will create a log
 447              		.loc 1 58 71 view .LVU86
ARM GAS  /tmp/ccrjAVS4.s 			page 18


 448 0054 1E4A     		ldr	r2, .L27+28
 449              	.LBE124:
 450              	.LBE134:
 451              	.LBB135:
 452              	.LBB110:
  48:../../DaisySP/Source/Synthesis/oscillator.h ****         phase_     = 0.0f;
  49:../../DaisySP/Source/Synthesis/oscillator.h ****         phase_inc_ = CalcPhaseInc(freq_);
 453              		.loc 2 49 34 view .LVU87
 454 0056 2046     		mov	r0, r4
  45:../../DaisySP/Source/Synthesis/oscillator.h ****         freq_      = 100.0f;
 455              		.loc 2 45 27 view .LVU88
 456 0058 87EE887A 		vdiv.f32	s14, s15, s16
  46:../../DaisySP/Source/Synthesis/oscillator.h ****         amp_       = 0.5f;
 457              		.loc 2 46 20 view .LVU89
 458 005c 9FED1D0A 		vldr.32	s0, .L27+32
  47:../../DaisySP/Source/Synthesis/oscillator.h ****         phase_     = 0.0f;
 459              		.loc 2 47 20 view .LVU90
 460 0060 6160     		str	r1, [r4, #4]	@ float
 461              	.LBE110:
 462              	.LBE135:
 463              	.LBB136:
 464              	.LBB128:
 465              		.loc 1 70 42 view .LVU91
 466 0062 C5ED067A 		vstr.32	s15, [r5, #24]
 467              	.LBE128:
 468              	.LBE136:
 469              	.LBB137:
 470              	.LBB125:
  58:../../DaisySP/Source/Control/adenv.h ****     /** Sets the amount of curve applied. A positve value will create a log
 471              		.loc 1 58 71 view .LVU92
 472 0066 AA60     		str	r2, [r5, #8]	@ float
 473              	.LVL22:
  58:../../DaisySP/Source/Control/adenv.h ****     /** Sets the amount of curve applied. A positve value will create a log
 474              		.loc 1 58 71 view .LVU93
 475              	.LBE125:
 476              	.LBE137:
  49:reverbsc.cpp  ****     env.SetTime(ADENV_SEG_DECAY, .1f);
 477              		.loc 10 49 5 is_stmt 1 view .LVU94
 478              	.LBB138:
 479              	.LBI138:
  58:../../DaisySP/Source/Control/adenv.h ****     /** Sets the amount of curve applied. A positve value will create a log
 480              		.loc 1 58 17 view .LVU95
 481              	.LBB139:
  58:../../DaisySP/Source/Control/adenv.h ****     /** Sets the amount of curve applied. A positve value will create a log
 482              		.loc 1 58 52 view .LVU96
  58:../../DaisySP/Source/Control/adenv.h ****     /** Sets the amount of curve applied. A positve value will create a log
 483              		.loc 1 58 71 is_stmt 0 view .LVU97
 484 0068 EA60     		str	r2, [r5, #12]	@ float
 485              	.LVL23:
  58:../../DaisySP/Source/Control/adenv.h ****     /** Sets the amount of curve applied. A positve value will create a log
 486              		.loc 1 58 71 view .LVU98
 487              	.LBE139:
 488              	.LBE138:
  50:reverbsc.cpp  ****     env.SetMax(1.f);
 489              		.loc 10 50 5 is_stmt 1 view .LVU99
 490              	.LBB140:
 491              	.LBI126:
ARM GAS  /tmp/ccrjAVS4.s 			page 19


 492              		.loc 1 70 17 view .LVU100
 493              	.LBB129:
 494              		.loc 1 70 37 view .LVU101
 495              		.loc 1 70 37 is_stmt 0 view .LVU102
 496              	.LBE129:
 497              	.LBE140:
  51:reverbsc.cpp  ****     env.SetMin(0.f);
 498              		.loc 10 51 5 is_stmt 1 view .LVU103
 499              	.LBB141:
 500              	.LBI130:
  66:../../DaisySP/Source/Control/adenv.h ****     /** Sets the maximum value of the envelope output.
 501              		.loc 1 66 17 view .LVU104
 502              	.LBB132:
  66:../../DaisySP/Source/Control/adenv.h ****     /** Sets the maximum value of the envelope output.
 503              		.loc 1 66 37 view .LVU105
  66:../../DaisySP/Source/Control/adenv.h ****     /** Sets the maximum value of the envelope output.
 504              		.loc 1 66 42 is_stmt 0 view .LVU106
 505 006a 6B61     		str	r3, [r5, #20]	@ float
 506              	.LVL24:
  66:../../DaisySP/Source/Control/adenv.h ****     /** Sets the maximum value of the envelope output.
 507              		.loc 1 66 42 view .LVU107
 508              	.LBE132:
 509              	.LBE141:
  52:reverbsc.cpp  ****     env.SetCurve(0.f); //linear
 510              		.loc 10 52 5 is_stmt 1 view .LVU108
 511              	.LBB142:
 512              	.LBI142:
  62:../../DaisySP/Source/Control/adenv.h ****     /** Sets the minimum value of the envelope output.
 513              		.loc 1 62 17 view .LVU109
 514              	.LBB143:
  62:../../DaisySP/Source/Control/adenv.h ****     /** Sets the minimum value of the envelope output.
 515              		.loc 1 62 42 view .LVU110
  62:../../DaisySP/Source/Control/adenv.h ****     /** Sets the minimum value of the envelope output.
 516              		.loc 1 62 56 is_stmt 0 view .LVU111
 517 006c 2B62     		str	r3, [r5, #32]	@ float
 518              	.LVL25:
  62:../../DaisySP/Source/Control/adenv.h ****     /** Sets the minimum value of the envelope output.
 519              		.loc 1 62 56 view .LVU112
 520              	.LBE143:
 521              	.LBE142:
  53:reverbsc.cpp  **** 
  54:reverbsc.cpp  ****     //setup oscillator
  55:reverbsc.cpp  ****     osc.Init(sample_rate);
 522              		.loc 10 55 5 is_stmt 1 view .LVU113
 523              	.LBB144:
 524              	.LBI107:
  42:../../DaisySP/Source/Synthesis/oscillator.h ****     {
 525              		.loc 2 42 10 view .LVU114
 526              	.LBB111:
  44:../../DaisySP/Source/Synthesis/oscillator.h ****         sr_recip_  = 1.0f / sample_rate;
 527              		.loc 2 44 9 view .LVU115
  45:../../DaisySP/Source/Synthesis/oscillator.h ****         freq_      = 100.0f;
 528              		.loc 2 45 9 view .LVU116
  48:../../DaisySP/Source/Synthesis/oscillator.h ****         phase_inc_ = CalcPhaseInc(freq_);
 529              		.loc 2 48 20 is_stmt 0 view .LVU117
 530 006e 6361     		str	r3, [r4, #20]	@ float
  44:../../DaisySP/Source/Synthesis/oscillator.h ****         sr_recip_  = 1.0f / sample_rate;
ARM GAS  /tmp/ccrjAVS4.s 			page 20


 531              		.loc 2 44 20 view .LVU118
 532 0070 84ED038A 		vstr.32	s16, [r4, #12]
  46:../../DaisySP/Source/Synthesis/oscillator.h ****         amp_       = 0.5f;
 533              		.loc 2 46 20 view .LVU119
 534 0074 84ED020A 		vstr.32	s0, [r4, #8]
  45:../../DaisySP/Source/Synthesis/oscillator.h ****         freq_      = 100.0f;
 535              		.loc 2 45 20 view .LVU120
 536 0078 84ED047A 		vstr.32	s14, [r4, #16]
  46:../../DaisySP/Source/Synthesis/oscillator.h ****         amp_       = 0.5f;
 537              		.loc 2 46 9 is_stmt 1 view .LVU121
  47:../../DaisySP/Source/Synthesis/oscillator.h ****         phase_     = 0.0f;
 538              		.loc 2 47 9 view .LVU122
  48:../../DaisySP/Source/Synthesis/oscillator.h ****         phase_inc_ = CalcPhaseInc(freq_);
 539              		.loc 2 48 9 view .LVU123
 540              		.loc 2 49 9 view .LVU124
 541              		.loc 2 49 34 is_stmt 0 view .LVU125
 542 007c FFF7FEFF 		bl	_ZN7daisysp10Oscillator12CalcPhaseIncEf
 543              	.LVL26:
 544 0080 F0EE407A 		vmov.f32	s15, s0
  50:../../DaisySP/Source/Synthesis/oscillator.h ****         waveform_  = WAVE_SIN;
  51:../../DaisySP/Source/Synthesis/oscillator.h ****         eoc_       = true;
  52:../../DaisySP/Source/Synthesis/oscillator.h ****         eor_       = true;
 545              		.loc 2 52 20 view .LVU126
 546 0084 40F20113 		movw	r3, #257
 547              	.LBE111:
 548              	.LBE144:
 549              	.LBB145:
 550              	.LBB146:
  53:../../DaisySP/Source/Synthesis/oscillator.h ****     }
  54:../../DaisySP/Source/Synthesis/oscillator.h **** 
  55:../../DaisySP/Source/Synthesis/oscillator.h **** 
  56:../../DaisySP/Source/Synthesis/oscillator.h ****     /** Changes the frequency of the Oscillator, and recalculates phase increment.
  57:../../DaisySP/Source/Synthesis/oscillator.h ****     */
  58:../../DaisySP/Source/Synthesis/oscillator.h ****     inline void SetFreq(const float f)
  59:../../DaisySP/Source/Synthesis/oscillator.h ****     {
  60:../../DaisySP/Source/Synthesis/oscillator.h ****         freq_      = f;
 551              		.loc 2 60 20 view .LVU127
 552 0088 9FED130A 		vldr.32	s0, .L27+36
 553              	.LBE146:
 554              	.LBE145:
 555              	.LBB150:
 556              	.LBB112:
  50:../../DaisySP/Source/Synthesis/oscillator.h ****         waveform_  = WAVE_SIN;
 557              		.loc 2 50 20 view .LVU128
 558 008c 0022     		movs	r2, #0
 559              	.LBE112:
 560              	.LBE150:
 561              	.LBB151:
 562              	.LBB147:
  61:../../DaisySP/Source/Synthesis/oscillator.h ****         phase_inc_ = CalcPhaseInc(f);
 563              		.loc 2 61 34 view .LVU129
 564 008e 2046     		mov	r0, r4
 565              	.LBE147:
 566              	.LBE151:
 567              	.LBB152:
 568              	.LBB113:
  52:../../DaisySP/Source/Synthesis/oscillator.h ****     }
ARM GAS  /tmp/ccrjAVS4.s 			page 21


 569              		.loc 2 52 20 view .LVU130
 570 0090 A384     		strh	r3, [r4, #36]	@ movhi
  49:../../DaisySP/Source/Synthesis/oscillator.h ****         waveform_  = WAVE_SIN;
 571              		.loc 2 49 20 view .LVU131
 572 0092 C4ED067A 		vstr.32	s15, [r4, #24]
  50:../../DaisySP/Source/Synthesis/oscillator.h ****         eoc_       = true;
 573              		.loc 2 50 9 is_stmt 1 view .LVU132
  50:../../DaisySP/Source/Synthesis/oscillator.h ****         eoc_       = true;
 574              		.loc 2 50 20 is_stmt 0 view .LVU133
 575 0096 2270     		strb	r2, [r4]
  51:../../DaisySP/Source/Synthesis/oscillator.h ****         eor_       = true;
 576              		.loc 2 51 9 is_stmt 1 view .LVU134
  52:../../DaisySP/Source/Synthesis/oscillator.h ****     }
 577              		.loc 2 52 9 view .LVU135
 578              	.LVL27:
  52:../../DaisySP/Source/Synthesis/oscillator.h ****     }
 579              		.loc 2 52 9 is_stmt 0 view .LVU136
 580              	.LBE113:
 581              	.LBE152:
  56:reverbsc.cpp  ****     osc.SetFreq(440.f);
 582              		.loc 10 56 5 is_stmt 1 view .LVU137
 583              	.LBB153:
 584              	.LBI145:
  58:../../DaisySP/Source/Synthesis/oscillator.h ****     {
 585              		.loc 2 58 17 view .LVU138
 586              	.LBB148:
  60:../../DaisySP/Source/Synthesis/oscillator.h ****         phase_inc_ = CalcPhaseInc(f);
 587              		.loc 2 60 9 view .LVU139
  60:../../DaisySP/Source/Synthesis/oscillator.h ****         phase_inc_ = CalcPhaseInc(f);
 588              		.loc 2 60 20 is_stmt 0 view .LVU140
 589 0098 84ED020A 		vstr.32	s0, [r4, #8]
 590              		.loc 2 61 9 is_stmt 1 view .LVU141
 591              		.loc 2 61 34 is_stmt 0 view .LVU142
 592 009c FFF7FEFF 		bl	_ZN7daisysp10Oscillator12CalcPhaseIncEf
 593              	.LVL28:
 594              	.LBE148:
 595              	.LBE153:
 596              	.LBB154:
 597              	.LBB155:
  62:../../DaisySP/Source/Synthesis/oscillator.h ****     }
  63:../../DaisySP/Source/Synthesis/oscillator.h **** 
  64:../../DaisySP/Source/Synthesis/oscillator.h **** 
  65:../../DaisySP/Source/Synthesis/oscillator.h ****     /** Sets the amplitude of the waveform.
  66:../../DaisySP/Source/Synthesis/oscillator.h ****     */
  67:../../DaisySP/Source/Synthesis/oscillator.h ****     inline void SetAmp(const float a) { amp_ = a; }
  68:../../DaisySP/Source/Synthesis/oscillator.h ****     /** Sets the waveform to be synthesized by the Process() function.
  69:../../DaisySP/Source/Synthesis/oscillator.h ****     */
  70:../../DaisySP/Source/Synthesis/oscillator.h ****     inline void SetWaveform(const uint8_t wf)
  71:../../DaisySP/Source/Synthesis/oscillator.h ****     {
  72:../../DaisySP/Source/Synthesis/oscillator.h ****         waveform_ = wf < WAVE_LAST ? wf : WAVE_SIN;
 598              		.loc 2 72 19 view .LVU143
 599 00a0 0123     		movs	r3, #1
 600              	.LBE155:
 601              	.LBE154:
  57:reverbsc.cpp  ****     osc.SetWaveform(Oscillator::WAVE_TRI);
  58:reverbsc.cpp  **** 
  59:reverbsc.cpp  ****     // start callback
ARM GAS  /tmp/ccrjAVS4.s 			page 22


  60:reverbsc.cpp  ****     seed.StartAudio(AudioCallback);
 602              		.loc 10 60 20 view .LVU144
 603 00a2 0E49     		ldr	r1, .L27+40
 604 00a4 0348     		ldr	r0, .L27
 605              	.LBB157:
 606              	.LBB149:
  61:../../DaisySP/Source/Synthesis/oscillator.h ****     }
 607              		.loc 2 61 20 view .LVU145
 608 00a6 84ED060A 		vstr.32	s0, [r4, #24]
 609              	.LVL29:
  61:../../DaisySP/Source/Synthesis/oscillator.h ****     }
 610              		.loc 2 61 20 view .LVU146
 611              	.LBE149:
 612              	.LBE157:
  57:reverbsc.cpp  ****     osc.SetWaveform(Oscillator::WAVE_TRI);
 613              		.loc 10 57 5 is_stmt 1 view .LVU147
 614              	.LBB158:
 615              	.LBI154:
  70:../../DaisySP/Source/Synthesis/oscillator.h ****     {
 616              		.loc 2 70 17 view .LVU148
 617              	.LBB156:
 618              		.loc 2 72 9 view .LVU149
 619              		.loc 2 72 19 is_stmt 0 view .LVU150
 620 00aa 2370     		strb	r3, [r4]
 621              	.LVL30:
 622              		.loc 2 72 19 view .LVU151
 623              	.LBE156:
 624              	.LBE158:
 625              		.loc 10 60 5 is_stmt 1 view .LVU152
 626              		.loc 10 60 20 is_stmt 0 view .LVU153
 627 00ac FFF7FEFF 		bl	_ZN5daisy9DaisySeed10StartAudioEPFvPKfPfjE
 628              	.LVL31:
 629              	.L25:
  61:reverbsc.cpp  ****     while(1) {}
 630              		.loc 10 61 5 is_stmt 1 discriminator 1 view .LVU154
 631              		.loc 10 61 5 discriminator 1 view .LVU155
 632              		.loc 10 61 5 discriminator 1 view .LVU156
 633              		.loc 10 61 5 discriminator 1 view .LVU157
 634 00b0 FEE7     		b	.L25
 635              	.L28:
 636 00b2 00BF     		.align	2
 637              	.L27:
 638 00b4 00000000 		.word	.LANCHOR3
 639 00b8 00000000 		.word	verb
 640 00bc 00000000 		.word	.LANCHOR1
 641 00c0 00000000 		.word	.LANCHOR2
 642 00c4 6666663F 		.word	1063675494
 643 00c8 00A08C46 		.word	1183621120
 644 00cc 00000000 		.word	.LANCHOR0
 645 00d0 CDCCCC3D 		.word	1036831949
 646 00d4 0000C842 		.word	1120403456
 647 00d8 0000DC43 		.word	1138491392
 648 00dc 00000000 		.word	_ZL13AudioCallbackPKfPfj
 649              		.cfi_endproc
 650              	.LFE4213:
 652              		.section	.text.startup._GLOBAL__sub_I_verb,"ax",%progbits
 653              		.align	1
ARM GAS  /tmp/ccrjAVS4.s 			page 23


 654              		.p2align 2,,3
 655              		.syntax unified
 656              		.thumb
 657              		.thumb_func
 658              		.fpu fpv5-d16
 660              	_GLOBAL__sub_I_verb:
 661              	.LFB4759:
  62:reverbsc.cpp  **** }
 662              		.loc 10 62 1 view -0
 663              		.cfi_startproc
 664              		@ args = 0, pretend = 0, frame = 0
 665              		@ frame_needed = 0, uses_anonymous_args = 0
 666              	.LBB182:
 667              	.LBI182:
 668              		.loc 10 62 1 view .LVU159
 669              	.LVL32:
 670              	.LBB183:
 671              	.LBB184:
 672              	.LBI184:
  21:../../libdaisy/src/daisy_seed.h ****     ~DaisySeed() {}
 673              		.loc 5 21 5 view .LVU160
 674              	.LBB185:
 675              	.LBB186:
 676              	.LBI186:
  62:../../libdaisy/src/hid/audio.h ****     ~AudioHandle() {}
 677              		.loc 9 62 5 view .LVU161
 678              	.LBE186:
 679              	.LBE185:
 680              	.LBE184:
 681              	.LBE183:
 682              	.LBE182:
 683              		.loc 10 62 1 is_stmt 0 view .LVU162
 684 0000 08B5     		push	{r3, lr}
 685              		.cfi_def_cfa_offset 8
 686              		.cfi_offset 3, -8
 687              		.cfi_offset 14, -4
 688              	.LBB209:
 689              	.LBB207:
 690              	.LBB201:
 691              	.LBB199:
 692              	.LBB191:
 693              	.LBB187:
 694              	.LBB188:
  62:../../libdaisy/src/hid/audio.h ****     ~AudioHandle() {}
 695              		.loc 9 62 35 view .LVU163
 696 0002 0F48     		ldr	r0, .L31
 697 0004 0023     		movs	r3, #0
 698              	.LBE188:
 699              	.LBE187:
 700              	.LBE191:
 701              	.LBE199:
 702              	.LBE201:
   7:reverbsc.cpp  **** 
 703              		.loc 10 7 18 view .LVU164
 704 0006 0F4A     		ldr	r2, .L31+4
 705              	.LBB202:
 706              	.LBB200:
ARM GAS  /tmp/ccrjAVS4.s 			page 24


 707              	.LBB192:
 708              	.LBB190:
 709              	.LBB189:
  62:../../libdaisy/src/hid/audio.h ****     ~AudioHandle() {}
 710              		.loc 9 62 35 view .LVU165
 711 0008 4361     		str	r3, [r0, #20]
 712              	.LVL33:
  62:../../libdaisy/src/hid/audio.h ****     ~AudioHandle() {}
 713              		.loc 9 62 35 view .LVU166
 714              	.LBE189:
 715              	.LBE190:
 716              	.LBE192:
 717              	.LBB193:
 718              	.LBI193:
  84:../../libdaisy/src/per/adc.h ****     ~AdcHandle() {}
 719              		.loc 8 84 5 is_stmt 1 view .LVU167
  84:../../libdaisy/src/per/adc.h ****     ~AdcHandle() {}
 720              		.loc 8 84 5 is_stmt 0 view .LVU168
 721              	.LBE193:
 722              	.LBB194:
 723              	.LBI194:
 724              		.file 11 "../../libdaisy/src/per/dac.h"
   1:../../libdaisy/src/per/dac.h **** #pragma once
   2:../../libdaisy/src/per/dac.h **** #ifndef DSY_DAC_H
   3:../../libdaisy/src/per/dac.h **** #define DSY_DAC_H
   4:../../libdaisy/src/per/dac.h **** 
   5:../../libdaisy/src/per/dac.h **** #include "daisy_core.h"
   6:../../libdaisy/src/per/dac.h **** 
   7:../../libdaisy/src/per/dac.h **** namespace daisy
   8:../../libdaisy/src/per/dac.h **** {
   9:../../libdaisy/src/per/dac.h **** /** DAC handle for Built-in DAC Peripheral 
  10:../../libdaisy/src/per/dac.h ****  ** 
  11:../../libdaisy/src/per/dac.h ****  ** For now only Normal Mode is supported,
  12:../../libdaisy/src/per/dac.h ****  ** Sample and hold mode provides reduced power consumption, but requires a bit more setup.
  13:../../libdaisy/src/per/dac.h ****  **
  14:../../libdaisy/src/per/dac.h ****  ** For now connecting the DAC through other internal periphearls is also not supported.
  15:../../libdaisy/src/per/dac.h ****  **
  16:../../libdaisy/src/per/dac.h ****  ** Since the DAC channels have dedicated pins we don't need to pass in a pin config like with
  17:../../libdaisy/src/per/dac.h ****  ** other modules. However, it is still important to not try to use the DAC pins for anything else.
  18:../../libdaisy/src/per/dac.h ****  ** DAC Channel 1 is on PA4, and DAC Channel 2 is on PA5
  19:../../libdaisy/src/per/dac.h ****  ***/
  20:../../libdaisy/src/per/dac.h **** class DacHandle
  21:../../libdaisy/src/per/dac.h **** {
  22:../../libdaisy/src/per/dac.h ****   public:
  23:../../libdaisy/src/per/dac.h ****     /** Return Values for the DacHandle class */
  24:../../libdaisy/src/per/dac.h ****     enum class Result
  25:../../libdaisy/src/per/dac.h ****     {
  26:../../libdaisy/src/per/dac.h ****         OK,
  27:../../libdaisy/src/per/dac.h ****         ERR,
  28:../../libdaisy/src/per/dac.h ****     };
  29:../../libdaisy/src/per/dac.h **** 
  30:../../libdaisy/src/per/dac.h ****     /** Selects which channel(s) will be configured for use. */
  31:../../libdaisy/src/per/dac.h ****     enum class Channel
  32:../../libdaisy/src/per/dac.h ****     {
  33:../../libdaisy/src/per/dac.h ****         ONE,
  34:../../libdaisy/src/per/dac.h ****         TWO,
  35:../../libdaisy/src/per/dac.h ****         BOTH,
ARM GAS  /tmp/ccrjAVS4.s 			page 25


  36:../../libdaisy/src/per/dac.h ****     };
  37:../../libdaisy/src/per/dac.h **** 
  38:../../libdaisy/src/per/dac.h ****     /** Sets the Mode for the DAC channels.
  39:../../libdaisy/src/per/dac.h ****      **
  40:../../libdaisy/src/per/dac.h ****      ** Polling mode uses the blocking mode to transmit a single value at a time.
  41:../../libdaisy/src/per/dac.h ****      **
  42:../../libdaisy/src/per/dac.h ****      ** DMA mode uses a buffer, and periodically transmits it triggering a 
  43:../../libdaisy/src/per/dac.h ****      ** callback to fill the buffer when it is ready for more samples.
  44:../../libdaisy/src/per/dac.h ****      ***/
  45:../../libdaisy/src/per/dac.h ****     enum class Mode
  46:../../libdaisy/src/per/dac.h ****     {
  47:../../libdaisy/src/per/dac.h ****         POLLING,
  48:../../libdaisy/src/per/dac.h ****         DMA,
  49:../../libdaisy/src/per/dac.h ****     };
  50:../../libdaisy/src/per/dac.h **** 
  51:../../libdaisy/src/per/dac.h ****     /** Sets the number of bits per sample transmitted out of the DAC.
  52:../../libdaisy/src/per/dac.h ****      ** The output range will be: 0V - VDDA
  53:../../libdaisy/src/per/dac.h ****      ** The resolution will be roughly: bitdepth / (VDDA - 0V) 
  54:../../libdaisy/src/per/dac.h ****      ***/
  55:../../libdaisy/src/per/dac.h ****     enum class BitDepth
  56:../../libdaisy/src/per/dac.h ****     {
  57:../../libdaisy/src/per/dac.h ****         BITS_8,
  58:../../libdaisy/src/per/dac.h ****         BITS_12
  59:../../libdaisy/src/per/dac.h ****     };
  60:../../libdaisy/src/per/dac.h **** 
  61:../../libdaisy/src/per/dac.h ****     /** Sets whether the DAC output is buffered for higher drive ability. */
  62:../../libdaisy/src/per/dac.h ****     enum class BufferState
  63:../../libdaisy/src/per/dac.h ****     {
  64:../../libdaisy/src/per/dac.h ****         ENABLED,
  65:../../libdaisy/src/per/dac.h ****         DISABLED,
  66:../../libdaisy/src/per/dac.h ****     };
  67:../../libdaisy/src/per/dac.h **** 
  68:../../libdaisy/src/per/dac.h ****     /** Configuration structure for initializing the DAC structure. */
  69:../../libdaisy/src/per/dac.h ****     struct Config
  70:../../libdaisy/src/per/dac.h ****     {
  71:../../libdaisy/src/per/dac.h ****         /** Target Samplerate in Hz used to configure the internal 
  72:../../libdaisy/src/per/dac.h ****          ** timebase for DMA mode. Does nothing in POLLING mode.
  73:../../libdaisy/src/per/dac.h ****          ** If the value is 0 at Init time this will default to 48000Hz 
  74:../../libdaisy/src/per/dac.h ****          ** otherwise the driver will attempt meet the target.*/
  75:../../libdaisy/src/per/dac.h ****         uint32_t target_samplerate;
  76:../../libdaisy/src/per/dac.h **** 
  77:../../libdaisy/src/per/dac.h ****         Channel     chn;
  78:../../libdaisy/src/per/dac.h ****         Mode        mode;
  79:../../libdaisy/src/per/dac.h ****         BitDepth    bitdepth;
  80:../../libdaisy/src/per/dac.h ****         BufferState buff_state;
  81:../../libdaisy/src/per/dac.h ****     };
  82:../../libdaisy/src/per/dac.h **** 
  83:../../libdaisy/src/per/dac.h ****     DacHandle() : pimpl_(nullptr) {}
 725              		.loc 11 83 5 is_stmt 1 view .LVU169
 726              	.LBB195:
 727              	.LBB196:
 728              		.loc 11 83 33 is_stmt 0 view .LVU170
 729 000a 0362     		str	r3, [r0, #32]
 730              	.LVL34:
 731              		.loc 11 83 33 view .LVU171
 732              	.LBE196:
 733              	.LBE195:
ARM GAS  /tmp/ccrjAVS4.s 			page 26


 734              	.LBE194:
 735              	.LBB197:
 736              	.LBI197:
  40:../../libdaisy/src/hid/usb.h **** 
 737              		.loc 7 40 5 is_stmt 1 view .LVU172
  40:../../libdaisy/src/hid/usb.h **** 
 738              		.loc 7 40 5 is_stmt 0 view .LVU173
 739              	.LBE197:
 740              	.LBB198:
 741              	.LBI198:
  58:../../libdaisy/src/sys/system.h ****     ~System() {}
 742              		.loc 6 58 5 is_stmt 1 view .LVU174
  58:../../libdaisy/src/sys/system.h ****     ~System() {}
 743              		.loc 6 58 5 is_stmt 0 view .LVU175
 744              	.LBE198:
 745              	.LBE200:
 746              	.LBE202:
   7:reverbsc.cpp  **** 
 747              		.loc 10 7 18 view .LVU176
 748 000c 0E49     		ldr	r1, .L31+8
 749 000e FFF7FEFF 		bl	__aeabi_atexit
 750              	.LVL35:
 751              	.LBB203:
 752              	.LBI203:
  40:../../DaisySP/Source/Effects/reverbsc.h ****     ~ReverbSc() {}
 753              		.loc 3 40 5 is_stmt 1 view .LVU177
  40:../../DaisySP/Source/Effects/reverbsc.h ****     ~ReverbSc() {}
 754              		.loc 3 40 5 is_stmt 0 view .LVU178
 755              	.LBE203:
   9:reverbsc.cpp  **** Oscillator osc;
 756              		.loc 10 9 12 view .LVU179
 757 0012 0C4A     		ldr	r2, .L31+4
 758 0014 0D49     		ldr	r1, .L31+12
 759 0016 0E48     		ldr	r0, .L31+16
 760 0018 FFF7FEFF 		bl	__aeabi_atexit
 761              	.LVL36:
 762              	.LBB204:
 763              	.LBI204:
  15:../../DaisySP/Source/Synthesis/oscillator.h ****     ~Oscillator() {}
 764              		.loc 2 15 5 is_stmt 1 view .LVU180
  15:../../DaisySP/Source/Synthesis/oscillator.h ****     ~Oscillator() {}
 765              		.loc 2 15 5 is_stmt 0 view .LVU181
 766              	.LBE204:
  10:reverbsc.cpp  **** AdEnv      env;
 767              		.loc 10 10 12 view .LVU182
 768 001c 094A     		ldr	r2, .L31+4
 769 001e 0D49     		ldr	r1, .L31+20
 770 0020 0D48     		ldr	r0, .L31+24
 771 0022 FFF7FEFF 		bl	__aeabi_atexit
 772              	.LVL37:
 773              	.LBB205:
 774              	.LBI205:
  34:../../DaisySP/Source/Control/adenv.h ****     ~AdEnv() {}
 775              		.loc 1 34 5 is_stmt 1 view .LVU183
  34:../../DaisySP/Source/Control/adenv.h ****     ~AdEnv() {}
 776              		.loc 1 34 5 is_stmt 0 view .LVU184
 777              	.LBE205:
ARM GAS  /tmp/ccrjAVS4.s 			page 27


  11:reverbsc.cpp  **** Metro      tick;
 778              		.loc 10 11 12 view .LVU185
 779 0026 074A     		ldr	r2, .L31+4
 780 0028 0C49     		ldr	r1, .L31+28
 781 002a 0D48     		ldr	r0, .L31+32
 782 002c FFF7FEFF 		bl	__aeabi_atexit
 783              	.LVL38:
 784              	.LBB206:
 785              	.LBI206:
  14:../../DaisySP/Source/Utility/metro.h ****     ~Metro() {}
 786              		.loc 4 14 5 is_stmt 1 view .LVU186
  14:../../DaisySP/Source/Utility/metro.h ****     ~Metro() {}
 787              		.loc 4 14 5 is_stmt 0 view .LVU187
 788              	.LBE206:
  12:reverbsc.cpp  **** 
 789              		.loc 10 12 12 view .LVU188
 790 0030 044A     		ldr	r2, .L31+4
 791 0032 0C49     		ldr	r1, .L31+36
 792 0034 0C48     		ldr	r0, .L31+40
 793              	.LBE207:
 794              	.LBE209:
 795              		.loc 10 62 1 view .LVU189
 796 0036 BDE80840 		pop	{r3, lr}
 797              		.cfi_restore 14
 798              		.cfi_restore 3
 799              		.cfi_def_cfa_offset 0
 800              	.LBB210:
 801              	.LBB208:
  12:reverbsc.cpp  **** 
 802              		.loc 10 12 12 view .LVU190
 803 003a FFF7FEBF 		b	__aeabi_atexit
 804              	.LVL39:
 805              	.L32:
 806 003e 00BF     		.align	2
 807              	.L31:
 808 0040 00000000 		.word	.LANCHOR3
 809 0044 00000000 		.word	__dso_handle
 810 0048 00000000 		.word	_ZN5daisy9DaisySeedD1Ev
 811 004c 00000000 		.word	_ZN7daisysp8ReverbScD1Ev
 812 0050 00000000 		.word	verb
 813 0054 00000000 		.word	_ZN7daisysp10OscillatorD1Ev
 814 0058 00000000 		.word	.LANCHOR2
 815 005c 00000000 		.word	_ZN7daisysp5AdEnvD1Ev
 816 0060 00000000 		.word	.LANCHOR1
 817 0064 00000000 		.word	_ZN7daisysp5MetroD1Ev
 818 0068 00000000 		.word	.LANCHOR0
 819              	.LBE208:
 820              	.LBE210:
 821              		.cfi_endproc
 822              	.LFE4759:
 824              		.section	.init_array,"aw",%init_array
 825              		.align	2
 826 0000 00000000 		.word	_GLOBAL__sub_I_verb(target1)
 827              		.global	tick
 828              		.global	env
 829              		.global	osc
 830              		.global	verb
ARM GAS  /tmp/ccrjAVS4.s 			page 28


 831              		.section	.bss._ZL4seed,"aw",%nobits
 832              		.align	2
 833              		.set	.LANCHOR3,. + 0
 836              	_ZL4seed:
 837 0000 00000000 		.space	60
 837      00000000 
 837      00000000 
 837      00000000 
 837      00000000 
 838              		.section	.bss.env,"aw",%nobits
 839              		.align	2
 840              		.set	.LANCHOR1,. + 0
 843              	env:
 844 0000 00000000 		.space	56
 844      00000000 
 844      00000000 
 844      00000000 
 844      00000000 
 845              		.section	.bss.osc,"aw",%nobits
 846              		.align	2
 847              		.set	.LANCHOR2,. + 0
 850              	osc:
 851 0000 00000000 		.space	40
 851      00000000 
 851      00000000 
 851      00000000 
 851      00000000 
 852              		.section	.bss.tick,"aw",%nobits
 853              		.align	2
 854              		.set	.LANCHOR0,. + 0
 857              	tick:
 858 0000 00000000 		.space	16
 858      00000000 
 858      00000000 
 858      00000000 
 859              		.section	.bss.verb,"aw",%nobits
 860              		.align	2
 863              	verb:
 864 0000 00000000 		.space	396100
 864      00000000 
 864      00000000 
 864      00000000 
 864      00000000 
 865              		.text
 866              	.Letext0:
 867              		.file 12 "/usr/lib/gcc/arm-none-eabi/9.2.1/include/stdint.h"
 868              		.file 13 "../../libdaisy/Drivers/CMSIS/Include/core_cm7.h"
 869              		.file 14 "../../libdaisy/Drivers/CMSIS/Device/ST/STM32H7xx/Include/system_stm32h7xx.h"
 870              		.file 15 "/usr/lib/gcc/arm-none-eabi/9.2.1/include/stddef.h"
 871              		.file 16 "/usr/include/newlib/c++/9.2.1/cmath"
 872              		.file 17 "/usr/include/newlib/c++/9.2.1/bits/std_abs.h"
 873              		.file 18 "/usr/include/newlib/c++/9.2.1/cstdint"
 874              		.file 19 "/usr/include/newlib/c++/9.2.1/cstdlib"
 875              		.file 20 "/usr/include/newlib/c++/9.2.1/type_traits"
 876              		.file 21 "/usr/include/newlib/c++/9.2.1/arm-none-eabi/thumb/v7e-m+dp/hard/bits/c++config.h"
 877              		.file 22 "/usr/include/newlib/c++/9.2.1/bits/stl_pair.h"
 878              		.file 23 "/usr/include/newlib/c++/9.2.1/debug/debug.h"
ARM GAS  /tmp/ccrjAVS4.s 			page 29


 879              		.file 24 "/usr/include/newlib/c++/9.2.1/cwchar"
 880              		.file 25 "/usr/include/newlib/c++/9.2.1/bits/exception_ptr.h"
 881              		.file 26 "/usr/include/newlib/c++/9.2.1/new"
 882              		.file 27 "/usr/include/newlib/c++/9.2.1/clocale"
 883              		.file 28 "/usr/include/newlib/c++/9.2.1/cstdio"
 884              		.file 29 "/usr/include/newlib/c++/9.2.1/bits/basic_string.h"
 885              		.file 30 "/usr/include/newlib/c++/9.2.1/bits/uniform_int_dist.h"
 886              		.file 31 "/usr/include/newlib/c++/9.2.1/bits/random.h"
 887              		.file 32 "/usr/include/newlib/c++/9.2.1/cstring"
 888              		.file 33 "/usr/include/newlib/c++/9.2.1/bits/algorithmfwd.h"
 889              		.file 34 "/usr/include/newlib/c++/9.2.1/cstdarg"
 890              		.file 35 "/usr/include/newlib/c++/9.2.1/bits/predefined_ops.h"
 891              		.file 36 "/usr/include/newlib/c++/9.2.1/ext/new_allocator.h"
 892              		.file 37 "/usr/include/newlib/c++/9.2.1/ext/numeric_traits.h"
 893              		.file 38 "/usr/include/newlib/sys/_types.h"
 894              		.file 39 "<built-in>"
 895              		.file 40 "/usr/include/newlib/sys/reent.h"
 896              		.file 41 "/usr/include/newlib/sys/lock.h"
 897              		.file 42 "/usr/include/newlib/math.h"
 898              		.file 43 "/usr/include/newlib/stdlib.h"
 899              		.file 44 "/usr/include/newlib/c++/9.2.1/math.h"
 900              		.file 45 "../../libdaisy/Drivers/STM32H7xx_HAL_Driver/Inc/stm32h7xx_hal_def.h"
 901              		.file 46 "../../libdaisy/Drivers/STM32H7xx_HAL_Driver/Inc/stm32h7xx_hal_flash.h"
 902              		.file 47 "../../DaisySP/Source/Utility/dsp.h"
 903              		.file 48 "/usr/lib/gcc/arm-none-eabi/9.2.1/include/stdarg.h"
 904              		.file 49 "/usr/include/newlib/wchar.h"
 905              		.file 50 "/usr/include/newlib/locale.h"
 906              		.file 51 "/usr/include/newlib/ctype.h"
 907              		.file 52 "/usr/include/newlib/stdio.h"
 908              		.file 53 "/usr/include/newlib/sys/errno.h"
 909              		.file 54 "/usr/include/newlib/c++/9.2.1/stdlib.h"
 910              		.file 55 "/usr/include/newlib/string.h"
 911              		.file 56 "../../libdaisy/src/daisy_core.h"
 912              		.file 57 "../../libdaisy/src/per/tim.h"
 913              		.file 58 "../../libdaisy/src/per/sai.h"
 914              		.file 59 "../../libdaisy/src/util/wav_format.h"
 915              		.file 60 "../../libdaisy/src/per/qspi.h"
 916              		.file 61 "../../libdaisy/src/per/gpio.h"
 917              		.file 62 "../../libdaisy/src/dev/sdram.h"
 918              		.file 63 "/usr/include/newlib/sys/unistd.h"
 919              		.file 64 "../../libdaisy/src/util/oled_fonts.h"
 920              		.file 65 "../../libdaisy/Middlewares/Third_Party/FatFs/src/integer.h"
 921              		.file 66 "../../libdaisy/Middlewares/Third_Party/FatFs/src/ff.h"
 922              		.file 67 "../../libdaisy/Middlewares/Third_Party/FatFs/src/diskio.h"
 923              		.file 68 "../../libdaisy/Middlewares/Third_Party/FatFs/src/ff_gen_drv.h"
 924              		.file 69 "../../libdaisy/src/util/sd_diskio.h"
 925              		.file 70 "../../libdaisy/src/sys/fatfs.h"
 926              		.file 71 "../../libdaisy/src/dev/sr_595.h"
ARM GAS  /tmp/ccrjAVS4.s 			page 30

