ARM GAS  /tmp/ccSywy9h.s 			page 1


   1              		.cpu cortex-m7
   2              		.eabi_attribute 28, 1
   3              		.eabi_attribute 20, 1
   4              		.eabi_attribute 21, 1
   5              		.eabi_attribute 23, 3
   6              		.eabi_attribute 24, 1
   7              		.eabi_attribute 25, 1
   8              		.eabi_attribute 26, 1
   9              		.eabi_attribute 30, 2
  10              		.eabi_attribute 34, 1
  11              		.eabi_attribute 18, 4
  12              		.file	"tremolo.cpp"
  13              		.text
  14              	.Ltext0:
  15              		.cfi_sections	.debug_frame
  16              		.section	.text._ZN5daisy9DaisySeedD2Ev,"axG",%progbits,_ZN5daisy9DaisySeedD5Ev,comdat
  17              		.align	1
  18              		.p2align 2,,3
  19              		.weak	_ZN5daisy9DaisySeedD2Ev
  20              		.arch armv7e-m
  21              		.syntax unified
  22              		.thumb
  23              		.thumb_func
  24              		.fpu fpv5-d16
  26              	_ZN5daisy9DaisySeedD2Ev:
  27              	.LVL0:
  28              	.LFB2037:
  29              		.file 1 "../../libdaisy/src/daisy_seed.h"
   1:../../libdaisy/src/daisy_seed.h **** #pragma once
   2:../../libdaisy/src/daisy_seed.h **** #ifndef DSY_SEED_H
   3:../../libdaisy/src/daisy_seed.h **** #define DSY_SEED_H
   4:../../libdaisy/src/daisy_seed.h **** 
   5:../../libdaisy/src/daisy_seed.h **** #include "daisy.h"
   6:../../libdaisy/src/daisy_seed.h **** 
   7:../../libdaisy/src/daisy_seed.h **** //Uncomment this out if you're still using the rev2 hardware
   8:../../libdaisy/src/daisy_seed.h **** //#define SEED_REV2
   9:../../libdaisy/src/daisy_seed.h **** 
  10:../../libdaisy/src/daisy_seed.h **** namespace daisy
  11:../../libdaisy/src/daisy_seed.h **** {
  12:../../libdaisy/src/daisy_seed.h **** /**
  13:../../libdaisy/src/daisy_seed.h ****    @brief This is the higher-level interface for the Daisy board. \n 
  14:../../libdaisy/src/daisy_seed.h ****     All basic peripheral configuration/initialization is setup here. \n
  15:../../libdaisy/src/daisy_seed.h **** 
  16:../../libdaisy/src/daisy_seed.h ****    @ingroup boards
  17:../../libdaisy/src/daisy_seed.h **** */
  18:../../libdaisy/src/daisy_seed.h **** class DaisySeed
  19:../../libdaisy/src/daisy_seed.h **** {
  20:../../libdaisy/src/daisy_seed.h ****   public:
  21:../../libdaisy/src/daisy_seed.h ****     DaisySeed() {}
  22:../../libdaisy/src/daisy_seed.h ****     ~DaisySeed() {}
  30              		.loc 1 22 5 view -0
  31              		.cfi_startproc
  32              		@ args = 0, pretend = 0, frame = 0
  33              		@ frame_needed = 0, uses_anonymous_args = 0
  34              		@ link register save eliminated.
  35              	.LBB101:
  36              	.LBI101:
ARM GAS  /tmp/ccSywy9h.s 			page 2


  37              		.file 2 "../../libdaisy/src/sys/system.h"
   1:../../libdaisy/src/sys/system.h **** #ifndef DSY_SYSTEM_H
   2:../../libdaisy/src/sys/system.h **** #define DSY_SYSTEM_H
   3:../../libdaisy/src/sys/system.h **** 
   4:../../libdaisy/src/sys/system.h **** #ifndef UNIT_TEST // for unit tests, a dummy implementation is provided below
   5:../../libdaisy/src/sys/system.h **** 
   6:../../libdaisy/src/sys/system.h **** #include <cstdint>
   7:../../libdaisy/src/sys/system.h **** #include "per/tim.h"
   8:../../libdaisy/src/sys/system.h **** 
   9:../../libdaisy/src/sys/system.h **** namespace daisy
  10:../../libdaisy/src/sys/system.h **** {
  11:../../libdaisy/src/sys/system.h **** /** A handle for interacting with the Core System. 
  12:../../libdaisy/src/sys/system.h ****  ** This includes the Clock tree, MPU, global DMA initialization,
  13:../../libdaisy/src/sys/system.h ****  ** cache handling, and any other necessary global initiailzation
  14:../../libdaisy/src/sys/system.h ****  **
  15:../../libdaisy/src/sys/system.h ****  ** @author shensley
  16:../../libdaisy/src/sys/system.h ****  ** @addtogroup system
  17:../../libdaisy/src/sys/system.h ****  */
  18:../../libdaisy/src/sys/system.h **** class System
  19:../../libdaisy/src/sys/system.h **** {
  20:../../libdaisy/src/sys/system.h ****   public:
  21:../../libdaisy/src/sys/system.h ****     /** Contains settings for initializing the System */
  22:../../libdaisy/src/sys/system.h ****     struct Config
  23:../../libdaisy/src/sys/system.h ****     {
  24:../../libdaisy/src/sys/system.h ****         /** Specifies the system clock frequency that feeds APB/AHB clocks, etc. */
  25:../../libdaisy/src/sys/system.h ****         enum class SysClkFreq
  26:../../libdaisy/src/sys/system.h ****         {
  27:../../libdaisy/src/sys/system.h ****             FREQ_400MHZ,
  28:../../libdaisy/src/sys/system.h ****             FREQ_480MHZ,
  29:../../libdaisy/src/sys/system.h ****         };
  30:../../libdaisy/src/sys/system.h **** 
  31:../../libdaisy/src/sys/system.h ****         /** Method to call on the struct to set to defaults
  32:../../libdaisy/src/sys/system.h ****          ** CPU Freq set to 400MHz
  33:../../libdaisy/src/sys/system.h ****          ** Cache Enabled 
  34:../../libdaisy/src/sys/system.h ****          ** */
  35:../../libdaisy/src/sys/system.h ****         void Defaults()
  36:../../libdaisy/src/sys/system.h ****         {
  37:../../libdaisy/src/sys/system.h ****             cpu_freq   = SysClkFreq::FREQ_400MHZ;
  38:../../libdaisy/src/sys/system.h ****             use_dcache = true;
  39:../../libdaisy/src/sys/system.h ****             use_icache = true;
  40:../../libdaisy/src/sys/system.h ****         }
  41:../../libdaisy/src/sys/system.h **** 
  42:../../libdaisy/src/sys/system.h ****         /** Method to call on the struct to set to boost mode:
  43:../../libdaisy/src/sys/system.h ****          ** CPU Freq set to 480MHz
  44:../../libdaisy/src/sys/system.h ****          ** Cache Enabled 
  45:../../libdaisy/src/sys/system.h ****          ** */
  46:../../libdaisy/src/sys/system.h ****         void Boost()
  47:../../libdaisy/src/sys/system.h ****         {
  48:../../libdaisy/src/sys/system.h ****             cpu_freq   = SysClkFreq::FREQ_480MHZ;
  49:../../libdaisy/src/sys/system.h ****             use_dcache = true;
  50:../../libdaisy/src/sys/system.h ****             use_icache = true;
  51:../../libdaisy/src/sys/system.h ****         }
  52:../../libdaisy/src/sys/system.h **** 
  53:../../libdaisy/src/sys/system.h ****         SysClkFreq cpu_freq;
  54:../../libdaisy/src/sys/system.h ****         bool       use_dcache;
  55:../../libdaisy/src/sys/system.h ****         bool       use_icache;
  56:../../libdaisy/src/sys/system.h ****     };
ARM GAS  /tmp/ccSywy9h.s 			page 3


  57:../../libdaisy/src/sys/system.h **** 
  58:../../libdaisy/src/sys/system.h ****     System() {}
  59:../../libdaisy/src/sys/system.h ****     ~System() {}
  38              		.loc 2 59 5 view .LVU1
  39              		.loc 2 59 5 is_stmt 0 view .LVU2
  40              	.LBE101:
  41              	.LBB102:
  42              	.LBI102:
  43              		.file 3 "../../libdaisy/src/hid/usb.h"
   1:../../libdaisy/src/hid/usb.h **** #pragma once
   2:../../libdaisy/src/hid/usb.h **** #ifndef DSY_HID_USB_H
   3:../../libdaisy/src/hid/usb.h **** #define DSY_HID_USB_H
   4:../../libdaisy/src/hid/usb.h **** #include <stdint.h>
   5:../../libdaisy/src/hid/usb.h **** #include <stdlib.h>
   6:../../libdaisy/src/hid/usb.h **** 
   7:../../libdaisy/src/hid/usb.h **** namespace daisy
   8:../../libdaisy/src/hid/usb.h **** /** @addtogroup externals
   9:../../libdaisy/src/hid/usb.h ****     @{
  10:../../libdaisy/src/hid/usb.h **** */
  11:../../libdaisy/src/hid/usb.h **** 
  12:../../libdaisy/src/hid/usb.h **** {
  13:../../libdaisy/src/hid/usb.h **** /** 
  14:../../libdaisy/src/hid/usb.h ****     @brief Interface for initializing and using the USB Peripherals on the daisy
  15:../../libdaisy/src/hid/usb.h ****     @author Stephen Hensley
  16:../../libdaisy/src/hid/usb.h ****     @date December 2019
  17:../../libdaisy/src/hid/usb.h **** */
  18:../../libdaisy/src/hid/usb.h **** class UsbHandle
  19:../../libdaisy/src/hid/usb.h **** {
  20:../../libdaisy/src/hid/usb.h ****   public:
  21:../../libdaisy/src/hid/usb.h ****     /** Return values for USBHandle Functions */
  22:../../libdaisy/src/hid/usb.h ****     enum class Result
  23:../../libdaisy/src/hid/usb.h ****     {
  24:../../libdaisy/src/hid/usb.h ****         OK,
  25:../../libdaisy/src/hid/usb.h ****         ERR,
  26:../../libdaisy/src/hid/usb.h ****     };
  27:../../libdaisy/src/hid/usb.h **** 
  28:../../libdaisy/src/hid/usb.h ****     /** Specified which of the two USB Peripherals to initialize. */
  29:../../libdaisy/src/hid/usb.h ****     enum UsbPeriph
  30:../../libdaisy/src/hid/usb.h ****     {
  31:../../libdaisy/src/hid/usb.h ****         FS_INTERNAL, /**< Internal pin */
  32:../../libdaisy/src/hid/usb.h ****         FS_EXTERNAL, /**< FS External D+ pin is Pin 38 (GPIO32). FS External D- pin is Pin 37 (GPIO
  33:../../libdaisy/src/hid/usb.h ****         FS_BOTH,     /**< Both */
  34:../../libdaisy/src/hid/usb.h ****     };
  35:../../libdaisy/src/hid/usb.h **** 
  36:../../libdaisy/src/hid/usb.h **** 
  37:../../libdaisy/src/hid/usb.h ****     /** Function called upon reception of a buffer */
  38:../../libdaisy/src/hid/usb.h ****     typedef void (*ReceiveCallback)(uint8_t* buff, uint32_t* len);
  39:../../libdaisy/src/hid/usb.h **** 
  40:../../libdaisy/src/hid/usb.h ****     UsbHandle() {}
  41:../../libdaisy/src/hid/usb.h **** 
  42:../../libdaisy/src/hid/usb.h ****     ~UsbHandle() {}
  44              		.loc 3 42 5 is_stmt 1 view .LVU3
  45              		.loc 3 42 5 is_stmt 0 view .LVU4
  46              	.LBE102:
  47              	.LBB103:
  48              	.LBI103:
  49              		.file 4 "../../libdaisy/src/per/adc.h"
ARM GAS  /tmp/ccSywy9h.s 			page 4


   1:../../libdaisy/src/per/adc.h **** #pragma once
   2:../../libdaisy/src/per/adc.h **** #ifndef DSY_ADC_H
   3:../../libdaisy/src/per/adc.h **** #define DSY_ADC_H /**< Macro */
   4:../../libdaisy/src/per/adc.h **** #include <stdint.h>
   5:../../libdaisy/src/per/adc.h **** #include <stdlib.h>
   6:../../libdaisy/src/per/adc.h **** #include "daisy_core.h"
   7:../../libdaisy/src/per/adc.h **** #include "per/gpio.h"
   8:../../libdaisy/src/per/adc.h **** 
   9:../../libdaisy/src/per/adc.h **** #define DSY_ADC_MAX_CHANNELS 14 /**< Maximum number of ADC channels */
  10:../../libdaisy/src/per/adc.h **** 
  11:../../libdaisy/src/per/adc.h **** namespace daisy
  12:../../libdaisy/src/per/adc.h **** {
  13:../../libdaisy/src/per/adc.h **** /** @addtogroup analog_digital_conversion
  14:../../libdaisy/src/per/adc.h ****     @{
  15:../../libdaisy/src/per/adc.h **** */
  16:../../libdaisy/src/per/adc.h **** 
  17:../../libdaisy/src/per/adc.h **** /* While there may not be many configuration options here,
  18:../../libdaisy/src/per/adc.h **** using a struct like this allows us to add more configuration
  19:../../libdaisy/src/per/adc.h **** later without breaking existing functionality.
  20:../../libdaisy/src/per/adc.h **** */
  21:../../libdaisy/src/per/adc.h **** 
  22:../../libdaisy/src/per/adc.h **** /** Configuration Structure for a given channel */
  23:../../libdaisy/src/per/adc.h **** struct AdcChannelConfig
  24:../../libdaisy/src/per/adc.h **** {
  25:../../libdaisy/src/per/adc.h ****     /** Which pin to use for multiplexing */
  26:../../libdaisy/src/per/adc.h ****     enum MuxPin
  27:../../libdaisy/src/per/adc.h ****     {
  28:../../libdaisy/src/per/adc.h ****         MUX_SEL_0,    /**< & */
  29:../../libdaisy/src/per/adc.h ****         MUX_SEL_1,    /**< & */
  30:../../libdaisy/src/per/adc.h ****         MUX_SEL_2,    /**< & */
  31:../../libdaisy/src/per/adc.h ****         MUX_SEL_LAST, /**< & */
  32:../../libdaisy/src/per/adc.h ****     };
  33:../../libdaisy/src/per/adc.h **** 
  34:../../libdaisy/src/per/adc.h ****     /** Initializes a single ADC pin as an ADC. 
  35:../../libdaisy/src/per/adc.h ****     \param pin Pin to init.
  36:../../libdaisy/src/per/adc.h ****      */
  37:../../libdaisy/src/per/adc.h ****     void InitSingle(dsy_gpio_pin pin);
  38:../../libdaisy/src/per/adc.h **** 
  39:../../libdaisy/src/per/adc.h ****     /** 
  40:../../libdaisy/src/per/adc.h ****     Initializes a single ADC pin as a Multiplexed ADC.
  41:../../libdaisy/src/per/adc.h ****     Requires a CD405X Multiplexer connected to the pin.
  42:../../libdaisy/src/per/adc.h ****     You only need to supply the mux pins that are required,
  43:../../libdaisy/src/per/adc.h ****     e.g. a 4052 mux would only require mux_0 and mux_1.
  44:../../libdaisy/src/per/adc.h ****     Internal Callbacks handle the pin addressing.
  45:../../libdaisy/src/per/adc.h ****     \param mux_channels must be 1-8
  46:../../libdaisy/src/per/adc.h ****     \param mux_0 First mux pin
  47:../../libdaisy/src/per/adc.h ****     \param mux_1 Second mux pin
  48:../../libdaisy/src/per/adc.h ****     \param mux_2 Third mux pin
  49:../../libdaisy/src/per/adc.h ****     \param adc_pin &
  50:../../libdaisy/src/per/adc.h ****     */
  51:../../libdaisy/src/per/adc.h ****     void InitMux(dsy_gpio_pin adc_pin,
  52:../../libdaisy/src/per/adc.h ****                  size_t       mux_channels,
  53:../../libdaisy/src/per/adc.h ****                  dsy_gpio_pin mux_0,
  54:../../libdaisy/src/per/adc.h ****                  dsy_gpio_pin mux_1 = {DSY_GPIOX, 0},
  55:../../libdaisy/src/per/adc.h ****                  dsy_gpio_pin mux_2 = {DSY_GPIOX, 0});
  56:../../libdaisy/src/per/adc.h **** 
  57:../../libdaisy/src/per/adc.h ****     dsy_gpio pin_;                   /**< & */
ARM GAS  /tmp/ccSywy9h.s 			page 5


  58:../../libdaisy/src/per/adc.h ****     dsy_gpio mux_pin_[MUX_SEL_LAST]; /**< & */
  59:../../libdaisy/src/per/adc.h ****     uint8_t  mux_channels_;          /**< & */
  60:../../libdaisy/src/per/adc.h **** };
  61:../../libdaisy/src/per/adc.h **** 
  62:../../libdaisy/src/per/adc.h **** /**
  63:../../libdaisy/src/per/adc.h ****    Handler for analog to digital conversion
  64:../../libdaisy/src/per/adc.h **** */
  65:../../libdaisy/src/per/adc.h **** class AdcHandle
  66:../../libdaisy/src/per/adc.h **** {
  67:../../libdaisy/src/per/adc.h ****   public:
  68:../../libdaisy/src/per/adc.h ****     /** Supported oversampling amounts */
  69:../../libdaisy/src/per/adc.h ****     enum OverSampling
  70:../../libdaisy/src/per/adc.h ****     {
  71:../../libdaisy/src/per/adc.h ****         OVS_NONE, /**< & */
  72:../../libdaisy/src/per/adc.h ****         OVS_4,    /**< & */
  73:../../libdaisy/src/per/adc.h ****         OVS_8,    /**< & */
  74:../../libdaisy/src/per/adc.h ****         OVS_16,   /**< & */
  75:../../libdaisy/src/per/adc.h ****         OVS_32,   /**< & */
  76:../../libdaisy/src/per/adc.h ****         OVS_64,   /**< & */
  77:../../libdaisy/src/per/adc.h ****         OVS_128,  /**< & */
  78:../../libdaisy/src/per/adc.h ****         OVS_256,  /**< & */
  79:../../libdaisy/src/per/adc.h ****         OVS_512,  /**< & */
  80:../../libdaisy/src/per/adc.h ****         OVS_1024, /**< & */
  81:../../libdaisy/src/per/adc.h ****         OVS_LAST, /**< & */
  82:../../libdaisy/src/per/adc.h ****     };
  83:../../libdaisy/src/per/adc.h **** 
  84:../../libdaisy/src/per/adc.h ****     AdcHandle() {}
  85:../../libdaisy/src/per/adc.h ****     ~AdcHandle() {}
  50              		.loc 4 85 5 is_stmt 1 view .LVU5
  51              		.loc 4 85 5 is_stmt 0 view .LVU6
  52              	.LBE103:
  53              	.LBB104:
  54              	.LBI104:
  55              		.file 5 "../../libdaisy/src/hid/audio.h"
   1:../../libdaisy/src/hid/audio.h **** #ifndef DSY_AUDIO_H
   2:../../libdaisy/src/hid/audio.h **** #define DSY_AUDIO_H /**< & */
   3:../../libdaisy/src/hid/audio.h **** 
   4:../../libdaisy/src/hid/audio.h **** #include "per/sai.h"
   5:../../libdaisy/src/hid/audio.h **** 
   6:../../libdaisy/src/hid/audio.h **** namespace daisy
   7:../../libdaisy/src/hid/audio.h **** {
   8:../../libdaisy/src/hid/audio.h **** class AudioHandle
   9:../../libdaisy/src/hid/audio.h **** {
  10:../../libdaisy/src/hid/audio.h ****   public:
  11:../../libdaisy/src/hid/audio.h ****     /** Manually configurable details about the Audio Engine */
  12:../../libdaisy/src/hid/audio.h ****     /** TODO: Figure out how to get samplerate in here. */
  13:../../libdaisy/src/hid/audio.h ****     struct Config
  14:../../libdaisy/src/hid/audio.h ****     {
  15:../../libdaisy/src/hid/audio.h ****         size_t                        blocksize;
  16:../../libdaisy/src/hid/audio.h ****         SaiHandle::Config::SampleRate samplerate;
  17:../../libdaisy/src/hid/audio.h ****         float                         postgain;
  18:../../libdaisy/src/hid/audio.h ****     };
  19:../../libdaisy/src/hid/audio.h **** 
  20:../../libdaisy/src/hid/audio.h ****     enum class Result
  21:../../libdaisy/src/hid/audio.h ****     {
  22:../../libdaisy/src/hid/audio.h ****         OK,
  23:../../libdaisy/src/hid/audio.h ****         ERR,
ARM GAS  /tmp/ccSywy9h.s 			page 6


  24:../../libdaisy/src/hid/audio.h ****     };
  25:../../libdaisy/src/hid/audio.h **** 
  26:../../libdaisy/src/hid/audio.h ****     /** Non-Interleaving input buffer
  27:../../libdaisy/src/hid/audio.h ****      * Buffer arranged by float[chn][sample] 
  28:../../libdaisy/src/hid/audio.h ****      * const so that the user can't modify the input
  29:../../libdaisy/src/hid/audio.h ****     */
  30:../../libdaisy/src/hid/audio.h ****     typedef const float* const* InputBuffer;
  31:../../libdaisy/src/hid/audio.h **** 
  32:../../libdaisy/src/hid/audio.h ****     /** Non-Interleaving output buffer
  33:../../libdaisy/src/hid/audio.h ****      * Arranged by float[chn][sample] 
  34:../../libdaisy/src/hid/audio.h ****     */
  35:../../libdaisy/src/hid/audio.h ****     typedef float** OutputBuffer;
  36:../../libdaisy/src/hid/audio.h **** 
  37:../../libdaisy/src/hid/audio.h ****     /** Type for a Non-Interleaving audio callback 
  38:../../libdaisy/src/hid/audio.h ****    * Non-Interleaving audio callbacks in daisy will be of this type
  39:../../libdaisy/src/hid/audio.h ****   */
  40:../../libdaisy/src/hid/audio.h ****     typedef void (*AudioCallback)(InputBuffer  in,
  41:../../libdaisy/src/hid/audio.h ****                                   OutputBuffer out,
  42:../../libdaisy/src/hid/audio.h ****                                   size_t       size);
  43:../../libdaisy/src/hid/audio.h **** 
  44:../../libdaisy/src/hid/audio.h ****     /** Interleaving Input buffer
  45:../../libdaisy/src/hid/audio.h ****      ** audio is prepared as { L0, R0, L1, R1, . . . LN, RN }]
  46:../../libdaisy/src/hid/audio.h ****      ** this is const, as the user shouldn't modify it
  47:../../libdaisy/src/hid/audio.h ****     */
  48:../../libdaisy/src/hid/audio.h ****     typedef const float* InterleavingInputBuffer;
  49:../../libdaisy/src/hid/audio.h **** 
  50:../../libdaisy/src/hid/audio.h ****     /** Interleaving Output buffer 
  51:../../libdaisy/src/hid/audio.h ****      ** audio is prepared as { L0, R0, L1, R1, . . . LN, RN }
  52:../../libdaisy/src/hid/audio.h ****     */
  53:../../libdaisy/src/hid/audio.h ****     typedef float* InterleavingOutputBuffer;
  54:../../libdaisy/src/hid/audio.h **** 
  55:../../libdaisy/src/hid/audio.h ****     /** Interleaving Audio Callback 
  56:../../libdaisy/src/hid/audio.h ****    * Interleaving audio callbacks in daisy must be of this type
  57:../../libdaisy/src/hid/audio.h ****   */
  58:../../libdaisy/src/hid/audio.h ****     typedef void (*InterleavingAudioCallback)(InterleavingInputBuffer  in,
  59:../../libdaisy/src/hid/audio.h ****                                               InterleavingOutputBuffer out,
  60:../../libdaisy/src/hid/audio.h ****                                               size_t                   size);
  61:../../libdaisy/src/hid/audio.h **** 
  62:../../libdaisy/src/hid/audio.h ****     AudioHandle() : pimpl_(nullptr) {}
  63:../../libdaisy/src/hid/audio.h ****     ~AudioHandle() {}
  56              		.loc 5 63 5 is_stmt 1 view .LVU7
  57              		.loc 5 63 5 is_stmt 0 view .LVU8
  58              	.LBE104:
  59              		.loc 1 22 19 view .LVU9
  60 0000 7047     		bx	lr
  61              		.cfi_endproc
  62              	.LFE2037:
  64              		.weak	_ZN5daisy9DaisySeedD1Ev
  65              		.thumb_set _ZN5daisy9DaisySeedD1Ev,_ZN5daisy9DaisySeedD2Ev
  66 0002 00BF     		.section	.text._ZN7daisysp5AdEnvD2Ev,"axG",%progbits,_ZN7daisysp5AdEnvD5Ev,comdat
  67              		.align	1
  68              		.p2align 2,,3
  69              		.weak	_ZN7daisysp5AdEnvD2Ev
  70              		.syntax unified
  71              		.thumb
  72              		.thumb_func
  73              		.fpu fpv5-d16
ARM GAS  /tmp/ccSywy9h.s 			page 7


  75              	_ZN7daisysp5AdEnvD2Ev:
  76              	.LVL1:
  77              	.LFB2046:
  78              		.file 6 "../../DaisySP/Source/Control/adenv.h"
   1:../../DaisySP/Source/Control/adenv.h **** #pragma once
   2:../../DaisySP/Source/Control/adenv.h **** #ifndef ADENV_H
   3:../../DaisySP/Source/Control/adenv.h **** #define ADENV_H
   4:../../DaisySP/Source/Control/adenv.h **** #include <stdint.h>
   5:../../DaisySP/Source/Control/adenv.h **** #ifdef __cplusplus
   6:../../DaisySP/Source/Control/adenv.h **** 
   7:../../DaisySP/Source/Control/adenv.h **** namespace daisysp
   8:../../DaisySP/Source/Control/adenv.h **** {
   9:../../DaisySP/Source/Control/adenv.h **** /** Distinct stages that the phase of the envelope can be located in.
  10:../../DaisySP/Source/Control/adenv.h ****     @see AdEnv
  11:../../DaisySP/Source/Control/adenv.h **** */
  12:../../DaisySP/Source/Control/adenv.h **** enum AdEnvSegment
  13:../../DaisySP/Source/Control/adenv.h **** {
  14:../../DaisySP/Source/Control/adenv.h ****     /** located at phase location 0, and not currently running */
  15:../../DaisySP/Source/Control/adenv.h ****     ADENV_SEG_IDLE,
  16:../../DaisySP/Source/Control/adenv.h ****     /** First segment of envelope where phase moves from MIN value to MAX value */
  17:../../DaisySP/Source/Control/adenv.h ****     ADENV_SEG_ATTACK,
  18:../../DaisySP/Source/Control/adenv.h ****     /** Second segment of envelope where phase moves from MAX to MIN value */
  19:../../DaisySP/Source/Control/adenv.h ****     ADENV_SEG_DECAY,
  20:../../DaisySP/Source/Control/adenv.h ****     /** The final segment of the envelope (currently decay) */
  21:../../DaisySP/Source/Control/adenv.h ****     ADENV_SEG_LAST,
  22:../../DaisySP/Source/Control/adenv.h **** };
  23:../../DaisySP/Source/Control/adenv.h **** 
  24:../../DaisySP/Source/Control/adenv.h **** /** Trigger-able envelope with adjustable min/max, and independent per-segment time control.
  25:../../DaisySP/Source/Control/adenv.h **** 
  26:../../DaisySP/Source/Control/adenv.h ****     \author shensley
  27:../../DaisySP/Source/Control/adenv.h ****     \todo - Add Cycling
  28:../../DaisySP/Source/Control/adenv.h ****     \todo - Implement Curve (its only linear for now).
  29:../../DaisySP/Source/Control/adenv.h ****     \todo - Maybe make this an ADsr_ that has AD/AR/Asr_ modes.
  30:../../DaisySP/Source/Control/adenv.h ****  */
  31:../../DaisySP/Source/Control/adenv.h **** class AdEnv
  32:../../DaisySP/Source/Control/adenv.h **** {
  33:../../DaisySP/Source/Control/adenv.h ****   public:
  34:../../DaisySP/Source/Control/adenv.h ****     AdEnv() {}
  35:../../DaisySP/Source/Control/adenv.h ****     ~AdEnv() {}
  79              		.loc 6 35 5 is_stmt 1 view -0
  80              		.cfi_startproc
  81              		@ args = 0, pretend = 0, frame = 0
  82              		@ frame_needed = 0, uses_anonymous_args = 0
  83              		@ link register save eliminated.
  84              		.loc 6 35 15 is_stmt 0 view .LVU11
  85 0000 7047     		bx	lr
  86              		.cfi_endproc
  87              	.LFE2046:
  89              		.weak	_ZN7daisysp5AdEnvD1Ev
  90              		.thumb_set _ZN7daisysp5AdEnvD1Ev,_ZN7daisysp5AdEnvD2Ev
  91 0002 00BF     		.section	.text._ZN7daisysp10OscillatorD2Ev,"axG",%progbits,_ZN7daisysp10OscillatorD5Ev,comdat
  92              		.align	1
  93              		.p2align 2,,3
  94              		.weak	_ZN7daisysp10OscillatorD2Ev
  95              		.syntax unified
  96              		.thumb
  97              		.thumb_func
ARM GAS  /tmp/ccSywy9h.s 			page 8


  98              		.fpu fpv5-d16
 100              	_ZN7daisysp10OscillatorD2Ev:
 101              	.LVL2:
 102              	.LFB3674:
 103              		.file 7 "../../DaisySP/Source/Synthesis/oscillator.h"
   1:../../DaisySP/Source/Synthesis/oscillator.h **** #pragma once
   2:../../DaisySP/Source/Synthesis/oscillator.h **** #ifndef DSY_OSCILLATOR_H
   3:../../DaisySP/Source/Synthesis/oscillator.h **** #define DSY_OSCILLATOR_H
   4:../../DaisySP/Source/Synthesis/oscillator.h **** #include <stdint.h>
   5:../../DaisySP/Source/Synthesis/oscillator.h **** #include "Utility/dsp.h"
   6:../../DaisySP/Source/Synthesis/oscillator.h **** #ifdef __cplusplus
   7:../../DaisySP/Source/Synthesis/oscillator.h **** 
   8:../../DaisySP/Source/Synthesis/oscillator.h **** namespace daisysp
   9:../../DaisySP/Source/Synthesis/oscillator.h **** {
  10:../../DaisySP/Source/Synthesis/oscillator.h **** /** Synthesis of several waveforms, including polyBLEP bandlimited waveforms.
  11:../../DaisySP/Source/Synthesis/oscillator.h **** */
  12:../../DaisySP/Source/Synthesis/oscillator.h **** class Oscillator
  13:../../DaisySP/Source/Synthesis/oscillator.h **** {
  14:../../DaisySP/Source/Synthesis/oscillator.h ****   public:
  15:../../DaisySP/Source/Synthesis/oscillator.h ****     Oscillator() {}
  16:../../DaisySP/Source/Synthesis/oscillator.h ****     ~Oscillator() {}
 104              		.loc 7 16 5 is_stmt 1 view -0
 105              		.cfi_startproc
 106              		@ args = 0, pretend = 0, frame = 0
 107              		@ frame_needed = 0, uses_anonymous_args = 0
 108              		@ link register save eliminated.
 109              		.loc 7 16 20 is_stmt 0 view .LVU13
 110 0000 7047     		bx	lr
 111              		.cfi_endproc
 112              	.LFE3674:
 114              		.weak	_ZN7daisysp10OscillatorD1Ev
 115              		.thumb_set _ZN7daisysp10OscillatorD1Ev,_ZN7daisysp10OscillatorD2Ev
 116 0002 00BF     		.section	.text._ZN7daisysp7TremoloD2Ev,"axG",%progbits,_ZN7daisysp7TremoloD5Ev,comdat
 117              		.align	1
 118              		.p2align 2,,3
 119              		.weak	_ZN7daisysp7TremoloD2Ev
 120              		.syntax unified
 121              		.thumb
 122              		.thumb_func
 123              		.fpu fpv5-d16
 125              	_ZN7daisysp7TremoloD2Ev:
 126              	.LVL3:
 127              	.LFB3917:
 128              		.file 8 "../../DaisySP/Source/Effects/tremolo.h"
   1:../../DaisySP/Source/Effects/tremolo.h **** #pragma once
   2:../../DaisySP/Source/Effects/tremolo.h **** #ifndef DSY_TREMOLO_H
   3:../../DaisySP/Source/Effects/tremolo.h **** #define DSY_TREMOLO_H
   4:../../DaisySP/Source/Effects/tremolo.h **** 
   5:../../DaisySP/Source/Effects/tremolo.h **** #include <stdint.h>
   6:../../DaisySP/Source/Effects/tremolo.h **** #ifdef __cplusplus
   7:../../DaisySP/Source/Effects/tremolo.h **** 
   8:../../DaisySP/Source/Effects/tremolo.h **** #include <math.h>
   9:../../DaisySP/Source/Effects/tremolo.h **** #include "Synthesis/oscillator.h"
  10:../../DaisySP/Source/Effects/tremolo.h **** 
  11:../../DaisySP/Source/Effects/tremolo.h **** /** @file tremolo.h */
  12:../../DaisySP/Source/Effects/tremolo.h **** 
  13:../../DaisySP/Source/Effects/tremolo.h **** namespace daisysp
ARM GAS  /tmp/ccSywy9h.s 			page 9


  14:../../DaisySP/Source/Effects/tremolo.h **** {
  15:../../DaisySP/Source/Effects/tremolo.h **** /**  
  16:../../DaisySP/Source/Effects/tremolo.h ****     @brief Tremolo effect.
  17:../../DaisySP/Source/Effects/tremolo.h ****     @author Ben Sergentanis
  18:../../DaisySP/Source/Effects/tremolo.h ****     @date Jan 2021
  19:../../DaisySP/Source/Effects/tremolo.h ****     Based on https://christianfloisand.wordpress.com/2012/04/18/coding-some-tremolo/ \n
  20:../../DaisySP/Source/Effects/tremolo.h **** */
  21:../../DaisySP/Source/Effects/tremolo.h **** class Tremolo
  22:../../DaisySP/Source/Effects/tremolo.h **** {
  23:../../DaisySP/Source/Effects/tremolo.h ****   public:
  24:../../DaisySP/Source/Effects/tremolo.h ****     Tremolo() {}
  25:../../DaisySP/Source/Effects/tremolo.h ****     ~Tremolo() {}
 129              		.loc 8 25 5 is_stmt 1 view -0
 130              		.cfi_startproc
 131              		@ args = 0, pretend = 0, frame = 0
 132              		@ frame_needed = 0, uses_anonymous_args = 0
 133              		@ link register save eliminated.
 134              	.LBB105:
 135              	.LBI105:
 136              		.loc 7 16 5 view .LVU15
 137              		.loc 7 16 5 is_stmt 0 view .LVU16
 138              	.LBE105:
 139              		.loc 8 25 17 view .LVU17
 140 0000 7047     		bx	lr
 141              		.cfi_endproc
 142              	.LFE3917:
 144              		.weak	_ZN7daisysp7TremoloD1Ev
 145              		.thumb_set _ZN7daisysp7TremoloD1Ev,_ZN7daisysp7TremoloD2Ev
 146 0002 00BF     		.section	.text._ZN7daisysp5MetroD2Ev,"axG",%progbits,_ZN7daisysp5MetroD5Ev,comdat
 147              		.align	1
 148              		.p2align 2,,3
 149              		.weak	_ZN7daisysp5MetroD2Ev
 150              		.syntax unified
 151              		.thumb
 152              		.thumb_func
 153              		.fpu fpv5-d16
 155              	_ZN7daisysp5MetroD2Ev:
 156              	.LVL4:
 157              	.LFB4183:
 158              		.file 9 "../../DaisySP/Source/Utility/metro.h"
   1:../../DaisySP/Source/Utility/metro.h **** #pragma once
   2:../../DaisySP/Source/Utility/metro.h **** #ifndef DSY_METRO_H
   3:../../DaisySP/Source/Utility/metro.h **** #define DSY_METRO_H
   4:../../DaisySP/Source/Utility/metro.h **** #include <stdint.h>
   5:../../DaisySP/Source/Utility/metro.h **** #ifdef __cplusplus
   6:../../DaisySP/Source/Utility/metro.h **** 
   7:../../DaisySP/Source/Utility/metro.h **** namespace daisysp
   8:../../DaisySP/Source/Utility/metro.h **** {
   9:../../DaisySP/Source/Utility/metro.h **** /** Creates a clock signal at a specific frequency.
  10:../../DaisySP/Source/Utility/metro.h **** */
  11:../../DaisySP/Source/Utility/metro.h **** class Metro
  12:../../DaisySP/Source/Utility/metro.h **** {
  13:../../DaisySP/Source/Utility/metro.h ****   public:
  14:../../DaisySP/Source/Utility/metro.h ****     Metro() {}
  15:../../DaisySP/Source/Utility/metro.h ****     ~Metro() {}
 159              		.loc 9 15 5 is_stmt 1 view -0
 160              		.cfi_startproc
ARM GAS  /tmp/ccSywy9h.s 			page 10


 161              		@ args = 0, pretend = 0, frame = 0
 162              		@ frame_needed = 0, uses_anonymous_args = 0
 163              		@ link register save eliminated.
 164              		.loc 9 15 15 is_stmt 0 view .LVU19
 165 0000 7047     		bx	lr
 166              		.cfi_endproc
 167              	.LFE4183:
 169              		.weak	_ZN7daisysp5MetroD1Ev
 170              		.thumb_set _ZN7daisysp5MetroD1Ev,_ZN7daisysp5MetroD2Ev
 171 0002 00BF     		.section	.text._Z13AudioCallbackPKPKfPPfj,"ax",%progbits
 172              		.align	1
 173              		.p2align 2,,3
 174              		.global	_Z13AudioCallbackPKPKfPPfj
 175              		.syntax unified
 176              		.thumb
 177              		.thumb_func
 178              		.fpu fpv5-d16
 180              	_Z13AudioCallbackPKPKfPPfj:
 181              	.LVL5:
 182              	.LFB4212:
 183              		.file 10 "tremolo.cpp"
   1:tremolo.cpp   **** #include "daisy_seed.h"
   2:tremolo.cpp   **** #include "daisysp.h"
   3:tremolo.cpp   **** 
   4:tremolo.cpp   **** using namespace daisy;
   5:tremolo.cpp   **** using namespace daisysp;
   6:tremolo.cpp   **** 
   7:tremolo.cpp   **** DaisySeed hw;
   8:tremolo.cpp   **** 
   9:tremolo.cpp   **** Oscillator osc;
  10:tremolo.cpp   **** Metro      tick;
  11:tremolo.cpp   **** AdEnv      env;
  12:tremolo.cpp   **** Tremolo    trem;
  13:tremolo.cpp   **** 
  14:tremolo.cpp   **** void AudioCallback(AudioHandle::InputBuffer  in,
  15:tremolo.cpp   ****                    AudioHandle::OutputBuffer out,
  16:tremolo.cpp   ****                    size_t                    size)
  17:tremolo.cpp   **** {
 184              		.loc 10 17 1 is_stmt 1 view -0
 185              		.cfi_startproc
 186              		@ args = 0, pretend = 0, frame = 0
 187              		@ frame_needed = 0, uses_anonymous_args = 0
  18:tremolo.cpp   ****     for(size_t i = 0; i < size; i++)
 188              		.loc 10 18 5 view .LVU21
 189              	.LBB106:
 190              		.loc 10 18 25 view .LVU22
 191 0000 002A     		cmp	r2, #0
 192 0002 5CD0     		beq	.L19
 193              	.LBE106:
  17:tremolo.cpp   ****     for(size_t i = 0; i < size; i++)
 194              		.loc 10 17 1 is_stmt 0 view .LVU23
 195 0004 2DE9F041 		push	{r4, r5, r6, r7, r8, lr}
 196              		.cfi_def_cfa_offset 24
 197              		.cfi_offset 4, -24
 198              		.cfi_offset 5, -20
 199              		.cfi_offset 6, -16
 200              		.cfi_offset 7, -12
ARM GAS  /tmp/ccSywy9h.s 			page 11


 201              		.cfi_offset 8, -8
 202              		.cfi_offset 14, -4
 203 0008 0E46     		mov	r6, r1
 204 000a 9046     		mov	r8, r2
 205              	.LBB115:
 206              		.loc 10 18 16 view .LVU24
 207 000c 0024     		movs	r4, #0
 208              	.LBE115:
  17:tremolo.cpp   ****     for(size_t i = 0; i < size; i++)
 209              		.loc 10 17 1 view .LVU25
 210 000e 2DED028B 		vpush.64	{d8}
 211              		.cfi_def_cfa_offset 32
 212              		.cfi_offset 80, -32
 213              		.cfi_offset 81, -28
 214 0012 11E0     		b	.L10
 215              	.LVL6:
 216              	.L9:
 217              	.LBB116:
  19:tremolo.cpp   ****     {
  20:tremolo.cpp   ****         if(tick.Process())
  21:tremolo.cpp   ****         {
  22:tremolo.cpp   ****             trem.SetFreq(10.f * rand() * kRandFrac);
  23:tremolo.cpp   ****             trem.SetDepth(.3f + rand() * kRandFrac);
  24:tremolo.cpp   ****             env.Trigger();
  25:tremolo.cpp   ****             osc.SetFreq(330.f * rand() * kRandFrac + 110.f);
  26:tremolo.cpp   ****         }
  27:tremolo.cpp   **** 
  28:tremolo.cpp   ****         out[0][i] = out[1][i] = trem.Process(osc.Process() * 1.f);
 218              		.loc 10 28 9 is_stmt 1 discriminator 2 view .LVU26
 219              		.loc 10 28 45 is_stmt 0 discriminator 2 view .LVU27
 220 0014 2A48     		ldr	r0, .L23
 221 0016 FFF7FEFF 		bl	_ZN7daisysp10Oscillator7ProcessEv
 222              	.LVL7:
 223              		.loc 10 28 29 discriminator 2 view .LVU28
 224 001a 7368     		ldr	r3, [r6, #4]
 225              		.loc 10 28 45 discriminator 2 view .LVU29
 226 001c 2948     		ldr	r0, .L23+4
 227              		.loc 10 28 29 discriminator 2 view .LVU30
 228 001e 03EB8405 		add	r5, r3, r4, lsl #2
  18:tremolo.cpp   ****     {
 229              		.loc 10 18 5 discriminator 2 view .LVU31
 230 0022 0134     		adds	r4, r4, #1
 231              	.LVL8:
 232              		.loc 10 28 45 discriminator 2 view .LVU32
 233 0024 FFF7FEFF 		bl	_ZN7daisysp7Tremolo7ProcessEf
 234              	.LVL9:
 235              		.loc 10 28 19 discriminator 2 view .LVU33
 236 0028 3368     		ldr	r3, [r6]
  18:tremolo.cpp   ****     {
 237              		.loc 10 18 25 discriminator 2 view .LVU34
 238 002a A045     		cmp	r8, r4
 239              		.loc 10 28 31 discriminator 2 view .LVU35
 240 002c 85ED000A 		vstr.32	s0, [r5]
 241              		.loc 10 28 19 discriminator 2 view .LVU36
 242 0030 3B44     		add	r3, r3, r7
 243 0032 83ED000A 		vstr.32	s0, [r3]
  18:tremolo.cpp   ****     {
ARM GAS  /tmp/ccSywy9h.s 			page 12


 244              		.loc 10 18 5 is_stmt 1 discriminator 2 view .LVU37
 245              	.LVL10:
  18:tremolo.cpp   ****     {
 246              		.loc 10 18 25 discriminator 2 view .LVU38
 247 0036 3ED0     		beq	.L22
 248              	.LVL11:
 249              	.L10:
  20:tremolo.cpp   ****         {
 250              		.loc 10 20 9 view .LVU39
  20:tremolo.cpp   ****         {
 251              		.loc 10 20 24 is_stmt 0 view .LVU40
 252 0038 2348     		ldr	r0, .L23+8
 253 003a A700     		lsls	r7, r4, #2
 254 003c FFF7FEFF 		bl	_ZN7daisysp5Metro7ProcessEv
 255              	.LVL12:
  20:tremolo.cpp   ****         {
 256              		.loc 10 20 9 view .LVU41
 257 0040 0028     		cmp	r0, #0
 258 0042 E7D0     		beq	.L9
  22:tremolo.cpp   ****             trem.SetDepth(.3f + rand() * kRandFrac);
 259              		.loc 10 22 13 is_stmt 1 view .LVU42
  22:tremolo.cpp   ****             trem.SetDepth(.3f + rand() * kRandFrac);
 260              		.loc 10 22 37 is_stmt 0 view .LVU43
 261 0044 FFF7FEFF 		bl	rand
 262              	.LVL13:
  22:tremolo.cpp   ****             trem.SetDepth(.3f + rand() * kRandFrac);
 263              		.loc 10 22 31 view .LVU44
 264 0048 07EE100A 		vmov	s14, r0	@ int
 265 004c F2EE047A 		vmov.f32	s15, #1.0e+1
  22:tremolo.cpp   ****             trem.SetDepth(.3f + rand() * kRandFrac);
 266              		.loc 10 22 25 view .LVU45
 267 0050 9FED1E8A 		vldr.32	s16, .L23+12
  22:tremolo.cpp   ****             trem.SetDepth(.3f + rand() * kRandFrac);
 268              		.loc 10 22 31 view .LVU46
 269 0054 B8EEC70A 		vcvt.f32.s32	s0, s14
  22:tremolo.cpp   ****             trem.SetDepth(.3f + rand() * kRandFrac);
 270              		.loc 10 22 25 view .LVU47
 271 0058 1A48     		ldr	r0, .L23+4
 272              	.LBB107:
 273              	.LBB108:
  17:../../DaisySP/Source/Synthesis/oscillator.h ****     /** Choices for output waveforms, POLYBLEP are appropriately labeled. Others are naive forms.
  18:../../DaisySP/Source/Synthesis/oscillator.h ****     */
  19:../../DaisySP/Source/Synthesis/oscillator.h ****     enum
  20:../../DaisySP/Source/Synthesis/oscillator.h ****     {
  21:../../DaisySP/Source/Synthesis/oscillator.h ****         WAVE_SIN,
  22:../../DaisySP/Source/Synthesis/oscillator.h ****         WAVE_TRI,
  23:../../DaisySP/Source/Synthesis/oscillator.h ****         WAVE_SAW,
  24:../../DaisySP/Source/Synthesis/oscillator.h ****         WAVE_RAMP,
  25:../../DaisySP/Source/Synthesis/oscillator.h ****         WAVE_SQUARE,
  26:../../DaisySP/Source/Synthesis/oscillator.h ****         WAVE_POLYBLEP_TRI,
  27:../../DaisySP/Source/Synthesis/oscillator.h ****         WAVE_POLYBLEP_SAW,
  28:../../DaisySP/Source/Synthesis/oscillator.h ****         WAVE_POLYBLEP_SQUARE,
  29:../../DaisySP/Source/Synthesis/oscillator.h ****         WAVE_LAST,
  30:../../DaisySP/Source/Synthesis/oscillator.h ****     };
  31:../../DaisySP/Source/Synthesis/oscillator.h **** 
  32:../../DaisySP/Source/Synthesis/oscillator.h **** 
  33:../../DaisySP/Source/Synthesis/oscillator.h ****     /** Initializes the Oscillator
ARM GAS  /tmp/ccSywy9h.s 			page 13


  34:../../DaisySP/Source/Synthesis/oscillator.h **** 
  35:../../DaisySP/Source/Synthesis/oscillator.h ****         \param sample_rate - sample rate of the audio engine being run, and the frequency that the 
  36:../../DaisySP/Source/Synthesis/oscillator.h **** 
  37:../../DaisySP/Source/Synthesis/oscillator.h ****         Defaults:
  38:../../DaisySP/Source/Synthesis/oscillator.h ****         - freq_ = 100 Hz
  39:../../DaisySP/Source/Synthesis/oscillator.h ****         - amp_ = 0.5
  40:../../DaisySP/Source/Synthesis/oscillator.h ****         - waveform_ = sine wave.
  41:../../DaisySP/Source/Synthesis/oscillator.h ****     */
  42:../../DaisySP/Source/Synthesis/oscillator.h ****     void Init(float sample_rate)
  43:../../DaisySP/Source/Synthesis/oscillator.h ****     {
  44:../../DaisySP/Source/Synthesis/oscillator.h ****         sr_        = sample_rate;
  45:../../DaisySP/Source/Synthesis/oscillator.h ****         sr_recip_  = 1.0f / sample_rate;
  46:../../DaisySP/Source/Synthesis/oscillator.h ****         freq_      = 100.0f;
  47:../../DaisySP/Source/Synthesis/oscillator.h ****         amp_       = 0.5f;
  48:../../DaisySP/Source/Synthesis/oscillator.h ****         phase_     = 0.0f;
  49:../../DaisySP/Source/Synthesis/oscillator.h ****         phase_inc_ = CalcPhaseInc(freq_);
  50:../../DaisySP/Source/Synthesis/oscillator.h ****         waveform_  = WAVE_SIN;
  51:../../DaisySP/Source/Synthesis/oscillator.h ****         eoc_       = true;
  52:../../DaisySP/Source/Synthesis/oscillator.h ****         eor_       = true;
  53:../../DaisySP/Source/Synthesis/oscillator.h ****     }
  54:../../DaisySP/Source/Synthesis/oscillator.h **** 
  55:../../DaisySP/Source/Synthesis/oscillator.h **** 
  56:../../DaisySP/Source/Synthesis/oscillator.h ****     /** Changes the frequency of the Oscillator, and recalculates phase increment.
  57:../../DaisySP/Source/Synthesis/oscillator.h ****     */
  58:../../DaisySP/Source/Synthesis/oscillator.h ****     inline void SetFreq(const float f)
  59:../../DaisySP/Source/Synthesis/oscillator.h ****     {
  60:../../DaisySP/Source/Synthesis/oscillator.h ****         freq_      = f;
 274              		.loc 7 60 20 view .LVU48
 275 005a 194D     		ldr	r5, .L23
 276              	.LBE108:
 277              	.LBE107:
  22:tremolo.cpp   ****             trem.SetDepth(.3f + rand() * kRandFrac);
 278              		.loc 10 22 31 view .LVU49
 279 005c 20EE270A 		vmul.f32	s0, s0, s15
  22:tremolo.cpp   ****             trem.SetDepth(.3f + rand() * kRandFrac);
 280              		.loc 10 22 25 view .LVU50
 281 0060 20EE080A 		vmul.f32	s0, s0, s16
 282 0064 FFF7FEFF 		bl	_ZN7daisysp7Tremolo7SetFreqEf
 283              	.LVL14:
  23:tremolo.cpp   ****             env.Trigger();
 284              		.loc 10 23 13 is_stmt 1 view .LVU51
  23:tremolo.cpp   ****             env.Trigger();
 285              		.loc 10 23 37 is_stmt 0 view .LVU52
 286 0068 FFF7FEFF 		bl	rand
 287              	.LVL15:
  23:tremolo.cpp   ****             env.Trigger();
 288              		.loc 10 23 40 view .LVU53
 289 006c 07EE900A 		vmov	s15, r0	@ int
  23:tremolo.cpp   ****             env.Trigger();
 290              		.loc 10 23 26 view .LVU54
 291 0070 9FED170A 		vldr.32	s0, .L23+16
  23:tremolo.cpp   ****             env.Trigger();
 292              		.loc 10 23 40 view .LVU55
 293 0074 F8EEE77A 		vcvt.f32.s32	s15, s15
  23:tremolo.cpp   ****             env.Trigger();
 294              		.loc 10 23 26 view .LVU56
 295 0078 1248     		ldr	r0, .L23+4
ARM GAS  /tmp/ccSywy9h.s 			page 14


 296 007a A7EE880A 		vfma.f32	s0, s15, s16
 297 007e FFF7FEFF 		bl	_ZN7daisysp7Tremolo8SetDepthEf
 298              	.LVL16:
  24:tremolo.cpp   ****             osc.SetFreq(330.f * rand() * kRandFrac + 110.f);
 299              		.loc 10 24 13 is_stmt 1 view .LVU57
 300              	.LBB111:
 301              	.LBI111:
  36:../../DaisySP/Source/Control/adenv.h ****     /** Initializes the ad envelope.
  37:../../DaisySP/Source/Control/adenv.h **** 
  38:../../DaisySP/Source/Control/adenv.h ****         Defaults:
  39:../../DaisySP/Source/Control/adenv.h ****             - current segment = idle
  40:../../DaisySP/Source/Control/adenv.h ****             - curve = linear
  41:../../DaisySP/Source/Control/adenv.h ****             - phase = 0
  42:../../DaisySP/Source/Control/adenv.h ****             - min = 0
  43:../../DaisySP/Source/Control/adenv.h ****             - max = 1
  44:../../DaisySP/Source/Control/adenv.h **** 
  45:../../DaisySP/Source/Control/adenv.h ****         \param sample_rate      sample rate of the audio engine being run
  46:../../DaisySP/Source/Control/adenv.h ****     */
  47:../../DaisySP/Source/Control/adenv.h ****     void Init(float sample_rate);
  48:../../DaisySP/Source/Control/adenv.h **** 
  49:../../DaisySP/Source/Control/adenv.h ****     /** Processes the current sample of the envelope. This should be called once
  50:../../DaisySP/Source/Control/adenv.h ****         per sample period.
  51:../../DaisySP/Source/Control/adenv.h ****         \return the current envelope value.
  52:../../DaisySP/Source/Control/adenv.h ****     */
  53:../../DaisySP/Source/Control/adenv.h ****     float Process();
  54:../../DaisySP/Source/Control/adenv.h **** 
  55:../../DaisySP/Source/Control/adenv.h ****     /** Starts or retriggers the envelope.*/
  56:../../DaisySP/Source/Control/adenv.h ****     inline void Trigger() { trigger_ = 1; }
 302              		.loc 6 56 17 view .LVU58
 303              	.LBB112:
 304              		.loc 6 56 29 view .LVU59
 305              		.loc 6 56 38 is_stmt 0 view .LVU60
 306 0082 144B     		ldr	r3, .L23+20
 307 0084 0122     		movs	r2, #1
 308 0086 83F83420 		strb	r2, [r3, #52]
 309              	.LBE112:
 310              	.LBE111:
  25:tremolo.cpp   ****         }
 311              		.loc 10 25 13 is_stmt 1 view .LVU61
  25:tremolo.cpp   ****         }
 312              		.loc 10 25 37 is_stmt 0 view .LVU62
 313 008a FFF7FEFF 		bl	rand
 314              	.LVL17:
 315 008e 07EE900A 		vmov	s15, r0	@ int
  25:tremolo.cpp   ****         }
 316              		.loc 10 25 31 view .LVU63
 317 0092 9FED117A 		vldr.32	s14, .L23+24
 318              	.LBB113:
 319              	.LBB109:
  61:../../DaisySP/Source/Synthesis/oscillator.h ****         phase_inc_ = CalcPhaseInc(f);
 320              		.loc 7 61 34 view .LVU64
 321 0096 2846     		mov	r0, r5
 322              	.LBE109:
 323              	.LBE113:
  25:tremolo.cpp   ****         }
 324              		.loc 10 25 31 view .LVU65
 325 0098 F8EEE77A 		vcvt.f32.s32	s15, s15
ARM GAS  /tmp/ccSywy9h.s 			page 15


  25:tremolo.cpp   ****         }
 326              		.loc 10 25 24 view .LVU66
 327 009c 9FED0F0A 		vldr.32	s0, .L23+28
  25:tremolo.cpp   ****         }
 328              		.loc 10 25 31 view .LVU67
 329 00a0 67EE877A 		vmul.f32	s15, s15, s14
  25:tremolo.cpp   ****         }
 330              		.loc 10 25 24 view .LVU68
 331 00a4 A7EE880A 		vfma.f32	s0, s15, s16
 332              	.LVL18:
 333              	.LBB114:
 334              	.LBI107:
  58:../../DaisySP/Source/Synthesis/oscillator.h ****     {
 335              		.loc 7 58 17 is_stmt 1 view .LVU69
 336              	.LBB110:
  60:../../DaisySP/Source/Synthesis/oscillator.h ****         phase_inc_ = CalcPhaseInc(f);
 337              		.loc 7 60 9 view .LVU70
  60:../../DaisySP/Source/Synthesis/oscillator.h ****         phase_inc_ = CalcPhaseInc(f);
 338              		.loc 7 60 20 is_stmt 0 view .LVU71
 339 00a8 85ED020A 		vstr.32	s0, [r5, #8]
 340              		.loc 7 61 9 is_stmt 1 view .LVU72
 341              		.loc 7 61 34 is_stmt 0 view .LVU73
 342 00ac FFF7FEFF 		bl	_ZN7daisysp10Oscillator12CalcPhaseIncEf
 343              	.LVL19:
 344              		.loc 7 61 20 view .LVU74
 345 00b0 85ED060A 		vstr.32	s0, [r5, #24]
  62:../../DaisySP/Source/Synthesis/oscillator.h ****     }
 346              		.loc 7 62 5 view .LVU75
 347 00b4 AEE7     		b	.L9
 348              	.LVL20:
 349              	.L22:
 350              		.loc 7 62 5 view .LVU76
 351              	.LBE110:
 352              	.LBE114:
 353              	.LBE116:
  29:tremolo.cpp   ****     }
  30:tremolo.cpp   **** }
 354              		.loc 10 30 1 view .LVU77
 355 00b6 BDEC028B 		vldm	sp!, {d8}
 356              		.cfi_restore 80
 357              		.cfi_restore 81
 358              		.cfi_def_cfa_offset 24
 359 00ba BDE8F081 		pop	{r4, r5, r6, r7, r8, pc}
 360              	.LVL21:
 361              	.L19:
 362              		.cfi_def_cfa_offset 0
 363              		.cfi_restore 4
 364              		.cfi_restore 5
 365              		.cfi_restore 6
 366              		.cfi_restore 7
 367              		.cfi_restore 8
 368              		.cfi_restore 14
 369              		.loc 10 30 1 view .LVU78
 370 00be 7047     		bx	lr
 371              	.L24:
 372              		.align	2
 373              	.L23:
ARM GAS  /tmp/ccSywy9h.s 			page 16


 374 00c0 00000000 		.word	.LANCHOR3
 375 00c4 00000000 		.word	.LANCHOR1
 376 00c8 00000000 		.word	.LANCHOR0
 377 00cc 00000030 		.word	805306368
 378 00d0 9A99993E 		.word	1050253722
 379 00d4 00000000 		.word	.LANCHOR2
 380 00d8 0000A543 		.word	1134886912
 381 00dc 0000DC42 		.word	1121714176
 382              		.cfi_endproc
 383              	.LFE4212:
 385              		.section	.text.startup.main,"ax",%progbits
 386              		.align	1
 387              		.p2align 2,,3
 388              		.global	main
 389              		.syntax unified
 390              		.thumb
 391              		.thumb_func
 392              		.fpu fpv5-d16
 394              	main:
 395              	.LFB4213:
  31:tremolo.cpp   **** 
  32:tremolo.cpp   **** int main(void)
  33:tremolo.cpp   **** {
 396              		.loc 10 33 1 is_stmt 1 view -0
 397              		.cfi_startproc
 398              		@ args = 0, pretend = 0, frame = 0
 399              		@ frame_needed = 0, uses_anonymous_args = 0
  34:tremolo.cpp   ****     hw.Configure();
 400              		.loc 10 34 5 view .LVU80
  33:tremolo.cpp   ****     hw.Configure();
 401              		.loc 10 33 1 is_stmt 0 view .LVU81
 402 0000 70B5     		push	{r4, r5, r6, lr}
 403              		.cfi_def_cfa_offset 16
 404              		.cfi_offset 4, -16
 405              		.cfi_offset 5, -12
 406              		.cfi_offset 6, -8
 407              		.cfi_offset 14, -4
 408              		.loc 10 34 17 view .LVU82
 409 0002 2C48     		ldr	r0, .L28
 410              	.LBB117:
 411              	.LBB118:
  48:../../DaisySP/Source/Synthesis/oscillator.h ****         phase_inc_ = CalcPhaseInc(freq_);
 412              		.loc 7 48 20 view .LVU83
 413 0004 0026     		movs	r6, #0
  44:../../DaisySP/Source/Synthesis/oscillator.h ****         sr_recip_  = 1.0f / sample_rate;
 414              		.loc 7 44 20 view .LVU84
 415 0006 2C4C     		ldr	r4, .L28+4
 416              	.LBE118:
 417              	.LBE117:
  35:tremolo.cpp   ****     hw.Init();
  36:tremolo.cpp   ****     float sample_rate = hw.AudioSampleRate();
  37:tremolo.cpp   **** 
  38:tremolo.cpp   ****     trem.Init(sample_rate);
  39:tremolo.cpp   **** 
  40:tremolo.cpp   ****     osc.Init(sample_rate);
  41:tremolo.cpp   ****     osc.SetFreq(440.f);
  42:tremolo.cpp   **** 
ARM GAS  /tmp/ccSywy9h.s 			page 17


  43:tremolo.cpp   ****     tick.Init(.5f, sample_rate);
  44:tremolo.cpp   **** 
  45:tremolo.cpp   ****     env.Init(sample_rate);
 418              		.loc 10 45 13 view .LVU85
 419 0008 2C4D     		ldr	r5, .L28+8
  33:tremolo.cpp   ****     hw.Configure();
 420              		.loc 10 33 1 view .LVU86
 421 000a 2DED048B 		vpush.64	{d8, d9}
 422              		.cfi_def_cfa_offset 32
 423              		.cfi_offset 80, -32
 424              		.cfi_offset 81, -28
 425              		.cfi_offset 82, -24
 426              		.cfi_offset 83, -20
  34:tremolo.cpp   ****     hw.Init();
 427              		.loc 10 34 17 view .LVU87
 428 000e FFF7FEFF 		bl	_ZN5daisy9DaisySeed9ConfigureEv
 429              	.LVL22:
  35:tremolo.cpp   ****     hw.Init();
 430              		.loc 10 35 5 is_stmt 1 view .LVU88
  35:tremolo.cpp   ****     hw.Init();
 431              		.loc 10 35 12 is_stmt 0 view .LVU89
 432 0012 0021     		movs	r1, #0
 433 0014 2748     		ldr	r0, .L28
 434              	.LBB123:
 435              	.LBB119:
  45:../../DaisySP/Source/Synthesis/oscillator.h ****         freq_      = 100.0f;
 436              		.loc 7 45 27 view .LVU90
 437 0016 F7EE008A 		vmov.f32	s17, #1.0e+0
 438              	.LBE119:
 439              	.LBE123:
  35:tremolo.cpp   ****     float sample_rate = hw.AudioSampleRate();
 440              		.loc 10 35 12 view .LVU91
 441 001a FFF7FEFF 		bl	_ZN5daisy9DaisySeed4InitEb
 442              	.LVL23:
  36:tremolo.cpp   **** 
 443              		.loc 10 36 5 is_stmt 1 view .LVU92
  36:tremolo.cpp   **** 
 444              		.loc 10 36 43 is_stmt 0 view .LVU93
 445 001e 2548     		ldr	r0, .L28
 446 0020 FFF7FEFF 		bl	_ZN5daisy9DaisySeed15AudioSampleRateEv
 447              	.LVL24:
 448 0024 B0EE408A 		vmov.f32	s16, s0
 449              	.LVL25:
  38:tremolo.cpp   **** 
 450              		.loc 10 38 5 is_stmt 1 view .LVU94
  38:tremolo.cpp   **** 
 451              		.loc 10 38 14 is_stmt 0 view .LVU95
 452 0028 2548     		ldr	r0, .L28+12
 453              	.LBB124:
 454              	.LBB120:
  47:../../DaisySP/Source/Synthesis/oscillator.h ****         phase_     = 0.0f;
 455              		.loc 7 47 20 view .LVU96
 456 002a B6EE009A 		vmov.f32	s18, #5.0e-1
 457              	.LBE120:
 458              	.LBE124:
  38:tremolo.cpp   **** 
 459              		.loc 10 38 14 view .LVU97
ARM GAS  /tmp/ccSywy9h.s 			page 18


 460 002e FFF7FEFF 		bl	_ZN7daisysp7Tremolo4InitEf
 461              	.LVL26:
  40:tremolo.cpp   ****     osc.SetFreq(440.f);
 462              		.loc 10 40 5 is_stmt 1 view .LVU98
 463              	.LBB125:
 464              	.LBI117:
  42:../../DaisySP/Source/Synthesis/oscillator.h ****     {
 465              		.loc 7 42 10 view .LVU99
 466              	.LBB121:
  44:../../DaisySP/Source/Synthesis/oscillator.h ****         sr_recip_  = 1.0f / sample_rate;
 467              		.loc 7 44 9 view .LVU100
  46:../../DaisySP/Source/Synthesis/oscillator.h ****         amp_       = 0.5f;
 468              		.loc 7 46 20 is_stmt 0 view .LVU101
 469 0032 9FED240A 		vldr.32	s0, .L28+16
  45:../../DaisySP/Source/Synthesis/oscillator.h ****         freq_      = 100.0f;
 470              		.loc 7 45 27 view .LVU102
 471 0036 C8EE887A 		vdiv.f32	s15, s17, s16
  49:../../DaisySP/Source/Synthesis/oscillator.h ****         waveform_  = WAVE_SIN;
 472              		.loc 7 49 34 view .LVU103
 473 003a 2046     		mov	r0, r4
  44:../../DaisySP/Source/Synthesis/oscillator.h ****         sr_recip_  = 1.0f / sample_rate;
 474              		.loc 7 44 20 view .LVU104
 475 003c 84ED038A 		vstr.32	s16, [r4, #12]
  45:../../DaisySP/Source/Synthesis/oscillator.h ****         freq_      = 100.0f;
 476              		.loc 7 45 9 is_stmt 1 view .LVU105
  46:../../DaisySP/Source/Synthesis/oscillator.h ****         amp_       = 0.5f;
 477              		.loc 7 46 20 is_stmt 0 view .LVU106
 478 0040 84ED020A 		vstr.32	s0, [r4, #8]
  47:../../DaisySP/Source/Synthesis/oscillator.h ****         phase_     = 0.0f;
 479              		.loc 7 47 20 view .LVU107
 480 0044 84ED019A 		vstr.32	s18, [r4, #4]
  48:../../DaisySP/Source/Synthesis/oscillator.h ****         phase_inc_ = CalcPhaseInc(freq_);
 481              		.loc 7 48 20 view .LVU108
 482 0048 6661     		str	r6, [r4, #20]	@ float
  45:../../DaisySP/Source/Synthesis/oscillator.h ****         freq_      = 100.0f;
 483              		.loc 7 45 20 view .LVU109
 484 004a C4ED047A 		vstr.32	s15, [r4, #16]
  46:../../DaisySP/Source/Synthesis/oscillator.h ****         amp_       = 0.5f;
 485              		.loc 7 46 9 is_stmt 1 view .LVU110
  47:../../DaisySP/Source/Synthesis/oscillator.h ****         phase_     = 0.0f;
 486              		.loc 7 47 9 view .LVU111
  48:../../DaisySP/Source/Synthesis/oscillator.h ****         phase_inc_ = CalcPhaseInc(freq_);
 487              		.loc 7 48 9 view .LVU112
  49:../../DaisySP/Source/Synthesis/oscillator.h ****         waveform_  = WAVE_SIN;
 488              		.loc 7 49 9 view .LVU113
  49:../../DaisySP/Source/Synthesis/oscillator.h ****         waveform_  = WAVE_SIN;
 489              		.loc 7 49 34 is_stmt 0 view .LVU114
 490 004e FFF7FEFF 		bl	_ZN7daisysp10Oscillator12CalcPhaseIncEf
 491              	.LVL27:
 492 0052 F0EE407A 		vmov.f32	s15, s0
  50:../../DaisySP/Source/Synthesis/oscillator.h ****         eoc_       = true;
 493              		.loc 7 50 20 view .LVU115
 494 0056 0022     		movs	r2, #0
  52:../../DaisySP/Source/Synthesis/oscillator.h ****     }
 495              		.loc 7 52 20 view .LVU116
 496 0058 40F20113 		movw	r3, #257
 497              	.LBE121:
ARM GAS  /tmp/ccSywy9h.s 			page 19


 498              	.LBE125:
 499              	.LBB126:
 500              	.LBB127:
  60:../../DaisySP/Source/Synthesis/oscillator.h ****         phase_inc_ = CalcPhaseInc(f);
 501              		.loc 7 60 20 view .LVU117
 502 005c 9FED1A0A 		vldr.32	s0, .L28+20
  61:../../DaisySP/Source/Synthesis/oscillator.h ****     }
 503              		.loc 7 61 34 view .LVU118
 504 0060 2046     		mov	r0, r4
 505              	.LBE127:
 506              	.LBE126:
 507              	.LBB130:
 508              	.LBB122:
  50:../../DaisySP/Source/Synthesis/oscillator.h ****         eoc_       = true;
 509              		.loc 7 50 20 view .LVU119
 510 0062 2270     		strb	r2, [r4]
  52:../../DaisySP/Source/Synthesis/oscillator.h ****     }
 511              		.loc 7 52 20 view .LVU120
 512 0064 A384     		strh	r3, [r4, #36]	@ movhi
  49:../../DaisySP/Source/Synthesis/oscillator.h ****         waveform_  = WAVE_SIN;
 513              		.loc 7 49 20 view .LVU121
 514 0066 C4ED067A 		vstr.32	s15, [r4, #24]
  50:../../DaisySP/Source/Synthesis/oscillator.h ****         eoc_       = true;
 515              		.loc 7 50 9 is_stmt 1 view .LVU122
  51:../../DaisySP/Source/Synthesis/oscillator.h ****         eor_       = true;
 516              		.loc 7 51 9 view .LVU123
  52:../../DaisySP/Source/Synthesis/oscillator.h ****     }
 517              		.loc 7 52 9 view .LVU124
 518              	.LVL28:
  52:../../DaisySP/Source/Synthesis/oscillator.h ****     }
 519              		.loc 7 52 9 is_stmt 0 view .LVU125
 520              	.LBE122:
 521              	.LBE130:
  41:tremolo.cpp   **** 
 522              		.loc 10 41 5 is_stmt 1 view .LVU126
 523              	.LBB131:
 524              	.LBI126:
  58:../../DaisySP/Source/Synthesis/oscillator.h ****     {
 525              		.loc 7 58 17 view .LVU127
 526              	.LBB128:
  60:../../DaisySP/Source/Synthesis/oscillator.h ****         phase_inc_ = CalcPhaseInc(f);
 527              		.loc 7 60 9 view .LVU128
  60:../../DaisySP/Source/Synthesis/oscillator.h ****         phase_inc_ = CalcPhaseInc(f);
 528              		.loc 7 60 20 is_stmt 0 view .LVU129
 529 006a 84ED020A 		vstr.32	s0, [r4, #8]
  61:../../DaisySP/Source/Synthesis/oscillator.h ****     }
 530              		.loc 7 61 9 is_stmt 1 view .LVU130
  61:../../DaisySP/Source/Synthesis/oscillator.h ****     }
 531              		.loc 7 61 34 is_stmt 0 view .LVU131
 532 006e FFF7FEFF 		bl	_ZN7daisysp10Oscillator12CalcPhaseIncEf
 533              	.LVL29:
 534 0072 F0EE407A 		vmov.f32	s15, s0
 535              	.LBE128:
 536              	.LBE131:
  43:tremolo.cpp   **** 
 537              		.loc 10 43 14 view .LVU132
 538 0076 1548     		ldr	r0, .L28+24
ARM GAS  /tmp/ccSywy9h.s 			page 20


 539 0078 F0EE480A 		vmov.f32	s1, s16
 540 007c B0EE490A 		vmov.f32	s0, s18
 541              	.LBB132:
 542              	.LBB129:
  61:../../DaisySP/Source/Synthesis/oscillator.h ****     }
 543              		.loc 7 61 20 view .LVU133
 544 0080 C4ED067A 		vstr.32	s15, [r4, #24]
 545              	.LVL30:
  61:../../DaisySP/Source/Synthesis/oscillator.h ****     }
 546              		.loc 7 61 20 view .LVU134
 547              	.LBE129:
 548              	.LBE132:
  43:tremolo.cpp   **** 
 549              		.loc 10 43 5 is_stmt 1 view .LVU135
  43:tremolo.cpp   **** 
 550              		.loc 10 43 14 is_stmt 0 view .LVU136
 551 0084 FFF7FEFF 		bl	_ZN7daisysp5Metro4InitEff
 552              	.LVL31:
 553              		.loc 10 45 5 is_stmt 1 view .LVU137
 554              		.loc 10 45 13 is_stmt 0 view .LVU138
 555 0088 2846     		mov	r0, r5
 556 008a B0EE480A 		vmov.f32	s0, s16
 557 008e FFF7FEFF 		bl	_ZN7daisysp5AdEnv4InitEf
 558              	.LVL32:
  46:tremolo.cpp   ****     env.SetTime(ADENV_SEG_ATTACK, 0.15);
 559              		.loc 10 46 5 is_stmt 1 view .LVU139
 560              	.LBB133:
 561              	.LBI133:
  57:../../DaisySP/Source/Control/adenv.h ****     /** Sets the length of time (in seconds) for a specific segment. */
  58:../../DaisySP/Source/Control/adenv.h ****     inline void SetTime(uint8_t seg, float time) { segment_time_[seg] = time; }
 562              		.loc 6 58 17 view .LVU140
 563              	.LBB134:
 564              		.loc 6 58 52 view .LVU141
 565              		.loc 6 58 71 is_stmt 0 view .LVU142
 566 0092 0F4A     		ldr	r2, .L28+28
 567              	.LBE134:
 568              	.LBE133:
 569              	.LBB136:
 570              	.LBB137:
  56:../../DaisySP/Source/Control/adenv.h ****     /** Sets the length of time (in seconds) for a specific segment. */
 571              		.loc 6 56 38 view .LVU143
 572 0094 0123     		movs	r3, #1
 573              	.LBE137:
 574              	.LBE136:
  47:tremolo.cpp   ****     env.SetTime(ADENV_SEG_DECAY, 1.f);
  48:tremolo.cpp   ****     env.SetMin(0.0);
  49:tremolo.cpp   ****     env.SetMax(1.f);
  50:tremolo.cpp   ****     env.SetCurve(0); // linear
  51:tremolo.cpp   ****     env.Trigger();   //trigger right away
  52:tremolo.cpp   **** 
  53:tremolo.cpp   ****     hw.StartAudio(AudioCallback);
 575              		.loc 10 53 18 view .LVU144
 576 0096 0F49     		ldr	r1, .L28+32
 577 0098 0648     		ldr	r0, .L28
 578              	.LBB139:
 579              	.LBB140:
 580              		.loc 6 58 71 view .LVU145
ARM GAS  /tmp/ccSywy9h.s 			page 21


 581 009a C5ED038A 		vstr.32	s17, [r5, #12]
 582              	.LBE140:
 583              	.LBE139:
 584              	.LBB142:
 585              	.LBB143:
  59:../../DaisySP/Source/Control/adenv.h ****     /** Sets the amount of curve applied. A positve value will create a log
  60:../../DaisySP/Source/Control/adenv.h ****         curve. Input range: -100 to 100.  (or more)
  61:../../DaisySP/Source/Control/adenv.h ****     */
  62:../../DaisySP/Source/Control/adenv.h ****     inline void SetCurve(float scalar) { curve_scalar_ = scalar; }
  63:../../DaisySP/Source/Control/adenv.h ****     /** Sets the minimum value of the envelope output.
  64:../../DaisySP/Source/Control/adenv.h ****         Input range: -FLTmax_, to FLTmax_
  65:../../DaisySP/Source/Control/adenv.h ****     */
  66:../../DaisySP/Source/Control/adenv.h ****     inline void SetMin(float min) { min_ = min; }
 586              		.loc 6 66 42 view .LVU146
 587 009e 6E61     		str	r6, [r5, #20]	@ float
 588              	.LBE143:
 589              	.LBE142:
 590              	.LBB145:
 591              	.LBB146:
  67:../../DaisySP/Source/Control/adenv.h ****     /** Sets the maximum value of the envelope output.
  68:../../DaisySP/Source/Control/adenv.h ****         Input range: -FLTmax_, to FLTmax_
  69:../../DaisySP/Source/Control/adenv.h ****     */
  70:../../DaisySP/Source/Control/adenv.h ****     inline void SetMax(float max) { max_ = max; }
 592              		.loc 6 70 42 view .LVU147
 593 00a0 C5ED068A 		vstr.32	s17, [r5, #24]
 594              	.LBE146:
 595              	.LBE145:
 596              	.LBB148:
 597              	.LBB149:
  62:../../DaisySP/Source/Control/adenv.h ****     /** Sets the minimum value of the envelope output.
 598              		.loc 6 62 56 view .LVU148
 599 00a4 2E62     		str	r6, [r5, #32]	@ float
 600              	.LBE149:
 601              	.LBE148:
 602              	.LBB151:
 603              	.LBB135:
  58:../../DaisySP/Source/Control/adenv.h ****     /** Sets the amount of curve applied. A positve value will create a log
 604              		.loc 6 58 71 view .LVU149
 605 00a6 AA60     		str	r2, [r5, #8]	@ float
 606              	.LVL33:
  58:../../DaisySP/Source/Control/adenv.h ****     /** Sets the amount of curve applied. A positve value will create a log
 607              		.loc 6 58 71 view .LVU150
 608              	.LBE135:
 609              	.LBE151:
  47:tremolo.cpp   ****     env.SetMin(0.0);
 610              		.loc 10 47 5 is_stmt 1 view .LVU151
 611              	.LBB152:
 612              	.LBI139:
  58:../../DaisySP/Source/Control/adenv.h ****     /** Sets the amount of curve applied. A positve value will create a log
 613              		.loc 6 58 17 view .LVU152
 614              	.LBB141:
  58:../../DaisySP/Source/Control/adenv.h ****     /** Sets the amount of curve applied. A positve value will create a log
 615              		.loc 6 58 52 view .LVU153
  58:../../DaisySP/Source/Control/adenv.h ****     /** Sets the amount of curve applied. A positve value will create a log
 616              		.loc 6 58 52 is_stmt 0 view .LVU154
 617              	.LBE141:
 618              	.LBE152:
ARM GAS  /tmp/ccSywy9h.s 			page 22


  48:tremolo.cpp   ****     env.SetMax(1.f);
 619              		.loc 10 48 5 is_stmt 1 view .LVU155
 620              	.LBB153:
 621              	.LBI142:
  66:../../DaisySP/Source/Control/adenv.h ****     /** Sets the maximum value of the envelope output.
 622              		.loc 6 66 17 view .LVU156
 623              	.LBB144:
  66:../../DaisySP/Source/Control/adenv.h ****     /** Sets the maximum value of the envelope output.
 624              		.loc 6 66 37 view .LVU157
  66:../../DaisySP/Source/Control/adenv.h ****     /** Sets the maximum value of the envelope output.
 625              		.loc 6 66 37 is_stmt 0 view .LVU158
 626              	.LBE144:
 627              	.LBE153:
  49:tremolo.cpp   ****     env.SetCurve(0); // linear
 628              		.loc 10 49 5 is_stmt 1 view .LVU159
 629              	.LBB154:
 630              	.LBI145:
 631              		.loc 6 70 17 view .LVU160
 632              	.LBB147:
 633              		.loc 6 70 37 view .LVU161
 634              		.loc 6 70 37 is_stmt 0 view .LVU162
 635              	.LBE147:
 636              	.LBE154:
  50:tremolo.cpp   ****     env.Trigger();   //trigger right away
 637              		.loc 10 50 5 is_stmt 1 view .LVU163
 638              	.LBB155:
 639              	.LBI148:
  62:../../DaisySP/Source/Control/adenv.h ****     /** Sets the minimum value of the envelope output.
 640              		.loc 6 62 17 view .LVU164
 641              	.LBB150:
  62:../../DaisySP/Source/Control/adenv.h ****     /** Sets the minimum value of the envelope output.
 642              		.loc 6 62 42 view .LVU165
  62:../../DaisySP/Source/Control/adenv.h ****     /** Sets the minimum value of the envelope output.
 643              		.loc 6 62 42 is_stmt 0 view .LVU166
 644              	.LBE150:
 645              	.LBE155:
  51:tremolo.cpp   **** 
 646              		.loc 10 51 5 is_stmt 1 view .LVU167
 647              	.LBB156:
 648              	.LBI136:
  56:../../DaisySP/Source/Control/adenv.h ****     /** Sets the length of time (in seconds) for a specific segment. */
 649              		.loc 6 56 17 view .LVU168
 650              	.LBB138:
  56:../../DaisySP/Source/Control/adenv.h ****     /** Sets the length of time (in seconds) for a specific segment. */
 651              		.loc 6 56 29 view .LVU169
  56:../../DaisySP/Source/Control/adenv.h ****     /** Sets the length of time (in seconds) for a specific segment. */
 652              		.loc 6 56 38 is_stmt 0 view .LVU170
 653 00a8 85F83430 		strb	r3, [r5, #52]
 654              	.LBE138:
 655              	.LBE156:
 656              		.loc 10 53 5 is_stmt 1 view .LVU171
 657              		.loc 10 53 18 is_stmt 0 view .LVU172
 658 00ac FFF7FEFF 		bl	_ZN5daisy9DaisySeed10StartAudioEPFvPKPKfPPfjE
 659              	.LVL34:
 660              	.L26:
  54:tremolo.cpp   ****     while(1) {}
 661              		.loc 10 54 5 is_stmt 1 discriminator 1 view .LVU173
ARM GAS  /tmp/ccSywy9h.s 			page 23


 662              		.loc 10 54 5 discriminator 1 view .LVU174
 663              		.loc 10 54 5 discriminator 1 view .LVU175
 664              		.loc 10 54 5 discriminator 1 view .LVU176
 665 00b0 FEE7     		b	.L26
 666              	.L29:
 667 00b2 00BF     		.align	2
 668              	.L28:
 669 00b4 00000000 		.word	.LANCHOR4
 670 00b8 00000000 		.word	.LANCHOR3
 671 00bc 00000000 		.word	.LANCHOR2
 672 00c0 00000000 		.word	.LANCHOR1
 673 00c4 0000C842 		.word	1120403456
 674 00c8 0000DC43 		.word	1138491392
 675 00cc 00000000 		.word	.LANCHOR0
 676 00d0 9A99193E 		.word	1041865114
 677 00d4 00000000 		.word	_Z13AudioCallbackPKPKfPPfj
 678              		.cfi_endproc
 679              	.LFE4213:
 681              		.section	.text.startup._GLOBAL__sub_I_hw,"ax",%progbits
 682              		.align	1
 683              		.p2align 2,,3
 684              		.syntax unified
 685              		.thumb
 686              		.thumb_func
 687              		.fpu fpv5-d16
 689              	_GLOBAL__sub_I_hw:
 690              	.LFB4759:
  55:tremolo.cpp   **** }
 691              		.loc 10 55 1 view -0
 692              		.cfi_startproc
 693              		@ args = 0, pretend = 0, frame = 0
 694              		@ frame_needed = 0, uses_anonymous_args = 0
 695              	.LBB182:
 696              	.LBI182:
 697              		.loc 10 55 1 view .LVU178
 698              	.LVL35:
 699              	.LBB183:
 700              	.LBB184:
 701              	.LBI184:
  21:../../libdaisy/src/daisy_seed.h ****     ~DaisySeed() {}
 702              		.loc 1 21 5 view .LVU179
 703              	.LBB185:
 704              	.LBB186:
 705              	.LBI186:
  62:../../libdaisy/src/hid/audio.h ****     ~AudioHandle() {}
 706              		.loc 5 62 5 view .LVU180
 707              	.LBE186:
 708              	.LBE185:
 709              	.LBE184:
 710              	.LBE183:
 711              	.LBE182:
 712              		.loc 10 55 1 is_stmt 0 view .LVU181
 713 0000 08B5     		push	{r3, lr}
 714              		.cfi_def_cfa_offset 8
 715              		.cfi_offset 3, -8
 716              		.cfi_offset 14, -4
 717              	.LBB211:
ARM GAS  /tmp/ccSywy9h.s 			page 24


 718              	.LBB209:
 719              	.LBB201:
 720              	.LBB199:
 721              	.LBB191:
 722              	.LBB187:
 723              	.LBB188:
  62:../../libdaisy/src/hid/audio.h ****     ~AudioHandle() {}
 724              		.loc 5 62 35 view .LVU182
 725 0002 0F48     		ldr	r0, .L32
 726 0004 0023     		movs	r3, #0
 727              	.LBE188:
 728              	.LBE187:
 729              	.LBE191:
 730              	.LBE199:
 731              	.LBE201:
   7:tremolo.cpp   **** 
 732              		.loc 10 7 11 view .LVU183
 733 0006 0F4A     		ldr	r2, .L32+4
 734              	.LBB202:
 735              	.LBB200:
 736              	.LBB192:
 737              	.LBB190:
 738              	.LBB189:
  62:../../libdaisy/src/hid/audio.h ****     ~AudioHandle() {}
 739              		.loc 5 62 35 view .LVU184
 740 0008 4361     		str	r3, [r0, #20]
 741              	.LVL36:
  62:../../libdaisy/src/hid/audio.h ****     ~AudioHandle() {}
 742              		.loc 5 62 35 view .LVU185
 743              	.LBE189:
 744              	.LBE190:
 745              	.LBE192:
 746              	.LBB193:
 747              	.LBI193:
  84:../../libdaisy/src/per/adc.h ****     ~AdcHandle() {}
 748              		.loc 4 84 5 is_stmt 1 view .LVU186
  84:../../libdaisy/src/per/adc.h ****     ~AdcHandle() {}
 749              		.loc 4 84 5 is_stmt 0 view .LVU187
 750              	.LBE193:
 751              	.LBB194:
 752              	.LBI194:
 753              		.file 11 "../../libdaisy/src/per/dac.h"
   1:../../libdaisy/src/per/dac.h **** #pragma once
   2:../../libdaisy/src/per/dac.h **** #ifndef DSY_DAC_H
   3:../../libdaisy/src/per/dac.h **** #define DSY_DAC_H
   4:../../libdaisy/src/per/dac.h **** 
   5:../../libdaisy/src/per/dac.h **** #include "daisy_core.h"
   6:../../libdaisy/src/per/dac.h **** 
   7:../../libdaisy/src/per/dac.h **** namespace daisy
   8:../../libdaisy/src/per/dac.h **** {
   9:../../libdaisy/src/per/dac.h **** /** DAC handle for Built-in DAC Peripheral 
  10:../../libdaisy/src/per/dac.h ****  ** 
  11:../../libdaisy/src/per/dac.h ****  ** For now only Normal Mode is supported,
  12:../../libdaisy/src/per/dac.h ****  ** Sample and hold mode provides reduced power consumption, but requires a bit more setup.
  13:../../libdaisy/src/per/dac.h ****  **
  14:../../libdaisy/src/per/dac.h ****  ** For now connecting the DAC through other internal periphearls is also not supported.
  15:../../libdaisy/src/per/dac.h ****  **
ARM GAS  /tmp/ccSywy9h.s 			page 25


  16:../../libdaisy/src/per/dac.h ****  ** Since the DAC channels have dedicated pins we don't need to pass in a pin config like with
  17:../../libdaisy/src/per/dac.h ****  ** other modules. However, it is still important to not try to use the DAC pins for anything else.
  18:../../libdaisy/src/per/dac.h ****  ** DAC Channel 1 is on PA4, and DAC Channel 2 is on PA5
  19:../../libdaisy/src/per/dac.h ****  ***/
  20:../../libdaisy/src/per/dac.h **** class DacHandle
  21:../../libdaisy/src/per/dac.h **** {
  22:../../libdaisy/src/per/dac.h ****   public:
  23:../../libdaisy/src/per/dac.h ****     /** Return Values for the DacHandle class */
  24:../../libdaisy/src/per/dac.h ****     enum class Result
  25:../../libdaisy/src/per/dac.h ****     {
  26:../../libdaisy/src/per/dac.h ****         OK,
  27:../../libdaisy/src/per/dac.h ****         ERR,
  28:../../libdaisy/src/per/dac.h ****     };
  29:../../libdaisy/src/per/dac.h **** 
  30:../../libdaisy/src/per/dac.h ****     /** Selects which channel(s) will be configured for use. */
  31:../../libdaisy/src/per/dac.h ****     enum class Channel
  32:../../libdaisy/src/per/dac.h ****     {
  33:../../libdaisy/src/per/dac.h ****         ONE,
  34:../../libdaisy/src/per/dac.h ****         TWO,
  35:../../libdaisy/src/per/dac.h ****         BOTH,
  36:../../libdaisy/src/per/dac.h ****     };
  37:../../libdaisy/src/per/dac.h **** 
  38:../../libdaisy/src/per/dac.h ****     /** Sets the Mode for the DAC channels.
  39:../../libdaisy/src/per/dac.h ****      **
  40:../../libdaisy/src/per/dac.h ****      ** Polling mode uses the blocking mode to transmit a single value at a time.
  41:../../libdaisy/src/per/dac.h ****      **
  42:../../libdaisy/src/per/dac.h ****      ** DMA mode uses a buffer, and periodically transmits it triggering a 
  43:../../libdaisy/src/per/dac.h ****      ** callback to fill the buffer when it is ready for more samples.
  44:../../libdaisy/src/per/dac.h ****      ***/
  45:../../libdaisy/src/per/dac.h ****     enum class Mode
  46:../../libdaisy/src/per/dac.h ****     {
  47:../../libdaisy/src/per/dac.h ****         POLLING,
  48:../../libdaisy/src/per/dac.h ****         DMA,
  49:../../libdaisy/src/per/dac.h ****     };
  50:../../libdaisy/src/per/dac.h **** 
  51:../../libdaisy/src/per/dac.h ****     /** Sets the number of bits per sample transmitted out of the DAC.
  52:../../libdaisy/src/per/dac.h ****      ** The output range will be: 0V - VDDA
  53:../../libdaisy/src/per/dac.h ****      ** The resolution will be roughly: bitdepth / (VDDA - 0V) 
  54:../../libdaisy/src/per/dac.h ****      ***/
  55:../../libdaisy/src/per/dac.h ****     enum class BitDepth
  56:../../libdaisy/src/per/dac.h ****     {
  57:../../libdaisy/src/per/dac.h ****         BITS_8,
  58:../../libdaisy/src/per/dac.h ****         BITS_12
  59:../../libdaisy/src/per/dac.h ****     };
  60:../../libdaisy/src/per/dac.h **** 
  61:../../libdaisy/src/per/dac.h ****     /** Sets whether the DAC output is buffered for higher drive ability. */
  62:../../libdaisy/src/per/dac.h ****     enum class BufferState
  63:../../libdaisy/src/per/dac.h ****     {
  64:../../libdaisy/src/per/dac.h ****         ENABLED,
  65:../../libdaisy/src/per/dac.h ****         DISABLED,
  66:../../libdaisy/src/per/dac.h ****     };
  67:../../libdaisy/src/per/dac.h **** 
  68:../../libdaisy/src/per/dac.h ****     /** Configuration structure for initializing the DAC structure. */
  69:../../libdaisy/src/per/dac.h ****     struct Config
  70:../../libdaisy/src/per/dac.h ****     {
  71:../../libdaisy/src/per/dac.h ****         /** Target Samplerate in Hz used to configure the internal 
  72:../../libdaisy/src/per/dac.h ****          ** timebase for DMA mode. Does nothing in POLLING mode.
ARM GAS  /tmp/ccSywy9h.s 			page 26


  73:../../libdaisy/src/per/dac.h ****          ** If the value is 0 at Init time this will default to 48000Hz 
  74:../../libdaisy/src/per/dac.h ****          ** otherwise the driver will attempt meet the target.*/
  75:../../libdaisy/src/per/dac.h ****         uint32_t target_samplerate;
  76:../../libdaisy/src/per/dac.h **** 
  77:../../libdaisy/src/per/dac.h ****         Channel     chn;
  78:../../libdaisy/src/per/dac.h ****         Mode        mode;
  79:../../libdaisy/src/per/dac.h ****         BitDepth    bitdepth;
  80:../../libdaisy/src/per/dac.h ****         BufferState buff_state;
  81:../../libdaisy/src/per/dac.h ****     };
  82:../../libdaisy/src/per/dac.h **** 
  83:../../libdaisy/src/per/dac.h ****     DacHandle() : pimpl_(nullptr) {}
 754              		.loc 11 83 5 is_stmt 1 view .LVU188
 755              	.LBB195:
 756              	.LBB196:
 757              		.loc 11 83 33 is_stmt 0 view .LVU189
 758 000a 0362     		str	r3, [r0, #32]
 759              	.LVL37:
 760              		.loc 11 83 33 view .LVU190
 761              	.LBE196:
 762              	.LBE195:
 763              	.LBE194:
 764              	.LBB197:
 765              	.LBI197:
  40:../../libdaisy/src/hid/usb.h **** 
 766              		.loc 3 40 5 is_stmt 1 view .LVU191
  40:../../libdaisy/src/hid/usb.h **** 
 767              		.loc 3 40 5 is_stmt 0 view .LVU192
 768              	.LBE197:
 769              	.LBB198:
 770              	.LBI198:
  58:../../libdaisy/src/sys/system.h ****     ~System() {}
 771              		.loc 2 58 5 is_stmt 1 view .LVU193
  58:../../libdaisy/src/sys/system.h ****     ~System() {}
 772              		.loc 2 58 5 is_stmt 0 view .LVU194
 773              	.LBE198:
 774              	.LBE200:
 775              	.LBE202:
   7:tremolo.cpp   **** 
 776              		.loc 10 7 11 view .LVU195
 777 000c 0E49     		ldr	r1, .L32+8
 778 000e FFF7FEFF 		bl	__aeabi_atexit
 779              	.LVL38:
 780              	.LBB203:
 781              	.LBI203:
  15:../../DaisySP/Source/Synthesis/oscillator.h ****     ~Oscillator() {}
 782              		.loc 7 15 5 is_stmt 1 view .LVU196
  15:../../DaisySP/Source/Synthesis/oscillator.h ****     ~Oscillator() {}
 783              		.loc 7 15 5 is_stmt 0 view .LVU197
 784              	.LBE203:
   9:tremolo.cpp   **** Metro      tick;
 785              		.loc 10 9 12 view .LVU198
 786 0012 0C4A     		ldr	r2, .L32+4
 787 0014 0D49     		ldr	r1, .L32+12
 788 0016 0E48     		ldr	r0, .L32+16
 789 0018 FFF7FEFF 		bl	__aeabi_atexit
 790              	.LVL39:
 791              	.LBB204:
ARM GAS  /tmp/ccSywy9h.s 			page 27


 792              	.LBI204:
  14:../../DaisySP/Source/Utility/metro.h ****     ~Metro() {}
 793              		.loc 9 14 5 is_stmt 1 view .LVU199
  14:../../DaisySP/Source/Utility/metro.h ****     ~Metro() {}
 794              		.loc 9 14 5 is_stmt 0 view .LVU200
 795              	.LBE204:
  10:tremolo.cpp   **** AdEnv      env;
 796              		.loc 10 10 12 view .LVU201
 797 001c 094A     		ldr	r2, .L32+4
 798 001e 0D49     		ldr	r1, .L32+20
 799 0020 0D48     		ldr	r0, .L32+24
 800 0022 FFF7FEFF 		bl	__aeabi_atexit
 801              	.LVL40:
 802              	.LBB205:
 803              	.LBI205:
  34:../../DaisySP/Source/Control/adenv.h ****     ~AdEnv() {}
 804              		.loc 6 34 5 is_stmt 1 view .LVU202
  34:../../DaisySP/Source/Control/adenv.h ****     ~AdEnv() {}
 805              		.loc 6 34 5 is_stmt 0 view .LVU203
 806              	.LBE205:
  11:tremolo.cpp   **** Tremolo    trem;
 807              		.loc 10 11 12 view .LVU204
 808 0026 074A     		ldr	r2, .L32+4
 809 0028 0C49     		ldr	r1, .L32+28
 810 002a 0D48     		ldr	r0, .L32+32
 811 002c FFF7FEFF 		bl	__aeabi_atexit
 812              	.LVL41:
 813              	.LBB206:
 814              	.LBI206:
  24:../../DaisySP/Source/Effects/tremolo.h ****     ~Tremolo() {}
 815              		.loc 8 24 5 is_stmt 1 view .LVU205
 816              	.LBB207:
 817              	.LBB208:
 818              	.LBI208:
  15:../../DaisySP/Source/Synthesis/oscillator.h ****     ~Oscillator() {}
 819              		.loc 7 15 5 view .LVU206
  15:../../DaisySP/Source/Synthesis/oscillator.h ****     ~Oscillator() {}
 820              		.loc 7 15 5 is_stmt 0 view .LVU207
 821              	.LBE208:
 822              	.LBE207:
 823              	.LBE206:
  12:tremolo.cpp   **** 
 824              		.loc 10 12 12 view .LVU208
 825 0030 044A     		ldr	r2, .L32+4
 826 0032 0C49     		ldr	r1, .L32+36
 827 0034 0C48     		ldr	r0, .L32+40
 828              	.LBE209:
 829              	.LBE211:
 830              		.loc 10 55 1 view .LVU209
 831 0036 BDE80840 		pop	{r3, lr}
 832              		.cfi_restore 14
 833              		.cfi_restore 3
 834              		.cfi_def_cfa_offset 0
 835              	.LBB212:
 836              	.LBB210:
  12:tremolo.cpp   **** 
 837              		.loc 10 12 12 view .LVU210
ARM GAS  /tmp/ccSywy9h.s 			page 28


 838 003a FFF7FEBF 		b	__aeabi_atexit
 839              	.LVL42:
 840              	.L33:
 841 003e 00BF     		.align	2
 842              	.L32:
 843 0040 00000000 		.word	.LANCHOR4
 844 0044 00000000 		.word	__dso_handle
 845 0048 00000000 		.word	_ZN5daisy9DaisySeedD1Ev
 846 004c 00000000 		.word	_ZN7daisysp10OscillatorD1Ev
 847 0050 00000000 		.word	.LANCHOR3
 848 0054 00000000 		.word	_ZN7daisysp5MetroD1Ev
 849 0058 00000000 		.word	.LANCHOR0
 850 005c 00000000 		.word	_ZN7daisysp5AdEnvD1Ev
 851 0060 00000000 		.word	.LANCHOR2
 852 0064 00000000 		.word	_ZN7daisysp7TremoloD1Ev
 853 0068 00000000 		.word	.LANCHOR1
 854              	.LBE210:
 855              	.LBE212:
 856              		.cfi_endproc
 857              	.LFE4759:
 859              		.section	.init_array,"aw",%init_array
 860              		.align	2
 861 0000 00000000 		.word	_GLOBAL__sub_I_hw(target1)
 862              		.global	trem
 863              		.global	env
 864              		.global	tick
 865              		.global	osc
 866              		.global	hw
 867              		.section	.bss.env,"aw",%nobits
 868              		.align	2
 869              		.set	.LANCHOR2,. + 0
 872              	env:
 873 0000 00000000 		.space	56
 873      00000000 
 873      00000000 
 873      00000000 
 873      00000000 
 874              		.section	.bss.hw,"aw",%nobits
 875              		.align	2
 876              		.set	.LANCHOR4,. + 0
 879              	hw:
 880 0000 00000000 		.space	60
 880      00000000 
 880      00000000 
 880      00000000 
 880      00000000 
 881              		.section	.bss.osc,"aw",%nobits
 882              		.align	2
 883              		.set	.LANCHOR3,. + 0
 886              	osc:
 887 0000 00000000 		.space	40
 887      00000000 
 887      00000000 
 887      00000000 
 887      00000000 
 888              		.section	.bss.tick,"aw",%nobits
 889              		.align	2
ARM GAS  /tmp/ccSywy9h.s 			page 29


 890              		.set	.LANCHOR0,. + 0
 893              	tick:
 894 0000 00000000 		.space	16
 894      00000000 
 894      00000000 
 894      00000000 
 895              		.section	.bss.trem,"aw",%nobits
 896              		.align	2
 897              		.set	.LANCHOR1,. + 0
 900              	trem:
 901 0000 00000000 		.space	48
 901      00000000 
 901      00000000 
 901      00000000 
 901      00000000 
 902              		.text
 903              	.Letext0:
 904              		.file 12 "/usr/lib/gcc/arm-none-eabi/9.2.1/include/stdint.h"
 905              		.file 13 "../../libdaisy/Drivers/CMSIS/Include/core_cm7.h"
 906              		.file 14 "../../libdaisy/Drivers/CMSIS/Device/ST/STM32H7xx/Include/system_stm32h7xx.h"
 907              		.file 15 "/usr/lib/gcc/arm-none-eabi/9.2.1/include/stddef.h"
 908              		.file 16 "/usr/include/newlib/c++/9.2.1/cmath"
 909              		.file 17 "/usr/include/newlib/c++/9.2.1/bits/std_abs.h"
 910              		.file 18 "/usr/include/newlib/c++/9.2.1/cstdlib"
 911              		.file 19 "/usr/include/newlib/c++/9.2.1/cstdint"
 912              		.file 20 "/usr/include/newlib/c++/9.2.1/type_traits"
 913              		.file 21 "/usr/include/newlib/c++/9.2.1/arm-none-eabi/thumb/v7e-m+dp/hard/bits/c++config.h"
 914              		.file 22 "/usr/include/newlib/c++/9.2.1/bits/stl_pair.h"
 915              		.file 23 "/usr/include/newlib/c++/9.2.1/debug/debug.h"
 916              		.file 24 "/usr/include/newlib/c++/9.2.1/bits/algorithmfwd.h"
 917              		.file 25 "/usr/include/newlib/c++/9.2.1/bits/exception_ptr.h"
 918              		.file 26 "/usr/include/newlib/c++/9.2.1/new"
 919              		.file 27 "/usr/include/newlib/c++/9.2.1/cstdarg"
 920              		.file 28 "/usr/include/newlib/c++/9.2.1/cstdio"
 921              		.file 29 "/usr/include/newlib/c++/9.2.1/cwchar"
 922              		.file 30 "/usr/include/newlib/c++/9.2.1/clocale"
 923              		.file 31 "/usr/include/newlib/c++/9.2.1/bits/basic_string.h"
 924              		.file 32 "/usr/include/newlib/c++/9.2.1/bits/uniform_int_dist.h"
 925              		.file 33 "/usr/include/newlib/c++/9.2.1/bits/random.h"
 926              		.file 34 "/usr/include/newlib/c++/9.2.1/cstring"
 927              		.file 35 "/usr/include/newlib/c++/9.2.1/bits/predefined_ops.h"
 928              		.file 36 "/usr/include/newlib/c++/9.2.1/ext/numeric_traits.h"
 929              		.file 37 "/usr/include/newlib/c++/9.2.1/ext/new_allocator.h"
 930              		.file 38 "/usr/include/newlib/sys/_types.h"
 931              		.file 39 "<built-in>"
 932              		.file 40 "/usr/include/newlib/sys/reent.h"
 933              		.file 41 "/usr/include/newlib/sys/lock.h"
 934              		.file 42 "/usr/include/newlib/math.h"
 935              		.file 43 "/usr/include/newlib/stdlib.h"
 936              		.file 44 "/usr/include/newlib/c++/9.2.1/math.h"
 937              		.file 45 "../../libdaisy/Drivers/STM32H7xx_HAL_Driver/Inc/stm32h7xx_hal_def.h"
 938              		.file 46 "../../libdaisy/Drivers/STM32H7xx_HAL_Driver/Inc/stm32h7xx_hal_flash.h"
 939              		.file 47 "/usr/include/newlib/c++/9.2.1/stdlib.h"
 940              		.file 48 "../../libdaisy/src/daisy_core.h"
 941              		.file 49 "../../libdaisy/src/per/tim.h"
 942              		.file 50 "../../libdaisy/src/per/sai.h"
 943              		.file 51 "../../libdaisy/src/util/wav_format.h"
ARM GAS  /tmp/ccSywy9h.s 			page 30


 944              		.file 52 "../../libdaisy/src/per/qspi.h"
 945              		.file 53 "../../libdaisy/src/per/gpio.h"
 946              		.file 54 "../../libdaisy/src/dev/sdram.h"
 947              		.file 55 "/usr/lib/gcc/arm-none-eabi/9.2.1/include/stdarg.h"
 948              		.file 56 "/usr/include/newlib/stdio.h"
 949              		.file 57 "/usr/include/newlib/sys/unistd.h"
 950              		.file 58 "../../libdaisy/src/util/oled_fonts.h"
 951              		.file 59 "../../libdaisy/Middlewares/Third_Party/FatFs/src/integer.h"
 952              		.file 60 "../../libdaisy/Middlewares/Third_Party/FatFs/src/ff.h"
 953              		.file 61 "../../libdaisy/Middlewares/Third_Party/FatFs/src/diskio.h"
 954              		.file 62 "../../libdaisy/Middlewares/Third_Party/FatFs/src/ff_gen_drv.h"
 955              		.file 63 "../../libdaisy/src/util/sd_diskio.h"
 956              		.file 64 "../../libdaisy/src/sys/fatfs.h"
 957              		.file 65 "../../DaisySP/Source/Utility/dsp.h"
 958              		.file 66 "/usr/include/newlib/wchar.h"
 959              		.file 67 "/usr/include/newlib/locale.h"
 960              		.file 68 "/usr/include/newlib/ctype.h"
 961              		.file 69 "/usr/include/newlib/sys/errno.h"
 962              		.file 70 "/usr/include/newlib/string.h"
 963              		.file 71 "../../libdaisy/src/dev/sr_595.h"
ARM GAS  /tmp/ccSywy9h.s 			page 31

