ARM GAS  /tmp/ccFLBw9P.s 			page 1


   1              		.cpu cortex-m7
   2              		.eabi_attribute 28, 1
   3              		.eabi_attribute 20, 1
   4              		.eabi_attribute 21, 1
   5              		.eabi_attribute 23, 3
   6              		.eabi_attribute 24, 1
   7              		.eabi_attribute 25, 1
   8              		.eabi_attribute 26, 1
   9              		.eabi_attribute 30, 2
  10              		.eabi_attribute 34, 1
  11              		.eabi_attribute 18, 4
  12              		.file	"Knob.cpp"
  13              		.text
  14              	.Ltext0:
  15              		.cfi_sections	.debug_frame
  16              		.section	.text._ZN5daisy9DaisySeedD2Ev,"axG",%progbits,_ZN5daisy9DaisySeedD5Ev,comdat
  17              		.align	1
  18              		.p2align 2,,3
  19              		.weak	_ZN5daisy9DaisySeedD2Ev
  20              		.arch armv7e-m
  21              		.syntax unified
  22              		.thumb
  23              		.thumb_func
  24              		.fpu fpv5-d16
  26              	_ZN5daisy9DaisySeedD2Ev:
  27              	.LVL0:
  28              	.LFB2037:
  29              		.file 1 "../../libdaisy/src/daisy_seed.h"
   1:../../libdaisy/src/daisy_seed.h **** #pragma once
   2:../../libdaisy/src/daisy_seed.h **** #ifndef DSY_SEED_H
   3:../../libdaisy/src/daisy_seed.h **** #define DSY_SEED_H
   4:../../libdaisy/src/daisy_seed.h **** 
   5:../../libdaisy/src/daisy_seed.h **** #include "daisy.h"
   6:../../libdaisy/src/daisy_seed.h **** 
   7:../../libdaisy/src/daisy_seed.h **** //Uncomment this out if you're still using the rev2 hardware
   8:../../libdaisy/src/daisy_seed.h **** //#define SEED_REV2
   9:../../libdaisy/src/daisy_seed.h **** 
  10:../../libdaisy/src/daisy_seed.h **** namespace daisy
  11:../../libdaisy/src/daisy_seed.h **** {
  12:../../libdaisy/src/daisy_seed.h **** /**
  13:../../libdaisy/src/daisy_seed.h ****    @brief This is the higher-level interface for the Daisy board. \n 
  14:../../libdaisy/src/daisy_seed.h ****     All basic peripheral configuration/initialization is setup here. \n
  15:../../libdaisy/src/daisy_seed.h **** 
  16:../../libdaisy/src/daisy_seed.h ****    @ingroup boards
  17:../../libdaisy/src/daisy_seed.h **** */
  18:../../libdaisy/src/daisy_seed.h **** class DaisySeed
  19:../../libdaisy/src/daisy_seed.h **** {
  20:../../libdaisy/src/daisy_seed.h ****   public:
  21:../../libdaisy/src/daisy_seed.h ****     DaisySeed() {}
  22:../../libdaisy/src/daisy_seed.h ****     ~DaisySeed() {}
  30              		.loc 1 22 5 view -0
  31              		.cfi_startproc
  32              		@ args = 0, pretend = 0, frame = 0
  33              		@ frame_needed = 0, uses_anonymous_args = 0
  34              		@ link register save eliminated.
  35              	.LBB57:
  36              	.LBI57:
ARM GAS  /tmp/ccFLBw9P.s 			page 2


  37              		.file 2 "../../libdaisy/src/sys/system.h"
   1:../../libdaisy/src/sys/system.h **** #ifndef DSY_SYSTEM_H
   2:../../libdaisy/src/sys/system.h **** #define DSY_SYSTEM_H
   3:../../libdaisy/src/sys/system.h **** 
   4:../../libdaisy/src/sys/system.h **** #ifndef UNIT_TEST // for unit tests, a dummy implementation is provided below
   5:../../libdaisy/src/sys/system.h **** 
   6:../../libdaisy/src/sys/system.h **** #include <cstdint>
   7:../../libdaisy/src/sys/system.h **** #include "per/tim.h"
   8:../../libdaisy/src/sys/system.h **** 
   9:../../libdaisy/src/sys/system.h **** namespace daisy
  10:../../libdaisy/src/sys/system.h **** {
  11:../../libdaisy/src/sys/system.h **** /** A handle for interacting with the Core System. 
  12:../../libdaisy/src/sys/system.h ****  ** This includes the Clock tree, MPU, global DMA initialization,
  13:../../libdaisy/src/sys/system.h ****  ** cache handling, and any other necessary global initiailzation
  14:../../libdaisy/src/sys/system.h ****  **
  15:../../libdaisy/src/sys/system.h ****  ** @author shensley
  16:../../libdaisy/src/sys/system.h ****  ** @addtogroup system
  17:../../libdaisy/src/sys/system.h ****  */
  18:../../libdaisy/src/sys/system.h **** class System
  19:../../libdaisy/src/sys/system.h **** {
  20:../../libdaisy/src/sys/system.h ****   public:
  21:../../libdaisy/src/sys/system.h ****     /** Contains settings for initializing the System */
  22:../../libdaisy/src/sys/system.h ****     struct Config
  23:../../libdaisy/src/sys/system.h ****     {
  24:../../libdaisy/src/sys/system.h ****         /** Specifies the system clock frequency that feeds APB/AHB clocks, etc. */
  25:../../libdaisy/src/sys/system.h ****         enum class SysClkFreq
  26:../../libdaisy/src/sys/system.h ****         {
  27:../../libdaisy/src/sys/system.h ****             FREQ_400MHZ,
  28:../../libdaisy/src/sys/system.h ****             FREQ_480MHZ,
  29:../../libdaisy/src/sys/system.h ****         };
  30:../../libdaisy/src/sys/system.h **** 
  31:../../libdaisy/src/sys/system.h ****         /** Method to call on the struct to set to defaults
  32:../../libdaisy/src/sys/system.h ****          ** CPU Freq set to 400MHz
  33:../../libdaisy/src/sys/system.h ****          ** Cache Enabled 
  34:../../libdaisy/src/sys/system.h ****          ** */
  35:../../libdaisy/src/sys/system.h ****         void Defaults()
  36:../../libdaisy/src/sys/system.h ****         {
  37:../../libdaisy/src/sys/system.h ****             cpu_freq   = SysClkFreq::FREQ_400MHZ;
  38:../../libdaisy/src/sys/system.h ****             use_dcache = true;
  39:../../libdaisy/src/sys/system.h ****             use_icache = true;
  40:../../libdaisy/src/sys/system.h ****         }
  41:../../libdaisy/src/sys/system.h **** 
  42:../../libdaisy/src/sys/system.h ****         /** Method to call on the struct to set to boost mode:
  43:../../libdaisy/src/sys/system.h ****          ** CPU Freq set to 480MHz
  44:../../libdaisy/src/sys/system.h ****          ** Cache Enabled 
  45:../../libdaisy/src/sys/system.h ****          ** */
  46:../../libdaisy/src/sys/system.h ****         void Boost()
  47:../../libdaisy/src/sys/system.h ****         {
  48:../../libdaisy/src/sys/system.h ****             cpu_freq   = SysClkFreq::FREQ_480MHZ;
  49:../../libdaisy/src/sys/system.h ****             use_dcache = true;
  50:../../libdaisy/src/sys/system.h ****             use_icache = true;
  51:../../libdaisy/src/sys/system.h ****         }
  52:../../libdaisy/src/sys/system.h **** 
  53:../../libdaisy/src/sys/system.h ****         SysClkFreq cpu_freq;
  54:../../libdaisy/src/sys/system.h ****         bool       use_dcache;
  55:../../libdaisy/src/sys/system.h ****         bool       use_icache;
  56:../../libdaisy/src/sys/system.h ****     };
ARM GAS  /tmp/ccFLBw9P.s 			page 3


  57:../../libdaisy/src/sys/system.h **** 
  58:../../libdaisy/src/sys/system.h ****     System() {}
  59:../../libdaisy/src/sys/system.h ****     ~System() {}
  38              		.loc 2 59 5 view .LVU1
  39              		.loc 2 59 5 is_stmt 0 view .LVU2
  40              	.LBE57:
  41              	.LBB58:
  42              	.LBI58:
  43              		.file 3 "../../libdaisy/src/hid/usb.h"
   1:../../libdaisy/src/hid/usb.h **** #pragma once
   2:../../libdaisy/src/hid/usb.h **** #ifndef DSY_HID_USB_H
   3:../../libdaisy/src/hid/usb.h **** #define DSY_HID_USB_H
   4:../../libdaisy/src/hid/usb.h **** #include <stdint.h>
   5:../../libdaisy/src/hid/usb.h **** #include <stdlib.h>
   6:../../libdaisy/src/hid/usb.h **** 
   7:../../libdaisy/src/hid/usb.h **** namespace daisy
   8:../../libdaisy/src/hid/usb.h **** /** @addtogroup externals
   9:../../libdaisy/src/hid/usb.h ****     @{
  10:../../libdaisy/src/hid/usb.h **** */
  11:../../libdaisy/src/hid/usb.h **** 
  12:../../libdaisy/src/hid/usb.h **** {
  13:../../libdaisy/src/hid/usb.h **** /** 
  14:../../libdaisy/src/hid/usb.h ****     @brief Interface for initializing and using the USB Peripherals on the daisy
  15:../../libdaisy/src/hid/usb.h ****     @author Stephen Hensley
  16:../../libdaisy/src/hid/usb.h ****     @date December 2019
  17:../../libdaisy/src/hid/usb.h **** */
  18:../../libdaisy/src/hid/usb.h **** class UsbHandle
  19:../../libdaisy/src/hid/usb.h **** {
  20:../../libdaisy/src/hid/usb.h ****   public:
  21:../../libdaisy/src/hid/usb.h ****     /** Return values for USBHandle Functions */
  22:../../libdaisy/src/hid/usb.h ****     enum class Result
  23:../../libdaisy/src/hid/usb.h ****     {
  24:../../libdaisy/src/hid/usb.h ****         OK,
  25:../../libdaisy/src/hid/usb.h ****         ERR,
  26:../../libdaisy/src/hid/usb.h ****     };
  27:../../libdaisy/src/hid/usb.h **** 
  28:../../libdaisy/src/hid/usb.h ****     /** Specified which of the two USB Peripherals to initialize. */
  29:../../libdaisy/src/hid/usb.h ****     enum UsbPeriph
  30:../../libdaisy/src/hid/usb.h ****     {
  31:../../libdaisy/src/hid/usb.h ****         FS_INTERNAL, /**< Internal pin */
  32:../../libdaisy/src/hid/usb.h ****         FS_EXTERNAL, /**< FS External D+ pin is Pin 38 (GPIO32). FS External D- pin is Pin 37 (GPIO
  33:../../libdaisy/src/hid/usb.h ****         FS_BOTH,     /**< Both */
  34:../../libdaisy/src/hid/usb.h ****     };
  35:../../libdaisy/src/hid/usb.h **** 
  36:../../libdaisy/src/hid/usb.h **** 
  37:../../libdaisy/src/hid/usb.h ****     /** Function called upon reception of a buffer */
  38:../../libdaisy/src/hid/usb.h ****     typedef void (*ReceiveCallback)(uint8_t* buff, uint32_t* len);
  39:../../libdaisy/src/hid/usb.h **** 
  40:../../libdaisy/src/hid/usb.h ****     UsbHandle() {}
  41:../../libdaisy/src/hid/usb.h **** 
  42:../../libdaisy/src/hid/usb.h ****     ~UsbHandle() {}
  44              		.loc 3 42 5 is_stmt 1 view .LVU3
  45              		.loc 3 42 5 is_stmt 0 view .LVU4
  46              	.LBE58:
  47              	.LBB59:
  48              	.LBI59:
  49              		.file 4 "../../libdaisy/src/per/adc.h"
ARM GAS  /tmp/ccFLBw9P.s 			page 4


   1:../../libdaisy/src/per/adc.h **** #pragma once
   2:../../libdaisy/src/per/adc.h **** #ifndef DSY_ADC_H
   3:../../libdaisy/src/per/adc.h **** #define DSY_ADC_H /**< Macro */
   4:../../libdaisy/src/per/adc.h **** #include <stdint.h>
   5:../../libdaisy/src/per/adc.h **** #include <stdlib.h>
   6:../../libdaisy/src/per/adc.h **** #include "daisy_core.h"
   7:../../libdaisy/src/per/adc.h **** #include "per/gpio.h"
   8:../../libdaisy/src/per/adc.h **** 
   9:../../libdaisy/src/per/adc.h **** #define DSY_ADC_MAX_CHANNELS 14 /**< Maximum number of ADC channels */
  10:../../libdaisy/src/per/adc.h **** 
  11:../../libdaisy/src/per/adc.h **** namespace daisy
  12:../../libdaisy/src/per/adc.h **** {
  13:../../libdaisy/src/per/adc.h **** /** @addtogroup analog_digital_conversion
  14:../../libdaisy/src/per/adc.h ****     @{
  15:../../libdaisy/src/per/adc.h **** */
  16:../../libdaisy/src/per/adc.h **** 
  17:../../libdaisy/src/per/adc.h **** /* While there may not be many configuration options here,
  18:../../libdaisy/src/per/adc.h **** using a struct like this allows us to add more configuration
  19:../../libdaisy/src/per/adc.h **** later without breaking existing functionality.
  20:../../libdaisy/src/per/adc.h **** */
  21:../../libdaisy/src/per/adc.h **** 
  22:../../libdaisy/src/per/adc.h **** /** Configuration Structure for a given channel */
  23:../../libdaisy/src/per/adc.h **** struct AdcChannelConfig
  24:../../libdaisy/src/per/adc.h **** {
  25:../../libdaisy/src/per/adc.h ****     /** Which pin to use for multiplexing */
  26:../../libdaisy/src/per/adc.h ****     enum MuxPin
  27:../../libdaisy/src/per/adc.h ****     {
  28:../../libdaisy/src/per/adc.h ****         MUX_SEL_0,    /**< & */
  29:../../libdaisy/src/per/adc.h ****         MUX_SEL_1,    /**< & */
  30:../../libdaisy/src/per/adc.h ****         MUX_SEL_2,    /**< & */
  31:../../libdaisy/src/per/adc.h ****         MUX_SEL_LAST, /**< & */
  32:../../libdaisy/src/per/adc.h ****     };
  33:../../libdaisy/src/per/adc.h **** 
  34:../../libdaisy/src/per/adc.h ****     /** Initializes a single ADC pin as an ADC. 
  35:../../libdaisy/src/per/adc.h ****     \param pin Pin to init.
  36:../../libdaisy/src/per/adc.h ****      */
  37:../../libdaisy/src/per/adc.h ****     void InitSingle(dsy_gpio_pin pin);
  38:../../libdaisy/src/per/adc.h **** 
  39:../../libdaisy/src/per/adc.h ****     /** 
  40:../../libdaisy/src/per/adc.h ****     Initializes a single ADC pin as a Multiplexed ADC.
  41:../../libdaisy/src/per/adc.h ****     Requires a CD405X Multiplexer connected to the pin.
  42:../../libdaisy/src/per/adc.h ****     You only need to supply the mux pins that are required,
  43:../../libdaisy/src/per/adc.h ****     e.g. a 4052 mux would only require mux_0 and mux_1.
  44:../../libdaisy/src/per/adc.h ****     Internal Callbacks handle the pin addressing.
  45:../../libdaisy/src/per/adc.h ****     \param mux_channels must be 1-8
  46:../../libdaisy/src/per/adc.h ****     \param mux_0 First mux pin
  47:../../libdaisy/src/per/adc.h ****     \param mux_1 Second mux pin
  48:../../libdaisy/src/per/adc.h ****     \param mux_2 Third mux pin
  49:../../libdaisy/src/per/adc.h ****     \param adc_pin &
  50:../../libdaisy/src/per/adc.h ****     */
  51:../../libdaisy/src/per/adc.h ****     void InitMux(dsy_gpio_pin adc_pin,
  52:../../libdaisy/src/per/adc.h ****                  size_t       mux_channels,
  53:../../libdaisy/src/per/adc.h ****                  dsy_gpio_pin mux_0,
  54:../../libdaisy/src/per/adc.h ****                  dsy_gpio_pin mux_1 = {DSY_GPIOX, 0},
  55:../../libdaisy/src/per/adc.h ****                  dsy_gpio_pin mux_2 = {DSY_GPIOX, 0});
  56:../../libdaisy/src/per/adc.h **** 
  57:../../libdaisy/src/per/adc.h ****     dsy_gpio pin_;                   /**< & */
ARM GAS  /tmp/ccFLBw9P.s 			page 5


  58:../../libdaisy/src/per/adc.h ****     dsy_gpio mux_pin_[MUX_SEL_LAST]; /**< & */
  59:../../libdaisy/src/per/adc.h ****     uint8_t  mux_channels_;          /**< & */
  60:../../libdaisy/src/per/adc.h **** };
  61:../../libdaisy/src/per/adc.h **** 
  62:../../libdaisy/src/per/adc.h **** /**
  63:../../libdaisy/src/per/adc.h ****    Handler for analog to digital conversion
  64:../../libdaisy/src/per/adc.h **** */
  65:../../libdaisy/src/per/adc.h **** class AdcHandle
  66:../../libdaisy/src/per/adc.h **** {
  67:../../libdaisy/src/per/adc.h ****   public:
  68:../../libdaisy/src/per/adc.h ****     /** Supported oversampling amounts */
  69:../../libdaisy/src/per/adc.h ****     enum OverSampling
  70:../../libdaisy/src/per/adc.h ****     {
  71:../../libdaisy/src/per/adc.h ****         OVS_NONE, /**< & */
  72:../../libdaisy/src/per/adc.h ****         OVS_4,    /**< & */
  73:../../libdaisy/src/per/adc.h ****         OVS_8,    /**< & */
  74:../../libdaisy/src/per/adc.h ****         OVS_16,   /**< & */
  75:../../libdaisy/src/per/adc.h ****         OVS_32,   /**< & */
  76:../../libdaisy/src/per/adc.h ****         OVS_64,   /**< & */
  77:../../libdaisy/src/per/adc.h ****         OVS_128,  /**< & */
  78:../../libdaisy/src/per/adc.h ****         OVS_256,  /**< & */
  79:../../libdaisy/src/per/adc.h ****         OVS_512,  /**< & */
  80:../../libdaisy/src/per/adc.h ****         OVS_1024, /**< & */
  81:../../libdaisy/src/per/adc.h ****         OVS_LAST, /**< & */
  82:../../libdaisy/src/per/adc.h ****     };
  83:../../libdaisy/src/per/adc.h **** 
  84:../../libdaisy/src/per/adc.h ****     AdcHandle() {}
  85:../../libdaisy/src/per/adc.h ****     ~AdcHandle() {}
  50              		.loc 4 85 5 is_stmt 1 view .LVU5
  51              		.loc 4 85 5 is_stmt 0 view .LVU6
  52              	.LBE59:
  53              	.LBB60:
  54              	.LBI60:
  55              		.file 5 "../../libdaisy/src/hid/audio.h"
   1:../../libdaisy/src/hid/audio.h **** #ifndef DSY_AUDIO_H
   2:../../libdaisy/src/hid/audio.h **** #define DSY_AUDIO_H /**< & */
   3:../../libdaisy/src/hid/audio.h **** 
   4:../../libdaisy/src/hid/audio.h **** #include "per/sai.h"
   5:../../libdaisy/src/hid/audio.h **** 
   6:../../libdaisy/src/hid/audio.h **** namespace daisy
   7:../../libdaisy/src/hid/audio.h **** {
   8:../../libdaisy/src/hid/audio.h **** class AudioHandle
   9:../../libdaisy/src/hid/audio.h **** {
  10:../../libdaisy/src/hid/audio.h ****   public:
  11:../../libdaisy/src/hid/audio.h ****     /** Manually configurable details about the Audio Engine */
  12:../../libdaisy/src/hid/audio.h ****     /** TODO: Figure out how to get samplerate in here. */
  13:../../libdaisy/src/hid/audio.h ****     struct Config
  14:../../libdaisy/src/hid/audio.h ****     {
  15:../../libdaisy/src/hid/audio.h ****         size_t                        blocksize;
  16:../../libdaisy/src/hid/audio.h ****         SaiHandle::Config::SampleRate samplerate;
  17:../../libdaisy/src/hid/audio.h ****         float                         postgain;
  18:../../libdaisy/src/hid/audio.h ****     };
  19:../../libdaisy/src/hid/audio.h **** 
  20:../../libdaisy/src/hid/audio.h ****     enum class Result
  21:../../libdaisy/src/hid/audio.h ****     {
  22:../../libdaisy/src/hid/audio.h ****         OK,
  23:../../libdaisy/src/hid/audio.h ****         ERR,
ARM GAS  /tmp/ccFLBw9P.s 			page 6


  24:../../libdaisy/src/hid/audio.h ****     };
  25:../../libdaisy/src/hid/audio.h **** 
  26:../../libdaisy/src/hid/audio.h ****     /** Non-Interleaving input buffer
  27:../../libdaisy/src/hid/audio.h ****      * Buffer arranged by float[chn][sample] 
  28:../../libdaisy/src/hid/audio.h ****      * const so that the user can't modify the input
  29:../../libdaisy/src/hid/audio.h ****     */
  30:../../libdaisy/src/hid/audio.h ****     typedef const float* const* InputBuffer;
  31:../../libdaisy/src/hid/audio.h **** 
  32:../../libdaisy/src/hid/audio.h ****     /** Non-Interleaving output buffer
  33:../../libdaisy/src/hid/audio.h ****      * Arranged by float[chn][sample] 
  34:../../libdaisy/src/hid/audio.h ****     */
  35:../../libdaisy/src/hid/audio.h ****     typedef float** OutputBuffer;
  36:../../libdaisy/src/hid/audio.h **** 
  37:../../libdaisy/src/hid/audio.h ****     /** Type for a Non-Interleaving audio callback 
  38:../../libdaisy/src/hid/audio.h ****    * Non-Interleaving audio callbacks in daisy will be of this type
  39:../../libdaisy/src/hid/audio.h ****   */
  40:../../libdaisy/src/hid/audio.h ****     typedef void (*AudioCallback)(InputBuffer  in,
  41:../../libdaisy/src/hid/audio.h ****                                   OutputBuffer out,
  42:../../libdaisy/src/hid/audio.h ****                                   size_t       size);
  43:../../libdaisy/src/hid/audio.h **** 
  44:../../libdaisy/src/hid/audio.h ****     /** Interleaving Input buffer
  45:../../libdaisy/src/hid/audio.h ****      ** audio is prepared as { L0, R0, L1, R1, . . . LN, RN }]
  46:../../libdaisy/src/hid/audio.h ****      ** this is const, as the user shouldn't modify it
  47:../../libdaisy/src/hid/audio.h ****     */
  48:../../libdaisy/src/hid/audio.h ****     typedef const float* InterleavingInputBuffer;
  49:../../libdaisy/src/hid/audio.h **** 
  50:../../libdaisy/src/hid/audio.h ****     /** Interleaving Output buffer 
  51:../../libdaisy/src/hid/audio.h ****      ** audio is prepared as { L0, R0, L1, R1, . . . LN, RN }
  52:../../libdaisy/src/hid/audio.h ****     */
  53:../../libdaisy/src/hid/audio.h ****     typedef float* InterleavingOutputBuffer;
  54:../../libdaisy/src/hid/audio.h **** 
  55:../../libdaisy/src/hid/audio.h ****     /** Interleaving Audio Callback 
  56:../../libdaisy/src/hid/audio.h ****    * Interleaving audio callbacks in daisy must be of this type
  57:../../libdaisy/src/hid/audio.h ****   */
  58:../../libdaisy/src/hid/audio.h ****     typedef void (*InterleavingAudioCallback)(InterleavingInputBuffer  in,
  59:../../libdaisy/src/hid/audio.h ****                                               InterleavingOutputBuffer out,
  60:../../libdaisy/src/hid/audio.h ****                                               size_t                   size);
  61:../../libdaisy/src/hid/audio.h **** 
  62:../../libdaisy/src/hid/audio.h ****     AudioHandle() : pimpl_(nullptr) {}
  63:../../libdaisy/src/hid/audio.h ****     ~AudioHandle() {}
  56              		.loc 5 63 5 is_stmt 1 view .LVU7
  57              		.loc 5 63 5 is_stmt 0 view .LVU8
  58              	.LBE60:
  59              		.loc 1 22 19 view .LVU9
  60 0000 7047     		bx	lr
  61              		.cfi_endproc
  62              	.LFE2037:
  64              		.weak	_ZN5daisy9DaisySeedD1Ev
  65              		.thumb_set _ZN5daisy9DaisySeedD1Ev,_ZN5daisy9DaisySeedD2Ev
  66 0002 00BF     		.section	.text.startup.main,"ax",%progbits
  67              		.align	1
  68              		.p2align 2,,3
  69              		.global	main
  70              		.syntax unified
  71              		.thumb
  72              		.thumb_func
  73              		.fpu fpv5-d16
ARM GAS  /tmp/ccFLBw9P.s 			page 7


  75              	main:
  76              	.LFB2042:
  77              		.file 6 "Knob.cpp"
   1:Knob.cpp      **** #include "daisy_seed.h"
   2:Knob.cpp      **** 
   3:Knob.cpp      **** // Use the daisy namespace to prevent having to type
   4:Knob.cpp      **** // daisy:: before all libdaisy functions
   5:Knob.cpp      **** using namespace daisy;
   6:Knob.cpp      **** 
   7:Knob.cpp      **** // Declare a DaisySeed object called hardware
   8:Knob.cpp      **** DaisySeed hardware;
   9:Knob.cpp      **** 
  10:Knob.cpp      **** int main(void)
  11:Knob.cpp      **** {
  78              		.loc 6 11 1 is_stmt 1 view -0
  79              		.cfi_startproc
  80              		@ Volatile: function does not return.
  81              		@ args = 0, pretend = 0, frame = 56
  82              		@ frame_needed = 0, uses_anonymous_args = 0
  12:Knob.cpp      ****     // Configure and Initialize the Daisy Seed
  13:Knob.cpp      ****     // These are separate to allow reconfiguration of any of the internal
  14:Knob.cpp      ****     // components before initialization.
  15:Knob.cpp      ****     hardware.Configure();
  83              		.loc 6 15 5 view .LVU11
  11:Knob.cpp      ****     // Configure and Initialize the Daisy Seed
  84              		.loc 6 11 1 is_stmt 0 view .LVU12
  85 0000 00B5     		push	{lr}
  86              		.cfi_def_cfa_offset 4
  87              		.cfi_offset 14, -4
  88              		.loc 6 15 23 view .LVU13
  89 0002 1B48     		ldr	r0, .L6
  11:Knob.cpp      ****     // Configure and Initialize the Daisy Seed
  90              		.loc 6 11 1 view .LVU14
  91 0004 8FB0     		sub	sp, sp, #60
  92              		.cfi_def_cfa_offset 64
  93              		.loc 6 15 23 view .LVU15
  94 0006 FFF7FEFF 		bl	_ZN5daisy9DaisySeed9ConfigureEv
  95              	.LVL1:
  16:Knob.cpp      ****     hardware.Init();
  96              		.loc 6 16 5 is_stmt 1 view .LVU16
  97              		.loc 6 16 18 is_stmt 0 view .LVU17
  98 000a 0021     		movs	r1, #0
  99 000c 1848     		ldr	r0, .L6
 100 000e FFF7FEFF 		bl	_ZN5daisy9DaisySeed4InitEb
 101              	.LVL2:
  17:Knob.cpp      **** 
  18:Knob.cpp      ****     Led led1;
 102              		.loc 6 18 5 is_stmt 1 view .LVU18
 103              	.LBB61:
 104              	.LBI61:
 105              		.file 7 "../../libdaisy/src/hid/led.h"
   1:../../libdaisy/src/hid/led.h **** 
   2:../../libdaisy/src/hid/led.h **** #pragma once
   3:../../libdaisy/src/hid/led.h **** #ifndef DSY_LED_H
   4:../../libdaisy/src/hid/led.h **** #define DSY_LED_H
   5:../../libdaisy/src/hid/led.h **** #include "daisy_core.h"
   6:../../libdaisy/src/hid/led.h **** #include "per/gpio.h"
ARM GAS  /tmp/ccFLBw9P.s 			page 8


   7:../../libdaisy/src/hid/led.h **** 
   8:../../libdaisy/src/hid/led.h **** /* TODO - Get this set up to work with the dev_leddriver stuff as well
   9:../../libdaisy/src/hid/led.h **** - Setup Hardware PWM for pins that have it
  10:../../libdaisy/src/hid/led.h **** */
  11:../../libdaisy/src/hid/led.h **** 
  12:../../libdaisy/src/hid/led.h **** namespace daisy
  13:../../libdaisy/src/hid/led.h **** {
  14:../../libdaisy/src/hid/led.h **** /**
  15:../../libdaisy/src/hid/led.h ****     @brief LED Class providing simple Software PWM ability, etc \n 
  16:../../libdaisy/src/hid/led.h ****     Eventually this will work with hardware PWM, and external LED Driver devices as well.
  17:../../libdaisy/src/hid/led.h ****     @author shensley
  18:../../libdaisy/src/hid/led.h ****     @date March 2020
  19:../../libdaisy/src/hid/led.h ****     @ingroup feedback
  20:../../libdaisy/src/hid/led.h **** */
  21:../../libdaisy/src/hid/led.h **** class Led
  22:../../libdaisy/src/hid/led.h **** {
  23:../../libdaisy/src/hid/led.h ****   public:
  24:../../libdaisy/src/hid/led.h ****     Led() {}
 106              		.loc 7 24 5 view .LVU19
 107              		.loc 7 24 5 is_stmt 0 view .LVU20
 108              	.LBE61:
  19:Knob.cpp      ****     //Initialize led1. We'll plug it into pin 28.
  20:Knob.cpp      ****     //false here indicates the value is uninverted
  21:Knob.cpp      ****     led1.Init(hardware.GetPin(28), false);
 109              		.loc 6 21 5 is_stmt 1 view .LVU21
 110              		.loc 6 21 14 is_stmt 0 view .LVU22
 111 0012 1C20     		movs	r0, #28
 112 0014 FFF7FEFF 		bl	_ZN5daisy9DaisySeed6GetPinEh
 113              	.LVL3:
 114 0018 0346     		mov	r3, r0	@ movhi
 115 001a 9FED160A 		vldr.32	s0, .L6+4
 116 001e 0022     		movs	r2, #0
 117 0020 ADF80030 		strh	r3, [sp]	@ movhi
 118 0024 07A8     		add	r0, sp, #28
 119 0026 0099     		ldr	r1, [sp]
 120 0028 FFF7FEFF 		bl	_ZN5daisy3Led4InitE12dsy_gpio_pinbf
 121              	.LVL4:
  22:Knob.cpp      **** 
  23:Knob.cpp      ****     //This is our ADC configuration
  24:Knob.cpp      ****     AdcChannelConfig adcConfig;
 122              		.loc 6 24 5 is_stmt 1 view .LVU23
  25:Knob.cpp      ****     //Configure pin 21 as an ADC input. This is where we'll read the knob.
  26:Knob.cpp      ****     adcConfig.InitSingle(hardware.GetPin(21));
 123              		.loc 6 26 5 view .LVU24
 124              		.loc 6 26 25 is_stmt 0 view .LVU25
 125 002c 1520     		movs	r0, #21
 126 002e FFF7FEFF 		bl	_ZN5daisy9DaisySeed6GetPinEh
 127              	.LVL5:
 128 0032 0346     		mov	r3, r0	@ movhi
 129 0034 02A8     		add	r0, sp, #8
 130 0036 ADF80430 		strh	r3, [sp, #4]	@ movhi
 131 003a 0199     		ldr	r1, [sp, #4]
 132 003c FFF7FEFF 		bl	_ZN5daisy16AdcChannelConfig10InitSingleE12dsy_gpio_pin
 133              	.LVL6:
  27:Knob.cpp      **** 
  28:Knob.cpp      ****     //Initialize the adc with the config we just made
  29:Knob.cpp      ****     hardware.adc.Init(&adcConfig, 1);
ARM GAS  /tmp/ccFLBw9P.s 			page 9


 134              		.loc 6 29 5 is_stmt 1 view .LVU26
 135              		.loc 6 29 22 is_stmt 0 view .LVU27
 136 0040 0D48     		ldr	r0, .L6+8
 137 0042 02A9     		add	r1, sp, #8
 138 0044 0423     		movs	r3, #4
 139 0046 0122     		movs	r2, #1
 140 0048 FFF7FEFF 		bl	_ZN5daisy9AdcHandle4InitEPNS_16AdcChannelConfigEjNS0_12OverSamplingE
 141              	.LVL7:
  30:Knob.cpp      ****     //Start reading values
  31:Knob.cpp      ****     hardware.adc.Start();
 142              		.loc 6 31 5 is_stmt 1 view .LVU28
 143              		.loc 6 31 23 is_stmt 0 view .LVU29
 144 004c 0A48     		ldr	r0, .L6+8
 145 004e FFF7FEFF 		bl	_ZN5daisy9AdcHandle5StartEv
 146              	.LVL8:
 147              	.L4:
  32:Knob.cpp      **** 
  33:Knob.cpp      ****     // Loop forever
  34:Knob.cpp      ****     for(;;)
 148              		.loc 6 34 5 is_stmt 1 discriminator 1 view .LVU30
  35:Knob.cpp      ****     {
  36:Knob.cpp      ****         // Set the onboard LED to the value we read from the knob
  37:Knob.cpp      ****         led1.Set(hardware.adc.GetFloat(0));
 149              		.loc 6 37 9 discriminator 1 view .LVU31
 150              		.loc 6 37 17 is_stmt 0 discriminator 1 view .LVU32
 151 0052 0021     		movs	r1, #0
 152 0054 0848     		ldr	r0, .L6+8
 153 0056 FFF7FEFF 		bl	_ZNK5daisy9AdcHandle8GetFloatEh
 154              	.LVL9:
 155 005a 07A8     		add	r0, sp, #28
 156 005c FFF7FEFF 		bl	_ZN5daisy3Led3SetEf
 157              	.LVL10:
  38:Knob.cpp      **** 
  39:Knob.cpp      ****         //Update the led to reflect the set value
  40:Knob.cpp      ****         led1.Update();
 158              		.loc 6 40 9 is_stmt 1 discriminator 1 view .LVU33
 159              		.loc 6 40 20 is_stmt 0 discriminator 1 view .LVU34
 160 0060 07A8     		add	r0, sp, #28
 161 0062 FFF7FEFF 		bl	_ZN5daisy3Led6UpdateEv
 162              	.LVL11:
  41:Knob.cpp      **** 
  42:Knob.cpp      ****         //wait 1 ms
  43:Knob.cpp      ****         System::Delay(1);
 163              		.loc 6 43 9 is_stmt 1 discriminator 1 view .LVU35
 164              		.loc 6 43 22 is_stmt 0 discriminator 1 view .LVU36
 165 0066 0120     		movs	r0, #1
 166 0068 FFF7FEFF 		bl	_ZN5daisy6System5DelayEm
 167              	.LVL12:
  34:Knob.cpp      ****     {
 168              		.loc 6 34 5 is_stmt 1 discriminator 1 view .LVU37
 169 006c F1E7     		b	.L4
 170              	.L7:
 171 006e 00BF     		.align	2
 172              	.L6:
 173 0070 00000000 		.word	.LANCHOR0
 174 0074 00007A44 		.word	1148846080
 175 0078 18000000 		.word	.LANCHOR0+24
ARM GAS  /tmp/ccFLBw9P.s 			page 10


 176              		.cfi_endproc
 177              	.LFE2042:
 179              		.section	.text.startup._GLOBAL__sub_I_hardware,"ax",%progbits
 180              		.align	1
 181              		.p2align 2,,3
 182              		.syntax unified
 183              		.thumb
 184              		.thumb_func
 185              		.fpu fpv5-d16
 187              	_GLOBAL__sub_I_hardware:
 188              	.LFB2058:
  44:Knob.cpp      ****     }
  45:Knob.cpp      **** }
 189              		.loc 6 45 1 view -0
 190              		.cfi_startproc
 191              		@ args = 0, pretend = 0, frame = 0
 192              		@ frame_needed = 0, uses_anonymous_args = 0
 193              		@ link register save eliminated.
 194              	.LVL13:
 195              	.LBB62:
 196              	.LBI62:
 197              		.loc 6 45 1 view .LVU39
 198              	.LBB63:
 199              	.LBB64:
 200              	.LBI64:
  21:../../libdaisy/src/daisy_seed.h ****     ~DaisySeed() {}
 201              		.loc 1 21 5 view .LVU40
 202              	.LBB65:
 203              	.LBB66:
 204              	.LBI66:
  62:../../libdaisy/src/hid/audio.h ****     ~AudioHandle() {}
 205              		.loc 5 62 5 view .LVU41
 206              	.LBB67:
 207              	.LBB68:
  62:../../libdaisy/src/hid/audio.h ****     ~AudioHandle() {}
 208              		.loc 5 62 35 is_stmt 0 view .LVU42
 209 0000 0348     		ldr	r0, .L9
 210 0002 0023     		movs	r3, #0
 211              	.LBE68:
 212              	.LBE67:
 213              	.LBE66:
 214              	.LBE65:
 215              	.LBE64:
   8:Knob.cpp      **** 
 216              		.loc 6 8 11 view .LVU43
 217 0004 034A     		ldr	r2, .L9+4
 218 0006 0449     		ldr	r1, .L9+8
 219              	.LBB79:
 220              	.LBB78:
 221              	.LBB71:
 222              	.LBB70:
 223              	.LBB69:
  62:../../libdaisy/src/hid/audio.h ****     ~AudioHandle() {}
 224              		.loc 5 62 35 view .LVU44
 225 0008 4361     		str	r3, [r0, #20]
 226              	.LVL14:
  62:../../libdaisy/src/hid/audio.h ****     ~AudioHandle() {}
ARM GAS  /tmp/ccFLBw9P.s 			page 11


 227              		.loc 5 62 35 view .LVU45
 228              	.LBE69:
 229              	.LBE70:
 230              	.LBE71:
 231              	.LBB72:
 232              	.LBI72:
  84:../../libdaisy/src/per/adc.h ****     ~AdcHandle() {}
 233              		.loc 4 84 5 is_stmt 1 view .LVU46
  84:../../libdaisy/src/per/adc.h ****     ~AdcHandle() {}
 234              		.loc 4 84 5 is_stmt 0 view .LVU47
 235              	.LBE72:
 236              	.LBB73:
 237              	.LBI73:
 238              		.file 8 "../../libdaisy/src/per/dac.h"
   1:../../libdaisy/src/per/dac.h **** #pragma once
   2:../../libdaisy/src/per/dac.h **** #ifndef DSY_DAC_H
   3:../../libdaisy/src/per/dac.h **** #define DSY_DAC_H
   4:../../libdaisy/src/per/dac.h **** 
   5:../../libdaisy/src/per/dac.h **** #include "daisy_core.h"
   6:../../libdaisy/src/per/dac.h **** 
   7:../../libdaisy/src/per/dac.h **** namespace daisy
   8:../../libdaisy/src/per/dac.h **** {
   9:../../libdaisy/src/per/dac.h **** /** DAC handle for Built-in DAC Peripheral 
  10:../../libdaisy/src/per/dac.h ****  ** 
  11:../../libdaisy/src/per/dac.h ****  ** For now only Normal Mode is supported,
  12:../../libdaisy/src/per/dac.h ****  ** Sample and hold mode provides reduced power consumption, but requires a bit more setup.
  13:../../libdaisy/src/per/dac.h ****  **
  14:../../libdaisy/src/per/dac.h ****  ** For now connecting the DAC through other internal periphearls is also not supported.
  15:../../libdaisy/src/per/dac.h ****  **
  16:../../libdaisy/src/per/dac.h ****  ** Since the DAC channels have dedicated pins we don't need to pass in a pin config like with
  17:../../libdaisy/src/per/dac.h ****  ** other modules. However, it is still important to not try to use the DAC pins for anything else.
  18:../../libdaisy/src/per/dac.h ****  ** DAC Channel 1 is on PA4, and DAC Channel 2 is on PA5
  19:../../libdaisy/src/per/dac.h ****  ***/
  20:../../libdaisy/src/per/dac.h **** class DacHandle
  21:../../libdaisy/src/per/dac.h **** {
  22:../../libdaisy/src/per/dac.h ****   public:
  23:../../libdaisy/src/per/dac.h ****     /** Return Values for the DacHandle class */
  24:../../libdaisy/src/per/dac.h ****     enum class Result
  25:../../libdaisy/src/per/dac.h ****     {
  26:../../libdaisy/src/per/dac.h ****         OK,
  27:../../libdaisy/src/per/dac.h ****         ERR,
  28:../../libdaisy/src/per/dac.h ****     };
  29:../../libdaisy/src/per/dac.h **** 
  30:../../libdaisy/src/per/dac.h ****     /** Selects which channel(s) will be configured for use. */
  31:../../libdaisy/src/per/dac.h ****     enum class Channel
  32:../../libdaisy/src/per/dac.h ****     {
  33:../../libdaisy/src/per/dac.h ****         ONE,
  34:../../libdaisy/src/per/dac.h ****         TWO,
  35:../../libdaisy/src/per/dac.h ****         BOTH,
  36:../../libdaisy/src/per/dac.h ****     };
  37:../../libdaisy/src/per/dac.h **** 
  38:../../libdaisy/src/per/dac.h ****     /** Sets the Mode for the DAC channels.
  39:../../libdaisy/src/per/dac.h ****      **
  40:../../libdaisy/src/per/dac.h ****      ** Polling mode uses the blocking mode to transmit a single value at a time.
  41:../../libdaisy/src/per/dac.h ****      **
  42:../../libdaisy/src/per/dac.h ****      ** DMA mode uses a buffer, and periodically transmits it triggering a 
  43:../../libdaisy/src/per/dac.h ****      ** callback to fill the buffer when it is ready for more samples.
ARM GAS  /tmp/ccFLBw9P.s 			page 12


  44:../../libdaisy/src/per/dac.h ****      ***/
  45:../../libdaisy/src/per/dac.h ****     enum class Mode
  46:../../libdaisy/src/per/dac.h ****     {
  47:../../libdaisy/src/per/dac.h ****         POLLING,
  48:../../libdaisy/src/per/dac.h ****         DMA,
  49:../../libdaisy/src/per/dac.h ****     };
  50:../../libdaisy/src/per/dac.h **** 
  51:../../libdaisy/src/per/dac.h ****     /** Sets the number of bits per sample transmitted out of the DAC.
  52:../../libdaisy/src/per/dac.h ****      ** The output range will be: 0V - VDDA
  53:../../libdaisy/src/per/dac.h ****      ** The resolution will be roughly: bitdepth / (VDDA - 0V) 
  54:../../libdaisy/src/per/dac.h ****      ***/
  55:../../libdaisy/src/per/dac.h ****     enum class BitDepth
  56:../../libdaisy/src/per/dac.h ****     {
  57:../../libdaisy/src/per/dac.h ****         BITS_8,
  58:../../libdaisy/src/per/dac.h ****         BITS_12
  59:../../libdaisy/src/per/dac.h ****     };
  60:../../libdaisy/src/per/dac.h **** 
  61:../../libdaisy/src/per/dac.h ****     /** Sets whether the DAC output is buffered for higher drive ability. */
  62:../../libdaisy/src/per/dac.h ****     enum class BufferState
  63:../../libdaisy/src/per/dac.h ****     {
  64:../../libdaisy/src/per/dac.h ****         ENABLED,
  65:../../libdaisy/src/per/dac.h ****         DISABLED,
  66:../../libdaisy/src/per/dac.h ****     };
  67:../../libdaisy/src/per/dac.h **** 
  68:../../libdaisy/src/per/dac.h ****     /** Configuration structure for initializing the DAC structure. */
  69:../../libdaisy/src/per/dac.h ****     struct Config
  70:../../libdaisy/src/per/dac.h ****     {
  71:../../libdaisy/src/per/dac.h ****         /** Target Samplerate in Hz used to configure the internal 
  72:../../libdaisy/src/per/dac.h ****          ** timebase for DMA mode. Does nothing in POLLING mode.
  73:../../libdaisy/src/per/dac.h ****          ** If the value is 0 at Init time this will default to 48000Hz 
  74:../../libdaisy/src/per/dac.h ****          ** otherwise the driver will attempt meet the target.*/
  75:../../libdaisy/src/per/dac.h ****         uint32_t target_samplerate;
  76:../../libdaisy/src/per/dac.h **** 
  77:../../libdaisy/src/per/dac.h ****         Channel     chn;
  78:../../libdaisy/src/per/dac.h ****         Mode        mode;
  79:../../libdaisy/src/per/dac.h ****         BitDepth    bitdepth;
  80:../../libdaisy/src/per/dac.h ****         BufferState buff_state;
  81:../../libdaisy/src/per/dac.h ****     };
  82:../../libdaisy/src/per/dac.h **** 
  83:../../libdaisy/src/per/dac.h ****     DacHandle() : pimpl_(nullptr) {}
 239              		.loc 8 83 5 is_stmt 1 view .LVU48
 240              	.LBB74:
 241              	.LBB75:
 242              		.loc 8 83 33 is_stmt 0 view .LVU49
 243 000a 0362     		str	r3, [r0, #32]
 244              	.LVL15:
 245              		.loc 8 83 33 view .LVU50
 246              	.LBE75:
 247              	.LBE74:
 248              	.LBE73:
 249              	.LBB76:
 250              	.LBI76:
  40:../../libdaisy/src/hid/usb.h **** 
 251              		.loc 3 40 5 is_stmt 1 view .LVU51
  40:../../libdaisy/src/hid/usb.h **** 
 252              		.loc 3 40 5 is_stmt 0 view .LVU52
 253              	.LBE76:
ARM GAS  /tmp/ccFLBw9P.s 			page 13


 254              	.LBB77:
 255              	.LBI77:
  58:../../libdaisy/src/sys/system.h ****     ~System() {}
 256              		.loc 2 58 5 is_stmt 1 view .LVU53
  58:../../libdaisy/src/sys/system.h ****     ~System() {}
 257              		.loc 2 58 5 is_stmt 0 view .LVU54
 258              	.LBE77:
 259              	.LBE78:
 260              	.LBE79:
   8:Knob.cpp      **** 
 261              		.loc 6 8 11 view .LVU55
 262 000c FFF7FEBF 		b	__aeabi_atexit
 263              	.LVL16:
 264              	.L10:
 265              		.align	2
 266              	.L9:
 267 0010 00000000 		.word	.LANCHOR0
 268 0014 00000000 		.word	__dso_handle
 269 0018 00000000 		.word	_ZN5daisy9DaisySeedD1Ev
 270              	.LBE63:
 271              	.LBE62:
 272              		.cfi_endproc
 273              	.LFE2058:
 275              		.section	.init_array,"aw",%init_array
 276              		.align	2
 277 0000 00000000 		.word	_GLOBAL__sub_I_hardware(target1)
 278              		.global	hardware
 279              		.section	.bss.hardware,"aw",%nobits
 280              		.align	2
 281              		.set	.LANCHOR0,. + 0
 284              	hardware:
 285 0000 00000000 		.space	60
 285      00000000 
 285      00000000 
 285      00000000 
 285      00000000 
 286              		.text
 287              	.Letext0:
 288              		.file 9 "/usr/lib/gcc/arm-none-eabi/9.2.1/include/stdint.h"
 289              		.file 10 "../../libdaisy/Drivers/CMSIS/Include/core_cm7.h"
 290              		.file 11 "../../libdaisy/Drivers/CMSIS/Device/ST/STM32H7xx/Include/system_stm32h7xx.h"
 291              		.file 12 "/usr/lib/gcc/arm-none-eabi/9.2.1/include/stddef.h"
 292              		.file 13 "/usr/include/newlib/c++/9.2.1/cmath"
 293              		.file 14 "/usr/include/newlib/c++/9.2.1/bits/std_abs.h"
 294              		.file 15 "/usr/include/newlib/c++/9.2.1/cstdlib"
 295              		.file 16 "/usr/include/newlib/c++/9.2.1/cstdint"
 296              		.file 17 "/usr/include/newlib/c++/9.2.1/type_traits"
 297              		.file 18 "/usr/include/newlib/c++/9.2.1/bits/stl_pair.h"
 298              		.file 19 "/usr/include/newlib/c++/9.2.1/debug/debug.h"
 299              		.file 20 "/usr/include/newlib/c++/9.2.1/arm-none-eabi/thumb/v7e-m+dp/hard/bits/c++config.h"
 300              		.file 21 "/usr/include/newlib/c++/9.2.1/bits/algorithmfwd.h"
 301              		.file 22 "/usr/include/newlib/c++/9.2.1/bits/exception_ptr.h"
 302              		.file 23 "/usr/include/newlib/c++/9.2.1/new"
 303              		.file 24 "/usr/include/newlib/c++/9.2.1/cstdarg"
 304              		.file 25 "/usr/include/newlib/c++/9.2.1/cstdio"
 305              		.file 26 "/usr/include/newlib/c++/9.2.1/bits/predefined_ops.h"
 306              		.file 27 "/usr/include/newlib/c++/9.2.1/ext/numeric_traits.h"
ARM GAS  /tmp/ccFLBw9P.s 			page 14


 307              		.file 28 "/usr/include/newlib/sys/_types.h"
 308              		.file 29 "<built-in>"
 309              		.file 30 "/usr/include/newlib/sys/reent.h"
 310              		.file 31 "/usr/include/newlib/sys/lock.h"
 311              		.file 32 "/usr/include/newlib/math.h"
 312              		.file 33 "/usr/include/newlib/stdlib.h"
 313              		.file 34 "/usr/include/newlib/c++/9.2.1/math.h"
 314              		.file 35 "../../libdaisy/Drivers/STM32H7xx_HAL_Driver/Inc/stm32h7xx_hal_def.h"
 315              		.file 36 "../../libdaisy/Drivers/STM32H7xx_HAL_Driver/Inc/stm32h7xx_hal_flash.h"
 316              		.file 37 "/usr/include/newlib/c++/9.2.1/stdlib.h"
 317              		.file 38 "../../libdaisy/src/daisy_core.h"
 318              		.file 39 "../../libdaisy/src/per/tim.h"
 319              		.file 40 "../../libdaisy/src/per/sai.h"
 320              		.file 41 "../../libdaisy/src/util/wav_format.h"
 321              		.file 42 "../../libdaisy/src/per/qspi.h"
 322              		.file 43 "../../libdaisy/src/per/gpio.h"
 323              		.file 44 "../../libdaisy/src/dev/sdram.h"
 324              		.file 45 "/usr/lib/gcc/arm-none-eabi/9.2.1/include/stdarg.h"
 325              		.file 46 "/usr/include/newlib/stdio.h"
 326              		.file 47 "/usr/include/newlib/sys/unistd.h"
 327              		.file 48 "../../libdaisy/src/util/oled_fonts.h"
 328              		.file 49 "../../libdaisy/Middlewares/Third_Party/FatFs/src/integer.h"
 329              		.file 50 "../../libdaisy/Middlewares/Third_Party/FatFs/src/ff.h"
 330              		.file 51 "../../libdaisy/Middlewares/Third_Party/FatFs/src/diskio.h"
 331              		.file 52 "../../libdaisy/Middlewares/Third_Party/FatFs/src/ff_gen_drv.h"
 332              		.file 53 "../../libdaisy/src/util/sd_diskio.h"
 333              		.file 54 "../../libdaisy/src/sys/fatfs.h"
 334              		.file 55 "../../libdaisy/src/dev/sr_595.h"
ARM GAS  /tmp/ccFLBw9P.s 			page 15

