ARM GAS  /tmp/cc5sXaZv.s 			page 1


   1              		.cpu cortex-m7
   2              		.eabi_attribute 28, 1
   3              		.eabi_attribute 20, 1
   4              		.eabi_attribute 21, 1
   5              		.eabi_attribute 23, 3
   6              		.eabi_attribute 24, 1
   7              		.eabi_attribute 25, 1
   8              		.eabi_attribute 26, 1
   9              		.eabi_attribute 30, 2
  10              		.eabi_attribute 34, 1
  11              		.eabi_attribute 18, 4
  12              		.file	"PluckEcho.cpp"
  13              		.text
  14              	.Ltext0:
  15              		.cfi_sections	.debug_frame
  16              		.section	.text._ZN5daisy10DaisyPatchD2Ev,"axG",%progbits,_ZN5daisy10DaisyPatchD5Ev,comdat
  17              		.align	1
  18              		.p2align 2,,3
  19              		.weak	_ZN5daisy10DaisyPatchD2Ev
  20              		.arch armv7e-m
  21              		.syntax unified
  22              		.thumb
  23              		.thumb_func
  24              		.fpu fpv5-d16
  26              	_ZN5daisy10DaisyPatchD2Ev:
  27              	.LVL0:
  28              	.LFB2060:
  29              		.file 1 "../../libdaisy/src/daisy_patch.h"
   1:../../libdaisy/src/daisy_patch.h **** #pragma once
   2:../../libdaisy/src/daisy_patch.h **** #ifndef DSY_PATCH_BSP_H
   3:../../libdaisy/src/daisy_patch.h **** #define DSY_PATCH_BSP_H
   4:../../libdaisy/src/daisy_patch.h **** #include "daisy_seed.h"
   5:../../libdaisy/src/daisy_patch.h **** #include "dev/oled_ssd130x.h"
   6:../../libdaisy/src/daisy_patch.h **** 
   7:../../libdaisy/src/daisy_patch.h **** namespace daisy
   8:../../libdaisy/src/daisy_patch.h **** {
   9:../../libdaisy/src/daisy_patch.h **** /**
  10:../../libdaisy/src/daisy_patch.h ****     @brief Class that handles initializing all of the hardware specific to the Daisy Patch Board. \
  11:../../libdaisy/src/daisy_patch.h ****     Helper funtions are also in place to provide easy access to built-in controls and peripherals.
  12:../../libdaisy/src/daisy_patch.h ****     @author Stephen Hensley
  13:../../libdaisy/src/daisy_patch.h ****     @date November 2019
  14:../../libdaisy/src/daisy_patch.h ****     @ingroup boards
  15:../../libdaisy/src/daisy_patch.h **** */
  16:../../libdaisy/src/daisy_patch.h **** class DaisyPatch
  17:../../libdaisy/src/daisy_patch.h **** {
  18:../../libdaisy/src/daisy_patch.h ****   public:
  19:../../libdaisy/src/daisy_patch.h ****     /** Enum of Ctrls to represent the four CV/Knob combos on the Patch
  20:../../libdaisy/src/daisy_patch.h ****      */
  21:../../libdaisy/src/daisy_patch.h ****     enum Ctrl
  22:../../libdaisy/src/daisy_patch.h ****     {
  23:../../libdaisy/src/daisy_patch.h ****         CTRL_1,    /**< */
  24:../../libdaisy/src/daisy_patch.h ****         CTRL_2,    /**< */
  25:../../libdaisy/src/daisy_patch.h ****         CTRL_3,    /**< */
  26:../../libdaisy/src/daisy_patch.h ****         CTRL_4,    /**< */
  27:../../libdaisy/src/daisy_patch.h ****         CTRL_LAST, /**< */
  28:../../libdaisy/src/daisy_patch.h ****     };
  29:../../libdaisy/src/daisy_patch.h **** 
ARM GAS  /tmp/cc5sXaZv.s 			page 2


  30:../../libdaisy/src/daisy_patch.h ****     /** Daisy patch gate inputs */
  31:../../libdaisy/src/daisy_patch.h ****     enum GateInput
  32:../../libdaisy/src/daisy_patch.h ****     {
  33:../../libdaisy/src/daisy_patch.h ****         GATE_IN_1,    /**< */
  34:../../libdaisy/src/daisy_patch.h ****         GATE_IN_2,    /** <*/
  35:../../libdaisy/src/daisy_patch.h ****         GATE_IN_LAST, /**< */
  36:../../libdaisy/src/daisy_patch.h ****     };
  37:../../libdaisy/src/daisy_patch.h **** 
  38:../../libdaisy/src/daisy_patch.h ****     /** Constructor */
  39:../../libdaisy/src/daisy_patch.h ****     DaisyPatch() {}
  40:../../libdaisy/src/daisy_patch.h ****     /** Destructor */
  41:../../libdaisy/src/daisy_patch.h ****     ~DaisyPatch() {}
  30              		.loc 1 41 5 view -0
  31              		.cfi_startproc
  32              		@ args = 0, pretend = 0, frame = 0
  33              		@ frame_needed = 0, uses_anonymous_args = 0
  34              		@ link register save eliminated.
  35              	.LBB644:
  36              	.LBI644:
  37              		.file 2 "../../libdaisy/src/hid/disp/oled_display.h"
   1:../../libdaisy/src/hid/disp/oled_display.h **** #pragma once
   2:../../libdaisy/src/hid/disp/oled_display.h **** #ifndef DSY_OLED_DISPLAY_H
   3:../../libdaisy/src/hid/disp/oled_display.h **** #define DSY_OLED_DISPLAY_H /**< Macro */
   4:../../libdaisy/src/hid/disp/oled_display.h **** 
   5:../../libdaisy/src/hid/disp/oled_display.h **** #include "display.h"
   6:../../libdaisy/src/hid/disp/oled_display.h **** 
   7:../../libdaisy/src/hid/disp/oled_display.h **** namespace daisy
   8:../../libdaisy/src/hid/disp/oled_display.h **** {
   9:../../libdaisy/src/hid/disp/oled_display.h **** /** 
  10:../../libdaisy/src/hid/disp/oled_display.h ****  * This class is for drawing to a monochrome OLED display. 
  11:../../libdaisy/src/hid/disp/oled_display.h **** */
  12:../../libdaisy/src/hid/disp/oled_display.h **** template <typename DisplayDriver>
  13:../../libdaisy/src/hid/disp/oled_display.h **** class OledDisplay : public OneBitGraphicsDisplayImpl<OledDisplay<DisplayDriver>>
  14:../../libdaisy/src/hid/disp/oled_display.h **** {
  15:../../libdaisy/src/hid/disp/oled_display.h ****   public:
  16:../../libdaisy/src/hid/disp/oled_display.h ****     OledDisplay() {}
  17:../../libdaisy/src/hid/disp/oled_display.h ****     virtual ~OledDisplay() {}
  38              		.loc 2 17 13 view .LVU1
  39              	.LBB645:
  40              	.LBI645:
  41              		.file 3 "../../libdaisy/src/hid/disp/display.h"
   1:../../libdaisy/src/hid/disp/display.h **** #pragma once
   2:../../libdaisy/src/hid/disp/display.h **** #ifndef DSY_DISPLAY_H
   3:../../libdaisy/src/hid/disp/display.h **** #define DSY_DISPLAY_H /**< Macro */
   4:../../libdaisy/src/hid/disp/display.h **** #include <cmath>
   5:../../libdaisy/src/hid/disp/display.h **** #include "util/oled_fonts.h"
   6:../../libdaisy/src/hid/disp/display.h **** #include "daisy_core.h"
   7:../../libdaisy/src/hid/disp/display.h **** #include "graphics_common.h"
   8:../../libdaisy/src/hid/disp/display.h **** 
   9:../../libdaisy/src/hid/disp/display.h **** #ifndef deg2rad
  10:../../libdaisy/src/hid/disp/display.h **** #define deg2rad(deg) ((deg)*3.141592 / 180.0)
  11:../../libdaisy/src/hid/disp/display.h **** #endif
  12:../../libdaisy/src/hid/disp/display.h **** 
  13:../../libdaisy/src/hid/disp/display.h **** namespace daisy
  14:../../libdaisy/src/hid/disp/display.h **** {
  15:../../libdaisy/src/hid/disp/display.h **** /** 
  16:../../libdaisy/src/hid/disp/display.h ****  * This interface is used as a base class for all types of 1bit-per-pixel
ARM GAS  /tmp/cc5sXaZv.s 			page 3


  17:../../libdaisy/src/hid/disp/display.h ****  * graphics displays.
  18:../../libdaisy/src/hid/disp/display.h **** */
  19:../../libdaisy/src/hid/disp/display.h **** class OneBitGraphicsDisplay
  20:../../libdaisy/src/hid/disp/display.h **** {
  21:../../libdaisy/src/hid/disp/display.h ****   public:
  22:../../libdaisy/src/hid/disp/display.h ****     OneBitGraphicsDisplay() {}
  23:../../libdaisy/src/hid/disp/display.h ****     virtual ~OneBitGraphicsDisplay() {}
  24:../../libdaisy/src/hid/disp/display.h **** 
  25:../../libdaisy/src/hid/disp/display.h ****     virtual uint16_t Height() const = 0;
  26:../../libdaisy/src/hid/disp/display.h ****     virtual uint16_t Width() const  = 0;
  27:../../libdaisy/src/hid/disp/display.h **** 
  28:../../libdaisy/src/hid/disp/display.h ****     Rectangle GetBounds() const
  29:../../libdaisy/src/hid/disp/display.h ****     {
  30:../../libdaisy/src/hid/disp/display.h ****         return Rectangle(int16_t(Width()), int16_t(Height()));
  31:../../libdaisy/src/hid/disp/display.h ****     }
  32:../../libdaisy/src/hid/disp/display.h **** 
  33:../../libdaisy/src/hid/disp/display.h **** 
  34:../../libdaisy/src/hid/disp/display.h ****     size_t CurrentX() { return currentX_; };
  35:../../libdaisy/src/hid/disp/display.h ****     size_t CurrentY() { return currentY_; };
  36:../../libdaisy/src/hid/disp/display.h **** 
  37:../../libdaisy/src/hid/disp/display.h ****     /** 
  38:../../libdaisy/src/hid/disp/display.h ****     Fills the entire display with either on/off.
  39:../../libdaisy/src/hid/disp/display.h ****     \param on Sets on or off.
  40:../../libdaisy/src/hid/disp/display.h ****     */
  41:../../libdaisy/src/hid/disp/display.h ****     virtual void Fill(bool on) = 0;
  42:../../libdaisy/src/hid/disp/display.h **** 
  43:../../libdaisy/src/hid/disp/display.h ****     /**
  44:../../libdaisy/src/hid/disp/display.h ****     Sets the pixel at the specified coordinate to be on/off.
  45:../../libdaisy/src/hid/disp/display.h ****     \param x   x Coordinate
  46:../../libdaisy/src/hid/disp/display.h ****     \param y   y coordinate
  47:../../libdaisy/src/hid/disp/display.h ****     \param on  on or off
  48:../../libdaisy/src/hid/disp/display.h ****     */
  49:../../libdaisy/src/hid/disp/display.h ****     virtual void DrawPixel(uint_fast8_t x, uint_fast8_t y, bool on) = 0;
  50:../../libdaisy/src/hid/disp/display.h **** 
  51:../../libdaisy/src/hid/disp/display.h ****     /**
  52:../../libdaisy/src/hid/disp/display.h ****     Draws a line from (x1, y1) to (y1, y2)
  53:../../libdaisy/src/hid/disp/display.h ****     \param x1  x Coordinate of the starting point
  54:../../libdaisy/src/hid/disp/display.h ****     \param y1  y Coordinate of the starting point
  55:../../libdaisy/src/hid/disp/display.h ****     \param x2  x Coordinate of the ending point
  56:../../libdaisy/src/hid/disp/display.h ****     \param y2  y Coordinate of the ending point
  57:../../libdaisy/src/hid/disp/display.h ****     \param on  on or off
  58:../../libdaisy/src/hid/disp/display.h ****     */
  59:../../libdaisy/src/hid/disp/display.h ****     virtual void DrawLine(uint_fast8_t x1,
  60:../../libdaisy/src/hid/disp/display.h ****                           uint_fast8_t y1,
  61:../../libdaisy/src/hid/disp/display.h ****                           uint_fast8_t x2,
  62:../../libdaisy/src/hid/disp/display.h ****                           uint_fast8_t y2,
  63:../../libdaisy/src/hid/disp/display.h ****                           bool         on)
  64:../../libdaisy/src/hid/disp/display.h ****         = 0;
  65:../../libdaisy/src/hid/disp/display.h **** 
  66:../../libdaisy/src/hid/disp/display.h ****     /**
  67:../../libdaisy/src/hid/disp/display.h ****     Draws a rectangle based on two coordinates.
  68:../../libdaisy/src/hid/disp/display.h ****     \param x1 x Coordinate of the first point
  69:../../libdaisy/src/hid/disp/display.h ****     \param y1 y Coordinate of the first point
  70:../../libdaisy/src/hid/disp/display.h ****     \param x2 x Coordinate of the second point
  71:../../libdaisy/src/hid/disp/display.h ****     \param y2 y Coordinate of the second point
  72:../../libdaisy/src/hid/disp/display.h ****     \param on on or off
  73:../../libdaisy/src/hid/disp/display.h ****     \param fill fill the rectangle or draw only the outline
ARM GAS  /tmp/cc5sXaZv.s 			page 4


  74:../../libdaisy/src/hid/disp/display.h ****     */
  75:../../libdaisy/src/hid/disp/display.h ****     virtual void DrawRect(uint_fast8_t x1,
  76:../../libdaisy/src/hid/disp/display.h ****                           uint_fast8_t y1,
  77:../../libdaisy/src/hid/disp/display.h ****                           uint_fast8_t x2,
  78:../../libdaisy/src/hid/disp/display.h ****                           uint_fast8_t y2,
  79:../../libdaisy/src/hid/disp/display.h ****                           bool         on,
  80:../../libdaisy/src/hid/disp/display.h ****                           bool         fill = false)
  81:../../libdaisy/src/hid/disp/display.h ****         = 0;
  82:../../libdaisy/src/hid/disp/display.h **** 
  83:../../libdaisy/src/hid/disp/display.h ****     /**
  84:../../libdaisy/src/hid/disp/display.h ****     Draws a rectangle.
  85:../../libdaisy/src/hid/disp/display.h ****     \param rect the rectangle
  86:../../libdaisy/src/hid/disp/display.h ****     \param on   on or off
  87:../../libdaisy/src/hid/disp/display.h ****     \param fill fill the rectangle or draw only the outline
  88:../../libdaisy/src/hid/disp/display.h ****     */
  89:../../libdaisy/src/hid/disp/display.h ****     void DrawRect(const Rectangle& rect, bool on, bool fill = false)
  90:../../libdaisy/src/hid/disp/display.h ****     {
  91:../../libdaisy/src/hid/disp/display.h ****         DrawRect(rect.GetX(),
  92:../../libdaisy/src/hid/disp/display.h ****                  rect.GetY(),
  93:../../libdaisy/src/hid/disp/display.h ****                  rect.GetRight(),
  94:../../libdaisy/src/hid/disp/display.h ****                  rect.GetBottom(),
  95:../../libdaisy/src/hid/disp/display.h ****                  on,
  96:../../libdaisy/src/hid/disp/display.h ****                  fill);
  97:../../libdaisy/src/hid/disp/display.h ****     }
  98:../../libdaisy/src/hid/disp/display.h **** 
  99:../../libdaisy/src/hid/disp/display.h ****     /**
 100:../../libdaisy/src/hid/disp/display.h ****     Draws an arc around the specified coordinate
 101:../../libdaisy/src/hid/disp/display.h ****     \param x           x Coordinate of the center of the arc
 102:../../libdaisy/src/hid/disp/display.h ****     \param y           y Coordinate of the center of the arc
 103:../../libdaisy/src/hid/disp/display.h ****     \param radius      radius of the arc
 104:../../libdaisy/src/hid/disp/display.h ****     \param start_angle angle where to start the arc
 105:../../libdaisy/src/hid/disp/display.h ****     \param sweep       total angle of the arc
 106:../../libdaisy/src/hid/disp/display.h ****     \param on  on or off
 107:../../libdaisy/src/hid/disp/display.h ****     */
 108:../../libdaisy/src/hid/disp/display.h ****     virtual void DrawArc(uint_fast8_t x,
 109:../../libdaisy/src/hid/disp/display.h ****                          uint_fast8_t y,
 110:../../libdaisy/src/hid/disp/display.h ****                          uint_fast8_t radius,
 111:../../libdaisy/src/hid/disp/display.h ****                          int_fast16_t start_angle,
 112:../../libdaisy/src/hid/disp/display.h ****                          int_fast16_t sweep,
 113:../../libdaisy/src/hid/disp/display.h ****                          bool         on)
 114:../../libdaisy/src/hid/disp/display.h ****         = 0;
 115:../../libdaisy/src/hid/disp/display.h **** 
 116:../../libdaisy/src/hid/disp/display.h ****     /**
 117:../../libdaisy/src/hid/disp/display.h ****     Draws a circle around the specified coordinate
 118:../../libdaisy/src/hid/disp/display.h ****     \param x           x Coordinate of the center of the circle
 119:../../libdaisy/src/hid/disp/display.h ****     \param y           y Coordinate of the center of the circle
 120:../../libdaisy/src/hid/disp/display.h ****     \param radius      radius of the circle
 121:../../libdaisy/src/hid/disp/display.h ****     \param on  on or off
 122:../../libdaisy/src/hid/disp/display.h ****     */
 123:../../libdaisy/src/hid/disp/display.h ****     void
 124:../../libdaisy/src/hid/disp/display.h ****     DrawCircle(uint_fast8_t x, uint_fast8_t y, uint_fast8_t radius, bool on)
 125:../../libdaisy/src/hid/disp/display.h ****     {
 126:../../libdaisy/src/hid/disp/display.h ****         DrawArc(x, y, radius, 0, 360, on);
 127:../../libdaisy/src/hid/disp/display.h ****     };
 128:../../libdaisy/src/hid/disp/display.h **** 
 129:../../libdaisy/src/hid/disp/display.h ****     /** 
 130:../../libdaisy/src/hid/disp/display.h ****     Writes the character with the specific FontDef
ARM GAS  /tmp/cc5sXaZv.s 			page 5


 131:../../libdaisy/src/hid/disp/display.h ****     to the display buffer at the current Cursor position.
 132:../../libdaisy/src/hid/disp/display.h ****     \param ch character to be written
 133:../../libdaisy/src/hid/disp/display.h ****     \param font font to be written in
 134:../../libdaisy/src/hid/disp/display.h ****     \param on    on or off
 135:../../libdaisy/src/hid/disp/display.h ****     \return &
 136:../../libdaisy/src/hid/disp/display.h ****     */
 137:../../libdaisy/src/hid/disp/display.h ****     virtual char WriteChar(char ch, FontDef font, bool on) = 0;
 138:../../libdaisy/src/hid/disp/display.h **** 
 139:../../libdaisy/src/hid/disp/display.h ****     /** 
 140:../../libdaisy/src/hid/disp/display.h ****     Similar to WriteChar, except it will handle an entire String.
 141:../../libdaisy/src/hid/disp/display.h ****     Wrapping does not happen automatically, so the width
 142:../../libdaisy/src/hid/disp/display.h ****     of the string must be kept within the dimensions of the screen.
 143:../../libdaisy/src/hid/disp/display.h ****     \param str string to be written
 144:../../libdaisy/src/hid/disp/display.h ****     \param font font to use
 145:../../libdaisy/src/hid/disp/display.h ****     \param on  on or off
 146:../../libdaisy/src/hid/disp/display.h ****     \return &
 147:../../libdaisy/src/hid/disp/display.h ****     */
 148:../../libdaisy/src/hid/disp/display.h ****     virtual char WriteString(const char* str, FontDef font, bool on) = 0;
 149:../../libdaisy/src/hid/disp/display.h **** 
 150:../../libdaisy/src/hid/disp/display.h ****     /** 
 151:../../libdaisy/src/hid/disp/display.h ****     Similar to WriteString but justified within a bounding box.
 152:../../libdaisy/src/hid/disp/display.h ****     \param str          string to be written
 153:../../libdaisy/src/hid/disp/display.h ****     \param font         font to use
 154:../../libdaisy/src/hid/disp/display.h ****     \param boundingBox  the bounding box to draw the text in
 155:../../libdaisy/src/hid/disp/display.h ****     \param alignment    the alignment to use
 156:../../libdaisy/src/hid/disp/display.h ****     \param on           on or off
 157:../../libdaisy/src/hid/disp/display.h ****     \return The rectangle that was drawn to
 158:../../libdaisy/src/hid/disp/display.h ****     */
 159:../../libdaisy/src/hid/disp/display.h ****     virtual Rectangle WriteStringAligned(const char*    str,
 160:../../libdaisy/src/hid/disp/display.h ****                                          const FontDef& font,
 161:../../libdaisy/src/hid/disp/display.h ****                                          Rectangle      boundingBox,
 162:../../libdaisy/src/hid/disp/display.h ****                                          Alignment      alignment,
 163:../../libdaisy/src/hid/disp/display.h ****                                          bool           on)
 164:../../libdaisy/src/hid/disp/display.h ****         = 0;
 165:../../libdaisy/src/hid/disp/display.h **** 
 166:../../libdaisy/src/hid/disp/display.h ****     /** 
 167:../../libdaisy/src/hid/disp/display.h ****     Moves the 'Cursor' position used for WriteChar, and WriteStr to the specified coordinate.
 168:../../libdaisy/src/hid/disp/display.h ****     \param x x pos
 169:../../libdaisy/src/hid/disp/display.h ****     \param y y pos
 170:../../libdaisy/src/hid/disp/display.h ****     */
 171:../../libdaisy/src/hid/disp/display.h ****     void SetCursor(uint16_t x, uint16_t y)
 172:../../libdaisy/src/hid/disp/display.h ****     {
 173:../../libdaisy/src/hid/disp/display.h ****         currentX_ = (x >= Width()) ? Width() - 1 : x;
 174:../../libdaisy/src/hid/disp/display.h ****         currentY_ = (y >= Height()) ? Height() - 1 : y;
 175:../../libdaisy/src/hid/disp/display.h ****     }
 176:../../libdaisy/src/hid/disp/display.h **** 
 177:../../libdaisy/src/hid/disp/display.h ****     /** 
 178:../../libdaisy/src/hid/disp/display.h ****     Writes the current display buffer to the OLED device using SPI or I2C depending on 
 179:../../libdaisy/src/hid/disp/display.h ****     how the object was initialized.
 180:../../libdaisy/src/hid/disp/display.h ****     */
 181:../../libdaisy/src/hid/disp/display.h ****     virtual void Update() = 0;
 182:../../libdaisy/src/hid/disp/display.h **** 
 183:../../libdaisy/src/hid/disp/display.h ****   protected:
 184:../../libdaisy/src/hid/disp/display.h ****     uint16_t currentX_;
 185:../../libdaisy/src/hid/disp/display.h ****     uint16_t currentY_;
 186:../../libdaisy/src/hid/disp/display.h **** };
 187:../../libdaisy/src/hid/disp/display.h **** 
ARM GAS  /tmp/cc5sXaZv.s 			page 6


 188:../../libdaisy/src/hid/disp/display.h **** /** This class is intended as a intermediary class for your actual implementation of the OneBitGrap
 189:../../libdaisy/src/hid/disp/display.h ****  *  interface. It uses the CRTP design pattern where the template argument is the child class. It p
 190:../../libdaisy/src/hid/disp/display.h ****  *  implementations for most of the functions, except DrawPixel(), Update() and Fill(), which you'l
 191:../../libdaisy/src/hid/disp/display.h ****  *  to provide in your child class.
 192:../../libdaisy/src/hid/disp/display.h ****  *  The main goal of this class is to provide common drawing functions without relying on massive a
 193:../../libdaisy/src/hid/disp/display.h ****  *  virtual function calls that would result in a performance loss. To achieve this, any drawing fu
 194:../../libdaisy/src/hid/disp/display.h ****  *  is implemented here and internally calls other drawing functions (e.g. DrawRect() which interna
 195:../../libdaisy/src/hid/disp/display.h ****  *  DrawPixel() and DrawLine()) makes these calls via the qualified name of these functions to expl
 196:../../libdaisy/src/hid/disp/display.h ****  *  suppress the virtual dispatch mechanism like this:
 197:../../libdaisy/src/hid/disp/display.h ****  * 
 198:../../libdaisy/src/hid/disp/display.h ****  *      ChildType::DrawPixel(...); // no virtual function call; direct call into the child class fu
 199:../../libdaisy/src/hid/disp/display.h ****  *  
 200:../../libdaisy/src/hid/disp/display.h ****  *  To create a custom OneBitGraphicsDisplay implementation, you can 
 201:../../libdaisy/src/hid/disp/display.h ****  *  A) inherit from OneBitGraphicsDisplay directly and provide all the drawing functions yourself
 202:../../libdaisy/src/hid/disp/display.h ****  *  B) Inherit from OneBitGraphicsDisplayImpl and only provide DrawPixel(), Fill() and Update()
 203:../../libdaisy/src/hid/disp/display.h ****  *     like this:
 204:../../libdaisy/src/hid/disp/display.h ****  *  
 205:../../libdaisy/src/hid/disp/display.h ****  *      class MyDisplayClass : public OneBitGraphicsDisplayImpl<MyDisplayClass> 
 206:../../libdaisy/src/hid/disp/display.h ****  *      {
 207:../../libdaisy/src/hid/disp/display.h ****  *      public:
 208:../../libdaisy/src/hid/disp/display.h ****  *          void Fill() override { ... };
 209:../../libdaisy/src/hid/disp/display.h ****  *          void DrawPixel(uint_fast8_t x, uint_fast8_t y, bool on) override { ... };
 210:../../libdaisy/src/hid/disp/display.h ****  *          void Update() override { ... }
 211:../../libdaisy/src/hid/disp/display.h ****  *      };
 212:../../libdaisy/src/hid/disp/display.h ****  *  
 213:../../libdaisy/src/hid/disp/display.h ****  */
 214:../../libdaisy/src/hid/disp/display.h **** template <class ChildType>
 215:../../libdaisy/src/hid/disp/display.h **** class OneBitGraphicsDisplayImpl : public OneBitGraphicsDisplay
 216:../../libdaisy/src/hid/disp/display.h **** {
 217:../../libdaisy/src/hid/disp/display.h ****   public:
 218:../../libdaisy/src/hid/disp/display.h ****     OneBitGraphicsDisplayImpl() {}
 219:../../libdaisy/src/hid/disp/display.h ****     virtual ~OneBitGraphicsDisplayImpl() {}
  42              		.loc 3 219 13 view .LVU2
  43              	.LBB646:
  44              	.LBI646:
  23:../../libdaisy/src/hid/disp/display.h **** 
  45              		.loc 3 23 13 view .LVU3
  23:../../libdaisy/src/hid/disp/display.h **** 
  46              		.loc 3 23 13 is_stmt 0 view .LVU4
  47              	.LBE646:
  48              	.LBE645:
  49              	.LBE644:
  50              	.LBB647:
  51              	.LBI647:
  52              		.file 4 "../../libdaisy/src/hid/midi.h"
   1:../../libdaisy/src/hid/midi.h **** #pragma once
   2:../../libdaisy/src/hid/midi.h **** #ifndef DSY_MIDI_H
   3:../../libdaisy/src/hid/midi.h **** #define DSY_MIDI_H
   4:../../libdaisy/src/hid/midi.h **** 
   5:../../libdaisy/src/hid/midi.h **** // TODO: make this adjustable
   6:../../libdaisy/src/hid/midi.h **** #define SYSEX_BUFFER_LEN 128
   7:../../libdaisy/src/hid/midi.h **** 
   8:../../libdaisy/src/hid/midi.h **** #include <stdint.h>
   9:../../libdaisy/src/hid/midi.h **** #include <stdlib.h>
  10:../../libdaisy/src/hid/midi.h **** #include "per/uart.h"
  11:../../libdaisy/src/hid/midi.h **** #include "util/ringbuffer.h"
  12:../../libdaisy/src/hid/midi.h **** #include "hid/MidiEvent.h"
ARM GAS  /tmp/cc5sXaZv.s 			page 7


  13:../../libdaisy/src/hid/midi.h **** #include "sys/system.h"
  14:../../libdaisy/src/hid/midi.h **** 
  15:../../libdaisy/src/hid/midi.h **** namespace daisy
  16:../../libdaisy/src/hid/midi.h **** {
  17:../../libdaisy/src/hid/midi.h **** /** @addtogroup external 
  18:../../libdaisy/src/hid/midi.h ****     @{ 
  19:../../libdaisy/src/hid/midi.h **** */
  20:../../libdaisy/src/hid/midi.h **** 
  21:../../libdaisy/src/hid/midi.h **** class MidiUartTransport
  22:../../libdaisy/src/hid/midi.h **** {
  23:../../libdaisy/src/hid/midi.h ****   public:
  24:../../libdaisy/src/hid/midi.h ****     MidiUartTransport() {}
  25:../../libdaisy/src/hid/midi.h ****     ~MidiUartTransport() {}
  26:../../libdaisy/src/hid/midi.h **** 
  27:../../libdaisy/src/hid/midi.h ****     struct Config
  28:../../libdaisy/src/hid/midi.h ****     {
  29:../../libdaisy/src/hid/midi.h ****         UartHandler::Config::Peripheral periph;
  30:../../libdaisy/src/hid/midi.h ****         dsy_gpio_pin                    rx;
  31:../../libdaisy/src/hid/midi.h ****         dsy_gpio_pin                    tx;
  32:../../libdaisy/src/hid/midi.h **** 
  33:../../libdaisy/src/hid/midi.h ****         Config()
  34:../../libdaisy/src/hid/midi.h ****         {
  35:../../libdaisy/src/hid/midi.h ****             periph = UartHandler::Config::Peripheral::USART_1;
  36:../../libdaisy/src/hid/midi.h ****             rx     = {DSY_GPIOB, 7};
  37:../../libdaisy/src/hid/midi.h ****             tx     = {DSY_GPIOB, 6};
  38:../../libdaisy/src/hid/midi.h ****         }
  39:../../libdaisy/src/hid/midi.h ****     };
  40:../../libdaisy/src/hid/midi.h **** 
  41:../../libdaisy/src/hid/midi.h ****     inline void Init(Config config)
  42:../../libdaisy/src/hid/midi.h ****     {
  43:../../libdaisy/src/hid/midi.h ****         UartHandler::Config uart_config;
  44:../../libdaisy/src/hid/midi.h **** 
  45:../../libdaisy/src/hid/midi.h ****         //defaults
  46:../../libdaisy/src/hid/midi.h ****         uart_config.baudrate   = 31250;
  47:../../libdaisy/src/hid/midi.h ****         uart_config.stopbits   = UartHandler::Config::StopBits::BITS_1;
  48:../../libdaisy/src/hid/midi.h ****         uart_config.parity     = UartHandler::Config::Parity::NONE;
  49:../../libdaisy/src/hid/midi.h ****         uart_config.mode       = UartHandler::Config::Mode::TX_RX;
  50:../../libdaisy/src/hid/midi.h ****         uart_config.wordlength = UartHandler::Config::WordLength::BITS_8;
  51:../../libdaisy/src/hid/midi.h **** 
  52:../../libdaisy/src/hid/midi.h ****         //user settings
  53:../../libdaisy/src/hid/midi.h ****         uart_config.periph        = config.periph;
  54:../../libdaisy/src/hid/midi.h ****         uart_config.pin_config.rx = config.rx;
  55:../../libdaisy/src/hid/midi.h ****         uart_config.pin_config.tx = config.tx;
  56:../../libdaisy/src/hid/midi.h **** 
  57:../../libdaisy/src/hid/midi.h ****         uart_.Init(uart_config);
  58:../../libdaisy/src/hid/midi.h ****     }
  59:../../libdaisy/src/hid/midi.h **** 
  60:../../libdaisy/src/hid/midi.h ****     inline void    StartRx() { uart_.StartRx(); }
  61:../../libdaisy/src/hid/midi.h ****     inline size_t  Readable() { return uart_.Readable(); }
  62:../../libdaisy/src/hid/midi.h ****     inline uint8_t Rx() { return uart_.PopRx(); }
  63:../../libdaisy/src/hid/midi.h ****     inline bool    RxActive() { return uart_.RxActive(); }
  64:../../libdaisy/src/hid/midi.h ****     inline void    FlushRx() { uart_.FlushRx(); }
  65:../../libdaisy/src/hid/midi.h ****     inline void    Tx(uint8_t* buff, size_t size) { uart_.PollTx(buff, size); }
  66:../../libdaisy/src/hid/midi.h **** 
  67:../../libdaisy/src/hid/midi.h ****   private:
  68:../../libdaisy/src/hid/midi.h ****     UartHandler uart_;
  69:../../libdaisy/src/hid/midi.h **** };
ARM GAS  /tmp/cc5sXaZv.s 			page 8


  70:../../libdaisy/src/hid/midi.h **** 
  71:../../libdaisy/src/hid/midi.h **** /** 
  72:../../libdaisy/src/hid/midi.h ****     @brief Simple MIDI Handler \n 
  73:../../libdaisy/src/hid/midi.h ****     Parses bytes from an input into valid MidiEvents. \n 
  74:../../libdaisy/src/hid/midi.h ****     The MidiEvents fill a FIFO queue that the user can pop messages from.
  75:../../libdaisy/src/hid/midi.h ****     @author shensley
  76:../../libdaisy/src/hid/midi.h ****     @date March 2020
  77:../../libdaisy/src/hid/midi.h **** */
  78:../../libdaisy/src/hid/midi.h **** template <typename Transport>
  79:../../libdaisy/src/hid/midi.h **** class MidiHandler
  80:../../libdaisy/src/hid/midi.h **** {
  81:../../libdaisy/src/hid/midi.h ****   public:
  82:../../libdaisy/src/hid/midi.h ****     MidiHandler() {}
  83:../../libdaisy/src/hid/midi.h ****     ~MidiHandler() {}
  53              		.loc 4 83 5 is_stmt 1 view .LVU5
  54              	.LBB648:
  55              	.LBI648:
  25:../../libdaisy/src/hid/midi.h **** 
  56              		.loc 4 25 5 view .LVU6
  25:../../libdaisy/src/hid/midi.h **** 
  57              		.loc 4 25 5 is_stmt 0 view .LVU7
  58              	.LBE648:
  59              	.LBE647:
  60              	.LBB649:
  61              	.LBI649:
  62              		.file 5 "../../libdaisy/src/hid/encoder.h"
   1:../../libdaisy/src/hid/encoder.h **** #pragma once
   2:../../libdaisy/src/hid/encoder.h **** #ifndef DSY_ENCODER_H
   3:../../libdaisy/src/hid/encoder.h **** #define DSY_ENCODER_H
   4:../../libdaisy/src/hid/encoder.h **** #include "daisy_core.h"
   5:../../libdaisy/src/hid/encoder.h **** #include "per/gpio.h"
   6:../../libdaisy/src/hid/encoder.h **** #include "hid/switch.h"
   7:../../libdaisy/src/hid/encoder.h **** 
   8:../../libdaisy/src/hid/encoder.h **** namespace daisy
   9:../../libdaisy/src/hid/encoder.h **** {
  10:../../libdaisy/src/hid/encoder.h **** /** 
  11:../../libdaisy/src/hid/encoder.h ****     @brief Generic Class for handling Quadrature Encoders \n 
  12:../../libdaisy/src/hid/encoder.h ****     Inspired/influenced by Mutable Instruments (pichenettes) Encoder classes
  13:../../libdaisy/src/hid/encoder.h ****     @author Stephen Hensley
  14:../../libdaisy/src/hid/encoder.h ****     @date December 2019
  15:../../libdaisy/src/hid/encoder.h ****     @ingroup controls
  16:../../libdaisy/src/hid/encoder.h **** */
  17:../../libdaisy/src/hid/encoder.h **** class Encoder
  18:../../libdaisy/src/hid/encoder.h **** {
  19:../../libdaisy/src/hid/encoder.h ****   public:
  20:../../libdaisy/src/hid/encoder.h ****     Encoder() {}
  21:../../libdaisy/src/hid/encoder.h ****     ~Encoder() {}
  63              		.loc 5 21 5 is_stmt 1 view .LVU8
  64              	.LBB650:
  65              	.LBI650:
  66              		.file 6 "../../libdaisy/src/hid/switch.h"
   1:../../libdaisy/src/hid/switch.h **** #pragma once
   2:../../libdaisy/src/hid/switch.h **** #ifndef DSY_SWITCH_H
   3:../../libdaisy/src/hid/switch.h **** #define DSY_SWITCH_H
   4:../../libdaisy/src/hid/switch.h **** #include "daisy_core.h"
   5:../../libdaisy/src/hid/switch.h **** #include "per/gpio.h"
   6:../../libdaisy/src/hid/switch.h **** 
ARM GAS  /tmp/cc5sXaZv.s 			page 9


   7:../../libdaisy/src/hid/switch.h **** namespace daisy
   8:../../libdaisy/src/hid/switch.h **** {
   9:../../libdaisy/src/hid/switch.h **** /** 
  10:../../libdaisy/src/hid/switch.h ****     Generic Class for handling momentary/latching switches \n 
  11:../../libdaisy/src/hid/switch.h ****     Inspired/influenced by Mutable Instruments (pichenettes) Switch classes
  12:../../libdaisy/src/hid/switch.h ****     @author Stephen Hensley
  13:../../libdaisy/src/hid/switch.h ****     @date December 2019
  14:../../libdaisy/src/hid/switch.h ****     @ingroup controls
  15:../../libdaisy/src/hid/switch.h **** */
  16:../../libdaisy/src/hid/switch.h **** class Switch
  17:../../libdaisy/src/hid/switch.h **** {
  18:../../libdaisy/src/hid/switch.h ****   public:
  19:../../libdaisy/src/hid/switch.h ****     /** Specifies the expected behavior of the switch */
  20:../../libdaisy/src/hid/switch.h ****     enum Type
  21:../../libdaisy/src/hid/switch.h ****     {
  22:../../libdaisy/src/hid/switch.h ****         TYPE_TOGGLE,    /**< & */
  23:../../libdaisy/src/hid/switch.h ****         TYPE_MOMENTARY, /**< & */
  24:../../libdaisy/src/hid/switch.h ****     };
  25:../../libdaisy/src/hid/switch.h ****     /** Specifies whether the pressed is HIGH or LOW. */
  26:../../libdaisy/src/hid/switch.h ****     enum Polarity
  27:../../libdaisy/src/hid/switch.h ****     {
  28:../../libdaisy/src/hid/switch.h ****         POLARITY_NORMAL,   /**< & */
  29:../../libdaisy/src/hid/switch.h ****         POLARITY_INVERTED, /**< & */
  30:../../libdaisy/src/hid/switch.h ****     };
  31:../../libdaisy/src/hid/switch.h **** 
  32:../../libdaisy/src/hid/switch.h ****     /** Specifies whether to use built-in Pull Up/Down resistors to hold button at a given state wh
  33:../../libdaisy/src/hid/switch.h ****     enum Pull
  34:../../libdaisy/src/hid/switch.h ****     {
  35:../../libdaisy/src/hid/switch.h ****         PULL_UP,   /**< & */
  36:../../libdaisy/src/hid/switch.h ****         PULL_DOWN, /**< & */
  37:../../libdaisy/src/hid/switch.h ****         PULL_NONE, /**< & */
  38:../../libdaisy/src/hid/switch.h ****     };
  39:../../libdaisy/src/hid/switch.h **** 
  40:../../libdaisy/src/hid/switch.h ****     Switch() {}
  41:../../libdaisy/src/hid/switch.h ****     ~Switch() {}
  67              		.loc 6 41 5 view .LVU9
  68              		.loc 6 41 5 is_stmt 0 view .LVU10
  69              	.LBE650:
  70              	.LBE649:
  71              	.LBB651:
  72              	.LBI651:
  73              		.file 7 "../../libdaisy/src/daisy_seed.h"
   1:../../libdaisy/src/daisy_seed.h **** #pragma once
   2:../../libdaisy/src/daisy_seed.h **** #ifndef DSY_SEED_H
   3:../../libdaisy/src/daisy_seed.h **** #define DSY_SEED_H
   4:../../libdaisy/src/daisy_seed.h **** 
   5:../../libdaisy/src/daisy_seed.h **** #include "daisy.h"
   6:../../libdaisy/src/daisy_seed.h **** 
   7:../../libdaisy/src/daisy_seed.h **** //Uncomment this out if you're still using the rev2 hardware
   8:../../libdaisy/src/daisy_seed.h **** //#define SEED_REV2
   9:../../libdaisy/src/daisy_seed.h **** 
  10:../../libdaisy/src/daisy_seed.h **** namespace daisy
  11:../../libdaisy/src/daisy_seed.h **** {
  12:../../libdaisy/src/daisy_seed.h **** /**
  13:../../libdaisy/src/daisy_seed.h ****    @brief This is the higher-level interface for the Daisy board. \n 
  14:../../libdaisy/src/daisy_seed.h ****     All basic peripheral configuration/initialization is setup here. \n
  15:../../libdaisy/src/daisy_seed.h **** 
ARM GAS  /tmp/cc5sXaZv.s 			page 10


  16:../../libdaisy/src/daisy_seed.h ****    @ingroup boards
  17:../../libdaisy/src/daisy_seed.h **** */
  18:../../libdaisy/src/daisy_seed.h **** class DaisySeed
  19:../../libdaisy/src/daisy_seed.h **** {
  20:../../libdaisy/src/daisy_seed.h ****   public:
  21:../../libdaisy/src/daisy_seed.h ****     DaisySeed() {}
  22:../../libdaisy/src/daisy_seed.h ****     ~DaisySeed() {}
  74              		.loc 7 22 5 is_stmt 1 view .LVU11
  75              	.LBB652:
  76              	.LBI652:
  77              		.file 8 "../../libdaisy/src/sys/system.h"
   1:../../libdaisy/src/sys/system.h **** #ifndef DSY_SYSTEM_H
   2:../../libdaisy/src/sys/system.h **** #define DSY_SYSTEM_H
   3:../../libdaisy/src/sys/system.h **** 
   4:../../libdaisy/src/sys/system.h **** #ifndef UNIT_TEST // for unit tests, a dummy implementation is provided below
   5:../../libdaisy/src/sys/system.h **** 
   6:../../libdaisy/src/sys/system.h **** #include <cstdint>
   7:../../libdaisy/src/sys/system.h **** #include "per/tim.h"
   8:../../libdaisy/src/sys/system.h **** 
   9:../../libdaisy/src/sys/system.h **** namespace daisy
  10:../../libdaisy/src/sys/system.h **** {
  11:../../libdaisy/src/sys/system.h **** /** A handle for interacting with the Core System. 
  12:../../libdaisy/src/sys/system.h ****  ** This includes the Clock tree, MPU, global DMA initialization,
  13:../../libdaisy/src/sys/system.h ****  ** cache handling, and any other necessary global initiailzation
  14:../../libdaisy/src/sys/system.h ****  **
  15:../../libdaisy/src/sys/system.h ****  ** @author shensley
  16:../../libdaisy/src/sys/system.h ****  ** @addtogroup system
  17:../../libdaisy/src/sys/system.h ****  */
  18:../../libdaisy/src/sys/system.h **** class System
  19:../../libdaisy/src/sys/system.h **** {
  20:../../libdaisy/src/sys/system.h ****   public:
  21:../../libdaisy/src/sys/system.h ****     /** Contains settings for initializing the System */
  22:../../libdaisy/src/sys/system.h ****     struct Config
  23:../../libdaisy/src/sys/system.h ****     {
  24:../../libdaisy/src/sys/system.h ****         /** Specifies the system clock frequency that feeds APB/AHB clocks, etc. */
  25:../../libdaisy/src/sys/system.h ****         enum class SysClkFreq
  26:../../libdaisy/src/sys/system.h ****         {
  27:../../libdaisy/src/sys/system.h ****             FREQ_400MHZ,
  28:../../libdaisy/src/sys/system.h ****             FREQ_480MHZ,
  29:../../libdaisy/src/sys/system.h ****         };
  30:../../libdaisy/src/sys/system.h **** 
  31:../../libdaisy/src/sys/system.h ****         /** Method to call on the struct to set to defaults
  32:../../libdaisy/src/sys/system.h ****          ** CPU Freq set to 400MHz
  33:../../libdaisy/src/sys/system.h ****          ** Cache Enabled 
  34:../../libdaisy/src/sys/system.h ****          ** */
  35:../../libdaisy/src/sys/system.h ****         void Defaults()
  36:../../libdaisy/src/sys/system.h ****         {
  37:../../libdaisy/src/sys/system.h ****             cpu_freq   = SysClkFreq::FREQ_400MHZ;
  38:../../libdaisy/src/sys/system.h ****             use_dcache = true;
  39:../../libdaisy/src/sys/system.h ****             use_icache = true;
  40:../../libdaisy/src/sys/system.h ****         }
  41:../../libdaisy/src/sys/system.h **** 
  42:../../libdaisy/src/sys/system.h ****         /** Method to call on the struct to set to boost mode:
  43:../../libdaisy/src/sys/system.h ****          ** CPU Freq set to 480MHz
  44:../../libdaisy/src/sys/system.h ****          ** Cache Enabled 
  45:../../libdaisy/src/sys/system.h ****          ** */
  46:../../libdaisy/src/sys/system.h ****         void Boost()
ARM GAS  /tmp/cc5sXaZv.s 			page 11


  47:../../libdaisy/src/sys/system.h ****         {
  48:../../libdaisy/src/sys/system.h ****             cpu_freq   = SysClkFreq::FREQ_480MHZ;
  49:../../libdaisy/src/sys/system.h ****             use_dcache = true;
  50:../../libdaisy/src/sys/system.h ****             use_icache = true;
  51:../../libdaisy/src/sys/system.h ****         }
  52:../../libdaisy/src/sys/system.h **** 
  53:../../libdaisy/src/sys/system.h ****         SysClkFreq cpu_freq;
  54:../../libdaisy/src/sys/system.h ****         bool       use_dcache;
  55:../../libdaisy/src/sys/system.h ****         bool       use_icache;
  56:../../libdaisy/src/sys/system.h ****     };
  57:../../libdaisy/src/sys/system.h **** 
  58:../../libdaisy/src/sys/system.h ****     System() {}
  59:../../libdaisy/src/sys/system.h ****     ~System() {}
  78              		.loc 8 59 5 view .LVU12
  79              		.loc 8 59 5 is_stmt 0 view .LVU13
  80              	.LBE652:
  81              	.LBB653:
  82              	.LBI653:
  83              		.file 9 "../../libdaisy/src/hid/usb.h"
   1:../../libdaisy/src/hid/usb.h **** #pragma once
   2:../../libdaisy/src/hid/usb.h **** #ifndef DSY_HID_USB_H
   3:../../libdaisy/src/hid/usb.h **** #define DSY_HID_USB_H
   4:../../libdaisy/src/hid/usb.h **** #include <stdint.h>
   5:../../libdaisy/src/hid/usb.h **** #include <stdlib.h>
   6:../../libdaisy/src/hid/usb.h **** 
   7:../../libdaisy/src/hid/usb.h **** namespace daisy
   8:../../libdaisy/src/hid/usb.h **** /** @addtogroup externals
   9:../../libdaisy/src/hid/usb.h ****     @{
  10:../../libdaisy/src/hid/usb.h **** */
  11:../../libdaisy/src/hid/usb.h **** 
  12:../../libdaisy/src/hid/usb.h **** {
  13:../../libdaisy/src/hid/usb.h **** /** 
  14:../../libdaisy/src/hid/usb.h ****     @brief Interface for initializing and using the USB Peripherals on the daisy
  15:../../libdaisy/src/hid/usb.h ****     @author Stephen Hensley
  16:../../libdaisy/src/hid/usb.h ****     @date December 2019
  17:../../libdaisy/src/hid/usb.h **** */
  18:../../libdaisy/src/hid/usb.h **** class UsbHandle
  19:../../libdaisy/src/hid/usb.h **** {
  20:../../libdaisy/src/hid/usb.h ****   public:
  21:../../libdaisy/src/hid/usb.h ****     /** Return values for USBHandle Functions */
  22:../../libdaisy/src/hid/usb.h ****     enum class Result
  23:../../libdaisy/src/hid/usb.h ****     {
  24:../../libdaisy/src/hid/usb.h ****         OK,
  25:../../libdaisy/src/hid/usb.h ****         ERR,
  26:../../libdaisy/src/hid/usb.h ****     };
  27:../../libdaisy/src/hid/usb.h **** 
  28:../../libdaisy/src/hid/usb.h ****     /** Specified which of the two USB Peripherals to initialize. */
  29:../../libdaisy/src/hid/usb.h ****     enum UsbPeriph
  30:../../libdaisy/src/hid/usb.h ****     {
  31:../../libdaisy/src/hid/usb.h ****         FS_INTERNAL, /**< Internal pin */
  32:../../libdaisy/src/hid/usb.h ****         FS_EXTERNAL, /**< FS External D+ pin is Pin 38 (GPIO32). FS External D- pin is Pin 37 (GPIO
  33:../../libdaisy/src/hid/usb.h ****         FS_BOTH,     /**< Both */
  34:../../libdaisy/src/hid/usb.h ****     };
  35:../../libdaisy/src/hid/usb.h **** 
  36:../../libdaisy/src/hid/usb.h **** 
  37:../../libdaisy/src/hid/usb.h ****     /** Function called upon reception of a buffer */
  38:../../libdaisy/src/hid/usb.h ****     typedef void (*ReceiveCallback)(uint8_t* buff, uint32_t* len);
ARM GAS  /tmp/cc5sXaZv.s 			page 12


  39:../../libdaisy/src/hid/usb.h **** 
  40:../../libdaisy/src/hid/usb.h ****     UsbHandle() {}
  41:../../libdaisy/src/hid/usb.h **** 
  42:../../libdaisy/src/hid/usb.h ****     ~UsbHandle() {}
  84              		.loc 9 42 5 is_stmt 1 view .LVU14
  85              		.loc 9 42 5 is_stmt 0 view .LVU15
  86              	.LBE653:
  87              	.LBB654:
  88              	.LBI654:
  89              		.file 10 "../../libdaisy/src/per/adc.h"
   1:../../libdaisy/src/per/adc.h **** #pragma once
   2:../../libdaisy/src/per/adc.h **** #ifndef DSY_ADC_H
   3:../../libdaisy/src/per/adc.h **** #define DSY_ADC_H /**< Macro */
   4:../../libdaisy/src/per/adc.h **** #include <stdint.h>
   5:../../libdaisy/src/per/adc.h **** #include <stdlib.h>
   6:../../libdaisy/src/per/adc.h **** #include "daisy_core.h"
   7:../../libdaisy/src/per/adc.h **** #include "per/gpio.h"
   8:../../libdaisy/src/per/adc.h **** 
   9:../../libdaisy/src/per/adc.h **** #define DSY_ADC_MAX_CHANNELS 14 /**< Maximum number of ADC channels */
  10:../../libdaisy/src/per/adc.h **** 
  11:../../libdaisy/src/per/adc.h **** namespace daisy
  12:../../libdaisy/src/per/adc.h **** {
  13:../../libdaisy/src/per/adc.h **** /** @addtogroup analog_digital_conversion
  14:../../libdaisy/src/per/adc.h ****     @{
  15:../../libdaisy/src/per/adc.h **** */
  16:../../libdaisy/src/per/adc.h **** 
  17:../../libdaisy/src/per/adc.h **** /* While there may not be many configuration options here,
  18:../../libdaisy/src/per/adc.h **** using a struct like this allows us to add more configuration
  19:../../libdaisy/src/per/adc.h **** later without breaking existing functionality.
  20:../../libdaisy/src/per/adc.h **** */
  21:../../libdaisy/src/per/adc.h **** 
  22:../../libdaisy/src/per/adc.h **** /** Configuration Structure for a given channel */
  23:../../libdaisy/src/per/adc.h **** struct AdcChannelConfig
  24:../../libdaisy/src/per/adc.h **** {
  25:../../libdaisy/src/per/adc.h ****     /** Which pin to use for multiplexing */
  26:../../libdaisy/src/per/adc.h ****     enum MuxPin
  27:../../libdaisy/src/per/adc.h ****     {
  28:../../libdaisy/src/per/adc.h ****         MUX_SEL_0,    /**< & */
  29:../../libdaisy/src/per/adc.h ****         MUX_SEL_1,    /**< & */
  30:../../libdaisy/src/per/adc.h ****         MUX_SEL_2,    /**< & */
  31:../../libdaisy/src/per/adc.h ****         MUX_SEL_LAST, /**< & */
  32:../../libdaisy/src/per/adc.h ****     };
  33:../../libdaisy/src/per/adc.h **** 
  34:../../libdaisy/src/per/adc.h ****     /** Initializes a single ADC pin as an ADC. 
  35:../../libdaisy/src/per/adc.h ****     \param pin Pin to init.
  36:../../libdaisy/src/per/adc.h ****      */
  37:../../libdaisy/src/per/adc.h ****     void InitSingle(dsy_gpio_pin pin);
  38:../../libdaisy/src/per/adc.h **** 
  39:../../libdaisy/src/per/adc.h ****     /** 
  40:../../libdaisy/src/per/adc.h ****     Initializes a single ADC pin as a Multiplexed ADC.
  41:../../libdaisy/src/per/adc.h ****     Requires a CD405X Multiplexer connected to the pin.
  42:../../libdaisy/src/per/adc.h ****     You only need to supply the mux pins that are required,
  43:../../libdaisy/src/per/adc.h ****     e.g. a 4052 mux would only require mux_0 and mux_1.
  44:../../libdaisy/src/per/adc.h ****     Internal Callbacks handle the pin addressing.
  45:../../libdaisy/src/per/adc.h ****     \param mux_channels must be 1-8
  46:../../libdaisy/src/per/adc.h ****     \param mux_0 First mux pin
  47:../../libdaisy/src/per/adc.h ****     \param mux_1 Second mux pin
ARM GAS  /tmp/cc5sXaZv.s 			page 13


  48:../../libdaisy/src/per/adc.h ****     \param mux_2 Third mux pin
  49:../../libdaisy/src/per/adc.h ****     \param adc_pin &
  50:../../libdaisy/src/per/adc.h ****     */
  51:../../libdaisy/src/per/adc.h ****     void InitMux(dsy_gpio_pin adc_pin,
  52:../../libdaisy/src/per/adc.h ****                  size_t       mux_channels,
  53:../../libdaisy/src/per/adc.h ****                  dsy_gpio_pin mux_0,
  54:../../libdaisy/src/per/adc.h ****                  dsy_gpio_pin mux_1 = {DSY_GPIOX, 0},
  55:../../libdaisy/src/per/adc.h ****                  dsy_gpio_pin mux_2 = {DSY_GPIOX, 0});
  56:../../libdaisy/src/per/adc.h **** 
  57:../../libdaisy/src/per/adc.h ****     dsy_gpio pin_;                   /**< & */
  58:../../libdaisy/src/per/adc.h ****     dsy_gpio mux_pin_[MUX_SEL_LAST]; /**< & */
  59:../../libdaisy/src/per/adc.h ****     uint8_t  mux_channels_;          /**< & */
  60:../../libdaisy/src/per/adc.h **** };
  61:../../libdaisy/src/per/adc.h **** 
  62:../../libdaisy/src/per/adc.h **** /**
  63:../../libdaisy/src/per/adc.h ****    Handler for analog to digital conversion
  64:../../libdaisy/src/per/adc.h **** */
  65:../../libdaisy/src/per/adc.h **** class AdcHandle
  66:../../libdaisy/src/per/adc.h **** {
  67:../../libdaisy/src/per/adc.h ****   public:
  68:../../libdaisy/src/per/adc.h ****     /** Supported oversampling amounts */
  69:../../libdaisy/src/per/adc.h ****     enum OverSampling
  70:../../libdaisy/src/per/adc.h ****     {
  71:../../libdaisy/src/per/adc.h ****         OVS_NONE, /**< & */
  72:../../libdaisy/src/per/adc.h ****         OVS_4,    /**< & */
  73:../../libdaisy/src/per/adc.h ****         OVS_8,    /**< & */
  74:../../libdaisy/src/per/adc.h ****         OVS_16,   /**< & */
  75:../../libdaisy/src/per/adc.h ****         OVS_32,   /**< & */
  76:../../libdaisy/src/per/adc.h ****         OVS_64,   /**< & */
  77:../../libdaisy/src/per/adc.h ****         OVS_128,  /**< & */
  78:../../libdaisy/src/per/adc.h ****         OVS_256,  /**< & */
  79:../../libdaisy/src/per/adc.h ****         OVS_512,  /**< & */
  80:../../libdaisy/src/per/adc.h ****         OVS_1024, /**< & */
  81:../../libdaisy/src/per/adc.h ****         OVS_LAST, /**< & */
  82:../../libdaisy/src/per/adc.h ****     };
  83:../../libdaisy/src/per/adc.h **** 
  84:../../libdaisy/src/per/adc.h ****     AdcHandle() {}
  85:../../libdaisy/src/per/adc.h ****     ~AdcHandle() {}
  90              		.loc 10 85 5 is_stmt 1 view .LVU16
  91              		.loc 10 85 5 is_stmt 0 view .LVU17
  92              	.LBE654:
  93              	.LBB655:
  94              	.LBI655:
  95              		.file 11 "../../libdaisy/src/hid/audio.h"
   1:../../libdaisy/src/hid/audio.h **** #ifndef DSY_AUDIO_H
   2:../../libdaisy/src/hid/audio.h **** #define DSY_AUDIO_H /**< & */
   3:../../libdaisy/src/hid/audio.h **** 
   4:../../libdaisy/src/hid/audio.h **** #include "per/sai.h"
   5:../../libdaisy/src/hid/audio.h **** 
   6:../../libdaisy/src/hid/audio.h **** namespace daisy
   7:../../libdaisy/src/hid/audio.h **** {
   8:../../libdaisy/src/hid/audio.h **** class AudioHandle
   9:../../libdaisy/src/hid/audio.h **** {
  10:../../libdaisy/src/hid/audio.h ****   public:
  11:../../libdaisy/src/hid/audio.h ****     /** Manually configurable details about the Audio Engine */
  12:../../libdaisy/src/hid/audio.h ****     /** TODO: Figure out how to get samplerate in here. */
  13:../../libdaisy/src/hid/audio.h ****     struct Config
ARM GAS  /tmp/cc5sXaZv.s 			page 14


  14:../../libdaisy/src/hid/audio.h ****     {
  15:../../libdaisy/src/hid/audio.h ****         size_t                        blocksize;
  16:../../libdaisy/src/hid/audio.h ****         SaiHandle::Config::SampleRate samplerate;
  17:../../libdaisy/src/hid/audio.h ****         float                         postgain;
  18:../../libdaisy/src/hid/audio.h ****     };
  19:../../libdaisy/src/hid/audio.h **** 
  20:../../libdaisy/src/hid/audio.h ****     enum class Result
  21:../../libdaisy/src/hid/audio.h ****     {
  22:../../libdaisy/src/hid/audio.h ****         OK,
  23:../../libdaisy/src/hid/audio.h ****         ERR,
  24:../../libdaisy/src/hid/audio.h ****     };
  25:../../libdaisy/src/hid/audio.h **** 
  26:../../libdaisy/src/hid/audio.h ****     /** Non-Interleaving input buffer
  27:../../libdaisy/src/hid/audio.h ****      * Buffer arranged by float[chn][sample] 
  28:../../libdaisy/src/hid/audio.h ****      * const so that the user can't modify the input
  29:../../libdaisy/src/hid/audio.h ****     */
  30:../../libdaisy/src/hid/audio.h ****     typedef const float* const* InputBuffer;
  31:../../libdaisy/src/hid/audio.h **** 
  32:../../libdaisy/src/hid/audio.h ****     /** Non-Interleaving output buffer
  33:../../libdaisy/src/hid/audio.h ****      * Arranged by float[chn][sample] 
  34:../../libdaisy/src/hid/audio.h ****     */
  35:../../libdaisy/src/hid/audio.h ****     typedef float** OutputBuffer;
  36:../../libdaisy/src/hid/audio.h **** 
  37:../../libdaisy/src/hid/audio.h ****     /** Type for a Non-Interleaving audio callback 
  38:../../libdaisy/src/hid/audio.h ****    * Non-Interleaving audio callbacks in daisy will be of this type
  39:../../libdaisy/src/hid/audio.h ****   */
  40:../../libdaisy/src/hid/audio.h ****     typedef void (*AudioCallback)(InputBuffer  in,
  41:../../libdaisy/src/hid/audio.h ****                                   OutputBuffer out,
  42:../../libdaisy/src/hid/audio.h ****                                   size_t       size);
  43:../../libdaisy/src/hid/audio.h **** 
  44:../../libdaisy/src/hid/audio.h ****     /** Interleaving Input buffer
  45:../../libdaisy/src/hid/audio.h ****      ** audio is prepared as { L0, R0, L1, R1, . . . LN, RN }]
  46:../../libdaisy/src/hid/audio.h ****      ** this is const, as the user shouldn't modify it
  47:../../libdaisy/src/hid/audio.h ****     */
  48:../../libdaisy/src/hid/audio.h ****     typedef const float* InterleavingInputBuffer;
  49:../../libdaisy/src/hid/audio.h **** 
  50:../../libdaisy/src/hid/audio.h ****     /** Interleaving Output buffer 
  51:../../libdaisy/src/hid/audio.h ****      ** audio is prepared as { L0, R0, L1, R1, . . . LN, RN }
  52:../../libdaisy/src/hid/audio.h ****     */
  53:../../libdaisy/src/hid/audio.h ****     typedef float* InterleavingOutputBuffer;
  54:../../libdaisy/src/hid/audio.h **** 
  55:../../libdaisy/src/hid/audio.h ****     /** Interleaving Audio Callback 
  56:../../libdaisy/src/hid/audio.h ****    * Interleaving audio callbacks in daisy must be of this type
  57:../../libdaisy/src/hid/audio.h ****   */
  58:../../libdaisy/src/hid/audio.h ****     typedef void (*InterleavingAudioCallback)(InterleavingInputBuffer  in,
  59:../../libdaisy/src/hid/audio.h ****                                               InterleavingOutputBuffer out,
  60:../../libdaisy/src/hid/audio.h ****                                               size_t                   size);
  61:../../libdaisy/src/hid/audio.h **** 
  62:../../libdaisy/src/hid/audio.h ****     AudioHandle() : pimpl_(nullptr) {}
  63:../../libdaisy/src/hid/audio.h ****     ~AudioHandle() {}
  96              		.loc 11 63 5 is_stmt 1 view .LVU18
  97              		.loc 11 63 5 is_stmt 0 view .LVU19
  98              	.LBE655:
  99              	.LBE651:
 100              		.loc 1 41 20 view .LVU20
 101 0000 7047     		bx	lr
 102              		.cfi_endproc
ARM GAS  /tmp/cc5sXaZv.s 			page 15


 103              	.LFE2060:
 105              		.weak	_ZN5daisy10DaisyPatchD1Ev
 106              		.thumb_set _ZN5daisy10DaisyPatchD1Ev,_ZN5daisy10DaisyPatchD2Ev
 107 0002 00BF     		.section	.text._ZN7daisysp8ReverbScD2Ev,"axG",%progbits,_ZN7daisysp8ReverbScD5Ev,comdat
 108              		.align	1
 109              		.p2align 2,,3
 110              		.weak	_ZN7daisysp8ReverbScD2Ev
 111              		.syntax unified
 112              		.thumb
 113              		.thumb_func
 114              		.fpu fpv5-d16
 116              	_ZN7daisysp8ReverbScD2Ev:
 117              	.LVL1:
 118              	.LFB3898:
 119              		.file 12 "../../DaisySP/Source/Effects/reverbsc.h"
   1:../../DaisySP/Source/Effects/reverbsc.h **** #pragma once
   2:../../DaisySP/Source/Effects/reverbsc.h **** #ifndef DSYSP_REVERBSC_H
   3:../../DaisySP/Source/Effects/reverbsc.h **** #define DSYSP_REVERBSC_H
   4:../../DaisySP/Source/Effects/reverbsc.h **** 
   5:../../DaisySP/Source/Effects/reverbsc.h **** #define DSY_REVERBSC_MAX_SIZE 98936
   6:../../DaisySP/Source/Effects/reverbsc.h **** 
   7:../../DaisySP/Source/Effects/reverbsc.h **** namespace daisysp
   8:../../DaisySP/Source/Effects/reverbsc.h **** {
   9:../../DaisySP/Source/Effects/reverbsc.h **** /**Delay line for internal reverb use
  10:../../DaisySP/Source/Effects/reverbsc.h **** */
  11:../../DaisySP/Source/Effects/reverbsc.h **** typedef struct
  12:../../DaisySP/Source/Effects/reverbsc.h **** {
  13:../../DaisySP/Source/Effects/reverbsc.h ****     int    write_pos;         /**< write position */
  14:../../DaisySP/Source/Effects/reverbsc.h ****     int    buffer_size;       /**< buffer size */
  15:../../DaisySP/Source/Effects/reverbsc.h ****     int    read_pos;          /**< read position */
  16:../../DaisySP/Source/Effects/reverbsc.h ****     int    read_pos_frac;     /**< fractional component of read pos */
  17:../../DaisySP/Source/Effects/reverbsc.h ****     int    read_pos_frac_inc; /**< increment for fractional */
  18:../../DaisySP/Source/Effects/reverbsc.h ****     int    dummy;             /**<  dummy var */
  19:../../DaisySP/Source/Effects/reverbsc.h ****     int    seed_val;          /**< randseed */
  20:../../DaisySP/Source/Effects/reverbsc.h ****     int    rand_line_cnt;     /**< number of random lines */
  21:../../DaisySP/Source/Effects/reverbsc.h ****     float  filter_state;      /**< state of filter */
  22:../../DaisySP/Source/Effects/reverbsc.h ****     float *buf;               /**< buffer ptr */
  23:../../DaisySP/Source/Effects/reverbsc.h **** } ReverbScDl;
  24:../../DaisySP/Source/Effects/reverbsc.h **** 
  25:../../DaisySP/Source/Effects/reverbsc.h **** /** Stereo Reverb
  26:../../DaisySP/Source/Effects/reverbsc.h **** 
  27:../../DaisySP/Source/Effects/reverbsc.h **** Reverb SC:               Ported from csound/soundpipe
  28:../../DaisySP/Source/Effects/reverbsc.h **** 
  29:../../DaisySP/Source/Effects/reverbsc.h **** Original author(s):        Sean Costello, Istvan Varga
  30:../../DaisySP/Source/Effects/reverbsc.h **** 
  31:../../DaisySP/Source/Effects/reverbsc.h **** Year:                    1999, 2005
  32:../../DaisySP/Source/Effects/reverbsc.h **** 
  33:../../DaisySP/Source/Effects/reverbsc.h **** Ported to soundpipe by:  Paul Batchelor
  34:../../DaisySP/Source/Effects/reverbsc.h **** 
  35:../../DaisySP/Source/Effects/reverbsc.h **** Ported by:                Stephen Hensley
  36:../../DaisySP/Source/Effects/reverbsc.h **** */
  37:../../DaisySP/Source/Effects/reverbsc.h **** class ReverbSc
  38:../../DaisySP/Source/Effects/reverbsc.h **** {
  39:../../DaisySP/Source/Effects/reverbsc.h ****   public:
  40:../../DaisySP/Source/Effects/reverbsc.h ****     ReverbSc() {}
  41:../../DaisySP/Source/Effects/reverbsc.h ****     ~ReverbSc() {}
 120              		.loc 12 41 5 is_stmt 1 view -0
ARM GAS  /tmp/cc5sXaZv.s 			page 16


 121              		.cfi_startproc
 122              		@ args = 0, pretend = 0, frame = 0
 123              		@ frame_needed = 0, uses_anonymous_args = 0
 124              		@ link register save eliminated.
 125              		.loc 12 41 18 is_stmt 0 view .LVU22
 126 0000 7047     		bx	lr
 127              		.cfi_endproc
 128              	.LFE3898:
 130              		.weak	_ZN7daisysp8ReverbScD1Ev
 131              		.thumb_set _ZN7daisysp8ReverbScD1Ev,_ZN7daisysp8ReverbScD2Ev
 132 0002 00BF     		.section	.text._ZN5daisy11OledDisplayINS_13SSD130xDriverILj128ELj64ENS_24SSD130x4WireSpiTransportE
 133              		.align	1
 134              		.p2align 2,,3
 135              		.weak	_ZN5daisy11OledDisplayINS_13SSD130xDriverILj128ELj64ENS_24SSD130x4WireSpiTransportEEEED2Ev
 136              		.syntax unified
 137              		.thumb
 138              		.thumb_func
 139              		.fpu fpv5-d16
 141              	_ZN5daisy11OledDisplayINS_13SSD130xDriverILj128ELj64ENS_24SSD130x4WireSpiTransportEEEED2Ev:
 142              	.LVL2:
 143              	.LFB4266:
 144              		.loc 2 17 13 is_stmt 1 view -0
 145              		.cfi_startproc
 146              		@ args = 0, pretend = 0, frame = 0
 147              		@ frame_needed = 0, uses_anonymous_args = 0
 148              		@ link register save eliminated.
 149              	.LBB656:
 150              	.LBI656:
 151              		.loc 3 219 13 view .LVU24
 152              	.LBB657:
 153              	.LBI657:
  23:../../libdaisy/src/hid/disp/display.h **** 
 154              		.loc 3 23 13 view .LVU25
  23:../../libdaisy/src/hid/disp/display.h **** 
 155              		.loc 3 23 13 is_stmt 0 view .LVU26
 156              	.LBE657:
 157              	.LBE656:
 158              		.loc 2 17 29 view .LVU27
 159 0000 7047     		bx	lr
 160              		.cfi_endproc
 161              	.LFE4266:
 163              		.weak	_ZN5daisy11OledDisplayINS_13SSD130xDriverILj128ELj64ENS_24SSD130x4WireSpiTransportEEEED1Ev
 164              		.thumb_set _ZN5daisy11OledDisplayINS_13SSD130xDriverILj128ELj64ENS_24SSD130x4WireSpiTransportEEEED
 165 0002 00BF     		.section	.text._ZN7daisysp9PolyPluckILj32EED2Ev,"axG",%progbits,_ZN7daisysp9PolyPluckILj32EED5Ev,c
 166              		.align	1
 167              		.p2align 2,,3
 168              		.weak	_ZN7daisysp9PolyPluckILj32EED2Ev
 169              		.syntax unified
 170              		.thumb
 171              		.thumb_func
 172              		.fpu fpv5-d16
 174              	_ZN7daisysp9PolyPluckILj32EED2Ev:
 175              	.LVL3:
 176              	.LFB4834:
 177              		.file 13 "../../DaisySP/Source/PhysicalModeling/PolyPluck.h"
   1:../../DaisySP/Source/PhysicalModeling/PolyPluck.h **** #pragma once
   2:../../DaisySP/Source/PhysicalModeling/PolyPluck.h **** #ifndef DSY_POLYPLUCK_H
ARM GAS  /tmp/cc5sXaZv.s 			page 17


   3:../../DaisySP/Source/PhysicalModeling/PolyPluck.h **** #define DSY_POLYPLUCK_H
   4:../../DaisySP/Source/PhysicalModeling/PolyPluck.h **** 
   5:../../DaisySP/Source/PhysicalModeling/PolyPluck.h **** #include <stdlib.h>
   6:../../DaisySP/Source/PhysicalModeling/PolyPluck.h **** #include "Utility/dsp.h"
   7:../../DaisySP/Source/PhysicalModeling/PolyPluck.h **** #include "PhysicalModeling/pluck.h"
   8:../../DaisySP/Source/PhysicalModeling/PolyPluck.h **** #include "Utility/dcblock.h"
   9:../../DaisySP/Source/PhysicalModeling/PolyPluck.h **** 
  10:../../DaisySP/Source/PhysicalModeling/PolyPluck.h **** namespace daisysp
  11:../../DaisySP/Source/PhysicalModeling/PolyPluck.h **** {
  12:../../DaisySP/Source/PhysicalModeling/PolyPluck.h **** /** Simplified Pseudo-Polyphonic Pluck Voice
  13:../../DaisySP/Source/PhysicalModeling/PolyPluck.h **** 
  14:../../DaisySP/Source/PhysicalModeling/PolyPluck.h **** Template Based Pluck Voice, with configurable number of voices and simple pseudo-polyphony.
  15:../../DaisySP/Source/PhysicalModeling/PolyPluck.h **** 
  16:../../DaisySP/Source/PhysicalModeling/PolyPluck.h **** DC Blocking included to prevent biases from causing unwanted saturation distortion.
  17:../../DaisySP/Source/PhysicalModeling/PolyPluck.h **** 
  18:../../DaisySP/Source/PhysicalModeling/PolyPluck.h **** **Author**: shensley
  19:../../DaisySP/Source/PhysicalModeling/PolyPluck.h **** 
  20:../../DaisySP/Source/PhysicalModeling/PolyPluck.h **** **Date Added**: March 2020
  21:../../DaisySP/Source/PhysicalModeling/PolyPluck.h **** */
  22:../../DaisySP/Source/PhysicalModeling/PolyPluck.h **** template <size_t num_voices>
  23:../../DaisySP/Source/PhysicalModeling/PolyPluck.h **** class PolyPluck
 178              		.loc 13 23 7 is_stmt 1 view -0
 179              		.cfi_startproc
 180              		@ args = 0, pretend = 0, frame = 0
 181              		@ frame_needed = 0, uses_anonymous_args = 0
 182              		@ link register save eliminated.
 183              	.LBB658:
 184              	.LBI658:
 185              		.file 14 "../../DaisySP/Source/Utility/dcblock.h"
   1:../../DaisySP/Source/Utility/dcblock.h **** 
   2:../../DaisySP/Source/Utility/dcblock.h **** #pragma once
   3:../../DaisySP/Source/Utility/dcblock.h **** #ifndef DSY_DCBLOCK_H
   4:../../DaisySP/Source/Utility/dcblock.h **** #define DSY_DCBLOCK_H
   5:../../DaisySP/Source/Utility/dcblock.h **** #ifdef __cplusplus
   6:../../DaisySP/Source/Utility/dcblock.h **** 
   7:../../DaisySP/Source/Utility/dcblock.h **** namespace daisysp
   8:../../DaisySP/Source/Utility/dcblock.h **** {
   9:../../DaisySP/Source/Utility/dcblock.h **** /** Removes DC component of a signal
  10:../../DaisySP/Source/Utility/dcblock.h ****     */
  11:../../DaisySP/Source/Utility/dcblock.h **** class DcBlock
  12:../../DaisySP/Source/Utility/dcblock.h **** {
  13:../../DaisySP/Source/Utility/dcblock.h ****   public:
  14:../../DaisySP/Source/Utility/dcblock.h ****     DcBlock(){};
  15:../../DaisySP/Source/Utility/dcblock.h ****     ~DcBlock(){};
 186              		.loc 14 15 5 view .LVU29
 187              		.loc 14 15 5 is_stmt 0 view .LVU30
 188              	.LBE658:
 189              		.loc 13 23 7 view .LVU31
 190 0000 7047     		bx	lr
 191              		.cfi_endproc
 192              	.LFE4834:
 194              		.weak	_ZN7daisysp9PolyPluckILj32EED1Ev
 195              		.thumb_set _ZN7daisysp9PolyPluckILj32EED1Ev,_ZN7daisysp9PolyPluckILj32EED2Ev
 196 0002 00BF     		.section	.text._ZNK5daisy11OledDisplayINS_13SSD130xDriverILj128ELj64ENS_24SSD130x4WireSpiTransport
 197              		.align	1
 198              		.p2align 2,,3
 199              		.weak	_ZNK5daisy11OledDisplayINS_13SSD130xDriverILj128ELj64ENS_24SSD130x4WireSpiTransportEEEE6Heig
ARM GAS  /tmp/cc5sXaZv.s 			page 18


 200              		.syntax unified
 201              		.thumb
 202              		.thumb_func
 203              		.fpu fpv5-d16
 205              	_ZNK5daisy11OledDisplayINS_13SSD130xDriverILj128ELj64ENS_24SSD130x4WireSpiTransportEEEE6HeightEv:
 206              	.LVL4:
 207              	.LFB4836:
  18:../../libdaisy/src/hid/disp/oled_display.h **** 
  19:../../libdaisy/src/hid/disp/oled_display.h ****     struct Config
  20:../../libdaisy/src/hid/disp/oled_display.h ****     {
  21:../../libdaisy/src/hid/disp/oled_display.h ****         typename DisplayDriver::Config driver_config;
  22:../../libdaisy/src/hid/disp/oled_display.h ****     };
  23:../../libdaisy/src/hid/disp/oled_display.h **** 
  24:../../libdaisy/src/hid/disp/oled_display.h ****     void Init(Config config) { driver_.Init(config.driver_config); }
  25:../../libdaisy/src/hid/disp/oled_display.h **** 
  26:../../libdaisy/src/hid/disp/oled_display.h ****     uint16_t Height() const override { return driver_.Height(); }
 208              		.loc 2 26 14 is_stmt 1 view -0
 209              		.cfi_startproc
 210              		@ args = 0, pretend = 0, frame = 0
 211              		@ frame_needed = 0, uses_anonymous_args = 0
 212              		@ link register save eliminated.
 213              		.loc 2 26 65 is_stmt 0 view .LVU33
 214 0000 4020     		movs	r0, #64
 215              	.LVL5:
 216              		.loc 2 26 65 view .LVU34
 217 0002 7047     		bx	lr
 218              		.cfi_endproc
 219              	.LFE4836:
 221              		.section	.text._ZNK5daisy11OledDisplayINS_13SSD130xDriverILj128ELj64ENS_24SSD130x4WireSpiTransport
 222              		.align	1
 223              		.p2align 2,,3
 224              		.weak	_ZNK5daisy11OledDisplayINS_13SSD130xDriverILj128ELj64ENS_24SSD130x4WireSpiTransportEEEE5Widt
 225              		.syntax unified
 226              		.thumb
 227              		.thumb_func
 228              		.fpu fpv5-d16
 230              	_ZNK5daisy11OledDisplayINS_13SSD130xDriverILj128ELj64ENS_24SSD130x4WireSpiTransportEEEE5WidthEv:
 231              	.LVL6:
 232              	.LFB4837:
  27:../../libdaisy/src/hid/disp/oled_display.h ****     uint16_t Width() const override { return driver_.Width(); }
 233              		.loc 2 27 14 is_stmt 1 view -0
 234              		.cfi_startproc
 235              		@ args = 0, pretend = 0, frame = 0
 236              		@ frame_needed = 0, uses_anonymous_args = 0
 237              		@ link register save eliminated.
 238              		.loc 2 27 63 is_stmt 0 view .LVU36
 239 0000 8020     		movs	r0, #128
 240              	.LVL7:
 241              		.loc 2 27 63 view .LVU37
 242 0002 7047     		bx	lr
 243              		.cfi_endproc
 244              	.LFE4837:
 246              		.section	.text._ZN5daisy11OledDisplayINS_13SSD130xDriverILj128ELj64ENS_24SSD130x4WireSpiTransportE
 247              		.align	1
 248              		.p2align 2,,3
 249              		.weak	_ZN5daisy11OledDisplayINS_13SSD130xDriverILj128ELj64ENS_24SSD130x4WireSpiTransportEEEE4FillE
 250              		.syntax unified
ARM GAS  /tmp/cc5sXaZv.s 			page 19


 251              		.thumb
 252              		.thumb_func
 253              		.fpu fpv5-d16
 255              	_ZN5daisy11OledDisplayINS_13SSD130xDriverILj128ELj64ENS_24SSD130x4WireSpiTransportEEEE4FillEb:
 256              	.LVL8:
 257              	.LFB4838:
  28:../../libdaisy/src/hid/disp/oled_display.h **** 
  29:../../libdaisy/src/hid/disp/oled_display.h ****     /** 
  30:../../libdaisy/src/hid/disp/oled_display.h ****     Fills the entire display with either on/off.
  31:../../libdaisy/src/hid/disp/oled_display.h ****     \param on Sets on or off.
  32:../../libdaisy/src/hid/disp/oled_display.h ****     */
  33:../../libdaisy/src/hid/disp/oled_display.h ****     void Fill(bool on) override { driver_.Fill(on); }
 258              		.loc 2 33 10 is_stmt 1 view -0
 259              		.cfi_startproc
 260              		@ args = 0, pretend = 0, frame = 0
 261              		@ frame_needed = 0, uses_anonymous_args = 0
 262              		@ link register save eliminated.
 263              	.LBB659:
 264              	.LBI659:
 265              		.file 15 "../../libdaisy/src/dev/oled_ssd130x.h"
   1:../../libdaisy/src/dev/oled_ssd130x.h **** #pragma once
   2:../../libdaisy/src/dev/oled_ssd130x.h **** #ifndef SA_OLED_SSD130X_H
   3:../../libdaisy/src/dev/oled_ssd130x.h **** #define SA_OLED_SSD130X_H /**< & */
   4:../../libdaisy/src/dev/oled_ssd130x.h **** 
   5:../../libdaisy/src/dev/oled_ssd130x.h **** #include "per/i2c.h"
   6:../../libdaisy/src/dev/oled_ssd130x.h **** #include "per/spi.h"
   7:../../libdaisy/src/dev/oled_ssd130x.h **** #include "per/gpio.h"
   8:../../libdaisy/src/dev/oled_ssd130x.h **** #include "sys/system.h"
   9:../../libdaisy/src/dev/oled_ssd130x.h **** 
  10:../../libdaisy/src/dev/oled_ssd130x.h **** namespace daisy
  11:../../libdaisy/src/dev/oled_ssd130x.h **** {
  12:../../libdaisy/src/dev/oled_ssd130x.h **** /**
  13:../../libdaisy/src/dev/oled_ssd130x.h ****  * I2C Transport for SSD1306 / SSD1309 OLED display devices
  14:../../libdaisy/src/dev/oled_ssd130x.h ****  */
  15:../../libdaisy/src/dev/oled_ssd130x.h **** class SSD130xI2CTransport
  16:../../libdaisy/src/dev/oled_ssd130x.h **** {
  17:../../libdaisy/src/dev/oled_ssd130x.h ****   public:
  18:../../libdaisy/src/dev/oled_ssd130x.h ****     struct Config
  19:../../libdaisy/src/dev/oled_ssd130x.h ****     {
  20:../../libdaisy/src/dev/oled_ssd130x.h ****         I2CHandle::Config i2c_config;
  21:../../libdaisy/src/dev/oled_ssd130x.h ****         uint8_t           i2c_address;
  22:../../libdaisy/src/dev/oled_ssd130x.h ****         void              Defaults()
  23:../../libdaisy/src/dev/oled_ssd130x.h ****         {
  24:../../libdaisy/src/dev/oled_ssd130x.h ****             i2c_config.periph         = I2CHandle::Config::Peripheral::I2C_1;
  25:../../libdaisy/src/dev/oled_ssd130x.h ****             i2c_config.speed          = I2CHandle::Config::Speed::I2C_1MHZ;
  26:../../libdaisy/src/dev/oled_ssd130x.h ****             i2c_config.mode           = I2CHandle::Config::Mode::I2C_MASTER;
  27:../../libdaisy/src/dev/oled_ssd130x.h ****             i2c_config.pin_config.scl = {DSY_GPIOB, 8};
  28:../../libdaisy/src/dev/oled_ssd130x.h ****             i2c_config.pin_config.sda = {DSY_GPIOB, 9};
  29:../../libdaisy/src/dev/oled_ssd130x.h ****             i2c_address               = 0x3C;
  30:../../libdaisy/src/dev/oled_ssd130x.h ****         }
  31:../../libdaisy/src/dev/oled_ssd130x.h ****     };
  32:../../libdaisy/src/dev/oled_ssd130x.h ****     void Init(const Config& config)
  33:../../libdaisy/src/dev/oled_ssd130x.h ****     {
  34:../../libdaisy/src/dev/oled_ssd130x.h ****         i2c_address_ = config.i2c_address;
  35:../../libdaisy/src/dev/oled_ssd130x.h ****         i2c_.Init(config.i2c_config);
  36:../../libdaisy/src/dev/oled_ssd130x.h ****     };
  37:../../libdaisy/src/dev/oled_ssd130x.h ****     void SendCommand(uint8_t cmd)
ARM GAS  /tmp/cc5sXaZv.s 			page 20


  38:../../libdaisy/src/dev/oled_ssd130x.h ****     {
  39:../../libdaisy/src/dev/oled_ssd130x.h ****         uint8_t buf[2] = {0X00, cmd};
  40:../../libdaisy/src/dev/oled_ssd130x.h ****         i2c_.TransmitBlocking(i2c_address_, buf, 2, 1000);
  41:../../libdaisy/src/dev/oled_ssd130x.h ****     };
  42:../../libdaisy/src/dev/oled_ssd130x.h **** 
  43:../../libdaisy/src/dev/oled_ssd130x.h ****     void SendData(uint8_t* buff, size_t size)
  44:../../libdaisy/src/dev/oled_ssd130x.h ****     {
  45:../../libdaisy/src/dev/oled_ssd130x.h ****         for(size_t i = 0; i < size; i++)
  46:../../libdaisy/src/dev/oled_ssd130x.h ****         {
  47:../../libdaisy/src/dev/oled_ssd130x.h ****             uint8_t buf[2] = {0X40, buff[i]};
  48:../../libdaisy/src/dev/oled_ssd130x.h ****             i2c_.TransmitBlocking(i2c_address_, buf, 2, 1000);
  49:../../libdaisy/src/dev/oled_ssd130x.h ****         }
  50:../../libdaisy/src/dev/oled_ssd130x.h ****     };
  51:../../libdaisy/src/dev/oled_ssd130x.h **** 
  52:../../libdaisy/src/dev/oled_ssd130x.h ****   private:
  53:../../libdaisy/src/dev/oled_ssd130x.h ****     daisy::I2CHandle i2c_;
  54:../../libdaisy/src/dev/oled_ssd130x.h ****     uint8_t          i2c_address_;
  55:../../libdaisy/src/dev/oled_ssd130x.h **** };
  56:../../libdaisy/src/dev/oled_ssd130x.h **** 
  57:../../libdaisy/src/dev/oled_ssd130x.h **** /**
  58:../../libdaisy/src/dev/oled_ssd130x.h ****  * 4 Wire SPI Transport for SSD1306 / SSD1309 OLED display devices
  59:../../libdaisy/src/dev/oled_ssd130x.h ****  */
  60:../../libdaisy/src/dev/oled_ssd130x.h **** class SSD130x4WireSpiTransport
  61:../../libdaisy/src/dev/oled_ssd130x.h **** {
  62:../../libdaisy/src/dev/oled_ssd130x.h ****   public:
  63:../../libdaisy/src/dev/oled_ssd130x.h ****     struct Config
  64:../../libdaisy/src/dev/oled_ssd130x.h ****     {
  65:../../libdaisy/src/dev/oled_ssd130x.h ****         struct
  66:../../libdaisy/src/dev/oled_ssd130x.h ****         {
  67:../../libdaisy/src/dev/oled_ssd130x.h ****             dsy_gpio_pin dc;    /**< & */
  68:../../libdaisy/src/dev/oled_ssd130x.h ****             dsy_gpio_pin reset; /**< & */
  69:../../libdaisy/src/dev/oled_ssd130x.h ****         } pin_config;
  70:../../libdaisy/src/dev/oled_ssd130x.h ****         void Defaults()
  71:../../libdaisy/src/dev/oled_ssd130x.h ****         {
  72:../../libdaisy/src/dev/oled_ssd130x.h ****             pin_config.dc    = {DSY_GPIOB, 4};
  73:../../libdaisy/src/dev/oled_ssd130x.h ****             pin_config.reset = {DSY_GPIOB, 15};
  74:../../libdaisy/src/dev/oled_ssd130x.h ****         }
  75:../../libdaisy/src/dev/oled_ssd130x.h ****     };
  76:../../libdaisy/src/dev/oled_ssd130x.h ****     void Init(const Config& config)
  77:../../libdaisy/src/dev/oled_ssd130x.h ****     {
  78:../../libdaisy/src/dev/oled_ssd130x.h ****         // Initialize both GPIO
  79:../../libdaisy/src/dev/oled_ssd130x.h ****         pin_dc_.mode = DSY_GPIO_MODE_OUTPUT_PP;
  80:../../libdaisy/src/dev/oled_ssd130x.h ****         pin_dc_.pin  = config.pin_config.dc;
  81:../../libdaisy/src/dev/oled_ssd130x.h ****         dsy_gpio_init(&pin_dc_);
  82:../../libdaisy/src/dev/oled_ssd130x.h ****         pin_reset_.mode = DSY_GPIO_MODE_OUTPUT_PP;
  83:../../libdaisy/src/dev/oled_ssd130x.h ****         pin_reset_.pin  = config.pin_config.reset;
  84:../../libdaisy/src/dev/oled_ssd130x.h ****         dsy_gpio_init(&pin_reset_);
  85:../../libdaisy/src/dev/oled_ssd130x.h ****         // Initialize SPI
  86:../../libdaisy/src/dev/oled_ssd130x.h ****         SpiHandle::Config spi_config;
  87:../../libdaisy/src/dev/oled_ssd130x.h ****         spi_config.periph    = SpiHandle::Config::Peripheral::SPI_1;
  88:../../libdaisy/src/dev/oled_ssd130x.h ****         spi_config.mode      = SpiHandle::Config::Mode::MASTER;
  89:../../libdaisy/src/dev/oled_ssd130x.h ****         spi_config.direction = SpiHandle::Config::Direction::TWO_LINES_TX_ONLY;
  90:../../libdaisy/src/dev/oled_ssd130x.h ****         spi_config.datasize  = 8;
  91:../../libdaisy/src/dev/oled_ssd130x.h ****         spi_config.clock_polarity = SpiHandle::Config::ClockPolarity::LOW;
  92:../../libdaisy/src/dev/oled_ssd130x.h ****         spi_config.clock_phase    = SpiHandle::Config::ClockPhase::ONE_EDGE;
  93:../../libdaisy/src/dev/oled_ssd130x.h ****         spi_config.nss            = SpiHandle::Config::NSS::HARD_OUTPUT;
  94:../../libdaisy/src/dev/oled_ssd130x.h ****         spi_config.baud_prescaler = SpiHandle::Config::BaudPrescaler::PS_8;
ARM GAS  /tmp/cc5sXaZv.s 			page 21


  95:../../libdaisy/src/dev/oled_ssd130x.h **** 
  96:../../libdaisy/src/dev/oled_ssd130x.h ****         spi_config.pin_config.sclk = {DSY_GPIOG, 11};
  97:../../libdaisy/src/dev/oled_ssd130x.h ****         spi_config.pin_config.miso = {DSY_GPIOX, 0};
  98:../../libdaisy/src/dev/oled_ssd130x.h ****         spi_config.pin_config.mosi = {DSY_GPIOB, 5};
  99:../../libdaisy/src/dev/oled_ssd130x.h ****         spi_config.pin_config.nss  = {DSY_GPIOG, 10};
 100:../../libdaisy/src/dev/oled_ssd130x.h **** 
 101:../../libdaisy/src/dev/oled_ssd130x.h ****         spi_.Init(spi_config);
 102:../../libdaisy/src/dev/oled_ssd130x.h **** 
 103:../../libdaisy/src/dev/oled_ssd130x.h ****         // Reset and Configure OLED.
 104:../../libdaisy/src/dev/oled_ssd130x.h ****         dsy_gpio_write(&pin_reset_, 0);
 105:../../libdaisy/src/dev/oled_ssd130x.h ****         System::Delay(10);
 106:../../libdaisy/src/dev/oled_ssd130x.h ****         dsy_gpio_write(&pin_reset_, 1);
 107:../../libdaisy/src/dev/oled_ssd130x.h ****         System::Delay(10);
 108:../../libdaisy/src/dev/oled_ssd130x.h ****     };
 109:../../libdaisy/src/dev/oled_ssd130x.h ****     void SendCommand(uint8_t cmd)
 110:../../libdaisy/src/dev/oled_ssd130x.h ****     {
 111:../../libdaisy/src/dev/oled_ssd130x.h ****         dsy_gpio_write(&pin_dc_, 0);
 112:../../libdaisy/src/dev/oled_ssd130x.h ****         spi_.BlockingTransmit(&cmd, 1);
 113:../../libdaisy/src/dev/oled_ssd130x.h ****     };
 114:../../libdaisy/src/dev/oled_ssd130x.h **** 
 115:../../libdaisy/src/dev/oled_ssd130x.h ****     void SendData(uint8_t* buff, size_t size)
 116:../../libdaisy/src/dev/oled_ssd130x.h ****     {
 117:../../libdaisy/src/dev/oled_ssd130x.h ****         dsy_gpio_write(&pin_dc_, 1);
 118:../../libdaisy/src/dev/oled_ssd130x.h ****         spi_.BlockingTransmit(buff, size);
 119:../../libdaisy/src/dev/oled_ssd130x.h ****     };
 120:../../libdaisy/src/dev/oled_ssd130x.h **** 
 121:../../libdaisy/src/dev/oled_ssd130x.h ****   private:
 122:../../libdaisy/src/dev/oled_ssd130x.h ****     SpiHandle spi_;
 123:../../libdaisy/src/dev/oled_ssd130x.h ****     dsy_gpio  pin_reset_;
 124:../../libdaisy/src/dev/oled_ssd130x.h ****     dsy_gpio  pin_dc_;
 125:../../libdaisy/src/dev/oled_ssd130x.h **** };
 126:../../libdaisy/src/dev/oled_ssd130x.h **** 
 127:../../libdaisy/src/dev/oled_ssd130x.h **** 
 128:../../libdaisy/src/dev/oled_ssd130x.h **** /**
 129:../../libdaisy/src/dev/oled_ssd130x.h ****  * A driver implementation for the SSD1306/SSD1309
 130:../../libdaisy/src/dev/oled_ssd130x.h ****  */
 131:../../libdaisy/src/dev/oled_ssd130x.h **** template <size_t width, size_t height, typename Transport>
 132:../../libdaisy/src/dev/oled_ssd130x.h **** class SSD130xDriver
 133:../../libdaisy/src/dev/oled_ssd130x.h **** {
 134:../../libdaisy/src/dev/oled_ssd130x.h ****   public:
 135:../../libdaisy/src/dev/oled_ssd130x.h ****     struct Config
 136:../../libdaisy/src/dev/oled_ssd130x.h ****     {
 137:../../libdaisy/src/dev/oled_ssd130x.h ****         typename Transport::Config transport_config;
 138:../../libdaisy/src/dev/oled_ssd130x.h ****     };
 139:../../libdaisy/src/dev/oled_ssd130x.h **** 
 140:../../libdaisy/src/dev/oled_ssd130x.h ****     void Init(Config config)
 141:../../libdaisy/src/dev/oled_ssd130x.h ****     {
 142:../../libdaisy/src/dev/oled_ssd130x.h ****         transport_.Init(config.transport_config);
 143:../../libdaisy/src/dev/oled_ssd130x.h **** 
 144:../../libdaisy/src/dev/oled_ssd130x.h ****         // Init routine...
 145:../../libdaisy/src/dev/oled_ssd130x.h **** 
 146:../../libdaisy/src/dev/oled_ssd130x.h ****         // Display Off
 147:../../libdaisy/src/dev/oled_ssd130x.h ****         transport_.SendCommand(0xaE);
 148:../../libdaisy/src/dev/oled_ssd130x.h ****         // Dimension dependent commands...
 149:../../libdaisy/src/dev/oled_ssd130x.h ****         switch(height)
 150:../../libdaisy/src/dev/oled_ssd130x.h ****         {
 151:../../libdaisy/src/dev/oled_ssd130x.h ****             case 16:
ARM GAS  /tmp/cc5sXaZv.s 			page 22


 152:../../libdaisy/src/dev/oled_ssd130x.h ****                 // Display Clock Divide Ratio
 153:../../libdaisy/src/dev/oled_ssd130x.h ****                 transport_.SendCommand(0xD5);
 154:../../libdaisy/src/dev/oled_ssd130x.h ****                 transport_.SendCommand(0x60);
 155:../../libdaisy/src/dev/oled_ssd130x.h ****                 // Multiplex Ratio
 156:../../libdaisy/src/dev/oled_ssd130x.h ****                 transport_.SendCommand(0xA8);
 157:../../libdaisy/src/dev/oled_ssd130x.h ****                 transport_.SendCommand(0x0F);
 158:../../libdaisy/src/dev/oled_ssd130x.h ****                 // COM Pins
 159:../../libdaisy/src/dev/oled_ssd130x.h ****                 transport_.SendCommand(0xDA);
 160:../../libdaisy/src/dev/oled_ssd130x.h ****                 transport_.SendCommand(0x02);
 161:../../libdaisy/src/dev/oled_ssd130x.h ****                 break;
 162:../../libdaisy/src/dev/oled_ssd130x.h ****             case 32:
 163:../../libdaisy/src/dev/oled_ssd130x.h ****                 // Display Clock Divide Ratio
 164:../../libdaisy/src/dev/oled_ssd130x.h ****                 transport_.SendCommand(0xD5);
 165:../../libdaisy/src/dev/oled_ssd130x.h ****                 transport_.SendCommand(0x80);
 166:../../libdaisy/src/dev/oled_ssd130x.h ****                 // Multiplex Ratio
 167:../../libdaisy/src/dev/oled_ssd130x.h ****                 transport_.SendCommand(0xA8);
 168:../../libdaisy/src/dev/oled_ssd130x.h ****                 transport_.SendCommand(0x1F);
 169:../../libdaisy/src/dev/oled_ssd130x.h ****                 // COM Pins
 170:../../libdaisy/src/dev/oled_ssd130x.h ****                 transport_.SendCommand(0xDA);
 171:../../libdaisy/src/dev/oled_ssd130x.h ****                 if(width == 64)
 172:../../libdaisy/src/dev/oled_ssd130x.h ****                 {
 173:../../libdaisy/src/dev/oled_ssd130x.h ****                     transport_.SendCommand(0x12);
 174:../../libdaisy/src/dev/oled_ssd130x.h ****                 }
 175:../../libdaisy/src/dev/oled_ssd130x.h ****                 else
 176:../../libdaisy/src/dev/oled_ssd130x.h ****                 {
 177:../../libdaisy/src/dev/oled_ssd130x.h ****                     transport_.SendCommand(0x02);
 178:../../libdaisy/src/dev/oled_ssd130x.h ****                 }
 179:../../libdaisy/src/dev/oled_ssd130x.h **** 
 180:../../libdaisy/src/dev/oled_ssd130x.h ****                 break;
 181:../../libdaisy/src/dev/oled_ssd130x.h ****             case 48:
 182:../../libdaisy/src/dev/oled_ssd130x.h ****                 // Display Clock Divide Ratio
 183:../../libdaisy/src/dev/oled_ssd130x.h ****                 transport_.SendCommand(0xD5);
 184:../../libdaisy/src/dev/oled_ssd130x.h ****                 transport_.SendCommand(0x80);
 185:../../libdaisy/src/dev/oled_ssd130x.h ****                 // Multiplex Ratio
 186:../../libdaisy/src/dev/oled_ssd130x.h ****                 transport_.SendCommand(0xA8);
 187:../../libdaisy/src/dev/oled_ssd130x.h ****                 transport_.SendCommand(0x2F);
 188:../../libdaisy/src/dev/oled_ssd130x.h ****                 // COM Pins
 189:../../libdaisy/src/dev/oled_ssd130x.h ****                 transport_.SendCommand(0xDA);
 190:../../libdaisy/src/dev/oled_ssd130x.h ****                 transport_.SendCommand(0x12);
 191:../../libdaisy/src/dev/oled_ssd130x.h ****                 break;
 192:../../libdaisy/src/dev/oled_ssd130x.h ****             default: // 128
 193:../../libdaisy/src/dev/oled_ssd130x.h ****                 // Display Clock Divide Ratio
 194:../../libdaisy/src/dev/oled_ssd130x.h ****                 transport_.SendCommand(0xD5);
 195:../../libdaisy/src/dev/oled_ssd130x.h ****                 transport_.SendCommand(0x80);
 196:../../libdaisy/src/dev/oled_ssd130x.h ****                 // Multiplex Ratio
 197:../../libdaisy/src/dev/oled_ssd130x.h ****                 transport_.SendCommand(0xA8);
 198:../../libdaisy/src/dev/oled_ssd130x.h ****                 transport_.SendCommand(0x3F);
 199:../../libdaisy/src/dev/oled_ssd130x.h ****                 // COM Pins
 200:../../libdaisy/src/dev/oled_ssd130x.h ****                 transport_.SendCommand(0xDA);
 201:../../libdaisy/src/dev/oled_ssd130x.h ****                 transport_.SendCommand(0x12);
 202:../../libdaisy/src/dev/oled_ssd130x.h ****                 break;
 203:../../libdaisy/src/dev/oled_ssd130x.h ****         }
 204:../../libdaisy/src/dev/oled_ssd130x.h **** 
 205:../../libdaisy/src/dev/oled_ssd130x.h ****         // Display Offset
 206:../../libdaisy/src/dev/oled_ssd130x.h ****         transport_.SendCommand(0xD3);
 207:../../libdaisy/src/dev/oled_ssd130x.h ****         transport_.SendCommand(0x00);
 208:../../libdaisy/src/dev/oled_ssd130x.h ****         // Start Line Address
ARM GAS  /tmp/cc5sXaZv.s 			page 23


 209:../../libdaisy/src/dev/oled_ssd130x.h ****         transport_.SendCommand(0x40);
 210:../../libdaisy/src/dev/oled_ssd130x.h ****         // Normal Display
 211:../../libdaisy/src/dev/oled_ssd130x.h ****         transport_.SendCommand(0xA6);
 212:../../libdaisy/src/dev/oled_ssd130x.h ****         // All On Resume
 213:../../libdaisy/src/dev/oled_ssd130x.h ****         transport_.SendCommand(0xA4);
 214:../../libdaisy/src/dev/oled_ssd130x.h ****         // Charge Pump
 215:../../libdaisy/src/dev/oled_ssd130x.h ****         transport_.SendCommand(0x8D);
 216:../../libdaisy/src/dev/oled_ssd130x.h ****         transport_.SendCommand(0x14);
 217:../../libdaisy/src/dev/oled_ssd130x.h ****         // Set Segment Remap
 218:../../libdaisy/src/dev/oled_ssd130x.h ****         transport_.SendCommand(0xA1);
 219:../../libdaisy/src/dev/oled_ssd130x.h ****         // COM Output Scan Direction
 220:../../libdaisy/src/dev/oled_ssd130x.h ****         transport_.SendCommand(0xC8);
 221:../../libdaisy/src/dev/oled_ssd130x.h ****         // Contrast Control
 222:../../libdaisy/src/dev/oled_ssd130x.h ****         transport_.SendCommand(0x81);
 223:../../libdaisy/src/dev/oled_ssd130x.h ****         transport_.SendCommand(0x8F);
 224:../../libdaisy/src/dev/oled_ssd130x.h ****         // Pre Charge
 225:../../libdaisy/src/dev/oled_ssd130x.h ****         transport_.SendCommand(0xD9);
 226:../../libdaisy/src/dev/oled_ssd130x.h ****         transport_.SendCommand(0x25);
 227:../../libdaisy/src/dev/oled_ssd130x.h ****         // VCOM Detect
 228:../../libdaisy/src/dev/oled_ssd130x.h ****         transport_.SendCommand(0xDB);
 229:../../libdaisy/src/dev/oled_ssd130x.h ****         transport_.SendCommand(0x34);
 230:../../libdaisy/src/dev/oled_ssd130x.h **** 
 231:../../libdaisy/src/dev/oled_ssd130x.h **** 
 232:../../libdaisy/src/dev/oled_ssd130x.h ****         // Display On
 233:../../libdaisy/src/dev/oled_ssd130x.h ****         transport_.SendCommand(0xAF); //--turn on oled panel
 234:../../libdaisy/src/dev/oled_ssd130x.h ****     };
 235:../../libdaisy/src/dev/oled_ssd130x.h **** 
 236:../../libdaisy/src/dev/oled_ssd130x.h ****     size_t Width() const { return width; };
 237:../../libdaisy/src/dev/oled_ssd130x.h ****     size_t Height() const { return height; };
 238:../../libdaisy/src/dev/oled_ssd130x.h **** 
 239:../../libdaisy/src/dev/oled_ssd130x.h ****     void DrawPixel(uint_fast8_t x, uint_fast8_t y, bool on)
 240:../../libdaisy/src/dev/oled_ssd130x.h ****     {
 241:../../libdaisy/src/dev/oled_ssd130x.h ****         if(x >= width || y >= height)
 242:../../libdaisy/src/dev/oled_ssd130x.h ****             return;
 243:../../libdaisy/src/dev/oled_ssd130x.h ****         if(on)
 244:../../libdaisy/src/dev/oled_ssd130x.h ****             buffer_[x + (y / 8) * width] |= (1 << (y % 8));
 245:../../libdaisy/src/dev/oled_ssd130x.h ****         else
 246:../../libdaisy/src/dev/oled_ssd130x.h ****             buffer_[x + (y / 8) * width] &= ~(1 << (y % 8));
 247:../../libdaisy/src/dev/oled_ssd130x.h ****     }
 248:../../libdaisy/src/dev/oled_ssd130x.h **** 
 249:../../libdaisy/src/dev/oled_ssd130x.h ****     void Fill(bool on)
 266              		.loc 15 249 10 view .LVU39
 267              	.LBB660:
 250:../../libdaisy/src/dev/oled_ssd130x.h ****     {
 251:../../libdaisy/src/dev/oled_ssd130x.h ****         for(size_t i = 0; i < sizeof(buffer_); i++)
 268              		.loc 15 251 29 view .LVU40
 269 0000 4942     		rsbs	r1, r1, #0
 270              	.LVL9:
 271              		.loc 15 251 29 is_stmt 0 view .LVU41
 272 0002 00F11303 		add	r3, r0, #19
 273 0006 00F21342 		addw	r2, r0, #1043
 274 000a C9B2     		uxtb	r1, r1
 275              	.LVL10:
 276              	.L9:
 252:../../libdaisy/src/dev/oled_ssd130x.h ****         {
 253:../../libdaisy/src/dev/oled_ssd130x.h ****             buffer_[i] = on ? 0xff : 0x00;
 277              		.loc 15 253 13 view .LVU42
ARM GAS  /tmp/cc5sXaZv.s 			page 24


 278 000c 03F8011F 		strb	r1, [r3, #1]!
 279              	.LVL11:
 251:../../libdaisy/src/dev/oled_ssd130x.h ****         {
 280              		.loc 15 251 9 is_stmt 1 view .LVU43
 251:../../libdaisy/src/dev/oled_ssd130x.h ****         {
 281              		.loc 15 251 29 view .LVU44
 282 0010 9342     		cmp	r3, r2
 283 0012 FBD1     		bne	.L9
 284              	.LBE660:
 285              	.LBE659:
 286              		.loc 2 33 53 is_stmt 0 view .LVU45
 287 0014 7047     		bx	lr
 288              		.cfi_endproc
 289              	.LFE4838:
 291 0016 00BF     		.section	.text._ZN7daisysp9DelayLineIfLj480000EED2Ev,"axG",%progbits,_ZN7daisysp9DelayLineIfLj4800
 292              		.align	1
 293              		.p2align 2,,3
 294              		.weak	_ZN7daisysp9DelayLineIfLj480000EED2Ev
 295              		.syntax unified
 296              		.thumb
 297              		.thumb_func
 298              		.fpu fpv5-d16
 300              	_ZN7daisysp9DelayLineIfLj480000EED2Ev:
 301              	.LVL12:
 302              	.LFB4844:
 303              		.file 16 "../../DaisySP/Source/Utility/delayline.h"
   1:../../DaisySP/Source/Utility/delayline.h **** #pragma once
   2:../../DaisySP/Source/Utility/delayline.h **** #ifndef DSY_DELAY_H
   3:../../DaisySP/Source/Utility/delayline.h **** #define DSY_DELAY_H
   4:../../DaisySP/Source/Utility/delayline.h **** #include <stdlib.h>
   5:../../DaisySP/Source/Utility/delayline.h **** #include <stdint.h>
   6:../../DaisySP/Source/Utility/delayline.h **** namespace daisysp
   7:../../DaisySP/Source/Utility/delayline.h **** {
   8:../../DaisySP/Source/Utility/delayline.h **** /** Simple Delay line.
   9:../../DaisySP/Source/Utility/delayline.h **** November 2019
  10:../../DaisySP/Source/Utility/delayline.h **** 
  11:../../DaisySP/Source/Utility/delayline.h **** Converted to Template December 2019
  12:../../DaisySP/Source/Utility/delayline.h **** 
  13:../../DaisySP/Source/Utility/delayline.h **** declaration example: (1 second of floats)
  14:../../DaisySP/Source/Utility/delayline.h **** 
  15:../../DaisySP/Source/Utility/delayline.h **** DelayLine<float, SAMPLE_RATE> del;
  16:../../DaisySP/Source/Utility/delayline.h **** 
  17:../../DaisySP/Source/Utility/delayline.h **** By: shensley
  18:../../DaisySP/Source/Utility/delayline.h **** */
  19:../../DaisySP/Source/Utility/delayline.h **** template <typename T, size_t max_size>
  20:../../DaisySP/Source/Utility/delayline.h **** class DelayLine
  21:../../DaisySP/Source/Utility/delayline.h **** {
  22:../../DaisySP/Source/Utility/delayline.h ****   public:
  23:../../DaisySP/Source/Utility/delayline.h ****     DelayLine() {}
  24:../../DaisySP/Source/Utility/delayline.h ****     ~DelayLine() {}
 304              		.loc 16 24 5 is_stmt 1 view -0
 305              		.cfi_startproc
 306              		@ args = 0, pretend = 0, frame = 0
 307              		@ frame_needed = 0, uses_anonymous_args = 0
 308              		@ link register save eliminated.
 309              		.loc 16 24 19 is_stmt 0 view .LVU47
 310 0000 7047     		bx	lr
ARM GAS  /tmp/cc5sXaZv.s 			page 25


 311              		.cfi_endproc
 312              	.LFE4844:
 314              		.weak	_ZN7daisysp9DelayLineIfLj480000EED1Ev
 315              		.thumb_set _ZN7daisysp9DelayLineIfLj480000EED1Ev,_ZN7daisysp9DelayLineIfLj480000EED2Ev
 316 0002 00BF     		.section	.text._Z13AudioCallbackPKPKfPPfj,"ax",%progbits
 317              		.align	1
 318              		.p2align 2,,3
 319              		.global	_Z13AudioCallbackPKPKfPPfj
 320              		.syntax unified
 321              		.thumb
 322              		.thumb_func
 323              		.fpu fpv5-d16
 325              	_Z13AudioCallbackPKPKfPPfj:
 326              	.LVL13:
 327              	.LFB4236:
 328              		.file 17 "PluckEcho.cpp"
   1:PluckEcho.cpp **** #include "daisy_patch.h"
   2:PluckEcho.cpp **** #include "daisysp.h"
   3:PluckEcho.cpp **** #include <string>
   4:PluckEcho.cpp **** 
   5:PluckEcho.cpp **** using namespace daisy;
   6:PluckEcho.cpp **** using namespace daisysp;
   7:PluckEcho.cpp **** 
   8:PluckEcho.cpp **** #define NUM_VOICES 32
   9:PluckEcho.cpp **** #define MAX_DELAY ((size_t)(10.0f * 48000.0f))
  10:PluckEcho.cpp **** 
  11:PluckEcho.cpp **** 
  12:PluckEcho.cpp **** // Hardware
  13:PluckEcho.cpp **** DaisyPatch hw;
  14:PluckEcho.cpp **** 
  15:PluckEcho.cpp **** // Synthesis
  16:PluckEcho.cpp **** PolyPluck<NUM_VOICES> synth;
  17:PluckEcho.cpp **** // 10 second delay line on the external SDRAM
  18:PluckEcho.cpp **** DelayLine<float, MAX_DELAY> DSY_SDRAM_BSS delay;
  19:PluckEcho.cpp **** ReverbSc                                  verb;
  20:PluckEcho.cpp **** 
  21:PluckEcho.cpp **** // Persistent filtered Value for smooth delay time changes.
  22:PluckEcho.cpp **** float smooth_time;
  23:PluckEcho.cpp **** 
  24:PluckEcho.cpp **** void AudioCallback(AudioHandle::InputBuffer  in,
  25:PluckEcho.cpp ****                    AudioHandle::OutputBuffer out,
  26:PluckEcho.cpp ****                    size_t                    size)
  27:PluckEcho.cpp **** {
 329              		.loc 17 27 1 is_stmt 1 view -0
 330              		.cfi_startproc
 331              		@ args = 0, pretend = 0, frame = 24
 332              		@ frame_needed = 0, uses_anonymous_args = 0
  28:PluckEcho.cpp ****     float sig, delsig;           // Mono Audio Vars
 333              		.loc 17 28 5 view .LVU49
  29:PluckEcho.cpp ****     float trig, nn, decay;       // Pluck Vars
 334              		.loc 17 29 5 view .LVU50
  30:PluckEcho.cpp ****     float deltime, delfb, kval;  // Delay Vars
 335              		.loc 17 30 5 view .LVU51
  31:PluckEcho.cpp ****     float dry, send, wetl, wetr; // Effects Vars
 336              		.loc 17 31 5 view .LVU52
  32:PluckEcho.cpp ****     float samplerate;
 337              		.loc 17 32 5 view .LVU53
ARM GAS  /tmp/cc5sXaZv.s 			page 26


  33:PluckEcho.cpp **** 
  34:PluckEcho.cpp ****     // Assign Output Buffers
  35:PluckEcho.cpp ****     float *out_left, *out_right;
 338              		.loc 17 35 5 view .LVU54
  36:PluckEcho.cpp ****     out_left  = out[0];
 339              		.loc 17 36 5 view .LVU55
  27:PluckEcho.cpp ****     float sig, delsig;           // Mono Audio Vars
 340              		.loc 17 27 1 is_stmt 0 view .LVU56
 341 0000 2DE9F04F 		push	{r4, r5, r6, r7, r8, r9, r10, fp, lr}
 342              		.cfi_def_cfa_offset 36
 343              		.cfi_offset 4, -36
 344              		.cfi_offset 5, -32
 345              		.cfi_offset 6, -28
 346              		.cfi_offset 7, -24
 347              		.cfi_offset 8, -20
 348              		.cfi_offset 9, -16
 349              		.cfi_offset 10, -12
 350              		.cfi_offset 11, -8
 351              		.cfi_offset 14, -4
  37:PluckEcho.cpp ****     out_right = out[1];
  38:PluckEcho.cpp **** 
  39:PluckEcho.cpp ****     samplerate = hw.AudioSampleRate();
 352              		.loc 17 39 36 view .LVU57
 353 0004 974C     		ldr	r4, .L34
  27:PluckEcho.cpp ****     float sig, delsig;           // Mono Audio Vars
 354              		.loc 17 27 1 view .LVU58
 355 0006 1546     		mov	r5, r2
 356 0008 2DED068B 		vpush.64	{d8, d9, d10}
 357              		.cfi_def_cfa_offset 60
 358              		.cfi_offset 80, -60
 359              		.cfi_offset 81, -56
 360              		.cfi_offset 82, -52
 361              		.cfi_offset 83, -48
 362              		.cfi_offset 84, -44
 363              		.cfi_offset 85, -40
 364              		.loc 17 39 36 view .LVU59
 365 000c 2046     		mov	r0, r4
 366              	.LVL14:
  27:PluckEcho.cpp ****     float sig, delsig;           // Mono Audio Vars
 367              		.loc 17 27 1 view .LVU60
 368 000e 89B0     		sub	sp, sp, #36
 369              		.cfi_def_cfa_offset 96
  37:PluckEcho.cpp ****     out_right = out[1];
 370              		.loc 17 37 15 view .LVU61
 371 0010 D1E90067 		ldrd	r6, r7, [r1]
 372              	.LVL15:
 373              		.loc 17 39 5 is_stmt 1 view .LVU62
 374              		.loc 17 39 36 is_stmt 0 view .LVU63
 375 0014 FFF7FEFF 		bl	_ZN5daisy10DaisyPatch15AudioSampleRateEv
 376              	.LVL16:
  40:PluckEcho.cpp ****     hw.ProcessDigitalControls();
 377              		.loc 17 40 30 view .LVU64
 378 0018 2046     		mov	r0, r4
  39:PluckEcho.cpp ****     hw.ProcessDigitalControls();
 379              		.loc 17 39 36 view .LVU65
 380 001a F0EE409A 		vmov.f32	s19, s0
 381              	.LVL17:
ARM GAS  /tmp/cc5sXaZv.s 			page 27


 382              		.loc 17 40 5 is_stmt 1 view .LVU66
 383              		.loc 17 40 30 is_stmt 0 view .LVU67
 384 001e FFF7FEFF 		bl	_ZN5daisy10DaisyPatch22ProcessDigitalControlsEv
 385              	.LVL18:
  41:PluckEcho.cpp ****     hw.ProcessAnalogControls();
 386              		.loc 17 41 5 is_stmt 1 view .LVU68
 387              		.loc 17 41 29 is_stmt 0 view .LVU69
 388 0022 2046     		mov	r0, r4
 389 0024 FFF7FEFF 		bl	_ZN5daisy10DaisyPatch21ProcessAnalogControlsEv
 390              	.LVL19:
  42:PluckEcho.cpp **** 
  43:PluckEcho.cpp ****     // Handle Triggering the Plucks
  44:PluckEcho.cpp ****     trig = 0.0f;
 391              		.loc 17 44 5 is_stmt 1 view .LVU70
  45:PluckEcho.cpp ****     if(hw.encoder.RisingEdge() || hw.gate_input[DaisyPatch::GATE_IN_1].Trig())
 392              		.loc 17 45 5 view .LVU71
 393              	.LBB687:
 394              	.LBI687:
  22:../../libdaisy/src/hid/encoder.h **** 
  23:../../libdaisy/src/hid/encoder.h ****     /** Initializes the encoder with the specified hardware pins.
  24:../../libdaisy/src/hid/encoder.h **** */
  25:../../libdaisy/src/hid/encoder.h ****     //
  26:../../libdaisy/src/hid/encoder.h ****     /** Update rate should be the rate at which Debounce() gets called
  27:../../libdaisy/src/hid/encoder.h **** in Hertz.
  28:../../libdaisy/src/hid/encoder.h **** */
  29:../../libdaisy/src/hid/encoder.h ****     //
  30:../../libdaisy/src/hid/encoder.h ****     void
  31:../../libdaisy/src/hid/encoder.h ****     Init(dsy_gpio_pin a, dsy_gpio_pin b, dsy_gpio_pin click, float update_rate);
  32:../../libdaisy/src/hid/encoder.h ****     /** Called at update_rate to debounce and handle timing for the switch.
  33:../../libdaisy/src/hid/encoder.h **** */
  34:../../libdaisy/src/hid/encoder.h ****     //
  35:../../libdaisy/src/hid/encoder.h ****     /** In order for events not to be missed, its important that the Edge/Pressed checks
  36:../../libdaisy/src/hid/encoder.h **** be made at the same rate as the debounce function is being called.
  37:../../libdaisy/src/hid/encoder.h **** */
  38:../../libdaisy/src/hid/encoder.h ****     void Debounce();
  39:../../libdaisy/src/hid/encoder.h ****     /** Returns +1 if the encoder was turned clockwise, -1 if it was turned counter-clockwise, or 0
  40:../../libdaisy/src/hid/encoder.h **** */
  41:../../libdaisy/src/hid/encoder.h ****     inline int32_t Increment() const { return inc_; }
  42:../../libdaisy/src/hid/encoder.h ****     /** Returns true if the encoder was just pressed.
  43:../../libdaisy/src/hid/encoder.h **** */
  44:../../libdaisy/src/hid/encoder.h ****     inline bool RisingEdge() const { return sw_.RisingEdge(); }
 395              		.loc 5 44 17 view .LVU72
 396              	.LBB688:
 397              		.loc 5 44 38 view .LVU73
 398              		.loc 5 44 38 is_stmt 0 view .LVU74
 399              	.LBE688:
 400              	.LBE687:
  42:../../libdaisy/src/hid/switch.h **** 
  43:../../libdaisy/src/hid/switch.h ****     /** 
  44:../../libdaisy/src/hid/switch.h ****     Initializes the switch object with a given port/pin combo.
  45:../../libdaisy/src/hid/switch.h ****     \param pin port/pin object to tell the switch which hardware pin to use.
  46:../../libdaisy/src/hid/switch.h ****     \param update_rate the rate at which the Debounce() function will be called. (used for timing).
  47:../../libdaisy/src/hid/switch.h ****     \param t switch type -- Default: TYPE_MOMENTARY
  48:../../libdaisy/src/hid/switch.h ****     \param pol switch polarity -- Default: POLARITY_INVERTED
  49:../../libdaisy/src/hid/switch.h ****     \param pu switch pull up/down -- Default: PULL_UP
  50:../../libdaisy/src/hid/switch.h ****     */
  51:../../libdaisy/src/hid/switch.h ****     void
ARM GAS  /tmp/cc5sXaZv.s 			page 28


  52:../../libdaisy/src/hid/switch.h ****     Init(dsy_gpio_pin pin, float update_rate, Type t, Polarity pol, Pull pu);
  53:../../libdaisy/src/hid/switch.h **** 
  54:../../libdaisy/src/hid/switch.h ****     /**
  55:../../libdaisy/src/hid/switch.h ****        Simplified Init.
  56:../../libdaisy/src/hid/switch.h ****        \param pin port/pin object to tell the switch which hardware pin to use.
  57:../../libdaisy/src/hid/switch.h ****        \param update_rate the rate at which the Debounce() function will be called. (used for timin
  58:../../libdaisy/src/hid/switch.h ****     */
  59:../../libdaisy/src/hid/switch.h ****     void Init(dsy_gpio_pin pin, float update_rate);
  60:../../libdaisy/src/hid/switch.h **** 
  61:../../libdaisy/src/hid/switch.h ****     /** 
  62:../../libdaisy/src/hid/switch.h ****     Called at update_rate to debounce and handle timing for the switch.
  63:../../libdaisy/src/hid/switch.h ****     In order for events not to be missed, its important that the Edge/Pressed checks
  64:../../libdaisy/src/hid/switch.h ****     be made at the same rate as the debounce function is being called.
  65:../../libdaisy/src/hid/switch.h ****     */
  66:../../libdaisy/src/hid/switch.h ****     void Debounce();
  67:../../libdaisy/src/hid/switch.h **** 
  68:../../libdaisy/src/hid/switch.h ****     /** \return true if a button was just pressed. */
  69:../../libdaisy/src/hid/switch.h ****     inline bool RisingEdge() const { return state_ == 0x7f; }
 401              		.loc 6 69 38 is_stmt 1 view .LVU75
 402              		.loc 17 45 32 is_stmt 0 view .LVU76
 403 0028 94F84130 		ldrb	r3, [r4, #65]	@ zero_extendqisi2
 404 002c 7F2B     		cmp	r3, #127
 405 002e 40F00F81 		bne	.L13
 406              	.L15:
  46:PluckEcho.cpp ****         trig = 1.0f;
 407              		.loc 17 46 14 view .LVU77
 408 0032 F7EE008A 		vmov.f32	s17, #1.0e+0
 409              	.L14:
 410              	.LVL20:
  47:PluckEcho.cpp **** 
  48:PluckEcho.cpp ****     // Set MIDI Note for new Pluck notes.
  49:PluckEcho.cpp ****     nn = 24.0f + hw.GetKnobValue(DaisyPatch::CTRL_1) * 60.0f;
 411              		.loc 17 49 5 is_stmt 1 view .LVU78
 412              		.loc 17 49 33 is_stmt 0 view .LVU79
 413 0036 0021     		movs	r1, #0
 414 0038 8A48     		ldr	r0, .L34
 415 003a FFF7FEFF 		bl	_ZN5daisy10DaisyPatch12GetKnobValueENS0_4CtrlE
 416              	.LVL21:
 417              		.loc 17 49 8 view .LVU80
 418 003e F3EE087A 		vmov.f32	s15, #2.4e+1
 419 0042 9FED897A 		vldr.32	s14, .L34+4
  50:PluckEcho.cpp ****     nn = static_cast<int32_t>(nn); // Quantize to semitones
  51:PluckEcho.cpp **** 
  52:PluckEcho.cpp ****     // Read knobs for decay;
  53:PluckEcho.cpp ****     decay = 0.5f + (hw.GetKnobValue(DaisyPatch::CTRL_2) * 0.5f);
 420              		.loc 17 53 36 view .LVU81
 421 0046 0121     		movs	r1, #1
 422 0048 8648     		ldr	r0, .L34
  49:PluckEcho.cpp ****     nn = static_cast<int32_t>(nn); // Quantize to semitones
 423              		.loc 17 49 8 view .LVU82
 424 004a E0EE077A 		vfma.f32	s15, s0, s14
 425              	.LVL22:
  50:PluckEcho.cpp ****     nn = static_cast<int32_t>(nn); // Quantize to semitones
 426              		.loc 17 50 5 is_stmt 1 view .LVU83
  54:PluckEcho.cpp ****     synth.SetDecay(decay);
  55:PluckEcho.cpp **** 
  56:PluckEcho.cpp ****     // Get Delay Parameters from knobs.
ARM GAS  /tmp/cc5sXaZv.s 			page 29


  57:PluckEcho.cpp ****     kval    = hw.GetKnobValue(DaisyPatch::CTRL_3);
  58:PluckEcho.cpp ****     deltime = (0.001f + (kval * kval) * 5.0f) * samplerate;
 427              		.loc 17 58 23 is_stmt 0 view .LVU84
 428 004e 9FED879A 		vldr.32	s18, .L34+8
  50:PluckEcho.cpp **** 
 429              		.loc 17 50 10 view .LVU85
 430 0052 FDEEE77A 		vcvt.s32.f32	s15, s15
 431              	.LVL23:
  50:PluckEcho.cpp **** 
 432              		.loc 17 50 8 view .LVU86
 433 0056 B8EEE78A 		vcvt.f32.s32	s16, s15
 434              	.LVL24:
  53:PluckEcho.cpp ****     synth.SetDecay(decay);
 435              		.loc 17 53 5 is_stmt 1 view .LVU87
  53:PluckEcho.cpp ****     synth.SetDecay(decay);
 436              		.loc 17 53 36 is_stmt 0 view .LVU88
 437 005a FFF7FEFF 		bl	_ZN5daisy10DaisyPatch12GetKnobValueENS0_4CtrlE
 438              	.LVL25:
  53:PluckEcho.cpp ****     synth.SetDecay(decay);
 439              		.loc 17 53 11 view .LVU89
 440 005e F6EE007A 		vmov.f32	s15, #5.0e-1
 441              	.LBB689:
 442              	.LBB690:
  24:../../DaisySP/Source/PhysicalModeling/PolyPluck.h **** {
  25:../../DaisySP/Source/PhysicalModeling/PolyPluck.h ****   public:
  26:../../DaisySP/Source/PhysicalModeling/PolyPluck.h ****     /** Initializes the PolyPluck instance.
  27:../../DaisySP/Source/PhysicalModeling/PolyPluck.h ****         \param sample_rate: rate in Hz that the Process() function will be called.
  28:../../DaisySP/Source/PhysicalModeling/PolyPluck.h ****     */
  29:../../DaisySP/Source/PhysicalModeling/PolyPluck.h ****     void Init(float sample_rate)
  30:../../DaisySP/Source/PhysicalModeling/PolyPluck.h ****     {
  31:../../DaisySP/Source/PhysicalModeling/PolyPluck.h ****         active_voice_ = 0;
  32:../../DaisySP/Source/PhysicalModeling/PolyPluck.h ****         p_damp_       = 0.95f;
  33:../../DaisySP/Source/PhysicalModeling/PolyPluck.h ****         p_decay_      = 0.75f;
  34:../../DaisySP/Source/PhysicalModeling/PolyPluck.h ****         for(size_t i = 0; i < num_voices; i++)
  35:../../DaisySP/Source/PhysicalModeling/PolyPluck.h ****         {
  36:../../DaisySP/Source/PhysicalModeling/PolyPluck.h ****             plk_[i].Init(sample_rate, plkbuff_[i], 256, PLUCK_MODE_RECURSIVE);
  37:../../DaisySP/Source/PhysicalModeling/PolyPluck.h ****             plk_[i].SetDamp(0.85f);
  38:../../DaisySP/Source/PhysicalModeling/PolyPluck.h ****             plk_[i].SetAmp(0.18f);
  39:../../DaisySP/Source/PhysicalModeling/PolyPluck.h ****             plk_[i].SetDecay(0.85f);
  40:../../DaisySP/Source/PhysicalModeling/PolyPluck.h ****         }
  41:../../DaisySP/Source/PhysicalModeling/PolyPluck.h ****         blk_.Init(sample_rate);
  42:../../DaisySP/Source/PhysicalModeling/PolyPluck.h ****     }
  43:../../DaisySP/Source/PhysicalModeling/PolyPluck.h **** 
  44:../../DaisySP/Source/PhysicalModeling/PolyPluck.h ****     /** Process function, synthesizes and sums the output of all voices,
  45:../../DaisySP/Source/PhysicalModeling/PolyPluck.h ****         triggering a new voice with frequency of MIDI note number when trig > 0.
  46:../../DaisySP/Source/PhysicalModeling/PolyPluck.h **** 
  47:../../DaisySP/Source/PhysicalModeling/PolyPluck.h ****         \param trig: value by reference of trig. When trig > 0 a the next voice will be triggered, 
  48:../../DaisySP/Source/PhysicalModeling/PolyPluck.h ****         \param note: MIDI note number for the active_voice.
  49:../../DaisySP/Source/PhysicalModeling/PolyPluck.h ****     */
  50:../../DaisySP/Source/PhysicalModeling/PolyPluck.h ****     float Process(float &trig, float note)
  51:../../DaisySP/Source/PhysicalModeling/PolyPluck.h ****     {
  52:../../DaisySP/Source/PhysicalModeling/PolyPluck.h ****         float sig, tval;
  53:../../DaisySP/Source/PhysicalModeling/PolyPluck.h ****         sig = 0.0f;
  54:../../DaisySP/Source/PhysicalModeling/PolyPluck.h ****         if(trig > 0.0f)
  55:../../DaisySP/Source/PhysicalModeling/PolyPluck.h ****         {
  56:../../DaisySP/Source/PhysicalModeling/PolyPluck.h ****             // increment active voice
  57:../../DaisySP/Source/PhysicalModeling/PolyPluck.h ****             active_voice_ = (active_voice_ + 1) % num_voices;
ARM GAS  /tmp/cc5sXaZv.s 			page 30


  58:../../DaisySP/Source/PhysicalModeling/PolyPluck.h ****             // set new voice to new note
  59:../../DaisySP/Source/PhysicalModeling/PolyPluck.h ****             plk_[active_voice_].SetDamp(p_damp_);
  60:../../DaisySP/Source/PhysicalModeling/PolyPluck.h ****             plk_[active_voice_].SetDecay(p_decay_);
  61:../../DaisySP/Source/PhysicalModeling/PolyPluck.h ****             plk_[active_voice_].SetAmp(0.25f);
  62:../../DaisySP/Source/PhysicalModeling/PolyPluck.h ****         }
  63:../../DaisySP/Source/PhysicalModeling/PolyPluck.h ****         plk_[active_voice_].SetFreq(mtof(note));
  64:../../DaisySP/Source/PhysicalModeling/PolyPluck.h **** 
  65:../../DaisySP/Source/PhysicalModeling/PolyPluck.h ****         for(size_t i = 0; i < num_voices; i++)
  66:../../DaisySP/Source/PhysicalModeling/PolyPluck.h ****         {
  67:../../DaisySP/Source/PhysicalModeling/PolyPluck.h ****             tval = (trig > 0.0f && i == active_voice_) ? 1.0f : 0.0f;
  68:../../DaisySP/Source/PhysicalModeling/PolyPluck.h ****             sig += plk_[i].Process(tval);
  69:../../DaisySP/Source/PhysicalModeling/PolyPluck.h ****         }
  70:../../DaisySP/Source/PhysicalModeling/PolyPluck.h ****         if(trig > 0.0f)
  71:../../DaisySP/Source/PhysicalModeling/PolyPluck.h ****             trig = 0.0f;
  72:../../DaisySP/Source/PhysicalModeling/PolyPluck.h ****         return blk_.Process(sig);
  73:../../DaisySP/Source/PhysicalModeling/PolyPluck.h ****     }
  74:../../DaisySP/Source/PhysicalModeling/PolyPluck.h **** 
  75:../../DaisySP/Source/PhysicalModeling/PolyPluck.h ****     /** Sets the decay coefficients of the pluck voices. 
  76:../../DaisySP/Source/PhysicalModeling/PolyPluck.h ****         \param p expects 0.0-1.0 input.
  77:../../DaisySP/Source/PhysicalModeling/PolyPluck.h ****     */
  78:../../DaisySP/Source/PhysicalModeling/PolyPluck.h ****     void SetDecay(float p) { p_damp_ = p; }
 443              		.loc 13 78 30 view .LVU90
 444 0062 834B     		ldr	r3, .L34+12
 445              	.LBE690:
 446              	.LBE689:
  57:PluckEcho.cpp ****     deltime = (0.001f + (kval * kval) * 5.0f) * samplerate;
 447              		.loc 17 57 30 view .LVU91
 448 0064 0221     		movs	r1, #2
 449 0066 7F48     		ldr	r0, .L34
  53:PluckEcho.cpp ****     synth.SetDecay(decay);
 450              		.loc 17 53 11 view .LVU92
 451 0068 E0EE277A 		vfma.f32	s15, s0, s15
 452              	.LVL26:
  54:PluckEcho.cpp **** 
 453              		.loc 17 54 5 is_stmt 1 view .LVU93
 454              	.LBB692:
 455              	.LBI689:
 456              		.loc 13 78 10 view .LVU94
 457              	.LBB691:
 458              		.loc 13 78 30 is_stmt 0 view .LVU95
 459 006c C3ED007A 		vstr.32	s15, [r3]
 460              	.LVL27:
 461              		.loc 13 78 30 view .LVU96
 462              	.LBE691:
 463              	.LBE692:
  57:PluckEcho.cpp ****     deltime = (0.001f + (kval * kval) * 5.0f) * samplerate;
 464              		.loc 17 57 5 is_stmt 1 view .LVU97
  57:PluckEcho.cpp ****     deltime = (0.001f + (kval * kval) * 5.0f) * samplerate;
 465              		.loc 17 57 30 is_stmt 0 view .LVU98
 466 0070 FFF7FEFF 		bl	_ZN5daisy10DaisyPatch12GetKnobValueENS0_4CtrlE
 467              	.LVL28:
 468              		.loc 17 58 5 is_stmt 1 view .LVU99
 469              		.loc 17 58 23 is_stmt 0 view .LVU100
 470 0074 B1EE047A 		vmov.f32	s14, #5.0e+0
 471              		.loc 17 58 31 view .LVU101
 472 0078 60EE007A 		vmul.f32	s15, s0, s0
  59:PluckEcho.cpp ****     delfb   = hw.GetKnobValue(DaisyPatch::CTRL_4);
ARM GAS  /tmp/cc5sXaZv.s 			page 31


 473              		.loc 17 59 30 view .LVU102
 474 007c 0321     		movs	r1, #3
 475 007e 7948     		ldr	r0, .L34
  58:PluckEcho.cpp ****     delfb   = hw.GetKnobValue(DaisyPatch::CTRL_4);
 476              		.loc 17 58 23 view .LVU103
 477 0080 A7EE879A 		vfma.f32	s18, s15, s14
 478              		.loc 17 59 30 view .LVU104
 479 0084 FFF7FEFF 		bl	_ZN5daisy10DaisyPatch12GetKnobValueENS0_4CtrlE
 480              	.LVL29:
  58:PluckEcho.cpp ****     delfb   = hw.GetKnobValue(DaisyPatch::CTRL_4);
 481              		.loc 17 58 13 view .LVU105
 482 0088 29EE299A 		vmul.f32	s18, s18, s19
 483              	.LVL30:
 484              		.loc 17 59 5 is_stmt 1 view .LVU106
 485              		.loc 17 59 30 is_stmt 0 view .LVU107
 486 008c F0EE409A 		vmov.f32	s19, s0
 487              	.LVL31:
  60:PluckEcho.cpp **** 
  61:PluckEcho.cpp ****     // Synthesis.
  62:PluckEcho.cpp ****     for(size_t i = 0; i < size; i++)
 488              		.loc 17 62 5 is_stmt 1 view .LVU108
 489              	.LBB693:
 490              		.loc 17 62 25 view .LVU109
 491 0090 002D     		cmp	r5, #0
 492 0092 00F0D180 		beq	.L12
 493              	.LBB694:
 494              	.LBB695:
 495              	.LBB696:
 496              	.LBB697:
 497              		.file 18 "../../DaisySP/Source/Utility/dsp.h"
   1:../../DaisySP/Source/Utility/dsp.h **** /** Helpful defines, functions, and other utilities for use in/with daisysp modules.
   2:../../DaisySP/Source/Utility/dsp.h **** */
   3:../../DaisySP/Source/Utility/dsp.h **** #pragma once
   4:../../DaisySP/Source/Utility/dsp.h **** #ifndef DSY_CORE_DSP
   5:../../DaisySP/Source/Utility/dsp.h **** #define DSY_CORE_DSP
   6:../../DaisySP/Source/Utility/dsp.h **** #include <cassert>
   7:../../DaisySP/Source/Utility/dsp.h **** #include <cstdint>
   8:../../DaisySP/Source/Utility/dsp.h **** #include <random>
   9:../../DaisySP/Source/Utility/dsp.h **** #include <cmath>
  10:../../DaisySP/Source/Utility/dsp.h **** 
  11:../../DaisySP/Source/Utility/dsp.h **** /** PIs
  12:../../DaisySP/Source/Utility/dsp.h **** */
  13:../../DaisySP/Source/Utility/dsp.h **** #define PI_F 3.1415927410125732421875f
  14:../../DaisySP/Source/Utility/dsp.h **** #define TWOPI_F (2.0f * PI_F)
  15:../../DaisySP/Source/Utility/dsp.h **** #define HALFPI_F (PI_F * 0.5f)
  16:../../DaisySP/Source/Utility/dsp.h **** #define DSY_MIN(in, mn) (in < mn ? in : mn)
  17:../../DaisySP/Source/Utility/dsp.h **** #define DSY_MAX(in, mx) (in > mx ? in : mx)
  18:../../DaisySP/Source/Utility/dsp.h **** #define DSY_CLAMP(in, mn, mx) (DSY_MIN(DSY_MAX(in, mn), mx))
  19:../../DaisySP/Source/Utility/dsp.h **** #define DSY_COUNTOF(_arr) (sizeof(_arr) / sizeof(_arr[0]))
  20:../../DaisySP/Source/Utility/dsp.h **** 
  21:../../DaisySP/Source/Utility/dsp.h **** namespace daisysp
  22:../../DaisySP/Source/Utility/dsp.h **** {
  23:../../DaisySP/Source/Utility/dsp.h **** //Avoids division for random floats. e.g. rand() * kRandFrac
  24:../../DaisySP/Source/Utility/dsp.h **** static constexpr float kRandFrac = 1.f / (float)RAND_MAX;
  25:../../DaisySP/Source/Utility/dsp.h **** 
  26:../../DaisySP/Source/Utility/dsp.h **** //Convert from semitones to other units. e.g. 2 ^ (kOneTwelfth * x)
  27:../../DaisySP/Source/Utility/dsp.h **** static constexpr float kOneTwelfth = 1.f / 12.f;
ARM GAS  /tmp/cc5sXaZv.s 			page 32


  28:../../DaisySP/Source/Utility/dsp.h **** 
  29:../../DaisySP/Source/Utility/dsp.h **** /** efficient floating point min/max
  30:../../DaisySP/Source/Utility/dsp.h **** c/o stephen mccaul
  31:../../DaisySP/Source/Utility/dsp.h **** */
  32:../../DaisySP/Source/Utility/dsp.h **** inline float fmax(float a, float b)
  33:../../DaisySP/Source/Utility/dsp.h **** {
  34:../../DaisySP/Source/Utility/dsp.h ****     float r;
  35:../../DaisySP/Source/Utility/dsp.h **** #ifdef __arm__
  36:../../DaisySP/Source/Utility/dsp.h ****     asm("vmaxnm.f32 %[d], %[n], %[m]" : [d] "=t"(r) : [n] "t"(a), [m] "t"(b) :);
  37:../../DaisySP/Source/Utility/dsp.h **** #else
  38:../../DaisySP/Source/Utility/dsp.h ****     r = (a > b) ? a : b;
  39:../../DaisySP/Source/Utility/dsp.h **** #endif // __arm__
  40:../../DaisySP/Source/Utility/dsp.h ****     return r;
  41:../../DaisySP/Source/Utility/dsp.h **** }
  42:../../DaisySP/Source/Utility/dsp.h **** 
  43:../../DaisySP/Source/Utility/dsp.h **** inline float fmin(float a, float b)
  44:../../DaisySP/Source/Utility/dsp.h **** {
  45:../../DaisySP/Source/Utility/dsp.h ****     float r;
  46:../../DaisySP/Source/Utility/dsp.h **** #ifdef __arm__
  47:../../DaisySP/Source/Utility/dsp.h ****     asm("vminnm.f32 %[d], %[n], %[m]" : [d] "=t"(r) : [n] "t"(a), [m] "t"(b) :);
  48:../../DaisySP/Source/Utility/dsp.h **** #else
  49:../../DaisySP/Source/Utility/dsp.h ****     r = (a < b) ? a : b;
  50:../../DaisySP/Source/Utility/dsp.h **** #endif // __arm__
  51:../../DaisySP/Source/Utility/dsp.h ****     return r;
  52:../../DaisySP/Source/Utility/dsp.h **** }
  53:../../DaisySP/Source/Utility/dsp.h **** 
  54:../../DaisySP/Source/Utility/dsp.h **** /** quick fp clamp
  55:../../DaisySP/Source/Utility/dsp.h **** */
  56:../../DaisySP/Source/Utility/dsp.h **** inline float fclamp(float in, float min, float max)
  57:../../DaisySP/Source/Utility/dsp.h **** {
  58:../../DaisySP/Source/Utility/dsp.h ****     return fmin(fmax(in, min), max);
  59:../../DaisySP/Source/Utility/dsp.h **** }
  60:../../DaisySP/Source/Utility/dsp.h **** 
  61:../../DaisySP/Source/Utility/dsp.h **** /** From Musicdsp.org "Fast power and root estimates for 32bit floats)
  62:../../DaisySP/Source/Utility/dsp.h **** Original code by Stefan Stenzel
  63:../../DaisySP/Source/Utility/dsp.h **** These are approximations
  64:../../DaisySP/Source/Utility/dsp.h **** */
  65:../../DaisySP/Source/Utility/dsp.h **** inline float fastpower(float f, int n)
  66:../../DaisySP/Source/Utility/dsp.h **** {
  67:../../DaisySP/Source/Utility/dsp.h ****     long *lp, l;
  68:../../DaisySP/Source/Utility/dsp.h ****     lp = (long *)(&f);
  69:../../DaisySP/Source/Utility/dsp.h ****     l  = *lp;
  70:../../DaisySP/Source/Utility/dsp.h ****     l -= 0x3F800000;
  71:../../DaisySP/Source/Utility/dsp.h ****     l <<= (n - 1);
  72:../../DaisySP/Source/Utility/dsp.h ****     l += 0x3F800000;
  73:../../DaisySP/Source/Utility/dsp.h ****     *lp = l;
  74:../../DaisySP/Source/Utility/dsp.h ****     return f;
  75:../../DaisySP/Source/Utility/dsp.h **** }
  76:../../DaisySP/Source/Utility/dsp.h **** 
  77:../../DaisySP/Source/Utility/dsp.h **** inline float fastroot(float f, int n)
  78:../../DaisySP/Source/Utility/dsp.h **** {
  79:../../DaisySP/Source/Utility/dsp.h ****     long *lp, l;
  80:../../DaisySP/Source/Utility/dsp.h ****     lp = (long *)(&f);
  81:../../DaisySP/Source/Utility/dsp.h ****     l  = *lp;
  82:../../DaisySP/Source/Utility/dsp.h ****     l -= 0x3F800000;
  83:../../DaisySP/Source/Utility/dsp.h ****     l >>= (n = 1);
  84:../../DaisySP/Source/Utility/dsp.h ****     l += 0x3F800000;
ARM GAS  /tmp/cc5sXaZv.s 			page 33


  85:../../DaisySP/Source/Utility/dsp.h ****     *lp = l;
  86:../../DaisySP/Source/Utility/dsp.h ****     return f;
  87:../../DaisySP/Source/Utility/dsp.h **** }
  88:../../DaisySP/Source/Utility/dsp.h **** 
  89:../../DaisySP/Source/Utility/dsp.h **** /** From http://openaudio.blogspot.com/2017/02/faster-log10-and-pow.html
  90:../../DaisySP/Source/Utility/dsp.h **** No approximation, pow10f(x) gives a 90% speed increase over powf(10.f, x)
  91:../../DaisySP/Source/Utility/dsp.h **** */
  92:../../DaisySP/Source/Utility/dsp.h **** inline float pow10f(float f)
  93:../../DaisySP/Source/Utility/dsp.h **** {
  94:../../DaisySP/Source/Utility/dsp.h ****     return expf(2.302585092994046f * f);
  95:../../DaisySP/Source/Utility/dsp.h **** }
  96:../../DaisySP/Source/Utility/dsp.h **** 
  97:../../DaisySP/Source/Utility/dsp.h **** /* Original code for fastlog2f by Dr. Paul Beckmann from the ARM community forum, adapted from the 
  98:../../DaisySP/Source/Utility/dsp.h **** About 25% performance increase over std::log10f
  99:../../DaisySP/Source/Utility/dsp.h **** */
 100:../../DaisySP/Source/Utility/dsp.h **** inline float fastlog2f(float f)
 101:../../DaisySP/Source/Utility/dsp.h **** {
 102:../../DaisySP/Source/Utility/dsp.h ****     float frac;
 103:../../DaisySP/Source/Utility/dsp.h ****     int   exp;
 104:../../DaisySP/Source/Utility/dsp.h ****     frac = frexpf(fabsf(f), &exp);
 105:../../DaisySP/Source/Utility/dsp.h ****     f    = 1.23149591368684f;
 106:../../DaisySP/Source/Utility/dsp.h ****     f *= frac;
 107:../../DaisySP/Source/Utility/dsp.h ****     f += -4.11852516267426f;
 108:../../DaisySP/Source/Utility/dsp.h ****     f *= frac;
 109:../../DaisySP/Source/Utility/dsp.h ****     f += 6.02197014179219f;
 110:../../DaisySP/Source/Utility/dsp.h ****     f *= frac;
 111:../../DaisySP/Source/Utility/dsp.h ****     f += -3.13396450166353f;
 112:../../DaisySP/Source/Utility/dsp.h ****     f += exp;
 113:../../DaisySP/Source/Utility/dsp.h ****     return (f);
 114:../../DaisySP/Source/Utility/dsp.h **** }
 115:../../DaisySP/Source/Utility/dsp.h **** 
 116:../../DaisySP/Source/Utility/dsp.h **** inline float fastlog10f(float f)
 117:../../DaisySP/Source/Utility/dsp.h **** {
 118:../../DaisySP/Source/Utility/dsp.h ****     return fastlog2f(f) * 0.3010299956639812f;
 119:../../DaisySP/Source/Utility/dsp.h **** }
 120:../../DaisySP/Source/Utility/dsp.h **** 
 121:../../DaisySP/Source/Utility/dsp.h **** /** Midi to frequency helper
 122:../../DaisySP/Source/Utility/dsp.h **** */
 123:../../DaisySP/Source/Utility/dsp.h **** inline float mtof(float m)
 124:../../DaisySP/Source/Utility/dsp.h **** {
 125:../../DaisySP/Source/Utility/dsp.h ****     return powf(2, (m - 69.0f) / 12.0f) * 440.0f;
 498              		.loc 18 125 23 is_stmt 0 view .LVU110
 499 0096 DFED777A 		vldr.32	s15, .L34+16
 500              		.loc 18 125 16 view .LVU111
 501 009a B2EE087A 		vmov.f32	s14, #1.2e+1
 502 009e B846     		mov	r8, r7
 503 00a0 06EB8503 		add	r3, r6, r5, lsl #2
 504              		.loc 18 125 23 view .LVU112
 505 00a4 78EE677A 		vsub.f32	s15, s16, s15
 506 00a8 DFF8F491 		ldr	r9, .L34+60
 507 00ac 724C     		ldr	r4, .L34+20
 508 00ae 734F     		ldr	r7, .L34+24
 509              	.LVL32:
 510              		.loc 18 125 16 view .LVU113
 511 00b0 87EE87AA 		vdiv.f32	s20, s15, s14
 512 00b4 0393     		str	r3, [sp, #12]
 513              	.LVL33:
ARM GAS  /tmp/cc5sXaZv.s 			page 34


 514              	.L25:
 515              		.loc 18 125 16 view .LVU114
 516              	.LBE697:
 517              	.LBE696:
 518              	.LBE695:
 519              	.LBE694:
  63:PluckEcho.cpp ****     {
  64:PluckEcho.cpp ****         // Smooth delaytime, and set.
  65:PluckEcho.cpp ****         fonepole(smooth_time, deltime, 0.0005f);
 520              		.loc 17 65 9 is_stmt 1 view .LVU115
 521              	.LBB727:
 522              	.LBI727:
 126:../../DaisySP/Source/Utility/dsp.h **** }
 127:../../DaisySP/Source/Utility/dsp.h **** 
 128:../../DaisySP/Source/Utility/dsp.h **** 
 129:../../DaisySP/Source/Utility/dsp.h **** /** one pole lpf
 130:../../DaisySP/Source/Utility/dsp.h **** out is passed by reference, and must be retained between
 131:../../DaisySP/Source/Utility/dsp.h **** calls to properly filter the signal
 132:../../DaisySP/Source/Utility/dsp.h **** coeff can be calculated:
 133:../../DaisySP/Source/Utility/dsp.h **** coeff = 1.0 / (time * sample_rate) ; where time is in seconds
 134:../../DaisySP/Source/Utility/dsp.h **** */
 135:../../DaisySP/Source/Utility/dsp.h **** inline void fonepole(float &out, float in, float coeff)
 523              		.loc 18 135 13 view .LVU116
 524              	.LBB728:
 136:../../DaisySP/Source/Utility/dsp.h **** {
 137:../../DaisySP/Source/Utility/dsp.h ****     out += coeff * (in - out);
 525              		.loc 18 137 5 view .LVU117
 526              		.loc 18 137 9 is_stmt 0 view .LVU118
 527 00b6 D9ED007A 		vldr.32	s15, [r9]
 528 00ba 9FED717A 		vldr.32	s14, .L34+28
 529              	.LBE728:
 530              	.LBE727:
 531              	.LBB732:
 532              	.LBB733:
  25:../../DaisySP/Source/Utility/delayline.h ****     /** initializes the delay line by clearing the values within, and setting delay to 1 sample.
  26:../../DaisySP/Source/Utility/delayline.h ****     */
  27:../../DaisySP/Source/Utility/delayline.h ****     void Init() { Reset(); }
  28:../../DaisySP/Source/Utility/delayline.h ****     /** clears buffer, sets write ptr to 0, and delay to 1 sample.
  29:../../DaisySP/Source/Utility/delayline.h ****     */
  30:../../DaisySP/Source/Utility/delayline.h ****     void Reset()
  31:../../DaisySP/Source/Utility/delayline.h ****     {
  32:../../DaisySP/Source/Utility/delayline.h ****         for(size_t i = 0; i < max_size; i++)
  33:../../DaisySP/Source/Utility/delayline.h ****         {
  34:../../DaisySP/Source/Utility/delayline.h ****             line_[i] = T(0);
  35:../../DaisySP/Source/Utility/delayline.h ****         }
  36:../../DaisySP/Source/Utility/delayline.h ****         write_ptr_ = 0;
  37:../../DaisySP/Source/Utility/delayline.h ****         delay_     = 1;
  38:../../DaisySP/Source/Utility/delayline.h ****     }
  39:../../DaisySP/Source/Utility/delayline.h **** 
  40:../../DaisySP/Source/Utility/delayline.h ****     /** sets the delay time in samples
  41:../../DaisySP/Source/Utility/delayline.h ****         If a float is passed in, a fractional component will be calculated for interpolating the de
  42:../../DaisySP/Source/Utility/delayline.h ****     */
  43:../../DaisySP/Source/Utility/delayline.h ****     inline void SetDelay(size_t delay)
  44:../../DaisySP/Source/Utility/delayline.h ****     {
  45:../../DaisySP/Source/Utility/delayline.h ****         frac_  = 0.0f;
  46:../../DaisySP/Source/Utility/delayline.h ****         delay_ = delay < max_size ? delay : max_size - 1;
  47:../../DaisySP/Source/Utility/delayline.h ****     }
ARM GAS  /tmp/cc5sXaZv.s 			page 35


  48:../../DaisySP/Source/Utility/delayline.h **** 
  49:../../DaisySP/Source/Utility/delayline.h ****     /** sets the delay time in samples
  50:../../DaisySP/Source/Utility/delayline.h ****         If a float is passed in, a fractional component will be calculated for interpolating the de
  51:../../DaisySP/Source/Utility/delayline.h ****     */
  52:../../DaisySP/Source/Utility/delayline.h ****     inline void SetDelay(float delay)
  53:../../DaisySP/Source/Utility/delayline.h ****     {
  54:../../DaisySP/Source/Utility/delayline.h ****         int32_t int_delay = static_cast<int32_t>(delay);
  55:../../DaisySP/Source/Utility/delayline.h ****         frac_             = delay - static_cast<float>(int_delay);
  56:../../DaisySP/Source/Utility/delayline.h ****         delay_ = static_cast<size_t>(int_delay) < max_size ? int_delay
 533              		.loc 16 56 9 view .LVU119
 534 00be 714B     		ldr	r3, .L34+32
 535              	.LBE733:
 536              	.LBE732:
 537              	.LBB738:
 538              	.LBB729:
 539              		.loc 18 137 24 view .LVU120
 540 00c0 79EE676A 		vsub.f32	s13, s18, s15
 541              	.LBE729:
 542              	.LBE738:
 543              	.LBB739:
 544              	.LBB724:
  54:../../DaisySP/Source/PhysicalModeling/PolyPluck.h ****         {
 545              		.loc 13 54 9 view .LVU121
 546 00c4 F5EEC08A 		vcmpe.f32	s17, #0
 547              	.LBE724:
 548              	.LBE739:
 549              	.LBB740:
 550              	.LBB730:
 551              		.loc 18 137 9 view .LVU122
 552 00c8 E6EE877A 		vfma.f32	s15, s13, s14
 553              	.LBE730:
 554              	.LBE740:
 555              	.LBB741:
 556              	.LBB734:
  54:../../DaisySP/Source/Utility/delayline.h ****         frac_             = delay - static_cast<float>(int_delay);
 557              		.loc 16 54 17 view .LVU123
 558 00cc BDEEE77A 		vcvt.s32.f32	s14, s15
 559              	.LBE734:
 560              	.LBE741:
 561              	.LBB742:
 562              	.LBB731:
 563              		.loc 18 137 9 view .LVU124
 564 00d0 C9ED007A 		vstr.32	s15, [r9]
 565              	.LVL34:
 566              		.loc 18 137 9 view .LVU125
 567              	.LBE731:
 568              	.LBE742:
  66:PluckEcho.cpp ****         delay.SetDelay(smooth_time);
 569              		.loc 17 66 9 is_stmt 1 view .LVU126
 570              	.LBB743:
 571              	.LBI732:
  52:../../DaisySP/Source/Utility/delayline.h ****     {
 572              		.loc 16 52 17 view .LVU127
 573              	.LBB735:
 574              		.loc 16 56 9 is_stmt 0 view .LVU128
 575 00d4 17EE102A 		vmov	r2, s14	@ int
  55:../../DaisySP/Source/Utility/delayline.h ****         delay_ = static_cast<size_t>(int_delay) < max_size ? int_delay
ARM GAS  /tmp/cc5sXaZv.s 			page 36


 576              		.loc 16 55 35 view .LVU129
 577 00d8 F8EEC76A 		vcvt.f32.s32	s13, s14
 578              		.loc 16 56 9 view .LVU130
 579 00dc 9A42     		cmp	r2, r3
  55:../../DaisySP/Source/Utility/delayline.h ****         delay_ = static_cast<size_t>(int_delay) < max_size ? int_delay
 580              		.loc 16 55 35 view .LVU131
 581 00de 77EEE67A 		vsub.f32	s15, s15, s13
 582              	.LVL35:
 583              		.loc 16 56 9 view .LVU132
 584 00e2 28BF     		it	cs
 585 00e4 1A46     		movcs	r2, r3
 586              	.LBE735:
 587              	.LBE743:
 588              	.LBB744:
 589              	.LBB725:
  54:../../DaisySP/Source/PhysicalModeling/PolyPluck.h ****         {
 590              		.loc 13 54 9 view .LVU133
 591 00e6 F1EE10FA 		vmrs	APSR_nzcv, FPSCR
 592              	.LBE725:
 593              	.LBE744:
 594              	.LBB745:
 595              	.LBB736:
 596              		.loc 16 56 9 view .LVU134
 597 00ea A260     		str	r2, [r4, #8]
 598              	.LVL36:
 599              		.loc 16 56 9 view .LVU135
 600              	.LBE736:
 601              	.LBE745:
  67:PluckEcho.cpp **** 
  68:PluckEcho.cpp ****         // Synthesize Plucks
  69:PluckEcho.cpp ****         sig = synth.Process(trig, nn);
 602              		.loc 17 69 9 is_stmt 1 view .LVU136
 603              	.LBB746:
 604              	.LBI694:
  50:../../DaisySP/Source/PhysicalModeling/PolyPluck.h ****     {
 605              		.loc 13 50 11 view .LVU137
  50:../../DaisySP/Source/PhysicalModeling/PolyPluck.h ****     {
 606              		.loc 13 50 11 is_stmt 0 view .LVU138
 607              	.LBE746:
 608              	.LBB747:
 609              	.LBB737:
  55:../../DaisySP/Source/Utility/delayline.h ****         delay_ = static_cast<size_t>(int_delay) < max_size ? int_delay
 610              		.loc 16 55 9 view .LVU139
 611 00ec C4ED007A 		vstr.32	s15, [r4]
 612              	.LBE737:
 613              	.LBE747:
 614              	.LBB748:
 615              	.LBB726:
  54:../../DaisySP/Source/PhysicalModeling/PolyPluck.h ****         {
 616              		.loc 13 54 9 view .LVU140
 617 00f0 40F3A780 		ble	.L33
  57:../../DaisySP/Source/PhysicalModeling/PolyPluck.h ****             // set new voice to new note
 618              		.loc 13 57 44 view .LVU141
 619 00f4 3B68     		ldr	r3, [r7]
  59:../../DaisySP/Source/PhysicalModeling/PolyPluck.h ****             plk_[active_voice_].SetDecay(p_decay_);
 620              		.loc 13 59 13 view .LVU142
 621 00f6 3425     		movs	r5, #52
ARM GAS  /tmp/cc5sXaZv.s 			page 37


 622 00f8 5D4A     		ldr	r2, .L34+12
  57:../../DaisySP/Source/PhysicalModeling/PolyPluck.h ****             // set new voice to new note
 623              		.loc 13 57 44 view .LVU143
 624 00fa 0133     		adds	r3, r3, #1
  59:../../DaisySP/Source/PhysicalModeling/PolyPluck.h ****             plk_[active_voice_].SetDecay(p_decay_);
 625              		.loc 13 59 13 view .LVU144
 626 00fc 1068     		ldr	r0, [r2]	@ float
  60:../../DaisySP/Source/PhysicalModeling/PolyPluck.h ****             plk_[active_voice_].SetAmp(0.25f);
 627              		.loc 13 60 13 view .LVU145
 628 00fe 111D     		adds	r1, r2, #4
  57:../../DaisySP/Source/PhysicalModeling/PolyPluck.h ****             // set new voice to new note
 629              		.loc 13 57 49 view .LVU146
 630 0100 03F01F03 		and	r3, r3, #31
  59:../../DaisySP/Source/PhysicalModeling/PolyPluck.h ****             plk_[active_voice_].SetDecay(p_decay_);
 631              		.loc 13 59 13 view .LVU147
 632 0104 604A     		ldr	r2, .L34+36
 633 0106 05FB0325 		mla	r5, r5, r3, r2
 634              	.LBB702:
 635              	.LBB703:
 636              		.file 19 "../../DaisySP/Source/PhysicalModeling/pluck.h"
   1:../../DaisySP/Source/PhysicalModeling/pluck.h **** 
   2:../../DaisySP/Source/PhysicalModeling/pluck.h **** #pragma once
   3:../../DaisySP/Source/PhysicalModeling/pluck.h **** #ifndef DSY_PLUCK_H
   4:../../DaisySP/Source/PhysicalModeling/pluck.h **** #define DSY_PLUCK_H
   5:../../DaisySP/Source/PhysicalModeling/pluck.h **** 
   6:../../DaisySP/Source/PhysicalModeling/pluck.h **** #include <stdint.h>
   7:../../DaisySP/Source/PhysicalModeling/pluck.h **** #ifdef __cplusplus
   8:../../DaisySP/Source/PhysicalModeling/pluck.h **** 
   9:../../DaisySP/Source/PhysicalModeling/pluck.h **** namespace daisysp
  10:../../DaisySP/Source/PhysicalModeling/pluck.h **** {
  11:../../DaisySP/Source/PhysicalModeling/pluck.h **** /** The method of natural decay that the algorithm will use.
  12:../../DaisySP/Source/PhysicalModeling/pluck.h ****     - RECURSIVE: 1st order recursive filter, with coefs .5.
  13:../../DaisySP/Source/PhysicalModeling/pluck.h ****     - WEIGHTED_AVERAGE: weighted averaging. 
  14:../../DaisySP/Source/PhysicalModeling/pluck.h ****     */
  15:../../DaisySP/Source/PhysicalModeling/pluck.h **** enum
  16:../../DaisySP/Source/PhysicalModeling/pluck.h **** {
  17:../../DaisySP/Source/PhysicalModeling/pluck.h ****     PLUCK_MODE_RECURSIVE,
  18:../../DaisySP/Source/PhysicalModeling/pluck.h ****     PLUCK_MODE_WEIGHTED_AVERAGE,
  19:../../DaisySP/Source/PhysicalModeling/pluck.h ****     PLUCK_LAST,
  20:../../DaisySP/Source/PhysicalModeling/pluck.h **** };
  21:../../DaisySP/Source/PhysicalModeling/pluck.h **** 
  22:../../DaisySP/Source/PhysicalModeling/pluck.h **** /** Produces a naturally decaying plucked string or drum sound based on the Karplus-Strong algorith
  23:../../DaisySP/Source/PhysicalModeling/pluck.h **** 
  24:../../DaisySP/Source/PhysicalModeling/pluck.h ****     Ported from soundpipe to DaisySP
  25:../../DaisySP/Source/PhysicalModeling/pluck.h ****     
  26:../../DaisySP/Source/PhysicalModeling/pluck.h ****     This code was originally extracted from the Csound opcode "pluck"
  27:../../DaisySP/Source/PhysicalModeling/pluck.h **** 
  28:../../DaisySP/Source/PhysicalModeling/pluck.h ****     Original Author(s): Barry Vercoe, John ffitch
  29:../../DaisySP/Source/PhysicalModeling/pluck.h ****     Year: 1991
  30:../../DaisySP/Source/PhysicalModeling/pluck.h **** 
  31:../../DaisySP/Source/PhysicalModeling/pluck.h ****     Location: OOps/ugens4.c
  32:../../DaisySP/Source/PhysicalModeling/pluck.h ****     */
  33:../../DaisySP/Source/PhysicalModeling/pluck.h **** class Pluck
  34:../../DaisySP/Source/PhysicalModeling/pluck.h **** {
  35:../../DaisySP/Source/PhysicalModeling/pluck.h ****   public:
  36:../../DaisySP/Source/PhysicalModeling/pluck.h ****     Pluck() {}
  37:../../DaisySP/Source/PhysicalModeling/pluck.h ****     ~Pluck() {}
ARM GAS  /tmp/cc5sXaZv.s 			page 38


  38:../../DaisySP/Source/PhysicalModeling/pluck.h ****     /** Initializes the Pluck module.
  39:../../DaisySP/Source/PhysicalModeling/pluck.h **** 
  40:../../DaisySP/Source/PhysicalModeling/pluck.h ****             \param sample_rate: Sample rate of the audio engine being run.
  41:../../DaisySP/Source/PhysicalModeling/pluck.h ****             \param buf: buffer used as an impulse when triggering the Pluck algorithm
  42:../../DaisySP/Source/PhysicalModeling/pluck.h ****             \param npt: number of elementes in buf.
  43:../../DaisySP/Source/PhysicalModeling/pluck.h ****             \param mode: Sets the mode of the algorithm.
  44:../../DaisySP/Source/PhysicalModeling/pluck.h ****     */
  45:../../DaisySP/Source/PhysicalModeling/pluck.h ****     void Init(float sample_rate, float *buf, int32_t npt, int32_t mode);
  46:../../DaisySP/Source/PhysicalModeling/pluck.h **** 
  47:../../DaisySP/Source/PhysicalModeling/pluck.h **** 
  48:../../DaisySP/Source/PhysicalModeling/pluck.h ****     /** Processes the waveform to be generated, returning one sample. This should be called once pe
  49:../../DaisySP/Source/PhysicalModeling/pluck.h ****     */
  50:../../DaisySP/Source/PhysicalModeling/pluck.h ****     float Process(float &trig);
  51:../../DaisySP/Source/PhysicalModeling/pluck.h **** 
  52:../../DaisySP/Source/PhysicalModeling/pluck.h ****     /** 
  53:../../DaisySP/Source/PhysicalModeling/pluck.h ****         Sets the amplitude of the output signal.
  54:../../DaisySP/Source/PhysicalModeling/pluck.h ****         Input range: 0-1?
  55:../../DaisySP/Source/PhysicalModeling/pluck.h ****     */
  56:../../DaisySP/Source/PhysicalModeling/pluck.h ****     inline void SetAmp(float amp) { amp_ = amp; }
 637              		.loc 19 56 42 view .LVU148
 638 010a 4FF07A52 		mov	r2, #1048576000
 639              	.LBE703:
 640              	.LBE702:
  57:../../DaisySP/Source/PhysicalModeling/PolyPluck.h ****             // set new voice to new note
 641              		.loc 13 57 13 view .LVU149
 642 010e 3B60     		str	r3, [r7]
 643              	.LVL37:
 644              	.LBB706:
 645              	.LBI706:
  57:../../DaisySP/Source/PhysicalModeling/pluck.h ****     /** Sets the frequency of the output signal in Hz.
  58:../../DaisySP/Source/PhysicalModeling/pluck.h ****         Input range: Any positive value
  59:../../DaisySP/Source/PhysicalModeling/pluck.h ****     */
  60:../../DaisySP/Source/PhysicalModeling/pluck.h ****     inline void SetFreq(float freq) { freq_ = freq; }
  61:../../DaisySP/Source/PhysicalModeling/pluck.h ****     /** Sets the time it takes for a triggered note to end in seconds.
  62:../../DaisySP/Source/PhysicalModeling/pluck.h ****         Input range: 0-1
  63:../../DaisySP/Source/PhysicalModeling/pluck.h ****     */
  64:../../DaisySP/Source/PhysicalModeling/pluck.h ****     inline void SetDecay(float decay) { decay_ = decay; }
  65:../../DaisySP/Source/PhysicalModeling/pluck.h ****     /** Sets the dampening factor applied by the filter (based on PLUCK_MODE)
  66:../../DaisySP/Source/PhysicalModeling/pluck.h ****         Input range: 0-1
  67:../../DaisySP/Source/PhysicalModeling/pluck.h ****     */
  68:../../DaisySP/Source/PhysicalModeling/pluck.h ****     inline void SetDamp(float damp) { damp_ = damp; }
 646              		.loc 19 68 17 is_stmt 1 view .LVU150
 647              	.LBB707:
 648              		.loc 19 68 39 view .LVU151
 649              		.loc 19 68 45 is_stmt 0 view .LVU152
 650 0110 A861     		str	r0, [r5, #24]	@ float
 651              	.LVL38:
 652              		.loc 19 68 45 view .LVU153
 653              	.LBE707:
 654              	.LBE706:
  59:../../DaisySP/Source/PhysicalModeling/PolyPluck.h ****             plk_[active_voice_].SetDecay(p_decay_);
 655              		.loc 13 59 13 view .LVU154
 656 0112 0C35     		adds	r5, r5, #12
 657              	.LVL39:
  60:../../DaisySP/Source/PhysicalModeling/PolyPluck.h ****             plk_[active_voice_].SetAmp(0.25f);
 658              		.loc 13 60 13 view .LVU155
 659 0114 0B68     		ldr	r3, [r1]	@ float
ARM GAS  /tmp/cc5sXaZv.s 			page 39


 660              	.LVL40:
 661              	.LBB708:
 662              	.LBI708:
  64:../../DaisySP/Source/PhysicalModeling/pluck.h ****     /** Sets the dampening factor applied by the filter (based on PLUCK_MODE)
 663              		.loc 19 64 17 is_stmt 1 view .LVU156
 664              	.LBB709:
  64:../../DaisySP/Source/PhysicalModeling/pluck.h ****     /** Sets the dampening factor applied by the filter (based on PLUCK_MODE)
 665              		.loc 19 64 41 view .LVU157
 666              	.LBE709:
 667              	.LBE708:
 668              	.LBB711:
 669              	.LBB704:
  56:../../DaisySP/Source/PhysicalModeling/pluck.h ****     /** Sets the frequency of the output signal in Hz.
 670              		.loc 19 56 42 is_stmt 0 view .LVU158
 671 0116 2A60     		str	r2, [r5]	@ float
 672              	.LBE704:
 673              	.LBE711:
 674              	.LBB712:
 675              	.LBB710:
  64:../../DaisySP/Source/PhysicalModeling/pluck.h ****     /** Sets the dampening factor applied by the filter (based on PLUCK_MODE)
 676              		.loc 19 64 48 view .LVU159
 677 0118 AB60     		str	r3, [r5, #8]	@ float
 678              	.LVL41:
  64:../../DaisySP/Source/PhysicalModeling/pluck.h ****     /** Sets the dampening factor applied by the filter (based on PLUCK_MODE)
 679              		.loc 19 64 48 view .LVU160
 680              	.LBE710:
 681              	.LBE712:
 682              	.LBB713:
 683              	.LBI702:
  56:../../DaisySP/Source/PhysicalModeling/pluck.h ****     /** Sets the frequency of the output signal in Hz.
 684              		.loc 19 56 17 is_stmt 1 view .LVU161
 685              	.LBB705:
  56:../../DaisySP/Source/PhysicalModeling/pluck.h ****     /** Sets the frequency of the output signal in Hz.
 686              		.loc 19 56 37 view .LVU162
 687              	.L18:
  56:../../DaisySP/Source/PhysicalModeling/pluck.h ****     /** Sets the frequency of the output signal in Hz.
 688              		.loc 19 56 37 is_stmt 0 view .LVU163
 689              	.LBE705:
 690              	.LBE713:
 691              	.LBB714:
 692              	.LBI696:
 123:../../DaisySP/Source/Utility/dsp.h **** {
 693              		.loc 18 123 14 is_stmt 1 view .LVU164
 694              	.LBB698:
 125:../../DaisySP/Source/Utility/dsp.h **** }
 695              		.loc 18 125 5 view .LVU165
 125:../../DaisySP/Source/Utility/dsp.h **** }
 696              		.loc 18 125 16 is_stmt 0 view .LVU166
 697 011a F0EE4A0A 		vmov.f32	s1, s20
 698              	.LBE698:
 699              	.LBE714:
 700              	.LBB715:
  65:../../DaisySP/Source/PhysicalModeling/PolyPluck.h ****         {
 701              		.loc 13 65 20 view .LVU167
 702 011e 4FF0000B 		mov	fp, #0
 703              	.LBE715:
 704              	.LBB716:
ARM GAS  /tmp/cc5sXaZv.s 			page 40


 705              	.LBB699:
 125:../../DaisySP/Source/Utility/dsp.h **** }
 706              		.loc 18 125 16 view .LVU168
 707 0122 B0EE000A 		vmov.f32	s0, #2.0e+0
 708              	.LBE699:
 709              	.LBE716:
  53:../../DaisySP/Source/PhysicalModeling/PolyPluck.h ****         if(trig > 0.0f)
 710              		.loc 13 53 9 view .LVU169
 711 0126 9FED598A 		vldr.32	s16, .L34+40
 712              	.LBB717:
 713              	.LBB700:
 125:../../DaisySP/Source/Utility/dsp.h **** }
 714              		.loc 18 125 16 view .LVU170
 715 012a FFF7FEFF 		bl	powf
 716              	.LVL42:
 125:../../DaisySP/Source/Utility/dsp.h **** }
 717              		.loc 18 125 16 view .LVU171
 718              	.LBE700:
 719              	.LBE717:
 720              	.LBB718:
 721              	.LBI718:
  60:../../DaisySP/Source/PhysicalModeling/pluck.h ****     /** Sets the time it takes for a triggered note to end in seconds.
 722              		.loc 19 60 17 is_stmt 1 view .LVU172
 723              	.LBB719:
  60:../../DaisySP/Source/PhysicalModeling/pluck.h ****     /** Sets the time it takes for a triggered note to end in seconds.
 724              		.loc 19 60 39 view .LVU173
 725              	.LBE719:
 726              	.LBE718:
 727              	.LBB721:
 728              	.LBB701:
 125:../../DaisySP/Source/Utility/dsp.h **** }
 729              		.loc 18 125 43 is_stmt 0 view .LVU174
 730 012e DFED587A 		vldr.32	s15, .L34+44
 731 0132 DFF870A1 		ldr	r10, .L34+64
 732 0136 20EE270A 		vmul.f32	s0, s0, s15
 733              	.LVL43:
 125:../../DaisySP/Source/Utility/dsp.h **** }
 734              		.loc 18 125 43 view .LVU175
 735              	.LBE701:
 736              	.LBE721:
 737              	.LBB722:
 738              	.LBB720:
  60:../../DaisySP/Source/PhysicalModeling/pluck.h ****     /** Sets the time it takes for a triggered note to end in seconds.
 739              		.loc 19 60 45 view .LVU176
 740 013a 85ED010A 		vstr.32	s0, [r5, #4]
 741              	.LVL44:
  60:../../DaisySP/Source/PhysicalModeling/pluck.h ****     /** Sets the time it takes for a triggered note to end in seconds.
 742              		.loc 19 60 45 view .LVU177
 743              	.LBE720:
 744              	.LBE722:
 745              	.LBB723:
  65:../../DaisySP/Source/PhysicalModeling/PolyPluck.h ****         {
 746              		.loc 13 65 29 is_stmt 1 view .LVU178
 747              	.L21:
  67:../../DaisySP/Source/PhysicalModeling/PolyPluck.h ****             sig += plk_[i].Process(tval);
 748              		.loc 13 67 13 is_stmt 0 view .LVU179
 749 013e F5EEC08A 		vcmpe.f32	s17, #0
ARM GAS  /tmp/cc5sXaZv.s 			page 41


 750 0142 9FED527A 		vldr.32	s14, .L34+40
 751 0146 F7EE006A 		vmov.f32	s13, #1.0e+0
 752 014a F0EE477A 		vmov.f32	s15, s14
 753 014e F1EE10FA 		vmrs	APSR_nzcv, FPSCR
 754 0152 03DD     		ble	.L19
  67:../../DaisySP/Source/PhysicalModeling/PolyPluck.h ****             sig += plk_[i].Process(tval);
 755              		.loc 13 67 33 view .LVU180
 756 0154 3B68     		ldr	r3, [r7]
  67:../../DaisySP/Source/PhysicalModeling/PolyPluck.h ****             sig += plk_[i].Process(tval);
 757              		.loc 13 67 13 view .LVU181
 758 0156 9B45     		cmp	fp, r3
 759 0158 46FE877A 		vseleq.f32	s15, s13, s14
 760              	.L19:
  65:../../DaisySP/Source/PhysicalModeling/PolyPluck.h ****         {
 761              		.loc 13 65 9 view .LVU182
 762 015c 0BF1010B 		add	fp, fp, #1
 763              	.LVL45:
  68:../../DaisySP/Source/PhysicalModeling/PolyPluck.h ****         }
 764              		.loc 13 68 17 view .LVU183
 765 0160 5046     		mov	r0, r10
 766 0162 07A9     		add	r1, sp, #28
  67:../../DaisySP/Source/PhysicalModeling/PolyPluck.h ****             sig += plk_[i].Process(tval);
 767              		.loc 13 67 13 view .LVU184
 768 0164 CDED077A 		vstr.32	s15, [sp, #28]
  68:../../DaisySP/Source/PhysicalModeling/PolyPluck.h ****         }
 769              		.loc 13 68 17 view .LVU185
 770 0168 FFF7FEFF 		bl	_ZN7daisysp5Pluck7ProcessERf
 771              	.LVL46:
  65:../../DaisySP/Source/PhysicalModeling/PolyPluck.h ****         {
 772              		.loc 13 65 29 view .LVU186
 773 016c BBF1200F 		cmp	fp, #32
  68:../../DaisySP/Source/PhysicalModeling/PolyPluck.h ****         }
 774              		.loc 13 68 13 view .LVU187
 775 0170 38EE008A 		vadd.f32	s16, s16, s0
 776              	.LVL47:
  65:../../DaisySP/Source/PhysicalModeling/PolyPluck.h ****         {
 777              		.loc 13 65 9 is_stmt 1 view .LVU188
  65:../../DaisySP/Source/PhysicalModeling/PolyPluck.h ****         {
 778              		.loc 13 65 29 view .LVU189
 779 0174 0AF1340A 		add	r10, r10, #52
 780 0178 E1D1     		bne	.L21
 781              	.LBE723:
  70:../../DaisySP/Source/PhysicalModeling/PolyPluck.h ****             trig = 0.0f;
 782              		.loc 13 70 9 is_stmt 0 view .LVU190
 783 017a F5EEC08A 		vcmpe.f32	s17, #0
  72:../../DaisySP/Source/PhysicalModeling/PolyPluck.h ****     }
 784              		.loc 13 72 28 view .LVU191
 785 017e 4248     		ldr	r0, .L34+36
 786 0180 B0EE480A 		vmov.f32	s0, s16
  70:../../DaisySP/Source/PhysicalModeling/PolyPluck.h ****             trig = 0.0f;
 787              		.loc 13 70 9 view .LVU192
 788 0184 F1EE10FA 		vmrs	APSR_nzcv, FPSCR
  71:../../DaisySP/Source/PhysicalModeling/PolyPluck.h ****         return blk_.Process(sig);
 789              		.loc 13 71 13 view .LVU193
 790 0188 C8BF     		it	gt
 791 018a DFED408A 		vldrgt.32	s17, .L34+40
 792              	.LVL48:
ARM GAS  /tmp/cc5sXaZv.s 			page 42


  72:../../DaisySP/Source/PhysicalModeling/PolyPluck.h ****     }
 793              		.loc 13 72 28 view .LVU194
 794 018e FFF7FEFF 		bl	_ZN7daisysp7DcBlock7ProcessEf
 795              	.LVL49:
 796              	.LBE726:
 797              	.LBE748:
 798              	.LBB749:
 799              	.LBB750:
  57:../../DaisySP/Source/Utility/delayline.h ****                                                            : max_size - 1;
  58:../../DaisySP/Source/Utility/delayline.h ****     }
  59:../../DaisySP/Source/Utility/delayline.h **** 
  60:../../DaisySP/Source/Utility/delayline.h ****     /** writes the sample of type T to the delay line, and advances the write ptr
  61:../../DaisySP/Source/Utility/delayline.h ****     */
  62:../../DaisySP/Source/Utility/delayline.h ****     inline void Write(const T sample)
  63:../../DaisySP/Source/Utility/delayline.h ****     {
  64:../../DaisySP/Source/Utility/delayline.h ****         line_[write_ptr_] = sample;
  65:../../DaisySP/Source/Utility/delayline.h ****         write_ptr_        = (write_ptr_ - 1 + max_size) % max_size;
  66:../../DaisySP/Source/Utility/delayline.h ****     }
  67:../../DaisySP/Source/Utility/delayline.h **** 
  68:../../DaisySP/Source/Utility/delayline.h ****     /** returns the next sample of type T in the delay line, interpolated if necessary.
  69:../../DaisySP/Source/Utility/delayline.h ****     */
  70:../../DaisySP/Source/Utility/delayline.h ****     inline const T Read() const
  71:../../DaisySP/Source/Utility/delayline.h ****     {
  72:../../DaisySP/Source/Utility/delayline.h ****         T a = line_[(write_ptr_ + delay_) % max_size];
 800              		.loc 16 72 43 view .LVU195
 801 0192 4049     		ldr	r1, .L34+48
 802 0194 DFF810E1 		ldr	lr, .L34+68
  73:../../DaisySP/Source/Utility/delayline.h ****         T b = line_[(write_ptr_ + delay_ + 1) % max_size];
  74:../../DaisySP/Source/Utility/delayline.h ****         return a + (b - a) * frac_;
 803              		.loc 16 74 30 view .LVU196
 804 0198 94ED006A 		vldr.32	s12, [r4]
 805              	.LBE750:
 806              	.LBE749:
  70:PluckEcho.cpp **** 
  71:PluckEcho.cpp ****         //		// Handle Delay
  72:PluckEcho.cpp ****         delsig = delay.Read();
  73:PluckEcho.cpp ****         delay.Write(sig + (delsig * delfb));
  74:PluckEcho.cpp **** 
  75:PluckEcho.cpp ****         // Create Reverb Send
  76:PluckEcho.cpp ****         dry  = sig + delsig;
  77:PluckEcho.cpp ****         send = dry * 0.6f;
 807              		.loc 17 77 20 view .LVU197
 808 019c 9FED3E7A 		vldr.32	s14, .L34+52
 809              	.LBB761:
 810              	.LBB751:
  72:../../DaisySP/Source/Utility/delayline.h ****         T b = line_[(write_ptr_ + delay_ + 1) % max_size];
 811              		.loc 16 72 33 view .LVU198
 812 01a0 D4E90130 		ldrd	r3, r0, [r4, #4]
 813              	.LVL50:
  72:../../DaisySP/Source/Utility/delayline.h ****         T b = line_[(write_ptr_ + delay_ + 1) % max_size];
 814              		.loc 16 72 33 view .LVU199
 815              	.LBE751:
 816              	.LBE761:
  72:PluckEcho.cpp ****         delay.Write(sig + (delsig * delfb));
 817              		.loc 17 72 9 is_stmt 1 view .LVU200
 818              	.LBB762:
 819              	.LBI749:
ARM GAS  /tmp/cc5sXaZv.s 			page 43


  70:../../DaisySP/Source/Utility/delayline.h ****     {
 820              		.loc 16 70 20 view .LVU201
 821              	.LBB752:
  72:../../DaisySP/Source/Utility/delayline.h ****         T b = line_[(write_ptr_ + delay_ + 1) % max_size];
 822              		.loc 16 72 33 is_stmt 0 view .LVU202
 823 01a4 03EB000B 		add	fp, r3, r0
 824              	.LBE752:
 825              	.LBE762:
 826              	.LBB763:
 827              	.LBB764:
  64:../../DaisySP/Source/Utility/delayline.h ****         write_ptr_        = (write_ptr_ - 1 + max_size) % max_size;
 828              		.loc 16 64 9 view .LVU203
 829 01a8 04EB830C 		add	ip, r4, r3, lsl #2
 830              	.LBE764:
 831              	.LBE763:
 832              	.LBB772:
 833              	.LBB753:
  73:../../DaisySP/Source/Utility/delayline.h ****         return a + (b - a) * frac_;
 834              		.loc 16 73 42 view .LVU204
 835 01ac 0BF10105 		add	r5, fp, #1
  72:../../DaisySP/Source/Utility/delayline.h ****         T b = line_[(write_ptr_ + delay_ + 1) % max_size];
 836              		.loc 16 72 43 view .LVU205
 837 01b0 A1FB0B20 		umull	r2, r0, r1, fp
  73:../../DaisySP/Source/Utility/delayline.h ****         return a + (b - a) * frac_;
 838              		.loc 16 73 47 view .LVU206
 839 01b4 A1FB052A 		umull	r2, r10, r1, r5
 840              	.LBE753:
 841              	.LBE772:
  78:PluckEcho.cpp ****         verb.Process(send, send, &wetl, &wetr);
 842              		.loc 17 78 21 view .LVU207
 843 01b8 06AA     		add	r2, sp, #24
 844              	.LBB773:
 845              	.LBB754:
  72:../../DaisySP/Source/Utility/delayline.h ****         T b = line_[(write_ptr_ + delay_ + 1) % max_size];
 846              		.loc 16 72 43 view .LVU208
 847 01ba 400C     		lsrs	r0, r0, #17
 848              	.LBE754:
 849              	.LBE773:
 850              		.loc 17 78 21 view .LVU209
 851 01bc 0092     		str	r2, [sp]
 852              	.LBB774:
 853              	.LBB755:
  73:../../DaisySP/Source/Utility/delayline.h ****         return a + (b - a) * frac_;
 854              		.loc 16 73 47 view .LVU210
 855 01be 4FEA5A42 		lsr	r2, r10, #17
  72:../../DaisySP/Source/Utility/delayline.h ****         T b = line_[(write_ptr_ + delay_ + 1) % max_size];
 856              		.loc 16 72 43 view .LVU211
 857 01c2 0EFB10B0 		mls	r0, lr, r0, fp
  73:../../DaisySP/Source/Utility/delayline.h ****         return a + (b - a) * frac_;
 858              		.loc 16 73 47 view .LVU212
 859 01c6 0EFB1252 		mls	r2, lr, r2, r5
 860              	.LBE755:
 861              	.LBE774:
 862              	.LBB775:
 863              	.LBB765:
  65:../../DaisySP/Source/Utility/delayline.h ****     }
 864              		.loc 16 65 45 view .LVU213
ARM GAS  /tmp/cc5sXaZv.s 			page 44


 865 01ca 2E4D     		ldr	r5, .L34+32
 866              	.LBE765:
 867              	.LBE775:
 868              	.LBB776:
 869              	.LBB756:
  72:../../DaisySP/Source/Utility/delayline.h ****         T b = line_[(write_ptr_ + delay_ + 1) % max_size];
 870              		.loc 16 72 11 view .LVU214
 871 01cc 04EB8000 		add	r0, r4, r0, lsl #2
  73:../../DaisySP/Source/Utility/delayline.h ****         return a + (b - a) * frac_;
 872              		.loc 16 73 11 view .LVU215
 873 01d0 04EB8202 		add	r2, r4, r2, lsl #2
 874              	.LBE756:
 875              	.LBE776:
 876              	.LBB777:
 877              	.LBB766:
  65:../../DaisySP/Source/Utility/delayline.h ****     }
 878              		.loc 16 65 45 view .LVU216
 879 01d4 1D44     		add	r5, r5, r3
 880              	.LBE766:
 881              	.LBE777:
 882              	.LBB778:
 883              	.LBB757:
  72:../../DaisySP/Source/Utility/delayline.h ****         T b = line_[(write_ptr_ + delay_ + 1) % max_size];
 884              		.loc 16 72 11 view .LVU217
 885 01d6 D0ED037A 		vldr.32	s15, [r0, #12]
 886              	.LVL51:
  72:../../DaisySP/Source/Utility/delayline.h ****         T b = line_[(write_ptr_ + delay_ + 1) % max_size];
 887              		.loc 16 72 11 view .LVU218
 888              	.LBE757:
 889              	.LBE778:
 890              		.loc 17 78 21 view .LVU219
 891 01da 05AB     		add	r3, sp, #20
 892              	.LBB779:
 893              	.LBB758:
 894              		.loc 16 74 23 view .LVU220
 895 01dc D2ED036A 		vldr.32	s13, [r2, #12]
 896              	.LBE758:
 897              	.LBE779:
 898              	.LBB780:
 899              	.LBB767:
  65:../../DaisySP/Source/Utility/delayline.h ****     }
 900              		.loc 16 65 57 view .LVU221
 901 01e0 A1FB051B 		umull	r1, fp, r1, r5
 902              	.LVL52:
  65:../../DaisySP/Source/Utility/delayline.h ****     }
 903              		.loc 16 65 57 view .LVU222
 904              	.LBE767:
 905              	.LBE780:
 906              		.loc 17 78 21 view .LVU223
 907 01e4 04AA     		add	r2, sp, #16
 908 01e6 2D48     		ldr	r0, .L34+56
 909              	.LBB781:
 910              	.LBB759:
 911              		.loc 16 74 23 view .LVU224
 912 01e8 76EEE76A 		vsub.f32	s13, s13, s15
 913              	.LBE759:
 914              	.LBE781:
ARM GAS  /tmp/cc5sXaZv.s 			page 45


 915              	.LBB782:
 916              	.LBB768:
  65:../../DaisySP/Source/Utility/delayline.h ****     }
 917              		.loc 16 65 57 view .LVU225
 918 01ec 4FEA5B4B 		lsr	fp, fp, #17
 919              	.LBE768:
 920              	.LBE782:
 921              		.loc 17 78 21 view .LVU226
 922 01f0 1146     		mov	r1, r2
 923              	.LBB783:
 924              	.LBB769:
  65:../../DaisySP/Source/Utility/delayline.h ****     }
 925              		.loc 16 65 57 view .LVU227
 926 01f2 0EFB1B55 		mls	r5, lr, fp, r5
 927              	.LBE769:
 928              	.LBE783:
 929              	.LBB784:
 930              	.LBB760:
 931              		.loc 16 74 30 view .LVU228
 932 01f6 E6EE867A 		vfma.f32	s15, s13, s12
 933              	.LVL53:
 934              		.loc 16 74 30 view .LVU229
 935              	.LBE760:
 936              	.LBE784:
  73:PluckEcho.cpp **** 
 937              		.loc 17 73 9 is_stmt 1 view .LVU230
  73:PluckEcho.cpp **** 
 938              		.loc 17 73 20 is_stmt 0 view .LVU231
 939 01fa F0EE406A 		vmov.f32	s13, s0
 940              	.LBB785:
 941              	.LBB770:
  65:../../DaisySP/Source/Utility/delayline.h ****     }
 942              		.loc 16 65 9 view .LVU232
 943 01fe 6560     		str	r5, [r4, #4]
 944              	.LBE770:
 945              	.LBE785:
  73:PluckEcho.cpp **** 
 946              		.loc 17 73 20 view .LVU233
 947 0200 E9EEA76A 		vfma.f32	s13, s19, s15
 948              	.LVL54:
 949              	.LBB786:
 950              	.LBI763:
  62:../../DaisySP/Source/Utility/delayline.h ****     {
 951              		.loc 16 62 17 is_stmt 1 view .LVU234
  62:../../DaisySP/Source/Utility/delayline.h ****     {
 952              		.loc 16 62 17 is_stmt 0 view .LVU235
 953              	.LBE786:
  76:PluckEcho.cpp ****         send = dry * 0.6f;
 954              		.loc 17 76 9 is_stmt 1 view .LVU236
  76:PluckEcho.cpp ****         send = dry * 0.6f;
 955              		.loc 17 76 14 is_stmt 0 view .LVU237
 956 0204 37EE808A 		vadd.f32	s16, s15, s0
 957              	.LVL55:
  77:PluckEcho.cpp ****         verb.Process(send, send, &wetl, &wetr);
 958              		.loc 17 77 9 is_stmt 1 view .LVU238
  77:PluckEcho.cpp ****         verb.Process(send, send, &wetl, &wetr);
 959              		.loc 17 77 20 is_stmt 0 view .LVU239
ARM GAS  /tmp/cc5sXaZv.s 			page 46


 960 0208 68EE077A 		vmul.f32	s15, s16, s14
 961              	.LVL56:
 962              	.LBB787:
 963              	.LBB771:
  64:../../DaisySP/Source/Utility/delayline.h ****         write_ptr_        = (write_ptr_ - 1 + max_size) % max_size;
 964              		.loc 16 64 9 view .LVU240
 965 020c CCED036A 		vstr.32	s13, [ip, #12]
  64:../../DaisySP/Source/Utility/delayline.h ****         write_ptr_        = (write_ptr_ - 1 + max_size) % max_size;
 966              		.loc 16 64 9 view .LVU241
 967              	.LBE771:
 968              	.LBE787:
  77:PluckEcho.cpp ****         verb.Process(send, send, &wetl, &wetr);
 969              		.loc 17 77 14 view .LVU242
 970 0210 CDED047A 		vstr.32	s15, [sp, #16]
 971              		.loc 17 78 9 is_stmt 1 view .LVU243
 972              		.loc 17 78 21 is_stmt 0 view .LVU244
 973 0214 FFF7FEFF 		bl	_ZN7daisysp8ReverbSc7ProcessERKfS2_PfS3_
 974              	.LVL57:
  79:PluckEcho.cpp **** 
  80:PluckEcho.cpp ****         // Output
  81:PluckEcho.cpp ****         out_left[i]  = dry + wetl;
 975              		.loc 17 81 9 is_stmt 1 view .LVU245
 976              		.loc 17 81 28 is_stmt 0 view .LVU246
 977 0218 DDED057A 		vldr.32	s15, [sp, #20]
  62:PluckEcho.cpp ****     {
 978              		.loc 17 62 25 view .LVU247
 979 021c 039B     		ldr	r3, [sp, #12]
 980              		.loc 17 81 28 view .LVU248
 981 021e 77EE887A 		vadd.f32	s15, s15, s16
 982              		.loc 17 81 22 view .LVU249
 983 0222 E6EC017A 		vstmia.32	r6!, {s15}
  82:PluckEcho.cpp ****         out_right[i] = dry + wetr;
 984              		.loc 17 82 9 is_stmt 1 view .LVU250
  62:PluckEcho.cpp ****     {
 985              		.loc 17 62 25 is_stmt 0 view .LVU251
 986 0226 B342     		cmp	r3, r6
 987              		.loc 17 82 28 view .LVU252
 988 0228 DDED067A 		vldr.32	s15, [sp, #24]
 989 022c 37EE888A 		vadd.f32	s16, s15, s16
 990              	.LVL58:
 991              		.loc 17 82 22 view .LVU253
 992 0230 A8EC018A 		vstmia.32	r8!, {s16}
  62:PluckEcho.cpp ****     {
 993              		.loc 17 62 5 is_stmt 1 view .LVU254
  62:PluckEcho.cpp ****     {
 994              		.loc 17 62 25 view .LVU255
 995 0234 7FF43FAF 		bne	.L25
 996              	.LVL59:
 997              	.L12:
  62:PluckEcho.cpp ****     {
 998              		.loc 17 62 25 is_stmt 0 view .LVU256
 999              	.LBE693:
  83:PluckEcho.cpp ****     }
  84:PluckEcho.cpp **** }
 1000              		.loc 17 84 1 view .LVU257
 1001 0238 09B0     		add	sp, sp, #36
 1002              		.cfi_remember_state
ARM GAS  /tmp/cc5sXaZv.s 			page 47


 1003              		.cfi_def_cfa_offset 60
 1004              		@ sp needed
 1005 023a BDEC068B 		vldm	sp!, {d8-d10}
 1006              		.cfi_restore 84
 1007              		.cfi_restore 85
 1008              		.cfi_restore 82
 1009              		.cfi_restore 83
 1010              		.cfi_restore 80
 1011              		.cfi_restore 81
 1012              		.cfi_def_cfa_offset 36
 1013              	.LVL60:
 1014              		.loc 17 84 1 view .LVU258
 1015 023e BDE8F08F 		pop	{r4, r5, r6, r7, r8, r9, r10, fp, pc}
 1016              	.LVL61:
 1017              	.L33:
 1018              		.cfi_restore_state
 1019              		.loc 17 84 1 view .LVU259
 1020 0242 3D68     		ldr	r5, [r7]
 1021 0244 3423     		movs	r3, #52
 1022 0246 104A     		ldr	r2, .L34+36
 1023 0248 03FB0525 		mla	r5, r3, r5, r2
 1024 024c 0C35     		adds	r5, r5, #12
 1025 024e 64E7     		b	.L18
 1026              	.LVL62:
 1027              	.L13:
  45:PluckEcho.cpp ****         trig = 1.0f;
 1028              		.loc 17 45 76 discriminator 2 view .LVU260
 1029 0250 04F1DC00 		add	r0, r4, #220
 1030 0254 FFF7FEFF 		bl	_ZN5daisy6GateIn4TrigEv
 1031              	.LVL63:
  45:PluckEcho.cpp ****         trig = 1.0f;
 1032              		.loc 17 45 32 discriminator 2 view .LVU261
 1033 0258 0028     		cmp	r0, #0
 1034 025a 7FF4EAAE 		bne	.L15
  44:PluckEcho.cpp ****     if(hw.encoder.RisingEdge() || hw.gate_input[DaisyPatch::GATE_IN_1].Trig())
 1035              		.loc 17 44 10 view .LVU262
 1036 025e DFED0B8A 		vldr.32	s17, .L34+40
 1037 0262 E8E6     		b	.L14
 1038              	.L35:
 1039              		.align	2
 1040              	.L34:
 1041 0264 00000000 		.word	hw
 1042 0268 00007042 		.word	1114636288
 1043 026c 6F12833A 		.word	981668463
 1044 0270 8C860000 		.word	synth+34444
 1045 0274 00008A42 		.word	1116340224
 1046 0278 00000000 		.word	delay
 1047 027c 94860000 		.word	synth+34452
 1048 0280 6F12033A 		.word	973279855
 1049 0284 FF520700 		.word	479999
 1050 0288 00000000 		.word	synth
 1051 028c 00000000 		.word	0
 1052 0290 0000DC43 		.word	1138491392
 1053 0294 73B2E745 		.word	1172812403
 1054 0298 9A99193F 		.word	1058642330
 1055 029c 00000000 		.word	verb
 1056 02a0 00000000 		.word	.LANCHOR0
ARM GAS  /tmp/cc5sXaZv.s 			page 48


 1057 02a4 0C000000 		.word	synth+12
 1058 02a8 00530700 		.word	480000
 1059              		.cfi_endproc
 1060              	.LFE4236:
 1062              		.section	.text._ZN5daisy11OledDisplayINS_13SSD130xDriverILj128ELj64ENS_24SSD130x4WireSpiTransportE
 1063              		.align	1
 1064              		.p2align 2,,3
 1065              		.weak	_ZN5daisy11OledDisplayINS_13SSD130xDriverILj128ELj64ENS_24SSD130x4WireSpiTransportEEEED0Ev
 1066              		.syntax unified
 1067              		.thumb
 1068              		.thumb_func
 1069              		.fpu fpv5-d16
 1071              	_ZN5daisy11OledDisplayINS_13SSD130xDriverILj128ELj64ENS_24SSD130x4WireSpiTransportEEEED0Ev:
 1072              	.LVL64:
 1073              	.LFB4268:
  17:../../libdaisy/src/hid/disp/oled_display.h **** 
 1074              		.loc 2 17 13 is_stmt 1 view -0
 1075              		.cfi_startproc
 1076              		@ args = 0, pretend = 0, frame = 0
 1077              		@ frame_needed = 0, uses_anonymous_args = 0
  17:../../libdaisy/src/hid/disp/oled_display.h **** 
 1078              		.loc 2 17 13 is_stmt 0 view .LVU264
 1079 0000 10B5     		push	{r4, lr}
 1080              		.cfi_def_cfa_offset 8
 1081              		.cfi_offset 4, -8
 1082              		.cfi_offset 14, -4
  17:../../libdaisy/src/hid/disp/oled_display.h **** 
 1083              		.loc 2 17 13 view .LVU265
 1084 0002 0446     		mov	r4, r0
 1085              	.LVL65:
 1086              	.LBB788:
 1087              	.LBI788:
  17:../../libdaisy/src/hid/disp/oled_display.h **** 
 1088              		.loc 2 17 13 is_stmt 1 view .LVU266
 1089              	.LBB789:
 1090              	.LBI789:
 1091              		.loc 3 219 13 view .LVU267
 1092              	.LBB790:
 1093              	.LBI790:
  23:../../libdaisy/src/hid/disp/display.h **** 
 1094              		.loc 3 23 13 view .LVU268
  23:../../libdaisy/src/hid/disp/display.h **** 
 1095              		.loc 3 23 13 is_stmt 0 view .LVU269
 1096              	.LBE790:
 1097              	.LBE789:
 1098              	.LBE788:
  17:../../libdaisy/src/hid/disp/oled_display.h **** 
 1099              		.loc 2 17 29 view .LVU270
 1100 0004 40F21441 		movw	r1, #1044
 1101 0008 FFF7FEFF 		bl	_ZdlPvj
 1102              	.LVL66:
  17:../../libdaisy/src/hid/disp/oled_display.h **** 
 1103              		.loc 2 17 29 view .LVU271
 1104 000c 2046     		mov	r0, r4
 1105 000e 10BD     		pop	{r4, pc}
  17:../../libdaisy/src/hid/disp/oled_display.h **** 
 1106              		.loc 2 17 29 view .LVU272
ARM GAS  /tmp/cc5sXaZv.s 			page 49


 1107              		.cfi_endproc
 1108              	.LFE4268:
 1110              		.section	.text._ZN5daisy11OledDisplayINS_13SSD130xDriverILj128ELj64ENS_24SSD130x4WireSpiTransportE
 1111              		.align	1
 1112              		.p2align 2,,3
 1113              		.weak	_ZN5daisy11OledDisplayINS_13SSD130xDriverILj128ELj64ENS_24SSD130x4WireSpiTransportEEEE6Updat
 1114              		.syntax unified
 1115              		.thumb
 1116              		.thumb_func
 1117              		.fpu fpv5-d16
 1119              	_ZN5daisy11OledDisplayINS_13SSD130xDriverILj128ELj64ENS_24SSD130x4WireSpiTransportEEEE6UpdateEv:
 1120              	.LVL67:
 1121              	.LFB4565:
  34:../../libdaisy/src/hid/disp/oled_display.h **** 
  35:../../libdaisy/src/hid/disp/oled_display.h ****     /**
  36:../../libdaisy/src/hid/disp/oled_display.h ****     Sets the pixel at the specified coordinate to be on/off.
  37:../../libdaisy/src/hid/disp/oled_display.h ****     \param x   x Coordinate
  38:../../libdaisy/src/hid/disp/oled_display.h ****     \param y   y coordinate
  39:../../libdaisy/src/hid/disp/oled_display.h ****     \param on  on or off
  40:../../libdaisy/src/hid/disp/oled_display.h ****     */
  41:../../libdaisy/src/hid/disp/oled_display.h ****     void DrawPixel(uint_fast8_t x, uint_fast8_t y, bool on) override
  42:../../libdaisy/src/hid/disp/oled_display.h ****     {
  43:../../libdaisy/src/hid/disp/oled_display.h ****         driver_.DrawPixel(x, y, on);
  44:../../libdaisy/src/hid/disp/oled_display.h ****     }
  45:../../libdaisy/src/hid/disp/oled_display.h **** 
  46:../../libdaisy/src/hid/disp/oled_display.h ****     /** 
  47:../../libdaisy/src/hid/disp/oled_display.h ****     Writes the current display buffer to the OLED device using SPI or I2C depending on 
  48:../../libdaisy/src/hid/disp/oled_display.h ****     how the object was initialized.
  49:../../libdaisy/src/hid/disp/oled_display.h ****     */
  50:../../libdaisy/src/hid/disp/oled_display.h ****     void Update() override { driver_.Update(); }
 1122              		.loc 2 50 10 is_stmt 1 view -0
 1123              		.cfi_startproc
 1124              		@ args = 0, pretend = 0, frame = 8
 1125              		@ frame_needed = 0, uses_anonymous_args = 0
 1126              	.LBB801:
 1127              	.LBI801:
 254:../../libdaisy/src/dev/oled_ssd130x.h ****         }
 255:../../libdaisy/src/dev/oled_ssd130x.h ****     };
 256:../../libdaisy/src/dev/oled_ssd130x.h **** 
 257:../../libdaisy/src/dev/oled_ssd130x.h ****     /**
 258:../../libdaisy/src/dev/oled_ssd130x.h ****      * Update the display 
 259:../../libdaisy/src/dev/oled_ssd130x.h ****     */
 260:../../libdaisy/src/dev/oled_ssd130x.h ****     void Update()
 1128              		.loc 15 260 10 view .LVU274
 1129              	.LBB802:
 261:../../libdaisy/src/dev/oled_ssd130x.h ****     {
 262:../../libdaisy/src/dev/oled_ssd130x.h ****         uint8_t i;
 263:../../libdaisy/src/dev/oled_ssd130x.h ****         uint8_t high_column_addr;
 264:../../libdaisy/src/dev/oled_ssd130x.h ****         switch(height)
 265:../../libdaisy/src/dev/oled_ssd130x.h ****         {
 266:../../libdaisy/src/dev/oled_ssd130x.h ****             case 32: high_column_addr = 0x12; break;
 267:../../libdaisy/src/dev/oled_ssd130x.h **** 
 268:../../libdaisy/src/dev/oled_ssd130x.h ****             default: high_column_addr = 0x10; break;
 269:../../libdaisy/src/dev/oled_ssd130x.h ****         }
 270:../../libdaisy/src/dev/oled_ssd130x.h ****         for(i = 0; i < (height / 8); i++)
 1130              		.loc 15 270 22 view .LVU275
 1131              	.LBE802:
ARM GAS  /tmp/cc5sXaZv.s 			page 50


 1132              	.LBE801:
 1133              		.loc 2 50 10 is_stmt 0 view .LVU276
 1134 0000 2DE9F041 		push	{r4, r5, r6, r7, r8, lr}
 1135              		.cfi_def_cfa_offset 24
 1136              		.cfi_offset 4, -24
 1137              		.cfi_offset 5, -20
 1138              		.cfi_offset 6, -16
 1139              		.cfi_offset 7, -12
 1140              		.cfi_offset 8, -8
 1141              		.cfi_offset 14, -4
 1142 0004 B025     		movs	r5, #176
 1143 0006 82B0     		sub	sp, sp, #8
 1144              		.cfi_def_cfa_offset 32
 1145 0008 00F10807 		add	r7, r0, #8
 1146 000c 00F11006 		add	r6, r0, #16
 1147 0010 00F11404 		add	r4, r0, #20
 1148              	.LVL68:
 1149              	.L39:
 1150              	.LBB815:
 1151              	.LBB814:
 1152              	.LBB803:
 1153              	.LBB804:
 111:../../libdaisy/src/dev/oled_ssd130x.h ****         spi_.BlockingTransmit(&cmd, 1);
 1154              		.loc 15 111 23 view .LVU277
 1155 0014 0021     		movs	r1, #0
 1156 0016 3046     		mov	r0, r6
 1157 0018 8DF80750 		strb	r5, [sp, #7]
 1158              	.LVL69:
 111:../../libdaisy/src/dev/oled_ssd130x.h ****         spi_.BlockingTransmit(&cmd, 1);
 1159              		.loc 15 111 23 view .LVU278
 1160              	.LBE804:
 1161              	.LBI803:
 109:../../libdaisy/src/dev/oled_ssd130x.h ****     {
 1162              		.loc 15 109 10 is_stmt 1 view .LVU279
 1163              	.LBB805:
 111:../../libdaisy/src/dev/oled_ssd130x.h ****         spi_.BlockingTransmit(&cmd, 1);
 1164              		.loc 15 111 9 view .LVU280
 1165 001c 0135     		adds	r5, r5, #1
 1166              	.LVL70:
 111:../../libdaisy/src/dev/oled_ssd130x.h ****         spi_.BlockingTransmit(&cmd, 1);
 1167              		.loc 15 111 9 is_stmt 0 view .LVU281
 1168 001e 8846     		mov	r8, r1
 111:../../libdaisy/src/dev/oled_ssd130x.h ****         spi_.BlockingTransmit(&cmd, 1);
 1169              		.loc 15 111 23 view .LVU282
 1170 0020 FFF7FEFF 		bl	dsy_gpio_write
 1171              	.LVL71:
 112:../../libdaisy/src/dev/oled_ssd130x.h ****     };
 1172              		.loc 15 112 9 is_stmt 1 view .LVU283
 112:../../libdaisy/src/dev/oled_ssd130x.h ****     };
 1173              		.loc 15 112 30 is_stmt 0 view .LVU284
 1174 0024 6423     		movs	r3, #100
 1175 0026 0122     		movs	r2, #1
 1176 0028 0DF10701 		add	r1, sp, #7
 1177 002c 3846     		mov	r0, r7
 1178 002e FFF7FEFF 		bl	_ZN5daisy9SpiHandle16BlockingTransmitEPhjm
 1179              	.LVL72:
 112:../../libdaisy/src/dev/oled_ssd130x.h ****     };
ARM GAS  /tmp/cc5sXaZv.s 			page 51


 1180              		.loc 15 112 30 view .LVU285
 1181              	.LBE805:
 1182              	.LBE803:
 1183              	.LBB806:
 1184              	.LBB807:
 111:../../libdaisy/src/dev/oled_ssd130x.h ****         spi_.BlockingTransmit(&cmd, 1);
 1185              		.loc 15 111 23 view .LVU286
 1186 0032 4146     		mov	r1, r8
 1187 0034 3046     		mov	r0, r6
 1188 0036 8DF80780 		strb	r8, [sp, #7]
 1189              	.LVL73:
 111:../../libdaisy/src/dev/oled_ssd130x.h ****         spi_.BlockingTransmit(&cmd, 1);
 1190              		.loc 15 111 23 view .LVU287
 1191              	.LBE807:
 1192              	.LBI806:
 109:../../libdaisy/src/dev/oled_ssd130x.h ****     {
 1193              		.loc 15 109 10 is_stmt 1 view .LVU288
 1194              	.LBB808:
 111:../../libdaisy/src/dev/oled_ssd130x.h ****         spi_.BlockingTransmit(&cmd, 1);
 1195              		.loc 15 111 9 view .LVU289
 111:../../libdaisy/src/dev/oled_ssd130x.h ****         spi_.BlockingTransmit(&cmd, 1);
 1196              		.loc 15 111 23 is_stmt 0 view .LVU290
 1197 003a FFF7FEFF 		bl	dsy_gpio_write
 1198              	.LVL74:
 112:../../libdaisy/src/dev/oled_ssd130x.h ****     };
 1199              		.loc 15 112 9 is_stmt 1 view .LVU291
 112:../../libdaisy/src/dev/oled_ssd130x.h ****     };
 1200              		.loc 15 112 30 is_stmt 0 view .LVU292
 1201 003e 0122     		movs	r2, #1
 1202 0040 6423     		movs	r3, #100
 1203 0042 0DF10701 		add	r1, sp, #7
 1204 0046 3846     		mov	r0, r7
 1205 0048 EDB2     		uxtb	r5, r5
 1206 004a FFF7FEFF 		bl	_ZN5daisy9SpiHandle16BlockingTransmitEPhjm
 1207              	.LVL75:
 112:../../libdaisy/src/dev/oled_ssd130x.h ****     };
 1208              		.loc 15 112 30 view .LVU293
 1209 004e 1023     		movs	r3, #16
 1210              	.LBE808:
 1211              	.LBE806:
 1212              	.LBB809:
 1213              	.LBB810:
 111:../../libdaisy/src/dev/oled_ssd130x.h ****         spi_.BlockingTransmit(&cmd, 1);
 1214              		.loc 15 111 23 view .LVU294
 1215 0050 4146     		mov	r1, r8
 1216 0052 3046     		mov	r0, r6
 1217 0054 8DF80730 		strb	r3, [sp, #7]
 1218              	.LVL76:
 111:../../libdaisy/src/dev/oled_ssd130x.h ****         spi_.BlockingTransmit(&cmd, 1);
 1219              		.loc 15 111 23 view .LVU295
 1220              	.LBE810:
 1221              	.LBI809:
 109:../../libdaisy/src/dev/oled_ssd130x.h ****     {
 1222              		.loc 15 109 10 is_stmt 1 view .LVU296
 1223              	.LBB811:
 111:../../libdaisy/src/dev/oled_ssd130x.h ****         spi_.BlockingTransmit(&cmd, 1);
 1224              		.loc 15 111 9 view .LVU297
ARM GAS  /tmp/cc5sXaZv.s 			page 52


 111:../../libdaisy/src/dev/oled_ssd130x.h ****         spi_.BlockingTransmit(&cmd, 1);
 1225              		.loc 15 111 23 is_stmt 0 view .LVU298
 1226 0058 FFF7FEFF 		bl	dsy_gpio_write
 1227              	.LVL77:
 112:../../libdaisy/src/dev/oled_ssd130x.h ****     };
 1228              		.loc 15 112 9 is_stmt 1 view .LVU299
 112:../../libdaisy/src/dev/oled_ssd130x.h ****     };
 1229              		.loc 15 112 30 is_stmt 0 view .LVU300
 1230 005c 6423     		movs	r3, #100
 1231 005e 0122     		movs	r2, #1
 1232 0060 0DF10701 		add	r1, sp, #7
 1233 0064 3846     		mov	r0, r7
 1234 0066 FFF7FEFF 		bl	_ZN5daisy9SpiHandle16BlockingTransmitEPhjm
 1235              	.LVL78:
 112:../../libdaisy/src/dev/oled_ssd130x.h ****     };
 1236              		.loc 15 112 30 view .LVU301
 1237              	.LBE811:
 1238              	.LBE809:
 1239              	.LBB812:
 1240              	.LBI812:
 115:../../libdaisy/src/dev/oled_ssd130x.h ****     {
 1241              		.loc 15 115 10 is_stmt 1 view .LVU302
 1242              	.LBB813:
 117:../../libdaisy/src/dev/oled_ssd130x.h ****         spi_.BlockingTransmit(buff, size);
 1243              		.loc 15 117 9 view .LVU303
 117:../../libdaisy/src/dev/oled_ssd130x.h ****         spi_.BlockingTransmit(buff, size);
 1244              		.loc 15 117 23 is_stmt 0 view .LVU304
 1245 006a 0121     		movs	r1, #1
 1246 006c 3046     		mov	r0, r6
 1247 006e FFF7FEFF 		bl	dsy_gpio_write
 1248              	.LVL79:
 118:../../libdaisy/src/dev/oled_ssd130x.h ****     };
 1249              		.loc 15 118 9 is_stmt 1 view .LVU305
 118:../../libdaisy/src/dev/oled_ssd130x.h ****     };
 1250              		.loc 15 118 30 is_stmt 0 view .LVU306
 1251 0072 8022     		movs	r2, #128
 1252 0074 2146     		mov	r1, r4
 1253 0076 6423     		movs	r3, #100
 1254 0078 3846     		mov	r0, r7
 1255 007a 1444     		add	r4, r4, r2
 1256              	.LVL80:
 118:../../libdaisy/src/dev/oled_ssd130x.h ****     };
 1257              		.loc 15 118 30 view .LVU307
 1258 007c FFF7FEFF 		bl	_ZN5daisy9SpiHandle16BlockingTransmitEPhjm
 1259              	.LVL81:
 118:../../libdaisy/src/dev/oled_ssd130x.h ****     };
 1260              		.loc 15 118 30 view .LVU308
 1261              	.LBE813:
 1262              	.LBE812:
 1263              		.loc 15 270 9 is_stmt 1 view .LVU309
 1264              		.loc 15 270 22 view .LVU310
 1265 0080 B82D     		cmp	r5, #184
 1266 0082 C7D1     		bne	.L39
 1267              	.LBE814:
 1268              	.LBE815:
 1269              		.loc 2 50 48 is_stmt 0 view .LVU311
 1270 0084 02B0     		add	sp, sp, #8
ARM GAS  /tmp/cc5sXaZv.s 			page 53


 1271              		.cfi_def_cfa_offset 24
 1272              		@ sp needed
 1273 0086 BDE8F081 		pop	{r4, r5, r6, r7, r8, pc}
 1274              		.loc 2 50 48 view .LVU312
 1275              		.cfi_endproc
 1276              	.LFE4565:
 1278 008a 00BF     		.section	.text._ZN5daisy25OneBitGraphicsDisplayImplINS_11OledDisplayINS_13SSD130xDriverILj128ELj64
 1279              		.align	1
 1280              		.p2align 2,,3
 1281              		.weak	_ZN5daisy25OneBitGraphicsDisplayImplINS_11OledDisplayINS_13SSD130xDriverILj128ELj64ENS_24SSD
 1282              		.syntax unified
 1283              		.thumb
 1284              		.thumb_func
 1285              		.fpu fpv5-d16
 1287              	_ZN5daisy25OneBitGraphicsDisplayImplINS_11OledDisplayINS_13SSD130xDriverILj128ELj64ENS_24SSD130x4Wi
 1288              	.LVL82:
 1289              	.LFB4564:
 220:../../libdaisy/src/hid/disp/display.h **** 
 221:../../libdaisy/src/hid/disp/display.h ****     void DrawLine(uint_fast8_t x1,
 222:../../libdaisy/src/hid/disp/display.h ****                   uint_fast8_t y1,
 223:../../libdaisy/src/hid/disp/display.h ****                   uint_fast8_t x2,
 224:../../libdaisy/src/hid/disp/display.h ****                   uint_fast8_t y2,
 225:../../libdaisy/src/hid/disp/display.h ****                   bool         on) override
 226:../../libdaisy/src/hid/disp/display.h ****     {
 227:../../libdaisy/src/hid/disp/display.h ****         int_fast16_t deltaX = abs((int_fast16_t)x2 - (int_fast16_t)x1);
 228:../../libdaisy/src/hid/disp/display.h ****         int_fast16_t deltaY = abs((int_fast16_t)y2 - (int_fast16_t)y1);
 229:../../libdaisy/src/hid/disp/display.h ****         int_fast16_t signX  = ((x1 < x2) ? 1 : -1);
 230:../../libdaisy/src/hid/disp/display.h ****         int_fast16_t signY  = ((y1 < y2) ? 1 : -1);
 231:../../libdaisy/src/hid/disp/display.h ****         int_fast16_t error  = deltaX - deltaY;
 232:../../libdaisy/src/hid/disp/display.h ****         int_fast16_t error2;
 233:../../libdaisy/src/hid/disp/display.h **** 
 234:../../libdaisy/src/hid/disp/display.h ****         // If we write "ChildType::DrawPixel(x2, y2, on);", we end up with
 235:../../libdaisy/src/hid/disp/display.h ****         // all sorts of weird compiler errors when the Child class is a template
 236:../../libdaisy/src/hid/disp/display.h ****         // class. The only way around this is to use this very verbose syntax:
 237:../../libdaisy/src/hid/disp/display.h ****         ((ChildType*)(this))->ChildType::DrawPixel(x2, y2, on);
 238:../../libdaisy/src/hid/disp/display.h **** 
 239:../../libdaisy/src/hid/disp/display.h ****         while((x1 != x2) || (y1 != y2))
 240:../../libdaisy/src/hid/disp/display.h ****         {
 241:../../libdaisy/src/hid/disp/display.h ****             ((ChildType*)(this))->ChildType::DrawPixel(x1, y1, on);
 242:../../libdaisy/src/hid/disp/display.h ****             error2 = error * 2;
 243:../../libdaisy/src/hid/disp/display.h ****             if(error2 > -deltaY)
 244:../../libdaisy/src/hid/disp/display.h ****             {
 245:../../libdaisy/src/hid/disp/display.h ****                 error -= deltaY;
 246:../../libdaisy/src/hid/disp/display.h ****                 x1 += signX;
 247:../../libdaisy/src/hid/disp/display.h ****             }
 248:../../libdaisy/src/hid/disp/display.h **** 
 249:../../libdaisy/src/hid/disp/display.h ****             if(error2 < deltaX)
 250:../../libdaisy/src/hid/disp/display.h ****             {
 251:../../libdaisy/src/hid/disp/display.h ****                 error += deltaX;
 252:../../libdaisy/src/hid/disp/display.h ****                 y1 += signY;
 253:../../libdaisy/src/hid/disp/display.h ****             }
 254:../../libdaisy/src/hid/disp/display.h ****         }
 255:../../libdaisy/src/hid/disp/display.h ****     }
 256:../../libdaisy/src/hid/disp/display.h **** 
 257:../../libdaisy/src/hid/disp/display.h ****     void DrawRect(uint_fast8_t x1,
 258:../../libdaisy/src/hid/disp/display.h ****                   uint_fast8_t y1,
 259:../../libdaisy/src/hid/disp/display.h ****                   uint_fast8_t x2,
ARM GAS  /tmp/cc5sXaZv.s 			page 54


 260:../../libdaisy/src/hid/disp/display.h ****                   uint_fast8_t y2,
 261:../../libdaisy/src/hid/disp/display.h ****                   bool         on,
 262:../../libdaisy/src/hid/disp/display.h ****                   bool         fill = false) override
 263:../../libdaisy/src/hid/disp/display.h ****     {
 264:../../libdaisy/src/hid/disp/display.h ****         if(fill)
 265:../../libdaisy/src/hid/disp/display.h ****         {
 266:../../libdaisy/src/hid/disp/display.h ****             for(uint_fast8_t x = x1; x <= x2; x++)
 267:../../libdaisy/src/hid/disp/display.h ****             {
 268:../../libdaisy/src/hid/disp/display.h ****                 for(uint_fast8_t y = y1; y <= y2; y++)
 269:../../libdaisy/src/hid/disp/display.h ****                 {
 270:../../libdaisy/src/hid/disp/display.h ****                     ((ChildType*)(this))->ChildType::DrawPixel(x, y, on);
 271:../../libdaisy/src/hid/disp/display.h ****                 }
 272:../../libdaisy/src/hid/disp/display.h ****             }
 273:../../libdaisy/src/hid/disp/display.h ****         }
 274:../../libdaisy/src/hid/disp/display.h ****         else
 275:../../libdaisy/src/hid/disp/display.h ****         {
 276:../../libdaisy/src/hid/disp/display.h ****             ((ChildType*)(this))->ChildType::DrawLine(x1, y1, x2, y1, on);
 277:../../libdaisy/src/hid/disp/display.h ****             ((ChildType*)(this))->ChildType::DrawLine(x2, y1, x2, y2, on);
 278:../../libdaisy/src/hid/disp/display.h ****             ((ChildType*)(this))->ChildType::DrawLine(x2, y2, x1, y2, on);
 279:../../libdaisy/src/hid/disp/display.h ****             ((ChildType*)(this))->ChildType::DrawLine(x1, y2, x1, y1, on);
 280:../../libdaisy/src/hid/disp/display.h ****         }
 281:../../libdaisy/src/hid/disp/display.h ****     }
 282:../../libdaisy/src/hid/disp/display.h **** 
 283:../../libdaisy/src/hid/disp/display.h ****     void DrawArc(uint_fast8_t x,
 284:../../libdaisy/src/hid/disp/display.h ****                  uint_fast8_t y,
 285:../../libdaisy/src/hid/disp/display.h ****                  uint_fast8_t radius,
 286:../../libdaisy/src/hid/disp/display.h ****                  int_fast16_t start_angle,
 287:../../libdaisy/src/hid/disp/display.h ****                  int_fast16_t sweep,
 288:../../libdaisy/src/hid/disp/display.h ****                  bool         on) override
 289:../../libdaisy/src/hid/disp/display.h ****     {
 290:../../libdaisy/src/hid/disp/display.h ****         // Values to calculate the circle
 291:../../libdaisy/src/hid/disp/display.h ****         int_fast16_t t_x, t_y, err, e2;
 292:../../libdaisy/src/hid/disp/display.h **** 
 293:../../libdaisy/src/hid/disp/display.h ****         // Temporary values to speed up comparisons
 294:../../libdaisy/src/hid/disp/display.h ****         float t_sxy, t_syx, t_sxny, t_synx;
 295:../../libdaisy/src/hid/disp/display.h ****         float t_exy, t_eyx, t_exny, t_eynx;
 296:../../libdaisy/src/hid/disp/display.h **** 
 297:../../libdaisy/src/hid/disp/display.h ****         float start_angle_rad, end_angle_rad;
 298:../../libdaisy/src/hid/disp/display.h ****         float start_x, start_y, end_x, end_y;
 299:../../libdaisy/src/hid/disp/display.h **** 
 300:../../libdaisy/src/hid/disp/display.h ****         bool d1, d2, d3, d4;
 301:../../libdaisy/src/hid/disp/display.h **** 
 302:../../libdaisy/src/hid/disp/display.h ****         d1 = d2 = d3 = d4 = true;
 303:../../libdaisy/src/hid/disp/display.h **** 
 304:../../libdaisy/src/hid/disp/display.h ****         bool circle = false;
 305:../../libdaisy/src/hid/disp/display.h **** 
 306:../../libdaisy/src/hid/disp/display.h ****         if(sweep < 0)
 307:../../libdaisy/src/hid/disp/display.h ****         {
 308:../../libdaisy/src/hid/disp/display.h ****             start_angle += sweep;
 309:../../libdaisy/src/hid/disp/display.h ****             sweep = -sweep;
 310:../../libdaisy/src/hid/disp/display.h ****         }
 311:../../libdaisy/src/hid/disp/display.h **** 
 312:../../libdaisy/src/hid/disp/display.h ****         start_angle_rad = deg2rad(start_angle);
 313:../../libdaisy/src/hid/disp/display.h ****         end_angle_rad   = deg2rad(start_angle + sweep);
 314:../../libdaisy/src/hid/disp/display.h **** 
 315:../../libdaisy/src/hid/disp/display.h ****         start_x = cos(start_angle_rad) * radius;
 316:../../libdaisy/src/hid/disp/display.h ****         start_y = -sin(start_angle_rad) * radius;
ARM GAS  /tmp/cc5sXaZv.s 			page 55


 317:../../libdaisy/src/hid/disp/display.h ****         end_x   = cos(end_angle_rad) * radius;
 318:../../libdaisy/src/hid/disp/display.h ****         end_y   = -sin(end_angle_rad) * radius;
 319:../../libdaisy/src/hid/disp/display.h **** 
 320:../../libdaisy/src/hid/disp/display.h ****         // Check if start and endpoint are very near
 321:../../libdaisy/src/hid/disp/display.h ****         if((end_x - start_x) * (end_x - start_x)
 322:../../libdaisy/src/hid/disp/display.h ****                + (end_y - start_y) * (end_y - start_y)
 323:../../libdaisy/src/hid/disp/display.h ****            < 2.0f)
 324:../../libdaisy/src/hid/disp/display.h ****         {
 325:../../libdaisy/src/hid/disp/display.h ****             if(sweep > 180)
 326:../../libdaisy/src/hid/disp/display.h ****                 circle = true;
 327:../../libdaisy/src/hid/disp/display.h ****             else
 328:../../libdaisy/src/hid/disp/display.h ****                 // Nothing to draw
 329:../../libdaisy/src/hid/disp/display.h ****                 return;
 330:../../libdaisy/src/hid/disp/display.h ****         }
 331:../../libdaisy/src/hid/disp/display.h **** 
 332:../../libdaisy/src/hid/disp/display.h ****         t_x = -radius;
 333:../../libdaisy/src/hid/disp/display.h ****         t_y = 0;
 334:../../libdaisy/src/hid/disp/display.h ****         err = 2 - 2 * radius;
 335:../../libdaisy/src/hid/disp/display.h **** 
 336:../../libdaisy/src/hid/disp/display.h ****         do
 337:../../libdaisy/src/hid/disp/display.h ****         {
 338:../../libdaisy/src/hid/disp/display.h ****             if(!circle)
 339:../../libdaisy/src/hid/disp/display.h ****             {
 340:../../libdaisy/src/hid/disp/display.h ****                 t_sxy  = start_x * t_y;
 341:../../libdaisy/src/hid/disp/display.h ****                 t_syx  = start_y * t_x;
 342:../../libdaisy/src/hid/disp/display.h ****                 t_sxny = start_x * -t_y;
 343:../../libdaisy/src/hid/disp/display.h ****                 t_synx = start_y * -t_x;
 344:../../libdaisy/src/hid/disp/display.h ****                 t_exy  = end_x * t_y;
 345:../../libdaisy/src/hid/disp/display.h ****                 t_eyx  = end_y * t_x;
 346:../../libdaisy/src/hid/disp/display.h ****                 t_exny = end_x * -t_y;
 347:../../libdaisy/src/hid/disp/display.h ****                 t_eynx = end_y * -t_x;
 348:../../libdaisy/src/hid/disp/display.h **** 
 349:../../libdaisy/src/hid/disp/display.h ****                 if(sweep > 180)
 350:../../libdaisy/src/hid/disp/display.h ****                 {
 351:../../libdaisy/src/hid/disp/display.h ****                     d1 = (t_sxy - t_synx < 0 || t_exy - t_eynx > 0);
 352:../../libdaisy/src/hid/disp/display.h ****                     d2 = (t_sxy - t_syx < 0 || t_exy - t_eyx > 0);
 353:../../libdaisy/src/hid/disp/display.h ****                     d3 = (t_sxny - t_syx < 0 || t_exny - t_eyx > 0);
 354:../../libdaisy/src/hid/disp/display.h ****                     d4 = (t_sxny - t_synx < 0 || t_exny - t_eynx > 0);
 355:../../libdaisy/src/hid/disp/display.h ****                 }
 356:../../libdaisy/src/hid/disp/display.h ****                 else
 357:../../libdaisy/src/hid/disp/display.h ****                 {
 358:../../libdaisy/src/hid/disp/display.h ****                     d1 = (t_sxy - t_synx < 0 && t_exy - t_eynx > 0);
 359:../../libdaisy/src/hid/disp/display.h ****                     d2 = (t_sxy - t_syx < 0 && t_exy - t_eyx > 0);
 360:../../libdaisy/src/hid/disp/display.h ****                     d3 = (t_sxny - t_syx < 0 && t_exny - t_eyx > 0);
 361:../../libdaisy/src/hid/disp/display.h ****                     d4 = (t_sxny - t_synx < 0 && t_exny - t_eynx > 0);
 362:../../libdaisy/src/hid/disp/display.h ****                 }
 363:../../libdaisy/src/hid/disp/display.h ****             }
 364:../../libdaisy/src/hid/disp/display.h **** 
 365:../../libdaisy/src/hid/disp/display.h ****             if(d1)
 366:../../libdaisy/src/hid/disp/display.h ****                 ((ChildType*)(this))
 367:../../libdaisy/src/hid/disp/display.h ****                     ->ChildType::DrawPixel(x - t_x, y + t_y, on);
 368:../../libdaisy/src/hid/disp/display.h ****             if(d2)
 369:../../libdaisy/src/hid/disp/display.h ****                 ((ChildType*)(this))
 370:../../libdaisy/src/hid/disp/display.h ****                     ->ChildType::DrawPixel(x + t_x, y + t_y, on);
 371:../../libdaisy/src/hid/disp/display.h ****             if(d3)
 372:../../libdaisy/src/hid/disp/display.h ****                 ((ChildType*)(this))
 373:../../libdaisy/src/hid/disp/display.h ****                     ->ChildType::DrawPixel(x + t_x, y - t_y, on);
ARM GAS  /tmp/cc5sXaZv.s 			page 56


 374:../../libdaisy/src/hid/disp/display.h ****             if(d4)
 375:../../libdaisy/src/hid/disp/display.h ****                 ((ChildType*)(this))
 376:../../libdaisy/src/hid/disp/display.h ****                     ->ChildType::DrawPixel(x - t_x, y - t_y, on);
 377:../../libdaisy/src/hid/disp/display.h **** 
 378:../../libdaisy/src/hid/disp/display.h ****             e2 = err;
 379:../../libdaisy/src/hid/disp/display.h ****             if(e2 <= t_y)
 380:../../libdaisy/src/hid/disp/display.h ****             {
 381:../../libdaisy/src/hid/disp/display.h ****                 t_y++;
 382:../../libdaisy/src/hid/disp/display.h ****                 err = err + (t_y * 2 + 1);
 383:../../libdaisy/src/hid/disp/display.h ****                 if(-t_x == t_y && e2 <= t_x)
 384:../../libdaisy/src/hid/disp/display.h ****                 {
 385:../../libdaisy/src/hid/disp/display.h ****                     e2 = 0;
 386:../../libdaisy/src/hid/disp/display.h ****                 }
 387:../../libdaisy/src/hid/disp/display.h ****             }
 388:../../libdaisy/src/hid/disp/display.h ****             if(e2 > t_x)
 389:../../libdaisy/src/hid/disp/display.h ****             {
 390:../../libdaisy/src/hid/disp/display.h ****                 t_x++;
 391:../../libdaisy/src/hid/disp/display.h ****                 err = err + (t_x * 2 + 1);
 392:../../libdaisy/src/hid/disp/display.h ****             }
 393:../../libdaisy/src/hid/disp/display.h ****         } while(t_x <= 0);
 394:../../libdaisy/src/hid/disp/display.h ****     }
 395:../../libdaisy/src/hid/disp/display.h **** 
 396:../../libdaisy/src/hid/disp/display.h ****     char WriteChar(char ch, FontDef font, bool on) override
 397:../../libdaisy/src/hid/disp/display.h ****     {
 398:../../libdaisy/src/hid/disp/display.h ****         uint32_t i, b, j;
 399:../../libdaisy/src/hid/disp/display.h **** 
 400:../../libdaisy/src/hid/disp/display.h ****         // Check if character is valid
 401:../../libdaisy/src/hid/disp/display.h ****         if(ch < 32 || ch > 126)
 402:../../libdaisy/src/hid/disp/display.h ****             return 0;
 403:../../libdaisy/src/hid/disp/display.h **** 
 404:../../libdaisy/src/hid/disp/display.h ****         // Check remaining space on current line
 405:../../libdaisy/src/hid/disp/display.h ****         if(Width() < (currentX_ + font.FontWidth)
 406:../../libdaisy/src/hid/disp/display.h ****            || Height() < (currentY_ + font.FontHeight))
 407:../../libdaisy/src/hid/disp/display.h ****         {
 408:../../libdaisy/src/hid/disp/display.h ****             // Not enough space on current line
 409:../../libdaisy/src/hid/disp/display.h ****             return 0;
 410:../../libdaisy/src/hid/disp/display.h ****         }
 411:../../libdaisy/src/hid/disp/display.h **** 
 412:../../libdaisy/src/hid/disp/display.h ****         // Use the font to write
 413:../../libdaisy/src/hid/disp/display.h ****         for(i = 0; i < font.FontHeight; i++)
 414:../../libdaisy/src/hid/disp/display.h ****         {
 415:../../libdaisy/src/hid/disp/display.h ****             b = font.data[(ch - 32) * font.FontHeight + i];
 416:../../libdaisy/src/hid/disp/display.h ****             for(j = 0; j < font.FontWidth; j++)
 417:../../libdaisy/src/hid/disp/display.h ****             {
 418:../../libdaisy/src/hid/disp/display.h ****                 if((b << j) & 0x8000)
 419:../../libdaisy/src/hid/disp/display.h ****                 {
 420:../../libdaisy/src/hid/disp/display.h ****                     ((ChildType*)(this))
 421:../../libdaisy/src/hid/disp/display.h ****                         ->ChildType::DrawPixel(
 422:../../libdaisy/src/hid/disp/display.h ****                             currentX_ + j, (currentY_ + i), on);
 423:../../libdaisy/src/hid/disp/display.h ****                 }
 424:../../libdaisy/src/hid/disp/display.h ****                 else
 425:../../libdaisy/src/hid/disp/display.h ****                 {
 426:../../libdaisy/src/hid/disp/display.h ****                     ((ChildType*)(this))
 427:../../libdaisy/src/hid/disp/display.h ****                         ->ChildType::DrawPixel(
 428:../../libdaisy/src/hid/disp/display.h ****                             currentX_ + j, (currentY_ + i), !on);
 429:../../libdaisy/src/hid/disp/display.h ****                 }
 430:../../libdaisy/src/hid/disp/display.h ****             }
ARM GAS  /tmp/cc5sXaZv.s 			page 57


 431:../../libdaisy/src/hid/disp/display.h ****         }
 432:../../libdaisy/src/hid/disp/display.h **** 
 433:../../libdaisy/src/hid/disp/display.h ****         // The current space is now taken
 434:../../libdaisy/src/hid/disp/display.h ****         SetCursor(currentX_ + font.FontWidth, currentY_);
 435:../../libdaisy/src/hid/disp/display.h **** 
 436:../../libdaisy/src/hid/disp/display.h ****         // Return written char for validation
 437:../../libdaisy/src/hid/disp/display.h ****         return ch;
 438:../../libdaisy/src/hid/disp/display.h ****     }
 439:../../libdaisy/src/hid/disp/display.h **** 
 440:../../libdaisy/src/hid/disp/display.h ****     char WriteString(const char* str, FontDef font, bool on) override
 1290              		.loc 3 440 10 is_stmt 1 view -0
 1291              		.cfi_startproc
 1292              		@ args = 4, pretend = 0, frame = 32
 1293              		@ frame_needed = 0, uses_anonymous_args = 0
 1294              		.loc 3 440 10 is_stmt 0 view .LVU314
 1295 0000 2DE9F04F 		push	{r4, r5, r6, r7, r8, r9, r10, fp, lr}
 1296              		.cfi_def_cfa_offset 36
 1297              		.cfi_offset 4, -36
 1298              		.cfi_offset 5, -32
 1299              		.cfi_offset 6, -28
 1300              		.cfi_offset 7, -24
 1301              		.cfi_offset 8, -20
 1302              		.cfi_offset 9, -16
 1303              		.cfi_offset 10, -12
 1304              		.cfi_offset 11, -8
 1305              		.cfi_offset 14, -4
 1306 0004 89B0     		sub	sp, sp, #36
 1307              		.cfi_def_cfa_offset 72
 1308              		.loc 3 440 10 view .LVU315
 1309 0006 8B46     		mov	fp, r1
 441:../../libdaisy/src/hid/disp/display.h ****     {
 442:../../libdaisy/src/hid/disp/display.h ****         // Write until null-byte
 443:../../libdaisy/src/hid/disp/display.h ****         while(*str)
 1310              		.loc 3 443 9 is_stmt 1 view .LVU316
 1311 0008 91F80090 		ldrb	r9, [r1]	@ zero_extendqisi2
 440:../../libdaisy/src/hid/disp/display.h ****     {
 1312              		.loc 3 440 10 is_stmt 0 view .LVU317
 1313 000c 9DF84840 		ldrb	r4, [sp, #72]	@ zero_extendqisi2
 1314 0010 08A9     		add	r1, sp, #32
 1315              	.LVL83:
 440:../../libdaisy/src/hid/disp/display.h ****     {
 1316              		.loc 3 440 10 view .LVU318
 1317 0012 0494     		str	r4, [sp, #16]
 1318 0014 01E90C00 		stmdb	r1, {r2, r3}
 1319              		.loc 3 443 9 view .LVU319
 1320 0018 B9F1000F 		cmp	r9, #0
 1321 001c 00F0B780 		beq	.L66
 1322 0020 9DF81930 		ldrb	r3, [sp, #25]	@ zero_extendqisi2
 1323 0024 8046     		mov	r8, r0
 1324 0026 9DF818A0 		ldrb	r10, [sp, #24]	@ zero_extendqisi2
 1325 002a 4D46     		mov	r5, r9
 1326 002c 0193     		str	r3, [sp, #4]
 1327 002e 079B     		ldr	r3, [sp, #28]
 1328 0030 0593     		str	r3, [sp, #20]
 1329              	.LVL84:
 1330              	.L67:
 1331              	.LBB844:
ARM GAS  /tmp/cc5sXaZv.s 			page 58


 1332              	.LBI844:
 396:../../libdaisy/src/hid/disp/display.h ****     {
 1333              		.loc 3 396 10 is_stmt 1 view .LVU320
 1334              	.LBB845:
 401:../../libdaisy/src/hid/disp/display.h ****             return 0;
 1335              		.loc 3 401 20 is_stmt 0 view .LVU321
 1336 0032 A5F12004 		sub	r4, r5, #32
 401:../../libdaisy/src/hid/disp/display.h ****             return 0;
 1337              		.loc 3 401 9 view .LVU322
 1338 0036 E3B2     		uxtb	r3, r4
 1339 0038 5E2B     		cmp	r3, #94
 1340 003a 00F2AC80 		bhi	.L48
 405:../../libdaisy/src/hid/disp/display.h ****            || Height() < (currentY_ + font.FontHeight))
 1341              		.loc 3 405 17 view .LVU323
 1342 003e D8F80030 		ldr	r3, [r8]
 1343 0042 654A     		ldr	r2, .L88
 1344 0044 DB68     		ldr	r3, [r3, #12]
 1345 0046 9342     		cmp	r3, r2
 1346 0048 40F0A780 		bne	.L81
 1347 004c 8020     		movs	r0, #128
 1348              	.L47:
 405:../../libdaisy/src/hid/disp/display.h ****            || Height() < (currentY_ + font.FontHeight))
 1349              		.loc 3 405 23 view .LVU324
 1350 004e B8F80430 		ldrh	r3, [r8, #4]
 405:../../libdaisy/src/hid/disp/display.h ****            || Height() < (currentY_ + font.FontHeight))
 1351              		.loc 3 405 33 view .LVU325
 1352 0052 5344     		add	r3, r3, r10
 406:../../libdaisy/src/hid/disp/display.h ****         {
 1353              		.loc 3 406 12 view .LVU326
 1354 0054 8342     		cmp	r3, r0
 1355 0056 00F39E80 		bgt	.L48
 406:../../libdaisy/src/hid/disp/display.h ****         {
 1356              		.loc 3 406 21 view .LVU327
 1357 005a D8F80030 		ldr	r3, [r8]
 1358 005e 5F4A     		ldr	r2, .L88+4
 1359 0060 9B68     		ldr	r3, [r3, #8]
 1360 0062 9342     		cmp	r3, r2
 1361 0064 40F09C80 		bne	.L82
 1362 0068 4020     		movs	r0, #64
 1363              	.L49:
 406:../../libdaisy/src/hid/disp/display.h ****         {
 1364              		.loc 3 406 27 view .LVU328
 1365 006a B8F80610 		ldrh	r1, [r8, #6]
 406:../../libdaisy/src/hid/disp/display.h ****         {
 1366              		.loc 3 406 37 view .LVU329
 1367 006e 019A     		ldr	r2, [sp, #4]
 406:../../libdaisy/src/hid/disp/display.h ****         {
 1368              		.loc 3 406 27 view .LVU330
 1369 0070 0091     		str	r1, [sp]
 406:../../libdaisy/src/hid/disp/display.h ****         {
 1370              		.loc 3 406 37 view .LVU331
 1371 0072 8B18     		adds	r3, r1, r2
 406:../../libdaisy/src/hid/disp/display.h ****         {
 1372              		.loc 3 406 12 view .LVU332
 1373 0074 8342     		cmp	r3, r0
 1374 0076 00F38E80 		bgt	.L48
 1375              	.LVL85:
ARM GAS  /tmp/cc5sXaZv.s 			page 59


 413:../../libdaisy/src/hid/disp/display.h ****         {
 1376              		.loc 3 413 22 is_stmt 1 view .LVU333
 1377 007a 1046     		mov	r0, r2
 1378 007c 002A     		cmp	r2, #0
 1379 007e 00F09A80 		beq	.L50
 415:../../libdaisy/src/hid/disp/display.h ****             for(j = 0; j < font.FontWidth; j++)
 1380              		.loc 3 415 37 is_stmt 0 view .LVU334
 1381 0082 1346     		mov	r3, r2
 1382 0084 6FF00046 		mvn	r6, #-2147483648
 1383 0088 B8F80470 		ldrh	r7, [r8, #4]
 1384 008c 03FB04F3 		mul	r3, r3, r4
 1385 0090 059C     		ldr	r4, [sp, #20]
 1386 0092 BE46     		mov	lr, r7
 1387 0094 CDF80CB0 		str	fp, [sp, #12]
 1388 0098 1E44     		add	r6, r6, r3
 1389 009a A21E     		subs	r2, r4, #2
 1390 009c 0344     		add	r3, r3, r0
 1391 009e 5746     		mov	r7, r10
 1392 00a0 04EB4606 		add	r6, r4, r6, lsl #1
 1393 00a4 DDF81090 		ldr	r9, [sp, #16]
 1394 00a8 02EB4303 		add	r3, r2, r3, lsl #1
 1395 00ac 0295     		str	r5, [sp, #8]
 1396 00ae 9B46     		mov	fp, r3
 1397              	.LVL86:
 1398              	.L53:
 415:../../libdaisy/src/hid/disp/display.h ****             for(j = 0; j < font.FontWidth; j++)
 1399              		.loc 3 415 13 view .LVU335
 1400 00b0 36F802AF 		ldrh	r10, [r6, #2]!
 1401              	.LVL87:
 416:../../libdaisy/src/hid/disp/display.h ****             {
 1402              		.loc 3 416 26 is_stmt 1 view .LVU336
 1403 00b4 A7B3     		cbz	r7, .L58
 1404              	.LBB846:
 1405              	.LBB847:
 1406              	.LBB848:
 1407              	.LBB849:
 1408              	.LBB850:
 246:../../libdaisy/src/dev/oled_ssd130x.h ****     }
 1409              		.loc 15 246 49 is_stmt 0 view .LVU337
 1410 00b6 0124     		movs	r4, #1
 246:../../libdaisy/src/dev/oled_ssd130x.h ****     }
 1411              		.loc 15 246 55 view .LVU338
 1412 00b8 01F00702 		and	r2, r1, #7
 246:../../libdaisy/src/dev/oled_ssd130x.h ****     }
 1413              		.loc 15 246 28 view .LVU339
 1414 00bc C808     		lsrs	r0, r1, #3
 1415 00be 0EF11403 		add	r3, lr, #20
 246:../../libdaisy/src/dev/oled_ssd130x.h ****     }
 1416              		.loc 15 246 49 view .LVU340
 1417 00c2 04FA02F2 		lsl	r2, r4, r2
 1418 00c6 7446     		mov	r4, lr
 1419 00c8 03EBC013 		add	r3, r3, r0, lsl #7
 1420              	.LBE850:
 1421              	.LBE849:
 1422              	.LBE848:
 1423              	.LBE847:
 1424              	.LBE846:
ARM GAS  /tmp/cc5sXaZv.s 			page 60


 416:../../libdaisy/src/hid/disp/display.h ****             {
 1425              		.loc 3 416 19 view .LVU341
 1426 00cc 0020     		movs	r0, #0
 1427              	.LBB868:
 1428              	.LBB863:
 1429              	.LBB858:
 1430              	.LBB854:
 1431              	.LBB851:
 246:../../libdaisy/src/dev/oled_ssd130x.h ****     }
 1432              		.loc 15 246 42 view .LVU342
 1433 00ce 52B2     		sxtb	r2, r2
 1434 00d0 4344     		add	r3, r3, r8
 1435 00d2 6FEA020C 		mvn	ip, r2
 1436 00d6 0EE0     		b	.L59
 1437              	.LVL88:
 1438              	.L83:
 246:../../libdaisy/src/dev/oled_ssd130x.h ****     }
 1439              		.loc 15 246 42 view .LVU343
 1440              	.LBE851:
 1441              	.LBE854:
 1442              	.LBE858:
 1443              	.LBE863:
 1444              	.LBE868:
 1445              	.LBB869:
 1446              	.LBI869:
  41:../../libdaisy/src/hid/disp/oled_display.h ****     {
 1447              		.loc 2 41 10 is_stmt 1 view .LVU344
 1448              	.LBB870:
 1449              	.LBI870:
 239:../../libdaisy/src/dev/oled_ssd130x.h ****     {
 1450              		.loc 15 239 10 view .LVU345
 1451              	.LBB871:
 241:../../libdaisy/src/dev/oled_ssd130x.h ****             return;
 1452              		.loc 15 241 9 is_stmt 0 view .LVU346
 1453 00d8 7F2C     		cmp	r4, #127
 1454 00da 07D8     		bhi	.L55
 1455 00dc 3F29     		cmp	r1, #63
 1456 00de 05D8     		bhi	.L55
 244:../../libdaisy/src/dev/oled_ssd130x.h ****         else
 1457              		.loc 15 244 42 view .LVU347
 1458 00e0 1D78     		ldrb	r5, [r3]	@ zero_extendqisi2
 243:../../libdaisy/src/dev/oled_ssd130x.h ****             buffer_[x + (y / 8) * width] |= (1 << (y % 8));
 1459              		.loc 15 243 9 view .LVU348
 1460 00e2 B9F1000F 		cmp	r9, #0
 1461 00e6 12D0     		beq	.L57
 1462              	.L80:
 243:../../libdaisy/src/dev/oled_ssd130x.h ****             buffer_[x + (y / 8) * width] |= (1 << (y % 8));
 1463              		.loc 15 243 9 view .LVU349
 1464              	.LBE871:
 1465              	.LBE870:
 1466              	.LBE869:
 1467              	.LBB872:
 1468              	.LBB864:
 1469              	.LBB859:
 244:../../libdaisy/src/dev/oled_ssd130x.h ****         else
 1470              		.loc 15 244 42 view .LVU350
 1471 00e8 1543     		orrs	r5, r5, r2
ARM GAS  /tmp/cc5sXaZv.s 			page 61


 244:../../libdaisy/src/dev/oled_ssd130x.h ****         else
 1472              		.loc 15 244 13 view .LVU351
 1473 00ea 1D70     		strb	r5, [r3]
 1474              	.L55:
 1475              	.LBE859:
 1476              	.LBE864:
 1477              	.LBE872:
 416:../../libdaisy/src/hid/disp/display.h ****             {
 1478              		.loc 3 416 13 is_stmt 1 view .LVU352
 1479 00ec 0130     		adds	r0, r0, #1
 1480              	.LVL89:
 416:../../libdaisy/src/hid/disp/display.h ****             {
 1481              		.loc 3 416 26 view .LVU353
 1482 00ee 0133     		adds	r3, r3, #1
 1483 00f0 0134     		adds	r4, r4, #1
 1484 00f2 B842     		cmp	r0, r7
 1485 00f4 14D0     		beq	.L58
 1486              	.LVL90:
 1487              	.L59:
 418:../../libdaisy/src/hid/disp/display.h ****                 {
 1488              		.loc 3 418 23 is_stmt 0 view .LVU354
 1489 00f6 0AFA00F5 		lsl	r5, r10, r0
 418:../../libdaisy/src/hid/disp/display.h ****                 {
 1490              		.loc 3 418 17 view .LVU355
 1491 00fa 2D04     		lsls	r5, r5, #16
 1492 00fc ECD4     		bmi	.L83
 1493              	.LVL91:
 1494              	.LBB873:
 1495              	.LBI846:
  41:../../libdaisy/src/hid/disp/oled_display.h ****     {
 1496              		.loc 2 41 10 is_stmt 1 view .LVU356
 1497              	.LBB865:
 1498              	.LBI847:
 239:../../libdaisy/src/dev/oled_ssd130x.h ****     {
 1499              		.loc 15 239 10 view .LVU357
 1500              	.LBB860:
 241:../../libdaisy/src/dev/oled_ssd130x.h ****             return;
 1501              		.loc 15 241 9 is_stmt 0 view .LVU358
 1502 00fe 7F2C     		cmp	r4, #127
 1503 0100 F4D8     		bhi	.L55
 1504 0102 3F29     		cmp	r1, #63
 1505 0104 F2D8     		bhi	.L55
 244:../../libdaisy/src/dev/oled_ssd130x.h ****         else
 1506              		.loc 15 244 42 view .LVU359
 1507 0106 1D78     		ldrb	r5, [r3]	@ zero_extendqisi2
 243:../../libdaisy/src/dev/oled_ssd130x.h ****             buffer_[x + (y / 8) * width] |= (1 << (y % 8));
 1508              		.loc 15 243 9 view .LVU360
 1509 0108 B9F1000F 		cmp	r9, #0
 1510 010c ECD0     		beq	.L80
 1511              	.L57:
 1512              	.LVL92:
 1513              	.LBB855:
 1514              	.LBI849:
 239:../../libdaisy/src/dev/oled_ssd130x.h ****     {
 1515              		.loc 15 239 10 is_stmt 1 view .LVU361
 239:../../libdaisy/src/dev/oled_ssd130x.h ****     {
 1516              		.loc 15 239 10 is_stmt 0 view .LVU362
ARM GAS  /tmp/cc5sXaZv.s 			page 62


 1517              	.LBE855:
 1518              	.LBE860:
 1519              	.LBE865:
 1520              	.LBE873:
 416:../../libdaisy/src/hid/disp/display.h ****             {
 1521              		.loc 3 416 13 view .LVU363
 1522 010e 0130     		adds	r0, r0, #1
 1523              	.LVL93:
 1524              	.LBB874:
 1525              	.LBB866:
 1526              	.LBB861:
 1527              	.LBB856:
 1528              	.LBB852:
 246:../../libdaisy/src/dev/oled_ssd130x.h ****     }
 1529              		.loc 15 246 42 view .LVU364
 1530 0110 0CEA0505 		and	r5, ip, r5
 1531 0114 0133     		adds	r3, r3, #1
 1532 0116 0134     		adds	r4, r4, #1
 1533              	.LBE852:
 1534              	.LBE856:
 1535              	.LBE861:
 1536              	.LBE866:
 1537              	.LBE874:
 416:../../libdaisy/src/hid/disp/display.h ****             {
 1538              		.loc 3 416 26 view .LVU365
 1539 0118 B842     		cmp	r0, r7
 1540              	.LBB875:
 1541              	.LBB867:
 1542              	.LBB862:
 1543              	.LBB857:
 1544              	.LBB853:
 246:../../libdaisy/src/dev/oled_ssd130x.h ****     }
 1545              		.loc 15 246 13 view .LVU366
 1546 011a 03F8015C 		strb	r5, [r3, #-1]
 246:../../libdaisy/src/dev/oled_ssd130x.h ****     }
 1547              		.loc 15 246 13 view .LVU367
 1548              	.LBE853:
 1549              	.LBE857:
 1550              	.LBE862:
 1551              	.LBE867:
 1552              	.LBE875:
 416:../../libdaisy/src/hid/disp/display.h ****             {
 1553              		.loc 3 416 13 is_stmt 1 view .LVU368
 1554              	.LVL94:
 416:../../libdaisy/src/hid/disp/display.h ****             {
 1555              		.loc 3 416 26 view .LVU369
 1556 011e EAD1     		bne	.L59
 1557              	.LVL95:
 1558              	.L58:
 413:../../libdaisy/src/hid/disp/display.h ****         {
 1559              		.loc 3 413 9 view .LVU370
 413:../../libdaisy/src/hid/disp/display.h ****         {
 1560              		.loc 3 413 22 view .LVU371
 1561 0120 5E45     		cmp	r6, fp
 1562 0122 01F10101 		add	r1, r1, #1
 1563 0126 C3D1     		bne	.L53
 1564 0128 BA46     		mov	r10, r7
ARM GAS  /tmp/cc5sXaZv.s 			page 63


 1565              	.LVL96:
 413:../../libdaisy/src/hid/disp/display.h ****         {
 1566              		.loc 3 413 22 is_stmt 0 view .LVU372
 1567 012a 029D     		ldr	r5, [sp, #8]
 1568 012c 7746     		mov	r7, lr
 1569 012e DDF80CB0 		ldr	fp, [sp, #12]
 1570              	.L52:
 1571              	.LBB876:
 1572              	.LBB877:
 173:../../libdaisy/src/hid/disp/display.h ****         currentY_ = (y >= Height()) ? Height() - 1 : y;
 1573              		.loc 3 173 33 view .LVU373
 1574 0132 D8F80020 		ldr	r2, [r8]
 1575              	.LBE877:
 1576              	.LBE876:
 434:../../libdaisy/src/hid/disp/display.h **** 
 1577              		.loc 3 434 18 view .LVU374
 1578 0136 5744     		add	r7, r7, r10
 1579 0138 2749     		ldr	r1, .L88
 1580              	.LBB881:
 1581              	.LBB878:
 173:../../libdaisy/src/hid/disp/display.h ****         currentY_ = (y >= Height()) ? Height() - 1 : y;
 1582              		.loc 3 173 33 view .LVU375
 1583 013a D368     		ldr	r3, [r2, #12]
 1584              	.LBE878:
 1585              	.LBE881:
 434:../../libdaisy/src/hid/disp/display.h **** 
 1586              		.loc 3 434 18 view .LVU376
 1587 013c BFB2     		uxth	r7, r7
 1588              	.LVL97:
 1589              	.LBB882:
 1590              	.LBI876:
 171:../../libdaisy/src/hid/disp/display.h ****     {
 1591              		.loc 3 171 10 is_stmt 1 view .LVU377
 1592              	.LBB879:
 173:../../libdaisy/src/hid/disp/display.h ****         currentY_ = (y >= Height()) ? Height() - 1 : y;
 1593              		.loc 3 173 9 view .LVU378
 1594 013e 8B42     		cmp	r3, r1
 1595 0140 34D1     		bne	.L84
 173:../../libdaisy/src/hid/disp/display.h ****         currentY_ = (y >= Height()) ? Height() - 1 : y;
 1596              		.loc 3 173 33 is_stmt 0 view .LVU379
 1597 0142 8020     		movs	r0, #128
 1598              	.L60:
 173:../../libdaisy/src/hid/disp/display.h ****         currentY_ = (y >= Height()) ? Height() - 1 : y;
 1599              		.loc 3 173 19 view .LVU380
 1600 0144 8742     		cmp	r7, r0
 1601 0146 04D3     		bcc	.L61
 173:../../libdaisy/src/hid/disp/display.h ****         currentY_ = (y >= Height()) ? Height() - 1 : y;
 1602              		.loc 3 173 44 view .LVU381
 1603 0148 D368     		ldr	r3, [r2, #12]
 1604 014a 2349     		ldr	r1, .L88
 1605 014c 8B42     		cmp	r3, r1
 1606 014e 3BD1     		bne	.L85
 1607 0150 7F27     		movs	r7, #127
 1608              	.LVL98:
 1609              	.L61:
 174:../../libdaisy/src/hid/disp/display.h ****     }
 1610              		.loc 3 174 34 view .LVU382
ARM GAS  /tmp/cc5sXaZv.s 			page 64


 1611 0152 9368     		ldr	r3, [r2, #8]
 1612 0154 214A     		ldr	r2, .L88+4
 173:../../libdaisy/src/hid/disp/display.h ****         currentY_ = (y >= Height()) ? Height() - 1 : y;
 1613              		.loc 3 173 19 view .LVU383
 1614 0156 A8F80470 		strh	r7, [r8, #4]	@ movhi
 174:../../libdaisy/src/hid/disp/display.h ****     }
 1615              		.loc 3 174 9 is_stmt 1 view .LVU384
 1616 015a 9342     		cmp	r3, r2
 1617 015c 23D1     		bne	.L86
 174:../../libdaisy/src/hid/disp/display.h ****     }
 1618              		.loc 3 174 34 is_stmt 0 view .LVU385
 1619 015e 4020     		movs	r0, #64
 1620              	.L63:
 174:../../libdaisy/src/hid/disp/display.h ****     }
 1621              		.loc 3 174 19 view .LVU386
 1622 0160 009B     		ldr	r3, [sp]
 1623 0162 8342     		cmp	r3, r0
 1624 0164 07D3     		bcc	.L64
 174:../../libdaisy/src/hid/disp/display.h ****     }
 1625              		.loc 3 174 46 view .LVU387
 1626 0166 D8F80030 		ldr	r3, [r8]
 1627 016a 1C4A     		ldr	r2, .L88+4
 1628 016c 9B68     		ldr	r3, [r3, #8]
 1629 016e 9342     		cmp	r3, r2
 1630 0170 24D1     		bne	.L87
 1631 0172 3F23     		movs	r3, #63
 1632 0174 0093     		str	r3, [sp]
 1633              	.LVL99:
 1634              	.L64:
 174:../../libdaisy/src/hid/disp/display.h ****     }
 1635              		.loc 3 174 19 view .LVU388
 1636 0176 009B     		ldr	r3, [sp]
 1637 0178 A8F80630 		strh	r3, [r8, #6]	@ movhi
 1638              	.LVL100:
 1639              	.L46:
 174:../../libdaisy/src/hid/disp/display.h ****     }
 1640              		.loc 3 174 19 view .LVU389
 1641              	.LBE879:
 1642              	.LBE882:
 1643              	.LBE845:
 1644              	.LBE844:
 444:../../libdaisy/src/hid/disp/display.h ****         {
 445:../../libdaisy/src/hid/disp/display.h ****             if(((ChildType*)(this))->ChildType::WriteChar(*str, font, on)
 446:../../libdaisy/src/hid/disp/display.h ****                != *str)
 1645              		.loc 3 446 16 view .LVU390
 1646 017c 9BF80000 		ldrb	r0, [fp]	@ zero_extendqisi2
 445:../../libdaisy/src/hid/disp/display.h ****                != *str)
 1647              		.loc 3 445 13 view .LVU391
 1648 0180 A842     		cmp	r0, r5
 1649 0182 05D1     		bne	.L44
 1650              	.LVL101:
 443:../../libdaisy/src/hid/disp/display.h ****         {
 1651              		.loc 3 443 9 is_stmt 1 view .LVU392
 1652 0184 1BF8015F 		ldrb	r5, [fp, #1]!	@ zero_extendqisi2
 1653              	.LVL102:
 443:../../libdaisy/src/hid/disp/display.h ****         {
 1654              		.loc 3 443 9 is_stmt 0 view .LVU393
ARM GAS  /tmp/cc5sXaZv.s 			page 65


 1655 0188 002D     		cmp	r5, #0
 1656 018a 7FF452AF 		bne	.L67
 1657              	.LVL103:
 1658              	.L66:
 1659              	.LBB886:
 1660              	.LBB884:
 402:../../libdaisy/src/hid/disp/display.h **** 
 1661              		.loc 3 402 20 view .LVU394
 1662 018e 0020     		movs	r0, #0
 1663              	.LVL104:
 1664              	.L44:
 402:../../libdaisy/src/hid/disp/display.h **** 
 1665              		.loc 3 402 20 view .LVU395
 1666              	.LBE884:
 1667              	.LBE886:
 447:../../libdaisy/src/hid/disp/display.h ****             {
 448:../../libdaisy/src/hid/disp/display.h ****                 // Char could not be written
 449:../../libdaisy/src/hid/disp/display.h ****                 return *str;
 450:../../libdaisy/src/hid/disp/display.h ****             }
 451:../../libdaisy/src/hid/disp/display.h **** 
 452:../../libdaisy/src/hid/disp/display.h ****             // Next char
 453:../../libdaisy/src/hid/disp/display.h ****             str++;
 454:../../libdaisy/src/hid/disp/display.h ****         }
 455:../../libdaisy/src/hid/disp/display.h **** 
 456:../../libdaisy/src/hid/disp/display.h ****         // Everything ok
 457:../../libdaisy/src/hid/disp/display.h ****         return *str;
 458:../../libdaisy/src/hid/disp/display.h ****     }
 1668              		.loc 3 458 5 view .LVU396
 1669 0190 09B0     		add	sp, sp, #36
 1670              		.cfi_remember_state
 1671              		.cfi_def_cfa_offset 36
 1672              		@ sp needed
 1673 0192 BDE8F08F 		pop	{r4, r5, r6, r7, r8, r9, r10, fp, pc}
 1674              	.LVL105:
 1675              	.L48:
 1676              		.cfi_restore_state
 1677              	.LBB887:
 1678              	.LBB885:
 402:../../libdaisy/src/hid/disp/display.h **** 
 1679              		.loc 3 402 20 view .LVU397
 1680 0196 0025     		movs	r5, #0
 1681              	.LVL106:
 402:../../libdaisy/src/hid/disp/display.h **** 
 1682              		.loc 3 402 20 view .LVU398
 1683 0198 F0E7     		b	.L46
 1684              	.LVL107:
 1685              	.L81:
 405:../../libdaisy/src/hid/disp/display.h ****            || Height() < (currentY_ + font.FontHeight))
 1686              		.loc 3 405 17 view .LVU399
 1687 019a 4046     		mov	r0, r8
 1688 019c 9847     		blx	r3
 1689              	.LVL108:
 1690 019e 56E7     		b	.L47
 1691              	.L82:
 406:../../libdaisy/src/hid/disp/display.h ****         {
 1692              		.loc 3 406 21 view .LVU400
 1693 01a0 4046     		mov	r0, r8
ARM GAS  /tmp/cc5sXaZv.s 			page 66


 1694 01a2 9847     		blx	r3
 1695              	.LVL109:
 1696 01a4 61E7     		b	.L49
 1697              	.LVL110:
 1698              	.L86:
 1699              	.LBB883:
 1700              	.LBB880:
 174:../../libdaisy/src/hid/disp/display.h ****     }
 1701              		.loc 3 174 33 view .LVU401
 1702 01a6 4046     		mov	r0, r8
 1703 01a8 9847     		blx	r3
 1704              	.LVL111:
 1705 01aa D9E7     		b	.L63
 1706              	.LVL112:
 1707              	.L84:
 173:../../libdaisy/src/hid/disp/display.h ****         currentY_ = (y >= Height()) ? Height() - 1 : y;
 1708              		.loc 3 173 32 view .LVU402
 1709 01ac 4046     		mov	r0, r8
 1710 01ae 9847     		blx	r3
 1711              	.LVL113:
 1712 01b0 D8F80020 		ldr	r2, [r8]
 1713 01b4 C6E7     		b	.L60
 1714              	.LVL114:
 1715              	.L50:
 173:../../libdaisy/src/hid/disp/display.h ****         currentY_ = (y >= Height()) ? Height() - 1 : y;
 1716              		.loc 3 173 32 view .LVU403
 1717 01b6 B8F80470 		ldrh	r7, [r8, #4]
 1718 01ba BAE7     		b	.L52
 1719              	.LVL115:
 1720              	.L87:
 174:../../libdaisy/src/hid/disp/display.h ****     }
 1721              		.loc 3 174 45 view .LVU404
 1722 01bc 4046     		mov	r0, r8
 1723 01be 9847     		blx	r3
 1724              	.LVL116:
 1725 01c0 0138     		subs	r0, r0, #1
 1726 01c2 83B2     		uxth	r3, r0
 1727 01c4 0093     		str	r3, [sp]
 1728              	.LVL117:
 174:../../libdaisy/src/hid/disp/display.h ****     }
 1729              		.loc 3 174 45 view .LVU405
 1730 01c6 D6E7     		b	.L64
 1731              	.LVL118:
 1732              	.L85:
 173:../../libdaisy/src/hid/disp/display.h ****         currentY_ = (y >= Height()) ? Height() - 1 : y;
 1733              		.loc 3 173 43 view .LVU406
 1734 01c8 4046     		mov	r0, r8
 1735 01ca 9847     		blx	r3
 1736              	.LVL119:
 1737 01cc 0138     		subs	r0, r0, #1
 1738 01ce D8F80020 		ldr	r2, [r8]
 1739 01d2 87B2     		uxth	r7, r0
 1740              	.LVL120:
 173:../../libdaisy/src/hid/disp/display.h ****         currentY_ = (y >= Height()) ? Height() - 1 : y;
 1741              		.loc 3 173 43 view .LVU407
 1742 01d4 BDE7     		b	.L61
 1743              	.L89:
ARM GAS  /tmp/cc5sXaZv.s 			page 67


 1744 01d6 00BF     		.align	2
 1745              	.L88:
 1746 01d8 00000000 		.word	_ZNK5daisy11OledDisplayINS_13SSD130xDriverILj128ELj64ENS_24SSD130x4WireSpiTransportEEEE5Widt
 1747 01dc 00000000 		.word	_ZNK5daisy11OledDisplayINS_13SSD130xDriverILj128ELj64ENS_24SSD130x4WireSpiTransportEEEE6Heig
 1748              	.LBE880:
 1749              	.LBE883:
 1750              	.LBE885:
 1751              	.LBE887:
 1752              		.cfi_endproc
 1753              	.LFE4564:
 1755              		.section	.text._ZN5daisy25OneBitGraphicsDisplayImplINS_11OledDisplayINS_13SSD130xDriverILj128ELj64
 1756              		.align	1
 1757              		.p2align 2,,3
 1758              		.weak	_ZN5daisy25OneBitGraphicsDisplayImplINS_11OledDisplayINS_13SSD130xDriverILj128ELj64ENS_24SSD
 1759              		.syntax unified
 1760              		.thumb
 1761              		.thumb_func
 1762              		.fpu fpv5-d16
 1764              	_ZN5daisy25OneBitGraphicsDisplayImplINS_11OledDisplayINS_13SSD130xDriverILj128ELj64ENS_24SSD130x4Wi
 1765              	.LVL121:
 1766              	.LFB4693:
 396:../../libdaisy/src/hid/disp/display.h ****     {
 1767              		.loc 3 396 10 is_stmt 1 view -0
 1768              		.cfi_startproc
 1769              		@ args = 4, pretend = 0, frame = 16
 1770              		@ frame_needed = 0, uses_anonymous_args = 0
 396:../../libdaisy/src/hid/disp/display.h ****     {
 1771              		.loc 3 396 10 is_stmt 0 view .LVU409
 1772 0000 2DE9F04F 		push	{r4, r5, r6, r7, r8, r9, r10, fp, lr}
 1773              		.cfi_def_cfa_offset 36
 1774              		.cfi_offset 4, -36
 1775              		.cfi_offset 5, -32
 1776              		.cfi_offset 6, -28
 1777              		.cfi_offset 7, -24
 1778              		.cfi_offset 8, -20
 1779              		.cfi_offset 9, -16
 1780              		.cfi_offset 10, -12
 1781              		.cfi_offset 11, -8
 1782              		.cfi_offset 14, -4
 1783 0004 85B0     		sub	sp, sp, #20
 1784              		.cfi_def_cfa_offset 56
 1785              	.LVL122:
 401:../../libdaisy/src/hid/disp/display.h ****             return 0;
 1786              		.loc 3 401 20 view .LVU410
 1787 0006 A1F12004 		sub	r4, r1, #32
 396:../../libdaisy/src/hid/disp/display.h ****     {
 1788              		.loc 3 396 10 view .LVU411
 1789 000a 0091     		str	r1, [sp]
 1790 000c 04A9     		add	r1, sp, #16
 1791              	.LVL123:
 396:../../libdaisy/src/hid/disp/display.h ****     {
 1792              		.loc 3 396 10 view .LVU412
 1793 000e 9DF83880 		ldrb	r8, [sp, #56]	@ zero_extendqisi2
 1794 0012 01E90C00 		stmdb	r1, {r2, r3}
 1795              	.LVL124:
 401:../../libdaisy/src/hid/disp/display.h ****             return 0;
 1796              		.loc 3 401 9 view .LVU413
ARM GAS  /tmp/cc5sXaZv.s 			page 68


 1797 0016 E3B2     		uxtb	r3, r4
 1798 0018 5E2B     		cmp	r3, #94
 1799 001a 00F29480 		bhi	.L94
 405:../../libdaisy/src/hid/disp/display.h ****            || Height() < (currentY_ + font.FontHeight))
 1800              		.loc 3 405 17 view .LVU414
 1801 001e 0368     		ldr	r3, [r0]
 1802 0020 8146     		mov	r9, r0
 1803 0022 5E4A     		ldr	r2, .L130
 1804 0024 DB68     		ldr	r3, [r3, #12]
 1805 0026 9DF80860 		ldrb	r6, [sp, #8]	@ zero_extendqisi2
 1806 002a 9342     		cmp	r3, r2
 1807 002c 9DF80950 		ldrb	r5, [sp, #9]	@ zero_extendqisi2
 1808 0030 40F09380 		bne	.L121
 1809 0034 8022     		movs	r2, #128
 1810              	.LVL125:
 1811              	.L93:
 405:../../libdaisy/src/hid/disp/display.h ****            || Height() < (currentY_ + font.FontHeight))
 1812              		.loc 3 405 23 view .LVU415
 1813 0036 B9F80430 		ldrh	r3, [r9, #4]
 405:../../libdaisy/src/hid/disp/display.h ****            || Height() < (currentY_ + font.FontHeight))
 1814              		.loc 3 405 33 view .LVU416
 1815 003a 3344     		add	r3, r3, r6
 406:../../libdaisy/src/hid/disp/display.h ****         {
 1816              		.loc 3 406 12 view .LVU417
 1817 003c 9342     		cmp	r3, r2
 1818 003e 00F38280 		bgt	.L94
 406:../../libdaisy/src/hid/disp/display.h ****         {
 1819              		.loc 3 406 21 discriminator 2 view .LVU418
 1820 0042 D9F80030 		ldr	r3, [r9]
 1821 0046 564A     		ldr	r2, .L130+4
 1822 0048 9B68     		ldr	r3, [r3, #8]
 1823 004a 9342     		cmp	r3, r2
 1824 004c 40F08980 		bne	.L122
 406:../../libdaisy/src/hid/disp/display.h ****         {
 1825              		.loc 3 406 21 view .LVU419
 1826 0050 4023     		movs	r3, #64
 1827              	.L95:
 406:../../libdaisy/src/hid/disp/display.h ****         {
 1828              		.loc 3 406 27 discriminator 2 view .LVU420
 1829 0052 B9F80610 		ldrh	r1, [r9, #6]
 406:../../libdaisy/src/hid/disp/display.h ****         {
 1830              		.loc 3 406 37 discriminator 2 view .LVU421
 1831 0056 4A19     		adds	r2, r1, r5
 406:../../libdaisy/src/hid/disp/display.h ****         {
 1832              		.loc 3 406 27 discriminator 2 view .LVU422
 1833 0058 0191     		str	r1, [sp, #4]
 406:../../libdaisy/src/hid/disp/display.h ****         {
 1834              		.loc 3 406 12 discriminator 2 view .LVU423
 1835 005a 9A42     		cmp	r2, r3
 1836 005c 73DC     		bgt	.L94
 1837              	.LVL126:
 413:../../libdaisy/src/hid/disp/display.h ****         {
 1838              		.loc 3 413 22 is_stmt 1 view .LVU424
 1839 005e 002D     		cmp	r5, #0
 1840 0060 00F08C80 		beq	.L96
 415:../../libdaisy/src/hid/disp/display.h ****             for(j = 0; j < font.FontWidth; j++)
 1841              		.loc 3 415 37 is_stmt 0 view .LVU425
ARM GAS  /tmp/cc5sXaZv.s 			page 69


 1842 0064 05FB04F4 		mul	r4, r5, r4
 415:../../libdaisy/src/hid/disp/display.h ****             for(j = 0; j < font.FontWidth; j++)
 1843              		.loc 3 415 22 view .LVU426
 1844 0068 039A     		ldr	r2, [sp, #12]
 1845 006a 6FF00043 		mvn	r3, #-2147483648
 1846 006e B9F804A0 		ldrh	r10, [r9, #4]
 1847 0072 2544     		add	r5, r5, r4
 1848 0074 A2F1020B 		sub	fp, r2, #2
 1849 0078 2344     		add	r3, r3, r4
 1850 007a 0BEB450B 		add	fp, fp, r5, lsl #1
 1851 007e 0D46     		mov	r5, r1
 1852 0080 02EB430E 		add	lr, r2, r3, lsl #1
 1853              	.LVL127:
 1854              	.L99:
 415:../../libdaisy/src/hid/disp/display.h ****             for(j = 0; j < font.FontWidth; j++)
 1855              		.loc 3 415 13 view .LVU427
 1856 0084 3EF8024F 		ldrh	r4, [lr, #2]!
 1857              	.LVL128:
 416:../../libdaisy/src/hid/disp/display.h ****             {
 1858              		.loc 3 416 26 is_stmt 1 view .LVU428
 1859 0088 A6B3     		cbz	r6, .L104
 1860              	.LBB918:
 1861              	.LBB919:
 1862              	.LBB920:
 1863              	.LBB921:
 1864              	.LBB922:
 246:../../libdaisy/src/dev/oled_ssd130x.h ****     }
 1865              		.loc 15 246 55 is_stmt 0 view .LVU429
 1866 008a 05F00703 		and	r3, r5, #7
 246:../../libdaisy/src/dev/oled_ssd130x.h ****     }
 1867              		.loc 15 246 49 view .LVU430
 1868 008e 0127     		movs	r7, #1
 246:../../libdaisy/src/dev/oled_ssd130x.h ****     }
 1869              		.loc 15 246 28 view .LVU431
 1870 0090 E808     		lsrs	r0, r5, #3
 246:../../libdaisy/src/dev/oled_ssd130x.h ****     }
 1871              		.loc 15 246 42 view .LVU432
 1872 0092 4146     		mov	r1, r8
 246:../../libdaisy/src/dev/oled_ssd130x.h ****     }
 1873              		.loc 15 246 49 view .LVU433
 1874 0094 9F40     		lsls	r7, r7, r3
 1875              	.LBE922:
 1876              	.LBE921:
 1877              	.LBE920:
 1878              	.LBE919:
 1879              	.LBE918:
 416:../../libdaisy/src/hid/disp/display.h ****             {
 1880              		.loc 3 416 19 view .LVU434
 1881 0096 0022     		movs	r2, #0
 1882 0098 0AEBC013 		add	r3, r10, r0, lsl #7
 1883              	.LBB940:
 1884              	.LBB935:
 1885              	.LBB930:
 1886              	.LBB926:
 1887              	.LBB923:
 246:../../libdaisy/src/dev/oled_ssd130x.h ****     }
 1888              		.loc 15 246 42 view .LVU435
ARM GAS  /tmp/cc5sXaZv.s 			page 70


 1889 009c 7FB2     		sxtb	r7, r7
 1890 009e 4B44     		add	r3, r3, r9
 1891 00a0 09EBC010 		add	r0, r9, r0, lsl #7
 1892 00a4 6FEA070C 		mvn	ip, r7
 1893 00a8 B846     		mov	r8, r7
 1894 00aa 0F46     		mov	r7, r1
 1895 00ac 0CE0     		b	.L105
 1896              	.LVL129:
 1897              	.L124:
 246:../../libdaisy/src/dev/oled_ssd130x.h ****     }
 1898              		.loc 15 246 42 view .LVU436
 1899              	.LBE923:
 1900              	.LBE926:
 1901              	.LBE930:
 1902              	.LBE935:
 1903              	.LBE940:
 1904              	.LBB941:
 1905              	.LBI941:
  41:../../libdaisy/src/hid/disp/oled_display.h ****     {
 1906              		.loc 2 41 10 is_stmt 1 view .LVU437
 1907              	.LBB942:
 1908              	.LBI942:
 239:../../libdaisy/src/dev/oled_ssd130x.h ****     {
 1909              		.loc 15 239 10 view .LVU438
 1910              	.LBB943:
 241:../../libdaisy/src/dev/oled_ssd130x.h ****             return;
 1911              		.loc 15 241 9 is_stmt 0 view .LVU439
 1912 00ae 7F29     		cmp	r1, #127
 1913 00b0 06D8     		bhi	.L101
 1914 00b2 3F2D     		cmp	r5, #63
 1915 00b4 04D8     		bhi	.L101
 244:../../libdaisy/src/dev/oled_ssd130x.h ****         else
 1916              		.loc 15 244 42 view .LVU440
 1917 00b6 197D     		ldrb	r1, [r3, #20]	@ zero_extendqisi2
 243:../../libdaisy/src/dev/oled_ssd130x.h ****             buffer_[x + (y / 8) * width] |= (1 << (y % 8));
 1918              		.loc 15 243 9 view .LVU441
 1919 00b8 A7B1     		cbz	r7, .L103
 1920              	.L120:
 243:../../libdaisy/src/dev/oled_ssd130x.h ****             buffer_[x + (y / 8) * width] |= (1 << (y % 8));
 1921              		.loc 15 243 9 view .LVU442
 1922              	.LBE943:
 1923              	.LBE942:
 1924              	.LBE941:
 1925              	.LBB946:
 1926              	.LBB936:
 1927              	.LBB931:
 244:../../libdaisy/src/dev/oled_ssd130x.h ****         else
 1928              		.loc 15 244 42 view .LVU443
 1929 00ba 48EA0101 		orr	r1, r8, r1
 244:../../libdaisy/src/dev/oled_ssd130x.h ****         else
 1930              		.loc 15 244 13 view .LVU444
 1931 00be 1975     		strb	r1, [r3, #20]
 1932              	.L101:
 1933              	.LBE931:
 1934              	.LBE936:
 1935              	.LBE946:
 416:../../libdaisy/src/hid/disp/display.h ****             {
ARM GAS  /tmp/cc5sXaZv.s 			page 71


 1936              		.loc 3 416 13 is_stmt 1 discriminator 2 view .LVU445
 1937 00c0 0132     		adds	r2, r2, #1
 1938              	.LVL130:
 416:../../libdaisy/src/hid/disp/display.h ****             {
 1939              		.loc 3 416 26 discriminator 2 view .LVU446
 1940 00c2 0133     		adds	r3, r3, #1
 1941 00c4 9642     		cmp	r6, r2
 1942 00c6 14D0     		beq	.L123
 1943              	.LVL131:
 1944              	.L105:
 418:../../libdaisy/src/hid/disp/display.h ****                 {
 1945              		.loc 3 418 23 is_stmt 0 view .LVU447
 1946 00c8 04FA02F1 		lsl	r1, r4, r2
 418:../../libdaisy/src/hid/disp/display.h ****                 {
 1947              		.loc 3 418 17 view .LVU448
 1948 00cc 11F4004F 		tst	r1, #32768
 1949              	.LBB947:
 1950              	.LBB945:
 1951              	.LBB944:
 241:../../libdaisy/src/dev/oled_ssd130x.h ****             return;
 1952              		.loc 15 241 14 view .LVU449
 1953 00d0 A3EB0001 		sub	r1, r3, r0
 1954              	.LBE944:
 1955              	.LBE945:
 1956              	.LBE947:
 418:../../libdaisy/src/hid/disp/display.h ****                 {
 1957              		.loc 3 418 17 view .LVU450
 1958 00d4 EBD1     		bne	.L124
 1959              	.LVL132:
 1960              	.LBB948:
 1961              	.LBI918:
  41:../../libdaisy/src/hid/disp/oled_display.h ****     {
 1962              		.loc 2 41 10 is_stmt 1 view .LVU451
 1963              	.LBB937:
 1964              	.LBI919:
 239:../../libdaisy/src/dev/oled_ssd130x.h ****     {
 1965              		.loc 15 239 10 view .LVU452
 1966              	.LBB932:
 241:../../libdaisy/src/dev/oled_ssd130x.h ****             return;
 1967              		.loc 15 241 9 is_stmt 0 view .LVU453
 1968 00d6 7F29     		cmp	r1, #127
 1969 00d8 F2D8     		bhi	.L101
 1970 00da 3F2D     		cmp	r5, #63
 1971 00dc F0D8     		bhi	.L101
 244:../../libdaisy/src/dev/oled_ssd130x.h ****         else
 1972              		.loc 15 244 42 view .LVU454
 1973 00de 197D     		ldrb	r1, [r3, #20]	@ zero_extendqisi2
 243:../../libdaisy/src/dev/oled_ssd130x.h ****             buffer_[x + (y / 8) * width] |= (1 << (y % 8));
 1974              		.loc 15 243 9 view .LVU455
 1975 00e0 002F     		cmp	r7, #0
 1976 00e2 EAD0     		beq	.L120
 1977              	.L103:
 1978              	.LVL133:
 1979              	.LBB927:
 1980              	.LBI921:
 239:../../libdaisy/src/dev/oled_ssd130x.h ****     {
 1981              		.loc 15 239 10 is_stmt 1 view .LVU456
ARM GAS  /tmp/cc5sXaZv.s 			page 72


 239:../../libdaisy/src/dev/oled_ssd130x.h ****     {
 1982              		.loc 15 239 10 is_stmt 0 view .LVU457
 1983              	.LBE927:
 1984              	.LBE932:
 1985              	.LBE937:
 1986              	.LBE948:
 416:../../libdaisy/src/hid/disp/display.h ****             {
 1987              		.loc 3 416 13 view .LVU458
 1988 00e4 0132     		adds	r2, r2, #1
 1989              	.LVL134:
 1990              	.LBB949:
 1991              	.LBB938:
 1992              	.LBB933:
 1993              	.LBB928:
 1994              	.LBB924:
 246:../../libdaisy/src/dev/oled_ssd130x.h ****     }
 1995              		.loc 15 246 42 view .LVU459
 1996 00e6 0CEA0101 		and	r1, ip, r1
 1997 00ea 0133     		adds	r3, r3, #1
 1998              	.LBE924:
 1999              	.LBE928:
 2000              	.LBE933:
 2001              	.LBE938:
 2002              	.LBE949:
 416:../../libdaisy/src/hid/disp/display.h ****             {
 2003              		.loc 3 416 26 view .LVU460
 2004 00ec 9642     		cmp	r6, r2
 2005              	.LBB950:
 2006              	.LBB939:
 2007              	.LBB934:
 2008              	.LBB929:
 2009              	.LBB925:
 246:../../libdaisy/src/dev/oled_ssd130x.h ****     }
 2010              		.loc 15 246 13 view .LVU461
 2011 00ee D974     		strb	r1, [r3, #19]
 246:../../libdaisy/src/dev/oled_ssd130x.h ****     }
 2012              		.loc 15 246 13 view .LVU462
 2013              	.LBE925:
 2014              	.LBE929:
 2015              	.LBE934:
 2016              	.LBE939:
 2017              	.LBE950:
 416:../../libdaisy/src/hid/disp/display.h ****             {
 2018              		.loc 3 416 13 is_stmt 1 view .LVU463
 2019              	.LVL135:
 416:../../libdaisy/src/hid/disp/display.h ****             {
 2020              		.loc 3 416 26 view .LVU464
 2021 00f0 EAD1     		bne	.L105
 2022              	.L123:
 416:../../libdaisy/src/hid/disp/display.h ****             {
 2023              		.loc 3 416 26 is_stmt 0 view .LVU465
 2024 00f2 B846     		mov	r8, r7
 2025              	.LVL136:
 2026              	.L104:
 413:../../libdaisy/src/hid/disp/display.h ****         {
 2027              		.loc 3 413 9 is_stmt 1 view .LVU466
 413:../../libdaisy/src/hid/disp/display.h ****         {
ARM GAS  /tmp/cc5sXaZv.s 			page 73


 2028              		.loc 3 413 22 view .LVU467
 2029 00f4 F345     		cmp	fp, lr
 2030 00f6 05F10105 		add	r5, r5, #1
 2031 00fa C3D1     		bne	.L99
 2032              	.LVL137:
 2033              	.L98:
 2034              	.LBB951:
 2035              	.LBB952:
 173:../../libdaisy/src/hid/disp/display.h ****         currentY_ = (y >= Height()) ? Height() - 1 : y;
 2036              		.loc 3 173 33 is_stmt 0 view .LVU468
 2037 00fc D9F80030 		ldr	r3, [r9]
 2038              	.LBE952:
 2039              	.LBE951:
 434:../../libdaisy/src/hid/disp/display.h **** 
 2040              		.loc 3 434 18 view .LVU469
 2041 0100 0AEB0604 		add	r4, r10, r6
 2042 0104 2549     		ldr	r1, .L130
 2043              	.LBB957:
 2044              	.LBB953:
 173:../../libdaisy/src/hid/disp/display.h ****         currentY_ = (y >= Height()) ? Height() - 1 : y;
 2045              		.loc 3 173 33 view .LVU470
 2046 0106 DA68     		ldr	r2, [r3, #12]
 2047              	.LBE953:
 2048              	.LBE957:
 434:../../libdaisy/src/hid/disp/display.h **** 
 2049              		.loc 3 434 18 view .LVU471
 2050 0108 A4B2     		uxth	r4, r4
 2051              	.LVL138:
 2052              	.LBB958:
 2053              	.LBI951:
 171:../../libdaisy/src/hid/disp/display.h ****     {
 2054              		.loc 3 171 10 is_stmt 1 view .LVU472
 2055              	.LBB954:
 173:../../libdaisy/src/hid/disp/display.h ****         currentY_ = (y >= Height()) ? Height() - 1 : y;
 2056              		.loc 3 173 9 view .LVU473
 2057 010a 8A42     		cmp	r2, r1
 2058 010c 31D1     		bne	.L125
 173:../../libdaisy/src/hid/disp/display.h ****         currentY_ = (y >= Height()) ? Height() - 1 : y;
 2059              		.loc 3 173 33 is_stmt 0 view .LVU474
 2060 010e 8020     		movs	r0, #128
 2061              	.L106:
 173:../../libdaisy/src/hid/disp/display.h ****         currentY_ = (y >= Height()) ? Height() - 1 : y;
 2062              		.loc 3 173 19 view .LVU475
 2063 0110 8442     		cmp	r4, r0
 2064 0112 1CD2     		bcs	.L126
 2065              	.LVL139:
 2066              	.L107:
 174:../../libdaisy/src/hid/disp/display.h ****     }
 2067              		.loc 3 174 34 view .LVU476
 2068 0114 9B68     		ldr	r3, [r3, #8]
 2069 0116 224A     		ldr	r2, .L130+4
 173:../../libdaisy/src/hid/disp/display.h ****         currentY_ = (y >= Height()) ? Height() - 1 : y;
 2070              		.loc 3 173 19 view .LVU477
 2071 0118 A9F80440 		strh	r4, [r9, #4]	@ movhi
 174:../../libdaisy/src/hid/disp/display.h ****     }
 2072              		.loc 3 174 9 is_stmt 1 view .LVU478
 2073 011c 9342     		cmp	r3, r2
ARM GAS  /tmp/cc5sXaZv.s 			page 74


 2074 011e 25D1     		bne	.L127
 174:../../libdaisy/src/hid/disp/display.h ****     }
 2075              		.loc 3 174 34 is_stmt 0 view .LVU479
 2076 0120 4020     		movs	r0, #64
 2077              	.L109:
 174:../../libdaisy/src/hid/disp/display.h ****     }
 2078              		.loc 3 174 19 view .LVU480
 2079 0122 019B     		ldr	r3, [sp, #4]
 2080 0124 8342     		cmp	r3, r0
 2081 0126 07D3     		bcc	.L110
 174:../../libdaisy/src/hid/disp/display.h ****     }
 2082              		.loc 3 174 46 view .LVU481
 2083 0128 D9F80030 		ldr	r3, [r9]
 2084 012c 1C4A     		ldr	r2, .L130+4
 2085 012e 9B68     		ldr	r3, [r3, #8]
 2086 0130 9342     		cmp	r3, r2
 2087 0132 2DD1     		bne	.L128
 2088 0134 3F23     		movs	r3, #63
 2089 0136 0193     		str	r3, [sp, #4]
 2090              	.LVL140:
 2091              	.L110:
 174:../../libdaisy/src/hid/disp/display.h ****     }
 2092              		.loc 3 174 19 view .LVU482
 2093 0138 DDE90003 		ldrd	r0, r3, [sp]
 2094 013c A9F80630 		strh	r3, [r9, #6]	@ movhi
 2095              	.LVL141:
 174:../../libdaisy/src/hid/disp/display.h ****     }
 2096              		.loc 3 174 19 view .LVU483
 2097              	.LBE954:
 2098              	.LBE958:
 438:../../libdaisy/src/hid/disp/display.h **** 
 2099              		.loc 3 438 5 view .LVU484
 2100 0140 05B0     		add	sp, sp, #20
 2101              		.cfi_remember_state
 2102              		.cfi_def_cfa_offset 36
 2103              		@ sp needed
 2104 0142 BDE8F08F 		pop	{r4, r5, r6, r7, r8, r9, r10, fp, pc}
 2105              	.LVL142:
 2106              	.L94:
 2107              		.cfi_restore_state
 402:../../libdaisy/src/hid/disp/display.h **** 
 2108              		.loc 3 402 20 view .LVU485
 2109 0146 0020     		movs	r0, #0
 438:../../libdaisy/src/hid/disp/display.h **** 
 2110              		.loc 3 438 5 view .LVU486
 2111 0148 05B0     		add	sp, sp, #20
 2112              		.cfi_remember_state
 2113              		.cfi_def_cfa_offset 36
 2114              		@ sp needed
 2115 014a BDE8F08F 		pop	{r4, r5, r6, r7, r8, r9, r10, fp, pc}
 2116              	.LVL143:
 2117              	.L126:
 2118              		.cfi_restore_state
 2119              	.LBB959:
 2120              	.LBB955:
 173:../../libdaisy/src/hid/disp/display.h ****         currentY_ = (y >= Height()) ? Height() - 1 : y;
 2121              		.loc 3 173 44 view .LVU487
ARM GAS  /tmp/cc5sXaZv.s 			page 75


 2122 014e DA68     		ldr	r2, [r3, #12]
 2123 0150 1249     		ldr	r1, .L130
 2124 0152 8A42     		cmp	r2, r1
 2125 0154 15D1     		bne	.L129
 2126 0156 7F24     		movs	r4, #127
 2127              	.LVL144:
 173:../../libdaisy/src/hid/disp/display.h ****         currentY_ = (y >= Height()) ? Height() - 1 : y;
 2128              		.loc 3 173 44 view .LVU488
 2129 0158 DCE7     		b	.L107
 2130              	.LVL145:
 2131              	.L121:
 173:../../libdaisy/src/hid/disp/display.h ****         currentY_ = (y >= Height()) ? Height() - 1 : y;
 2132              		.loc 3 173 44 view .LVU489
 2133              	.LBE955:
 2134              	.LBE959:
 405:../../libdaisy/src/hid/disp/display.h ****            || Height() < (currentY_ + font.FontHeight))
 2135              		.loc 3 405 17 view .LVU490
 2136 015a 9847     		blx	r3
 2137              	.LVL146:
 405:../../libdaisy/src/hid/disp/display.h ****            || Height() < (currentY_ + font.FontHeight))
 2138              		.loc 3 405 17 view .LVU491
 2139 015c 0246     		mov	r2, r0
 2140 015e 0190     		str	r0, [sp, #4]
 2141 0160 69E7     		b	.L93
 2142              	.L122:
 406:../../libdaisy/src/hid/disp/display.h ****         {
 2143              		.loc 3 406 21 discriminator 2 view .LVU492
 2144 0162 4846     		mov	r0, r9
 2145 0164 9847     		blx	r3
 2146              	.LVL147:
 2147 0166 0346     		mov	r3, r0
 2148 0168 0190     		str	r0, [sp, #4]
 2149 016a 72E7     		b	.L95
 2150              	.LVL148:
 2151              	.L127:
 2152              	.LBB960:
 2153              	.LBB956:
 174:../../libdaisy/src/hid/disp/display.h ****     }
 2154              		.loc 3 174 33 view .LVU493
 2155 016c 4846     		mov	r0, r9
 2156 016e 9847     		blx	r3
 2157              	.LVL149:
 2158 0170 D7E7     		b	.L109
 2159              	.LVL150:
 2160              	.L125:
 173:../../libdaisy/src/hid/disp/display.h ****         currentY_ = (y >= Height()) ? Height() - 1 : y;
 2161              		.loc 3 173 32 view .LVU494
 2162 0172 4846     		mov	r0, r9
 2163 0174 9047     		blx	r2
 2164              	.LVL151:
 2165 0176 D9F80030 		ldr	r3, [r9]
 2166 017a C9E7     		b	.L106
 2167              	.LVL152:
 2168              	.L96:
 173:../../libdaisy/src/hid/disp/display.h ****         currentY_ = (y >= Height()) ? Height() - 1 : y;
 2169              		.loc 3 173 32 view .LVU495
 2170 017c B9F804A0 		ldrh	r10, [r9, #4]
ARM GAS  /tmp/cc5sXaZv.s 			page 76


 2171 0180 BCE7     		b	.L98
 2172              	.LVL153:
 2173              	.L129:
 173:../../libdaisy/src/hid/disp/display.h ****         currentY_ = (y >= Height()) ? Height() - 1 : y;
 2174              		.loc 3 173 43 view .LVU496
 2175 0182 4846     		mov	r0, r9
 2176 0184 9047     		blx	r2
 2177              	.LVL154:
 2178 0186 0138     		subs	r0, r0, #1
 2179 0188 D9F80030 		ldr	r3, [r9]
 2180 018c 84B2     		uxth	r4, r0
 2181              	.LVL155:
 173:../../libdaisy/src/hid/disp/display.h ****         currentY_ = (y >= Height()) ? Height() - 1 : y;
 2182              		.loc 3 173 43 view .LVU497
 2183 018e C1E7     		b	.L107
 2184              	.L128:
 174:../../libdaisy/src/hid/disp/display.h ****     }
 2185              		.loc 3 174 45 view .LVU498
 2186 0190 4846     		mov	r0, r9
 2187 0192 9847     		blx	r3
 2188              	.LVL156:
 2189 0194 0138     		subs	r0, r0, #1
 2190 0196 83B2     		uxth	r3, r0
 2191 0198 0193     		str	r3, [sp, #4]
 2192              	.LVL157:
 174:../../libdaisy/src/hid/disp/display.h ****     }
 2193              		.loc 3 174 45 view .LVU499
 2194 019a CDE7     		b	.L110
 2195              	.L131:
 2196              		.align	2
 2197              	.L130:
 2198 019c 00000000 		.word	_ZNK5daisy11OledDisplayINS_13SSD130xDriverILj128ELj64ENS_24SSD130x4WireSpiTransportEEEE5Widt
 2199 01a0 00000000 		.word	_ZNK5daisy11OledDisplayINS_13SSD130xDriverILj128ELj64ENS_24SSD130x4WireSpiTransportEEEE6Heig
 2200              	.LBE956:
 2201              	.LBE960:
 2202              		.cfi_endproc
 2203              	.LFE4693:
 2205              		.section	.text._ZN5daisy25OneBitGraphicsDisplayImplINS_11OledDisplayINS_13SSD130xDriverILj128ELj64
 2206              		.align	1
 2207              		.p2align 2,,3
 2208              		.weak	_ZN5daisy25OneBitGraphicsDisplayImplINS_11OledDisplayINS_13SSD130xDriverILj128ELj64ENS_24SSD
 2209              		.syntax unified
 2210              		.thumb
 2211              		.thumb_func
 2212              		.fpu fpv5-d16
 2214              	_ZN5daisy25OneBitGraphicsDisplayImplINS_11OledDisplayINS_13SSD130xDriverILj128ELj64ENS_24SSD130x4Wi
 2215              	.LVL158:
 2216              	.LFB4842:
 459:../../libdaisy/src/hid/disp/display.h **** 
 460:../../libdaisy/src/hid/disp/display.h ****     Rectangle WriteStringAligned(const char*    str,
 2217              		.loc 3 460 15 is_stmt 1 view -0
 2218              		.cfi_startproc
 2219              		@ args = 12, pretend = 0, frame = 40
 2220              		@ frame_needed = 0, uses_anonymous_args = 0
 2221              		.loc 3 460 15 is_stmt 0 view .LVU501
 2222 0000 2DE9F04F 		push	{r4, r5, r6, r7, r8, r9, r10, fp, lr}
 2223              		.cfi_def_cfa_offset 36
ARM GAS  /tmp/cc5sXaZv.s 			page 77


 2224              		.cfi_offset 4, -36
 2225              		.cfi_offset 5, -32
 2226              		.cfi_offset 6, -28
 2227              		.cfi_offset 7, -24
 2228              		.cfi_offset 8, -20
 2229              		.cfi_offset 9, -16
 2230              		.cfi_offset 10, -12
 2231              		.cfi_offset 11, -8
 2232              		.cfi_offset 14, -4
 2233 0004 0C46     		mov	r4, r1
 2234 0006 8BB0     		sub	sp, sp, #44
 2235              		.cfi_def_cfa_offset 80
 2236              	.LBB1095:
 2237              	.LBB1096:
 2238              	.LBB1097:
 2239              	.LBB1098:
 461:../../libdaisy/src/hid/disp/display.h ****                                  const FontDef& font,
 462:../../libdaisy/src/hid/disp/display.h ****                                  Rectangle      boundingBox,
 463:../../libdaisy/src/hid/disp/display.h ****                                  Alignment      alignment,
 464:../../libdaisy/src/hid/disp/display.h ****                                  bool           on) override
 465:../../libdaisy/src/hid/disp/display.h ****     {
 466:../../libdaisy/src/hid/disp/display.h ****         const auto alignedRect
 467:../../libdaisy/src/hid/disp/display.h ****             = GetTextRect(str, font).AlignedWithin(boundingBox, alignment);
 468:../../libdaisy/src/hid/disp/display.h ****         SetCursor(alignedRect.GetX(), alignedRect.GetY());
 469:../../libdaisy/src/hid/disp/display.h ****         ((ChildType*)(this))->ChildType::WriteString(str, font, on);
 470:../../libdaisy/src/hid/disp/display.h ****         return alignedRect;
 471:../../libdaisy/src/hid/disp/display.h ****     }
 472:../../libdaisy/src/hid/disp/display.h **** 
 473:../../libdaisy/src/hid/disp/display.h ****   private:
 474:../../libdaisy/src/hid/disp/display.h ****     uint32_t strlen(const char* string)
 475:../../libdaisy/src/hid/disp/display.h ****     {
 476:../../libdaisy/src/hid/disp/display.h ****         uint32_t result = 0;
 477:../../libdaisy/src/hid/disp/display.h ****         while(*string++ != '\0')
 2240              		.loc 3 477 25 view .LVU502
 2241 0008 1146     		mov	r1, r2
 2242              	.LVL159:
 2243              		.loc 3 477 25 view .LVU503
 2244              	.LBE1098:
 2245              	.LBE1097:
 2246              	.LBE1096:
 2247              	.LBE1095:
 460:../../libdaisy/src/hid/disp/display.h ****                                  const FontDef& font,
 2248              		.loc 3 460 15 view .LVU504
 2249 000a 9046     		mov	r8, r2
 2250 000c 0990     		str	r0, [sp, #36]
 2251 000e 1D46     		mov	r5, r3
 2252              	.LVL160:
 2253              	.LBB1113:
 2254              	.LBI1095:
 478:../../libdaisy/src/hid/disp/display.h ****             result++;
 479:../../libdaisy/src/hid/disp/display.h ****         return result;
 480:../../libdaisy/src/hid/disp/display.h ****     }
 481:../../libdaisy/src/hid/disp/display.h **** 
 482:../../libdaisy/src/hid/disp/display.h ****     Rectangle GetTextRect(const char* text, const FontDef& font)
 2255              		.loc 3 482 15 is_stmt 1 view .LVU505
 2256              	.LBB1109:
 2257              	.LBB1102:
ARM GAS  /tmp/cc5sXaZv.s 			page 78


 2258              	.LBB1099:
 477:../../libdaisy/src/hid/disp/display.h ****             result++;
 2259              		.loc 3 477 25 view .LVU506
 477:../../libdaisy/src/hid/disp/display.h ****             result++;
 2260              		.loc 3 477 25 is_stmt 0 view .LVU507
 2261              	.LBE1099:
 2262              	.LBE1102:
 2263              	.LBE1109:
 2264              	.LBE1113:
 460:../../libdaisy/src/hid/disp/display.h ****                                  const FontDef& font,
 2265              		.loc 3 460 15 view .LVU508
 2266 0010 9DF85800 		ldrb	r0, [sp, #88]	@ zero_extendqisi2
 2267              	.LVL161:
 2268              	.LBB1114:
 2269              	.LBB1110:
 2270              	.LBB1103:
 2271              	.LBB1100:
