ARM GAS  /tmp/ccpRs2bQ.s 			page 1


   1              		.cpu cortex-m7
   2              		.eabi_attribute 28, 1
   3              		.eabi_attribute 20, 1
   4              		.eabi_attribute 21, 1
   5              		.eabi_attribute 23, 3
   6              		.eabi_attribute 24, 1
   7              		.eabi_attribute 25, 1
   8              		.eabi_attribute 26, 1
   9              		.eabi_attribute 30, 2
  10              		.eabi_attribute 34, 1
  11              		.eabi_attribute 18, 4
  12              		.file	"Midi.cpp"
  13              		.text
  14              	.Ltext0:
  15              		.cfi_sections	.debug_frame
  16              		.section	.text._ZN5daisy10DaisyFieldD2Ev,"axG",%progbits,_ZN5daisy10DaisyFieldD5Ev,comdat
  17              		.align	1
  18              		.p2align 2,,3
  19              		.weak	_ZN5daisy10DaisyFieldD2Ev
  20              		.arch armv7e-m
  21              		.syntax unified
  22              		.thumb
  23              		.thumb_func
  24              		.fpu fpv5-d16
  26              	_ZN5daisy10DaisyFieldD2Ev:
  27              	.LVL0:
  28              	.LFB2063:
  29              		.file 1 "../../libdaisy/src/daisy_field.h"
   1:../../libdaisy/src/daisy_field.h **** #pragma once
   2:../../libdaisy/src/daisy_field.h **** #ifndef DSY_FIELD_BSP_H
   3:../../libdaisy/src/daisy_field.h **** #define DSY_FIELD_BSP_H /**< & */
   4:../../libdaisy/src/daisy_field.h **** #include "daisy_seed.h"
   5:../../libdaisy/src/daisy_field.h **** #include "dev/oled_ssd130x.h"
   6:../../libdaisy/src/daisy_field.h **** 
   7:../../libdaisy/src/daisy_field.h **** /**
   8:../../libdaisy/src/daisy_field.h ****    @brief Hardware defines and helpers for daisy field platform.
   9:../../libdaisy/src/daisy_field.h **** */
  10:../../libdaisy/src/daisy_field.h **** namespace daisy
  11:../../libdaisy/src/daisy_field.h **** {
  12:../../libdaisy/src/daisy_field.h **** /** @addtogroup boards
  13:../../libdaisy/src/daisy_field.h ****     @{
  14:../../libdaisy/src/daisy_field.h **** */
  15:../../libdaisy/src/daisy_field.h **** class DaisyField
  16:../../libdaisy/src/daisy_field.h **** {
  17:../../libdaisy/src/daisy_field.h ****   public:
  18:../../libdaisy/src/daisy_field.h ****     /** enums for controls, etc.
  19:../../libdaisy/src/daisy_field.h **** */
  20:../../libdaisy/src/daisy_field.h ****     enum
  21:../../libdaisy/src/daisy_field.h ****     {
  22:../../libdaisy/src/daisy_field.h ****         SW_1,    /**< tactile switch */
  23:../../libdaisy/src/daisy_field.h ****         SW_2,    /**< tactile switch */
  24:../../libdaisy/src/daisy_field.h ****         SW_LAST, /**< & */
  25:../../libdaisy/src/daisy_field.h ****     };
  26:../../libdaisy/src/daisy_field.h **** 
  27:../../libdaisy/src/daisy_field.h ****     /** All knobs connect to Daisy Seed's ADC1 pin via CD4051 mux
  28:../../libdaisy/src/daisy_field.h ****         Knobs are in order that they are laid out on hardware.
  29:../../libdaisy/src/daisy_field.h ****     */
ARM GAS  /tmp/ccpRs2bQ.s 			page 2


  30:../../libdaisy/src/daisy_field.h ****     enum
  31:../../libdaisy/src/daisy_field.h ****     {
  32:../../libdaisy/src/daisy_field.h ****         KNOB_1,    /**< & */
  33:../../libdaisy/src/daisy_field.h ****         KNOB_2,    /**< & */
  34:../../libdaisy/src/daisy_field.h ****         KNOB_3,    /**< & */
  35:../../libdaisy/src/daisy_field.h ****         KNOB_4,    /**< & */
  36:../../libdaisy/src/daisy_field.h ****         KNOB_5,    /**< & */
  37:../../libdaisy/src/daisy_field.h ****         KNOB_6,    /**< & */
  38:../../libdaisy/src/daisy_field.h ****         KNOB_7,    /**< & */
  39:../../libdaisy/src/daisy_field.h ****         KNOB_8,    /**< & */
  40:../../libdaisy/src/daisy_field.h ****         KNOB_LAST, /**< & */
  41:../../libdaisy/src/daisy_field.h ****     };
  42:../../libdaisy/src/daisy_field.h **** 
  43:../../libdaisy/src/daisy_field.h ****     enum
  44:../../libdaisy/src/daisy_field.h ****     {
  45:../../libdaisy/src/daisy_field.h ****         CV_1,    /** Connected to ADC1_INP17 */
  46:../../libdaisy/src/daisy_field.h ****         CV_2,    /** Connected  to ADC1_INP15 */
  47:../../libdaisy/src/daisy_field.h ****         CV_3,    /** Connected to ADC1_INP4 */
  48:../../libdaisy/src/daisy_field.h ****         CV_4,    /** Connected to ADC1_INP11 */
  49:../../libdaisy/src/daisy_field.h ****         CV_LAST, /**< & */
  50:../../libdaisy/src/daisy_field.h ****     };
  51:../../libdaisy/src/daisy_field.h **** 
  52:../../libdaisy/src/daisy_field.h ****     enum
  53:../../libdaisy/src/daisy_field.h ****     {
  54:../../libdaisy/src/daisy_field.h ****         LED_KEY_B1, /**< & */
  55:../../libdaisy/src/daisy_field.h ****         LED_KEY_B2, /**< & */
  56:../../libdaisy/src/daisy_field.h ****         LED_KEY_B3, /**< & */
  57:../../libdaisy/src/daisy_field.h ****         LED_KEY_B4, /**< & */
  58:../../libdaisy/src/daisy_field.h ****         LED_KEY_B5, /**< & */
  59:../../libdaisy/src/daisy_field.h ****         LED_KEY_B6, /**< & */
  60:../../libdaisy/src/daisy_field.h ****         LED_KEY_B7, /**< & */
  61:../../libdaisy/src/daisy_field.h ****         LED_KEY_B8, /**< & */
  62:../../libdaisy/src/daisy_field.h ****         LED_KEY_A8, /**< & */
  63:../../libdaisy/src/daisy_field.h ****         LED_KEY_A7, /**< & */
  64:../../libdaisy/src/daisy_field.h ****         LED_KEY_A6, /**< & */
  65:../../libdaisy/src/daisy_field.h ****         LED_KEY_A5, /**< & */
  66:../../libdaisy/src/daisy_field.h ****         LED_KEY_A4, /**< & */
  67:../../libdaisy/src/daisy_field.h ****         LED_KEY_A3, /**< & */
  68:../../libdaisy/src/daisy_field.h ****         LED_KEY_A2, /**< & */
  69:../../libdaisy/src/daisy_field.h ****         LED_KEY_A1, /**< & */
  70:../../libdaisy/src/daisy_field.h ****         LED_KNOB_1, /**< & */
  71:../../libdaisy/src/daisy_field.h ****         LED_KNOB_2, /**< & */
  72:../../libdaisy/src/daisy_field.h ****         LED_KNOB_3, /**< & */
  73:../../libdaisy/src/daisy_field.h ****         LED_KNOB_4, /**< & */
  74:../../libdaisy/src/daisy_field.h ****         LED_KNOB_5, /**< & */
  75:../../libdaisy/src/daisy_field.h ****         LED_KNOB_6, /**< & */
  76:../../libdaisy/src/daisy_field.h ****         LED_KNOB_7, /**< & */
  77:../../libdaisy/src/daisy_field.h ****         LED_KNOB_8, /**< & */
  78:../../libdaisy/src/daisy_field.h ****         LED_SW_1,   /**< & */
  79:../../libdaisy/src/daisy_field.h ****         LED_SW_2,   /**< & */
  80:../../libdaisy/src/daisy_field.h ****         LED_LAST    /**< & */
  81:../../libdaisy/src/daisy_field.h ****     };
  82:../../libdaisy/src/daisy_field.h **** 
  83:../../libdaisy/src/daisy_field.h ****     DaisyField() {}
  84:../../libdaisy/src/daisy_field.h ****     ~DaisyField() {}
  30              		.loc 1 84 5 view -0
  31              		.cfi_startproc
ARM GAS  /tmp/ccpRs2bQ.s 			page 3


  32              		@ args = 0, pretend = 0, frame = 0
  33              		@ frame_needed = 0, uses_anonymous_args = 0
  34              		@ link register save eliminated.
  35              	.LBB554:
  36              	.LBI554:
  37              		.file 2 "../../libdaisy/src/dev/sr_4021.h"
   1:../../libdaisy/src/dev/sr_4021.h **** #pragma once
   2:../../libdaisy/src/dev/sr_4021.h **** #ifndef DEV_SR_4021_H
   3:../../libdaisy/src/dev/sr_4021.h **** #define DEV_SR_4021_H
   4:../../libdaisy/src/dev/sr_4021.h **** #include "per/gpio.h"
   5:../../libdaisy/src/dev/sr_4021.h **** #include "sys/system.h"
   6:../../libdaisy/src/dev/sr_4021.h **** 
   7:../../libdaisy/src/dev/sr_4021.h **** namespace daisy
   8:../../libdaisy/src/dev/sr_4021.h **** {
   9:../../libdaisy/src/dev/sr_4021.h **** /** @brief Device Driver for CD4021 shift register
  10:../../libdaisy/src/dev/sr_4021.h ****  ** @author shensley
  11:../../libdaisy/src/dev/sr_4021.h ****  ** @addtogroup shiftregister
  12:../../libdaisy/src/dev/sr_4021.h ****  **
  13:../../libdaisy/src/dev/sr_4021.h ****  ** CD4021B-Q1: CMOS 8-STAGE STATIC SHIFT REGISTER
  14:../../libdaisy/src/dev/sr_4021.h ****  ** 
  15:../../libdaisy/src/dev/sr_4021.h ****  ** Supply Voltage: 3V to 18V
  16:../../libdaisy/src/dev/sr_4021.h ****  ** Clock Freq: 3MHz at 5V (less at 3v3) -> 8.5MHz at 15V
  17:../../libdaisy/src/dev/sr_4021.h ****  ** Pin Descriptions:
  18:../../libdaisy/src/dev/sr_4021.h ****  ** - Parallel Data[1-8] - 7, 6, 5, 4, 13, 14, 115, 1
  19:../../libdaisy/src/dev/sr_4021.h ****  ** - Serial Data        - 11
  20:../../libdaisy/src/dev/sr_4021.h ****  ** - Clock              - 10
  21:../../libdaisy/src/dev/sr_4021.h ****  ** - P/!S               - 9
  22:../../libdaisy/src/dev/sr_4021.h ****  ** - Q[6-8]             - 2, 12, 3
  23:../../libdaisy/src/dev/sr_4021.h ****  **
  24:../../libdaisy/src/dev/sr_4021.h ****  ** Driver has support for daisy chaining and running up to 2 same-sized 
  25:../../libdaisy/src/dev/sr_4021.h ****  ** chains in parallel from a single set of clk/latch pins to reduce 
  26:../../libdaisy/src/dev/sr_4021.h ****  ** pin/code overhead when using multiple devices.
  27:../../libdaisy/src/dev/sr_4021.h ****  **
  28:../../libdaisy/src/dev/sr_4021.h ****  ** When dealing with multiple parallel/daisy-chained devices the 
  29:../../libdaisy/src/dev/sr_4021.h ****  ** states of all inputs will be filled in the following order (example uses two chained and two pa
  30:../../libdaisy/src/dev/sr_4021.h ****  ** data[chain0,parallel0], data[chain1,parallel0], data[chain0,parallel1], data[chain1,parallel1];
  31:../../libdaisy/src/dev/sr_4021.h ****  ** 
  32:../../libdaisy/src/dev/sr_4021.h ****  ** When combining multiple daisy chained and parallel devices the number of devices chained should
  33:../../libdaisy/src/dev/sr_4021.h ****  ** for each parallel device chain.
  34:../../libdaisy/src/dev/sr_4021.h ****  **
  35:../../libdaisy/src/dev/sr_4021.h ****  ***/
  36:../../libdaisy/src/dev/sr_4021.h **** template <size_t num_daisychained = 1, size_t num_parallel = 1>
  37:../../libdaisy/src/dev/sr_4021.h **** class ShiftRegister4021
  38:../../libdaisy/src/dev/sr_4021.h **** {
  39:../../libdaisy/src/dev/sr_4021.h ****   public:
  40:../../libdaisy/src/dev/sr_4021.h ****     /** Configuration Structure for handling the pin setting of the device */
  41:../../libdaisy/src/dev/sr_4021.h ****     struct Config
  42:../../libdaisy/src/dev/sr_4021.h ****     {
  43:../../libdaisy/src/dev/sr_4021.h ****         dsy_gpio_pin clk;   /**< Clock pin to attach to pin 10 of device(s) */
  44:../../libdaisy/src/dev/sr_4021.h ****         dsy_gpio_pin latch; /**< Latch pin to attach to pin 9 of device(s) */
  45:../../libdaisy/src/dev/sr_4021.h ****         dsy_gpio_pin data[num_parallel]; /**< Data Pin(s) */
  46:../../libdaisy/src/dev/sr_4021.h ****     };
  47:../../libdaisy/src/dev/sr_4021.h **** 
  48:../../libdaisy/src/dev/sr_4021.h ****     ShiftRegister4021() {}
  49:../../libdaisy/src/dev/sr_4021.h ****     ~ShiftRegister4021() {}
  38              		.loc 2 49 5 view .LVU1
  39              		.loc 2 49 5 is_stmt 0 view .LVU2
ARM GAS  /tmp/ccpRs2bQ.s 			page 4


  40              	.LBE554:
  41              	.LBB555:
  42              	.LBI555:
  43              		.file 3 "../../libdaisy/src/hid/midi.h"
   1:../../libdaisy/src/hid/midi.h **** #pragma once
   2:../../libdaisy/src/hid/midi.h **** #ifndef DSY_MIDI_H
   3:../../libdaisy/src/hid/midi.h **** #define DSY_MIDI_H
   4:../../libdaisy/src/hid/midi.h **** 
   5:../../libdaisy/src/hid/midi.h **** // TODO: make this adjustable
   6:../../libdaisy/src/hid/midi.h **** #define SYSEX_BUFFER_LEN 128
   7:../../libdaisy/src/hid/midi.h **** 
   8:../../libdaisy/src/hid/midi.h **** #include <stdint.h>
   9:../../libdaisy/src/hid/midi.h **** #include <stdlib.h>
  10:../../libdaisy/src/hid/midi.h **** #include "per/uart.h"
  11:../../libdaisy/src/hid/midi.h **** #include "util/ringbuffer.h"
  12:../../libdaisy/src/hid/midi.h **** #include "hid/MidiEvent.h"
  13:../../libdaisy/src/hid/midi.h **** #include "sys/system.h"
  14:../../libdaisy/src/hid/midi.h **** 
  15:../../libdaisy/src/hid/midi.h **** namespace daisy
  16:../../libdaisy/src/hid/midi.h **** {
  17:../../libdaisy/src/hid/midi.h **** /** @addtogroup external 
  18:../../libdaisy/src/hid/midi.h ****     @{ 
  19:../../libdaisy/src/hid/midi.h **** */
  20:../../libdaisy/src/hid/midi.h **** 
  21:../../libdaisy/src/hid/midi.h **** class MidiUartTransport
  22:../../libdaisy/src/hid/midi.h **** {
  23:../../libdaisy/src/hid/midi.h ****   public:
  24:../../libdaisy/src/hid/midi.h ****     MidiUartTransport() {}
  25:../../libdaisy/src/hid/midi.h ****     ~MidiUartTransport() {}
  26:../../libdaisy/src/hid/midi.h **** 
  27:../../libdaisy/src/hid/midi.h ****     struct Config
  28:../../libdaisy/src/hid/midi.h ****     {
  29:../../libdaisy/src/hid/midi.h ****         UartHandler::Config::Peripheral periph;
  30:../../libdaisy/src/hid/midi.h ****         dsy_gpio_pin                    rx;
  31:../../libdaisy/src/hid/midi.h ****         dsy_gpio_pin                    tx;
  32:../../libdaisy/src/hid/midi.h **** 
  33:../../libdaisy/src/hid/midi.h ****         Config()
  34:../../libdaisy/src/hid/midi.h ****         {
  35:../../libdaisy/src/hid/midi.h ****             periph = UartHandler::Config::Peripheral::USART_1;
  36:../../libdaisy/src/hid/midi.h ****             rx     = {DSY_GPIOB, 7};
  37:../../libdaisy/src/hid/midi.h ****             tx     = {DSY_GPIOB, 6};
  38:../../libdaisy/src/hid/midi.h ****         }
  39:../../libdaisy/src/hid/midi.h ****     };
  40:../../libdaisy/src/hid/midi.h **** 
  41:../../libdaisy/src/hid/midi.h ****     inline void Init(Config config)
  42:../../libdaisy/src/hid/midi.h ****     {
  43:../../libdaisy/src/hid/midi.h ****         UartHandler::Config uart_config;
  44:../../libdaisy/src/hid/midi.h **** 
  45:../../libdaisy/src/hid/midi.h ****         //defaults
  46:../../libdaisy/src/hid/midi.h ****         uart_config.baudrate   = 31250;
  47:../../libdaisy/src/hid/midi.h ****         uart_config.stopbits   = UartHandler::Config::StopBits::BITS_1;
  48:../../libdaisy/src/hid/midi.h ****         uart_config.parity     = UartHandler::Config::Parity::NONE;
  49:../../libdaisy/src/hid/midi.h ****         uart_config.mode       = UartHandler::Config::Mode::TX_RX;
  50:../../libdaisy/src/hid/midi.h ****         uart_config.wordlength = UartHandler::Config::WordLength::BITS_8;
  51:../../libdaisy/src/hid/midi.h **** 
  52:../../libdaisy/src/hid/midi.h ****         //user settings
  53:../../libdaisy/src/hid/midi.h ****         uart_config.periph        = config.periph;
ARM GAS  /tmp/ccpRs2bQ.s 			page 5


  54:../../libdaisy/src/hid/midi.h ****         uart_config.pin_config.rx = config.rx;
  55:../../libdaisy/src/hid/midi.h ****         uart_config.pin_config.tx = config.tx;
  56:../../libdaisy/src/hid/midi.h **** 
  57:../../libdaisy/src/hid/midi.h ****         uart_.Init(uart_config);
  58:../../libdaisy/src/hid/midi.h ****     }
  59:../../libdaisy/src/hid/midi.h **** 
  60:../../libdaisy/src/hid/midi.h ****     inline void    StartRx() { uart_.StartRx(); }
  61:../../libdaisy/src/hid/midi.h ****     inline size_t  Readable() { return uart_.Readable(); }
  62:../../libdaisy/src/hid/midi.h ****     inline uint8_t Rx() { return uart_.PopRx(); }
  63:../../libdaisy/src/hid/midi.h ****     inline bool    RxActive() { return uart_.RxActive(); }
  64:../../libdaisy/src/hid/midi.h ****     inline void    FlushRx() { uart_.FlushRx(); }
  65:../../libdaisy/src/hid/midi.h ****     inline void    Tx(uint8_t* buff, size_t size) { uart_.PollTx(buff, size); }
  66:../../libdaisy/src/hid/midi.h **** 
  67:../../libdaisy/src/hid/midi.h ****   private:
  68:../../libdaisy/src/hid/midi.h ****     UartHandler uart_;
  69:../../libdaisy/src/hid/midi.h **** };
  70:../../libdaisy/src/hid/midi.h **** 
  71:../../libdaisy/src/hid/midi.h **** /** 
  72:../../libdaisy/src/hid/midi.h ****     @brief Simple MIDI Handler \n 
  73:../../libdaisy/src/hid/midi.h ****     Parses bytes from an input into valid MidiEvents. \n 
  74:../../libdaisy/src/hid/midi.h ****     The MidiEvents fill a FIFO queue that the user can pop messages from.
  75:../../libdaisy/src/hid/midi.h ****     @author shensley
  76:../../libdaisy/src/hid/midi.h ****     @date March 2020
  77:../../libdaisy/src/hid/midi.h **** */
  78:../../libdaisy/src/hid/midi.h **** template <typename Transport>
  79:../../libdaisy/src/hid/midi.h **** class MidiHandler
  80:../../libdaisy/src/hid/midi.h **** {
  81:../../libdaisy/src/hid/midi.h ****   public:
  82:../../libdaisy/src/hid/midi.h ****     MidiHandler() {}
  83:../../libdaisy/src/hid/midi.h ****     ~MidiHandler() {}
  44              		.loc 3 83 5 is_stmt 1 view .LVU3
  45              	.LBB556:
  46              	.LBI556:
  25:../../libdaisy/src/hid/midi.h **** 
  47              		.loc 3 25 5 view .LVU4
  25:../../libdaisy/src/hid/midi.h **** 
  48              		.loc 3 25 5 is_stmt 0 view .LVU5
  49              	.LBE556:
  50              	.LBE555:
  51              	.LBB557:
  52              	.LBI557:
  53              		.file 4 "../../libdaisy/src/hid/gatein.h"
   1:../../libdaisy/src/hid/gatein.h **** #pragma once
   2:../../libdaisy/src/hid/gatein.h **** #ifndef DSY_GATEIN_H
   3:../../libdaisy/src/hid/gatein.h **** #define DSY_GATEIN_H
   4:../../libdaisy/src/hid/gatein.h **** #include "per/gpio.h"
   5:../../libdaisy/src/hid/gatein.h **** 
   6:../../libdaisy/src/hid/gatein.h **** namespace daisy
   7:../../libdaisy/src/hid/gatein.h **** {
   8:../../libdaisy/src/hid/gatein.h **** /** @file hid_gatein.h */
   9:../../libdaisy/src/hid/gatein.h **** /**
  10:../../libdaisy/src/hid/gatein.h ****    @brief Generic Class for handling gate inputs through GPIO.
  11:../../libdaisy/src/hid/gatein.h ****    @author Stephen Hensley
  12:../../libdaisy/src/hid/gatein.h ****    @date    March 2020
  13:../../libdaisy/src/hid/gatein.h ****    @ingroup controls
  14:../../libdaisy/src/hid/gatein.h **** */
  15:../../libdaisy/src/hid/gatein.h **** class GateIn
ARM GAS  /tmp/ccpRs2bQ.s 			page 6


  16:../../libdaisy/src/hid/gatein.h **** {
  17:../../libdaisy/src/hid/gatein.h ****   public:
  18:../../libdaisy/src/hid/gatein.h ****     /** GateIn 
  19:../../libdaisy/src/hid/gatein.h ****     Constructor 
  20:../../libdaisy/src/hid/gatein.h ****     */
  21:../../libdaisy/src/hid/gatein.h ****     GateIn() {}
  22:../../libdaisy/src/hid/gatein.h ****     /** GateIn~
  23:../../libdaisy/src/hid/gatein.h ****     Destructor 
  24:../../libdaisy/src/hid/gatein.h ****     */
  25:../../libdaisy/src/hid/gatein.h ****     ~GateIn() {}
  54              		.loc 4 25 5 is_stmt 1 view .LVU6
  55              		.loc 4 25 5 is_stmt 0 view .LVU7
  56              	.LBE557:
  57              	.LBB558:
  58              	.LBI558:
  59              		.file 5 "../../libdaisy/src/hid/disp/oled_display.h"
   1:../../libdaisy/src/hid/disp/oled_display.h **** #pragma once
   2:../../libdaisy/src/hid/disp/oled_display.h **** #ifndef DSY_OLED_DISPLAY_H
   3:../../libdaisy/src/hid/disp/oled_display.h **** #define DSY_OLED_DISPLAY_H /**< Macro */
   4:../../libdaisy/src/hid/disp/oled_display.h **** 
   5:../../libdaisy/src/hid/disp/oled_display.h **** #include "display.h"
   6:../../libdaisy/src/hid/disp/oled_display.h **** 
   7:../../libdaisy/src/hid/disp/oled_display.h **** namespace daisy
   8:../../libdaisy/src/hid/disp/oled_display.h **** {
   9:../../libdaisy/src/hid/disp/oled_display.h **** /** 
  10:../../libdaisy/src/hid/disp/oled_display.h ****  * This class is for drawing to a monochrome OLED display. 
  11:../../libdaisy/src/hid/disp/oled_display.h **** */
  12:../../libdaisy/src/hid/disp/oled_display.h **** template <typename DisplayDriver>
  13:../../libdaisy/src/hid/disp/oled_display.h **** class OledDisplay : public OneBitGraphicsDisplayImpl<OledDisplay<DisplayDriver>>
  14:../../libdaisy/src/hid/disp/oled_display.h **** {
  15:../../libdaisy/src/hid/disp/oled_display.h ****   public:
  16:../../libdaisy/src/hid/disp/oled_display.h ****     OledDisplay() {}
  17:../../libdaisy/src/hid/disp/oled_display.h ****     virtual ~OledDisplay() {}
  60              		.loc 5 17 13 is_stmt 1 view .LVU8
  61              	.LBB559:
  62              	.LBI559:
  63              		.file 6 "../../libdaisy/src/hid/disp/display.h"
   1:../../libdaisy/src/hid/disp/display.h **** #pragma once
   2:../../libdaisy/src/hid/disp/display.h **** #ifndef DSY_DISPLAY_H
   3:../../libdaisy/src/hid/disp/display.h **** #define DSY_DISPLAY_H /**< Macro */
   4:../../libdaisy/src/hid/disp/display.h **** #include <cmath>
   5:../../libdaisy/src/hid/disp/display.h **** #include "util/oled_fonts.h"
   6:../../libdaisy/src/hid/disp/display.h **** #include "daisy_core.h"
   7:../../libdaisy/src/hid/disp/display.h **** #include "graphics_common.h"
   8:../../libdaisy/src/hid/disp/display.h **** 
   9:../../libdaisy/src/hid/disp/display.h **** #ifndef deg2rad
  10:../../libdaisy/src/hid/disp/display.h **** #define deg2rad(deg) ((deg)*3.141592 / 180.0)
  11:../../libdaisy/src/hid/disp/display.h **** #endif
  12:../../libdaisy/src/hid/disp/display.h **** 
  13:../../libdaisy/src/hid/disp/display.h **** namespace daisy
  14:../../libdaisy/src/hid/disp/display.h **** {
  15:../../libdaisy/src/hid/disp/display.h **** /** 
  16:../../libdaisy/src/hid/disp/display.h ****  * This interface is used as a base class for all types of 1bit-per-pixel
  17:../../libdaisy/src/hid/disp/display.h ****  * graphics displays.
  18:../../libdaisy/src/hid/disp/display.h **** */
  19:../../libdaisy/src/hid/disp/display.h **** class OneBitGraphicsDisplay
  20:../../libdaisy/src/hid/disp/display.h **** {
ARM GAS  /tmp/ccpRs2bQ.s 			page 7


  21:../../libdaisy/src/hid/disp/display.h ****   public:
  22:../../libdaisy/src/hid/disp/display.h ****     OneBitGraphicsDisplay() {}
  23:../../libdaisy/src/hid/disp/display.h ****     virtual ~OneBitGraphicsDisplay() {}
  24:../../libdaisy/src/hid/disp/display.h **** 
  25:../../libdaisy/src/hid/disp/display.h ****     virtual uint16_t Height() const = 0;
  26:../../libdaisy/src/hid/disp/display.h ****     virtual uint16_t Width() const  = 0;
  27:../../libdaisy/src/hid/disp/display.h **** 
  28:../../libdaisy/src/hid/disp/display.h ****     Rectangle GetBounds() const
  29:../../libdaisy/src/hid/disp/display.h ****     {
  30:../../libdaisy/src/hid/disp/display.h ****         return Rectangle(int16_t(Width()), int16_t(Height()));
  31:../../libdaisy/src/hid/disp/display.h ****     }
  32:../../libdaisy/src/hid/disp/display.h **** 
  33:../../libdaisy/src/hid/disp/display.h **** 
  34:../../libdaisy/src/hid/disp/display.h ****     size_t CurrentX() { return currentX_; };
  35:../../libdaisy/src/hid/disp/display.h ****     size_t CurrentY() { return currentY_; };
  36:../../libdaisy/src/hid/disp/display.h **** 
  37:../../libdaisy/src/hid/disp/display.h ****     /** 
  38:../../libdaisy/src/hid/disp/display.h ****     Fills the entire display with either on/off.
  39:../../libdaisy/src/hid/disp/display.h ****     \param on Sets on or off.
  40:../../libdaisy/src/hid/disp/display.h ****     */
  41:../../libdaisy/src/hid/disp/display.h ****     virtual void Fill(bool on) = 0;
  42:../../libdaisy/src/hid/disp/display.h **** 
  43:../../libdaisy/src/hid/disp/display.h ****     /**
  44:../../libdaisy/src/hid/disp/display.h ****     Sets the pixel at the specified coordinate to be on/off.
  45:../../libdaisy/src/hid/disp/display.h ****     \param x   x Coordinate
  46:../../libdaisy/src/hid/disp/display.h ****     \param y   y coordinate
  47:../../libdaisy/src/hid/disp/display.h ****     \param on  on or off
  48:../../libdaisy/src/hid/disp/display.h ****     */
  49:../../libdaisy/src/hid/disp/display.h ****     virtual void DrawPixel(uint_fast8_t x, uint_fast8_t y, bool on) = 0;
  50:../../libdaisy/src/hid/disp/display.h **** 
  51:../../libdaisy/src/hid/disp/display.h ****     /**
  52:../../libdaisy/src/hid/disp/display.h ****     Draws a line from (x1, y1) to (y1, y2)
  53:../../libdaisy/src/hid/disp/display.h ****     \param x1  x Coordinate of the starting point
  54:../../libdaisy/src/hid/disp/display.h ****     \param y1  y Coordinate of the starting point
  55:../../libdaisy/src/hid/disp/display.h ****     \param x2  x Coordinate of the ending point
  56:../../libdaisy/src/hid/disp/display.h ****     \param y2  y Coordinate of the ending point
  57:../../libdaisy/src/hid/disp/display.h ****     \param on  on or off
  58:../../libdaisy/src/hid/disp/display.h ****     */
  59:../../libdaisy/src/hid/disp/display.h ****     virtual void DrawLine(uint_fast8_t x1,
  60:../../libdaisy/src/hid/disp/display.h ****                           uint_fast8_t y1,
  61:../../libdaisy/src/hid/disp/display.h ****                           uint_fast8_t x2,
  62:../../libdaisy/src/hid/disp/display.h ****                           uint_fast8_t y2,
  63:../../libdaisy/src/hid/disp/display.h ****                           bool         on)
  64:../../libdaisy/src/hid/disp/display.h ****         = 0;
  65:../../libdaisy/src/hid/disp/display.h **** 
  66:../../libdaisy/src/hid/disp/display.h ****     /**
  67:../../libdaisy/src/hid/disp/display.h ****     Draws a rectangle based on two coordinates.
  68:../../libdaisy/src/hid/disp/display.h ****     \param x1 x Coordinate of the first point
  69:../../libdaisy/src/hid/disp/display.h ****     \param y1 y Coordinate of the first point
  70:../../libdaisy/src/hid/disp/display.h ****     \param x2 x Coordinate of the second point
  71:../../libdaisy/src/hid/disp/display.h ****     \param y2 y Coordinate of the second point
  72:../../libdaisy/src/hid/disp/display.h ****     \param on on or off
  73:../../libdaisy/src/hid/disp/display.h ****     \param fill fill the rectangle or draw only the outline
  74:../../libdaisy/src/hid/disp/display.h ****     */
  75:../../libdaisy/src/hid/disp/display.h ****     virtual void DrawRect(uint_fast8_t x1,
  76:../../libdaisy/src/hid/disp/display.h ****                           uint_fast8_t y1,
  77:../../libdaisy/src/hid/disp/display.h ****                           uint_fast8_t x2,
ARM GAS  /tmp/ccpRs2bQ.s 			page 8


  78:../../libdaisy/src/hid/disp/display.h ****                           uint_fast8_t y2,
  79:../../libdaisy/src/hid/disp/display.h ****                           bool         on,
  80:../../libdaisy/src/hid/disp/display.h ****                           bool         fill = false)
  81:../../libdaisy/src/hid/disp/display.h ****         = 0;
  82:../../libdaisy/src/hid/disp/display.h **** 
  83:../../libdaisy/src/hid/disp/display.h ****     /**
  84:../../libdaisy/src/hid/disp/display.h ****     Draws a rectangle.
  85:../../libdaisy/src/hid/disp/display.h ****     \param rect the rectangle
  86:../../libdaisy/src/hid/disp/display.h ****     \param on   on or off
  87:../../libdaisy/src/hid/disp/display.h ****     \param fill fill the rectangle or draw only the outline
  88:../../libdaisy/src/hid/disp/display.h ****     */
  89:../../libdaisy/src/hid/disp/display.h ****     void DrawRect(const Rectangle& rect, bool on, bool fill = false)
  90:../../libdaisy/src/hid/disp/display.h ****     {
  91:../../libdaisy/src/hid/disp/display.h ****         DrawRect(rect.GetX(),
  92:../../libdaisy/src/hid/disp/display.h ****                  rect.GetY(),
  93:../../libdaisy/src/hid/disp/display.h ****                  rect.GetRight(),
  94:../../libdaisy/src/hid/disp/display.h ****                  rect.GetBottom(),
  95:../../libdaisy/src/hid/disp/display.h ****                  on,
  96:../../libdaisy/src/hid/disp/display.h ****                  fill);
  97:../../libdaisy/src/hid/disp/display.h ****     }
  98:../../libdaisy/src/hid/disp/display.h **** 
  99:../../libdaisy/src/hid/disp/display.h ****     /**
 100:../../libdaisy/src/hid/disp/display.h ****     Draws an arc around the specified coordinate
 101:../../libdaisy/src/hid/disp/display.h ****     \param x           x Coordinate of the center of the arc
 102:../../libdaisy/src/hid/disp/display.h ****     \param y           y Coordinate of the center of the arc
 103:../../libdaisy/src/hid/disp/display.h ****     \param radius      radius of the arc
 104:../../libdaisy/src/hid/disp/display.h ****     \param start_angle angle where to start the arc
 105:../../libdaisy/src/hid/disp/display.h ****     \param sweep       total angle of the arc
 106:../../libdaisy/src/hid/disp/display.h ****     \param on  on or off
 107:../../libdaisy/src/hid/disp/display.h ****     */
 108:../../libdaisy/src/hid/disp/display.h ****     virtual void DrawArc(uint_fast8_t x,
 109:../../libdaisy/src/hid/disp/display.h ****                          uint_fast8_t y,
 110:../../libdaisy/src/hid/disp/display.h ****                          uint_fast8_t radius,
 111:../../libdaisy/src/hid/disp/display.h ****                          int_fast16_t start_angle,
 112:../../libdaisy/src/hid/disp/display.h ****                          int_fast16_t sweep,
 113:../../libdaisy/src/hid/disp/display.h ****                          bool         on)
 114:../../libdaisy/src/hid/disp/display.h ****         = 0;
 115:../../libdaisy/src/hid/disp/display.h **** 
 116:../../libdaisy/src/hid/disp/display.h ****     /**
 117:../../libdaisy/src/hid/disp/display.h ****     Draws a circle around the specified coordinate
 118:../../libdaisy/src/hid/disp/display.h ****     \param x           x Coordinate of the center of the circle
 119:../../libdaisy/src/hid/disp/display.h ****     \param y           y Coordinate of the center of the circle
 120:../../libdaisy/src/hid/disp/display.h ****     \param radius      radius of the circle
 121:../../libdaisy/src/hid/disp/display.h ****     \param on  on or off
 122:../../libdaisy/src/hid/disp/display.h ****     */
 123:../../libdaisy/src/hid/disp/display.h ****     void
 124:../../libdaisy/src/hid/disp/display.h ****     DrawCircle(uint_fast8_t x, uint_fast8_t y, uint_fast8_t radius, bool on)
 125:../../libdaisy/src/hid/disp/display.h ****     {
 126:../../libdaisy/src/hid/disp/display.h ****         DrawArc(x, y, radius, 0, 360, on);
 127:../../libdaisy/src/hid/disp/display.h ****     };
 128:../../libdaisy/src/hid/disp/display.h **** 
 129:../../libdaisy/src/hid/disp/display.h ****     /** 
 130:../../libdaisy/src/hid/disp/display.h ****     Writes the character with the specific FontDef
 131:../../libdaisy/src/hid/disp/display.h ****     to the display buffer at the current Cursor position.
 132:../../libdaisy/src/hid/disp/display.h ****     \param ch character to be written
 133:../../libdaisy/src/hid/disp/display.h ****     \param font font to be written in
 134:../../libdaisy/src/hid/disp/display.h ****     \param on    on or off
ARM GAS  /tmp/ccpRs2bQ.s 			page 9


 135:../../libdaisy/src/hid/disp/display.h ****     \return &
 136:../../libdaisy/src/hid/disp/display.h ****     */
 137:../../libdaisy/src/hid/disp/display.h ****     virtual char WriteChar(char ch, FontDef font, bool on) = 0;
 138:../../libdaisy/src/hid/disp/display.h **** 
 139:../../libdaisy/src/hid/disp/display.h ****     /** 
 140:../../libdaisy/src/hid/disp/display.h ****     Similar to WriteChar, except it will handle an entire String.
 141:../../libdaisy/src/hid/disp/display.h ****     Wrapping does not happen automatically, so the width
 142:../../libdaisy/src/hid/disp/display.h ****     of the string must be kept within the dimensions of the screen.
 143:../../libdaisy/src/hid/disp/display.h ****     \param str string to be written
 144:../../libdaisy/src/hid/disp/display.h ****     \param font font to use
 145:../../libdaisy/src/hid/disp/display.h ****     \param on  on or off
 146:../../libdaisy/src/hid/disp/display.h ****     \return &
 147:../../libdaisy/src/hid/disp/display.h ****     */
 148:../../libdaisy/src/hid/disp/display.h ****     virtual char WriteString(const char* str, FontDef font, bool on) = 0;
 149:../../libdaisy/src/hid/disp/display.h **** 
 150:../../libdaisy/src/hid/disp/display.h ****     /** 
 151:../../libdaisy/src/hid/disp/display.h ****     Similar to WriteString but justified within a bounding box.
 152:../../libdaisy/src/hid/disp/display.h ****     \param str          string to be written
 153:../../libdaisy/src/hid/disp/display.h ****     \param font         font to use
 154:../../libdaisy/src/hid/disp/display.h ****     \param boundingBox  the bounding box to draw the text in
 155:../../libdaisy/src/hid/disp/display.h ****     \param alignment    the alignment to use
 156:../../libdaisy/src/hid/disp/display.h ****     \param on           on or off
 157:../../libdaisy/src/hid/disp/display.h ****     \return The rectangle that was drawn to
 158:../../libdaisy/src/hid/disp/display.h ****     */
 159:../../libdaisy/src/hid/disp/display.h ****     virtual Rectangle WriteStringAligned(const char*    str,
 160:../../libdaisy/src/hid/disp/display.h ****                                          const FontDef& font,
 161:../../libdaisy/src/hid/disp/display.h ****                                          Rectangle      boundingBox,
 162:../../libdaisy/src/hid/disp/display.h ****                                          Alignment      alignment,
 163:../../libdaisy/src/hid/disp/display.h ****                                          bool           on)
 164:../../libdaisy/src/hid/disp/display.h ****         = 0;
 165:../../libdaisy/src/hid/disp/display.h **** 
 166:../../libdaisy/src/hid/disp/display.h ****     /** 
 167:../../libdaisy/src/hid/disp/display.h ****     Moves the 'Cursor' position used for WriteChar, and WriteStr to the specified coordinate.
 168:../../libdaisy/src/hid/disp/display.h ****     \param x x pos
 169:../../libdaisy/src/hid/disp/display.h ****     \param y y pos
 170:../../libdaisy/src/hid/disp/display.h ****     */
 171:../../libdaisy/src/hid/disp/display.h ****     void SetCursor(uint16_t x, uint16_t y)
 172:../../libdaisy/src/hid/disp/display.h ****     {
 173:../../libdaisy/src/hid/disp/display.h ****         currentX_ = (x >= Width()) ? Width() - 1 : x;
 174:../../libdaisy/src/hid/disp/display.h ****         currentY_ = (y >= Height()) ? Height() - 1 : y;
 175:../../libdaisy/src/hid/disp/display.h ****     }
 176:../../libdaisy/src/hid/disp/display.h **** 
 177:../../libdaisy/src/hid/disp/display.h ****     /** 
 178:../../libdaisy/src/hid/disp/display.h ****     Writes the current display buffer to the OLED device using SPI or I2C depending on 
 179:../../libdaisy/src/hid/disp/display.h ****     how the object was initialized.
 180:../../libdaisy/src/hid/disp/display.h ****     */
 181:../../libdaisy/src/hid/disp/display.h ****     virtual void Update() = 0;
 182:../../libdaisy/src/hid/disp/display.h **** 
 183:../../libdaisy/src/hid/disp/display.h ****   protected:
 184:../../libdaisy/src/hid/disp/display.h ****     uint16_t currentX_;
 185:../../libdaisy/src/hid/disp/display.h ****     uint16_t currentY_;
 186:../../libdaisy/src/hid/disp/display.h **** };
 187:../../libdaisy/src/hid/disp/display.h **** 
 188:../../libdaisy/src/hid/disp/display.h **** /** This class is intended as a intermediary class for your actual implementation of the OneBitGrap
 189:../../libdaisy/src/hid/disp/display.h ****  *  interface. It uses the CRTP design pattern where the template argument is the child class. It p
 190:../../libdaisy/src/hid/disp/display.h ****  *  implementations for most of the functions, except DrawPixel(), Update() and Fill(), which you'l
 191:../../libdaisy/src/hid/disp/display.h ****  *  to provide in your child class.
ARM GAS  /tmp/ccpRs2bQ.s 			page 10


 192:../../libdaisy/src/hid/disp/display.h ****  *  The main goal of this class is to provide common drawing functions without relying on massive a
 193:../../libdaisy/src/hid/disp/display.h ****  *  virtual function calls that would result in a performance loss. To achieve this, any drawing fu
 194:../../libdaisy/src/hid/disp/display.h ****  *  is implemented here and internally calls other drawing functions (e.g. DrawRect() which interna
 195:../../libdaisy/src/hid/disp/display.h ****  *  DrawPixel() and DrawLine()) makes these calls via the qualified name of these functions to expl
 196:../../libdaisy/src/hid/disp/display.h ****  *  suppress the virtual dispatch mechanism like this:
 197:../../libdaisy/src/hid/disp/display.h ****  * 
 198:../../libdaisy/src/hid/disp/display.h ****  *      ChildType::DrawPixel(...); // no virtual function call; direct call into the child class fu
 199:../../libdaisy/src/hid/disp/display.h ****  *  
 200:../../libdaisy/src/hid/disp/display.h ****  *  To create a custom OneBitGraphicsDisplay implementation, you can 
 201:../../libdaisy/src/hid/disp/display.h ****  *  A) inherit from OneBitGraphicsDisplay directly and provide all the drawing functions yourself
 202:../../libdaisy/src/hid/disp/display.h ****  *  B) Inherit from OneBitGraphicsDisplayImpl and only provide DrawPixel(), Fill() and Update()
 203:../../libdaisy/src/hid/disp/display.h ****  *     like this:
 204:../../libdaisy/src/hid/disp/display.h ****  *  
 205:../../libdaisy/src/hid/disp/display.h ****  *      class MyDisplayClass : public OneBitGraphicsDisplayImpl<MyDisplayClass> 
 206:../../libdaisy/src/hid/disp/display.h ****  *      {
 207:../../libdaisy/src/hid/disp/display.h ****  *      public:
 208:../../libdaisy/src/hid/disp/display.h ****  *          void Fill() override { ... };
 209:../../libdaisy/src/hid/disp/display.h ****  *          void DrawPixel(uint_fast8_t x, uint_fast8_t y, bool on) override { ... };
 210:../../libdaisy/src/hid/disp/display.h ****  *          void Update() override { ... }
 211:../../libdaisy/src/hid/disp/display.h ****  *      };
 212:../../libdaisy/src/hid/disp/display.h ****  *  
 213:../../libdaisy/src/hid/disp/display.h ****  */
 214:../../libdaisy/src/hid/disp/display.h **** template <class ChildType>
 215:../../libdaisy/src/hid/disp/display.h **** class OneBitGraphicsDisplayImpl : public OneBitGraphicsDisplay
 216:../../libdaisy/src/hid/disp/display.h **** {
 217:../../libdaisy/src/hid/disp/display.h ****   public:
 218:../../libdaisy/src/hid/disp/display.h ****     OneBitGraphicsDisplayImpl() {}
 219:../../libdaisy/src/hid/disp/display.h ****     virtual ~OneBitGraphicsDisplayImpl() {}
  64              		.loc 6 219 13 view .LVU9
  65              	.LBB560:
  66              	.LBI560:
  23:../../libdaisy/src/hid/disp/display.h **** 
  67              		.loc 6 23 13 view .LVU10
  23:../../libdaisy/src/hid/disp/display.h **** 
  68              		.loc 6 23 13 is_stmt 0 view .LVU11
  69              	.LBE560:
  70              	.LBE559:
  71              	.LBE558:
  72              	.LBB561:
  73              	.LBI561:
  74              		.file 7 "../../libdaisy/src/daisy_seed.h"
   1:../../libdaisy/src/daisy_seed.h **** #pragma once
   2:../../libdaisy/src/daisy_seed.h **** #ifndef DSY_SEED_H
   3:../../libdaisy/src/daisy_seed.h **** #define DSY_SEED_H
   4:../../libdaisy/src/daisy_seed.h **** 
   5:../../libdaisy/src/daisy_seed.h **** #include "daisy.h"
   6:../../libdaisy/src/daisy_seed.h **** 
   7:../../libdaisy/src/daisy_seed.h **** //Uncomment this out if you're still using the rev2 hardware
   8:../../libdaisy/src/daisy_seed.h **** //#define SEED_REV2
   9:../../libdaisy/src/daisy_seed.h **** 
  10:../../libdaisy/src/daisy_seed.h **** namespace daisy
  11:../../libdaisy/src/daisy_seed.h **** {
  12:../../libdaisy/src/daisy_seed.h **** /**
  13:../../libdaisy/src/daisy_seed.h ****    @brief This is the higher-level interface for the Daisy board. \n 
  14:../../libdaisy/src/daisy_seed.h ****     All basic peripheral configuration/initialization is setup here. \n
  15:../../libdaisy/src/daisy_seed.h **** 
  16:../../libdaisy/src/daisy_seed.h ****    @ingroup boards
ARM GAS  /tmp/ccpRs2bQ.s 			page 11


  17:../../libdaisy/src/daisy_seed.h **** */
  18:../../libdaisy/src/daisy_seed.h **** class DaisySeed
  19:../../libdaisy/src/daisy_seed.h **** {
  20:../../libdaisy/src/daisy_seed.h ****   public:
  21:../../libdaisy/src/daisy_seed.h ****     DaisySeed() {}
  22:../../libdaisy/src/daisy_seed.h ****     ~DaisySeed() {}
  75              		.loc 7 22 5 is_stmt 1 view .LVU12
  76              	.LBB562:
  77              	.LBI562:
  78              		.file 8 "../../libdaisy/src/sys/system.h"
   1:../../libdaisy/src/sys/system.h **** #ifndef DSY_SYSTEM_H
   2:../../libdaisy/src/sys/system.h **** #define DSY_SYSTEM_H
   3:../../libdaisy/src/sys/system.h **** 
   4:../../libdaisy/src/sys/system.h **** #ifndef UNIT_TEST // for unit tests, a dummy implementation is provided below
   5:../../libdaisy/src/sys/system.h **** 
   6:../../libdaisy/src/sys/system.h **** #include <cstdint>
   7:../../libdaisy/src/sys/system.h **** #include "per/tim.h"
   8:../../libdaisy/src/sys/system.h **** 
   9:../../libdaisy/src/sys/system.h **** namespace daisy
  10:../../libdaisy/src/sys/system.h **** {
  11:../../libdaisy/src/sys/system.h **** /** A handle for interacting with the Core System. 
  12:../../libdaisy/src/sys/system.h ****  ** This includes the Clock tree, MPU, global DMA initialization,
  13:../../libdaisy/src/sys/system.h ****  ** cache handling, and any other necessary global initiailzation
  14:../../libdaisy/src/sys/system.h ****  **
  15:../../libdaisy/src/sys/system.h ****  ** @author shensley
  16:../../libdaisy/src/sys/system.h ****  ** @addtogroup system
  17:../../libdaisy/src/sys/system.h ****  */
  18:../../libdaisy/src/sys/system.h **** class System
  19:../../libdaisy/src/sys/system.h **** {
  20:../../libdaisy/src/sys/system.h ****   public:
  21:../../libdaisy/src/sys/system.h ****     /** Contains settings for initializing the System */
  22:../../libdaisy/src/sys/system.h ****     struct Config
  23:../../libdaisy/src/sys/system.h ****     {
  24:../../libdaisy/src/sys/system.h ****         /** Specifies the system clock frequency that feeds APB/AHB clocks, etc. */
  25:../../libdaisy/src/sys/system.h ****         enum class SysClkFreq
  26:../../libdaisy/src/sys/system.h ****         {
  27:../../libdaisy/src/sys/system.h ****             FREQ_400MHZ,
  28:../../libdaisy/src/sys/system.h ****             FREQ_480MHZ,
  29:../../libdaisy/src/sys/system.h ****         };
  30:../../libdaisy/src/sys/system.h **** 
  31:../../libdaisy/src/sys/system.h ****         /** Method to call on the struct to set to defaults
  32:../../libdaisy/src/sys/system.h ****          ** CPU Freq set to 400MHz
  33:../../libdaisy/src/sys/system.h ****          ** Cache Enabled 
  34:../../libdaisy/src/sys/system.h ****          ** */
  35:../../libdaisy/src/sys/system.h ****         void Defaults()
  36:../../libdaisy/src/sys/system.h ****         {
  37:../../libdaisy/src/sys/system.h ****             cpu_freq   = SysClkFreq::FREQ_400MHZ;
  38:../../libdaisy/src/sys/system.h ****             use_dcache = true;
  39:../../libdaisy/src/sys/system.h ****             use_icache = true;
  40:../../libdaisy/src/sys/system.h ****         }
  41:../../libdaisy/src/sys/system.h **** 
  42:../../libdaisy/src/sys/system.h ****         /** Method to call on the struct to set to boost mode:
  43:../../libdaisy/src/sys/system.h ****          ** CPU Freq set to 480MHz
  44:../../libdaisy/src/sys/system.h ****          ** Cache Enabled 
  45:../../libdaisy/src/sys/system.h ****          ** */
  46:../../libdaisy/src/sys/system.h ****         void Boost()
  47:../../libdaisy/src/sys/system.h ****         {
ARM GAS  /tmp/ccpRs2bQ.s 			page 12


  48:../../libdaisy/src/sys/system.h ****             cpu_freq   = SysClkFreq::FREQ_480MHZ;
  49:../../libdaisy/src/sys/system.h ****             use_dcache = true;
  50:../../libdaisy/src/sys/system.h ****             use_icache = true;
  51:../../libdaisy/src/sys/system.h ****         }
  52:../../libdaisy/src/sys/system.h **** 
  53:../../libdaisy/src/sys/system.h ****         SysClkFreq cpu_freq;
  54:../../libdaisy/src/sys/system.h ****         bool       use_dcache;
  55:../../libdaisy/src/sys/system.h ****         bool       use_icache;
  56:../../libdaisy/src/sys/system.h ****     };
  57:../../libdaisy/src/sys/system.h **** 
  58:../../libdaisy/src/sys/system.h ****     System() {}
  59:../../libdaisy/src/sys/system.h ****     ~System() {}
  79              		.loc 8 59 5 view .LVU13
  80              		.loc 8 59 5 is_stmt 0 view .LVU14
  81              	.LBE562:
  82              	.LBB563:
  83              	.LBI563:
  84              		.file 9 "../../libdaisy/src/hid/usb.h"
   1:../../libdaisy/src/hid/usb.h **** #pragma once
   2:../../libdaisy/src/hid/usb.h **** #ifndef DSY_HID_USB_H
   3:../../libdaisy/src/hid/usb.h **** #define DSY_HID_USB_H
   4:../../libdaisy/src/hid/usb.h **** #include <stdint.h>
   5:../../libdaisy/src/hid/usb.h **** #include <stdlib.h>
   6:../../libdaisy/src/hid/usb.h **** 
   7:../../libdaisy/src/hid/usb.h **** namespace daisy
   8:../../libdaisy/src/hid/usb.h **** /** @addtogroup externals
   9:../../libdaisy/src/hid/usb.h ****     @{
  10:../../libdaisy/src/hid/usb.h **** */
  11:../../libdaisy/src/hid/usb.h **** 
  12:../../libdaisy/src/hid/usb.h **** {
  13:../../libdaisy/src/hid/usb.h **** /** 
  14:../../libdaisy/src/hid/usb.h ****     @brief Interface for initializing and using the USB Peripherals on the daisy
  15:../../libdaisy/src/hid/usb.h ****     @author Stephen Hensley
  16:../../libdaisy/src/hid/usb.h ****     @date December 2019
  17:../../libdaisy/src/hid/usb.h **** */
  18:../../libdaisy/src/hid/usb.h **** class UsbHandle
  19:../../libdaisy/src/hid/usb.h **** {
  20:../../libdaisy/src/hid/usb.h ****   public:
  21:../../libdaisy/src/hid/usb.h ****     /** Return values for USBHandle Functions */
  22:../../libdaisy/src/hid/usb.h ****     enum class Result
  23:../../libdaisy/src/hid/usb.h ****     {
  24:../../libdaisy/src/hid/usb.h ****         OK,
  25:../../libdaisy/src/hid/usb.h ****         ERR,
  26:../../libdaisy/src/hid/usb.h ****     };
  27:../../libdaisy/src/hid/usb.h **** 
  28:../../libdaisy/src/hid/usb.h ****     /** Specified which of the two USB Peripherals to initialize. */
  29:../../libdaisy/src/hid/usb.h ****     enum UsbPeriph
  30:../../libdaisy/src/hid/usb.h ****     {
  31:../../libdaisy/src/hid/usb.h ****         FS_INTERNAL, /**< Internal pin */
  32:../../libdaisy/src/hid/usb.h ****         FS_EXTERNAL, /**< FS External D+ pin is Pin 38 (GPIO32). FS External D- pin is Pin 37 (GPIO
  33:../../libdaisy/src/hid/usb.h ****         FS_BOTH,     /**< Both */
  34:../../libdaisy/src/hid/usb.h ****     };
  35:../../libdaisy/src/hid/usb.h **** 
  36:../../libdaisy/src/hid/usb.h **** 
  37:../../libdaisy/src/hid/usb.h ****     /** Function called upon reception of a buffer */
  38:../../libdaisy/src/hid/usb.h ****     typedef void (*ReceiveCallback)(uint8_t* buff, uint32_t* len);
  39:../../libdaisy/src/hid/usb.h **** 
ARM GAS  /tmp/ccpRs2bQ.s 			page 13


  40:../../libdaisy/src/hid/usb.h ****     UsbHandle() {}
  41:../../libdaisy/src/hid/usb.h **** 
  42:../../libdaisy/src/hid/usb.h ****     ~UsbHandle() {}
  85              		.loc 9 42 5 is_stmt 1 view .LVU15
  86              		.loc 9 42 5 is_stmt 0 view .LVU16
  87              	.LBE563:
  88              	.LBB564:
  89              	.LBI564:
  90              		.file 10 "../../libdaisy/src/per/adc.h"
   1:../../libdaisy/src/per/adc.h **** #pragma once
   2:../../libdaisy/src/per/adc.h **** #ifndef DSY_ADC_H
   3:../../libdaisy/src/per/adc.h **** #define DSY_ADC_H /**< Macro */
   4:../../libdaisy/src/per/adc.h **** #include <stdint.h>
   5:../../libdaisy/src/per/adc.h **** #include <stdlib.h>
   6:../../libdaisy/src/per/adc.h **** #include "daisy_core.h"
   7:../../libdaisy/src/per/adc.h **** #include "per/gpio.h"
   8:../../libdaisy/src/per/adc.h **** 
   9:../../libdaisy/src/per/adc.h **** #define DSY_ADC_MAX_CHANNELS 14 /**< Maximum number of ADC channels */
  10:../../libdaisy/src/per/adc.h **** 
  11:../../libdaisy/src/per/adc.h **** namespace daisy
  12:../../libdaisy/src/per/adc.h **** {
  13:../../libdaisy/src/per/adc.h **** /** @addtogroup analog_digital_conversion
  14:../../libdaisy/src/per/adc.h ****     @{
  15:../../libdaisy/src/per/adc.h **** */
  16:../../libdaisy/src/per/adc.h **** 
  17:../../libdaisy/src/per/adc.h **** /* While there may not be many configuration options here,
  18:../../libdaisy/src/per/adc.h **** using a struct like this allows us to add more configuration
  19:../../libdaisy/src/per/adc.h **** later without breaking existing functionality.
  20:../../libdaisy/src/per/adc.h **** */
  21:../../libdaisy/src/per/adc.h **** 
  22:../../libdaisy/src/per/adc.h **** /** Configuration Structure for a given channel */
  23:../../libdaisy/src/per/adc.h **** struct AdcChannelConfig
  24:../../libdaisy/src/per/adc.h **** {
  25:../../libdaisy/src/per/adc.h ****     /** Which pin to use for multiplexing */
  26:../../libdaisy/src/per/adc.h ****     enum MuxPin
  27:../../libdaisy/src/per/adc.h ****     {
  28:../../libdaisy/src/per/adc.h ****         MUX_SEL_0,    /**< & */
  29:../../libdaisy/src/per/adc.h ****         MUX_SEL_1,    /**< & */
  30:../../libdaisy/src/per/adc.h ****         MUX_SEL_2,    /**< & */
  31:../../libdaisy/src/per/adc.h ****         MUX_SEL_LAST, /**< & */
  32:../../libdaisy/src/per/adc.h ****     };
  33:../../libdaisy/src/per/adc.h **** 
  34:../../libdaisy/src/per/adc.h ****     /** Initializes a single ADC pin as an ADC. 
  35:../../libdaisy/src/per/adc.h ****     \param pin Pin to init.
  36:../../libdaisy/src/per/adc.h ****      */
  37:../../libdaisy/src/per/adc.h ****     void InitSingle(dsy_gpio_pin pin);
  38:../../libdaisy/src/per/adc.h **** 
  39:../../libdaisy/src/per/adc.h ****     /** 
  40:../../libdaisy/src/per/adc.h ****     Initializes a single ADC pin as a Multiplexed ADC.
  41:../../libdaisy/src/per/adc.h ****     Requires a CD405X Multiplexer connected to the pin.
  42:../../libdaisy/src/per/adc.h ****     You only need to supply the mux pins that are required,
  43:../../libdaisy/src/per/adc.h ****     e.g. a 4052 mux would only require mux_0 and mux_1.
  44:../../libdaisy/src/per/adc.h ****     Internal Callbacks handle the pin addressing.
  45:../../libdaisy/src/per/adc.h ****     \param mux_channels must be 1-8
  46:../../libdaisy/src/per/adc.h ****     \param mux_0 First mux pin
  47:../../libdaisy/src/per/adc.h ****     \param mux_1 Second mux pin
  48:../../libdaisy/src/per/adc.h ****     \param mux_2 Third mux pin
ARM GAS  /tmp/ccpRs2bQ.s 			page 14


  49:../../libdaisy/src/per/adc.h ****     \param adc_pin &
  50:../../libdaisy/src/per/adc.h ****     */
  51:../../libdaisy/src/per/adc.h ****     void InitMux(dsy_gpio_pin adc_pin,
  52:../../libdaisy/src/per/adc.h ****                  size_t       mux_channels,
  53:../../libdaisy/src/per/adc.h ****                  dsy_gpio_pin mux_0,
  54:../../libdaisy/src/per/adc.h ****                  dsy_gpio_pin mux_1 = {DSY_GPIOX, 0},
  55:../../libdaisy/src/per/adc.h ****                  dsy_gpio_pin mux_2 = {DSY_GPIOX, 0});
  56:../../libdaisy/src/per/adc.h **** 
  57:../../libdaisy/src/per/adc.h ****     dsy_gpio pin_;                   /**< & */
  58:../../libdaisy/src/per/adc.h ****     dsy_gpio mux_pin_[MUX_SEL_LAST]; /**< & */
  59:../../libdaisy/src/per/adc.h ****     uint8_t  mux_channels_;          /**< & */
  60:../../libdaisy/src/per/adc.h **** };
  61:../../libdaisy/src/per/adc.h **** 
  62:../../libdaisy/src/per/adc.h **** /**
  63:../../libdaisy/src/per/adc.h ****    Handler for analog to digital conversion
  64:../../libdaisy/src/per/adc.h **** */
  65:../../libdaisy/src/per/adc.h **** class AdcHandle
  66:../../libdaisy/src/per/adc.h **** {
  67:../../libdaisy/src/per/adc.h ****   public:
  68:../../libdaisy/src/per/adc.h ****     /** Supported oversampling amounts */
  69:../../libdaisy/src/per/adc.h ****     enum OverSampling
  70:../../libdaisy/src/per/adc.h ****     {
  71:../../libdaisy/src/per/adc.h ****         OVS_NONE, /**< & */
  72:../../libdaisy/src/per/adc.h ****         OVS_4,    /**< & */
  73:../../libdaisy/src/per/adc.h ****         OVS_8,    /**< & */
  74:../../libdaisy/src/per/adc.h ****         OVS_16,   /**< & */
  75:../../libdaisy/src/per/adc.h ****         OVS_32,   /**< & */
  76:../../libdaisy/src/per/adc.h ****         OVS_64,   /**< & */
  77:../../libdaisy/src/per/adc.h ****         OVS_128,  /**< & */
  78:../../libdaisy/src/per/adc.h ****         OVS_256,  /**< & */
  79:../../libdaisy/src/per/adc.h ****         OVS_512,  /**< & */
  80:../../libdaisy/src/per/adc.h ****         OVS_1024, /**< & */
  81:../../libdaisy/src/per/adc.h ****         OVS_LAST, /**< & */
  82:../../libdaisy/src/per/adc.h ****     };
  83:../../libdaisy/src/per/adc.h **** 
  84:../../libdaisy/src/per/adc.h ****     AdcHandle() {}
  85:../../libdaisy/src/per/adc.h ****     ~AdcHandle() {}
  91              		.loc 10 85 5 is_stmt 1 view .LVU17
  92              		.loc 10 85 5 is_stmt 0 view .LVU18
  93              	.LBE564:
  94              	.LBB565:
  95              	.LBI565:
  96              		.file 11 "../../libdaisy/src/hid/audio.h"
   1:../../libdaisy/src/hid/audio.h **** #ifndef DSY_AUDIO_H
   2:../../libdaisy/src/hid/audio.h **** #define DSY_AUDIO_H /**< & */
   3:../../libdaisy/src/hid/audio.h **** 
   4:../../libdaisy/src/hid/audio.h **** #include "per/sai.h"
   5:../../libdaisy/src/hid/audio.h **** 
   6:../../libdaisy/src/hid/audio.h **** namespace daisy
   7:../../libdaisy/src/hid/audio.h **** {
   8:../../libdaisy/src/hid/audio.h **** class AudioHandle
   9:../../libdaisy/src/hid/audio.h **** {
  10:../../libdaisy/src/hid/audio.h ****   public:
  11:../../libdaisy/src/hid/audio.h ****     /** Manually configurable details about the Audio Engine */
  12:../../libdaisy/src/hid/audio.h ****     /** TODO: Figure out how to get samplerate in here. */
  13:../../libdaisy/src/hid/audio.h ****     struct Config
  14:../../libdaisy/src/hid/audio.h ****     {
ARM GAS  /tmp/ccpRs2bQ.s 			page 15


  15:../../libdaisy/src/hid/audio.h ****         size_t                        blocksize;
  16:../../libdaisy/src/hid/audio.h ****         SaiHandle::Config::SampleRate samplerate;
  17:../../libdaisy/src/hid/audio.h ****         float                         postgain;
  18:../../libdaisy/src/hid/audio.h ****     };
  19:../../libdaisy/src/hid/audio.h **** 
  20:../../libdaisy/src/hid/audio.h ****     enum class Result
  21:../../libdaisy/src/hid/audio.h ****     {
  22:../../libdaisy/src/hid/audio.h ****         OK,
  23:../../libdaisy/src/hid/audio.h ****         ERR,
  24:../../libdaisy/src/hid/audio.h ****     };
  25:../../libdaisy/src/hid/audio.h **** 
  26:../../libdaisy/src/hid/audio.h ****     /** Non-Interleaving input buffer
  27:../../libdaisy/src/hid/audio.h ****      * Buffer arranged by float[chn][sample] 
  28:../../libdaisy/src/hid/audio.h ****      * const so that the user can't modify the input
  29:../../libdaisy/src/hid/audio.h ****     */
  30:../../libdaisy/src/hid/audio.h ****     typedef const float* const* InputBuffer;
  31:../../libdaisy/src/hid/audio.h **** 
  32:../../libdaisy/src/hid/audio.h ****     /** Non-Interleaving output buffer
  33:../../libdaisy/src/hid/audio.h ****      * Arranged by float[chn][sample] 
  34:../../libdaisy/src/hid/audio.h ****     */
  35:../../libdaisy/src/hid/audio.h ****     typedef float** OutputBuffer;
  36:../../libdaisy/src/hid/audio.h **** 
  37:../../libdaisy/src/hid/audio.h ****     /** Type for a Non-Interleaving audio callback 
  38:../../libdaisy/src/hid/audio.h ****    * Non-Interleaving audio callbacks in daisy will be of this type
  39:../../libdaisy/src/hid/audio.h ****   */
  40:../../libdaisy/src/hid/audio.h ****     typedef void (*AudioCallback)(InputBuffer  in,
  41:../../libdaisy/src/hid/audio.h ****                                   OutputBuffer out,
  42:../../libdaisy/src/hid/audio.h ****                                   size_t       size);
  43:../../libdaisy/src/hid/audio.h **** 
  44:../../libdaisy/src/hid/audio.h ****     /** Interleaving Input buffer
  45:../../libdaisy/src/hid/audio.h ****      ** audio is prepared as { L0, R0, L1, R1, . . . LN, RN }]
  46:../../libdaisy/src/hid/audio.h ****      ** this is const, as the user shouldn't modify it
  47:../../libdaisy/src/hid/audio.h ****     */
  48:../../libdaisy/src/hid/audio.h ****     typedef const float* InterleavingInputBuffer;
  49:../../libdaisy/src/hid/audio.h **** 
  50:../../libdaisy/src/hid/audio.h ****     /** Interleaving Output buffer 
  51:../../libdaisy/src/hid/audio.h ****      ** audio is prepared as { L0, R0, L1, R1, . . . LN, RN }
  52:../../libdaisy/src/hid/audio.h ****     */
  53:../../libdaisy/src/hid/audio.h ****     typedef float* InterleavingOutputBuffer;
  54:../../libdaisy/src/hid/audio.h **** 
  55:../../libdaisy/src/hid/audio.h ****     /** Interleaving Audio Callback 
  56:../../libdaisy/src/hid/audio.h ****    * Interleaving audio callbacks in daisy must be of this type
  57:../../libdaisy/src/hid/audio.h ****   */
  58:../../libdaisy/src/hid/audio.h ****     typedef void (*InterleavingAudioCallback)(InterleavingInputBuffer  in,
  59:../../libdaisy/src/hid/audio.h ****                                               InterleavingOutputBuffer out,
  60:../../libdaisy/src/hid/audio.h ****                                               size_t                   size);
  61:../../libdaisy/src/hid/audio.h **** 
  62:../../libdaisy/src/hid/audio.h ****     AudioHandle() : pimpl_(nullptr) {}
  63:../../libdaisy/src/hid/audio.h ****     ~AudioHandle() {}
  97              		.loc 11 63 5 is_stmt 1 view .LVU19
  98              		.loc 11 63 5 is_stmt 0 view .LVU20
  99              	.LBE565:
 100              	.LBE561:
 101              		.loc 1 84 20 view .LVU21
 102 0000 7047     		bx	lr
 103              		.cfi_endproc
 104              	.LFE2063:
ARM GAS  /tmp/ccpRs2bQ.s 			page 16


 106              		.weak	_ZN5daisy10DaisyFieldD1Ev
 107              		.thumb_set _ZN5daisy10DaisyFieldD1Ev,_ZN5daisy10DaisyFieldD2Ev
 108 0002 00BF     		.section	.text._ZN5daisy11OledDisplayINS_13SSD130xDriverILj128ELj64ENS_24SSD130x4WireSpiTransportE
 109              		.align	1
 110              		.p2align 2,,3
 111              		.weak	_ZN5daisy11OledDisplayINS_13SSD130xDriverILj128ELj64ENS_24SSD130x4WireSpiTransportEEEED2Ev
 112              		.syntax unified
 113              		.thumb
 114              		.thumb_func
 115              		.fpu fpv5-d16
 117              	_ZN5daisy11OledDisplayINS_13SSD130xDriverILj128ELj64ENS_24SSD130x4WireSpiTransportEEEED2Ev:
 118              	.LVL1:
 119              	.LFB4280:
 120              		.loc 5 17 13 is_stmt 1 view -0
 121              		.cfi_startproc
 122              		@ args = 0, pretend = 0, frame = 0
 123              		@ frame_needed = 0, uses_anonymous_args = 0
 124              		@ link register save eliminated.
 125              	.LBB566:
 126              	.LBI566:
 127              		.loc 6 219 13 view .LVU23
 128              	.LBB567:
 129              	.LBI567:
  23:../../libdaisy/src/hid/disp/display.h **** 
 130              		.loc 6 23 13 view .LVU24
  23:../../libdaisy/src/hid/disp/display.h **** 
 131              		.loc 6 23 13 is_stmt 0 view .LVU25
 132              	.LBE567:
 133              	.LBE566:
 134              		.loc 5 17 29 view .LVU26
 135 0000 7047     		bx	lr
 136              		.cfi_endproc
 137              	.LFE4280:
 139              		.weak	_ZN5daisy11OledDisplayINS_13SSD130xDriverILj128ELj64ENS_24SSD130x4WireSpiTransportEEEED1Ev
 140              		.thumb_set _ZN5daisy11OledDisplayINS_13SSD130xDriverILj128ELj64ENS_24SSD130x4WireSpiTransportEEEED
 141 0002 00BF     		.section	.text._ZNK5daisy11OledDisplayINS_13SSD130xDriverILj128ELj64ENS_24SSD130x4WireSpiTransport
 142              		.align	1
 143              		.p2align 2,,3
 144              		.weak	_ZNK5daisy11OledDisplayINS_13SSD130xDriverILj128ELj64ENS_24SSD130x4WireSpiTransportEEEE6Heig
 145              		.syntax unified
 146              		.thumb
 147              		.thumb_func
 148              		.fpu fpv5-d16
 150              	_ZNK5daisy11OledDisplayINS_13SSD130xDriverILj128ELj64ENS_24SSD130x4WireSpiTransportEEEE6HeightEv:
 151              	.LVL2:
 152              	.LFB4871:
  18:../../libdaisy/src/hid/disp/oled_display.h **** 
  19:../../libdaisy/src/hid/disp/oled_display.h ****     struct Config
  20:../../libdaisy/src/hid/disp/oled_display.h ****     {
  21:../../libdaisy/src/hid/disp/oled_display.h ****         typename DisplayDriver::Config driver_config;
  22:../../libdaisy/src/hid/disp/oled_display.h ****     };
  23:../../libdaisy/src/hid/disp/oled_display.h **** 
  24:../../libdaisy/src/hid/disp/oled_display.h ****     void Init(Config config) { driver_.Init(config.driver_config); }
  25:../../libdaisy/src/hid/disp/oled_display.h **** 
  26:../../libdaisy/src/hid/disp/oled_display.h ****     uint16_t Height() const override { return driver_.Height(); }
 153              		.loc 5 26 14 is_stmt 1 view -0
 154              		.cfi_startproc
ARM GAS  /tmp/ccpRs2bQ.s 			page 17


 155              		@ args = 0, pretend = 0, frame = 0
 156              		@ frame_needed = 0, uses_anonymous_args = 0
 157              		@ link register save eliminated.
 158              		.loc 5 26 65 is_stmt 0 view .LVU28
 159 0000 4020     		movs	r0, #64
 160              	.LVL3:
 161              		.loc 5 26 65 view .LVU29
 162 0002 7047     		bx	lr
 163              		.cfi_endproc
 164              	.LFE4871:
 166              		.section	.text._ZNK5daisy11OledDisplayINS_13SSD130xDriverILj128ELj64ENS_24SSD130x4WireSpiTransport
 167              		.align	1
 168              		.p2align 2,,3
 169              		.weak	_ZNK5daisy11OledDisplayINS_13SSD130xDriverILj128ELj64ENS_24SSD130x4WireSpiTransportEEEE5Widt
 170              		.syntax unified
 171              		.thumb
 172              		.thumb_func
 173              		.fpu fpv5-d16
 175              	_ZNK5daisy11OledDisplayINS_13SSD130xDriverILj128ELj64ENS_24SSD130x4WireSpiTransportEEEE5WidthEv:
 176              	.LVL4:
 177              	.LFB4872:
  27:../../libdaisy/src/hid/disp/oled_display.h ****     uint16_t Width() const override { return driver_.Width(); }
 178              		.loc 5 27 14 is_stmt 1 view -0
 179              		.cfi_startproc
 180              		@ args = 0, pretend = 0, frame = 0
 181              		@ frame_needed = 0, uses_anonymous_args = 0
 182              		@ link register save eliminated.
 183              		.loc 5 27 63 is_stmt 0 view .LVU31
 184 0000 8020     		movs	r0, #128
 185              	.LVL5:
 186              		.loc 5 27 63 view .LVU32
 187 0002 7047     		bx	lr
 188              		.cfi_endproc
 189              	.LFE4872:
 191              		.section	.text._ZN5daisy11OledDisplayINS_13SSD130xDriverILj128ELj64ENS_24SSD130x4WireSpiTransportE
 192              		.align	1
 193              		.p2align 2,,3
 194              		.weak	_ZN5daisy11OledDisplayINS_13SSD130xDriverILj128ELj64ENS_24SSD130x4WireSpiTransportEEEE4FillE
 195              		.syntax unified
 196              		.thumb
 197              		.thumb_func
 198              		.fpu fpv5-d16
 200              	_ZN5daisy11OledDisplayINS_13SSD130xDriverILj128ELj64ENS_24SSD130x4WireSpiTransportEEEE4FillEb:
 201              	.LVL6:
 202              	.LFB4873:
  28:../../libdaisy/src/hid/disp/oled_display.h **** 
  29:../../libdaisy/src/hid/disp/oled_display.h ****     /** 
  30:../../libdaisy/src/hid/disp/oled_display.h ****     Fills the entire display with either on/off.
  31:../../libdaisy/src/hid/disp/oled_display.h ****     \param on Sets on or off.
  32:../../libdaisy/src/hid/disp/oled_display.h ****     */
  33:../../libdaisy/src/hid/disp/oled_display.h ****     void Fill(bool on) override { driver_.Fill(on); }
 203              		.loc 5 33 10 is_stmt 1 view -0
 204              		.cfi_startproc
 205              		@ args = 0, pretend = 0, frame = 0
 206              		@ frame_needed = 0, uses_anonymous_args = 0
 207              		@ link register save eliminated.
 208              	.LBB568:
ARM GAS  /tmp/ccpRs2bQ.s 			page 18


 209              	.LBI568:
 210              		.file 12 "../../libdaisy/src/dev/oled_ssd130x.h"
   1:../../libdaisy/src/dev/oled_ssd130x.h **** #pragma once
   2:../../libdaisy/src/dev/oled_ssd130x.h **** #ifndef SA_OLED_SSD130X_H
   3:../../libdaisy/src/dev/oled_ssd130x.h **** #define SA_OLED_SSD130X_H /**< & */
   4:../../libdaisy/src/dev/oled_ssd130x.h **** 
   5:../../libdaisy/src/dev/oled_ssd130x.h **** #include "per/i2c.h"
   6:../../libdaisy/src/dev/oled_ssd130x.h **** #include "per/spi.h"
   7:../../libdaisy/src/dev/oled_ssd130x.h **** #include "per/gpio.h"
   8:../../libdaisy/src/dev/oled_ssd130x.h **** #include "sys/system.h"
   9:../../libdaisy/src/dev/oled_ssd130x.h **** 
  10:../../libdaisy/src/dev/oled_ssd130x.h **** namespace daisy
  11:../../libdaisy/src/dev/oled_ssd130x.h **** {
  12:../../libdaisy/src/dev/oled_ssd130x.h **** /**
  13:../../libdaisy/src/dev/oled_ssd130x.h ****  * I2C Transport for SSD1306 / SSD1309 OLED display devices
  14:../../libdaisy/src/dev/oled_ssd130x.h ****  */
  15:../../libdaisy/src/dev/oled_ssd130x.h **** class SSD130xI2CTransport
  16:../../libdaisy/src/dev/oled_ssd130x.h **** {
  17:../../libdaisy/src/dev/oled_ssd130x.h ****   public:
  18:../../libdaisy/src/dev/oled_ssd130x.h ****     struct Config
  19:../../libdaisy/src/dev/oled_ssd130x.h ****     {
  20:../../libdaisy/src/dev/oled_ssd130x.h ****         I2CHandle::Config i2c_config;
  21:../../libdaisy/src/dev/oled_ssd130x.h ****         uint8_t           i2c_address;
  22:../../libdaisy/src/dev/oled_ssd130x.h ****         void              Defaults()
  23:../../libdaisy/src/dev/oled_ssd130x.h ****         {
  24:../../libdaisy/src/dev/oled_ssd130x.h ****             i2c_config.periph         = I2CHandle::Config::Peripheral::I2C_1;
  25:../../libdaisy/src/dev/oled_ssd130x.h ****             i2c_config.speed          = I2CHandle::Config::Speed::I2C_1MHZ;
  26:../../libdaisy/src/dev/oled_ssd130x.h ****             i2c_config.mode           = I2CHandle::Config::Mode::I2C_MASTER;
  27:../../libdaisy/src/dev/oled_ssd130x.h ****             i2c_config.pin_config.scl = {DSY_GPIOB, 8};
  28:../../libdaisy/src/dev/oled_ssd130x.h ****             i2c_config.pin_config.sda = {DSY_GPIOB, 9};
  29:../../libdaisy/src/dev/oled_ssd130x.h ****             i2c_address               = 0x3C;
  30:../../libdaisy/src/dev/oled_ssd130x.h ****         }
  31:../../libdaisy/src/dev/oled_ssd130x.h ****     };
  32:../../libdaisy/src/dev/oled_ssd130x.h ****     void Init(const Config& config)
  33:../../libdaisy/src/dev/oled_ssd130x.h ****     {
  34:../../libdaisy/src/dev/oled_ssd130x.h ****         i2c_address_ = config.i2c_address;
  35:../../libdaisy/src/dev/oled_ssd130x.h ****         i2c_.Init(config.i2c_config);
  36:../../libdaisy/src/dev/oled_ssd130x.h ****     };
  37:../../libdaisy/src/dev/oled_ssd130x.h ****     void SendCommand(uint8_t cmd)
  38:../../libdaisy/src/dev/oled_ssd130x.h ****     {
  39:../../libdaisy/src/dev/oled_ssd130x.h ****         uint8_t buf[2] = {0X00, cmd};
  40:../../libdaisy/src/dev/oled_ssd130x.h ****         i2c_.TransmitBlocking(i2c_address_, buf, 2, 1000);
  41:../../libdaisy/src/dev/oled_ssd130x.h ****     };
  42:../../libdaisy/src/dev/oled_ssd130x.h **** 
  43:../../libdaisy/src/dev/oled_ssd130x.h ****     void SendData(uint8_t* buff, size_t size)
  44:../../libdaisy/src/dev/oled_ssd130x.h ****     {
  45:../../libdaisy/src/dev/oled_ssd130x.h ****         for(size_t i = 0; i < size; i++)
  46:../../libdaisy/src/dev/oled_ssd130x.h ****         {
  47:../../libdaisy/src/dev/oled_ssd130x.h ****             uint8_t buf[2] = {0X40, buff[i]};
  48:../../libdaisy/src/dev/oled_ssd130x.h ****             i2c_.TransmitBlocking(i2c_address_, buf, 2, 1000);
  49:../../libdaisy/src/dev/oled_ssd130x.h ****         }
  50:../../libdaisy/src/dev/oled_ssd130x.h ****     };
  51:../../libdaisy/src/dev/oled_ssd130x.h **** 
  52:../../libdaisy/src/dev/oled_ssd130x.h ****   private:
  53:../../libdaisy/src/dev/oled_ssd130x.h ****     daisy::I2CHandle i2c_;
  54:../../libdaisy/src/dev/oled_ssd130x.h ****     uint8_t          i2c_address_;
  55:../../libdaisy/src/dev/oled_ssd130x.h **** };
ARM GAS  /tmp/ccpRs2bQ.s 			page 19


  56:../../libdaisy/src/dev/oled_ssd130x.h **** 
  57:../../libdaisy/src/dev/oled_ssd130x.h **** /**
  58:../../libdaisy/src/dev/oled_ssd130x.h ****  * 4 Wire SPI Transport for SSD1306 / SSD1309 OLED display devices
  59:../../libdaisy/src/dev/oled_ssd130x.h ****  */
  60:../../libdaisy/src/dev/oled_ssd130x.h **** class SSD130x4WireSpiTransport
  61:../../libdaisy/src/dev/oled_ssd130x.h **** {
  62:../../libdaisy/src/dev/oled_ssd130x.h ****   public:
  63:../../libdaisy/src/dev/oled_ssd130x.h ****     struct Config
  64:../../libdaisy/src/dev/oled_ssd130x.h ****     {
  65:../../libdaisy/src/dev/oled_ssd130x.h ****         struct
  66:../../libdaisy/src/dev/oled_ssd130x.h ****         {
  67:../../libdaisy/src/dev/oled_ssd130x.h ****             dsy_gpio_pin dc;    /**< & */
  68:../../libdaisy/src/dev/oled_ssd130x.h ****             dsy_gpio_pin reset; /**< & */
  69:../../libdaisy/src/dev/oled_ssd130x.h ****         } pin_config;
  70:../../libdaisy/src/dev/oled_ssd130x.h ****         void Defaults()
  71:../../libdaisy/src/dev/oled_ssd130x.h ****         {
  72:../../libdaisy/src/dev/oled_ssd130x.h ****             pin_config.dc    = {DSY_GPIOB, 4};
  73:../../libdaisy/src/dev/oled_ssd130x.h ****             pin_config.reset = {DSY_GPIOB, 15};
  74:../../libdaisy/src/dev/oled_ssd130x.h ****         }
  75:../../libdaisy/src/dev/oled_ssd130x.h ****     };
  76:../../libdaisy/src/dev/oled_ssd130x.h ****     void Init(const Config& config)
  77:../../libdaisy/src/dev/oled_ssd130x.h ****     {
  78:../../libdaisy/src/dev/oled_ssd130x.h ****         // Initialize both GPIO
  79:../../libdaisy/src/dev/oled_ssd130x.h ****         pin_dc_.mode = DSY_GPIO_MODE_OUTPUT_PP;
  80:../../libdaisy/src/dev/oled_ssd130x.h ****         pin_dc_.pin  = config.pin_config.dc;
  81:../../libdaisy/src/dev/oled_ssd130x.h ****         dsy_gpio_init(&pin_dc_);
  82:../../libdaisy/src/dev/oled_ssd130x.h ****         pin_reset_.mode = DSY_GPIO_MODE_OUTPUT_PP;
  83:../../libdaisy/src/dev/oled_ssd130x.h ****         pin_reset_.pin  = config.pin_config.reset;
  84:../../libdaisy/src/dev/oled_ssd130x.h ****         dsy_gpio_init(&pin_reset_);
  85:../../libdaisy/src/dev/oled_ssd130x.h ****         // Initialize SPI
  86:../../libdaisy/src/dev/oled_ssd130x.h ****         SpiHandle::Config spi_config;
  87:../../libdaisy/src/dev/oled_ssd130x.h ****         spi_config.periph    = SpiHandle::Config::Peripheral::SPI_1;
  88:../../libdaisy/src/dev/oled_ssd130x.h ****         spi_config.mode      = SpiHandle::Config::Mode::MASTER;
  89:../../libdaisy/src/dev/oled_ssd130x.h ****         spi_config.direction = SpiHandle::Config::Direction::TWO_LINES_TX_ONLY;
  90:../../libdaisy/src/dev/oled_ssd130x.h ****         spi_config.datasize  = 8;
  91:../../libdaisy/src/dev/oled_ssd130x.h ****         spi_config.clock_polarity = SpiHandle::Config::ClockPolarity::LOW;
  92:../../libdaisy/src/dev/oled_ssd130x.h ****         spi_config.clock_phase    = SpiHandle::Config::ClockPhase::ONE_EDGE;
  93:../../libdaisy/src/dev/oled_ssd130x.h ****         spi_config.nss            = SpiHandle::Config::NSS::HARD_OUTPUT;
  94:../../libdaisy/src/dev/oled_ssd130x.h ****         spi_config.baud_prescaler = SpiHandle::Config::BaudPrescaler::PS_8;
  95:../../libdaisy/src/dev/oled_ssd130x.h **** 
  96:../../libdaisy/src/dev/oled_ssd130x.h ****         spi_config.pin_config.sclk = {DSY_GPIOG, 11};
  97:../../libdaisy/src/dev/oled_ssd130x.h ****         spi_config.pin_config.miso = {DSY_GPIOX, 0};
  98:../../libdaisy/src/dev/oled_ssd130x.h ****         spi_config.pin_config.mosi = {DSY_GPIOB, 5};
  99:../../libdaisy/src/dev/oled_ssd130x.h ****         spi_config.pin_config.nss  = {DSY_GPIOG, 10};
 100:../../libdaisy/src/dev/oled_ssd130x.h **** 
 101:../../libdaisy/src/dev/oled_ssd130x.h ****         spi_.Init(spi_config);
 102:../../libdaisy/src/dev/oled_ssd130x.h **** 
 103:../../libdaisy/src/dev/oled_ssd130x.h ****         // Reset and Configure OLED.
 104:../../libdaisy/src/dev/oled_ssd130x.h ****         dsy_gpio_write(&pin_reset_, 0);
 105:../../libdaisy/src/dev/oled_ssd130x.h ****         System::Delay(10);
 106:../../libdaisy/src/dev/oled_ssd130x.h ****         dsy_gpio_write(&pin_reset_, 1);
 107:../../libdaisy/src/dev/oled_ssd130x.h ****         System::Delay(10);
 108:../../libdaisy/src/dev/oled_ssd130x.h ****     };
 109:../../libdaisy/src/dev/oled_ssd130x.h ****     void SendCommand(uint8_t cmd)
 110:../../libdaisy/src/dev/oled_ssd130x.h ****     {
 111:../../libdaisy/src/dev/oled_ssd130x.h ****         dsy_gpio_write(&pin_dc_, 0);
 112:../../libdaisy/src/dev/oled_ssd130x.h ****         spi_.BlockingTransmit(&cmd, 1);
ARM GAS  /tmp/ccpRs2bQ.s 			page 20


 113:../../libdaisy/src/dev/oled_ssd130x.h ****     };
 114:../../libdaisy/src/dev/oled_ssd130x.h **** 
 115:../../libdaisy/src/dev/oled_ssd130x.h ****     void SendData(uint8_t* buff, size_t size)
 116:../../libdaisy/src/dev/oled_ssd130x.h ****     {
 117:../../libdaisy/src/dev/oled_ssd130x.h ****         dsy_gpio_write(&pin_dc_, 1);
 118:../../libdaisy/src/dev/oled_ssd130x.h ****         spi_.BlockingTransmit(buff, size);
 119:../../libdaisy/src/dev/oled_ssd130x.h ****     };
 120:../../libdaisy/src/dev/oled_ssd130x.h **** 
 121:../../libdaisy/src/dev/oled_ssd130x.h ****   private:
 122:../../libdaisy/src/dev/oled_ssd130x.h ****     SpiHandle spi_;
 123:../../libdaisy/src/dev/oled_ssd130x.h ****     dsy_gpio  pin_reset_;
 124:../../libdaisy/src/dev/oled_ssd130x.h ****     dsy_gpio  pin_dc_;
 125:../../libdaisy/src/dev/oled_ssd130x.h **** };
 126:../../libdaisy/src/dev/oled_ssd130x.h **** 
 127:../../libdaisy/src/dev/oled_ssd130x.h **** 
 128:../../libdaisy/src/dev/oled_ssd130x.h **** /**
 129:../../libdaisy/src/dev/oled_ssd130x.h ****  * A driver implementation for the SSD1306/SSD1309
 130:../../libdaisy/src/dev/oled_ssd130x.h ****  */
 131:../../libdaisy/src/dev/oled_ssd130x.h **** template <size_t width, size_t height, typename Transport>
 132:../../libdaisy/src/dev/oled_ssd130x.h **** class SSD130xDriver
 133:../../libdaisy/src/dev/oled_ssd130x.h **** {
 134:../../libdaisy/src/dev/oled_ssd130x.h ****   public:
 135:../../libdaisy/src/dev/oled_ssd130x.h ****     struct Config
 136:../../libdaisy/src/dev/oled_ssd130x.h ****     {
 137:../../libdaisy/src/dev/oled_ssd130x.h ****         typename Transport::Config transport_config;
 138:../../libdaisy/src/dev/oled_ssd130x.h ****     };
 139:../../libdaisy/src/dev/oled_ssd130x.h **** 
 140:../../libdaisy/src/dev/oled_ssd130x.h ****     void Init(Config config)
 141:../../libdaisy/src/dev/oled_ssd130x.h ****     {
 142:../../libdaisy/src/dev/oled_ssd130x.h ****         transport_.Init(config.transport_config);
 143:../../libdaisy/src/dev/oled_ssd130x.h **** 
 144:../../libdaisy/src/dev/oled_ssd130x.h ****         // Init routine...
 145:../../libdaisy/src/dev/oled_ssd130x.h **** 
 146:../../libdaisy/src/dev/oled_ssd130x.h ****         // Display Off
 147:../../libdaisy/src/dev/oled_ssd130x.h ****         transport_.SendCommand(0xaE);
 148:../../libdaisy/src/dev/oled_ssd130x.h ****         // Dimension dependent commands...
 149:../../libdaisy/src/dev/oled_ssd130x.h ****         switch(height)
 150:../../libdaisy/src/dev/oled_ssd130x.h ****         {
 151:../../libdaisy/src/dev/oled_ssd130x.h ****             case 16:
 152:../../libdaisy/src/dev/oled_ssd130x.h ****                 // Display Clock Divide Ratio
 153:../../libdaisy/src/dev/oled_ssd130x.h ****                 transport_.SendCommand(0xD5);
 154:../../libdaisy/src/dev/oled_ssd130x.h ****                 transport_.SendCommand(0x60);
 155:../../libdaisy/src/dev/oled_ssd130x.h ****                 // Multiplex Ratio
 156:../../libdaisy/src/dev/oled_ssd130x.h ****                 transport_.SendCommand(0xA8);
 157:../../libdaisy/src/dev/oled_ssd130x.h ****                 transport_.SendCommand(0x0F);
 158:../../libdaisy/src/dev/oled_ssd130x.h ****                 // COM Pins
 159:../../libdaisy/src/dev/oled_ssd130x.h ****                 transport_.SendCommand(0xDA);
 160:../../libdaisy/src/dev/oled_ssd130x.h ****                 transport_.SendCommand(0x02);
 161:../../libdaisy/src/dev/oled_ssd130x.h ****                 break;
 162:../../libdaisy/src/dev/oled_ssd130x.h ****             case 32:
 163:../../libdaisy/src/dev/oled_ssd130x.h ****                 // Display Clock Divide Ratio
 164:../../libdaisy/src/dev/oled_ssd130x.h ****                 transport_.SendCommand(0xD5);
 165:../../libdaisy/src/dev/oled_ssd130x.h ****                 transport_.SendCommand(0x80);
 166:../../libdaisy/src/dev/oled_ssd130x.h ****                 // Multiplex Ratio
 167:../../libdaisy/src/dev/oled_ssd130x.h ****                 transport_.SendCommand(0xA8);
 168:../../libdaisy/src/dev/oled_ssd130x.h ****                 transport_.SendCommand(0x1F);
 169:../../libdaisy/src/dev/oled_ssd130x.h ****                 // COM Pins
ARM GAS  /tmp/ccpRs2bQ.s 			page 21


 170:../../libdaisy/src/dev/oled_ssd130x.h ****                 transport_.SendCommand(0xDA);
 171:../../libdaisy/src/dev/oled_ssd130x.h ****                 if(width == 64)
 172:../../libdaisy/src/dev/oled_ssd130x.h ****                 {
 173:../../libdaisy/src/dev/oled_ssd130x.h ****                     transport_.SendCommand(0x12);
 174:../../libdaisy/src/dev/oled_ssd130x.h ****                 }
 175:../../libdaisy/src/dev/oled_ssd130x.h ****                 else
 176:../../libdaisy/src/dev/oled_ssd130x.h ****                 {
 177:../../libdaisy/src/dev/oled_ssd130x.h ****                     transport_.SendCommand(0x02);
 178:../../libdaisy/src/dev/oled_ssd130x.h ****                 }
 179:../../libdaisy/src/dev/oled_ssd130x.h **** 
 180:../../libdaisy/src/dev/oled_ssd130x.h ****                 break;
 181:../../libdaisy/src/dev/oled_ssd130x.h ****             case 48:
 182:../../libdaisy/src/dev/oled_ssd130x.h ****                 // Display Clock Divide Ratio
 183:../../libdaisy/src/dev/oled_ssd130x.h ****                 transport_.SendCommand(0xD5);
 184:../../libdaisy/src/dev/oled_ssd130x.h ****                 transport_.SendCommand(0x80);
 185:../../libdaisy/src/dev/oled_ssd130x.h ****                 // Multiplex Ratio
 186:../../libdaisy/src/dev/oled_ssd130x.h ****                 transport_.SendCommand(0xA8);
 187:../../libdaisy/src/dev/oled_ssd130x.h ****                 transport_.SendCommand(0x2F);
 188:../../libdaisy/src/dev/oled_ssd130x.h ****                 // COM Pins
 189:../../libdaisy/src/dev/oled_ssd130x.h ****                 transport_.SendCommand(0xDA);
 190:../../libdaisy/src/dev/oled_ssd130x.h ****                 transport_.SendCommand(0x12);
 191:../../libdaisy/src/dev/oled_ssd130x.h ****                 break;
 192:../../libdaisy/src/dev/oled_ssd130x.h ****             default: // 128
 193:../../libdaisy/src/dev/oled_ssd130x.h ****                 // Display Clock Divide Ratio
 194:../../libdaisy/src/dev/oled_ssd130x.h ****                 transport_.SendCommand(0xD5);
 195:../../libdaisy/src/dev/oled_ssd130x.h ****                 transport_.SendCommand(0x80);
 196:../../libdaisy/src/dev/oled_ssd130x.h ****                 // Multiplex Ratio
 197:../../libdaisy/src/dev/oled_ssd130x.h ****                 transport_.SendCommand(0xA8);
 198:../../libdaisy/src/dev/oled_ssd130x.h ****                 transport_.SendCommand(0x3F);
 199:../../libdaisy/src/dev/oled_ssd130x.h ****                 // COM Pins
 200:../../libdaisy/src/dev/oled_ssd130x.h ****                 transport_.SendCommand(0xDA);
 201:../../libdaisy/src/dev/oled_ssd130x.h ****                 transport_.SendCommand(0x12);
 202:../../libdaisy/src/dev/oled_ssd130x.h ****                 break;
 203:../../libdaisy/src/dev/oled_ssd130x.h ****         }
 204:../../libdaisy/src/dev/oled_ssd130x.h **** 
 205:../../libdaisy/src/dev/oled_ssd130x.h ****         // Display Offset
 206:../../libdaisy/src/dev/oled_ssd130x.h ****         transport_.SendCommand(0xD3);
 207:../../libdaisy/src/dev/oled_ssd130x.h ****         transport_.SendCommand(0x00);
 208:../../libdaisy/src/dev/oled_ssd130x.h ****         // Start Line Address
 209:../../libdaisy/src/dev/oled_ssd130x.h ****         transport_.SendCommand(0x40);
 210:../../libdaisy/src/dev/oled_ssd130x.h ****         // Normal Display
 211:../../libdaisy/src/dev/oled_ssd130x.h ****         transport_.SendCommand(0xA6);
 212:../../libdaisy/src/dev/oled_ssd130x.h ****         // All On Resume
 213:../../libdaisy/src/dev/oled_ssd130x.h ****         transport_.SendCommand(0xA4);
 214:../../libdaisy/src/dev/oled_ssd130x.h ****         // Charge Pump
 215:../../libdaisy/src/dev/oled_ssd130x.h ****         transport_.SendCommand(0x8D);
 216:../../libdaisy/src/dev/oled_ssd130x.h ****         transport_.SendCommand(0x14);
 217:../../libdaisy/src/dev/oled_ssd130x.h ****         // Set Segment Remap
 218:../../libdaisy/src/dev/oled_ssd130x.h ****         transport_.SendCommand(0xA1);
 219:../../libdaisy/src/dev/oled_ssd130x.h ****         // COM Output Scan Direction
 220:../../libdaisy/src/dev/oled_ssd130x.h ****         transport_.SendCommand(0xC8);
 221:../../libdaisy/src/dev/oled_ssd130x.h ****         // Contrast Control
 222:../../libdaisy/src/dev/oled_ssd130x.h ****         transport_.SendCommand(0x81);
 223:../../libdaisy/src/dev/oled_ssd130x.h ****         transport_.SendCommand(0x8F);
 224:../../libdaisy/src/dev/oled_ssd130x.h ****         // Pre Charge
 225:../../libdaisy/src/dev/oled_ssd130x.h ****         transport_.SendCommand(0xD9);
 226:../../libdaisy/src/dev/oled_ssd130x.h ****         transport_.SendCommand(0x25);
ARM GAS  /tmp/ccpRs2bQ.s 			page 22


 227:../../libdaisy/src/dev/oled_ssd130x.h ****         // VCOM Detect
 228:../../libdaisy/src/dev/oled_ssd130x.h ****         transport_.SendCommand(0xDB);
 229:../../libdaisy/src/dev/oled_ssd130x.h ****         transport_.SendCommand(0x34);
 230:../../libdaisy/src/dev/oled_ssd130x.h **** 
 231:../../libdaisy/src/dev/oled_ssd130x.h **** 
 232:../../libdaisy/src/dev/oled_ssd130x.h ****         // Display On
 233:../../libdaisy/src/dev/oled_ssd130x.h ****         transport_.SendCommand(0xAF); //--turn on oled panel
 234:../../libdaisy/src/dev/oled_ssd130x.h ****     };
 235:../../libdaisy/src/dev/oled_ssd130x.h **** 
 236:../../libdaisy/src/dev/oled_ssd130x.h ****     size_t Width() const { return width; };
 237:../../libdaisy/src/dev/oled_ssd130x.h ****     size_t Height() const { return height; };
 238:../../libdaisy/src/dev/oled_ssd130x.h **** 
 239:../../libdaisy/src/dev/oled_ssd130x.h ****     void DrawPixel(uint_fast8_t x, uint_fast8_t y, bool on)
 240:../../libdaisy/src/dev/oled_ssd130x.h ****     {
 241:../../libdaisy/src/dev/oled_ssd130x.h ****         if(x >= width || y >= height)
 242:../../libdaisy/src/dev/oled_ssd130x.h ****             return;
 243:../../libdaisy/src/dev/oled_ssd130x.h ****         if(on)
 244:../../libdaisy/src/dev/oled_ssd130x.h ****             buffer_[x + (y / 8) * width] |= (1 << (y % 8));
 245:../../libdaisy/src/dev/oled_ssd130x.h ****         else
 246:../../libdaisy/src/dev/oled_ssd130x.h ****             buffer_[x + (y / 8) * width] &= ~(1 << (y % 8));
 247:../../libdaisy/src/dev/oled_ssd130x.h ****     }
 248:../../libdaisy/src/dev/oled_ssd130x.h **** 
 249:../../libdaisy/src/dev/oled_ssd130x.h ****     void Fill(bool on)
 211              		.loc 12 249 10 view .LVU34
 212              	.LBB569:
 250:../../libdaisy/src/dev/oled_ssd130x.h ****     {
 251:../../libdaisy/src/dev/oled_ssd130x.h ****         for(size_t i = 0; i < sizeof(buffer_); i++)
 213              		.loc 12 251 29 view .LVU35
 214 0000 4942     		rsbs	r1, r1, #0
 215              	.LVL7:
 216              		.loc 12 251 29 is_stmt 0 view .LVU36
 217 0002 00F11303 		add	r3, r0, #19
 218 0006 00F21342 		addw	r2, r0, #1043
 219 000a C9B2     		uxtb	r1, r1
 220              	.LVL8:
 221              	.L7:
 252:../../libdaisy/src/dev/oled_ssd130x.h ****         {
 253:../../libdaisy/src/dev/oled_ssd130x.h ****             buffer_[i] = on ? 0xff : 0x00;
 222              		.loc 12 253 13 view .LVU37
 223 000c 03F8011F 		strb	r1, [r3, #1]!
 224              	.LVL9:
 251:../../libdaisy/src/dev/oled_ssd130x.h ****         {
 225              		.loc 12 251 9 is_stmt 1 view .LVU38
 251:../../libdaisy/src/dev/oled_ssd130x.h ****         {
 226              		.loc 12 251 29 view .LVU39
 227 0010 9342     		cmp	r3, r2
 228 0012 FBD1     		bne	.L7
 229              	.LBE569:
 230              	.LBE568:
 231              		.loc 5 33 53 is_stmt 0 view .LVU40
 232 0014 7047     		bx	lr
 233              		.cfi_endproc
 234              	.LFE4873:
 236 0016 00BF     		.section	.text._ZN12VoiceManagerILj24EED2Ev,"axG",%progbits,_ZN12VoiceManagerILj24EED5Ev,comdat
 237              		.align	1
 238              		.p2align 2,,3
 239              		.weak	_ZN12VoiceManagerILj24EED2Ev
ARM GAS  /tmp/ccpRs2bQ.s 			page 23


 240              		.syntax unified
 241              		.thumb
 242              		.thumb_func
 243              		.fpu fpv5-d16
 245              	_ZN12VoiceManagerILj24EED2Ev:
 246              	.LVL10:
 247              	.LFB4879:
 248              		.file 13 "Midi.cpp"
   1:Midi.cpp      **** #include "daisy_field.h"
   2:Midi.cpp      **** #include "daisysp.h"
   3:Midi.cpp      **** #include <string>
   4:Midi.cpp      **** 
   5:Midi.cpp      **** using namespace daisy;
   6:Midi.cpp      **** using namespace daisysp;
   7:Midi.cpp      **** 
   8:Midi.cpp      **** DaisyField hw;
   9:Midi.cpp      **** 
  10:Midi.cpp      **** class Voice
  11:Midi.cpp      **** {
  12:Midi.cpp      ****   public:
  13:Midi.cpp      ****     Voice() {}
  14:Midi.cpp      ****     ~Voice() {}
  15:Midi.cpp      ****     void Init(float samplerate)
  16:Midi.cpp      ****     {
  17:Midi.cpp      ****         active_ = false;
  18:Midi.cpp      ****         osc_.Init(samplerate);
  19:Midi.cpp      ****         osc_.SetAmp(0.75f);
  20:Midi.cpp      ****         osc_.SetWaveform(Oscillator::WAVE_POLYBLEP_SAW);
  21:Midi.cpp      ****         env_.Init(samplerate);
  22:Midi.cpp      ****         env_.SetSustainLevel(0.5f);
  23:Midi.cpp      ****         env_.SetTime(ADSR_SEG_ATTACK, 0.005f);
  24:Midi.cpp      ****         env_.SetTime(ADSR_SEG_DECAY, 0.005f);
  25:Midi.cpp      ****         env_.SetTime(ADSR_SEG_RELEASE, 0.2f);
  26:Midi.cpp      ****         filt_.Init(samplerate);
  27:Midi.cpp      ****         filt_.SetFreq(6000.f);
  28:Midi.cpp      ****         filt_.SetRes(0.6f);
  29:Midi.cpp      ****         filt_.SetDrive(0.8f);
  30:Midi.cpp      ****     }
  31:Midi.cpp      **** 
  32:Midi.cpp      ****     float Process()
  33:Midi.cpp      ****     {
  34:Midi.cpp      ****         if(active_)
  35:Midi.cpp      ****         {
  36:Midi.cpp      ****             float sig, amp;
  37:Midi.cpp      ****             amp = env_.Process(env_gate_);
  38:Midi.cpp      ****             if(!env_.IsRunning())
  39:Midi.cpp      ****                 active_ = false;
  40:Midi.cpp      ****             sig = osc_.Process();
  41:Midi.cpp      ****             filt_.Process(sig);
  42:Midi.cpp      ****             return filt_.Low() * (velocity_ / 127.f) * amp;
  43:Midi.cpp      ****         }
  44:Midi.cpp      ****         return 0.f;
  45:Midi.cpp      ****     }
  46:Midi.cpp      **** 
  47:Midi.cpp      ****     void OnNoteOn(float note, float velocity)
  48:Midi.cpp      ****     {
  49:Midi.cpp      ****         note_     = note;
ARM GAS  /tmp/ccpRs2bQ.s 			page 24


  50:Midi.cpp      ****         velocity_ = velocity;
  51:Midi.cpp      ****         osc_.SetFreq(mtof(note_));
  52:Midi.cpp      ****         active_   = true;
  53:Midi.cpp      ****         env_gate_ = true;
  54:Midi.cpp      ****     }
  55:Midi.cpp      **** 
  56:Midi.cpp      ****     void OnNoteOff() { env_gate_ = false; }
  57:Midi.cpp      **** 
  58:Midi.cpp      ****     void SetCutoff(float val) { filt_.SetFreq(val); }
  59:Midi.cpp      **** 
  60:Midi.cpp      ****     inline bool  IsActive() const { return active_; }
  61:Midi.cpp      ****     inline float GetNote() const { return note_; }
  62:Midi.cpp      **** 
  63:Midi.cpp      ****   private:
  64:Midi.cpp      ****     Oscillator osc_;
  65:Midi.cpp      ****     Svf        filt_;
  66:Midi.cpp      ****     Adsr       env_;
  67:Midi.cpp      ****     float      note_, velocity_;
  68:Midi.cpp      ****     bool       active_;
  69:Midi.cpp      ****     bool       env_gate_;
  70:Midi.cpp      **** };
  71:Midi.cpp      **** 
  72:Midi.cpp      **** template <size_t max_voices>
  73:Midi.cpp      **** class VoiceManager
  74:Midi.cpp      **** {
  75:Midi.cpp      ****   public:
  76:Midi.cpp      ****     VoiceManager() {}
  77:Midi.cpp      ****     ~VoiceManager() {}
 249              		.loc 13 77 5 is_stmt 1 view -0
 250              		.cfi_startproc
 251              		@ args = 0, pretend = 0, frame = 0
 252              		@ frame_needed = 0, uses_anonymous_args = 0
 253              		@ link register save eliminated.
 254              		.loc 13 77 22 is_stmt 0 view .LVU42
 255 0000 7047     		bx	lr
 256              		.cfi_endproc
 257              	.LFE4879:
 259              		.weak	_ZN12VoiceManagerILj24EED1Ev
 260              		.thumb_set _ZN12VoiceManagerILj24EED1Ev,_ZN12VoiceManagerILj24EED2Ev
 261 0002 00BF     		.section	.text._ZN5daisy11OledDisplayINS_13SSD130xDriverILj128ELj64ENS_24SSD130x4WireSpiTransportE
 262              		.align	1
 263              		.p2align 2,,3
 264              		.weak	_ZN5daisy11OledDisplayINS_13SSD130xDriverILj128ELj64ENS_24SSD130x4WireSpiTransportEEEED0Ev
 265              		.syntax unified
 266              		.thumb
 267              		.thumb_func
 268              		.fpu fpv5-d16
 270              	_ZN5daisy11OledDisplayINS_13SSD130xDriverILj128ELj64ENS_24SSD130x4WireSpiTransportEEEED0Ev:
 271              	.LVL11:
 272              	.LFB4282:
  17:../../libdaisy/src/hid/disp/oled_display.h **** 
 273              		.loc 5 17 13 is_stmt 1 view -0
 274              		.cfi_startproc
 275              		@ args = 0, pretend = 0, frame = 0
 276              		@ frame_needed = 0, uses_anonymous_args = 0
  17:../../libdaisy/src/hid/disp/oled_display.h **** 
 277              		.loc 5 17 13 is_stmt 0 view .LVU44
ARM GAS  /tmp/ccpRs2bQ.s 			page 25


 278 0000 10B5     		push	{r4, lr}
 279              		.cfi_def_cfa_offset 8
 280              		.cfi_offset 4, -8
 281              		.cfi_offset 14, -4
  17:../../libdaisy/src/hid/disp/oled_display.h **** 
 282              		.loc 5 17 13 view .LVU45
 283 0002 0446     		mov	r4, r0
 284              	.LVL12:
 285              	.LBB570:
 286              	.LBI570:
  17:../../libdaisy/src/hid/disp/oled_display.h **** 
 287              		.loc 5 17 13 is_stmt 1 view .LVU46
 288              	.LBB571:
 289              	.LBI571:
 290              		.loc 6 219 13 view .LVU47
 291              	.LBB572:
 292              	.LBI572:
  23:../../libdaisy/src/hid/disp/display.h **** 
 293              		.loc 6 23 13 view .LVU48
  23:../../libdaisy/src/hid/disp/display.h **** 
 294              		.loc 6 23 13 is_stmt 0 view .LVU49
 295              	.LBE572:
 296              	.LBE571:
 297              	.LBE570:
  17:../../libdaisy/src/hid/disp/oled_display.h **** 
 298              		.loc 5 17 29 view .LVU50
 299 0004 40F21441 		movw	r1, #1044
 300 0008 FFF7FEFF 		bl	_ZdlPvj
 301              	.LVL13:
  17:../../libdaisy/src/hid/disp/oled_display.h **** 
 302              		.loc 5 17 29 view .LVU51
 303 000c 2046     		mov	r0, r4
 304 000e 10BD     		pop	{r4, pc}
  17:../../libdaisy/src/hid/disp/oled_display.h **** 
 305              		.loc 5 17 29 view .LVU52
 306              		.cfi_endproc
 307              	.LFE4282:
 309              		.section	.text._Z13AudioCallbackPKfPfj,"ax",%progbits
 310              		.align	1
 311              		.p2align 2,,3
 312              		.global	_Z13AudioCallbackPKfPfj
 313              		.syntax unified
 314              		.thumb
 315              		.thumb_func
 316              		.fpu fpv5-d16
 318              	_Z13AudioCallbackPKfPfj:
 319              	.LVL14:
 320              	.LFB4258:
  78:Midi.cpp      **** 
  79:Midi.cpp      ****     void Init(float samplerate)
  80:Midi.cpp      ****     {
  81:Midi.cpp      ****         for(size_t i = 0; i < max_voices; i++)
  82:Midi.cpp      ****         {
  83:Midi.cpp      ****             voices[i].Init(samplerate);
  84:Midi.cpp      ****         }
  85:Midi.cpp      ****     }
  86:Midi.cpp      **** 
ARM GAS  /tmp/ccpRs2bQ.s 			page 26


  87:Midi.cpp      ****     float Process()
  88:Midi.cpp      ****     {
  89:Midi.cpp      ****         float sum;
  90:Midi.cpp      ****         sum = 0.f;
  91:Midi.cpp      ****         for(size_t i = 0; i < max_voices; i++)
  92:Midi.cpp      ****         {
  93:Midi.cpp      ****             sum += voices[i].Process();
  94:Midi.cpp      ****         }
  95:Midi.cpp      ****         return sum;
  96:Midi.cpp      ****     }
  97:Midi.cpp      **** 
  98:Midi.cpp      ****     void OnNoteOn(float notenumber, float velocity)
  99:Midi.cpp      ****     {
 100:Midi.cpp      ****         Voice *v = FindFreeVoice();
 101:Midi.cpp      ****         if(v == NULL)
 102:Midi.cpp      ****             return;
 103:Midi.cpp      ****         v->OnNoteOn(notenumber, velocity);
 104:Midi.cpp      ****     }
 105:Midi.cpp      **** 
 106:Midi.cpp      ****     void OnNoteOff(float notenumber, float velocity)
 107:Midi.cpp      ****     {
 108:Midi.cpp      ****         for(size_t i = 0; i < max_voices; i++)
 109:Midi.cpp      ****         {
 110:Midi.cpp      ****             Voice *v = &voices[i];
 111:Midi.cpp      ****             if(v->IsActive() && v->GetNote() == notenumber)
 112:Midi.cpp      ****             {
 113:Midi.cpp      ****                 v->OnNoteOff();
 114:Midi.cpp      ****             }
 115:Midi.cpp      ****         }
 116:Midi.cpp      ****     }
 117:Midi.cpp      **** 
 118:Midi.cpp      ****     void FreeAllVoices()
 119:Midi.cpp      ****     {
 120:Midi.cpp      ****         for(size_t i = 0; i < max_voices; i++)
 121:Midi.cpp      ****         {
 122:Midi.cpp      ****             voices[i].OnNoteOff();
 123:Midi.cpp      ****         }
 124:Midi.cpp      ****     }
 125:Midi.cpp      **** 
 126:Midi.cpp      ****     void SetCutoff(float all_val)
 127:Midi.cpp      ****     {
 128:Midi.cpp      ****         for(size_t i = 0; i < max_voices; i++)
 129:Midi.cpp      ****         {
 130:Midi.cpp      ****             voices[i].SetCutoff(all_val);
 131:Midi.cpp      ****         }
 132:Midi.cpp      ****     }
 133:Midi.cpp      **** 
 134:Midi.cpp      **** 
 135:Midi.cpp      ****   private:
 136:Midi.cpp      ****     Voice  voices[max_voices];
 137:Midi.cpp      ****     Voice *FindFreeVoice()
 138:Midi.cpp      ****     {
 139:Midi.cpp      ****         Voice *v = NULL;
 140:Midi.cpp      ****         for(size_t i = 0; i < max_voices; i++)
 141:Midi.cpp      ****         {
 142:Midi.cpp      ****             if(!voices[i].IsActive())
 143:Midi.cpp      ****             {
ARM GAS  /tmp/ccpRs2bQ.s 			page 27


 144:Midi.cpp      ****                 v = &voices[i];
 145:Midi.cpp      ****                 break;
 146:Midi.cpp      ****             }
 147:Midi.cpp      ****         }
 148:Midi.cpp      ****         return v;
 149:Midi.cpp      ****     }
 150:Midi.cpp      **** };
 151:Midi.cpp      **** 
 152:Midi.cpp      **** static VoiceManager<24> voice_handler;
 153:Midi.cpp      **** 
 154:Midi.cpp      **** void AudioCallback(AudioHandle::InterleavingInputBuffer  in,
 155:Midi.cpp      ****                    AudioHandle::InterleavingOutputBuffer out,
 156:Midi.cpp      ****                    size_t                                size)
 157:Midi.cpp      **** {
 321              		.loc 13 157 1 is_stmt 1 view -0
 322              		.cfi_startproc
 323              		@ args = 0, pretend = 0, frame = 0
 324              		@ frame_needed = 0, uses_anonymous_args = 0
 158:Midi.cpp      ****     float sum = 0.f;
 325              		.loc 13 158 5 view .LVU54
 159:Midi.cpp      ****     hw.ProcessDigitalControls();
 326              		.loc 13 159 5 view .LVU55
 157:Midi.cpp      ****     float sum = 0.f;
 327              		.loc 13 157 1 is_stmt 0 view .LVU56
 328 0000 2DE9F843 		push	{r3, r4, r5, r6, r7, r8, r9, lr}
 329              		.cfi_def_cfa_offset 32
 330              		.cfi_offset 3, -32
 331              		.cfi_offset 4, -28
 332              		.cfi_offset 5, -24
 333              		.cfi_offset 6, -20
 334              		.cfi_offset 7, -16
 335              		.cfi_offset 8, -12
 336              		.cfi_offset 9, -8
 337              		.cfi_offset 14, -4
 338              		.loc 13 159 30 view .LVU57
 339 0004 4148     		ldr	r0, .L29
 340              	.LVL15:
 157:Midi.cpp      ****     float sum = 0.f;
 341              		.loc 13 157 1 view .LVU58
 342 0006 0E46     		mov	r6, r1
 343 0008 9146     		mov	r9, r2
 344 000a 414F     		ldr	r7, .L29+4
 345 000c 2DED028B 		vpush.64	{d8}
 346              		.cfi_def_cfa_offset 40
 347              		.cfi_offset 80, -40
 348              		.cfi_offset 81, -36
 349              		.loc 13 159 30 view .LVU59
 350 0010 FFF7FEFF 		bl	_ZN5daisy10DaisyField22ProcessDigitalControlsEv
 351              	.LVL16:
 160:Midi.cpp      ****     hw.ProcessAnalogControls();
 352              		.loc 13 160 5 is_stmt 1 view .LVU60
 353              		.loc 13 160 29 is_stmt 0 view .LVU61
 354 0014 3D48     		ldr	r0, .L29
 355 0016 FFF7FEFF 		bl	_ZN5daisy10DaisyField21ProcessAnalogControlsEv
 356              	.LVL17:
 161:Midi.cpp      ****     if(hw.GetSwitch(hw.SW_1)->FallingEdge())
 357              		.loc 13 161 5 is_stmt 1 view .LVU62
ARM GAS  /tmp/ccpRs2bQ.s 			page 28


 358              		.loc 13 161 42 is_stmt 0 view .LVU63
 359 001a 0021     		movs	r1, #0
 360 001c 3B48     		ldr	r0, .L29
 361 001e FFF7FEFF 		bl	_ZN5daisy10DaisyField9GetSwitchEj
 362              	.LVL18:
 363              		.file 14 "../../libdaisy/src/hid/switch.h"
   1:../../libdaisy/src/hid/switch.h **** #pragma once
   2:../../libdaisy/src/hid/switch.h **** #ifndef DSY_SWITCH_H
   3:../../libdaisy/src/hid/switch.h **** #define DSY_SWITCH_H
   4:../../libdaisy/src/hid/switch.h **** #include "daisy_core.h"
   5:../../libdaisy/src/hid/switch.h **** #include "per/gpio.h"
   6:../../libdaisy/src/hid/switch.h **** 
   7:../../libdaisy/src/hid/switch.h **** namespace daisy
   8:../../libdaisy/src/hid/switch.h **** {
   9:../../libdaisy/src/hid/switch.h **** /** 
  10:../../libdaisy/src/hid/switch.h ****     Generic Class for handling momentary/latching switches \n 
  11:../../libdaisy/src/hid/switch.h ****     Inspired/influenced by Mutable Instruments (pichenettes) Switch classes
  12:../../libdaisy/src/hid/switch.h ****     @author Stephen Hensley
  13:../../libdaisy/src/hid/switch.h ****     @date December 2019
  14:../../libdaisy/src/hid/switch.h ****     @ingroup controls
  15:../../libdaisy/src/hid/switch.h **** */
  16:../../libdaisy/src/hid/switch.h **** class Switch
  17:../../libdaisy/src/hid/switch.h **** {
  18:../../libdaisy/src/hid/switch.h ****   public:
  19:../../libdaisy/src/hid/switch.h ****     /** Specifies the expected behavior of the switch */
  20:../../libdaisy/src/hid/switch.h ****     enum Type
  21:../../libdaisy/src/hid/switch.h ****     {
  22:../../libdaisy/src/hid/switch.h ****         TYPE_TOGGLE,    /**< & */
  23:../../libdaisy/src/hid/switch.h ****         TYPE_MOMENTARY, /**< & */
  24:../../libdaisy/src/hid/switch.h ****     };
  25:../../libdaisy/src/hid/switch.h ****     /** Specifies whether the pressed is HIGH or LOW. */
  26:../../libdaisy/src/hid/switch.h ****     enum Polarity
  27:../../libdaisy/src/hid/switch.h ****     {
  28:../../libdaisy/src/hid/switch.h ****         POLARITY_NORMAL,   /**< & */
  29:../../libdaisy/src/hid/switch.h ****         POLARITY_INVERTED, /**< & */
  30:../../libdaisy/src/hid/switch.h ****     };
  31:../../libdaisy/src/hid/switch.h **** 
  32:../../libdaisy/src/hid/switch.h ****     /** Specifies whether to use built-in Pull Up/Down resistors to hold button at a given state wh
  33:../../libdaisy/src/hid/switch.h ****     enum Pull
  34:../../libdaisy/src/hid/switch.h ****     {
  35:../../libdaisy/src/hid/switch.h ****         PULL_UP,   /**< & */
  36:../../libdaisy/src/hid/switch.h ****         PULL_DOWN, /**< & */
  37:../../libdaisy/src/hid/switch.h ****         PULL_NONE, /**< & */
  38:../../libdaisy/src/hid/switch.h ****     };
  39:../../libdaisy/src/hid/switch.h **** 
  40:../../libdaisy/src/hid/switch.h ****     Switch() {}
  41:../../libdaisy/src/hid/switch.h ****     ~Switch() {}
  42:../../libdaisy/src/hid/switch.h **** 
  43:../../libdaisy/src/hid/switch.h ****     /** 
  44:../../libdaisy/src/hid/switch.h ****     Initializes the switch object with a given port/pin combo.
  45:../../libdaisy/src/hid/switch.h ****     \param pin port/pin object to tell the switch which hardware pin to use.
  46:../../libdaisy/src/hid/switch.h ****     \param update_rate the rate at which the Debounce() function will be called. (used for timing).
  47:../../libdaisy/src/hid/switch.h ****     \param t switch type -- Default: TYPE_MOMENTARY
  48:../../libdaisy/src/hid/switch.h ****     \param pol switch polarity -- Default: POLARITY_INVERTED
  49:../../libdaisy/src/hid/switch.h ****     \param pu switch pull up/down -- Default: PULL_UP
  50:../../libdaisy/src/hid/switch.h ****     */
  51:../../libdaisy/src/hid/switch.h ****     void
ARM GAS  /tmp/ccpRs2bQ.s 			page 29


  52:../../libdaisy/src/hid/switch.h ****     Init(dsy_gpio_pin pin, float update_rate, Type t, Polarity pol, Pull pu);
  53:../../libdaisy/src/hid/switch.h **** 
  54:../../libdaisy/src/hid/switch.h ****     /**
  55:../../libdaisy/src/hid/switch.h ****        Simplified Init.
  56:../../libdaisy/src/hid/switch.h ****        \param pin port/pin object to tell the switch which hardware pin to use.
  57:../../libdaisy/src/hid/switch.h ****        \param update_rate the rate at which the Debounce() function will be called. (used for timin
  58:../../libdaisy/src/hid/switch.h ****     */
  59:../../libdaisy/src/hid/switch.h ****     void Init(dsy_gpio_pin pin, float update_rate);
  60:../../libdaisy/src/hid/switch.h **** 
  61:../../libdaisy/src/hid/switch.h ****     /** 
  62:../../libdaisy/src/hid/switch.h ****     Called at update_rate to debounce and handle timing for the switch.
  63:../../libdaisy/src/hid/switch.h ****     In order for events not to be missed, its important that the Edge/Pressed checks
  64:../../libdaisy/src/hid/switch.h ****     be made at the same rate as the debounce function is being called.
  65:../../libdaisy/src/hid/switch.h ****     */
  66:../../libdaisy/src/hid/switch.h ****     void Debounce();
  67:../../libdaisy/src/hid/switch.h **** 
  68:../../libdaisy/src/hid/switch.h ****     /** \return true if a button was just pressed. */
  69:../../libdaisy/src/hid/switch.h ****     inline bool RisingEdge() const { return state_ == 0x7f; }
  70:../../libdaisy/src/hid/switch.h **** 
  71:../../libdaisy/src/hid/switch.h ****     /** \return true if the button was just released */
  72:../../libdaisy/src/hid/switch.h ****     inline bool FallingEdge() const { return state_ == 0x80; }
 364              		.loc 14 72 39 is_stmt 1 view .LVU64
 365              		.loc 13 161 5 is_stmt 0 view .LVU65
 366 0022 4379     		ldrb	r3, [r0, #5]	@ zero_extendqisi2
 367 0024 802B     		cmp	r3, #128
 368 0026 67D0     		beq	.L13
 369              	.LVL19:
 370              	.L15:
 162:Midi.cpp      ****     {
 163:Midi.cpp      ****         voice_handler.FreeAllVoices();
 164:Midi.cpp      ****     }
 165:Midi.cpp      ****     voice_handler.SetCutoff(250.f + hw.GetKnobValue(hw.KNOB_1) * 8000.f);
 371              		.loc 13 165 5 is_stmt 1 view .LVU66
 372              		.loc 13 165 52 is_stmt 0 view .LVU67
 373 0028 0021     		movs	r1, #0
 374 002a 3848     		ldr	r0, .L29
 375 002c FFF7FEFF 		bl	_ZNK5daisy10DaisyField12GetKnobValueEj
 376              	.LVL20:
 377              		.loc 13 165 28 view .LVU68
 378 0030 9FED388A 		vldr.32	s16, .L29+8
 379 0034 DFED387A 		vldr.32	s15, .L29+12
 380 0038 384C     		ldr	r4, .L29+16
 381 003a A0EE278A 		vfma.f32	s16, s0, s15
 382              	.LVL21:
 383              	.LBB596:
 384              	.LBI596:
 126:Midi.cpp      ****     {
 385              		.loc 13 126 10 is_stmt 1 view .LVU69
 386              	.LBB597:
 128:Midi.cpp      ****         {
 387              		.loc 13 128 29 view .LVU70
 388 003e 04F58A55 		add	r5, r4, #4416
 389              	.LVL22:
 390              	.L14:
 391              	.LBB598:
 392              	.LBI598:
  58:Midi.cpp      **** 
ARM GAS  /tmp/ccpRs2bQ.s 			page 30


 393              		.loc 13 58 10 view .LVU71
 394              	.LBB599:
  58:Midi.cpp      **** 
 395              		.loc 13 58 33 view .LVU72
  58:Midi.cpp      **** 
 396              		.loc 13 58 46 is_stmt 0 view .LVU73
 397 0042 2046     		mov	r0, r4
 398 0044 B834     		adds	r4, r4, #184
 399 0046 B0EE480A 		vmov.f32	s0, s16
 400 004a FFF7FEFF 		bl	_ZN7daisysp3Svf7SetFreqEf
 401              	.LVL23:
  58:Midi.cpp      **** 
 402              		.loc 13 58 46 view .LVU74
 403              	.LBE599:
 404              	.LBE598:
 128:Midi.cpp      ****         {
 405              		.loc 13 128 9 is_stmt 1 view .LVU75
 128:Midi.cpp      ****         {
 406              		.loc 13 128 29 view .LVU76
 407 004e AC42     		cmp	r4, r5
 408 0050 F7D1     		bne	.L14
 409              	.LVL24:
 128:Midi.cpp      ****         {
 410              		.loc 13 128 29 is_stmt 0 view .LVU77
 411              	.LBE597:
 412              	.LBE596:
 413              	.LBB600:
 166:Midi.cpp      **** 
 167:Midi.cpp      ****     for(size_t i = 0; i < size; i += 2)
 414              		.loc 13 167 25 is_stmt 1 view .LVU78
 415 0052 B9F1000F 		cmp	r9, #0
 416 0056 4BD0     		beq	.L12
 417 0058 09F1FF39 		add	r9, r9, #-1
 418              	.LVL25:
 419              		.loc 13 167 16 is_stmt 0 view .LVU79
 420 005c 4FF00008 		mov	r8, #0
 421 0060 07F58A55 		add	r5, r7, #4416
 422 0064 29F00109 		bic	r9, r9, #1
 423              	.LVL26:
 424              	.L22:
 425              		.loc 13 167 16 view .LVU80
 426 0068 3C46     		mov	r4, r7
 427              	.LBB601:
 428              	.LBB602:
  90:Midi.cpp      ****         for(size_t i = 0; i < max_voices; i++)
 429              		.loc 13 90 9 view .LVU81
 430 006a 9FED2D8A 		vldr.32	s16, .L29+20
 431 006e 04E0     		b	.L20
 432              	.LVL27:
 433              	.L18:
  90:Midi.cpp      ****         for(size_t i = 0; i < max_voices; i++)
 434              		.loc 13 90 9 view .LVU82
 435 0070 B834     		adds	r4, r4, #184
 436              	.LBB603:
  93:Midi.cpp      ****         }
 437              		.loc 13 93 13 view .LVU83
 438 0072 38EE008A 		vadd.f32	s16, s16, s0
ARM GAS  /tmp/ccpRs2bQ.s 			page 31


 439              	.LVL28:
  91:Midi.cpp      ****         {
 440              		.loc 13 91 9 is_stmt 1 view .LVU84
  91:Midi.cpp      ****         {
 441              		.loc 13 91 29 view .LVU85
 442 0076 AC42     		cmp	r4, r5
 443 0078 2AD0     		beq	.L28
 444              	.LVL29:
 445              	.L20:
 446              	.LBB604:
 447              	.LBI604:
  32:Midi.cpp      ****     {
 448              		.loc 13 32 11 view .LVU86
 449              	.LBB605:
  34:Midi.cpp      ****         {
 450              		.loc 13 34 9 view .LVU87
 451              	.LBB606:
 452 007a 94F8B430 		ldrb	r3, [r4, #180]	@ zero_extendqisi2
 453              	.LBE606:
  44:Midi.cpp      ****     }
 454              		.loc 13 44 16 is_stmt 0 view .LVU88
 455 007e 9FED280A 		vldr.32	s0, .L29+20
 456              	.LBB607:
  34:Midi.cpp      ****         {
 457              		.loc 13 34 9 view .LVU89
 458 0082 002B     		cmp	r3, #0
 459 0084 F4D0     		beq	.L18
 460              	.LVL30:
  34:Midi.cpp      ****         {
 461              		.loc 13 34 9 view .LVU90
 462              	.LBE607:
 463              	.LBB608:
 464              	.LBI608:
  32:Midi.cpp      ****     {
 465              		.loc 13 32 11 is_stmt 1 view .LVU91
 466              	.LBB609:
  36:Midi.cpp      ****             amp = env_.Process(env_gate_);
 467              		.loc 13 36 13 view .LVU92
  37:Midi.cpp      ****             if(!env_.IsRunning())
 468              		.loc 13 37 13 view .LVU93
  37:Midi.cpp      ****             if(!env_.IsRunning())
 469              		.loc 13 37 31 is_stmt 0 view .LVU94
 470 0086 04F17400 		add	r0, r4, #116
 471 008a 94F8B510 		ldrb	r1, [r4, #181]	@ zero_extendqisi2
 472 008e FFF7FEFF 		bl	_ZN7daisysp4Adsr7ProcessEb
 473              	.LVL31:
  39:Midi.cpp      ****             sig = osc_.Process();
 474              		.loc 13 39 17 is_stmt 1 view .LVU95
  40:Midi.cpp      ****             filt_.Process(sig);
 475              		.loc 13 40 13 view .LVU96
  38:Midi.cpp      ****                 active_ = false;
 476              		.loc 13 38 13 is_stmt 0 view .LVU97
 477 0092 94F8A830 		ldrb	r3, [r4, #168]	@ zero_extendqisi2
  37:Midi.cpp      ****             if(!env_.IsRunning())
 478              		.loc 13 37 31 view .LVU98
 479 0096 F0EE408A 		vmov.f32	s17, s0
 480              	.LVL32:
ARM GAS  /tmp/ccpRs2bQ.s 			page 32


  38:Midi.cpp      ****                 active_ = false;
 481              		.loc 13 38 13 is_stmt 1 view .LVU99
  38:Midi.cpp      ****                 active_ = false;
 482              		.loc 13 38 13 is_stmt 0 view .LVU100
 483              	.LBE609:
 484              	.LBE608:
 485              	.LBE605:
 486              	.LBE604:
 487              	.LBE603:
 488              	.LBE602:
 489              	.LBE601:
 490              	.LBE600:
 491              		.file 15 "../../DaisySP/Source/Control/adsr.h"
   1:../../DaisySP/Source/Control/adsr.h **** #pragma once
   2:../../DaisySP/Source/Control/adsr.h **** #ifndef DSY_ADSR_H
   3:../../DaisySP/Source/Control/adsr.h **** #define DSY_ADSR_H
   4:../../DaisySP/Source/Control/adsr.h **** 
   5:../../DaisySP/Source/Control/adsr.h **** #include <stdint.h>
   6:../../DaisySP/Source/Control/adsr.h **** #ifdef __cplusplus
   7:../../DaisySP/Source/Control/adsr.h **** 
   8:../../DaisySP/Source/Control/adsr.h **** namespace daisysp
   9:../../DaisySP/Source/Control/adsr.h **** {
  10:../../DaisySP/Source/Control/adsr.h **** /** Distinct stages that the phase of the envelope can be located in.
  11:../../DaisySP/Source/Control/adsr.h **** - IDLE   = located at phase location 0, and not currently running
  12:../../DaisySP/Source/Control/adsr.h **** - ATTACK  = First segment of envelope where phase moves from 0 to 1
  13:../../DaisySP/Source/Control/adsr.h **** - DECAY   = Second segment of envelope where phase moves from 1 to SUSTAIN value
  14:../../DaisySP/Source/Control/adsr.h **** - SUSTAIN = Third segment of envelope, stays at SUSTAIN level until GATE is released
  15:../../DaisySP/Source/Control/adsr.h **** - RELEASE =     Fourth segment of envelop where phase moves from SUSTAIN to 0
  16:../../DaisySP/Source/Control/adsr.h **** - LAST    =  Last segment, aka release
  17:../../DaisySP/Source/Control/adsr.h **** */
  18:../../DaisySP/Source/Control/adsr.h **** enum
  19:../../DaisySP/Source/Control/adsr.h **** {
  20:../../DaisySP/Source/Control/adsr.h ****     ADSR_SEG_IDLE,
  21:../../DaisySP/Source/Control/adsr.h ****     ADSR_SEG_ATTACK,
  22:../../DaisySP/Source/Control/adsr.h ****     ADSR_SEG_DECAY,
  23:../../DaisySP/Source/Control/adsr.h ****     ADSR_SEG_SUSTAIN,
  24:../../DaisySP/Source/Control/adsr.h ****     ADSR_SEG_RELEASE,
  25:../../DaisySP/Source/Control/adsr.h ****     ADSR_SEG_LAST,
  26:../../DaisySP/Source/Control/adsr.h **** };
  27:../../DaisySP/Source/Control/adsr.h **** 
  28:../../DaisySP/Source/Control/adsr.h **** 
  29:../../DaisySP/Source/Control/adsr.h **** /** adsr envelope module
  30:../../DaisySP/Source/Control/adsr.h **** 
  31:../../DaisySP/Source/Control/adsr.h **** Original author(s) : Paul Batchelor
  32:../../DaisySP/Source/Control/adsr.h **** 
  33:../../DaisySP/Source/Control/adsr.h **** Ported from Soundpipe by Ben Sergentanis, May 2020
  34:../../DaisySP/Source/Control/adsr.h **** */
  35:../../DaisySP/Source/Control/adsr.h **** class Adsr
  36:../../DaisySP/Source/Control/adsr.h **** {
  37:../../DaisySP/Source/Control/adsr.h ****   public:
  38:../../DaisySP/Source/Control/adsr.h ****     Adsr() {}
  39:../../DaisySP/Source/Control/adsr.h ****     ~Adsr() {}
  40:../../DaisySP/Source/Control/adsr.h ****     /** Initializes the Adsr module.
  41:../../DaisySP/Source/Control/adsr.h ****         \param sample_rate - The sample rate of the audio engine being run. 
  42:../../DaisySP/Source/Control/adsr.h ****     */
  43:../../DaisySP/Source/Control/adsr.h ****     void Init(float sample_rate);
  44:../../DaisySP/Source/Control/adsr.h **** 
ARM GAS  /tmp/ccpRs2bQ.s 			page 33


  45:../../DaisySP/Source/Control/adsr.h **** 
  46:../../DaisySP/Source/Control/adsr.h ****     /** Processes one sample through the filter and returns one sample.
  47:../../DaisySP/Source/Control/adsr.h ****         \param gate - trigger the envelope, hold it to sustain 
  48:../../DaisySP/Source/Control/adsr.h ****     */
  49:../../DaisySP/Source/Control/adsr.h ****     float Process(bool gate);
  50:../../DaisySP/Source/Control/adsr.h **** 
  51:../../DaisySP/Source/Control/adsr.h ****     /** Sets time
  52:../../DaisySP/Source/Control/adsr.h ****         Set time per segment in seconds
  53:../../DaisySP/Source/Control/adsr.h ****     */
  54:../../DaisySP/Source/Control/adsr.h ****     inline void SetTime(int seg, float time) { seg_time_[seg] = time; }
  55:../../DaisySP/Source/Control/adsr.h ****     /** Sustain level
  56:../../DaisySP/Source/Control/adsr.h ****         \param sus_level - sets sustain level
  57:../../DaisySP/Source/Control/adsr.h ****     */
  58:../../DaisySP/Source/Control/adsr.h ****     inline void SetSustainLevel(float sus_level) { sus_ = sus_level; }
  59:../../DaisySP/Source/Control/adsr.h ****     /** get the current envelope segment
  60:../../DaisySP/Source/Control/adsr.h ****         \return the segment of the envelope that the phase is currently located in.
  61:../../DaisySP/Source/Control/adsr.h ****     */
  62:../../DaisySP/Source/Control/adsr.h ****     inline uint8_t GetCurrentSegment() { return mode_; }
  63:../../DaisySP/Source/Control/adsr.h ****     /** Tells whether envelope is active
  64:../../DaisySP/Source/Control/adsr.h ****         \return true if the envelope is currently in any stage apart from idle.
  65:../../DaisySP/Source/Control/adsr.h ****     */
  66:../../DaisySP/Source/Control/adsr.h ****     inline bool IsRunning() const { return mode_ != ADSR_SEG_IDLE; }
 492              		.loc 15 66 37 is_stmt 1 view .LVU101
 493              	.LBB628:
 494              	.LBB626:
 495              	.LBB624:
 496              	.LBB622:
 497              	.LBB619:
 498              	.LBB616:
 499              	.LBB613:
 500              	.LBB610:
  40:Midi.cpp      ****             filt_.Process(sig);
 501              		.loc 13 40 31 is_stmt 0 view .LVU102
 502 009a 2046     		mov	r0, r4
  38:Midi.cpp      ****                 active_ = false;
 503              		.loc 13 38 13 view .LVU103
 504 009c 0BB9     		cbnz	r3, .L19
  39:Midi.cpp      ****             sig = osc_.Process();
 505              		.loc 13 39 25 view .LVU104
 506 009e 84F8B430 		strb	r3, [r4, #180]
 507              	.L19:
  40:Midi.cpp      ****             filt_.Process(sig);
 508              		.loc 13 40 31 view .LVU105
 509 00a2 FFF7FEFF 		bl	_ZN7daisysp10Oscillator7ProcessEv
 510              	.LVL33:
  41:Midi.cpp      ****             return filt_.Low() * (velocity_ / 127.f) * amp;
 511              		.loc 13 41 13 is_stmt 1 view .LVU106
  41:Midi.cpp      ****             return filt_.Low() * (velocity_ / 127.f) * amp;
 512              		.loc 13 41 26 is_stmt 0 view .LVU107
 513 00a6 04F12800 		add	r0, r4, #40
 514 00aa FFF7FEFF 		bl	_ZN7daisysp3Svf7ProcessEf
 515              	.LVL34:
  42:Midi.cpp      ****         }
 516              		.loc 13 42 13 is_stmt 1 view .LVU108
  42:Midi.cpp      ****         }
 517              		.loc 13 42 13 is_stmt 0 view .LVU109
 518              	.LBE610:
ARM GAS  /tmp/ccpRs2bQ.s 			page 34


 519              	.LBE613:
 520              	.LBE616:
 521              	.LBE619:
 522              	.LBE622:
 523              	.LBE624:
 524              	.LBE626:
 525              	.LBE628:
 526              		.file 16 "../../DaisySP/Source/Filters/svf.h"
   1:../../DaisySP/Source/Filters/svf.h **** #pragma once
   2:../../DaisySP/Source/Filters/svf.h **** #ifndef DSY_SVF_H
   3:../../DaisySP/Source/Filters/svf.h **** #define DSY_SVF_H
   4:../../DaisySP/Source/Filters/svf.h **** 
   5:../../DaisySP/Source/Filters/svf.h **** namespace daisysp
   6:../../DaisySP/Source/Filters/svf.h **** {
   7:../../DaisySP/Source/Filters/svf.h **** /**      Double Sampled, Stable State Variable Filter
   8:../../DaisySP/Source/Filters/svf.h **** 
   9:../../DaisySP/Source/Filters/svf.h **** Credit to Andrew Simper from musicdsp.org
  10:../../DaisySP/Source/Filters/svf.h **** 
  11:../../DaisySP/Source/Filters/svf.h **** This is his "State Variable Filter (Double Sampled, Stable)"
  12:../../DaisySP/Source/Filters/svf.h **** 
  13:../../DaisySP/Source/Filters/svf.h **** Additional thanks to Laurent de Soras for stability limit, and 
  14:../../DaisySP/Source/Filters/svf.h **** Stefan Diedrichsen for the correct notch output
  15:../../DaisySP/Source/Filters/svf.h **** 
  16:../../DaisySP/Source/Filters/svf.h **** Ported by: Stephen Hensley
  17:../../DaisySP/Source/Filters/svf.h **** */
  18:../../DaisySP/Source/Filters/svf.h **** class Svf
  19:../../DaisySP/Source/Filters/svf.h **** {
  20:../../DaisySP/Source/Filters/svf.h ****   public:
  21:../../DaisySP/Source/Filters/svf.h ****     Svf() {}
  22:../../DaisySP/Source/Filters/svf.h ****     ~Svf() {}
  23:../../DaisySP/Source/Filters/svf.h ****     /** Initializes the filter
  24:../../DaisySP/Source/Filters/svf.h ****         float sample_rate - sample rate of the audio engine being run, and the frequency that the P
  25:../../DaisySP/Source/Filters/svf.h ****     */
  26:../../DaisySP/Source/Filters/svf.h ****     void Init(float sample_rate);
  27:../../DaisySP/Source/Filters/svf.h **** 
  28:../../DaisySP/Source/Filters/svf.h **** 
  29:../../DaisySP/Source/Filters/svf.h ****     /** 
  30:../../DaisySP/Source/Filters/svf.h ****         Process the input signal, updating all of the outputs.
  31:../../DaisySP/Source/Filters/svf.h ****     */
  32:../../DaisySP/Source/Filters/svf.h ****     void Process(float in);
  33:../../DaisySP/Source/Filters/svf.h **** 
  34:../../DaisySP/Source/Filters/svf.h **** 
  35:../../DaisySP/Source/Filters/svf.h ****     /** sets the frequency of the cutoff frequency. 
  36:../../DaisySP/Source/Filters/svf.h ****         f must be between 0.0 and sample_rate / 3
  37:../../DaisySP/Source/Filters/svf.h ****     */
  38:../../DaisySP/Source/Filters/svf.h ****     void SetFreq(float f);
  39:../../DaisySP/Source/Filters/svf.h **** 
  40:../../DaisySP/Source/Filters/svf.h ****     /** sets the resonance of the filter.
  41:../../DaisySP/Source/Filters/svf.h ****         Must be between 0.0 and 1.0 to ensure stability.
  42:../../DaisySP/Source/Filters/svf.h ****     */
  43:../../DaisySP/Source/Filters/svf.h ****     void SetRes(float r);
  44:../../DaisySP/Source/Filters/svf.h **** 
  45:../../DaisySP/Source/Filters/svf.h ****     /** sets the drive of the filter 
  46:../../DaisySP/Source/Filters/svf.h ****         affects the response of the resonance of the filter
  47:../../DaisySP/Source/Filters/svf.h ****     */
  48:../../DaisySP/Source/Filters/svf.h ****     void SetDrive(float d);
  49:../../DaisySP/Source/Filters/svf.h ****     /** lowpass output
ARM GAS  /tmp/ccpRs2bQ.s 			page 35


  50:../../DaisySP/Source/Filters/svf.h ****         \return low pass output of the filter
  51:../../DaisySP/Source/Filters/svf.h ****     */
  52:../../DaisySP/Source/Filters/svf.h ****     inline float Low() { return out_low_; }
 527              		.loc 16 52 26 is_stmt 1 view .LVU110
 528              	.LBB629:
 529              	.LBB627:
 530              	.LBB625:
 531              	.LBB623:
 532              	.LBB620:
 533              	.LBB617:
 534              	.LBB614:
 535              	.LBB611:
  42:Midi.cpp      ****         }
 536              		.loc 13 42 45 is_stmt 0 view .LVU111
 537 00ae D4ED2C6A 		vldr.32	s13, [r4, #176]
 538 00b2 9FED1C7A 		vldr.32	s14, .L29+24
 539 00b6 B834     		adds	r4, r4, #184
  42:Midi.cpp      ****         }
 540              		.loc 13 42 32 view .LVU112
 541 00b8 14ED180A 		vldr.32	s0, [r4, #-96]
  42:Midi.cpp      ****         }
 542              		.loc 13 42 45 view .LVU113
 543 00bc C6EE877A 		vdiv.f32	s15, s13, s14
 544              	.LBE611:
 545              	.LBE614:
 546              	.LBE617:
 547              	.LBE620:
  91:Midi.cpp      ****         {
 548              		.loc 13 91 29 view .LVU114
 549 00c0 AC42     		cmp	r4, r5
 550              	.LBB621:
 551              	.LBB618:
 552              	.LBB615:
 553              	.LBB612:
  42:Midi.cpp      ****         }
 554              		.loc 13 42 32 view .LVU115
 555 00c2 67EE807A 		vmul.f32	s15, s15, s0
  42:Midi.cpp      ****         }
 556              		.loc 13 42 56 view .LVU116
 557 00c6 27EEA80A 		vmul.f32	s0, s15, s17
 558              	.LVL35:
  42:Midi.cpp      ****         }
 559              		.loc 13 42 56 view .LVU117
 560              	.LBE612:
 561              	.LBE615:
 562              	.LBE618:
 563              	.LBE621:
  93:Midi.cpp      ****         }
 564              		.loc 13 93 13 view .LVU118
 565 00ca 38EE008A 		vadd.f32	s16, s16, s0
 566              	.LVL36:
  91:Midi.cpp      ****         {
 567              		.loc 13 91 9 is_stmt 1 view .LVU119
  91:Midi.cpp      ****         {
 568              		.loc 13 91 29 view .LVU120
 569 00ce D4D1     		bne	.L20
 570              	.L28:
ARM GAS  /tmp/ccpRs2bQ.s 			page 36


 571              	.LVL37:
  91:Midi.cpp      ****         {
 572              		.loc 13 91 29 is_stmt 0 view .LVU121
 573              	.LBE623:
 574              	.LBE625:
 575              	.LBE627:
 168:Midi.cpp      ****     {
 169:Midi.cpp      ****         sum        = 0.f;
 170:Midi.cpp      ****         sum        = voice_handler.Process() * 0.5f;
 576              		.loc 13 170 20 view .LVU122
 577 00d0 F6EE007A 		vmov.f32	s15, #5.0e-1
 167:Midi.cpp      ****     {
 578              		.loc 13 167 25 view .LVU123
 579 00d4 C845     		cmp	r8, r9
 167:Midi.cpp      ****     {
 580              		.loc 13 167 35 view .LVU124
 581 00d6 08F10203 		add	r3, r8, #2
 582 00da 06F10806 		add	r6, r6, #8
 583              		.loc 13 170 20 view .LVU125
 584 00de 28EE278A 		vmul.f32	s16, s16, s15
 585              	.LVL38:
 171:Midi.cpp      ****         out[i]     = sum;
 586              		.loc 13 171 9 is_stmt 1 view .LVU126
 587              		.loc 13 171 20 is_stmt 0 view .LVU127
 588 00e2 06ED028A 		vstr.32	s16, [r6, #-8]
 172:Midi.cpp      ****         out[i + 1] = sum;
 589              		.loc 13 172 9 is_stmt 1 view .LVU128
 590              		.loc 13 172 20 is_stmt 0 view .LVU129
 591 00e6 06ED018A 		vstr.32	s16, [r6, #-4]
 167:Midi.cpp      ****     {
 592              		.loc 13 167 5 is_stmt 1 view .LVU130
 593              	.LVL39:
 167:Midi.cpp      ****     {
 594              		.loc 13 167 25 view .LVU131
 595 00ea 01D0     		beq	.L12
 596 00ec 9846     		mov	r8, r3
 597 00ee BBE7     		b	.L22
 598              	.LVL40:
 599              	.L12:
 167:Midi.cpp      ****     {
 600              		.loc 13 167 25 is_stmt 0 view .LVU132
 601              	.LBE629:
 173:Midi.cpp      ****     }
 174:Midi.cpp      **** }
 602              		.loc 13 174 1 view .LVU133
 603 00f0 BDEC028B 		vldm	sp!, {d8}
 604              		.cfi_remember_state
 605              		.cfi_restore 80
 606              		.cfi_restore 81
 607              		.cfi_def_cfa_offset 32
 608 00f4 BDE8F883 		pop	{r3, r4, r5, r6, r7, r8, r9, pc}
 609              	.LVL41:
 610              	.L13:
 611              		.cfi_restore_state
 612              		.loc 13 174 1 view .LVU134
 613 00f8 3B46     		mov	r3, r7
 614 00fa 07F58A54 		add	r4, r7, #4416
ARM GAS  /tmp/ccpRs2bQ.s 			page 37


 615              	.LVL42:
 616              	.L16:
 617              	.LBB630:
 618              	.LBB631:
 619              	.LBB632:
 620              	.LBI632:
  56:Midi.cpp      **** 
 621              		.loc 13 56 10 is_stmt 1 view .LVU135
 622              	.LBB633:
  56:Midi.cpp      **** 
 623              		.loc 13 56 24 view .LVU136
  56:Midi.cpp      **** 
 624              		.loc 13 56 34 is_stmt 0 view .LVU137
 625 00fe 0020     		movs	r0, #0
 626 0100 B833     		adds	r3, r3, #184
 627              	.LVL43:
  56:Midi.cpp      **** 
 628              		.loc 13 56 34 view .LVU138
 629 0102 03F8030C 		strb	r0, [r3, #-3]
 630              	.LBE633:
 631              	.LBE632:
 120:Midi.cpp      ****         {
 632              		.loc 13 120 9 is_stmt 1 view .LVU139
 120:Midi.cpp      ****         {
 633              		.loc 13 120 29 view .LVU140
 634 0106 A342     		cmp	r3, r4
 635 0108 F9D1     		bne	.L16
 636 010a 8DE7     		b	.L15
 637              	.L30:
 638              		.align	2
 639              	.L29:
 640 010c 00000000 		.word	hw
 641 0110 00000000 		.word	_ZL13voice_handler
 642 0114 00007A43 		.word	1132068864
 643 0118 0000FA45 		.word	1174011904
 644 011c 28000000 		.word	_ZL13voice_handler+40
 645 0120 00000000 		.word	0
 646 0124 0000FE42 		.word	1123942400
 647              	.LBE631:
 648              	.LBE630:
 649              		.cfi_endproc
 650              	.LFE4258:
 652              		.section	.text._ZN5daisy11OledDisplayINS_13SSD130xDriverILj128ELj64ENS_24SSD130x4WireSpiTransportE
 653              		.align	1
 654              		.p2align 2,,3
 655              		.weak	_ZN5daisy11OledDisplayINS_13SSD130xDriverILj128ELj64ENS_24SSD130x4WireSpiTransportEEEE6Updat
 656              		.syntax unified
 657              		.thumb
 658              		.thumb_func
 659              		.fpu fpv5-d16
 661              	_ZN5daisy11OledDisplayINS_13SSD130xDriverILj128ELj64ENS_24SSD130x4WireSpiTransportEEEE6UpdateEv:
 662              	.LVL44:
 663              	.LFB4594:
  34:../../libdaisy/src/hid/disp/oled_display.h **** 
  35:../../libdaisy/src/hid/disp/oled_display.h ****     /**
  36:../../libdaisy/src/hid/disp/oled_display.h ****     Sets the pixel at the specified coordinate to be on/off.
  37:../../libdaisy/src/hid/disp/oled_display.h ****     \param x   x Coordinate
ARM GAS  /tmp/ccpRs2bQ.s 			page 38


  38:../../libdaisy/src/hid/disp/oled_display.h ****     \param y   y coordinate
  39:../../libdaisy/src/hid/disp/oled_display.h ****     \param on  on or off
  40:../../libdaisy/src/hid/disp/oled_display.h ****     */
  41:../../libdaisy/src/hid/disp/oled_display.h ****     void DrawPixel(uint_fast8_t x, uint_fast8_t y, bool on) override
  42:../../libdaisy/src/hid/disp/oled_display.h ****     {
  43:../../libdaisy/src/hid/disp/oled_display.h ****         driver_.DrawPixel(x, y, on);
  44:../../libdaisy/src/hid/disp/oled_display.h ****     }
  45:../../libdaisy/src/hid/disp/oled_display.h **** 
  46:../../libdaisy/src/hid/disp/oled_display.h ****     /** 
  47:../../libdaisy/src/hid/disp/oled_display.h ****     Writes the current display buffer to the OLED device using SPI or I2C depending on 
  48:../../libdaisy/src/hid/disp/oled_display.h ****     how the object was initialized.
  49:../../libdaisy/src/hid/disp/oled_display.h ****     */
  50:../../libdaisy/src/hid/disp/oled_display.h ****     void Update() override { driver_.Update(); }
 664              		.loc 5 50 10 view -0
 665              		.cfi_startproc
 666              		@ args = 0, pretend = 0, frame = 8
 667              		@ frame_needed = 0, uses_anonymous_args = 0
 668              	.LBB644:
 669              	.LBI644:
 254:../../libdaisy/src/dev/oled_ssd130x.h ****         }
 255:../../libdaisy/src/dev/oled_ssd130x.h ****     };
 256:../../libdaisy/src/dev/oled_ssd130x.h **** 
 257:../../libdaisy/src/dev/oled_ssd130x.h ****     /**
 258:../../libdaisy/src/dev/oled_ssd130x.h ****      * Update the display 
 259:../../libdaisy/src/dev/oled_ssd130x.h ****     */
 260:../../libdaisy/src/dev/oled_ssd130x.h ****     void Update()
 670              		.loc 12 260 10 view .LVU142
 671              	.LBB645:
 261:../../libdaisy/src/dev/oled_ssd130x.h ****     {
 262:../../libdaisy/src/dev/oled_ssd130x.h ****         uint8_t i;
 263:../../libdaisy/src/dev/oled_ssd130x.h ****         uint8_t high_column_addr;
 264:../../libdaisy/src/dev/oled_ssd130x.h ****         switch(height)
 265:../../libdaisy/src/dev/oled_ssd130x.h ****         {
 266:../../libdaisy/src/dev/oled_ssd130x.h ****             case 32: high_column_addr = 0x12; break;
 267:../../libdaisy/src/dev/oled_ssd130x.h **** 
 268:../../libdaisy/src/dev/oled_ssd130x.h ****             default: high_column_addr = 0x10; break;
 269:../../libdaisy/src/dev/oled_ssd130x.h ****         }
 270:../../libdaisy/src/dev/oled_ssd130x.h ****         for(i = 0; i < (height / 8); i++)
 672              		.loc 12 270 22 view .LVU143
 673              	.LBE645:
 674              	.LBE644:
 675              		.loc 5 50 10 is_stmt 0 view .LVU144
 676 0000 2DE9F041 		push	{r4, r5, r6, r7, r8, lr}
 677              		.cfi_def_cfa_offset 24
 678              		.cfi_offset 4, -24
 679              		.cfi_offset 5, -20
 680              		.cfi_offset 6, -16
 681              		.cfi_offset 7, -12
 682              		.cfi_offset 8, -8
 683              		.cfi_offset 14, -4
 684 0004 B025     		movs	r5, #176
 685 0006 82B0     		sub	sp, sp, #8
 686              		.cfi_def_cfa_offset 32
 687 0008 00F10807 		add	r7, r0, #8
 688 000c 00F11006 		add	r6, r0, #16
 689 0010 00F11404 		add	r4, r0, #20
 690              	.LVL45:
ARM GAS  /tmp/ccpRs2bQ.s 			page 39


 691              	.L32:
 692              	.LBB658:
 693              	.LBB657:
 694              	.LBB646:
 695              	.LBB647:
 111:../../libdaisy/src/dev/oled_ssd130x.h ****         spi_.BlockingTransmit(&cmd, 1);
 696              		.loc 12 111 23 view .LVU145
 697 0014 0021     		movs	r1, #0
 698 0016 3046     		mov	r0, r6
 699 0018 8DF80750 		strb	r5, [sp, #7]
 700              	.LVL46:
 111:../../libdaisy/src/dev/oled_ssd130x.h ****         spi_.BlockingTransmit(&cmd, 1);
 701              		.loc 12 111 23 view .LVU146
 702              	.LBE647:
 703              	.LBI646:
 109:../../libdaisy/src/dev/oled_ssd130x.h ****     {
 704              		.loc 12 109 10 is_stmt 1 view .LVU147
 705              	.LBB648:
 111:../../libdaisy/src/dev/oled_ssd130x.h ****         spi_.BlockingTransmit(&cmd, 1);
 706              		.loc 12 111 9 view .LVU148
 707 001c 0135     		adds	r5, r5, #1
 708              	.LVL47:
 111:../../libdaisy/src/dev/oled_ssd130x.h ****         spi_.BlockingTransmit(&cmd, 1);
 709              		.loc 12 111 9 is_stmt 0 view .LVU149
 710 001e 8846     		mov	r8, r1
 111:../../libdaisy/src/dev/oled_ssd130x.h ****         spi_.BlockingTransmit(&cmd, 1);
 711              		.loc 12 111 23 view .LVU150
 712 0020 FFF7FEFF 		bl	dsy_gpio_write
 713              	.LVL48:
 112:../../libdaisy/src/dev/oled_ssd130x.h ****     };
 714              		.loc 12 112 9 is_stmt 1 view .LVU151
 112:../../libdaisy/src/dev/oled_ssd130x.h ****     };
 715              		.loc 12 112 30 is_stmt 0 view .LVU152
 716 0024 6423     		movs	r3, #100
 717 0026 0122     		movs	r2, #1
 718 0028 0DF10701 		add	r1, sp, #7
 719 002c 3846     		mov	r0, r7
 720 002e FFF7FEFF 		bl	_ZN5daisy9SpiHandle16BlockingTransmitEPhjm
 721              	.LVL49:
 112:../../libdaisy/src/dev/oled_ssd130x.h ****     };
 722              		.loc 12 112 30 view .LVU153
 723              	.LBE648:
 724              	.LBE646:
 725              	.LBB649:
 726              	.LBB650:
 111:../../libdaisy/src/dev/oled_ssd130x.h ****         spi_.BlockingTransmit(&cmd, 1);
 727              		.loc 12 111 23 view .LVU154
 728 0032 4146     		mov	r1, r8
 729 0034 3046     		mov	r0, r6
 730 0036 8DF80780 		strb	r8, [sp, #7]
 731              	.LVL50:
 111:../../libdaisy/src/dev/oled_ssd130x.h ****         spi_.BlockingTransmit(&cmd, 1);
 732              		.loc 12 111 23 view .LVU155
 733              	.LBE650:
 734              	.LBI649:
 109:../../libdaisy/src/dev/oled_ssd130x.h ****     {
 735              		.loc 12 109 10 is_stmt 1 view .LVU156
ARM GAS  /tmp/ccpRs2bQ.s 			page 40


 736              	.LBB651:
 111:../../libdaisy/src/dev/oled_ssd130x.h ****         spi_.BlockingTransmit(&cmd, 1);
 737              		.loc 12 111 9 view .LVU157
 111:../../libdaisy/src/dev/oled_ssd130x.h ****         spi_.BlockingTransmit(&cmd, 1);
 738              		.loc 12 111 23 is_stmt 0 view .LVU158
 739 003a FFF7FEFF 		bl	dsy_gpio_write
 740              	.LVL51:
 112:../../libdaisy/src/dev/oled_ssd130x.h ****     };
 741              		.loc 12 112 9 is_stmt 1 view .LVU159
 112:../../libdaisy/src/dev/oled_ssd130x.h ****     };
 742              		.loc 12 112 30 is_stmt 0 view .LVU160
 743 003e 0122     		movs	r2, #1
 744 0040 6423     		movs	r3, #100
 745 0042 0DF10701 		add	r1, sp, #7
 746 0046 3846     		mov	r0, r7
 747 0048 EDB2     		uxtb	r5, r5
 748 004a FFF7FEFF 		bl	_ZN5daisy9SpiHandle16BlockingTransmitEPhjm
 749              	.LVL52:
 112:../../libdaisy/src/dev/oled_ssd130x.h ****     };
 750              		.loc 12 112 30 view .LVU161
 751 004e 1023     		movs	r3, #16
 752              	.LBE651:
 753              	.LBE649:
 754              	.LBB652:
 755              	.LBB653:
 111:../../libdaisy/src/dev/oled_ssd130x.h ****         spi_.BlockingTransmit(&cmd, 1);
 756              		.loc 12 111 23 view .LVU162
 757 0050 4146     		mov	r1, r8
 758 0052 3046     		mov	r0, r6
 759 0054 8DF80730 		strb	r3, [sp, #7]
 760              	.LVL53:
 111:../../libdaisy/src/dev/oled_ssd130x.h ****         spi_.BlockingTransmit(&cmd, 1);
 761              		.loc 12 111 23 view .LVU163
 762              	.LBE653:
 763              	.LBI652:
 109:../../libdaisy/src/dev/oled_ssd130x.h ****     {
 764              		.loc 12 109 10 is_stmt 1 view .LVU164
 765              	.LBB654:
 111:../../libdaisy/src/dev/oled_ssd130x.h ****         spi_.BlockingTransmit(&cmd, 1);
 766              		.loc 12 111 9 view .LVU165
 111:../../libdaisy/src/dev/oled_ssd130x.h ****         spi_.BlockingTransmit(&cmd, 1);
 767              		.loc 12 111 23 is_stmt 0 view .LVU166
 768 0058 FFF7FEFF 		bl	dsy_gpio_write
 769              	.LVL54:
 112:../../libdaisy/src/dev/oled_ssd130x.h ****     };
 770              		.loc 12 112 9 is_stmt 1 view .LVU167
 112:../../libdaisy/src/dev/oled_ssd130x.h ****     };
 771              		.loc 12 112 30 is_stmt 0 view .LVU168
 772 005c 6423     		movs	r3, #100
 773 005e 0122     		movs	r2, #1
 774 0060 0DF10701 		add	r1, sp, #7
 775 0064 3846     		mov	r0, r7
 776 0066 FFF7FEFF 		bl	_ZN5daisy9SpiHandle16BlockingTransmitEPhjm
 777              	.LVL55:
 112:../../libdaisy/src/dev/oled_ssd130x.h ****     };
 778              		.loc 12 112 30 view .LVU169
 779              	.LBE654:
ARM GAS  /tmp/ccpRs2bQ.s 			page 41


 780              	.LBE652:
 781              	.LBB655:
 782              	.LBI655:
 115:../../libdaisy/src/dev/oled_ssd130x.h ****     {
 783              		.loc 12 115 10 is_stmt 1 view .LVU170
 784              	.LBB656:
 117:../../libdaisy/src/dev/oled_ssd130x.h ****         spi_.BlockingTransmit(buff, size);
 785              		.loc 12 117 9 view .LVU171
 117:../../libdaisy/src/dev/oled_ssd130x.h ****         spi_.BlockingTransmit(buff, size);
 786              		.loc 12 117 23 is_stmt 0 view .LVU172
 787 006a 0121     		movs	r1, #1
 788 006c 3046     		mov	r0, r6
 789 006e FFF7FEFF 		bl	dsy_gpio_write
 790              	.LVL56:
 118:../../libdaisy/src/dev/oled_ssd130x.h ****     };
 791              		.loc 12 118 9 is_stmt 1 view .LVU173
 118:../../libdaisy/src/dev/oled_ssd130x.h ****     };
 792              		.loc 12 118 30 is_stmt 0 view .LVU174
 793 0072 8022     		movs	r2, #128
 794 0074 2146     		mov	r1, r4
 795 0076 6423     		movs	r3, #100
 796 0078 3846     		mov	r0, r7
 797 007a 1444     		add	r4, r4, r2
 798              	.LVL57:
 118:../../libdaisy/src/dev/oled_ssd130x.h ****     };
 799              		.loc 12 118 30 view .LVU175
 800 007c FFF7FEFF 		bl	_ZN5daisy9SpiHandle16BlockingTransmitEPhjm
 801              	.LVL58:
 118:../../libdaisy/src/dev/oled_ssd130x.h ****     };
 802              		.loc 12 118 30 view .LVU176
 803              	.LBE656:
 804              	.LBE655:
 805              		.loc 12 270 9 is_stmt 1 view .LVU177
 806              		.loc 12 270 22 view .LVU178
 807 0080 B82D     		cmp	r5, #184
 808 0082 C7D1     		bne	.L32
 809              	.LBE657:
 810              	.LBE658:
 811              		.loc 5 50 48 is_stmt 0 view .LVU179
 812 0084 02B0     		add	sp, sp, #8
 813              		.cfi_def_cfa_offset 24
 814              		@ sp needed
 815 0086 BDE8F081 		pop	{r4, r5, r6, r7, r8, pc}
 816              		.loc 5 50 48 view .LVU180
 817              		.cfi_endproc
 818              	.LFE4594:
 820 008a 00BF     		.section	.text._ZN5daisy25OneBitGraphicsDisplayImplINS_11OledDisplayINS_13SSD130xDriverILj128ELj64
 821              		.align	1
 822              		.p2align 2,,3
 823              		.weak	_ZN5daisy25OneBitGraphicsDisplayImplINS_11OledDisplayINS_13SSD130xDriverILj128ELj64ENS_24SSD
 824              		.syntax unified
 825              		.thumb
 826              		.thumb_func
 827              		.fpu fpv5-d16
 829              	_ZN5daisy25OneBitGraphicsDisplayImplINS_11OledDisplayINS_13SSD130xDriverILj128ELj64ENS_24SSD130x4Wi
 830              	.LVL59:
 831              	.LFB4593:
ARM GAS  /tmp/ccpRs2bQ.s 			page 42


 220:../../libdaisy/src/hid/disp/display.h **** 
 221:../../libdaisy/src/hid/disp/display.h ****     void DrawLine(uint_fast8_t x1,
 222:../../libdaisy/src/hid/disp/display.h ****                   uint_fast8_t y1,
 223:../../libdaisy/src/hid/disp/display.h ****                   uint_fast8_t x2,
 224:../../libdaisy/src/hid/disp/display.h ****                   uint_fast8_t y2,
 225:../../libdaisy/src/hid/disp/display.h ****                   bool         on) override
 226:../../libdaisy/src/hid/disp/display.h ****     {
 227:../../libdaisy/src/hid/disp/display.h ****         int_fast16_t deltaX = abs((int_fast16_t)x2 - (int_fast16_t)x1);
 228:../../libdaisy/src/hid/disp/display.h ****         int_fast16_t deltaY = abs((int_fast16_t)y2 - (int_fast16_t)y1);
 229:../../libdaisy/src/hid/disp/display.h ****         int_fast16_t signX  = ((x1 < x2) ? 1 : -1);
 230:../../libdaisy/src/hid/disp/display.h ****         int_fast16_t signY  = ((y1 < y2) ? 1 : -1);
 231:../../libdaisy/src/hid/disp/display.h ****         int_fast16_t error  = deltaX - deltaY;
 232:../../libdaisy/src/hid/disp/display.h ****         int_fast16_t error2;
 233:../../libdaisy/src/hid/disp/display.h **** 
 234:../../libdaisy/src/hid/disp/display.h ****         // If we write "ChildType::DrawPixel(x2, y2, on);", we end up with
 235:../../libdaisy/src/hid/disp/display.h ****         // all sorts of weird compiler errors when the Child class is a template
 236:../../libdaisy/src/hid/disp/display.h ****         // class. The only way around this is to use this very verbose syntax:
 237:../../libdaisy/src/hid/disp/display.h ****         ((ChildType*)(this))->ChildType::DrawPixel(x2, y2, on);
 238:../../libdaisy/src/hid/disp/display.h **** 
 239:../../libdaisy/src/hid/disp/display.h ****         while((x1 != x2) || (y1 != y2))
 240:../../libdaisy/src/hid/disp/display.h ****         {
 241:../../libdaisy/src/hid/disp/display.h ****             ((ChildType*)(this))->ChildType::DrawPixel(x1, y1, on);
 242:../../libdaisy/src/hid/disp/display.h ****             error2 = error * 2;
 243:../../libdaisy/src/hid/disp/display.h ****             if(error2 > -deltaY)
 244:../../libdaisy/src/hid/disp/display.h ****             {
 245:../../libdaisy/src/hid/disp/display.h ****                 error -= deltaY;
 246:../../libdaisy/src/hid/disp/display.h ****                 x1 += signX;
 247:../../libdaisy/src/hid/disp/display.h ****             }
 248:../../libdaisy/src/hid/disp/display.h **** 
 249:../../libdaisy/src/hid/disp/display.h ****             if(error2 < deltaX)
 250:../../libdaisy/src/hid/disp/display.h ****             {
 251:../../libdaisy/src/hid/disp/display.h ****                 error += deltaX;
 252:../../libdaisy/src/hid/disp/display.h ****                 y1 += signY;
 253:../../libdaisy/src/hid/disp/display.h ****             }
 254:../../libdaisy/src/hid/disp/display.h ****         }
 255:../../libdaisy/src/hid/disp/display.h ****     }
 256:../../libdaisy/src/hid/disp/display.h **** 
 257:../../libdaisy/src/hid/disp/display.h ****     void DrawRect(uint_fast8_t x1,
 258:../../libdaisy/src/hid/disp/display.h ****                   uint_fast8_t y1,
 259:../../libdaisy/src/hid/disp/display.h ****                   uint_fast8_t x2,
 260:../../libdaisy/src/hid/disp/display.h ****                   uint_fast8_t y2,
 261:../../libdaisy/src/hid/disp/display.h ****                   bool         on,
 262:../../libdaisy/src/hid/disp/display.h ****                   bool         fill = false) override
 263:../../libdaisy/src/hid/disp/display.h ****     {
 264:../../libdaisy/src/hid/disp/display.h ****         if(fill)
 265:../../libdaisy/src/hid/disp/display.h ****         {
 266:../../libdaisy/src/hid/disp/display.h ****             for(uint_fast8_t x = x1; x <= x2; x++)
 267:../../libdaisy/src/hid/disp/display.h ****             {
 268:../../libdaisy/src/hid/disp/display.h ****                 for(uint_fast8_t y = y1; y <= y2; y++)
 269:../../libdaisy/src/hid/disp/display.h ****                 {
 270:../../libdaisy/src/hid/disp/display.h ****                     ((ChildType*)(this))->ChildType::DrawPixel(x, y, on);
 271:../../libdaisy/src/hid/disp/display.h ****                 }
 272:../../libdaisy/src/hid/disp/display.h ****             }
 273:../../libdaisy/src/hid/disp/display.h ****         }
 274:../../libdaisy/src/hid/disp/display.h ****         else
 275:../../libdaisy/src/hid/disp/display.h ****         {
 276:../../libdaisy/src/hid/disp/display.h ****             ((ChildType*)(this))->ChildType::DrawLine(x1, y1, x2, y1, on);
ARM GAS  /tmp/ccpRs2bQ.s 			page 43


 277:../../libdaisy/src/hid/disp/display.h ****             ((ChildType*)(this))->ChildType::DrawLine(x2, y1, x2, y2, on);
 278:../../libdaisy/src/hid/disp/display.h ****             ((ChildType*)(this))->ChildType::DrawLine(x2, y2, x1, y2, on);
 279:../../libdaisy/src/hid/disp/display.h ****             ((ChildType*)(this))->ChildType::DrawLine(x1, y2, x1, y1, on);
 280:../../libdaisy/src/hid/disp/display.h ****         }
 281:../../libdaisy/src/hid/disp/display.h ****     }
 282:../../libdaisy/src/hid/disp/display.h **** 
 283:../../libdaisy/src/hid/disp/display.h ****     void DrawArc(uint_fast8_t x,
 284:../../libdaisy/src/hid/disp/display.h ****                  uint_fast8_t y,
 285:../../libdaisy/src/hid/disp/display.h ****                  uint_fast8_t radius,
 286:../../libdaisy/src/hid/disp/display.h ****                  int_fast16_t start_angle,
 287:../../libdaisy/src/hid/disp/display.h ****                  int_fast16_t sweep,
 288:../../libdaisy/src/hid/disp/display.h ****                  bool         on) override
 289:../../libdaisy/src/hid/disp/display.h ****     {
 290:../../libdaisy/src/hid/disp/display.h ****         // Values to calculate the circle
 291:../../libdaisy/src/hid/disp/display.h ****         int_fast16_t t_x, t_y, err, e2;
 292:../../libdaisy/src/hid/disp/display.h **** 
 293:../../libdaisy/src/hid/disp/display.h ****         // Temporary values to speed up comparisons
 294:../../libdaisy/src/hid/disp/display.h ****         float t_sxy, t_syx, t_sxny, t_synx;
 295:../../libdaisy/src/hid/disp/display.h ****         float t_exy, t_eyx, t_exny, t_eynx;
 296:../../libdaisy/src/hid/disp/display.h **** 
 297:../../libdaisy/src/hid/disp/display.h ****         float start_angle_rad, end_angle_rad;
 298:../../libdaisy/src/hid/disp/display.h ****         float start_x, start_y, end_x, end_y;
 299:../../libdaisy/src/hid/disp/display.h **** 
 300:../../libdaisy/src/hid/disp/display.h ****         bool d1, d2, d3, d4;
 301:../../libdaisy/src/hid/disp/display.h **** 
 302:../../libdaisy/src/hid/disp/display.h ****         d1 = d2 = d3 = d4 = true;
 303:../../libdaisy/src/hid/disp/display.h **** 
 304:../../libdaisy/src/hid/disp/display.h ****         bool circle = false;
 305:../../libdaisy/src/hid/disp/display.h **** 
 306:../../libdaisy/src/hid/disp/display.h ****         if(sweep < 0)
 307:../../libdaisy/src/hid/disp/display.h ****         {
 308:../../libdaisy/src/hid/disp/display.h ****             start_angle += sweep;
 309:../../libdaisy/src/hid/disp/display.h ****             sweep = -sweep;
 310:../../libdaisy/src/hid/disp/display.h ****         }
 311:../../libdaisy/src/hid/disp/display.h **** 
 312:../../libdaisy/src/hid/disp/display.h ****         start_angle_rad = deg2rad(start_angle);
 313:../../libdaisy/src/hid/disp/display.h ****         end_angle_rad   = deg2rad(start_angle + sweep);
 314:../../libdaisy/src/hid/disp/display.h **** 
 315:../../libdaisy/src/hid/disp/display.h ****         start_x = cos(start_angle_rad) * radius;
 316:../../libdaisy/src/hid/disp/display.h ****         start_y = -sin(start_angle_rad) * radius;
 317:../../libdaisy/src/hid/disp/display.h ****         end_x   = cos(end_angle_rad) * radius;
 318:../../libdaisy/src/hid/disp/display.h ****         end_y   = -sin(end_angle_rad) * radius;
 319:../../libdaisy/src/hid/disp/display.h **** 
 320:../../libdaisy/src/hid/disp/display.h ****         // Check if start and endpoint are very near
 321:../../libdaisy/src/hid/disp/display.h ****         if((end_x - start_x) * (end_x - start_x)
 322:../../libdaisy/src/hid/disp/display.h ****                + (end_y - start_y) * (end_y - start_y)
 323:../../libdaisy/src/hid/disp/display.h ****            < 2.0f)
 324:../../libdaisy/src/hid/disp/display.h ****         {
 325:../../libdaisy/src/hid/disp/display.h ****             if(sweep > 180)
 326:../../libdaisy/src/hid/disp/display.h ****                 circle = true;
 327:../../libdaisy/src/hid/disp/display.h ****             else
 328:../../libdaisy/src/hid/disp/display.h ****                 // Nothing to draw
 329:../../libdaisy/src/hid/disp/display.h ****                 return;
 330:../../libdaisy/src/hid/disp/display.h ****         }
 331:../../libdaisy/src/hid/disp/display.h **** 
 332:../../libdaisy/src/hid/disp/display.h ****         t_x = -radius;
 333:../../libdaisy/src/hid/disp/display.h ****         t_y = 0;
ARM GAS  /tmp/ccpRs2bQ.s 			page 44


 334:../../libdaisy/src/hid/disp/display.h ****         err = 2 - 2 * radius;
 335:../../libdaisy/src/hid/disp/display.h **** 
 336:../../libdaisy/src/hid/disp/display.h ****         do
 337:../../libdaisy/src/hid/disp/display.h ****         {
 338:../../libdaisy/src/hid/disp/display.h ****             if(!circle)
 339:../../libdaisy/src/hid/disp/display.h ****             {
 340:../../libdaisy/src/hid/disp/display.h ****                 t_sxy  = start_x * t_y;
 341:../../libdaisy/src/hid/disp/display.h ****                 t_syx  = start_y * t_x;
 342:../../libdaisy/src/hid/disp/display.h ****                 t_sxny = start_x * -t_y;
 343:../../libdaisy/src/hid/disp/display.h ****                 t_synx = start_y * -t_x;
 344:../../libdaisy/src/hid/disp/display.h ****                 t_exy  = end_x * t_y;
 345:../../libdaisy/src/hid/disp/display.h ****                 t_eyx  = end_y * t_x;
 346:../../libdaisy/src/hid/disp/display.h ****                 t_exny = end_x * -t_y;
 347:../../libdaisy/src/hid/disp/display.h ****                 t_eynx = end_y * -t_x;
 348:../../libdaisy/src/hid/disp/display.h **** 
 349:../../libdaisy/src/hid/disp/display.h ****                 if(sweep > 180)
 350:../../libdaisy/src/hid/disp/display.h ****                 {
 351:../../libdaisy/src/hid/disp/display.h ****                     d1 = (t_sxy - t_synx < 0 || t_exy - t_eynx > 0);
 352:../../libdaisy/src/hid/disp/display.h ****                     d2 = (t_sxy - t_syx < 0 || t_exy - t_eyx > 0);
 353:../../libdaisy/src/hid/disp/display.h ****                     d3 = (t_sxny - t_syx < 0 || t_exny - t_eyx > 0);
 354:../../libdaisy/src/hid/disp/display.h ****                     d4 = (t_sxny - t_synx < 0 || t_exny - t_eynx > 0);
 355:../../libdaisy/src/hid/disp/display.h ****                 }
 356:../../libdaisy/src/hid/disp/display.h ****                 else
 357:../../libdaisy/src/hid/disp/display.h ****                 {
 358:../../libdaisy/src/hid/disp/display.h ****                     d1 = (t_sxy - t_synx < 0 && t_exy - t_eynx > 0);
 359:../../libdaisy/src/hid/disp/display.h ****                     d2 = (t_sxy - t_syx < 0 && t_exy - t_eyx > 0);
 360:../../libdaisy/src/hid/disp/display.h ****                     d3 = (t_sxny - t_syx < 0 && t_exny - t_eyx > 0);
 361:../../libdaisy/src/hid/disp/display.h ****                     d4 = (t_sxny - t_synx < 0 && t_exny - t_eynx > 0);
 362:../../libdaisy/src/hid/disp/display.h ****                 }
 363:../../libdaisy/src/hid/disp/display.h ****             }
 364:../../libdaisy/src/hid/disp/display.h **** 
 365:../../libdaisy/src/hid/disp/display.h ****             if(d1)
 366:../../libdaisy/src/hid/disp/display.h ****                 ((ChildType*)(this))
 367:../../libdaisy/src/hid/disp/display.h ****                     ->ChildType::DrawPixel(x - t_x, y + t_y, on);
 368:../../libdaisy/src/hid/disp/display.h ****             if(d2)
 369:../../libdaisy/src/hid/disp/display.h ****                 ((ChildType*)(this))
 370:../../libdaisy/src/hid/disp/display.h ****                     ->ChildType::DrawPixel(x + t_x, y + t_y, on);
 371:../../libdaisy/src/hid/disp/display.h ****             if(d3)
 372:../../libdaisy/src/hid/disp/display.h ****                 ((ChildType*)(this))
 373:../../libdaisy/src/hid/disp/display.h ****                     ->ChildType::DrawPixel(x + t_x, y - t_y, on);
 374:../../libdaisy/src/hid/disp/display.h ****             if(d4)
 375:../../libdaisy/src/hid/disp/display.h ****                 ((ChildType*)(this))
 376:../../libdaisy/src/hid/disp/display.h ****                     ->ChildType::DrawPixel(x - t_x, y - t_y, on);
 377:../../libdaisy/src/hid/disp/display.h **** 
 378:../../libdaisy/src/hid/disp/display.h ****             e2 = err;
 379:../../libdaisy/src/hid/disp/display.h ****             if(e2 <= t_y)
 380:../../libdaisy/src/hid/disp/display.h ****             {
 381:../../libdaisy/src/hid/disp/display.h ****                 t_y++;
 382:../../libdaisy/src/hid/disp/display.h ****                 err = err + (t_y * 2 + 1);
 383:../../libdaisy/src/hid/disp/display.h ****                 if(-t_x == t_y && e2 <= t_x)
 384:../../libdaisy/src/hid/disp/display.h ****                 {
 385:../../libdaisy/src/hid/disp/display.h ****                     e2 = 0;
 386:../../libdaisy/src/hid/disp/display.h ****                 }
 387:../../libdaisy/src/hid/disp/display.h ****             }
 388:../../libdaisy/src/hid/disp/display.h ****             if(e2 > t_x)
 389:../../libdaisy/src/hid/disp/display.h ****             {
 390:../../libdaisy/src/hid/disp/display.h ****                 t_x++;
ARM GAS  /tmp/ccpRs2bQ.s 			page 45


 391:../../libdaisy/src/hid/disp/display.h ****                 err = err + (t_x * 2 + 1);
 392:../../libdaisy/src/hid/disp/display.h ****             }
 393:../../libdaisy/src/hid/disp/display.h ****         } while(t_x <= 0);
 394:../../libdaisy/src/hid/disp/display.h ****     }
 395:../../libdaisy/src/hid/disp/display.h **** 
 396:../../libdaisy/src/hid/disp/display.h ****     char WriteChar(char ch, FontDef font, bool on) override
 397:../../libdaisy/src/hid/disp/display.h ****     {
 398:../../libdaisy/src/hid/disp/display.h ****         uint32_t i, b, j;
 399:../../libdaisy/src/hid/disp/display.h **** 
 400:../../libdaisy/src/hid/disp/display.h ****         // Check if character is valid
 401:../../libdaisy/src/hid/disp/display.h ****         if(ch < 32 || ch > 126)
 402:../../libdaisy/src/hid/disp/display.h ****             return 0;
 403:../../libdaisy/src/hid/disp/display.h **** 
 404:../../libdaisy/src/hid/disp/display.h ****         // Check remaining space on current line
 405:../../libdaisy/src/hid/disp/display.h ****         if(Width() < (currentX_ + font.FontWidth)
 406:../../libdaisy/src/hid/disp/display.h ****            || Height() < (currentY_ + font.FontHeight))
 407:../../libdaisy/src/hid/disp/display.h ****         {
 408:../../libdaisy/src/hid/disp/display.h ****             // Not enough space on current line
 409:../../libdaisy/src/hid/disp/display.h ****             return 0;
 410:../../libdaisy/src/hid/disp/display.h ****         }
 411:../../libdaisy/src/hid/disp/display.h **** 
 412:../../libdaisy/src/hid/disp/display.h ****         // Use the font to write
 413:../../libdaisy/src/hid/disp/display.h ****         for(i = 0; i < font.FontHeight; i++)
 414:../../libdaisy/src/hid/disp/display.h ****         {
 415:../../libdaisy/src/hid/disp/display.h ****             b = font.data[(ch - 32) * font.FontHeight + i];
 416:../../libdaisy/src/hid/disp/display.h ****             for(j = 0; j < font.FontWidth; j++)
 417:../../libdaisy/src/hid/disp/display.h ****             {
 418:../../libdaisy/src/hid/disp/display.h ****                 if((b << j) & 0x8000)
 419:../../libdaisy/src/hid/disp/display.h ****                 {
 420:../../libdaisy/src/hid/disp/display.h ****                     ((ChildType*)(this))
 421:../../libdaisy/src/hid/disp/display.h ****                         ->ChildType::DrawPixel(
 422:../../libdaisy/src/hid/disp/display.h ****                             currentX_ + j, (currentY_ + i), on);
 423:../../libdaisy/src/hid/disp/display.h ****                 }
 424:../../libdaisy/src/hid/disp/display.h ****                 else
 425:../../libdaisy/src/hid/disp/display.h ****                 {
 426:../../libdaisy/src/hid/disp/display.h ****                     ((ChildType*)(this))
 427:../../libdaisy/src/hid/disp/display.h ****                         ->ChildType::DrawPixel(
 428:../../libdaisy/src/hid/disp/display.h ****                             currentX_ + j, (currentY_ + i), !on);
 429:../../libdaisy/src/hid/disp/display.h ****                 }
 430:../../libdaisy/src/hid/disp/display.h ****             }
 431:../../libdaisy/src/hid/disp/display.h ****         }
 432:../../libdaisy/src/hid/disp/display.h **** 
 433:../../libdaisy/src/hid/disp/display.h ****         // The current space is now taken
 434:../../libdaisy/src/hid/disp/display.h ****         SetCursor(currentX_ + font.FontWidth, currentY_);
 435:../../libdaisy/src/hid/disp/display.h **** 
 436:../../libdaisy/src/hid/disp/display.h ****         // Return written char for validation
 437:../../libdaisy/src/hid/disp/display.h ****         return ch;
 438:../../libdaisy/src/hid/disp/display.h ****     }
 439:../../libdaisy/src/hid/disp/display.h **** 
 440:../../libdaisy/src/hid/disp/display.h ****     char WriteString(const char* str, FontDef font, bool on) override
 832              		.loc 6 440 10 is_stmt 1 view -0
 833              		.cfi_startproc
 834              		@ args = 4, pretend = 0, frame = 32
 835              		@ frame_needed = 0, uses_anonymous_args = 0
 836              		.loc 6 440 10 is_stmt 0 view .LVU182
 837 0000 2DE9F04F 		push	{r4, r5, r6, r7, r8, r9, r10, fp, lr}
 838              		.cfi_def_cfa_offset 36
ARM GAS  /tmp/ccpRs2bQ.s 			page 46


 839              		.cfi_offset 4, -36
 840              		.cfi_offset 5, -32
 841              		.cfi_offset 6, -28
 842              		.cfi_offset 7, -24
 843              		.cfi_offset 8, -20
 844              		.cfi_offset 9, -16
 845              		.cfi_offset 10, -12
 846              		.cfi_offset 11, -8
 847              		.cfi_offset 14, -4
 848 0004 89B0     		sub	sp, sp, #36
 849              		.cfi_def_cfa_offset 72
 850              		.loc 6 440 10 view .LVU183
 851 0006 8B46     		mov	fp, r1
 441:../../libdaisy/src/hid/disp/display.h ****     {
 442:../../libdaisy/src/hid/disp/display.h ****         // Write until null-byte
 443:../../libdaisy/src/hid/disp/display.h ****         while(*str)
 852              		.loc 6 443 9 is_stmt 1 view .LVU184
 853 0008 91F80090 		ldrb	r9, [r1]	@ zero_extendqisi2
 440:../../libdaisy/src/hid/disp/display.h ****     {
 854              		.loc 6 440 10 is_stmt 0 view .LVU185
 855 000c 9DF84840 		ldrb	r4, [sp, #72]	@ zero_extendqisi2
 856 0010 08A9     		add	r1, sp, #32
 857              	.LVL60:
 440:../../libdaisy/src/hid/disp/display.h ****     {
 858              		.loc 6 440 10 view .LVU186
 859 0012 0494     		str	r4, [sp, #16]
 860 0014 01E90C00 		stmdb	r1, {r2, r3}
 861              		.loc 6 443 9 view .LVU187
 862 0018 B9F1000F 		cmp	r9, #0
 863 001c 00F0B780 		beq	.L59
 864 0020 9DF81930 		ldrb	r3, [sp, #25]	@ zero_extendqisi2
 865 0024 8046     		mov	r8, r0
 866 0026 9DF818A0 		ldrb	r10, [sp, #24]	@ zero_extendqisi2
 867 002a 4D46     		mov	r5, r9
 868 002c 0193     		str	r3, [sp, #4]
 869 002e 079B     		ldr	r3, [sp, #28]
 870 0030 0593     		str	r3, [sp, #20]
 871              	.LVL61:
 872              	.L60:
 873              	.LBB687:
 874              	.LBI687:
 396:../../libdaisy/src/hid/disp/display.h ****     {
 875              		.loc 6 396 10 is_stmt 1 view .LVU188
 876              	.LBB688:
 401:../../libdaisy/src/hid/disp/display.h ****             return 0;
 877              		.loc 6 401 20 is_stmt 0 view .LVU189
 878 0032 A5F12004 		sub	r4, r5, #32
 401:../../libdaisy/src/hid/disp/display.h ****             return 0;
 879              		.loc 6 401 9 view .LVU190
 880 0036 E3B2     		uxtb	r3, r4
 881 0038 5E2B     		cmp	r3, #94
 882 003a 00F2AC80 		bhi	.L41
 405:../../libdaisy/src/hid/disp/display.h ****            || Height() < (currentY_ + font.FontHeight))
 883              		.loc 6 405 17 view .LVU191
 884 003e D8F80030 		ldr	r3, [r8]
 885 0042 654A     		ldr	r2, .L81
 886 0044 DB68     		ldr	r3, [r3, #12]
ARM GAS  /tmp/ccpRs2bQ.s 			page 47


 887 0046 9342     		cmp	r3, r2
 888 0048 40F0A780 		bne	.L74
 889 004c 8020     		movs	r0, #128
 890              	.L40:
 405:../../libdaisy/src/hid/disp/display.h ****            || Height() < (currentY_ + font.FontHeight))
 891              		.loc 6 405 23 view .LVU192
 892 004e B8F80430 		ldrh	r3, [r8, #4]
 405:../../libdaisy/src/hid/disp/display.h ****            || Height() < (currentY_ + font.FontHeight))
 893              		.loc 6 405 33 view .LVU193
 894 0052 5344     		add	r3, r3, r10
 406:../../libdaisy/src/hid/disp/display.h ****         {
 895              		.loc 6 406 12 view .LVU194
 896 0054 8342     		cmp	r3, r0
 897 0056 00F39E80 		bgt	.L41
 406:../../libdaisy/src/hid/disp/display.h ****         {
 898              		.loc 6 406 21 view .LVU195
 899 005a D8F80030 		ldr	r3, [r8]
 900 005e 5F4A     		ldr	r2, .L81+4
 901 0060 9B68     		ldr	r3, [r3, #8]
 902 0062 9342     		cmp	r3, r2
 903 0064 40F09C80 		bne	.L75
 904 0068 4020     		movs	r0, #64
 905              	.L42:
 406:../../libdaisy/src/hid/disp/display.h ****         {
 906              		.loc 6 406 27 view .LVU196
 907 006a B8F80610 		ldrh	r1, [r8, #6]
 406:../../libdaisy/src/hid/disp/display.h ****         {
 908              		.loc 6 406 37 view .LVU197
 909 006e 019A     		ldr	r2, [sp, #4]
 406:../../libdaisy/src/hid/disp/display.h ****         {
 910              		.loc 6 406 27 view .LVU198
 911 0070 0091     		str	r1, [sp]
 406:../../libdaisy/src/hid/disp/display.h ****         {
 912              		.loc 6 406 37 view .LVU199
 913 0072 8B18     		adds	r3, r1, r2
 406:../../libdaisy/src/hid/disp/display.h ****         {
 914              		.loc 6 406 12 view .LVU200
 915 0074 8342     		cmp	r3, r0
 916 0076 00F38E80 		bgt	.L41
 917              	.LVL62:
 413:../../libdaisy/src/hid/disp/display.h ****         {
 918              		.loc 6 413 22 is_stmt 1 view .LVU201
 919 007a 1046     		mov	r0, r2
 920 007c 002A     		cmp	r2, #0
 921 007e 00F09A80 		beq	.L43
 415:../../libdaisy/src/hid/disp/display.h ****             for(j = 0; j < font.FontWidth; j++)
 922              		.loc 6 415 37 is_stmt 0 view .LVU202
 923 0082 1346     		mov	r3, r2
 924 0084 6FF00046 		mvn	r6, #-2147483648
 925 0088 B8F80470 		ldrh	r7, [r8, #4]
 926 008c 03FB04F3 		mul	r3, r3, r4
 927 0090 059C     		ldr	r4, [sp, #20]
 928 0092 BE46     		mov	lr, r7
 929 0094 CDF80CB0 		str	fp, [sp, #12]
 930 0098 1E44     		add	r6, r6, r3
 931 009a A21E     		subs	r2, r4, #2
 932 009c 0344     		add	r3, r3, r0
ARM GAS  /tmp/ccpRs2bQ.s 			page 48


 933 009e 5746     		mov	r7, r10
 934 00a0 04EB4606 		add	r6, r4, r6, lsl #1
 935 00a4 DDF81090 		ldr	r9, [sp, #16]
 936 00a8 02EB4303 		add	r3, r2, r3, lsl #1
 937 00ac 0295     		str	r5, [sp, #8]
 938 00ae 9B46     		mov	fp, r3
 939              	.LVL63:
 940              	.L46:
 415:../../libdaisy/src/hid/disp/display.h ****             for(j = 0; j < font.FontWidth; j++)
 941              		.loc 6 415 13 view .LVU203
 942 00b0 36F802AF 		ldrh	r10, [r6, #2]!
 943              	.LVL64:
 416:../../libdaisy/src/hid/disp/display.h ****             {
 944              		.loc 6 416 26 is_stmt 1 view .LVU204
 945 00b4 A7B3     		cbz	r7, .L51
 946              	.LBB689:
 947              	.LBB690:
 948              	.LBB691:
 949              	.LBB692:
 950              	.LBB693:
 246:../../libdaisy/src/dev/oled_ssd130x.h ****     }
 951              		.loc 12 246 49 is_stmt 0 view .LVU205
 952 00b6 0124     		movs	r4, #1
 246:../../libdaisy/src/dev/oled_ssd130x.h ****     }
 953              		.loc 12 246 55 view .LVU206
 954 00b8 01F00702 		and	r2, r1, #7
 246:../../libdaisy/src/dev/oled_ssd130x.h ****     }
 955              		.loc 12 246 28 view .LVU207
 956 00bc C808     		lsrs	r0, r1, #3
 957 00be 0EF11403 		add	r3, lr, #20
 246:../../libdaisy/src/dev/oled_ssd130x.h ****     }
 958              		.loc 12 246 49 view .LVU208
 959 00c2 04FA02F2 		lsl	r2, r4, r2
 960 00c6 7446     		mov	r4, lr
 961 00c8 03EBC013 		add	r3, r3, r0, lsl #7
 962              	.LBE693:
 963              	.LBE692:
 964              	.LBE691:
 965              	.LBE690:
 966              	.LBE689:
 416:../../libdaisy/src/hid/disp/display.h ****             {
 967              		.loc 6 416 19 view .LVU209
 968 00cc 0020     		movs	r0, #0
 969              	.LBB711:
 970              	.LBB706:
 971              	.LBB701:
 972              	.LBB697:
 973              	.LBB694:
 246:../../libdaisy/src/dev/oled_ssd130x.h ****     }
 974              		.loc 12 246 42 view .LVU210
 975 00ce 52B2     		sxtb	r2, r2
 976 00d0 4344     		add	r3, r3, r8
 977 00d2 6FEA020C 		mvn	ip, r2
 978 00d6 0EE0     		b	.L52
 979              	.LVL65:
 980              	.L76:
 246:../../libdaisy/src/dev/oled_ssd130x.h ****     }
ARM GAS  /tmp/ccpRs2bQ.s 			page 49


 981              		.loc 12 246 42 view .LVU211
 982              	.LBE694:
 983              	.LBE697:
 984              	.LBE701:
 985              	.LBE706:
 986              	.LBE711:
 987              	.LBB712:
 988              	.LBI712:
  41:../../libdaisy/src/hid/disp/oled_display.h ****     {
 989              		.loc 5 41 10 is_stmt 1 view .LVU212
 990              	.LBB713:
 991              	.LBI713:
 239:../../libdaisy/src/dev/oled_ssd130x.h ****     {
 992              		.loc 12 239 10 view .LVU213
 993              	.LBB714:
 241:../../libdaisy/src/dev/oled_ssd130x.h ****             return;
 994              		.loc 12 241 9 is_stmt 0 view .LVU214
 995 00d8 7F2C     		cmp	r4, #127
 996 00da 07D8     		bhi	.L48
 997 00dc 3F29     		cmp	r1, #63
 998 00de 05D8     		bhi	.L48
 244:../../libdaisy/src/dev/oled_ssd130x.h ****         else
 999              		.loc 12 244 42 view .LVU215
 1000 00e0 1D78     		ldrb	r5, [r3]	@ zero_extendqisi2
 243:../../libdaisy/src/dev/oled_ssd130x.h ****             buffer_[x + (y / 8) * width] |= (1 << (y % 8));
 1001              		.loc 12 243 9 view .LVU216
 1002 00e2 B9F1000F 		cmp	r9, #0
 1003 00e6 12D0     		beq	.L50
 1004              	.L73:
 243:../../libdaisy/src/dev/oled_ssd130x.h ****             buffer_[x + (y / 8) * width] |= (1 << (y % 8));
 1005              		.loc 12 243 9 view .LVU217
 1006              	.LBE714:
 1007              	.LBE713:
 1008              	.LBE712:
 1009              	.LBB715:
 1010              	.LBB707:
 1011              	.LBB702:
 244:../../libdaisy/src/dev/oled_ssd130x.h ****         else
 1012              		.loc 12 244 42 view .LVU218
 1013 00e8 1543     		orrs	r5, r5, r2
 244:../../libdaisy/src/dev/oled_ssd130x.h ****         else
 1014              		.loc 12 244 13 view .LVU219
 1015 00ea 1D70     		strb	r5, [r3]
 1016              	.L48:
 1017              	.LBE702:
 1018              	.LBE707:
 1019              	.LBE715:
 416:../../libdaisy/src/hid/disp/display.h ****             {
 1020              		.loc 6 416 13 is_stmt 1 view .LVU220
 1021 00ec 0130     		adds	r0, r0, #1
 1022              	.LVL66:
 416:../../libdaisy/src/hid/disp/display.h ****             {
 1023              		.loc 6 416 26 view .LVU221
 1024 00ee 0133     		adds	r3, r3, #1
 1025 00f0 0134     		adds	r4, r4, #1
 1026 00f2 B842     		cmp	r0, r7
 1027 00f4 14D0     		beq	.L51
ARM GAS  /tmp/ccpRs2bQ.s 			page 50


 1028              	.LVL67:
 1029              	.L52:
 418:../../libdaisy/src/hid/disp/display.h ****                 {
 1030              		.loc 6 418 23 is_stmt 0 view .LVU222
 1031 00f6 0AFA00F5 		lsl	r5, r10, r0
 418:../../libdaisy/src/hid/disp/display.h ****                 {
 1032              		.loc 6 418 17 view .LVU223
 1033 00fa 2D04     		lsls	r5, r5, #16
 1034 00fc ECD4     		bmi	.L76
 1035              	.LVL68:
 1036              	.LBB716:
 1037              	.LBI689:
  41:../../libdaisy/src/hid/disp/oled_display.h ****     {
 1038              		.loc 5 41 10 is_stmt 1 view .LVU224
 1039              	.LBB708:
 1040              	.LBI690:
 239:../../libdaisy/src/dev/oled_ssd130x.h ****     {
 1041              		.loc 12 239 10 view .LVU225
 1042              	.LBB703:
 241:../../libdaisy/src/dev/oled_ssd130x.h ****             return;
 1043              		.loc 12 241 9 is_stmt 0 view .LVU226
 1044 00fe 7F2C     		cmp	r4, #127
 1045 0100 F4D8     		bhi	.L48
 1046 0102 3F29     		cmp	r1, #63
 1047 0104 F2D8     		bhi	.L48
 244:../../libdaisy/src/dev/oled_ssd130x.h ****         else
 1048              		.loc 12 244 42 view .LVU227
 1049 0106 1D78     		ldrb	r5, [r3]	@ zero_extendqisi2
 243:../../libdaisy/src/dev/oled_ssd130x.h ****             buffer_[x + (y / 8) * width] |= (1 << (y % 8));
 1050              		.loc 12 243 9 view .LVU228
 1051 0108 B9F1000F 		cmp	r9, #0
 1052 010c ECD0     		beq	.L73
 1053              	.L50:
 1054              	.LVL69:
 1055              	.LBB698:
 1056              	.LBI692:
 239:../../libdaisy/src/dev/oled_ssd130x.h ****     {
 1057              		.loc 12 239 10 is_stmt 1 view .LVU229
 239:../../libdaisy/src/dev/oled_ssd130x.h ****     {
 1058              		.loc 12 239 10 is_stmt 0 view .LVU230
 1059              	.LBE698:
 1060              	.LBE703:
 1061              	.LBE708:
 1062              	.LBE716:
 416:../../libdaisy/src/hid/disp/display.h ****             {
 1063              		.loc 6 416 13 view .LVU231
 1064 010e 0130     		adds	r0, r0, #1
 1065              	.LVL70:
 1066              	.LBB717:
 1067              	.LBB709:
 1068              	.LBB704:
 1069              	.LBB699:
 1070              	.LBB695:
 246:../../libdaisy/src/dev/oled_ssd130x.h ****     }
 1071              		.loc 12 246 42 view .LVU232
 1072 0110 0CEA0505 		and	r5, ip, r5
 1073 0114 0133     		adds	r3, r3, #1
ARM GAS  /tmp/ccpRs2bQ.s 			page 51


 1074 0116 0134     		adds	r4, r4, #1
 1075              	.LBE695:
 1076              	.LBE699:
 1077              	.LBE704:
 1078              	.LBE709:
 1079              	.LBE717:
 416:../../libdaisy/src/hid/disp/display.h ****             {
 1080              		.loc 6 416 26 view .LVU233
 1081 0118 B842     		cmp	r0, r7
 1082              	.LBB718:
 1083              	.LBB710:
 1084              	.LBB705:
 1085              	.LBB700:
 1086              	.LBB696:
 246:../../libdaisy/src/dev/oled_ssd130x.h ****     }
 1087              		.loc 12 246 13 view .LVU234
 1088 011a 03F8015C 		strb	r5, [r3, #-1]
 246:../../libdaisy/src/dev/oled_ssd130x.h ****     }
 1089              		.loc 12 246 13 view .LVU235
 1090              	.LBE696:
 1091              	.LBE700:
 1092              	.LBE705:
 1093              	.LBE710:
 1094              	.LBE718:
 416:../../libdaisy/src/hid/disp/display.h ****             {
 1095              		.loc 6 416 13 is_stmt 1 view .LVU236
 1096              	.LVL71:
 416:../../libdaisy/src/hid/disp/display.h ****             {
 1097              		.loc 6 416 26 view .LVU237
 1098 011e EAD1     		bne	.L52
 1099              	.LVL72:
 1100              	.L51:
 413:../../libdaisy/src/hid/disp/display.h ****         {
 1101              		.loc 6 413 9 view .LVU238
 413:../../libdaisy/src/hid/disp/display.h ****         {
 1102              		.loc 6 413 22 view .LVU239
 1103 0120 5E45     		cmp	r6, fp
 1104 0122 01F10101 		add	r1, r1, #1
 1105 0126 C3D1     		bne	.L46
 1106 0128 BA46     		mov	r10, r7
 1107              	.LVL73:
 413:../../libdaisy/src/hid/disp/display.h ****         {
 1108              		.loc 6 413 22 is_stmt 0 view .LVU240
 1109 012a 029D     		ldr	r5, [sp, #8]
 1110 012c 7746     		mov	r7, lr
 1111 012e DDF80CB0 		ldr	fp, [sp, #12]
 1112              	.L45:
 1113              	.LBB719:
 1114              	.LBB720:
 173:../../libdaisy/src/hid/disp/display.h ****         currentY_ = (y >= Height()) ? Height() - 1 : y;
 1115              		.loc 6 173 33 view .LVU241
 1116 0132 D8F80020 		ldr	r2, [r8]
 1117              	.LBE720:
 1118              	.LBE719:
 434:../../libdaisy/src/hid/disp/display.h **** 
 1119              		.loc 6 434 18 view .LVU242
 1120 0136 5744     		add	r7, r7, r10
ARM GAS  /tmp/ccpRs2bQ.s 			page 52


 1121 0138 2749     		ldr	r1, .L81
 1122              	.LBB724:
 1123              	.LBB721:
 173:../../libdaisy/src/hid/disp/display.h ****         currentY_ = (y >= Height()) ? Height() - 1 : y;
 1124              		.loc 6 173 33 view .LVU243
 1125 013a D368     		ldr	r3, [r2, #12]
 1126              	.LBE721:
 1127              	.LBE724:
 434:../../libdaisy/src/hid/disp/display.h **** 
 1128              		.loc 6 434 18 view .LVU244
 1129 013c BFB2     		uxth	r7, r7
 1130              	.LVL74:
 1131              	.LBB725:
 1132              	.LBI719:
 171:../../libdaisy/src/hid/disp/display.h ****     {
 1133              		.loc 6 171 10 is_stmt 1 view .LVU245
 1134              	.LBB722:
 173:../../libdaisy/src/hid/disp/display.h ****         currentY_ = (y >= Height()) ? Height() - 1 : y;
 1135              		.loc 6 173 9 view .LVU246
 1136 013e 8B42     		cmp	r3, r1
 1137 0140 34D1     		bne	.L77
 173:../../libdaisy/src/hid/disp/display.h ****         currentY_ = (y >= Height()) ? Height() - 1 : y;
 1138              		.loc 6 173 33 is_stmt 0 view .LVU247
 1139 0142 8020     		movs	r0, #128
 1140              	.L53:
 173:../../libdaisy/src/hid/disp/display.h ****         currentY_ = (y >= Height()) ? Height() - 1 : y;
 1141              		.loc 6 173 19 view .LVU248
 1142 0144 8742     		cmp	r7, r0
 1143 0146 04D3     		bcc	.L54
 173:../../libdaisy/src/hid/disp/display.h ****         currentY_ = (y >= Height()) ? Height() - 1 : y;
 1144              		.loc 6 173 44 view .LVU249
 1145 0148 D368     		ldr	r3, [r2, #12]
 1146 014a 2349     		ldr	r1, .L81
 1147 014c 8B42     		cmp	r3, r1
 1148 014e 3BD1     		bne	.L78
 1149 0150 7F27     		movs	r7, #127
 1150              	.LVL75:
 1151              	.L54:
 174:../../libdaisy/src/hid/disp/display.h ****     }
 1152              		.loc 6 174 34 view .LVU250
 1153 0152 9368     		ldr	r3, [r2, #8]
 1154 0154 214A     		ldr	r2, .L81+4
 173:../../libdaisy/src/hid/disp/display.h ****         currentY_ = (y >= Height()) ? Height() - 1 : y;
 1155              		.loc 6 173 19 view .LVU251
 1156 0156 A8F80470 		strh	r7, [r8, #4]	@ movhi
 174:../../libdaisy/src/hid/disp/display.h ****     }
 1157              		.loc 6 174 9 is_stmt 1 view .LVU252
 1158 015a 9342     		cmp	r3, r2
 1159 015c 23D1     		bne	.L79
 174:../../libdaisy/src/hid/disp/display.h ****     }
 1160              		.loc 6 174 34 is_stmt 0 view .LVU253
 1161 015e 4020     		movs	r0, #64
 1162              	.L56:
 174:../../libdaisy/src/hid/disp/display.h ****     }
 1163              		.loc 6 174 19 view .LVU254
 1164 0160 009B     		ldr	r3, [sp]
 1165 0162 8342     		cmp	r3, r0
ARM GAS  /tmp/ccpRs2bQ.s 			page 53


 1166 0164 07D3     		bcc	.L57
 174:../../libdaisy/src/hid/disp/display.h ****     }
 1167              		.loc 6 174 46 view .LVU255
 1168 0166 D8F80030 		ldr	r3, [r8]
 1169 016a 1C4A     		ldr	r2, .L81+4
 1170 016c 9B68     		ldr	r3, [r3, #8]
 1171 016e 9342     		cmp	r3, r2
 1172 0170 24D1     		bne	.L80
 1173 0172 3F23     		movs	r3, #63
 1174 0174 0093     		str	r3, [sp]
 1175              	.LVL76:
 1176              	.L57:
 174:../../libdaisy/src/hid/disp/display.h ****     }
 1177              		.loc 6 174 19 view .LVU256
 1178 0176 009B     		ldr	r3, [sp]
 1179 0178 A8F80630 		strh	r3, [r8, #6]	@ movhi
 1180              	.LVL77:
 1181              	.L39:
 174:../../libdaisy/src/hid/disp/display.h ****     }
 1182              		.loc 6 174 19 view .LVU257
 1183              	.LBE722:
 1184              	.LBE725:
 1185              	.LBE688:
 1186              	.LBE687:
 444:../../libdaisy/src/hid/disp/display.h ****         {
 445:../../libdaisy/src/hid/disp/display.h ****             if(((ChildType*)(this))->ChildType::WriteChar(*str, font, on)
 446:../../libdaisy/src/hid/disp/display.h ****                != *str)
 1187              		.loc 6 446 16 view .LVU258
 1188 017c 9BF80000 		ldrb	r0, [fp]	@ zero_extendqisi2
 445:../../libdaisy/src/hid/disp/display.h ****                != *str)
 1189              		.loc 6 445 13 view .LVU259
 1190 0180 A842     		cmp	r0, r5
 1191 0182 05D1     		bne	.L37
 1192              	.LVL78:
 443:../../libdaisy/src/hid/disp/display.h ****         {
 1193              		.loc 6 443 9 is_stmt 1 view .LVU260
 1194 0184 1BF8015F 		ldrb	r5, [fp, #1]!	@ zero_extendqisi2
 1195              	.LVL79:
 443:../../libdaisy/src/hid/disp/display.h ****         {
 1196              		.loc 6 443 9 is_stmt 0 view .LVU261
 1197 0188 002D     		cmp	r5, #0
 1198 018a 7FF452AF 		bne	.L60
 1199              	.LVL80:
 1200              	.L59:
 1201              	.LBB729:
 1202              	.LBB727:
 402:../../libdaisy/src/hid/disp/display.h **** 
 1203              		.loc 6 402 20 view .LVU262
 1204 018e 0020     		movs	r0, #0
 1205              	.LVL81:
 1206              	.L37:
 402:../../libdaisy/src/hid/disp/display.h **** 
 1207              		.loc 6 402 20 view .LVU263
 1208              	.LBE727:
 1209              	.LBE729:
 447:../../libdaisy/src/hid/disp/display.h ****             {
 448:../../libdaisy/src/hid/disp/display.h ****                 // Char could not be written
ARM GAS  /tmp/ccpRs2bQ.s 			page 54


 449:../../libdaisy/src/hid/disp/display.h ****                 return *str;
 450:../../libdaisy/src/hid/disp/display.h ****             }
 451:../../libdaisy/src/hid/disp/display.h **** 
 452:../../libdaisy/src/hid/disp/display.h ****             // Next char
 453:../../libdaisy/src/hid/disp/display.h ****             str++;
 454:../../libdaisy/src/hid/disp/display.h ****         }
 455:../../libdaisy/src/hid/disp/display.h **** 
 456:../../libdaisy/src/hid/disp/display.h ****         // Everything ok
 457:../../libdaisy/src/hid/disp/display.h ****         return *str;
 458:../../libdaisy/src/hid/disp/display.h ****     }
 1210              		.loc 6 458 5 view .LVU264
 1211 0190 09B0     		add	sp, sp, #36
 1212              		.cfi_remember_state
 1213              		.cfi_def_cfa_offset 36
 1214              		@ sp needed
 1215 0192 BDE8F08F 		pop	{r4, r5, r6, r7, r8, r9, r10, fp, pc}
 1216              	.LVL82:
 1217              	.L41:
 1218              		.cfi_restore_state
 1219              	.LBB730:
 1220              	.LBB728:
 402:../../libdaisy/src/hid/disp/display.h **** 
 1221              		.loc 6 402 20 view .LVU265
 1222 0196 0025     		movs	r5, #0
 1223              	.LVL83:
 402:../../libdaisy/src/hid/disp/display.h **** 
 1224              		.loc 6 402 20 view .LVU266
 1225 0198 F0E7     		b	.L39
 1226              	.LVL84:
 1227              	.L74:
 405:../../libdaisy/src/hid/disp/display.h ****            || Height() < (currentY_ + font.FontHeight))
 1228              		.loc 6 405 17 view .LVU267
 1229 019a 4046     		mov	r0, r8
 1230 019c 9847     		blx	r3
 1231              	.LVL85:
 1232 019e 56E7     		b	.L40
 1233              	.L75:
 406:../../libdaisy/src/hid/disp/display.h ****         {
 1234              		.loc 6 406 21 view .LVU268
 1235 01a0 4046     		mov	r0, r8
 1236 01a2 9847     		blx	r3
 1237              	.LVL86:
 1238 01a4 61E7     		b	.L42
 1239              	.LVL87:
 1240              	.L79:
 1241              	.LBB726:
 1242              	.LBB723:
 174:../../libdaisy/src/hid/disp/display.h ****     }
 1243              		.loc 6 174 33 view .LVU269
 1244 01a6 4046     		mov	r0, r8
 1245 01a8 9847     		blx	r3
 1246              	.LVL88:
 1247 01aa D9E7     		b	.L56
 1248              	.LVL89:
 1249              	.L77:
 173:../../libdaisy/src/hid/disp/display.h ****         currentY_ = (y >= Height()) ? Height() - 1 : y;
 1250              		.loc 6 173 32 view .LVU270
ARM GAS  /tmp/ccpRs2bQ.s 			page 55


 1251 01ac 4046     		mov	r0, r8
 1252 01ae 9847     		blx	r3
 1253              	.LVL90:
 1254 01b0 D8F80020 		ldr	r2, [r8]
 1255 01b4 C6E7     		b	.L53
 1256              	.LVL91:
 1257              	.L43:
 173:../../libdaisy/src/hid/disp/display.h ****         currentY_ = (y >= Height()) ? Height() - 1 : y;
 1258              		.loc 6 173 32 view .LVU271
 1259 01b6 B8F80470 		ldrh	r7, [r8, #4]
 1260 01ba BAE7     		b	.L45
 1261              	.LVL92:
 1262              	.L80:
 174:../../libdaisy/src/hid/disp/display.h ****     }
 1263              		.loc 6 174 45 view .LVU272
 1264 01bc 4046     		mov	r0, r8
 1265 01be 9847     		blx	r3
 1266              	.LVL93:
 1267 01c0 0138     		subs	r0, r0, #1
 1268 01c2 83B2     		uxth	r3, r0
 1269 01c4 0093     		str	r3, [sp]
 1270              	.LVL94:
 174:../../libdaisy/src/hid/disp/display.h ****     }
 1271              		.loc 6 174 45 view .LVU273
 1272 01c6 D6E7     		b	.L57
 1273              	.LVL95:
 1274              	.L78:
 173:../../libdaisy/src/hid/disp/display.h ****         currentY_ = (y >= Height()) ? Height() - 1 : y;
 1275              		.loc 6 173 43 view .LVU274
 1276 01c8 4046     		mov	r0, r8
 1277 01ca 9847     		blx	r3
 1278              	.LVL96:
 1279 01cc 0138     		subs	r0, r0, #1
 1280 01ce D8F80020 		ldr	r2, [r8]
 1281 01d2 87B2     		uxth	r7, r0
 1282              	.LVL97:
 173:../../libdaisy/src/hid/disp/display.h ****         currentY_ = (y >= Height()) ? Height() - 1 : y;
 1283              		.loc 6 173 43 view .LVU275
 1284 01d4 BDE7     		b	.L54
 1285              	.L82:
 1286 01d6 00BF     		.align	2
 1287              	.L81:
 1288 01d8 00000000 		.word	_ZNK5daisy11OledDisplayINS_13SSD130xDriverILj128ELj64ENS_24SSD130x4WireSpiTransportEEEE5Widt
 1289 01dc 00000000 		.word	_ZNK5daisy11OledDisplayINS_13SSD130xDriverILj128ELj64ENS_24SSD130x4WireSpiTransportEEEE6Heig
 1290              	.LBE723:
 1291              	.LBE726:
 1292              	.LBE728:
 1293              	.LBE730:
 1294              		.cfi_endproc
 1295              	.LFE4593:
 1297              		.section	.text._ZN5daisy25OneBitGraphicsDisplayImplINS_11OledDisplayINS_13SSD130xDriverILj128ELj64
 1298              		.align	1
 1299              		.p2align 2,,3
 1300              		.weak	_ZN5daisy25OneBitGraphicsDisplayImplINS_11OledDisplayINS_13SSD130xDriverILj128ELj64ENS_24SSD
 1301              		.syntax unified
 1302              		.thumb
 1303              		.thumb_func
ARM GAS  /tmp/ccpRs2bQ.s 			page 56


 1304              		.fpu fpv5-d16
 1306              	_ZN5daisy25OneBitGraphicsDisplayImplINS_11OledDisplayINS_13SSD130xDriverILj128ELj64ENS_24SSD130x4Wi
 1307              	.LVL98:
 1308              	.LFB4725:
 396:../../libdaisy/src/hid/disp/display.h ****     {
 1309              		.loc 6 396 10 is_stmt 1 view -0
 1310              		.cfi_startproc
 1311              		@ args = 4, pretend = 0, frame = 16
 1312              		@ frame_needed = 0, uses_anonymous_args = 0
 396:../../libdaisy/src/hid/disp/display.h ****     {
 1313              		.loc 6 396 10 is_stmt 0 view .LVU277
 1314 0000 2DE9F04F 		push	{r4, r5, r6, r7, r8, r9, r10, fp, lr}
 1315              		.cfi_def_cfa_offset 36
 1316              		.cfi_offset 4, -36
 1317              		.cfi_offset 5, -32
 1318              		.cfi_offset 6, -28
 1319              		.cfi_offset 7, -24
 1320              		.cfi_offset 8, -20
 1321              		.cfi_offset 9, -16
 1322              		.cfi_offset 10, -12
 1323              		.cfi_offset 11, -8
 1324              		.cfi_offset 14, -4
 1325 0004 85B0     		sub	sp, sp, #20
 1326              		.cfi_def_cfa_offset 56
 1327              	.LVL99:
 401:../../libdaisy/src/hid/disp/display.h ****             return 0;
 1328              		.loc 6 401 20 view .LVU278
 1329 0006 A1F12004 		sub	r4, r1, #32
 396:../../libdaisy/src/hid/disp/display.h ****     {
 1330              		.loc 6 396 10 view .LVU279
 1331 000a 0091     		str	r1, [sp]
 1332 000c 04A9     		add	r1, sp, #16
 1333              	.LVL100:
 396:../../libdaisy/src/hid/disp/display.h ****     {
 1334              		.loc 6 396 10 view .LVU280
 1335 000e 9DF83880 		ldrb	r8, [sp, #56]	@ zero_extendqisi2
 1336 0012 01E90C00 		stmdb	r1, {r2, r3}
 1337              	.LVL101:
 401:../../libdaisy/src/hid/disp/display.h ****             return 0;
 1338              		.loc 6 401 9 view .LVU281
 1339 0016 E3B2     		uxtb	r3, r4
 1340 0018 5E2B     		cmp	r3, #94
 1341 001a 00F29480 		bhi	.L87
 405:../../libdaisy/src/hid/disp/display.h ****            || Height() < (currentY_ + font.FontHeight))
 1342              		.loc 6 405 17 view .LVU282
 1343 001e 0368     		ldr	r3, [r0]
 1344 0020 8146     		mov	r9, r0
 1345 0022 5E4A     		ldr	r2, .L123
 1346 0024 DB68     		ldr	r3, [r3, #12]
 1347 0026 9DF80860 		ldrb	r6, [sp, #8]	@ zero_extendqisi2
 1348 002a 9342     		cmp	r3, r2
 1349 002c 9DF80950 		ldrb	r5, [sp, #9]	@ zero_extendqisi2
 1350 0030 40F09380 		bne	.L114
 1351 0034 8022     		movs	r2, #128
 1352              	.LVL102:
 1353              	.L86:
 405:../../libdaisy/src/hid/disp/display.h ****            || Height() < (currentY_ + font.FontHeight))
ARM GAS  /tmp/ccpRs2bQ.s 			page 57


 1354              		.loc 6 405 23 view .LVU283
 1355 0036 B9F80430 		ldrh	r3, [r9, #4]
 405:../../libdaisy/src/hid/disp/display.h ****            || Height() < (currentY_ + font.FontHeight))
 1356              		.loc 6 405 33 view .LVU284
 1357 003a 3344     		add	r3, r3, r6
 406:../../libdaisy/src/hid/disp/display.h ****         {
 1358              		.loc 6 406 12 view .LVU285
 1359 003c 9342     		cmp	r3, r2
 1360 003e 00F38280 		bgt	.L87
 406:../../libdaisy/src/hid/disp/display.h ****         {
 1361              		.loc 6 406 21 discriminator 2 view .LVU286
 1362 0042 D9F80030 		ldr	r3, [r9]
 1363 0046 564A     		ldr	r2, .L123+4
 1364 0048 9B68     		ldr	r3, [r3, #8]
 1365 004a 9342     		cmp	r3, r2
 1366 004c 40F08980 		bne	.L115
 406:../../libdaisy/src/hid/disp/display.h ****         {
 1367              		.loc 6 406 21 view .LVU287
 1368 0050 4023     		movs	r3, #64
 1369              	.L88:
 406:../../libdaisy/src/hid/disp/display.h ****         {
 1370              		.loc 6 406 27 discriminator 2 view .LVU288
 1371 0052 B9F80610 		ldrh	r1, [r9, #6]
 406:../../libdaisy/src/hid/disp/display.h ****         {
 1372              		.loc 6 406 37 discriminator 2 view .LVU289
 1373 0056 4A19     		adds	r2, r1, r5
 406:../../libdaisy/src/hid/disp/display.h ****         {
 1374              		.loc 6 406 27 discriminator 2 view .LVU290
 1375 0058 0191     		str	r1, [sp, #4]
 406:../../libdaisy/src/hid/disp/display.h ****         {
 1376              		.loc 6 406 12 discriminator 2 view .LVU291
 1377 005a 9A42     		cmp	r2, r3
 1378 005c 73DC     		bgt	.L87
 1379              	.LVL103:
 413:../../libdaisy/src/hid/disp/display.h ****         {
 1380              		.loc 6 413 22 is_stmt 1 view .LVU292
 1381 005e 002D     		cmp	r5, #0
 1382 0060 00F08C80 		beq	.L89
 415:../../libdaisy/src/hid/disp/display.h ****             for(j = 0; j < font.FontWidth; j++)
 1383              		.loc 6 415 37 is_stmt 0 view .LVU293
 1384 0064 05FB04F4 		mul	r4, r5, r4
 415:../../libdaisy/src/hid/disp/display.h ****             for(j = 0; j < font.FontWidth; j++)
 1385              		.loc 6 415 22 view .LVU294
 1386 0068 039A     		ldr	r2, [sp, #12]
 1387 006a 6FF00043 		mvn	r3, #-2147483648
 1388 006e B9F804A0 		ldrh	r10, [r9, #4]
 1389 0072 2544     		add	r5, r5, r4
 1390 0074 A2F1020B 		sub	fp, r2, #2
 1391 0078 2344     		add	r3, r3, r4
 1392 007a 0BEB450B 		add	fp, fp, r5, lsl #1
 1393 007e 0D46     		mov	r5, r1
 1394 0080 02EB430E 		add	lr, r2, r3, lsl #1
 1395              	.LVL104:
 1396              	.L92:
 415:../../libdaisy/src/hid/disp/display.h ****             for(j = 0; j < font.FontWidth; j++)
 1397              		.loc 6 415 13 view .LVU295
 1398 0084 3EF8024F 		ldrh	r4, [lr, #2]!
ARM GAS  /tmp/ccpRs2bQ.s 			page 58


 1399              	.LVL105:
 416:../../libdaisy/src/hid/disp/display.h ****             {
 1400              		.loc 6 416 26 is_stmt 1 view .LVU296
 1401 0088 A6B3     		cbz	r6, .L97
 1402              	.LBB761:
 1403              	.LBB762:
 1404              	.LBB763:
 1405              	.LBB764:
 1406              	.LBB765:
 246:../../libdaisy/src/dev/oled_ssd130x.h ****     }
 1407              		.loc 12 246 55 is_stmt 0 view .LVU297
 1408 008a 05F00703 		and	r3, r5, #7
 246:../../libdaisy/src/dev/oled_ssd130x.h ****     }
 1409              		.loc 12 246 49 view .LVU298
 1410 008e 0127     		movs	r7, #1
 246:../../libdaisy/src/dev/oled_ssd130x.h ****     }
 1411              		.loc 12 246 28 view .LVU299
 1412 0090 E808     		lsrs	r0, r5, #3
 246:../../libdaisy/src/dev/oled_ssd130x.h ****     }
 1413              		.loc 12 246 42 view .LVU300
 1414 0092 4146     		mov	r1, r8
 246:../../libdaisy/src/dev/oled_ssd130x.h ****     }
 1415              		.loc 12 246 49 view .LVU301
 1416 0094 9F40     		lsls	r7, r7, r3
 1417              	.LBE765:
 1418              	.LBE764:
 1419              	.LBE763:
 1420              	.LBE762:
 1421              	.LBE761:
 416:../../libdaisy/src/hid/disp/display.h ****             {
 1422              		.loc 6 416 19 view .LVU302
 1423 0096 0022     		movs	r2, #0
 1424 0098 0AEBC013 		add	r3, r10, r0, lsl #7
 1425              	.LBB783:
 1426              	.LBB778:
 1427              	.LBB773:
 1428              	.LBB769:
 1429              	.LBB766:
 246:../../libdaisy/src/dev/oled_ssd130x.h ****     }
 1430              		.loc 12 246 42 view .LVU303
 1431 009c 7FB2     		sxtb	r7, r7
 1432 009e 4B44     		add	r3, r3, r9
 1433 00a0 09EBC010 		add	r0, r9, r0, lsl #7
 1434 00a4 6FEA070C 		mvn	ip, r7
 1435 00a8 B846     		mov	r8, r7
 1436 00aa 0F46     		mov	r7, r1
 1437 00ac 0CE0     		b	.L98
 1438              	.LVL106:
 1439              	.L117:
 246:../../libdaisy/src/dev/oled_ssd130x.h ****     }
 1440              		.loc 12 246 42 view .LVU304
 1441              	.LBE766:
 1442              	.LBE769:
 1443              	.LBE773:
 1444              	.LBE778:
 1445              	.LBE783:
 1446              	.LBB784:
ARM GAS  /tmp/ccpRs2bQ.s 			page 59


 1447              	.LBI784:
  41:../../libdaisy/src/hid/disp/oled_display.h ****     {
 1448              		.loc 5 41 10 is_stmt 1 view .LVU305
 1449              	.LBB785:
 1450              	.LBI785:
 239:../../libdaisy/src/dev/oled_ssd130x.h ****     {
 1451              		.loc 12 239 10 view .LVU306
 1452              	.LBB786:
 241:../../libdaisy/src/dev/oled_ssd130x.h ****             return;
 1453              		.loc 12 241 9 is_stmt 0 view .LVU307
 1454 00ae 7F29     		cmp	r1, #127
 1455 00b0 06D8     		bhi	.L94
 1456 00b2 3F2D     		cmp	r5, #63
 1457 00b4 04D8     		bhi	.L94
 244:../../libdaisy/src/dev/oled_ssd130x.h ****         else
 1458              		.loc 12 244 42 view .LVU308
 1459 00b6 197D     		ldrb	r1, [r3, #20]	@ zero_extendqisi2
 243:../../libdaisy/src/dev/oled_ssd130x.h ****             buffer_[x + (y / 8) * width] |= (1 << (y % 8));
 1460              		.loc 12 243 9 view .LVU309
 1461 00b8 A7B1     		cbz	r7, .L96
 1462              	.L113:
 243:../../libdaisy/src/dev/oled_ssd130x.h ****             buffer_[x + (y / 8) * width] |= (1 << (y % 8));
 1463              		.loc 12 243 9 view .LVU310
 1464              	.LBE786:
 1465              	.LBE785:
 1466              	.LBE784:
 1467              	.LBB789:
 1468              	.LBB779:
 1469              	.LBB774:
 244:../../libdaisy/src/dev/oled_ssd130x.h ****         else
 1470              		.loc 12 244 42 view .LVU311
 1471 00ba 48EA0101 		orr	r1, r8, r1
 244:../../libdaisy/src/dev/oled_ssd130x.h ****         else
 1472              		.loc 12 244 13 view .LVU312
 1473 00be 1975     		strb	r1, [r3, #20]
 1474              	.L94:
 1475              	.LBE774:
 1476              	.LBE779:
 1477              	.LBE789:
 416:../../libdaisy/src/hid/disp/display.h ****             {
 1478              		.loc 6 416 13 is_stmt 1 discriminator 2 view .LVU313
 1479 00c0 0132     		adds	r2, r2, #1
 1480              	.LVL107:
 416:../../libdaisy/src/hid/disp/display.h ****             {
 1481              		.loc 6 416 26 discriminator 2 view .LVU314
 1482 00c2 0133     		adds	r3, r3, #1
 1483 00c4 9642     		cmp	r6, r2
 1484 00c6 14D0     		beq	.L116
 1485              	.LVL108:
 1486              	.L98:
 418:../../libdaisy/src/hid/disp/display.h ****                 {
 1487              		.loc 6 418 23 is_stmt 0 view .LVU315
 1488 00c8 04FA02F1 		lsl	r1, r4, r2
 418:../../libdaisy/src/hid/disp/display.h ****                 {
 1489              		.loc 6 418 17 view .LVU316
 1490 00cc 11F4004F 		tst	r1, #32768
 1491              	.LBB790:
ARM GAS  /tmp/ccpRs2bQ.s 			page 60


 1492              	.LBB788:
 1493              	.LBB787:
 241:../../libdaisy/src/dev/oled_ssd130x.h ****             return;
 1494              		.loc 12 241 14 view .LVU317
 1495 00d0 A3EB0001 		sub	r1, r3, r0
 1496              	.LBE787:
 1497              	.LBE788:
 1498              	.LBE790:
 418:../../libdaisy/src/hid/disp/display.h ****                 {
 1499              		.loc 6 418 17 view .LVU318
 1500 00d4 EBD1     		bne	.L117
 1501              	.LVL109:
 1502              	.LBB791:
 1503              	.LBI761:
  41:../../libdaisy/src/hid/disp/oled_display.h ****     {
 1504              		.loc 5 41 10 is_stmt 1 view .LVU319
 1505              	.LBB780:
 1506              	.LBI762:
 239:../../libdaisy/src/dev/oled_ssd130x.h ****     {
 1507              		.loc 12 239 10 view .LVU320
 1508              	.LBB775:
 241:../../libdaisy/src/dev/oled_ssd130x.h ****             return;
 1509              		.loc 12 241 9 is_stmt 0 view .LVU321
 1510 00d6 7F29     		cmp	r1, #127
 1511 00d8 F2D8     		bhi	.L94
 1512 00da 3F2D     		cmp	r5, #63
 1513 00dc F0D8     		bhi	.L94
 244:../../libdaisy/src/dev/oled_ssd130x.h ****         else
 1514              		.loc 12 244 42 view .LVU322
 1515 00de 197D     		ldrb	r1, [r3, #20]	@ zero_extendqisi2
 243:../../libdaisy/src/dev/oled_ssd130x.h ****             buffer_[x + (y / 8) * width] |= (1 << (y % 8));
 1516              		.loc 12 243 9 view .LVU323
 1517 00e0 002F     		cmp	r7, #0
 1518 00e2 EAD0     		beq	.L113
 1519              	.L96:
 1520              	.LVL110:
 1521              	.LBB770:
 1522              	.LBI764:
 239:../../libdaisy/src/dev/oled_ssd130x.h ****     {
 1523              		.loc 12 239 10 is_stmt 1 view .LVU324
 239:../../libdaisy/src/dev/oled_ssd130x.h ****     {
 1524              		.loc 12 239 10 is_stmt 0 view .LVU325
 1525              	.LBE770:
 1526              	.LBE775:
 1527              	.LBE780:
 1528              	.LBE791:
 416:../../libdaisy/src/hid/disp/display.h ****             {
 1529              		.loc 6 416 13 view .LVU326
 1530 00e4 0132     		adds	r2, r2, #1
 1531              	.LVL111:
 1532              	.LBB792:
 1533              	.LBB781:
 1534              	.LBB776:
 1535              	.LBB771:
 1536              	.LBB767:
 246:../../libdaisy/src/dev/oled_ssd130x.h ****     }
 1537              		.loc 12 246 42 view .LVU327
ARM GAS  /tmp/ccpRs2bQ.s 			page 61


 1538 00e6 0CEA0101 		and	r1, ip, r1
 1539 00ea 0133     		adds	r3, r3, #1
 1540              	.LBE767:
 1541              	.LBE771:
 1542              	.LBE776:
 1543              	.LBE781:
 1544              	.LBE792:
 416:../../libdaisy/src/hid/disp/display.h ****             {
 1545              		.loc 6 416 26 view .LVU328
 1546 00ec 9642     		cmp	r6, r2
 1547              	.LBB793:
 1548              	.LBB782:
 1549              	.LBB777:
 1550              	.LBB772:
 1551              	.LBB768:
 246:../../libdaisy/src/dev/oled_ssd130x.h ****     }
 1552              		.loc 12 246 13 view .LVU329
 1553 00ee D974     		strb	r1, [r3, #19]
 246:../../libdaisy/src/dev/oled_ssd130x.h ****     }
 1554              		.loc 12 246 13 view .LVU330
 1555              	.LBE768:
 1556              	.LBE772:
 1557              	.LBE777:
 1558              	.LBE782:
 1559              	.LBE793:
 416:../../libdaisy/src/hid/disp/display.h ****             {
 1560              		.loc 6 416 13 is_stmt 1 view .LVU331
 1561              	.LVL112:
 416:../../libdaisy/src/hid/disp/display.h ****             {
 1562              		.loc 6 416 26 view .LVU332
 1563 00f0 EAD1     		bne	.L98
 1564              	.L116:
 416:../../libdaisy/src/hid/disp/display.h ****             {
 1565              		.loc 6 416 26 is_stmt 0 view .LVU333
 1566 00f2 B846     		mov	r8, r7
 1567              	.LVL113:
 1568              	.L97:
 413:../../libdaisy/src/hid/disp/display.h ****         {
 1569              		.loc 6 413 9 is_stmt 1 view .LVU334
 413:../../libdaisy/src/hid/disp/display.h ****         {
 1570              		.loc 6 413 22 view .LVU335
 1571 00f4 F345     		cmp	fp, lr
 1572 00f6 05F10105 		add	r5, r5, #1
 1573 00fa C3D1     		bne	.L92
 1574              	.LVL114:
 1575              	.L91:
 1576              	.LBB794:
 1577              	.LBB795:
 173:../../libdaisy/src/hid/disp/display.h ****         currentY_ = (y >= Height()) ? Height() - 1 : y;
 1578              		.loc 6 173 33 is_stmt 0 view .LVU336
 1579 00fc D9F80030 		ldr	r3, [r9]
 1580              	.LBE795:
 1581              	.LBE794:
 434:../../libdaisy/src/hid/disp/display.h **** 
 1582              		.loc 6 434 18 view .LVU337
 1583 0100 0AEB0604 		add	r4, r10, r6
 1584 0104 2549     		ldr	r1, .L123
ARM GAS  /tmp/ccpRs2bQ.s 			page 62


 1585              	.LBB800:
 1586              	.LBB796:
 173:../../libdaisy/src/hid/disp/display.h ****         currentY_ = (y >= Height()) ? Height() - 1 : y;
 1587              		.loc 6 173 33 view .LVU338
 1588 0106 DA68     		ldr	r2, [r3, #12]
 1589              	.LBE796:
 1590              	.LBE800:
 434:../../libdaisy/src/hid/disp/display.h **** 
 1591              		.loc 6 434 18 view .LVU339
 1592 0108 A4B2     		uxth	r4, r4
 1593              	.LVL115:
 1594              	.LBB801:
 1595              	.LBI794:
 171:../../libdaisy/src/hid/disp/display.h ****     {
 1596              		.loc 6 171 10 is_stmt 1 view .LVU340
 1597              	.LBB797:
 173:../../libdaisy/src/hid/disp/display.h ****         currentY_ = (y >= Height()) ? Height() - 1 : y;
 1598              		.loc 6 173 9 view .LVU341
 1599 010a 8A42     		cmp	r2, r1
 1600 010c 31D1     		bne	.L118
 173:../../libdaisy/src/hid/disp/display.h ****         currentY_ = (y >= Height()) ? Height() - 1 : y;
 1601              		.loc 6 173 33 is_stmt 0 view .LVU342
 1602 010e 8020     		movs	r0, #128
 1603              	.L99:
 173:../../libdaisy/src/hid/disp/display.h ****         currentY_ = (y >= Height()) ? Height() - 1 : y;
 1604              		.loc 6 173 19 view .LVU343
 1605 0110 8442     		cmp	r4, r0
 1606 0112 1CD2     		bcs	.L119
 1607              	.LVL116:
 1608              	.L100:
 174:../../libdaisy/src/hid/disp/display.h ****     }
 1609              		.loc 6 174 34 view .LVU344
 1610 0114 9B68     		ldr	r3, [r3, #8]
 1611 0116 224A     		ldr	r2, .L123+4
 173:../../libdaisy/src/hid/disp/display.h ****         currentY_ = (y >= Height()) ? Height() - 1 : y;
 1612              		.loc 6 173 19 view .LVU345
 1613 0118 A9F80440 		strh	r4, [r9, #4]	@ movhi
 174:../../libdaisy/src/hid/disp/display.h ****     }
 1614              		.loc 6 174 9 is_stmt 1 view .LVU346
 1615 011c 9342     		cmp	r3, r2
 1616 011e 25D1     		bne	.L120
 174:../../libdaisy/src/hid/disp/display.h ****     }
 1617              		.loc 6 174 34 is_stmt 0 view .LVU347
 1618 0120 4020     		movs	r0, #64
 1619              	.L102:
 174:../../libdaisy/src/hid/disp/display.h ****     }
 1620              		.loc 6 174 19 view .LVU348
 1621 0122 019B     		ldr	r3, [sp, #4]
 1622 0124 8342     		cmp	r3, r0
 1623 0126 07D3     		bcc	.L103
 174:../../libdaisy/src/hid/disp/display.h ****     }
 1624              		.loc 6 174 46 view .LVU349
 1625 0128 D9F80030 		ldr	r3, [r9]
 1626 012c 1C4A     		ldr	r2, .L123+4
 1627 012e 9B68     		ldr	r3, [r3, #8]
 1628 0130 9342     		cmp	r3, r2
 1629 0132 2DD1     		bne	.L121
ARM GAS  /tmp/ccpRs2bQ.s 			page 63


 1630 0134 3F23     		movs	r3, #63
 1631 0136 0193     		str	r3, [sp, #4]
 1632              	.LVL117:
 1633              	.L103:
 174:../../libdaisy/src/hid/disp/display.h ****     }
 1634              		.loc 6 174 19 view .LVU350
 1635 0138 DDE90003 		ldrd	r0, r3, [sp]
 1636 013c A9F80630 		strh	r3, [r9, #6]	@ movhi
 1637              	.LVL118:
 174:../../libdaisy/src/hid/disp/display.h ****     }
 1638              		.loc 6 174 19 view .LVU351
 1639              	.LBE797:
 1640              	.LBE801:
 438:../../libdaisy/src/hid/disp/display.h **** 
 1641              		.loc 6 438 5 view .LVU352
 1642 0140 05B0     		add	sp, sp, #20
 1643              		.cfi_remember_state
 1644              		.cfi_def_cfa_offset 36
 1645              		@ sp needed
 1646 0142 BDE8F08F 		pop	{r4, r5, r6, r7, r8, r9, r10, fp, pc}
 1647              	.LVL119:
 1648              	.L87:
 1649              		.cfi_restore_state
 402:../../libdaisy/src/hid/disp/display.h **** 
 1650              		.loc 6 402 20 view .LVU353
 1651 0146 0020     		movs	r0, #0
 438:../../libdaisy/src/hid/disp/display.h **** 
 1652              		.loc 6 438 5 view .LVU354
 1653 0148 05B0     		add	sp, sp, #20
 1654              		.cfi_remember_state
 1655              		.cfi_def_cfa_offset 36
 1656              		@ sp needed
 1657 014a BDE8F08F 		pop	{r4, r5, r6, r7, r8, r9, r10, fp, pc}
 1658              	.LVL120:
 1659              	.L119:
 1660              		.cfi_restore_state
 1661              	.LBB802:
 1662              	.LBB798:
 173:../../libdaisy/src/hid/disp/display.h ****         currentY_ = (y >= Height()) ? Height() - 1 : y;
 1663              		.loc 6 173 44 view .LVU355
 1664 014e DA68     		ldr	r2, [r3, #12]
 1665 0150 1249     		ldr	r1, .L123
 1666 0152 8A42     		cmp	r2, r1
 1667 0154 15D1     		bne	.L122
 1668 0156 7F24     		movs	r4, #127
 1669              	.LVL121:
 173:../../libdaisy/src/hid/disp/display.h ****         currentY_ = (y >= Height()) ? Height() - 1 : y;
 1670              		.loc 6 173 44 view .LVU356
 1671 0158 DCE7     		b	.L100
 1672              	.LVL122:
 1673              	.L114:
 173:../../libdaisy/src/hid/disp/display.h ****         currentY_ = (y >= Height()) ? Height() - 1 : y;
 1674              		.loc 6 173 44 view .LVU357
 1675              	.LBE798:
 1676              	.LBE802:
 405:../../libdaisy/src/hid/disp/display.h ****            || Height() < (currentY_ + font.FontHeight))
 1677              		.loc 6 405 17 view .LVU358
ARM GAS  /tmp/ccpRs2bQ.s 			page 64


 1678 015a 9847     		blx	r3
 1679              	.LVL123:
 405:../../libdaisy/src/hid/disp/display.h ****            || Height() < (currentY_ + font.FontHeight))
 1680              		.loc 6 405 17 view .LVU359
 1681 015c 0246     		mov	r2, r0
 1682 015e 0190     		str	r0, [sp, #4]
 1683 0160 69E7     		b	.L86
 1684              	.L115:
 406:../../libdaisy/src/hid/disp/display.h ****         {
 1685              		.loc 6 406 21 discriminator 2 view .LVU360
 1686 0162 4846     		mov	r0, r9
 1687 0164 9847     		blx	r3
 1688              	.LVL124:
 1689 0166 0346     		mov	r3, r0
 1690 0168 0190     		str	r0, [sp, #4]
 1691 016a 72E7     		b	.L88
 1692              	.LVL125:
 1693              	.L120:
 1694              	.LBB803:
 1695              	.LBB799:
 174:../../libdaisy/src/hid/disp/display.h ****     }
 1696              		.loc 6 174 33 view .LVU361
 1697 016c 4846     		mov	r0, r9
 1698 016e 9847     		blx	r3
 1699              	.LVL126:
 1700 0170 D7E7     		b	.L102
 1701              	.LVL127:
 1702              	.L118:
 173:../../libdaisy/src/hid/disp/display.h ****         currentY_ = (y >= Height()) ? Height() - 1 : y;
 1703              		.loc 6 173 32 view .LVU362
 1704 0172 4846     		mov	r0, r9
 1705 0174 9047     		blx	r2
 1706              	.LVL128:
 1707 0176 D9F80030 		ldr	r3, [r9]
 1708 017a C9E7     		b	.L99
 1709              	.LVL129:
 1710              	.L89:
 173:../../libdaisy/src/hid/disp/display.h ****         currentY_ = (y >= Height()) ? Height() - 1 : y;
 1711              		.loc 6 173 32 view .LVU363
 1712 017c B9F804A0 		ldrh	r10, [r9, #4]
 1713 0180 BCE7     		b	.L91
 1714              	.LVL130:
 1715              	.L122:
 173:../../libdaisy/src/hid/disp/display.h ****         currentY_ = (y >= Height()) ? Height() - 1 : y;
 1716              		.loc 6 173 43 view .LVU364
 1717 0182 4846     		mov	r0, r9
 1718 0184 9047     		blx	r2
 1719              	.LVL131:
 1720 0186 0138     		subs	r0, r0, #1
 1721 0188 D9F80030 		ldr	r3, [r9]
 1722 018c 84B2     		uxth	r4, r0
 1723              	.LVL132:
 173:../../libdaisy/src/hid/disp/display.h ****         currentY_ = (y >= Height()) ? Height() - 1 : y;
 1724              		.loc 6 173 43 view .LVU365
 1725 018e C1E7     		b	.L100
 1726              	.L121:
 174:../../libdaisy/src/hid/disp/display.h ****     }
ARM GAS  /tmp/ccpRs2bQ.s 			page 65


 1727              		.loc 6 174 45 view .LVU366
 1728 0190 4846     		mov	r0, r9
 1729 0192 9847     		blx	r3
 1730              	.LVL133:
 1731 0194 0138     		subs	r0, r0, #1
 1732 0196 83B2     		uxth	r3, r0
 1733 0198 0193     		str	r3, [sp, #4]
 1734              	.LVL134:
 174:../../libdaisy/src/hid/disp/display.h ****     }
 1735              		.loc 6 174 45 view .LVU367
 1736 019a CDE7     		b	.L103
 1737              	.L124:
 1738              		.align	2
 1739              	.L123:
 1740 019c 00000000 		.word	_ZNK5daisy11OledDisplayINS_13SSD130xDriverILj128ELj64ENS_24SSD130x4WireSpiTransportEEEE5Widt
 1741 01a0 00000000 		.word	_ZNK5daisy11OledDisplayINS_13SSD130xDriverILj128ELj64ENS_24SSD130x4WireSpiTransportEEEE6Heig
 1742              	.LBE799:
 1743              	.LBE803:
 1744              		.cfi_endproc
 1745              	.LFE4725:
 1747              		.section	.text._ZN5daisy25OneBitGraphicsDisplayImplINS_11OledDisplayINS_13SSD130xDriverILj128ELj64
 1748              		.align	1
 1749              		.p2align 2,,3
 1750              		.weak	_ZN5daisy25OneBitGraphicsDisplayImplINS_11OledDisplayINS_13SSD130xDriverILj128ELj64ENS_24SSD
 1751              		.syntax unified
 1752              		.thumb
 1753              		.thumb_func
 1754              		.fpu fpv5-d16
 1756              	_ZN5daisy25OneBitGraphicsDisplayImplINS_11OledDisplayINS_13SSD130xDriverILj128ELj64ENS_24SSD130x4Wi
 1757              	.LVL135:
 1758              	.LFB4877:
 459:../../libdaisy/src/hid/disp/display.h **** 
 460:../../libdaisy/src/hid/disp/display.h ****     Rectangle WriteStringAligned(const char*    str,
 1759              		.loc 6 460 15 is_stmt 1 view -0
 1760              		.cfi_startproc
 1761              		@ args = 12, pretend = 0, frame = 40
 1762              		@ frame_needed = 0, uses_anonymous_args = 0
 1763              		.loc 6 460 15 is_stmt 0 view .LVU369
 1764 0000 2DE9F04F 		push	{r4, r5, r6, r7, r8, r9, r10, fp, lr}
 1765              		.cfi_def_cfa_offset 36
 1766              		.cfi_offset 4, -36
 1767              		.cfi_offset 5, -32
 1768              		.cfi_offset 6, -28
 1769              		.cfi_offset 7, -24
 1770              		.cfi_offset 8, -20
 1771              		.cfi_offset 9, -16
 1772              		.cfi_offset 10, -12
 1773              		.cfi_offset 11, -8
 1774              		.cfi_offset 14, -4
 1775 0004 0C46     		mov	r4, r1
 1776 0006 8BB0     		sub	sp, sp, #44
 1777              		.cfi_def_cfa_offset 80
 1778              	.LBB938:
 1779              	.LBB939:
 1780              	.LBB940:
 1781              	.LBB941:
 461:../../libdaisy/src/hid/disp/display.h ****                                  const FontDef& font,
ARM GAS  /tmp/ccpRs2bQ.s 			page 66


 462:../../libdaisy/src/hid/disp/display.h ****                                  Rectangle      boundingBox,
 463:../../libdaisy/src/hid/disp/display.h ****                                  Alignment      alignment,
 464:../../libdaisy/src/hid/disp/display.h ****                                  bool           on) override
 465:../../libdaisy/src/hid/disp/display.h ****     {
 466:../../libdaisy/src/hid/disp/display.h ****         const auto alignedRect
 467:../../libdaisy/src/hid/disp/display.h ****             = GetTextRect(str, font).AlignedWithin(boundingBox, alignment);
 468:../../libdaisy/src/hid/disp/display.h ****         SetCursor(alignedRect.GetX(), alignedRect.GetY());
 469:../../libdaisy/src/hid/disp/display.h ****         ((ChildType*)(this))->ChildType::WriteString(str, font, on);
 470:../../libdaisy/src/hid/disp/display.h ****         return alignedRect;
 471:../../libdaisy/src/hid/disp/display.h ****     }
 472:../../libdaisy/src/hid/disp/display.h **** 
 473:../../libdaisy/src/hid/disp/display.h ****   private:
 474:../../libdaisy/src/hid/disp/display.h ****     uint32_t strlen(const char* string)
 475:../../libdaisy/src/hid/disp/display.h ****     {
 476:../../libdaisy/src/hid/disp/display.h ****         uint32_t result = 0;
 477:../../libdaisy/src/hid/disp/display.h ****         while(*string++ != '\0')
 1782              		.loc 6 477 25 view .LVU370
 1783 0008 1146     		mov	r1, r2
 1784              	.LVL136:
 1785              		.loc 6 477 25 view .LVU371
 1786              	.LBE941:
 1787              	.LBE940:
 1788              	.LBE939:
 1789              	.LBE938:
 460:../../libdaisy/src/hid/disp/display.h ****                                  const FontDef& font,
 1790              		.loc 6 460 15 view .LVU372
 1791 000a 9046     		mov	r8, r2
 1792 000c 0990     		str	r0, [sp, #36]
 1793 000e 1D46     		mov	r5, r3
 1794              	.LVL137:
 1795              	.LBB956:
 1796              	.LBI938:
 478:../../libdaisy/src/hid/disp/display.h ****             result++;
 479:../../libdaisy/src/hid/disp/display.h ****         return result;
 480:../../libdaisy/src/hid/disp/display.h ****     }
 481:../../libdaisy/src/hid/disp/display.h **** 
 482:../../libdaisy/src/hid/disp/display.h ****     Rectangle GetTextRect(const char* text, const FontDef& font)
 1797              		.loc 6 482 15 is_stmt 1 view .LVU373
 1798              	.LBB952:
 1799              	.LBB945:
 1800              	.LBB942:
 477:../../libdaisy/src/hid/disp/display.h ****             result++;
 1801              		.loc 6 477 25 view .LVU374
 477:../../libdaisy/src/hid/disp/display.h ****             result++;
 1802              		.loc 6 477 25 is_stmt 0 view .LVU375
 1803              	.LBE942:
 1804              	.LBE945:
 1805              	.LBE952:
 1806              	.LBE956:
 460:../../libdaisy/src/hid/disp/display.h ****                                  const FontDef& font,
 1807              		.loc 6 460 15 view .LVU376
 1808 0010 9DF85800 		ldrb	r0, [sp, #88]	@ zero_extendqisi2
 1809              	.LVL138:
 1810              	.LBB957:
 1811              	.LBB953:
 1812              	.LBB946:
 1813              	.LBB943:
ARM GAS  /tmp/ccpRs2bQ.s 			page 67


 477:../../libdaisy/src/hid/disp/display.h ****             result++;
 1814              		.loc 6 477 25 view .LVU377
 1815 0014 11F8012B 		ldrb	r2, [r1], #1	@ zero_extendqisi2
 1816              	.LVL139:
 477:../../libdaisy/src/hid/disp/display.h ****             result++;
 1817              		.loc 6 477 25 view .LVU378
 1818              	.LBE943:
 1819              	.LBE946:
 1820              	.LBE953:
 1821              	.LBE957:
 460:../../libdaisy/src/hid/disp/display.h ****                                  const FontDef& font,
 1822              		.loc 6 460 15 view .LVU379
 1823 0018 0890     		str	r0, [sp, #32]
 1824 001a DDE91463 		ldrd	r6, r3, [sp, #80]
 1825              	.LVL140:
 1826              	.LBB958:
 1827              	.LBB954:
 1828              	.LBB947:
 1829              	.LBB944:
 477:../../libdaisy/src/hid/disp/display.h ****             result++;
 1830              		.loc 6 477 25 view .LVU380
 1831 001e 32B1     		cbz	r2, .L126
 476:../../libdaisy/src/hid/disp/display.h ****         while(*string++ != '\0')
 1832              		.loc 6 476 18 view .LVU381
 1833 0020 0022     		movs	r2, #0
 1834              	.LVL141:
 1835              	.L127:
 477:../../libdaisy/src/hid/disp/display.h ****             result++;
 1836              		.loc 6 477 25 view .LVU382
 1837 0022 11F8010B 		ldrb	r0, [r1], #1	@ zero_extendqisi2
 1838              	.LVL142:
 478:../../libdaisy/src/hid/disp/display.h ****             result++;
 1839              		.loc 6 478 13 view .LVU383
 1840 0026 0132     		adds	r2, r2, #1
 1841              	.LVL143:
 477:../../libdaisy/src/hid/disp/display.h ****             result++;
 1842              		.loc 6 477 25 is_stmt 1 view .LVU384
 1843 0028 0028     		cmp	r0, #0
 1844 002a FAD1     		bne	.L127
 1845 002c 92B2     		uxth	r2, r2
 1846              	.LVL144:
 1847              	.L126:
 477:../../libdaisy/src/hid/disp/display.h ****             result++;
 1848              		.loc 6 477 25 is_stmt 0 view .LVU385
 1849              	.LBE944:
 1850              	.LBE947:
 483:../../libdaisy/src/hid/disp/display.h ****     {
 484:../../libdaisy/src/hid/disp/display.h ****         const auto numChars = strlen(text);
 485:../../libdaisy/src/hid/disp/display.h ****         return {int16_t(numChars * font.FontWidth), font.FontHeight};
 1851              		.loc 6 485 68 view .LVU386
 1852 002e 2978     		ldrb	r1, [r5]	@ zero_extendqisi2
 1853              		.loc 6 485 58 view .LVU387
 1854 0030 6878     		ldrb	r0, [r5, #1]	@ zero_extendqisi2
 1855              		.loc 6 485 68 view .LVU388
 1856 0032 11FB02F2 		smulbb	r2, r1, r2
 1857 0036 01B2     		sxth	r1, r0
 1858              	.LVL145:
ARM GAS  /tmp/ccpRs2bQ.s 			page 68


 1859              	.LBB948:
 1860              	.LBI948:
 1861              		.file 17 "../../libdaisy/src/hid/disp/graphics_common.h"
   1:../../libdaisy/src/hid/disp/graphics_common.h **** #pragma once
   2:../../libdaisy/src/hid/disp/graphics_common.h **** 
   3:../../libdaisy/src/hid/disp/graphics_common.h **** #include <cstdint>
   4:../../libdaisy/src/hid/disp/graphics_common.h **** 
   5:../../libdaisy/src/hid/disp/graphics_common.h **** namespace daisy
   6:../../libdaisy/src/hid/disp/graphics_common.h **** {
   7:../../libdaisy/src/hid/disp/graphics_common.h **** /** Justifications */
   8:../../libdaisy/src/hid/disp/graphics_common.h **** enum class Alignment
   9:../../libdaisy/src/hid/disp/graphics_common.h **** {
  10:../../libdaisy/src/hid/disp/graphics_common.h ****     centered,
  11:../../libdaisy/src/hid/disp/graphics_common.h ****     topLeft,
  12:../../libdaisy/src/hid/disp/graphics_common.h ****     topCentered,
  13:../../libdaisy/src/hid/disp/graphics_common.h ****     topRight,
  14:../../libdaisy/src/hid/disp/graphics_common.h ****     bottomLeft,
  15:../../libdaisy/src/hid/disp/graphics_common.h ****     bottomCentered,
  16:../../libdaisy/src/hid/disp/graphics_common.h ****     bottomRight,
  17:../../libdaisy/src/hid/disp/graphics_common.h ****     centeredLeft,
  18:../../libdaisy/src/hid/disp/graphics_common.h ****     centeredRight
  19:../../libdaisy/src/hid/disp/graphics_common.h **** };
  20:../../libdaisy/src/hid/disp/graphics_common.h **** 
  21:../../libdaisy/src/hid/disp/graphics_common.h **** class Rectangle
  22:../../libdaisy/src/hid/disp/graphics_common.h **** {
  23:../../libdaisy/src/hid/disp/graphics_common.h ****   public:
  24:../../libdaisy/src/hid/disp/graphics_common.h ****     Rectangle() : x_(0), y_(0), width_(0), height_(0) {}
  25:../../libdaisy/src/hid/disp/graphics_common.h **** 
  26:../../libdaisy/src/hid/disp/graphics_common.h ****     Rectangle(int16_t width, int16_t height)
 1862              		.loc 17 26 5 is_stmt 1 view .LVU389
 1863              	.LBB949:
 1864              	.LBI949:
  27:../../libdaisy/src/hid/disp/graphics_common.h ****     : x_(0), y_(0), width_(max(0, width)), height_(max(0, height))
  28:../../libdaisy/src/hid/disp/graphics_common.h ****     {
  29:../../libdaisy/src/hid/disp/graphics_common.h ****     }
  30:../../libdaisy/src/hid/disp/graphics_common.h **** 
  31:../../libdaisy/src/hid/disp/graphics_common.h ****     Rectangle(int16_t x, int16_t y, int16_t width, int16_t height)
  32:../../libdaisy/src/hid/disp/graphics_common.h ****     : x_(x), y_(y), width_(max(0, width)), height_(max(0, height))
  33:../../libdaisy/src/hid/disp/graphics_common.h ****     {
  34:../../libdaisy/src/hid/disp/graphics_common.h ****     }
  35:../../libdaisy/src/hid/disp/graphics_common.h **** 
  36:../../libdaisy/src/hid/disp/graphics_common.h ****     Rectangle(const Rectangle& other) { *this = other; }
  37:../../libdaisy/src/hid/disp/graphics_common.h **** 
  38:../../libdaisy/src/hid/disp/graphics_common.h ****     Rectangle& operator=(const Rectangle& other)
  39:../../libdaisy/src/hid/disp/graphics_common.h ****     {
  40:../../libdaisy/src/hid/disp/graphics_common.h ****         x_      = other.x_;
  41:../../libdaisy/src/hid/disp/graphics_common.h ****         y_      = other.y_;
  42:../../libdaisy/src/hid/disp/graphics_common.h ****         width_  = other.width_;
  43:../../libdaisy/src/hid/disp/graphics_common.h ****         height_ = other.height_;
  44:../../libdaisy/src/hid/disp/graphics_common.h ****         return *this;
  45:../../libdaisy/src/hid/disp/graphics_common.h ****     }
  46:../../libdaisy/src/hid/disp/graphics_common.h **** 
  47:../../libdaisy/src/hid/disp/graphics_common.h ****     bool operator==(const Rectangle& other) const
  48:../../libdaisy/src/hid/disp/graphics_common.h ****     {
  49:../../libdaisy/src/hid/disp/graphics_common.h ****         return (x_ == other.x_) && (y_ == other.y_) && (width_ == other.width_)
  50:../../libdaisy/src/hid/disp/graphics_common.h ****                && (height_ == other.height_);
  51:../../libdaisy/src/hid/disp/graphics_common.h ****     }
ARM GAS  /tmp/ccpRs2bQ.s 			page 69


  52:../../libdaisy/src/hid/disp/graphics_common.h ****     bool operator!=(const Rectangle& other) const { return !(*this == other); }
  53:../../libdaisy/src/hid/disp/graphics_common.h **** 
  54:../../libdaisy/src/hid/disp/graphics_common.h ****     bool IsEmpty() const { return (width_ <= 0) || (height_ <= 0); }
  55:../../libdaisy/src/hid/disp/graphics_common.h **** 
  56:../../libdaisy/src/hid/disp/graphics_common.h ****     int16_t GetX() const { return x_; }
  57:../../libdaisy/src/hid/disp/graphics_common.h ****     int16_t GetY() const { return y_; }
  58:../../libdaisy/src/hid/disp/graphics_common.h ****     int16_t GetWidth() const { return width_; }
  59:../../libdaisy/src/hid/disp/graphics_common.h ****     int16_t GetHeight() const { return height_; }
  60:../../libdaisy/src/hid/disp/graphics_common.h ****     int16_t GetRight() const { return x_ + width_; }
  61:../../libdaisy/src/hid/disp/graphics_common.h ****     int16_t GetBottom() const { return y_ + height_; }
  62:../../libdaisy/src/hid/disp/graphics_common.h ****     int16_t GetCenterX() const { return x_ + width_ / 2; }
  63:../../libdaisy/src/hid/disp/graphics_common.h ****     int16_t GetCenterY() const { return y_ + height_ / 2; }
  64:../../libdaisy/src/hid/disp/graphics_common.h **** 
  65:../../libdaisy/src/hid/disp/graphics_common.h ****     Rectangle WithX(int16_t x) const { return {x, y_, width_, height_}; }
  66:../../libdaisy/src/hid/disp/graphics_common.h ****     Rectangle WithY(int16_t y) const { return {x_, y, width_, height_}; }
  67:../../libdaisy/src/hid/disp/graphics_common.h ****     Rectangle WithWidth(int16_t width) const
  68:../../libdaisy/src/hid/disp/graphics_common.h ****     {
  69:../../libdaisy/src/hid/disp/graphics_common.h ****         return {x_, y_, width, height_};
  70:../../libdaisy/src/hid/disp/graphics_common.h ****     }
  71:../../libdaisy/src/hid/disp/graphics_common.h ****     Rectangle WithHeight(int16_t height) const
  72:../../libdaisy/src/hid/disp/graphics_common.h ****     {
  73:../../libdaisy/src/hid/disp/graphics_common.h ****         return {x_, y_, width_, height};
  74:../../libdaisy/src/hid/disp/graphics_common.h ****     }
  75:../../libdaisy/src/hid/disp/graphics_common.h ****     Rectangle WithSize(int16_t width, int16_t height) const
  76:../../libdaisy/src/hid/disp/graphics_common.h ****     {
  77:../../libdaisy/src/hid/disp/graphics_common.h ****         return {x_, y_, width, height};
  78:../../libdaisy/src/hid/disp/graphics_common.h ****     }
  79:../../libdaisy/src/hid/disp/graphics_common.h ****     Rectangle WithWidthKeepingCenter(int16_t width) const
  80:../../libdaisy/src/hid/disp/graphics_common.h ****     {
  81:../../libdaisy/src/hid/disp/graphics_common.h ****         return Rectangle(x_, y_, width, height_)
  82:../../libdaisy/src/hid/disp/graphics_common.h ****             .WithCenter(GetCenterX(), GetCenterY());
  83:../../libdaisy/src/hid/disp/graphics_common.h ****     }
  84:../../libdaisy/src/hid/disp/graphics_common.h ****     Rectangle WithHeightKeepingCenter(int16_t height) const
  85:../../libdaisy/src/hid/disp/graphics_common.h ****     {
  86:../../libdaisy/src/hid/disp/graphics_common.h ****         return Rectangle(x_, y_, width_, height)
  87:../../libdaisy/src/hid/disp/graphics_common.h ****             .WithCenter(GetCenterX(), GetCenterY());
  88:../../libdaisy/src/hid/disp/graphics_common.h ****     }
  89:../../libdaisy/src/hid/disp/graphics_common.h ****     Rectangle WithSizeKeepingCenter(int16_t width, int16_t height) const
  90:../../libdaisy/src/hid/disp/graphics_common.h ****     {
  91:../../libdaisy/src/hid/disp/graphics_common.h ****         return Rectangle(x_, y_, width, height)
  92:../../libdaisy/src/hid/disp/graphics_common.h ****             .WithCenter(GetCenterX(), GetCenterY());
  93:../../libdaisy/src/hid/disp/graphics_common.h ****     }
  94:../../libdaisy/src/hid/disp/graphics_common.h **** 
  95:../../libdaisy/src/hid/disp/graphics_common.h ****     Rectangle Reduced(int16_t sizeToReduce) const
  96:../../libdaisy/src/hid/disp/graphics_common.h ****     {
  97:../../libdaisy/src/hid/disp/graphics_common.h ****         return {int16_t(x_ + sizeToReduce),
  98:../../libdaisy/src/hid/disp/graphics_common.h ****                 int16_t(y_ + sizeToReduce),
  99:../../libdaisy/src/hid/disp/graphics_common.h ****                 int16_t(width_ - 2 * sizeToReduce),
 100:../../libdaisy/src/hid/disp/graphics_common.h ****                 int16_t(height_ - 2 * sizeToReduce)};
 101:../../libdaisy/src/hid/disp/graphics_common.h ****     }
 102:../../libdaisy/src/hid/disp/graphics_common.h ****     Rectangle Reduced(int16_t xToReduce, int16_t yToReduce) const
 103:../../libdaisy/src/hid/disp/graphics_common.h ****     {
 104:../../libdaisy/src/hid/disp/graphics_common.h ****         return {int16_t(x_ + xToReduce),
 105:../../libdaisy/src/hid/disp/graphics_common.h ****                 int16_t(y_ + yToReduce),
 106:../../libdaisy/src/hid/disp/graphics_common.h ****                 int16_t(width_ - 2 * xToReduce),
 107:../../libdaisy/src/hid/disp/graphics_common.h ****                 int16_t(height_ - 2 * yToReduce)};
 108:../../libdaisy/src/hid/disp/graphics_common.h ****     }
ARM GAS  /tmp/ccpRs2bQ.s 			page 70


 109:../../libdaisy/src/hid/disp/graphics_common.h **** 
 110:../../libdaisy/src/hid/disp/graphics_common.h ****     Rectangle Translated(int16_t x, int16_t y) const
 111:../../libdaisy/src/hid/disp/graphics_common.h ****     {
 112:../../libdaisy/src/hid/disp/graphics_common.h ****         return {int16_t(x_ + x), int16_t(y_ + y), width_, height_};
 113:../../libdaisy/src/hid/disp/graphics_common.h ****     }
 114:../../libdaisy/src/hid/disp/graphics_common.h **** 
 115:../../libdaisy/src/hid/disp/graphics_common.h ****     Rectangle WithLeft(int16_t left) const
 116:../../libdaisy/src/hid/disp/graphics_common.h ****     {
 117:../../libdaisy/src/hid/disp/graphics_common.h ****         const auto newWidth = int16_t((x_ - left) + width_);
 118:../../libdaisy/src/hid/disp/graphics_common.h ****         return {left, y_, newWidth, height_};
 119:../../libdaisy/src/hid/disp/graphics_common.h ****     }
 120:../../libdaisy/src/hid/disp/graphics_common.h **** 
 121:../../libdaisy/src/hid/disp/graphics_common.h ****     Rectangle WithRight(int16_t right) const
 122:../../libdaisy/src/hid/disp/graphics_common.h ****     {
 123:../../libdaisy/src/hid/disp/graphics_common.h ****         const auto newWidth = int16_t(right - x_);
 124:../../libdaisy/src/hid/disp/graphics_common.h ****         return {x_, y_, newWidth, height_};
 125:../../libdaisy/src/hid/disp/graphics_common.h ****     }
 126:../../libdaisy/src/hid/disp/graphics_common.h **** 
 127:../../libdaisy/src/hid/disp/graphics_common.h ****     Rectangle WithTop(int16_t top) const
 128:../../libdaisy/src/hid/disp/graphics_common.h ****     {
 129:../../libdaisy/src/hid/disp/graphics_common.h ****         const auto newHeight = int16_t((y_ - top) + height_);
 130:../../libdaisy/src/hid/disp/graphics_common.h ****         return {x_, top, width_, newHeight};
 131:../../libdaisy/src/hid/disp/graphics_common.h ****     }
 132:../../libdaisy/src/hid/disp/graphics_common.h **** 
 133:../../libdaisy/src/hid/disp/graphics_common.h ****     Rectangle WithBottom(int16_t bottom) const
 134:../../libdaisy/src/hid/disp/graphics_common.h ****     {
 135:../../libdaisy/src/hid/disp/graphics_common.h ****         const auto newHeight = int16_t(bottom - y_);
 136:../../libdaisy/src/hid/disp/graphics_common.h ****         return {x_, y_, width_, newHeight};
 137:../../libdaisy/src/hid/disp/graphics_common.h ****     }
 138:../../libdaisy/src/hid/disp/graphics_common.h **** 
 139:../../libdaisy/src/hid/disp/graphics_common.h ****     Rectangle WithTrimmedLeft(int16_t pxToTrim) const
 140:../../libdaisy/src/hid/disp/graphics_common.h ****     {
 141:../../libdaisy/src/hid/disp/graphics_common.h ****         return {
 142:../../libdaisy/src/hid/disp/graphics_common.h ****             int16_t(x_ + pxToTrim), y_, int16_t(width_ - pxToTrim), height_};
 143:../../libdaisy/src/hid/disp/graphics_common.h ****     }
 144:../../libdaisy/src/hid/disp/graphics_common.h **** 
 145:../../libdaisy/src/hid/disp/graphics_common.h ****     Rectangle WithTrimmedRight(int16_t pxToTrim) const
 146:../../libdaisy/src/hid/disp/graphics_common.h ****     {
 147:../../libdaisy/src/hid/disp/graphics_common.h ****         return {x_, y_, int16_t(width_ - pxToTrim), height_};
 148:../../libdaisy/src/hid/disp/graphics_common.h ****     }
 149:../../libdaisy/src/hid/disp/graphics_common.h **** 
 150:../../libdaisy/src/hid/disp/graphics_common.h ****     Rectangle WithTrimmedTop(int16_t pxToTrim) const
 151:../../libdaisy/src/hid/disp/graphics_common.h ****     {
 152:../../libdaisy/src/hid/disp/graphics_common.h ****         return {
 153:../../libdaisy/src/hid/disp/graphics_common.h ****             x_, int16_t(y_ + pxToTrim), width_, int16_t(height_ - pxToTrim)};
 154:../../libdaisy/src/hid/disp/graphics_common.h ****     }
 155:../../libdaisy/src/hid/disp/graphics_common.h **** 
 156:../../libdaisy/src/hid/disp/graphics_common.h ****     Rectangle WithTrimmedBottom(int16_t pxToTrim) const
 157:../../libdaisy/src/hid/disp/graphics_common.h ****     {
 158:../../libdaisy/src/hid/disp/graphics_common.h ****         return {x_, y_, width_, int16_t(height_ - pxToTrim)};
 159:../../libdaisy/src/hid/disp/graphics_common.h ****     }
 160:../../libdaisy/src/hid/disp/graphics_common.h **** 
 161:../../libdaisy/src/hid/disp/graphics_common.h ****     Rectangle WithCenterX(int16_t centerX) const
 162:../../libdaisy/src/hid/disp/graphics_common.h ****     {
 163:../../libdaisy/src/hid/disp/graphics_common.h ****         return {int16_t(x_ + centerX - GetCenterX()), y_, width_, height_};
 164:../../libdaisy/src/hid/disp/graphics_common.h ****     }
 165:../../libdaisy/src/hid/disp/graphics_common.h **** 
ARM GAS  /tmp/ccpRs2bQ.s 			page 71


 166:../../libdaisy/src/hid/disp/graphics_common.h ****     Rectangle WithCenterY(int16_t centerY) const
 167:../../libdaisy/src/hid/disp/graphics_common.h ****     {
 168:../../libdaisy/src/hid/disp/graphics_common.h ****         return {x_, int16_t(y_ + centerY - GetCenterY()), width_, height_};
 169:../../libdaisy/src/hid/disp/graphics_common.h ****     }
 170:../../libdaisy/src/hid/disp/graphics_common.h **** 
 171:../../libdaisy/src/hid/disp/graphics_common.h ****     Rectangle WithCenter(int16_t centerX, int16_t centerY) const
 172:../../libdaisy/src/hid/disp/graphics_common.h ****     {
 173:../../libdaisy/src/hid/disp/graphics_common.h ****         return {int16_t(x_ + centerX - GetCenterX()),
 174:../../libdaisy/src/hid/disp/graphics_common.h ****                 int16_t(y_ + centerY - GetCenterY()),
 175:../../libdaisy/src/hid/disp/graphics_common.h ****                 width_,
 176:../../libdaisy/src/hid/disp/graphics_common.h ****                 height_};
 177:../../libdaisy/src/hid/disp/graphics_common.h ****     }
 178:../../libdaisy/src/hid/disp/graphics_common.h **** 
 179:../../libdaisy/src/hid/disp/graphics_common.h ****     Rectangle RemoveFromLeft(int16_t pxToRemove)
 180:../../libdaisy/src/hid/disp/graphics_common.h ****     {
 181:../../libdaisy/src/hid/disp/graphics_common.h ****         const auto result = this->WithWidth(min(pxToRemove, width_));
 182:../../libdaisy/src/hid/disp/graphics_common.h ****         x_ += min(pxToRemove, width_);
 183:../../libdaisy/src/hid/disp/graphics_common.h ****         width_ = max(int16_t(width_ - pxToRemove), 0);
 184:../../libdaisy/src/hid/disp/graphics_common.h ****         return result;
 185:../../libdaisy/src/hid/disp/graphics_common.h ****     }
 186:../../libdaisy/src/hid/disp/graphics_common.h **** 
 187:../../libdaisy/src/hid/disp/graphics_common.h ****     Rectangle RemoveFromRight(int16_t pxToRemove)
 188:../../libdaisy/src/hid/disp/graphics_common.h ****     {
 189:../../libdaisy/src/hid/disp/graphics_common.h ****         const auto canRemove = min(pxToRemove, width_);
 190:../../libdaisy/src/hid/disp/graphics_common.h ****         width_ -= canRemove;
 191:../../libdaisy/src/hid/disp/graphics_common.h ****         return {int16_t(x_ + width_), y_, canRemove, height_};
 192:../../libdaisy/src/hid/disp/graphics_common.h ****     }
 193:../../libdaisy/src/hid/disp/graphics_common.h **** 
 194:../../libdaisy/src/hid/disp/graphics_common.h ****     Rectangle RemoveFromTop(int16_t pxToRemove)
 195:../../libdaisy/src/hid/disp/graphics_common.h ****     {
 196:../../libdaisy/src/hid/disp/graphics_common.h ****         const auto result = this->WithHeight(min(pxToRemove, height_));
 197:../../libdaisy/src/hid/disp/graphics_common.h ****         y_ += min(pxToRemove, height_);
 198:../../libdaisy/src/hid/disp/graphics_common.h ****         height_ = max(height_ - pxToRemove, 0);
 199:../../libdaisy/src/hid/disp/graphics_common.h ****         return result;
 200:../../libdaisy/src/hid/disp/graphics_common.h ****     }
 201:../../libdaisy/src/hid/disp/graphics_common.h **** 
 202:../../libdaisy/src/hid/disp/graphics_common.h ****     Rectangle RemoveFromBottom(int16_t pxToRemove)
 203:../../libdaisy/src/hid/disp/graphics_common.h ****     {
 204:../../libdaisy/src/hid/disp/graphics_common.h ****         const auto canRemove = min(pxToRemove, height_);
 205:../../libdaisy/src/hid/disp/graphics_common.h ****         height_ -= canRemove;
 206:../../libdaisy/src/hid/disp/graphics_common.h ****         return {x_, int16_t(y_ + height_), width_, canRemove};
 207:../../libdaisy/src/hid/disp/graphics_common.h ****     }
 208:../../libdaisy/src/hid/disp/graphics_common.h **** 
 209:../../libdaisy/src/hid/disp/graphics_common.h ****     Rectangle AlignedWithin(const Rectangle& other, Alignment alignment) const
 210:../../libdaisy/src/hid/disp/graphics_common.h ****     {
 211:../../libdaisy/src/hid/disp/graphics_common.h ****         switch(alignment)
 212:../../libdaisy/src/hid/disp/graphics_common.h ****         {
 213:../../libdaisy/src/hid/disp/graphics_common.h ****             case Alignment::topLeft:
 214:../../libdaisy/src/hid/disp/graphics_common.h ****                 return {other.x_, other.y_, width_, height_};
 215:../../libdaisy/src/hid/disp/graphics_common.h ****             case Alignment::topRight:
 216:../../libdaisy/src/hid/disp/graphics_common.h ****                 return {int16_t(other.GetRight() - width_),
 217:../../libdaisy/src/hid/disp/graphics_common.h ****                         other.y_,
 218:../../libdaisy/src/hid/disp/graphics_common.h ****                         width_,
 219:../../libdaisy/src/hid/disp/graphics_common.h ****                         height_};
 220:../../libdaisy/src/hid/disp/graphics_common.h ****             case Alignment::topCentered:
 221:../../libdaisy/src/hid/disp/graphics_common.h ****                 return {int16_t(x_ + (other.GetCenterX() - GetCenterX())),
 222:../../libdaisy/src/hid/disp/graphics_common.h ****                         other.y_,
ARM GAS  /tmp/ccpRs2bQ.s 			page 72


 223:../../libdaisy/src/hid/disp/graphics_common.h ****                         width_,
 224:../../libdaisy/src/hid/disp/graphics_common.h ****                         height_};
 225:../../libdaisy/src/hid/disp/graphics_common.h ****             case Alignment::bottomLeft:
 226:../../libdaisy/src/hid/disp/graphics_common.h ****                 return {other.x_,
 227:../../libdaisy/src/hid/disp/graphics_common.h ****                         int16_t(other.GetBottom() - height_),
 228:../../libdaisy/src/hid/disp/graphics_common.h ****                         width_,
 229:../../libdaisy/src/hid/disp/graphics_common.h ****                         height_};
 230:../../libdaisy/src/hid/disp/graphics_common.h ****             case Alignment::bottomRight:
 231:../../libdaisy/src/hid/disp/graphics_common.h ****                 return {int16_t(other.GetRight() - width_),
 232:../../libdaisy/src/hid/disp/graphics_common.h ****                         int16_t(other.GetBottom() - height_),
 233:../../libdaisy/src/hid/disp/graphics_common.h ****                         width_,
 234:../../libdaisy/src/hid/disp/graphics_common.h ****                         height_};
 235:../../libdaisy/src/hid/disp/graphics_common.h ****             case Alignment::bottomCentered:
 236:../../libdaisy/src/hid/disp/graphics_common.h ****                 return {int16_t(x_ + (other.GetCenterX() - GetCenterX())),
 237:../../libdaisy/src/hid/disp/graphics_common.h ****                         int16_t(other.GetBottom() - height_),
 238:../../libdaisy/src/hid/disp/graphics_common.h ****                         width_,
 239:../../libdaisy/src/hid/disp/graphics_common.h ****                         height_};
 240:../../libdaisy/src/hid/disp/graphics_common.h ****             case Alignment::centeredLeft:
 241:../../libdaisy/src/hid/disp/graphics_common.h ****                 return {other.x_,
 242:../../libdaisy/src/hid/disp/graphics_common.h ****                         int16_t(y_ + (other.GetCenterY() - GetCenterY())),
 243:../../libdaisy/src/hid/disp/graphics_common.h ****                         width_,
 244:../../libdaisy/src/hid/disp/graphics_common.h ****                         height_};
 245:../../libdaisy/src/hid/disp/graphics_common.h ****             case Alignment::centeredRight:
 246:../../libdaisy/src/hid/disp/graphics_common.h ****                 return {int16_t(other.GetRight() - width_),
 247:../../libdaisy/src/hid/disp/graphics_common.h ****                         int16_t(y_ + (other.GetCenterY() - GetCenterY())),
 248:../../libdaisy/src/hid/disp/graphics_common.h ****                         width_,
 249:../../libdaisy/src/hid/disp/graphics_common.h ****                         height_};
 250:../../libdaisy/src/hid/disp/graphics_common.h ****             case Alignment::centered:
 251:../../libdaisy/src/hid/disp/graphics_common.h ****                 return {int16_t(x_ + (other.GetCenterX() - GetCenterX())),
 252:../../libdaisy/src/hid/disp/graphics_common.h ****                         int16_t(y_ + (other.GetCenterY() - GetCenterY())),
 253:../../libdaisy/src/hid/disp/graphics_common.h ****                         width_,
 254:../../libdaisy/src/hid/disp/graphics_common.h ****                         height_};
 255:../../libdaisy/src/hid/disp/graphics_common.h ****             default: return {};
 256:../../libdaisy/src/hid/disp/graphics_common.h ****         }
 257:../../libdaisy/src/hid/disp/graphics_common.h ****     }
 258:../../libdaisy/src/hid/disp/graphics_common.h **** 
 259:../../libdaisy/src/hid/disp/graphics_common.h ****   private:
 260:../../libdaisy/src/hid/disp/graphics_common.h ****     int16_t x_, y_, width_, height_;
 261:../../libdaisy/src/hid/disp/graphics_common.h ****     int16_t max(int16_t a, int16_t b) { return (a > b) ? a : b; }
 1865              		.loc 17 261 13 view .LVU390
 1866              		.loc 17 261 13 is_stmt 0 view .LVU391
 1867              	.LBE949:
 1868              	.LBE948:
 1869              	.LBE954:
 1870              	.LBE958:
 1871              		.loc 17 261 41 is_stmt 1 view .LVU392
 1872 0038 12B2     		sxth	r2, r2
 1873 003a 22EAE272 		bic	r2, r2, r2, asr #31
 1874              	.LVL146:
 1875              	.LBB959:
 1876              	.LBB955:
 1877              	.LBB951:
 1878              	.LBB950:
 1879              	.LBI950:
 1880              		.loc 17 261 13 view .LVU393
 1881              		.loc 17 261 13 is_stmt 0 view .LVU394
 1882              	.LBE950:
ARM GAS  /tmp/ccpRs2bQ.s 			page 73


 1883              	.LBE951:
 1884              	.LBE955:
 1885              	.LBE959:
 1886              		.loc 17 261 41 is_stmt 1 view .LVU395
 1887              	.LBB960:
 1888              	.LBI960:
 209:../../libdaisy/src/hid/disp/graphics_common.h ****     {
 1889              		.loc 17 209 15 view .LVU396
 1890              	.LBB961:
 211:../../libdaisy/src/hid/disp/graphics_common.h ****         {
 1891              		.loc 17 211 9 view .LVU397
 1892 003e 082B     		cmp	r3, #8
 1893 0040 00F2AD81 		bhi	.L128
 1894 0044 DFE813F0 		tbh	[pc, r3, lsl #1]
 1895              	.L130:
 1896 0048 0001     		.2byte	(.L138-.L130)/2
 1897 004a 1201     		.2byte	(.L137-.L130)/2
 1898 004c 1E01     		.2byte	(.L136-.L130)/2
 1899 004e 3201     		.2byte	(.L135-.L130)/2
 1900 0050 4001     		.2byte	(.L134-.L130)/2
 1901 0052 5001     		.2byte	(.L133-.L130)/2
 1902 0054 6B01     		.2byte	(.L132-.L130)/2
 1903 0056 7801     		.2byte	(.L131-.L130)/2
 1904 0058 0900     		.2byte	(.L129-.L130)/2
 1905              		.p2align 1
 1906              	.L129:
 245:../../libdaisy/src/hid/disp/graphics_common.h ****                 return {int16_t(other.GetRight() - width_),
 1907              		.loc 17 245 13 view .LVU398
 246:../../libdaisy/src/hid/disp/graphics_common.h ****                         int16_t(y_ + (other.GetCenterY() - GetCenterY())),
 1908              		.loc 17 246 17 view .LVU399
 1909              	.LBB962:
 1910              	.LBI962:
  60:../../libdaisy/src/hid/disp/graphics_common.h ****     int16_t GetBottom() const { return y_ + height_; }
 1911              		.loc 17 60 13 view .LVU400
 1912              	.LVL147:
 1913              	.LBB963:
  60:../../libdaisy/src/hid/disp/graphics_common.h ****     int16_t GetBottom() const { return y_ + height_; }
 1914              		.loc 17 60 32 view .LVU401
  60:../../libdaisy/src/hid/disp/graphics_common.h ****     int16_t GetBottom() const { return y_ + height_; }
 1915              		.loc 17 60 42 is_stmt 0 view .LVU402
 1916 005a 3788     		ldrh	r7, [r6]
 1917 005c B088     		ldrh	r0, [r6, #4]
 1918              	.LBE963:
 1919              	.LBE962:
 1920              	.LBB965:
 1921              	.LBB966:
  63:../../libdaisy/src/hid/disp/graphics_common.h **** 
 1922              		.loc 17 63 54 view .LVU403
 1923 005e B6F90630 		ldrsh	r3, [r6, #6]
 1924              	.LVL148:
  63:../../libdaisy/src/hid/disp/graphics_common.h **** 
 1925              		.loc 17 63 54 view .LVU404
 1926              	.LBE966:
 1927              	.LBE965:
 1928              	.LBB970:
 1929              	.LBB964:
  60:../../libdaisy/src/hid/disp/graphics_common.h ****     int16_t GetBottom() const { return y_ + height_; }
ARM GAS  /tmp/ccpRs2bQ.s 			page 74


 1930              		.loc 17 60 42 view .LVU405
 1931 0062 0744     		add	r7, r7, r0
 1932              	.LBE964:
 1933              	.LBE970:
 1934              	.LBB971:
 1935              	.LBB967:
  63:../../libdaisy/src/hid/disp/graphics_common.h **** 
 1936              		.loc 17 63 54 view .LVU406
 1937 0064 002B     		cmp	r3, #0
 1938              	.LBE967:
 1939              	.LBE971:
 246:../../libdaisy/src/hid/disp/graphics_common.h ****                         int16_t(y_ + (other.GetCenterY() - GetCenterY())),
 1940              		.loc 17 246 50 view .LVU407
 1941 0066 A7EB0207 		sub	r7, r7, r2
 1942 006a BFB2     		uxth	r7, r7
 1943              	.LBB972:
 1944              	.LBI965:
  63:../../libdaisy/src/hid/disp/graphics_common.h **** 
 1945              		.loc 17 63 13 is_stmt 1 view .LVU408
 1946              	.LVL149:
 1947              	.LBB968:
  63:../../libdaisy/src/hid/disp/graphics_common.h **** 
 1948              		.loc 17 63 34 view .LVU409
  63:../../libdaisy/src/hid/disp/graphics_common.h **** 
 1949              		.loc 17 63 34 is_stmt 0 view .LVU410
 1950              	.LBE968:
 1951              	.LBE972:
 1952              	.LBB973:
 1953              	.LBI973:
  63:../../libdaisy/src/hid/disp/graphics_common.h **** 
 1954              		.loc 17 63 13 is_stmt 1 view .LVU411
 1955              	.LBB974:
  63:../../libdaisy/src/hid/disp/graphics_common.h **** 
 1956              		.loc 17 63 34 view .LVU412
 1957              	.LBE974:
 1958              	.LBE973:
 1959              	.LBB975:
 1960              	.LBB969:
  63:../../libdaisy/src/hid/disp/graphics_common.h **** 
 1961              		.loc 17 63 54 is_stmt 0 view .LVU413
 1962 006c C0F2FC80 		blt	.L202
 1963              	.LVL150:
 1964              	.L145:
  63:../../libdaisy/src/hid/disp/graphics_common.h **** 
 1965              		.loc 17 63 54 view .LVU414
 1966              	.LBE969:
 1967              	.LBE975:
 1968              	.LBB976:
 1969              	.LBB977:
  63:../../libdaisy/src/hid/disp/graphics_common.h **** 
 1970              		.loc 17 63 44 view .LVU415
 1971 0070 B6F802C0 		ldrh	ip, [r6, #2]
 1972              	.LBE977:
 1973              	.LBE976:
 1974              	.LBB983:
 1975              	.LBB984:
 1976              	.LBB985:
ARM GAS  /tmp/ccpRs2bQ.s 			page 75


  32:../../libdaisy/src/hid/disp/graphics_common.h ****     {
 1977              		.loc 17 32 66 view .LVU416
 1978 0074 0998     		ldr	r0, [sp, #36]
 1979              	.LBE985:
 1980              	.LBE984:
 1981              	.LBE983:
 1982              	.LBB994:
 1983              	.LBB978:
  63:../../libdaisy/src/hid/disp/graphics_common.h **** 
 1984              		.loc 17 63 44 view .LVU417
 1985 0076 0CEB6306 		add	r6, ip, r3, asr #1
 1986              	.LVL151:
  63:../../libdaisy/src/hid/disp/graphics_common.h **** 
 1987              		.loc 17 63 44 view .LVU418
 1988              	.LBE978:
 1989              	.LBE994:
 1990              	.LBB995:
 1991              	.LBB991:
 1992              	.LBB988:
  32:../../libdaisy/src/hid/disp/graphics_common.h ****     {
 1993              		.loc 17 32 66 view .LVU419
 1994 007a 0346     		mov	r3, r0
 1995 007c 0780     		strh	r7, [r0]	@ movhi
 1996              	.L200:
  32:../../libdaisy/src/hid/disp/graphics_common.h ****     {
 1997              		.loc 17 32 66 view .LVU420
 1998 007e 8280     		strh	r2, [r0, #4]	@ movhi
 1999 0080 D980     		strh	r1, [r3, #6]	@ movhi
 2000              	.LBE988:
 2001              	.LBE991:
 2002              	.LBE995:
 252:../../libdaisy/src/hid/disp/graphics_common.h ****                         width_,
 2003              		.loc 17 252 58 view .LVU421
 2004 0082 A6EB5101 		sub	r1, r6, r1, lsr #1
 2005 0086 8EB2     		uxth	r6, r1
 2006              	.LVL152:
 2007              	.LBB996:
 2008              	.LBI983:
  31:../../libdaisy/src/hid/disp/graphics_common.h ****     : x_(x), y_(y), width_(max(0, width)), height_(max(0, height))
 2009              		.loc 17 31 5 is_stmt 1 view .LVU422
 2010              	.LBB992:
 2011              	.LBB989:
  32:../../libdaisy/src/hid/disp/graphics_common.h ****     {
 2012              		.loc 17 32 66 is_stmt 0 view .LVU423
 2013 0088 5E80     		strh	r6, [r3, #2]	@ movhi
 2014              	.LVL153:
 2015              	.LBB986:
 2016              	.LBI986:
 2017              		.loc 17 261 13 is_stmt 1 view .LVU424
 2018              		.loc 17 261 13 is_stmt 0 view .LVU425
 2019              	.LBE986:
 2020              	.LBE989:
 2021              	.LBE992:
 2022              	.LBE996:
 2023              	.LBE961:
 2024              	.LBE960:
 2025              		.loc 17 261 41 is_stmt 1 view .LVU426
ARM GAS  /tmp/ccpRs2bQ.s 			page 76


 2026              	.LBB1181:
 2027              	.LBB1166:
 2028              	.LBB997:
 2029              	.LBB993:
 2030              	.LBB990:
 2031              	.LBB987:
 2032              	.LBI987:
 2033              		.loc 17 261 13 view .LVU427
 2034              		.loc 17 261 13 is_stmt 0 view .LVU428
 2035              	.LBE987:
 2036              	.LBE990:
 2037              	.LBE993:
 2038              	.LBE997:
 2039              	.LBE1166:
 2040              	.LBE1181:
 2041              		.loc 17 261 41 is_stmt 1 view .LVU429
 2042              	.L139:
  56:../../libdaisy/src/hid/disp/graphics_common.h ****     int16_t GetY() const { return y_; }
 2043              		.loc 17 56 28 view .LVU430
  57:../../libdaisy/src/hid/disp/graphics_common.h ****     int16_t GetWidth() const { return width_; }
 2044              		.loc 17 57 28 view .LVU431
 2045              	.LBB1182:
 2046              	.LBI1182:
 171:../../libdaisy/src/hid/disp/display.h ****     {
 2047              		.loc 6 171 10 view .LVU432
 2048              	.LBB1183:
 173:../../libdaisy/src/hid/disp/display.h ****         currentY_ = (y >= Height()) ? Height() - 1 : y;
 2049              		.loc 6 173 9 view .LVU433
 2050 008a B64A     		ldr	r2, .L212
 173:../../libdaisy/src/hid/disp/display.h ****         currentY_ = (y >= Height()) ? Height() - 1 : y;
 2051              		.loc 6 173 33 is_stmt 0 view .LVU434
 2052 008c 2368     		ldr	r3, [r4]
 2053 008e 1146     		mov	r1, r2
 2054 0090 0192     		str	r2, [sp, #4]
 2055 0092 DA68     		ldr	r2, [r3, #12]
 2056 0094 8A42     		cmp	r2, r1
 2057 0096 40F08F81 		bne	.L147
 2058 009a 8020     		movs	r0, #128
 2059              	.LVL154:
 2060              	.L148:
 173:../../libdaisy/src/hid/disp/display.h ****         currentY_ = (y >= Height()) ? Height() - 1 : y;
 2061              		.loc 6 173 19 view .LVU435
 2062 009c B842     		cmp	r0, r7
 2063 009e 05D8     		bhi	.L149
 173:../../libdaisy/src/hid/disp/display.h ****         currentY_ = (y >= Height()) ? Height() - 1 : y;
 2064              		.loc 6 173 44 view .LVU436
 2065 00a0 DA68     		ldr	r2, [r3, #12]
 2066 00a2 0199     		ldr	r1, [sp, #4]
 2067 00a4 8A42     		cmp	r2, r1
 2068 00a6 40F09A81 		bne	.L203
 2069 00aa 7F27     		movs	r7, #127
 2070              	.L149:
 174:../../libdaisy/src/hid/disp/display.h ****     }
 2071              		.loc 6 174 34 view .LVU437
 2072 00ac 9B68     		ldr	r3, [r3, #8]
 2073 00ae AE4A     		ldr	r2, .L212+4
 173:../../libdaisy/src/hid/disp/display.h ****         currentY_ = (y >= Height()) ? Height() - 1 : y;
ARM GAS  /tmp/ccpRs2bQ.s 			page 77


 2074              		.loc 6 173 19 view .LVU438
 2075 00b0 A780     		strh	r7, [r4, #4]	@ movhi
 174:../../libdaisy/src/hid/disp/display.h ****     }
 2076              		.loc 6 174 9 is_stmt 1 view .LVU439
 2077 00b2 9342     		cmp	r3, r2
 2078 00b4 0392     		str	r2, [sp, #12]
 2079 00b6 40F08A81 		bne	.L179
 174:../../libdaisy/src/hid/disp/display.h ****     }
 2080              		.loc 6 174 34 is_stmt 0 view .LVU440
 2081 00ba 4020     		movs	r0, #64
 2082              	.L151:
 174:../../libdaisy/src/hid/disp/display.h ****     }
 2083              		.loc 6 174 19 view .LVU441
 2084 00bc B042     		cmp	r0, r6
 2085 00be 06D8     		bhi	.L153
 174:../../libdaisy/src/hid/disp/display.h ****     }
 2086              		.loc 6 174 46 view .LVU442
 2087 00c0 2368     		ldr	r3, [r4]
 2088 00c2 039A     		ldr	r2, [sp, #12]
 2089 00c4 9B68     		ldr	r3, [r3, #8]
 2090 00c6 9342     		cmp	r3, r2
 2091 00c8 40F08481 		bne	.L204
 2092 00cc 3F26     		movs	r6, #63
 2093              	.L153:
 174:../../libdaisy/src/hid/disp/display.h ****     }
 2094              		.loc 6 174 46 view .LVU443
 2095 00ce 6B78     		ldrb	r3, [r5, #1]	@ zero_extendqisi2
 174:../../libdaisy/src/hid/disp/display.h ****     }
 2096              		.loc 6 174 19 view .LVU444
 2097 00d0 E680     		strh	r6, [r4, #6]	@ movhi
 2098              	.LVL155:
 174:../../libdaisy/src/hid/disp/display.h ****     }
 2099              		.loc 6 174 19 view .LVU445
 2100 00d2 0493     		str	r3, [sp, #16]
 2101              	.LBE1183:
 2102              	.LBE1182:
 2103              	.LBB1187:
 2104              	.LBB1188:
 443:../../libdaisy/src/hid/disp/display.h ****         {
 2105              		.loc 6 443 9 view .LVU446
 2106 00d4 98F80060 		ldrb	r6, [r8]	@ zero_extendqisi2
 2107 00d8 6B68     		ldr	r3, [r5, #4]
 2108 00da 95F800B0 		ldrb	fp, [r5]	@ zero_extendqisi2
 2109              	.LVL156:
 443:../../libdaisy/src/hid/disp/display.h ****         {
 2110              		.loc 6 443 9 view .LVU447
 2111 00de 0793     		str	r3, [sp, #28]
 2112              	.LVL157:
 443:../../libdaisy/src/hid/disp/display.h ****         {
 2113              		.loc 6 443 9 view .LVU448
 2114              	.LBE1188:
 2115              	.LBI1187:
 440:../../libdaisy/src/hid/disp/display.h ****     {
 2116              		.loc 6 440 10 is_stmt 1 view .LVU449
 2117              	.LBB1231:
 443:../../libdaisy/src/hid/disp/display.h ****         {
 2118              		.loc 6 443 9 view .LVU450
ARM GAS  /tmp/ccpRs2bQ.s 			page 78


 2119 00e0 002E     		cmp	r6, #0
 2120 00e2 00F0AD80 		beq	.L125
 2121              	.LVL158:
 2122              	.L155:
 2123              	.LBB1189:
 2124              	.LBI1189:
 396:../../libdaisy/src/hid/disp/display.h ****     {
 2125              		.loc 6 396 10 view .LVU451
 2126              	.LBB1190:
 401:../../libdaisy/src/hid/disp/display.h ****             return 0;
 2127              		.loc 6 401 20 is_stmt 0 view .LVU452
 2128 00e6 A6F12005 		sub	r5, r6, #32
 401:../../libdaisy/src/hid/disp/display.h ****             return 0;
 2129              		.loc 6 401 9 view .LVU453
 2130 00ea EBB2     		uxtb	r3, r5
 2131 00ec 5E2B     		cmp	r3, #94
 2132 00ee 00F23481 		bhi	.L159
 405:../../libdaisy/src/hid/disp/display.h ****            || Height() < (currentY_ + font.FontHeight))
 2133              		.loc 6 405 17 view .LVU454
 2134 00f2 2368     		ldr	r3, [r4]
 2135 00f4 019A     		ldr	r2, [sp, #4]
 2136 00f6 DB68     		ldr	r3, [r3, #12]
 2137 00f8 9342     		cmp	r3, r2
 2138 00fa 40F03081 		bne	.L205
 2139 00fe 8020     		movs	r0, #128
 2140              	.L158:
