ARM GAS  /tmp/ccroXSak.s 			page 1


   1              		.cpu cortex-m7
   2              		.eabi_attribute 28, 1
   3              		.eabi_attribute 20, 1
   4              		.eabi_attribute 21, 1
   5              		.eabi_attribute 23, 3
   6              		.eabi_attribute 24, 1
   7              		.eabi_attribute 25, 1
   8              		.eabi_attribute 26, 1
   9              		.eabi_attribute 30, 2
  10              		.eabi_attribute 34, 1
  11              		.eabi_attribute 18, 4
  12              		.file	"fm2.cpp"
  13              		.text
  14              	.Ltext0:
  15              		.cfi_sections	.debug_frame
  16              		.section	.text._ZN7daisysp10OscillatorD2Ev,"axG",%progbits,_ZN7daisysp10OscillatorD5Ev,comdat
  17              		.align	1
  18              		.p2align 2,,3
  19              		.weak	_ZN7daisysp10OscillatorD2Ev
  20              		.arch armv7e-m
  21              		.syntax unified
  22              		.thumb
  23              		.thumb_func
  24              		.fpu fpv5-d16
  26              	_ZN7daisysp10OscillatorD2Ev:
  27              	.LVL0:
  28              	.LFB2797:
  29              		.file 1 "../../DaisySP/Source/Synthesis/oscillator.h"
   1:../../DaisySP/Source/Synthesis/oscillator.h **** #pragma once
   2:../../DaisySP/Source/Synthesis/oscillator.h **** #ifndef DSY_OSCILLATOR_H
   3:../../DaisySP/Source/Synthesis/oscillator.h **** #define DSY_OSCILLATOR_H
   4:../../DaisySP/Source/Synthesis/oscillator.h **** #include <stdint.h>
   5:../../DaisySP/Source/Synthesis/oscillator.h **** #include "Utility/dsp.h"
   6:../../DaisySP/Source/Synthesis/oscillator.h **** #ifdef __cplusplus
   7:../../DaisySP/Source/Synthesis/oscillator.h **** 
   8:../../DaisySP/Source/Synthesis/oscillator.h **** namespace daisysp
   9:../../DaisySP/Source/Synthesis/oscillator.h **** {
  10:../../DaisySP/Source/Synthesis/oscillator.h **** /** Synthesis of several waveforms, including polyBLEP bandlimited waveforms.
  11:../../DaisySP/Source/Synthesis/oscillator.h **** */
  12:../../DaisySP/Source/Synthesis/oscillator.h **** class Oscillator
  13:../../DaisySP/Source/Synthesis/oscillator.h **** {
  14:../../DaisySP/Source/Synthesis/oscillator.h ****   public:
  15:../../DaisySP/Source/Synthesis/oscillator.h ****     Oscillator() {}
  16:../../DaisySP/Source/Synthesis/oscillator.h ****     ~Oscillator() {}
  30              		.loc 1 16 5 view -0
  31              		.cfi_startproc
  32              		@ args = 0, pretend = 0, frame = 0
  33              		@ frame_needed = 0, uses_anonymous_args = 0
  34              		@ link register save eliminated.
  35              		.loc 1 16 20 is_stmt 0 view .LVU1
  36 0000 7047     		bx	lr
  37              		.cfi_endproc
  38              	.LFE2797:
  40              		.weak	_ZN7daisysp10OscillatorD1Ev
  41              		.thumb_set _ZN7daisysp10OscillatorD1Ev,_ZN7daisysp10OscillatorD2Ev
  42 0002 00BF     		.section	.text._ZN7daisysp3Fm2D2Ev,"axG",%progbits,_ZN7daisysp3Fm2D5Ev,comdat
  43              		.align	1
ARM GAS  /tmp/ccroXSak.s 			page 2


  44              		.p2align 2,,3
  45              		.weak	_ZN7daisysp3Fm2D2Ev
  46              		.syntax unified
  47              		.thumb
  48              		.thumb_func
  49              		.fpu fpv5-d16
  51              	_ZN7daisysp3Fm2D2Ev:
  52              	.LVL1:
  53              	.LFB3267:
  54              		.file 2 "../../DaisySP/Source/Synthesis/fm2.h"
   1:../../DaisySP/Source/Synthesis/fm2.h **** #pragma once
   2:../../DaisySP/Source/Synthesis/fm2.h **** #ifndef DSY_FM2_H
   3:../../DaisySP/Source/Synthesis/fm2.h **** #define DSY_FM2_H
   4:../../DaisySP/Source/Synthesis/fm2.h **** 
   5:../../DaisySP/Source/Synthesis/fm2.h **** #include <stdint.h>
   6:../../DaisySP/Source/Synthesis/fm2.h **** #include "Synthesis/oscillator.h"
   7:../../DaisySP/Source/Synthesis/fm2.h **** #ifdef __cplusplus
   8:../../DaisySP/Source/Synthesis/fm2.h **** 
   9:../../DaisySP/Source/Synthesis/fm2.h **** namespace daisysp
  10:../../DaisySP/Source/Synthesis/fm2.h **** {
  11:../../DaisySP/Source/Synthesis/fm2.h **** /** Simple 2 operator FM synth voice.
  12:../../DaisySP/Source/Synthesis/fm2.h ****      
  13:../../DaisySP/Source/Synthesis/fm2.h ****     Date: November, 2020
  14:../../DaisySP/Source/Synthesis/fm2.h **** 
  15:../../DaisySP/Source/Synthesis/fm2.h ****     Author: Ben Sergentanis
  16:../../DaisySP/Source/Synthesis/fm2.h **** */
  17:../../DaisySP/Source/Synthesis/fm2.h **** 
  18:../../DaisySP/Source/Synthesis/fm2.h **** class Fm2
  19:../../DaisySP/Source/Synthesis/fm2.h **** {
  20:../../DaisySP/Source/Synthesis/fm2.h ****   public:
  21:../../DaisySP/Source/Synthesis/fm2.h ****     Fm2() {}
  22:../../DaisySP/Source/Synthesis/fm2.h ****     ~Fm2() {}
  55              		.loc 2 22 5 is_stmt 1 view -0
  56              		.cfi_startproc
  57              		@ args = 0, pretend = 0, frame = 0
  58              		@ frame_needed = 0, uses_anonymous_args = 0
  59              		@ link register save eliminated.
  60              	.LBB107:
  61              	.LBI107:
  62              		.loc 1 16 5 view .LVU3
  63              		.loc 1 16 5 is_stmt 0 view .LVU4
  64              	.LBE107:
  65              	.LBB108:
  66              	.LBI108:
  67              		.loc 1 16 5 is_stmt 1 view .LVU5
  68              		.loc 1 16 5 is_stmt 0 view .LVU6
  69              	.LBE108:
  70              		.loc 2 22 13 view .LVU7
  71 0000 7047     		bx	lr
  72              		.cfi_endproc
  73              	.LFE3267:
  75              		.weak	_ZN7daisysp3Fm2D1Ev
  76              		.thumb_set _ZN7daisysp3Fm2D1Ev,_ZN7daisysp3Fm2D2Ev
  77 0002 00BF     		.section	.text._ZN5daisy9DaisySeedD2Ev,"axG",%progbits,_ZN5daisy9DaisySeedD5Ev,comdat
  78              		.align	1
  79              		.p2align 2,,3
  80              		.weak	_ZN5daisy9DaisySeedD2Ev
ARM GAS  /tmp/ccroXSak.s 			page 3


  81              		.syntax unified
  82              		.thumb
  83              		.thumb_func
  84              		.fpu fpv5-d16
  86              	_ZN5daisy9DaisySeedD2Ev:
  87              	.LVL2:
  88              	.LFB4207:
  89              		.file 3 "../../libdaisy/src/daisy_seed.h"
   1:../../libdaisy/src/daisy_seed.h **** #pragma once
   2:../../libdaisy/src/daisy_seed.h **** #ifndef DSY_SEED_H
   3:../../libdaisy/src/daisy_seed.h **** #define DSY_SEED_H
   4:../../libdaisy/src/daisy_seed.h **** 
   5:../../libdaisy/src/daisy_seed.h **** #include "daisy.h"
   6:../../libdaisy/src/daisy_seed.h **** 
   7:../../libdaisy/src/daisy_seed.h **** //Uncomment this out if you're still using the rev2 hardware
   8:../../libdaisy/src/daisy_seed.h **** //#define SEED_REV2
   9:../../libdaisy/src/daisy_seed.h **** 
  10:../../libdaisy/src/daisy_seed.h **** namespace daisy
  11:../../libdaisy/src/daisy_seed.h **** {
  12:../../libdaisy/src/daisy_seed.h **** /**
  13:../../libdaisy/src/daisy_seed.h ****    @brief This is the higher-level interface for the Daisy board. \n 
  14:../../libdaisy/src/daisy_seed.h ****     All basic peripheral configuration/initialization is setup here. \n
  15:../../libdaisy/src/daisy_seed.h **** 
  16:../../libdaisy/src/daisy_seed.h ****    @ingroup boards
  17:../../libdaisy/src/daisy_seed.h **** */
  18:../../libdaisy/src/daisy_seed.h **** class DaisySeed
  19:../../libdaisy/src/daisy_seed.h **** {
  20:../../libdaisy/src/daisy_seed.h ****   public:
  21:../../libdaisy/src/daisy_seed.h ****     DaisySeed() {}
  22:../../libdaisy/src/daisy_seed.h ****     ~DaisySeed() {}
  90              		.loc 3 22 5 is_stmt 1 view -0
  91              		.cfi_startproc
  92              		@ args = 0, pretend = 0, frame = 0
  93              		@ frame_needed = 0, uses_anonymous_args = 0
  94              		@ link register save eliminated.
  95              	.LBB109:
  96              	.LBI109:
  97              		.file 4 "../../libdaisy/src/sys/system.h"
   1:../../libdaisy/src/sys/system.h **** #ifndef DSY_SYSTEM_H
   2:../../libdaisy/src/sys/system.h **** #define DSY_SYSTEM_H
   3:../../libdaisy/src/sys/system.h **** 
   4:../../libdaisy/src/sys/system.h **** #ifndef UNIT_TEST // for unit tests, a dummy implementation is provided below
   5:../../libdaisy/src/sys/system.h **** 
   6:../../libdaisy/src/sys/system.h **** #include <cstdint>
   7:../../libdaisy/src/sys/system.h **** #include "per/tim.h"
   8:../../libdaisy/src/sys/system.h **** 
   9:../../libdaisy/src/sys/system.h **** namespace daisy
  10:../../libdaisy/src/sys/system.h **** {
  11:../../libdaisy/src/sys/system.h **** /** A handle for interacting with the Core System. 
  12:../../libdaisy/src/sys/system.h ****  ** This includes the Clock tree, MPU, global DMA initialization,
  13:../../libdaisy/src/sys/system.h ****  ** cache handling, and any other necessary global initiailzation
  14:../../libdaisy/src/sys/system.h ****  **
  15:../../libdaisy/src/sys/system.h ****  ** @author shensley
  16:../../libdaisy/src/sys/system.h ****  ** @addtogroup system
  17:../../libdaisy/src/sys/system.h ****  */
  18:../../libdaisy/src/sys/system.h **** class System
  19:../../libdaisy/src/sys/system.h **** {
ARM GAS  /tmp/ccroXSak.s 			page 4


  20:../../libdaisy/src/sys/system.h ****   public:
  21:../../libdaisy/src/sys/system.h ****     /** Contains settings for initializing the System */
  22:../../libdaisy/src/sys/system.h ****     struct Config
  23:../../libdaisy/src/sys/system.h ****     {
  24:../../libdaisy/src/sys/system.h ****         /** Specifies the system clock frequency that feeds APB/AHB clocks, etc. */
  25:../../libdaisy/src/sys/system.h ****         enum class SysClkFreq
  26:../../libdaisy/src/sys/system.h ****         {
  27:../../libdaisy/src/sys/system.h ****             FREQ_400MHZ,
  28:../../libdaisy/src/sys/system.h ****             FREQ_480MHZ,
  29:../../libdaisy/src/sys/system.h ****         };
  30:../../libdaisy/src/sys/system.h **** 
  31:../../libdaisy/src/sys/system.h ****         /** Method to call on the struct to set to defaults
  32:../../libdaisy/src/sys/system.h ****          ** CPU Freq set to 400MHz
  33:../../libdaisy/src/sys/system.h ****          ** Cache Enabled 
  34:../../libdaisy/src/sys/system.h ****          ** */
  35:../../libdaisy/src/sys/system.h ****         void Defaults()
  36:../../libdaisy/src/sys/system.h ****         {
  37:../../libdaisy/src/sys/system.h ****             cpu_freq   = SysClkFreq::FREQ_400MHZ;
  38:../../libdaisy/src/sys/system.h ****             use_dcache = true;
  39:../../libdaisy/src/sys/system.h ****             use_icache = true;
  40:../../libdaisy/src/sys/system.h ****         }
  41:../../libdaisy/src/sys/system.h **** 
  42:../../libdaisy/src/sys/system.h ****         /** Method to call on the struct to set to boost mode:
  43:../../libdaisy/src/sys/system.h ****          ** CPU Freq set to 480MHz
  44:../../libdaisy/src/sys/system.h ****          ** Cache Enabled 
  45:../../libdaisy/src/sys/system.h ****          ** */
  46:../../libdaisy/src/sys/system.h ****         void Boost()
  47:../../libdaisy/src/sys/system.h ****         {
  48:../../libdaisy/src/sys/system.h ****             cpu_freq   = SysClkFreq::FREQ_480MHZ;
  49:../../libdaisy/src/sys/system.h ****             use_dcache = true;
  50:../../libdaisy/src/sys/system.h ****             use_icache = true;
  51:../../libdaisy/src/sys/system.h ****         }
  52:../../libdaisy/src/sys/system.h **** 
  53:../../libdaisy/src/sys/system.h ****         SysClkFreq cpu_freq;
  54:../../libdaisy/src/sys/system.h ****         bool       use_dcache;
  55:../../libdaisy/src/sys/system.h ****         bool       use_icache;
  56:../../libdaisy/src/sys/system.h ****     };
  57:../../libdaisy/src/sys/system.h **** 
  58:../../libdaisy/src/sys/system.h ****     System() {}
  59:../../libdaisy/src/sys/system.h ****     ~System() {}
  98              		.loc 4 59 5 view .LVU9
  99              		.loc 4 59 5 is_stmt 0 view .LVU10
 100              	.LBE109:
 101              	.LBB110:
 102              	.LBI110:
 103              		.file 5 "../../libdaisy/src/hid/usb.h"
   1:../../libdaisy/src/hid/usb.h **** #pragma once
   2:../../libdaisy/src/hid/usb.h **** #ifndef DSY_HID_USB_H
   3:../../libdaisy/src/hid/usb.h **** #define DSY_HID_USB_H
   4:../../libdaisy/src/hid/usb.h **** #include <stdint.h>
   5:../../libdaisy/src/hid/usb.h **** #include <stdlib.h>
   6:../../libdaisy/src/hid/usb.h **** 
   7:../../libdaisy/src/hid/usb.h **** namespace daisy
   8:../../libdaisy/src/hid/usb.h **** /** @addtogroup externals
   9:../../libdaisy/src/hid/usb.h ****     @{
  10:../../libdaisy/src/hid/usb.h **** */
  11:../../libdaisy/src/hid/usb.h **** 
ARM GAS  /tmp/ccroXSak.s 			page 5


  12:../../libdaisy/src/hid/usb.h **** {
  13:../../libdaisy/src/hid/usb.h **** /** 
  14:../../libdaisy/src/hid/usb.h ****     @brief Interface for initializing and using the USB Peripherals on the daisy
  15:../../libdaisy/src/hid/usb.h ****     @author Stephen Hensley
  16:../../libdaisy/src/hid/usb.h ****     @date December 2019
  17:../../libdaisy/src/hid/usb.h **** */
  18:../../libdaisy/src/hid/usb.h **** class UsbHandle
  19:../../libdaisy/src/hid/usb.h **** {
  20:../../libdaisy/src/hid/usb.h ****   public:
  21:../../libdaisy/src/hid/usb.h ****     /** Return values for USBHandle Functions */
  22:../../libdaisy/src/hid/usb.h ****     enum class Result
  23:../../libdaisy/src/hid/usb.h ****     {
  24:../../libdaisy/src/hid/usb.h ****         OK,
  25:../../libdaisy/src/hid/usb.h ****         ERR,
  26:../../libdaisy/src/hid/usb.h ****     };
  27:../../libdaisy/src/hid/usb.h **** 
  28:../../libdaisy/src/hid/usb.h ****     /** Specified which of the two USB Peripherals to initialize. */
  29:../../libdaisy/src/hid/usb.h ****     enum UsbPeriph
  30:../../libdaisy/src/hid/usb.h ****     {
  31:../../libdaisy/src/hid/usb.h ****         FS_INTERNAL, /**< Internal pin */
  32:../../libdaisy/src/hid/usb.h ****         FS_EXTERNAL, /**< FS External D+ pin is Pin 38 (GPIO32). FS External D- pin is Pin 37 (GPIO
  33:../../libdaisy/src/hid/usb.h ****         FS_BOTH,     /**< Both */
  34:../../libdaisy/src/hid/usb.h ****     };
  35:../../libdaisy/src/hid/usb.h **** 
  36:../../libdaisy/src/hid/usb.h **** 
  37:../../libdaisy/src/hid/usb.h ****     /** Function called upon reception of a buffer */
  38:../../libdaisy/src/hid/usb.h ****     typedef void (*ReceiveCallback)(uint8_t* buff, uint32_t* len);
  39:../../libdaisy/src/hid/usb.h **** 
  40:../../libdaisy/src/hid/usb.h ****     UsbHandle() {}
  41:../../libdaisy/src/hid/usb.h **** 
  42:../../libdaisy/src/hid/usb.h ****     ~UsbHandle() {}
 104              		.loc 5 42 5 is_stmt 1 view .LVU11
 105              		.loc 5 42 5 is_stmt 0 view .LVU12
 106              	.LBE110:
 107              	.LBB111:
 108              	.LBI111:
 109              		.file 6 "../../libdaisy/src/per/adc.h"
   1:../../libdaisy/src/per/adc.h **** #pragma once
   2:../../libdaisy/src/per/adc.h **** #ifndef DSY_ADC_H
   3:../../libdaisy/src/per/adc.h **** #define DSY_ADC_H /**< Macro */
   4:../../libdaisy/src/per/adc.h **** #include <stdint.h>
   5:../../libdaisy/src/per/adc.h **** #include <stdlib.h>
   6:../../libdaisy/src/per/adc.h **** #include "daisy_core.h"
   7:../../libdaisy/src/per/adc.h **** #include "per/gpio.h"
   8:../../libdaisy/src/per/adc.h **** 
   9:../../libdaisy/src/per/adc.h **** #define DSY_ADC_MAX_CHANNELS 14 /**< Maximum number of ADC channels */
  10:../../libdaisy/src/per/adc.h **** 
  11:../../libdaisy/src/per/adc.h **** namespace daisy
  12:../../libdaisy/src/per/adc.h **** {
  13:../../libdaisy/src/per/adc.h **** /** @addtogroup analog_digital_conversion
  14:../../libdaisy/src/per/adc.h ****     @{
  15:../../libdaisy/src/per/adc.h **** */
  16:../../libdaisy/src/per/adc.h **** 
  17:../../libdaisy/src/per/adc.h **** /* While there may not be many configuration options here,
  18:../../libdaisy/src/per/adc.h **** using a struct like this allows us to add more configuration
  19:../../libdaisy/src/per/adc.h **** later without breaking existing functionality.
  20:../../libdaisy/src/per/adc.h **** */
ARM GAS  /tmp/ccroXSak.s 			page 6


  21:../../libdaisy/src/per/adc.h **** 
  22:../../libdaisy/src/per/adc.h **** /** Configuration Structure for a given channel */
  23:../../libdaisy/src/per/adc.h **** struct AdcChannelConfig
  24:../../libdaisy/src/per/adc.h **** {
  25:../../libdaisy/src/per/adc.h ****     /** Which pin to use for multiplexing */
  26:../../libdaisy/src/per/adc.h ****     enum MuxPin
  27:../../libdaisy/src/per/adc.h ****     {
  28:../../libdaisy/src/per/adc.h ****         MUX_SEL_0,    /**< & */
  29:../../libdaisy/src/per/adc.h ****         MUX_SEL_1,    /**< & */
  30:../../libdaisy/src/per/adc.h ****         MUX_SEL_2,    /**< & */
  31:../../libdaisy/src/per/adc.h ****         MUX_SEL_LAST, /**< & */
  32:../../libdaisy/src/per/adc.h ****     };
  33:../../libdaisy/src/per/adc.h **** 
  34:../../libdaisy/src/per/adc.h ****     /** Initializes a single ADC pin as an ADC. 
  35:../../libdaisy/src/per/adc.h ****     \param pin Pin to init.
  36:../../libdaisy/src/per/adc.h ****      */
  37:../../libdaisy/src/per/adc.h ****     void InitSingle(dsy_gpio_pin pin);
  38:../../libdaisy/src/per/adc.h **** 
  39:../../libdaisy/src/per/adc.h ****     /** 
  40:../../libdaisy/src/per/adc.h ****     Initializes a single ADC pin as a Multiplexed ADC.
  41:../../libdaisy/src/per/adc.h ****     Requires a CD405X Multiplexer connected to the pin.
  42:../../libdaisy/src/per/adc.h ****     You only need to supply the mux pins that are required,
  43:../../libdaisy/src/per/adc.h ****     e.g. a 4052 mux would only require mux_0 and mux_1.
  44:../../libdaisy/src/per/adc.h ****     Internal Callbacks handle the pin addressing.
  45:../../libdaisy/src/per/adc.h ****     \param mux_channels must be 1-8
  46:../../libdaisy/src/per/adc.h ****     \param mux_0 First mux pin
  47:../../libdaisy/src/per/adc.h ****     \param mux_1 Second mux pin
  48:../../libdaisy/src/per/adc.h ****     \param mux_2 Third mux pin
  49:../../libdaisy/src/per/adc.h ****     \param adc_pin &
  50:../../libdaisy/src/per/adc.h ****     */
  51:../../libdaisy/src/per/adc.h ****     void InitMux(dsy_gpio_pin adc_pin,
  52:../../libdaisy/src/per/adc.h ****                  size_t       mux_channels,
  53:../../libdaisy/src/per/adc.h ****                  dsy_gpio_pin mux_0,
  54:../../libdaisy/src/per/adc.h ****                  dsy_gpio_pin mux_1 = {DSY_GPIOX, 0},
  55:../../libdaisy/src/per/adc.h ****                  dsy_gpio_pin mux_2 = {DSY_GPIOX, 0});
  56:../../libdaisy/src/per/adc.h **** 
  57:../../libdaisy/src/per/adc.h ****     dsy_gpio pin_;                   /**< & */
  58:../../libdaisy/src/per/adc.h ****     dsy_gpio mux_pin_[MUX_SEL_LAST]; /**< & */
  59:../../libdaisy/src/per/adc.h ****     uint8_t  mux_channels_;          /**< & */
  60:../../libdaisy/src/per/adc.h **** };
  61:../../libdaisy/src/per/adc.h **** 
  62:../../libdaisy/src/per/adc.h **** /**
  63:../../libdaisy/src/per/adc.h ****    Handler for analog to digital conversion
  64:../../libdaisy/src/per/adc.h **** */
  65:../../libdaisy/src/per/adc.h **** class AdcHandle
  66:../../libdaisy/src/per/adc.h **** {
  67:../../libdaisy/src/per/adc.h ****   public:
  68:../../libdaisy/src/per/adc.h ****     /** Supported oversampling amounts */
  69:../../libdaisy/src/per/adc.h ****     enum OverSampling
  70:../../libdaisy/src/per/adc.h ****     {
  71:../../libdaisy/src/per/adc.h ****         OVS_NONE, /**< & */
  72:../../libdaisy/src/per/adc.h ****         OVS_4,    /**< & */
  73:../../libdaisy/src/per/adc.h ****         OVS_8,    /**< & */
  74:../../libdaisy/src/per/adc.h ****         OVS_16,   /**< & */
  75:../../libdaisy/src/per/adc.h ****         OVS_32,   /**< & */
  76:../../libdaisy/src/per/adc.h ****         OVS_64,   /**< & */
  77:../../libdaisy/src/per/adc.h ****         OVS_128,  /**< & */
ARM GAS  /tmp/ccroXSak.s 			page 7


  78:../../libdaisy/src/per/adc.h ****         OVS_256,  /**< & */
  79:../../libdaisy/src/per/adc.h ****         OVS_512,  /**< & */
  80:../../libdaisy/src/per/adc.h ****         OVS_1024, /**< & */
  81:../../libdaisy/src/per/adc.h ****         OVS_LAST, /**< & */
  82:../../libdaisy/src/per/adc.h ****     };
  83:../../libdaisy/src/per/adc.h **** 
  84:../../libdaisy/src/per/adc.h ****     AdcHandle() {}
  85:../../libdaisy/src/per/adc.h ****     ~AdcHandle() {}
 110              		.loc 6 85 5 is_stmt 1 view .LVU13
 111              		.loc 6 85 5 is_stmt 0 view .LVU14
 112              	.LBE111:
 113              	.LBB112:
 114              	.LBI112:
 115              		.file 7 "../../libdaisy/src/hid/audio.h"
   1:../../libdaisy/src/hid/audio.h **** #ifndef DSY_AUDIO_H
   2:../../libdaisy/src/hid/audio.h **** #define DSY_AUDIO_H /**< & */
   3:../../libdaisy/src/hid/audio.h **** 
   4:../../libdaisy/src/hid/audio.h **** #include "per/sai.h"
   5:../../libdaisy/src/hid/audio.h **** 
   6:../../libdaisy/src/hid/audio.h **** namespace daisy
   7:../../libdaisy/src/hid/audio.h **** {
   8:../../libdaisy/src/hid/audio.h **** class AudioHandle
   9:../../libdaisy/src/hid/audio.h **** {
  10:../../libdaisy/src/hid/audio.h ****   public:
  11:../../libdaisy/src/hid/audio.h ****     /** Manually configurable details about the Audio Engine */
  12:../../libdaisy/src/hid/audio.h ****     /** TODO: Figure out how to get samplerate in here. */
  13:../../libdaisy/src/hid/audio.h ****     struct Config
  14:../../libdaisy/src/hid/audio.h ****     {
  15:../../libdaisy/src/hid/audio.h ****         size_t                        blocksize;
  16:../../libdaisy/src/hid/audio.h ****         SaiHandle::Config::SampleRate samplerate;
  17:../../libdaisy/src/hid/audio.h ****         float                         postgain;
  18:../../libdaisy/src/hid/audio.h ****     };
  19:../../libdaisy/src/hid/audio.h **** 
  20:../../libdaisy/src/hid/audio.h ****     enum class Result
  21:../../libdaisy/src/hid/audio.h ****     {
  22:../../libdaisy/src/hid/audio.h ****         OK,
  23:../../libdaisy/src/hid/audio.h ****         ERR,
  24:../../libdaisy/src/hid/audio.h ****     };
  25:../../libdaisy/src/hid/audio.h **** 
  26:../../libdaisy/src/hid/audio.h ****     /** Non-Interleaving input buffer
  27:../../libdaisy/src/hid/audio.h ****      * Buffer arranged by float[chn][sample] 
  28:../../libdaisy/src/hid/audio.h ****      * const so that the user can't modify the input
  29:../../libdaisy/src/hid/audio.h ****     */
  30:../../libdaisy/src/hid/audio.h ****     typedef const float* const* InputBuffer;
  31:../../libdaisy/src/hid/audio.h **** 
  32:../../libdaisy/src/hid/audio.h ****     /** Non-Interleaving output buffer
  33:../../libdaisy/src/hid/audio.h ****      * Arranged by float[chn][sample] 
  34:../../libdaisy/src/hid/audio.h ****     */
  35:../../libdaisy/src/hid/audio.h ****     typedef float** OutputBuffer;
  36:../../libdaisy/src/hid/audio.h **** 
  37:../../libdaisy/src/hid/audio.h ****     /** Type for a Non-Interleaving audio callback 
  38:../../libdaisy/src/hid/audio.h ****    * Non-Interleaving audio callbacks in daisy will be of this type
  39:../../libdaisy/src/hid/audio.h ****   */
  40:../../libdaisy/src/hid/audio.h ****     typedef void (*AudioCallback)(InputBuffer  in,
  41:../../libdaisy/src/hid/audio.h ****                                   OutputBuffer out,
  42:../../libdaisy/src/hid/audio.h ****                                   size_t       size);
  43:../../libdaisy/src/hid/audio.h **** 
ARM GAS  /tmp/ccroXSak.s 			page 8


  44:../../libdaisy/src/hid/audio.h ****     /** Interleaving Input buffer
  45:../../libdaisy/src/hid/audio.h ****      ** audio is prepared as { L0, R0, L1, R1, . . . LN, RN }]
  46:../../libdaisy/src/hid/audio.h ****      ** this is const, as the user shouldn't modify it
  47:../../libdaisy/src/hid/audio.h ****     */
  48:../../libdaisy/src/hid/audio.h ****     typedef const float* InterleavingInputBuffer;
  49:../../libdaisy/src/hid/audio.h **** 
  50:../../libdaisy/src/hid/audio.h ****     /** Interleaving Output buffer 
  51:../../libdaisy/src/hid/audio.h ****      ** audio is prepared as { L0, R0, L1, R1, . . . LN, RN }
  52:../../libdaisy/src/hid/audio.h ****     */
  53:../../libdaisy/src/hid/audio.h ****     typedef float* InterleavingOutputBuffer;
  54:../../libdaisy/src/hid/audio.h **** 
  55:../../libdaisy/src/hid/audio.h ****     /** Interleaving Audio Callback 
  56:../../libdaisy/src/hid/audio.h ****    * Interleaving audio callbacks in daisy must be of this type
  57:../../libdaisy/src/hid/audio.h ****   */
  58:../../libdaisy/src/hid/audio.h ****     typedef void (*InterleavingAudioCallback)(InterleavingInputBuffer  in,
  59:../../libdaisy/src/hid/audio.h ****                                               InterleavingOutputBuffer out,
  60:../../libdaisy/src/hid/audio.h ****                                               size_t                   size);
  61:../../libdaisy/src/hid/audio.h **** 
  62:../../libdaisy/src/hid/audio.h ****     AudioHandle() : pimpl_(nullptr) {}
  63:../../libdaisy/src/hid/audio.h ****     ~AudioHandle() {}
 116              		.loc 7 63 5 is_stmt 1 view .LVU15
 117              		.loc 7 63 5 is_stmt 0 view .LVU16
 118              	.LBE112:
 119              		.loc 3 22 19 view .LVU17
 120 0000 7047     		bx	lr
 121              		.cfi_endproc
 122              	.LFE4207:
 124              		.weak	_ZN5daisy9DaisySeedD1Ev
 125              		.thumb_set _ZN5daisy9DaisySeedD1Ev,_ZN5daisy9DaisySeedD2Ev
 126 0002 00BF     		.section	.text._ZL13AudioCallbackPKfPfj,"ax",%progbits
 127              		.align	1
 128              		.p2align 2,,3
 129              		.syntax unified
 130              		.thumb
 131              		.thumb_func
 132              		.fpu fpv5-d16
 134              	_ZL13AudioCallbackPKfPfj:
 135              	.LVL3:
 136              	.LFB4212:
 137              		.file 8 "fm2.cpp"
   1:fm2.cpp       **** #include "daisysp.h"
   2:fm2.cpp       **** #include "daisy_seed.h"
   3:fm2.cpp       **** 
   4:fm2.cpp       **** using namespace daisysp;
   5:fm2.cpp       **** using namespace daisy;
   6:fm2.cpp       **** 
   7:fm2.cpp       **** static DaisySeed seed;
   8:fm2.cpp       **** Fm2              osc;
   9:fm2.cpp       **** Oscillator       lfo1, lfo2, lfo3;
  10:fm2.cpp       **** 
  11:fm2.cpp       **** static void AudioCallback(AudioHandle::InterleavingInputBuffer  in,
  12:fm2.cpp       ****                           AudioHandle::InterleavingOutputBuffer out,
  13:fm2.cpp       ****                           size_t                                size)
  14:fm2.cpp       **** {
 138              		.loc 8 14 1 is_stmt 1 view -0
 139              		.cfi_startproc
 140              		@ args = 0, pretend = 0, frame = 0
ARM GAS  /tmp/ccroXSak.s 			page 9


 141              		@ frame_needed = 0, uses_anonymous_args = 0
  15:fm2.cpp       ****     float output;
 142              		.loc 8 15 5 view .LVU19
  16:fm2.cpp       ****     for(size_t i = 0; i < size; i += 2)
 143              		.loc 8 16 5 view .LVU20
 144              	.LBB113:
 145              		.loc 8 16 25 view .LVU21
 146 0000 002A     		cmp	r2, #0
 147 0002 40D0     		beq	.L13
 148 0004 013A     		subs	r2, r2, #1
 149              	.LVL4:
 150              		.loc 8 16 25 is_stmt 0 view .LVU22
 151              	.LBE113:
  14:fm2.cpp       ****     float output;
 152              		.loc 8 14 1 view .LVU23
 153 0006 70B5     		push	{r4, r5, r6, lr}
 154              		.cfi_def_cfa_offset 16
 155              		.cfi_offset 4, -16
 156              		.cfi_offset 5, -12
 157              		.cfi_offset 6, -8
 158              		.cfi_offset 14, -4
 159 0008 0C46     		mov	r4, r1
 160              	.LBB117:
 161              		.loc 8 16 16 view .LVU24
 162 000a 0025     		movs	r5, #0
 163 000c 22F00106 		bic	r6, r2, #1
 164              	.LBE117:
  14:fm2.cpp       ****     float output;
 165              		.loc 8 14 1 view .LVU25
 166 0010 2DED048B 		vpush.64	{d8, d9}
 167              		.cfi_def_cfa_offset 32
 168              		.cfi_offset 80, -32
 169              		.cfi_offset 81, -28
 170              		.cfi_offset 82, -24
 171              		.cfi_offset 83, -20
 172              	.LVL5:
 173              	.L7:
 174              	.LBB118:
 175              	.LBB114:
  17:fm2.cpp       ****     {
  18:fm2.cpp       ****         float lfo1out = lfo1.Process();
 176              		.loc 8 18 9 is_stmt 1 discriminator 2 view .LVU26
 177              		.loc 8 18 37 is_stmt 0 discriminator 2 view .LVU27
 178 0014 1C48     		ldr	r0, .L16
 179 0016 FFF7FEFF 		bl	_ZN7daisysp10Oscillator7ProcessEv
 180              	.LVL6:
 181 001a B0EE409A 		vmov.f32	s18, s0
 182              	.LVL7:
  19:fm2.cpp       ****         float lfo2out = lfo2.Process();
 183              		.loc 8 19 9 is_stmt 1 discriminator 2 view .LVU28
 184              		.loc 8 19 37 is_stmt 0 discriminator 2 view .LVU29
 185 001e 1B48     		ldr	r0, .L16+4
 186 0020 FFF7FEFF 		bl	_ZN7daisysp10Oscillator7ProcessEv
 187              	.LVL8:
  20:fm2.cpp       ****         float lfo3out = lfo3.Process();
 188              		.loc 8 20 37 discriminator 2 view .LVU30
 189 0024 1A48     		ldr	r0, .L16+8
ARM GAS  /tmp/ccroXSak.s 			page 10


  19:fm2.cpp       ****         float lfo2out = lfo2.Process();
 190              		.loc 8 19 37 discriminator 2 view .LVU31
 191 0026 F0EE408A 		vmov.f32	s17, s0
 192              	.LVL9:
 193              		.loc 8 20 9 is_stmt 1 discriminator 2 view .LVU32
 194              		.loc 8 20 37 is_stmt 0 discriminator 2 view .LVU33
 195 002a FFF7FEFF 		bl	_ZN7daisysp10Oscillator7ProcessEv
 196              	.LVL10:
  21:fm2.cpp       **** 
  22:fm2.cpp       ****         osc.SetIndex(lfo1out);
 197              		.loc 8 22 21 discriminator 2 view .LVU34
 198 002e 1948     		ldr	r0, .L16+12
  20:fm2.cpp       ****         float lfo3out = lfo3.Process();
 199              		.loc 8 20 37 discriminator 2 view .LVU35
 200 0030 B0EE408A 		vmov.f32	s16, s0
 201              		.loc 8 22 21 discriminator 2 view .LVU36
 202 0034 B0EE490A 		vmov.f32	s0, s18
 203              	.LVL11:
 204              		.loc 8 22 9 is_stmt 1 discriminator 2 view .LVU37
 205              		.loc 8 22 21 is_stmt 0 discriminator 2 view .LVU38
 206 0038 FFF7FEFF 		bl	_ZN7daisysp3Fm28SetIndexEf
 207              	.LVL12:
  23:fm2.cpp       ****         osc.SetRatio(lfo2out + 3);
 208              		.loc 8 23 9 is_stmt 1 discriminator 2 view .LVU39
 209              		.loc 8 23 21 is_stmt 0 discriminator 2 view .LVU40
 210 003c B0EE080A 		vmov.f32	s0, #3.0e+0
 211 0040 1448     		ldr	r0, .L16+12
 212 0042 38EE800A 		vadd.f32	s0, s17, s0
 213 0046 FFF7FEFF 		bl	_ZN7daisysp3Fm28SetRatioEf
 214              	.LVL13:
  24:fm2.cpp       ****         osc.SetFrequency((lfo3out + 1) * 220.f + 440.f);
 215              		.loc 8 24 9 is_stmt 1 discriminator 2 view .LVU41
 216              		.loc 8 24 35 is_stmt 0 discriminator 2 view .LVU42
 217 004a B7EE007A 		vmov.f32	s14, #1.0e+0
 218              		.loc 8 24 25 discriminator 2 view .LVU43
 219 004e DFED127A 		vldr.32	s15, .L16+16
 220 0052 9FED120A 		vldr.32	s0, .L16+20
 221              		.loc 8 24 35 discriminator 2 view .LVU44
 222 0056 38EE078A 		vadd.f32	s16, s16, s14
 223              	.LVL14:
 224              		.loc 8 24 25 discriminator 2 view .LVU45
 225 005a 0E48     		ldr	r0, .L16+12
 226 005c A8EE270A 		vfma.f32	s0, s16, s15
 227 0060 FFF7FEFF 		bl	_ZN7daisysp3Fm212SetFrequencyEf
 228              	.LVL15:
  25:fm2.cpp       **** 
  26:fm2.cpp       ****         output = osc.Process();
 229              		.loc 8 26 9 is_stmt 1 discriminator 2 view .LVU46
 230              		.loc 8 26 29 is_stmt 0 discriminator 2 view .LVU47
 231 0064 0B48     		ldr	r0, .L16+12
 232 0066 FFF7FEFF 		bl	_ZN7daisysp3Fm27ProcessEv
 233              	.LVL16:
  27:fm2.cpp       ****         out[i] = out[i + 1] = output;
 234              		.loc 8 27 9 is_stmt 1 discriminator 2 view .LVU48
 235              		.loc 8 27 16 is_stmt 0 discriminator 2 view .LVU49
 236 006a 2246     		mov	r2, r4
 237              	.LBE114:
ARM GAS  /tmp/ccroXSak.s 			page 11


  16:fm2.cpp       ****     {
 238              		.loc 8 16 25 discriminator 2 view .LVU50
 239 006c B542     		cmp	r5, r6
 240              	.LBB115:
 241              		.loc 8 27 29 discriminator 2 view .LVU51
 242 006e 84ED010A 		vstr.32	s0, [r4, #4]
 243              	.LBE115:
  16:fm2.cpp       ****     {
 244              		.loc 8 16 25 discriminator 2 view .LVU52
 245 0072 05F10205 		add	r5, r5, #2
 246              	.LVL17:
 247              	.LBB116:
 248              		.loc 8 27 16 discriminator 2 view .LVU53
 249 0076 04F10804 		add	r4, r4, #8
 250 007a 82ED000A 		vstr.32	s0, [r2]
 251              	.LBE116:
  16:fm2.cpp       ****     {
 252              		.loc 8 16 5 is_stmt 1 discriminator 2 view .LVU54
 253              	.LVL18:
  16:fm2.cpp       ****     {
 254              		.loc 8 16 25 discriminator 2 view .LVU55
 255 007e C9D1     		bne	.L7
 256              	.LBE118:
  28:fm2.cpp       ****     }
  29:fm2.cpp       **** }
 257              		.loc 8 29 1 is_stmt 0 view .LVU56
 258 0080 BDEC048B 		vldm	sp!, {d8-d9}
 259              		.cfi_restore 82
 260              		.cfi_restore 83
 261              		.cfi_restore 80
 262              		.cfi_restore 81
 263              		.cfi_def_cfa_offset 16
 264              	.LVL19:
 265              		.loc 8 29 1 view .LVU57
 266 0084 70BD     		pop	{r4, r5, r6, pc}
 267              	.LVL20:
 268              	.L13:
 269              		.cfi_def_cfa_offset 0
 270              		.cfi_restore 4
 271              		.cfi_restore 5
 272              		.cfi_restore 6
 273              		.cfi_restore 14
 274              		.loc 8 29 1 view .LVU58
 275 0086 7047     		bx	lr
 276              	.L17:
 277              		.align	2
 278              	.L16:
 279 0088 00000000 		.word	.LANCHOR0
 280 008c 00000000 		.word	.LANCHOR1
 281 0090 00000000 		.word	.LANCHOR2
 282 0094 00000000 		.word	.LANCHOR3
 283 0098 00005C43 		.word	1130102784
 284 009c 0000DC43 		.word	1138491392
 285              		.cfi_endproc
 286              	.LFE4212:
 288              		.section	.text.startup.main,"ax",%progbits
 289              		.align	1
ARM GAS  /tmp/ccroXSak.s 			page 12


 290              		.p2align 2,,3
 291              		.global	main
 292              		.syntax unified
 293              		.thumb
 294              		.thumb_func
 295              		.fpu fpv5-d16
 297              	main:
 298              	.LFB4213:
  30:fm2.cpp       **** 
  31:fm2.cpp       **** int main(void)
  32:fm2.cpp       **** {
 299              		.loc 8 32 1 is_stmt 1 view -0
 300              		.cfi_startproc
 301              		@ args = 0, pretend = 0, frame = 0
 302              		@ frame_needed = 0, uses_anonymous_args = 0
  33:fm2.cpp       ****     // initialize seed hardware and daisysp modules
  34:fm2.cpp       ****     float sample_rate;
 303              		.loc 8 34 5 view .LVU60
  35:fm2.cpp       ****     seed.Configure();
 304              		.loc 8 35 5 view .LVU61
  32:fm2.cpp       ****     // initialize seed hardware and daisysp modules
 305              		.loc 8 32 1 is_stmt 0 view .LVU62
 306 0000 2DE9F047 		push	{r4, r5, r6, r7, r8, r9, r10, lr}
 307              		.cfi_def_cfa_offset 32
 308              		.cfi_offset 4, -32
 309              		.cfi_offset 5, -28
 310              		.cfi_offset 6, -24
 311              		.cfi_offset 7, -20
 312              		.cfi_offset 8, -16
 313              		.cfi_offset 9, -12
 314              		.cfi_offset 10, -8
 315              		.cfi_offset 14, -4
 316              		.loc 8 35 19 view .LVU63
 317 0004 4748     		ldr	r0, .L21
 318              	.LBB119:
 319              	.LBB120:
  17:../../DaisySP/Source/Synthesis/oscillator.h ****     /** Choices for output waveforms, POLYBLEP are appropriately labeled. Others are naive forms.
  18:../../DaisySP/Source/Synthesis/oscillator.h ****     */
  19:../../DaisySP/Source/Synthesis/oscillator.h ****     enum
  20:../../DaisySP/Source/Synthesis/oscillator.h ****     {
  21:../../DaisySP/Source/Synthesis/oscillator.h ****         WAVE_SIN,
  22:../../DaisySP/Source/Synthesis/oscillator.h ****         WAVE_TRI,
  23:../../DaisySP/Source/Synthesis/oscillator.h ****         WAVE_SAW,
  24:../../DaisySP/Source/Synthesis/oscillator.h ****         WAVE_RAMP,
  25:../../DaisySP/Source/Synthesis/oscillator.h ****         WAVE_SQUARE,
  26:../../DaisySP/Source/Synthesis/oscillator.h ****         WAVE_POLYBLEP_TRI,
  27:../../DaisySP/Source/Synthesis/oscillator.h ****         WAVE_POLYBLEP_SAW,
  28:../../DaisySP/Source/Synthesis/oscillator.h ****         WAVE_POLYBLEP_SQUARE,
  29:../../DaisySP/Source/Synthesis/oscillator.h ****         WAVE_LAST,
  30:../../DaisySP/Source/Synthesis/oscillator.h ****     };
  31:../../DaisySP/Source/Synthesis/oscillator.h **** 
  32:../../DaisySP/Source/Synthesis/oscillator.h **** 
  33:../../DaisySP/Source/Synthesis/oscillator.h ****     /** Initializes the Oscillator
  34:../../DaisySP/Source/Synthesis/oscillator.h **** 
  35:../../DaisySP/Source/Synthesis/oscillator.h ****         \param sample_rate - sample rate of the audio engine being run, and the frequency that the 
  36:../../DaisySP/Source/Synthesis/oscillator.h **** 
  37:../../DaisySP/Source/Synthesis/oscillator.h ****         Defaults:
ARM GAS  /tmp/ccroXSak.s 			page 13


  38:../../DaisySP/Source/Synthesis/oscillator.h ****         - freq_ = 100 Hz
  39:../../DaisySP/Source/Synthesis/oscillator.h ****         - amp_ = 0.5
  40:../../DaisySP/Source/Synthesis/oscillator.h ****         - waveform_ = sine wave.
  41:../../DaisySP/Source/Synthesis/oscillator.h ****     */
  42:../../DaisySP/Source/Synthesis/oscillator.h ****     void Init(float sample_rate)
  43:../../DaisySP/Source/Synthesis/oscillator.h ****     {
  44:../../DaisySP/Source/Synthesis/oscillator.h ****         sr_        = sample_rate;
  45:../../DaisySP/Source/Synthesis/oscillator.h ****         sr_recip_  = 1.0f / sample_rate;
  46:../../DaisySP/Source/Synthesis/oscillator.h ****         freq_      = 100.0f;
  47:../../DaisySP/Source/Synthesis/oscillator.h ****         amp_       = 0.5f;
  48:../../DaisySP/Source/Synthesis/oscillator.h ****         phase_     = 0.0f;
 320              		.loc 1 48 20 view .LVU64
 321 0006 4FF00009 		mov	r9, #0
  44:../../DaisySP/Source/Synthesis/oscillator.h ****         sr_recip_  = 1.0f / sample_rate;
 322              		.loc 1 44 20 view .LVU65
 323 000a 474E     		ldr	r6, .L21+4
  49:../../DaisySP/Source/Synthesis/oscillator.h ****         phase_inc_ = CalcPhaseInc(freq_);
  50:../../DaisySP/Source/Synthesis/oscillator.h ****         waveform_  = WAVE_SIN;
 324              		.loc 1 50 20 view .LVU66
 325 000c 4FF00008 		mov	r8, #0
 326              	.LBE120:
 327              	.LBE119:
 328              	.LBB127:
 329              	.LBB128:
  44:../../DaisySP/Source/Synthesis/oscillator.h ****         sr_recip_  = 1.0f / sample_rate;
 330              		.loc 1 44 20 view .LVU67
 331 0010 464D     		ldr	r5, .L21+8
 332              	.LBE128:
 333              	.LBE127:
 334              	.LBB134:
 335              	.LBB121:
  51:../../DaisySP/Source/Synthesis/oscillator.h ****         eoc_       = true;
  52:../../DaisySP/Source/Synthesis/oscillator.h ****         eor_       = true;
 336              		.loc 1 52 20 view .LVU68
 337 0012 40F20117 		movw	r7, #257
 338              	.LBE121:
 339              	.LBE134:
 340              	.LBB135:
 341              	.LBB136:
  44:../../DaisySP/Source/Synthesis/oscillator.h ****         sr_recip_  = 1.0f / sample_rate;
 342              		.loc 1 44 20 view .LVU69
 343 0016 464C     		ldr	r4, .L21+12
 344              	.LBE136:
 345              	.LBE135:
 346              	.LBB141:
 347              	.LBB142:
  53:../../DaisySP/Source/Synthesis/oscillator.h ****     }
  54:../../DaisySP/Source/Synthesis/oscillator.h **** 
  55:../../DaisySP/Source/Synthesis/oscillator.h **** 
  56:../../DaisySP/Source/Synthesis/oscillator.h ****     /** Changes the frequency of the Oscillator, and recalculates phase increment.
  57:../../DaisySP/Source/Synthesis/oscillator.h ****     */
  58:../../DaisySP/Source/Synthesis/oscillator.h ****     inline void SetFreq(const float f)
  59:../../DaisySP/Source/Synthesis/oscillator.h ****     {
  60:../../DaisySP/Source/Synthesis/oscillator.h ****         freq_      = f;
  61:../../DaisySP/Source/Synthesis/oscillator.h ****         phase_inc_ = CalcPhaseInc(f);
  62:../../DaisySP/Source/Synthesis/oscillator.h ****     }
  63:../../DaisySP/Source/Synthesis/oscillator.h **** 
ARM GAS  /tmp/ccroXSak.s 			page 14


  64:../../DaisySP/Source/Synthesis/oscillator.h **** 
  65:../../DaisySP/Source/Synthesis/oscillator.h ****     /** Sets the amplitude of the waveform.
  66:../../DaisySP/Source/Synthesis/oscillator.h ****     */
  67:../../DaisySP/Source/Synthesis/oscillator.h ****     inline void SetAmp(const float a) { amp_ = a; }
  68:../../DaisySP/Source/Synthesis/oscillator.h ****     /** Sets the waveform to be synthesized by the Process() function.
  69:../../DaisySP/Source/Synthesis/oscillator.h ****     */
  70:../../DaisySP/Source/Synthesis/oscillator.h ****     inline void SetWaveform(const uint8_t wf)
  71:../../DaisySP/Source/Synthesis/oscillator.h ****     {
  72:../../DaisySP/Source/Synthesis/oscillator.h ****         waveform_ = wf < WAVE_LAST ? wf : WAVE_SIN;
 348              		.loc 1 72 19 view .LVU70
 349 0018 4FF0040A 		mov	r10, #4
 350              	.LBE142:
 351              	.LBE141:
  32:fm2.cpp       ****     // initialize seed hardware and daisysp modules
 352              		.loc 8 32 1 view .LVU71
 353 001c 2DED068B 		vpush.64	{d8, d9, d10}
 354              		.cfi_def_cfa_offset 56
 355              		.cfi_offset 80, -56
 356              		.cfi_offset 81, -52
 357              		.cfi_offset 82, -48
 358              		.cfi_offset 83, -44
 359              		.cfi_offset 84, -40
 360              		.cfi_offset 85, -36
 361              		.loc 8 35 19 view .LVU72
 362 0020 FFF7FEFF 		bl	_ZN5daisy9DaisySeed9ConfigureEv
 363              	.LVL21:
  36:fm2.cpp       ****     seed.Init();
 364              		.loc 8 36 5 is_stmt 1 view .LVU73
 365              		.loc 8 36 14 is_stmt 0 view .LVU74
 366 0024 0021     		movs	r1, #0
 367 0026 3F48     		ldr	r0, .L21
 368              	.LBB145:
 369              	.LBB122:
  45:../../DaisySP/Source/Synthesis/oscillator.h ****         freq_      = 100.0f;
 370              		.loc 1 45 27 view .LVU75
 371 0028 B7EE00AA 		vmov.f32	s20, #1.0e+0
 372              	.LBE122:
 373              	.LBE145:
 374              		.loc 8 36 14 view .LVU76
 375 002c FFF7FEFF 		bl	_ZN5daisy9DaisySeed4InitEb
 376              	.LVL22:
  37:fm2.cpp       ****     sample_rate = seed.AudioSampleRate();
 377              		.loc 8 37 5 is_stmt 1 view .LVU77
 378              		.loc 8 37 39 is_stmt 0 view .LVU78
 379 0030 3C48     		ldr	r0, .L21
 380 0032 FFF7FEFF 		bl	_ZN5daisy9DaisySeed15AudioSampleRateEv
 381              	.LVL23:
 382 0036 F0EE408A 		vmov.f32	s17, s0
 383              	.LVL24:
  38:fm2.cpp       **** 
  39:fm2.cpp       ****     osc.Init(sample_rate);
 384              		.loc 8 39 5 is_stmt 1 view .LVU79
 385              		.loc 8 39 13 is_stmt 0 view .LVU80
 386 003a 3E48     		ldr	r0, .L21+16
 387              	.LBB146:
 388              	.LBB123:
  47:../../DaisySP/Source/Synthesis/oscillator.h ****         phase_     = 0.0f;
ARM GAS  /tmp/ccroXSak.s 			page 15


 389              		.loc 1 47 20 view .LVU81
 390 003c B6EE009A 		vmov.f32	s18, #5.0e-1
 391              	.LBE123:
 392              	.LBE146:
 393              		.loc 8 39 13 view .LVU82
 394 0040 FFF7FEFF 		bl	_ZN7daisysp3Fm24InitEf
 395              	.LVL25:
  40:fm2.cpp       ****     lfo1.Init(sample_rate);
 396              		.loc 8 40 5 is_stmt 1 view .LVU83
 397              	.LBB147:
 398              	.LBI119:
  42:../../DaisySP/Source/Synthesis/oscillator.h ****     {
 399              		.loc 1 42 10 view .LVU84
 400              	.LBB124:
  44:../../DaisySP/Source/Synthesis/oscillator.h ****         sr_recip_  = 1.0f / sample_rate;
 401              		.loc 1 44 9 view .LVU85
  46:../../DaisySP/Source/Synthesis/oscillator.h ****         amp_       = 0.5f;
 402              		.loc 1 46 20 is_stmt 0 view .LVU86
 403 0044 9FED3C8A 		vldr.32	s16, .L21+20
  45:../../DaisySP/Source/Synthesis/oscillator.h ****         freq_      = 100.0f;
 404              		.loc 1 45 27 view .LVU87
 405 0048 CAEE289A 		vdiv.f32	s19, s20, s17
  49:../../DaisySP/Source/Synthesis/oscillator.h ****         waveform_  = WAVE_SIN;
 406              		.loc 1 49 34 view .LVU88
 407 004c 3046     		mov	r0, r6
  44:../../DaisySP/Source/Synthesis/oscillator.h ****         sr_recip_  = 1.0f / sample_rate;
 408              		.loc 1 44 20 view .LVU89
 409 004e C6ED038A 		vstr.32	s17, [r6, #12]
  45:../../DaisySP/Source/Synthesis/oscillator.h ****         freq_      = 100.0f;
 410              		.loc 1 45 9 is_stmt 1 view .LVU90
  46:../../DaisySP/Source/Synthesis/oscillator.h ****         amp_       = 0.5f;
 411              		.loc 1 46 20 is_stmt 0 view .LVU91
 412 0052 86ED028A 		vstr.32	s16, [r6, #8]
  47:../../DaisySP/Source/Synthesis/oscillator.h ****         phase_     = 0.0f;
 413              		.loc 1 47 20 view .LVU92
 414 0056 86ED019A 		vstr.32	s18, [r6, #4]
  48:../../DaisySP/Source/Synthesis/oscillator.h ****         phase_inc_ = CalcPhaseInc(freq_);
 415              		.loc 1 48 20 view .LVU93
 416 005a C6F81490 		str	r9, [r6, #20]	@ float
  49:../../DaisySP/Source/Synthesis/oscillator.h ****         waveform_  = WAVE_SIN;
 417              		.loc 1 49 34 view .LVU94
 418 005e B0EE480A 		vmov.f32	s0, s16
  45:../../DaisySP/Source/Synthesis/oscillator.h ****         freq_      = 100.0f;
 419              		.loc 1 45 20 view .LVU95
 420 0062 C6ED049A 		vstr.32	s19, [r6, #16]
  46:../../DaisySP/Source/Synthesis/oscillator.h ****         amp_       = 0.5f;
 421              		.loc 1 46 9 is_stmt 1 view .LVU96
  47:../../DaisySP/Source/Synthesis/oscillator.h ****         phase_     = 0.0f;
 422              		.loc 1 47 9 view .LVU97
  48:../../DaisySP/Source/Synthesis/oscillator.h ****         phase_inc_ = CalcPhaseInc(freq_);
 423              		.loc 1 48 9 view .LVU98
  49:../../DaisySP/Source/Synthesis/oscillator.h ****         waveform_  = WAVE_SIN;
 424              		.loc 1 49 9 view .LVU99
  49:../../DaisySP/Source/Synthesis/oscillator.h ****         waveform_  = WAVE_SIN;
 425              		.loc 1 49 34 is_stmt 0 view .LVU100
 426 0066 FFF7FEFF 		bl	_ZN7daisysp10Oscillator12CalcPhaseIncEf
 427              	.LVL26:
ARM GAS  /tmp/ccroXSak.s 			page 16


 428 006a F0EE407A 		vmov.f32	s15, s0
 429              	.LBE124:
 430              	.LBE147:
 431              	.LBB148:
 432              	.LBB129:
 433 006e 2846     		mov	r0, r5
 434 0070 B0EE480A 		vmov.f32	s0, s16
  45:../../DaisySP/Source/Synthesis/oscillator.h ****         freq_      = 100.0f;
 435              		.loc 1 45 20 view .LVU101
 436 0074 C5ED049A 		vstr.32	s19, [r5, #16]
  44:../../DaisySP/Source/Synthesis/oscillator.h ****         sr_recip_  = 1.0f / sample_rate;
 437              		.loc 1 44 20 view .LVU102
 438 0078 C5ED038A 		vstr.32	s17, [r5, #12]
 439              	.LBE129:
 440              	.LBE148:
 441              	.LBB149:
 442              	.LBB125:
  49:../../DaisySP/Source/Synthesis/oscillator.h ****         waveform_  = WAVE_SIN;
 443              		.loc 1 49 20 view .LVU103
 444 007c C6ED067A 		vstr.32	s15, [r6, #24]
  50:../../DaisySP/Source/Synthesis/oscillator.h ****         eoc_       = true;
 445              		.loc 1 50 9 is_stmt 1 view .LVU104
 446              	.LBE125:
 447              	.LBE149:
 448              	.LBB150:
 449              	.LBB130:
  46:../../DaisySP/Source/Synthesis/oscillator.h ****         amp_       = 0.5f;
 450              		.loc 1 46 20 is_stmt 0 view .LVU105
 451 0080 85ED028A 		vstr.32	s16, [r5, #8]
  47:../../DaisySP/Source/Synthesis/oscillator.h ****         phase_     = 0.0f;
 452              		.loc 1 47 20 view .LVU106
 453 0084 85ED019A 		vstr.32	s18, [r5, #4]
  48:../../DaisySP/Source/Synthesis/oscillator.h ****         phase_inc_ = CalcPhaseInc(freq_);
 454              		.loc 1 48 20 view .LVU107
 455 0088 C5F81490 		str	r9, [r5, #20]	@ float
 456              	.LBE130:
 457              	.LBE150:
 458              	.LBB151:
 459              	.LBB126:
  50:../../DaisySP/Source/Synthesis/oscillator.h ****         eoc_       = true;
 460              		.loc 1 50 20 view .LVU108
 461 008c 86F80080 		strb	r8, [r6]
  51:../../DaisySP/Source/Synthesis/oscillator.h ****         eor_       = true;
 462              		.loc 1 51 9 is_stmt 1 view .LVU109
  52:../../DaisySP/Source/Synthesis/oscillator.h ****     }
 463              		.loc 1 52 9 view .LVU110
  52:../../DaisySP/Source/Synthesis/oscillator.h ****     }
 464              		.loc 1 52 20 is_stmt 0 view .LVU111
 465 0090 B784     		strh	r7, [r6, #36]	@ movhi
 466              	.LVL27:
  52:../../DaisySP/Source/Synthesis/oscillator.h ****     }
 467              		.loc 1 52 20 view .LVU112
 468              	.LBE126:
 469              	.LBE151:
  41:fm2.cpp       ****     lfo2.Init(sample_rate);
 470              		.loc 8 41 5 is_stmt 1 view .LVU113
 471              	.LBB152:
ARM GAS  /tmp/ccroXSak.s 			page 17


 472              	.LBI127:
  42:../../DaisySP/Source/Synthesis/oscillator.h ****     {
 473              		.loc 1 42 10 view .LVU114
 474              	.LBB131:
  44:../../DaisySP/Source/Synthesis/oscillator.h ****         sr_recip_  = 1.0f / sample_rate;
 475              		.loc 1 44 9 view .LVU115
  45:../../DaisySP/Source/Synthesis/oscillator.h ****         freq_      = 100.0f;
 476              		.loc 1 45 9 view .LVU116
  46:../../DaisySP/Source/Synthesis/oscillator.h ****         amp_       = 0.5f;
 477              		.loc 1 46 9 view .LVU117
  47:../../DaisySP/Source/Synthesis/oscillator.h ****         phase_     = 0.0f;
 478              		.loc 1 47 9 view .LVU118
  48:../../DaisySP/Source/Synthesis/oscillator.h ****         phase_inc_ = CalcPhaseInc(freq_);
 479              		.loc 1 48 9 view .LVU119
  49:../../DaisySP/Source/Synthesis/oscillator.h ****         waveform_  = WAVE_SIN;
 480              		.loc 1 49 9 view .LVU120
  49:../../DaisySP/Source/Synthesis/oscillator.h ****         waveform_  = WAVE_SIN;
 481              		.loc 1 49 34 is_stmt 0 view .LVU121
 482 0092 FFF7FEFF 		bl	_ZN7daisysp10Oscillator12CalcPhaseIncEf
 483              	.LVL28:
 484 0096 F0EE407A 		vmov.f32	s15, s0
 485              	.LBE131:
 486              	.LBE152:
 487              	.LBB153:
 488              	.LBB137:
 489 009a 2046     		mov	r0, r4
 490 009c B0EE480A 		vmov.f32	s0, s16
 491              	.LBE137:
 492              	.LBE153:
 493              	.LBB154:
 494              	.LBB132:
  50:../../DaisySP/Source/Synthesis/oscillator.h ****         eoc_       = true;
 495              		.loc 1 50 20 view .LVU122
 496 00a0 85F80080 		strb	r8, [r5]
  52:../../DaisySP/Source/Synthesis/oscillator.h ****     }
 497              		.loc 1 52 20 view .LVU123
 498 00a4 AF84     		strh	r7, [r5, #36]	@ movhi
  49:../../DaisySP/Source/Synthesis/oscillator.h ****         waveform_  = WAVE_SIN;
 499              		.loc 1 49 20 view .LVU124
 500 00a6 C5ED067A 		vstr.32	s15, [r5, #24]
 501              	.LBE132:
 502              	.LBE154:
 503              	.LBB155:
 504              	.LBB138:
  45:../../DaisySP/Source/Synthesis/oscillator.h ****         freq_      = 100.0f;
 505              		.loc 1 45 20 view .LVU125
 506 00aa C4ED049A 		vstr.32	s19, [r4, #16]
 507              	.LBE138:
 508              	.LBE155:
 509              	.LBB156:
 510              	.LBB133:
  50:../../DaisySP/Source/Synthesis/oscillator.h ****         eoc_       = true;
 511              		.loc 1 50 9 is_stmt 1 view .LVU126
  51:../../DaisySP/Source/Synthesis/oscillator.h ****         eor_       = true;
 512              		.loc 1 51 9 view .LVU127
  52:../../DaisySP/Source/Synthesis/oscillator.h ****     }
 513              		.loc 1 52 9 view .LVU128
ARM GAS  /tmp/ccroXSak.s 			page 18


 514              	.LVL29:
  52:../../DaisySP/Source/Synthesis/oscillator.h ****     }
 515              		.loc 1 52 9 is_stmt 0 view .LVU129
 516              	.LBE133:
 517              	.LBE156:
  42:fm2.cpp       ****     lfo3.Init(sample_rate);
 518              		.loc 8 42 5 is_stmt 1 view .LVU130
 519              	.LBB157:
 520              	.LBI135:
  42:../../DaisySP/Source/Synthesis/oscillator.h ****     {
 521              		.loc 1 42 10 view .LVU131
 522              	.LBB139:
  44:../../DaisySP/Source/Synthesis/oscillator.h ****         sr_recip_  = 1.0f / sample_rate;
 523              		.loc 1 44 9 view .LVU132
  45:../../DaisySP/Source/Synthesis/oscillator.h ****         freq_      = 100.0f;
 524              		.loc 1 45 9 view .LVU133
  46:../../DaisySP/Source/Synthesis/oscillator.h ****         amp_       = 0.5f;
 525              		.loc 1 46 9 view .LVU134
  47:../../DaisySP/Source/Synthesis/oscillator.h ****         phase_     = 0.0f;
 526              		.loc 1 47 9 view .LVU135
  48:../../DaisySP/Source/Synthesis/oscillator.h ****         phase_inc_ = CalcPhaseInc(freq_);
 527              		.loc 1 48 9 view .LVU136
  49:../../DaisySP/Source/Synthesis/oscillator.h ****         waveform_  = WAVE_SIN;
 528              		.loc 1 49 9 view .LVU137
  44:../../DaisySP/Source/Synthesis/oscillator.h ****         sr_recip_  = 1.0f / sample_rate;
 529              		.loc 1 44 20 is_stmt 0 view .LVU138
 530 00ae C4ED038A 		vstr.32	s17, [r4, #12]
  46:../../DaisySP/Source/Synthesis/oscillator.h ****         amp_       = 0.5f;
 531              		.loc 1 46 20 view .LVU139
 532 00b2 84ED028A 		vstr.32	s16, [r4, #8]
  47:../../DaisySP/Source/Synthesis/oscillator.h ****         phase_     = 0.0f;
 533              		.loc 1 47 20 view .LVU140
 534 00b6 84ED019A 		vstr.32	s18, [r4, #4]
  48:../../DaisySP/Source/Synthesis/oscillator.h ****         phase_inc_ = CalcPhaseInc(freq_);
 535              		.loc 1 48 20 view .LVU141
 536 00ba C4F81490 		str	r9, [r4, #20]	@ float
  49:../../DaisySP/Source/Synthesis/oscillator.h ****         waveform_  = WAVE_SIN;
 537              		.loc 1 49 34 view .LVU142
 538 00be FFF7FEFF 		bl	_ZN7daisysp10Oscillator12CalcPhaseIncEf
 539              	.LVL30:
 540 00c2 F0EE407A 		vmov.f32	s15, s0
 541              	.LBE139:
 542              	.LBE157:
 543              	.LBB158:
 544              	.LBB159:
  60:../../DaisySP/Source/Synthesis/oscillator.h ****         phase_inc_ = CalcPhaseInc(f);
 545              		.loc 1 60 20 view .LVU143
 546 00c6 9FED1D0A 		vldr.32	s0, .L21+24
  61:../../DaisySP/Source/Synthesis/oscillator.h ****     }
 547              		.loc 1 61 34 view .LVU144
 548 00ca 3046     		mov	r0, r6
 549              	.LBE159:
 550              	.LBE158:
 551              	.LBB162:
 552              	.LBB140:
  50:../../DaisySP/Source/Synthesis/oscillator.h ****         eoc_       = true;
 553              		.loc 1 50 20 view .LVU145
ARM GAS  /tmp/ccroXSak.s 			page 19


 554 00cc 84F80080 		strb	r8, [r4]
  52:../../DaisySP/Source/Synthesis/oscillator.h ****     }
 555              		.loc 1 52 20 view .LVU146
 556 00d0 A784     		strh	r7, [r4, #36]	@ movhi
  49:../../DaisySP/Source/Synthesis/oscillator.h ****         waveform_  = WAVE_SIN;
 557              		.loc 1 49 20 view .LVU147
 558 00d2 C4ED067A 		vstr.32	s15, [r4, #24]
  50:../../DaisySP/Source/Synthesis/oscillator.h ****         eoc_       = true;
 559              		.loc 1 50 9 is_stmt 1 view .LVU148
  51:../../DaisySP/Source/Synthesis/oscillator.h ****         eor_       = true;
 560              		.loc 1 51 9 view .LVU149
  52:../../DaisySP/Source/Synthesis/oscillator.h ****     }
 561              		.loc 1 52 9 view .LVU150
 562              	.LVL31:
  52:../../DaisySP/Source/Synthesis/oscillator.h ****     }
 563              		.loc 1 52 9 is_stmt 0 view .LVU151
 564              	.LBE140:
 565              	.LBE162:
  43:fm2.cpp       **** 
  44:fm2.cpp       ****     lfo1.SetFreq(.05f);
 566              		.loc 8 44 5 is_stmt 1 view .LVU152
 567              	.LBB163:
 568              	.LBI158:
  58:../../DaisySP/Source/Synthesis/oscillator.h ****     {
 569              		.loc 1 58 17 view .LVU153
 570              	.LBB160:
  60:../../DaisySP/Source/Synthesis/oscillator.h ****         phase_inc_ = CalcPhaseInc(f);
 571              		.loc 1 60 9 view .LVU154
  60:../../DaisySP/Source/Synthesis/oscillator.h ****         phase_inc_ = CalcPhaseInc(f);
 572              		.loc 1 60 20 is_stmt 0 view .LVU155
 573 00d6 86ED020A 		vstr.32	s0, [r6, #8]
  61:../../DaisySP/Source/Synthesis/oscillator.h ****     }
 574              		.loc 1 61 9 is_stmt 1 view .LVU156
  61:../../DaisySP/Source/Synthesis/oscillator.h ****     }
 575              		.loc 1 61 34 is_stmt 0 view .LVU157
 576 00da FFF7FEFF 		bl	_ZN7daisysp10Oscillator12CalcPhaseIncEf
 577              	.LVL32:
 578 00de F0EE407A 		vmov.f32	s15, s0
 579              	.LBE160:
 580              	.LBE163:
 581              	.LBB164:
 582              	.LBB165:
  60:../../DaisySP/Source/Synthesis/oscillator.h ****         phase_inc_ = CalcPhaseInc(f);
 583              		.loc 1 60 20 view .LVU158
 584 00e2 9FED170A 		vldr.32	s0, .L21+28
  61:../../DaisySP/Source/Synthesis/oscillator.h ****     }
 585              		.loc 1 61 34 view .LVU159
 586 00e6 2846     		mov	r0, r5
  60:../../DaisySP/Source/Synthesis/oscillator.h ****         phase_inc_ = CalcPhaseInc(f);
 587              		.loc 1 60 20 view .LVU160
 588 00e8 85ED020A 		vstr.32	s0, [r5, #8]
 589              	.LBE165:
 590              	.LBE164:
 591              	.LBB168:
 592              	.LBB161:
  61:../../DaisySP/Source/Synthesis/oscillator.h ****     }
 593              		.loc 1 61 20 view .LVU161
ARM GAS  /tmp/ccroXSak.s 			page 20


 594 00ec C6ED067A 		vstr.32	s15, [r6, #24]
 595              	.LVL33:
  61:../../DaisySP/Source/Synthesis/oscillator.h ****     }
 596              		.loc 1 61 20 view .LVU162
 597              	.LBE161:
 598              	.LBE168:
  45:fm2.cpp       **** 
  46:fm2.cpp       ****     lfo2.SetFreq(.01f);
 599              		.loc 8 46 5 is_stmt 1 view .LVU163
 600              	.LBB169:
 601              	.LBI164:
  58:../../DaisySP/Source/Synthesis/oscillator.h ****     {
 602              		.loc 1 58 17 view .LVU164
 603              	.LBB166:
  60:../../DaisySP/Source/Synthesis/oscillator.h ****         phase_inc_ = CalcPhaseInc(f);
 604              		.loc 1 60 9 view .LVU165
  61:../../DaisySP/Source/Synthesis/oscillator.h ****     }
 605              		.loc 1 61 9 view .LVU166
  61:../../DaisySP/Source/Synthesis/oscillator.h ****     }
 606              		.loc 1 61 34 is_stmt 0 view .LVU167
 607 00f0 FFF7FEFF 		bl	_ZN7daisysp10Oscillator12CalcPhaseIncEf
 608              	.LVL34:
 609 00f4 F0EE407A 		vmov.f32	s15, s0
 610              	.LBE166:
 611              	.LBE169:
 612              	.LBB170:
 613              	.LBB171:
 614 00f8 2046     		mov	r0, r4
 615 00fa B0EE490A 		vmov.f32	s0, s18
  60:../../DaisySP/Source/Synthesis/oscillator.h ****         phase_inc_ = CalcPhaseInc(f);
 616              		.loc 1 60 20 view .LVU168
 617 00fe 84ED029A 		vstr.32	s18, [r4, #8]
 618              	.LBE171:
 619              	.LBE170:
 620              	.LBB174:
 621              	.LBB143:
 622              		.loc 1 72 19 view .LVU169
 623 0102 85F800A0 		strb	r10, [r5]
 624              	.LBE143:
 625              	.LBE174:
 626              	.LBB175:
 627              	.LBB167:
  61:../../DaisySP/Source/Synthesis/oscillator.h ****     }
 628              		.loc 1 61 20 view .LVU170
 629 0106 C5ED067A 		vstr.32	s15, [r5, #24]
 630              	.LVL35:
  61:../../DaisySP/Source/Synthesis/oscillator.h ****     }
 631              		.loc 1 61 20 view .LVU171
 632              	.LBE167:
 633              	.LBE175:
  47:fm2.cpp       ****     lfo2.SetWaveform(Oscillator::WAVE_SQUARE);
 634              		.loc 8 47 5 is_stmt 1 view .LVU172
 635              	.LBB176:
 636              	.LBI141:
  70:../../DaisySP/Source/Synthesis/oscillator.h ****     {
 637              		.loc 1 70 17 view .LVU173
 638              	.LBB144:
ARM GAS  /tmp/ccroXSak.s 			page 21


 639              		.loc 1 72 9 view .LVU174
 640              		.loc 1 72 9 is_stmt 0 view .LVU175
 641              	.LBE144:
 642              	.LBE176:
  48:fm2.cpp       **** 
  49:fm2.cpp       ****     lfo3.SetFreq(.5f);
 643              		.loc 8 49 5 is_stmt 1 view .LVU176
 644              	.LBB177:
 645              	.LBI170:
  58:../../DaisySP/Source/Synthesis/oscillator.h ****     {
 646              		.loc 1 58 17 view .LVU177
 647              	.LBB172:
  60:../../DaisySP/Source/Synthesis/oscillator.h ****         phase_inc_ = CalcPhaseInc(f);
 648              		.loc 1 60 9 view .LVU178
  61:../../DaisySP/Source/Synthesis/oscillator.h ****     }
 649              		.loc 1 61 9 view .LVU179
  61:../../DaisySP/Source/Synthesis/oscillator.h ****     }
 650              		.loc 1 61 34 is_stmt 0 view .LVU180
 651 010a FFF7FEFF 		bl	_ZN7daisysp10Oscillator12CalcPhaseIncEf
 652              	.LVL36:
 653              	.LBE172:
 654              	.LBE177:
  50:fm2.cpp       ****     lfo3.SetAmp(1);
  51:fm2.cpp       ****     lfo3.SetWaveform(Oscillator::WAVE_SQUARE);
  52:fm2.cpp       **** 
  53:fm2.cpp       ****     // start callback
  54:fm2.cpp       ****     seed.StartAudio(AudioCallback);
 655              		.loc 8 54 20 view .LVU181
 656 010e 0D49     		ldr	r1, .L21+32
 657 0110 0448     		ldr	r0, .L21
 658              	.LBB178:
 659              	.LBB179:
  67:../../DaisySP/Source/Synthesis/oscillator.h ****     /** Sets the waveform to be synthesized by the Process() function.
 660              		.loc 1 67 46 view .LVU182
 661 0112 84ED01AA 		vstr.32	s20, [r4, #4]
 662              	.LBE179:
 663              	.LBE178:
 664              	.LBB181:
 665              	.LBB182:
 666              		.loc 1 72 19 view .LVU183
 667 0116 84F800A0 		strb	r10, [r4]
 668              	.LBE182:
 669              	.LBE181:
 670              	.LBB184:
 671              	.LBB173:
  61:../../DaisySP/Source/Synthesis/oscillator.h ****     }
 672              		.loc 1 61 20 view .LVU184
 673 011a 84ED060A 		vstr.32	s0, [r4, #24]
 674              	.LVL37:
  61:../../DaisySP/Source/Synthesis/oscillator.h ****     }
 675              		.loc 1 61 20 view .LVU185
 676              	.LBE173:
 677              	.LBE184:
  50:fm2.cpp       ****     lfo3.SetAmp(1);
 678              		.loc 8 50 5 is_stmt 1 view .LVU186
 679              	.LBB185:
 680              	.LBI178:
ARM GAS  /tmp/ccroXSak.s 			page 22


  67:../../DaisySP/Source/Synthesis/oscillator.h ****     /** Sets the waveform to be synthesized by the Process() function.
 681              		.loc 1 67 17 view .LVU187
 682              	.LBB180:
  67:../../DaisySP/Source/Synthesis/oscillator.h ****     /** Sets the waveform to be synthesized by the Process() function.
 683              		.loc 1 67 41 view .LVU188
  67:../../DaisySP/Source/Synthesis/oscillator.h ****     /** Sets the waveform to be synthesized by the Process() function.
 684              		.loc 1 67 41 is_stmt 0 view .LVU189
 685              	.LBE180:
 686              	.LBE185:
  51:fm2.cpp       **** 
 687              		.loc 8 51 5 is_stmt 1 view .LVU190
 688              	.LBB186:
 689              	.LBI181:
  70:../../DaisySP/Source/Synthesis/oscillator.h ****     {
 690              		.loc 1 70 17 view .LVU191
 691              	.LBB183:
 692              		.loc 1 72 9 view .LVU192
 693              		.loc 1 72 9 is_stmt 0 view .LVU193
 694              	.LBE183:
 695              	.LBE186:
 696              		.loc 8 54 5 is_stmt 1 view .LVU194
 697              		.loc 8 54 20 is_stmt 0 view .LVU195
 698 011e FFF7FEFF 		bl	_ZN5daisy9DaisySeed10StartAudioEPFvPKfPfjE
 699              	.LVL38:
 700              	.L19:
  55:fm2.cpp       ****     while(1) {}
 701              		.loc 8 55 5 is_stmt 1 discriminator 1 view .LVU196
 702              		.loc 8 55 5 discriminator 1 view .LVU197
 703              		.loc 8 55 5 discriminator 1 view .LVU198
 704              		.loc 8 55 5 discriminator 1 view .LVU199
 705 0122 FEE7     		b	.L19
 706              	.L22:
 707              		.align	2
 708              	.L21:
 709 0124 00000000 		.word	.LANCHOR4
 710 0128 00000000 		.word	.LANCHOR0
 711 012c 00000000 		.word	.LANCHOR1
 712 0130 00000000 		.word	.LANCHOR2
 713 0134 00000000 		.word	.LANCHOR3
 714 0138 0000C842 		.word	1120403456
 715 013c CDCC4C3D 		.word	1028443341
 716 0140 0AD7233C 		.word	1008981770
 717 0144 00000000 		.word	_ZL13AudioCallbackPKfPfj
 718              		.cfi_endproc
 719              	.LFE4213:
 721              		.section	.text.startup._GLOBAL__sub_I_osc,"ax",%progbits
 722              		.align	1
 723              		.p2align 2,,3
 724              		.syntax unified
 725              		.thumb
 726              		.thumb_func
 727              		.fpu fpv5-d16
 729              	_GLOBAL__sub_I_osc:
 730              	.LFB4759:
  56:fm2.cpp       **** }
 731              		.loc 8 56 1 view -0
 732              		.cfi_startproc
ARM GAS  /tmp/ccroXSak.s 			page 23


 733              		@ args = 0, pretend = 0, frame = 0
 734              		@ frame_needed = 0, uses_anonymous_args = 0
 735              	.LBB214:
 736              	.LBI214:
 737              		.loc 8 56 1 view .LVU201
 738              	.LVL39:
 739              	.LBB215:
 740              	.LBB216:
 741              	.LBI216:
  21:../../libdaisy/src/daisy_seed.h ****     ~DaisySeed() {}
 742              		.loc 3 21 5 view .LVU202
 743              	.LBB217:
 744              	.LBB218:
 745              	.LBI218:
  62:../../libdaisy/src/hid/audio.h ****     ~AudioHandle() {}
 746              		.loc 7 62 5 view .LVU203
 747              	.LBB219:
 748              	.LBB220:
  62:../../libdaisy/src/hid/audio.h ****     ~AudioHandle() {}
 749              		.loc 7 62 35 is_stmt 0 view .LVU204
 750 0000 0023     		movs	r3, #0
 751 0002 0F48     		ldr	r0, .L25
 752              	.LBE220:
 753              	.LBE219:
 754              	.LBE218:
 755              	.LBE217:
 756              	.LBE216:
   7:fm2.cpp       **** Fm2              osc;
 757              		.loc 8 7 18 view .LVU205
 758 0004 0F4A     		ldr	r2, .L25+4
 759 0006 1049     		ldr	r1, .L25+8
 760              	.LBE215:
 761              	.LBE214:
 762              		.loc 8 56 1 view .LVU206
 763 0008 10B5     		push	{r4, lr}
 764              		.cfi_def_cfa_offset 8
 765              		.cfi_offset 4, -8
 766              		.cfi_offset 14, -4
 767              	.LBB241:
 768              	.LBB239:
   9:fm2.cpp       **** 
 769              		.loc 8 9 18 view .LVU207
 770 000a 104C     		ldr	r4, .L25+12
 771              	.LBB231:
 772              	.LBB230:
 773              	.LBB223:
 774              	.LBB222:
 775              	.LBB221:
  62:../../libdaisy/src/hid/audio.h ****     ~AudioHandle() {}
 776              		.loc 7 62 35 view .LVU208
 777 000c 4361     		str	r3, [r0, #20]
 778              	.LVL40:
  62:../../libdaisy/src/hid/audio.h ****     ~AudioHandle() {}
 779              		.loc 7 62 35 view .LVU209
 780              	.LBE221:
 781              	.LBE222:
 782              	.LBE223:
ARM GAS  /tmp/ccroXSak.s 			page 24


 783              	.LBB224:
 784              	.LBI224:
  84:../../libdaisy/src/per/adc.h ****     ~AdcHandle() {}
 785              		.loc 6 84 5 is_stmt 1 view .LVU210
  84:../../libdaisy/src/per/adc.h ****     ~AdcHandle() {}
 786              		.loc 6 84 5 is_stmt 0 view .LVU211
 787              	.LBE224:
 788              	.LBB225:
 789              	.LBI225:
 790              		.file 9 "../../libdaisy/src/per/dac.h"
   1:../../libdaisy/src/per/dac.h **** #pragma once
   2:../../libdaisy/src/per/dac.h **** #ifndef DSY_DAC_H
   3:../../libdaisy/src/per/dac.h **** #define DSY_DAC_H
   4:../../libdaisy/src/per/dac.h **** 
   5:../../libdaisy/src/per/dac.h **** #include "daisy_core.h"
   6:../../libdaisy/src/per/dac.h **** 
   7:../../libdaisy/src/per/dac.h **** namespace daisy
   8:../../libdaisy/src/per/dac.h **** {
   9:../../libdaisy/src/per/dac.h **** /** DAC handle for Built-in DAC Peripheral 
  10:../../libdaisy/src/per/dac.h ****  ** 
  11:../../libdaisy/src/per/dac.h ****  ** For now only Normal Mode is supported,
  12:../../libdaisy/src/per/dac.h ****  ** Sample and hold mode provides reduced power consumption, but requires a bit more setup.
  13:../../libdaisy/src/per/dac.h ****  **
  14:../../libdaisy/src/per/dac.h ****  ** For now connecting the DAC through other internal periphearls is also not supported.
  15:../../libdaisy/src/per/dac.h ****  **
  16:../../libdaisy/src/per/dac.h ****  ** Since the DAC channels have dedicated pins we don't need to pass in a pin config like with
  17:../../libdaisy/src/per/dac.h ****  ** other modules. However, it is still important to not try to use the DAC pins for anything else.
  18:../../libdaisy/src/per/dac.h ****  ** DAC Channel 1 is on PA4, and DAC Channel 2 is on PA5
  19:../../libdaisy/src/per/dac.h ****  ***/
  20:../../libdaisy/src/per/dac.h **** class DacHandle
  21:../../libdaisy/src/per/dac.h **** {
  22:../../libdaisy/src/per/dac.h ****   public:
  23:../../libdaisy/src/per/dac.h ****     /** Return Values for the DacHandle class */
  24:../../libdaisy/src/per/dac.h ****     enum class Result
  25:../../libdaisy/src/per/dac.h ****     {
  26:../../libdaisy/src/per/dac.h ****         OK,
  27:../../libdaisy/src/per/dac.h ****         ERR,
  28:../../libdaisy/src/per/dac.h ****     };
  29:../../libdaisy/src/per/dac.h **** 
  30:../../libdaisy/src/per/dac.h ****     /** Selects which channel(s) will be configured for use. */
  31:../../libdaisy/src/per/dac.h ****     enum class Channel
  32:../../libdaisy/src/per/dac.h ****     {
  33:../../libdaisy/src/per/dac.h ****         ONE,
  34:../../libdaisy/src/per/dac.h ****         TWO,
  35:../../libdaisy/src/per/dac.h ****         BOTH,
  36:../../libdaisy/src/per/dac.h ****     };
  37:../../libdaisy/src/per/dac.h **** 
  38:../../libdaisy/src/per/dac.h ****     /** Sets the Mode for the DAC channels.
  39:../../libdaisy/src/per/dac.h ****      **
  40:../../libdaisy/src/per/dac.h ****      ** Polling mode uses the blocking mode to transmit a single value at a time.
  41:../../libdaisy/src/per/dac.h ****      **
  42:../../libdaisy/src/per/dac.h ****      ** DMA mode uses a buffer, and periodically transmits it triggering a 
  43:../../libdaisy/src/per/dac.h ****      ** callback to fill the buffer when it is ready for more samples.
  44:../../libdaisy/src/per/dac.h ****      ***/
  45:../../libdaisy/src/per/dac.h ****     enum class Mode
  46:../../libdaisy/src/per/dac.h ****     {
  47:../../libdaisy/src/per/dac.h ****         POLLING,
ARM GAS  /tmp/ccroXSak.s 			page 25


  48:../../libdaisy/src/per/dac.h ****         DMA,
  49:../../libdaisy/src/per/dac.h ****     };
  50:../../libdaisy/src/per/dac.h **** 
  51:../../libdaisy/src/per/dac.h ****     /** Sets the number of bits per sample transmitted out of the DAC.
  52:../../libdaisy/src/per/dac.h ****      ** The output range will be: 0V - VDDA
  53:../../libdaisy/src/per/dac.h ****      ** The resolution will be roughly: bitdepth / (VDDA - 0V) 
  54:../../libdaisy/src/per/dac.h ****      ***/
  55:../../libdaisy/src/per/dac.h ****     enum class BitDepth
  56:../../libdaisy/src/per/dac.h ****     {
  57:../../libdaisy/src/per/dac.h ****         BITS_8,
  58:../../libdaisy/src/per/dac.h ****         BITS_12
  59:../../libdaisy/src/per/dac.h ****     };
  60:../../libdaisy/src/per/dac.h **** 
  61:../../libdaisy/src/per/dac.h ****     /** Sets whether the DAC output is buffered for higher drive ability. */
  62:../../libdaisy/src/per/dac.h ****     enum class BufferState
  63:../../libdaisy/src/per/dac.h ****     {
  64:../../libdaisy/src/per/dac.h ****         ENABLED,
  65:../../libdaisy/src/per/dac.h ****         DISABLED,
  66:../../libdaisy/src/per/dac.h ****     };
  67:../../libdaisy/src/per/dac.h **** 
  68:../../libdaisy/src/per/dac.h ****     /** Configuration structure for initializing the DAC structure. */
  69:../../libdaisy/src/per/dac.h ****     struct Config
  70:../../libdaisy/src/per/dac.h ****     {
  71:../../libdaisy/src/per/dac.h ****         /** Target Samplerate in Hz used to configure the internal 
  72:../../libdaisy/src/per/dac.h ****          ** timebase for DMA mode. Does nothing in POLLING mode.
  73:../../libdaisy/src/per/dac.h ****          ** If the value is 0 at Init time this will default to 48000Hz 
  74:../../libdaisy/src/per/dac.h ****          ** otherwise the driver will attempt meet the target.*/
  75:../../libdaisy/src/per/dac.h ****         uint32_t target_samplerate;
  76:../../libdaisy/src/per/dac.h **** 
  77:../../libdaisy/src/per/dac.h ****         Channel     chn;
  78:../../libdaisy/src/per/dac.h ****         Mode        mode;
  79:../../libdaisy/src/per/dac.h ****         BitDepth    bitdepth;
  80:../../libdaisy/src/per/dac.h ****         BufferState buff_state;
  81:../../libdaisy/src/per/dac.h ****     };
  82:../../libdaisy/src/per/dac.h **** 
  83:../../libdaisy/src/per/dac.h ****     DacHandle() : pimpl_(nullptr) {}
 791              		.loc 9 83 5 is_stmt 1 view .LVU212
 792              	.LBB226:
 793              	.LBB227:
 794              		.loc 9 83 33 is_stmt 0 view .LVU213
 795 000e 0362     		str	r3, [r0, #32]
 796              	.LVL41:
 797              		.loc 9 83 33 view .LVU214
 798              	.LBE227:
 799              	.LBE226:
 800              	.LBE225:
 801              	.LBB228:
 802              	.LBI228:
  40:../../libdaisy/src/hid/usb.h **** 
 803              		.loc 5 40 5 is_stmt 1 view .LVU215
  40:../../libdaisy/src/hid/usb.h **** 
 804              		.loc 5 40 5 is_stmt 0 view .LVU216
 805              	.LBE228:
 806              	.LBB229:
 807              	.LBI229:
  58:../../libdaisy/src/sys/system.h ****     ~System() {}
 808              		.loc 4 58 5 is_stmt 1 view .LVU217
ARM GAS  /tmp/ccroXSak.s 			page 26


  58:../../libdaisy/src/sys/system.h ****     ~System() {}
 809              		.loc 4 58 5 is_stmt 0 view .LVU218
 810              	.LBE229:
 811              	.LBE230:
 812              	.LBE231:
   7:fm2.cpp       **** Fm2              osc;
 813              		.loc 8 7 18 view .LVU219
 814 0010 FFF7FEFF 		bl	__aeabi_atexit
 815              	.LVL42:
 816              	.LBB232:
 817              	.LBI232:
  21:../../DaisySP/Source/Synthesis/fm2.h ****     ~Fm2() {}
 818              		.loc 2 21 5 is_stmt 1 view .LVU220
 819              	.LBB233:
 820              	.LBB234:
 821              	.LBI234:
  15:../../DaisySP/Source/Synthesis/oscillator.h ****     ~Oscillator() {}
 822              		.loc 1 15 5 view .LVU221
  15:../../DaisySP/Source/Synthesis/oscillator.h ****     ~Oscillator() {}
 823              		.loc 1 15 5 is_stmt 0 view .LVU222
 824              	.LBE234:
 825              	.LBB235:
 826              	.LBI235:
  15:../../DaisySP/Source/Synthesis/oscillator.h ****     ~Oscillator() {}
 827              		.loc 1 15 5 is_stmt 1 view .LVU223
  15:../../DaisySP/Source/Synthesis/oscillator.h ****     ~Oscillator() {}
 828              		.loc 1 15 5 is_stmt 0 view .LVU224
 829              	.LBE235:
 830              	.LBE233:
 831              	.LBE232:
   8:fm2.cpp       **** Oscillator       lfo1, lfo2, lfo3;
 832              		.loc 8 8 18 view .LVU225
 833 0014 0B4A     		ldr	r2, .L25+4
 834 0016 0E49     		ldr	r1, .L25+16
 835 0018 0E48     		ldr	r0, .L25+20
 836 001a FFF7FEFF 		bl	__aeabi_atexit
 837              	.LVL43:
 838              	.LBB236:
 839              	.LBI236:
  15:../../DaisySP/Source/Synthesis/oscillator.h ****     ~Oscillator() {}
 840              		.loc 1 15 5 is_stmt 1 view .LVU226
  15:../../DaisySP/Source/Synthesis/oscillator.h ****     ~Oscillator() {}
 841              		.loc 1 15 5 is_stmt 0 view .LVU227
 842              	.LBE236:
   9:fm2.cpp       **** 
 843              		.loc 8 9 18 view .LVU228
 844 001e 2146     		mov	r1, r4
 845 0020 084A     		ldr	r2, .L25+4
 846 0022 0D48     		ldr	r0, .L25+24
 847 0024 FFF7FEFF 		bl	__aeabi_atexit
 848              	.LVL44:
 849              	.LBB237:
 850              	.LBI237:
  15:../../DaisySP/Source/Synthesis/oscillator.h ****     ~Oscillator() {}
 851              		.loc 1 15 5 is_stmt 1 view .LVU229
  15:../../DaisySP/Source/Synthesis/oscillator.h ****     ~Oscillator() {}
 852              		.loc 1 15 5 is_stmt 0 view .LVU230
ARM GAS  /tmp/ccroXSak.s 			page 27


 853              	.LBE237:
   9:fm2.cpp       **** 
 854              		.loc 8 9 24 view .LVU231
 855 0028 2146     		mov	r1, r4
 856 002a 064A     		ldr	r2, .L25+4
 857 002c 0B48     		ldr	r0, .L25+28
 858 002e FFF7FEFF 		bl	__aeabi_atexit
 859              	.LVL45:
 860              	.LBB238:
 861              	.LBI238:
  15:../../DaisySP/Source/Synthesis/oscillator.h ****     ~Oscillator() {}
 862              		.loc 1 15 5 is_stmt 1 view .LVU232
  15:../../DaisySP/Source/Synthesis/oscillator.h ****     ~Oscillator() {}
 863              		.loc 1 15 5 is_stmt 0 view .LVU233
 864              	.LBE238:
   9:fm2.cpp       **** 
 865              		.loc 8 9 30 view .LVU234
 866 0032 2146     		mov	r1, r4
 867 0034 034A     		ldr	r2, .L25+4
 868 0036 0A48     		ldr	r0, .L25+32
 869              	.LBE239:
 870              	.LBE241:
 871              		.loc 8 56 1 view .LVU235
 872 0038 BDE81040 		pop	{r4, lr}
 873              		.cfi_restore 14
 874              		.cfi_restore 4
 875              		.cfi_def_cfa_offset 0
 876              	.LBB242:
 877              	.LBB240:
   9:fm2.cpp       **** 
 878              		.loc 8 9 30 view .LVU236
 879 003c FFF7FEBF 		b	__aeabi_atexit
 880              	.LVL46:
 881              	.L26:
 882              		.align	2
 883              	.L25:
 884 0040 00000000 		.word	.LANCHOR4
 885 0044 00000000 		.word	__dso_handle
 886 0048 00000000 		.word	_ZN5daisy9DaisySeedD1Ev
 887 004c 00000000 		.word	_ZN7daisysp10OscillatorD1Ev
 888 0050 00000000 		.word	_ZN7daisysp3Fm2D1Ev
 889 0054 00000000 		.word	.LANCHOR3
 890 0058 00000000 		.word	.LANCHOR0
 891 005c 00000000 		.word	.LANCHOR1
 892 0060 00000000 		.word	.LANCHOR2
 893              	.LBE240:
 894              	.LBE242:
 895              		.cfi_endproc
 896              	.LFE4759:
 898              		.section	.init_array,"aw",%init_array
 899              		.align	2
 900 0000 00000000 		.word	_GLOBAL__sub_I_osc(target1)
 901              		.global	lfo3
 902              		.global	lfo2
 903              		.global	lfo1
 904              		.global	osc
 905              		.section	.bss._ZL4seed,"aw",%nobits
ARM GAS  /tmp/ccroXSak.s 			page 28


 906              		.align	2
 907              		.set	.LANCHOR4,. + 0
 910              	_ZL4seed:
 911 0000 00000000 		.space	60
 911      00000000 
 911      00000000 
 911      00000000 
 911      00000000 
 912              		.section	.bss.lfo1,"aw",%nobits
 913              		.align	2
 914              		.set	.LANCHOR0,. + 0
 917              	lfo1:
 918 0000 00000000 		.space	40
 918      00000000 
 918      00000000 
 918      00000000 
 918      00000000 
 919              		.section	.bss.lfo2,"aw",%nobits
 920              		.align	2
 921              		.set	.LANCHOR1,. + 0
 924              	lfo2:
 925 0000 00000000 		.space	40
 925      00000000 
 925      00000000 
 925      00000000 
 925      00000000 
 926              		.section	.bss.lfo3,"aw",%nobits
 927              		.align	2
 928              		.set	.LANCHOR2,. + 0
 931              	lfo3:
 932 0000 00000000 		.space	40
 932      00000000 
 932      00000000 
 932      00000000 
 932      00000000 
 933              		.section	.bss.osc,"aw",%nobits
 934              		.align	2
 935              		.set	.LANCHOR3,. + 0
 938              	osc:
 939 0000 00000000 		.space	100
 939      00000000 
 939      00000000 
 939      00000000 
 939      00000000 
 940              		.text
 941              	.Letext0:
 942              		.file 10 "/usr/lib/gcc/arm-none-eabi/9.2.1/include/stdint.h"
 943              		.file 11 "../../libdaisy/Drivers/CMSIS/Include/core_cm7.h"
 944              		.file 12 "../../libdaisy/Drivers/CMSIS/Device/ST/STM32H7xx/Include/system_stm32h7xx.h"
 945              		.file 13 "/usr/lib/gcc/arm-none-eabi/9.2.1/include/stddef.h"
 946              		.file 14 "/usr/include/newlib/c++/9.2.1/cmath"
 947              		.file 15 "/usr/include/newlib/c++/9.2.1/bits/std_abs.h"
 948              		.file 16 "/usr/include/newlib/c++/9.2.1/cstdint"
 949              		.file 17 "/usr/include/newlib/c++/9.2.1/cstdlib"
 950              		.file 18 "/usr/include/newlib/c++/9.2.1/type_traits"
 951              		.file 19 "/usr/include/newlib/c++/9.2.1/arm-none-eabi/thumb/v7e-m+dp/hard/bits/c++config.h"
 952              		.file 20 "/usr/include/newlib/c++/9.2.1/bits/stl_pair.h"
ARM GAS  /tmp/ccroXSak.s 			page 29


 953              		.file 21 "/usr/include/newlib/c++/9.2.1/debug/debug.h"
 954              		.file 22 "/usr/include/newlib/c++/9.2.1/cwchar"
 955              		.file 23 "/usr/include/newlib/c++/9.2.1/bits/exception_ptr.h"
 956              		.file 24 "/usr/include/newlib/c++/9.2.1/new"
 957              		.file 25 "/usr/include/newlib/c++/9.2.1/clocale"
 958              		.file 26 "/usr/include/newlib/c++/9.2.1/cstdio"
 959              		.file 27 "/usr/include/newlib/c++/9.2.1/bits/basic_string.h"
 960              		.file 28 "/usr/include/newlib/c++/9.2.1/bits/uniform_int_dist.h"
 961              		.file 29 "/usr/include/newlib/c++/9.2.1/bits/random.h"
 962              		.file 30 "/usr/include/newlib/c++/9.2.1/cstring"
 963              		.file 31 "/usr/include/newlib/c++/9.2.1/bits/algorithmfwd.h"
 964              		.file 32 "/usr/include/newlib/c++/9.2.1/cstdarg"
 965              		.file 33 "/usr/include/newlib/c++/9.2.1/bits/predefined_ops.h"
 966              		.file 34 "/usr/include/newlib/c++/9.2.1/ext/new_allocator.h"
 967              		.file 35 "/usr/include/newlib/c++/9.2.1/ext/numeric_traits.h"
 968              		.file 36 "/usr/include/newlib/sys/_types.h"
 969              		.file 37 "<built-in>"
 970              		.file 38 "/usr/include/newlib/sys/reent.h"
 971              		.file 39 "/usr/include/newlib/sys/lock.h"
 972              		.file 40 "/usr/include/newlib/math.h"
 973              		.file 41 "/usr/include/newlib/stdlib.h"
 974              		.file 42 "/usr/include/newlib/c++/9.2.1/math.h"
 975              		.file 43 "../../libdaisy/Drivers/STM32H7xx_HAL_Driver/Inc/stm32h7xx_hal_def.h"
 976              		.file 44 "../../libdaisy/Drivers/STM32H7xx_HAL_Driver/Inc/stm32h7xx_hal_flash.h"
 977              		.file 45 "../../DaisySP/Source/Control/adenv.h"
 978              		.file 46 "../../DaisySP/Source/Utility/dsp.h"
 979              		.file 47 "/usr/lib/gcc/arm-none-eabi/9.2.1/include/stdarg.h"
 980              		.file 48 "/usr/include/newlib/wchar.h"
 981              		.file 49 "/usr/include/newlib/locale.h"
 982              		.file 50 "/usr/include/newlib/ctype.h"
 983              		.file 51 "/usr/include/newlib/stdio.h"
 984              		.file 52 "/usr/include/newlib/sys/errno.h"
 985              		.file 53 "/usr/include/newlib/c++/9.2.1/stdlib.h"
 986              		.file 54 "/usr/include/newlib/string.h"
 987              		.file 55 "../../libdaisy/src/daisy_core.h"
 988              		.file 56 "../../libdaisy/src/per/tim.h"
 989              		.file 57 "../../libdaisy/src/per/sai.h"
 990              		.file 58 "../../libdaisy/src/util/wav_format.h"
 991              		.file 59 "../../libdaisy/src/per/qspi.h"
 992              		.file 60 "../../libdaisy/src/per/gpio.h"
 993              		.file 61 "../../libdaisy/src/dev/sdram.h"
 994              		.file 62 "/usr/include/newlib/sys/unistd.h"
 995              		.file 63 "../../libdaisy/src/util/oled_fonts.h"
 996              		.file 64 "../../libdaisy/Middlewares/Third_Party/FatFs/src/integer.h"
 997              		.file 65 "../../libdaisy/Middlewares/Third_Party/FatFs/src/ff.h"
 998              		.file 66 "../../libdaisy/Middlewares/Third_Party/FatFs/src/diskio.h"
 999              		.file 67 "../../libdaisy/Middlewares/Third_Party/FatFs/src/ff_gen_drv.h"
 1000              		.file 68 "../../libdaisy/src/util/sd_diskio.h"
 1001              		.file 69 "../../libdaisy/src/sys/fatfs.h"
 1002              		.file 70 "../../libdaisy/src/dev/sr_595.h"
ARM GAS  /tmp/ccroXSak.s 			page 30

