ARM GAS  /tmp/ccR68c0T.s 			page 1


   1              		.cpu cortex-m7
   2              		.eabi_attribute 28, 1
   3              		.eabi_attribute 20, 1
   4              		.eabi_attribute 21, 1
   5              		.eabi_attribute 23, 3
   6              		.eabi_attribute 24, 1
   7              		.eabi_attribute 25, 1
   8              		.eabi_attribute 26, 1
   9              		.eabi_attribute 30, 2
  10              		.eabi_attribute 34, 1
  11              		.eabi_attribute 18, 4
  12              		.file	"adenv.cpp"
  13              		.text
  14              	.Ltext0:
  15              		.cfi_sections	.debug_frame
  16              		.section	.text._ZN7daisysp5AdEnvD2Ev,"axG",%progbits,_ZN7daisysp5AdEnvD5Ev,comdat
  17              		.align	1
  18              		.p2align 2,,3
  19              		.weak	_ZN7daisysp5AdEnvD2Ev
  20              		.arch armv7e-m
  21              		.syntax unified
  22              		.thumb
  23              		.thumb_func
  24              		.fpu fpv5-d16
  26              	_ZN7daisysp5AdEnvD2Ev:
  27              	.LVL0:
  28              	.LFB548:
  29              		.file 1 "../../DaisySP/Source/Control/adenv.h"
   1:../../DaisySP/Source/Control/adenv.h **** #pragma once
   2:../../DaisySP/Source/Control/adenv.h **** #ifndef ADENV_H
   3:../../DaisySP/Source/Control/adenv.h **** #define ADENV_H
   4:../../DaisySP/Source/Control/adenv.h **** #include <stdint.h>
   5:../../DaisySP/Source/Control/adenv.h **** #ifdef __cplusplus
   6:../../DaisySP/Source/Control/adenv.h **** 
   7:../../DaisySP/Source/Control/adenv.h **** namespace daisysp
   8:../../DaisySP/Source/Control/adenv.h **** {
   9:../../DaisySP/Source/Control/adenv.h **** /** Distinct stages that the phase of the envelope can be located in.
  10:../../DaisySP/Source/Control/adenv.h ****     @see AdEnv
  11:../../DaisySP/Source/Control/adenv.h **** */
  12:../../DaisySP/Source/Control/adenv.h **** enum AdEnvSegment
  13:../../DaisySP/Source/Control/adenv.h **** {
  14:../../DaisySP/Source/Control/adenv.h ****     /** located at phase location 0, and not currently running */
  15:../../DaisySP/Source/Control/adenv.h ****     ADENV_SEG_IDLE,
  16:../../DaisySP/Source/Control/adenv.h ****     /** First segment of envelope where phase moves from MIN value to MAX value */
  17:../../DaisySP/Source/Control/adenv.h ****     ADENV_SEG_ATTACK,
  18:../../DaisySP/Source/Control/adenv.h ****     /** Second segment of envelope where phase moves from MAX to MIN value */
  19:../../DaisySP/Source/Control/adenv.h ****     ADENV_SEG_DECAY,
  20:../../DaisySP/Source/Control/adenv.h ****     /** The final segment of the envelope (currently decay) */
  21:../../DaisySP/Source/Control/adenv.h ****     ADENV_SEG_LAST,
  22:../../DaisySP/Source/Control/adenv.h **** };
  23:../../DaisySP/Source/Control/adenv.h **** 
  24:../../DaisySP/Source/Control/adenv.h **** /** Trigger-able envelope with adjustable min/max, and independent per-segment time control.
  25:../../DaisySP/Source/Control/adenv.h **** 
  26:../../DaisySP/Source/Control/adenv.h ****     \author shensley
  27:../../DaisySP/Source/Control/adenv.h ****     \todo - Add Cycling
  28:../../DaisySP/Source/Control/adenv.h ****     \todo - Implement Curve (its only linear for now).
  29:../../DaisySP/Source/Control/adenv.h ****     \todo - Maybe make this an ADsr_ that has AD/AR/Asr_ modes.
ARM GAS  /tmp/ccR68c0T.s 			page 2


  30:../../DaisySP/Source/Control/adenv.h ****  */
  31:../../DaisySP/Source/Control/adenv.h **** class AdEnv
  32:../../DaisySP/Source/Control/adenv.h **** {
  33:../../DaisySP/Source/Control/adenv.h ****   public:
  34:../../DaisySP/Source/Control/adenv.h ****     AdEnv() {}
  35:../../DaisySP/Source/Control/adenv.h ****     ~AdEnv() {}
  30              		.loc 1 35 5 view -0
  31              		.cfi_startproc
  32              		@ args = 0, pretend = 0, frame = 0
  33              		@ frame_needed = 0, uses_anonymous_args = 0
  34              		@ link register save eliminated.
  35              		.loc 1 35 15 is_stmt 0 view .LVU1
  36 0000 7047     		bx	lr
  37              		.cfi_endproc
  38              	.LFE548:
  40              		.weak	_ZN7daisysp5AdEnvD1Ev
  41              		.thumb_set _ZN7daisysp5AdEnvD1Ev,_ZN7daisysp5AdEnvD2Ev
  42 0002 00BF     		.section	.text._ZN7daisysp10OscillatorD2Ev,"axG",%progbits,_ZN7daisysp10OscillatorD5Ev,comdat
  43              		.align	1
  44              		.p2align 2,,3
  45              		.weak	_ZN7daisysp10OscillatorD2Ev
  46              		.syntax unified
  47              		.thumb
  48              		.thumb_func
  49              		.fpu fpv5-d16
  51              	_ZN7daisysp10OscillatorD2Ev:
  52              	.LVL1:
  53              	.LFB2797:
  54              		.file 2 "../../DaisySP/Source/Synthesis/oscillator.h"
   1:../../DaisySP/Source/Synthesis/oscillator.h **** #pragma once
   2:../../DaisySP/Source/Synthesis/oscillator.h **** #ifndef DSY_OSCILLATOR_H
   3:../../DaisySP/Source/Synthesis/oscillator.h **** #define DSY_OSCILLATOR_H
   4:../../DaisySP/Source/Synthesis/oscillator.h **** #include <stdint.h>
   5:../../DaisySP/Source/Synthesis/oscillator.h **** #include "Utility/dsp.h"
   6:../../DaisySP/Source/Synthesis/oscillator.h **** #ifdef __cplusplus
   7:../../DaisySP/Source/Synthesis/oscillator.h **** 
   8:../../DaisySP/Source/Synthesis/oscillator.h **** namespace daisysp
   9:../../DaisySP/Source/Synthesis/oscillator.h **** {
  10:../../DaisySP/Source/Synthesis/oscillator.h **** /** Synthesis of several waveforms, including polyBLEP bandlimited waveforms.
  11:../../DaisySP/Source/Synthesis/oscillator.h **** */
  12:../../DaisySP/Source/Synthesis/oscillator.h **** class Oscillator
  13:../../DaisySP/Source/Synthesis/oscillator.h **** {
  14:../../DaisySP/Source/Synthesis/oscillator.h ****   public:
  15:../../DaisySP/Source/Synthesis/oscillator.h ****     Oscillator() {}
  16:../../DaisySP/Source/Synthesis/oscillator.h ****     ~Oscillator() {}
  55              		.loc 2 16 5 is_stmt 1 view -0
  56              		.cfi_startproc
  57              		@ args = 0, pretend = 0, frame = 0
  58              		@ frame_needed = 0, uses_anonymous_args = 0
  59              		@ link register save eliminated.
  60              		.loc 2 16 20 is_stmt 0 view .LVU3
  61 0000 7047     		bx	lr
  62              		.cfi_endproc
  63              	.LFE2797:
  65              		.weak	_ZN7daisysp10OscillatorD1Ev
  66              		.thumb_set _ZN7daisysp10OscillatorD1Ev,_ZN7daisysp10OscillatorD2Ev
  67 0002 00BF     		.section	.text._ZN7daisysp5MetroD2Ev,"axG",%progbits,_ZN7daisysp5MetroD5Ev,comdat
ARM GAS  /tmp/ccR68c0T.s 			page 3


  68              		.align	1
  69              		.p2align 2,,3
  70              		.weak	_ZN7daisysp5MetroD2Ev
  71              		.syntax unified
  72              		.thumb
  73              		.thumb_func
  74              		.fpu fpv5-d16
  76              	_ZN7daisysp5MetroD2Ev:
  77              	.LVL2:
  78              	.LFB3332:
  79              		.file 3 "../../DaisySP/Source/Utility/metro.h"
   1:../../DaisySP/Source/Utility/metro.h **** #pragma once
   2:../../DaisySP/Source/Utility/metro.h **** #ifndef DSY_METRO_H
   3:../../DaisySP/Source/Utility/metro.h **** #define DSY_METRO_H
   4:../../DaisySP/Source/Utility/metro.h **** #include <stdint.h>
   5:../../DaisySP/Source/Utility/metro.h **** #ifdef __cplusplus
   6:../../DaisySP/Source/Utility/metro.h **** 
   7:../../DaisySP/Source/Utility/metro.h **** namespace daisysp
   8:../../DaisySP/Source/Utility/metro.h **** {
   9:../../DaisySP/Source/Utility/metro.h **** /** Creates a clock signal at a specific frequency.
  10:../../DaisySP/Source/Utility/metro.h **** */
  11:../../DaisySP/Source/Utility/metro.h **** class Metro
  12:../../DaisySP/Source/Utility/metro.h **** {
  13:../../DaisySP/Source/Utility/metro.h ****   public:
  14:../../DaisySP/Source/Utility/metro.h ****     Metro() {}
  15:../../DaisySP/Source/Utility/metro.h ****     ~Metro() {}
  80              		.loc 3 15 5 is_stmt 1 view -0
  81              		.cfi_startproc
  82              		@ args = 0, pretend = 0, frame = 0
  83              		@ frame_needed = 0, uses_anonymous_args = 0
  84              		@ link register save eliminated.
  85              		.loc 3 15 15 is_stmt 0 view .LVU5
  86 0000 7047     		bx	lr
  87              		.cfi_endproc
  88              	.LFE3332:
  90              		.weak	_ZN7daisysp5MetroD1Ev
  91              		.thumb_set _ZN7daisysp5MetroD1Ev,_ZN7daisysp5MetroD2Ev
  92 0002 00BF     		.section	.text._ZN5daisy9DaisySeedD2Ev,"axG",%progbits,_ZN5daisy9DaisySeedD5Ev,comdat
  93              		.align	1
  94              		.p2align 2,,3
  95              		.weak	_ZN5daisy9DaisySeedD2Ev
  96              		.syntax unified
  97              		.thumb
  98              		.thumb_func
  99              		.fpu fpv5-d16
 101              	_ZN5daisy9DaisySeedD2Ev:
 102              	.LVL3:
 103              	.LFB4207:
 104              		.file 4 "../../libdaisy/src/daisy_seed.h"
   1:../../libdaisy/src/daisy_seed.h **** #pragma once
   2:../../libdaisy/src/daisy_seed.h **** #ifndef DSY_SEED_H
   3:../../libdaisy/src/daisy_seed.h **** #define DSY_SEED_H
   4:../../libdaisy/src/daisy_seed.h **** 
   5:../../libdaisy/src/daisy_seed.h **** #include "daisy.h"
   6:../../libdaisy/src/daisy_seed.h **** 
   7:../../libdaisy/src/daisy_seed.h **** //Uncomment this out if you're still using the rev2 hardware
   8:../../libdaisy/src/daisy_seed.h **** //#define SEED_REV2
ARM GAS  /tmp/ccR68c0T.s 			page 4


   9:../../libdaisy/src/daisy_seed.h **** 
  10:../../libdaisy/src/daisy_seed.h **** namespace daisy
  11:../../libdaisy/src/daisy_seed.h **** {
  12:../../libdaisy/src/daisy_seed.h **** /**
  13:../../libdaisy/src/daisy_seed.h ****    @brief This is the higher-level interface for the Daisy board. \n 
  14:../../libdaisy/src/daisy_seed.h ****     All basic peripheral configuration/initialization is setup here. \n
  15:../../libdaisy/src/daisy_seed.h **** 
  16:../../libdaisy/src/daisy_seed.h ****    @ingroup boards
  17:../../libdaisy/src/daisy_seed.h **** */
  18:../../libdaisy/src/daisy_seed.h **** class DaisySeed
  19:../../libdaisy/src/daisy_seed.h **** {
  20:../../libdaisy/src/daisy_seed.h ****   public:
  21:../../libdaisy/src/daisy_seed.h ****     DaisySeed() {}
  22:../../libdaisy/src/daisy_seed.h ****     ~DaisySeed() {}
 105              		.loc 4 22 5 is_stmt 1 view -0
 106              		.cfi_startproc
 107              		@ args = 0, pretend = 0, frame = 0
 108              		@ frame_needed = 0, uses_anonymous_args = 0
 109              		@ link register save eliminated.
 110              	.LBB88:
 111              	.LBI88:
 112              		.file 5 "../../libdaisy/src/sys/system.h"
   1:../../libdaisy/src/sys/system.h **** #ifndef DSY_SYSTEM_H
   2:../../libdaisy/src/sys/system.h **** #define DSY_SYSTEM_H
   3:../../libdaisy/src/sys/system.h **** 
   4:../../libdaisy/src/sys/system.h **** #ifndef UNIT_TEST // for unit tests, a dummy implementation is provided below
   5:../../libdaisy/src/sys/system.h **** 
   6:../../libdaisy/src/sys/system.h **** #include <cstdint>
   7:../../libdaisy/src/sys/system.h **** #include "per/tim.h"
   8:../../libdaisy/src/sys/system.h **** 
   9:../../libdaisy/src/sys/system.h **** namespace daisy
  10:../../libdaisy/src/sys/system.h **** {
  11:../../libdaisy/src/sys/system.h **** /** A handle for interacting with the Core System. 
  12:../../libdaisy/src/sys/system.h ****  ** This includes the Clock tree, MPU, global DMA initialization,
  13:../../libdaisy/src/sys/system.h ****  ** cache handling, and any other necessary global initiailzation
  14:../../libdaisy/src/sys/system.h ****  **
  15:../../libdaisy/src/sys/system.h ****  ** @author shensley
  16:../../libdaisy/src/sys/system.h ****  ** @addtogroup system
  17:../../libdaisy/src/sys/system.h ****  */
  18:../../libdaisy/src/sys/system.h **** class System
  19:../../libdaisy/src/sys/system.h **** {
  20:../../libdaisy/src/sys/system.h ****   public:
  21:../../libdaisy/src/sys/system.h ****     /** Contains settings for initializing the System */
  22:../../libdaisy/src/sys/system.h ****     struct Config
  23:../../libdaisy/src/sys/system.h ****     {
  24:../../libdaisy/src/sys/system.h ****         /** Specifies the system clock frequency that feeds APB/AHB clocks, etc. */
  25:../../libdaisy/src/sys/system.h ****         enum class SysClkFreq
  26:../../libdaisy/src/sys/system.h ****         {
  27:../../libdaisy/src/sys/system.h ****             FREQ_400MHZ,
  28:../../libdaisy/src/sys/system.h ****             FREQ_480MHZ,
  29:../../libdaisy/src/sys/system.h ****         };
  30:../../libdaisy/src/sys/system.h **** 
  31:../../libdaisy/src/sys/system.h ****         /** Method to call on the struct to set to defaults
  32:../../libdaisy/src/sys/system.h ****          ** CPU Freq set to 400MHz
  33:../../libdaisy/src/sys/system.h ****          ** Cache Enabled 
  34:../../libdaisy/src/sys/system.h ****          ** */
  35:../../libdaisy/src/sys/system.h ****         void Defaults()
ARM GAS  /tmp/ccR68c0T.s 			page 5


  36:../../libdaisy/src/sys/system.h ****         {
  37:../../libdaisy/src/sys/system.h ****             cpu_freq   = SysClkFreq::FREQ_400MHZ;
  38:../../libdaisy/src/sys/system.h ****             use_dcache = true;
  39:../../libdaisy/src/sys/system.h ****             use_icache = true;
  40:../../libdaisy/src/sys/system.h ****         }
  41:../../libdaisy/src/sys/system.h **** 
  42:../../libdaisy/src/sys/system.h ****         /** Method to call on the struct to set to boost mode:
  43:../../libdaisy/src/sys/system.h ****          ** CPU Freq set to 480MHz
  44:../../libdaisy/src/sys/system.h ****          ** Cache Enabled 
  45:../../libdaisy/src/sys/system.h ****          ** */
  46:../../libdaisy/src/sys/system.h ****         void Boost()
  47:../../libdaisy/src/sys/system.h ****         {
  48:../../libdaisy/src/sys/system.h ****             cpu_freq   = SysClkFreq::FREQ_480MHZ;
  49:../../libdaisy/src/sys/system.h ****             use_dcache = true;
  50:../../libdaisy/src/sys/system.h ****             use_icache = true;
  51:../../libdaisy/src/sys/system.h ****         }
  52:../../libdaisy/src/sys/system.h **** 
  53:../../libdaisy/src/sys/system.h ****         SysClkFreq cpu_freq;
  54:../../libdaisy/src/sys/system.h ****         bool       use_dcache;
  55:../../libdaisy/src/sys/system.h ****         bool       use_icache;
  56:../../libdaisy/src/sys/system.h ****     };
  57:../../libdaisy/src/sys/system.h **** 
  58:../../libdaisy/src/sys/system.h ****     System() {}
  59:../../libdaisy/src/sys/system.h ****     ~System() {}
 113              		.loc 5 59 5 view .LVU7
 114              		.loc 5 59 5 is_stmt 0 view .LVU8
 115              	.LBE88:
 116              	.LBB89:
 117              	.LBI89:
 118              		.file 6 "../../libdaisy/src/hid/usb.h"
   1:../../libdaisy/src/hid/usb.h **** #pragma once
   2:../../libdaisy/src/hid/usb.h **** #ifndef DSY_HID_USB_H
   3:../../libdaisy/src/hid/usb.h **** #define DSY_HID_USB_H
   4:../../libdaisy/src/hid/usb.h **** #include <stdint.h>
   5:../../libdaisy/src/hid/usb.h **** #include <stdlib.h>
   6:../../libdaisy/src/hid/usb.h **** 
   7:../../libdaisy/src/hid/usb.h **** namespace daisy
   8:../../libdaisy/src/hid/usb.h **** /** @addtogroup externals
   9:../../libdaisy/src/hid/usb.h ****     @{
  10:../../libdaisy/src/hid/usb.h **** */
  11:../../libdaisy/src/hid/usb.h **** 
  12:../../libdaisy/src/hid/usb.h **** {
  13:../../libdaisy/src/hid/usb.h **** /** 
  14:../../libdaisy/src/hid/usb.h ****     @brief Interface for initializing and using the USB Peripherals on the daisy
  15:../../libdaisy/src/hid/usb.h ****     @author Stephen Hensley
  16:../../libdaisy/src/hid/usb.h ****     @date December 2019
  17:../../libdaisy/src/hid/usb.h **** */
  18:../../libdaisy/src/hid/usb.h **** class UsbHandle
  19:../../libdaisy/src/hid/usb.h **** {
  20:../../libdaisy/src/hid/usb.h ****   public:
  21:../../libdaisy/src/hid/usb.h ****     /** Return values for USBHandle Functions */
  22:../../libdaisy/src/hid/usb.h ****     enum class Result
  23:../../libdaisy/src/hid/usb.h ****     {
  24:../../libdaisy/src/hid/usb.h ****         OK,
  25:../../libdaisy/src/hid/usb.h ****         ERR,
  26:../../libdaisy/src/hid/usb.h ****     };
  27:../../libdaisy/src/hid/usb.h **** 
ARM GAS  /tmp/ccR68c0T.s 			page 6


  28:../../libdaisy/src/hid/usb.h ****     /** Specified which of the two USB Peripherals to initialize. */
  29:../../libdaisy/src/hid/usb.h ****     enum UsbPeriph
  30:../../libdaisy/src/hid/usb.h ****     {
  31:../../libdaisy/src/hid/usb.h ****         FS_INTERNAL, /**< Internal pin */
  32:../../libdaisy/src/hid/usb.h ****         FS_EXTERNAL, /**< FS External D+ pin is Pin 38 (GPIO32). FS External D- pin is Pin 37 (GPIO
  33:../../libdaisy/src/hid/usb.h ****         FS_BOTH,     /**< Both */
  34:../../libdaisy/src/hid/usb.h ****     };
  35:../../libdaisy/src/hid/usb.h **** 
  36:../../libdaisy/src/hid/usb.h **** 
  37:../../libdaisy/src/hid/usb.h ****     /** Function called upon reception of a buffer */
  38:../../libdaisy/src/hid/usb.h ****     typedef void (*ReceiveCallback)(uint8_t* buff, uint32_t* len);
  39:../../libdaisy/src/hid/usb.h **** 
  40:../../libdaisy/src/hid/usb.h ****     UsbHandle() {}
  41:../../libdaisy/src/hid/usb.h **** 
  42:../../libdaisy/src/hid/usb.h ****     ~UsbHandle() {}
 119              		.loc 6 42 5 is_stmt 1 view .LVU9
 120              		.loc 6 42 5 is_stmt 0 view .LVU10
 121              	.LBE89:
 122              	.LBB90:
 123              	.LBI90:
 124              		.file 7 "../../libdaisy/src/per/adc.h"
   1:../../libdaisy/src/per/adc.h **** #pragma once
   2:../../libdaisy/src/per/adc.h **** #ifndef DSY_ADC_H
   3:../../libdaisy/src/per/adc.h **** #define DSY_ADC_H /**< Macro */
   4:../../libdaisy/src/per/adc.h **** #include <stdint.h>
   5:../../libdaisy/src/per/adc.h **** #include <stdlib.h>
   6:../../libdaisy/src/per/adc.h **** #include "daisy_core.h"
   7:../../libdaisy/src/per/adc.h **** #include "per/gpio.h"
   8:../../libdaisy/src/per/adc.h **** 
   9:../../libdaisy/src/per/adc.h **** #define DSY_ADC_MAX_CHANNELS 14 /**< Maximum number of ADC channels */
  10:../../libdaisy/src/per/adc.h **** 
  11:../../libdaisy/src/per/adc.h **** namespace daisy
  12:../../libdaisy/src/per/adc.h **** {
  13:../../libdaisy/src/per/adc.h **** /** @addtogroup analog_digital_conversion
  14:../../libdaisy/src/per/adc.h ****     @{
  15:../../libdaisy/src/per/adc.h **** */
  16:../../libdaisy/src/per/adc.h **** 
  17:../../libdaisy/src/per/adc.h **** /* While there may not be many configuration options here,
  18:../../libdaisy/src/per/adc.h **** using a struct like this allows us to add more configuration
  19:../../libdaisy/src/per/adc.h **** later without breaking existing functionality.
  20:../../libdaisy/src/per/adc.h **** */
  21:../../libdaisy/src/per/adc.h **** 
  22:../../libdaisy/src/per/adc.h **** /** Configuration Structure for a given channel */
  23:../../libdaisy/src/per/adc.h **** struct AdcChannelConfig
  24:../../libdaisy/src/per/adc.h **** {
  25:../../libdaisy/src/per/adc.h ****     /** Which pin to use for multiplexing */
  26:../../libdaisy/src/per/adc.h ****     enum MuxPin
  27:../../libdaisy/src/per/adc.h ****     {
  28:../../libdaisy/src/per/adc.h ****         MUX_SEL_0,    /**< & */
  29:../../libdaisy/src/per/adc.h ****         MUX_SEL_1,    /**< & */
  30:../../libdaisy/src/per/adc.h ****         MUX_SEL_2,    /**< & */
  31:../../libdaisy/src/per/adc.h ****         MUX_SEL_LAST, /**< & */
  32:../../libdaisy/src/per/adc.h ****     };
  33:../../libdaisy/src/per/adc.h **** 
  34:../../libdaisy/src/per/adc.h ****     /** Initializes a single ADC pin as an ADC. 
  35:../../libdaisy/src/per/adc.h ****     \param pin Pin to init.
  36:../../libdaisy/src/per/adc.h ****      */
ARM GAS  /tmp/ccR68c0T.s 			page 7


  37:../../libdaisy/src/per/adc.h ****     void InitSingle(dsy_gpio_pin pin);
  38:../../libdaisy/src/per/adc.h **** 
  39:../../libdaisy/src/per/adc.h ****     /** 
  40:../../libdaisy/src/per/adc.h ****     Initializes a single ADC pin as a Multiplexed ADC.
  41:../../libdaisy/src/per/adc.h ****     Requires a CD405X Multiplexer connected to the pin.
  42:../../libdaisy/src/per/adc.h ****     You only need to supply the mux pins that are required,
  43:../../libdaisy/src/per/adc.h ****     e.g. a 4052 mux would only require mux_0 and mux_1.
  44:../../libdaisy/src/per/adc.h ****     Internal Callbacks handle the pin addressing.
  45:../../libdaisy/src/per/adc.h ****     \param mux_channels must be 1-8
  46:../../libdaisy/src/per/adc.h ****     \param mux_0 First mux pin
  47:../../libdaisy/src/per/adc.h ****     \param mux_1 Second mux pin
  48:../../libdaisy/src/per/adc.h ****     \param mux_2 Third mux pin
  49:../../libdaisy/src/per/adc.h ****     \param adc_pin &
  50:../../libdaisy/src/per/adc.h ****     */
  51:../../libdaisy/src/per/adc.h ****     void InitMux(dsy_gpio_pin adc_pin,
  52:../../libdaisy/src/per/adc.h ****                  size_t       mux_channels,
  53:../../libdaisy/src/per/adc.h ****                  dsy_gpio_pin mux_0,
  54:../../libdaisy/src/per/adc.h ****                  dsy_gpio_pin mux_1 = {DSY_GPIOX, 0},
  55:../../libdaisy/src/per/adc.h ****                  dsy_gpio_pin mux_2 = {DSY_GPIOX, 0});
  56:../../libdaisy/src/per/adc.h **** 
  57:../../libdaisy/src/per/adc.h ****     dsy_gpio pin_;                   /**< & */
  58:../../libdaisy/src/per/adc.h ****     dsy_gpio mux_pin_[MUX_SEL_LAST]; /**< & */
  59:../../libdaisy/src/per/adc.h ****     uint8_t  mux_channels_;          /**< & */
  60:../../libdaisy/src/per/adc.h **** };
  61:../../libdaisy/src/per/adc.h **** 
  62:../../libdaisy/src/per/adc.h **** /**
  63:../../libdaisy/src/per/adc.h ****    Handler for analog to digital conversion
  64:../../libdaisy/src/per/adc.h **** */
  65:../../libdaisy/src/per/adc.h **** class AdcHandle
  66:../../libdaisy/src/per/adc.h **** {
  67:../../libdaisy/src/per/adc.h ****   public:
  68:../../libdaisy/src/per/adc.h ****     /** Supported oversampling amounts */
  69:../../libdaisy/src/per/adc.h ****     enum OverSampling
  70:../../libdaisy/src/per/adc.h ****     {
  71:../../libdaisy/src/per/adc.h ****         OVS_NONE, /**< & */
  72:../../libdaisy/src/per/adc.h ****         OVS_4,    /**< & */
  73:../../libdaisy/src/per/adc.h ****         OVS_8,    /**< & */
  74:../../libdaisy/src/per/adc.h ****         OVS_16,   /**< & */
  75:../../libdaisy/src/per/adc.h ****         OVS_32,   /**< & */
  76:../../libdaisy/src/per/adc.h ****         OVS_64,   /**< & */
  77:../../libdaisy/src/per/adc.h ****         OVS_128,  /**< & */
  78:../../libdaisy/src/per/adc.h ****         OVS_256,  /**< & */
  79:../../libdaisy/src/per/adc.h ****         OVS_512,  /**< & */
  80:../../libdaisy/src/per/adc.h ****         OVS_1024, /**< & */
  81:../../libdaisy/src/per/adc.h ****         OVS_LAST, /**< & */
  82:../../libdaisy/src/per/adc.h ****     };
  83:../../libdaisy/src/per/adc.h **** 
  84:../../libdaisy/src/per/adc.h ****     AdcHandle() {}
  85:../../libdaisy/src/per/adc.h ****     ~AdcHandle() {}
 125              		.loc 7 85 5 is_stmt 1 view .LVU11
 126              		.loc 7 85 5 is_stmt 0 view .LVU12
 127              	.LBE90:
 128              	.LBB91:
 129              	.LBI91:
 130              		.file 8 "../../libdaisy/src/hid/audio.h"
   1:../../libdaisy/src/hid/audio.h **** #ifndef DSY_AUDIO_H
   2:../../libdaisy/src/hid/audio.h **** #define DSY_AUDIO_H /**< & */
ARM GAS  /tmp/ccR68c0T.s 			page 8


   3:../../libdaisy/src/hid/audio.h **** 
   4:../../libdaisy/src/hid/audio.h **** #include "per/sai.h"
   5:../../libdaisy/src/hid/audio.h **** 
   6:../../libdaisy/src/hid/audio.h **** namespace daisy
   7:../../libdaisy/src/hid/audio.h **** {
   8:../../libdaisy/src/hid/audio.h **** class AudioHandle
   9:../../libdaisy/src/hid/audio.h **** {
  10:../../libdaisy/src/hid/audio.h ****   public:
  11:../../libdaisy/src/hid/audio.h ****     /** Manually configurable details about the Audio Engine */
  12:../../libdaisy/src/hid/audio.h ****     /** TODO: Figure out how to get samplerate in here. */
  13:../../libdaisy/src/hid/audio.h ****     struct Config
  14:../../libdaisy/src/hid/audio.h ****     {
  15:../../libdaisy/src/hid/audio.h ****         size_t                        blocksize;
  16:../../libdaisy/src/hid/audio.h ****         SaiHandle::Config::SampleRate samplerate;
  17:../../libdaisy/src/hid/audio.h ****         float                         postgain;
  18:../../libdaisy/src/hid/audio.h ****     };
  19:../../libdaisy/src/hid/audio.h **** 
  20:../../libdaisy/src/hid/audio.h ****     enum class Result
  21:../../libdaisy/src/hid/audio.h ****     {
  22:../../libdaisy/src/hid/audio.h ****         OK,
  23:../../libdaisy/src/hid/audio.h ****         ERR,
  24:../../libdaisy/src/hid/audio.h ****     };
  25:../../libdaisy/src/hid/audio.h **** 
  26:../../libdaisy/src/hid/audio.h ****     /** Non-Interleaving input buffer
  27:../../libdaisy/src/hid/audio.h ****      * Buffer arranged by float[chn][sample] 
  28:../../libdaisy/src/hid/audio.h ****      * const so that the user can't modify the input
  29:../../libdaisy/src/hid/audio.h ****     */
  30:../../libdaisy/src/hid/audio.h ****     typedef const float* const* InputBuffer;
  31:../../libdaisy/src/hid/audio.h **** 
  32:../../libdaisy/src/hid/audio.h ****     /** Non-Interleaving output buffer
  33:../../libdaisy/src/hid/audio.h ****      * Arranged by float[chn][sample] 
  34:../../libdaisy/src/hid/audio.h ****     */
  35:../../libdaisy/src/hid/audio.h ****     typedef float** OutputBuffer;
  36:../../libdaisy/src/hid/audio.h **** 
  37:../../libdaisy/src/hid/audio.h ****     /** Type for a Non-Interleaving audio callback 
  38:../../libdaisy/src/hid/audio.h ****    * Non-Interleaving audio callbacks in daisy will be of this type
  39:../../libdaisy/src/hid/audio.h ****   */
  40:../../libdaisy/src/hid/audio.h ****     typedef void (*AudioCallback)(InputBuffer  in,
  41:../../libdaisy/src/hid/audio.h ****                                   OutputBuffer out,
  42:../../libdaisy/src/hid/audio.h ****                                   size_t       size);
  43:../../libdaisy/src/hid/audio.h **** 
  44:../../libdaisy/src/hid/audio.h ****     /** Interleaving Input buffer
  45:../../libdaisy/src/hid/audio.h ****      ** audio is prepared as { L0, R0, L1, R1, . . . LN, RN }]
  46:../../libdaisy/src/hid/audio.h ****      ** this is const, as the user shouldn't modify it
  47:../../libdaisy/src/hid/audio.h ****     */
  48:../../libdaisy/src/hid/audio.h ****     typedef const float* InterleavingInputBuffer;
  49:../../libdaisy/src/hid/audio.h **** 
  50:../../libdaisy/src/hid/audio.h ****     /** Interleaving Output buffer 
  51:../../libdaisy/src/hid/audio.h ****      ** audio is prepared as { L0, R0, L1, R1, . . . LN, RN }
  52:../../libdaisy/src/hid/audio.h ****     */
  53:../../libdaisy/src/hid/audio.h ****     typedef float* InterleavingOutputBuffer;
  54:../../libdaisy/src/hid/audio.h **** 
  55:../../libdaisy/src/hid/audio.h ****     /** Interleaving Audio Callback 
  56:../../libdaisy/src/hid/audio.h ****    * Interleaving audio callbacks in daisy must be of this type
  57:../../libdaisy/src/hid/audio.h ****   */
  58:../../libdaisy/src/hid/audio.h ****     typedef void (*InterleavingAudioCallback)(InterleavingInputBuffer  in,
  59:../../libdaisy/src/hid/audio.h ****                                               InterleavingOutputBuffer out,
ARM GAS  /tmp/ccR68c0T.s 			page 9


  60:../../libdaisy/src/hid/audio.h ****                                               size_t                   size);
  61:../../libdaisy/src/hid/audio.h **** 
  62:../../libdaisy/src/hid/audio.h ****     AudioHandle() : pimpl_(nullptr) {}
  63:../../libdaisy/src/hid/audio.h ****     ~AudioHandle() {}
 131              		.loc 8 63 5 is_stmt 1 view .LVU13
 132              		.loc 8 63 5 is_stmt 0 view .LVU14
 133              	.LBE91:
 134              		.loc 4 22 19 view .LVU15
 135 0000 7047     		bx	lr
 136              		.cfi_endproc
 137              	.LFE4207:
 139              		.weak	_ZN5daisy9DaisySeedD1Ev
 140              		.thumb_set _ZN5daisy9DaisySeedD1Ev,_ZN5daisy9DaisySeedD2Ev
 141 0002 00BF     		.section	.text._ZL13AudioCallbackPKfPfj,"ax",%progbits
 142              		.align	1
 143              		.p2align 2,,3
 144              		.syntax unified
 145              		.thumb
 146              		.thumb_func
 147              		.fpu fpv5-d16
 149              	_ZL13AudioCallbackPKfPfj:
 150              	.LVL4:
 151              	.LFB4212:
 152              		.file 9 "adenv.cpp"
   1:adenv.cpp     **** #include "daisysp.h"
   2:adenv.cpp     **** #include "daisy_seed.h"
   3:adenv.cpp     **** 
   4:adenv.cpp     **** // Shortening long macro for sample rate
   5:adenv.cpp     **** #ifndef sample_rate
   6:adenv.cpp     **** 
   7:adenv.cpp     **** #endif
   8:adenv.cpp     **** 
   9:adenv.cpp     **** // Interleaved audio definitions
  10:adenv.cpp     **** #define LEFT (i)
  11:adenv.cpp     **** #define RIGHT (i + 1)
  12:adenv.cpp     **** 
  13:adenv.cpp     **** using namespace daisysp;
  14:adenv.cpp     **** using namespace daisy;
  15:adenv.cpp     **** 
  16:adenv.cpp     **** static DaisySeed  seed;
  17:adenv.cpp     **** static AdEnv      env;
  18:adenv.cpp     **** static Oscillator osc;
  19:adenv.cpp     **** static Metro      tick;
  20:adenv.cpp     **** 
  21:adenv.cpp     **** static void AudioCallback(AudioHandle::InterleavingInputBuffer  in,
  22:adenv.cpp     ****                           AudioHandle::InterleavingOutputBuffer out,
  23:adenv.cpp     ****                           size_t                                size)
  24:adenv.cpp     **** {
 153              		.loc 9 24 1 is_stmt 1 view -0
 154              		.cfi_startproc
 155              		@ args = 0, pretend = 0, frame = 0
 156              		@ frame_needed = 0, uses_anonymous_args = 0
  25:adenv.cpp     ****     float osc_out, env_out;
 157              		.loc 9 25 5 view .LVU17
  26:adenv.cpp     ****     for(size_t i = 0; i < size; i += 2)
 158              		.loc 9 26 5 view .LVU18
 159              	.LBB92:
ARM GAS  /tmp/ccR68c0T.s 			page 10


 160              		.loc 9 26 25 view .LVU19
 161 0000 0AB3     		cbz	r2, .L18
 162 0002 013A     		subs	r2, r2, #1
 163              	.LVL5:
 164              		.loc 9 26 25 is_stmt 0 view .LVU20
 165              	.LBE92:
  24:adenv.cpp     ****     float osc_out, env_out;
 166              		.loc 9 24 1 view .LVU21
 167 0004 F8B5     		push	{r3, r4, r5, r6, r7, lr}
 168              		.cfi_def_cfa_offset 24
 169              		.cfi_offset 3, -24
 170              		.cfi_offset 4, -20
 171              		.cfi_offset 5, -16
 172              		.cfi_offset 6, -12
 173              		.cfi_offset 7, -8
 174              		.cfi_offset 14, -4
 175 0006 0C46     		mov	r4, r1
 176              	.LBB103:
 177              		.loc 9 26 16 view .LVU22
 178 0008 0025     		movs	r5, #0
 179 000a 0F4F     		ldr	r7, .L21
 180 000c 22F00106 		bic	r6, r2, #1
 181              	.LVL6:
 182              	.L9:
  27:adenv.cpp     ****     {
  28:adenv.cpp     ****         // When the metro ticks, trigger the envelope to start.
  29:adenv.cpp     ****         if(tick.Process())
 183              		.loc 9 29 9 is_stmt 1 view .LVU23
 184              		.loc 9 29 24 is_stmt 0 view .LVU24
 185 0010 0E48     		ldr	r0, .L21+4
 186 0012 FFF7FEFF 		bl	_ZN7daisysp5Metro7ProcessEv
 187              	.LVL7:
  30:adenv.cpp     ****         {
  31:adenv.cpp     ****             env.Trigger();
 188              		.loc 9 31 13 is_stmt 1 view .LVU25
 189              	.LBB93:
 190              	.LBI93:
  36:../../DaisySP/Source/Control/adenv.h ****     /** Initializes the ad envelope.
  37:../../DaisySP/Source/Control/adenv.h **** 
  38:../../DaisySP/Source/Control/adenv.h ****         Defaults:
  39:../../DaisySP/Source/Control/adenv.h ****             - current segment = idle
  40:../../DaisySP/Source/Control/adenv.h ****             - curve = linear
  41:../../DaisySP/Source/Control/adenv.h ****             - phase = 0
  42:../../DaisySP/Source/Control/adenv.h ****             - min = 0
  43:../../DaisySP/Source/Control/adenv.h ****             - max = 1
  44:../../DaisySP/Source/Control/adenv.h **** 
  45:../../DaisySP/Source/Control/adenv.h ****         \param sample_rate      sample rate of the audio engine being run
  46:../../DaisySP/Source/Control/adenv.h ****     */
  47:../../DaisySP/Source/Control/adenv.h ****     void Init(float sample_rate);
  48:../../DaisySP/Source/Control/adenv.h **** 
  49:../../DaisySP/Source/Control/adenv.h ****     /** Processes the current sample of the envelope. This should be called once
  50:../../DaisySP/Source/Control/adenv.h ****         per sample period.
  51:../../DaisySP/Source/Control/adenv.h ****         \return the current envelope value.
  52:../../DaisySP/Source/Control/adenv.h ****     */
  53:../../DaisySP/Source/Control/adenv.h ****     float Process();
  54:../../DaisySP/Source/Control/adenv.h **** 
  55:../../DaisySP/Source/Control/adenv.h ****     /** Starts or retriggers the envelope.*/
ARM GAS  /tmp/ccR68c0T.s 			page 11


  56:../../DaisySP/Source/Control/adenv.h ****     inline void Trigger() { trigger_ = 1; }
 191              		.loc 1 56 17 view .LVU26
 192              	.LBB94:
 193              		.loc 1 56 29 view .LVU27
 194              	.LBE94:
 195              	.LBE93:
  32:adenv.cpp     ****         }
  33:adenv.cpp     **** 
  34:adenv.cpp     ****         // Use envelope to control the amplitude of the oscillator.
  35:adenv.cpp     ****         env_out = env.Process();
 196              		.loc 9 35 9 view .LVU28
  29:adenv.cpp     ****         {
 197              		.loc 9 29 24 is_stmt 0 view .LVU29
 198 0016 0346     		mov	r3, r0
 199              	.LBB97:
 200              	.LBB95:
 201              		.loc 1 56 38 view .LVU30
 202 0018 0121     		movs	r1, #1
 203              	.LBE95:
 204              	.LBE97:
 205              		.loc 9 35 30 view .LVU31
 206 001a 0D48     		ldr	r0, .L21+8
  29:adenv.cpp     ****         {
 207              		.loc 9 29 9 view .LVU32
 208 001c 0BB1     		cbz	r3, .L8
 209              	.LBB98:
 210              	.LBB96:
 211              		.loc 1 56 38 view .LVU33
 212 001e 80F83410 		strb	r1, [r0, #52]
 213              	.L8:
 214              	.LBE96:
 215              	.LBE98:
 216              		.loc 9 35 30 discriminator 2 view .LVU34
 217 0022 FFF7FEFF 		bl	_ZN7daisysp5AdEnv7ProcessEv
 218              	.LVL8:
  36:adenv.cpp     ****         osc.SetAmp(env_out);
 219              		.loc 9 36 9 is_stmt 1 discriminator 2 view .LVU35
 220              	.LBB99:
 221              	.LBI99:
  17:../../DaisySP/Source/Synthesis/oscillator.h ****     /** Choices for output waveforms, POLYBLEP are appropriately labeled. Others are naive forms.
  18:../../DaisySP/Source/Synthesis/oscillator.h ****     */
  19:../../DaisySP/Source/Synthesis/oscillator.h ****     enum
  20:../../DaisySP/Source/Synthesis/oscillator.h ****     {
  21:../../DaisySP/Source/Synthesis/oscillator.h ****         WAVE_SIN,
  22:../../DaisySP/Source/Synthesis/oscillator.h ****         WAVE_TRI,
  23:../../DaisySP/Source/Synthesis/oscillator.h ****         WAVE_SAW,
  24:../../DaisySP/Source/Synthesis/oscillator.h ****         WAVE_RAMP,
  25:../../DaisySP/Source/Synthesis/oscillator.h ****         WAVE_SQUARE,
  26:../../DaisySP/Source/Synthesis/oscillator.h ****         WAVE_POLYBLEP_TRI,
  27:../../DaisySP/Source/Synthesis/oscillator.h ****         WAVE_POLYBLEP_SAW,
  28:../../DaisySP/Source/Synthesis/oscillator.h ****         WAVE_POLYBLEP_SQUARE,
  29:../../DaisySP/Source/Synthesis/oscillator.h ****         WAVE_LAST,
  30:../../DaisySP/Source/Synthesis/oscillator.h ****     };
  31:../../DaisySP/Source/Synthesis/oscillator.h **** 
  32:../../DaisySP/Source/Synthesis/oscillator.h **** 
  33:../../DaisySP/Source/Synthesis/oscillator.h ****     /** Initializes the Oscillator
  34:../../DaisySP/Source/Synthesis/oscillator.h **** 
ARM GAS  /tmp/ccR68c0T.s 			page 12


  35:../../DaisySP/Source/Synthesis/oscillator.h ****         \param sample_rate - sample rate of the audio engine being run, and the frequency that the 
  36:../../DaisySP/Source/Synthesis/oscillator.h **** 
  37:../../DaisySP/Source/Synthesis/oscillator.h ****         Defaults:
  38:../../DaisySP/Source/Synthesis/oscillator.h ****         - freq_ = 100 Hz
  39:../../DaisySP/Source/Synthesis/oscillator.h ****         - amp_ = 0.5
  40:../../DaisySP/Source/Synthesis/oscillator.h ****         - waveform_ = sine wave.
  41:../../DaisySP/Source/Synthesis/oscillator.h ****     */
  42:../../DaisySP/Source/Synthesis/oscillator.h ****     void Init(float sample_rate)
  43:../../DaisySP/Source/Synthesis/oscillator.h ****     {
  44:../../DaisySP/Source/Synthesis/oscillator.h ****         sr_        = sample_rate;
  45:../../DaisySP/Source/Synthesis/oscillator.h ****         sr_recip_  = 1.0f / sample_rate;
  46:../../DaisySP/Source/Synthesis/oscillator.h ****         freq_      = 100.0f;
  47:../../DaisySP/Source/Synthesis/oscillator.h ****         amp_       = 0.5f;
  48:../../DaisySP/Source/Synthesis/oscillator.h ****         phase_     = 0.0f;
  49:../../DaisySP/Source/Synthesis/oscillator.h ****         phase_inc_ = CalcPhaseInc(freq_);
  50:../../DaisySP/Source/Synthesis/oscillator.h ****         waveform_  = WAVE_SIN;
  51:../../DaisySP/Source/Synthesis/oscillator.h ****         eoc_       = true;
  52:../../DaisySP/Source/Synthesis/oscillator.h ****         eor_       = true;
  53:../../DaisySP/Source/Synthesis/oscillator.h ****     }
  54:../../DaisySP/Source/Synthesis/oscillator.h **** 
  55:../../DaisySP/Source/Synthesis/oscillator.h **** 
  56:../../DaisySP/Source/Synthesis/oscillator.h ****     /** Changes the frequency of the Oscillator, and recalculates phase increment.
  57:../../DaisySP/Source/Synthesis/oscillator.h ****     */
  58:../../DaisySP/Source/Synthesis/oscillator.h ****     inline void SetFreq(const float f)
  59:../../DaisySP/Source/Synthesis/oscillator.h ****     {
  60:../../DaisySP/Source/Synthesis/oscillator.h ****         freq_      = f;
  61:../../DaisySP/Source/Synthesis/oscillator.h ****         phase_inc_ = CalcPhaseInc(f);
  62:../../DaisySP/Source/Synthesis/oscillator.h ****     }
  63:../../DaisySP/Source/Synthesis/oscillator.h **** 
  64:../../DaisySP/Source/Synthesis/oscillator.h **** 
  65:../../DaisySP/Source/Synthesis/oscillator.h ****     /** Sets the amplitude of the waveform.
  66:../../DaisySP/Source/Synthesis/oscillator.h ****     */
  67:../../DaisySP/Source/Synthesis/oscillator.h ****     inline void SetAmp(const float a) { amp_ = a; }
 222              		.loc 2 67 17 discriminator 2 view .LVU36
 223              	.LBB100:
 224              		.loc 2 67 41 discriminator 2 view .LVU37
 225              	.LBE100:
 226              	.LBE99:
  37:adenv.cpp     ****         osc_out = osc.Process();
 227              		.loc 9 37 30 is_stmt 0 discriminator 2 view .LVU38
 228 0026 0848     		ldr	r0, .L21
 229              	.LBB102:
 230              	.LBB101:
 231              		.loc 2 67 46 discriminator 2 view .LVU39
 232 0028 87ED010A 		vstr.32	s0, [r7, #4]
 233              	.LVL9:
 234              		.loc 2 67 46 discriminator 2 view .LVU40
 235              	.LBE101:
 236              	.LBE102:
 237              		.loc 9 37 9 is_stmt 1 discriminator 2 view .LVU41
 238              		.loc 9 37 30 is_stmt 0 discriminator 2 view .LVU42
 239 002c FFF7FEFF 		bl	_ZN7daisysp10Oscillator7ProcessEv
 240              	.LVL10:
  26:adenv.cpp     ****     {
 241              		.loc 9 26 35 discriminator 2 view .LVU43
 242 0030 AB1C     		adds	r3, r5, #2
 243              	.LVL11:
ARM GAS  /tmp/ccR68c0T.s 			page 13


  38:adenv.cpp     **** 
  39:adenv.cpp     ****         out[LEFT]  = osc_out;
 244              		.loc 9 39 9 is_stmt 1 discriminator 2 view .LVU44
  26:adenv.cpp     ****     {
 245              		.loc 9 26 25 is_stmt 0 discriminator 2 view .LVU45
 246 0032 B542     		cmp	r5, r6
 247              		.loc 9 39 20 discriminator 2 view .LVU46
 248 0034 84ED000A 		vstr.32	s0, [r4]
  40:adenv.cpp     ****         out[RIGHT] = osc_out;
 249              		.loc 9 40 9 is_stmt 1 discriminator 2 view .LVU47
 250 0038 04F10804 		add	r4, r4, #8
 251              		.loc 9 40 20 is_stmt 0 discriminator 2 view .LVU48
 252 003c 04ED010A 		vstr.32	s0, [r4, #-4]
  26:adenv.cpp     ****     {
 253              		.loc 9 26 5 is_stmt 1 discriminator 2 view .LVU49
 254              	.LVL12:
  26:adenv.cpp     ****     {
 255              		.loc 9 26 25 discriminator 2 view .LVU50
 256 0040 1D46     		mov	r5, r3
 257 0042 E5D1     		bne	.L9
 258              	.LBE103:
  41:adenv.cpp     ****     }
  42:adenv.cpp     **** }
 259              		.loc 9 42 1 is_stmt 0 view .LVU51
 260 0044 F8BD     		pop	{r3, r4, r5, r6, r7, pc}
 261              	.LVL13:
 262              	.L18:
 263              		.cfi_def_cfa_offset 0
 264              		.cfi_restore 3
 265              		.cfi_restore 4
 266              		.cfi_restore 5
 267              		.cfi_restore 6
 268              		.cfi_restore 7
 269              		.cfi_restore 14
 270              		.loc 9 42 1 view .LVU52
 271 0046 7047     		bx	lr
 272              	.L22:
 273              		.align	2
 274              	.L21:
 275 0048 00000000 		.word	.LANCHOR2
 276 004c 00000000 		.word	.LANCHOR0
 277 0050 00000000 		.word	.LANCHOR1
 278              		.cfi_endproc
 279              	.LFE4212:
 281              		.section	.text.startup.main,"ax",%progbits
 282              		.align	1
 283              		.p2align 2,,3
 284              		.global	main
 285              		.syntax unified
 286              		.thumb
 287              		.thumb_func
 288              		.fpu fpv5-d16
 290              	main:
 291              	.LFB4213:
  43:adenv.cpp     **** 
  44:adenv.cpp     **** int main(void)
  45:adenv.cpp     **** {
ARM GAS  /tmp/ccR68c0T.s 			page 14


 292              		.loc 9 45 1 is_stmt 1 view -0
 293              		.cfi_startproc
 294              		@ args = 0, pretend = 0, frame = 0
 295              		@ frame_needed = 0, uses_anonymous_args = 0
  46:adenv.cpp     ****     // initialize seed hardware and daisysp modules
  47:adenv.cpp     ****     float sample_rate;
 296              		.loc 9 47 5 view .LVU54
  48:adenv.cpp     ****     seed.Configure();
 297              		.loc 9 48 5 view .LVU55
  45:adenv.cpp     ****     // initialize seed hardware and daisysp modules
 298              		.loc 9 45 1 is_stmt 0 view .LVU56
 299 0000 F8B5     		push	{r3, r4, r5, r6, r7, lr}
 300              		.cfi_def_cfa_offset 24
 301              		.cfi_offset 3, -24
 302              		.cfi_offset 4, -20
 303              		.cfi_offset 5, -16
 304              		.cfi_offset 6, -12
 305              		.cfi_offset 7, -8
 306              		.cfi_offset 14, -4
 307              		.loc 9 48 19 view .LVU57
 308 0002 2848     		ldr	r0, .L26
 309              	.LBB104:
 310              	.LBB105:
  48:../../DaisySP/Source/Synthesis/oscillator.h ****         phase_inc_ = CalcPhaseInc(freq_);
 311              		.loc 2 48 20 view .LVU58
 312 0004 0026     		movs	r6, #0
 313              	.LBE105:
 314              	.LBE104:
  49:adenv.cpp     ****     seed.Init();
  50:adenv.cpp     ****     sample_rate = seed.AudioSampleRate();
  51:adenv.cpp     ****     env.Init(sample_rate);
 315              		.loc 9 51 13 view .LVU59
 316 0006 284D     		ldr	r5, .L26+4
 317              	.LBB110:
 318              	.LBB111:
  57:../../DaisySP/Source/Control/adenv.h ****     /** Sets the length of time (in seconds) for a specific segment. */
  58:../../DaisySP/Source/Control/adenv.h ****     inline void SetTime(uint8_t seg, float time) { segment_time_[seg] = time; }
  59:../../DaisySP/Source/Control/adenv.h ****     /** Sets the amount of curve applied. A positve value will create a log
  60:../../DaisySP/Source/Control/adenv.h ****         curve. Input range: -100 to 100.  (or more)
  61:../../DaisySP/Source/Control/adenv.h ****     */
  62:../../DaisySP/Source/Control/adenv.h ****     inline void SetCurve(float scalar) { curve_scalar_ = scalar; }
  63:../../DaisySP/Source/Control/adenv.h ****     /** Sets the minimum value of the envelope output.
  64:../../DaisySP/Source/Control/adenv.h ****         Input range: -FLTmax_, to FLTmax_
  65:../../DaisySP/Source/Control/adenv.h ****     */
  66:../../DaisySP/Source/Control/adenv.h ****     inline void SetMin(float min) { min_ = min; }
  67:../../DaisySP/Source/Control/adenv.h ****     /** Sets the maximum value of the envelope output.
  68:../../DaisySP/Source/Control/adenv.h ****         Input range: -FLTmax_, to FLTmax_
  69:../../DaisySP/Source/Control/adenv.h ****     */
  70:../../DaisySP/Source/Control/adenv.h ****     inline void SetMax(float max) { max_ = max; }
 319              		.loc 1 70 42 view .LVU60
 320 0008 4FF07A57 		mov	r7, #1048576000
 321              	.LBE111:
 322              	.LBE110:
 323              	.LBB114:
 324              	.LBB106:
  44:../../DaisySP/Source/Synthesis/oscillator.h ****         sr_recip_  = 1.0f / sample_rate;
 325              		.loc 2 44 20 view .LVU61
ARM GAS  /tmp/ccR68c0T.s 			page 15


 326 000c 274C     		ldr	r4, .L26+8
 327              	.LBE106:
 328              	.LBE114:
  45:adenv.cpp     ****     // initialize seed hardware and daisysp modules
 329              		.loc 9 45 1 view .LVU62
 330 000e 2DED028B 		vpush.64	{d8}
 331              		.cfi_def_cfa_offset 32
 332              		.cfi_offset 80, -32
 333              		.cfi_offset 81, -28
  48:adenv.cpp     ****     seed.Init();
 334              		.loc 9 48 19 view .LVU63
 335 0012 FFF7FEFF 		bl	_ZN5daisy9DaisySeed9ConfigureEv
 336              	.LVL14:
  49:adenv.cpp     ****     sample_rate = seed.AudioSampleRate();
 337              		.loc 9 49 5 is_stmt 1 view .LVU64
  49:adenv.cpp     ****     sample_rate = seed.AudioSampleRate();
 338              		.loc 9 49 14 is_stmt 0 view .LVU65
 339 0016 0021     		movs	r1, #0
 340 0018 2248     		ldr	r0, .L26
 341              	.LBB115:
 342              	.LBB107:
  45:../../DaisySP/Source/Synthesis/oscillator.h ****         freq_      = 100.0f;
 343              		.loc 2 45 27 view .LVU66
 344 001a F7EE008A 		vmov.f32	s17, #1.0e+0
 345              	.LBE107:
 346              	.LBE115:
  49:adenv.cpp     ****     sample_rate = seed.AudioSampleRate();
 347              		.loc 9 49 14 view .LVU67
 348 001e FFF7FEFF 		bl	_ZN5daisy9DaisySeed4InitEb
 349              	.LVL15:
  50:adenv.cpp     ****     env.Init(sample_rate);
 350              		.loc 9 50 5 is_stmt 1 view .LVU68
  50:adenv.cpp     ****     env.Init(sample_rate);
 351              		.loc 9 50 39 is_stmt 0 view .LVU69
 352 0022 2048     		ldr	r0, .L26
 353 0024 FFF7FEFF 		bl	_ZN5daisy9DaisySeed15AudioSampleRateEv
 354              	.LVL16:
 355 0028 B0EE408A 		vmov.f32	s16, s0
 356              	.LVL17:
 357              		.loc 9 51 5 is_stmt 1 view .LVU70
 358              		.loc 9 51 13 is_stmt 0 view .LVU71
 359 002c 2846     		mov	r0, r5
 360 002e FFF7FEFF 		bl	_ZN7daisysp5AdEnv4InitEf
 361              	.LVL18:
  52:adenv.cpp     ****     osc.Init(sample_rate);
 362              		.loc 9 52 5 is_stmt 1 view .LVU72
 363              	.LBB116:
 364              	.LBI104:
  42:../../DaisySP/Source/Synthesis/oscillator.h ****     {
 365              		.loc 2 42 10 view .LVU73
 366              	.LBB108:
  44:../../DaisySP/Source/Synthesis/oscillator.h ****         sr_recip_  = 1.0f / sample_rate;
 367              		.loc 2 44 9 view .LVU74
  47:../../DaisySP/Source/Synthesis/oscillator.h ****         phase_     = 0.0f;
 368              		.loc 2 47 20 is_stmt 0 view .LVU75
 369 0032 4FF07C53 		mov	r3, #1056964608
  45:../../DaisySP/Source/Synthesis/oscillator.h ****         freq_      = 100.0f;
ARM GAS  /tmp/ccR68c0T.s 			page 16


 370              		.loc 2 45 27 view .LVU76
 371 0036 C8EE887A 		vdiv.f32	s15, s17, s16
  46:../../DaisySP/Source/Synthesis/oscillator.h ****         amp_       = 0.5f;
 372              		.loc 2 46 20 view .LVU77
 373 003a 9FED1D0A 		vldr.32	s0, .L26+12
  49:../../DaisySP/Source/Synthesis/oscillator.h ****         waveform_  = WAVE_SIN;
 374              		.loc 2 49 34 view .LVU78
 375 003e 2046     		mov	r0, r4
  47:../../DaisySP/Source/Synthesis/oscillator.h ****         phase_     = 0.0f;
 376              		.loc 2 47 20 view .LVU79
 377 0040 6360     		str	r3, [r4, #4]	@ float
  44:../../DaisySP/Source/Synthesis/oscillator.h ****         sr_recip_  = 1.0f / sample_rate;
 378              		.loc 2 44 20 view .LVU80
 379 0042 84ED038A 		vstr.32	s16, [r4, #12]
  45:../../DaisySP/Source/Synthesis/oscillator.h ****         freq_      = 100.0f;
 380              		.loc 2 45 9 is_stmt 1 view .LVU81
  46:../../DaisySP/Source/Synthesis/oscillator.h ****         amp_       = 0.5f;
 381              		.loc 2 46 20 is_stmt 0 view .LVU82
 382 0046 84ED020A 		vstr.32	s0, [r4, #8]
  48:../../DaisySP/Source/Synthesis/oscillator.h ****         phase_inc_ = CalcPhaseInc(freq_);
 383              		.loc 2 48 20 view .LVU83
 384 004a 6661     		str	r6, [r4, #20]	@ float
  45:../../DaisySP/Source/Synthesis/oscillator.h ****         freq_      = 100.0f;
 385              		.loc 2 45 20 view .LVU84
 386 004c C4ED047A 		vstr.32	s15, [r4, #16]
  46:../../DaisySP/Source/Synthesis/oscillator.h ****         amp_       = 0.5f;
 387              		.loc 2 46 9 is_stmt 1 view .LVU85
  47:../../DaisySP/Source/Synthesis/oscillator.h ****         phase_     = 0.0f;
 388              		.loc 2 47 9 view .LVU86
  48:../../DaisySP/Source/Synthesis/oscillator.h ****         phase_inc_ = CalcPhaseInc(freq_);
 389              		.loc 2 48 9 view .LVU87
  49:../../DaisySP/Source/Synthesis/oscillator.h ****         waveform_  = WAVE_SIN;
 390              		.loc 2 49 9 view .LVU88
  49:../../DaisySP/Source/Synthesis/oscillator.h ****         waveform_  = WAVE_SIN;
 391              		.loc 2 49 34 is_stmt 0 view .LVU89
 392 0050 FFF7FEFF 		bl	_ZN7daisysp10Oscillator12CalcPhaseIncEf
 393              	.LVL19:
 394 0054 F0EE407A 		vmov.f32	s15, s0
  50:../../DaisySP/Source/Synthesis/oscillator.h ****         eoc_       = true;
 395              		.loc 2 50 20 view .LVU90
 396 0058 0022     		movs	r2, #0
  52:../../DaisySP/Source/Synthesis/oscillator.h ****     }
 397              		.loc 2 52 20 view .LVU91
 398 005a 40F20113 		movw	r3, #257
 399              	.LBE108:
 400              	.LBE116:
  53:adenv.cpp     **** 
  54:adenv.cpp     ****     // Set up metro to pulse every second
  55:adenv.cpp     ****     tick.Init(1.0f, sample_rate);
 401              		.loc 9 55 14 view .LVU92
 402 005e F0EE480A 		vmov.f32	s1, s16
 403 0062 B0EE680A 		vmov.f32	s0, s17
 404 0066 1348     		ldr	r0, .L26+16
 405              	.LBB117:
 406              	.LBB109:
  49:../../DaisySP/Source/Synthesis/oscillator.h ****         waveform_  = WAVE_SIN;
 407              		.loc 2 49 20 view .LVU93
ARM GAS  /tmp/ccR68c0T.s 			page 17


 408 0068 C4ED067A 		vstr.32	s15, [r4, #24]
  50:../../DaisySP/Source/Synthesis/oscillator.h ****         eoc_       = true;
 409              		.loc 2 50 9 is_stmt 1 view .LVU94
  50:../../DaisySP/Source/Synthesis/oscillator.h ****         eoc_       = true;
 410              		.loc 2 50 20 is_stmt 0 view .LVU95
 411 006c 2270     		strb	r2, [r4]
  51:../../DaisySP/Source/Synthesis/oscillator.h ****         eor_       = true;
 412              		.loc 2 51 9 is_stmt 1 view .LVU96
  52:../../DaisySP/Source/Synthesis/oscillator.h ****     }
 413              		.loc 2 52 9 view .LVU97
  52:../../DaisySP/Source/Synthesis/oscillator.h ****     }
 414              		.loc 2 52 20 is_stmt 0 view .LVU98
 415 006e A384     		strh	r3, [r4, #36]	@ movhi
 416              	.LVL20:
  52:../../DaisySP/Source/Synthesis/oscillator.h ****     }
 417              		.loc 2 52 20 view .LVU99
 418              	.LBE109:
 419              	.LBE117:
 420              		.loc 9 55 5 is_stmt 1 view .LVU100
 421              		.loc 9 55 14 is_stmt 0 view .LVU101
 422 0070 FFF7FEFF 		bl	_ZN7daisysp5Metro4InitEff
 423              	.LVL21:
  56:adenv.cpp     **** 
  57:adenv.cpp     ****     // set adenv parameters
  58:adenv.cpp     ****     env.SetTime(ADENV_SEG_ATTACK, 0.15);
 424              		.loc 9 58 5 is_stmt 1 view .LVU102
 425              	.LBB118:
 426              	.LBI118:
  58:../../DaisySP/Source/Control/adenv.h ****     /** Sets the amount of curve applied. A positve value will create a log
 427              		.loc 1 58 17 view .LVU103
 428              	.LBB119:
  58:../../DaisySP/Source/Control/adenv.h ****     /** Sets the amount of curve applied. A positve value will create a log
 429              		.loc 1 58 52 view .LVU104
  58:../../DaisySP/Source/Control/adenv.h ****     /** Sets the amount of curve applied. A positve value will create a log
 430              		.loc 1 58 71 is_stmt 0 view .LVU105
 431 0074 104A     		ldr	r2, .L26+20
 432              	.LBE119:
 433              	.LBE118:
 434              	.LBB121:
 435              	.LBB122:
  68:../../DaisySP/Source/Synthesis/oscillator.h ****     /** Sets the waveform to be synthesized by the Process() function.
  69:../../DaisySP/Source/Synthesis/oscillator.h ****     */
  70:../../DaisySP/Source/Synthesis/oscillator.h ****     inline void SetWaveform(const uint8_t wf)
  71:../../DaisySP/Source/Synthesis/oscillator.h ****     {
  72:../../DaisySP/Source/Synthesis/oscillator.h ****         waveform_ = wf < WAVE_LAST ? wf : WAVE_SIN;
 436              		.loc 2 72 19 view .LVU106
 437 0076 0123     		movs	r3, #1
 438              	.LBE122:
 439              	.LBE121:
 440              	.LBB124:
 441              	.LBB125:
  60:../../DaisySP/Source/Synthesis/oscillator.h ****         phase_inc_ = CalcPhaseInc(f);
 442              		.loc 2 60 20 view .LVU107
 443 0078 9FED100A 		vldr.32	s0, .L26+24
  61:../../DaisySP/Source/Synthesis/oscillator.h ****     }
 444              		.loc 2 61 34 view .LVU108
 445 007c 2046     		mov	r0, r4
ARM GAS  /tmp/ccR68c0T.s 			page 18


 446              	.LBE125:
 447              	.LBE124:
 448              	.LBB128:
 449              	.LBB120:
  58:../../DaisySP/Source/Control/adenv.h ****     /** Sets the amount of curve applied. A positve value will create a log
 450              		.loc 1 58 71 view .LVU109
 451 007e AA60     		str	r2, [r5, #8]	@ float
 452              	.LVL22:
  58:../../DaisySP/Source/Control/adenv.h ****     /** Sets the amount of curve applied. A positve value will create a log
 453              		.loc 1 58 71 view .LVU110
 454              	.LBE120:
 455              	.LBE128:
  59:adenv.cpp     ****     env.SetTime(ADENV_SEG_DECAY, 0.35);
 456              		.loc 9 59 5 is_stmt 1 view .LVU111
 457              	.LBB129:
 458              	.LBI129:
  58:../../DaisySP/Source/Control/adenv.h ****     /** Sets the amount of curve applied. A positve value will create a log
 459              		.loc 1 58 17 view .LVU112
 460              	.LBB130:
  58:../../DaisySP/Source/Control/adenv.h ****     /** Sets the amount of curve applied. A positve value will create a log
 461              		.loc 1 58 52 view .LVU113
  58:../../DaisySP/Source/Control/adenv.h ****     /** Sets the amount of curve applied. A positve value will create a log
 462              		.loc 1 58 71 is_stmt 0 view .LVU114
 463 0080 0F4A     		ldr	r2, .L26+28
 464              	.LBE130:
 465              	.LBE129:
 466              	.LBB132:
 467              	.LBB133:
  66:../../DaisySP/Source/Control/adenv.h ****     /** Sets the maximum value of the envelope output.
 468              		.loc 1 66 42 view .LVU115
 469 0082 6E61     		str	r6, [r5, #20]	@ float
 470              	.LBE133:
 471              	.LBE132:
 472              	.LBB135:
 473              	.LBB136:
  62:../../DaisySP/Source/Control/adenv.h ****     /** Sets the minimum value of the envelope output.
 474              		.loc 1 62 56 view .LVU116
 475 0084 2E62     		str	r6, [r5, #32]	@ float
 476              	.LBE136:
 477              	.LBE135:
 478              	.LBB138:
 479              	.LBB112:
 480              		.loc 1 70 42 view .LVU117
 481 0086 AF61     		str	r7, [r5, #24]	@ float
 482              	.LBE112:
 483              	.LBE138:
 484              	.LBB139:
 485              	.LBB131:
  58:../../DaisySP/Source/Control/adenv.h ****     /** Sets the amount of curve applied. A positve value will create a log
 486              		.loc 1 58 71 view .LVU118
 487 0088 EA60     		str	r2, [r5, #12]	@ float
 488              	.LVL23:
  58:../../DaisySP/Source/Control/adenv.h ****     /** Sets the amount of curve applied. A positve value will create a log
 489              		.loc 1 58 71 view .LVU119
 490              	.LBE131:
 491              	.LBE139:
  60:adenv.cpp     ****     env.SetMin(0.0);
ARM GAS  /tmp/ccR68c0T.s 			page 19


 492              		.loc 9 60 5 is_stmt 1 view .LVU120
 493              	.LBB140:
 494              	.LBI132:
  66:../../DaisySP/Source/Control/adenv.h ****     /** Sets the maximum value of the envelope output.
 495              		.loc 1 66 17 view .LVU121
 496              	.LBB134:
  66:../../DaisySP/Source/Control/adenv.h ****     /** Sets the maximum value of the envelope output.
 497              		.loc 1 66 37 view .LVU122
  66:../../DaisySP/Source/Control/adenv.h ****     /** Sets the maximum value of the envelope output.
 498              		.loc 1 66 37 is_stmt 0 view .LVU123
 499              	.LBE134:
 500              	.LBE140:
  61:adenv.cpp     ****     env.SetMax(0.25);
 501              		.loc 9 61 5 is_stmt 1 view .LVU124
 502              	.LBB141:
 503              	.LBI110:
 504              		.loc 1 70 17 view .LVU125
 505              	.LBB113:
 506              		.loc 1 70 37 view .LVU126
 507              		.loc 1 70 37 is_stmt 0 view .LVU127
 508              	.LBE113:
 509              	.LBE141:
  62:adenv.cpp     ****     env.SetCurve(0); // linear
 510              		.loc 9 62 5 is_stmt 1 view .LVU128
 511              	.LBB142:
 512              	.LBI135:
  62:../../DaisySP/Source/Control/adenv.h ****     /** Sets the minimum value of the envelope output.
 513              		.loc 1 62 17 view .LVU129
 514              	.LBB137:
  62:../../DaisySP/Source/Control/adenv.h ****     /** Sets the minimum value of the envelope output.
 515              		.loc 1 62 42 view .LVU130
  62:../../DaisySP/Source/Control/adenv.h ****     /** Sets the minimum value of the envelope output.
 516              		.loc 1 62 42 is_stmt 0 view .LVU131
 517              	.LBE137:
 518              	.LBE142:
  63:adenv.cpp     **** 
  64:adenv.cpp     ****     // Set parameters for oscillator
  65:adenv.cpp     ****     osc.SetWaveform(osc.WAVE_TRI);
 519              		.loc 9 65 5 is_stmt 1 view .LVU132
 520              	.LBB143:
 521              	.LBI121:
  70:../../DaisySP/Source/Synthesis/oscillator.h ****     {
 522              		.loc 2 70 17 view .LVU133
 523              	.LBB123:
 524              		.loc 2 72 9 view .LVU134
 525              		.loc 2 72 19 is_stmt 0 view .LVU135
 526 008a 2370     		strb	r3, [r4]
 527              	.LVL24:
 528              		.loc 2 72 19 view .LVU136
 529              	.LBE123:
 530              	.LBE143:
  66:adenv.cpp     ****     osc.SetFreq(220);
 531              		.loc 9 66 5 is_stmt 1 view .LVU137
 532              	.LBB144:
 533              	.LBI124:
  58:../../DaisySP/Source/Synthesis/oscillator.h ****     {
 534              		.loc 2 58 17 view .LVU138
ARM GAS  /tmp/ccR68c0T.s 			page 20


 535              	.LBB126:
  60:../../DaisySP/Source/Synthesis/oscillator.h ****         phase_inc_ = CalcPhaseInc(f);
 536              		.loc 2 60 9 view .LVU139
  60:../../DaisySP/Source/Synthesis/oscillator.h ****         phase_inc_ = CalcPhaseInc(f);
 537              		.loc 2 60 20 is_stmt 0 view .LVU140
 538 008c 84ED020A 		vstr.32	s0, [r4, #8]
  61:../../DaisySP/Source/Synthesis/oscillator.h ****     }
 539              		.loc 2 61 9 is_stmt 1 view .LVU141
  61:../../DaisySP/Source/Synthesis/oscillator.h ****     }
 540              		.loc 2 61 34 is_stmt 0 view .LVU142
 541 0090 FFF7FEFF 		bl	_ZN7daisysp10Oscillator12CalcPhaseIncEf
 542              	.LVL25:
 543              	.LBE126:
 544              	.LBE144:
  67:adenv.cpp     ****     osc.SetAmp(0.25);
  68:adenv.cpp     **** 
  69:adenv.cpp     **** 
  70:adenv.cpp     ****     // start callback
  71:adenv.cpp     ****     seed.StartAudio(AudioCallback);
 545              		.loc 9 71 20 view .LVU143
 546 0094 0B49     		ldr	r1, .L26+32
 547 0096 0348     		ldr	r0, .L26
 548              	.LBB145:
 549              	.LBB146:
  67:../../DaisySP/Source/Synthesis/oscillator.h ****     /** Sets the waveform to be synthesized by the Process() function.
 550              		.loc 2 67 46 view .LVU144
 551 0098 6760     		str	r7, [r4, #4]	@ float
 552              	.LBE146:
 553              	.LBE145:
 554              	.LBB148:
 555              	.LBB127:
  61:../../DaisySP/Source/Synthesis/oscillator.h ****     }
 556              		.loc 2 61 20 view .LVU145
 557 009a 84ED060A 		vstr.32	s0, [r4, #24]
 558              	.LVL26:
  61:../../DaisySP/Source/Synthesis/oscillator.h ****     }
 559              		.loc 2 61 20 view .LVU146
 560              	.LBE127:
 561              	.LBE148:
  67:adenv.cpp     ****     osc.SetAmp(0.25);
 562              		.loc 9 67 5 is_stmt 1 view .LVU147
 563              	.LBB149:
 564              	.LBI145:
  67:../../DaisySP/Source/Synthesis/oscillator.h ****     /** Sets the waveform to be synthesized by the Process() function.
 565              		.loc 2 67 17 view .LVU148
 566              	.LBB147:
  67:../../DaisySP/Source/Synthesis/oscillator.h ****     /** Sets the waveform to be synthesized by the Process() function.
 567              		.loc 2 67 41 view .LVU149
  67:../../DaisySP/Source/Synthesis/oscillator.h ****     /** Sets the waveform to be synthesized by the Process() function.
 568              		.loc 2 67 41 is_stmt 0 view .LVU150
 569              	.LBE147:
 570              	.LBE149:
 571              		.loc 9 71 5 is_stmt 1 view .LVU151
 572              		.loc 9 71 20 is_stmt 0 view .LVU152
 573 009e FFF7FEFF 		bl	_ZN5daisy9DaisySeed10StartAudioEPFvPKfPfjE
 574              	.LVL27:
 575              	.L24:
ARM GAS  /tmp/ccR68c0T.s 			page 21


  72:adenv.cpp     **** 
  73:adenv.cpp     **** 
  74:adenv.cpp     ****     while(1) {}
 576              		.loc 9 74 5 is_stmt 1 discriminator 1 view .LVU153
 577              		.loc 9 74 5 discriminator 1 view .LVU154
 578              		.loc 9 74 5 discriminator 1 view .LVU155
 579              		.loc 9 74 5 discriminator 1 view .LVU156
 580 00a2 FEE7     		b	.L24
 581              	.L27:
 582              		.align	2
 583              	.L26:
 584 00a4 00000000 		.word	.LANCHOR3
 585 00a8 00000000 		.word	.LANCHOR1
 586 00ac 00000000 		.word	.LANCHOR2
 587 00b0 0000C842 		.word	1120403456
 588 00b4 00000000 		.word	.LANCHOR0
 589 00b8 9A99193E 		.word	1041865114
 590 00bc 00005C43 		.word	1130102784
 591 00c0 3333B33E 		.word	1051931443
 592 00c4 00000000 		.word	_ZL13AudioCallbackPKfPfj
 593              		.cfi_endproc
 594              	.LFE4213:
 596              		.section	.text.startup._GLOBAL__sub_I_main,"ax",%progbits
 597              		.align	1
 598              		.p2align 2,,3
 599              		.syntax unified
 600              		.thumb
 601              		.thumb_func
 602              		.fpu fpv5-d16
 604              	_GLOBAL__sub_I_main:
 605              	.LFB4759:
  75:adenv.cpp     **** }
 606              		.loc 9 75 1 view -0
 607              		.cfi_startproc
 608              		@ args = 0, pretend = 0, frame = 0
 609              		@ frame_needed = 0, uses_anonymous_args = 0
 610              	.LBB171:
 611              	.LBI171:
 612              		.loc 9 75 1 view .LVU158
 613              	.LVL28:
 614              	.LBB172:
 615              	.LBB173:
 616              	.LBI173:
  21:../../libdaisy/src/daisy_seed.h ****     ~DaisySeed() {}
 617              		.loc 4 21 5 view .LVU159
 618              	.LBB174:
 619              	.LBB175:
 620              	.LBI175:
  62:../../libdaisy/src/hid/audio.h ****     ~AudioHandle() {}
 621              		.loc 8 62 5 view .LVU160
 622              	.LBE175:
 623              	.LBE174:
 624              	.LBE173:
 625              	.LBE172:
 626              	.LBE171:
 627              		.loc 9 75 1 is_stmt 0 view .LVU161
 628 0000 08B5     		push	{r3, lr}
ARM GAS  /tmp/ccR68c0T.s 			page 22


 629              		.cfi_def_cfa_offset 8
 630              		.cfi_offset 3, -8
 631              		.cfi_offset 14, -4
 632              	.LBB197:
 633              	.LBB195:
 634              	.LBB190:
 635              	.LBB188:
 636              	.LBB180:
 637              	.LBB176:
 638              	.LBB177:
  62:../../libdaisy/src/hid/audio.h ****     ~AudioHandle() {}
 639              		.loc 8 62 35 view .LVU162
 640 0002 0C48     		ldr	r0, .L30
 641 0004 0023     		movs	r3, #0
 642              	.LBE177:
 643              	.LBE176:
 644              	.LBE180:
 645              	.LBE188:
 646              	.LBE190:
  16:adenv.cpp     **** static AdEnv      env;
 647              		.loc 9 16 19 view .LVU163
 648 0006 0C4A     		ldr	r2, .L30+4
 649              	.LBB191:
 650              	.LBB189:
 651              	.LBB181:
 652              	.LBB179:
 653              	.LBB178:
  62:../../libdaisy/src/hid/audio.h ****     ~AudioHandle() {}
 654              		.loc 8 62 35 view .LVU164
 655 0008 4361     		str	r3, [r0, #20]
 656              	.LVL29:
  62:../../libdaisy/src/hid/audio.h ****     ~AudioHandle() {}
 657              		.loc 8 62 35 view .LVU165
 658              	.LBE178:
 659              	.LBE179:
 660              	.LBE181:
 661              	.LBB182:
 662              	.LBI182:
  84:../../libdaisy/src/per/adc.h ****     ~AdcHandle() {}
 663              		.loc 7 84 5 is_stmt 1 view .LVU166
  84:../../libdaisy/src/per/adc.h ****     ~AdcHandle() {}
 664              		.loc 7 84 5 is_stmt 0 view .LVU167
 665              	.LBE182:
 666              	.LBB183:
 667              	.LBI183:
 668              		.file 10 "../../libdaisy/src/per/dac.h"
   1:../../libdaisy/src/per/dac.h **** #pragma once
   2:../../libdaisy/src/per/dac.h **** #ifndef DSY_DAC_H
   3:../../libdaisy/src/per/dac.h **** #define DSY_DAC_H
   4:../../libdaisy/src/per/dac.h **** 
   5:../../libdaisy/src/per/dac.h **** #include "daisy_core.h"
   6:../../libdaisy/src/per/dac.h **** 
   7:../../libdaisy/src/per/dac.h **** namespace daisy
   8:../../libdaisy/src/per/dac.h **** {
   9:../../libdaisy/src/per/dac.h **** /** DAC handle for Built-in DAC Peripheral 
  10:../../libdaisy/src/per/dac.h ****  ** 
  11:../../libdaisy/src/per/dac.h ****  ** For now only Normal Mode is supported,
ARM GAS  /tmp/ccR68c0T.s 			page 23


  12:../../libdaisy/src/per/dac.h ****  ** Sample and hold mode provides reduced power consumption, but requires a bit more setup.
  13:../../libdaisy/src/per/dac.h ****  **
  14:../../libdaisy/src/per/dac.h ****  ** For now connecting the DAC through other internal periphearls is also not supported.
  15:../../libdaisy/src/per/dac.h ****  **
  16:../../libdaisy/src/per/dac.h ****  ** Since the DAC channels have dedicated pins we don't need to pass in a pin config like with
  17:../../libdaisy/src/per/dac.h ****  ** other modules. However, it is still important to not try to use the DAC pins for anything else.
  18:../../libdaisy/src/per/dac.h ****  ** DAC Channel 1 is on PA4, and DAC Channel 2 is on PA5
  19:../../libdaisy/src/per/dac.h ****  ***/
  20:../../libdaisy/src/per/dac.h **** class DacHandle
  21:../../libdaisy/src/per/dac.h **** {
  22:../../libdaisy/src/per/dac.h ****   public:
  23:../../libdaisy/src/per/dac.h ****     /** Return Values for the DacHandle class */
  24:../../libdaisy/src/per/dac.h ****     enum class Result
  25:../../libdaisy/src/per/dac.h ****     {
  26:../../libdaisy/src/per/dac.h ****         OK,
  27:../../libdaisy/src/per/dac.h ****         ERR,
  28:../../libdaisy/src/per/dac.h ****     };
  29:../../libdaisy/src/per/dac.h **** 
  30:../../libdaisy/src/per/dac.h ****     /** Selects which channel(s) will be configured for use. */
  31:../../libdaisy/src/per/dac.h ****     enum class Channel
  32:../../libdaisy/src/per/dac.h ****     {
  33:../../libdaisy/src/per/dac.h ****         ONE,
  34:../../libdaisy/src/per/dac.h ****         TWO,
  35:../../libdaisy/src/per/dac.h ****         BOTH,
  36:../../libdaisy/src/per/dac.h ****     };
  37:../../libdaisy/src/per/dac.h **** 
  38:../../libdaisy/src/per/dac.h ****     /** Sets the Mode for the DAC channels.
  39:../../libdaisy/src/per/dac.h ****      **
  40:../../libdaisy/src/per/dac.h ****      ** Polling mode uses the blocking mode to transmit a single value at a time.
  41:../../libdaisy/src/per/dac.h ****      **
  42:../../libdaisy/src/per/dac.h ****      ** DMA mode uses a buffer, and periodically transmits it triggering a 
  43:../../libdaisy/src/per/dac.h ****      ** callback to fill the buffer when it is ready for more samples.
  44:../../libdaisy/src/per/dac.h ****      ***/
  45:../../libdaisy/src/per/dac.h ****     enum class Mode
  46:../../libdaisy/src/per/dac.h ****     {
  47:../../libdaisy/src/per/dac.h ****         POLLING,
  48:../../libdaisy/src/per/dac.h ****         DMA,
  49:../../libdaisy/src/per/dac.h ****     };
  50:../../libdaisy/src/per/dac.h **** 
  51:../../libdaisy/src/per/dac.h ****     /** Sets the number of bits per sample transmitted out of the DAC.
  52:../../libdaisy/src/per/dac.h ****      ** The output range will be: 0V - VDDA
  53:../../libdaisy/src/per/dac.h ****      ** The resolution will be roughly: bitdepth / (VDDA - 0V) 
  54:../../libdaisy/src/per/dac.h ****      ***/
  55:../../libdaisy/src/per/dac.h ****     enum class BitDepth
  56:../../libdaisy/src/per/dac.h ****     {
  57:../../libdaisy/src/per/dac.h ****         BITS_8,
  58:../../libdaisy/src/per/dac.h ****         BITS_12
  59:../../libdaisy/src/per/dac.h ****     };
  60:../../libdaisy/src/per/dac.h **** 
  61:../../libdaisy/src/per/dac.h ****     /** Sets whether the DAC output is buffered for higher drive ability. */
  62:../../libdaisy/src/per/dac.h ****     enum class BufferState
  63:../../libdaisy/src/per/dac.h ****     {
  64:../../libdaisy/src/per/dac.h ****         ENABLED,
  65:../../libdaisy/src/per/dac.h ****         DISABLED,
  66:../../libdaisy/src/per/dac.h ****     };
  67:../../libdaisy/src/per/dac.h **** 
  68:../../libdaisy/src/per/dac.h ****     /** Configuration structure for initializing the DAC structure. */
ARM GAS  /tmp/ccR68c0T.s 			page 24


  69:../../libdaisy/src/per/dac.h ****     struct Config
  70:../../libdaisy/src/per/dac.h ****     {
  71:../../libdaisy/src/per/dac.h ****         /** Target Samplerate in Hz used to configure the internal 
  72:../../libdaisy/src/per/dac.h ****          ** timebase for DMA mode. Does nothing in POLLING mode.
  73:../../libdaisy/src/per/dac.h ****          ** If the value is 0 at Init time this will default to 48000Hz 
  74:../../libdaisy/src/per/dac.h ****          ** otherwise the driver will attempt meet the target.*/
  75:../../libdaisy/src/per/dac.h ****         uint32_t target_samplerate;
  76:../../libdaisy/src/per/dac.h **** 
  77:../../libdaisy/src/per/dac.h ****         Channel     chn;
  78:../../libdaisy/src/per/dac.h ****         Mode        mode;
  79:../../libdaisy/src/per/dac.h ****         BitDepth    bitdepth;
  80:../../libdaisy/src/per/dac.h ****         BufferState buff_state;
  81:../../libdaisy/src/per/dac.h ****     };
  82:../../libdaisy/src/per/dac.h **** 
  83:../../libdaisy/src/per/dac.h ****     DacHandle() : pimpl_(nullptr) {}
 669              		.loc 10 83 5 is_stmt 1 view .LVU168
 670              	.LBB184:
 671              	.LBB185:
 672              		.loc 10 83 33 is_stmt 0 view .LVU169
 673 000a 0362     		str	r3, [r0, #32]
 674              	.LVL30:
 675              		.loc 10 83 33 view .LVU170
 676              	.LBE185:
 677              	.LBE184:
 678              	.LBE183:
 679              	.LBB186:
 680              	.LBI186:
  40:../../libdaisy/src/hid/usb.h **** 
 681              		.loc 6 40 5 is_stmt 1 view .LVU171
  40:../../libdaisy/src/hid/usb.h **** 
 682              		.loc 6 40 5 is_stmt 0 view .LVU172
 683              	.LBE186:
 684              	.LBB187:
 685              	.LBI187:
  58:../../libdaisy/src/sys/system.h ****     ~System() {}
 686              		.loc 5 58 5 is_stmt 1 view .LVU173
  58:../../libdaisy/src/sys/system.h ****     ~System() {}
 687              		.loc 5 58 5 is_stmt 0 view .LVU174
 688              	.LBE187:
 689              	.LBE189:
 690              	.LBE191:
  16:adenv.cpp     **** static AdEnv      env;
 691              		.loc 9 16 19 view .LVU175
 692 000c 0B49     		ldr	r1, .L30+8
 693 000e FFF7FEFF 		bl	__aeabi_atexit
 694              	.LVL31:
 695              	.LBB192:
 696              	.LBI192:
  34:../../DaisySP/Source/Control/adenv.h ****     ~AdEnv() {}
 697              		.loc 1 34 5 is_stmt 1 view .LVU176
  34:../../DaisySP/Source/Control/adenv.h ****     ~AdEnv() {}
 698              		.loc 1 34 5 is_stmt 0 view .LVU177
 699              	.LBE192:
  17:adenv.cpp     **** static Oscillator osc;
 700              		.loc 9 17 19 view .LVU178
 701 0012 094A     		ldr	r2, .L30+4
 702 0014 0A49     		ldr	r1, .L30+12
ARM GAS  /tmp/ccR68c0T.s 			page 25


 703 0016 0B48     		ldr	r0, .L30+16
 704 0018 FFF7FEFF 		bl	__aeabi_atexit
 705              	.LVL32:
 706              	.LBB193:
 707              	.LBI193:
  15:../../DaisySP/Source/Synthesis/oscillator.h ****     ~Oscillator() {}
 708              		.loc 2 15 5 is_stmt 1 view .LVU179
  15:../../DaisySP/Source/Synthesis/oscillator.h ****     ~Oscillator() {}
 709              		.loc 2 15 5 is_stmt 0 view .LVU180
 710              	.LBE193:
  18:adenv.cpp     **** static Metro      tick;
 711              		.loc 9 18 19 view .LVU181
 712 001c 064A     		ldr	r2, .L30+4
 713 001e 0A49     		ldr	r1, .L30+20
 714 0020 0A48     		ldr	r0, .L30+24
 715 0022 FFF7FEFF 		bl	__aeabi_atexit
 716              	.LVL33:
 717              	.LBB194:
 718              	.LBI194:
  14:../../DaisySP/Source/Utility/metro.h ****     ~Metro() {}
 719              		.loc 3 14 5 is_stmt 1 view .LVU182
  14:../../DaisySP/Source/Utility/metro.h ****     ~Metro() {}
 720              		.loc 3 14 5 is_stmt 0 view .LVU183
 721              	.LBE194:
  19:adenv.cpp     **** 
 722              		.loc 9 19 19 view .LVU184
 723 0026 044A     		ldr	r2, .L30+4
 724 0028 0949     		ldr	r1, .L30+28
 725 002a 0A48     		ldr	r0, .L30+32
 726              	.LBE195:
 727              	.LBE197:
 728              		.loc 9 75 1 view .LVU185
 729 002c BDE80840 		pop	{r3, lr}
 730              		.cfi_restore 14
 731              		.cfi_restore 3
 732              		.cfi_def_cfa_offset 0
 733              	.LBB198:
 734              	.LBB196:
  19:adenv.cpp     **** 
 735              		.loc 9 19 19 view .LVU186
 736 0030 FFF7FEBF 		b	__aeabi_atexit
 737              	.LVL34:
 738              	.L31:
 739              		.align	2
 740              	.L30:
 741 0034 00000000 		.word	.LANCHOR3
 742 0038 00000000 		.word	__dso_handle
 743 003c 00000000 		.word	_ZN5daisy9DaisySeedD1Ev
 744 0040 00000000 		.word	_ZN7daisysp5AdEnvD1Ev
 745 0044 00000000 		.word	.LANCHOR1
 746 0048 00000000 		.word	_ZN7daisysp10OscillatorD1Ev
 747 004c 00000000 		.word	.LANCHOR2
 748 0050 00000000 		.word	_ZN7daisysp5MetroD1Ev
 749 0054 00000000 		.word	.LANCHOR0
 750              	.LBE196:
 751              	.LBE198:
 752              		.cfi_endproc
ARM GAS  /tmp/ccR68c0T.s 			page 26


 753              	.LFE4759:
 755              		.section	.init_array,"aw",%init_array
 756              		.align	2
 757 0000 00000000 		.word	_GLOBAL__sub_I_main(target1)
 758              		.section	.bss._ZL3env,"aw",%nobits
 759              		.align	2
 760              		.set	.LANCHOR1,. + 0
 763              	_ZL3env:
 764 0000 00000000 		.space	56
 764      00000000 
 764      00000000 
 764      00000000 
 764      00000000 
 765              		.section	.bss._ZL3osc,"aw",%nobits
 766              		.align	2
 767              		.set	.LANCHOR2,. + 0
 770              	_ZL3osc:
 771 0000 00000000 		.space	40
 771      00000000 
 771      00000000 
 771      00000000 
 771      00000000 
 772              		.section	.bss._ZL4seed,"aw",%nobits
 773              		.align	2
 774              		.set	.LANCHOR3,. + 0
 777              	_ZL4seed:
 778 0000 00000000 		.space	60
 778      00000000 
 778      00000000 
 778      00000000 
 778      00000000 
 779              		.section	.bss._ZL4tick,"aw",%nobits
 780              		.align	2
 781              		.set	.LANCHOR0,. + 0
 784              	_ZL4tick:
 785 0000 00000000 		.space	16
 785      00000000 
 785      00000000 
 785      00000000 
 786              		.text
 787              	.Letext0:
 788              		.file 11 "/usr/lib/gcc/arm-none-eabi/9.2.1/include/stdint.h"
 789              		.file 12 "../../libdaisy/Drivers/CMSIS/Include/core_cm7.h"
 790              		.file 13 "../../libdaisy/Drivers/CMSIS/Device/ST/STM32H7xx/Include/system_stm32h7xx.h"
 791              		.file 14 "/usr/lib/gcc/arm-none-eabi/9.2.1/include/stddef.h"
 792              		.file 15 "/usr/include/newlib/c++/9.2.1/cmath"
 793              		.file 16 "/usr/include/newlib/c++/9.2.1/bits/std_abs.h"
 794              		.file 17 "/usr/include/newlib/c++/9.2.1/cstdint"
 795              		.file 18 "/usr/include/newlib/c++/9.2.1/cstdlib"
 796              		.file 19 "/usr/include/newlib/c++/9.2.1/type_traits"
 797              		.file 20 "/usr/include/newlib/c++/9.2.1/arm-none-eabi/thumb/v7e-m+dp/hard/bits/c++config.h"
 798              		.file 21 "/usr/include/newlib/c++/9.2.1/bits/stl_pair.h"
 799              		.file 22 "/usr/include/newlib/c++/9.2.1/debug/debug.h"
 800              		.file 23 "/usr/include/newlib/c++/9.2.1/cwchar"
 801              		.file 24 "/usr/include/newlib/c++/9.2.1/bits/exception_ptr.h"
 802              		.file 25 "/usr/include/newlib/c++/9.2.1/new"
 803              		.file 26 "/usr/include/newlib/c++/9.2.1/clocale"
ARM GAS  /tmp/ccR68c0T.s 			page 27


 804              		.file 27 "/usr/include/newlib/c++/9.2.1/cstdio"
 805              		.file 28 "/usr/include/newlib/c++/9.2.1/bits/basic_string.h"
 806              		.file 29 "/usr/include/newlib/c++/9.2.1/bits/uniform_int_dist.h"
 807              		.file 30 "/usr/include/newlib/c++/9.2.1/bits/random.h"
 808              		.file 31 "/usr/include/newlib/c++/9.2.1/cstring"
 809              		.file 32 "/usr/include/newlib/c++/9.2.1/bits/algorithmfwd.h"
 810              		.file 33 "/usr/include/newlib/c++/9.2.1/cstdarg"
 811              		.file 34 "/usr/include/newlib/c++/9.2.1/bits/predefined_ops.h"
 812              		.file 35 "/usr/include/newlib/c++/9.2.1/ext/new_allocator.h"
 813              		.file 36 "/usr/include/newlib/c++/9.2.1/ext/numeric_traits.h"
 814              		.file 37 "/usr/include/newlib/sys/_types.h"
 815              		.file 38 "<built-in>"
 816              		.file 39 "/usr/include/newlib/sys/reent.h"
 817              		.file 40 "/usr/include/newlib/sys/lock.h"
 818              		.file 41 "/usr/include/newlib/math.h"
 819              		.file 42 "/usr/include/newlib/stdlib.h"
 820              		.file 43 "/usr/include/newlib/c++/9.2.1/math.h"
 821              		.file 44 "../../libdaisy/Drivers/STM32H7xx_HAL_Driver/Inc/stm32h7xx_hal_def.h"
 822              		.file 45 "../../libdaisy/Drivers/STM32H7xx_HAL_Driver/Inc/stm32h7xx_hal_flash.h"
 823              		.file 46 "../../DaisySP/Source/Utility/dsp.h"
 824              		.file 47 "/usr/lib/gcc/arm-none-eabi/9.2.1/include/stdarg.h"
 825              		.file 48 "/usr/include/newlib/wchar.h"
 826              		.file 49 "/usr/include/newlib/locale.h"
 827              		.file 50 "/usr/include/newlib/ctype.h"
 828              		.file 51 "/usr/include/newlib/stdio.h"
 829              		.file 52 "/usr/include/newlib/sys/errno.h"
 830              		.file 53 "/usr/include/newlib/c++/9.2.1/stdlib.h"
 831              		.file 54 "/usr/include/newlib/string.h"
 832              		.file 55 "../../libdaisy/src/daisy_core.h"
 833              		.file 56 "../../libdaisy/src/per/tim.h"
 834              		.file 57 "../../libdaisy/src/per/sai.h"
 835              		.file 58 "../../libdaisy/src/util/wav_format.h"
 836              		.file 59 "../../libdaisy/src/per/qspi.h"
 837              		.file 60 "../../libdaisy/src/per/gpio.h"
 838              		.file 61 "../../libdaisy/src/dev/sdram.h"
 839              		.file 62 "/usr/include/newlib/sys/unistd.h"
 840              		.file 63 "../../libdaisy/src/util/oled_fonts.h"
 841              		.file 64 "../../libdaisy/Middlewares/Third_Party/FatFs/src/integer.h"
 842              		.file 65 "../../libdaisy/Middlewares/Third_Party/FatFs/src/ff.h"
 843              		.file 66 "../../libdaisy/Middlewares/Third_Party/FatFs/src/diskio.h"
 844              		.file 67 "../../libdaisy/Middlewares/Third_Party/FatFs/src/ff_gen_drv.h"
 845              		.file 68 "../../libdaisy/src/util/sd_diskio.h"
 846              		.file 69 "../../libdaisy/src/sys/fatfs.h"
 847              		.file 70 "../../libdaisy/src/dev/sr_595.h"
ARM GAS  /tmp/ccR68c0T.s 			page 28

