ARM GAS  /tmp/ccslSSf6.s 			page 1


   1              		.cpu cortex-m7
   2              		.eabi_attribute 28, 1
   3              		.eabi_attribute 20, 1
   4              		.eabi_attribute 21, 1
   5              		.eabi_attribute 23, 3
   6              		.eabi_attribute 24, 1
   7              		.eabi_attribute 25, 1
   8              		.eabi_attribute 26, 1
   9              		.eabi_attribute 30, 2
  10              		.eabi_attribute 34, 1
  11              		.eabi_attribute 18, 4
  12              		.file	"phaser.cpp"
  13              		.text
  14              	.Ltext0:
  15              		.cfi_sections	.debug_frame
  16              		.section	.text._ZN5daisy10DaisyFieldD2Ev,"axG",%progbits,_ZN5daisy10DaisyFieldD5Ev,comdat
  17              		.align	1
  18              		.p2align 2,,3
  19              		.weak	_ZN5daisy10DaisyFieldD2Ev
  20              		.arch armv7e-m
  21              		.syntax unified
  22              		.thumb
  23              		.thumb_func
  24              		.fpu fpv5-d16
  26              	_ZN5daisy10DaisyFieldD2Ev:
  27              	.LVL0:
  28              	.LFB2063:
  29              		.file 1 "../../libdaisy/src/daisy_field.h"
   1:../../libdaisy/src/daisy_field.h **** #pragma once
   2:../../libdaisy/src/daisy_field.h **** #ifndef DSY_FIELD_BSP_H
   3:../../libdaisy/src/daisy_field.h **** #define DSY_FIELD_BSP_H /**< & */
   4:../../libdaisy/src/daisy_field.h **** #include "daisy_seed.h"
   5:../../libdaisy/src/daisy_field.h **** #include "dev/oled_ssd130x.h"
   6:../../libdaisy/src/daisy_field.h **** 
   7:../../libdaisy/src/daisy_field.h **** /**
   8:../../libdaisy/src/daisy_field.h ****    @brief Hardware defines and helpers for daisy field platform.
   9:../../libdaisy/src/daisy_field.h **** */
  10:../../libdaisy/src/daisy_field.h **** namespace daisy
  11:../../libdaisy/src/daisy_field.h **** {
  12:../../libdaisy/src/daisy_field.h **** /** @addtogroup boards
  13:../../libdaisy/src/daisy_field.h ****     @{
  14:../../libdaisy/src/daisy_field.h **** */
  15:../../libdaisy/src/daisy_field.h **** class DaisyField
  16:../../libdaisy/src/daisy_field.h **** {
  17:../../libdaisy/src/daisy_field.h ****   public:
  18:../../libdaisy/src/daisy_field.h ****     /** enums for controls, etc.
  19:../../libdaisy/src/daisy_field.h **** */
  20:../../libdaisy/src/daisy_field.h ****     enum
  21:../../libdaisy/src/daisy_field.h ****     {
  22:../../libdaisy/src/daisy_field.h ****         SW_1,    /**< tactile switch */
  23:../../libdaisy/src/daisy_field.h ****         SW_2,    /**< tactile switch */
  24:../../libdaisy/src/daisy_field.h ****         SW_LAST, /**< & */
  25:../../libdaisy/src/daisy_field.h ****     };
  26:../../libdaisy/src/daisy_field.h **** 
  27:../../libdaisy/src/daisy_field.h ****     /** All knobs connect to Daisy Seed's ADC1 pin via CD4051 mux
  28:../../libdaisy/src/daisy_field.h ****         Knobs are in order that they are laid out on hardware.
  29:../../libdaisy/src/daisy_field.h ****     */
ARM GAS  /tmp/ccslSSf6.s 			page 2


  30:../../libdaisy/src/daisy_field.h ****     enum
  31:../../libdaisy/src/daisy_field.h ****     {
  32:../../libdaisy/src/daisy_field.h ****         KNOB_1,    /**< & */
  33:../../libdaisy/src/daisy_field.h ****         KNOB_2,    /**< & */
  34:../../libdaisy/src/daisy_field.h ****         KNOB_3,    /**< & */
  35:../../libdaisy/src/daisy_field.h ****         KNOB_4,    /**< & */
  36:../../libdaisy/src/daisy_field.h ****         KNOB_5,    /**< & */
  37:../../libdaisy/src/daisy_field.h ****         KNOB_6,    /**< & */
  38:../../libdaisy/src/daisy_field.h ****         KNOB_7,    /**< & */
  39:../../libdaisy/src/daisy_field.h ****         KNOB_8,    /**< & */
  40:../../libdaisy/src/daisy_field.h ****         KNOB_LAST, /**< & */
  41:../../libdaisy/src/daisy_field.h ****     };
  42:../../libdaisy/src/daisy_field.h **** 
  43:../../libdaisy/src/daisy_field.h ****     enum
  44:../../libdaisy/src/daisy_field.h ****     {
  45:../../libdaisy/src/daisy_field.h ****         CV_1,    /** Connected to ADC1_INP17 */
  46:../../libdaisy/src/daisy_field.h ****         CV_2,    /** Connected  to ADC1_INP15 */
  47:../../libdaisy/src/daisy_field.h ****         CV_3,    /** Connected to ADC1_INP4 */
  48:../../libdaisy/src/daisy_field.h ****         CV_4,    /** Connected to ADC1_INP11 */
  49:../../libdaisy/src/daisy_field.h ****         CV_LAST, /**< & */
  50:../../libdaisy/src/daisy_field.h ****     };
  51:../../libdaisy/src/daisy_field.h **** 
  52:../../libdaisy/src/daisy_field.h ****     enum
  53:../../libdaisy/src/daisy_field.h ****     {
  54:../../libdaisy/src/daisy_field.h ****         LED_KEY_B1, /**< & */
  55:../../libdaisy/src/daisy_field.h ****         LED_KEY_B2, /**< & */
  56:../../libdaisy/src/daisy_field.h ****         LED_KEY_B3, /**< & */
  57:../../libdaisy/src/daisy_field.h ****         LED_KEY_B4, /**< & */
  58:../../libdaisy/src/daisy_field.h ****         LED_KEY_B5, /**< & */
  59:../../libdaisy/src/daisy_field.h ****         LED_KEY_B6, /**< & */
  60:../../libdaisy/src/daisy_field.h ****         LED_KEY_B7, /**< & */
  61:../../libdaisy/src/daisy_field.h ****         LED_KEY_B8, /**< & */
  62:../../libdaisy/src/daisy_field.h ****         LED_KEY_A8, /**< & */
  63:../../libdaisy/src/daisy_field.h ****         LED_KEY_A7, /**< & */
  64:../../libdaisy/src/daisy_field.h ****         LED_KEY_A6, /**< & */
  65:../../libdaisy/src/daisy_field.h ****         LED_KEY_A5, /**< & */
  66:../../libdaisy/src/daisy_field.h ****         LED_KEY_A4, /**< & */
  67:../../libdaisy/src/daisy_field.h ****         LED_KEY_A3, /**< & */
  68:../../libdaisy/src/daisy_field.h ****         LED_KEY_A2, /**< & */
  69:../../libdaisy/src/daisy_field.h ****         LED_KEY_A1, /**< & */
  70:../../libdaisy/src/daisy_field.h ****         LED_KNOB_1, /**< & */
  71:../../libdaisy/src/daisy_field.h ****         LED_KNOB_2, /**< & */
  72:../../libdaisy/src/daisy_field.h ****         LED_KNOB_3, /**< & */
  73:../../libdaisy/src/daisy_field.h ****         LED_KNOB_4, /**< & */
  74:../../libdaisy/src/daisy_field.h ****         LED_KNOB_5, /**< & */
  75:../../libdaisy/src/daisy_field.h ****         LED_KNOB_6, /**< & */
  76:../../libdaisy/src/daisy_field.h ****         LED_KNOB_7, /**< & */
  77:../../libdaisy/src/daisy_field.h ****         LED_KNOB_8, /**< & */
  78:../../libdaisy/src/daisy_field.h ****         LED_SW_1,   /**< & */
  79:../../libdaisy/src/daisy_field.h ****         LED_SW_2,   /**< & */
  80:../../libdaisy/src/daisy_field.h ****         LED_LAST    /**< & */
  81:../../libdaisy/src/daisy_field.h ****     };
  82:../../libdaisy/src/daisy_field.h **** 
  83:../../libdaisy/src/daisy_field.h ****     DaisyField() {}
  84:../../libdaisy/src/daisy_field.h ****     ~DaisyField() {}
  30              		.loc 1 84 5 view -0
  31              		.cfi_startproc
ARM GAS  /tmp/ccslSSf6.s 			page 3


  32              		@ args = 0, pretend = 0, frame = 0
  33              		@ frame_needed = 0, uses_anonymous_args = 0
  34              		@ link register save eliminated.
  35              	.LBB398:
  36              	.LBI398:
  37              		.file 2 "../../libdaisy/src/dev/sr_4021.h"
   1:../../libdaisy/src/dev/sr_4021.h **** #pragma once
   2:../../libdaisy/src/dev/sr_4021.h **** #ifndef DEV_SR_4021_H
   3:../../libdaisy/src/dev/sr_4021.h **** #define DEV_SR_4021_H
   4:../../libdaisy/src/dev/sr_4021.h **** #include "per/gpio.h"
   5:../../libdaisy/src/dev/sr_4021.h **** #include "sys/system.h"
   6:../../libdaisy/src/dev/sr_4021.h **** 
   7:../../libdaisy/src/dev/sr_4021.h **** namespace daisy
   8:../../libdaisy/src/dev/sr_4021.h **** {
   9:../../libdaisy/src/dev/sr_4021.h **** /** @brief Device Driver for CD4021 shift register
  10:../../libdaisy/src/dev/sr_4021.h ****  ** @author shensley
  11:../../libdaisy/src/dev/sr_4021.h ****  ** @addtogroup shiftregister
  12:../../libdaisy/src/dev/sr_4021.h ****  **
  13:../../libdaisy/src/dev/sr_4021.h ****  ** CD4021B-Q1: CMOS 8-STAGE STATIC SHIFT REGISTER
  14:../../libdaisy/src/dev/sr_4021.h ****  ** 
  15:../../libdaisy/src/dev/sr_4021.h ****  ** Supply Voltage: 3V to 18V
  16:../../libdaisy/src/dev/sr_4021.h ****  ** Clock Freq: 3MHz at 5V (less at 3v3) -> 8.5MHz at 15V
  17:../../libdaisy/src/dev/sr_4021.h ****  ** Pin Descriptions:
  18:../../libdaisy/src/dev/sr_4021.h ****  ** - Parallel Data[1-8] - 7, 6, 5, 4, 13, 14, 115, 1
  19:../../libdaisy/src/dev/sr_4021.h ****  ** - Serial Data        - 11
  20:../../libdaisy/src/dev/sr_4021.h ****  ** - Clock              - 10
  21:../../libdaisy/src/dev/sr_4021.h ****  ** - P/!S               - 9
  22:../../libdaisy/src/dev/sr_4021.h ****  ** - Q[6-8]             - 2, 12, 3
  23:../../libdaisy/src/dev/sr_4021.h ****  **
  24:../../libdaisy/src/dev/sr_4021.h ****  ** Driver has support for daisy chaining and running up to 2 same-sized 
  25:../../libdaisy/src/dev/sr_4021.h ****  ** chains in parallel from a single set of clk/latch pins to reduce 
  26:../../libdaisy/src/dev/sr_4021.h ****  ** pin/code overhead when using multiple devices.
  27:../../libdaisy/src/dev/sr_4021.h ****  **
  28:../../libdaisy/src/dev/sr_4021.h ****  ** When dealing with multiple parallel/daisy-chained devices the 
  29:../../libdaisy/src/dev/sr_4021.h ****  ** states of all inputs will be filled in the following order (example uses two chained and two pa
  30:../../libdaisy/src/dev/sr_4021.h ****  ** data[chain0,parallel0], data[chain1,parallel0], data[chain0,parallel1], data[chain1,parallel1];
  31:../../libdaisy/src/dev/sr_4021.h ****  ** 
  32:../../libdaisy/src/dev/sr_4021.h ****  ** When combining multiple daisy chained and parallel devices the number of devices chained should
  33:../../libdaisy/src/dev/sr_4021.h ****  ** for each parallel device chain.
  34:../../libdaisy/src/dev/sr_4021.h ****  **
  35:../../libdaisy/src/dev/sr_4021.h ****  ***/
  36:../../libdaisy/src/dev/sr_4021.h **** template <size_t num_daisychained = 1, size_t num_parallel = 1>
  37:../../libdaisy/src/dev/sr_4021.h **** class ShiftRegister4021
  38:../../libdaisy/src/dev/sr_4021.h **** {
  39:../../libdaisy/src/dev/sr_4021.h ****   public:
  40:../../libdaisy/src/dev/sr_4021.h ****     /** Configuration Structure for handling the pin setting of the device */
  41:../../libdaisy/src/dev/sr_4021.h ****     struct Config
  42:../../libdaisy/src/dev/sr_4021.h ****     {
  43:../../libdaisy/src/dev/sr_4021.h ****         dsy_gpio_pin clk;   /**< Clock pin to attach to pin 10 of device(s) */
  44:../../libdaisy/src/dev/sr_4021.h ****         dsy_gpio_pin latch; /**< Latch pin to attach to pin 9 of device(s) */
  45:../../libdaisy/src/dev/sr_4021.h ****         dsy_gpio_pin data[num_parallel]; /**< Data Pin(s) */
  46:../../libdaisy/src/dev/sr_4021.h ****     };
  47:../../libdaisy/src/dev/sr_4021.h **** 
  48:../../libdaisy/src/dev/sr_4021.h ****     ShiftRegister4021() {}
  49:../../libdaisy/src/dev/sr_4021.h ****     ~ShiftRegister4021() {}
  38              		.loc 2 49 5 view .LVU1
  39              		.loc 2 49 5 is_stmt 0 view .LVU2
ARM GAS  /tmp/ccslSSf6.s 			page 4


  40              	.LBE398:
  41              	.LBB399:
  42              	.LBI399:
  43              		.file 3 "../../libdaisy/src/hid/midi.h"
   1:../../libdaisy/src/hid/midi.h **** #pragma once
   2:../../libdaisy/src/hid/midi.h **** #ifndef DSY_MIDI_H
   3:../../libdaisy/src/hid/midi.h **** #define DSY_MIDI_H
   4:../../libdaisy/src/hid/midi.h **** 
   5:../../libdaisy/src/hid/midi.h **** // TODO: make this adjustable
   6:../../libdaisy/src/hid/midi.h **** #define SYSEX_BUFFER_LEN 128
   7:../../libdaisy/src/hid/midi.h **** 
   8:../../libdaisy/src/hid/midi.h **** #include <stdint.h>
   9:../../libdaisy/src/hid/midi.h **** #include <stdlib.h>
  10:../../libdaisy/src/hid/midi.h **** #include "per/uart.h"
  11:../../libdaisy/src/hid/midi.h **** #include "util/ringbuffer.h"
  12:../../libdaisy/src/hid/midi.h **** #include "hid/MidiEvent.h"
  13:../../libdaisy/src/hid/midi.h **** #include "sys/system.h"
  14:../../libdaisy/src/hid/midi.h **** 
  15:../../libdaisy/src/hid/midi.h **** namespace daisy
  16:../../libdaisy/src/hid/midi.h **** {
  17:../../libdaisy/src/hid/midi.h **** /** @addtogroup external 
  18:../../libdaisy/src/hid/midi.h ****     @{ 
  19:../../libdaisy/src/hid/midi.h **** */
  20:../../libdaisy/src/hid/midi.h **** 
  21:../../libdaisy/src/hid/midi.h **** class MidiUartTransport
  22:../../libdaisy/src/hid/midi.h **** {
  23:../../libdaisy/src/hid/midi.h ****   public:
  24:../../libdaisy/src/hid/midi.h ****     MidiUartTransport() {}
  25:../../libdaisy/src/hid/midi.h ****     ~MidiUartTransport() {}
  26:../../libdaisy/src/hid/midi.h **** 
  27:../../libdaisy/src/hid/midi.h ****     struct Config
  28:../../libdaisy/src/hid/midi.h ****     {
  29:../../libdaisy/src/hid/midi.h ****         UartHandler::Config::Peripheral periph;
  30:../../libdaisy/src/hid/midi.h ****         dsy_gpio_pin                    rx;
  31:../../libdaisy/src/hid/midi.h ****         dsy_gpio_pin                    tx;
  32:../../libdaisy/src/hid/midi.h **** 
  33:../../libdaisy/src/hid/midi.h ****         Config()
  34:../../libdaisy/src/hid/midi.h ****         {
  35:../../libdaisy/src/hid/midi.h ****             periph = UartHandler::Config::Peripheral::USART_1;
  36:../../libdaisy/src/hid/midi.h ****             rx     = {DSY_GPIOB, 7};
  37:../../libdaisy/src/hid/midi.h ****             tx     = {DSY_GPIOB, 6};
  38:../../libdaisy/src/hid/midi.h ****         }
  39:../../libdaisy/src/hid/midi.h ****     };
  40:../../libdaisy/src/hid/midi.h **** 
  41:../../libdaisy/src/hid/midi.h ****     inline void Init(Config config)
  42:../../libdaisy/src/hid/midi.h ****     {
  43:../../libdaisy/src/hid/midi.h ****         UartHandler::Config uart_config;
  44:../../libdaisy/src/hid/midi.h **** 
  45:../../libdaisy/src/hid/midi.h ****         //defaults
  46:../../libdaisy/src/hid/midi.h ****         uart_config.baudrate   = 31250;
  47:../../libdaisy/src/hid/midi.h ****         uart_config.stopbits   = UartHandler::Config::StopBits::BITS_1;
  48:../../libdaisy/src/hid/midi.h ****         uart_config.parity     = UartHandler::Config::Parity::NONE;
  49:../../libdaisy/src/hid/midi.h ****         uart_config.mode       = UartHandler::Config::Mode::TX_RX;
  50:../../libdaisy/src/hid/midi.h ****         uart_config.wordlength = UartHandler::Config::WordLength::BITS_8;
  51:../../libdaisy/src/hid/midi.h **** 
  52:../../libdaisy/src/hid/midi.h ****         //user settings
  53:../../libdaisy/src/hid/midi.h ****         uart_config.periph        = config.periph;
ARM GAS  /tmp/ccslSSf6.s 			page 5


  54:../../libdaisy/src/hid/midi.h ****         uart_config.pin_config.rx = config.rx;
  55:../../libdaisy/src/hid/midi.h ****         uart_config.pin_config.tx = config.tx;
  56:../../libdaisy/src/hid/midi.h **** 
  57:../../libdaisy/src/hid/midi.h ****         uart_.Init(uart_config);
  58:../../libdaisy/src/hid/midi.h ****     }
  59:../../libdaisy/src/hid/midi.h **** 
  60:../../libdaisy/src/hid/midi.h ****     inline void    StartRx() { uart_.StartRx(); }
  61:../../libdaisy/src/hid/midi.h ****     inline size_t  Readable() { return uart_.Readable(); }
  62:../../libdaisy/src/hid/midi.h ****     inline uint8_t Rx() { return uart_.PopRx(); }
  63:../../libdaisy/src/hid/midi.h ****     inline bool    RxActive() { return uart_.RxActive(); }
  64:../../libdaisy/src/hid/midi.h ****     inline void    FlushRx() { uart_.FlushRx(); }
  65:../../libdaisy/src/hid/midi.h ****     inline void    Tx(uint8_t* buff, size_t size) { uart_.PollTx(buff, size); }
  66:../../libdaisy/src/hid/midi.h **** 
  67:../../libdaisy/src/hid/midi.h ****   private:
  68:../../libdaisy/src/hid/midi.h ****     UartHandler uart_;
  69:../../libdaisy/src/hid/midi.h **** };
  70:../../libdaisy/src/hid/midi.h **** 
  71:../../libdaisy/src/hid/midi.h **** /** 
  72:../../libdaisy/src/hid/midi.h ****     @brief Simple MIDI Handler \n 
  73:../../libdaisy/src/hid/midi.h ****     Parses bytes from an input into valid MidiEvents. \n 
  74:../../libdaisy/src/hid/midi.h ****     The MidiEvents fill a FIFO queue that the user can pop messages from.
  75:../../libdaisy/src/hid/midi.h ****     @author shensley
  76:../../libdaisy/src/hid/midi.h ****     @date March 2020
  77:../../libdaisy/src/hid/midi.h **** */
  78:../../libdaisy/src/hid/midi.h **** template <typename Transport>
  79:../../libdaisy/src/hid/midi.h **** class MidiHandler
  80:../../libdaisy/src/hid/midi.h **** {
  81:../../libdaisy/src/hid/midi.h ****   public:
  82:../../libdaisy/src/hid/midi.h ****     MidiHandler() {}
  83:../../libdaisy/src/hid/midi.h ****     ~MidiHandler() {}
  44              		.loc 3 83 5 is_stmt 1 view .LVU3
  45              	.LBB400:
  46              	.LBI400:
  25:../../libdaisy/src/hid/midi.h **** 
  47              		.loc 3 25 5 view .LVU4
  25:../../libdaisy/src/hid/midi.h **** 
  48              		.loc 3 25 5 is_stmt 0 view .LVU5
  49              	.LBE400:
  50              	.LBE399:
  51              	.LBB401:
  52              	.LBI401:
  53              		.file 4 "../../libdaisy/src/hid/gatein.h"
   1:../../libdaisy/src/hid/gatein.h **** #pragma once
   2:../../libdaisy/src/hid/gatein.h **** #ifndef DSY_GATEIN_H
   3:../../libdaisy/src/hid/gatein.h **** #define DSY_GATEIN_H
   4:../../libdaisy/src/hid/gatein.h **** #include "per/gpio.h"
   5:../../libdaisy/src/hid/gatein.h **** 
   6:../../libdaisy/src/hid/gatein.h **** namespace daisy
   7:../../libdaisy/src/hid/gatein.h **** {
   8:../../libdaisy/src/hid/gatein.h **** /** @file hid_gatein.h */
   9:../../libdaisy/src/hid/gatein.h **** /**
  10:../../libdaisy/src/hid/gatein.h ****    @brief Generic Class for handling gate inputs through GPIO.
  11:../../libdaisy/src/hid/gatein.h ****    @author Stephen Hensley
  12:../../libdaisy/src/hid/gatein.h ****    @date    March 2020
  13:../../libdaisy/src/hid/gatein.h ****    @ingroup controls
  14:../../libdaisy/src/hid/gatein.h **** */
  15:../../libdaisy/src/hid/gatein.h **** class GateIn
ARM GAS  /tmp/ccslSSf6.s 			page 6


  16:../../libdaisy/src/hid/gatein.h **** {
  17:../../libdaisy/src/hid/gatein.h ****   public:
  18:../../libdaisy/src/hid/gatein.h ****     /** GateIn 
  19:../../libdaisy/src/hid/gatein.h ****     Constructor 
  20:../../libdaisy/src/hid/gatein.h ****     */
  21:../../libdaisy/src/hid/gatein.h ****     GateIn() {}
  22:../../libdaisy/src/hid/gatein.h ****     /** GateIn~
  23:../../libdaisy/src/hid/gatein.h ****     Destructor 
  24:../../libdaisy/src/hid/gatein.h ****     */
  25:../../libdaisy/src/hid/gatein.h ****     ~GateIn() {}
  54              		.loc 4 25 5 is_stmt 1 view .LVU6
  55              		.loc 4 25 5 is_stmt 0 view .LVU7
  56              	.LBE401:
  57              	.LBB402:
  58              	.LBI402:
  59              		.file 5 "../../libdaisy/src/hid/disp/oled_display.h"
   1:../../libdaisy/src/hid/disp/oled_display.h **** #pragma once
   2:../../libdaisy/src/hid/disp/oled_display.h **** #ifndef DSY_OLED_DISPLAY_H
   3:../../libdaisy/src/hid/disp/oled_display.h **** #define DSY_OLED_DISPLAY_H /**< Macro */
   4:../../libdaisy/src/hid/disp/oled_display.h **** 
   5:../../libdaisy/src/hid/disp/oled_display.h **** #include "display.h"
   6:../../libdaisy/src/hid/disp/oled_display.h **** 
   7:../../libdaisy/src/hid/disp/oled_display.h **** namespace daisy
   8:../../libdaisy/src/hid/disp/oled_display.h **** {
   9:../../libdaisy/src/hid/disp/oled_display.h **** /** 
  10:../../libdaisy/src/hid/disp/oled_display.h ****  * This class is for drawing to a monochrome OLED display. 
  11:../../libdaisy/src/hid/disp/oled_display.h **** */
  12:../../libdaisy/src/hid/disp/oled_display.h **** template <typename DisplayDriver>
  13:../../libdaisy/src/hid/disp/oled_display.h **** class OledDisplay : public OneBitGraphicsDisplayImpl<OledDisplay<DisplayDriver>>
  14:../../libdaisy/src/hid/disp/oled_display.h **** {
  15:../../libdaisy/src/hid/disp/oled_display.h ****   public:
  16:../../libdaisy/src/hid/disp/oled_display.h ****     OledDisplay() {}
  17:../../libdaisy/src/hid/disp/oled_display.h ****     virtual ~OledDisplay() {}
  60              		.loc 5 17 13 is_stmt 1 view .LVU8
  61              	.LBB403:
  62              	.LBI403:
  63              		.file 6 "../../libdaisy/src/hid/disp/display.h"
   1:../../libdaisy/src/hid/disp/display.h **** #pragma once
   2:../../libdaisy/src/hid/disp/display.h **** #ifndef DSY_DISPLAY_H
   3:../../libdaisy/src/hid/disp/display.h **** #define DSY_DISPLAY_H /**< Macro */
   4:../../libdaisy/src/hid/disp/display.h **** #include <cmath>
   5:../../libdaisy/src/hid/disp/display.h **** #include "util/oled_fonts.h"
   6:../../libdaisy/src/hid/disp/display.h **** #include "daisy_core.h"
   7:../../libdaisy/src/hid/disp/display.h **** #include "graphics_common.h"
   8:../../libdaisy/src/hid/disp/display.h **** 
   9:../../libdaisy/src/hid/disp/display.h **** #ifndef deg2rad
  10:../../libdaisy/src/hid/disp/display.h **** #define deg2rad(deg) ((deg)*3.141592 / 180.0)
  11:../../libdaisy/src/hid/disp/display.h **** #endif
  12:../../libdaisy/src/hid/disp/display.h **** 
  13:../../libdaisy/src/hid/disp/display.h **** namespace daisy
  14:../../libdaisy/src/hid/disp/display.h **** {
  15:../../libdaisy/src/hid/disp/display.h **** /** 
  16:../../libdaisy/src/hid/disp/display.h ****  * This interface is used as a base class for all types of 1bit-per-pixel
  17:../../libdaisy/src/hid/disp/display.h ****  * graphics displays.
  18:../../libdaisy/src/hid/disp/display.h **** */
  19:../../libdaisy/src/hid/disp/display.h **** class OneBitGraphicsDisplay
  20:../../libdaisy/src/hid/disp/display.h **** {
ARM GAS  /tmp/ccslSSf6.s 			page 7


  21:../../libdaisy/src/hid/disp/display.h ****   public:
  22:../../libdaisy/src/hid/disp/display.h ****     OneBitGraphicsDisplay() {}
  23:../../libdaisy/src/hid/disp/display.h ****     virtual ~OneBitGraphicsDisplay() {}
  24:../../libdaisy/src/hid/disp/display.h **** 
  25:../../libdaisy/src/hid/disp/display.h ****     virtual uint16_t Height() const = 0;
  26:../../libdaisy/src/hid/disp/display.h ****     virtual uint16_t Width() const  = 0;
  27:../../libdaisy/src/hid/disp/display.h **** 
  28:../../libdaisy/src/hid/disp/display.h ****     Rectangle GetBounds() const
  29:../../libdaisy/src/hid/disp/display.h ****     {
  30:../../libdaisy/src/hid/disp/display.h ****         return Rectangle(int16_t(Width()), int16_t(Height()));
  31:../../libdaisy/src/hid/disp/display.h ****     }
  32:../../libdaisy/src/hid/disp/display.h **** 
  33:../../libdaisy/src/hid/disp/display.h **** 
  34:../../libdaisy/src/hid/disp/display.h ****     size_t CurrentX() { return currentX_; };
  35:../../libdaisy/src/hid/disp/display.h ****     size_t CurrentY() { return currentY_; };
  36:../../libdaisy/src/hid/disp/display.h **** 
  37:../../libdaisy/src/hid/disp/display.h ****     /** 
  38:../../libdaisy/src/hid/disp/display.h ****     Fills the entire display with either on/off.
  39:../../libdaisy/src/hid/disp/display.h ****     \param on Sets on or off.
  40:../../libdaisy/src/hid/disp/display.h ****     */
  41:../../libdaisy/src/hid/disp/display.h ****     virtual void Fill(bool on) = 0;
  42:../../libdaisy/src/hid/disp/display.h **** 
  43:../../libdaisy/src/hid/disp/display.h ****     /**
  44:../../libdaisy/src/hid/disp/display.h ****     Sets the pixel at the specified coordinate to be on/off.
  45:../../libdaisy/src/hid/disp/display.h ****     \param x   x Coordinate
  46:../../libdaisy/src/hid/disp/display.h ****     \param y   y coordinate
  47:../../libdaisy/src/hid/disp/display.h ****     \param on  on or off
  48:../../libdaisy/src/hid/disp/display.h ****     */
  49:../../libdaisy/src/hid/disp/display.h ****     virtual void DrawPixel(uint_fast8_t x, uint_fast8_t y, bool on) = 0;
  50:../../libdaisy/src/hid/disp/display.h **** 
  51:../../libdaisy/src/hid/disp/display.h ****     /**
  52:../../libdaisy/src/hid/disp/display.h ****     Draws a line from (x1, y1) to (y1, y2)
  53:../../libdaisy/src/hid/disp/display.h ****     \param x1  x Coordinate of the starting point
  54:../../libdaisy/src/hid/disp/display.h ****     \param y1  y Coordinate of the starting point
  55:../../libdaisy/src/hid/disp/display.h ****     \param x2  x Coordinate of the ending point
  56:../../libdaisy/src/hid/disp/display.h ****     \param y2  y Coordinate of the ending point
  57:../../libdaisy/src/hid/disp/display.h ****     \param on  on or off
  58:../../libdaisy/src/hid/disp/display.h ****     */
  59:../../libdaisy/src/hid/disp/display.h ****     virtual void DrawLine(uint_fast8_t x1,
  60:../../libdaisy/src/hid/disp/display.h ****                           uint_fast8_t y1,
  61:../../libdaisy/src/hid/disp/display.h ****                           uint_fast8_t x2,
  62:../../libdaisy/src/hid/disp/display.h ****                           uint_fast8_t y2,
  63:../../libdaisy/src/hid/disp/display.h ****                           bool         on)
  64:../../libdaisy/src/hid/disp/display.h ****         = 0;
  65:../../libdaisy/src/hid/disp/display.h **** 
  66:../../libdaisy/src/hid/disp/display.h ****     /**
  67:../../libdaisy/src/hid/disp/display.h ****     Draws a rectangle based on two coordinates.
  68:../../libdaisy/src/hid/disp/display.h ****     \param x1 x Coordinate of the first point
  69:../../libdaisy/src/hid/disp/display.h ****     \param y1 y Coordinate of the first point
  70:../../libdaisy/src/hid/disp/display.h ****     \param x2 x Coordinate of the second point
  71:../../libdaisy/src/hid/disp/display.h ****     \param y2 y Coordinate of the second point
  72:../../libdaisy/src/hid/disp/display.h ****     \param on on or off
  73:../../libdaisy/src/hid/disp/display.h ****     \param fill fill the rectangle or draw only the outline
  74:../../libdaisy/src/hid/disp/display.h ****     */
  75:../../libdaisy/src/hid/disp/display.h ****     virtual void DrawRect(uint_fast8_t x1,
  76:../../libdaisy/src/hid/disp/display.h ****                           uint_fast8_t y1,
  77:../../libdaisy/src/hid/disp/display.h ****                           uint_fast8_t x2,
ARM GAS  /tmp/ccslSSf6.s 			page 8


  78:../../libdaisy/src/hid/disp/display.h ****                           uint_fast8_t y2,
  79:../../libdaisy/src/hid/disp/display.h ****                           bool         on,
  80:../../libdaisy/src/hid/disp/display.h ****                           bool         fill = false)
  81:../../libdaisy/src/hid/disp/display.h ****         = 0;
  82:../../libdaisy/src/hid/disp/display.h **** 
  83:../../libdaisy/src/hid/disp/display.h ****     /**
  84:../../libdaisy/src/hid/disp/display.h ****     Draws a rectangle.
  85:../../libdaisy/src/hid/disp/display.h ****     \param rect the rectangle
  86:../../libdaisy/src/hid/disp/display.h ****     \param on   on or off
  87:../../libdaisy/src/hid/disp/display.h ****     \param fill fill the rectangle or draw only the outline
  88:../../libdaisy/src/hid/disp/display.h ****     */
  89:../../libdaisy/src/hid/disp/display.h ****     void DrawRect(const Rectangle& rect, bool on, bool fill = false)
  90:../../libdaisy/src/hid/disp/display.h ****     {
  91:../../libdaisy/src/hid/disp/display.h ****         DrawRect(rect.GetX(),
  92:../../libdaisy/src/hid/disp/display.h ****                  rect.GetY(),
  93:../../libdaisy/src/hid/disp/display.h ****                  rect.GetRight(),
  94:../../libdaisy/src/hid/disp/display.h ****                  rect.GetBottom(),
  95:../../libdaisy/src/hid/disp/display.h ****                  on,
  96:../../libdaisy/src/hid/disp/display.h ****                  fill);
  97:../../libdaisy/src/hid/disp/display.h ****     }
  98:../../libdaisy/src/hid/disp/display.h **** 
  99:../../libdaisy/src/hid/disp/display.h ****     /**
 100:../../libdaisy/src/hid/disp/display.h ****     Draws an arc around the specified coordinate
 101:../../libdaisy/src/hid/disp/display.h ****     \param x           x Coordinate of the center of the arc
 102:../../libdaisy/src/hid/disp/display.h ****     \param y           y Coordinate of the center of the arc
 103:../../libdaisy/src/hid/disp/display.h ****     \param radius      radius of the arc
 104:../../libdaisy/src/hid/disp/display.h ****     \param start_angle angle where to start the arc
 105:../../libdaisy/src/hid/disp/display.h ****     \param sweep       total angle of the arc
 106:../../libdaisy/src/hid/disp/display.h ****     \param on  on or off
 107:../../libdaisy/src/hid/disp/display.h ****     */
 108:../../libdaisy/src/hid/disp/display.h ****     virtual void DrawArc(uint_fast8_t x,
 109:../../libdaisy/src/hid/disp/display.h ****                          uint_fast8_t y,
 110:../../libdaisy/src/hid/disp/display.h ****                          uint_fast8_t radius,
 111:../../libdaisy/src/hid/disp/display.h ****                          int_fast16_t start_angle,
 112:../../libdaisy/src/hid/disp/display.h ****                          int_fast16_t sweep,
 113:../../libdaisy/src/hid/disp/display.h ****                          bool         on)
 114:../../libdaisy/src/hid/disp/display.h ****         = 0;
 115:../../libdaisy/src/hid/disp/display.h **** 
 116:../../libdaisy/src/hid/disp/display.h ****     /**
 117:../../libdaisy/src/hid/disp/display.h ****     Draws a circle around the specified coordinate
 118:../../libdaisy/src/hid/disp/display.h ****     \param x           x Coordinate of the center of the circle
 119:../../libdaisy/src/hid/disp/display.h ****     \param y           y Coordinate of the center of the circle
 120:../../libdaisy/src/hid/disp/display.h ****     \param radius      radius of the circle
 121:../../libdaisy/src/hid/disp/display.h ****     \param on  on or off
 122:../../libdaisy/src/hid/disp/display.h ****     */
 123:../../libdaisy/src/hid/disp/display.h ****     void
 124:../../libdaisy/src/hid/disp/display.h ****     DrawCircle(uint_fast8_t x, uint_fast8_t y, uint_fast8_t radius, bool on)
 125:../../libdaisy/src/hid/disp/display.h ****     {
 126:../../libdaisy/src/hid/disp/display.h ****         DrawArc(x, y, radius, 0, 360, on);
 127:../../libdaisy/src/hid/disp/display.h ****     };
 128:../../libdaisy/src/hid/disp/display.h **** 
 129:../../libdaisy/src/hid/disp/display.h ****     /** 
 130:../../libdaisy/src/hid/disp/display.h ****     Writes the character with the specific FontDef
 131:../../libdaisy/src/hid/disp/display.h ****     to the display buffer at the current Cursor position.
 132:../../libdaisy/src/hid/disp/display.h ****     \param ch character to be written
 133:../../libdaisy/src/hid/disp/display.h ****     \param font font to be written in
 134:../../libdaisy/src/hid/disp/display.h ****     \param on    on or off
ARM GAS  /tmp/ccslSSf6.s 			page 9


 135:../../libdaisy/src/hid/disp/display.h ****     \return &
 136:../../libdaisy/src/hid/disp/display.h ****     */
 137:../../libdaisy/src/hid/disp/display.h ****     virtual char WriteChar(char ch, FontDef font, bool on) = 0;
 138:../../libdaisy/src/hid/disp/display.h **** 
 139:../../libdaisy/src/hid/disp/display.h ****     /** 
 140:../../libdaisy/src/hid/disp/display.h ****     Similar to WriteChar, except it will handle an entire String.
 141:../../libdaisy/src/hid/disp/display.h ****     Wrapping does not happen automatically, so the width
 142:../../libdaisy/src/hid/disp/display.h ****     of the string must be kept within the dimensions of the screen.
 143:../../libdaisy/src/hid/disp/display.h ****     \param str string to be written
 144:../../libdaisy/src/hid/disp/display.h ****     \param font font to use
 145:../../libdaisy/src/hid/disp/display.h ****     \param on  on or off
 146:../../libdaisy/src/hid/disp/display.h ****     \return &
 147:../../libdaisy/src/hid/disp/display.h ****     */
 148:../../libdaisy/src/hid/disp/display.h ****     virtual char WriteString(const char* str, FontDef font, bool on) = 0;
 149:../../libdaisy/src/hid/disp/display.h **** 
 150:../../libdaisy/src/hid/disp/display.h ****     /** 
 151:../../libdaisy/src/hid/disp/display.h ****     Similar to WriteString but justified within a bounding box.
 152:../../libdaisy/src/hid/disp/display.h ****     \param str          string to be written
 153:../../libdaisy/src/hid/disp/display.h ****     \param font         font to use
 154:../../libdaisy/src/hid/disp/display.h ****     \param boundingBox  the bounding box to draw the text in
 155:../../libdaisy/src/hid/disp/display.h ****     \param alignment    the alignment to use
 156:../../libdaisy/src/hid/disp/display.h ****     \param on           on or off
 157:../../libdaisy/src/hid/disp/display.h ****     \return The rectangle that was drawn to
 158:../../libdaisy/src/hid/disp/display.h ****     */
 159:../../libdaisy/src/hid/disp/display.h ****     virtual Rectangle WriteStringAligned(const char*    str,
 160:../../libdaisy/src/hid/disp/display.h ****                                          const FontDef& font,
 161:../../libdaisy/src/hid/disp/display.h ****                                          Rectangle      boundingBox,
 162:../../libdaisy/src/hid/disp/display.h ****                                          Alignment      alignment,
 163:../../libdaisy/src/hid/disp/display.h ****                                          bool           on)
 164:../../libdaisy/src/hid/disp/display.h ****         = 0;
 165:../../libdaisy/src/hid/disp/display.h **** 
 166:../../libdaisy/src/hid/disp/display.h ****     /** 
 167:../../libdaisy/src/hid/disp/display.h ****     Moves the 'Cursor' position used for WriteChar, and WriteStr to the specified coordinate.
 168:../../libdaisy/src/hid/disp/display.h ****     \param x x pos
 169:../../libdaisy/src/hid/disp/display.h ****     \param y y pos
 170:../../libdaisy/src/hid/disp/display.h ****     */
 171:../../libdaisy/src/hid/disp/display.h ****     void SetCursor(uint16_t x, uint16_t y)
 172:../../libdaisy/src/hid/disp/display.h ****     {
 173:../../libdaisy/src/hid/disp/display.h ****         currentX_ = (x >= Width()) ? Width() - 1 : x;
 174:../../libdaisy/src/hid/disp/display.h ****         currentY_ = (y >= Height()) ? Height() - 1 : y;
 175:../../libdaisy/src/hid/disp/display.h ****     }
 176:../../libdaisy/src/hid/disp/display.h **** 
 177:../../libdaisy/src/hid/disp/display.h ****     /** 
 178:../../libdaisy/src/hid/disp/display.h ****     Writes the current display buffer to the OLED device using SPI or I2C depending on 
 179:../../libdaisy/src/hid/disp/display.h ****     how the object was initialized.
 180:../../libdaisy/src/hid/disp/display.h ****     */
 181:../../libdaisy/src/hid/disp/display.h ****     virtual void Update() = 0;
 182:../../libdaisy/src/hid/disp/display.h **** 
 183:../../libdaisy/src/hid/disp/display.h ****   protected:
 184:../../libdaisy/src/hid/disp/display.h ****     uint16_t currentX_;
 185:../../libdaisy/src/hid/disp/display.h ****     uint16_t currentY_;
 186:../../libdaisy/src/hid/disp/display.h **** };
 187:../../libdaisy/src/hid/disp/display.h **** 
 188:../../libdaisy/src/hid/disp/display.h **** /** This class is intended as a intermediary class for your actual implementation of the OneBitGrap
 189:../../libdaisy/src/hid/disp/display.h ****  *  interface. It uses the CRTP design pattern where the template argument is the child class. It p
 190:../../libdaisy/src/hid/disp/display.h ****  *  implementations for most of the functions, except DrawPixel(), Update() and Fill(), which you'l
 191:../../libdaisy/src/hid/disp/display.h ****  *  to provide in your child class.
ARM GAS  /tmp/ccslSSf6.s 			page 10


 192:../../libdaisy/src/hid/disp/display.h ****  *  The main goal of this class is to provide common drawing functions without relying on massive a
 193:../../libdaisy/src/hid/disp/display.h ****  *  virtual function calls that would result in a performance loss. To achieve this, any drawing fu
 194:../../libdaisy/src/hid/disp/display.h ****  *  is implemented here and internally calls other drawing functions (e.g. DrawRect() which interna
 195:../../libdaisy/src/hid/disp/display.h ****  *  DrawPixel() and DrawLine()) makes these calls via the qualified name of these functions to expl
 196:../../libdaisy/src/hid/disp/display.h ****  *  suppress the virtual dispatch mechanism like this:
 197:../../libdaisy/src/hid/disp/display.h ****  * 
 198:../../libdaisy/src/hid/disp/display.h ****  *      ChildType::DrawPixel(...); // no virtual function call; direct call into the child class fu
 199:../../libdaisy/src/hid/disp/display.h ****  *  
 200:../../libdaisy/src/hid/disp/display.h ****  *  To create a custom OneBitGraphicsDisplay implementation, you can 
 201:../../libdaisy/src/hid/disp/display.h ****  *  A) inherit from OneBitGraphicsDisplay directly and provide all the drawing functions yourself
 202:../../libdaisy/src/hid/disp/display.h ****  *  B) Inherit from OneBitGraphicsDisplayImpl and only provide DrawPixel(), Fill() and Update()
 203:../../libdaisy/src/hid/disp/display.h ****  *     like this:
 204:../../libdaisy/src/hid/disp/display.h ****  *  
 205:../../libdaisy/src/hid/disp/display.h ****  *      class MyDisplayClass : public OneBitGraphicsDisplayImpl<MyDisplayClass> 
 206:../../libdaisy/src/hid/disp/display.h ****  *      {
 207:../../libdaisy/src/hid/disp/display.h ****  *      public:
 208:../../libdaisy/src/hid/disp/display.h ****  *          void Fill() override { ... };
 209:../../libdaisy/src/hid/disp/display.h ****  *          void DrawPixel(uint_fast8_t x, uint_fast8_t y, bool on) override { ... };
 210:../../libdaisy/src/hid/disp/display.h ****  *          void Update() override { ... }
 211:../../libdaisy/src/hid/disp/display.h ****  *      };
 212:../../libdaisy/src/hid/disp/display.h ****  *  
 213:../../libdaisy/src/hid/disp/display.h ****  */
 214:../../libdaisy/src/hid/disp/display.h **** template <class ChildType>
 215:../../libdaisy/src/hid/disp/display.h **** class OneBitGraphicsDisplayImpl : public OneBitGraphicsDisplay
 216:../../libdaisy/src/hid/disp/display.h **** {
 217:../../libdaisy/src/hid/disp/display.h ****   public:
 218:../../libdaisy/src/hid/disp/display.h ****     OneBitGraphicsDisplayImpl() {}
 219:../../libdaisy/src/hid/disp/display.h ****     virtual ~OneBitGraphicsDisplayImpl() {}
  64              		.loc 6 219 13 view .LVU9
  65              	.LBB404:
  66              	.LBI404:
  23:../../libdaisy/src/hid/disp/display.h **** 
  67              		.loc 6 23 13 view .LVU10
  23:../../libdaisy/src/hid/disp/display.h **** 
  68              		.loc 6 23 13 is_stmt 0 view .LVU11
  69              	.LBE404:
  70              	.LBE403:
  71              	.LBE402:
  72              	.LBB405:
  73              	.LBI405:
  74              		.file 7 "../../libdaisy/src/daisy_seed.h"
   1:../../libdaisy/src/daisy_seed.h **** #pragma once
   2:../../libdaisy/src/daisy_seed.h **** #ifndef DSY_SEED_H
   3:../../libdaisy/src/daisy_seed.h **** #define DSY_SEED_H
   4:../../libdaisy/src/daisy_seed.h **** 
   5:../../libdaisy/src/daisy_seed.h **** #include "daisy.h"
   6:../../libdaisy/src/daisy_seed.h **** 
   7:../../libdaisy/src/daisy_seed.h **** //Uncomment this out if you're still using the rev2 hardware
   8:../../libdaisy/src/daisy_seed.h **** //#define SEED_REV2
   9:../../libdaisy/src/daisy_seed.h **** 
  10:../../libdaisy/src/daisy_seed.h **** namespace daisy
  11:../../libdaisy/src/daisy_seed.h **** {
  12:../../libdaisy/src/daisy_seed.h **** /**
  13:../../libdaisy/src/daisy_seed.h ****    @brief This is the higher-level interface for the Daisy board. \n 
  14:../../libdaisy/src/daisy_seed.h ****     All basic peripheral configuration/initialization is setup here. \n
  15:../../libdaisy/src/daisy_seed.h **** 
  16:../../libdaisy/src/daisy_seed.h ****    @ingroup boards
ARM GAS  /tmp/ccslSSf6.s 			page 11


  17:../../libdaisy/src/daisy_seed.h **** */
  18:../../libdaisy/src/daisy_seed.h **** class DaisySeed
  19:../../libdaisy/src/daisy_seed.h **** {
  20:../../libdaisy/src/daisy_seed.h ****   public:
  21:../../libdaisy/src/daisy_seed.h ****     DaisySeed() {}
  22:../../libdaisy/src/daisy_seed.h ****     ~DaisySeed() {}
  75              		.loc 7 22 5 is_stmt 1 view .LVU12
  76              	.LBB406:
  77              	.LBI406:
  78              		.file 8 "../../libdaisy/src/sys/system.h"
   1:../../libdaisy/src/sys/system.h **** #ifndef DSY_SYSTEM_H
   2:../../libdaisy/src/sys/system.h **** #define DSY_SYSTEM_H
   3:../../libdaisy/src/sys/system.h **** 
   4:../../libdaisy/src/sys/system.h **** #ifndef UNIT_TEST // for unit tests, a dummy implementation is provided below
   5:../../libdaisy/src/sys/system.h **** 
   6:../../libdaisy/src/sys/system.h **** #include <cstdint>
   7:../../libdaisy/src/sys/system.h **** #include "per/tim.h"
   8:../../libdaisy/src/sys/system.h **** 
   9:../../libdaisy/src/sys/system.h **** namespace daisy
  10:../../libdaisy/src/sys/system.h **** {
  11:../../libdaisy/src/sys/system.h **** /** A handle for interacting with the Core System. 
  12:../../libdaisy/src/sys/system.h ****  ** This includes the Clock tree, MPU, global DMA initialization,
  13:../../libdaisy/src/sys/system.h ****  ** cache handling, and any other necessary global initiailzation
  14:../../libdaisy/src/sys/system.h ****  **
  15:../../libdaisy/src/sys/system.h ****  ** @author shensley
  16:../../libdaisy/src/sys/system.h ****  ** @addtogroup system
  17:../../libdaisy/src/sys/system.h ****  */
  18:../../libdaisy/src/sys/system.h **** class System
  19:../../libdaisy/src/sys/system.h **** {
  20:../../libdaisy/src/sys/system.h ****   public:
  21:../../libdaisy/src/sys/system.h ****     /** Contains settings for initializing the System */
  22:../../libdaisy/src/sys/system.h ****     struct Config
  23:../../libdaisy/src/sys/system.h ****     {
  24:../../libdaisy/src/sys/system.h ****         /** Specifies the system clock frequency that feeds APB/AHB clocks, etc. */
  25:../../libdaisy/src/sys/system.h ****         enum class SysClkFreq
  26:../../libdaisy/src/sys/system.h ****         {
  27:../../libdaisy/src/sys/system.h ****             FREQ_400MHZ,
  28:../../libdaisy/src/sys/system.h ****             FREQ_480MHZ,
  29:../../libdaisy/src/sys/system.h ****         };
  30:../../libdaisy/src/sys/system.h **** 
  31:../../libdaisy/src/sys/system.h ****         /** Method to call on the struct to set to defaults
  32:../../libdaisy/src/sys/system.h ****          ** CPU Freq set to 400MHz
  33:../../libdaisy/src/sys/system.h ****          ** Cache Enabled 
  34:../../libdaisy/src/sys/system.h ****          ** */
  35:../../libdaisy/src/sys/system.h ****         void Defaults()
  36:../../libdaisy/src/sys/system.h ****         {
  37:../../libdaisy/src/sys/system.h ****             cpu_freq   = SysClkFreq::FREQ_400MHZ;
  38:../../libdaisy/src/sys/system.h ****             use_dcache = true;
  39:../../libdaisy/src/sys/system.h ****             use_icache = true;
  40:../../libdaisy/src/sys/system.h ****         }
  41:../../libdaisy/src/sys/system.h **** 
  42:../../libdaisy/src/sys/system.h ****         /** Method to call on the struct to set to boost mode:
  43:../../libdaisy/src/sys/system.h ****          ** CPU Freq set to 480MHz
  44:../../libdaisy/src/sys/system.h ****          ** Cache Enabled 
  45:../../libdaisy/src/sys/system.h ****          ** */
  46:../../libdaisy/src/sys/system.h ****         void Boost()
  47:../../libdaisy/src/sys/system.h ****         {
ARM GAS  /tmp/ccslSSf6.s 			page 12


  48:../../libdaisy/src/sys/system.h ****             cpu_freq   = SysClkFreq::FREQ_480MHZ;
  49:../../libdaisy/src/sys/system.h ****             use_dcache = true;
  50:../../libdaisy/src/sys/system.h ****             use_icache = true;
  51:../../libdaisy/src/sys/system.h ****         }
  52:../../libdaisy/src/sys/system.h **** 
  53:../../libdaisy/src/sys/system.h ****         SysClkFreq cpu_freq;
  54:../../libdaisy/src/sys/system.h ****         bool       use_dcache;
  55:../../libdaisy/src/sys/system.h ****         bool       use_icache;
  56:../../libdaisy/src/sys/system.h ****     };
  57:../../libdaisy/src/sys/system.h **** 
  58:../../libdaisy/src/sys/system.h ****     System() {}
  59:../../libdaisy/src/sys/system.h ****     ~System() {}
  79              		.loc 8 59 5 view .LVU13
  80              		.loc 8 59 5 is_stmt 0 view .LVU14
  81              	.LBE406:
  82              	.LBB407:
  83              	.LBI407:
  84              		.file 9 "../../libdaisy/src/hid/usb.h"
   1:../../libdaisy/src/hid/usb.h **** #pragma once
   2:../../libdaisy/src/hid/usb.h **** #ifndef DSY_HID_USB_H
   3:../../libdaisy/src/hid/usb.h **** #define DSY_HID_USB_H
   4:../../libdaisy/src/hid/usb.h **** #include <stdint.h>
   5:../../libdaisy/src/hid/usb.h **** #include <stdlib.h>
   6:../../libdaisy/src/hid/usb.h **** 
   7:../../libdaisy/src/hid/usb.h **** namespace daisy
   8:../../libdaisy/src/hid/usb.h **** /** @addtogroup externals
   9:../../libdaisy/src/hid/usb.h ****     @{
  10:../../libdaisy/src/hid/usb.h **** */
  11:../../libdaisy/src/hid/usb.h **** 
  12:../../libdaisy/src/hid/usb.h **** {
  13:../../libdaisy/src/hid/usb.h **** /** 
  14:../../libdaisy/src/hid/usb.h ****     @brief Interface for initializing and using the USB Peripherals on the daisy
  15:../../libdaisy/src/hid/usb.h ****     @author Stephen Hensley
  16:../../libdaisy/src/hid/usb.h ****     @date December 2019
  17:../../libdaisy/src/hid/usb.h **** */
  18:../../libdaisy/src/hid/usb.h **** class UsbHandle
  19:../../libdaisy/src/hid/usb.h **** {
  20:../../libdaisy/src/hid/usb.h ****   public:
  21:../../libdaisy/src/hid/usb.h ****     /** Return values for USBHandle Functions */
  22:../../libdaisy/src/hid/usb.h ****     enum class Result
  23:../../libdaisy/src/hid/usb.h ****     {
  24:../../libdaisy/src/hid/usb.h ****         OK,
  25:../../libdaisy/src/hid/usb.h ****         ERR,
  26:../../libdaisy/src/hid/usb.h ****     };
  27:../../libdaisy/src/hid/usb.h **** 
  28:../../libdaisy/src/hid/usb.h ****     /** Specified which of the two USB Peripherals to initialize. */
  29:../../libdaisy/src/hid/usb.h ****     enum UsbPeriph
  30:../../libdaisy/src/hid/usb.h ****     {
  31:../../libdaisy/src/hid/usb.h ****         FS_INTERNAL, /**< Internal pin */
  32:../../libdaisy/src/hid/usb.h ****         FS_EXTERNAL, /**< FS External D+ pin is Pin 38 (GPIO32). FS External D- pin is Pin 37 (GPIO
  33:../../libdaisy/src/hid/usb.h ****         FS_BOTH,     /**< Both */
  34:../../libdaisy/src/hid/usb.h ****     };
  35:../../libdaisy/src/hid/usb.h **** 
  36:../../libdaisy/src/hid/usb.h **** 
  37:../../libdaisy/src/hid/usb.h ****     /** Function called upon reception of a buffer */
  38:../../libdaisy/src/hid/usb.h ****     typedef void (*ReceiveCallback)(uint8_t* buff, uint32_t* len);
  39:../../libdaisy/src/hid/usb.h **** 
ARM GAS  /tmp/ccslSSf6.s 			page 13


  40:../../libdaisy/src/hid/usb.h ****     UsbHandle() {}
  41:../../libdaisy/src/hid/usb.h **** 
  42:../../libdaisy/src/hid/usb.h ****     ~UsbHandle() {}
  85              		.loc 9 42 5 is_stmt 1 view .LVU15
  86              		.loc 9 42 5 is_stmt 0 view .LVU16
  87              	.LBE407:
  88              	.LBB408:
  89              	.LBI408:
  90              		.file 10 "../../libdaisy/src/per/adc.h"
   1:../../libdaisy/src/per/adc.h **** #pragma once
   2:../../libdaisy/src/per/adc.h **** #ifndef DSY_ADC_H
   3:../../libdaisy/src/per/adc.h **** #define DSY_ADC_H /**< Macro */
   4:../../libdaisy/src/per/adc.h **** #include <stdint.h>
   5:../../libdaisy/src/per/adc.h **** #include <stdlib.h>
   6:../../libdaisy/src/per/adc.h **** #include "daisy_core.h"
   7:../../libdaisy/src/per/adc.h **** #include "per/gpio.h"
   8:../../libdaisy/src/per/adc.h **** 
   9:../../libdaisy/src/per/adc.h **** #define DSY_ADC_MAX_CHANNELS 14 /**< Maximum number of ADC channels */
  10:../../libdaisy/src/per/adc.h **** 
  11:../../libdaisy/src/per/adc.h **** namespace daisy
  12:../../libdaisy/src/per/adc.h **** {
  13:../../libdaisy/src/per/adc.h **** /** @addtogroup analog_digital_conversion
  14:../../libdaisy/src/per/adc.h ****     @{
  15:../../libdaisy/src/per/adc.h **** */
  16:../../libdaisy/src/per/adc.h **** 
  17:../../libdaisy/src/per/adc.h **** /* While there may not be many configuration options here,
  18:../../libdaisy/src/per/adc.h **** using a struct like this allows us to add more configuration
  19:../../libdaisy/src/per/adc.h **** later without breaking existing functionality.
  20:../../libdaisy/src/per/adc.h **** */
  21:../../libdaisy/src/per/adc.h **** 
  22:../../libdaisy/src/per/adc.h **** /** Configuration Structure for a given channel */
  23:../../libdaisy/src/per/adc.h **** struct AdcChannelConfig
  24:../../libdaisy/src/per/adc.h **** {
  25:../../libdaisy/src/per/adc.h ****     /** Which pin to use for multiplexing */
  26:../../libdaisy/src/per/adc.h ****     enum MuxPin
  27:../../libdaisy/src/per/adc.h ****     {
  28:../../libdaisy/src/per/adc.h ****         MUX_SEL_0,    /**< & */
  29:../../libdaisy/src/per/adc.h ****         MUX_SEL_1,    /**< & */
  30:../../libdaisy/src/per/adc.h ****         MUX_SEL_2,    /**< & */
  31:../../libdaisy/src/per/adc.h ****         MUX_SEL_LAST, /**< & */
  32:../../libdaisy/src/per/adc.h ****     };
  33:../../libdaisy/src/per/adc.h **** 
  34:../../libdaisy/src/per/adc.h ****     /** Initializes a single ADC pin as an ADC. 
  35:../../libdaisy/src/per/adc.h ****     \param pin Pin to init.
  36:../../libdaisy/src/per/adc.h ****      */
  37:../../libdaisy/src/per/adc.h ****     void InitSingle(dsy_gpio_pin pin);
  38:../../libdaisy/src/per/adc.h **** 
  39:../../libdaisy/src/per/adc.h ****     /** 
  40:../../libdaisy/src/per/adc.h ****     Initializes a single ADC pin as a Multiplexed ADC.
  41:../../libdaisy/src/per/adc.h ****     Requires a CD405X Multiplexer connected to the pin.
  42:../../libdaisy/src/per/adc.h ****     You only need to supply the mux pins that are required,
  43:../../libdaisy/src/per/adc.h ****     e.g. a 4052 mux would only require mux_0 and mux_1.
  44:../../libdaisy/src/per/adc.h ****     Internal Callbacks handle the pin addressing.
  45:../../libdaisy/src/per/adc.h ****     \param mux_channels must be 1-8
  46:../../libdaisy/src/per/adc.h ****     \param mux_0 First mux pin
  47:../../libdaisy/src/per/adc.h ****     \param mux_1 Second mux pin
  48:../../libdaisy/src/per/adc.h ****     \param mux_2 Third mux pin
ARM GAS  /tmp/ccslSSf6.s 			page 14


  49:../../libdaisy/src/per/adc.h ****     \param adc_pin &
  50:../../libdaisy/src/per/adc.h ****     */
  51:../../libdaisy/src/per/adc.h ****     void InitMux(dsy_gpio_pin adc_pin,
  52:../../libdaisy/src/per/adc.h ****                  size_t       mux_channels,
  53:../../libdaisy/src/per/adc.h ****                  dsy_gpio_pin mux_0,
  54:../../libdaisy/src/per/adc.h ****                  dsy_gpio_pin mux_1 = {DSY_GPIOX, 0},
  55:../../libdaisy/src/per/adc.h ****                  dsy_gpio_pin mux_2 = {DSY_GPIOX, 0});
  56:../../libdaisy/src/per/adc.h **** 
  57:../../libdaisy/src/per/adc.h ****     dsy_gpio pin_;                   /**< & */
  58:../../libdaisy/src/per/adc.h ****     dsy_gpio mux_pin_[MUX_SEL_LAST]; /**< & */
  59:../../libdaisy/src/per/adc.h ****     uint8_t  mux_channels_;          /**< & */
  60:../../libdaisy/src/per/adc.h **** };
  61:../../libdaisy/src/per/adc.h **** 
  62:../../libdaisy/src/per/adc.h **** /**
  63:../../libdaisy/src/per/adc.h ****    Handler for analog to digital conversion
  64:../../libdaisy/src/per/adc.h **** */
  65:../../libdaisy/src/per/adc.h **** class AdcHandle
  66:../../libdaisy/src/per/adc.h **** {
  67:../../libdaisy/src/per/adc.h ****   public:
  68:../../libdaisy/src/per/adc.h ****     /** Supported oversampling amounts */
  69:../../libdaisy/src/per/adc.h ****     enum OverSampling
  70:../../libdaisy/src/per/adc.h ****     {
  71:../../libdaisy/src/per/adc.h ****         OVS_NONE, /**< & */
  72:../../libdaisy/src/per/adc.h ****         OVS_4,    /**< & */
  73:../../libdaisy/src/per/adc.h ****         OVS_8,    /**< & */
  74:../../libdaisy/src/per/adc.h ****         OVS_16,   /**< & */
  75:../../libdaisy/src/per/adc.h ****         OVS_32,   /**< & */
  76:../../libdaisy/src/per/adc.h ****         OVS_64,   /**< & */
  77:../../libdaisy/src/per/adc.h ****         OVS_128,  /**< & */
  78:../../libdaisy/src/per/adc.h ****         OVS_256,  /**< & */
  79:../../libdaisy/src/per/adc.h ****         OVS_512,  /**< & */
  80:../../libdaisy/src/per/adc.h ****         OVS_1024, /**< & */
  81:../../libdaisy/src/per/adc.h ****         OVS_LAST, /**< & */
  82:../../libdaisy/src/per/adc.h ****     };
  83:../../libdaisy/src/per/adc.h **** 
  84:../../libdaisy/src/per/adc.h ****     AdcHandle() {}
  85:../../libdaisy/src/per/adc.h ****     ~AdcHandle() {}
  91              		.loc 10 85 5 is_stmt 1 view .LVU17
  92              		.loc 10 85 5 is_stmt 0 view .LVU18
  93              	.LBE408:
  94              	.LBB409:
  95              	.LBI409:
  96              		.file 11 "../../libdaisy/src/hid/audio.h"
   1:../../libdaisy/src/hid/audio.h **** #ifndef DSY_AUDIO_H
   2:../../libdaisy/src/hid/audio.h **** #define DSY_AUDIO_H /**< & */
   3:../../libdaisy/src/hid/audio.h **** 
   4:../../libdaisy/src/hid/audio.h **** #include "per/sai.h"
   5:../../libdaisy/src/hid/audio.h **** 
   6:../../libdaisy/src/hid/audio.h **** namespace daisy
   7:../../libdaisy/src/hid/audio.h **** {
   8:../../libdaisy/src/hid/audio.h **** class AudioHandle
   9:../../libdaisy/src/hid/audio.h **** {
  10:../../libdaisy/src/hid/audio.h ****   public:
  11:../../libdaisy/src/hid/audio.h ****     /** Manually configurable details about the Audio Engine */
  12:../../libdaisy/src/hid/audio.h ****     /** TODO: Figure out how to get samplerate in here. */
  13:../../libdaisy/src/hid/audio.h ****     struct Config
  14:../../libdaisy/src/hid/audio.h ****     {
ARM GAS  /tmp/ccslSSf6.s 			page 15


  15:../../libdaisy/src/hid/audio.h ****         size_t                        blocksize;
  16:../../libdaisy/src/hid/audio.h ****         SaiHandle::Config::SampleRate samplerate;
  17:../../libdaisy/src/hid/audio.h ****         float                         postgain;
  18:../../libdaisy/src/hid/audio.h ****     };
  19:../../libdaisy/src/hid/audio.h **** 
  20:../../libdaisy/src/hid/audio.h ****     enum class Result
  21:../../libdaisy/src/hid/audio.h ****     {
  22:../../libdaisy/src/hid/audio.h ****         OK,
  23:../../libdaisy/src/hid/audio.h ****         ERR,
  24:../../libdaisy/src/hid/audio.h ****     };
  25:../../libdaisy/src/hid/audio.h **** 
  26:../../libdaisy/src/hid/audio.h ****     /** Non-Interleaving input buffer
  27:../../libdaisy/src/hid/audio.h ****      * Buffer arranged by float[chn][sample] 
  28:../../libdaisy/src/hid/audio.h ****      * const so that the user can't modify the input
  29:../../libdaisy/src/hid/audio.h ****     */
  30:../../libdaisy/src/hid/audio.h ****     typedef const float* const* InputBuffer;
  31:../../libdaisy/src/hid/audio.h **** 
  32:../../libdaisy/src/hid/audio.h ****     /** Non-Interleaving output buffer
  33:../../libdaisy/src/hid/audio.h ****      * Arranged by float[chn][sample] 
  34:../../libdaisy/src/hid/audio.h ****     */
  35:../../libdaisy/src/hid/audio.h ****     typedef float** OutputBuffer;
  36:../../libdaisy/src/hid/audio.h **** 
  37:../../libdaisy/src/hid/audio.h ****     /** Type for a Non-Interleaving audio callback 
  38:../../libdaisy/src/hid/audio.h ****    * Non-Interleaving audio callbacks in daisy will be of this type
  39:../../libdaisy/src/hid/audio.h ****   */
  40:../../libdaisy/src/hid/audio.h ****     typedef void (*AudioCallback)(InputBuffer  in,
  41:../../libdaisy/src/hid/audio.h ****                                   OutputBuffer out,
  42:../../libdaisy/src/hid/audio.h ****                                   size_t       size);
  43:../../libdaisy/src/hid/audio.h **** 
  44:../../libdaisy/src/hid/audio.h ****     /** Interleaving Input buffer
  45:../../libdaisy/src/hid/audio.h ****      ** audio is prepared as { L0, R0, L1, R1, . . . LN, RN }]
  46:../../libdaisy/src/hid/audio.h ****      ** this is const, as the user shouldn't modify it
  47:../../libdaisy/src/hid/audio.h ****     */
  48:../../libdaisy/src/hid/audio.h ****     typedef const float* InterleavingInputBuffer;
  49:../../libdaisy/src/hid/audio.h **** 
  50:../../libdaisy/src/hid/audio.h ****     /** Interleaving Output buffer 
  51:../../libdaisy/src/hid/audio.h ****      ** audio is prepared as { L0, R0, L1, R1, . . . LN, RN }
  52:../../libdaisy/src/hid/audio.h ****     */
  53:../../libdaisy/src/hid/audio.h ****     typedef float* InterleavingOutputBuffer;
  54:../../libdaisy/src/hid/audio.h **** 
  55:../../libdaisy/src/hid/audio.h ****     /** Interleaving Audio Callback 
  56:../../libdaisy/src/hid/audio.h ****    * Interleaving audio callbacks in daisy must be of this type
  57:../../libdaisy/src/hid/audio.h ****   */
  58:../../libdaisy/src/hid/audio.h ****     typedef void (*InterleavingAudioCallback)(InterleavingInputBuffer  in,
  59:../../libdaisy/src/hid/audio.h ****                                               InterleavingOutputBuffer out,
  60:../../libdaisy/src/hid/audio.h ****                                               size_t                   size);
  61:../../libdaisy/src/hid/audio.h **** 
  62:../../libdaisy/src/hid/audio.h ****     AudioHandle() : pimpl_(nullptr) {}
  63:../../libdaisy/src/hid/audio.h ****     ~AudioHandle() {}
  97              		.loc 11 63 5 is_stmt 1 view .LVU19
  98              		.loc 11 63 5 is_stmt 0 view .LVU20
  99              	.LBE409:
 100              	.LBE405:
 101              		.loc 1 84 20 view .LVU21
 102 0000 7047     		bx	lr
 103              		.cfi_endproc
 104              	.LFE2063:
ARM GAS  /tmp/ccslSSf6.s 			page 16


 106              		.weak	_ZN5daisy10DaisyFieldD1Ev
 107              		.thumb_set _ZN5daisy10DaisyFieldD1Ev,_ZN5daisy10DaisyFieldD2Ev
 108 0002 00BF     		.section	.text._ZN7daisysp6PhaserD2Ev,"axG",%progbits,_ZN7daisysp6PhaserD5Ev,comdat
 109              		.align	1
 110              		.p2align 2,,3
 111              		.weak	_ZN7daisysp6PhaserD2Ev
 112              		.syntax unified
 113              		.thumb
 114              		.thumb_func
 115              		.fpu fpv5-d16
 117              	_ZN7daisysp6PhaserD2Ev:
 118              	.LVL1:
 119              	.LFB3915:
 120              		.file 12 "../../DaisySP/Source/Effects/phaser.h"
   1:../../DaisySP/Source/Effects/phaser.h **** #pragma once
   2:../../DaisySP/Source/Effects/phaser.h **** #ifndef DSY_PHASER_H
   3:../../DaisySP/Source/Effects/phaser.h **** #define DSY_PHASER_H
   4:../../DaisySP/Source/Effects/phaser.h **** #ifdef __cplusplus
   5:../../DaisySP/Source/Effects/phaser.h **** 
   6:../../DaisySP/Source/Effects/phaser.h **** #include <stdint.h>
   7:../../DaisySP/Source/Effects/phaser.h **** #include "Utility/delayline.h"
   8:../../DaisySP/Source/Effects/phaser.h **** 
   9:../../DaisySP/Source/Effects/phaser.h **** /** @file phaser.h */
  10:../../DaisySP/Source/Effects/phaser.h **** 
  11:../../DaisySP/Source/Effects/phaser.h **** namespace daisysp
  12:../../DaisySP/Source/Effects/phaser.h **** {
  13:../../DaisySP/Source/Effects/phaser.h **** /**  
  14:../../DaisySP/Source/Effects/phaser.h ****     @brief Single Phaser engine. Used in Phaser.
  15:../../DaisySP/Source/Effects/phaser.h ****     @author Ben Sergentanis
  16:../../DaisySP/Source/Effects/phaser.h **** */
  17:../../DaisySP/Source/Effects/phaser.h **** class PhaserEngine
  18:../../DaisySP/Source/Effects/phaser.h **** {
  19:../../DaisySP/Source/Effects/phaser.h ****   public:
  20:../../DaisySP/Source/Effects/phaser.h ****     PhaserEngine() {}
  21:../../DaisySP/Source/Effects/phaser.h ****     ~PhaserEngine() {}
  22:../../DaisySP/Source/Effects/phaser.h **** 
  23:../../DaisySP/Source/Effects/phaser.h ****     /** Initialize the module
  24:../../DaisySP/Source/Effects/phaser.h ****         \param sample_rate Audio engine sample rate.
  25:../../DaisySP/Source/Effects/phaser.h ****     */
  26:../../DaisySP/Source/Effects/phaser.h ****     void Init(float sample_rate);
  27:../../DaisySP/Source/Effects/phaser.h **** 
  28:../../DaisySP/Source/Effects/phaser.h ****     /** Get the next sample
  29:../../DaisySP/Source/Effects/phaser.h ****         \param in Sample to process
  30:../../DaisySP/Source/Effects/phaser.h ****     */
  31:../../DaisySP/Source/Effects/phaser.h ****     float Process(float in);
  32:../../DaisySP/Source/Effects/phaser.h **** 
  33:../../DaisySP/Source/Effects/phaser.h ****     /** How much to modulate the allpass filter by.
  34:../../DaisySP/Source/Effects/phaser.h ****         \param depth Works 0-1.
  35:../../DaisySP/Source/Effects/phaser.h ****     */
  36:../../DaisySP/Source/Effects/phaser.h ****     void SetLfoDepth(float depth);
  37:../../DaisySP/Source/Effects/phaser.h **** 
  38:../../DaisySP/Source/Effects/phaser.h ****     /** Set lfo frequency.
  39:../../DaisySP/Source/Effects/phaser.h ****         \param lfo_freq Frequency in Hz
  40:../../DaisySP/Source/Effects/phaser.h ****     */
  41:../../DaisySP/Source/Effects/phaser.h ****     void SetLfoFreq(float lfo_freq);
  42:../../DaisySP/Source/Effects/phaser.h **** 
  43:../../DaisySP/Source/Effects/phaser.h ****     /** Set the allpass frequency
ARM GAS  /tmp/ccslSSf6.s 			page 17


  44:../../DaisySP/Source/Effects/phaser.h ****         \param ap_freq Frequency in Hz.
  45:../../DaisySP/Source/Effects/phaser.h ****     */
  46:../../DaisySP/Source/Effects/phaser.h ****     void SetFreq(float ap_freq);
  47:../../DaisySP/Source/Effects/phaser.h **** 
  48:../../DaisySP/Source/Effects/phaser.h ****     /** Set the feedback amount.
  49:../../DaisySP/Source/Effects/phaser.h ****         \param feedback Amount from 0-1.
  50:../../DaisySP/Source/Effects/phaser.h ****     */
  51:../../DaisySP/Source/Effects/phaser.h ****     void SetFeedback(float feedback);
  52:../../DaisySP/Source/Effects/phaser.h **** 
  53:../../DaisySP/Source/Effects/phaser.h ****   private:
  54:../../DaisySP/Source/Effects/phaser.h ****     float                    sample_rate_;
  55:../../DaisySP/Source/Effects/phaser.h ****     static constexpr int32_t kDelayLength
  56:../../DaisySP/Source/Effects/phaser.h ****         = 2400; // 50 ms at 48kHz = .05 * 48000
  57:../../DaisySP/Source/Effects/phaser.h **** 
  58:../../DaisySP/Source/Effects/phaser.h ****     //triangle lfo
  59:../../DaisySP/Source/Effects/phaser.h ****     float lfo_phase_;
  60:../../DaisySP/Source/Effects/phaser.h ****     float lfo_freq_;
  61:../../DaisySP/Source/Effects/phaser.h ****     float lfo_amp_;
  62:../../DaisySP/Source/Effects/phaser.h **** 
  63:../../DaisySP/Source/Effects/phaser.h ****     float os_;
  64:../../DaisySP/Source/Effects/phaser.h **** 
  65:../../DaisySP/Source/Effects/phaser.h ****     float feedback_;
  66:../../DaisySP/Source/Effects/phaser.h ****     float ap_freq_;
  67:../../DaisySP/Source/Effects/phaser.h **** 
  68:../../DaisySP/Source/Effects/phaser.h ****     float deltime_;
  69:../../DaisySP/Source/Effects/phaser.h ****     float last_sample_;
  70:../../DaisySP/Source/Effects/phaser.h **** 
  71:../../DaisySP/Source/Effects/phaser.h ****     DelayLine<float, kDelayLength> del_;
  72:../../DaisySP/Source/Effects/phaser.h **** 
  73:../../DaisySP/Source/Effects/phaser.h ****     float ProcessLfo();
  74:../../DaisySP/Source/Effects/phaser.h **** };
  75:../../DaisySP/Source/Effects/phaser.h **** 
  76:../../DaisySP/Source/Effects/phaser.h **** //wraps up all of the phaser engines
  77:../../DaisySP/Source/Effects/phaser.h **** /**  
  78:../../DaisySP/Source/Effects/phaser.h ****     @brief Phaser Effect.
  79:../../DaisySP/Source/Effects/phaser.h ****     @author Ben Sergentanis
  80:../../DaisySP/Source/Effects/phaser.h ****     @date Jan 2021
  81:../../DaisySP/Source/Effects/phaser.h **** */
  82:../../DaisySP/Source/Effects/phaser.h **** class Phaser
  83:../../DaisySP/Source/Effects/phaser.h **** {
  84:../../DaisySP/Source/Effects/phaser.h ****   public:
  85:../../DaisySP/Source/Effects/phaser.h ****     Phaser() {}
  86:../../DaisySP/Source/Effects/phaser.h ****     ~Phaser() {}
 121              		.loc 12 86 5 is_stmt 1 view -0
 122              		.cfi_startproc
 123              		@ args = 0, pretend = 0, frame = 0
 124              		@ frame_needed = 0, uses_anonymous_args = 0
 125              		@ link register save eliminated.
 126              		.loc 12 86 16 is_stmt 0 view .LVU23
 127 0000 7047     		bx	lr
 128              		.cfi_endproc
 129              	.LFE3915:
 131              		.weak	_ZN7daisysp6PhaserD1Ev
 132              		.thumb_set _ZN7daisysp6PhaserD1Ev,_ZN7daisysp6PhaserD2Ev
 133 0002 00BF     		.section	.text._ZN5daisy11OledDisplayINS_13SSD130xDriverILj128ELj64ENS_24SSD130x4WireSpiTransportE
 134              		.align	1
 135              		.p2align 2,,3
ARM GAS  /tmp/ccslSSf6.s 			page 18


 136              		.weak	_ZN5daisy11OledDisplayINS_13SSD130xDriverILj128ELj64ENS_24SSD130x4WireSpiTransportEEEED2Ev
 137              		.syntax unified
 138              		.thumb
 139              		.thumb_func
 140              		.fpu fpv5-d16
 142              	_ZN5daisy11OledDisplayINS_13SSD130xDriverILj128ELj64ENS_24SSD130x4WireSpiTransportEEEED2Ev:
 143              	.LVL2:
 144              	.LFB4258:
 145              		.loc 5 17 13 is_stmt 1 view -0
 146              		.cfi_startproc
 147              		@ args = 0, pretend = 0, frame = 0
 148              		@ frame_needed = 0, uses_anonymous_args = 0
 149              		@ link register save eliminated.
 150              	.LBB410:
 151              	.LBI410:
 152              		.loc 6 219 13 view .LVU25
 153              	.LBB411:
 154              	.LBI411:
  23:../../libdaisy/src/hid/disp/display.h **** 
 155              		.loc 6 23 13 view .LVU26
  23:../../libdaisy/src/hid/disp/display.h **** 
 156              		.loc 6 23 13 is_stmt 0 view .LVU27
 157              	.LBE411:
 158              	.LBE410:
 159              		.loc 5 17 29 view .LVU28
 160 0000 7047     		bx	lr
 161              		.cfi_endproc
 162              	.LFE4258:
 164              		.weak	_ZN5daisy11OledDisplayINS_13SSD130xDriverILj128ELj64ENS_24SSD130x4WireSpiTransportEEEED1Ev
 165              		.thumb_set _ZN5daisy11OledDisplayINS_13SSD130xDriverILj128ELj64ENS_24SSD130x4WireSpiTransportEEEED
 166 0002 00BF     		.section	.text._ZN5daisy11OledDisplayINS_13SSD130xDriverILj128ELj64ENS_24SSD130x4WireSpiTransportE
 167              		.align	1
 168              		.p2align 2,,3
 169              		.weak	_ZN5daisy11OledDisplayINS_13SSD130xDriverILj128ELj64ENS_24SSD130x4WireSpiTransportEEEE4FillE
 170              		.syntax unified
 171              		.thumb
 172              		.thumb_func
 173              		.fpu fpv5-d16
 175              	_ZN5daisy11OledDisplayINS_13SSD130xDriverILj128ELj64ENS_24SSD130x4WireSpiTransportEEEE4FillEb:
 176              	.LVL3:
 177              	.LFB4562:
  18:../../libdaisy/src/hid/disp/oled_display.h **** 
  19:../../libdaisy/src/hid/disp/oled_display.h ****     struct Config
  20:../../libdaisy/src/hid/disp/oled_display.h ****     {
  21:../../libdaisy/src/hid/disp/oled_display.h ****         typename DisplayDriver::Config driver_config;
  22:../../libdaisy/src/hid/disp/oled_display.h ****     };
  23:../../libdaisy/src/hid/disp/oled_display.h **** 
  24:../../libdaisy/src/hid/disp/oled_display.h ****     void Init(Config config) { driver_.Init(config.driver_config); }
  25:../../libdaisy/src/hid/disp/oled_display.h **** 
  26:../../libdaisy/src/hid/disp/oled_display.h ****     uint16_t Height() const override { return driver_.Height(); }
  27:../../libdaisy/src/hid/disp/oled_display.h ****     uint16_t Width() const override { return driver_.Width(); }
  28:../../libdaisy/src/hid/disp/oled_display.h **** 
  29:../../libdaisy/src/hid/disp/oled_display.h ****     /** 
  30:../../libdaisy/src/hid/disp/oled_display.h ****     Fills the entire display with either on/off.
  31:../../libdaisy/src/hid/disp/oled_display.h ****     \param on Sets on or off.
  32:../../libdaisy/src/hid/disp/oled_display.h ****     */
  33:../../libdaisy/src/hid/disp/oled_display.h ****     void Fill(bool on) override { driver_.Fill(on); }
ARM GAS  /tmp/ccslSSf6.s 			page 19


 178              		.loc 5 33 10 is_stmt 1 view -0
 179              		.cfi_startproc
 180              		@ args = 0, pretend = 0, frame = 0
 181              		@ frame_needed = 0, uses_anonymous_args = 0
 182              		@ link register save eliminated.
 183              	.LBB412:
 184              	.LBI412:
 185              		.file 13 "../../libdaisy/src/dev/oled_ssd130x.h"
   1:../../libdaisy/src/dev/oled_ssd130x.h **** #pragma once
   2:../../libdaisy/src/dev/oled_ssd130x.h **** #ifndef SA_OLED_SSD130X_H
   3:../../libdaisy/src/dev/oled_ssd130x.h **** #define SA_OLED_SSD130X_H /**< & */
   4:../../libdaisy/src/dev/oled_ssd130x.h **** 
   5:../../libdaisy/src/dev/oled_ssd130x.h **** #include "per/i2c.h"
   6:../../libdaisy/src/dev/oled_ssd130x.h **** #include "per/spi.h"
   7:../../libdaisy/src/dev/oled_ssd130x.h **** #include "per/gpio.h"
   8:../../libdaisy/src/dev/oled_ssd130x.h **** #include "sys/system.h"
   9:../../libdaisy/src/dev/oled_ssd130x.h **** 
  10:../../libdaisy/src/dev/oled_ssd130x.h **** namespace daisy
  11:../../libdaisy/src/dev/oled_ssd130x.h **** {
  12:../../libdaisy/src/dev/oled_ssd130x.h **** /**
  13:../../libdaisy/src/dev/oled_ssd130x.h ****  * I2C Transport for SSD1306 / SSD1309 OLED display devices
  14:../../libdaisy/src/dev/oled_ssd130x.h ****  */
  15:../../libdaisy/src/dev/oled_ssd130x.h **** class SSD130xI2CTransport
  16:../../libdaisy/src/dev/oled_ssd130x.h **** {
  17:../../libdaisy/src/dev/oled_ssd130x.h ****   public:
  18:../../libdaisy/src/dev/oled_ssd130x.h ****     struct Config
  19:../../libdaisy/src/dev/oled_ssd130x.h ****     {
  20:../../libdaisy/src/dev/oled_ssd130x.h ****         I2CHandle::Config i2c_config;
  21:../../libdaisy/src/dev/oled_ssd130x.h ****         uint8_t           i2c_address;
  22:../../libdaisy/src/dev/oled_ssd130x.h ****         void              Defaults()
  23:../../libdaisy/src/dev/oled_ssd130x.h ****         {
  24:../../libdaisy/src/dev/oled_ssd130x.h ****             i2c_config.periph         = I2CHandle::Config::Peripheral::I2C_1;
  25:../../libdaisy/src/dev/oled_ssd130x.h ****             i2c_config.speed          = I2CHandle::Config::Speed::I2C_1MHZ;
  26:../../libdaisy/src/dev/oled_ssd130x.h ****             i2c_config.mode           = I2CHandle::Config::Mode::I2C_MASTER;
  27:../../libdaisy/src/dev/oled_ssd130x.h ****             i2c_config.pin_config.scl = {DSY_GPIOB, 8};
  28:../../libdaisy/src/dev/oled_ssd130x.h ****             i2c_config.pin_config.sda = {DSY_GPIOB, 9};
  29:../../libdaisy/src/dev/oled_ssd130x.h ****             i2c_address               = 0x3C;
  30:../../libdaisy/src/dev/oled_ssd130x.h ****         }
  31:../../libdaisy/src/dev/oled_ssd130x.h ****     };
  32:../../libdaisy/src/dev/oled_ssd130x.h ****     void Init(const Config& config)
  33:../../libdaisy/src/dev/oled_ssd130x.h ****     {
  34:../../libdaisy/src/dev/oled_ssd130x.h ****         i2c_address_ = config.i2c_address;
  35:../../libdaisy/src/dev/oled_ssd130x.h ****         i2c_.Init(config.i2c_config);
  36:../../libdaisy/src/dev/oled_ssd130x.h ****     };
  37:../../libdaisy/src/dev/oled_ssd130x.h ****     void SendCommand(uint8_t cmd)
  38:../../libdaisy/src/dev/oled_ssd130x.h ****     {
  39:../../libdaisy/src/dev/oled_ssd130x.h ****         uint8_t buf[2] = {0X00, cmd};
  40:../../libdaisy/src/dev/oled_ssd130x.h ****         i2c_.TransmitBlocking(i2c_address_, buf, 2, 1000);
  41:../../libdaisy/src/dev/oled_ssd130x.h ****     };
  42:../../libdaisy/src/dev/oled_ssd130x.h **** 
  43:../../libdaisy/src/dev/oled_ssd130x.h ****     void SendData(uint8_t* buff, size_t size)
  44:../../libdaisy/src/dev/oled_ssd130x.h ****     {
  45:../../libdaisy/src/dev/oled_ssd130x.h ****         for(size_t i = 0; i < size; i++)
  46:../../libdaisy/src/dev/oled_ssd130x.h ****         {
  47:../../libdaisy/src/dev/oled_ssd130x.h ****             uint8_t buf[2] = {0X40, buff[i]};
  48:../../libdaisy/src/dev/oled_ssd130x.h ****             i2c_.TransmitBlocking(i2c_address_, buf, 2, 1000);
  49:../../libdaisy/src/dev/oled_ssd130x.h ****         }
ARM GAS  /tmp/ccslSSf6.s 			page 20


  50:../../libdaisy/src/dev/oled_ssd130x.h ****     };
  51:../../libdaisy/src/dev/oled_ssd130x.h **** 
  52:../../libdaisy/src/dev/oled_ssd130x.h ****   private:
  53:../../libdaisy/src/dev/oled_ssd130x.h ****     daisy::I2CHandle i2c_;
  54:../../libdaisy/src/dev/oled_ssd130x.h ****     uint8_t          i2c_address_;
  55:../../libdaisy/src/dev/oled_ssd130x.h **** };
  56:../../libdaisy/src/dev/oled_ssd130x.h **** 
  57:../../libdaisy/src/dev/oled_ssd130x.h **** /**
  58:../../libdaisy/src/dev/oled_ssd130x.h ****  * 4 Wire SPI Transport for SSD1306 / SSD1309 OLED display devices
  59:../../libdaisy/src/dev/oled_ssd130x.h ****  */
  60:../../libdaisy/src/dev/oled_ssd130x.h **** class SSD130x4WireSpiTransport
  61:../../libdaisy/src/dev/oled_ssd130x.h **** {
  62:../../libdaisy/src/dev/oled_ssd130x.h ****   public:
  63:../../libdaisy/src/dev/oled_ssd130x.h ****     struct Config
  64:../../libdaisy/src/dev/oled_ssd130x.h ****     {
  65:../../libdaisy/src/dev/oled_ssd130x.h ****         struct
  66:../../libdaisy/src/dev/oled_ssd130x.h ****         {
  67:../../libdaisy/src/dev/oled_ssd130x.h ****             dsy_gpio_pin dc;    /**< & */
  68:../../libdaisy/src/dev/oled_ssd130x.h ****             dsy_gpio_pin reset; /**< & */
  69:../../libdaisy/src/dev/oled_ssd130x.h ****         } pin_config;
  70:../../libdaisy/src/dev/oled_ssd130x.h ****         void Defaults()
  71:../../libdaisy/src/dev/oled_ssd130x.h ****         {
  72:../../libdaisy/src/dev/oled_ssd130x.h ****             pin_config.dc    = {DSY_GPIOB, 4};
  73:../../libdaisy/src/dev/oled_ssd130x.h ****             pin_config.reset = {DSY_GPIOB, 15};
  74:../../libdaisy/src/dev/oled_ssd130x.h ****         }
  75:../../libdaisy/src/dev/oled_ssd130x.h ****     };
  76:../../libdaisy/src/dev/oled_ssd130x.h ****     void Init(const Config& config)
  77:../../libdaisy/src/dev/oled_ssd130x.h ****     {
  78:../../libdaisy/src/dev/oled_ssd130x.h ****         // Initialize both GPIO
  79:../../libdaisy/src/dev/oled_ssd130x.h ****         pin_dc_.mode = DSY_GPIO_MODE_OUTPUT_PP;
  80:../../libdaisy/src/dev/oled_ssd130x.h ****         pin_dc_.pin  = config.pin_config.dc;
  81:../../libdaisy/src/dev/oled_ssd130x.h ****         dsy_gpio_init(&pin_dc_);
  82:../../libdaisy/src/dev/oled_ssd130x.h ****         pin_reset_.mode = DSY_GPIO_MODE_OUTPUT_PP;
  83:../../libdaisy/src/dev/oled_ssd130x.h ****         pin_reset_.pin  = config.pin_config.reset;
  84:../../libdaisy/src/dev/oled_ssd130x.h ****         dsy_gpio_init(&pin_reset_);
  85:../../libdaisy/src/dev/oled_ssd130x.h ****         // Initialize SPI
  86:../../libdaisy/src/dev/oled_ssd130x.h ****         SpiHandle::Config spi_config;
  87:../../libdaisy/src/dev/oled_ssd130x.h ****         spi_config.periph    = SpiHandle::Config::Peripheral::SPI_1;
  88:../../libdaisy/src/dev/oled_ssd130x.h ****         spi_config.mode      = SpiHandle::Config::Mode::MASTER;
  89:../../libdaisy/src/dev/oled_ssd130x.h ****         spi_config.direction = SpiHandle::Config::Direction::TWO_LINES_TX_ONLY;
  90:../../libdaisy/src/dev/oled_ssd130x.h ****         spi_config.datasize  = 8;
  91:../../libdaisy/src/dev/oled_ssd130x.h ****         spi_config.clock_polarity = SpiHandle::Config::ClockPolarity::LOW;
  92:../../libdaisy/src/dev/oled_ssd130x.h ****         spi_config.clock_phase    = SpiHandle::Config::ClockPhase::ONE_EDGE;
  93:../../libdaisy/src/dev/oled_ssd130x.h ****         spi_config.nss            = SpiHandle::Config::NSS::HARD_OUTPUT;
  94:../../libdaisy/src/dev/oled_ssd130x.h ****         spi_config.baud_prescaler = SpiHandle::Config::BaudPrescaler::PS_8;
  95:../../libdaisy/src/dev/oled_ssd130x.h **** 
  96:../../libdaisy/src/dev/oled_ssd130x.h ****         spi_config.pin_config.sclk = {DSY_GPIOG, 11};
  97:../../libdaisy/src/dev/oled_ssd130x.h ****         spi_config.pin_config.miso = {DSY_GPIOX, 0};
  98:../../libdaisy/src/dev/oled_ssd130x.h ****         spi_config.pin_config.mosi = {DSY_GPIOB, 5};
  99:../../libdaisy/src/dev/oled_ssd130x.h ****         spi_config.pin_config.nss  = {DSY_GPIOG, 10};
 100:../../libdaisy/src/dev/oled_ssd130x.h **** 
 101:../../libdaisy/src/dev/oled_ssd130x.h ****         spi_.Init(spi_config);
 102:../../libdaisy/src/dev/oled_ssd130x.h **** 
 103:../../libdaisy/src/dev/oled_ssd130x.h ****         // Reset and Configure OLED.
 104:../../libdaisy/src/dev/oled_ssd130x.h ****         dsy_gpio_write(&pin_reset_, 0);
 105:../../libdaisy/src/dev/oled_ssd130x.h ****         System::Delay(10);
 106:../../libdaisy/src/dev/oled_ssd130x.h ****         dsy_gpio_write(&pin_reset_, 1);
ARM GAS  /tmp/ccslSSf6.s 			page 21


 107:../../libdaisy/src/dev/oled_ssd130x.h ****         System::Delay(10);
 108:../../libdaisy/src/dev/oled_ssd130x.h ****     };
 109:../../libdaisy/src/dev/oled_ssd130x.h ****     void SendCommand(uint8_t cmd)
 110:../../libdaisy/src/dev/oled_ssd130x.h ****     {
 111:../../libdaisy/src/dev/oled_ssd130x.h ****         dsy_gpio_write(&pin_dc_, 0);
 112:../../libdaisy/src/dev/oled_ssd130x.h ****         spi_.BlockingTransmit(&cmd, 1);
 113:../../libdaisy/src/dev/oled_ssd130x.h ****     };
 114:../../libdaisy/src/dev/oled_ssd130x.h **** 
 115:../../libdaisy/src/dev/oled_ssd130x.h ****     void SendData(uint8_t* buff, size_t size)
 116:../../libdaisy/src/dev/oled_ssd130x.h ****     {
 117:../../libdaisy/src/dev/oled_ssd130x.h ****         dsy_gpio_write(&pin_dc_, 1);
 118:../../libdaisy/src/dev/oled_ssd130x.h ****         spi_.BlockingTransmit(buff, size);
 119:../../libdaisy/src/dev/oled_ssd130x.h ****     };
 120:../../libdaisy/src/dev/oled_ssd130x.h **** 
 121:../../libdaisy/src/dev/oled_ssd130x.h ****   private:
 122:../../libdaisy/src/dev/oled_ssd130x.h ****     SpiHandle spi_;
 123:../../libdaisy/src/dev/oled_ssd130x.h ****     dsy_gpio  pin_reset_;
 124:../../libdaisy/src/dev/oled_ssd130x.h ****     dsy_gpio  pin_dc_;
 125:../../libdaisy/src/dev/oled_ssd130x.h **** };
 126:../../libdaisy/src/dev/oled_ssd130x.h **** 
 127:../../libdaisy/src/dev/oled_ssd130x.h **** 
 128:../../libdaisy/src/dev/oled_ssd130x.h **** /**
 129:../../libdaisy/src/dev/oled_ssd130x.h ****  * A driver implementation for the SSD1306/SSD1309
 130:../../libdaisy/src/dev/oled_ssd130x.h ****  */
 131:../../libdaisy/src/dev/oled_ssd130x.h **** template <size_t width, size_t height, typename Transport>
 132:../../libdaisy/src/dev/oled_ssd130x.h **** class SSD130xDriver
 133:../../libdaisy/src/dev/oled_ssd130x.h **** {
 134:../../libdaisy/src/dev/oled_ssd130x.h ****   public:
 135:../../libdaisy/src/dev/oled_ssd130x.h ****     struct Config
 136:../../libdaisy/src/dev/oled_ssd130x.h ****     {
 137:../../libdaisy/src/dev/oled_ssd130x.h ****         typename Transport::Config transport_config;
 138:../../libdaisy/src/dev/oled_ssd130x.h ****     };
 139:../../libdaisy/src/dev/oled_ssd130x.h **** 
 140:../../libdaisy/src/dev/oled_ssd130x.h ****     void Init(Config config)
 141:../../libdaisy/src/dev/oled_ssd130x.h ****     {
 142:../../libdaisy/src/dev/oled_ssd130x.h ****         transport_.Init(config.transport_config);
 143:../../libdaisy/src/dev/oled_ssd130x.h **** 
 144:../../libdaisy/src/dev/oled_ssd130x.h ****         // Init routine...
 145:../../libdaisy/src/dev/oled_ssd130x.h **** 
 146:../../libdaisy/src/dev/oled_ssd130x.h ****         // Display Off
 147:../../libdaisy/src/dev/oled_ssd130x.h ****         transport_.SendCommand(0xaE);
 148:../../libdaisy/src/dev/oled_ssd130x.h ****         // Dimension dependent commands...
 149:../../libdaisy/src/dev/oled_ssd130x.h ****         switch(height)
 150:../../libdaisy/src/dev/oled_ssd130x.h ****         {
 151:../../libdaisy/src/dev/oled_ssd130x.h ****             case 16:
 152:../../libdaisy/src/dev/oled_ssd130x.h ****                 // Display Clock Divide Ratio
 153:../../libdaisy/src/dev/oled_ssd130x.h ****                 transport_.SendCommand(0xD5);
 154:../../libdaisy/src/dev/oled_ssd130x.h ****                 transport_.SendCommand(0x60);
 155:../../libdaisy/src/dev/oled_ssd130x.h ****                 // Multiplex Ratio
 156:../../libdaisy/src/dev/oled_ssd130x.h ****                 transport_.SendCommand(0xA8);
 157:../../libdaisy/src/dev/oled_ssd130x.h ****                 transport_.SendCommand(0x0F);
 158:../../libdaisy/src/dev/oled_ssd130x.h ****                 // COM Pins
 159:../../libdaisy/src/dev/oled_ssd130x.h ****                 transport_.SendCommand(0xDA);
 160:../../libdaisy/src/dev/oled_ssd130x.h ****                 transport_.SendCommand(0x02);
 161:../../libdaisy/src/dev/oled_ssd130x.h ****                 break;
 162:../../libdaisy/src/dev/oled_ssd130x.h ****             case 32:
 163:../../libdaisy/src/dev/oled_ssd130x.h ****                 // Display Clock Divide Ratio
ARM GAS  /tmp/ccslSSf6.s 			page 22


 164:../../libdaisy/src/dev/oled_ssd130x.h ****                 transport_.SendCommand(0xD5);
 165:../../libdaisy/src/dev/oled_ssd130x.h ****                 transport_.SendCommand(0x80);
 166:../../libdaisy/src/dev/oled_ssd130x.h ****                 // Multiplex Ratio
 167:../../libdaisy/src/dev/oled_ssd130x.h ****                 transport_.SendCommand(0xA8);
 168:../../libdaisy/src/dev/oled_ssd130x.h ****                 transport_.SendCommand(0x1F);
 169:../../libdaisy/src/dev/oled_ssd130x.h ****                 // COM Pins
 170:../../libdaisy/src/dev/oled_ssd130x.h ****                 transport_.SendCommand(0xDA);
 171:../../libdaisy/src/dev/oled_ssd130x.h ****                 if(width == 64)
 172:../../libdaisy/src/dev/oled_ssd130x.h ****                 {
 173:../../libdaisy/src/dev/oled_ssd130x.h ****                     transport_.SendCommand(0x12);
 174:../../libdaisy/src/dev/oled_ssd130x.h ****                 }
 175:../../libdaisy/src/dev/oled_ssd130x.h ****                 else
 176:../../libdaisy/src/dev/oled_ssd130x.h ****                 {
 177:../../libdaisy/src/dev/oled_ssd130x.h ****                     transport_.SendCommand(0x02);
 178:../../libdaisy/src/dev/oled_ssd130x.h ****                 }
 179:../../libdaisy/src/dev/oled_ssd130x.h **** 
 180:../../libdaisy/src/dev/oled_ssd130x.h ****                 break;
 181:../../libdaisy/src/dev/oled_ssd130x.h ****             case 48:
 182:../../libdaisy/src/dev/oled_ssd130x.h ****                 // Display Clock Divide Ratio
 183:../../libdaisy/src/dev/oled_ssd130x.h ****                 transport_.SendCommand(0xD5);
 184:../../libdaisy/src/dev/oled_ssd130x.h ****                 transport_.SendCommand(0x80);
 185:../../libdaisy/src/dev/oled_ssd130x.h ****                 // Multiplex Ratio
 186:../../libdaisy/src/dev/oled_ssd130x.h ****                 transport_.SendCommand(0xA8);
 187:../../libdaisy/src/dev/oled_ssd130x.h ****                 transport_.SendCommand(0x2F);
 188:../../libdaisy/src/dev/oled_ssd130x.h ****                 // COM Pins
 189:../../libdaisy/src/dev/oled_ssd130x.h ****                 transport_.SendCommand(0xDA);
 190:../../libdaisy/src/dev/oled_ssd130x.h ****                 transport_.SendCommand(0x12);
 191:../../libdaisy/src/dev/oled_ssd130x.h ****                 break;
 192:../../libdaisy/src/dev/oled_ssd130x.h ****             default: // 128
 193:../../libdaisy/src/dev/oled_ssd130x.h ****                 // Display Clock Divide Ratio
 194:../../libdaisy/src/dev/oled_ssd130x.h ****                 transport_.SendCommand(0xD5);
 195:../../libdaisy/src/dev/oled_ssd130x.h ****                 transport_.SendCommand(0x80);
 196:../../libdaisy/src/dev/oled_ssd130x.h ****                 // Multiplex Ratio
 197:../../libdaisy/src/dev/oled_ssd130x.h ****                 transport_.SendCommand(0xA8);
 198:../../libdaisy/src/dev/oled_ssd130x.h ****                 transport_.SendCommand(0x3F);
 199:../../libdaisy/src/dev/oled_ssd130x.h ****                 // COM Pins
 200:../../libdaisy/src/dev/oled_ssd130x.h ****                 transport_.SendCommand(0xDA);
 201:../../libdaisy/src/dev/oled_ssd130x.h ****                 transport_.SendCommand(0x12);
 202:../../libdaisy/src/dev/oled_ssd130x.h ****                 break;
 203:../../libdaisy/src/dev/oled_ssd130x.h ****         }
 204:../../libdaisy/src/dev/oled_ssd130x.h **** 
 205:../../libdaisy/src/dev/oled_ssd130x.h ****         // Display Offset
 206:../../libdaisy/src/dev/oled_ssd130x.h ****         transport_.SendCommand(0xD3);
 207:../../libdaisy/src/dev/oled_ssd130x.h ****         transport_.SendCommand(0x00);
 208:../../libdaisy/src/dev/oled_ssd130x.h ****         // Start Line Address
 209:../../libdaisy/src/dev/oled_ssd130x.h ****         transport_.SendCommand(0x40);
 210:../../libdaisy/src/dev/oled_ssd130x.h ****         // Normal Display
 211:../../libdaisy/src/dev/oled_ssd130x.h ****         transport_.SendCommand(0xA6);
 212:../../libdaisy/src/dev/oled_ssd130x.h ****         // All On Resume
 213:../../libdaisy/src/dev/oled_ssd130x.h ****         transport_.SendCommand(0xA4);
 214:../../libdaisy/src/dev/oled_ssd130x.h ****         // Charge Pump
 215:../../libdaisy/src/dev/oled_ssd130x.h ****         transport_.SendCommand(0x8D);
 216:../../libdaisy/src/dev/oled_ssd130x.h ****         transport_.SendCommand(0x14);
 217:../../libdaisy/src/dev/oled_ssd130x.h ****         // Set Segment Remap
 218:../../libdaisy/src/dev/oled_ssd130x.h ****         transport_.SendCommand(0xA1);
 219:../../libdaisy/src/dev/oled_ssd130x.h ****         // COM Output Scan Direction
 220:../../libdaisy/src/dev/oled_ssd130x.h ****         transport_.SendCommand(0xC8);
ARM GAS  /tmp/ccslSSf6.s 			page 23


 221:../../libdaisy/src/dev/oled_ssd130x.h ****         // Contrast Control
 222:../../libdaisy/src/dev/oled_ssd130x.h ****         transport_.SendCommand(0x81);
 223:../../libdaisy/src/dev/oled_ssd130x.h ****         transport_.SendCommand(0x8F);
 224:../../libdaisy/src/dev/oled_ssd130x.h ****         // Pre Charge
 225:../../libdaisy/src/dev/oled_ssd130x.h ****         transport_.SendCommand(0xD9);
 226:../../libdaisy/src/dev/oled_ssd130x.h ****         transport_.SendCommand(0x25);
 227:../../libdaisy/src/dev/oled_ssd130x.h ****         // VCOM Detect
 228:../../libdaisy/src/dev/oled_ssd130x.h ****         transport_.SendCommand(0xDB);
 229:../../libdaisy/src/dev/oled_ssd130x.h ****         transport_.SendCommand(0x34);
 230:../../libdaisy/src/dev/oled_ssd130x.h **** 
 231:../../libdaisy/src/dev/oled_ssd130x.h **** 
 232:../../libdaisy/src/dev/oled_ssd130x.h ****         // Display On
 233:../../libdaisy/src/dev/oled_ssd130x.h ****         transport_.SendCommand(0xAF); //--turn on oled panel
 234:../../libdaisy/src/dev/oled_ssd130x.h ****     };
 235:../../libdaisy/src/dev/oled_ssd130x.h **** 
 236:../../libdaisy/src/dev/oled_ssd130x.h ****     size_t Width() const { return width; };
 237:../../libdaisy/src/dev/oled_ssd130x.h ****     size_t Height() const { return height; };
 238:../../libdaisy/src/dev/oled_ssd130x.h **** 
 239:../../libdaisy/src/dev/oled_ssd130x.h ****     void DrawPixel(uint_fast8_t x, uint_fast8_t y, bool on)
 240:../../libdaisy/src/dev/oled_ssd130x.h ****     {
 241:../../libdaisy/src/dev/oled_ssd130x.h ****         if(x >= width || y >= height)
 242:../../libdaisy/src/dev/oled_ssd130x.h ****             return;
 243:../../libdaisy/src/dev/oled_ssd130x.h ****         if(on)
 244:../../libdaisy/src/dev/oled_ssd130x.h ****             buffer_[x + (y / 8) * width] |= (1 << (y % 8));
 245:../../libdaisy/src/dev/oled_ssd130x.h ****         else
 246:../../libdaisy/src/dev/oled_ssd130x.h ****             buffer_[x + (y / 8) * width] &= ~(1 << (y % 8));
 247:../../libdaisy/src/dev/oled_ssd130x.h ****     }
 248:../../libdaisy/src/dev/oled_ssd130x.h **** 
 249:../../libdaisy/src/dev/oled_ssd130x.h ****     void Fill(bool on)
 186              		.loc 13 249 10 view .LVU30
 187              	.LBB413:
 250:../../libdaisy/src/dev/oled_ssd130x.h ****     {
 251:../../libdaisy/src/dev/oled_ssd130x.h ****         for(size_t i = 0; i < sizeof(buffer_); i++)
 188              		.loc 13 251 29 view .LVU31
 189 0000 4942     		rsbs	r1, r1, #0
 190              	.LVL4:
 191              		.loc 13 251 29 is_stmt 0 view .LVU32
 192 0002 00F11303 		add	r3, r0, #19
 193 0006 00F21342 		addw	r2, r0, #1043
 194 000a C9B2     		uxtb	r1, r1
 195              	.LVL5:
 196              	.L6:
 252:../../libdaisy/src/dev/oled_ssd130x.h ****         {
 253:../../libdaisy/src/dev/oled_ssd130x.h ****             buffer_[i] = on ? 0xff : 0x00;
 197              		.loc 13 253 13 view .LVU33
 198 000c 03F8011F 		strb	r1, [r3, #1]!
 199              	.LVL6:
 251:../../libdaisy/src/dev/oled_ssd130x.h ****         {
 200              		.loc 13 251 9 is_stmt 1 view .LVU34
 251:../../libdaisy/src/dev/oled_ssd130x.h ****         {
 201              		.loc 13 251 29 view .LVU35
 202 0010 9342     		cmp	r3, r2
 203 0012 FBD1     		bne	.L6
 204              	.LBE413:
 205              	.LBE412:
 206              		.loc 5 33 53 is_stmt 0 view .LVU36
 207 0014 7047     		bx	lr
ARM GAS  /tmp/ccslSSf6.s 			page 24


 208              		.cfi_endproc
 209              	.LFE4562:
 211 0016 00BF     		.section	.text._ZNK5daisy11OledDisplayINS_13SSD130xDriverILj128ELj64ENS_24SSD130x4WireSpiTransport
 212              		.align	1
 213              		.p2align 2,,3
 214              		.weak	_ZNK5daisy11OledDisplayINS_13SSD130xDriverILj128ELj64ENS_24SSD130x4WireSpiTransportEEEE6Heig
 215              		.syntax unified
 216              		.thumb
 217              		.thumb_func
 218              		.fpu fpv5-d16
 220              	_ZNK5daisy11OledDisplayINS_13SSD130xDriverILj128ELj64ENS_24SSD130x4WireSpiTransportEEEE6HeightEv:
 221              	.LVL7:
 222              	.LFB4830:
  26:../../libdaisy/src/hid/disp/oled_display.h ****     uint16_t Width() const override { return driver_.Width(); }
 223              		.loc 5 26 14 is_stmt 1 view -0
 224              		.cfi_startproc
 225              		@ args = 0, pretend = 0, frame = 0
 226              		@ frame_needed = 0, uses_anonymous_args = 0
 227              		@ link register save eliminated.
  26:../../libdaisy/src/hid/disp/oled_display.h ****     uint16_t Width() const override { return driver_.Width(); }
 228              		.loc 5 26 65 is_stmt 0 view .LVU38
 229 0000 4020     		movs	r0, #64
 230              	.LVL8:
  26:../../libdaisy/src/hid/disp/oled_display.h ****     uint16_t Width() const override { return driver_.Width(); }
 231              		.loc 5 26 65 view .LVU39
 232 0002 7047     		bx	lr
 233              		.cfi_endproc
 234              	.LFE4830:
 236              		.section	.text._ZNK5daisy11OledDisplayINS_13SSD130xDriverILj128ELj64ENS_24SSD130x4WireSpiTransport
 237              		.align	1
 238              		.p2align 2,,3
 239              		.weak	_ZNK5daisy11OledDisplayINS_13SSD130xDriverILj128ELj64ENS_24SSD130x4WireSpiTransportEEEE5Widt
 240              		.syntax unified
 241              		.thumb
 242              		.thumb_func
 243              		.fpu fpv5-d16
 245              	_ZNK5daisy11OledDisplayINS_13SSD130xDriverILj128ELj64ENS_24SSD130x4WireSpiTransportEEEE5WidthEv:
 246              	.LVL9:
 247              	.LFB4831:
  27:../../libdaisy/src/hid/disp/oled_display.h **** 
 248              		.loc 5 27 14 is_stmt 1 view -0
 249              		.cfi_startproc
 250              		@ args = 0, pretend = 0, frame = 0
 251              		@ frame_needed = 0, uses_anonymous_args = 0
 252              		@ link register save eliminated.
  27:../../libdaisy/src/hid/disp/oled_display.h **** 
 253              		.loc 5 27 63 is_stmt 0 view .LVU41
 254 0000 8020     		movs	r0, #128
 255              	.LVL10:
  27:../../libdaisy/src/hid/disp/oled_display.h **** 
 256              		.loc 5 27 63 view .LVU42
 257 0002 7047     		bx	lr
 258              		.cfi_endproc
 259              	.LFE4831:
 261              		.section	.text._ZN5daisy11OledDisplayINS_13SSD130xDriverILj128ELj64ENS_24SSD130x4WireSpiTransportE
 262              		.align	1
 263              		.p2align 2,,3
ARM GAS  /tmp/ccslSSf6.s 			page 25


 264              		.weak	_ZN5daisy11OledDisplayINS_13SSD130xDriverILj128ELj64ENS_24SSD130x4WireSpiTransportEEEED0Ev
 265              		.syntax unified
 266              		.thumb
 267              		.thumb_func
 268              		.fpu fpv5-d16
 270              	_ZN5daisy11OledDisplayINS_13SSD130xDriverILj128ELj64ENS_24SSD130x4WireSpiTransportEEEED0Ev:
 271              	.LVL11:
 272              	.LFB4260:
  17:../../libdaisy/src/hid/disp/oled_display.h **** 
 273              		.loc 5 17 13 is_stmt 1 view -0
 274              		.cfi_startproc
 275              		@ args = 0, pretend = 0, frame = 0
 276              		@ frame_needed = 0, uses_anonymous_args = 0
  17:../../libdaisy/src/hid/disp/oled_display.h **** 
 277              		.loc 5 17 13 is_stmt 0 view .LVU44
 278 0000 10B5     		push	{r4, lr}
 279              		.cfi_def_cfa_offset 8
 280              		.cfi_offset 4, -8
 281              		.cfi_offset 14, -4
  17:../../libdaisy/src/hid/disp/oled_display.h **** 
 282              		.loc 5 17 13 view .LVU45
 283 0002 0446     		mov	r4, r0
 284              	.LVL12:
 285              	.LBB414:
 286              	.LBI414:
  17:../../libdaisy/src/hid/disp/oled_display.h **** 
 287              		.loc 5 17 13 is_stmt 1 view .LVU46
 288              	.LBB415:
 289              	.LBI415:
 290              		.loc 6 219 13 view .LVU47
 291              	.LBB416:
 292              	.LBI416:
  23:../../libdaisy/src/hid/disp/display.h **** 
 293              		.loc 6 23 13 view .LVU48
  23:../../libdaisy/src/hid/disp/display.h **** 
 294              		.loc 6 23 13 is_stmt 0 view .LVU49
 295              	.LBE416:
 296              	.LBE415:
 297              	.LBE414:
  17:../../libdaisy/src/hid/disp/oled_display.h **** 
 298              		.loc 5 17 29 view .LVU50
 299 0004 40F21441 		movw	r1, #1044
 300 0008 FFF7FEFF 		bl	_ZdlPvj
 301              	.LVL13:
  17:../../libdaisy/src/hid/disp/oled_display.h **** 
 302              		.loc 5 17 29 view .LVU51
 303 000c 2046     		mov	r0, r4
 304 000e 10BD     		pop	{r4, pc}
  17:../../libdaisy/src/hid/disp/oled_display.h **** 
 305              		.loc 5 17 29 view .LVU52
 306              		.cfi_endproc
 307              	.LFE4260:
 309              		.section	.text._ZN5daisy11OledDisplayINS_13SSD130xDriverILj128ELj64ENS_24SSD130x4WireSpiTransportE
 310              		.align	1
 311              		.p2align 2,,3
 312              		.weak	_ZN5daisy11OledDisplayINS_13SSD130xDriverILj128ELj64ENS_24SSD130x4WireSpiTransportEEEE6Updat
 313              		.syntax unified
ARM GAS  /tmp/ccslSSf6.s 			page 26


 314              		.thumb
 315              		.thumb_func
 316              		.fpu fpv5-d16
 318              	_ZN5daisy11OledDisplayINS_13SSD130xDriverILj128ELj64ENS_24SSD130x4WireSpiTransportEEEE6UpdateEv:
 319              	.LVL14:
 320              	.LFB4564:
  34:../../libdaisy/src/hid/disp/oled_display.h **** 
  35:../../libdaisy/src/hid/disp/oled_display.h ****     /**
  36:../../libdaisy/src/hid/disp/oled_display.h ****     Sets the pixel at the specified coordinate to be on/off.
  37:../../libdaisy/src/hid/disp/oled_display.h ****     \param x   x Coordinate
  38:../../libdaisy/src/hid/disp/oled_display.h ****     \param y   y coordinate
  39:../../libdaisy/src/hid/disp/oled_display.h ****     \param on  on or off
  40:../../libdaisy/src/hid/disp/oled_display.h ****     */
  41:../../libdaisy/src/hid/disp/oled_display.h ****     void DrawPixel(uint_fast8_t x, uint_fast8_t y, bool on) override
  42:../../libdaisy/src/hid/disp/oled_display.h ****     {
  43:../../libdaisy/src/hid/disp/oled_display.h ****         driver_.DrawPixel(x, y, on);
  44:../../libdaisy/src/hid/disp/oled_display.h ****     }
  45:../../libdaisy/src/hid/disp/oled_display.h **** 
  46:../../libdaisy/src/hid/disp/oled_display.h ****     /** 
  47:../../libdaisy/src/hid/disp/oled_display.h ****     Writes the current display buffer to the OLED device using SPI or I2C depending on 
  48:../../libdaisy/src/hid/disp/oled_display.h ****     how the object was initialized.
  49:../../libdaisy/src/hid/disp/oled_display.h ****     */
  50:../../libdaisy/src/hid/disp/oled_display.h ****     void Update() override { driver_.Update(); }
 321              		.loc 5 50 10 is_stmt 1 view -0
 322              		.cfi_startproc
 323              		@ args = 0, pretend = 0, frame = 8
 324              		@ frame_needed = 0, uses_anonymous_args = 0
 325              	.LBB427:
 326              	.LBI427:
 254:../../libdaisy/src/dev/oled_ssd130x.h ****         }
 255:../../libdaisy/src/dev/oled_ssd130x.h ****     };
 256:../../libdaisy/src/dev/oled_ssd130x.h **** 
 257:../../libdaisy/src/dev/oled_ssd130x.h ****     /**
 258:../../libdaisy/src/dev/oled_ssd130x.h ****      * Update the display 
 259:../../libdaisy/src/dev/oled_ssd130x.h ****     */
 260:../../libdaisy/src/dev/oled_ssd130x.h ****     void Update()
 327              		.loc 13 260 10 view .LVU54
 328              	.LBB428:
 261:../../libdaisy/src/dev/oled_ssd130x.h ****     {
 262:../../libdaisy/src/dev/oled_ssd130x.h ****         uint8_t i;
 263:../../libdaisy/src/dev/oled_ssd130x.h ****         uint8_t high_column_addr;
 264:../../libdaisy/src/dev/oled_ssd130x.h ****         switch(height)
 265:../../libdaisy/src/dev/oled_ssd130x.h ****         {
 266:../../libdaisy/src/dev/oled_ssd130x.h ****             case 32: high_column_addr = 0x12; break;
 267:../../libdaisy/src/dev/oled_ssd130x.h **** 
 268:../../libdaisy/src/dev/oled_ssd130x.h ****             default: high_column_addr = 0x10; break;
 269:../../libdaisy/src/dev/oled_ssd130x.h ****         }
 270:../../libdaisy/src/dev/oled_ssd130x.h ****         for(i = 0; i < (height / 8); i++)
 329              		.loc 13 270 22 view .LVU55
 330              	.LBE428:
 331              	.LBE427:
 332              		.loc 5 50 10 is_stmt 0 view .LVU56
 333 0000 2DE9F041 		push	{r4, r5, r6, r7, r8, lr}
 334              		.cfi_def_cfa_offset 24
 335              		.cfi_offset 4, -24
 336              		.cfi_offset 5, -20
 337              		.cfi_offset 6, -16
ARM GAS  /tmp/ccslSSf6.s 			page 27


 338              		.cfi_offset 7, -12
 339              		.cfi_offset 8, -8
 340              		.cfi_offset 14, -4
 341 0004 B025     		movs	r5, #176
 342 0006 82B0     		sub	sp, sp, #8
 343              		.cfi_def_cfa_offset 32
 344 0008 00F10807 		add	r7, r0, #8
 345 000c 00F11006 		add	r6, r0, #16
 346 0010 00F11404 		add	r4, r0, #20
 347              	.LVL15:
 348              	.L13:
 349              	.LBB441:
 350              	.LBB440:
 351              	.LBB429:
 352              	.LBB430:
 111:../../libdaisy/src/dev/oled_ssd130x.h ****         spi_.BlockingTransmit(&cmd, 1);
 353              		.loc 13 111 23 view .LVU57
 354 0014 0021     		movs	r1, #0
 355 0016 3046     		mov	r0, r6
 356 0018 8DF80750 		strb	r5, [sp, #7]
 357              	.LVL16:
 111:../../libdaisy/src/dev/oled_ssd130x.h ****         spi_.BlockingTransmit(&cmd, 1);
 358              		.loc 13 111 23 view .LVU58
 359              	.LBE430:
 360              	.LBI429:
 109:../../libdaisy/src/dev/oled_ssd130x.h ****     {
 361              		.loc 13 109 10 is_stmt 1 view .LVU59
 362              	.LBB431:
 111:../../libdaisy/src/dev/oled_ssd130x.h ****         spi_.BlockingTransmit(&cmd, 1);
 363              		.loc 13 111 9 view .LVU60
 364 001c 0135     		adds	r5, r5, #1
 365              	.LVL17:
 111:../../libdaisy/src/dev/oled_ssd130x.h ****         spi_.BlockingTransmit(&cmd, 1);
 366              		.loc 13 111 9 is_stmt 0 view .LVU61
 367 001e 8846     		mov	r8, r1
 111:../../libdaisy/src/dev/oled_ssd130x.h ****         spi_.BlockingTransmit(&cmd, 1);
 368              		.loc 13 111 23 view .LVU62
 369 0020 FFF7FEFF 		bl	dsy_gpio_write
 370              	.LVL18:
 112:../../libdaisy/src/dev/oled_ssd130x.h ****     };
 371              		.loc 13 112 9 is_stmt 1 view .LVU63
 112:../../libdaisy/src/dev/oled_ssd130x.h ****     };
 372              		.loc 13 112 30 is_stmt 0 view .LVU64
 373 0024 6423     		movs	r3, #100
 374 0026 0122     		movs	r2, #1
 375 0028 0DF10701 		add	r1, sp, #7
 376 002c 3846     		mov	r0, r7
 377 002e FFF7FEFF 		bl	_ZN5daisy9SpiHandle16BlockingTransmitEPhjm
 378              	.LVL19:
 112:../../libdaisy/src/dev/oled_ssd130x.h ****     };
 379              		.loc 13 112 30 view .LVU65
 380              	.LBE431:
 381              	.LBE429:
 382              	.LBB432:
 383              	.LBB433:
 111:../../libdaisy/src/dev/oled_ssd130x.h ****         spi_.BlockingTransmit(&cmd, 1);
 384              		.loc 13 111 23 view .LVU66
ARM GAS  /tmp/ccslSSf6.s 			page 28


 385 0032 4146     		mov	r1, r8
 386 0034 3046     		mov	r0, r6
 387 0036 8DF80780 		strb	r8, [sp, #7]
 388              	.LVL20:
 111:../../libdaisy/src/dev/oled_ssd130x.h ****         spi_.BlockingTransmit(&cmd, 1);
 389              		.loc 13 111 23 view .LVU67
 390              	.LBE433:
 391              	.LBI432:
 109:../../libdaisy/src/dev/oled_ssd130x.h ****     {
 392              		.loc 13 109 10 is_stmt 1 view .LVU68
 393              	.LBB434:
 111:../../libdaisy/src/dev/oled_ssd130x.h ****         spi_.BlockingTransmit(&cmd, 1);
 394              		.loc 13 111 9 view .LVU69
 111:../../libdaisy/src/dev/oled_ssd130x.h ****         spi_.BlockingTransmit(&cmd, 1);
 395              		.loc 13 111 23 is_stmt 0 view .LVU70
 396 003a FFF7FEFF 		bl	dsy_gpio_write
 397              	.LVL21:
 112:../../libdaisy/src/dev/oled_ssd130x.h ****     };
 398              		.loc 13 112 9 is_stmt 1 view .LVU71
 112:../../libdaisy/src/dev/oled_ssd130x.h ****     };
 399              		.loc 13 112 30 is_stmt 0 view .LVU72
 400 003e 0122     		movs	r2, #1
 401 0040 6423     		movs	r3, #100
 402 0042 0DF10701 		add	r1, sp, #7
 403 0046 3846     		mov	r0, r7
 404 0048 EDB2     		uxtb	r5, r5
 405 004a FFF7FEFF 		bl	_ZN5daisy9SpiHandle16BlockingTransmitEPhjm
 406              	.LVL22:
 112:../../libdaisy/src/dev/oled_ssd130x.h ****     };
 407              		.loc 13 112 30 view .LVU73
 408 004e 1023     		movs	r3, #16
 409              	.LBE434:
 410              	.LBE432:
 411              	.LBB435:
 412              	.LBB436:
 111:../../libdaisy/src/dev/oled_ssd130x.h ****         spi_.BlockingTransmit(&cmd, 1);
 413              		.loc 13 111 23 view .LVU74
 414 0050 4146     		mov	r1, r8
 415 0052 3046     		mov	r0, r6
 416 0054 8DF80730 		strb	r3, [sp, #7]
 417              	.LVL23:
 111:../../libdaisy/src/dev/oled_ssd130x.h ****         spi_.BlockingTransmit(&cmd, 1);
 418              		.loc 13 111 23 view .LVU75
 419              	.LBE436:
 420              	.LBI435:
 109:../../libdaisy/src/dev/oled_ssd130x.h ****     {
 421              		.loc 13 109 10 is_stmt 1 view .LVU76
 422              	.LBB437:
 111:../../libdaisy/src/dev/oled_ssd130x.h ****         spi_.BlockingTransmit(&cmd, 1);
 423              		.loc 13 111 9 view .LVU77
 111:../../libdaisy/src/dev/oled_ssd130x.h ****         spi_.BlockingTransmit(&cmd, 1);
 424              		.loc 13 111 23 is_stmt 0 view .LVU78
 425 0058 FFF7FEFF 		bl	dsy_gpio_write
 426              	.LVL24:
 112:../../libdaisy/src/dev/oled_ssd130x.h ****     };
 427              		.loc 13 112 9 is_stmt 1 view .LVU79
 112:../../libdaisy/src/dev/oled_ssd130x.h ****     };
ARM GAS  /tmp/ccslSSf6.s 			page 29


 428              		.loc 13 112 30 is_stmt 0 view .LVU80
 429 005c 6423     		movs	r3, #100
 430 005e 0122     		movs	r2, #1
 431 0060 0DF10701 		add	r1, sp, #7
 432 0064 3846     		mov	r0, r7
 433 0066 FFF7FEFF 		bl	_ZN5daisy9SpiHandle16BlockingTransmitEPhjm
 434              	.LVL25:
 112:../../libdaisy/src/dev/oled_ssd130x.h ****     };
 435              		.loc 13 112 30 view .LVU81
 436              	.LBE437:
 437              	.LBE435:
 438              	.LBB438:
 439              	.LBI438:
 115:../../libdaisy/src/dev/oled_ssd130x.h ****     {
 440              		.loc 13 115 10 is_stmt 1 view .LVU82
 441              	.LBB439:
 117:../../libdaisy/src/dev/oled_ssd130x.h ****         spi_.BlockingTransmit(buff, size);
 442              		.loc 13 117 9 view .LVU83
 117:../../libdaisy/src/dev/oled_ssd130x.h ****         spi_.BlockingTransmit(buff, size);
 443              		.loc 13 117 23 is_stmt 0 view .LVU84
 444 006a 0121     		movs	r1, #1
 445 006c 3046     		mov	r0, r6
 446 006e FFF7FEFF 		bl	dsy_gpio_write
 447              	.LVL26:
 118:../../libdaisy/src/dev/oled_ssd130x.h ****     };
 448              		.loc 13 118 9 is_stmt 1 view .LVU85
 118:../../libdaisy/src/dev/oled_ssd130x.h ****     };
 449              		.loc 13 118 30 is_stmt 0 view .LVU86
 450 0072 8022     		movs	r2, #128
 451 0074 2146     		mov	r1, r4
 452 0076 6423     		movs	r3, #100
 453 0078 3846     		mov	r0, r7
 454 007a 1444     		add	r4, r4, r2
 455              	.LVL27:
 118:../../libdaisy/src/dev/oled_ssd130x.h ****     };
 456              		.loc 13 118 30 view .LVU87
 457 007c FFF7FEFF 		bl	_ZN5daisy9SpiHandle16BlockingTransmitEPhjm
 458              	.LVL28:
 118:../../libdaisy/src/dev/oled_ssd130x.h ****     };
 459              		.loc 13 118 30 view .LVU88
 460              	.LBE439:
 461              	.LBE438:
 462              		.loc 13 270 9 is_stmt 1 view .LVU89
 463              		.loc 13 270 22 view .LVU90
 464 0080 B82D     		cmp	r5, #184
 465 0082 C7D1     		bne	.L13
 466              	.LBE440:
 467              	.LBE441:
 468              		.loc 5 50 48 is_stmt 0 view .LVU91
 469 0084 02B0     		add	sp, sp, #8
 470              		.cfi_def_cfa_offset 24
 471              		@ sp needed
 472 0086 BDE8F081 		pop	{r4, r5, r6, r7, r8, pc}
 473              		.loc 5 50 48 view .LVU92
 474              		.cfi_endproc
 475              	.LFE4564:
 477 008a 00BF     		.section	.text._ZN5daisy25OneBitGraphicsDisplayImplINS_11OledDisplayINS_13SSD130xDriverILj128ELj64
ARM GAS  /tmp/ccslSSf6.s 			page 30


 478              		.align	1
 479              		.p2align 2,,3
 480              		.weak	_ZN5daisy25OneBitGraphicsDisplayImplINS_11OledDisplayINS_13SSD130xDriverILj128ELj64ENS_24SSD
 481              		.syntax unified
 482              		.thumb
 483              		.thumb_func
 484              		.fpu fpv5-d16
 486              	_ZN5daisy25OneBitGraphicsDisplayImplINS_11OledDisplayINS_13SSD130xDriverILj128ELj64ENS_24SSD130x4Wi
 487              	.LVL29:
 488              	.LFB4691:
 220:../../libdaisy/src/hid/disp/display.h **** 
 221:../../libdaisy/src/hid/disp/display.h ****     void DrawLine(uint_fast8_t x1,
 222:../../libdaisy/src/hid/disp/display.h ****                   uint_fast8_t y1,
 223:../../libdaisy/src/hid/disp/display.h ****                   uint_fast8_t x2,
 224:../../libdaisy/src/hid/disp/display.h ****                   uint_fast8_t y2,
 225:../../libdaisy/src/hid/disp/display.h ****                   bool         on) override
 226:../../libdaisy/src/hid/disp/display.h ****     {
 227:../../libdaisy/src/hid/disp/display.h ****         int_fast16_t deltaX = abs((int_fast16_t)x2 - (int_fast16_t)x1);
 228:../../libdaisy/src/hid/disp/display.h ****         int_fast16_t deltaY = abs((int_fast16_t)y2 - (int_fast16_t)y1);
 229:../../libdaisy/src/hid/disp/display.h ****         int_fast16_t signX  = ((x1 < x2) ? 1 : -1);
 230:../../libdaisy/src/hid/disp/display.h ****         int_fast16_t signY  = ((y1 < y2) ? 1 : -1);
 231:../../libdaisy/src/hid/disp/display.h ****         int_fast16_t error  = deltaX - deltaY;
 232:../../libdaisy/src/hid/disp/display.h ****         int_fast16_t error2;
 233:../../libdaisy/src/hid/disp/display.h **** 
 234:../../libdaisy/src/hid/disp/display.h ****         // If we write "ChildType::DrawPixel(x2, y2, on);", we end up with
 235:../../libdaisy/src/hid/disp/display.h ****         // all sorts of weird compiler errors when the Child class is a template
 236:../../libdaisy/src/hid/disp/display.h ****         // class. The only way around this is to use this very verbose syntax:
 237:../../libdaisy/src/hid/disp/display.h ****         ((ChildType*)(this))->ChildType::DrawPixel(x2, y2, on);
 238:../../libdaisy/src/hid/disp/display.h **** 
 239:../../libdaisy/src/hid/disp/display.h ****         while((x1 != x2) || (y1 != y2))
 240:../../libdaisy/src/hid/disp/display.h ****         {
 241:../../libdaisy/src/hid/disp/display.h ****             ((ChildType*)(this))->ChildType::DrawPixel(x1, y1, on);
 242:../../libdaisy/src/hid/disp/display.h ****             error2 = error * 2;
 243:../../libdaisy/src/hid/disp/display.h ****             if(error2 > -deltaY)
 244:../../libdaisy/src/hid/disp/display.h ****             {
 245:../../libdaisy/src/hid/disp/display.h ****                 error -= deltaY;
 246:../../libdaisy/src/hid/disp/display.h ****                 x1 += signX;
 247:../../libdaisy/src/hid/disp/display.h ****             }
 248:../../libdaisy/src/hid/disp/display.h **** 
 249:../../libdaisy/src/hid/disp/display.h ****             if(error2 < deltaX)
 250:../../libdaisy/src/hid/disp/display.h ****             {
 251:../../libdaisy/src/hid/disp/display.h ****                 error += deltaX;
 252:../../libdaisy/src/hid/disp/display.h ****                 y1 += signY;
 253:../../libdaisy/src/hid/disp/display.h ****             }
 254:../../libdaisy/src/hid/disp/display.h ****         }
 255:../../libdaisy/src/hid/disp/display.h ****     }
 256:../../libdaisy/src/hid/disp/display.h **** 
 257:../../libdaisy/src/hid/disp/display.h ****     void DrawRect(uint_fast8_t x1,
 258:../../libdaisy/src/hid/disp/display.h ****                   uint_fast8_t y1,
 259:../../libdaisy/src/hid/disp/display.h ****                   uint_fast8_t x2,
 260:../../libdaisy/src/hid/disp/display.h ****                   uint_fast8_t y2,
 261:../../libdaisy/src/hid/disp/display.h ****                   bool         on,
 262:../../libdaisy/src/hid/disp/display.h ****                   bool         fill = false) override
 263:../../libdaisy/src/hid/disp/display.h ****     {
 264:../../libdaisy/src/hid/disp/display.h ****         if(fill)
 265:../../libdaisy/src/hid/disp/display.h ****         {
 266:../../libdaisy/src/hid/disp/display.h ****             for(uint_fast8_t x = x1; x <= x2; x++)
ARM GAS  /tmp/ccslSSf6.s 			page 31


 267:../../libdaisy/src/hid/disp/display.h ****             {
 268:../../libdaisy/src/hid/disp/display.h ****                 for(uint_fast8_t y = y1; y <= y2; y++)
 269:../../libdaisy/src/hid/disp/display.h ****                 {
 270:../../libdaisy/src/hid/disp/display.h ****                     ((ChildType*)(this))->ChildType::DrawPixel(x, y, on);
 271:../../libdaisy/src/hid/disp/display.h ****                 }
 272:../../libdaisy/src/hid/disp/display.h ****             }
 273:../../libdaisy/src/hid/disp/display.h ****         }
 274:../../libdaisy/src/hid/disp/display.h ****         else
 275:../../libdaisy/src/hid/disp/display.h ****         {
 276:../../libdaisy/src/hid/disp/display.h ****             ((ChildType*)(this))->ChildType::DrawLine(x1, y1, x2, y1, on);
 277:../../libdaisy/src/hid/disp/display.h ****             ((ChildType*)(this))->ChildType::DrawLine(x2, y1, x2, y2, on);
 278:../../libdaisy/src/hid/disp/display.h ****             ((ChildType*)(this))->ChildType::DrawLine(x2, y2, x1, y2, on);
 279:../../libdaisy/src/hid/disp/display.h ****             ((ChildType*)(this))->ChildType::DrawLine(x1, y2, x1, y1, on);
 280:../../libdaisy/src/hid/disp/display.h ****         }
 281:../../libdaisy/src/hid/disp/display.h ****     }
 282:../../libdaisy/src/hid/disp/display.h **** 
 283:../../libdaisy/src/hid/disp/display.h ****     void DrawArc(uint_fast8_t x,
 284:../../libdaisy/src/hid/disp/display.h ****                  uint_fast8_t y,
 285:../../libdaisy/src/hid/disp/display.h ****                  uint_fast8_t radius,
 286:../../libdaisy/src/hid/disp/display.h ****                  int_fast16_t start_angle,
 287:../../libdaisy/src/hid/disp/display.h ****                  int_fast16_t sweep,
 288:../../libdaisy/src/hid/disp/display.h ****                  bool         on) override
 289:../../libdaisy/src/hid/disp/display.h ****     {
 290:../../libdaisy/src/hid/disp/display.h ****         // Values to calculate the circle
 291:../../libdaisy/src/hid/disp/display.h ****         int_fast16_t t_x, t_y, err, e2;
 292:../../libdaisy/src/hid/disp/display.h **** 
 293:../../libdaisy/src/hid/disp/display.h ****         // Temporary values to speed up comparisons
 294:../../libdaisy/src/hid/disp/display.h ****         float t_sxy, t_syx, t_sxny, t_synx;
 295:../../libdaisy/src/hid/disp/display.h ****         float t_exy, t_eyx, t_exny, t_eynx;
 296:../../libdaisy/src/hid/disp/display.h **** 
 297:../../libdaisy/src/hid/disp/display.h ****         float start_angle_rad, end_angle_rad;
 298:../../libdaisy/src/hid/disp/display.h ****         float start_x, start_y, end_x, end_y;
 299:../../libdaisy/src/hid/disp/display.h **** 
 300:../../libdaisy/src/hid/disp/display.h ****         bool d1, d2, d3, d4;
 301:../../libdaisy/src/hid/disp/display.h **** 
 302:../../libdaisy/src/hid/disp/display.h ****         d1 = d2 = d3 = d4 = true;
 303:../../libdaisy/src/hid/disp/display.h **** 
 304:../../libdaisy/src/hid/disp/display.h ****         bool circle = false;
 305:../../libdaisy/src/hid/disp/display.h **** 
 306:../../libdaisy/src/hid/disp/display.h ****         if(sweep < 0)
 307:../../libdaisy/src/hid/disp/display.h ****         {
 308:../../libdaisy/src/hid/disp/display.h ****             start_angle += sweep;
 309:../../libdaisy/src/hid/disp/display.h ****             sweep = -sweep;
 310:../../libdaisy/src/hid/disp/display.h ****         }
 311:../../libdaisy/src/hid/disp/display.h **** 
 312:../../libdaisy/src/hid/disp/display.h ****         start_angle_rad = deg2rad(start_angle);
 313:../../libdaisy/src/hid/disp/display.h ****         end_angle_rad   = deg2rad(start_angle + sweep);
 314:../../libdaisy/src/hid/disp/display.h **** 
 315:../../libdaisy/src/hid/disp/display.h ****         start_x = cos(start_angle_rad) * radius;
 316:../../libdaisy/src/hid/disp/display.h ****         start_y = -sin(start_angle_rad) * radius;
 317:../../libdaisy/src/hid/disp/display.h ****         end_x   = cos(end_angle_rad) * radius;
 318:../../libdaisy/src/hid/disp/display.h ****         end_y   = -sin(end_angle_rad) * radius;
 319:../../libdaisy/src/hid/disp/display.h **** 
 320:../../libdaisy/src/hid/disp/display.h ****         // Check if start and endpoint are very near
 321:../../libdaisy/src/hid/disp/display.h ****         if((end_x - start_x) * (end_x - start_x)
 322:../../libdaisy/src/hid/disp/display.h ****                + (end_y - start_y) * (end_y - start_y)
 323:../../libdaisy/src/hid/disp/display.h ****            < 2.0f)
ARM GAS  /tmp/ccslSSf6.s 			page 32


 324:../../libdaisy/src/hid/disp/display.h ****         {
 325:../../libdaisy/src/hid/disp/display.h ****             if(sweep > 180)
 326:../../libdaisy/src/hid/disp/display.h ****                 circle = true;
 327:../../libdaisy/src/hid/disp/display.h ****             else
 328:../../libdaisy/src/hid/disp/display.h ****                 // Nothing to draw
 329:../../libdaisy/src/hid/disp/display.h ****                 return;
 330:../../libdaisy/src/hid/disp/display.h ****         }
 331:../../libdaisy/src/hid/disp/display.h **** 
 332:../../libdaisy/src/hid/disp/display.h ****         t_x = -radius;
 333:../../libdaisy/src/hid/disp/display.h ****         t_y = 0;
 334:../../libdaisy/src/hid/disp/display.h ****         err = 2 - 2 * radius;
 335:../../libdaisy/src/hid/disp/display.h **** 
 336:../../libdaisy/src/hid/disp/display.h ****         do
 337:../../libdaisy/src/hid/disp/display.h ****         {
 338:../../libdaisy/src/hid/disp/display.h ****             if(!circle)
 339:../../libdaisy/src/hid/disp/display.h ****             {
 340:../../libdaisy/src/hid/disp/display.h ****                 t_sxy  = start_x * t_y;
 341:../../libdaisy/src/hid/disp/display.h ****                 t_syx  = start_y * t_x;
 342:../../libdaisy/src/hid/disp/display.h ****                 t_sxny = start_x * -t_y;
 343:../../libdaisy/src/hid/disp/display.h ****                 t_synx = start_y * -t_x;
 344:../../libdaisy/src/hid/disp/display.h ****                 t_exy  = end_x * t_y;
 345:../../libdaisy/src/hid/disp/display.h ****                 t_eyx  = end_y * t_x;
 346:../../libdaisy/src/hid/disp/display.h ****                 t_exny = end_x * -t_y;
 347:../../libdaisy/src/hid/disp/display.h ****                 t_eynx = end_y * -t_x;
 348:../../libdaisy/src/hid/disp/display.h **** 
 349:../../libdaisy/src/hid/disp/display.h ****                 if(sweep > 180)
 350:../../libdaisy/src/hid/disp/display.h ****                 {
 351:../../libdaisy/src/hid/disp/display.h ****                     d1 = (t_sxy - t_synx < 0 || t_exy - t_eynx > 0);
 352:../../libdaisy/src/hid/disp/display.h ****                     d2 = (t_sxy - t_syx < 0 || t_exy - t_eyx > 0);
 353:../../libdaisy/src/hid/disp/display.h ****                     d3 = (t_sxny - t_syx < 0 || t_exny - t_eyx > 0);
 354:../../libdaisy/src/hid/disp/display.h ****                     d4 = (t_sxny - t_synx < 0 || t_exny - t_eynx > 0);
 355:../../libdaisy/src/hid/disp/display.h ****                 }
 356:../../libdaisy/src/hid/disp/display.h ****                 else
 357:../../libdaisy/src/hid/disp/display.h ****                 {
 358:../../libdaisy/src/hid/disp/display.h ****                     d1 = (t_sxy - t_synx < 0 && t_exy - t_eynx > 0);
 359:../../libdaisy/src/hid/disp/display.h ****                     d2 = (t_sxy - t_syx < 0 && t_exy - t_eyx > 0);
 360:../../libdaisy/src/hid/disp/display.h ****                     d3 = (t_sxny - t_syx < 0 && t_exny - t_eyx > 0);
 361:../../libdaisy/src/hid/disp/display.h ****                     d4 = (t_sxny - t_synx < 0 && t_exny - t_eynx > 0);
 362:../../libdaisy/src/hid/disp/display.h ****                 }
 363:../../libdaisy/src/hid/disp/display.h ****             }
 364:../../libdaisy/src/hid/disp/display.h **** 
 365:../../libdaisy/src/hid/disp/display.h ****             if(d1)
 366:../../libdaisy/src/hid/disp/display.h ****                 ((ChildType*)(this))
 367:../../libdaisy/src/hid/disp/display.h ****                     ->ChildType::DrawPixel(x - t_x, y + t_y, on);
 368:../../libdaisy/src/hid/disp/display.h ****             if(d2)
 369:../../libdaisy/src/hid/disp/display.h ****                 ((ChildType*)(this))
 370:../../libdaisy/src/hid/disp/display.h ****                     ->ChildType::DrawPixel(x + t_x, y + t_y, on);
 371:../../libdaisy/src/hid/disp/display.h ****             if(d3)
 372:../../libdaisy/src/hid/disp/display.h ****                 ((ChildType*)(this))
 373:../../libdaisy/src/hid/disp/display.h ****                     ->ChildType::DrawPixel(x + t_x, y - t_y, on);
 374:../../libdaisy/src/hid/disp/display.h ****             if(d4)
 375:../../libdaisy/src/hid/disp/display.h ****                 ((ChildType*)(this))
 376:../../libdaisy/src/hid/disp/display.h ****                     ->ChildType::DrawPixel(x - t_x, y - t_y, on);
 377:../../libdaisy/src/hid/disp/display.h **** 
 378:../../libdaisy/src/hid/disp/display.h ****             e2 = err;
 379:../../libdaisy/src/hid/disp/display.h ****             if(e2 <= t_y)
 380:../../libdaisy/src/hid/disp/display.h ****             {
ARM GAS  /tmp/ccslSSf6.s 			page 33


 381:../../libdaisy/src/hid/disp/display.h ****                 t_y++;
 382:../../libdaisy/src/hid/disp/display.h ****                 err = err + (t_y * 2 + 1);
 383:../../libdaisy/src/hid/disp/display.h ****                 if(-t_x == t_y && e2 <= t_x)
 384:../../libdaisy/src/hid/disp/display.h ****                 {
 385:../../libdaisy/src/hid/disp/display.h ****                     e2 = 0;
 386:../../libdaisy/src/hid/disp/display.h ****                 }
 387:../../libdaisy/src/hid/disp/display.h ****             }
 388:../../libdaisy/src/hid/disp/display.h ****             if(e2 > t_x)
 389:../../libdaisy/src/hid/disp/display.h ****             {
 390:../../libdaisy/src/hid/disp/display.h ****                 t_x++;
 391:../../libdaisy/src/hid/disp/display.h ****                 err = err + (t_x * 2 + 1);
 392:../../libdaisy/src/hid/disp/display.h ****             }
 393:../../libdaisy/src/hid/disp/display.h ****         } while(t_x <= 0);
 394:../../libdaisy/src/hid/disp/display.h ****     }
 395:../../libdaisy/src/hid/disp/display.h **** 
 396:../../libdaisy/src/hid/disp/display.h ****     char WriteChar(char ch, FontDef font, bool on) override
 489              		.loc 6 396 10 is_stmt 1 view -0
 490              		.cfi_startproc
 491              		@ args = 4, pretend = 0, frame = 16
 492              		@ frame_needed = 0, uses_anonymous_args = 0
 493              		.loc 6 396 10 is_stmt 0 view .LVU94
 494 0000 2DE9F04F 		push	{r4, r5, r6, r7, r8, r9, r10, fp, lr}
 495              		.cfi_def_cfa_offset 36
 496              		.cfi_offset 4, -36
 497              		.cfi_offset 5, -32
 498              		.cfi_offset 6, -28
 499              		.cfi_offset 7, -24
 500              		.cfi_offset 8, -20
 501              		.cfi_offset 9, -16
 502              		.cfi_offset 10, -12
 503              		.cfi_offset 11, -8
 504              		.cfi_offset 14, -4
 505 0004 85B0     		sub	sp, sp, #20
 506              		.cfi_def_cfa_offset 56
 507              	.LVL30:
 397:../../libdaisy/src/hid/disp/display.h ****     {
 398:../../libdaisy/src/hid/disp/display.h ****         uint32_t i, b, j;
 399:../../libdaisy/src/hid/disp/display.h **** 
 400:../../libdaisy/src/hid/disp/display.h ****         // Check if character is valid
 401:../../libdaisy/src/hid/disp/display.h ****         if(ch < 32 || ch > 126)
 508              		.loc 6 401 20 view .LVU95
 509 0006 A1F12004 		sub	r4, r1, #32
 396:../../libdaisy/src/hid/disp/display.h ****     {
 510              		.loc 6 396 10 view .LVU96
 511 000a 0091     		str	r1, [sp]
 512 000c 04A9     		add	r1, sp, #16
 513              	.LVL31:
 396:../../libdaisy/src/hid/disp/display.h ****     {
 514              		.loc 6 396 10 view .LVU97
 515 000e 9DF83880 		ldrb	r8, [sp, #56]	@ zero_extendqisi2
 516 0012 01E90C00 		stmdb	r1, {r2, r3}
 517              	.LVL32:
 518              		.loc 6 401 9 view .LVU98
 519 0016 E3B2     		uxtb	r3, r4
 520 0018 5E2B     		cmp	r3, #94
 521 001a 00F29480 		bhi	.L20
 402:../../libdaisy/src/hid/disp/display.h ****             return 0;
ARM GAS  /tmp/ccslSSf6.s 			page 34


 403:../../libdaisy/src/hid/disp/display.h **** 
 404:../../libdaisy/src/hid/disp/display.h ****         // Check remaining space on current line
 405:../../libdaisy/src/hid/disp/display.h ****         if(Width() < (currentX_ + font.FontWidth)
 522              		.loc 6 405 17 view .LVU99
 523 001e 0368     		ldr	r3, [r0]
 524 0020 8146     		mov	r9, r0
 525 0022 5C4A     		ldr	r2, .L56
 526 0024 DB68     		ldr	r3, [r3, #12]
 527 0026 9DF80860 		ldrb	r6, [sp, #8]	@ zero_extendqisi2
 528 002a 9342     		cmp	r3, r2
 529 002c 9DF80950 		ldrb	r5, [sp, #9]	@ zero_extendqisi2
 530 0030 40F09380 		bne	.L47
 531 0034 8020     		movs	r0, #128
 532              	.LVL33:
 533              	.L19:
 534              		.loc 6 405 23 view .LVU100
 535 0036 B9F80430 		ldrh	r3, [r9, #4]
 536              		.loc 6 405 33 view .LVU101
 537 003a 3344     		add	r3, r3, r6
 406:../../libdaisy/src/hid/disp/display.h ****            || Height() < (currentY_ + font.FontHeight))
 538              		.loc 6 406 12 view .LVU102
 539 003c 8342     		cmp	r3, r0
 540 003e 00F38280 		bgt	.L20
 541              		.loc 6 406 21 discriminator 2 view .LVU103
 542 0042 D9F80030 		ldr	r3, [r9]
 543 0046 544A     		ldr	r2, .L56+4
 544 0048 9B68     		ldr	r3, [r3, #8]
 545 004a 9342     		cmp	r3, r2
 546 004c 40F08780 		bne	.L48
 547              		.loc 6 406 21 view .LVU104
 548 0050 4020     		movs	r0, #64
 549              	.L21:
 550              		.loc 6 406 27 discriminator 2 view .LVU105
 551 0052 B9F80610 		ldrh	r1, [r9, #6]
 552              		.loc 6 406 37 discriminator 2 view .LVU106
 553 0056 4B19     		adds	r3, r1, r5
 554              		.loc 6 406 27 discriminator 2 view .LVU107
 555 0058 0191     		str	r1, [sp, #4]
 556              		.loc 6 406 12 discriminator 2 view .LVU108
 557 005a 8342     		cmp	r3, r0
 558 005c 73DC     		bgt	.L20
 559              	.LVL34:
 407:../../libdaisy/src/hid/disp/display.h ****         {
 408:../../libdaisy/src/hid/disp/display.h ****             // Not enough space on current line
 409:../../libdaisy/src/hid/disp/display.h ****             return 0;
 410:../../libdaisy/src/hid/disp/display.h ****         }
 411:../../libdaisy/src/hid/disp/display.h **** 
 412:../../libdaisy/src/hid/disp/display.h ****         // Use the font to write
 413:../../libdaisy/src/hid/disp/display.h ****         for(i = 0; i < font.FontHeight; i++)
 560              		.loc 6 413 22 is_stmt 1 view .LVU109
 561 005e 002D     		cmp	r5, #0
 562 0060 00F08880 		beq	.L22
 414:../../libdaisy/src/hid/disp/display.h ****         {
 415:../../libdaisy/src/hid/disp/display.h ****             b = font.data[(ch - 32) * font.FontHeight + i];
 563              		.loc 6 415 37 is_stmt 0 view .LVU110
 564 0064 05FB04F4 		mul	r4, r5, r4
 565              		.loc 6 415 22 view .LVU111
ARM GAS  /tmp/ccslSSf6.s 			page 35


 566 0068 039A     		ldr	r2, [sp, #12]
 567 006a 6FF00043 		mvn	r3, #-2147483648
 568 006e B9F804A0 		ldrh	r10, [r9, #4]
 569 0072 2544     		add	r5, r5, r4
 570 0074 A2F1020B 		sub	fp, r2, #2
 571 0078 2344     		add	r3, r3, r4
 572 007a 0BEB450B 		add	fp, fp, r5, lsl #1
 573 007e 0D46     		mov	r5, r1
 574 0080 02EB430E 		add	lr, r2, r3, lsl #1
 575              	.LVL35:
 576              	.L25:
 577              		.loc 6 415 13 view .LVU112
 578 0084 3EF8024F 		ldrh	r4, [lr, #2]!
 579              	.LVL36:
 416:../../libdaisy/src/hid/disp/display.h ****             for(j = 0; j < font.FontWidth; j++)
 580              		.loc 6 416 26 is_stmt 1 view .LVU113
 581 0088 A6B3     		cbz	r6, .L30
 582              	.LBB472:
 583              	.LBB473:
 584              	.LBB474:
 585              	.LBB475:
 586              	.LBB476:
 246:../../libdaisy/src/dev/oled_ssd130x.h ****     }
 587              		.loc 13 246 55 is_stmt 0 view .LVU114
 588 008a 05F00703 		and	r3, r5, #7
 246:../../libdaisy/src/dev/oled_ssd130x.h ****     }
 589              		.loc 13 246 49 view .LVU115
 590 008e 0127     		movs	r7, #1
 246:../../libdaisy/src/dev/oled_ssd130x.h ****     }
 591              		.loc 13 246 28 view .LVU116
 592 0090 E808     		lsrs	r0, r5, #3
 246:../../libdaisy/src/dev/oled_ssd130x.h ****     }
 593              		.loc 13 246 42 view .LVU117
 594 0092 4146     		mov	r1, r8
 246:../../libdaisy/src/dev/oled_ssd130x.h ****     }
 595              		.loc 13 246 49 view .LVU118
 596 0094 9F40     		lsls	r7, r7, r3
 597              	.LBE476:
 598              	.LBE475:
 599              	.LBE474:
 600              	.LBE473:
 601              	.LBE472:
 602              		.loc 6 416 19 view .LVU119
 603 0096 0022     		movs	r2, #0
 604 0098 0AEBC013 		add	r3, r10, r0, lsl #7
 605              	.LBB494:
 606              	.LBB489:
 607              	.LBB484:
 608              	.LBB480:
 609              	.LBB477:
 246:../../libdaisy/src/dev/oled_ssd130x.h ****     }
 610              		.loc 13 246 42 view .LVU120
 611 009c 7FB2     		sxtb	r7, r7
 612 009e 4B44     		add	r3, r3, r9
 613 00a0 09EBC010 		add	r0, r9, r0, lsl #7
 614 00a4 6FEA070C 		mvn	ip, r7
 615 00a8 B846     		mov	r8, r7
ARM GAS  /tmp/ccslSSf6.s 			page 36


 616 00aa 0F46     		mov	r7, r1
 617 00ac 0CE0     		b	.L31
 618              	.LVL37:
 619              	.L50:
 246:../../libdaisy/src/dev/oled_ssd130x.h ****     }
 620              		.loc 13 246 42 view .LVU121
 621              	.LBE477:
 622              	.LBE480:
 623              	.LBE484:
 624              	.LBE489:
 625              	.LBE494:
 626              	.LBB495:
 627              	.LBI495:
  41:../../libdaisy/src/hid/disp/oled_display.h ****     {
 628              		.loc 5 41 10 is_stmt 1 view .LVU122
 629              	.LBB496:
 630              	.LBI496:
 239:../../libdaisy/src/dev/oled_ssd130x.h ****     {
 631              		.loc 13 239 10 view .LVU123
 632              	.LBB497:
 241:../../libdaisy/src/dev/oled_ssd130x.h ****             return;
 633              		.loc 13 241 9 is_stmt 0 view .LVU124
 634 00ae 7F29     		cmp	r1, #127
 635 00b0 06D8     		bhi	.L27
 636 00b2 3F2D     		cmp	r5, #63
 637 00b4 04D8     		bhi	.L27
 244:../../libdaisy/src/dev/oled_ssd130x.h ****         else
 638              		.loc 13 244 42 view .LVU125
 639 00b6 197D     		ldrb	r1, [r3, #20]	@ zero_extendqisi2
 243:../../libdaisy/src/dev/oled_ssd130x.h ****             buffer_[x + (y / 8) * width] |= (1 << (y % 8));
 640              		.loc 13 243 9 view .LVU126
 641 00b8 A7B1     		cbz	r7, .L29
 642              	.L46:
 243:../../libdaisy/src/dev/oled_ssd130x.h ****             buffer_[x + (y / 8) * width] |= (1 << (y % 8));
 643              		.loc 13 243 9 view .LVU127
 644              	.LBE497:
 645              	.LBE496:
 646              	.LBE495:
 647              	.LBB500:
 648              	.LBB490:
 649              	.LBB485:
 244:../../libdaisy/src/dev/oled_ssd130x.h ****         else
 650              		.loc 13 244 42 view .LVU128
 651 00ba 48EA0101 		orr	r1, r8, r1
 244:../../libdaisy/src/dev/oled_ssd130x.h ****         else
 652              		.loc 13 244 13 view .LVU129
 653 00be 1975     		strb	r1, [r3, #20]
 654              	.L27:
 655              	.LBE485:
 656              	.LBE490:
 657              	.LBE500:
 658              		.loc 6 416 13 is_stmt 1 discriminator 2 view .LVU130
 659 00c0 0132     		adds	r2, r2, #1
 660              	.LVL38:
 661              		.loc 6 416 26 discriminator 2 view .LVU131
 662 00c2 0133     		adds	r3, r3, #1
 663 00c4 9642     		cmp	r6, r2
ARM GAS  /tmp/ccslSSf6.s 			page 37


 664 00c6 14D0     		beq	.L49
 665              	.LVL39:
 666              	.L31:
 417:../../libdaisy/src/hid/disp/display.h ****             {
 418:../../libdaisy/src/hid/disp/display.h ****                 if((b << j) & 0x8000)
 667              		.loc 6 418 23 is_stmt 0 view .LVU132
 668 00c8 04FA02F1 		lsl	r1, r4, r2
 669              		.loc 6 418 17 view .LVU133
 670 00cc 11F4004F 		tst	r1, #32768
 671              	.LBB501:
 672              	.LBB499:
 673              	.LBB498:
 241:../../libdaisy/src/dev/oled_ssd130x.h ****             return;
 674              		.loc 13 241 14 view .LVU134
 675 00d0 A3EB0001 		sub	r1, r3, r0
 676              	.LBE498:
 677              	.LBE499:
 678              	.LBE501:
 679              		.loc 6 418 17 view .LVU135
 680 00d4 EBD1     		bne	.L50
 681              	.LVL40:
 682              	.LBB502:
 683              	.LBI472:
  41:../../libdaisy/src/hid/disp/oled_display.h ****     {
 684              		.loc 5 41 10 is_stmt 1 view .LVU136
 685              	.LBB491:
 686              	.LBI473:
 239:../../libdaisy/src/dev/oled_ssd130x.h ****     {
 687              		.loc 13 239 10 view .LVU137
 688              	.LBB486:
 241:../../libdaisy/src/dev/oled_ssd130x.h ****             return;
 689              		.loc 13 241 9 is_stmt 0 view .LVU138
 690 00d6 7F29     		cmp	r1, #127
 691 00d8 F2D8     		bhi	.L27
 692 00da 3F2D     		cmp	r5, #63
 693 00dc F0D8     		bhi	.L27
 244:../../libdaisy/src/dev/oled_ssd130x.h ****         else
 694              		.loc 13 244 42 view .LVU139
 695 00de 197D     		ldrb	r1, [r3, #20]	@ zero_extendqisi2
 243:../../libdaisy/src/dev/oled_ssd130x.h ****             buffer_[x + (y / 8) * width] |= (1 << (y % 8));
 696              		.loc 13 243 9 view .LVU140
 697 00e0 002F     		cmp	r7, #0
 698 00e2 EAD0     		beq	.L46
 699              	.L29:
 700              	.LVL41:
 701              	.LBB481:
 702              	.LBI475:
 239:../../libdaisy/src/dev/oled_ssd130x.h ****     {
 703              		.loc 13 239 10 is_stmt 1 view .LVU141
 239:../../libdaisy/src/dev/oled_ssd130x.h ****     {
 704              		.loc 13 239 10 is_stmt 0 view .LVU142
 705              	.LBE481:
 706              	.LBE486:
 707              	.LBE491:
 708              	.LBE502:
 416:../../libdaisy/src/hid/disp/display.h ****             {
 709              		.loc 6 416 13 view .LVU143
ARM GAS  /tmp/ccslSSf6.s 			page 38


 710 00e4 0132     		adds	r2, r2, #1
 711              	.LVL42:
 712              	.LBB503:
 713              	.LBB492:
 714              	.LBB487:
 715              	.LBB482:
 716              	.LBB478:
 246:../../libdaisy/src/dev/oled_ssd130x.h ****     }
 717              		.loc 13 246 42 view .LVU144
 718 00e6 0CEA0101 		and	r1, ip, r1
 719 00ea 0133     		adds	r3, r3, #1
 720              	.LBE478:
 721              	.LBE482:
 722              	.LBE487:
 723              	.LBE492:
 724              	.LBE503:
 416:../../libdaisy/src/hid/disp/display.h ****             {
 725              		.loc 6 416 26 view .LVU145
 726 00ec 9642     		cmp	r6, r2
 727              	.LBB504:
 728              	.LBB493:
 729              	.LBB488:
 730              	.LBB483:
 731              	.LBB479:
 246:../../libdaisy/src/dev/oled_ssd130x.h ****     }
 732              		.loc 13 246 13 view .LVU146
 733 00ee D974     		strb	r1, [r3, #19]
 246:../../libdaisy/src/dev/oled_ssd130x.h ****     }
 734              		.loc 13 246 13 view .LVU147
 735              	.LBE479:
 736              	.LBE483:
 737              	.LBE488:
 738              	.LBE493:
 739              	.LBE504:
 416:../../libdaisy/src/hid/disp/display.h ****             {
 740              		.loc 6 416 13 is_stmt 1 view .LVU148
 741              	.LVL43:
 416:../../libdaisy/src/hid/disp/display.h ****             {
 742              		.loc 6 416 26 view .LVU149
 743 00f0 EAD1     		bne	.L31
 744              	.L49:
 416:../../libdaisy/src/hid/disp/display.h ****             {
 745              		.loc 6 416 26 is_stmt 0 view .LVU150
 746 00f2 B846     		mov	r8, r7
 747              	.LVL44:
 748              	.L30:
 413:../../libdaisy/src/hid/disp/display.h ****         {
 749              		.loc 6 413 9 is_stmt 1 view .LVU151
 413:../../libdaisy/src/hid/disp/display.h ****         {
 750              		.loc 6 413 22 view .LVU152
 751 00f4 F345     		cmp	fp, lr
 752 00f6 05F10105 		add	r5, r5, #1
 753 00fa C3D1     		bne	.L25
 754              	.LVL45:
 755              	.L24:
 756              	.LBB505:
 757              	.LBB506:
ARM GAS  /tmp/ccslSSf6.s 			page 39


 173:../../libdaisy/src/hid/disp/display.h ****         currentY_ = (y >= Height()) ? Height() - 1 : y;
 758              		.loc 6 173 33 is_stmt 0 view .LVU153
 759 00fc D9F80030 		ldr	r3, [r9]
 760              	.LBE506:
 761              	.LBE505:
 419:../../libdaisy/src/hid/disp/display.h ****                 {
 420:../../libdaisy/src/hid/disp/display.h ****                     ((ChildType*)(this))
 421:../../libdaisy/src/hid/disp/display.h ****                         ->ChildType::DrawPixel(
 422:../../libdaisy/src/hid/disp/display.h ****                             currentX_ + j, (currentY_ + i), on);
 423:../../libdaisy/src/hid/disp/display.h ****                 }
 424:../../libdaisy/src/hid/disp/display.h ****                 else
 425:../../libdaisy/src/hid/disp/display.h ****                 {
 426:../../libdaisy/src/hid/disp/display.h ****                     ((ChildType*)(this))
 427:../../libdaisy/src/hid/disp/display.h ****                         ->ChildType::DrawPixel(
 428:../../libdaisy/src/hid/disp/display.h ****                             currentX_ + j, (currentY_ + i), !on);
 429:../../libdaisy/src/hid/disp/display.h ****                 }
 430:../../libdaisy/src/hid/disp/display.h ****             }
 431:../../libdaisy/src/hid/disp/display.h ****         }
 432:../../libdaisy/src/hid/disp/display.h **** 
 433:../../libdaisy/src/hid/disp/display.h ****         // The current space is now taken
 434:../../libdaisy/src/hid/disp/display.h ****         SetCursor(currentX_ + font.FontWidth, currentY_);
 762              		.loc 6 434 18 view .LVU154
 763 0100 0AEB0604 		add	r4, r10, r6
 764 0104 2349     		ldr	r1, .L56
 765              	.LBB511:
 766              	.LBB507:
 173:../../libdaisy/src/hid/disp/display.h ****         currentY_ = (y >= Height()) ? Height() - 1 : y;
 767              		.loc 6 173 33 view .LVU155
 768 0106 DA68     		ldr	r2, [r3, #12]
 769              	.LBE507:
 770              	.LBE511:
 771              		.loc 6 434 18 view .LVU156
 772 0108 A4B2     		uxth	r4, r4
 773              	.LVL46:
 774              	.LBB512:
 775              	.LBI505:
 171:../../libdaisy/src/hid/disp/display.h ****     {
 776              		.loc 6 171 10 is_stmt 1 view .LVU157
 777              	.LBB508:
 173:../../libdaisy/src/hid/disp/display.h ****         currentY_ = (y >= Height()) ? Height() - 1 : y;
 778              		.loc 6 173 9 view .LVU158
 779 010a 8A42     		cmp	r2, r1
 780 010c 2DD1     		bne	.L51
 173:../../libdaisy/src/hid/disp/display.h ****         currentY_ = (y >= Height()) ? Height() - 1 : y;
 781              		.loc 6 173 33 is_stmt 0 view .LVU159
 782 010e 8020     		movs	r0, #128
 783              	.L32:
 173:../../libdaisy/src/hid/disp/display.h ****         currentY_ = (y >= Height()) ? Height() - 1 : y;
 784              		.loc 6 173 19 view .LVU160
 785 0110 8442     		cmp	r4, r0
 786 0112 1CD2     		bcs	.L52
 787              	.LVL47:
 788              	.L33:
 174:../../libdaisy/src/hid/disp/display.h ****     }
 789              		.loc 6 174 34 view .LVU161
 790 0114 9B68     		ldr	r3, [r3, #8]
 791 0116 204A     		ldr	r2, .L56+4
ARM GAS  /tmp/ccslSSf6.s 			page 40


 173:../../libdaisy/src/hid/disp/display.h ****         currentY_ = (y >= Height()) ? Height() - 1 : y;
 792              		.loc 6 173 19 view .LVU162
 793 0118 A9F80440 		strh	r4, [r9, #4]	@ movhi
 174:../../libdaisy/src/hid/disp/display.h ****     }
 794              		.loc 6 174 9 is_stmt 1 view .LVU163
 795 011c 9342     		cmp	r3, r2
 796 011e 21D1     		bne	.L53
 174:../../libdaisy/src/hid/disp/display.h ****     }
 797              		.loc 6 174 34 is_stmt 0 view .LVU164
 798 0120 4020     		movs	r0, #64
 799              	.L35:
 174:../../libdaisy/src/hid/disp/display.h ****     }
 800              		.loc 6 174 19 view .LVU165
 801 0122 019B     		ldr	r3, [sp, #4]
 802 0124 8342     		cmp	r3, r0
 803 0126 07D3     		bcc	.L36
 174:../../libdaisy/src/hid/disp/display.h ****     }
 804              		.loc 6 174 46 view .LVU166
 805 0128 D9F80030 		ldr	r3, [r9]
 806 012c 1A4A     		ldr	r2, .L56+4
 807 012e 9B68     		ldr	r3, [r3, #8]
 808 0130 9342     		cmp	r3, r2
 809 0132 29D1     		bne	.L54
 810 0134 3F23     		movs	r3, #63
 811 0136 0193     		str	r3, [sp, #4]
 812              	.LVL48:
 813              	.L36:
 174:../../libdaisy/src/hid/disp/display.h ****     }
 814              		.loc 6 174 19 view .LVU167
 815 0138 DDE90003 		ldrd	r0, r3, [sp]
 816 013c A9F80630 		strh	r3, [r9, #6]	@ movhi
 817              	.LVL49:
 174:../../libdaisy/src/hid/disp/display.h ****     }
 818              		.loc 6 174 19 view .LVU168
 819              	.LBE508:
 820              	.LBE512:
 435:../../libdaisy/src/hid/disp/display.h **** 
 436:../../libdaisy/src/hid/disp/display.h ****         // Return written char for validation
 437:../../libdaisy/src/hid/disp/display.h ****         return ch;
 438:../../libdaisy/src/hid/disp/display.h ****     }
 821              		.loc 6 438 5 view .LVU169
 822 0140 05B0     		add	sp, sp, #20
 823              		.cfi_remember_state
 824              		.cfi_def_cfa_offset 36
 825              		@ sp needed
 826 0142 BDE8F08F 		pop	{r4, r5, r6, r7, r8, r9, r10, fp, pc}
 827              	.LVL50:
 828              	.L20:
 829              		.cfi_restore_state
 402:../../libdaisy/src/hid/disp/display.h **** 
 830              		.loc 6 402 20 view .LVU170
 831 0146 0020     		movs	r0, #0
 832              		.loc 6 438 5 view .LVU171
 833 0148 05B0     		add	sp, sp, #20
 834              		.cfi_remember_state
 835              		.cfi_def_cfa_offset 36
 836              		@ sp needed
ARM GAS  /tmp/ccslSSf6.s 			page 41


 837 014a BDE8F08F 		pop	{r4, r5, r6, r7, r8, r9, r10, fp, pc}
 838              	.LVL51:
 839              	.L52:
 840              		.cfi_restore_state
 841              	.LBB513:
 842              	.LBB509:
 173:../../libdaisy/src/hid/disp/display.h ****         currentY_ = (y >= Height()) ? Height() - 1 : y;
 843              		.loc 6 173 44 view .LVU172
 844 014e DA68     		ldr	r2, [r3, #12]
 845 0150 1049     		ldr	r1, .L56
 846 0152 8A42     		cmp	r2, r1
 847 0154 11D1     		bne	.L55
 848 0156 7F24     		movs	r4, #127
 849              	.LVL52:
 173:../../libdaisy/src/hid/disp/display.h ****         currentY_ = (y >= Height()) ? Height() - 1 : y;
 850              		.loc 6 173 44 view .LVU173
 851 0158 DCE7     		b	.L33
 852              	.LVL53:
 853              	.L47:
 173:../../libdaisy/src/hid/disp/display.h ****         currentY_ = (y >= Height()) ? Height() - 1 : y;
 854              		.loc 6 173 44 view .LVU174
 855              	.LBE509:
 856              	.LBE513:
 405:../../libdaisy/src/hid/disp/display.h ****            || Height() < (currentY_ + font.FontHeight))
 857              		.loc 6 405 17 view .LVU175
 858 015a 9847     		blx	r3
 859              	.LVL54:
 405:../../libdaisy/src/hid/disp/display.h ****            || Height() < (currentY_ + font.FontHeight))
 860              		.loc 6 405 17 view .LVU176
 861 015c 6BE7     		b	.L19
 862              	.L48:
 406:../../libdaisy/src/hid/disp/display.h ****         {
 863              		.loc 6 406 21 discriminator 2 view .LVU177
 864 015e 4846     		mov	r0, r9
 865 0160 9847     		blx	r3
 866              	.LVL55:
 867 0162 76E7     		b	.L21
 868              	.LVL56:
 869              	.L53:
 870              	.LBB514:
 871              	.LBB510:
 174:../../libdaisy/src/hid/disp/display.h ****     }
 872              		.loc 6 174 33 view .LVU178
 873 0164 4846     		mov	r0, r9
 874 0166 9847     		blx	r3
 875              	.LVL57:
 876 0168 DBE7     		b	.L35
 877              	.LVL58:
 878              	.L51:
 173:../../libdaisy/src/hid/disp/display.h ****         currentY_ = (y >= Height()) ? Height() - 1 : y;
 879              		.loc 6 173 32 view .LVU179
 880 016a 4846     		mov	r0, r9
 881 016c 9047     		blx	r2
 882              	.LVL59:
 883 016e D9F80030 		ldr	r3, [r9]
 884 0172 CDE7     		b	.L32
 885              	.LVL60:
ARM GAS  /tmp/ccslSSf6.s 			page 42


 886              	.L22:
 173:../../libdaisy/src/hid/disp/display.h ****         currentY_ = (y >= Height()) ? Height() - 1 : y;
 887              		.loc 6 173 32 view .LVU180
 888 0174 B9F804A0 		ldrh	r10, [r9, #4]
 889 0178 C0E7     		b	.L24
 890              	.LVL61:
 891              	.L55:
 173:../../libdaisy/src/hid/disp/display.h ****         currentY_ = (y >= Height()) ? Height() - 1 : y;
 892              		.loc 6 173 43 view .LVU181
 893 017a 4846     		mov	r0, r9
 894 017c 9047     		blx	r2
 895              	.LVL62:
 896 017e 0138     		subs	r0, r0, #1
 897 0180 D9F80030 		ldr	r3, [r9]
 898 0184 84B2     		uxth	r4, r0
 899              	.LVL63:
 173:../../libdaisy/src/hid/disp/display.h ****         currentY_ = (y >= Height()) ? Height() - 1 : y;
 900              		.loc 6 173 43 view .LVU182
 901 0186 C5E7     		b	.L33
 902              	.L54:
 174:../../libdaisy/src/hid/disp/display.h ****     }
 903              		.loc 6 174 45 view .LVU183
 904 0188 4846     		mov	r0, r9
 905 018a 9847     		blx	r3
 906              	.LVL64:
 907 018c 0138     		subs	r0, r0, #1
 908 018e 83B2     		uxth	r3, r0
 909 0190 0193     		str	r3, [sp, #4]
 910              	.LVL65:
 174:../../libdaisy/src/hid/disp/display.h ****     }
 911              		.loc 6 174 45 view .LVU184
 912 0192 D1E7     		b	.L36
 913              	.L57:
 914              		.align	2
 915              	.L56:
 916 0194 00000000 		.word	_ZNK5daisy11OledDisplayINS_13SSD130xDriverILj128ELj64ENS_24SSD130x4WireSpiTransportEEEE5Widt
 917 0198 00000000 		.word	_ZNK5daisy11OledDisplayINS_13SSD130xDriverILj128ELj64ENS_24SSD130x4WireSpiTransportEEEE6Heig
 918              	.LBE510:
 919              	.LBE514:
 920              		.cfi_endproc
 921              	.LFE4691:
 923              		.section	.text._ZN5daisy11OledDisplayINS_13SSD130xDriverILj128ELj64ENS_24SSD130x4WireSpiTransportE
 924              		.align	1
 925              		.p2align 2,,3
 926              		.weak	_ZN5daisy11OledDisplayINS_13SSD130xDriverILj128ELj64ENS_24SSD130x4WireSpiTransportEEEE9DrawP
 927              		.syntax unified
 928              		.thumb
 929              		.thumb_func
 930              		.fpu fpv5-d16
 932              	_ZN5daisy11OledDisplayINS_13SSD130xDriverILj128ELj64ENS_24SSD130x4WireSpiTransportEEEE9DrawPixelEjj
 933              	.LVL66:
 934              	.LFB4729:
  41:../../libdaisy/src/hid/disp/oled_display.h ****     {
 935              		.loc 5 41 10 is_stmt 1 view -0
 936              		.cfi_startproc
 937              		@ args = 0, pretend = 0, frame = 0
 938              		@ frame_needed = 0, uses_anonymous_args = 0
ARM GAS  /tmp/ccslSSf6.s 			page 43


 939              		@ link register save eliminated.
 940              	.LBB519:
 941              	.LBI519:
 239:../../libdaisy/src/dev/oled_ssd130x.h ****     {
 942              		.loc 13 239 10 view .LVU186
 943              	.LBB520:
 241:../../libdaisy/src/dev/oled_ssd130x.h ****             return;
 944              		.loc 13 241 9 is_stmt 0 view .LVU187
 945 0000 7F29     		cmp	r1, #127
 946 0002 21D8     		bhi	.L62
 947 0004 3F2A     		cmp	r2, #63
 948 0006 1FD8     		bhi	.L62
 949              	.LBE520:
 950              	.LBE519:
  41:../../libdaisy/src/hid/disp/oled_display.h ****     {
 951              		.loc 5 41 10 view .LVU188
 952 0008 10B4     		push	{r4}
 953              		.cfi_def_cfa_offset 4
 954              		.cfi_offset 4, -4
 955              	.LBB525:
 956              	.LBB523:
 243:../../libdaisy/src/dev/oled_ssd130x.h ****             buffer_[x + (y / 8) * width] |= (1 << (y % 8));
 957              		.loc 13 243 9 view .LVU189
 958 000a 73B9     		cbnz	r3, .L65
 959              	.LVL67:
 960              	.LBB521:
 961              	.LBI521:
 239:../../libdaisy/src/dev/oled_ssd130x.h ****     {
 962              		.loc 13 239 10 is_stmt 1 view .LVU190
 963              	.LBB522:
 246:../../libdaisy/src/dev/oled_ssd130x.h ****     }
 964              		.loc 13 246 28 is_stmt 0 view .LVU191
 965 000c D308     		lsrs	r3, r2, #3
 966              	.LVL68:
 246:../../libdaisy/src/dev/oled_ssd130x.h ****     }
 967              		.loc 13 246 49 view .LVU192
 968 000e 0124     		movs	r4, #1
 246:../../libdaisy/src/dev/oled_ssd130x.h ****     }
 969              		.loc 13 246 55 view .LVU193
 970 0010 02F00702 		and	r2, r2, #7
 971              	.LVL69:
 246:../../libdaisy/src/dev/oled_ssd130x.h ****     }
 972              		.loc 13 246 42 view .LVU194
 973 0014 01EBC313 		add	r3, r1, r3, lsl #7
 246:../../libdaisy/src/dev/oled_ssd130x.h ****     }
 974              		.loc 13 246 49 view .LVU195
 975 0018 9440     		lsls	r4, r4, r2
 246:../../libdaisy/src/dev/oled_ssd130x.h ****     }
 976              		.loc 13 246 13 view .LVU196
 977 001a C118     		adds	r1, r0, r3
 978              	.LVL70:
 246:../../libdaisy/src/dev/oled_ssd130x.h ****     }
 979              		.loc 13 246 42 view .LVU197
 980 001c 0A7D     		ldrb	r2, [r1, #20]	@ zero_extendqisi2
 981 001e 22EA0402 		bic	r2, r2, r4
 246:../../libdaisy/src/dev/oled_ssd130x.h ****     }
 982              		.loc 13 246 13 view .LVU198
ARM GAS  /tmp/ccslSSf6.s 			page 44


 983 0022 0A75     		strb	r2, [r1, #20]
 984              	.LVL71:
 246:../../libdaisy/src/dev/oled_ssd130x.h ****     }
 985              		.loc 13 246 13 view .LVU199
 986              	.LBE522:
 987              	.LBE521:
 988              	.LBE523:
 989              	.LBE525:
  44:../../libdaisy/src/hid/disp/oled_display.h **** 
 990              		.loc 5 44 5 view .LVU200
 991 0024 5DF8044B 		ldr	r4, [sp], #4
 992              		.cfi_remember_state
 993              		.cfi_restore 4
 994              		.cfi_def_cfa_offset 0
 995 0028 7047     		bx	lr
 996              	.LVL72:
 997              	.L65:
 998              		.cfi_restore_state
 999              	.LBB526:
 1000              	.LBB524:
 244:../../libdaisy/src/dev/oled_ssd130x.h ****         else
 1001              		.loc 13 244 28 view .LVU201
 1002 002a D408     		lsrs	r4, r2, #3
 244:../../libdaisy/src/dev/oled_ssd130x.h ****         else
 1003              		.loc 13 244 48 view .LVU202
 1004 002c 0123     		movs	r3, #1
 1005              	.LVL73:
 244:../../libdaisy/src/dev/oled_ssd130x.h ****         else
 1006              		.loc 13 244 54 view .LVU203
 1007 002e 02F00702 		and	r2, r2, #7
 1008              	.LVL74:
 244:../../libdaisy/src/dev/oled_ssd130x.h ****         else
 1009              		.loc 13 244 42 view .LVU204
 1010 0032 01EBC414 		add	r4, r1, r4, lsl #7
 244:../../libdaisy/src/dev/oled_ssd130x.h ****         else
 1011              		.loc 13 244 48 view .LVU205
 1012 0036 03FA02F2 		lsl	r2, r3, r2
 244:../../libdaisy/src/dev/oled_ssd130x.h ****         else
 1013              		.loc 13 244 13 view .LVU206
 1014 003a 0119     		adds	r1, r0, r4
 1015              	.LVL75:
 244:../../libdaisy/src/dev/oled_ssd130x.h ****         else
 1016              		.loc 13 244 42 view .LVU207
 1017 003c 0B7D     		ldrb	r3, [r1, #20]	@ zero_extendqisi2
 1018 003e 1A43     		orrs	r2, r2, r3
 244:../../libdaisy/src/dev/oled_ssd130x.h ****         else
 1019              		.loc 13 244 13 view .LVU208
 1020 0040 0A75     		strb	r2, [r1, #20]
 1021              	.LBE524:
 1022              	.LBE526:
  44:../../libdaisy/src/hid/disp/oled_display.h **** 
 1023              		.loc 5 44 5 view .LVU209
 1024 0042 5DF8044B 		ldr	r4, [sp], #4
 1025              		.cfi_restore 4
 1026              		.cfi_def_cfa_offset 0
 1027 0046 7047     		bx	lr
 1028              	.LVL76:
ARM GAS  /tmp/ccslSSf6.s 			page 45


 1029              	.L62:
  44:../../libdaisy/src/hid/disp/oled_display.h **** 
 1030              		.loc 5 44 5 view .LVU210
 1031 0048 7047     		bx	lr
 1032              		.cfi_endproc
 1033              	.LFE4729:
 1035 004a 00BF     		.section	.text._ZN5daisy25OneBitGraphicsDisplayImplINS_11OledDisplayINS_13SSD130xDriverILj128ELj64
 1036              		.align	1
 1037              		.p2align 2,,3
 1038              		.weak	_ZN5daisy25OneBitGraphicsDisplayImplINS_11OledDisplayINS_13SSD130xDriverILj128ELj64ENS_24SSD
 1039              		.syntax unified
 1040              		.thumb
 1041              		.thumb_func
 1042              		.fpu fpv5-d16
 1044              	_ZN5daisy25OneBitGraphicsDisplayImplINS_11OledDisplayINS_13SSD130xDriverILj128ELj64ENS_24SSD130x4Wi
 1045              	.LVL77:
 1046              	.LFB4563:
 439:../../libdaisy/src/hid/disp/display.h **** 
 440:../../libdaisy/src/hid/disp/display.h ****     char WriteString(const char* str, FontDef font, bool on) override
 1047              		.loc 6 440 10 is_stmt 1 view -0
 1048              		.cfi_startproc
 1049              		@ args = 4, pretend = 0, frame = 32
 1050              		@ frame_needed = 0, uses_anonymous_args = 0
 1051              		.loc 6 440 10 is_stmt 0 view .LVU212
 1052 0000 2DE9F04F 		push	{r4, r5, r6, r7, r8, r9, r10, fp, lr}
 1053              		.cfi_def_cfa_offset 36
 1054              		.cfi_offset 4, -36
 1055              		.cfi_offset 5, -32
 1056              		.cfi_offset 6, -28
 1057              		.cfi_offset 7, -24
 1058              		.cfi_offset 8, -20
 1059              		.cfi_offset 9, -16
 1060              		.cfi_offset 10, -12
 1061              		.cfi_offset 11, -8
 1062              		.cfi_offset 14, -4
 1063 0004 89B0     		sub	sp, sp, #36
 1064              		.cfi_def_cfa_offset 72
 1065              		.loc 6 440 10 view .LVU213
 1066 0006 8B46     		mov	fp, r1
 441:../../libdaisy/src/hid/disp/display.h ****     {
 442:../../libdaisy/src/hid/disp/display.h ****         // Write until null-byte
 443:../../libdaisy/src/hid/disp/display.h ****         while(*str)
 1067              		.loc 6 443 9 is_stmt 1 view .LVU214
 1068 0008 91F80090 		ldrb	r9, [r1]	@ zero_extendqisi2
 440:../../libdaisy/src/hid/disp/display.h ****     {
 1069              		.loc 6 440 10 is_stmt 0 view .LVU215
 1070 000c 9DF84840 		ldrb	r4, [sp, #72]	@ zero_extendqisi2
 1071 0010 08A9     		add	r1, sp, #32
 1072              	.LVL78:
 440:../../libdaisy/src/hid/disp/display.h ****     {
 1073              		.loc 6 440 10 view .LVU216
 1074 0012 0494     		str	r4, [sp, #16]
 1075 0014 01E90C00 		stmdb	r1, {r2, r3}
 1076              		.loc 6 443 9 view .LVU217
 1077 0018 B9F1000F 		cmp	r9, #0
 1078 001c 00F0B780 		beq	.L90
 1079 0020 9DF81930 		ldrb	r3, [sp, #25]	@ zero_extendqisi2
ARM GAS  /tmp/ccslSSf6.s 			page 46


 1080 0024 8046     		mov	r8, r0
 1081 0026 9DF818A0 		ldrb	r10, [sp, #24]	@ zero_extendqisi2
 1082 002a 4D46     		mov	r5, r9
 1083 002c 0193     		str	r3, [sp, #4]
 1084 002e 079B     		ldr	r3, [sp, #28]
 1085 0030 0593     		str	r3, [sp, #20]
 1086              	.LVL79:
 1087              	.L91:
 1088              	.LBB555:
 1089              	.LBI555:
 396:../../libdaisy/src/hid/disp/display.h ****     {
 1090              		.loc 6 396 10 is_stmt 1 view .LVU218
 1091              	.LBB556:
 401:../../libdaisy/src/hid/disp/display.h ****             return 0;
 1092              		.loc 6 401 20 is_stmt 0 view .LVU219
 1093 0032 A5F12004 		sub	r4, r5, #32
 401:../../libdaisy/src/hid/disp/display.h ****             return 0;
 1094              		.loc 6 401 9 view .LVU220
 1095 0036 E3B2     		uxtb	r3, r4
 1096 0038 5E2B     		cmp	r3, #94
 1097 003a 00F2AC80 		bhi	.L72
 405:../../libdaisy/src/hid/disp/display.h ****            || Height() < (currentY_ + font.FontHeight))
 1098              		.loc 6 405 17 view .LVU221
 1099 003e D8F80030 		ldr	r3, [r8]
 1100 0042 654A     		ldr	r2, .L112
 1101 0044 DB68     		ldr	r3, [r3, #12]
 1102 0046 9342     		cmp	r3, r2
 1103 0048 40F0A780 		bne	.L105
 1104 004c 8020     		movs	r0, #128
 1105              	.L71:
 405:../../libdaisy/src/hid/disp/display.h ****            || Height() < (currentY_ + font.FontHeight))
 1106              		.loc 6 405 23 view .LVU222
 1107 004e B8F80430 		ldrh	r3, [r8, #4]
 405:../../libdaisy/src/hid/disp/display.h ****            || Height() < (currentY_ + font.FontHeight))
 1108              		.loc 6 405 33 view .LVU223
 1109 0052 5344     		add	r3, r3, r10
 406:../../libdaisy/src/hid/disp/display.h ****         {
 1110              		.loc 6 406 12 view .LVU224
 1111 0054 8342     		cmp	r3, r0
 1112 0056 00F39E80 		bgt	.L72
 406:../../libdaisy/src/hid/disp/display.h ****         {
 1113              		.loc 6 406 21 view .LVU225
 1114 005a D8F80030 		ldr	r3, [r8]
 1115 005e 5F4A     		ldr	r2, .L112+4
 1116 0060 9B68     		ldr	r3, [r3, #8]
 1117 0062 9342     		cmp	r3, r2
 1118 0064 40F09C80 		bne	.L106
 1119 0068 4020     		movs	r0, #64
 1120              	.L73:
 406:../../libdaisy/src/hid/disp/display.h ****         {
 1121              		.loc 6 406 27 view .LVU226
 1122 006a B8F80610 		ldrh	r1, [r8, #6]
 406:../../libdaisy/src/hid/disp/display.h ****         {
 1123              		.loc 6 406 37 view .LVU227
 1124 006e 019A     		ldr	r2, [sp, #4]
 406:../../libdaisy/src/hid/disp/display.h ****         {
 1125              		.loc 6 406 27 view .LVU228
ARM GAS  /tmp/ccslSSf6.s 			page 47


 1126 0070 0091     		str	r1, [sp]
 406:../../libdaisy/src/hid/disp/display.h ****         {
 1127              		.loc 6 406 37 view .LVU229
 1128 0072 8B18     		adds	r3, r1, r2
 406:../../libdaisy/src/hid/disp/display.h ****         {
 1129              		.loc 6 406 12 view .LVU230
 1130 0074 8342     		cmp	r3, r0
 1131 0076 00F38E80 		bgt	.L72
 1132              	.LVL80:
 413:../../libdaisy/src/hid/disp/display.h ****         {
 1133              		.loc 6 413 22 is_stmt 1 view .LVU231
 1134 007a 1046     		mov	r0, r2
 1135 007c 002A     		cmp	r2, #0
 1136 007e 00F09A80 		beq	.L74
 415:../../libdaisy/src/hid/disp/display.h ****             for(j = 0; j < font.FontWidth; j++)
 1137              		.loc 6 415 37 is_stmt 0 view .LVU232
 1138 0082 1346     		mov	r3, r2
 1139 0084 6FF00046 		mvn	r6, #-2147483648
 1140 0088 B8F80470 		ldrh	r7, [r8, #4]
 1141 008c 03FB04F3 		mul	r3, r3, r4
 1142 0090 059C     		ldr	r4, [sp, #20]
 1143 0092 BE46     		mov	lr, r7
 1144 0094 CDF80CB0 		str	fp, [sp, #12]
 1145 0098 1E44     		add	r6, r6, r3
 1146 009a A21E     		subs	r2, r4, #2
 1147 009c 0344     		add	r3, r3, r0
 1148 009e 5746     		mov	r7, r10
 1149 00a0 04EB4606 		add	r6, r4, r6, lsl #1
 1150 00a4 DDF81090 		ldr	r9, [sp, #16]
 1151 00a8 02EB4303 		add	r3, r2, r3, lsl #1
 1152 00ac 0295     		str	r5, [sp, #8]
 1153 00ae 9B46     		mov	fp, r3
 1154              	.LVL81:
 1155              	.L77:
 415:../../libdaisy/src/hid/disp/display.h ****             for(j = 0; j < font.FontWidth; j++)
 1156              		.loc 6 415 13 view .LVU233
 1157 00b0 36F802AF 		ldrh	r10, [r6, #2]!
 1158              	.LVL82:
 416:../../libdaisy/src/hid/disp/display.h ****             {
 1159              		.loc 6 416 26 is_stmt 1 view .LVU234
 1160 00b4 A7B3     		cbz	r7, .L82
 1161              	.LBB557:
 1162              	.LBB558:
 1163              	.LBB559:
 1164              	.LBB560:
 1165              	.LBB561:
 246:../../libdaisy/src/dev/oled_ssd130x.h ****     }
 1166              		.loc 13 246 49 is_stmt 0 view .LVU235
 1167 00b6 0124     		movs	r4, #1
 246:../../libdaisy/src/dev/oled_ssd130x.h ****     }
 1168              		.loc 13 246 55 view .LVU236
 1169 00b8 01F00702 		and	r2, r1, #7
 246:../../libdaisy/src/dev/oled_ssd130x.h ****     }
 1170              		.loc 13 246 28 view .LVU237
 1171 00bc C808     		lsrs	r0, r1, #3
 1172 00be 0EF11403 		add	r3, lr, #20
 246:../../libdaisy/src/dev/oled_ssd130x.h ****     }
ARM GAS  /tmp/ccslSSf6.s 			page 48


 1173              		.loc 13 246 49 view .LVU238
 1174 00c2 04FA02F2 		lsl	r2, r4, r2
 1175 00c6 7446     		mov	r4, lr
 1176 00c8 03EBC013 		add	r3, r3, r0, lsl #7
 1177              	.LBE561:
 1178              	.LBE560:
 1179              	.LBE559:
 1180              	.LBE558:
 1181              	.LBE557:
 416:../../libdaisy/src/hid/disp/display.h ****             {
 1182              		.loc 6 416 19 view .LVU239
 1183 00cc 0020     		movs	r0, #0
 1184              	.LBB579:
 1185              	.LBB574:
 1186              	.LBB569:
 1187              	.LBB565:
 1188              	.LBB562:
 246:../../libdaisy/src/dev/oled_ssd130x.h ****     }
 1189              		.loc 13 246 42 view .LVU240
 1190 00ce 52B2     		sxtb	r2, r2
 1191 00d0 4344     		add	r3, r3, r8
 1192 00d2 6FEA020C 		mvn	ip, r2
 1193 00d6 0EE0     		b	.L83
 1194              	.LVL83:
 1195              	.L107:
 246:../../libdaisy/src/dev/oled_ssd130x.h ****     }
 1196              		.loc 13 246 42 view .LVU241
 1197              	.LBE562:
 1198              	.LBE565:
 1199              	.LBE569:
 1200              	.LBE574:
 1201              	.LBE579:
 1202              	.LBB580:
 1203              	.LBI580:
  41:../../libdaisy/src/hid/disp/oled_display.h ****     {
 1204              		.loc 5 41 10 is_stmt 1 view .LVU242
 1205              	.LBB581:
 1206              	.LBI581:
 239:../../libdaisy/src/dev/oled_ssd130x.h ****     {
 1207              		.loc 13 239 10 view .LVU243
 1208              	.LBB582:
 241:../../libdaisy/src/dev/oled_ssd130x.h ****             return;
 1209              		.loc 13 241 9 is_stmt 0 view .LVU244
 1210 00d8 7F2C     		cmp	r4, #127
 1211 00da 07D8     		bhi	.L79
 1212 00dc 3F29     		cmp	r1, #63
 1213 00de 05D8     		bhi	.L79
 244:../../libdaisy/src/dev/oled_ssd130x.h ****         else
 1214              		.loc 13 244 42 view .LVU245
 1215 00e0 1D78     		ldrb	r5, [r3]	@ zero_extendqisi2
 243:../../libdaisy/src/dev/oled_ssd130x.h ****             buffer_[x + (y / 8) * width] |= (1 << (y % 8));
 1216              		.loc 13 243 9 view .LVU246
 1217 00e2 B9F1000F 		cmp	r9, #0
 1218 00e6 12D0     		beq	.L81
 1219              	.L104:
 243:../../libdaisy/src/dev/oled_ssd130x.h ****             buffer_[x + (y / 8) * width] |= (1 << (y % 8));
 1220              		.loc 13 243 9 view .LVU247
ARM GAS  /tmp/ccslSSf6.s 			page 49


 1221              	.LBE582:
 1222              	.LBE581:
 1223              	.LBE580:
 1224              	.LBB583:
 1225              	.LBB575:
 1226              	.LBB570:
 244:../../libdaisy/src/dev/oled_ssd130x.h ****         else
 1227              		.loc 13 244 42 view .LVU248
 1228 00e8 1543     		orrs	r5, r5, r2
 244:../../libdaisy/src/dev/oled_ssd130x.h ****         else
 1229              		.loc 13 244 13 view .LVU249
 1230 00ea 1D70     		strb	r5, [r3]
 1231              	.L79:
 1232              	.LBE570:
 1233              	.LBE575:
 1234              	.LBE583:
 416:../../libdaisy/src/hid/disp/display.h ****             {
 1235              		.loc 6 416 13 is_stmt 1 view .LVU250
 1236 00ec 0130     		adds	r0, r0, #1
 1237              	.LVL84:
 416:../../libdaisy/src/hid/disp/display.h ****             {
 1238              		.loc 6 416 26 view .LVU251
 1239 00ee 0133     		adds	r3, r3, #1
 1240 00f0 0134     		adds	r4, r4, #1
 1241 00f2 B842     		cmp	r0, r7
 1242 00f4 14D0     		beq	.L82
 1243              	.LVL85:
 1244              	.L83:
 418:../../libdaisy/src/hid/disp/display.h ****                 {
 1245              		.loc 6 418 23 is_stmt 0 view .LVU252
 1246 00f6 0AFA00F5 		lsl	r5, r10, r0
 418:../../libdaisy/src/hid/disp/display.h ****                 {
 1247              		.loc 6 418 17 view .LVU253
 1248 00fa 2D04     		lsls	r5, r5, #16
 1249 00fc ECD4     		bmi	.L107
 1250              	.LVL86:
 1251              	.LBB584:
 1252              	.LBI557:
  41:../../libdaisy/src/hid/disp/oled_display.h ****     {
 1253              		.loc 5 41 10 is_stmt 1 view .LVU254
 1254              	.LBB576:
 1255              	.LBI558:
 239:../../libdaisy/src/dev/oled_ssd130x.h ****     {
 1256              		.loc 13 239 10 view .LVU255
 1257              	.LBB571:
 241:../../libdaisy/src/dev/oled_ssd130x.h ****             return;
 1258              		.loc 13 241 9 is_stmt 0 view .LVU256
 1259 00fe 7F2C     		cmp	r4, #127
 1260 0100 F4D8     		bhi	.L79
 1261 0102 3F29     		cmp	r1, #63
 1262 0104 F2D8     		bhi	.L79
 244:../../libdaisy/src/dev/oled_ssd130x.h ****         else
 1263              		.loc 13 244 42 view .LVU257
 1264 0106 1D78     		ldrb	r5, [r3]	@ zero_extendqisi2
 243:../../libdaisy/src/dev/oled_ssd130x.h ****             buffer_[x + (y / 8) * width] |= (1 << (y % 8));
 1265              		.loc 13 243 9 view .LVU258
 1266 0108 B9F1000F 		cmp	r9, #0
ARM GAS  /tmp/ccslSSf6.s 			page 50


 1267 010c ECD0     		beq	.L104
 1268              	.L81:
 1269              	.LVL87:
 1270              	.LBB566:
 1271              	.LBI560:
 239:../../libdaisy/src/dev/oled_ssd130x.h ****     {
 1272              		.loc 13 239 10 is_stmt 1 view .LVU259
 239:../../libdaisy/src/dev/oled_ssd130x.h ****     {
 1273              		.loc 13 239 10 is_stmt 0 view .LVU260
 1274              	.LBE566:
 1275              	.LBE571:
 1276              	.LBE576:
 1277              	.LBE584:
 416:../../libdaisy/src/hid/disp/display.h ****             {
 1278              		.loc 6 416 13 view .LVU261
 1279 010e 0130     		adds	r0, r0, #1
 1280              	.LVL88:
 1281              	.LBB585:
 1282              	.LBB577:
 1283              	.LBB572:
 1284              	.LBB567:
 1285              	.LBB563:
 246:../../libdaisy/src/dev/oled_ssd130x.h ****     }
 1286              		.loc 13 246 42 view .LVU262
 1287 0110 0CEA0505 		and	r5, ip, r5
 1288 0114 0133     		adds	r3, r3, #1
 1289 0116 0134     		adds	r4, r4, #1
 1290              	.LBE563:
 1291              	.LBE567:
 1292              	.LBE572:
 1293              	.LBE577:
 1294              	.LBE585:
 416:../../libdaisy/src/hid/disp/display.h ****             {
 1295              		.loc 6 416 26 view .LVU263
 1296 0118 B842     		cmp	r0, r7
 1297              	.LBB586:
 1298              	.LBB578:
 1299              	.LBB573:
 1300              	.LBB568:
 1301              	.LBB564:
 246:../../libdaisy/src/dev/oled_ssd130x.h ****     }
 1302              		.loc 13 246 13 view .LVU264
 1303 011a 03F8015C 		strb	r5, [r3, #-1]
 246:../../libdaisy/src/dev/oled_ssd130x.h ****     }
 1304              		.loc 13 246 13 view .LVU265
 1305              	.LBE564:
 1306              	.LBE568:
 1307              	.LBE573:
 1308              	.LBE578:
 1309              	.LBE586:
 416:../../libdaisy/src/hid/disp/display.h ****             {
 1310              		.loc 6 416 13 is_stmt 1 view .LVU266
 1311              	.LVL89:
 416:../../libdaisy/src/hid/disp/display.h ****             {
 1312              		.loc 6 416 26 view .LVU267
 1313 011e EAD1     		bne	.L83
 1314              	.LVL90:
ARM GAS  /tmp/ccslSSf6.s 			page 51


 1315              	.L82:
 413:../../libdaisy/src/hid/disp/display.h ****         {
 1316              		.loc 6 413 9 view .LVU268
 413:../../libdaisy/src/hid/disp/display.h ****         {
 1317              		.loc 6 413 22 view .LVU269
 1318 0120 5E45     		cmp	r6, fp
 1319 0122 01F10101 		add	r1, r1, #1
 1320 0126 C3D1     		bne	.L77
 1321 0128 BA46     		mov	r10, r7
 1322              	.LVL91:
 413:../../libdaisy/src/hid/disp/display.h ****         {
 1323              		.loc 6 413 22 is_stmt 0 view .LVU270
 1324 012a 029D     		ldr	r5, [sp, #8]
 1325 012c 7746     		mov	r7, lr
 1326 012e DDF80CB0 		ldr	fp, [sp, #12]
 1327              	.L76:
 1328              	.LBB587:
 1329              	.LBB588:
 173:../../libdaisy/src/hid/disp/display.h ****         currentY_ = (y >= Height()) ? Height() - 1 : y;
 1330              		.loc 6 173 33 view .LVU271
 1331 0132 D8F80020 		ldr	r2, [r8]
 1332              	.LBE588:
 1333              	.LBE587:
 434:../../libdaisy/src/hid/disp/display.h **** 
 1334              		.loc 6 434 18 view .LVU272
 1335 0136 5744     		add	r7, r7, r10
 1336 0138 2749     		ldr	r1, .L112
 1337              	.LBB592:
 1338              	.LBB589:
 173:../../libdaisy/src/hid/disp/display.h ****         currentY_ = (y >= Height()) ? Height() - 1 : y;
 1339              		.loc 6 173 33 view .LVU273
 1340 013a D368     		ldr	r3, [r2, #12]
 1341              	.LBE589:
 1342              	.LBE592:
 434:../../libdaisy/src/hid/disp/display.h **** 
 1343              		.loc 6 434 18 view .LVU274
 1344 013c BFB2     		uxth	r7, r7
 1345              	.LVL92:
 1346              	.LBB593:
 1347              	.LBI587:
 171:../../libdaisy/src/hid/disp/display.h ****     {
 1348              		.loc 6 171 10 is_stmt 1 view .LVU275
 1349              	.LBB590:
 173:../../libdaisy/src/hid/disp/display.h ****         currentY_ = (y >= Height()) ? Height() - 1 : y;
 1350              		.loc 6 173 9 view .LVU276
 1351 013e 8B42     		cmp	r3, r1
 1352 0140 34D1     		bne	.L108
 173:../../libdaisy/src/hid/disp/display.h ****         currentY_ = (y >= Height()) ? Height() - 1 : y;
 1353              		.loc 6 173 33 is_stmt 0 view .LVU277
 1354 0142 8020     		movs	r0, #128
 1355              	.L84:
 173:../../libdaisy/src/hid/disp/display.h ****         currentY_ = (y >= Height()) ? Height() - 1 : y;
 1356              		.loc 6 173 19 view .LVU278
 1357 0144 8742     		cmp	r7, r0
 1358 0146 04D3     		bcc	.L85
 173:../../libdaisy/src/hid/disp/display.h ****         currentY_ = (y >= Height()) ? Height() - 1 : y;
 1359              		.loc 6 173 44 view .LVU279
ARM GAS  /tmp/ccslSSf6.s 			page 52


 1360 0148 D368     		ldr	r3, [r2, #12]
 1361 014a 2349     		ldr	r1, .L112
 1362 014c 8B42     		cmp	r3, r1
 1363 014e 3BD1     		bne	.L109
 1364 0150 7F27     		movs	r7, #127
 1365              	.LVL93:
 1366              	.L85:
 174:../../libdaisy/src/hid/disp/display.h ****     }
 1367              		.loc 6 174 34 view .LVU280
 1368 0152 9368     		ldr	r3, [r2, #8]
 1369 0154 214A     		ldr	r2, .L112+4
 173:../../libdaisy/src/hid/disp/display.h ****         currentY_ = (y >= Height()) ? Height() - 1 : y;
 1370              		.loc 6 173 19 view .LVU281
 1371 0156 A8F80470 		strh	r7, [r8, #4]	@ movhi
 174:../../libdaisy/src/hid/disp/display.h ****     }
 1372              		.loc 6 174 9 is_stmt 1 view .LVU282
 1373 015a 9342     		cmp	r3, r2
 1374 015c 23D1     		bne	.L110
 174:../../libdaisy/src/hid/disp/display.h ****     }
 1375              		.loc 6 174 34 is_stmt 0 view .LVU283
 1376 015e 4020     		movs	r0, #64
 1377              	.L87:
 174:../../libdaisy/src/hid/disp/display.h ****     }
 1378              		.loc 6 174 19 view .LVU284
 1379 0160 009B     		ldr	r3, [sp]
 1380 0162 8342     		cmp	r3, r0
 1381 0164 07D3     		bcc	.L88
 174:../../libdaisy/src/hid/disp/display.h ****     }
 1382              		.loc 6 174 46 view .LVU285
 1383 0166 D8F80030 		ldr	r3, [r8]
 1384 016a 1C4A     		ldr	r2, .L112+4
 1385 016c 9B68     		ldr	r3, [r3, #8]
 1386 016e 9342     		cmp	r3, r2
 1387 0170 24D1     		bne	.L111
 1388 0172 3F23     		movs	r3, #63
 1389 0174 0093     		str	r3, [sp]
 1390              	.LVL94:
 1391              	.L88:
 174:../../libdaisy/src/hid/disp/display.h ****     }
 1392              		.loc 6 174 19 view .LVU286
 1393 0176 009B     		ldr	r3, [sp]
 1394 0178 A8F80630 		strh	r3, [r8, #6]	@ movhi
 1395              	.LVL95:
 1396              	.L70:
 174:../../libdaisy/src/hid/disp/display.h ****     }
 1397              		.loc 6 174 19 view .LVU287
 1398              	.LBE590:
 1399              	.LBE593:
 1400              	.LBE556:
 1401              	.LBE555:
 444:../../libdaisy/src/hid/disp/display.h ****         {
 445:../../libdaisy/src/hid/disp/display.h ****             if(((ChildType*)(this))->ChildType::WriteChar(*str, font, on)
 446:../../libdaisy/src/hid/disp/display.h ****                != *str)
 1402              		.loc 6 446 16 view .LVU288
 1403 017c 9BF80000 		ldrb	r0, [fp]	@ zero_extendqisi2
 445:../../libdaisy/src/hid/disp/display.h ****                != *str)
 1404              		.loc 6 445 13 view .LVU289
ARM GAS  /tmp/ccslSSf6.s 			page 53


 1405 0180 A842     		cmp	r0, r5
 1406 0182 05D1     		bne	.L68
 1407              	.LVL96:
 443:../../libdaisy/src/hid/disp/display.h ****         {
 1408              		.loc 6 443 9 is_stmt 1 view .LVU290
 1409 0184 1BF8015F 		ldrb	r5, [fp, #1]!	@ zero_extendqisi2
 1410              	.LVL97:
 443:../../libdaisy/src/hid/disp/display.h ****         {
 1411              		.loc 6 443 9 is_stmt 0 view .LVU291
 1412 0188 002D     		cmp	r5, #0
 1413 018a 7FF452AF 		bne	.L91
 1414              	.LVL98:
 1415              	.L90:
 1416              	.LBB597:
 1417              	.LBB595:
 402:../../libdaisy/src/hid/disp/display.h **** 
 1418              		.loc 6 402 20 view .LVU292
 1419 018e 0020     		movs	r0, #0
 1420              	.LVL99:
 1421              	.L68:
 402:../../libdaisy/src/hid/disp/display.h **** 
 1422              		.loc 6 402 20 view .LVU293
 1423              	.LBE595:
 1424              	.LBE597:
 447:../../libdaisy/src/hid/disp/display.h ****             {
 448:../../libdaisy/src/hid/disp/display.h ****                 // Char could not be written
 449:../../libdaisy/src/hid/disp/display.h ****                 return *str;
 450:../../libdaisy/src/hid/disp/display.h ****             }
 451:../../libdaisy/src/hid/disp/display.h **** 
 452:../../libdaisy/src/hid/disp/display.h ****             // Next char
 453:../../libdaisy/src/hid/disp/display.h ****             str++;
 454:../../libdaisy/src/hid/disp/display.h ****         }
 455:../../libdaisy/src/hid/disp/display.h **** 
 456:../../libdaisy/src/hid/disp/display.h ****         // Everything ok
 457:../../libdaisy/src/hid/disp/display.h ****         return *str;
 458:../../libdaisy/src/hid/disp/display.h ****     }
 1425              		.loc 6 458 5 view .LVU294
 1426 0190 09B0     		add	sp, sp, #36
 1427              		.cfi_remember_state
 1428              		.cfi_def_cfa_offset 36
 1429              		@ sp needed
 1430 0192 BDE8F08F 		pop	{r4, r5, r6, r7, r8, r9, r10, fp, pc}
 1431              	.LVL100:
 1432              	.L72:
 1433              		.cfi_restore_state
 1434              	.LBB598:
 1435              	.LBB596:
 402:../../libdaisy/src/hid/disp/display.h **** 
 1436              		.loc 6 402 20 view .LVU295
 1437 0196 0025     		movs	r5, #0
 1438              	.LVL101:
 402:../../libdaisy/src/hid/disp/display.h **** 
 1439              		.loc 6 402 20 view .LVU296
 1440 0198 F0E7     		b	.L70
 1441              	.LVL102:
 1442              	.L105:
 405:../../libdaisy/src/hid/disp/display.h ****            || Height() < (currentY_ + font.FontHeight))
ARM GAS  /tmp/ccslSSf6.s 			page 54


 1443              		.loc 6 405 17 view .LVU297
 1444 019a 4046     		mov	r0, r8
 1445 019c 9847     		blx	r3
 1446              	.LVL103:
 1447 019e 56E7     		b	.L71
 1448              	.L106:
 406:../../libdaisy/src/hid/disp/display.h ****         {
 1449              		.loc 6 406 21 view .LVU298
 1450 01a0 4046     		mov	r0, r8
 1451 01a2 9847     		blx	r3
 1452              	.LVL104:
 1453 01a4 61E7     		b	.L73
 1454              	.LVL105:
 1455              	.L110:
 1456              	.LBB594:
 1457              	.LBB591:
 174:../../libdaisy/src/hid/disp/display.h ****     }
 1458              		.loc 6 174 33 view .LVU299
 1459 01a6 4046     		mov	r0, r8
 1460 01a8 9847     		blx	r3
 1461              	.LVL106:
 1462 01aa D9E7     		b	.L87
 1463              	.LVL107:
 1464              	.L108:
 173:../../libdaisy/src/hid/disp/display.h ****         currentY_ = (y >= Height()) ? Height() - 1 : y;
 1465              		.loc 6 173 32 view .LVU300
 1466 01ac 4046     		mov	r0, r8
 1467 01ae 9847     		blx	r3
 1468              	.LVL108:
 1469 01b0 D8F80020 		ldr	r2, [r8]
 1470 01b4 C6E7     		b	.L84
 1471              	.LVL109:
 1472              	.L74:
 173:../../libdaisy/src/hid/disp/display.h ****         currentY_ = (y >= Height()) ? Height() - 1 : y;
 1473              		.loc 6 173 32 view .LVU301
 1474 01b6 B8F80470 		ldrh	r7, [r8, #4]
 1475 01ba BAE7     		b	.L76
 1476              	.LVL110:
 1477              	.L111:
 174:../../libdaisy/src/hid/disp/display.h ****     }
 1478              		.loc 6 174 45 view .LVU302
 1479 01bc 4046     		mov	r0, r8
 1480 01be 9847     		blx	r3
 1481              	.LVL111:
 1482 01c0 0138     		subs	r0, r0, #1
 1483 01c2 83B2     		uxth	r3, r0
 1484 01c4 0093     		str	r3, [sp]
 1485              	.LVL112:
 174:../../libdaisy/src/hid/disp/display.h ****     }
 1486              		.loc 6 174 45 view .LVU303
 1487 01c6 D6E7     		b	.L88
 1488              	.LVL113:
 1489              	.L109:
 173:../../libdaisy/src/hid/disp/display.h ****         currentY_ = (y >= Height()) ? Height() - 1 : y;
 1490              		.loc 6 173 43 view .LVU304
 1491 01c8 4046     		mov	r0, r8
 1492 01ca 9847     		blx	r3
ARM GAS  /tmp/ccslSSf6.s 			page 55


 1493              	.LVL114:
 1494 01cc 0138     		subs	r0, r0, #1
 1495 01ce D8F80020 		ldr	r2, [r8]
 1496 01d2 87B2     		uxth	r7, r0
 1497              	.LVL115:
 173:../../libdaisy/src/hid/disp/display.h ****         currentY_ = (y >= Height()) ? Height() - 1 : y;
 1498              		.loc 6 173 43 view .LVU305
 1499 01d4 BDE7     		b	.L85
 1500              	.L113:
 1501 01d6 00BF     		.align	2
 1502              	.L112:
 1503 01d8 00000000 		.word	_ZNK5daisy11OledDisplayINS_13SSD130xDriverILj128ELj64ENS_24SSD130x4WireSpiTransportEEEE5Widt
 1504 01dc 00000000 		.word	_ZNK5daisy11OledDisplayINS_13SSD130xDriverILj128ELj64ENS_24SSD130x4WireSpiTransportEEEE6Heig
 1505              	.LBE591:
 1506              	.LBE594:
 1507              	.LBE596:
 1508              	.LBE598:
 1509              		.cfi_endproc
 1510              	.LFE4563:
 1512              		.section	.text._ZN5daisy25OneBitGraphicsDisplayImplINS_11OledDisplayINS_13SSD130xDriverILj128ELj64
 1513              		.align	1
 1514              		.p2align 2,,3
 1515              		.weak	_ZN5daisy25OneBitGraphicsDisplayImplINS_11OledDisplayINS_13SSD130xDriverILj128ELj64ENS_24SSD
 1516              		.syntax unified
 1517              		.thumb
 1518              		.thumb_func
 1519              		.fpu fpv5-d16
 1521              	_ZN5daisy25OneBitGraphicsDisplayImplINS_11OledDisplayINS_13SSD130xDriverILj128ELj64ENS_24SSD130x4Wi
 1522              	.LVL116:
 1523              	.LFB4832:
 221:../../libdaisy/src/hid/disp/display.h ****                   uint_fast8_t y1,
 1524              		.loc 6 221 10 is_stmt 1 view -0
 1525              		.cfi_startproc
 1526              		@ args = 8, pretend = 0, frame = 8
 1527              		@ frame_needed = 0, uses_anonymous_args = 0
 221:../../libdaisy/src/hid/disp/display.h ****                   uint_fast8_t y1,
 1528              		.loc 6 221 10 is_stmt 0 view .LVU307
 1529 0000 2DE9F04F 		push	{r4, r5, r6, r7, r8, r9, r10, fp, lr}
 1530              		.cfi_def_cfa_offset 36
 1531              		.cfi_offset 4, -36
 1532              		.cfi_offset 5, -32
 1533              		.cfi_offset 6, -28
 1534              		.cfi_offset 7, -24
 1535              		.cfi_offset 8, -20
 1536              		.cfi_offset 9, -16
 1537              		.cfi_offset 10, -12
 1538              		.cfi_offset 11, -8
 1539              		.cfi_offset 14, -4
 1540 0004 83B0     		sub	sp, sp, #12
 1541              		.cfi_def_cfa_offset 48
 227:../../libdaisy/src/hid/disp/display.h ****         int_fast16_t deltaY = abs((int_fast16_t)y2 - (int_fast16_t)y1);
 1542              		.loc 6 227 52 view .LVU308
 1543 0006 5E1A     		subs	r6, r3, r1
 221:../../libdaisy/src/hid/disp/display.h ****                   uint_fast8_t y1,
 1544              		.loc 6 221 10 view .LVU309
 1545 0008 0C9F     		ldr	r7, [sp, #48]
 1546 000a 9DF83480 		ldrb	r8, [sp, #52]	@ zero_extendqisi2
ARM GAS  /tmp/ccslSSf6.s 			page 56


 228:../../libdaisy/src/hid/disp/display.h ****         int_fast16_t signX  = ((x1 < x2) ? 1 : -1);
 1547              		.loc 6 228 52 view .LVU310
 1548 000e A7EB020E 		sub	lr, r7, r2
 228:../../libdaisy/src/hid/disp/display.h ****         int_fast16_t signX  = ((x1 < x2) ? 1 : -1);
 1549              		.loc 6 228 22 view .LVU311
 1550 0012 BEF1000F 		cmp	lr, #0
 1551 0016 B8BF     		it	lt
 1552 0018 CEF1000E 		rsblt	lr, lr, #0
 229:../../libdaisy/src/hid/disp/display.h ****         int_fast16_t signY  = ((y1 < y2) ? 1 : -1);
 1553              		.loc 6 229 22 view .LVU312
 1554 001c 8B42     		cmp	r3, r1
 1555 001e 8CBF     		ite	hi
 1556 0020 4FF00109 		movhi	r9, #1
 1557 0024 4FF0FF39 		movls	r9, #-1
 227:../../libdaisy/src/hid/disp/display.h ****         int_fast16_t deltaY = abs((int_fast16_t)y2 - (int_fast16_t)y1);
 1558              		.loc 6 227 22 view .LVU313
 1559 0028 002E     		cmp	r6, #0
 1560 002a B8BF     		it	lt
 1561 002c 7642     		rsblt	r6, r6, #0
 1562              	.LVL117:
 230:../../libdaisy/src/hid/disp/display.h ****         int_fast16_t error  = deltaX - deltaY;
 1563              		.loc 6 230 22 view .LVU314
 1564 002e 9742     		cmp	r7, r2
 231:../../libdaisy/src/hid/disp/display.h ****         int_fast16_t error2;
 1565              		.loc 6 231 22 view .LVU315
 1566 0030 A6EB0E04 		sub	r4, r6, lr
 230:../../libdaisy/src/hid/disp/display.h ****         int_fast16_t error  = deltaX - deltaY;
 1567              		.loc 6 230 22 view .LVU316
 1568 0034 4FD8     		bhi	.L116
 1569              	.LVL118:
 1570              	.LBB615:
 1571              	.LBI615:
  41:../../libdaisy/src/hid/disp/oled_display.h ****     {
 1572              		.loc 5 41 10 is_stmt 1 discriminator 4 view .LVU317
 1573              	.LBB616:
 1574              	.LBI616:
 239:../../libdaisy/src/dev/oled_ssd130x.h ****     {
 1575              		.loc 13 239 10 discriminator 4 view .LVU318
 1576              	.LBE616:
 1577              	.LBE615:
 230:../../libdaisy/src/hid/disp/display.h ****         int_fast16_t error  = deltaX - deltaY;
 1578              		.loc 6 230 22 is_stmt 0 discriminator 4 view .LVU319
 1579 0036 4FF0FF35 		mov	r5, #-1
 1580              	.LBB632:
 1581              	.LBB626:
 1582              	.LBB617:
 241:../../libdaisy/src/dev/oled_ssd130x.h ****             return;
 1583              		.loc 13 241 9 discriminator 4 view .LVU320
 1584 003a 7F2B     		cmp	r3, #127
 1585              	.LBE617:
 1586              	.LBE626:
 1587              	.LBE632:
 230:../../libdaisy/src/hid/disp/display.h ****         int_fast16_t error  = deltaX - deltaY;
 1588              		.loc 6 230 22 discriminator 4 view .LVU321
 1589 003c 0195     		str	r5, [sp, #4]
 1590              	.LBB633:
 1591              	.LBB627:
ARM GAS  /tmp/ccslSSf6.s 			page 57


 1592              	.LBB622:
 241:../../libdaisy/src/dev/oled_ssd130x.h ****             return;
 1593              		.loc 13 241 9 discriminator 4 view .LVU322
 1594 003e 14D8     		bhi	.L117
 1595 0040 3F2F     		cmp	r7, #63
 1596 0042 12D8     		bhi	.L117
 1597              	.LVL119:
 1598              	.L128:
 244:../../libdaisy/src/dev/oled_ssd130x.h ****         else
 1599              		.loc 13 244 28 view .LVU323
 1600 0044 FD08     		lsrs	r5, r7, #3
 244:../../libdaisy/src/dev/oled_ssd130x.h ****         else
 1601              		.loc 13 244 54 view .LVU324
 1602 0046 07F0070C 		and	ip, r7, #7
 244:../../libdaisy/src/dev/oled_ssd130x.h ****         else
 1603              		.loc 13 244 48 view .LVU325
 1604 004a 4FF0010A 		mov	r10, #1
 244:../../libdaisy/src/dev/oled_ssd130x.h ****         else
 1605              		.loc 13 244 42 view .LVU326
 1606 004e 03EBC515 		add	r5, r3, r5, lsl #7
 243:../../libdaisy/src/dev/oled_ssd130x.h ****             buffer_[x + (y / 8) * width] |= (1 << (y % 8));
 1607              		.loc 13 243 9 view .LVU327
 1608 0052 B8F1000F 		cmp	r8, #0
 1609 0056 45D0     		beq	.L118
 244:../../libdaisy/src/dev/oled_ssd130x.h ****         else
 1610              		.loc 13 244 13 view .LVU328
 1611 0058 0544     		add	r5, r5, r0
 244:../../libdaisy/src/dev/oled_ssd130x.h ****         else
 1612              		.loc 13 244 48 view .LVU329
 1613 005a 0AFA0CFC 		lsl	ip, r10, ip
 244:../../libdaisy/src/dev/oled_ssd130x.h ****         else
 1614              		.loc 13 244 42 view .LVU330
 1615 005e 95F814A0 		ldrb	r10, [r5, #20]	@ zero_extendqisi2
 1616 0062 4CEA0A0C 		orr	ip, ip, r10
 244:../../libdaisy/src/dev/oled_ssd130x.h ****         else
 1617              		.loc 13 244 13 view .LVU331
 1618 0066 85F814C0 		strb	ip, [r5, #20]
 1619              	.L117:
 1620              	.LVL120:
 244:../../libdaisy/src/dev/oled_ssd130x.h ****         else
 1621              		.loc 13 244 13 view .LVU332
 1622              	.LBE622:
 1623              	.LBE627:
 1624              	.LBE633:
 239:../../libdaisy/src/hid/disp/display.h ****         {
 1625              		.loc 6 239 26 is_stmt 1 view .LVU333
 1626 006a 9742     		cmp	r7, r2
 1627 006c 01D1     		bne	.L121
 1628              	.L140:
 239:../../libdaisy/src/hid/disp/display.h ****         {
 1629              		.loc 6 239 26 is_stmt 0 view .LVU334
 1630 006e 8B42     		cmp	r3, r1
 1631 0070 29D0     		beq	.L114
 1632              	.L121:
 1633              	.LVL121:
 239:../../libdaisy/src/hid/disp/display.h ****         {
 1634              		.loc 6 239 26 view .LVU335
ARM GAS  /tmp/ccslSSf6.s 			page 58


 1635 0072 CEF1000C 		rsb	ip, lr, #0
 1636              	.L123:
 1637              	.LVL122:
 1638              	.LBB634:
 1639              	.LBI634:
  41:../../libdaisy/src/hid/disp/oled_display.h ****     {
 1640              		.loc 5 41 10 is_stmt 1 view .LVU336
 1641              	.LBB635:
 1642              	.LBI635:
 239:../../libdaisy/src/dev/oled_ssd130x.h ****     {
 1643              		.loc 13 239 10 view .LVU337
 1644              	.LBB636:
 241:../../libdaisy/src/dev/oled_ssd130x.h ****             return;
 1645              		.loc 13 241 9 is_stmt 0 view .LVU338
 1646 0076 7F29     		cmp	r1, #127
 1647 0078 14D8     		bhi	.L124
 1648 007a 3F2A     		cmp	r2, #63
 1649 007c 12D8     		bhi	.L124
 244:../../libdaisy/src/dev/oled_ssd130x.h ****         else
 1650              		.loc 13 244 28 view .LVU339
 1651 007e D508     		lsrs	r5, r2, #3
 244:../../libdaisy/src/dev/oled_ssd130x.h ****         else
 1652              		.loc 13 244 48 view .LVU340
 1653 0080 4FF0010B 		mov	fp, #1
 244:../../libdaisy/src/dev/oled_ssd130x.h ****         else
 1654              		.loc 13 244 54 view .LVU341
 1655 0084 02F0070A 		and	r10, r2, #7
 244:../../libdaisy/src/dev/oled_ssd130x.h ****         else
 1656              		.loc 13 244 42 view .LVU342
 1657 0088 01EBC515 		add	r5, r1, r5, lsl #7
 244:../../libdaisy/src/dev/oled_ssd130x.h ****         else
 1658              		.loc 13 244 48 view .LVU343
 1659 008c 0BFA0AFA 		lsl	r10, fp, r10
 244:../../libdaisy/src/dev/oled_ssd130x.h ****         else
 1660              		.loc 13 244 13 view .LVU344
 1661 0090 0544     		add	r5, r5, r0
 244:../../libdaisy/src/dev/oled_ssd130x.h ****         else
 1662              		.loc 13 244 42 view .LVU345
 1663 0092 95F814B0 		ldrb	fp, [r5, #20]	@ zero_extendqisi2
 243:../../libdaisy/src/dev/oled_ssd130x.h ****             buffer_[x + (y / 8) * width] |= (1 << (y % 8));
 1664              		.loc 13 243 9 view .LVU346
 1665 0096 B8F1000F 		cmp	r8, #0
 1666 009a 17D0     		beq	.L125
 244:../../libdaisy/src/dev/oled_ssd130x.h ****         else
 1667              		.loc 13 244 42 view .LVU347
 1668 009c 4AEA0B0A 		orr	r10, r10, fp
 244:../../libdaisy/src/dev/oled_ssd130x.h ****         else
 1669              		.loc 13 244 13 view .LVU348
 1670 00a0 85F814A0 		strb	r10, [r5, #20]
 1671              	.L124:
 1672              	.LVL123:
 244:../../libdaisy/src/dev/oled_ssd130x.h ****         else
 1673              		.loc 13 244 13 view .LVU349
 1674              	.LBE636:
 1675              	.LBE635:
 1676              	.LBE634:
 243:../../libdaisy/src/hid/disp/display.h ****             {
ARM GAS  /tmp/ccslSSf6.s 			page 59


 1677              		.loc 6 243 13 view .LVU350
 1678 00a4 BCEB440F 		cmp	ip, r4, lsl #1
 242:../../libdaisy/src/hid/disp/display.h ****             if(error2 > -deltaY)
 1679              		.loc 6 242 13 view .LVU351
 1680 00a8 4FEA4405 		lsl	r5, r4, #1
 1681              	.LVL124:
 243:../../libdaisy/src/hid/disp/display.h ****             {
 1682              		.loc 6 243 13 view .LVU352
 1683 00ac 02DA     		bge	.L126
 245:../../libdaisy/src/hid/disp/display.h ****                 x1 += signX;
 1684              		.loc 6 245 17 view .LVU353
 1685 00ae A4EB0E04 		sub	r4, r4, lr
 1686              	.LVL125:
 246:../../libdaisy/src/hid/disp/display.h ****             }
 1687              		.loc 6 246 17 view .LVU354
 1688 00b2 4944     		add	r1, r1, r9
 1689              	.LVL126:
 1690              	.L126:
 249:../../libdaisy/src/hid/disp/display.h ****             {
 1691              		.loc 6 249 13 view .LVU355
 1692 00b4 AE42     		cmp	r6, r5
 1693 00b6 02DD     		ble	.L127
 252:../../libdaisy/src/hid/disp/display.h ****             }
 1694              		.loc 6 252 17 view .LVU356
 1695 00b8 019D     		ldr	r5, [sp, #4]
 1696              	.LVL127:
 251:../../libdaisy/src/hid/disp/display.h ****                 y1 += signY;
 1697              		.loc 6 251 17 view .LVU357
 1698 00ba 3444     		add	r4, r4, r6
 1699              	.LVL128:
 252:../../libdaisy/src/hid/disp/display.h ****             }
 1700              		.loc 6 252 17 view .LVU358
 1701 00bc 2A44     		add	r2, r2, r5
 1702              	.LVL129:
 1703              	.L127:
 239:../../libdaisy/src/hid/disp/display.h ****         {
 1704              		.loc 6 239 26 is_stmt 1 view .LVU359
 1705 00be 9942     		cmp	r1, r3
 1706 00c0 D9D1     		bne	.L123
 239:../../libdaisy/src/hid/disp/display.h ****         {
 1707              		.loc 6 239 26 is_stmt 0 view .LVU360
 1708 00c2 9742     		cmp	r7, r2
 1709 00c4 D7D1     		bne	.L123
 1710              	.L114:
 255:../../libdaisy/src/hid/disp/display.h **** 
 1711              		.loc 6 255 5 view .LVU361
 1712 00c6 03B0     		add	sp, sp, #12
 1713              		.cfi_remember_state
 1714              		.cfi_def_cfa_offset 36
 1715              		@ sp needed
 1716 00c8 BDE8F08F 		pop	{r4, r5, r6, r7, r8, r9, r10, fp, pc}
 1717              	.LVL130:
 1718              	.L125:
 1719              		.cfi_restore_state
 1720              	.LBB641:
 1721              	.LBB640:
 1722              	.LBB639:
ARM GAS  /tmp/ccslSSf6.s 			page 60


 1723              	.LBB637:
 1724              	.LBI637:
 239:../../libdaisy/src/dev/oled_ssd130x.h ****     {
 1725              		.loc 13 239 10 is_stmt 1 view .LVU362
 1726              	.LBB638:
 246:../../libdaisy/src/dev/oled_ssd130x.h ****     }
 1727              		.loc 13 246 42 is_stmt 0 view .LVU363
 1728 00cc 2BEA0A0A 		bic	r10, fp, r10
 246:../../libdaisy/src/dev/oled_ssd130x.h ****     }
 1729              		.loc 13 246 13 view .LVU364
 1730 00d0 85F814A0 		strb	r10, [r5, #20]
 1731 00d4 E6E7     		b	.L124
 1732              	.LVL131:
 1733              	.L116:
 246:../../libdaisy/src/dev/oled_ssd130x.h ****     }
 1734              		.loc 13 246 13 view .LVU365
 1735              	.LBE638:
 1736              	.LBE637:
 1737              	.LBE639:
 1738              	.LBE640:
 1739              	.LBE641:
 1740              	.LBB642:
  41:../../libdaisy/src/hid/disp/oled_display.h ****     {
 1741              		.loc 5 41 10 is_stmt 1 view .LVU366
 1742              	.LBB628:
 239:../../libdaisy/src/dev/oled_ssd130x.h ****     {
 1743              		.loc 13 239 10 view .LVU367
 1744              	.LBE628:
 1745              	.LBE642:
 230:../../libdaisy/src/hid/disp/display.h ****         int_fast16_t error  = deltaX - deltaY;
 1746              		.loc 6 230 22 is_stmt 0 view .LVU368
 1747 00d6 0125     		movs	r5, #1
 1748              	.LBB643:
 1749              	.LBB629:
 1750              	.LBB623:
 241:../../libdaisy/src/dev/oled_ssd130x.h ****             return;
 1751              		.loc 13 241 9 view .LVU369
 1752 00d8 7F2B     		cmp	r3, #127
 1753              	.LBE623:
 1754              	.LBE629:
 1755              	.LBE643:
 230:../../libdaisy/src/hid/disp/display.h ****         int_fast16_t error  = deltaX - deltaY;
 1756              		.loc 6 230 22 view .LVU370
 1757 00da 0195     		str	r5, [sp, #4]
 1758              	.LBB644:
 1759              	.LBB630:
 1760              	.LBB624:
 241:../../libdaisy/src/dev/oled_ssd130x.h ****             return;
 1761              		.loc 13 241 9 view .LVU371
 1762 00dc C9D8     		bhi	.L121
 1763 00de 3F2F     		cmp	r7, #63
 1764 00e0 B0D9     		bls	.L128
 1765 00e2 C6E7     		b	.L121
 1766              	.LVL132:
 1767              	.L118:
 1768              	.LBB618:
 1769              	.LBI618:
ARM GAS  /tmp/ccslSSf6.s 			page 61


 239:../../libdaisy/src/dev/oled_ssd130x.h ****     {
 1770              		.loc 13 239 10 is_stmt 1 view .LVU372
 1771              	.LBB619:
 246:../../libdaisy/src/dev/oled_ssd130x.h ****     }
 1772              		.loc 13 246 13 is_stmt 0 view .LVU373
 1773 00e4 0544     		add	r5, r5, r0
 246:../../libdaisy/src/dev/oled_ssd130x.h ****     }
 1774              		.loc 13 246 49 view .LVU374
 1775 00e6 0AFA0CFA 		lsl	r10, r10, ip
 1776              	.LBE619:
 1777              	.LBE618:
 1778              	.LBE624:
 1779              	.LBE630:
 1780              	.LBE644:
 239:../../libdaisy/src/hid/disp/display.h ****         {
 1781              		.loc 6 239 26 view .LVU375
 1782 00ea 9742     		cmp	r7, r2
 1783              	.LBB645:
 1784              	.LBB631:
 1785              	.LBB625:
 1786              	.LBB621:
 1787              	.LBB620:
 246:../../libdaisy/src/dev/oled_ssd130x.h ****     }
 1788              		.loc 13 246 42 view .LVU376
 1789 00ec 95F814C0 		ldrb	ip, [r5, #20]	@ zero_extendqisi2
 1790 00f0 2CEA0A0C 		bic	ip, ip, r10
 246:../../libdaisy/src/dev/oled_ssd130x.h ****     }
 1791              		.loc 13 246 13 view .LVU377
 1792 00f4 85F814C0 		strb	ip, [r5, #20]
 1793              	.LVL133:
 246:../../libdaisy/src/dev/oled_ssd130x.h ****     }
 1794              		.loc 13 246 13 view .LVU378
 1795              	.LBE620:
 1796              	.LBE621:
 1797              	.LBE625:
 1798              	.LBE631:
 1799              	.LBE645:
 239:../../libdaisy/src/hid/disp/display.h ****         {
 1800              		.loc 6 239 26 is_stmt 1 view .LVU379
 1801 00f8 B9D0     		beq	.L140
 1802 00fa BAE7     		b	.L121
 1803              		.cfi_endproc
 1804              	.LFE4832:
 1806              		.section	.text._ZN5daisy25OneBitGraphicsDisplayImplINS_11OledDisplayINS_13SSD130xDriverILj128ELj64
 1807              		.align	1
 1808              		.p2align 2,,3
 1809              		.weak	_ZN5daisy25OneBitGraphicsDisplayImplINS_11OledDisplayINS_13SSD130xDriverILj128ELj64ENS_24SSD
 1810              		.syntax unified
 1811              		.thumb
 1812              		.thumb_func
 1813              		.fpu fpv5-d16
 1815              	_ZN5daisy25OneBitGraphicsDisplayImplINS_11OledDisplayINS_13SSD130xDriverILj128ELj64ENS_24SSD130x4Wi
 1816              	.LVL134:
 1817              	.LFB4834:
 283:../../libdaisy/src/hid/disp/display.h ****                  uint_fast8_t y,
 1818              		.loc 6 283 10 view -0
 1819              		.cfi_startproc
ARM GAS  /tmp/ccslSSf6.s 			page 62


 1820              		@ args = 12, pretend = 0, frame = 16
 1821              		@ frame_needed = 0, uses_anonymous_args = 0
 283:../../libdaisy/src/hid/disp/display.h ****                  uint_fast8_t y,
 1822              		.loc 6 283 10 is_stmt 0 view .LVU381
 1823 0000 2DE9F04F 		push	{r4, r5, r6, r7, r8, r9, r10, fp, lr}
 1824              		.cfi_def_cfa_offset 36
 1825              		.cfi_offset 4, -36
 1826              		.cfi_offset 5, -32
 1827              		.cfi_offset 6, -28
 1828              		.cfi_offset 7, -24
 1829              		.cfi_offset 8, -20
 1830              		.cfi_offset 9, -16
 1831              		.cfi_offset 10, -12
 1832              		.cfi_offset 11, -8
 1833              		.cfi_offset 14, -4
 1834 0004 2DED068B 		vpush.64	{d8, d9, d10}
 1835              		.cfi_def_cfa_offset 60
 1836              		.cfi_offset 80, -60
 1837              		.cfi_offset 81, -56
 1838              		.cfi_offset 82, -52
 1839              		.cfi_offset 83, -48
 1840              		.cfi_offset 84, -44
 1841              		.cfi_offset 85, -40
 1842 0008 85B0     		sub	sp, sp, #20
 1843              		.cfi_def_cfa_offset 80
 283:../../libdaisy/src/hid/disp/display.h ****                  uint_fast8_t y,
 1844              		.loc 6 283 10 view .LVU382
 1845 000a 1C46     		mov	r4, r3
 1846 000c 0F46     		mov	r7, r1
 1847 000e 9046     		mov	r8, r2
 1848 0010 9DF85830 		ldrb	r3, [sp, #88]	@ zero_extendqisi2
 1849              	.LVL135:
 283:../../libdaisy/src/hid/disp/display.h ****                  uint_fast8_t y,
 1850              		.loc 6 283 10 view .LVU383
 1851 0014 0390     		str	r0, [sp, #12]
 1852 0016 0293     		str	r3, [sp, #8]
 306:../../libdaisy/src/hid/disp/display.h ****         {
 1853              		.loc 6 306 9 view .LVU384
 1854 0018 159B     		ldr	r3, [sp, #84]
 1855 001a 002B     		cmp	r3, #0
 1856 001c C0F2F281 		blt	.L142
 1857 0020 149A     		ldr	r2, [sp, #80]
 1858              	.LVL136:
 306:../../libdaisy/src/hid/disp/display.h ****         {
 1859              		.loc 6 306 9 view .LVU385
 1860 0022 1344     		add	r3, r3, r2
 1861 0024 06EE103A 		vmov	s12, r3	@ int
 1862              	.LVL137:
 1863              	.L143:
 312:../../libdaisy/src/hid/disp/display.h ****         end_angle_rad   = deg2rad(start_angle + sweep);
 1864              		.loc 6 312 27 view .LVU386
 1865 0028 DDED147A 		vldr.32	s15, [sp, #80]	@ int
 313:../../libdaisy/src/hid/disp/display.h **** 
 1866              		.loc 6 313 27 view .LVU387
 1867 002c B8EEC66B 		vcvt.f64.s32	d6, s12
 312:../../libdaisy/src/hid/disp/display.h ****         end_angle_rad   = deg2rad(start_angle + sweep);
 1868              		.loc 6 312 27 view .LVU388
ARM GAS  /tmp/ccslSSf6.s 			page 63


 1869 0030 9FEDD54B 		vldr.64	d4, .L216
 1870 0034 B8EEE77B 		vcvt.f64.s32	d7, s15
 1871 0038 9FEDD55B 		vldr.64	d5, .L216+8
 1872 003c 27EE047B 		vmul.f64	d7, d7, d4
 313:../../libdaisy/src/hid/disp/display.h **** 
 1873              		.loc 6 313 27 view .LVU389
 1874 0040 26EE046B 		vmul.f64	d6, d6, d4
 312:../../libdaisy/src/hid/disp/display.h ****         end_angle_rad   = deg2rad(start_angle + sweep);
 1875              		.loc 6 312 27 view .LVU390
 1876 0044 87EE050B 		vdiv.f64	d0, d7, d5
 313:../../libdaisy/src/hid/disp/display.h **** 
 1877              		.loc 6 313 27 view .LVU391
 1878 0048 86EE05AB 		vdiv.f64	d10, d6, d5
 312:../../libdaisy/src/hid/disp/display.h ****         end_angle_rad   = deg2rad(start_angle + sweep);
 1879              		.loc 6 312 9 view .LVU392
 1880 004c F7EEC08B 		vcvt.f32.f64	s17, d0
 1881              	.LVL138:
 1882              	.LBB678:
 1883              	.LBB679:
 1884              		.file 14 "/usr/include/newlib/c++/9.2.1/cmath"
   1:/usr/include/newlib/c++/9.2.1/cmath **** // -*- C++ -*- C forwarding header.
   2:/usr/include/newlib/c++/9.2.1/cmath **** 
   3:/usr/include/newlib/c++/9.2.1/cmath **** // Copyright (C) 1997-2019 Free Software Foundation, Inc.
   4:/usr/include/newlib/c++/9.2.1/cmath **** //
   5:/usr/include/newlib/c++/9.2.1/cmath **** // This file is part of the GNU ISO C++ Library.  This library is free
   6:/usr/include/newlib/c++/9.2.1/cmath **** // software; you can redistribute it and/or modify it under the
   7:/usr/include/newlib/c++/9.2.1/cmath **** // terms of the GNU General Public License as published by the
   8:/usr/include/newlib/c++/9.2.1/cmath **** // Free Software Foundation; either version 3, or (at your option)
   9:/usr/include/newlib/c++/9.2.1/cmath **** // any later version.
  10:/usr/include/newlib/c++/9.2.1/cmath **** 
  11:/usr/include/newlib/c++/9.2.1/cmath **** // This library is distributed in the hope that it will be useful,
  12:/usr/include/newlib/c++/9.2.1/cmath **** // but WITHOUT ANY WARRANTY; without even the implied warranty of
  13:/usr/include/newlib/c++/9.2.1/cmath **** // MERCHANTABILITY or FITNESS FOR A PARTICULAR PURPOSE.  See the
  14:/usr/include/newlib/c++/9.2.1/cmath **** // GNU General Public License for more details.
  15:/usr/include/newlib/c++/9.2.1/cmath **** 
  16:/usr/include/newlib/c++/9.2.1/cmath **** // Under Section 7 of GPL version 3, you are granted additional
  17:/usr/include/newlib/c++/9.2.1/cmath **** // permissions described in the GCC Runtime Library Exception, version
  18:/usr/include/newlib/c++/9.2.1/cmath **** // 3.1, as published by the Free Software Foundation.
  19:/usr/include/newlib/c++/9.2.1/cmath **** 
  20:/usr/include/newlib/c++/9.2.1/cmath **** // You should have received a copy of the GNU General Public License and
  21:/usr/include/newlib/c++/9.2.1/cmath **** // a copy of the GCC Runtime Library Exception along with this program;
  22:/usr/include/newlib/c++/9.2.1/cmath **** // see the files COPYING3 and COPYING.RUNTIME respectively.  If not, see
  23:/usr/include/newlib/c++/9.2.1/cmath **** // <http://www.gnu.org/licenses/>.
  24:/usr/include/newlib/c++/9.2.1/cmath **** 
  25:/usr/include/newlib/c++/9.2.1/cmath **** /** @file include/cmath
  26:/usr/include/newlib/c++/9.2.1/cmath ****  *  This is a Standard C++ Library file.  You should @c \#include this file
  27:/usr/include/newlib/c++/9.2.1/cmath ****  *  in your programs, rather than any of the @a *.h implementation files.
  28:/usr/include/newlib/c++/9.2.1/cmath ****  *
  29:/usr/include/newlib/c++/9.2.1/cmath ****  *  This is the C++ version of the Standard C Library header @c math.h,
  30:/usr/include/newlib/c++/9.2.1/cmath ****  *  and its contents are (mostly) the same as that header, but are all
  31:/usr/include/newlib/c++/9.2.1/cmath ****  *  contained in the namespace @c std (except for names which are defined
  32:/usr/include/newlib/c++/9.2.1/cmath ****  *  as macros in C).
  33:/usr/include/newlib/c++/9.2.1/cmath ****  */
  34:/usr/include/newlib/c++/9.2.1/cmath **** 
  35:/usr/include/newlib/c++/9.2.1/cmath **** //
  36:/usr/include/newlib/c++/9.2.1/cmath **** // ISO C++ 14882: 26.5  C library
  37:/usr/include/newlib/c++/9.2.1/cmath **** //
ARM GAS  /tmp/ccslSSf6.s 			page 64


  38:/usr/include/newlib/c++/9.2.1/cmath **** 
  39:/usr/include/newlib/c++/9.2.1/cmath **** #pragma GCC system_header
  40:/usr/include/newlib/c++/9.2.1/cmath **** 
  41:/usr/include/newlib/c++/9.2.1/cmath **** #include <bits/c++config.h>
  42:/usr/include/newlib/c++/9.2.1/cmath **** #include <bits/cpp_type_traits.h>
  43:/usr/include/newlib/c++/9.2.1/cmath **** #include <ext/type_traits.h>
  44:/usr/include/newlib/c++/9.2.1/cmath **** #define _GLIBCXX_INCLUDE_NEXT_C_HEADERS
  45:/usr/include/newlib/c++/9.2.1/cmath **** #include_next <math.h>
  46:/usr/include/newlib/c++/9.2.1/cmath **** #undef _GLIBCXX_INCLUDE_NEXT_C_HEADERS
  47:/usr/include/newlib/c++/9.2.1/cmath **** #include <bits/std_abs.h>
  48:/usr/include/newlib/c++/9.2.1/cmath **** 
  49:/usr/include/newlib/c++/9.2.1/cmath **** #ifndef _GLIBCXX_CMATH
  50:/usr/include/newlib/c++/9.2.1/cmath **** #define _GLIBCXX_CMATH 1
  51:/usr/include/newlib/c++/9.2.1/cmath **** 
  52:/usr/include/newlib/c++/9.2.1/cmath **** // Get rid of those macros defined in <math.h> in lieu of real functions.
  53:/usr/include/newlib/c++/9.2.1/cmath **** #undef div
  54:/usr/include/newlib/c++/9.2.1/cmath **** #undef acos
  55:/usr/include/newlib/c++/9.2.1/cmath **** #undef asin
  56:/usr/include/newlib/c++/9.2.1/cmath **** #undef atan
  57:/usr/include/newlib/c++/9.2.1/cmath **** #undef atan2
  58:/usr/include/newlib/c++/9.2.1/cmath **** #undef ceil
  59:/usr/include/newlib/c++/9.2.1/cmath **** #undef cos
  60:/usr/include/newlib/c++/9.2.1/cmath **** #undef cosh
  61:/usr/include/newlib/c++/9.2.1/cmath **** #undef exp
  62:/usr/include/newlib/c++/9.2.1/cmath **** #undef fabs
  63:/usr/include/newlib/c++/9.2.1/cmath **** #undef floor
  64:/usr/include/newlib/c++/9.2.1/cmath **** #undef fmod
  65:/usr/include/newlib/c++/9.2.1/cmath **** #undef frexp
  66:/usr/include/newlib/c++/9.2.1/cmath **** #undef ldexp
  67:/usr/include/newlib/c++/9.2.1/cmath **** #undef log
  68:/usr/include/newlib/c++/9.2.1/cmath **** #undef log10
  69:/usr/include/newlib/c++/9.2.1/cmath **** #undef modf
  70:/usr/include/newlib/c++/9.2.1/cmath **** #undef pow
  71:/usr/include/newlib/c++/9.2.1/cmath **** #undef sin
  72:/usr/include/newlib/c++/9.2.1/cmath **** #undef sinh
  73:/usr/include/newlib/c++/9.2.1/cmath **** #undef sqrt
  74:/usr/include/newlib/c++/9.2.1/cmath **** #undef tan
  75:/usr/include/newlib/c++/9.2.1/cmath **** #undef tanh
  76:/usr/include/newlib/c++/9.2.1/cmath **** 
  77:/usr/include/newlib/c++/9.2.1/cmath **** extern "C++"
  78:/usr/include/newlib/c++/9.2.1/cmath **** {
  79:/usr/include/newlib/c++/9.2.1/cmath **** namespace std _GLIBCXX_VISIBILITY(default)
  80:/usr/include/newlib/c++/9.2.1/cmath **** {
  81:/usr/include/newlib/c++/9.2.1/cmath **** _GLIBCXX_BEGIN_NAMESPACE_VERSION
  82:/usr/include/newlib/c++/9.2.1/cmath **** 
  83:/usr/include/newlib/c++/9.2.1/cmath ****   using ::acos;
  84:/usr/include/newlib/c++/9.2.1/cmath **** 
  85:/usr/include/newlib/c++/9.2.1/cmath **** #ifndef __CORRECT_ISO_CPP_MATH_H_PROTO
  86:/usr/include/newlib/c++/9.2.1/cmath ****   inline _GLIBCXX_CONSTEXPR float
  87:/usr/include/newlib/c++/9.2.1/cmath ****   acos(float __x)
  88:/usr/include/newlib/c++/9.2.1/cmath ****   { return __builtin_acosf(__x); }
  89:/usr/include/newlib/c++/9.2.1/cmath **** 
  90:/usr/include/newlib/c++/9.2.1/cmath ****   inline _GLIBCXX_CONSTEXPR long double
  91:/usr/include/newlib/c++/9.2.1/cmath ****   acos(long double __x)
  92:/usr/include/newlib/c++/9.2.1/cmath ****   { return __builtin_acosl(__x); }
  93:/usr/include/newlib/c++/9.2.1/cmath **** #endif
  94:/usr/include/newlib/c++/9.2.1/cmath **** 
ARM GAS  /tmp/ccslSSf6.s 			page 65


  95:/usr/include/newlib/c++/9.2.1/cmath ****   template<typename _Tp>
  96:/usr/include/newlib/c++/9.2.1/cmath ****     inline _GLIBCXX_CONSTEXPR
  97:/usr/include/newlib/c++/9.2.1/cmath ****     typename __gnu_cxx::__enable_if<__is_integer<_Tp>::__value, 
  98:/usr/include/newlib/c++/9.2.1/cmath ****                                     double>::__type
  99:/usr/include/newlib/c++/9.2.1/cmath ****     acos(_Tp __x)
 100:/usr/include/newlib/c++/9.2.1/cmath ****     { return __builtin_acos(__x); }
 101:/usr/include/newlib/c++/9.2.1/cmath **** 
 102:/usr/include/newlib/c++/9.2.1/cmath ****   using ::asin;
 103:/usr/include/newlib/c++/9.2.1/cmath **** 
 104:/usr/include/newlib/c++/9.2.1/cmath **** #ifndef __CORRECT_ISO_CPP_MATH_H_PROTO
 105:/usr/include/newlib/c++/9.2.1/cmath ****   inline _GLIBCXX_CONSTEXPR float
 106:/usr/include/newlib/c++/9.2.1/cmath ****   asin(float __x)
 107:/usr/include/newlib/c++/9.2.1/cmath ****   { return __builtin_asinf(__x); }
 108:/usr/include/newlib/c++/9.2.1/cmath **** 
 109:/usr/include/newlib/c++/9.2.1/cmath ****   inline _GLIBCXX_CONSTEXPR long double
 110:/usr/include/newlib/c++/9.2.1/cmath ****   asin(long double __x)
 111:/usr/include/newlib/c++/9.2.1/cmath ****   { return __builtin_asinl(__x); }
 112:/usr/include/newlib/c++/9.2.1/cmath **** #endif
 113:/usr/include/newlib/c++/9.2.1/cmath **** 
 114:/usr/include/newlib/c++/9.2.1/cmath ****   template<typename _Tp>
 115:/usr/include/newlib/c++/9.2.1/cmath ****     inline _GLIBCXX_CONSTEXPR
 116:/usr/include/newlib/c++/9.2.1/cmath ****     typename __gnu_cxx::__enable_if<__is_integer<_Tp>::__value,
 117:/usr/include/newlib/c++/9.2.1/cmath ****                                     double>::__type
 118:/usr/include/newlib/c++/9.2.1/cmath ****     asin(_Tp __x)
 119:/usr/include/newlib/c++/9.2.1/cmath ****     { return __builtin_asin(__x); }
 120:/usr/include/newlib/c++/9.2.1/cmath **** 
 121:/usr/include/newlib/c++/9.2.1/cmath ****   using ::atan;
 122:/usr/include/newlib/c++/9.2.1/cmath **** 
 123:/usr/include/newlib/c++/9.2.1/cmath **** #ifndef __CORRECT_ISO_CPP_MATH_H_PROTO
 124:/usr/include/newlib/c++/9.2.1/cmath ****   inline _GLIBCXX_CONSTEXPR float
 125:/usr/include/newlib/c++/9.2.1/cmath ****   atan(float __x)
 126:/usr/include/newlib/c++/9.2.1/cmath ****   { return __builtin_atanf(__x); }
 127:/usr/include/newlib/c++/9.2.1/cmath **** 
 128:/usr/include/newlib/c++/9.2.1/cmath ****   inline _GLIBCXX_CONSTEXPR long double
 129:/usr/include/newlib/c++/9.2.1/cmath ****   atan(long double __x)
 130:/usr/include/newlib/c++/9.2.1/cmath ****   { return __builtin_atanl(__x); }
 131:/usr/include/newlib/c++/9.2.1/cmath **** #endif
 132:/usr/include/newlib/c++/9.2.1/cmath **** 
 133:/usr/include/newlib/c++/9.2.1/cmath ****   template<typename _Tp>
 134:/usr/include/newlib/c++/9.2.1/cmath ****     inline _GLIBCXX_CONSTEXPR
 135:/usr/include/newlib/c++/9.2.1/cmath ****     typename __gnu_cxx::__enable_if<__is_integer<_Tp>::__value,
 136:/usr/include/newlib/c++/9.2.1/cmath ****                                     double>::__type
 137:/usr/include/newlib/c++/9.2.1/cmath ****     atan(_Tp __x)
 138:/usr/include/newlib/c++/9.2.1/cmath ****     { return __builtin_atan(__x); }
 139:/usr/include/newlib/c++/9.2.1/cmath **** 
 140:/usr/include/newlib/c++/9.2.1/cmath ****   using ::atan2;
 141:/usr/include/newlib/c++/9.2.1/cmath **** 
 142:/usr/include/newlib/c++/9.2.1/cmath **** #ifndef __CORRECT_ISO_CPP_MATH_H_PROTO
 143:/usr/include/newlib/c++/9.2.1/cmath ****   inline _GLIBCXX_CONSTEXPR float
 144:/usr/include/newlib/c++/9.2.1/cmath ****   atan2(float __y, float __x)
 145:/usr/include/newlib/c++/9.2.1/cmath ****   { return __builtin_atan2f(__y, __x); }
 146:/usr/include/newlib/c++/9.2.1/cmath **** 
 147:/usr/include/newlib/c++/9.2.1/cmath ****   inline _GLIBCXX_CONSTEXPR long double
 148:/usr/include/newlib/c++/9.2.1/cmath ****   atan2(long double __y, long double __x)
 149:/usr/include/newlib/c++/9.2.1/cmath ****   { return __builtin_atan2l(__y, __x); }
 150:/usr/include/newlib/c++/9.2.1/cmath **** #endif
 151:/usr/include/newlib/c++/9.2.1/cmath **** 
ARM GAS  /tmp/ccslSSf6.s 			page 66


 152:/usr/include/newlib/c++/9.2.1/cmath ****   template<typename _Tp, typename _Up>
 153:/usr/include/newlib/c++/9.2.1/cmath ****     inline _GLIBCXX_CONSTEXPR
 154:/usr/include/newlib/c++/9.2.1/cmath ****     typename __gnu_cxx::__promote_2<_Tp, _Up>::__type
 155:/usr/include/newlib/c++/9.2.1/cmath ****     atan2(_Tp __y, _Up __x)
 156:/usr/include/newlib/c++/9.2.1/cmath ****     {
 157:/usr/include/newlib/c++/9.2.1/cmath ****       typedef typename __gnu_cxx::__promote_2<_Tp, _Up>::__type __type;
 158:/usr/include/newlib/c++/9.2.1/cmath ****       return atan2(__type(__y), __type(__x));
 159:/usr/include/newlib/c++/9.2.1/cmath ****     }
 160:/usr/include/newlib/c++/9.2.1/cmath **** 
 161:/usr/include/newlib/c++/9.2.1/cmath ****   using ::ceil;
 162:/usr/include/newlib/c++/9.2.1/cmath **** 
 163:/usr/include/newlib/c++/9.2.1/cmath **** #ifndef __CORRECT_ISO_CPP_MATH_H_PROTO
 164:/usr/include/newlib/c++/9.2.1/cmath ****   inline _GLIBCXX_CONSTEXPR float
 165:/usr/include/newlib/c++/9.2.1/cmath ****   ceil(float __x)
 166:/usr/include/newlib/c++/9.2.1/cmath ****   { return __builtin_ceilf(__x); }
 167:/usr/include/newlib/c++/9.2.1/cmath **** 
 168:/usr/include/newlib/c++/9.2.1/cmath ****   inline _GLIBCXX_CONSTEXPR long double
 169:/usr/include/newlib/c++/9.2.1/cmath ****   ceil(long double __x)
 170:/usr/include/newlib/c++/9.2.1/cmath ****   { return __builtin_ceill(__x); }
 171:/usr/include/newlib/c++/9.2.1/cmath **** #endif
 172:/usr/include/newlib/c++/9.2.1/cmath **** 
 173:/usr/include/newlib/c++/9.2.1/cmath ****   template<typename _Tp>
 174:/usr/include/newlib/c++/9.2.1/cmath ****     inline _GLIBCXX_CONSTEXPR
 175:/usr/include/newlib/c++/9.2.1/cmath ****     typename __gnu_cxx::__enable_if<__is_integer<_Tp>::__value, 
 176:/usr/include/newlib/c++/9.2.1/cmath ****                                     double>::__type
 177:/usr/include/newlib/c++/9.2.1/cmath ****     ceil(_Tp __x)
 178:/usr/include/newlib/c++/9.2.1/cmath ****     { return __builtin_ceil(__x); }
 179:/usr/include/newlib/c++/9.2.1/cmath **** 
 180:/usr/include/newlib/c++/9.2.1/cmath ****   using ::cos;
 181:/usr/include/newlib/c++/9.2.1/cmath **** 
 182:/usr/include/newlib/c++/9.2.1/cmath **** #ifndef __CORRECT_ISO_CPP_MATH_H_PROTO
 183:/usr/include/newlib/c++/9.2.1/cmath ****   inline _GLIBCXX_CONSTEXPR float
 184:/usr/include/newlib/c++/9.2.1/cmath ****   cos(float __x)
 185:/usr/include/newlib/c++/9.2.1/cmath ****   { return __builtin_cosf(__x); }
 1885              		.loc 14 185 26 view .LVU393
 1886 0050 B0EE680A 		vmov.f32	s0, s17
 1887 0054 FFF7FEFF 		bl	cosf
 1888              	.LVL139:
 1889              		.loc 14 185 26 view .LVU394
 1890              	.LBE679:
 1891              	.LBE678:
 313:../../libdaisy/src/hid/disp/display.h **** 
 1892              		.loc 6 313 9 view .LVU395
 1893 0058 B7EECAAB 		vcvt.f32.f64	s20, d10
 1894              	.LVL140:
 1895              	.LBB682:
 1896              	.LBI678:
 184:/usr/include/newlib/c++/9.2.1/cmath ****   { return __builtin_cosf(__x); }
 1897              		.loc 14 184 3 is_stmt 1 view .LVU396
 1898              	.LBB680:
 1899              		.loc 14 185 5 view .LVU397
 1900              		.loc 14 185 5 is_stmt 0 view .LVU398
 1901              	.LBE680:
 1902              	.LBE682:
 315:../../libdaisy/src/hid/disp/display.h ****         start_y = -sin(start_angle_rad) * radius;
 1903              		.loc 6 315 9 view .LVU399
 1904 005c 07EE904A 		vmov	s15, r4	@ int
ARM GAS  /tmp/ccslSSf6.s 			page 67


 1905              	.LBB683:
 1906              	.LBB681:
 1907              		.loc 14 185 26 view .LVU400
 1908 0060 B0EE408A 		vmov.f32	s16, s0
 1909              	.LBE681:
 1910              	.LBE683:
 1911              	.LBB684:
 1912              	.LBB685:
 186:/usr/include/newlib/c++/9.2.1/cmath **** 
 187:/usr/include/newlib/c++/9.2.1/cmath ****   inline _GLIBCXX_CONSTEXPR long double
 188:/usr/include/newlib/c++/9.2.1/cmath ****   cos(long double __x)
 189:/usr/include/newlib/c++/9.2.1/cmath ****   { return __builtin_cosl(__x); }
 190:/usr/include/newlib/c++/9.2.1/cmath **** #endif
 191:/usr/include/newlib/c++/9.2.1/cmath **** 
 192:/usr/include/newlib/c++/9.2.1/cmath ****   template<typename _Tp>
 193:/usr/include/newlib/c++/9.2.1/cmath ****     inline _GLIBCXX_CONSTEXPR
 194:/usr/include/newlib/c++/9.2.1/cmath ****     typename __gnu_cxx::__enable_if<__is_integer<_Tp>::__value,
 195:/usr/include/newlib/c++/9.2.1/cmath ****                                     double>::__type
 196:/usr/include/newlib/c++/9.2.1/cmath ****     cos(_Tp __x)
 197:/usr/include/newlib/c++/9.2.1/cmath ****     { return __builtin_cos(__x); }
 198:/usr/include/newlib/c++/9.2.1/cmath **** 
 199:/usr/include/newlib/c++/9.2.1/cmath ****   using ::cosh;
 200:/usr/include/newlib/c++/9.2.1/cmath **** 
 201:/usr/include/newlib/c++/9.2.1/cmath **** #ifndef __CORRECT_ISO_CPP_MATH_H_PROTO
 202:/usr/include/newlib/c++/9.2.1/cmath ****   inline _GLIBCXX_CONSTEXPR float
 203:/usr/include/newlib/c++/9.2.1/cmath ****   cosh(float __x)
 204:/usr/include/newlib/c++/9.2.1/cmath ****   { return __builtin_coshf(__x); }
 205:/usr/include/newlib/c++/9.2.1/cmath **** 
 206:/usr/include/newlib/c++/9.2.1/cmath ****   inline _GLIBCXX_CONSTEXPR long double
 207:/usr/include/newlib/c++/9.2.1/cmath ****   cosh(long double __x)
 208:/usr/include/newlib/c++/9.2.1/cmath ****   { return __builtin_coshl(__x); }
 209:/usr/include/newlib/c++/9.2.1/cmath **** #endif
 210:/usr/include/newlib/c++/9.2.1/cmath **** 
 211:/usr/include/newlib/c++/9.2.1/cmath ****   template<typename _Tp>
 212:/usr/include/newlib/c++/9.2.1/cmath ****     inline _GLIBCXX_CONSTEXPR
 213:/usr/include/newlib/c++/9.2.1/cmath ****     typename __gnu_cxx::__enable_if<__is_integer<_Tp>::__value,
 214:/usr/include/newlib/c++/9.2.1/cmath ****                                     double>::__type
 215:/usr/include/newlib/c++/9.2.1/cmath ****     cosh(_Tp __x)
 216:/usr/include/newlib/c++/9.2.1/cmath ****     { return __builtin_cosh(__x); }
 217:/usr/include/newlib/c++/9.2.1/cmath **** 
 218:/usr/include/newlib/c++/9.2.1/cmath ****   using ::exp;
 219:/usr/include/newlib/c++/9.2.1/cmath **** 
 220:/usr/include/newlib/c++/9.2.1/cmath **** #ifndef __CORRECT_ISO_CPP_MATH_H_PROTO
 221:/usr/include/newlib/c++/9.2.1/cmath ****   inline _GLIBCXX_CONSTEXPR float
 222:/usr/include/newlib/c++/9.2.1/cmath ****   exp(float __x)
 223:/usr/include/newlib/c++/9.2.1/cmath ****   { return __builtin_expf(__x); }
 224:/usr/include/newlib/c++/9.2.1/cmath **** 
 225:/usr/include/newlib/c++/9.2.1/cmath ****   inline _GLIBCXX_CONSTEXPR long double
 226:/usr/include/newlib/c++/9.2.1/cmath ****   exp(long double __x)
 227:/usr/include/newlib/c++/9.2.1/cmath ****   { return __builtin_expl(__x); }
 228:/usr/include/newlib/c++/9.2.1/cmath **** #endif
 229:/usr/include/newlib/c++/9.2.1/cmath **** 
 230:/usr/include/newlib/c++/9.2.1/cmath ****   template<typename _Tp>
 231:/usr/include/newlib/c++/9.2.1/cmath ****     inline _GLIBCXX_CONSTEXPR
 232:/usr/include/newlib/c++/9.2.1/cmath ****     typename __gnu_cxx::__enable_if<__is_integer<_Tp>::__value,
 233:/usr/include/newlib/c++/9.2.1/cmath ****                                     double>::__type
 234:/usr/include/newlib/c++/9.2.1/cmath ****     exp(_Tp __x)
ARM GAS  /tmp/ccslSSf6.s 			page 68


 235:/usr/include/newlib/c++/9.2.1/cmath ****     { return __builtin_exp(__x); }
 236:/usr/include/newlib/c++/9.2.1/cmath **** 
 237:/usr/include/newlib/c++/9.2.1/cmath ****   using ::fabs;
 238:/usr/include/newlib/c++/9.2.1/cmath **** 
 239:/usr/include/newlib/c++/9.2.1/cmath **** #ifndef __CORRECT_ISO_CPP_MATH_H_PROTO
 240:/usr/include/newlib/c++/9.2.1/cmath ****   inline _GLIBCXX_CONSTEXPR float
 241:/usr/include/newlib/c++/9.2.1/cmath ****   fabs(float __x)
 242:/usr/include/newlib/c++/9.2.1/cmath ****   { return __builtin_fabsf(__x); }
 243:/usr/include/newlib/c++/9.2.1/cmath **** 
 244:/usr/include/newlib/c++/9.2.1/cmath ****   inline _GLIBCXX_CONSTEXPR long double
 245:/usr/include/newlib/c++/9.2.1/cmath ****   fabs(long double __x)
 246:/usr/include/newlib/c++/9.2.1/cmath ****   { return __builtin_fabsl(__x); }
 247:/usr/include/newlib/c++/9.2.1/cmath **** #endif
 248:/usr/include/newlib/c++/9.2.1/cmath **** 
 249:/usr/include/newlib/c++/9.2.1/cmath ****   template<typename _Tp>
 250:/usr/include/newlib/c++/9.2.1/cmath ****     inline _GLIBCXX_CONSTEXPR
 251:/usr/include/newlib/c++/9.2.1/cmath ****     typename __gnu_cxx::__enable_if<__is_integer<_Tp>::__value,
 252:/usr/include/newlib/c++/9.2.1/cmath ****                                     double>::__type
 253:/usr/include/newlib/c++/9.2.1/cmath ****     fabs(_Tp __x)
 254:/usr/include/newlib/c++/9.2.1/cmath ****     { return __builtin_fabs(__x); }
 255:/usr/include/newlib/c++/9.2.1/cmath **** 
 256:/usr/include/newlib/c++/9.2.1/cmath ****   using ::floor;
 257:/usr/include/newlib/c++/9.2.1/cmath **** 
 258:/usr/include/newlib/c++/9.2.1/cmath **** #ifndef __CORRECT_ISO_CPP_MATH_H_PROTO
 259:/usr/include/newlib/c++/9.2.1/cmath ****   inline _GLIBCXX_CONSTEXPR float
 260:/usr/include/newlib/c++/9.2.1/cmath ****   floor(float __x)
 261:/usr/include/newlib/c++/9.2.1/cmath ****   { return __builtin_floorf(__x); }
 262:/usr/include/newlib/c++/9.2.1/cmath **** 
 263:/usr/include/newlib/c++/9.2.1/cmath ****   inline _GLIBCXX_CONSTEXPR long double
 264:/usr/include/newlib/c++/9.2.1/cmath ****   floor(long double __x)
 265:/usr/include/newlib/c++/9.2.1/cmath ****   { return __builtin_floorl(__x); }
 266:/usr/include/newlib/c++/9.2.1/cmath **** #endif
 267:/usr/include/newlib/c++/9.2.1/cmath **** 
 268:/usr/include/newlib/c++/9.2.1/cmath ****   template<typename _Tp>
 269:/usr/include/newlib/c++/9.2.1/cmath ****     inline _GLIBCXX_CONSTEXPR
 270:/usr/include/newlib/c++/9.2.1/cmath ****     typename __gnu_cxx::__enable_if<__is_integer<_Tp>::__value,
 271:/usr/include/newlib/c++/9.2.1/cmath ****                                     double>::__type
 272:/usr/include/newlib/c++/9.2.1/cmath ****     floor(_Tp __x)
 273:/usr/include/newlib/c++/9.2.1/cmath ****     { return __builtin_floor(__x); }
 274:/usr/include/newlib/c++/9.2.1/cmath **** 
 275:/usr/include/newlib/c++/9.2.1/cmath ****   using ::fmod;
 276:/usr/include/newlib/c++/9.2.1/cmath **** 
 277:/usr/include/newlib/c++/9.2.1/cmath **** #ifndef __CORRECT_ISO_CPP_MATH_H_PROTO
 278:/usr/include/newlib/c++/9.2.1/cmath ****   inline _GLIBCXX_CONSTEXPR float
 279:/usr/include/newlib/c++/9.2.1/cmath ****   fmod(float __x, float __y)
 280:/usr/include/newlib/c++/9.2.1/cmath ****   { return __builtin_fmodf(__x, __y); }
 281:/usr/include/newlib/c++/9.2.1/cmath **** 
 282:/usr/include/newlib/c++/9.2.1/cmath ****   inline _GLIBCXX_CONSTEXPR long double
 283:/usr/include/newlib/c++/9.2.1/cmath ****   fmod(long double __x, long double __y)
 284:/usr/include/newlib/c++/9.2.1/cmath ****   { return __builtin_fmodl(__x, __y); }
 285:/usr/include/newlib/c++/9.2.1/cmath **** #endif
 286:/usr/include/newlib/c++/9.2.1/cmath **** 
 287:/usr/include/newlib/c++/9.2.1/cmath ****   template<typename _Tp, typename _Up>
 288:/usr/include/newlib/c++/9.2.1/cmath ****     inline _GLIBCXX_CONSTEXPR
 289:/usr/include/newlib/c++/9.2.1/cmath ****     typename __gnu_cxx::__promote_2<_Tp, _Up>::__type
 290:/usr/include/newlib/c++/9.2.1/cmath ****     fmod(_Tp __x, _Up __y)
 291:/usr/include/newlib/c++/9.2.1/cmath ****     {
ARM GAS  /tmp/ccslSSf6.s 			page 69


 292:/usr/include/newlib/c++/9.2.1/cmath ****       typedef typename __gnu_cxx::__promote_2<_Tp, _Up>::__type __type;
 293:/usr/include/newlib/c++/9.2.1/cmath ****       return fmod(__type(__x), __type(__y));
 294:/usr/include/newlib/c++/9.2.1/cmath ****     }
 295:/usr/include/newlib/c++/9.2.1/cmath **** 
 296:/usr/include/newlib/c++/9.2.1/cmath ****   using ::frexp;
 297:/usr/include/newlib/c++/9.2.1/cmath **** 
 298:/usr/include/newlib/c++/9.2.1/cmath **** #ifndef __CORRECT_ISO_CPP_MATH_H_PROTO
 299:/usr/include/newlib/c++/9.2.1/cmath ****   inline float
 300:/usr/include/newlib/c++/9.2.1/cmath ****   frexp(float __x, int* __exp)
 301:/usr/include/newlib/c++/9.2.1/cmath ****   { return __builtin_frexpf(__x, __exp); }
 302:/usr/include/newlib/c++/9.2.1/cmath **** 
 303:/usr/include/newlib/c++/9.2.1/cmath ****   inline long double
 304:/usr/include/newlib/c++/9.2.1/cmath ****   frexp(long double __x, int* __exp)
 305:/usr/include/newlib/c++/9.2.1/cmath ****   { return __builtin_frexpl(__x, __exp); }
 306:/usr/include/newlib/c++/9.2.1/cmath **** #endif
 307:/usr/include/newlib/c++/9.2.1/cmath **** 
 308:/usr/include/newlib/c++/9.2.1/cmath ****   template<typename _Tp>
 309:/usr/include/newlib/c++/9.2.1/cmath ****     inline _GLIBCXX_CONSTEXPR
 310:/usr/include/newlib/c++/9.2.1/cmath ****     typename __gnu_cxx::__enable_if<__is_integer<_Tp>::__value, 
 311:/usr/include/newlib/c++/9.2.1/cmath ****                                     double>::__type
 312:/usr/include/newlib/c++/9.2.1/cmath ****     frexp(_Tp __x, int* __exp)
 313:/usr/include/newlib/c++/9.2.1/cmath ****     { return __builtin_frexp(__x, __exp); }
 314:/usr/include/newlib/c++/9.2.1/cmath **** 
 315:/usr/include/newlib/c++/9.2.1/cmath ****   using ::ldexp;
 316:/usr/include/newlib/c++/9.2.1/cmath **** 
 317:/usr/include/newlib/c++/9.2.1/cmath **** #ifndef __CORRECT_ISO_CPP_MATH_H_PROTO
 318:/usr/include/newlib/c++/9.2.1/cmath ****   inline _GLIBCXX_CONSTEXPR float
 319:/usr/include/newlib/c++/9.2.1/cmath ****   ldexp(float __x, int __exp)
 320:/usr/include/newlib/c++/9.2.1/cmath ****   { return __builtin_ldexpf(__x, __exp); }
 321:/usr/include/newlib/c++/9.2.1/cmath **** 
 322:/usr/include/newlib/c++/9.2.1/cmath ****   inline _GLIBCXX_CONSTEXPR long double
 323:/usr/include/newlib/c++/9.2.1/cmath ****   ldexp(long double __x, int __exp)
 324:/usr/include/newlib/c++/9.2.1/cmath ****   { return __builtin_ldexpl(__x, __exp); }
 325:/usr/include/newlib/c++/9.2.1/cmath **** #endif
 326:/usr/include/newlib/c++/9.2.1/cmath **** 
 327:/usr/include/newlib/c++/9.2.1/cmath ****   template<typename _Tp>
 328:/usr/include/newlib/c++/9.2.1/cmath ****     inline _GLIBCXX_CONSTEXPR
 329:/usr/include/newlib/c++/9.2.1/cmath ****     typename __gnu_cxx::__enable_if<__is_integer<_Tp>::__value, 
 330:/usr/include/newlib/c++/9.2.1/cmath ****                                     double>::__type
 331:/usr/include/newlib/c++/9.2.1/cmath ****     ldexp(_Tp __x, int __exp)
 332:/usr/include/newlib/c++/9.2.1/cmath ****     { return __builtin_ldexp(__x, __exp); }
 333:/usr/include/newlib/c++/9.2.1/cmath **** 
 334:/usr/include/newlib/c++/9.2.1/cmath ****   using ::log;
 335:/usr/include/newlib/c++/9.2.1/cmath **** 
 336:/usr/include/newlib/c++/9.2.1/cmath **** #ifndef __CORRECT_ISO_CPP_MATH_H_PROTO
 337:/usr/include/newlib/c++/9.2.1/cmath ****   inline _GLIBCXX_CONSTEXPR float
 338:/usr/include/newlib/c++/9.2.1/cmath ****   log(float __x)
 339:/usr/include/newlib/c++/9.2.1/cmath ****   { return __builtin_logf(__x); }
 340:/usr/include/newlib/c++/9.2.1/cmath **** 
 341:/usr/include/newlib/c++/9.2.1/cmath ****   inline _GLIBCXX_CONSTEXPR long double
 342:/usr/include/newlib/c++/9.2.1/cmath ****   log(long double __x)
 343:/usr/include/newlib/c++/9.2.1/cmath ****   { return __builtin_logl(__x); }
 344:/usr/include/newlib/c++/9.2.1/cmath **** #endif
 345:/usr/include/newlib/c++/9.2.1/cmath **** 
 346:/usr/include/newlib/c++/9.2.1/cmath ****   template<typename _Tp>
 347:/usr/include/newlib/c++/9.2.1/cmath ****     inline _GLIBCXX_CONSTEXPR
 348:/usr/include/newlib/c++/9.2.1/cmath ****     typename __gnu_cxx::__enable_if<__is_integer<_Tp>::__value, 
ARM GAS  /tmp/ccslSSf6.s 			page 70


 349:/usr/include/newlib/c++/9.2.1/cmath ****                                     double>::__type
 350:/usr/include/newlib/c++/9.2.1/cmath ****     log(_Tp __x)
 351:/usr/include/newlib/c++/9.2.1/cmath ****     { return __builtin_log(__x); }
 352:/usr/include/newlib/c++/9.2.1/cmath **** 
 353:/usr/include/newlib/c++/9.2.1/cmath ****   using ::log10;
 354:/usr/include/newlib/c++/9.2.1/cmath **** 
 355:/usr/include/newlib/c++/9.2.1/cmath **** #ifndef __CORRECT_ISO_CPP_MATH_H_PROTO
 356:/usr/include/newlib/c++/9.2.1/cmath ****   inline _GLIBCXX_CONSTEXPR float
 357:/usr/include/newlib/c++/9.2.1/cmath ****   log10(float __x)
 358:/usr/include/newlib/c++/9.2.1/cmath ****   { return __builtin_log10f(__x); }
 359:/usr/include/newlib/c++/9.2.1/cmath **** 
 360:/usr/include/newlib/c++/9.2.1/cmath ****   inline _GLIBCXX_CONSTEXPR long double
 361:/usr/include/newlib/c++/9.2.1/cmath ****   log10(long double __x)
 362:/usr/include/newlib/c++/9.2.1/cmath ****   { return __builtin_log10l(__x); }
 363:/usr/include/newlib/c++/9.2.1/cmath **** #endif
 364:/usr/include/newlib/c++/9.2.1/cmath **** 
 365:/usr/include/newlib/c++/9.2.1/cmath ****   template<typename _Tp>
 366:/usr/include/newlib/c++/9.2.1/cmath ****     inline _GLIBCXX_CONSTEXPR
 367:/usr/include/newlib/c++/9.2.1/cmath ****     typename __gnu_cxx::__enable_if<__is_integer<_Tp>::__value,
 368:/usr/include/newlib/c++/9.2.1/cmath ****                                     double>::__type
 369:/usr/include/newlib/c++/9.2.1/cmath ****     log10(_Tp __x)
 370:/usr/include/newlib/c++/9.2.1/cmath ****     { return __builtin_log10(__x); }
 371:/usr/include/newlib/c++/9.2.1/cmath **** 
 372:/usr/include/newlib/c++/9.2.1/cmath ****   using ::modf;
 373:/usr/include/newlib/c++/9.2.1/cmath **** 
 374:/usr/include/newlib/c++/9.2.1/cmath **** #ifndef __CORRECT_ISO_CPP_MATH_H_PROTO
 375:/usr/include/newlib/c++/9.2.1/cmath ****   inline float
 376:/usr/include/newlib/c++/9.2.1/cmath ****   modf(float __x, float* __iptr)
 377:/usr/include/newlib/c++/9.2.1/cmath ****   { return __builtin_modff(__x, __iptr); }
 378:/usr/include/newlib/c++/9.2.1/cmath **** 
 379:/usr/include/newlib/c++/9.2.1/cmath ****   inline long double
 380:/usr/include/newlib/c++/9.2.1/cmath ****   modf(long double __x, long double* __iptr)
 381:/usr/include/newlib/c++/9.2.1/cmath ****   { return __builtin_modfl(__x, __iptr); }
 382:/usr/include/newlib/c++/9.2.1/cmath **** #endif
 383:/usr/include/newlib/c++/9.2.1/cmath **** 
 384:/usr/include/newlib/c++/9.2.1/cmath ****   using ::pow;
 385:/usr/include/newlib/c++/9.2.1/cmath **** 
 386:/usr/include/newlib/c++/9.2.1/cmath **** #ifndef __CORRECT_ISO_CPP_MATH_H_PROTO
 387:/usr/include/newlib/c++/9.2.1/cmath ****   inline _GLIBCXX_CONSTEXPR float
 388:/usr/include/newlib/c++/9.2.1/cmath ****   pow(float __x, float __y)
 389:/usr/include/newlib/c++/9.2.1/cmath ****   { return __builtin_powf(__x, __y); }
 390:/usr/include/newlib/c++/9.2.1/cmath **** 
 391:/usr/include/newlib/c++/9.2.1/cmath ****   inline _GLIBCXX_CONSTEXPR long double
 392:/usr/include/newlib/c++/9.2.1/cmath ****   pow(long double __x, long double __y)
 393:/usr/include/newlib/c++/9.2.1/cmath ****   { return __builtin_powl(__x, __y); }
 394:/usr/include/newlib/c++/9.2.1/cmath **** 
 395:/usr/include/newlib/c++/9.2.1/cmath **** #if __cplusplus < 201103L
 396:/usr/include/newlib/c++/9.2.1/cmath ****   // _GLIBCXX_RESOLVE_LIB_DEFECTS
 397:/usr/include/newlib/c++/9.2.1/cmath ****   // DR 550. What should the return type of pow(float,int) be?
 398:/usr/include/newlib/c++/9.2.1/cmath ****   inline double
 399:/usr/include/newlib/c++/9.2.1/cmath ****   pow(double __x, int __i)
 400:/usr/include/newlib/c++/9.2.1/cmath ****   { return __builtin_powi(__x, __i); }
 401:/usr/include/newlib/c++/9.2.1/cmath **** 
 402:/usr/include/newlib/c++/9.2.1/cmath ****   inline float
 403:/usr/include/newlib/c++/9.2.1/cmath ****   pow(float __x, int __n)
 404:/usr/include/newlib/c++/9.2.1/cmath ****   { return __builtin_powif(__x, __n); }
 405:/usr/include/newlib/c++/9.2.1/cmath **** 
ARM GAS  /tmp/ccslSSf6.s 			page 71


 406:/usr/include/newlib/c++/9.2.1/cmath ****   inline long double
 407:/usr/include/newlib/c++/9.2.1/cmath ****   pow(long double __x, int __n)
 408:/usr/include/newlib/c++/9.2.1/cmath ****   { return __builtin_powil(__x, __n); }
 409:/usr/include/newlib/c++/9.2.1/cmath **** #endif
 410:/usr/include/newlib/c++/9.2.1/cmath **** #endif
 411:/usr/include/newlib/c++/9.2.1/cmath **** 
 412:/usr/include/newlib/c++/9.2.1/cmath ****   template<typename _Tp, typename _Up>
 413:/usr/include/newlib/c++/9.2.1/cmath ****     inline _GLIBCXX_CONSTEXPR
 414:/usr/include/newlib/c++/9.2.1/cmath ****     typename __gnu_cxx::__promote_2<_Tp, _Up>::__type
 415:/usr/include/newlib/c++/9.2.1/cmath ****     pow(_Tp __x, _Up __y)
 416:/usr/include/newlib/c++/9.2.1/cmath ****     {
 417:/usr/include/newlib/c++/9.2.1/cmath ****       typedef typename __gnu_cxx::__promote_2<_Tp, _Up>::__type __type;
 418:/usr/include/newlib/c++/9.2.1/cmath ****       return pow(__type(__x), __type(__y));
 419:/usr/include/newlib/c++/9.2.1/cmath ****     }
 420:/usr/include/newlib/c++/9.2.1/cmath **** 
 421:/usr/include/newlib/c++/9.2.1/cmath ****   using ::sin;
 422:/usr/include/newlib/c++/9.2.1/cmath **** 
 423:/usr/include/newlib/c++/9.2.1/cmath **** #ifndef __CORRECT_ISO_CPP_MATH_H_PROTO
 424:/usr/include/newlib/c++/9.2.1/cmath ****   inline _GLIBCXX_CONSTEXPR float
 425:/usr/include/newlib/c++/9.2.1/cmath ****   sin(float __x)
 426:/usr/include/newlib/c++/9.2.1/cmath ****   { return __builtin_sinf(__x); }
 1913              		.loc 14 426 26 view .LVU401
 1914 0064 B0EE680A 		vmov.f32	s0, s17
 1915              	.LBE685:
 1916              	.LBE684:
 315:../../libdaisy/src/hid/disp/display.h ****         start_y = -sin(start_angle_rad) * radius;
 1917              		.loc 6 315 9 view .LVU402
 1918 0068 F8EE679A 		vcvt.f32.u32	s19, s15
 1919              	.LBB688:
 1920              	.LBB686:
 1921              		.loc 14 426 26 view .LVU403
 1922 006c FFF7FEFF 		bl	sinf
 1923              	.LVL141:
 1924 0070 F0EE408A 		vmov.f32	s17, s0
 1925              	.LVL142:
 1926              		.loc 14 426 26 view .LVU404
 1927              	.LBE686:
 1928              	.LBE688:
 1929              	.LBB689:
 1930              	.LBB690:
 185:/usr/include/newlib/c++/9.2.1/cmath **** 
 1931              		.loc 14 185 26 view .LVU405
 1932 0074 B0EE4A0A 		vmov.f32	s0, s20
 1933 0078 FFF7FEFF 		bl	cosf
 1934              	.LVL143:
 1935 007c B0EE409A 		vmov.f32	s18, s0
 1936              	.LBE690:
 1937              	.LBE689:
 1938              	.LBB692:
 1939              	.LBB693:
 1940              		.loc 14 426 26 view .LVU406
 1941 0080 B0EE4A0A 		vmov.f32	s0, s20
 1942 0084 FFF7FEFF 		bl	sinf
 1943              	.LVL144:
 1944              	.LBE693:
 1945              	.LBE692:
 316:../../libdaisy/src/hid/disp/display.h ****         end_x   = cos(end_angle_rad) * radius;
ARM GAS  /tmp/ccslSSf6.s 			page 72


 1946              		.loc 6 316 9 view .LVU407
 1947 0088 68EEE98A 		vnmul.f32	s17, s17, s19
 318:../../libdaisy/src/hid/disp/display.h **** 
 1948              		.loc 6 318 9 view .LVU408
 1949 008c 20EE690A 		vnmul.f32	s0, s0, s19
 315:../../libdaisy/src/hid/disp/display.h ****         start_y = -sin(start_angle_rad) * radius;
 1950              		.loc 6 315 9 view .LVU409
 1951 0090 29EE888A 		vmul.f32	s16, s19, s16
 1952              	.LVL145:
 1953              	.LBB695:
 1954              	.LBI684:
 425:/usr/include/newlib/c++/9.2.1/cmath ****   { return __builtin_sinf(__x); }
 1955              		.loc 14 425 3 is_stmt 1 view .LVU410
 1956              	.LBB687:
 1957              		.loc 14 426 5 view .LVU411
 1958              		.loc 14 426 5 is_stmt 0 view .LVU412
 1959              	.LBE687:
 1960              	.LBE695:
 1961              	.LBB696:
 1962              	.LBI689:
 184:/usr/include/newlib/c++/9.2.1/cmath ****   { return __builtin_cosf(__x); }
 1963              		.loc 14 184 3 is_stmt 1 view .LVU413
 1964              	.LBB691:
 185:/usr/include/newlib/c++/9.2.1/cmath **** 
 1965              		.loc 14 185 5 view .LVU414
 185:/usr/include/newlib/c++/9.2.1/cmath **** 
 1966              		.loc 14 185 5 is_stmt 0 view .LVU415
 1967              	.LBE691:
 1968              	.LBE696:
 317:../../libdaisy/src/hid/disp/display.h ****         end_y   = -sin(end_angle_rad) * radius;
 1969              		.loc 6 317 9 view .LVU416
 1970 0094 29EE899A 		vmul.f32	s18, s19, s18
 1971              	.LVL146:
 1972              	.LBB697:
 1973              	.LBI692:
 425:/usr/include/newlib/c++/9.2.1/cmath ****   { return __builtin_sinf(__x); }
 1974              		.loc 14 425 3 is_stmt 1 view .LVU417
 1975              	.LBB694:
 1976              		.loc 14 426 5 view .LVU418
 1977              		.loc 14 426 5 is_stmt 0 view .LVU419
 1978              	.LBE694:
 1979              	.LBE697:
 322:../../libdaisy/src/hid/disp/display.h ****            < 2.0f)
 1980              		.loc 6 322 25 view .LVU420
 1981 0098 70EE687A 		vsub.f32	s15, s0, s17
 321:../../libdaisy/src/hid/disp/display.h ****                + (end_y - start_y) * (end_y - start_y)
 1982              		.loc 6 321 9 view .LVU421
 1983 009c F0EE006A 		vmov.f32	s13, #2.0e+0
 321:../../libdaisy/src/hid/disp/display.h ****                + (end_y - start_y) * (end_y - start_y)
 1984              		.loc 6 321 19 view .LVU422
 1985 00a0 39EE487A 		vsub.f32	s14, s18, s16
 322:../../libdaisy/src/hid/disp/display.h ****            < 2.0f)
 1986              		.loc 6 322 36 view .LVU423
 1987 00a4 67EEA77A 		vmul.f32	s15, s15, s15
 322:../../libdaisy/src/hid/disp/display.h ****            < 2.0f)
 1988              		.loc 6 322 16 view .LVU424
 1989 00a8 E7EE077A 		vfma.f32	s15, s14, s14
ARM GAS  /tmp/ccslSSf6.s 			page 73


 321:../../libdaisy/src/hid/disp/display.h ****                + (end_y - start_y) * (end_y - start_y)
 1990              		.loc 6 321 9 view .LVU425
 1991 00ac F4EEE67A 		vcmpe.f32	s15, s13
 1992 00b0 F1EE10FA 		vmrs	APSR_nzcv, FPSCR
 1993 00b4 06D5     		bpl	.L200
 325:../../libdaisy/src/hid/disp/display.h ****                 circle = true;
 1994              		.loc 6 325 13 view .LVU426
 1995 00b6 159B     		ldr	r3, [sp, #84]
 1996 00b8 B42B     		cmp	r3, #180
 1997 00ba 40F3EE80 		ble	.L141
 326:../../libdaisy/src/hid/disp/display.h ****             else
 1998              		.loc 6 326 17 view .LVU427
 1999 00be 4FF0010E 		mov	lr, #1
 2000 00c2 01E0     		b	.L144
 2001              	.L200:
 304:../../libdaisy/src/hid/disp/display.h **** 
 2002              		.loc 6 304 14 view .LVU428
 2003 00c4 4FF0000E 		mov	lr, #0
 2004              	.L144:
 2005              	.LVL147:
 302:../../libdaisy/src/hid/disp/display.h **** 
 2006              		.loc 6 302 9 view .LVU429
 2007 00c8 0126     		movs	r6, #1
 334:../../libdaisy/src/hid/disp/display.h **** 
 2008              		.loc 6 334 17 view .LVU430
 2009 00ca C4F10103 		rsb	r3, r4, #1
 302:../../libdaisy/src/hid/disp/display.h **** 
 2010              		.loc 6 302 9 view .LVU431
 2011 00ce 3A46     		mov	r2, r7
 332:../../libdaisy/src/hid/disp/display.h ****         t_y = 0;
 2012              		.loc 6 332 9 view .LVU432
 2013 00d0 6042     		rsbs	r0, r4, #0
 2014              	.LVL148:
 334:../../libdaisy/src/hid/disp/display.h **** 
 2015              		.loc 6 334 17 view .LVU433
 2016 00d2 B340     		lsls	r3, r3, r6
 2017              	.LVL149:
 333:../../libdaisy/src/hid/disp/display.h ****         err = 2 - 2 * radius;
 2018              		.loc 6 333 9 view .LVU434
 2019 00d4 0024     		movs	r4, #0
 2020              	.LVL150:
 302:../../libdaisy/src/hid/disp/display.h **** 
 2021              		.loc 6 302 9 view .LVU435
 2022 00d6 3146     		mov	r1, r6
 2023 00d8 3746     		mov	r7, r6
 2024              	.LVL151:
 302:../../libdaisy/src/hid/disp/display.h **** 
 2025              		.loc 6 302 9 view .LVU436
 2026 00da 9446     		mov	ip, r2
 2027 00dc 0196     		str	r6, [sp, #4]
 2028              	.LVL152:
 2029              	.L170:
 338:../../libdaisy/src/hid/disp/display.h ****             {
 2030              		.loc 6 338 13 view .LVU437
 2031 00de BEF1000F 		cmp	lr, #0
 2032 00e2 6AD1     		bne	.L146
 343:../../libdaisy/src/hid/disp/display.h ****                 t_exy  = end_x * t_y;
ARM GAS  /tmp/ccslSSf6.s 			page 74


 2033              		.loc 6 343 34 view .LVU438
 2034 00e4 4242     		rsbs	r2, r0, #0
 340:../../libdaisy/src/hid/disp/display.h ****                 t_syx  = start_y * t_x;
 2035              		.loc 6 340 17 view .LVU439
 2036 00e6 06EE904A 		vmov	s13, r4	@ int
 342:../../libdaisy/src/hid/disp/display.h ****                 t_synx = start_y * -t_x;
 2037              		.loc 6 342 34 view .LVU440
 2038 00ea 6142     		rsbs	r1, r4, #0
 2039              	.LVL153:
 343:../../libdaisy/src/hid/disp/display.h ****                 t_exy  = end_x * t_y;
 2040              		.loc 6 343 34 view .LVU441
 2041 00ec 07EE102A 		vmov	s14, r2	@ int
 340:../../libdaisy/src/hid/disp/display.h ****                 t_syx  = start_y * t_x;
 2042              		.loc 6 340 17 view .LVU442
 2043 00f0 F8EEE66A 		vcvt.f32.s32	s13, s13
 342:../../libdaisy/src/hid/disp/display.h ****                 t_synx = start_y * -t_x;
 2044              		.loc 6 342 34 view .LVU443
 2045 00f4 07EE901A 		vmov	s15, r1	@ int
 349:../../libdaisy/src/hid/disp/display.h ****                 {
 2046              		.loc 6 349 17 view .LVU444
 2047 00f8 159A     		ldr	r2, [sp, #84]
 343:../../libdaisy/src/hid/disp/display.h ****                 t_exy  = end_x * t_y;
 2048              		.loc 6 343 34 view .LVU445
 2049 00fa B8EEC77A 		vcvt.f32.s32	s14, s14
 340:../../libdaisy/src/hid/disp/display.h ****                 t_syx  = start_y * t_x;
 2050              		.loc 6 340 17 view .LVU446
 2051 00fe 66EE884A 		vmul.f32	s9, s13, s16
 2052              	.LVL154:
 349:../../libdaisy/src/hid/disp/display.h ****                 {
 2053              		.loc 6 349 17 view .LVU447
 2054 0102 B42A     		cmp	r2, #180
 344:../../libdaisy/src/hid/disp/display.h ****                 t_eyx  = end_y * t_x;
 2055              		.loc 6 344 17 view .LVU448
 2056 0104 26EE896A 		vmul.f32	s12, s13, s18
 341:../../libdaisy/src/hid/disp/display.h ****                 t_sxny = start_x * -t_y;
 2057              		.loc 6 341 17 view .LVU449
 2058 0108 06EE900A 		vmov	s13, r0	@ int
 343:../../libdaisy/src/hid/disp/display.h ****                 t_exy  = end_x * t_y;
 2059              		.loc 6 343 17 view .LVU450
 2060 010c 27EE284A 		vmul.f32	s8, s14, s17
 342:../../libdaisy/src/hid/disp/display.h ****                 t_synx = start_y * -t_x;
 2061              		.loc 6 342 34 view .LVU451
 2062 0110 F8EEE77A 		vcvt.f32.s32	s15, s15
 341:../../libdaisy/src/hid/disp/display.h ****                 t_sxny = start_x * -t_y;
 2063              		.loc 6 341 17 view .LVU452
 2064 0114 F8EEE66A 		vcvt.f32.s32	s13, s13
 351:../../libdaisy/src/hid/disp/display.h ****                     d2 = (t_sxy - t_syx < 0 || t_exy - t_eyx > 0);
 2065              		.loc 6 351 33 view .LVU453
 2066 0118 74EEC43A 		vsub.f32	s7, s9, s8
 342:../../libdaisy/src/hid/disp/display.h ****                 t_synx = start_y * -t_x;
 2067              		.loc 6 342 17 view .LVU454
 2068 011c 67EE885A 		vmul.f32	s11, s15, s16
 341:../../libdaisy/src/hid/disp/display.h ****                 t_sxny = start_x * -t_y;
 2069              		.loc 6 341 17 view .LVU455
 2070 0120 26EEA85A 		vmul.f32	s10, s13, s17
 2071              	.LVL155:
 346:../../libdaisy/src/hid/disp/display.h ****                 t_eynx = end_y * -t_x;
ARM GAS  /tmp/ccslSSf6.s 			page 75


 2072              		.loc 6 346 17 view .LVU456
 2073 0124 67EE897A 		vmul.f32	s15, s15, s18
 347:../../libdaisy/src/hid/disp/display.h **** 
 2074              		.loc 6 347 17 view .LVU457
 2075 0128 27EE007A 		vmul.f32	s14, s14, s0
 345:../../libdaisy/src/hid/disp/display.h ****                 t_exny = end_x * -t_y;
 2076              		.loc 6 345 17 view .LVU458
 2077 012c 66EE806A 		vmul.f32	s13, s13, s0
 2078              	.LVL156:
 351:../../libdaisy/src/hid/disp/display.h ****                     d2 = (t_sxy - t_syx < 0 || t_exy - t_eyx > 0);
 2079              		.loc 6 351 46 view .LVU459
 2080 0130 F5EEC03A 		vcmpe.f32	s7, #0
 349:../../libdaisy/src/hid/disp/display.h ****                 {
 2081              		.loc 6 349 17 view .LVU460
 2082 0134 40F3DC80 		ble	.L147
 351:../../libdaisy/src/hid/disp/display.h ****                     d2 = (t_sxy - t_syx < 0 || t_exy - t_eyx > 0);
 2083              		.loc 6 351 46 view .LVU461
 2084 0138 F1EE10FA 		vmrs	APSR_nzcv, FPSCR
 2085 013c 00F14D81 		bmi	.L173
 351:../../libdaisy/src/hid/disp/display.h ****                     d2 = (t_sxy - t_syx < 0 || t_exy - t_eyx > 0);
 2086              		.loc 6 351 55 discriminator 2 view .LVU462
 2087 0140 76EE473A 		vsub.f32	s7, s12, s14
 352:../../libdaisy/src/hid/disp/display.h ****                     d3 = (t_sxny - t_syx < 0 || t_exny - t_eyx > 0);
 2088              		.loc 6 352 33 discriminator 2 view .LVU463
 2089 0144 74EEC54A 		vsub.f32	s9, s9, s10
 2090              	.LVL157:
 351:../../libdaisy/src/hid/disp/display.h ****                     d2 = (t_sxy - t_syx < 0 || t_exy - t_eyx > 0);
 2091              		.loc 6 351 46 discriminator 2 view .LVU464
 2092 0148 F5EEC03A 		vcmpe.f32	s7, #0
 2093 014c F1EE10FA 		vmrs	APSR_nzcv, FPSCR
 352:../../libdaisy/src/hid/disp/display.h ****                     d3 = (t_sxny - t_syx < 0 || t_exny - t_eyx > 0);
 2094              		.loc 6 352 45 discriminator 2 view .LVU465
 2095 0150 F5EEC04A 		vcmpe.f32	s9, #0
 351:../../libdaisy/src/hid/disp/display.h ****                     d2 = (t_sxy - t_syx < 0 || t_exy - t_eyx > 0);
 2096              		.loc 6 351 46 discriminator 2 view .LVU466
 2097 0154 CCBF     		ite	gt
 2098 0156 0122     		movgt	r2, #1
 2099 0158 0022     		movle	r2, #0
 352:../../libdaisy/src/hid/disp/display.h ****                     d3 = (t_sxny - t_syx < 0 || t_exny - t_eyx > 0);
 2100              		.loc 6 352 45 discriminator 2 view .LVU467
 2101 015a F1EE10FA 		vmrs	APSR_nzcv, FPSCR
 351:../../libdaisy/src/hid/disp/display.h ****                     d2 = (t_sxy - t_syx < 0 || t_exy - t_eyx > 0);
 2102              		.loc 6 351 46 discriminator 2 view .LVU468
 2103 015e 0192     		str	r2, [sp, #4]
 2104              	.LVL158:
 352:../../libdaisy/src/hid/disp/display.h ****                     d3 = (t_sxny - t_syx < 0 || t_exny - t_eyx > 0);
 2105              		.loc 6 352 45 discriminator 2 view .LVU469
 2106 0160 00F14581 		bmi	.L174
 2107              	.L214:
 352:../../libdaisy/src/hid/disp/display.h ****                     d3 = (t_sxny - t_syx < 0 || t_exny - t_eyx > 0);
 2108              		.loc 6 352 54 discriminator 2 view .LVU470
 2109 0164 36EE666A 		vsub.f32	s12, s12, s13
 2110              	.LVL159:
 353:../../libdaisy/src/hid/disp/display.h ****                     d4 = (t_sxny - t_synx < 0 || t_exny - t_eynx > 0);
 2111              		.loc 6 353 34 discriminator 2 view .LVU471
 2112 0168 35EEC55A 		vsub.f32	s10, s11, s10
 2113              	.LVL160:
ARM GAS  /tmp/ccslSSf6.s 			page 76


 352:../../libdaisy/src/hid/disp/display.h ****                     d3 = (t_sxny - t_syx < 0 || t_exny - t_eyx > 0);
 2114              		.loc 6 352 45 discriminator 2 view .LVU472
 2115 016c B5EEC06A 		vcmpe.f32	s12, #0
 2116 0170 F1EE10FA 		vmrs	APSR_nzcv, FPSCR
 353:../../libdaisy/src/hid/disp/display.h ****                     d4 = (t_sxny - t_synx < 0 || t_exny - t_eynx > 0);
 2117              		.loc 6 353 46 discriminator 2 view .LVU473
 2118 0174 B5EEC05A 		vcmpe.f32	s10, #0
 352:../../libdaisy/src/hid/disp/display.h ****                     d3 = (t_sxny - t_syx < 0 || t_exny - t_eyx > 0);
 2119              		.loc 6 352 45 discriminator 2 view .LVU474
 2120 0178 CCBF     		ite	gt
 2121 017a 0121     		movgt	r1, #1
 2122 017c 0021     		movle	r1, #0
 2123              	.LVL161:
 353:../../libdaisy/src/hid/disp/display.h ****                     d4 = (t_sxny - t_synx < 0 || t_exny - t_eynx > 0);
 2124              		.loc 6 353 46 discriminator 2 view .LVU475
 2125 017e F1EE10FA 		vmrs	APSR_nzcv, FPSCR
 2126 0182 00F13D81 		bmi	.L175
 2127              	.L215:
 353:../../libdaisy/src/hid/disp/display.h ****                     d4 = (t_sxny - t_synx < 0 || t_exny - t_eynx > 0);
 2128              		.loc 6 353 56 discriminator 2 view .LVU476
 2129 0186 77EEE66A 		vsub.f32	s13, s15, s13
 2130              	.LVL162:
 353:../../libdaisy/src/hid/disp/display.h ****                     d4 = (t_sxny - t_synx < 0 || t_exny - t_eynx > 0);
 2131              		.loc 6 353 46 discriminator 2 view .LVU477
 2132 018a F5EEC06A 		vcmpe.f32	s13, #0
 2133 018e F1EE10FA 		vmrs	APSR_nzcv, FPSCR
 2134 0192 CCBF     		ite	gt
 2135 0194 0126     		movgt	r6, #1
 2136              	.LVL163:
 353:../../libdaisy/src/hid/disp/display.h ****                     d4 = (t_sxny - t_synx < 0 || t_exny - t_eynx > 0);
 2137              		.loc 6 353 46 discriminator 2 view .LVU478
 2138 0196 0026     		movle	r6, #0
 2139              	.L150:
 2140              	.LVL164:
 354:../../libdaisy/src/hid/disp/display.h ****                 }
 2141              		.loc 6 354 34 discriminator 6 view .LVU479
 2142 0198 75EEC45A 		vsub.f32	s11, s11, s8
 2143              	.LVL165:
 354:../../libdaisy/src/hid/disp/display.h ****                 }
 2144              		.loc 6 354 47 discriminator 6 view .LVU480
 2145 019c F5EEC05A 		vcmpe.f32	s11, #0
 2146 01a0 F1EE10FA 		vmrs	APSR_nzcv, FPSCR
 2147 01a4 00F11781 		bmi	.L176
 2148              	.L206:
 361:../../libdaisy/src/hid/disp/display.h ****                 }
 2149              		.loc 6 361 57 discriminator 1 view .LVU481
 2150 01a8 77EEC77A 		vsub.f32	s15, s15, s14
 2151              	.LVL166:
 361:../../libdaisy/src/hid/disp/display.h ****                 }
 2152              		.loc 6 361 47 discriminator 1 view .LVU482
 2153 01ac F5EEC07A 		vcmpe.f32	s15, #0
 2154 01b0 F1EE10FA 		vmrs	APSR_nzcv, FPSCR
 2155 01b4 CCBF     		ite	gt
 2156 01b6 0127     		movgt	r7, #1
 2157              	.LVL167:
 361:../../libdaisy/src/hid/disp/display.h ****                 }
 2158              		.loc 6 361 47 discriminator 1 view .LVU483
ARM GAS  /tmp/ccslSSf6.s 			page 77


 2159 01b8 0027     		movle	r7, #0
 2160              	.LVL168:
 2161              	.L146:
 365:../../libdaisy/src/hid/disp/display.h ****                 ((ChildType*)(this))
 2162              		.loc 6 365 13 view .LVU484
 2163 01ba 019A     		ldr	r2, [sp, #4]
 2164 01bc F2B1     		cbz	r2, .L158
 366:../../libdaisy/src/hid/disp/display.h ****                     ->ChildType::DrawPixel(x - t_x, y + t_y, on);
 2165              		.loc 6 366 17 view .LVU485
 2166 01be ACEB0009 		sub	r9, ip, r0
 2167 01c2 04EB0805 		add	r5, r4, r8
 2168              	.LVL169:
 2169              	.LBB698:
 2170              	.LBI698:
  41:../../libdaisy/src/hid/disp/oled_display.h ****     {
 2171              		.loc 5 41 10 is_stmt 1 view .LVU486
 2172              	.LBB699:
 2173              	.LBI699:
 239:../../libdaisy/src/dev/oled_ssd130x.h ****     {
 2174              		.loc 13 239 10 view .LVU487
 2175              	.LBB700:
 241:../../libdaisy/src/dev/oled_ssd130x.h ****             return;
 2176              		.loc 13 241 9 is_stmt 0 view .LVU488
 2177 01c6 B9F17F0F 		cmp	r9, #127
 2178 01ca 17D8     		bhi	.L158
 2179 01cc 3F2D     		cmp	r5, #63
 2180 01ce 15D8     		bhi	.L158
 244:../../libdaisy/src/dev/oled_ssd130x.h ****         else
 2181              		.loc 13 244 28 view .LVU489
 2182 01d0 4FEAD50A 		lsr	r10, r5, #3
 244:../../libdaisy/src/dev/oled_ssd130x.h ****         else
 2183              		.loc 13 244 48 view .LVU490
 2184 01d4 4FF0010B 		mov	fp, #1
 244:../../libdaisy/src/dev/oled_ssd130x.h ****         else
 2185              		.loc 13 244 54 view .LVU491
 2186 01d8 05F00705 		and	r5, r5, #7
 2187              	.LVL170:
 243:../../libdaisy/src/dev/oled_ssd130x.h ****             buffer_[x + (y / 8) * width] |= (1 << (y % 8));
 2188              		.loc 13 243 9 view .LVU492
 2189 01dc 029A     		ldr	r2, [sp, #8]
 244:../../libdaisy/src/dev/oled_ssd130x.h ****         else
 2190              		.loc 13 244 42 view .LVU493
 2191 01de 09EBCA19 		add	r9, r9, r10, lsl #7
 2192              	.LVL171:
 244:../../libdaisy/src/dev/oled_ssd130x.h ****         else
 2193              		.loc 13 244 48 view .LVU494
 2194 01e2 0BFA05F5 		lsl	r5, fp, r5
 243:../../libdaisy/src/dev/oled_ssd130x.h ****             buffer_[x + (y / 8) * width] |= (1 << (y % 8));
 2195              		.loc 13 243 9 view .LVU495
 2196 01e6 002A     		cmp	r2, #0
 2197 01e8 00F0C280 		beq	.L159
 244:../../libdaisy/src/dev/oled_ssd130x.h ****         else
 2198              		.loc 13 244 13 view .LVU496
 2199 01ec 039A     		ldr	r2, [sp, #12]
 2200 01ee 9144     		add	r9, r9, r2
 244:../../libdaisy/src/dev/oled_ssd130x.h ****         else
 2201              		.loc 13 244 42 view .LVU497
ARM GAS  /tmp/ccslSSf6.s 			page 78


 2202 01f0 99F814B0 		ldrb	fp, [r9, #20]	@ zero_extendqisi2
 2203 01f4 45EA0B05 		orr	r5, r5, fp
 244:../../libdaisy/src/dev/oled_ssd130x.h ****         else
 2204              		.loc 13 244 13 view .LVU498
 2205 01f8 89F81450 		strb	r5, [r9, #20]
 2206              	.LVL172:
 2207              	.L158:
 244:../../libdaisy/src/dev/oled_ssd130x.h ****         else
 2208              		.loc 13 244 13 view .LVU499
 2209              	.LBE700:
