ARM GAS  /tmp/ccvNZy9v.s 			page 1


   1              		.cpu cortex-m7
   2              		.eabi_attribute 28, 1
   3              		.eabi_attribute 20, 1
   4              		.eabi_attribute 21, 1
   5              		.eabi_attribute 23, 3
   6              		.eabi_attribute 24, 1
   7              		.eabi_attribute 25, 1
   8              		.eabi_attribute 26, 1
   9              		.eabi_attribute 30, 2
  10              		.eabi_attribute 34, 1
  11              		.eabi_attribute 18, 4
  12              		.file	"correlator.cpp"
  13              		.text
  14              	.Ltext0:
  15              		.cfi_sections	.debug_frame
  16              		.section	.text._ZN10Correlator4InitEPmS0_,"ax",%progbits
  17              		.align	1
  18              		.p2align 2,,3
  19              		.global	_ZN10Correlator4InitEPmS0_
  20              		.arch armv7e-m
  21              		.syntax unified
  22              		.thumb
  23              		.thumb_func
  24              		.fpu fpv5-d16
  26              	_ZN10Correlator4InitEPmS0_:
  27              	.LVL0:
  28              	.LFB3589:
  29              		.file 1 "dsp/correlator.cpp"
   1:dsp/correlator.cpp **** // Copyright 2014 Emilie Gillet.
   2:dsp/correlator.cpp **** //
   3:dsp/correlator.cpp **** // Author: Emilie Gillet (emilie.o.gillet@gmail.com)
   4:dsp/correlator.cpp **** //
   5:dsp/correlator.cpp **** // Permission is hereby granted, free of charge, to any person obtaining a copy
   6:dsp/correlator.cpp **** // of this software and associated documentation files (the "Software"), to deal
   7:dsp/correlator.cpp **** // in the Software without restriction, including without limitation the rights
   8:dsp/correlator.cpp **** // to use, copy, modify, merge, publish, distribute, sublicense, and/or sell
   9:dsp/correlator.cpp **** // copies of the Software, and to permit persons to whom the Software is
  10:dsp/correlator.cpp **** // furnished to do so, subject to the following conditions:
  11:dsp/correlator.cpp **** //
  12:dsp/correlator.cpp **** // The above copyright notice and this permission notice shall be included in
  13:dsp/correlator.cpp **** // all copies or substantial portions of the Software.
  14:dsp/correlator.cpp **** //
  15:dsp/correlator.cpp **** // THE SOFTWARE IS PROVIDED "AS IS", WITHOUT WARRANTY OF ANY KIND, EXPRESS OR
  16:dsp/correlator.cpp **** // IMPLIED, INCLUDING BUT NOT LIMITED TO THE WARRANTIES OF MERCHANTABILITY,
  17:dsp/correlator.cpp **** // FITNESS FOR A PARTICULAR PURPOSE AND NONINFRINGEMENT. IN NO EVENT SHALL THE
  18:dsp/correlator.cpp **** // AUTHORS OR COPYRIGHT HOLDERS BE LIABLE FOR ANY CLAIM, DAMAGES OR OTHER
  19:dsp/correlator.cpp **** // LIABILITY, WHETHER IN AN ACTION OF CONTRACT, TORT OR OTHERWISE, ARISING FROM,
  20:dsp/correlator.cpp **** // OUT OF OR IN CONNECTION WITH THE SOFTWARE OR THE USE OR OTHER DEALINGS IN
  21:dsp/correlator.cpp **** // THE SOFTWARE.
  22:dsp/correlator.cpp **** //
  23:dsp/correlator.cpp **** // See http://creativecommons.org/licenses/MIT/ for more information.
  24:dsp/correlator.cpp **** //
  25:dsp/correlator.cpp **** // -----------------------------------------------------------------------------
  26:dsp/correlator.cpp **** //
  27:dsp/correlator.cpp **** // Search for stretch/shift splicing points by maximizing correlation.
  28:dsp/correlator.cpp **** 
  29:dsp/correlator.cpp **** #include "correlator.h"
ARM GAS  /tmp/ccvNZy9v.s 			page 2


  30:dsp/correlator.cpp **** 
  31:dsp/correlator.cpp **** #include <algorithm>
  32:dsp/correlator.cpp **** 
  33:dsp/correlator.cpp **** using namespace daisysp;
  34:dsp/correlator.cpp **** 
  35:dsp/correlator.cpp **** using namespace std;
  36:dsp/correlator.cpp **** 
  37:dsp/correlator.cpp **** void Correlator::Init(uint32_t* source, uint32_t* destination)
  38:dsp/correlator.cpp **** {
  30              		.loc 1 38 1 view -0
  31              		.cfi_startproc
  32              		@ args = 0, pretend = 0, frame = 0
  33              		@ frame_needed = 0, uses_anonymous_args = 0
  34              		@ link register save eliminated.
  39:dsp/correlator.cpp ****     source_      = source;
  35              		.loc 1 39 5 view .LVU1
  40:dsp/correlator.cpp ****     destination_ = destination;
  41:dsp/correlator.cpp ****     offset_      = 0;
  36              		.loc 1 41 18 is_stmt 0 view .LVU2
  37 0000 0023     		movs	r3, #0
  38:dsp/correlator.cpp ****     source_      = source;
  38              		.loc 1 38 1 view .LVU3
  39 0002 10B4     		push	{r4}
  40              		.cfi_def_cfa_offset 4
  41              		.cfi_offset 4, -4
  42:dsp/correlator.cpp ****     best_match_  = 0;
  43:dsp/correlator.cpp ****     done_        = true;
  42              		.loc 1 43 18 view .LVU4
  43 0004 0124     		movs	r4, #1
  41:dsp/correlator.cpp ****     best_match_  = 0;
  44              		.loc 1 41 18 view .LVU5
  45 0006 8360     		str	r3, [r0, #8]
  42:dsp/correlator.cpp ****     best_match_  = 0;
  46              		.loc 1 42 18 view .LVU6
  47 0008 C361     		str	r3, [r0, #28]
  48              		.loc 1 43 18 view .LVU7
  49 000a 80F82440 		strb	r4, [r0, #36]
  44:dsp/correlator.cpp **** }
  50              		.loc 1 44 1 view .LVU8
  51 000e 5DF8044B 		ldr	r4, [sp], #4
  52              		.cfi_restore 4
  53              		.cfi_def_cfa_offset 0
  40:dsp/correlator.cpp ****     offset_      = 0;
  54              		.loc 1 40 18 view .LVU9
  55 0012 C0E90012 		strd	r1, r2, [r0]
  41:dsp/correlator.cpp ****     best_match_  = 0;
  56              		.loc 1 41 5 is_stmt 1 view .LVU10
  42:dsp/correlator.cpp ****     done_        = true;
  57              		.loc 1 42 5 view .LVU11
  43:dsp/correlator.cpp **** }
  58              		.loc 1 43 5 view .LVU12
  59              		.loc 1 44 1 is_stmt 0 view .LVU13
  60 0016 7047     		bx	lr
  61              		.cfi_endproc
  62              	.LFE3589:
  64              		.section	.text._ZN10Correlator21EvaluateNextCandidateEv,"ax",%progbits
  65              		.align	1
ARM GAS  /tmp/ccvNZy9v.s 			page 3


  66              		.p2align 2,,3
  67              		.global	_ZN10Correlator21EvaluateNextCandidateEv
  68              		.syntax unified
  69              		.thumb
  70              		.thumb_func
  71              		.fpu fpv5-d16
  73              	_ZN10Correlator21EvaluateNextCandidateEv:
  74              	.LVL1:
  75              	.LFB3590:
  45:dsp/correlator.cpp **** 
  46:dsp/correlator.cpp **** void Correlator::EvaluateNextCandidate()
  47:dsp/correlator.cpp **** {
  76              		.loc 1 47 1 is_stmt 1 view -0
  77              		.cfi_startproc
  78              		@ args = 0, pretend = 0, frame = 0
  79              		@ frame_needed = 0, uses_anonymous_args = 0
  48:dsp/correlator.cpp ****     if(done_)
  80              		.loc 1 48 5 view .LVU15
  47:dsp/correlator.cpp ****     if(done_)
  81              		.loc 1 47 1 is_stmt 0 view .LVU16
  82 0000 2DE9F047 		push	{r4, r5, r6, r7, r8, r9, r10, lr}
  83              		.cfi_def_cfa_offset 32
  84              		.cfi_offset 4, -32
  85              		.cfi_offset 5, -28
  86              		.cfi_offset 6, -24
  87              		.cfi_offset 7, -20
  88              		.cfi_offset 8, -16
  89              		.cfi_offset 9, -12
  90              		.cfi_offset 10, -8
  91              		.cfi_offset 14, -4
  92              		.loc 1 48 5 view .LVU17
  93 0004 90F82440 		ldrb	r4, [r0, #36]	@ zero_extendqisi2
  94 0008 002C     		cmp	r4, #0
  95 000a 4CD1     		bne	.L4
  49:dsp/correlator.cpp ****     {
  50:dsp/correlator.cpp ****         return;
  51:dsp/correlator.cpp ****     }
  52:dsp/correlator.cpp ****     uint32_t  num_words    = size_ >> 5;
  96              		.loc 1 52 5 is_stmt 1 view .LVU18
  53:dsp/correlator.cpp ****     uint32_t  offset_words = candidate_ >> 5;
  97              		.loc 1 53 30 is_stmt 0 view .LVU19
  98 000c D0F814E0 		ldr	lr, [r0, #20]
  52:dsp/correlator.cpp ****     uint32_t  offset_words = candidate_ >> 5;
  99              		.loc 1 52 30 view .LVU20
 100 0010 D0F81080 		ldr	r8, [r0, #16]
 101              	.LVL2:
 102              		.loc 1 53 5 is_stmt 1 view .LVU21
  54:dsp/correlator.cpp ****     uint32_t  offset_bits  = candidate_ & 0x1f;
 103              		.loc 1 54 5 view .LVU22
  55:dsp/correlator.cpp ****     uint32_t* source       = &source_[0];
  56:dsp/correlator.cpp ****     uint32_t* destination  = &destination_[offset_words];
 104              		.loc 1 56 15 is_stmt 0 view .LVU23
 105 0014 4368     		ldr	r3, [r0, #4]
  53:dsp/correlator.cpp ****     uint32_t  offset_bits  = candidate_ & 0x1f;
 106              		.loc 1 53 41 view .LVU24
 107 0016 4FEA6E11 		asr	r1, lr, #5
 108              	.LVL3:
ARM GAS  /tmp/ccvNZy9v.s 			page 4


 109              	.LBB2:
  57:dsp/correlator.cpp **** 
  58:dsp/correlator.cpp ****     uint32_t xcorr = 0;
  59:dsp/correlator.cpp ****     for(uint32_t i = 0; i < num_words; ++i)
 110              		.loc 1 59 27 view .LVU25
 111 001a 5FEA6816 		asrs	r6, r8, #5
 112              	.LVL4:
 113              		.loc 1 59 27 view .LVU26
 114              	.LBE2:
  54:dsp/correlator.cpp ****     uint32_t* source       = &source_[0];
 115              		.loc 1 54 15 view .LVU27
 116 001e 0EF01F07 		and	r7, lr, #31
 117              	.LVL5:
  55:dsp/correlator.cpp ****     uint32_t* destination  = &destination_[offset_words];
 118              		.loc 1 55 5 is_stmt 1 view .LVU28
  55:dsp/correlator.cpp ****     uint32_t* destination  = &destination_[offset_words];
 119              		.loc 1 55 15 is_stmt 0 view .LVU29
 120 0022 0268     		ldr	r2, [r0]
 121              	.LVL6:
  56:dsp/correlator.cpp **** 
 122              		.loc 1 56 5 is_stmt 1 view .LVU30
  56:dsp/correlator.cpp **** 
 123              		.loc 1 56 15 is_stmt 0 view .LVU31
 124 0024 03EB8105 		add	r5, r3, r1, lsl #2
 125              	.LVL7:
  58:dsp/correlator.cpp ****     for(uint32_t i = 0; i < num_words; ++i)
 126              		.loc 1 58 5 is_stmt 1 view .LVU32
 127              		.loc 1 59 5 view .LVU33
 128              	.LBB5:
 129              		.loc 1 59 27 view .LVU34
 130 0028 32D0     		beq	.L6
 131 002a 043A     		subs	r2, r2, #4
 132              	.LVL8:
 133              		.loc 1 59 27 is_stmt 0 view .LVU35
 134 002c 53F82110 		ldr	r1, [r3, r1, lsl #2]
 135              	.LVL9:
 136              		.loc 1 59 27 view .LVU36
 137 0030 C7F1200C 		rsb	ip, r7, #32
 138 0034 02EB8606 		add	r6, r2, r6, lsl #2
 139              	.LVL10:
 140              	.L7:
 141              	.LBB3:
  60:dsp/correlator.cpp ****     {
  61:dsp/correlator.cpp ****         uint32_t source_bits      = source[i];
 142              		.loc 1 61 9 is_stmt 1 discriminator 2 view .LVU37
  62:dsp/correlator.cpp ****         uint32_t destination_bits = 0;
 143              		.loc 1 62 9 discriminator 2 view .LVU38
  63:dsp/correlator.cpp ****         destination_bits |= destination[i] << offset_bits;
 144              		.loc 1 63 9 discriminator 2 view .LVU39
 145              		.loc 1 63 44 is_stmt 0 discriminator 2 view .LVU40
 146 0038 01FA07FA 		lsl	r10, r1, r7
 147              	.LVL11:
  64:dsp/correlator.cpp ****         destination_bits |= destination[i + 1] >> (32 - offset_bits);
 148              		.loc 1 64 9 is_stmt 1 discriminator 2 view .LVU41
 149              		.loc 1 64 46 is_stmt 0 discriminator 2 view .LVU42
 150 003c 55F8041F 		ldr	r1, [r5, #4]!
 151              	.LVL12:
ARM GAS  /tmp/ccvNZy9v.s 			page 5


  65:dsp/correlator.cpp ****         uint32_t count = ~(source_bits ^ destination_bits);
 152              		.loc 1 65 9 is_stmt 1 discriminator 2 view .LVU43
 153              		.loc 1 65 40 is_stmt 0 discriminator 2 view .LVU44
 154 0040 52F8049F 		ldr	r9, [r2, #4]!
 155              	.LVL13:
  64:dsp/correlator.cpp ****         destination_bits |= destination[i + 1] >> (32 - offset_bits);
 156              		.loc 1 64 48 discriminator 2 view .LVU45
 157 0044 21FA0CF3 		lsr	r3, r1, ip
 158              	.LBE3:
  59:dsp/correlator.cpp ****     {
 159              		.loc 1 59 27 discriminator 2 view .LVU46
 160 0048 9642     		cmp	r6, r2
 161              	.LBB4:
  64:dsp/correlator.cpp ****         destination_bits |= destination[i + 1] >> (32 - offset_bits);
 162              		.loc 1 64 26 discriminator 2 view .LVU47
 163 004a 43EA0A03 		orr	r3, r3, r10
 164              	.LVL14:
 165              		.loc 1 65 40 discriminator 2 view .LVU48
 166 004e 83EA0903 		eor	r3, r3, r9
 167              	.LVL15:
 168              		.loc 1 65 18 discriminator 2 view .LVU49
 169 0052 6FEA0303 		mvn	r3, r3
 170              	.LVL16:
  66:dsp/correlator.cpp ****         count          = count - ((count >> 1) & 0x55555555);
 171              		.loc 1 66 9 is_stmt 1 discriminator 2 view .LVU50
 172              		.loc 1 66 42 is_stmt 0 discriminator 2 view .LVU51
 173 0056 4FEA5309 		lsr	r9, r3, #1
 174              		.loc 1 66 48 discriminator 2 view .LVU52
 175 005a 09F05539 		and	r9, r9, #1431655765
 176              		.loc 1 66 24 discriminator 2 view .LVU53
 177 005e A3EB0903 		sub	r3, r3, r9
 178              	.LVL17:
  67:dsp/correlator.cpp ****         count          = (count & 0x33333333) + ((count >> 2) & 0x33333333);
 179              		.loc 1 67 9 is_stmt 1 discriminator 2 view .LVU54
 180              		.loc 1 67 57 is_stmt 0 discriminator 2 view .LVU55
 181 0062 4FEA9309 		lsr	r9, r3, #2
 182              		.loc 1 67 33 discriminator 2 view .LVU56
 183 0066 03F03333 		and	r3, r3, #858993459
 184              	.LVL18:
 185              		.loc 1 67 63 discriminator 2 view .LVU57
 186 006a 09F03339 		and	r9, r9, #858993459
 187              		.loc 1 67 24 discriminator 2 view .LVU58
 188 006e 4B44     		add	r3, r3, r9
 189              	.LVL19:
  68:dsp/correlator.cpp ****         count = (((count + (count >> 4)) & 0xf0f0f0f) * 0x1010101) >> 24;
 190              		.loc 1 68 9 is_stmt 1 discriminator 2 view .LVU59
 191              		.loc 1 68 26 is_stmt 0 discriminator 2 view .LVU60
 192 0070 03EB1313 		add	r3, r3, r3, lsr #4
 193              	.LVL20:
 194              		.loc 1 68 42 discriminator 2 view .LVU61
 195 0074 03F00F33 		and	r3, r3, #252645135
 196              		.loc 1 68 55 discriminator 2 view .LVU62
 197 0078 03EB0323 		add	r3, r3, r3, lsl #8
 198 007c 03EB0343 		add	r3, r3, r3, lsl #16
 199              	.LVL21:
  69:dsp/correlator.cpp ****         xcorr += count;
 200              		.loc 1 69 9 is_stmt 1 discriminator 2 view .LVU63
ARM GAS  /tmp/ccvNZy9v.s 			page 6


 201              		.loc 1 69 15 is_stmt 0 discriminator 2 view .LVU64
 202 0080 04EB1364 		add	r4, r4, r3, lsr #24
 203              	.LVL22:
 204              		.loc 1 69 15 discriminator 2 view .LVU65
 205              	.LBE4:
  59:dsp/correlator.cpp ****     {
 206              		.loc 1 59 5 is_stmt 1 discriminator 2 view .LVU66
  59:dsp/correlator.cpp ****     {
 207              		.loc 1 59 27 discriminator 2 view .LVU67
 208 0084 D8D1     		bne	.L7
 209              	.LBE5:
  70:dsp/correlator.cpp ****     }
  71:dsp/correlator.cpp ****     if(xcorr > best_score_)
 210              		.loc 1 71 5 view .LVU68
 211 0086 8369     		ldr	r3, [r0, #24]
 212              	.LVL23:
 213              		.loc 1 71 5 is_stmt 0 view .LVU69
 214 0088 A342     		cmp	r3, r4
  72:dsp/correlator.cpp ****     {
  73:dsp/correlator.cpp ****         best_match_ = candidate_;
 215              		.loc 1 73 9 is_stmt 1 view .LVU70
  74:dsp/correlator.cpp ****         best_score_ = xcorr;
 216              		.loc 1 74 21 is_stmt 0 view .LVU71
 217 008a 38BF     		it	cc
 218 008c C0E9064E 		strdcc	r4, lr, [r0, #24]
 219              	.LVL24:
 220              	.L6:
  75:dsp/correlator.cpp ****     }
  76:dsp/correlator.cpp ****     ++candidate_;
 221              		.loc 1 76 5 is_stmt 1 view .LVU72
 222 0090 0EF10103 		add	r3, lr, #1
  77:dsp/correlator.cpp ****     done_ = candidate_ >= size_;
 223              		.loc 1 77 24 is_stmt 0 view .LVU73
 224 0094 9845     		cmp	r8, r3
  76:dsp/correlator.cpp ****     done_ = candidate_ >= size_;
 225              		.loc 1 76 5 view .LVU74
 226 0096 4361     		str	r3, [r0, #20]
 227              		.loc 1 77 5 is_stmt 1 view .LVU75
 228              		.loc 1 77 24 is_stmt 0 view .LVU76
 229 0098 CCBF     		ite	gt
 230 009a 4FF00008 		movgt	r8, #0
 231              	.LVL25:
 232              		.loc 1 77 24 view .LVU77
 233 009e 4FF00108 		movle	r8, #1
 234 00a2 80F82480 		strb	r8, [r0, #36]
 235              	.LVL26:
 236              	.L4:
  78:dsp/correlator.cpp **** }
 237              		.loc 1 78 1 view .LVU78
 238 00a6 BDE8F087 		pop	{r4, r5, r6, r7, r8, r9, r10, pc}
 239              		.cfi_endproc
 240              	.LFE3590:
 242 00aa 00BF     		.section	.text._ZN10Correlator11StartSearchElll,"ax",%progbits
 243              		.align	1
 244              		.p2align 2,,3
 245              		.global	_ZN10Correlator11StartSearchElll
 246              		.syntax unified
ARM GAS  /tmp/ccvNZy9v.s 			page 7


 247              		.thumb
 248              		.thumb_func
 249              		.fpu fpv5-d16
 251              	_ZN10Correlator11StartSearchElll:
 252              	.LVL27:
 253              	.LFB3591:
  79:dsp/correlator.cpp **** 
  80:dsp/correlator.cpp **** void Correlator::StartSearch(int32_t size, int32_t offset, int32_t increment)
  81:dsp/correlator.cpp **** {
 254              		.loc 1 81 1 is_stmt 1 view -0
 255              		.cfi_startproc
 256              		@ args = 0, pretend = 0, frame = 0
 257              		@ frame_needed = 0, uses_anonymous_args = 0
 258              		@ link register save eliminated.
  82:dsp/correlator.cpp ****     offset_     = offset;
 259              		.loc 1 82 5 view .LVU80
  81:dsp/correlator.cpp ****     offset_     = offset;
 260              		.loc 1 81 1 is_stmt 0 view .LVU81
 261 0000 10B4     		push	{r4}
 262              		.cfi_def_cfa_offset 4
 263              		.cfi_offset 4, -4
  83:dsp/correlator.cpp ****     increment_  = increment;
  84:dsp/correlator.cpp ****     best_score_ = 0;
 264              		.loc 1 84 17 view .LVU82
 265 0002 0024     		movs	r4, #0
  85:dsp/correlator.cpp ****     best_match_ = 0;
  86:dsp/correlator.cpp ****     candidate_  = 0;
  87:dsp/correlator.cpp ****     size_       = size;
 266              		.loc 1 87 17 view .LVU83
 267 0004 0161     		str	r1, [r0, #16]
  85:dsp/correlator.cpp ****     best_match_ = 0;
 268              		.loc 1 85 17 view .LVU84
 269 0006 C0E90644 		strd	r4, r4, [r0, #24]
  86:dsp/correlator.cpp ****     size_       = size;
 270              		.loc 1 86 17 view .LVU85
 271 000a 4461     		str	r4, [r0, #20]
  88:dsp/correlator.cpp ****     done_       = false;
 272              		.loc 1 88 17 view .LVU86
 273 000c 80F82440 		strb	r4, [r0, #36]
  89:dsp/correlator.cpp **** }
 274              		.loc 1 89 1 view .LVU87
 275 0010 5DF8044B 		ldr	r4, [sp], #4
 276              		.cfi_restore 4
 277              		.cfi_def_cfa_offset 0
  83:dsp/correlator.cpp ****     best_score_ = 0;
 278              		.loc 1 83 17 view .LVU88
 279 0014 C0E90223 		strd	r2, r3, [r0, #8]
  84:dsp/correlator.cpp ****     best_match_ = 0;
 280              		.loc 1 84 5 is_stmt 1 view .LVU89
  86:dsp/correlator.cpp ****     size_       = size;
 281              		.loc 1 86 5 view .LVU90
  87:dsp/correlator.cpp ****     done_       = false;
 282              		.loc 1 87 5 view .LVU91
  88:dsp/correlator.cpp **** }
 283              		.loc 1 88 5 view .LVU92
 284              		.loc 1 89 1 is_stmt 0 view .LVU93
 285 0018 7047     		bx	lr
ARM GAS  /tmp/ccvNZy9v.s 			page 8


 286              		.cfi_endproc
 287              	.LFE3591:
 289 001a 00BF     		.text
 290              	.Letext0:
 291              		.file 2 "/usr/lib/gcc/arm-none-eabi/9.2.1/include/stdint.h"
 292              		.file 3 "../../libdaisy/Drivers/CMSIS/Include/core_cm7.h"
 293              		.file 4 "../../libdaisy/Drivers/CMSIS/Device/ST/STM32H7xx/Include/system_stm32h7xx.h"
 294              		.file 5 "/usr/lib/gcc/arm-none-eabi/9.2.1/include/stddef.h"
 295              		.file 6 "/usr/include/newlib/c++/9.2.1/cmath"
 296              		.file 7 "/usr/include/newlib/c++/9.2.1/bits/std_abs.h"
 297              		.file 8 "/usr/include/newlib/c++/9.2.1/cstdint"
 298              		.file 9 "/usr/include/newlib/c++/9.2.1/cstdlib"
 299              		.file 10 "/usr/include/newlib/c++/9.2.1/type_traits"
 300              		.file 11 "/usr/include/newlib/c++/9.2.1/arm-none-eabi/thumb/v7e-m+dp/hard/bits/c++config.h"
 301              		.file 12 "/usr/include/newlib/c++/9.2.1/bits/stl_pair.h"
 302              		.file 13 "/usr/include/newlib/c++/9.2.1/debug/debug.h"
 303              		.file 14 "/usr/include/newlib/c++/9.2.1/cwchar"
 304              		.file 15 "/usr/include/newlib/c++/9.2.1/bits/exception_ptr.h"
 305              		.file 16 "/usr/include/newlib/c++/9.2.1/new"
 306              		.file 17 "/usr/include/newlib/c++/9.2.1/clocale"
 307              		.file 18 "/usr/include/newlib/c++/9.2.1/cstdio"
 308              		.file 19 "/usr/include/newlib/c++/9.2.1/bits/basic_string.h"
 309              		.file 20 "/usr/include/newlib/c++/9.2.1/bits/uniform_int_dist.h"
 310              		.file 21 "/usr/include/newlib/c++/9.2.1/bits/random.h"
 311              		.file 22 "/usr/include/newlib/c++/9.2.1/cstring"
 312              		.file 23 "/usr/include/newlib/c++/9.2.1/bits/algorithmfwd.h"
 313              		.file 24 "/usr/include/newlib/c++/9.2.1/bits/predefined_ops.h"
 314              		.file 25 "/usr/include/newlib/c++/9.2.1/ext/new_allocator.h"
 315              		.file 26 "/usr/include/newlib/c++/9.2.1/ext/numeric_traits.h"
 316              		.file 27 "/usr/include/newlib/sys/_types.h"
 317              		.file 28 "<built-in>"
 318              		.file 29 "/usr/include/newlib/sys/reent.h"
 319              		.file 30 "/usr/include/newlib/sys/lock.h"
 320              		.file 31 "/usr/include/newlib/math.h"
 321              		.file 32 "/usr/include/newlib/stdlib.h"
 322              		.file 33 "/usr/include/newlib/c++/9.2.1/math.h"
 323              		.file 34 "../../libdaisy/Drivers/STM32H7xx_HAL_Driver/Inc/stm32h7xx_hal_def.h"
 324              		.file 35 "../../libdaisy/Drivers/STM32H7xx_HAL_Driver/Inc/stm32h7xx_hal_flash.h"
 325              		.file 36 "../../DaisySP/Source/Control/adenv.h"
 326              		.file 37 "../../DaisySP/Source/Utility/dsp.h"
 327              		.file 38 "/usr/lib/gcc/arm-none-eabi/9.2.1/include/stdarg.h"
 328              		.file 39 "/usr/include/newlib/wchar.h"
 329              		.file 40 "/usr/include/newlib/locale.h"
 330              		.file 41 "/usr/include/newlib/ctype.h"
 331              		.file 42 "/usr/include/newlib/stdio.h"
 332              		.file 43 "/usr/include/newlib/sys/errno.h"
 333              		.file 44 "/usr/include/newlib/c++/9.2.1/stdlib.h"
 334              		.file 45 "/usr/include/newlib/string.h"
 335              		.file 46 "dsp/correlator.h"
ARM GAS  /tmp/ccvNZy9v.s 			page 9

