ARM GAS  /tmp/ccoDtert.s 			page 1


   1              		.cpu cortex-m7
   2              		.eabi_attribute 28, 1
   3              		.eabi_attribute 20, 1
   4              		.eabi_attribute 21, 1
   5              		.eabi_attribute 23, 3
   6              		.eabi_attribute 24, 1
   7              		.eabi_attribute 25, 1
   8              		.eabi_attribute 26, 1
   9              		.eabi_attribute 30, 2
  10              		.eabi_attribute 34, 1
  11              		.eabi_attribute 18, 4
  12              		.file	"frame_transformation.cpp"
  13              		.text
  14              	.Ltext0:
  15              		.cfi_sections	.debug_frame
  16              		.section	.text._ZN19FrameTransformation4InitEPfll,"ax",%progbits
  17              		.align	1
  18              		.p2align 2,,3
  19              		.global	_ZN19FrameTransformation4InitEPfll
  20              		.arch armv7e-m
  21              		.syntax unified
  22              		.thumb
  23              		.thumb_func
  24              		.fpu fpv5-d16
  26              	_ZN19FrameTransformation4InitEPfll:
  27              	.LVL0:
  28              	.LFB4227:
  29              		.file 1 "dsp/pvoc/frame_transformation.cpp"
   1:dsp/pvoc/frame_transformation.cpp **** // Copyright 2014 Emilie Gillet.
   2:dsp/pvoc/frame_transformation.cpp **** //
   3:dsp/pvoc/frame_transformation.cpp **** // Author: Emilie Gillet (emilie.o.gillet@gmail.com)
   4:dsp/pvoc/frame_transformation.cpp **** //
   5:dsp/pvoc/frame_transformation.cpp **** // Permission is hereby granted, free of charge, to any person obtaining a copy
   6:dsp/pvoc/frame_transformation.cpp **** // of this software and associated documentation files (the "Software"), to deal
   7:dsp/pvoc/frame_transformation.cpp **** // in the Software without restriction, including without limitation the rights
   8:dsp/pvoc/frame_transformation.cpp **** // to use, copy, modify, merge, publish, distribute, sublicense, and/or sell
   9:dsp/pvoc/frame_transformation.cpp **** // copies of the Software, and to permit persons to whom the Software is
  10:dsp/pvoc/frame_transformation.cpp **** // furnished to do so, subject to the following conditions:
  11:dsp/pvoc/frame_transformation.cpp **** //
  12:dsp/pvoc/frame_transformation.cpp **** // The above copyright notice and this permission notice shall be included in
  13:dsp/pvoc/frame_transformation.cpp **** // all copies or substantial portions of the Software.
  14:dsp/pvoc/frame_transformation.cpp **** //
  15:dsp/pvoc/frame_transformation.cpp **** // THE SOFTWARE IS PROVIDED "AS IS", WITHOUT WARRANTY OF ANY KIND, EXPRESS OR
  16:dsp/pvoc/frame_transformation.cpp **** // IMPLIED, INCLUDING BUT NOT LIMITED TO THE WARRANTIES OF MERCHANTABILITY,
  17:dsp/pvoc/frame_transformation.cpp **** // FITNESS FOR A PARTICULAR PURPOSE AND NONINFRINGEMENT. IN NO EVENT SHALL THE
  18:dsp/pvoc/frame_transformation.cpp **** // AUTHORS OR COPYRIGHT HOLDERS BE LIABLE FOR ANY CLAIM, DAMAGES OR OTHER
  19:dsp/pvoc/frame_transformation.cpp **** // LIABILITY, WHETHER IN AN ACTION OF CONTRACT, TORT OR OTHERWISE, ARISING FROM,
  20:dsp/pvoc/frame_transformation.cpp **** // OUT OF OR IN CONNECTION WITH THE SOFTWARE OR THE USE OR OTHER DEALINGS IN
  21:dsp/pvoc/frame_transformation.cpp **** // THE SOFTWARE.
  22:dsp/pvoc/frame_transformation.cpp **** //
  23:dsp/pvoc/frame_transformation.cpp **** // See http://creativecommons.org/licenses/MIT/ for more information.
  24:dsp/pvoc/frame_transformation.cpp **** //
  25:dsp/pvoc/frame_transformation.cpp **** // -----------------------------------------------------------------------------
  26:dsp/pvoc/frame_transformation.cpp **** //
  27:dsp/pvoc/frame_transformation.cpp **** // Transformations applied to a single STFT slice.
  28:dsp/pvoc/frame_transformation.cpp **** 
  29:dsp/pvoc/frame_transformation.cpp **** #include "frame_transformation.h"
ARM GAS  /tmp/ccoDtert.s 			page 2


  30:dsp/pvoc/frame_transformation.cpp **** 
  31:dsp/pvoc/frame_transformation.cpp **** #include <algorithm>
  32:dsp/pvoc/frame_transformation.cpp **** #include <random>
  33:dsp/pvoc/frame_transformation.cpp **** 
  34:dsp/pvoc/frame_transformation.cpp **** #include "stmtemp.h"
  35:dsp/pvoc/frame_transformation.cpp **** #include "daisysp.h"
  36:dsp/pvoc/frame_transformation.cpp **** #include "daisy.h"
  37:dsp/pvoc/frame_transformation.cpp **** 
  38:dsp/pvoc/frame_transformation.cpp **** #include "frame.h"
  39:dsp/pvoc/frame_transformation.cpp **** #include "parameters.h"
  40:dsp/pvoc/frame_transformation.cpp **** 
  41:dsp/pvoc/frame_transformation.cpp **** using namespace daisysp;
  42:dsp/pvoc/frame_transformation.cpp **** using namespace std;
  43:dsp/pvoc/frame_transformation.cpp **** using namespace daisy;
  44:dsp/pvoc/frame_transformation.cpp **** 
  45:dsp/pvoc/frame_transformation.cpp **** void FrameTransformation::Init(float*  buffer,
  46:dsp/pvoc/frame_transformation.cpp ****                                int32_t fft_size,
  47:dsp/pvoc/frame_transformation.cpp ****                                int32_t num_textures)
  48:dsp/pvoc/frame_transformation.cpp **** {
  30              		.loc 1 48 1 view -0
  31              		.cfi_startproc
  32              		@ args = 0, pretend = 0, frame = 0
  33              		@ frame_needed = 0, uses_anonymous_args = 0
  34              		@ link register save eliminated.
  49:dsp/pvoc/frame_transformation.cpp ****     fft_size_ = fft_size;
  35              		.loc 1 49 5 view .LVU1
  48:dsp/pvoc/frame_transformation.cpp ****     fft_size_ = fft_size;
  36              		.loc 1 48 1 is_stmt 0 view .LVU2
  37 0000 70B4     		push	{r4, r5, r6}
  38              		.cfi_def_cfa_offset 12
  39              		.cfi_offset 4, -12
  40              		.cfi_offset 5, -8
  41              		.cfi_offset 6, -4
  50:dsp/pvoc/frame_transformation.cpp ****     size_     = (fft_size >> 1) - kHighFrequencyTruncation;
  42              		.loc 1 50 27 view .LVU3
  43 0002 5510     		asrs	r5, r2, #1
  44              	.LBB174:
  51:dsp/pvoc/frame_transformation.cpp **** 
  52:dsp/pvoc/frame_transformation.cpp ****     for(int32_t i = 0; i < num_textures; ++i)
  45              		.loc 1 52 26 view .LVU4
  46 0004 002B     		cmp	r3, #0
  47              		.loc 1 52 26 view .LVU5
  48              	.LBE174:
  49:dsp/pvoc/frame_transformation.cpp ****     size_     = (fft_size >> 1) - kHighFrequencyTruncation;
  49              		.loc 1 49 15 view .LVU6
  50 0006 0260     		str	r2, [r0]
  50:dsp/pvoc/frame_transformation.cpp ****     size_     = (fft_size >> 1) - kHighFrequencyTruncation;
  51              		.loc 1 50 5 is_stmt 1 view .LVU7
  50:dsp/pvoc/frame_transformation.cpp ****     size_     = (fft_size >> 1) - kHighFrequencyTruncation;
  52              		.loc 1 50 33 is_stmt 0 view .LVU8
  53 0008 A5F11005 		sub	r5, r5, #16
  50:dsp/pvoc/frame_transformation.cpp ****     size_     = (fft_size >> 1) - kHighFrequencyTruncation;
  54              		.loc 1 50 15 view .LVU9
  55 000c 8560     		str	r5, [r0, #8]
  56              		.loc 1 52 5 is_stmt 1 view .LVU10
  57              	.LVL1:
  58              	.LBB175:
ARM GAS  /tmp/ccoDtert.s 			page 3


  59              		.loc 1 52 26 view .LVU11
  60 000e 0ADD     		ble	.L2
  61 0010 00EB8304 		add	r4, r0, r3, lsl #2
  62 0014 00F10C02 		add	r2, r0, #12
  63              	.LVL2:
  64              		.loc 1 52 26 is_stmt 0 view .LVU12
  65 0018 AE00     		lsls	r6, r5, #2
  66 001a 0C34     		adds	r4, r4, #12
  67              	.LVL3:
  68              	.L3:
  53:dsp/pvoc/frame_transformation.cpp ****     {
  54:dsp/pvoc/frame_transformation.cpp ****         textures_[i] = &buffer[i * size_];
  69              		.loc 1 54 9 is_stmt 1 discriminator 2 view .LVU13
  70              		.loc 1 54 22 is_stmt 0 discriminator 2 view .LVU14
  71 001c 42F8041B 		str	r1, [r2], #4
  52:dsp/pvoc/frame_transformation.cpp ****     {
  72              		.loc 1 52 5 is_stmt 1 discriminator 2 view .LVU15
  52:dsp/pvoc/frame_transformation.cpp ****     {
  73              		.loc 1 52 26 discriminator 2 view .LVU16
  74 0020 A242     		cmp	r2, r4
  75 0022 3144     		add	r1, r1, r6
  76 0024 FAD1     		bne	.L3
  77              	.L2:
  78              	.LBE175:
  55:dsp/pvoc/frame_transformation.cpp ****     }
  56:dsp/pvoc/frame_transformation.cpp ****     phases_ = static_cast<uint16_t*>((void*)(textures_[num_textures - 1]));
  79              		.loc 1 56 5 view .LVU17
  80              		.loc 1 56 72 is_stmt 0 view .LVU18
  81 0026 00EB8301 		add	r1, r0, r3, lsl #2
  82              		.loc 1 56 69 view .LVU19
  83 002a 5A1E     		subs	r2, r3, #1
  57:dsp/pvoc/frame_transformation.cpp ****     num_textures_
  58:dsp/pvoc/frame_transformation.cpp ****         = num_textures - 1; // Last texture is used for storing phases.
  59:dsp/pvoc/frame_transformation.cpp ****     phases_delta_ = phases_ + size_;
  60:dsp/pvoc/frame_transformation.cpp **** 
  61:dsp/pvoc/frame_transformation.cpp ****     glitch_algorithm_ = 0;
  84              		.loc 1 61 23 view .LVU20
  85 002c 0024     		movs	r4, #0
  56:dsp/pvoc/frame_transformation.cpp ****     num_textures_
  86              		.loc 1 56 72 view .LVU21
  87 002e 8968     		ldr	r1, [r1, #8]
  88              	.LBB176:
  89              	.LBB177:
  62:dsp/pvoc/frame_transformation.cpp ****     Reset();
  63:dsp/pvoc/frame_transformation.cpp **** }
  64:dsp/pvoc/frame_transformation.cpp **** 
  65:dsp/pvoc/frame_transformation.cpp **** void FrameTransformation::Reset()
  66:dsp/pvoc/frame_transformation.cpp **** {
  67:dsp/pvoc/frame_transformation.cpp ****     for(int32_t i = 0; i < num_textures_; ++i)
  90              		.loc 1 67 26 view .LVU22
  91 0030 A242     		cmp	r2, r4
  92              	.LBE177:
  93              	.LBE176:
  58:dsp/pvoc/frame_transformation.cpp ****     phases_delta_ = phases_ + size_;
  94              		.loc 1 58 9 view .LVU23
  95 0032 4260     		str	r2, [r0, #4]
  56:dsp/pvoc/frame_transformation.cpp ****     num_textures_
ARM GAS  /tmp/ccoDtert.s 			page 4


  96              		.loc 1 56 13 view .LVU24
  97 0034 8162     		str	r1, [r0, #40]
  57:dsp/pvoc/frame_transformation.cpp ****         = num_textures - 1; // Last texture is used for storing phases.
  98              		.loc 1 57 5 is_stmt 1 view .LVU25
  59:dsp/pvoc/frame_transformation.cpp **** 
  99              		.loc 1 59 5 view .LVU26
  59:dsp/pvoc/frame_transformation.cpp **** 
 100              		.loc 1 59 29 is_stmt 0 view .LVU27
 101 0036 01EB4501 		add	r1, r1, r5, lsl #1
  61:dsp/pvoc/frame_transformation.cpp ****     Reset();
 102              		.loc 1 61 23 view .LVU28
 103 003a 80F83040 		strb	r4, [r0, #48]
  59:dsp/pvoc/frame_transformation.cpp **** 
 104              		.loc 1 59 19 view .LVU29
 105 003e C162     		str	r1, [r0, #44]
  61:dsp/pvoc/frame_transformation.cpp ****     Reset();
 106              		.loc 1 61 5 is_stmt 1 view .LVU30
  62:dsp/pvoc/frame_transformation.cpp **** }
 107              		.loc 1 62 5 view .LVU31
 108              	.LVL4:
 109              	.LBB182:
 110              	.LBI176:
  65:dsp/pvoc/frame_transformation.cpp **** {
 111              		.loc 1 65 6 view .LVU32
 112              	.LBE182:
 113              		.loc 1 67 5 view .LVU33
 114              	.LBB183:
 115              	.LBB181:
 116              		.loc 1 67 26 view .LVU34
 117 0040 11DD     		ble	.L1
 118 0042 00EB8303 		add	r3, r0, r3, lsl #2
 119              	.LVL5:
 120              		.loc 1 67 26 is_stmt 0 view .LVU35
 121 0046 0C30     		adds	r0, r0, #12
 122              	.LVL6:
  68:dsp/pvoc/frame_transformation.cpp ****     {
  69:dsp/pvoc/frame_transformation.cpp ****         fill(&textures_[i][0], &textures_[i][size_], 0.0f);
 123              		.loc 1 69 51 view .LVU36
 124 0048 AD00     		lsls	r5, r5, #2
 125 004a 03F10804 		add	r4, r3, #8
 126              	.LVL7:
 127              	.L7:
 128              		.loc 1 69 9 is_stmt 1 view .LVU37
 129              		.loc 1 69 26 is_stmt 0 view .LVU38
 130 004e 50F8043B 		ldr	r3, [r0], #4
 131              		.loc 1 69 13 view .LVU39
 132 0052 5919     		adds	r1, r3, r5
 133              	.LVL8:
 134              	.LBB178:
 135              	.LBI178:
 136              		.file 2 "/usr/include/newlib/c++/9.2.1/bits/stl_algobase.h"
   1:/usr/include/newlib/c++/9.2.1/bits/stl_algobase.h **** // Core algorithmic facilities -*- C++ -*-
   2:/usr/include/newlib/c++/9.2.1/bits/stl_algobase.h **** 
   3:/usr/include/newlib/c++/9.2.1/bits/stl_algobase.h **** // Copyright (C) 2001-2019 Free Software Foundation, Inc.
   4:/usr/include/newlib/c++/9.2.1/bits/stl_algobase.h **** //
   5:/usr/include/newlib/c++/9.2.1/bits/stl_algobase.h **** // This file is part of the GNU ISO C++ Library.  This library is free
   6:/usr/include/newlib/c++/9.2.1/bits/stl_algobase.h **** // software; you can redistribute it and/or modify it under the
ARM GAS  /tmp/ccoDtert.s 			page 5


   7:/usr/include/newlib/c++/9.2.1/bits/stl_algobase.h **** // terms of the GNU General Public License as published by the
   8:/usr/include/newlib/c++/9.2.1/bits/stl_algobase.h **** // Free Software Foundation; either version 3, or (at your option)
   9:/usr/include/newlib/c++/9.2.1/bits/stl_algobase.h **** // any later version.
  10:/usr/include/newlib/c++/9.2.1/bits/stl_algobase.h **** 
  11:/usr/include/newlib/c++/9.2.1/bits/stl_algobase.h **** // This library is distributed in the hope that it will be useful,
  12:/usr/include/newlib/c++/9.2.1/bits/stl_algobase.h **** // but WITHOUT ANY WARRANTY; without even the implied warranty of
  13:/usr/include/newlib/c++/9.2.1/bits/stl_algobase.h **** // MERCHANTABILITY or FITNESS FOR A PARTICULAR PURPOSE.  See the
  14:/usr/include/newlib/c++/9.2.1/bits/stl_algobase.h **** // GNU General Public License for more details.
  15:/usr/include/newlib/c++/9.2.1/bits/stl_algobase.h **** 
  16:/usr/include/newlib/c++/9.2.1/bits/stl_algobase.h **** // Under Section 7 of GPL version 3, you are granted additional
  17:/usr/include/newlib/c++/9.2.1/bits/stl_algobase.h **** // permissions described in the GCC Runtime Library Exception, version
  18:/usr/include/newlib/c++/9.2.1/bits/stl_algobase.h **** // 3.1, as published by the Free Software Foundation.
  19:/usr/include/newlib/c++/9.2.1/bits/stl_algobase.h **** 
  20:/usr/include/newlib/c++/9.2.1/bits/stl_algobase.h **** // You should have received a copy of the GNU General Public License and
  21:/usr/include/newlib/c++/9.2.1/bits/stl_algobase.h **** // a copy of the GCC Runtime Library Exception along with this program;
  22:/usr/include/newlib/c++/9.2.1/bits/stl_algobase.h **** // see the files COPYING3 and COPYING.RUNTIME respectively.  If not, see
  23:/usr/include/newlib/c++/9.2.1/bits/stl_algobase.h **** // <http://www.gnu.org/licenses/>.
  24:/usr/include/newlib/c++/9.2.1/bits/stl_algobase.h **** 
  25:/usr/include/newlib/c++/9.2.1/bits/stl_algobase.h **** /*
  26:/usr/include/newlib/c++/9.2.1/bits/stl_algobase.h ****  *
  27:/usr/include/newlib/c++/9.2.1/bits/stl_algobase.h ****  * Copyright (c) 1994
  28:/usr/include/newlib/c++/9.2.1/bits/stl_algobase.h ****  * Hewlett-Packard Company
  29:/usr/include/newlib/c++/9.2.1/bits/stl_algobase.h ****  *
  30:/usr/include/newlib/c++/9.2.1/bits/stl_algobase.h ****  * Permission to use, copy, modify, distribute and sell this software
  31:/usr/include/newlib/c++/9.2.1/bits/stl_algobase.h ****  * and its documentation for any purpose is hereby granted without fee,
  32:/usr/include/newlib/c++/9.2.1/bits/stl_algobase.h ****  * provided that the above copyright notice appear in all copies and
  33:/usr/include/newlib/c++/9.2.1/bits/stl_algobase.h ****  * that both that copyright notice and this permission notice appear
  34:/usr/include/newlib/c++/9.2.1/bits/stl_algobase.h ****  * in supporting documentation.  Hewlett-Packard Company makes no
  35:/usr/include/newlib/c++/9.2.1/bits/stl_algobase.h ****  * representations about the suitability of this software for any
  36:/usr/include/newlib/c++/9.2.1/bits/stl_algobase.h ****  * purpose.  It is provided "as is" without express or implied warranty.
  37:/usr/include/newlib/c++/9.2.1/bits/stl_algobase.h ****  *
  38:/usr/include/newlib/c++/9.2.1/bits/stl_algobase.h ****  *
  39:/usr/include/newlib/c++/9.2.1/bits/stl_algobase.h ****  * Copyright (c) 1996-1998
  40:/usr/include/newlib/c++/9.2.1/bits/stl_algobase.h ****  * Silicon Graphics Computer Systems, Inc.
  41:/usr/include/newlib/c++/9.2.1/bits/stl_algobase.h ****  *
  42:/usr/include/newlib/c++/9.2.1/bits/stl_algobase.h ****  * Permission to use, copy, modify, distribute and sell this software
  43:/usr/include/newlib/c++/9.2.1/bits/stl_algobase.h ****  * and its documentation for any purpose is hereby granted without fee,
  44:/usr/include/newlib/c++/9.2.1/bits/stl_algobase.h ****  * provided that the above copyright notice appear in all copies and
  45:/usr/include/newlib/c++/9.2.1/bits/stl_algobase.h ****  * that both that copyright notice and this permission notice appear
  46:/usr/include/newlib/c++/9.2.1/bits/stl_algobase.h ****  * in supporting documentation.  Silicon Graphics makes no
  47:/usr/include/newlib/c++/9.2.1/bits/stl_algobase.h ****  * representations about the suitability of this software for any
  48:/usr/include/newlib/c++/9.2.1/bits/stl_algobase.h ****  * purpose.  It is provided "as is" without express or implied warranty.
  49:/usr/include/newlib/c++/9.2.1/bits/stl_algobase.h ****  */
  50:/usr/include/newlib/c++/9.2.1/bits/stl_algobase.h **** 
  51:/usr/include/newlib/c++/9.2.1/bits/stl_algobase.h **** /** @file bits/stl_algobase.h
  52:/usr/include/newlib/c++/9.2.1/bits/stl_algobase.h ****  *  This is an internal header file, included by other library headers.
  53:/usr/include/newlib/c++/9.2.1/bits/stl_algobase.h ****  *  Do not attempt to use it directly. @headername{algorithm}
  54:/usr/include/newlib/c++/9.2.1/bits/stl_algobase.h ****  */
  55:/usr/include/newlib/c++/9.2.1/bits/stl_algobase.h **** 
  56:/usr/include/newlib/c++/9.2.1/bits/stl_algobase.h **** #ifndef _STL_ALGOBASE_H
  57:/usr/include/newlib/c++/9.2.1/bits/stl_algobase.h **** #define _STL_ALGOBASE_H 1
  58:/usr/include/newlib/c++/9.2.1/bits/stl_algobase.h **** 
  59:/usr/include/newlib/c++/9.2.1/bits/stl_algobase.h **** #include <bits/c++config.h>
  60:/usr/include/newlib/c++/9.2.1/bits/stl_algobase.h **** #include <bits/functexcept.h>
  61:/usr/include/newlib/c++/9.2.1/bits/stl_algobase.h **** #include <bits/cpp_type_traits.h>
  62:/usr/include/newlib/c++/9.2.1/bits/stl_algobase.h **** #include <ext/type_traits.h>
  63:/usr/include/newlib/c++/9.2.1/bits/stl_algobase.h **** #include <ext/numeric_traits.h>
ARM GAS  /tmp/ccoDtert.s 			page 6


  64:/usr/include/newlib/c++/9.2.1/bits/stl_algobase.h **** #include <bits/stl_pair.h>
  65:/usr/include/newlib/c++/9.2.1/bits/stl_algobase.h **** #include <bits/stl_iterator_base_types.h>
  66:/usr/include/newlib/c++/9.2.1/bits/stl_algobase.h **** #include <bits/stl_iterator_base_funcs.h>
  67:/usr/include/newlib/c++/9.2.1/bits/stl_algobase.h **** #include <bits/stl_iterator.h>
  68:/usr/include/newlib/c++/9.2.1/bits/stl_algobase.h **** #include <bits/concept_check.h>
  69:/usr/include/newlib/c++/9.2.1/bits/stl_algobase.h **** #include <debug/debug.h>
  70:/usr/include/newlib/c++/9.2.1/bits/stl_algobase.h **** #include <bits/move.h> // For std::swap
  71:/usr/include/newlib/c++/9.2.1/bits/stl_algobase.h **** #include <bits/predefined_ops.h>
  72:/usr/include/newlib/c++/9.2.1/bits/stl_algobase.h **** #if __cplusplus >= 201103L
  73:/usr/include/newlib/c++/9.2.1/bits/stl_algobase.h **** # include <type_traits>
  74:/usr/include/newlib/c++/9.2.1/bits/stl_algobase.h **** #endif
  75:/usr/include/newlib/c++/9.2.1/bits/stl_algobase.h **** 
  76:/usr/include/newlib/c++/9.2.1/bits/stl_algobase.h **** namespace std _GLIBCXX_VISIBILITY(default)
  77:/usr/include/newlib/c++/9.2.1/bits/stl_algobase.h **** {
  78:/usr/include/newlib/c++/9.2.1/bits/stl_algobase.h **** _GLIBCXX_BEGIN_NAMESPACE_VERSION
  79:/usr/include/newlib/c++/9.2.1/bits/stl_algobase.h **** 
  80:/usr/include/newlib/c++/9.2.1/bits/stl_algobase.h **** #if __cplusplus < 201103L
  81:/usr/include/newlib/c++/9.2.1/bits/stl_algobase.h ****   // See http://gcc.gnu.org/ml/libstdc++/2004-08/msg00167.html: in a
  82:/usr/include/newlib/c++/9.2.1/bits/stl_algobase.h ****   // nutshell, we are partially implementing the resolution of DR 187,
  83:/usr/include/newlib/c++/9.2.1/bits/stl_algobase.h ****   // when it's safe, i.e., the value_types are equal.
  84:/usr/include/newlib/c++/9.2.1/bits/stl_algobase.h ****   template<bool _BoolType>
  85:/usr/include/newlib/c++/9.2.1/bits/stl_algobase.h ****     struct __iter_swap
  86:/usr/include/newlib/c++/9.2.1/bits/stl_algobase.h ****     {
  87:/usr/include/newlib/c++/9.2.1/bits/stl_algobase.h ****       template<typename _ForwardIterator1, typename _ForwardIterator2>
  88:/usr/include/newlib/c++/9.2.1/bits/stl_algobase.h **** 	static void
  89:/usr/include/newlib/c++/9.2.1/bits/stl_algobase.h **** 	iter_swap(_ForwardIterator1 __a, _ForwardIterator2 __b)
  90:/usr/include/newlib/c++/9.2.1/bits/stl_algobase.h **** 	{
  91:/usr/include/newlib/c++/9.2.1/bits/stl_algobase.h **** 	  typedef typename iterator_traits<_ForwardIterator1>::value_type
  92:/usr/include/newlib/c++/9.2.1/bits/stl_algobase.h **** 	    _ValueType1;
  93:/usr/include/newlib/c++/9.2.1/bits/stl_algobase.h **** 	  _ValueType1 __tmp = *__a;
  94:/usr/include/newlib/c++/9.2.1/bits/stl_algobase.h **** 	  *__a = *__b;
  95:/usr/include/newlib/c++/9.2.1/bits/stl_algobase.h **** 	  *__b = __tmp;
  96:/usr/include/newlib/c++/9.2.1/bits/stl_algobase.h **** 	}
  97:/usr/include/newlib/c++/9.2.1/bits/stl_algobase.h ****     };
  98:/usr/include/newlib/c++/9.2.1/bits/stl_algobase.h **** 
  99:/usr/include/newlib/c++/9.2.1/bits/stl_algobase.h ****   template<>
 100:/usr/include/newlib/c++/9.2.1/bits/stl_algobase.h ****     struct __iter_swap<true>
 101:/usr/include/newlib/c++/9.2.1/bits/stl_algobase.h ****     {
 102:/usr/include/newlib/c++/9.2.1/bits/stl_algobase.h ****       template<typename _ForwardIterator1, typename _ForwardIterator2>
 103:/usr/include/newlib/c++/9.2.1/bits/stl_algobase.h **** 	static void
 104:/usr/include/newlib/c++/9.2.1/bits/stl_algobase.h **** 	iter_swap(_ForwardIterator1 __a, _ForwardIterator2 __b)
 105:/usr/include/newlib/c++/9.2.1/bits/stl_algobase.h **** 	{
 106:/usr/include/newlib/c++/9.2.1/bits/stl_algobase.h **** 	  swap(*__a, *__b);
 107:/usr/include/newlib/c++/9.2.1/bits/stl_algobase.h **** 	}
 108:/usr/include/newlib/c++/9.2.1/bits/stl_algobase.h ****     };
 109:/usr/include/newlib/c++/9.2.1/bits/stl_algobase.h **** #endif
 110:/usr/include/newlib/c++/9.2.1/bits/stl_algobase.h **** 
 111:/usr/include/newlib/c++/9.2.1/bits/stl_algobase.h ****   /**
 112:/usr/include/newlib/c++/9.2.1/bits/stl_algobase.h ****    *  @brief Swaps the contents of two iterators.
 113:/usr/include/newlib/c++/9.2.1/bits/stl_algobase.h ****    *  @ingroup mutating_algorithms
 114:/usr/include/newlib/c++/9.2.1/bits/stl_algobase.h ****    *  @param  __a  An iterator.
 115:/usr/include/newlib/c++/9.2.1/bits/stl_algobase.h ****    *  @param  __b  Another iterator.
 116:/usr/include/newlib/c++/9.2.1/bits/stl_algobase.h ****    *  @return   Nothing.
 117:/usr/include/newlib/c++/9.2.1/bits/stl_algobase.h ****    *
 118:/usr/include/newlib/c++/9.2.1/bits/stl_algobase.h ****    *  This function swaps the values pointed to by two iterators, not the
 119:/usr/include/newlib/c++/9.2.1/bits/stl_algobase.h ****    *  iterators themselves.
 120:/usr/include/newlib/c++/9.2.1/bits/stl_algobase.h ****   */
ARM GAS  /tmp/ccoDtert.s 			page 7


 121:/usr/include/newlib/c++/9.2.1/bits/stl_algobase.h ****   template<typename _ForwardIterator1, typename _ForwardIterator2>
 122:/usr/include/newlib/c++/9.2.1/bits/stl_algobase.h ****     inline void
 123:/usr/include/newlib/c++/9.2.1/bits/stl_algobase.h ****     iter_swap(_ForwardIterator1 __a, _ForwardIterator2 __b)
 124:/usr/include/newlib/c++/9.2.1/bits/stl_algobase.h ****     {
 125:/usr/include/newlib/c++/9.2.1/bits/stl_algobase.h ****       // concept requirements
 126:/usr/include/newlib/c++/9.2.1/bits/stl_algobase.h ****       __glibcxx_function_requires(_Mutable_ForwardIteratorConcept<
 127:/usr/include/newlib/c++/9.2.1/bits/stl_algobase.h **** 				  _ForwardIterator1>)
 128:/usr/include/newlib/c++/9.2.1/bits/stl_algobase.h ****       __glibcxx_function_requires(_Mutable_ForwardIteratorConcept<
 129:/usr/include/newlib/c++/9.2.1/bits/stl_algobase.h **** 				  _ForwardIterator2>)
 130:/usr/include/newlib/c++/9.2.1/bits/stl_algobase.h **** 
 131:/usr/include/newlib/c++/9.2.1/bits/stl_algobase.h **** #if __cplusplus < 201103L
 132:/usr/include/newlib/c++/9.2.1/bits/stl_algobase.h ****       typedef typename iterator_traits<_ForwardIterator1>::value_type
 133:/usr/include/newlib/c++/9.2.1/bits/stl_algobase.h **** 	_ValueType1;
 134:/usr/include/newlib/c++/9.2.1/bits/stl_algobase.h ****       typedef typename iterator_traits<_ForwardIterator2>::value_type
 135:/usr/include/newlib/c++/9.2.1/bits/stl_algobase.h **** 	_ValueType2;
 136:/usr/include/newlib/c++/9.2.1/bits/stl_algobase.h **** 
 137:/usr/include/newlib/c++/9.2.1/bits/stl_algobase.h ****       __glibcxx_function_requires(_ConvertibleConcept<_ValueType1,
 138:/usr/include/newlib/c++/9.2.1/bits/stl_algobase.h **** 				  _ValueType2>)
 139:/usr/include/newlib/c++/9.2.1/bits/stl_algobase.h ****       __glibcxx_function_requires(_ConvertibleConcept<_ValueType2,
 140:/usr/include/newlib/c++/9.2.1/bits/stl_algobase.h **** 				  _ValueType1>)
 141:/usr/include/newlib/c++/9.2.1/bits/stl_algobase.h **** 
 142:/usr/include/newlib/c++/9.2.1/bits/stl_algobase.h ****       typedef typename iterator_traits<_ForwardIterator1>::reference
 143:/usr/include/newlib/c++/9.2.1/bits/stl_algobase.h **** 	_ReferenceType1;
 144:/usr/include/newlib/c++/9.2.1/bits/stl_algobase.h ****       typedef typename iterator_traits<_ForwardIterator2>::reference
 145:/usr/include/newlib/c++/9.2.1/bits/stl_algobase.h **** 	_ReferenceType2;
 146:/usr/include/newlib/c++/9.2.1/bits/stl_algobase.h ****       std::__iter_swap<__are_same<_ValueType1, _ValueType2>::__value
 147:/usr/include/newlib/c++/9.2.1/bits/stl_algobase.h **** 	&& __are_same<_ValueType1&, _ReferenceType1>::__value
 148:/usr/include/newlib/c++/9.2.1/bits/stl_algobase.h **** 	&& __are_same<_ValueType2&, _ReferenceType2>::__value>::
 149:/usr/include/newlib/c++/9.2.1/bits/stl_algobase.h **** 	iter_swap(__a, __b);
 150:/usr/include/newlib/c++/9.2.1/bits/stl_algobase.h **** #else
 151:/usr/include/newlib/c++/9.2.1/bits/stl_algobase.h ****       swap(*__a, *__b);
 152:/usr/include/newlib/c++/9.2.1/bits/stl_algobase.h **** #endif
 153:/usr/include/newlib/c++/9.2.1/bits/stl_algobase.h ****     }
 154:/usr/include/newlib/c++/9.2.1/bits/stl_algobase.h **** 
 155:/usr/include/newlib/c++/9.2.1/bits/stl_algobase.h ****   /**
 156:/usr/include/newlib/c++/9.2.1/bits/stl_algobase.h ****    *  @brief Swap the elements of two sequences.
 157:/usr/include/newlib/c++/9.2.1/bits/stl_algobase.h ****    *  @ingroup mutating_algorithms
 158:/usr/include/newlib/c++/9.2.1/bits/stl_algobase.h ****    *  @param  __first1  A forward iterator.
 159:/usr/include/newlib/c++/9.2.1/bits/stl_algobase.h ****    *  @param  __last1   A forward iterator.
 160:/usr/include/newlib/c++/9.2.1/bits/stl_algobase.h ****    *  @param  __first2  A forward iterator.
 161:/usr/include/newlib/c++/9.2.1/bits/stl_algobase.h ****    *  @return   An iterator equal to @p first2+(last1-first1).
 162:/usr/include/newlib/c++/9.2.1/bits/stl_algobase.h ****    *
 163:/usr/include/newlib/c++/9.2.1/bits/stl_algobase.h ****    *  Swaps each element in the range @p [first1,last1) with the
 164:/usr/include/newlib/c++/9.2.1/bits/stl_algobase.h ****    *  corresponding element in the range @p [first2,(last1-first1)).
 165:/usr/include/newlib/c++/9.2.1/bits/stl_algobase.h ****    *  The ranges must not overlap.
 166:/usr/include/newlib/c++/9.2.1/bits/stl_algobase.h ****   */
 167:/usr/include/newlib/c++/9.2.1/bits/stl_algobase.h ****   template<typename _ForwardIterator1, typename _ForwardIterator2>
 168:/usr/include/newlib/c++/9.2.1/bits/stl_algobase.h ****     _ForwardIterator2
 169:/usr/include/newlib/c++/9.2.1/bits/stl_algobase.h ****     swap_ranges(_ForwardIterator1 __first1, _ForwardIterator1 __last1,
 170:/usr/include/newlib/c++/9.2.1/bits/stl_algobase.h **** 		_ForwardIterator2 __first2)
 171:/usr/include/newlib/c++/9.2.1/bits/stl_algobase.h ****     {
 172:/usr/include/newlib/c++/9.2.1/bits/stl_algobase.h ****       // concept requirements
 173:/usr/include/newlib/c++/9.2.1/bits/stl_algobase.h ****       __glibcxx_function_requires(_Mutable_ForwardIteratorConcept<
 174:/usr/include/newlib/c++/9.2.1/bits/stl_algobase.h **** 				  _ForwardIterator1>)
 175:/usr/include/newlib/c++/9.2.1/bits/stl_algobase.h ****       __glibcxx_function_requires(_Mutable_ForwardIteratorConcept<
 176:/usr/include/newlib/c++/9.2.1/bits/stl_algobase.h **** 				  _ForwardIterator2>)
 177:/usr/include/newlib/c++/9.2.1/bits/stl_algobase.h ****       __glibcxx_requires_valid_range(__first1, __last1);
ARM GAS  /tmp/ccoDtert.s 			page 8


 178:/usr/include/newlib/c++/9.2.1/bits/stl_algobase.h **** 
 179:/usr/include/newlib/c++/9.2.1/bits/stl_algobase.h ****       for (; __first1 != __last1; ++__first1, (void)++__first2)
 180:/usr/include/newlib/c++/9.2.1/bits/stl_algobase.h **** 	std::iter_swap(__first1, __first2);
 181:/usr/include/newlib/c++/9.2.1/bits/stl_algobase.h ****       return __first2;
 182:/usr/include/newlib/c++/9.2.1/bits/stl_algobase.h ****     }
 183:/usr/include/newlib/c++/9.2.1/bits/stl_algobase.h **** 
 184:/usr/include/newlib/c++/9.2.1/bits/stl_algobase.h ****   /**
 185:/usr/include/newlib/c++/9.2.1/bits/stl_algobase.h ****    *  @brief This does what you think it does.
 186:/usr/include/newlib/c++/9.2.1/bits/stl_algobase.h ****    *  @ingroup sorting_algorithms
 187:/usr/include/newlib/c++/9.2.1/bits/stl_algobase.h ****    *  @param  __a  A thing of arbitrary type.
 188:/usr/include/newlib/c++/9.2.1/bits/stl_algobase.h ****    *  @param  __b  Another thing of arbitrary type.
 189:/usr/include/newlib/c++/9.2.1/bits/stl_algobase.h ****    *  @return   The lesser of the parameters.
 190:/usr/include/newlib/c++/9.2.1/bits/stl_algobase.h ****    *
 191:/usr/include/newlib/c++/9.2.1/bits/stl_algobase.h ****    *  This is the simple classic generic implementation.  It will work on
 192:/usr/include/newlib/c++/9.2.1/bits/stl_algobase.h ****    *  temporary expressions, since they are only evaluated once, unlike a
 193:/usr/include/newlib/c++/9.2.1/bits/stl_algobase.h ****    *  preprocessor macro.
 194:/usr/include/newlib/c++/9.2.1/bits/stl_algobase.h ****   */
 195:/usr/include/newlib/c++/9.2.1/bits/stl_algobase.h ****   template<typename _Tp>
 196:/usr/include/newlib/c++/9.2.1/bits/stl_algobase.h ****     _GLIBCXX14_CONSTEXPR
 197:/usr/include/newlib/c++/9.2.1/bits/stl_algobase.h ****     inline const _Tp&
 198:/usr/include/newlib/c++/9.2.1/bits/stl_algobase.h ****     min(const _Tp& __a, const _Tp& __b)
 199:/usr/include/newlib/c++/9.2.1/bits/stl_algobase.h ****     {
 200:/usr/include/newlib/c++/9.2.1/bits/stl_algobase.h ****       // concept requirements
 201:/usr/include/newlib/c++/9.2.1/bits/stl_algobase.h ****       __glibcxx_function_requires(_LessThanComparableConcept<_Tp>)
 202:/usr/include/newlib/c++/9.2.1/bits/stl_algobase.h ****       //return __b < __a ? __b : __a;
 203:/usr/include/newlib/c++/9.2.1/bits/stl_algobase.h ****       if (__b < __a)
 204:/usr/include/newlib/c++/9.2.1/bits/stl_algobase.h **** 	return __b;
 205:/usr/include/newlib/c++/9.2.1/bits/stl_algobase.h ****       return __a;
 206:/usr/include/newlib/c++/9.2.1/bits/stl_algobase.h ****     }
 207:/usr/include/newlib/c++/9.2.1/bits/stl_algobase.h **** 
 208:/usr/include/newlib/c++/9.2.1/bits/stl_algobase.h ****   /**
 209:/usr/include/newlib/c++/9.2.1/bits/stl_algobase.h ****    *  @brief This does what you think it does.
 210:/usr/include/newlib/c++/9.2.1/bits/stl_algobase.h ****    *  @ingroup sorting_algorithms
 211:/usr/include/newlib/c++/9.2.1/bits/stl_algobase.h ****    *  @param  __a  A thing of arbitrary type.
 212:/usr/include/newlib/c++/9.2.1/bits/stl_algobase.h ****    *  @param  __b  Another thing of arbitrary type.
 213:/usr/include/newlib/c++/9.2.1/bits/stl_algobase.h ****    *  @return   The greater of the parameters.
 214:/usr/include/newlib/c++/9.2.1/bits/stl_algobase.h ****    *
 215:/usr/include/newlib/c++/9.2.1/bits/stl_algobase.h ****    *  This is the simple classic generic implementation.  It will work on
 216:/usr/include/newlib/c++/9.2.1/bits/stl_algobase.h ****    *  temporary expressions, since they are only evaluated once, unlike a
 217:/usr/include/newlib/c++/9.2.1/bits/stl_algobase.h ****    *  preprocessor macro.
 218:/usr/include/newlib/c++/9.2.1/bits/stl_algobase.h ****   */
 219:/usr/include/newlib/c++/9.2.1/bits/stl_algobase.h ****   template<typename _Tp>
 220:/usr/include/newlib/c++/9.2.1/bits/stl_algobase.h ****     _GLIBCXX14_CONSTEXPR
 221:/usr/include/newlib/c++/9.2.1/bits/stl_algobase.h ****     inline const _Tp&
 222:/usr/include/newlib/c++/9.2.1/bits/stl_algobase.h ****     max(const _Tp& __a, const _Tp& __b)
 223:/usr/include/newlib/c++/9.2.1/bits/stl_algobase.h ****     {
 224:/usr/include/newlib/c++/9.2.1/bits/stl_algobase.h ****       // concept requirements
 225:/usr/include/newlib/c++/9.2.1/bits/stl_algobase.h ****       __glibcxx_function_requires(_LessThanComparableConcept<_Tp>)
 226:/usr/include/newlib/c++/9.2.1/bits/stl_algobase.h ****       //return  __a < __b ? __b : __a;
 227:/usr/include/newlib/c++/9.2.1/bits/stl_algobase.h ****       if (__a < __b)
 228:/usr/include/newlib/c++/9.2.1/bits/stl_algobase.h **** 	return __b;
 229:/usr/include/newlib/c++/9.2.1/bits/stl_algobase.h ****       return __a;
 230:/usr/include/newlib/c++/9.2.1/bits/stl_algobase.h ****     }
 231:/usr/include/newlib/c++/9.2.1/bits/stl_algobase.h **** 
 232:/usr/include/newlib/c++/9.2.1/bits/stl_algobase.h ****   /**
 233:/usr/include/newlib/c++/9.2.1/bits/stl_algobase.h ****    *  @brief This does what you think it does.
 234:/usr/include/newlib/c++/9.2.1/bits/stl_algobase.h ****    *  @ingroup sorting_algorithms
ARM GAS  /tmp/ccoDtert.s 			page 9


 235:/usr/include/newlib/c++/9.2.1/bits/stl_algobase.h ****    *  @param  __a  A thing of arbitrary type.
 236:/usr/include/newlib/c++/9.2.1/bits/stl_algobase.h ****    *  @param  __b  Another thing of arbitrary type.
 237:/usr/include/newlib/c++/9.2.1/bits/stl_algobase.h ****    *  @param  __comp  A @link comparison_functors comparison functor@endlink.
 238:/usr/include/newlib/c++/9.2.1/bits/stl_algobase.h ****    *  @return   The lesser of the parameters.
 239:/usr/include/newlib/c++/9.2.1/bits/stl_algobase.h ****    *
 240:/usr/include/newlib/c++/9.2.1/bits/stl_algobase.h ****    *  This will work on temporary expressions, since they are only evaluated
 241:/usr/include/newlib/c++/9.2.1/bits/stl_algobase.h ****    *  once, unlike a preprocessor macro.
 242:/usr/include/newlib/c++/9.2.1/bits/stl_algobase.h ****   */
 243:/usr/include/newlib/c++/9.2.1/bits/stl_algobase.h ****   template<typename _Tp, typename _Compare>
 244:/usr/include/newlib/c++/9.2.1/bits/stl_algobase.h ****     _GLIBCXX14_CONSTEXPR
 245:/usr/include/newlib/c++/9.2.1/bits/stl_algobase.h ****     inline const _Tp&
 246:/usr/include/newlib/c++/9.2.1/bits/stl_algobase.h ****     min(const _Tp& __a, const _Tp& __b, _Compare __comp)
 247:/usr/include/newlib/c++/9.2.1/bits/stl_algobase.h ****     {
 248:/usr/include/newlib/c++/9.2.1/bits/stl_algobase.h ****       //return __comp(__b, __a) ? __b : __a;
 249:/usr/include/newlib/c++/9.2.1/bits/stl_algobase.h ****       if (__comp(__b, __a))
 250:/usr/include/newlib/c++/9.2.1/bits/stl_algobase.h **** 	return __b;
 251:/usr/include/newlib/c++/9.2.1/bits/stl_algobase.h ****       return __a;
 252:/usr/include/newlib/c++/9.2.1/bits/stl_algobase.h ****     }
 253:/usr/include/newlib/c++/9.2.1/bits/stl_algobase.h **** 
 254:/usr/include/newlib/c++/9.2.1/bits/stl_algobase.h ****   /**
 255:/usr/include/newlib/c++/9.2.1/bits/stl_algobase.h ****    *  @brief This does what you think it does.
 256:/usr/include/newlib/c++/9.2.1/bits/stl_algobase.h ****    *  @ingroup sorting_algorithms
 257:/usr/include/newlib/c++/9.2.1/bits/stl_algobase.h ****    *  @param  __a  A thing of arbitrary type.
 258:/usr/include/newlib/c++/9.2.1/bits/stl_algobase.h ****    *  @param  __b  Another thing of arbitrary type.
 259:/usr/include/newlib/c++/9.2.1/bits/stl_algobase.h ****    *  @param  __comp  A @link comparison_functors comparison functor@endlink.
 260:/usr/include/newlib/c++/9.2.1/bits/stl_algobase.h ****    *  @return   The greater of the parameters.
 261:/usr/include/newlib/c++/9.2.1/bits/stl_algobase.h ****    *
 262:/usr/include/newlib/c++/9.2.1/bits/stl_algobase.h ****    *  This will work on temporary expressions, since they are only evaluated
 263:/usr/include/newlib/c++/9.2.1/bits/stl_algobase.h ****    *  once, unlike a preprocessor macro.
 264:/usr/include/newlib/c++/9.2.1/bits/stl_algobase.h ****   */
 265:/usr/include/newlib/c++/9.2.1/bits/stl_algobase.h ****   template<typename _Tp, typename _Compare>
 266:/usr/include/newlib/c++/9.2.1/bits/stl_algobase.h ****     _GLIBCXX14_CONSTEXPR
 267:/usr/include/newlib/c++/9.2.1/bits/stl_algobase.h ****     inline const _Tp&
 268:/usr/include/newlib/c++/9.2.1/bits/stl_algobase.h ****     max(const _Tp& __a, const _Tp& __b, _Compare __comp)
 269:/usr/include/newlib/c++/9.2.1/bits/stl_algobase.h ****     {
 270:/usr/include/newlib/c++/9.2.1/bits/stl_algobase.h ****       //return __comp(__a, __b) ? __b : __a;
 271:/usr/include/newlib/c++/9.2.1/bits/stl_algobase.h ****       if (__comp(__a, __b))
 272:/usr/include/newlib/c++/9.2.1/bits/stl_algobase.h **** 	return __b;
 273:/usr/include/newlib/c++/9.2.1/bits/stl_algobase.h ****       return __a;
 274:/usr/include/newlib/c++/9.2.1/bits/stl_algobase.h ****     }
 275:/usr/include/newlib/c++/9.2.1/bits/stl_algobase.h **** 
 276:/usr/include/newlib/c++/9.2.1/bits/stl_algobase.h ****   // Fallback implementation of the function in bits/stl_iterator.h used to
 277:/usr/include/newlib/c++/9.2.1/bits/stl_algobase.h ****   // remove the __normal_iterator wrapper. See copy, fill, ...
 278:/usr/include/newlib/c++/9.2.1/bits/stl_algobase.h ****   template<typename _Iterator>
 279:/usr/include/newlib/c++/9.2.1/bits/stl_algobase.h ****     inline _Iterator
 280:/usr/include/newlib/c++/9.2.1/bits/stl_algobase.h ****     __niter_base(_Iterator __it)
 281:/usr/include/newlib/c++/9.2.1/bits/stl_algobase.h ****     _GLIBCXX_NOEXCEPT_IF(std::is_nothrow_copy_constructible<_Iterator>::value)
 282:/usr/include/newlib/c++/9.2.1/bits/stl_algobase.h ****     { return __it; }
 283:/usr/include/newlib/c++/9.2.1/bits/stl_algobase.h **** 
 284:/usr/include/newlib/c++/9.2.1/bits/stl_algobase.h ****   // Reverse the __niter_base transformation to get a
 285:/usr/include/newlib/c++/9.2.1/bits/stl_algobase.h ****   // __normal_iterator back again (this assumes that __normal_iterator
 286:/usr/include/newlib/c++/9.2.1/bits/stl_algobase.h ****   // is only used to wrap random access iterators, like pointers).
 287:/usr/include/newlib/c++/9.2.1/bits/stl_algobase.h ****   template<typename _From, typename _To>
 288:/usr/include/newlib/c++/9.2.1/bits/stl_algobase.h ****     inline _From
 289:/usr/include/newlib/c++/9.2.1/bits/stl_algobase.h ****     __niter_wrap(_From __from, _To __res)
 290:/usr/include/newlib/c++/9.2.1/bits/stl_algobase.h ****     { return __from + (__res - std::__niter_base(__from)); }
 291:/usr/include/newlib/c++/9.2.1/bits/stl_algobase.h **** 
ARM GAS  /tmp/ccoDtert.s 			page 10


 292:/usr/include/newlib/c++/9.2.1/bits/stl_algobase.h ****   // No need to wrap, iterator already has the right type.
 293:/usr/include/newlib/c++/9.2.1/bits/stl_algobase.h ****   template<typename _Iterator>
 294:/usr/include/newlib/c++/9.2.1/bits/stl_algobase.h ****     inline _Iterator
 295:/usr/include/newlib/c++/9.2.1/bits/stl_algobase.h ****     __niter_wrap(const _Iterator&, _Iterator __res)
 296:/usr/include/newlib/c++/9.2.1/bits/stl_algobase.h ****     { return __res; }
 297:/usr/include/newlib/c++/9.2.1/bits/stl_algobase.h **** 
 298:/usr/include/newlib/c++/9.2.1/bits/stl_algobase.h ****   // All of these auxiliary structs serve two purposes.  (1) Replace
 299:/usr/include/newlib/c++/9.2.1/bits/stl_algobase.h ****   // calls to copy with memmove whenever possible.  (Memmove, not memcpy,
 300:/usr/include/newlib/c++/9.2.1/bits/stl_algobase.h ****   // because the input and output ranges are permitted to overlap.)
 301:/usr/include/newlib/c++/9.2.1/bits/stl_algobase.h ****   // (2) If we're using random access iterators, then write the loop as
 302:/usr/include/newlib/c++/9.2.1/bits/stl_algobase.h ****   // a for loop with an explicit count.
 303:/usr/include/newlib/c++/9.2.1/bits/stl_algobase.h **** 
 304:/usr/include/newlib/c++/9.2.1/bits/stl_algobase.h ****   template<bool _IsMove, bool _IsSimple, typename _Category>
 305:/usr/include/newlib/c++/9.2.1/bits/stl_algobase.h ****     struct __copy_move
 306:/usr/include/newlib/c++/9.2.1/bits/stl_algobase.h ****     {
 307:/usr/include/newlib/c++/9.2.1/bits/stl_algobase.h ****       template<typename _II, typename _OI>
 308:/usr/include/newlib/c++/9.2.1/bits/stl_algobase.h **** 	static _OI
 309:/usr/include/newlib/c++/9.2.1/bits/stl_algobase.h **** 	__copy_m(_II __first, _II __last, _OI __result)
 310:/usr/include/newlib/c++/9.2.1/bits/stl_algobase.h **** 	{
 311:/usr/include/newlib/c++/9.2.1/bits/stl_algobase.h **** 	  for (; __first != __last; ++__result, (void)++__first)
 312:/usr/include/newlib/c++/9.2.1/bits/stl_algobase.h **** 	    *__result = *__first;
 313:/usr/include/newlib/c++/9.2.1/bits/stl_algobase.h **** 	  return __result;
 314:/usr/include/newlib/c++/9.2.1/bits/stl_algobase.h **** 	}
 315:/usr/include/newlib/c++/9.2.1/bits/stl_algobase.h ****     };
 316:/usr/include/newlib/c++/9.2.1/bits/stl_algobase.h **** 
 317:/usr/include/newlib/c++/9.2.1/bits/stl_algobase.h **** #if __cplusplus >= 201103L
 318:/usr/include/newlib/c++/9.2.1/bits/stl_algobase.h ****   template<typename _Category>
 319:/usr/include/newlib/c++/9.2.1/bits/stl_algobase.h ****     struct __copy_move<true, false, _Category>
 320:/usr/include/newlib/c++/9.2.1/bits/stl_algobase.h ****     {
 321:/usr/include/newlib/c++/9.2.1/bits/stl_algobase.h ****       template<typename _II, typename _OI>
 322:/usr/include/newlib/c++/9.2.1/bits/stl_algobase.h **** 	static _OI
 323:/usr/include/newlib/c++/9.2.1/bits/stl_algobase.h **** 	__copy_m(_II __first, _II __last, _OI __result)
 324:/usr/include/newlib/c++/9.2.1/bits/stl_algobase.h **** 	{
 325:/usr/include/newlib/c++/9.2.1/bits/stl_algobase.h **** 	  for (; __first != __last; ++__result, (void)++__first)
 326:/usr/include/newlib/c++/9.2.1/bits/stl_algobase.h **** 	    *__result = std::move(*__first);
 327:/usr/include/newlib/c++/9.2.1/bits/stl_algobase.h **** 	  return __result;
 328:/usr/include/newlib/c++/9.2.1/bits/stl_algobase.h **** 	}
 329:/usr/include/newlib/c++/9.2.1/bits/stl_algobase.h ****     };
 330:/usr/include/newlib/c++/9.2.1/bits/stl_algobase.h **** #endif
 331:/usr/include/newlib/c++/9.2.1/bits/stl_algobase.h **** 
 332:/usr/include/newlib/c++/9.2.1/bits/stl_algobase.h ****   template<>
 333:/usr/include/newlib/c++/9.2.1/bits/stl_algobase.h ****     struct __copy_move<false, false, random_access_iterator_tag>
 334:/usr/include/newlib/c++/9.2.1/bits/stl_algobase.h ****     {
 335:/usr/include/newlib/c++/9.2.1/bits/stl_algobase.h ****       template<typename _II, typename _OI>
 336:/usr/include/newlib/c++/9.2.1/bits/stl_algobase.h **** 	static _OI
 337:/usr/include/newlib/c++/9.2.1/bits/stl_algobase.h **** 	__copy_m(_II __first, _II __last, _OI __result)
 338:/usr/include/newlib/c++/9.2.1/bits/stl_algobase.h **** 	{
 339:/usr/include/newlib/c++/9.2.1/bits/stl_algobase.h **** 	  typedef typename iterator_traits<_II>::difference_type _Distance;
 340:/usr/include/newlib/c++/9.2.1/bits/stl_algobase.h **** 	  for(_Distance __n = __last - __first; __n > 0; --__n)
 341:/usr/include/newlib/c++/9.2.1/bits/stl_algobase.h **** 	    {
 342:/usr/include/newlib/c++/9.2.1/bits/stl_algobase.h **** 	      *__result = *__first;
 343:/usr/include/newlib/c++/9.2.1/bits/stl_algobase.h **** 	      ++__first;
 344:/usr/include/newlib/c++/9.2.1/bits/stl_algobase.h **** 	      ++__result;
 345:/usr/include/newlib/c++/9.2.1/bits/stl_algobase.h **** 	    }
 346:/usr/include/newlib/c++/9.2.1/bits/stl_algobase.h **** 	  return __result;
 347:/usr/include/newlib/c++/9.2.1/bits/stl_algobase.h **** 	}
 348:/usr/include/newlib/c++/9.2.1/bits/stl_algobase.h ****     };
ARM GAS  /tmp/ccoDtert.s 			page 11


 349:/usr/include/newlib/c++/9.2.1/bits/stl_algobase.h **** 
 350:/usr/include/newlib/c++/9.2.1/bits/stl_algobase.h **** #if __cplusplus >= 201103L
 351:/usr/include/newlib/c++/9.2.1/bits/stl_algobase.h ****   template<>
 352:/usr/include/newlib/c++/9.2.1/bits/stl_algobase.h ****     struct __copy_move<true, false, random_access_iterator_tag>
 353:/usr/include/newlib/c++/9.2.1/bits/stl_algobase.h ****     {
 354:/usr/include/newlib/c++/9.2.1/bits/stl_algobase.h ****       template<typename _II, typename _OI>
 355:/usr/include/newlib/c++/9.2.1/bits/stl_algobase.h **** 	static _OI
 356:/usr/include/newlib/c++/9.2.1/bits/stl_algobase.h **** 	__copy_m(_II __first, _II __last, _OI __result)
 357:/usr/include/newlib/c++/9.2.1/bits/stl_algobase.h **** 	{
 358:/usr/include/newlib/c++/9.2.1/bits/stl_algobase.h **** 	  typedef typename iterator_traits<_II>::difference_type _Distance;
 359:/usr/include/newlib/c++/9.2.1/bits/stl_algobase.h **** 	  for(_Distance __n = __last - __first; __n > 0; --__n)
 360:/usr/include/newlib/c++/9.2.1/bits/stl_algobase.h **** 	    {
 361:/usr/include/newlib/c++/9.2.1/bits/stl_algobase.h **** 	      *__result = std::move(*__first);
 362:/usr/include/newlib/c++/9.2.1/bits/stl_algobase.h **** 	      ++__first;
 363:/usr/include/newlib/c++/9.2.1/bits/stl_algobase.h **** 	      ++__result;
 364:/usr/include/newlib/c++/9.2.1/bits/stl_algobase.h **** 	    }
 365:/usr/include/newlib/c++/9.2.1/bits/stl_algobase.h **** 	  return __result;
 366:/usr/include/newlib/c++/9.2.1/bits/stl_algobase.h **** 	}
 367:/usr/include/newlib/c++/9.2.1/bits/stl_algobase.h ****     };
 368:/usr/include/newlib/c++/9.2.1/bits/stl_algobase.h **** #endif
 369:/usr/include/newlib/c++/9.2.1/bits/stl_algobase.h **** 
 370:/usr/include/newlib/c++/9.2.1/bits/stl_algobase.h ****   template<bool _IsMove>
 371:/usr/include/newlib/c++/9.2.1/bits/stl_algobase.h ****     struct __copy_move<_IsMove, true, random_access_iterator_tag>
 372:/usr/include/newlib/c++/9.2.1/bits/stl_algobase.h ****     {
 373:/usr/include/newlib/c++/9.2.1/bits/stl_algobase.h ****       template<typename _Tp>
 374:/usr/include/newlib/c++/9.2.1/bits/stl_algobase.h **** 	static _Tp*
 375:/usr/include/newlib/c++/9.2.1/bits/stl_algobase.h **** 	__copy_m(const _Tp* __first, const _Tp* __last, _Tp* __result)
 376:/usr/include/newlib/c++/9.2.1/bits/stl_algobase.h **** 	{
 377:/usr/include/newlib/c++/9.2.1/bits/stl_algobase.h **** #if __cplusplus >= 201103L
 378:/usr/include/newlib/c++/9.2.1/bits/stl_algobase.h **** 	  using __assignable = conditional<_IsMove,
 379:/usr/include/newlib/c++/9.2.1/bits/stl_algobase.h **** 					   is_move_assignable<_Tp>,
 380:/usr/include/newlib/c++/9.2.1/bits/stl_algobase.h **** 					   is_copy_assignable<_Tp>>;
 381:/usr/include/newlib/c++/9.2.1/bits/stl_algobase.h **** 	  // trivial types can have deleted assignment
 382:/usr/include/newlib/c++/9.2.1/bits/stl_algobase.h **** 	  static_assert( __assignable::type::value, "type is not assignable" );
 383:/usr/include/newlib/c++/9.2.1/bits/stl_algobase.h **** #endif
 384:/usr/include/newlib/c++/9.2.1/bits/stl_algobase.h **** 	  const ptrdiff_t _Num = __last - __first;
 385:/usr/include/newlib/c++/9.2.1/bits/stl_algobase.h **** 	  if (_Num)
 386:/usr/include/newlib/c++/9.2.1/bits/stl_algobase.h **** 	    __builtin_memmove(__result, __first, sizeof(_Tp) * _Num);
 387:/usr/include/newlib/c++/9.2.1/bits/stl_algobase.h **** 	  return __result + _Num;
 388:/usr/include/newlib/c++/9.2.1/bits/stl_algobase.h **** 	}
 389:/usr/include/newlib/c++/9.2.1/bits/stl_algobase.h ****     };
 390:/usr/include/newlib/c++/9.2.1/bits/stl_algobase.h **** 
 391:/usr/include/newlib/c++/9.2.1/bits/stl_algobase.h ****   template<bool _IsMove, typename _II, typename _OI>
 392:/usr/include/newlib/c++/9.2.1/bits/stl_algobase.h ****     inline _OI
 393:/usr/include/newlib/c++/9.2.1/bits/stl_algobase.h ****     __copy_move_a(_II __first, _II __last, _OI __result)
 394:/usr/include/newlib/c++/9.2.1/bits/stl_algobase.h ****     {
 395:/usr/include/newlib/c++/9.2.1/bits/stl_algobase.h ****       typedef typename iterator_traits<_II>::value_type _ValueTypeI;
 396:/usr/include/newlib/c++/9.2.1/bits/stl_algobase.h ****       typedef typename iterator_traits<_OI>::value_type _ValueTypeO;
 397:/usr/include/newlib/c++/9.2.1/bits/stl_algobase.h ****       typedef typename iterator_traits<_II>::iterator_category _Category;
 398:/usr/include/newlib/c++/9.2.1/bits/stl_algobase.h ****       const bool __simple = (__is_trivially_copyable(_ValueTypeI)
 399:/usr/include/newlib/c++/9.2.1/bits/stl_algobase.h **** 			     && __is_pointer<_II>::__value
 400:/usr/include/newlib/c++/9.2.1/bits/stl_algobase.h **** 			     && __is_pointer<_OI>::__value
 401:/usr/include/newlib/c++/9.2.1/bits/stl_algobase.h **** 			     && __are_same<_ValueTypeI, _ValueTypeO>::__value);
 402:/usr/include/newlib/c++/9.2.1/bits/stl_algobase.h **** 
 403:/usr/include/newlib/c++/9.2.1/bits/stl_algobase.h ****       return std::__copy_move<_IsMove, __simple,
 404:/usr/include/newlib/c++/9.2.1/bits/stl_algobase.h **** 			      _Category>::__copy_m(__first, __last, __result);
 405:/usr/include/newlib/c++/9.2.1/bits/stl_algobase.h ****     }
ARM GAS  /tmp/ccoDtert.s 			page 12


 406:/usr/include/newlib/c++/9.2.1/bits/stl_algobase.h **** 
 407:/usr/include/newlib/c++/9.2.1/bits/stl_algobase.h ****   // Helpers for streambuf iterators (either istream or ostream).
 408:/usr/include/newlib/c++/9.2.1/bits/stl_algobase.h ****   // NB: avoid including <iosfwd>, relatively large.
 409:/usr/include/newlib/c++/9.2.1/bits/stl_algobase.h ****   template<typename _CharT>
 410:/usr/include/newlib/c++/9.2.1/bits/stl_algobase.h ****     struct char_traits;
 411:/usr/include/newlib/c++/9.2.1/bits/stl_algobase.h **** 
 412:/usr/include/newlib/c++/9.2.1/bits/stl_algobase.h ****   template<typename _CharT, typename _Traits>
 413:/usr/include/newlib/c++/9.2.1/bits/stl_algobase.h ****     class istreambuf_iterator;
 414:/usr/include/newlib/c++/9.2.1/bits/stl_algobase.h **** 
 415:/usr/include/newlib/c++/9.2.1/bits/stl_algobase.h ****   template<typename _CharT, typename _Traits>
 416:/usr/include/newlib/c++/9.2.1/bits/stl_algobase.h ****     class ostreambuf_iterator;
 417:/usr/include/newlib/c++/9.2.1/bits/stl_algobase.h **** 
 418:/usr/include/newlib/c++/9.2.1/bits/stl_algobase.h ****   template<bool _IsMove, typename _CharT>
 419:/usr/include/newlib/c++/9.2.1/bits/stl_algobase.h ****     typename __gnu_cxx::__enable_if<__is_char<_CharT>::__value,
 420:/usr/include/newlib/c++/9.2.1/bits/stl_algobase.h **** 	     ostreambuf_iterator<_CharT, char_traits<_CharT> > >::__type
 421:/usr/include/newlib/c++/9.2.1/bits/stl_algobase.h ****     __copy_move_a2(_CharT*, _CharT*,
 422:/usr/include/newlib/c++/9.2.1/bits/stl_algobase.h **** 		   ostreambuf_iterator<_CharT, char_traits<_CharT> >);
 423:/usr/include/newlib/c++/9.2.1/bits/stl_algobase.h **** 
 424:/usr/include/newlib/c++/9.2.1/bits/stl_algobase.h ****   template<bool _IsMove, typename _CharT>
 425:/usr/include/newlib/c++/9.2.1/bits/stl_algobase.h ****     typename __gnu_cxx::__enable_if<__is_char<_CharT>::__value,
 426:/usr/include/newlib/c++/9.2.1/bits/stl_algobase.h **** 	     ostreambuf_iterator<_CharT, char_traits<_CharT> > >::__type
 427:/usr/include/newlib/c++/9.2.1/bits/stl_algobase.h ****     __copy_move_a2(const _CharT*, const _CharT*,
 428:/usr/include/newlib/c++/9.2.1/bits/stl_algobase.h **** 		   ostreambuf_iterator<_CharT, char_traits<_CharT> >);
 429:/usr/include/newlib/c++/9.2.1/bits/stl_algobase.h **** 
 430:/usr/include/newlib/c++/9.2.1/bits/stl_algobase.h ****   template<bool _IsMove, typename _CharT>
 431:/usr/include/newlib/c++/9.2.1/bits/stl_algobase.h ****     typename __gnu_cxx::__enable_if<__is_char<_CharT>::__value,
 432:/usr/include/newlib/c++/9.2.1/bits/stl_algobase.h **** 				    _CharT*>::__type
 433:/usr/include/newlib/c++/9.2.1/bits/stl_algobase.h ****     __copy_move_a2(istreambuf_iterator<_CharT, char_traits<_CharT> >,
 434:/usr/include/newlib/c++/9.2.1/bits/stl_algobase.h **** 		   istreambuf_iterator<_CharT, char_traits<_CharT> >, _CharT*);
 435:/usr/include/newlib/c++/9.2.1/bits/stl_algobase.h **** 
 436:/usr/include/newlib/c++/9.2.1/bits/stl_algobase.h ****   template<bool _IsMove, typename _II, typename _OI>
 437:/usr/include/newlib/c++/9.2.1/bits/stl_algobase.h ****     inline _OI
 438:/usr/include/newlib/c++/9.2.1/bits/stl_algobase.h ****     __copy_move_a2(_II __first, _II __last, _OI __result)
 439:/usr/include/newlib/c++/9.2.1/bits/stl_algobase.h ****     {
 440:/usr/include/newlib/c++/9.2.1/bits/stl_algobase.h ****       return std::__niter_wrap(__result,
 441:/usr/include/newlib/c++/9.2.1/bits/stl_algobase.h **** 		std::__copy_move_a<_IsMove>(std::__niter_base(__first),
 442:/usr/include/newlib/c++/9.2.1/bits/stl_algobase.h **** 					    std::__niter_base(__last),
 443:/usr/include/newlib/c++/9.2.1/bits/stl_algobase.h **** 					    std::__niter_base(__result)));
 444:/usr/include/newlib/c++/9.2.1/bits/stl_algobase.h ****     }
 445:/usr/include/newlib/c++/9.2.1/bits/stl_algobase.h **** 
 446:/usr/include/newlib/c++/9.2.1/bits/stl_algobase.h ****   /**
 447:/usr/include/newlib/c++/9.2.1/bits/stl_algobase.h ****    *  @brief Copies the range [first,last) into result.
 448:/usr/include/newlib/c++/9.2.1/bits/stl_algobase.h ****    *  @ingroup mutating_algorithms
 449:/usr/include/newlib/c++/9.2.1/bits/stl_algobase.h ****    *  @param  __first  An input iterator.
 450:/usr/include/newlib/c++/9.2.1/bits/stl_algobase.h ****    *  @param  __last   An input iterator.
 451:/usr/include/newlib/c++/9.2.1/bits/stl_algobase.h ****    *  @param  __result An output iterator.
 452:/usr/include/newlib/c++/9.2.1/bits/stl_algobase.h ****    *  @return   result + (first - last)
 453:/usr/include/newlib/c++/9.2.1/bits/stl_algobase.h ****    *
 454:/usr/include/newlib/c++/9.2.1/bits/stl_algobase.h ****    *  This inline function will boil down to a call to @c memmove whenever
 455:/usr/include/newlib/c++/9.2.1/bits/stl_algobase.h ****    *  possible.  Failing that, if random access iterators are passed, then the
 456:/usr/include/newlib/c++/9.2.1/bits/stl_algobase.h ****    *  loop count will be known (and therefore a candidate for compiler
 457:/usr/include/newlib/c++/9.2.1/bits/stl_algobase.h ****    *  optimizations such as unrolling).  Result may not be contained within
 458:/usr/include/newlib/c++/9.2.1/bits/stl_algobase.h ****    *  [first,last); the copy_backward function should be used instead.
 459:/usr/include/newlib/c++/9.2.1/bits/stl_algobase.h ****    *
 460:/usr/include/newlib/c++/9.2.1/bits/stl_algobase.h ****    *  Note that the end of the output range is permitted to be contained
 461:/usr/include/newlib/c++/9.2.1/bits/stl_algobase.h ****    *  within [first,last).
 462:/usr/include/newlib/c++/9.2.1/bits/stl_algobase.h ****   */
ARM GAS  /tmp/ccoDtert.s 			page 13


 463:/usr/include/newlib/c++/9.2.1/bits/stl_algobase.h ****   template<typename _II, typename _OI>
 464:/usr/include/newlib/c++/9.2.1/bits/stl_algobase.h ****     inline _OI
 465:/usr/include/newlib/c++/9.2.1/bits/stl_algobase.h ****     copy(_II __first, _II __last, _OI __result)
 466:/usr/include/newlib/c++/9.2.1/bits/stl_algobase.h ****     {
 467:/usr/include/newlib/c++/9.2.1/bits/stl_algobase.h ****       // concept requirements
 468:/usr/include/newlib/c++/9.2.1/bits/stl_algobase.h ****       __glibcxx_function_requires(_InputIteratorConcept<_II>)
 469:/usr/include/newlib/c++/9.2.1/bits/stl_algobase.h ****       __glibcxx_function_requires(_OutputIteratorConcept<_OI,
 470:/usr/include/newlib/c++/9.2.1/bits/stl_algobase.h **** 	    typename iterator_traits<_II>::value_type>)
 471:/usr/include/newlib/c++/9.2.1/bits/stl_algobase.h ****       __glibcxx_requires_can_increment_range(__first, __last, __result);
 472:/usr/include/newlib/c++/9.2.1/bits/stl_algobase.h **** 
 473:/usr/include/newlib/c++/9.2.1/bits/stl_algobase.h ****       return std::__copy_move_a2<__is_move_iterator<_II>::__value>
 474:/usr/include/newlib/c++/9.2.1/bits/stl_algobase.h **** 	     (std::__miter_base(__first), std::__miter_base(__last), __result);
 475:/usr/include/newlib/c++/9.2.1/bits/stl_algobase.h ****     }
 476:/usr/include/newlib/c++/9.2.1/bits/stl_algobase.h **** 
 477:/usr/include/newlib/c++/9.2.1/bits/stl_algobase.h **** #if __cplusplus >= 201103L
 478:/usr/include/newlib/c++/9.2.1/bits/stl_algobase.h ****   /**
 479:/usr/include/newlib/c++/9.2.1/bits/stl_algobase.h ****    *  @brief Moves the range [first,last) into result.
 480:/usr/include/newlib/c++/9.2.1/bits/stl_algobase.h ****    *  @ingroup mutating_algorithms
 481:/usr/include/newlib/c++/9.2.1/bits/stl_algobase.h ****    *  @param  __first  An input iterator.
 482:/usr/include/newlib/c++/9.2.1/bits/stl_algobase.h ****    *  @param  __last   An input iterator.
 483:/usr/include/newlib/c++/9.2.1/bits/stl_algobase.h ****    *  @param  __result An output iterator.
 484:/usr/include/newlib/c++/9.2.1/bits/stl_algobase.h ****    *  @return   result + (first - last)
 485:/usr/include/newlib/c++/9.2.1/bits/stl_algobase.h ****    *
 486:/usr/include/newlib/c++/9.2.1/bits/stl_algobase.h ****    *  This inline function will boil down to a call to @c memmove whenever
 487:/usr/include/newlib/c++/9.2.1/bits/stl_algobase.h ****    *  possible.  Failing that, if random access iterators are passed, then the
 488:/usr/include/newlib/c++/9.2.1/bits/stl_algobase.h ****    *  loop count will be known (and therefore a candidate for compiler
 489:/usr/include/newlib/c++/9.2.1/bits/stl_algobase.h ****    *  optimizations such as unrolling).  Result may not be contained within
 490:/usr/include/newlib/c++/9.2.1/bits/stl_algobase.h ****    *  [first,last); the move_backward function should be used instead.
 491:/usr/include/newlib/c++/9.2.1/bits/stl_algobase.h ****    *
 492:/usr/include/newlib/c++/9.2.1/bits/stl_algobase.h ****    *  Note that the end of the output range is permitted to be contained
 493:/usr/include/newlib/c++/9.2.1/bits/stl_algobase.h ****    *  within [first,last).
 494:/usr/include/newlib/c++/9.2.1/bits/stl_algobase.h ****   */
 495:/usr/include/newlib/c++/9.2.1/bits/stl_algobase.h ****   template<typename _II, typename _OI>
 496:/usr/include/newlib/c++/9.2.1/bits/stl_algobase.h ****     inline _OI
 497:/usr/include/newlib/c++/9.2.1/bits/stl_algobase.h ****     move(_II __first, _II __last, _OI __result)
 498:/usr/include/newlib/c++/9.2.1/bits/stl_algobase.h ****     {
 499:/usr/include/newlib/c++/9.2.1/bits/stl_algobase.h ****       // concept requirements
 500:/usr/include/newlib/c++/9.2.1/bits/stl_algobase.h ****       __glibcxx_function_requires(_InputIteratorConcept<_II>)
 501:/usr/include/newlib/c++/9.2.1/bits/stl_algobase.h ****       __glibcxx_function_requires(_OutputIteratorConcept<_OI,
 502:/usr/include/newlib/c++/9.2.1/bits/stl_algobase.h **** 	    typename iterator_traits<_II>::value_type>)
 503:/usr/include/newlib/c++/9.2.1/bits/stl_algobase.h ****       __glibcxx_requires_can_increment_range(__first, __last, __result);
 504:/usr/include/newlib/c++/9.2.1/bits/stl_algobase.h **** 
 505:/usr/include/newlib/c++/9.2.1/bits/stl_algobase.h ****       return std::__copy_move_a2<true>(std::__miter_base(__first),
 506:/usr/include/newlib/c++/9.2.1/bits/stl_algobase.h **** 				       std::__miter_base(__last), __result);
 507:/usr/include/newlib/c++/9.2.1/bits/stl_algobase.h ****     }
 508:/usr/include/newlib/c++/9.2.1/bits/stl_algobase.h **** 
 509:/usr/include/newlib/c++/9.2.1/bits/stl_algobase.h **** #define _GLIBCXX_MOVE3(_Tp, _Up, _Vp) std::move(_Tp, _Up, _Vp)
 510:/usr/include/newlib/c++/9.2.1/bits/stl_algobase.h **** #else
 511:/usr/include/newlib/c++/9.2.1/bits/stl_algobase.h **** #define _GLIBCXX_MOVE3(_Tp, _Up, _Vp) std::copy(_Tp, _Up, _Vp)
 512:/usr/include/newlib/c++/9.2.1/bits/stl_algobase.h **** #endif
 513:/usr/include/newlib/c++/9.2.1/bits/stl_algobase.h **** 
 514:/usr/include/newlib/c++/9.2.1/bits/stl_algobase.h ****   template<bool, bool, typename>
 515:/usr/include/newlib/c++/9.2.1/bits/stl_algobase.h ****     struct __copy_move_backward
 516:/usr/include/newlib/c++/9.2.1/bits/stl_algobase.h ****     {
 517:/usr/include/newlib/c++/9.2.1/bits/stl_algobase.h ****       template<typename _BI1, typename _BI2>
 518:/usr/include/newlib/c++/9.2.1/bits/stl_algobase.h **** 	static _BI2
 519:/usr/include/newlib/c++/9.2.1/bits/stl_algobase.h **** 	__copy_move_b(_BI1 __first, _BI1 __last, _BI2 __result)
ARM GAS  /tmp/ccoDtert.s 			page 14


 520:/usr/include/newlib/c++/9.2.1/bits/stl_algobase.h **** 	{
 521:/usr/include/newlib/c++/9.2.1/bits/stl_algobase.h **** 	  while (__first != __last)
 522:/usr/include/newlib/c++/9.2.1/bits/stl_algobase.h **** 	    *--__result = *--__last;
 523:/usr/include/newlib/c++/9.2.1/bits/stl_algobase.h **** 	  return __result;
 524:/usr/include/newlib/c++/9.2.1/bits/stl_algobase.h **** 	}
 525:/usr/include/newlib/c++/9.2.1/bits/stl_algobase.h ****     };
 526:/usr/include/newlib/c++/9.2.1/bits/stl_algobase.h **** 
 527:/usr/include/newlib/c++/9.2.1/bits/stl_algobase.h **** #if __cplusplus >= 201103L
 528:/usr/include/newlib/c++/9.2.1/bits/stl_algobase.h ****   template<typename _Category>
 529:/usr/include/newlib/c++/9.2.1/bits/stl_algobase.h ****     struct __copy_move_backward<true, false, _Category>
 530:/usr/include/newlib/c++/9.2.1/bits/stl_algobase.h ****     {
 531:/usr/include/newlib/c++/9.2.1/bits/stl_algobase.h ****       template<typename _BI1, typename _BI2>
 532:/usr/include/newlib/c++/9.2.1/bits/stl_algobase.h **** 	static _BI2
 533:/usr/include/newlib/c++/9.2.1/bits/stl_algobase.h **** 	__copy_move_b(_BI1 __first, _BI1 __last, _BI2 __result)
 534:/usr/include/newlib/c++/9.2.1/bits/stl_algobase.h **** 	{
 535:/usr/include/newlib/c++/9.2.1/bits/stl_algobase.h **** 	  while (__first != __last)
 536:/usr/include/newlib/c++/9.2.1/bits/stl_algobase.h **** 	    *--__result = std::move(*--__last);
 537:/usr/include/newlib/c++/9.2.1/bits/stl_algobase.h **** 	  return __result;
 538:/usr/include/newlib/c++/9.2.1/bits/stl_algobase.h **** 	}
 539:/usr/include/newlib/c++/9.2.1/bits/stl_algobase.h ****     };
 540:/usr/include/newlib/c++/9.2.1/bits/stl_algobase.h **** #endif
 541:/usr/include/newlib/c++/9.2.1/bits/stl_algobase.h **** 
 542:/usr/include/newlib/c++/9.2.1/bits/stl_algobase.h ****   template<>
 543:/usr/include/newlib/c++/9.2.1/bits/stl_algobase.h ****     struct __copy_move_backward<false, false, random_access_iterator_tag>
 544:/usr/include/newlib/c++/9.2.1/bits/stl_algobase.h ****     {
 545:/usr/include/newlib/c++/9.2.1/bits/stl_algobase.h ****       template<typename _BI1, typename _BI2>
 546:/usr/include/newlib/c++/9.2.1/bits/stl_algobase.h **** 	static _BI2
 547:/usr/include/newlib/c++/9.2.1/bits/stl_algobase.h **** 	__copy_move_b(_BI1 __first, _BI1 __last, _BI2 __result)
 548:/usr/include/newlib/c++/9.2.1/bits/stl_algobase.h **** 	{
 549:/usr/include/newlib/c++/9.2.1/bits/stl_algobase.h **** 	  typename iterator_traits<_BI1>::difference_type __n;
 550:/usr/include/newlib/c++/9.2.1/bits/stl_algobase.h **** 	  for (__n = __last - __first; __n > 0; --__n)
 551:/usr/include/newlib/c++/9.2.1/bits/stl_algobase.h **** 	    *--__result = *--__last;
 552:/usr/include/newlib/c++/9.2.1/bits/stl_algobase.h **** 	  return __result;
 553:/usr/include/newlib/c++/9.2.1/bits/stl_algobase.h **** 	}
 554:/usr/include/newlib/c++/9.2.1/bits/stl_algobase.h ****     };
 555:/usr/include/newlib/c++/9.2.1/bits/stl_algobase.h **** 
 556:/usr/include/newlib/c++/9.2.1/bits/stl_algobase.h **** #if __cplusplus >= 201103L
 557:/usr/include/newlib/c++/9.2.1/bits/stl_algobase.h ****   template<>
 558:/usr/include/newlib/c++/9.2.1/bits/stl_algobase.h ****     struct __copy_move_backward<true, false, random_access_iterator_tag>
 559:/usr/include/newlib/c++/9.2.1/bits/stl_algobase.h ****     {
 560:/usr/include/newlib/c++/9.2.1/bits/stl_algobase.h ****       template<typename _BI1, typename _BI2>
 561:/usr/include/newlib/c++/9.2.1/bits/stl_algobase.h **** 	static _BI2
 562:/usr/include/newlib/c++/9.2.1/bits/stl_algobase.h **** 	__copy_move_b(_BI1 __first, _BI1 __last, _BI2 __result)
 563:/usr/include/newlib/c++/9.2.1/bits/stl_algobase.h **** 	{
 564:/usr/include/newlib/c++/9.2.1/bits/stl_algobase.h **** 	  typename iterator_traits<_BI1>::difference_type __n;
 565:/usr/include/newlib/c++/9.2.1/bits/stl_algobase.h **** 	  for (__n = __last - __first; __n > 0; --__n)
 566:/usr/include/newlib/c++/9.2.1/bits/stl_algobase.h **** 	    *--__result = std::move(*--__last);
 567:/usr/include/newlib/c++/9.2.1/bits/stl_algobase.h **** 	  return __result;
 568:/usr/include/newlib/c++/9.2.1/bits/stl_algobase.h **** 	}
 569:/usr/include/newlib/c++/9.2.1/bits/stl_algobase.h ****     };
 570:/usr/include/newlib/c++/9.2.1/bits/stl_algobase.h **** #endif
 571:/usr/include/newlib/c++/9.2.1/bits/stl_algobase.h **** 
 572:/usr/include/newlib/c++/9.2.1/bits/stl_algobase.h ****   template<bool _IsMove>
 573:/usr/include/newlib/c++/9.2.1/bits/stl_algobase.h ****     struct __copy_move_backward<_IsMove, true, random_access_iterator_tag>
 574:/usr/include/newlib/c++/9.2.1/bits/stl_algobase.h ****     {
 575:/usr/include/newlib/c++/9.2.1/bits/stl_algobase.h ****       template<typename _Tp>
 576:/usr/include/newlib/c++/9.2.1/bits/stl_algobase.h **** 	static _Tp*
ARM GAS  /tmp/ccoDtert.s 			page 15


 577:/usr/include/newlib/c++/9.2.1/bits/stl_algobase.h **** 	__copy_move_b(const _Tp* __first, const _Tp* __last, _Tp* __result)
 578:/usr/include/newlib/c++/9.2.1/bits/stl_algobase.h **** 	{
 579:/usr/include/newlib/c++/9.2.1/bits/stl_algobase.h **** #if __cplusplus >= 201103L
 580:/usr/include/newlib/c++/9.2.1/bits/stl_algobase.h **** 	  using __assignable = conditional<_IsMove,
 581:/usr/include/newlib/c++/9.2.1/bits/stl_algobase.h **** 					   is_move_assignable<_Tp>,
 582:/usr/include/newlib/c++/9.2.1/bits/stl_algobase.h **** 					   is_copy_assignable<_Tp>>;
 583:/usr/include/newlib/c++/9.2.1/bits/stl_algobase.h **** 	  // trivial types can have deleted assignment
 584:/usr/include/newlib/c++/9.2.1/bits/stl_algobase.h **** 	  static_assert( __assignable::type::value, "type is not assignable" );
 585:/usr/include/newlib/c++/9.2.1/bits/stl_algobase.h **** #endif
 586:/usr/include/newlib/c++/9.2.1/bits/stl_algobase.h **** 	  const ptrdiff_t _Num = __last - __first;
 587:/usr/include/newlib/c++/9.2.1/bits/stl_algobase.h **** 	  if (_Num)
 588:/usr/include/newlib/c++/9.2.1/bits/stl_algobase.h **** 	    __builtin_memmove(__result - _Num, __first, sizeof(_Tp) * _Num);
 589:/usr/include/newlib/c++/9.2.1/bits/stl_algobase.h **** 	  return __result - _Num;
 590:/usr/include/newlib/c++/9.2.1/bits/stl_algobase.h **** 	}
 591:/usr/include/newlib/c++/9.2.1/bits/stl_algobase.h ****     };
 592:/usr/include/newlib/c++/9.2.1/bits/stl_algobase.h **** 
 593:/usr/include/newlib/c++/9.2.1/bits/stl_algobase.h ****   template<bool _IsMove, typename _BI1, typename _BI2>
 594:/usr/include/newlib/c++/9.2.1/bits/stl_algobase.h ****     inline _BI2
 595:/usr/include/newlib/c++/9.2.1/bits/stl_algobase.h ****     __copy_move_backward_a(_BI1 __first, _BI1 __last, _BI2 __result)
 596:/usr/include/newlib/c++/9.2.1/bits/stl_algobase.h ****     {
 597:/usr/include/newlib/c++/9.2.1/bits/stl_algobase.h ****       typedef typename iterator_traits<_BI1>::value_type _ValueType1;
 598:/usr/include/newlib/c++/9.2.1/bits/stl_algobase.h ****       typedef typename iterator_traits<_BI2>::value_type _ValueType2;
 599:/usr/include/newlib/c++/9.2.1/bits/stl_algobase.h ****       typedef typename iterator_traits<_BI1>::iterator_category _Category;
 600:/usr/include/newlib/c++/9.2.1/bits/stl_algobase.h ****       const bool __simple = (__is_trivially_copyable(_ValueType1)
 601:/usr/include/newlib/c++/9.2.1/bits/stl_algobase.h **** 			     && __is_pointer<_BI1>::__value
 602:/usr/include/newlib/c++/9.2.1/bits/stl_algobase.h **** 			     && __is_pointer<_BI2>::__value
 603:/usr/include/newlib/c++/9.2.1/bits/stl_algobase.h **** 			     && __are_same<_ValueType1, _ValueType2>::__value);
 604:/usr/include/newlib/c++/9.2.1/bits/stl_algobase.h **** 
 605:/usr/include/newlib/c++/9.2.1/bits/stl_algobase.h ****       return std::__copy_move_backward<_IsMove, __simple,
 606:/usr/include/newlib/c++/9.2.1/bits/stl_algobase.h **** 				       _Category>::__copy_move_b(__first,
 607:/usr/include/newlib/c++/9.2.1/bits/stl_algobase.h **** 								 __last,
 608:/usr/include/newlib/c++/9.2.1/bits/stl_algobase.h **** 								 __result);
 609:/usr/include/newlib/c++/9.2.1/bits/stl_algobase.h ****     }
 610:/usr/include/newlib/c++/9.2.1/bits/stl_algobase.h **** 
 611:/usr/include/newlib/c++/9.2.1/bits/stl_algobase.h ****   template<bool _IsMove, typename _BI1, typename _BI2>
 612:/usr/include/newlib/c++/9.2.1/bits/stl_algobase.h ****     inline _BI2
 613:/usr/include/newlib/c++/9.2.1/bits/stl_algobase.h ****     __copy_move_backward_a2(_BI1 __first, _BI1 __last, _BI2 __result)
 614:/usr/include/newlib/c++/9.2.1/bits/stl_algobase.h ****     {
 615:/usr/include/newlib/c++/9.2.1/bits/stl_algobase.h ****       return std::__niter_wrap(__result,
 616:/usr/include/newlib/c++/9.2.1/bits/stl_algobase.h **** 		std::__copy_move_backward_a<_IsMove>
 617:/usr/include/newlib/c++/9.2.1/bits/stl_algobase.h **** 		  (std::__niter_base(__first), std::__niter_base(__last),
 618:/usr/include/newlib/c++/9.2.1/bits/stl_algobase.h **** 		   std::__niter_base(__result)));
 619:/usr/include/newlib/c++/9.2.1/bits/stl_algobase.h ****     }
 620:/usr/include/newlib/c++/9.2.1/bits/stl_algobase.h **** 
 621:/usr/include/newlib/c++/9.2.1/bits/stl_algobase.h ****   /**
 622:/usr/include/newlib/c++/9.2.1/bits/stl_algobase.h ****    *  @brief Copies the range [first,last) into result.
 623:/usr/include/newlib/c++/9.2.1/bits/stl_algobase.h ****    *  @ingroup mutating_algorithms
 624:/usr/include/newlib/c++/9.2.1/bits/stl_algobase.h ****    *  @param  __first  A bidirectional iterator.
 625:/usr/include/newlib/c++/9.2.1/bits/stl_algobase.h ****    *  @param  __last   A bidirectional iterator.
 626:/usr/include/newlib/c++/9.2.1/bits/stl_algobase.h ****    *  @param  __result A bidirectional iterator.
 627:/usr/include/newlib/c++/9.2.1/bits/stl_algobase.h ****    *  @return   result - (first - last)
 628:/usr/include/newlib/c++/9.2.1/bits/stl_algobase.h ****    *
 629:/usr/include/newlib/c++/9.2.1/bits/stl_algobase.h ****    *  The function has the same effect as copy, but starts at the end of the
 630:/usr/include/newlib/c++/9.2.1/bits/stl_algobase.h ****    *  range and works its way to the start, returning the start of the result.
 631:/usr/include/newlib/c++/9.2.1/bits/stl_algobase.h ****    *  This inline function will boil down to a call to @c memmove whenever
 632:/usr/include/newlib/c++/9.2.1/bits/stl_algobase.h ****    *  possible.  Failing that, if random access iterators are passed, then the
 633:/usr/include/newlib/c++/9.2.1/bits/stl_algobase.h ****    *  loop count will be known (and therefore a candidate for compiler
ARM GAS  /tmp/ccoDtert.s 			page 16


 634:/usr/include/newlib/c++/9.2.1/bits/stl_algobase.h ****    *  optimizations such as unrolling).
 635:/usr/include/newlib/c++/9.2.1/bits/stl_algobase.h ****    *
 636:/usr/include/newlib/c++/9.2.1/bits/stl_algobase.h ****    *  Result may not be in the range (first,last].  Use copy instead.  Note
 637:/usr/include/newlib/c++/9.2.1/bits/stl_algobase.h ****    *  that the start of the output range may overlap [first,last).
 638:/usr/include/newlib/c++/9.2.1/bits/stl_algobase.h ****   */
 639:/usr/include/newlib/c++/9.2.1/bits/stl_algobase.h ****   template<typename _BI1, typename _BI2>
 640:/usr/include/newlib/c++/9.2.1/bits/stl_algobase.h ****     inline _BI2
 641:/usr/include/newlib/c++/9.2.1/bits/stl_algobase.h ****     copy_backward(_BI1 __first, _BI1 __last, _BI2 __result)
 642:/usr/include/newlib/c++/9.2.1/bits/stl_algobase.h ****     {
 643:/usr/include/newlib/c++/9.2.1/bits/stl_algobase.h ****       // concept requirements
 644:/usr/include/newlib/c++/9.2.1/bits/stl_algobase.h ****       __glibcxx_function_requires(_BidirectionalIteratorConcept<_BI1>)
 645:/usr/include/newlib/c++/9.2.1/bits/stl_algobase.h ****       __glibcxx_function_requires(_Mutable_BidirectionalIteratorConcept<_BI2>)
 646:/usr/include/newlib/c++/9.2.1/bits/stl_algobase.h ****       __glibcxx_function_requires(_ConvertibleConcept<
 647:/usr/include/newlib/c++/9.2.1/bits/stl_algobase.h **** 	    typename iterator_traits<_BI1>::value_type,
 648:/usr/include/newlib/c++/9.2.1/bits/stl_algobase.h **** 	    typename iterator_traits<_BI2>::value_type>)
 649:/usr/include/newlib/c++/9.2.1/bits/stl_algobase.h ****       __glibcxx_requires_can_decrement_range(__first, __last, __result);
 650:/usr/include/newlib/c++/9.2.1/bits/stl_algobase.h **** 
 651:/usr/include/newlib/c++/9.2.1/bits/stl_algobase.h ****       return std::__copy_move_backward_a2<__is_move_iterator<_BI1>::__value>
 652:/usr/include/newlib/c++/9.2.1/bits/stl_algobase.h **** 	     (std::__miter_base(__first), std::__miter_base(__last), __result);
 653:/usr/include/newlib/c++/9.2.1/bits/stl_algobase.h ****     }
 654:/usr/include/newlib/c++/9.2.1/bits/stl_algobase.h **** 
 655:/usr/include/newlib/c++/9.2.1/bits/stl_algobase.h **** #if __cplusplus >= 201103L
 656:/usr/include/newlib/c++/9.2.1/bits/stl_algobase.h ****   /**
 657:/usr/include/newlib/c++/9.2.1/bits/stl_algobase.h ****    *  @brief Moves the range [first,last) into result.
 658:/usr/include/newlib/c++/9.2.1/bits/stl_algobase.h ****    *  @ingroup mutating_algorithms
 659:/usr/include/newlib/c++/9.2.1/bits/stl_algobase.h ****    *  @param  __first  A bidirectional iterator.
 660:/usr/include/newlib/c++/9.2.1/bits/stl_algobase.h ****    *  @param  __last   A bidirectional iterator.
 661:/usr/include/newlib/c++/9.2.1/bits/stl_algobase.h ****    *  @param  __result A bidirectional iterator.
 662:/usr/include/newlib/c++/9.2.1/bits/stl_algobase.h ****    *  @return   result - (first - last)
 663:/usr/include/newlib/c++/9.2.1/bits/stl_algobase.h ****    *
 664:/usr/include/newlib/c++/9.2.1/bits/stl_algobase.h ****    *  The function has the same effect as move, but starts at the end of the
 665:/usr/include/newlib/c++/9.2.1/bits/stl_algobase.h ****    *  range and works its way to the start, returning the start of the result.
 666:/usr/include/newlib/c++/9.2.1/bits/stl_algobase.h ****    *  This inline function will boil down to a call to @c memmove whenever
 667:/usr/include/newlib/c++/9.2.1/bits/stl_algobase.h ****    *  possible.  Failing that, if random access iterators are passed, then the
 668:/usr/include/newlib/c++/9.2.1/bits/stl_algobase.h ****    *  loop count will be known (and therefore a candidate for compiler
 669:/usr/include/newlib/c++/9.2.1/bits/stl_algobase.h ****    *  optimizations such as unrolling).
 670:/usr/include/newlib/c++/9.2.1/bits/stl_algobase.h ****    *
 671:/usr/include/newlib/c++/9.2.1/bits/stl_algobase.h ****    *  Result may not be in the range (first,last].  Use move instead.  Note
 672:/usr/include/newlib/c++/9.2.1/bits/stl_algobase.h ****    *  that the start of the output range may overlap [first,last).
 673:/usr/include/newlib/c++/9.2.1/bits/stl_algobase.h ****   */
 674:/usr/include/newlib/c++/9.2.1/bits/stl_algobase.h ****   template<typename _BI1, typename _BI2>
 675:/usr/include/newlib/c++/9.2.1/bits/stl_algobase.h ****     inline _BI2
 676:/usr/include/newlib/c++/9.2.1/bits/stl_algobase.h ****     move_backward(_BI1 __first, _BI1 __last, _BI2 __result)
 677:/usr/include/newlib/c++/9.2.1/bits/stl_algobase.h ****     {
 678:/usr/include/newlib/c++/9.2.1/bits/stl_algobase.h ****       // concept requirements
 679:/usr/include/newlib/c++/9.2.1/bits/stl_algobase.h ****       __glibcxx_function_requires(_BidirectionalIteratorConcept<_BI1>)
 680:/usr/include/newlib/c++/9.2.1/bits/stl_algobase.h ****       __glibcxx_function_requires(_Mutable_BidirectionalIteratorConcept<_BI2>)
 681:/usr/include/newlib/c++/9.2.1/bits/stl_algobase.h ****       __glibcxx_function_requires(_ConvertibleConcept<
 682:/usr/include/newlib/c++/9.2.1/bits/stl_algobase.h **** 	    typename iterator_traits<_BI1>::value_type,
 683:/usr/include/newlib/c++/9.2.1/bits/stl_algobase.h **** 	    typename iterator_traits<_BI2>::value_type>)
 684:/usr/include/newlib/c++/9.2.1/bits/stl_algobase.h ****       __glibcxx_requires_can_decrement_range(__first, __last, __result);
 685:/usr/include/newlib/c++/9.2.1/bits/stl_algobase.h **** 
 686:/usr/include/newlib/c++/9.2.1/bits/stl_algobase.h ****       return std::__copy_move_backward_a2<true>(std::__miter_base(__first),
 687:/usr/include/newlib/c++/9.2.1/bits/stl_algobase.h **** 						std::__miter_base(__last),
 688:/usr/include/newlib/c++/9.2.1/bits/stl_algobase.h **** 						__result);
 689:/usr/include/newlib/c++/9.2.1/bits/stl_algobase.h ****     }
 690:/usr/include/newlib/c++/9.2.1/bits/stl_algobase.h **** 
ARM GAS  /tmp/ccoDtert.s 			page 17


 691:/usr/include/newlib/c++/9.2.1/bits/stl_algobase.h **** #define _GLIBCXX_MOVE_BACKWARD3(_Tp, _Up, _Vp) std::move_backward(_Tp, _Up, _Vp)
 692:/usr/include/newlib/c++/9.2.1/bits/stl_algobase.h **** #else
 693:/usr/include/newlib/c++/9.2.1/bits/stl_algobase.h **** #define _GLIBCXX_MOVE_BACKWARD3(_Tp, _Up, _Vp) std::copy_backward(_Tp, _Up, _Vp)
 694:/usr/include/newlib/c++/9.2.1/bits/stl_algobase.h **** #endif
 695:/usr/include/newlib/c++/9.2.1/bits/stl_algobase.h **** 
 696:/usr/include/newlib/c++/9.2.1/bits/stl_algobase.h ****   template<typename _ForwardIterator, typename _Tp>
 697:/usr/include/newlib/c++/9.2.1/bits/stl_algobase.h ****     inline typename
 698:/usr/include/newlib/c++/9.2.1/bits/stl_algobase.h ****     __gnu_cxx::__enable_if<!__is_scalar<_Tp>::__value, void>::__type
 699:/usr/include/newlib/c++/9.2.1/bits/stl_algobase.h ****     __fill_a(_ForwardIterator __first, _ForwardIterator __last,
 700:/usr/include/newlib/c++/9.2.1/bits/stl_algobase.h ****  	     const _Tp& __value)
 701:/usr/include/newlib/c++/9.2.1/bits/stl_algobase.h ****     {
 702:/usr/include/newlib/c++/9.2.1/bits/stl_algobase.h ****       for (; __first != __last; ++__first)
 703:/usr/include/newlib/c++/9.2.1/bits/stl_algobase.h **** 	*__first = __value;
 704:/usr/include/newlib/c++/9.2.1/bits/stl_algobase.h ****     }
 705:/usr/include/newlib/c++/9.2.1/bits/stl_algobase.h **** 
 706:/usr/include/newlib/c++/9.2.1/bits/stl_algobase.h ****   template<typename _ForwardIterator, typename _Tp>
 707:/usr/include/newlib/c++/9.2.1/bits/stl_algobase.h ****     inline typename
 708:/usr/include/newlib/c++/9.2.1/bits/stl_algobase.h ****     __gnu_cxx::__enable_if<__is_scalar<_Tp>::__value, void>::__type
 709:/usr/include/newlib/c++/9.2.1/bits/stl_algobase.h ****     __fill_a(_ForwardIterator __first, _ForwardIterator __last,
 710:/usr/include/newlib/c++/9.2.1/bits/stl_algobase.h **** 	     const _Tp& __value)
 711:/usr/include/newlib/c++/9.2.1/bits/stl_algobase.h ****     {
 712:/usr/include/newlib/c++/9.2.1/bits/stl_algobase.h ****       const _Tp __tmp = __value;
 713:/usr/include/newlib/c++/9.2.1/bits/stl_algobase.h ****       for (; __first != __last; ++__first)
 714:/usr/include/newlib/c++/9.2.1/bits/stl_algobase.h **** 	*__first = __tmp;
 715:/usr/include/newlib/c++/9.2.1/bits/stl_algobase.h ****     }
 716:/usr/include/newlib/c++/9.2.1/bits/stl_algobase.h **** 
 717:/usr/include/newlib/c++/9.2.1/bits/stl_algobase.h ****   // Specialization: for char types we can use memset.
 718:/usr/include/newlib/c++/9.2.1/bits/stl_algobase.h ****   template<typename _Tp>
 719:/usr/include/newlib/c++/9.2.1/bits/stl_algobase.h ****     inline typename
 720:/usr/include/newlib/c++/9.2.1/bits/stl_algobase.h ****     __gnu_cxx::__enable_if<__is_byte<_Tp>::__value, void>::__type
 721:/usr/include/newlib/c++/9.2.1/bits/stl_algobase.h ****     __fill_a(_Tp* __first, _Tp* __last, const _Tp& __c)
 722:/usr/include/newlib/c++/9.2.1/bits/stl_algobase.h ****     {
 723:/usr/include/newlib/c++/9.2.1/bits/stl_algobase.h ****       const _Tp __tmp = __c;
 724:/usr/include/newlib/c++/9.2.1/bits/stl_algobase.h ****       if (const size_t __len = __last - __first)
 725:/usr/include/newlib/c++/9.2.1/bits/stl_algobase.h **** 	__builtin_memset(__first, static_cast<unsigned char>(__tmp), __len);
 726:/usr/include/newlib/c++/9.2.1/bits/stl_algobase.h ****     }
 727:/usr/include/newlib/c++/9.2.1/bits/stl_algobase.h **** 
 728:/usr/include/newlib/c++/9.2.1/bits/stl_algobase.h ****   /**
 729:/usr/include/newlib/c++/9.2.1/bits/stl_algobase.h ****    *  @brief Fills the range [first,last) with copies of value.
 730:/usr/include/newlib/c++/9.2.1/bits/stl_algobase.h ****    *  @ingroup mutating_algorithms
 731:/usr/include/newlib/c++/9.2.1/bits/stl_algobase.h ****    *  @param  __first  A forward iterator.
 732:/usr/include/newlib/c++/9.2.1/bits/stl_algobase.h ****    *  @param  __last   A forward iterator.
 733:/usr/include/newlib/c++/9.2.1/bits/stl_algobase.h ****    *  @param  __value  A reference-to-const of arbitrary type.
 734:/usr/include/newlib/c++/9.2.1/bits/stl_algobase.h ****    *  @return   Nothing.
 735:/usr/include/newlib/c++/9.2.1/bits/stl_algobase.h ****    *
 736:/usr/include/newlib/c++/9.2.1/bits/stl_algobase.h ****    *  This function fills a range with copies of the same value.  For char
 737:/usr/include/newlib/c++/9.2.1/bits/stl_algobase.h ****    *  types filling contiguous areas of memory, this becomes an inline call
 738:/usr/include/newlib/c++/9.2.1/bits/stl_algobase.h ****    *  to @c memset or @c wmemset.
 739:/usr/include/newlib/c++/9.2.1/bits/stl_algobase.h ****   */
 740:/usr/include/newlib/c++/9.2.1/bits/stl_algobase.h ****   template<typename _ForwardIterator, typename _Tp>
 741:/usr/include/newlib/c++/9.2.1/bits/stl_algobase.h ****     inline void
 742:/usr/include/newlib/c++/9.2.1/bits/stl_algobase.h ****     fill(_ForwardIterator __first, _ForwardIterator __last, const _Tp& __value)
 137              		.loc 2 742 5 is_stmt 1 view .LVU40
 138              	.LBB179:
 139              	.LBI179:
 709:/usr/include/newlib/c++/9.2.1/bits/stl_algobase.h **** 	     const _Tp& __value)
 140              		.loc 2 709 5 view .LVU41
ARM GAS  /tmp/ccoDtert.s 			page 18


 141              	.LBB180:
 713:/usr/include/newlib/c++/9.2.1/bits/stl_algobase.h **** 	*__first = __tmp;
 142              		.loc 2 713 22 view .LVU42
 143 0054 8B42     		cmp	r3, r1
 144 0056 04D0     		beq	.L5
 145              	.LVL9:
 146              	.L6:
 714:/usr/include/newlib/c++/9.2.1/bits/stl_algobase.h ****     }
 147              		.loc 2 714 2 is_stmt 0 view .LVU43
 148 0058 0022     		movs	r2, #0
 149 005a 43F8042B 		str	r2, [r3], #4	@ float
 150              	.LVL10:
 713:/usr/include/newlib/c++/9.2.1/bits/stl_algobase.h **** 	*__first = __tmp;
 151              		.loc 2 713 7 is_stmt 1 view .LVU44
 713:/usr/include/newlib/c++/9.2.1/bits/stl_algobase.h **** 	*__first = __tmp;
 152              		.loc 2 713 22 view .LVU45
 153 005e 9942     		cmp	r1, r3
 154 0060 FAD1     		bne	.L6
 155              	.L5:
 156              	.LVL11:
 713:/usr/include/newlib/c++/9.2.1/bits/stl_algobase.h **** 	*__first = __tmp;
 157              		.loc 2 713 22 is_stmt 0 view .LVU46
 158              	.LBE180:
 159              	.LBE179:
 160              	.LBE178:
  67:dsp/pvoc/frame_transformation.cpp ****     {
 161              		.loc 1 67 5 is_stmt 1 view .LVU47
  67:dsp/pvoc/frame_transformation.cpp ****     {
 162              		.loc 1 67 26 view .LVU48
 163 0062 8442     		cmp	r4, r0
 164 0064 F3D1     		bne	.L7
 165              	.L1:
  67:dsp/pvoc/frame_transformation.cpp ****     {
 166              		.loc 1 67 26 is_stmt 0 view .LVU49
 167              	.LBE181:
 168              	.LBE183:
  63:dsp/pvoc/frame_transformation.cpp **** 
 169              		.loc 1 63 1 view .LVU50
 170 0066 70BC     		pop	{r4, r5, r6}
 171              		.cfi_restore 6
 172              		.cfi_restore 5
 173              		.cfi_restore 4
 174              		.cfi_def_cfa_offset 0
 175 0068 7047     		bx	lr
 176              		.cfi_endproc
 177              	.LFE4227:
 179 006a 00BF     		.section	.text._ZN19FrameTransformation5ResetEv,"ax",%progbits
 180              		.align	1
 181              		.p2align 2,,3
 182              		.global	_ZN19FrameTransformation5ResetEv
 183              		.syntax unified
 184              		.thumb
 185              		.thumb_func
 186              		.fpu fpv5-d16
 188              	_ZN19FrameTransformation5ResetEv:
 189              	.LVL12:
 190              	.LFB4228:
ARM GAS  /tmp/ccoDtert.s 			page 19


  66:dsp/pvoc/frame_transformation.cpp ****     for(int32_t i = 0; i < num_textures_; ++i)
 191              		.loc 1 66 1 is_stmt 1 view -0
 192              		.cfi_startproc
 193              		@ args = 0, pretend = 0, frame = 0
 194              		@ frame_needed = 0, uses_anonymous_args = 0
 195              		@ link register save eliminated.
  67:dsp/pvoc/frame_transformation.cpp ****     {
 196              		.loc 1 67 5 view .LVU52
 197              	.LBB184:
  67:dsp/pvoc/frame_transformation.cpp ****     {
 198              		.loc 1 67 26 view .LVU53
 199              	.LBE184:
  66:dsp/pvoc/frame_transformation.cpp ****     for(int32_t i = 0; i < num_textures_; ++i)
 200              		.loc 1 66 1 is_stmt 0 view .LVU54
 201 0000 30B4     		push	{r4, r5}
 202              		.cfi_def_cfa_offset 8
 203              		.cfi_offset 4, -8
 204              		.cfi_offset 5, -4
 205              	.LBB188:
  67:dsp/pvoc/frame_transformation.cpp ****     {
 206              		.loc 1 67 28 view .LVU55
 207 0002 4468     		ldr	r4, [r0, #4]
  67:dsp/pvoc/frame_transformation.cpp ****     {
 208              		.loc 1 67 26 view .LVU56
 209 0004 002C     		cmp	r4, #0
 210 0006 10DD     		ble	.L13
 211              		.loc 1 69 51 view .LVU57
 212 0008 8568     		ldr	r5, [r0, #8]
 213 000a 0C30     		adds	r0, r0, #12
 214              	.LVL13:
 215              		.loc 1 69 51 view .LVU58
 216 000c AD00     		lsls	r5, r5, #2
 217 000e 00EB8404 		add	r4, r0, r4, lsl #2
 218              	.LVL14:
 219              	.L17:
 220              		.loc 1 69 9 is_stmt 1 discriminator 2 view .LVU59
 221              		.loc 1 69 26 is_stmt 0 discriminator 2 view .LVU60
 222 0012 50F8043B 		ldr	r3, [r0], #4
 223              		.loc 1 69 13 discriminator 2 view .LVU61
 224 0016 5919     		adds	r1, r3, r5
 225              	.LVL15:
 226              	.LBB185:
 227              	.LBI185:
 228              		.loc 2 742 5 is_stmt 1 discriminator 2 view .LVU62
 229              	.LBB186:
 230              	.LBI186:
 709:/usr/include/newlib/c++/9.2.1/bits/stl_algobase.h **** 	     const _Tp& __value)
 231              		.loc 2 709 5 discriminator 2 view .LVU63
 232              	.LBB187:
 713:/usr/include/newlib/c++/9.2.1/bits/stl_algobase.h **** 	*__first = __tmp;
 233              		.loc 2 713 22 discriminator 2 view .LVU64
 234 0018 8B42     		cmp	r3, r1
 235 001a 04D0     		beq	.L15
 236              	.LVL16:
 237              	.L16:
 714:/usr/include/newlib/c++/9.2.1/bits/stl_algobase.h ****     }
 238              		.loc 2 714 2 is_stmt 0 view .LVU65
ARM GAS  /tmp/ccoDtert.s 			page 20


 239 001c 0022     		movs	r2, #0
 240 001e 43F8042B 		str	r2, [r3], #4	@ float
 241              	.LVL17:
 713:/usr/include/newlib/c++/9.2.1/bits/stl_algobase.h **** 	*__first = __tmp;
 242              		.loc 2 713 7 is_stmt 1 view .LVU66
 713:/usr/include/newlib/c++/9.2.1/bits/stl_algobase.h **** 	*__first = __tmp;
 243              		.loc 2 713 22 view .LVU67
 244 0022 9942     		cmp	r1, r3
 245 0024 FAD1     		bne	.L16
 246              	.L15:
 247              	.LVL18:
 713:/usr/include/newlib/c++/9.2.1/bits/stl_algobase.h **** 	*__first = __tmp;
 248              		.loc 2 713 22 is_stmt 0 view .LVU68
 249              	.LBE187:
 250              	.LBE186:
 251              	.LBE185:
  67:dsp/pvoc/frame_transformation.cpp ****     {
 252              		.loc 1 67 5 is_stmt 1 view .LVU69
  67:dsp/pvoc/frame_transformation.cpp ****     {
 253              		.loc 1 67 26 view .LVU70
 254 0026 A042     		cmp	r0, r4
 255 0028 F3D1     		bne	.L17
 256              	.LVL19:
 257              	.L13:
  67:dsp/pvoc/frame_transformation.cpp ****     {
 258              		.loc 1 67 26 is_stmt 0 view .LVU71
 259              	.LBE188:
  70:dsp/pvoc/frame_transformation.cpp ****     }
  71:dsp/pvoc/frame_transformation.cpp **** }
 260              		.loc 1 71 1 view .LVU72
 261 002a 30BC     		pop	{r4, r5}
 262              		.cfi_restore 5
 263              		.cfi_restore 4
 264              		.cfi_def_cfa_offset 0
 265 002c 7047     		bx	lr
 266              		.cfi_endproc
 267              	.LFE4228:
 269 002e 00BF     		.section	.text._ZN19FrameTransformation18RectangularToPolarEPf,"ax",%progbits
 270              		.align	1
 271              		.p2align 2,,3
 272              		.global	_ZN19FrameTransformation18RectangularToPolarEPf
 273              		.syntax unified
 274              		.thumb
 275              		.thumb_func
 276              		.fpu fpv5-d16
 278              	_ZN19FrameTransformation18RectangularToPolarEPf:
 279              	.LVL20:
 280              	.LFB4230:
  72:dsp/pvoc/frame_transformation.cpp **** 
  73:dsp/pvoc/frame_transformation.cpp **** void FrameTransformation::Process(const Parameters& parameters,
  74:dsp/pvoc/frame_transformation.cpp ****                                   float*            fft_out,
  75:dsp/pvoc/frame_transformation.cpp ****                                   float*            ifft_in)
  76:dsp/pvoc/frame_transformation.cpp **** {
  77:dsp/pvoc/frame_transformation.cpp ****     fft_out[0]              = 0.0f;
  78:dsp/pvoc/frame_transformation.cpp ****     fft_out[fft_size_ >> 1] = 0.0f;
  79:dsp/pvoc/frame_transformation.cpp **** 
  80:dsp/pvoc/frame_transformation.cpp ****     bool  freeze      = parameters.freeze;
ARM GAS  /tmp/ccoDtert.s 			page 21


  81:dsp/pvoc/frame_transformation.cpp ****     bool  glitch      = parameters.gate;
  82:dsp/pvoc/frame_transformation.cpp ****     float pitch_ratio = SemitonesToRatio(parameters.pitch);
  83:dsp/pvoc/frame_transformation.cpp **** 
  84:dsp/pvoc/frame_transformation.cpp ****     if(!freeze)
  85:dsp/pvoc/frame_transformation.cpp ****     {
  86:dsp/pvoc/frame_transformation.cpp ****         RectangularToPolar(fft_out);
  87:dsp/pvoc/frame_transformation.cpp ****         StoreMagnitudes(
  88:dsp/pvoc/frame_transformation.cpp ****             fft_out, parameters.position, parameters.spectral.refresh_rate);
  89:dsp/pvoc/frame_transformation.cpp ****     }
  90:dsp/pvoc/frame_transformation.cpp ****     float* temp = &fft_out[0];
  91:dsp/pvoc/frame_transformation.cpp ****     ReplayMagnitudes(ifft_in, parameters.position);
  92:dsp/pvoc/frame_transformation.cpp ****     WarpMagnitudes(ifft_in, temp, parameters.spectral.warp);
  93:dsp/pvoc/frame_transformation.cpp ****     ShiftMagnitudes(temp, ifft_in, pitch_ratio);
  94:dsp/pvoc/frame_transformation.cpp ****     if(glitch)
  95:dsp/pvoc/frame_transformation.cpp ****     {
  96:dsp/pvoc/frame_transformation.cpp ****         AddGlitch(ifft_in);
  97:dsp/pvoc/frame_transformation.cpp ****     }
  98:dsp/pvoc/frame_transformation.cpp ****     QuantizeMagnitudes(ifft_in, parameters.spectral.quantization);
  99:dsp/pvoc/frame_transformation.cpp ****     SetPhases(ifft_in, parameters.spectral.phase_randomization, pitch_ratio);
 100:dsp/pvoc/frame_transformation.cpp ****     PolarToRectangular(ifft_in);
 101:dsp/pvoc/frame_transformation.cpp **** 
 102:dsp/pvoc/frame_transformation.cpp ****     if(!glitch)
 103:dsp/pvoc/frame_transformation.cpp ****     {
 104:dsp/pvoc/frame_transformation.cpp ****         // Decide on which glitch algorithm will be used next time... if glitch
 105:dsp/pvoc/frame_transformation.cpp ****         // is enabled on the next frame!
 106:dsp/pvoc/frame_transformation.cpp ****         glitch_algorithm_ = static_cast<int16_t>(rand() >> 16) & 3;
 107:dsp/pvoc/frame_transformation.cpp ****     }
 108:dsp/pvoc/frame_transformation.cpp **** 
 109:dsp/pvoc/frame_transformation.cpp ****     ifft_in[0]              = 0.0f;
 110:dsp/pvoc/frame_transformation.cpp ****     ifft_in[fft_size_ >> 1] = 0.0f;
 111:dsp/pvoc/frame_transformation.cpp **** }
 112:dsp/pvoc/frame_transformation.cpp **** 
 113:dsp/pvoc/frame_transformation.cpp **** void FrameTransformation::RectangularToPolar(float* fft_data)
 114:dsp/pvoc/frame_transformation.cpp **** {
 281              		.loc 1 114 1 is_stmt 1 view -0
 282              		.cfi_startproc
 283              		@ args = 0, pretend = 0, frame = 0
 284              		@ frame_needed = 0, uses_anonymous_args = 0
 115:dsp/pvoc/frame_transformation.cpp ****     float* real      = &fft_data[0];
 285              		.loc 1 115 5 view .LVU74
 116:dsp/pvoc/frame_transformation.cpp ****     float* imag      = &fft_data[fft_size_ >> 1];
 286              		.loc 1 116 5 view .LVU75
 114:dsp/pvoc/frame_transformation.cpp ****     float* real      = &fft_data[0];
 287              		.loc 1 114 1 is_stmt 0 view .LVU76
 288 0000 2DE9F041 		push	{r4, r5, r6, r7, r8, lr}
 289              		.cfi_def_cfa_offset 24
 290              		.cfi_offset 4, -24
 291              		.cfi_offset 5, -20
 292              		.cfi_offset 6, -16
 293              		.cfi_offset 7, -12
 294              		.cfi_offset 8, -8
 295              		.cfi_offset 14, -4
 296              	.LBB207:
 117:dsp/pvoc/frame_transformation.cpp ****     float* magnitude = &fft_data[0];
 118:dsp/pvoc/frame_transformation.cpp ****     for(int32_t i = 1; i < size_; ++i)
 297              		.loc 1 118 28 view .LVU77
 298 0004 8668     		ldr	r6, [r0, #8]
ARM GAS  /tmp/ccoDtert.s 			page 22


 299              	.LBE207:
 116:dsp/pvoc/frame_transformation.cpp ****     float* magnitude = &fft_data[0];
 300              		.loc 1 116 44 view .LVU78
 301 0006 0368     		ldr	r3, [r0]
 302              	.LVL21:
 117:dsp/pvoc/frame_transformation.cpp ****     float* magnitude = &fft_data[0];
 303              		.loc 1 117 5 is_stmt 1 view .LVU79
 304              		.loc 1 118 5 view .LVU80
 305              	.LBB253:
 306              		.loc 1 118 26 view .LVU81
 307 0008 012E     		cmp	r6, #1
 308 000a 78DD     		ble	.L21
 309 000c 5B10     		asrs	r3, r3, #1
 310              	.LVL22:
 311              		.loc 1 118 26 is_stmt 0 view .LVU82
 312 000e 0D1D     		adds	r5, r1, #4
 313 0010 846A     		ldr	r4, [r0, #40]
 314 0012 1E44     		add	r6, r6, r3
 315 0014 0133     		adds	r3, r3, #1
 316              	.LVL23:
 317              		.loc 1 118 26 view .LVU83
 318 0016 C06A     		ldr	r0, [r0, #44]
 319              	.LVL24:
 320              		.loc 1 118 26 view .LVU84
 321 0018 01EB8606 		add	r6, r1, r6, lsl #2
 322 001c 01EB8301 		add	r1, r1, r3, lsl #2
 323              	.LVL25:
 324              		.loc 1 118 26 view .LVU85
 325 0020 31E0     		b	.L29
 326              	.LVL26:
 327              	.L23:
 328              	.LBB208:
 329              	.LBB209:
 330              	.LBB210:
 331              		.file 3 "./stmtemp.h"
   1:./stmtemp.h   **** #include "daisy.h"
   2:./stmtemp.h   **** #include "daisysp.h"
   3:./stmtemp.h   **** #include "resources.h"
   4:./stmtemp.h   **** 
   5:./stmtemp.h   **** using namespace daisy;
   6:./stmtemp.h   **** using namespace daisysp;
   7:./stmtemp.h   **** 
   8:./stmtemp.h   **** #define MAKE_INTEGRAL_FRACTIONAL(x)                   \
   9:./stmtemp.h   ****     int32_t x##_integral   = static_cast<int32_t>(x); \
  10:./stmtemp.h   ****     float   x##_fractional = x - static_cast<float>(x##_integral);
  11:./stmtemp.h   **** 
  12:./stmtemp.h   **** #define SLOPE(out, in, positive, negative)                \
  13:./stmtemp.h   ****     {                                                     \
  14:./stmtemp.h   ****         float error = (in)-out;                           \
  15:./stmtemp.h   ****         out += (error > 0 ? positive : negative) * error; \
  16:./stmtemp.h   ****     }
  17:./stmtemp.h   **** 
  18:./stmtemp.h   **** #define ONE_POLE(out, in, coefficient) out += (coefficient) * ((in)-out);
  19:./stmtemp.h   **** 
  20:./stmtemp.h   **** #define CONSTRAIN(var, min, max) \
  21:./stmtemp.h   ****     if(var < (min))              \
  22:./stmtemp.h   ****     {                            \
ARM GAS  /tmp/ccoDtert.s 			page 23


  23:./stmtemp.h   ****         var = (min);             \
  24:./stmtemp.h   ****     }                            \
  25:./stmtemp.h   ****     else if(var > (max))         \
  26:./stmtemp.h   ****     {                            \
  27:./stmtemp.h   ****         var = (max);             \
  28:./stmtemp.h   ****     }
  29:./stmtemp.h   **** 
  30:./stmtemp.h   **** #define JOIN(lhs, rhs) JOIN_1(lhs, rhs)
  31:./stmtemp.h   **** #define JOIN_1(lhs, rhs) JOIN_2(lhs, rhs)
  32:./stmtemp.h   **** #define JOIN_2(lhs, rhs) lhs##rhs
  33:./stmtemp.h   **** 
  34:./stmtemp.h   **** #define STATIC_ASSERT(expression, message)                                  \
  35:./stmtemp.h   ****     struct JOIN(__static_assertion_at_line_, __LINE__)                      \
  36:./stmtemp.h   ****     {                                                                       \
  37:./stmtemp.h   ****         impl::StaticAssertion<static_cast<bool>((expression))>              \
  38:./stmtemp.h   ****             JOIN(JOIN(JOIN(STATIC_ASSERTION_FAILED_AT_LINE_, __LINE__), _), \
  39:./stmtemp.h   ****                  message);                                                  \
  40:./stmtemp.h   ****     };
  41:./stmtemp.h   **** 
  42:./stmtemp.h   **** namespace impl
  43:./stmtemp.h   **** {
  44:./stmtemp.h   **** template <bool>
  45:./stmtemp.h   **** struct StaticAssertion;
  46:./stmtemp.h   **** 
  47:./stmtemp.h   **** template <>
  48:./stmtemp.h   **** struct StaticAssertion<true>
  49:./stmtemp.h   **** {
  50:./stmtemp.h   **** }; // StaticAssertion<true>
  51:./stmtemp.h   **** 
  52:./stmtemp.h   **** template <int i>
  53:./stmtemp.h   **** struct StaticAssertionTest
  54:./stmtemp.h   **** {
  55:./stmtemp.h   **** }; // StaticAssertionTest<int>
  56:./stmtemp.h   **** 
  57:./stmtemp.h   **** } // namespace impl
  58:./stmtemp.h   **** 
  59:./stmtemp.h   **** template <uint32_t a, uint32_t b, uint32_t c, uint32_t d>
  60:./stmtemp.h   **** struct FourCC
  61:./stmtemp.h   **** {
  62:./stmtemp.h   ****     static const uint32_t value = (((((d << 8) | c) << 8) | b) << 8) | a;
  63:./stmtemp.h   **** };
  64:./stmtemp.h   **** 
  65:./stmtemp.h   **** class CosineOscillator
  66:./stmtemp.h   **** {
  67:./stmtemp.h   ****   public:
  68:./stmtemp.h   ****     CosineOscillator() {}
  69:./stmtemp.h   ****     ~CosineOscillator() {}
  70:./stmtemp.h   **** 
  71:./stmtemp.h   ****     void Init(float freq)
  72:./stmtemp.h   ****     {
  73:./stmtemp.h   ****         float sample_rate = 48000; //hardcoded for now
  74:./stmtemp.h   ****         phs_inc_          = freq / sample_rate;
  75:./stmtemp.h   ****     }
  76:./stmtemp.h   **** 
  77:./stmtemp.h   ****     float Next()
  78:./stmtemp.h   ****     {
  79:./stmtemp.h   ****         phs_ += phs_inc_;
ARM GAS  /tmp/ccoDtert.s 			page 24


  80:./stmtemp.h   **** 
  81:./stmtemp.h   ****         if(phs_ >= 1.f)
  82:./stmtemp.h   ****         {
  83:./stmtemp.h   ****             phs_ -= 1.f;
  84:./stmtemp.h   ****         }
  85:./stmtemp.h   **** 
  86:./stmtemp.h   ****         value_ = cos(phs_);
  87:./stmtemp.h   **** 
  88:./stmtemp.h   ****         return value_;
  89:./stmtemp.h   ****     }
  90:./stmtemp.h   **** 
  91:./stmtemp.h   ****     float value() { return value_; }
  92:./stmtemp.h   **** 
  93:./stmtemp.h   ****   private:
  94:./stmtemp.h   ****     float value_ = 0.f;
  95:./stmtemp.h   ****     float sample_rate_;
  96:./stmtemp.h   ****     float phs_ = 0.f;
  97:./stmtemp.h   ****     float phs_inc_;
  98:./stmtemp.h   **** };
  99:./stmtemp.h   **** 
 100:./stmtemp.h   **** inline int32_t Clip16(int32_t x)
 101:./stmtemp.h   **** {
 102:./stmtemp.h   ****     if(x < -32768)
 103:./stmtemp.h   ****     {
 104:./stmtemp.h   ****         return -32768;
 105:./stmtemp.h   ****     }
 106:./stmtemp.h   ****     else if(x > 32767)
 107:./stmtemp.h   ****     {
 108:./stmtemp.h   ****         return 32767;
 109:./stmtemp.h   ****     }
 110:./stmtemp.h   ****     else
 111:./stmtemp.h   ****     {
 112:./stmtemp.h   ****         return x;
 113:./stmtemp.h   ****     }
 114:./stmtemp.h   **** }
 115:./stmtemp.h   **** 
 116:./stmtemp.h   **** inline float Interpolate(const float* table, float index, float size)
 117:./stmtemp.h   **** {
 118:./stmtemp.h   ****     index *= size;
 119:./stmtemp.h   ****     MAKE_INTEGRAL_FRACTIONAL(index)
 120:./stmtemp.h   ****     float a = table[index_integral];
 121:./stmtemp.h   ****     float b = table[index_integral + 1];
 122:./stmtemp.h   ****     return a + (b - a) * index_fractional;
 123:./stmtemp.h   **** }
 124:./stmtemp.h   **** 
 125:./stmtemp.h   **** inline float SemitonesToRatio(float semitones)
 126:./stmtemp.h   **** {
 127:./stmtemp.h   ****     float pitch = semitones + 128.0f;
 128:./stmtemp.h   ****     MAKE_INTEGRAL_FRACTIONAL(pitch)
 129:./stmtemp.h   **** 
 130:./stmtemp.h   ****     return lut_pitch_ratio_high[pitch_integral]
 131:./stmtemp.h   ****            * lut_pitch_ratio_low[static_cast<int32_t>(pitch_fractional
 132:./stmtemp.h   ****                                                       * 256.0f)];
 133:./stmtemp.h   **** }
 134:./stmtemp.h   **** 
 135:./stmtemp.h   **** inline float Crossfade(float a, float b, float fade)
 136:./stmtemp.h   **** {
ARM GAS  /tmp/ccoDtert.s 			page 25


 137:./stmtemp.h   ****     return a + (b - a) * fade;
 138:./stmtemp.h   **** }
 139:./stmtemp.h   **** 
 140:./stmtemp.h   **** template <typename To, typename From>
 141:./stmtemp.h   **** struct unsafe_bit_cast_t
 142:./stmtemp.h   **** {
 143:./stmtemp.h   ****     union
 144:./stmtemp.h   ****     {
 145:./stmtemp.h   ****         From from;
 146:./stmtemp.h   ****         To   to;
 147:./stmtemp.h   ****     };
 148:./stmtemp.h   **** };
 149:./stmtemp.h   **** 
 150:./stmtemp.h   **** template <typename To, typename From>
 151:./stmtemp.h   **** To unsafe_bit_cast(From from)
 152:./stmtemp.h   **** {
 153:./stmtemp.h   ****     unsafe_bit_cast_t<To, From> u;
 154:./stmtemp.h   ****     u.from = from;
 155:./stmtemp.h   ****     return u.to;
 156:./stmtemp.h   **** }
 157:./stmtemp.h   **** 
 158:./stmtemp.h   **** static inline float fast_rsqrt_carmack(float x)
 159:./stmtemp.h   **** {
 160:./stmtemp.h   ****     uint32_t    i;
 161:./stmtemp.h   ****     float       x2, y;
 162:./stmtemp.h   ****     const float threehalfs = 1.5f;
 163:./stmtemp.h   ****     y                      = x;
 164:./stmtemp.h   ****     i                      = unsafe_bit_cast<uint32_t, float>(y);
 165:./stmtemp.h   ****     i                      = 0x5f3759df - (i >> 1);
 166:./stmtemp.h   ****     y                      = unsafe_bit_cast<float, uint32_t>(i);
 167:./stmtemp.h   ****     x2                     = x * 0.5f;
 168:./stmtemp.h   ****     y                      = y * (threehalfs - (x2 * y * y));
 169:./stmtemp.h   ****     return y;
 170:./stmtemp.h   **** }
 171:./stmtemp.h   **** 
 172:./stmtemp.h   **** inline int16_t SoftConvert(float x)
 173:./stmtemp.h   **** {
 174:./stmtemp.h   ****     return Clip16(static_cast<int32_t>(SoftLimit(x * 0.5f) * 32768.0f));
 175:./stmtemp.h   **** }
 176:./stmtemp.h   **** 
 177:./stmtemp.h   **** static inline uint16_t fast_atan2r(float y, float x, float* r)
 178:./stmtemp.h   **** {
 179:./stmtemp.h   ****     float squared_magnitude = x * x + y * y;
 180:./stmtemp.h   ****     if(squared_magnitude == 0.0f)
 181:./stmtemp.h   ****     {
 182:./stmtemp.h   ****         *r = 0.0f;
 183:./stmtemp.h   ****         return 0.0f;
 184:./stmtemp.h   ****     }
 185:./stmtemp.h   ****     float rinv = fast_rsqrt_carmack(squared_magnitude);
 186:./stmtemp.h   ****     *r         = rinv * squared_magnitude;
 187:./stmtemp.h   **** 
 188:./stmtemp.h   ****     static const uint32_t sign_mask = 0x80000000;
 189:./stmtemp.h   ****     uint32_t ux_s     = sign_mask & unsafe_bit_cast<uint32_t, float>(x);
 190:./stmtemp.h   ****     uint32_t uy_s     = sign_mask & unsafe_bit_cast<uint32_t, float>(y);
 191:./stmtemp.h   ****     uint32_t quadrant = ((~ux_s & uy_s) >> 29 | ux_s >> 30);
 192:./stmtemp.h   ****     uint16_t angle    = 0;
 193:./stmtemp.h   ****     x                 = fabs(x);
ARM GAS  /tmp/ccoDtert.s 			page 26


 194:./stmtemp.h   ****     y                 = fabs(y);
 195:./stmtemp.h   ****     if(y > x)
 196:./stmtemp.h   ****     {
 197:./stmtemp.h   ****         angle
 332              		.loc 3 197 9 is_stmt 1 view .LVU86
 198:./stmtemp.h   ****             = 16384 - atan_lut[static_cast<uint32_t>(x * rinv * 512.0f + 0.5f)];
 199:./stmtemp.h   ****     }
 200:./stmtemp.h   ****     else
 201:./stmtemp.h   ****     {
 202:./stmtemp.h   ****         angle = atan_lut[static_cast<uint32_t>(y * rinv * 512.0f + 0.5f)];
 333              		.loc 3 202 9 view .LVU87
 334              	.LBB211:
 335              	.LBB212:
 167:./stmtemp.h   ****     y                      = y * (threehalfs - (x2 * y * y));
 336              		.loc 3 167 28 is_stmt 0 view .LVU88
 337 0022 27EE256A 		vmul.f32	s12, s14, s11
 338              	.LVL27:
 167:./stmtemp.h   ****     y                      = y * (threehalfs - (x2 * y * y));
 339              		.loc 3 167 28 view .LVU89
 340              	.LBE212:
 341              	.LBE211:
 198:./stmtemp.h   ****             = 16384 - atan_lut[static_cast<uint32_t>(x * rinv * 512.0f + 0.5f)];
 342              		.loc 3 198 79 view .LVU90
 343 0026 374A     		ldr	r2, .L34
 195:./stmtemp.h   ****     {
 344              		.loc 3 195 5 view .LVU91
 345 0028 F4EEE64A 		vcmpe.f32	s9, s13
 198:./stmtemp.h   ****             = 16384 - atan_lut[static_cast<uint32_t>(x * rinv * 512.0f + 0.5f)];
 346              		.loc 3 198 72 view .LVU92
 347 002c DFED363A 		vldr.32	s7, .L34+4
 348              		.loc 3 202 15 view .LVU93
 349 0030 1346     		mov	r3, r2
 350              	.LVL28:
 351              	.LBB227:
 352              	.LBB219:
 168:./stmtemp.h   ****     return y;
 353              		.loc 3 168 52 view .LVU94
 354 0032 26EE276A 		vmul.f32	s12, s12, s15
 355              	.LBE219:
 356              	.LBE227:
 195:./stmtemp.h   ****     {
 357              		.loc 3 195 5 view .LVU95
 358 0036 F1EE10FA 		vmrs	APSR_nzcv, FPSCR
 359              	.LBB228:
 360              	.LBB220:
 168:./stmtemp.h   ****     return y;
 361              		.loc 3 168 46 view .LVU96
 362 003a A7EEC65A 		vfms.f32	s10, s15, s12
 168:./stmtemp.h   ****     return y;
 363              		.loc 3 168 28 view .LVU97
 364 003e 67EE857A 		vmul.f32	s15, s15, s10
 365              	.LVL29:
 169:./stmtemp.h   **** }
 366              		.loc 3 169 5 is_stmt 1 view .LVU98
 169:./stmtemp.h   **** }
 367              		.loc 3 169 5 is_stmt 0 view .LVU99
 368              	.LBE220:
ARM GAS  /tmp/ccoDtert.s 			page 27


 369              	.LBE228:
 186:./stmtemp.h   **** 
 370              		.loc 3 186 5 is_stmt 1 view .LVU100
 186:./stmtemp.h   **** 
 371              		.loc 3 186 23 is_stmt 0 view .LVU101
 372 0042 27EE277A 		vmul.f32	s14, s14, s15
 373              	.LVL30:
 186:./stmtemp.h   **** 
 374              		.loc 3 186 16 view .LVU102
 375 0046 05ED017A 		vstr.32	s14, [r5, #-4]
 376              	.LVL31:
 188:./stmtemp.h   ****     uint32_t ux_s     = sign_mask & unsafe_bit_cast<uint32_t, float>(x);
 377              		.loc 3 188 5 is_stmt 1 view .LVU103
 189:./stmtemp.h   ****     uint32_t uy_s     = sign_mask & unsafe_bit_cast<uint32_t, float>(y);
 378              		.loc 3 189 5 view .LVU104
 379              	.LBB229:
 380              	.LBI229:
 151:./stmtemp.h   **** {
 381              		.loc 3 151 4 view .LVU105
 151:./stmtemp.h   **** {
 382              		.loc 3 151 4 is_stmt 0 view .LVU106
 383              	.LBE229:
 190:./stmtemp.h   ****     uint32_t quadrant = ((~ux_s & uy_s) >> 29 | ux_s >> 30);
 384              		.loc 3 190 5 is_stmt 1 view .LVU107
 385              	.LBB230:
 386              	.LBI230:
 151:./stmtemp.h   **** {
 387              		.loc 3 151 4 view .LVU108
 151:./stmtemp.h   **** {
 388              		.loc 3 151 4 is_stmt 0 view .LVU109
 389              	.LBE230:
 191:./stmtemp.h   ****     uint16_t angle    = 0;
 390              		.loc 3 191 5 is_stmt 1 view .LVU110
 192:./stmtemp.h   ****     x                 = fabs(x);
 391              		.loc 3 192 5 view .LVU111
 193:./stmtemp.h   ****     y                 = fabs(y);
 392              		.loc 3 193 5 view .LVU112
 393              	.LBB231:
 394              	.LBI231:
 395              		.file 4 "/usr/include/newlib/c++/9.2.1/cmath"
   1:/usr/include/newlib/c++/9.2.1/cmath **** // -*- C++ -*- C forwarding header.
   2:/usr/include/newlib/c++/9.2.1/cmath **** 
   3:/usr/include/newlib/c++/9.2.1/cmath **** // Copyright (C) 1997-2019 Free Software Foundation, Inc.
   4:/usr/include/newlib/c++/9.2.1/cmath **** //
   5:/usr/include/newlib/c++/9.2.1/cmath **** // This file is part of the GNU ISO C++ Library.  This library is free
   6:/usr/include/newlib/c++/9.2.1/cmath **** // software; you can redistribute it and/or modify it under the
   7:/usr/include/newlib/c++/9.2.1/cmath **** // terms of the GNU General Public License as published by the
   8:/usr/include/newlib/c++/9.2.1/cmath **** // Free Software Foundation; either version 3, or (at your option)
   9:/usr/include/newlib/c++/9.2.1/cmath **** // any later version.
  10:/usr/include/newlib/c++/9.2.1/cmath **** 
  11:/usr/include/newlib/c++/9.2.1/cmath **** // This library is distributed in the hope that it will be useful,
  12:/usr/include/newlib/c++/9.2.1/cmath **** // but WITHOUT ANY WARRANTY; without even the implied warranty of
  13:/usr/include/newlib/c++/9.2.1/cmath **** // MERCHANTABILITY or FITNESS FOR A PARTICULAR PURPOSE.  See the
  14:/usr/include/newlib/c++/9.2.1/cmath **** // GNU General Public License for more details.
  15:/usr/include/newlib/c++/9.2.1/cmath **** 
  16:/usr/include/newlib/c++/9.2.1/cmath **** // Under Section 7 of GPL version 3, you are granted additional
  17:/usr/include/newlib/c++/9.2.1/cmath **** // permissions described in the GCC Runtime Library Exception, version
ARM GAS  /tmp/ccoDtert.s 			page 28


  18:/usr/include/newlib/c++/9.2.1/cmath **** // 3.1, as published by the Free Software Foundation.
  19:/usr/include/newlib/c++/9.2.1/cmath **** 
  20:/usr/include/newlib/c++/9.2.1/cmath **** // You should have received a copy of the GNU General Public License and
  21:/usr/include/newlib/c++/9.2.1/cmath **** // a copy of the GCC Runtime Library Exception along with this program;
  22:/usr/include/newlib/c++/9.2.1/cmath **** // see the files COPYING3 and COPYING.RUNTIME respectively.  If not, see
  23:/usr/include/newlib/c++/9.2.1/cmath **** // <http://www.gnu.org/licenses/>.
  24:/usr/include/newlib/c++/9.2.1/cmath **** 
  25:/usr/include/newlib/c++/9.2.1/cmath **** /** @file include/cmath
  26:/usr/include/newlib/c++/9.2.1/cmath ****  *  This is a Standard C++ Library file.  You should @c \#include this file
  27:/usr/include/newlib/c++/9.2.1/cmath ****  *  in your programs, rather than any of the @a *.h implementation files.
  28:/usr/include/newlib/c++/9.2.1/cmath ****  *
  29:/usr/include/newlib/c++/9.2.1/cmath ****  *  This is the C++ version of the Standard C Library header @c math.h,
  30:/usr/include/newlib/c++/9.2.1/cmath ****  *  and its contents are (mostly) the same as that header, but are all
  31:/usr/include/newlib/c++/9.2.1/cmath ****  *  contained in the namespace @c std (except for names which are defined
  32:/usr/include/newlib/c++/9.2.1/cmath ****  *  as macros in C).
  33:/usr/include/newlib/c++/9.2.1/cmath ****  */
  34:/usr/include/newlib/c++/9.2.1/cmath **** 
  35:/usr/include/newlib/c++/9.2.1/cmath **** //
  36:/usr/include/newlib/c++/9.2.1/cmath **** // ISO C++ 14882: 26.5  C library
  37:/usr/include/newlib/c++/9.2.1/cmath **** //
  38:/usr/include/newlib/c++/9.2.1/cmath **** 
  39:/usr/include/newlib/c++/9.2.1/cmath **** #pragma GCC system_header
  40:/usr/include/newlib/c++/9.2.1/cmath **** 
  41:/usr/include/newlib/c++/9.2.1/cmath **** #include <bits/c++config.h>
  42:/usr/include/newlib/c++/9.2.1/cmath **** #include <bits/cpp_type_traits.h>
  43:/usr/include/newlib/c++/9.2.1/cmath **** #include <ext/type_traits.h>
  44:/usr/include/newlib/c++/9.2.1/cmath **** #define _GLIBCXX_INCLUDE_NEXT_C_HEADERS
  45:/usr/include/newlib/c++/9.2.1/cmath **** #include_next <math.h>
  46:/usr/include/newlib/c++/9.2.1/cmath **** #undef _GLIBCXX_INCLUDE_NEXT_C_HEADERS
  47:/usr/include/newlib/c++/9.2.1/cmath **** #include <bits/std_abs.h>
  48:/usr/include/newlib/c++/9.2.1/cmath **** 
  49:/usr/include/newlib/c++/9.2.1/cmath **** #ifndef _GLIBCXX_CMATH
  50:/usr/include/newlib/c++/9.2.1/cmath **** #define _GLIBCXX_CMATH 1
  51:/usr/include/newlib/c++/9.2.1/cmath **** 
  52:/usr/include/newlib/c++/9.2.1/cmath **** // Get rid of those macros defined in <math.h> in lieu of real functions.
  53:/usr/include/newlib/c++/9.2.1/cmath **** #undef div
  54:/usr/include/newlib/c++/9.2.1/cmath **** #undef acos
  55:/usr/include/newlib/c++/9.2.1/cmath **** #undef asin
  56:/usr/include/newlib/c++/9.2.1/cmath **** #undef atan
  57:/usr/include/newlib/c++/9.2.1/cmath **** #undef atan2
  58:/usr/include/newlib/c++/9.2.1/cmath **** #undef ceil
  59:/usr/include/newlib/c++/9.2.1/cmath **** #undef cos
  60:/usr/include/newlib/c++/9.2.1/cmath **** #undef cosh
  61:/usr/include/newlib/c++/9.2.1/cmath **** #undef exp
  62:/usr/include/newlib/c++/9.2.1/cmath **** #undef fabs
  63:/usr/include/newlib/c++/9.2.1/cmath **** #undef floor
  64:/usr/include/newlib/c++/9.2.1/cmath **** #undef fmod
  65:/usr/include/newlib/c++/9.2.1/cmath **** #undef frexp
  66:/usr/include/newlib/c++/9.2.1/cmath **** #undef ldexp
  67:/usr/include/newlib/c++/9.2.1/cmath **** #undef log
  68:/usr/include/newlib/c++/9.2.1/cmath **** #undef log10
  69:/usr/include/newlib/c++/9.2.1/cmath **** #undef modf
  70:/usr/include/newlib/c++/9.2.1/cmath **** #undef pow
  71:/usr/include/newlib/c++/9.2.1/cmath **** #undef sin
  72:/usr/include/newlib/c++/9.2.1/cmath **** #undef sinh
  73:/usr/include/newlib/c++/9.2.1/cmath **** #undef sqrt
  74:/usr/include/newlib/c++/9.2.1/cmath **** #undef tan
ARM GAS  /tmp/ccoDtert.s 			page 29


  75:/usr/include/newlib/c++/9.2.1/cmath **** #undef tanh
  76:/usr/include/newlib/c++/9.2.1/cmath **** 
  77:/usr/include/newlib/c++/9.2.1/cmath **** extern "C++"
  78:/usr/include/newlib/c++/9.2.1/cmath **** {
  79:/usr/include/newlib/c++/9.2.1/cmath **** namespace std _GLIBCXX_VISIBILITY(default)
  80:/usr/include/newlib/c++/9.2.1/cmath **** {
  81:/usr/include/newlib/c++/9.2.1/cmath **** _GLIBCXX_BEGIN_NAMESPACE_VERSION
  82:/usr/include/newlib/c++/9.2.1/cmath **** 
  83:/usr/include/newlib/c++/9.2.1/cmath ****   using ::acos;
  84:/usr/include/newlib/c++/9.2.1/cmath **** 
  85:/usr/include/newlib/c++/9.2.1/cmath **** #ifndef __CORRECT_ISO_CPP_MATH_H_PROTO
  86:/usr/include/newlib/c++/9.2.1/cmath ****   inline _GLIBCXX_CONSTEXPR float
  87:/usr/include/newlib/c++/9.2.1/cmath ****   acos(float __x)
  88:/usr/include/newlib/c++/9.2.1/cmath ****   { return __builtin_acosf(__x); }
  89:/usr/include/newlib/c++/9.2.1/cmath **** 
  90:/usr/include/newlib/c++/9.2.1/cmath ****   inline _GLIBCXX_CONSTEXPR long double
  91:/usr/include/newlib/c++/9.2.1/cmath ****   acos(long double __x)
  92:/usr/include/newlib/c++/9.2.1/cmath ****   { return __builtin_acosl(__x); }
  93:/usr/include/newlib/c++/9.2.1/cmath **** #endif
  94:/usr/include/newlib/c++/9.2.1/cmath **** 
  95:/usr/include/newlib/c++/9.2.1/cmath ****   template<typename _Tp>
  96:/usr/include/newlib/c++/9.2.1/cmath ****     inline _GLIBCXX_CONSTEXPR
  97:/usr/include/newlib/c++/9.2.1/cmath ****     typename __gnu_cxx::__enable_if<__is_integer<_Tp>::__value, 
  98:/usr/include/newlib/c++/9.2.1/cmath ****                                     double>::__type
  99:/usr/include/newlib/c++/9.2.1/cmath ****     acos(_Tp __x)
 100:/usr/include/newlib/c++/9.2.1/cmath ****     { return __builtin_acos(__x); }
 101:/usr/include/newlib/c++/9.2.1/cmath **** 
 102:/usr/include/newlib/c++/9.2.1/cmath ****   using ::asin;
 103:/usr/include/newlib/c++/9.2.1/cmath **** 
 104:/usr/include/newlib/c++/9.2.1/cmath **** #ifndef __CORRECT_ISO_CPP_MATH_H_PROTO
 105:/usr/include/newlib/c++/9.2.1/cmath ****   inline _GLIBCXX_CONSTEXPR float
 106:/usr/include/newlib/c++/9.2.1/cmath ****   asin(float __x)
 107:/usr/include/newlib/c++/9.2.1/cmath ****   { return __builtin_asinf(__x); }
 108:/usr/include/newlib/c++/9.2.1/cmath **** 
 109:/usr/include/newlib/c++/9.2.1/cmath ****   inline _GLIBCXX_CONSTEXPR long double
 110:/usr/include/newlib/c++/9.2.1/cmath ****   asin(long double __x)
 111:/usr/include/newlib/c++/9.2.1/cmath ****   { return __builtin_asinl(__x); }
 112:/usr/include/newlib/c++/9.2.1/cmath **** #endif
 113:/usr/include/newlib/c++/9.2.1/cmath **** 
 114:/usr/include/newlib/c++/9.2.1/cmath ****   template<typename _Tp>
 115:/usr/include/newlib/c++/9.2.1/cmath ****     inline _GLIBCXX_CONSTEXPR
 116:/usr/include/newlib/c++/9.2.1/cmath ****     typename __gnu_cxx::__enable_if<__is_integer<_Tp>::__value,
 117:/usr/include/newlib/c++/9.2.1/cmath ****                                     double>::__type
 118:/usr/include/newlib/c++/9.2.1/cmath ****     asin(_Tp __x)
 119:/usr/include/newlib/c++/9.2.1/cmath ****     { return __builtin_asin(__x); }
 120:/usr/include/newlib/c++/9.2.1/cmath **** 
 121:/usr/include/newlib/c++/9.2.1/cmath ****   using ::atan;
 122:/usr/include/newlib/c++/9.2.1/cmath **** 
 123:/usr/include/newlib/c++/9.2.1/cmath **** #ifndef __CORRECT_ISO_CPP_MATH_H_PROTO
 124:/usr/include/newlib/c++/9.2.1/cmath ****   inline _GLIBCXX_CONSTEXPR float
 125:/usr/include/newlib/c++/9.2.1/cmath ****   atan(float __x)
 126:/usr/include/newlib/c++/9.2.1/cmath ****   { return __builtin_atanf(__x); }
 127:/usr/include/newlib/c++/9.2.1/cmath **** 
 128:/usr/include/newlib/c++/9.2.1/cmath ****   inline _GLIBCXX_CONSTEXPR long double
 129:/usr/include/newlib/c++/9.2.1/cmath ****   atan(long double __x)
 130:/usr/include/newlib/c++/9.2.1/cmath ****   { return __builtin_atanl(__x); }
 131:/usr/include/newlib/c++/9.2.1/cmath **** #endif
ARM GAS  /tmp/ccoDtert.s 			page 30


 132:/usr/include/newlib/c++/9.2.1/cmath **** 
 133:/usr/include/newlib/c++/9.2.1/cmath ****   template<typename _Tp>
 134:/usr/include/newlib/c++/9.2.1/cmath ****     inline _GLIBCXX_CONSTEXPR
 135:/usr/include/newlib/c++/9.2.1/cmath ****     typename __gnu_cxx::__enable_if<__is_integer<_Tp>::__value,
 136:/usr/include/newlib/c++/9.2.1/cmath ****                                     double>::__type
 137:/usr/include/newlib/c++/9.2.1/cmath ****     atan(_Tp __x)
 138:/usr/include/newlib/c++/9.2.1/cmath ****     { return __builtin_atan(__x); }
 139:/usr/include/newlib/c++/9.2.1/cmath **** 
 140:/usr/include/newlib/c++/9.2.1/cmath ****   using ::atan2;
 141:/usr/include/newlib/c++/9.2.1/cmath **** 
 142:/usr/include/newlib/c++/9.2.1/cmath **** #ifndef __CORRECT_ISO_CPP_MATH_H_PROTO
 143:/usr/include/newlib/c++/9.2.1/cmath ****   inline _GLIBCXX_CONSTEXPR float
 144:/usr/include/newlib/c++/9.2.1/cmath ****   atan2(float __y, float __x)
 145:/usr/include/newlib/c++/9.2.1/cmath ****   { return __builtin_atan2f(__y, __x); }
 146:/usr/include/newlib/c++/9.2.1/cmath **** 
 147:/usr/include/newlib/c++/9.2.1/cmath ****   inline _GLIBCXX_CONSTEXPR long double
 148:/usr/include/newlib/c++/9.2.1/cmath ****   atan2(long double __y, long double __x)
 149:/usr/include/newlib/c++/9.2.1/cmath ****   { return __builtin_atan2l(__y, __x); }
 150:/usr/include/newlib/c++/9.2.1/cmath **** #endif
 151:/usr/include/newlib/c++/9.2.1/cmath **** 
 152:/usr/include/newlib/c++/9.2.1/cmath ****   template<typename _Tp, typename _Up>
 153:/usr/include/newlib/c++/9.2.1/cmath ****     inline _GLIBCXX_CONSTEXPR
 154:/usr/include/newlib/c++/9.2.1/cmath ****     typename __gnu_cxx::__promote_2<_Tp, _Up>::__type
 155:/usr/include/newlib/c++/9.2.1/cmath ****     atan2(_Tp __y, _Up __x)
 156:/usr/include/newlib/c++/9.2.1/cmath ****     {
 157:/usr/include/newlib/c++/9.2.1/cmath ****       typedef typename __gnu_cxx::__promote_2<_Tp, _Up>::__type __type;
 158:/usr/include/newlib/c++/9.2.1/cmath ****       return atan2(__type(__y), __type(__x));
 159:/usr/include/newlib/c++/9.2.1/cmath ****     }
 160:/usr/include/newlib/c++/9.2.1/cmath **** 
 161:/usr/include/newlib/c++/9.2.1/cmath ****   using ::ceil;
 162:/usr/include/newlib/c++/9.2.1/cmath **** 
 163:/usr/include/newlib/c++/9.2.1/cmath **** #ifndef __CORRECT_ISO_CPP_MATH_H_PROTO
 164:/usr/include/newlib/c++/9.2.1/cmath ****   inline _GLIBCXX_CONSTEXPR float
 165:/usr/include/newlib/c++/9.2.1/cmath ****   ceil(float __x)
 166:/usr/include/newlib/c++/9.2.1/cmath ****   { return __builtin_ceilf(__x); }
 167:/usr/include/newlib/c++/9.2.1/cmath **** 
 168:/usr/include/newlib/c++/9.2.1/cmath ****   inline _GLIBCXX_CONSTEXPR long double
 169:/usr/include/newlib/c++/9.2.1/cmath ****   ceil(long double __x)
 170:/usr/include/newlib/c++/9.2.1/cmath ****   { return __builtin_ceill(__x); }
 171:/usr/include/newlib/c++/9.2.1/cmath **** #endif
 172:/usr/include/newlib/c++/9.2.1/cmath **** 
 173:/usr/include/newlib/c++/9.2.1/cmath ****   template<typename _Tp>
 174:/usr/include/newlib/c++/9.2.1/cmath ****     inline _GLIBCXX_CONSTEXPR
 175:/usr/include/newlib/c++/9.2.1/cmath ****     typename __gnu_cxx::__enable_if<__is_integer<_Tp>::__value, 
 176:/usr/include/newlib/c++/9.2.1/cmath ****                                     double>::__type
 177:/usr/include/newlib/c++/9.2.1/cmath ****     ceil(_Tp __x)
 178:/usr/include/newlib/c++/9.2.1/cmath ****     { return __builtin_ceil(__x); }
 179:/usr/include/newlib/c++/9.2.1/cmath **** 
 180:/usr/include/newlib/c++/9.2.1/cmath ****   using ::cos;
 181:/usr/include/newlib/c++/9.2.1/cmath **** 
 182:/usr/include/newlib/c++/9.2.1/cmath **** #ifndef __CORRECT_ISO_CPP_MATH_H_PROTO
 183:/usr/include/newlib/c++/9.2.1/cmath ****   inline _GLIBCXX_CONSTEXPR float
 184:/usr/include/newlib/c++/9.2.1/cmath ****   cos(float __x)
 185:/usr/include/newlib/c++/9.2.1/cmath ****   { return __builtin_cosf(__x); }
 186:/usr/include/newlib/c++/9.2.1/cmath **** 
 187:/usr/include/newlib/c++/9.2.1/cmath ****   inline _GLIBCXX_CONSTEXPR long double
 188:/usr/include/newlib/c++/9.2.1/cmath ****   cos(long double __x)
ARM GAS  /tmp/ccoDtert.s 			page 31


 189:/usr/include/newlib/c++/9.2.1/cmath ****   { return __builtin_cosl(__x); }
 190:/usr/include/newlib/c++/9.2.1/cmath **** #endif
 191:/usr/include/newlib/c++/9.2.1/cmath **** 
 192:/usr/include/newlib/c++/9.2.1/cmath ****   template<typename _Tp>
 193:/usr/include/newlib/c++/9.2.1/cmath ****     inline _GLIBCXX_CONSTEXPR
 194:/usr/include/newlib/c++/9.2.1/cmath ****     typename __gnu_cxx::__enable_if<__is_integer<_Tp>::__value,
 195:/usr/include/newlib/c++/9.2.1/cmath ****                                     double>::__type
 196:/usr/include/newlib/c++/9.2.1/cmath ****     cos(_Tp __x)
 197:/usr/include/newlib/c++/9.2.1/cmath ****     { return __builtin_cos(__x); }
 198:/usr/include/newlib/c++/9.2.1/cmath **** 
 199:/usr/include/newlib/c++/9.2.1/cmath ****   using ::cosh;
 200:/usr/include/newlib/c++/9.2.1/cmath **** 
 201:/usr/include/newlib/c++/9.2.1/cmath **** #ifndef __CORRECT_ISO_CPP_MATH_H_PROTO
 202:/usr/include/newlib/c++/9.2.1/cmath ****   inline _GLIBCXX_CONSTEXPR float
 203:/usr/include/newlib/c++/9.2.1/cmath ****   cosh(float __x)
 204:/usr/include/newlib/c++/9.2.1/cmath ****   { return __builtin_coshf(__x); }
 205:/usr/include/newlib/c++/9.2.1/cmath **** 
 206:/usr/include/newlib/c++/9.2.1/cmath ****   inline _GLIBCXX_CONSTEXPR long double
 207:/usr/include/newlib/c++/9.2.1/cmath ****   cosh(long double __x)
 208:/usr/include/newlib/c++/9.2.1/cmath ****   { return __builtin_coshl(__x); }
 209:/usr/include/newlib/c++/9.2.1/cmath **** #endif
 210:/usr/include/newlib/c++/9.2.1/cmath **** 
 211:/usr/include/newlib/c++/9.2.1/cmath ****   template<typename _Tp>
 212:/usr/include/newlib/c++/9.2.1/cmath ****     inline _GLIBCXX_CONSTEXPR
 213:/usr/include/newlib/c++/9.2.1/cmath ****     typename __gnu_cxx::__enable_if<__is_integer<_Tp>::__value,
 214:/usr/include/newlib/c++/9.2.1/cmath ****                                     double>::__type
 215:/usr/include/newlib/c++/9.2.1/cmath ****     cosh(_Tp __x)
 216:/usr/include/newlib/c++/9.2.1/cmath ****     { return __builtin_cosh(__x); }
 217:/usr/include/newlib/c++/9.2.1/cmath **** 
 218:/usr/include/newlib/c++/9.2.1/cmath ****   using ::exp;
 219:/usr/include/newlib/c++/9.2.1/cmath **** 
 220:/usr/include/newlib/c++/9.2.1/cmath **** #ifndef __CORRECT_ISO_CPP_MATH_H_PROTO
 221:/usr/include/newlib/c++/9.2.1/cmath ****   inline _GLIBCXX_CONSTEXPR float
 222:/usr/include/newlib/c++/9.2.1/cmath ****   exp(float __x)
 223:/usr/include/newlib/c++/9.2.1/cmath ****   { return __builtin_expf(__x); }
 224:/usr/include/newlib/c++/9.2.1/cmath **** 
 225:/usr/include/newlib/c++/9.2.1/cmath ****   inline _GLIBCXX_CONSTEXPR long double
 226:/usr/include/newlib/c++/9.2.1/cmath ****   exp(long double __x)
 227:/usr/include/newlib/c++/9.2.1/cmath ****   { return __builtin_expl(__x); }
 228:/usr/include/newlib/c++/9.2.1/cmath **** #endif
 229:/usr/include/newlib/c++/9.2.1/cmath **** 
 230:/usr/include/newlib/c++/9.2.1/cmath ****   template<typename _Tp>
 231:/usr/include/newlib/c++/9.2.1/cmath ****     inline _GLIBCXX_CONSTEXPR
 232:/usr/include/newlib/c++/9.2.1/cmath ****     typename __gnu_cxx::__enable_if<__is_integer<_Tp>::__value,
 233:/usr/include/newlib/c++/9.2.1/cmath ****                                     double>::__type
 234:/usr/include/newlib/c++/9.2.1/cmath ****     exp(_Tp __x)
 235:/usr/include/newlib/c++/9.2.1/cmath ****     { return __builtin_exp(__x); }
 236:/usr/include/newlib/c++/9.2.1/cmath **** 
 237:/usr/include/newlib/c++/9.2.1/cmath ****   using ::fabs;
 238:/usr/include/newlib/c++/9.2.1/cmath **** 
 239:/usr/include/newlib/c++/9.2.1/cmath **** #ifndef __CORRECT_ISO_CPP_MATH_H_PROTO
 240:/usr/include/newlib/c++/9.2.1/cmath ****   inline _GLIBCXX_CONSTEXPR float
 241:/usr/include/newlib/c++/9.2.1/cmath ****   fabs(float __x)
 396              		.loc 4 241 3 view .LVU113
 397              	.LBB232:
 242:/usr/include/newlib/c++/9.2.1/cmath ****   { return __builtin_fabsf(__x); }
 398              		.loc 4 242 5 view .LVU114
ARM GAS  /tmp/ccoDtert.s 			page 32


 399              		.loc 4 242 5 is_stmt 0 view .LVU115
 400              	.LBE232:
 401              	.LBE231:
 194:./stmtemp.h   ****     if(y > x)
 402              		.loc 3 194 5 is_stmt 1 view .LVU116
 403              	.LBB234:
 404              	.LBI234:
 241:/usr/include/newlib/c++/9.2.1/cmath ****   { return __builtin_fabsf(__x); }
 405              		.loc 4 241 3 view .LVU117
 406              	.LBB235:
 407              		.loc 4 242 5 view .LVU118
 408              		.loc 4 242 5 is_stmt 0 view .LVU119
 409              	.LBE235:
 410              	.LBE234:
 195:./stmtemp.h   ****     {
 411              		.loc 3 195 5 is_stmt 1 view .LVU120
 412 004a 4DD5     		bpl	.L32
 198:./stmtemp.h   ****     }
 413              		.loc 3 198 56 is_stmt 0 view .LVU121
 414 004c 67EEA47A 		vmul.f32	s15, s15, s9
 415              	.LVL32:
 198:./stmtemp.h   ****     }
 416              		.loc 3 198 72 view .LVU122
 417 0050 E7EEA35A 		vfma.f32	s11, s15, s7
 198:./stmtemp.h   ****     }
 418              		.loc 3 198 32 view .LVU123
 419 0054 FCEEE55A 		vcvt.u32.f32	s11, s11
 198:./stmtemp.h   ****     }
 420              		.loc 3 198 13 view .LVU124
 421 0058 15EE903A 		vmov	r3, s11	@ int
 422 005c 32F81320 		ldrh	r2, [r2, r3, lsl #1]
 423 0060 C2F58042 		rsb	r2, r2, #16384
 424 0064 93B2     		uxth	r3, r2
 425              	.LVL33:
 426              	.L27:
 203:./stmtemp.h   ****     }
 204:./stmtemp.h   ****     if(ux_s ^ uy_s)
 427              		.loc 3 204 5 is_stmt 1 view .LVU125
 205:./stmtemp.h   ****     {
 206:./stmtemp.h   ****         angle = -angle;
 428              		.loc 3 206 9 view .LVU126
 429              		.loc 3 206 15 is_stmt 0 view .LVU127
 430 0066 5A42     		rsbs	r2, r3, #0
 204:./stmtemp.h   ****     {
 431              		.loc 3 204 5 view .LVU128
 432 0068 6745     		cmp	r7, ip
 433              		.loc 3 206 15 view .LVU129
 434 006a 18BF     		it	ne
 435 006c 93B2     		uxthne	r3, r2
 436              	.LVL34:
 207:./stmtemp.h   ****     }
 208:./stmtemp.h   ****     return angle + (quadrant << 14);
 437              		.loc 3 208 5 is_stmt 1 view .LVU130
 438              		.loc 3 208 35 is_stmt 0 view .LVU131
 439 006e 03EB8E33 		add	r3, r3, lr, lsl #14
 440              	.LVL35:
 441              		.loc 3 208 35 view .LVU132
ARM GAS  /tmp/ccoDtert.s 			page 33


 442 0072 9BB2     		uxth	r3, r3
 443              	.LVL36:
 444              	.L24:
 445              		.loc 3 208 35 view .LVU133
 446              	.LBE210:
 447              	.LBE209:
 119:dsp/pvoc/frame_transformation.cpp ****     {
 120:dsp/pvoc/frame_transformation.cpp ****         uint16_t angle   = fast_atan2r(imag[i], real[i], &magnitude[i]);
 121:dsp/pvoc/frame_transformation.cpp ****         phases_delta_[i] = angle - phases_[i];
 448              		.loc 1 121 9 is_stmt 1 view .LVU134
 449              		.loc 1 121 34 is_stmt 0 view .LVU135
 450 0074 34F8022F 		ldrh	r2, [r4, #2]!
 451              	.LBE208:
 118:dsp/pvoc/frame_transformation.cpp ****     {
 452              		.loc 1 118 26 view .LVU136
 453 0078 B142     		cmp	r1, r6
 454              	.LBB251:
 455              		.loc 1 121 34 view .LVU137
 456 007a A3EB0202 		sub	r2, r3, r2
 457              		.loc 1 121 26 view .LVU138
 458 007e 20F8022F 		strh	r2, [r0, #2]!	@ movhi
 122:dsp/pvoc/frame_transformation.cpp ****         phases_[i]       = angle;
 459              		.loc 1 122 9 is_stmt 1 view .LVU139
 460              		.loc 1 122 26 is_stmt 0 view .LVU140
 461 0082 2380     		strh	r3, [r4]	@ movhi
 462              	.LBE251:
 118:dsp/pvoc/frame_transformation.cpp ****     {
 463              		.loc 1 118 5 is_stmt 1 view .LVU141
 118:dsp/pvoc/frame_transformation.cpp ****     {
 464              		.loc 1 118 26 view .LVU142
 465 0084 3BD0     		beq	.L21
 466              	.LVL37:
 467              	.L29:
 468              	.LBB252:
 120:dsp/pvoc/frame_transformation.cpp ****         phases_delta_[i] = angle - phases_[i];
 469              		.loc 1 120 9 discriminator 2 view .LVU143
 470              	.LBB248:
 471              	.LBB245:
 185:./stmtemp.h   ****     *r         = rinv * squared_magnitude;
 472              		.loc 3 185 5 discriminator 2 view .LVU144
 473              	.LBE245:
 474              	.LBE248:
 120:dsp/pvoc/frame_transformation.cpp ****         phases_delta_[i] = angle - phases_[i];
 475              		.loc 1 120 39 is_stmt 0 discriminator 2 view .LVU145
 476 0086 F1EC016A 		vldmia.32	r1!, {s13}
 477              	.LBB249:
 478              	.LBB246:
 479              	.LBB237:
 480              	.LBB221:
 167:./stmtemp.h   ****     y                      = y * (threehalfs - (x2 * y * y));
 481              		.loc 3 167 28 discriminator 2 view .LVU146
 482 008a F6EE005A 		vmov.f32	s11, #5.0e-1
 483              	.LBE221:
 484              	.LBE237:
 485              	.LBE246:
 486              	.LBE249:
 120:dsp/pvoc/frame_transformation.cpp ****         phases_delta_[i] = angle - phases_[i];
ARM GAS  /tmp/ccoDtert.s 			page 34


 487              		.loc 1 120 39 discriminator 2 view .LVU147
 488 008e B5EC016A 		vldmia.32	r5!, {s12}
 489              	.LVL38:
 490              	.LBB250:
 491              	.LBI209:
 177:./stmtemp.h   **** {
 492              		.loc 3 177 24 is_stmt 1 discriminator 2 view .LVU148
 493              	.LBB247:
 179:./stmtemp.h   ****     if(squared_magnitude == 0.0f)
 494              		.loc 3 179 5 discriminator 2 view .LVU149
 495              	.LBB238:
 496              	.LBB222:
 168:./stmtemp.h   ****     return y;
 497              		.loc 3 168 46 is_stmt 0 discriminator 2 view .LVU150
 498 0092 B7EE085A 		vmov.f32	s10, #1.5e+0
 499              	.LBE222:
 500              	.LBE238:
 179:./stmtemp.h   ****     if(squared_magnitude == 0.0f)
 501              		.loc 3 179 41 discriminator 2 view .LVU151
 502 0096 26EEA67A 		vmul.f32	s14, s13, s13
 190:./stmtemp.h   ****     uint32_t quadrant = ((~ux_s & uy_s) >> 29 | ux_s >> 30);
 503              		.loc 3 190 71 discriminator 2 view .LVU152
 504 009a 16EE902A 		vmov	r2, s13	@ int
 505              	.LBB239:
 506              	.LBB223:
 165:./stmtemp.h   ****     y                      = unsafe_bit_cast<float, uint32_t>(i);
 507              		.loc 3 165 28 discriminator 2 view .LVU153
 508 009e 1B4B     		ldr	r3, .L34+8
 509              	.LBE223:
 510              	.LBE239:
 511              	.LBB240:
 512              	.LBB233:
 513              		.loc 4 242 31 discriminator 2 view .LVU154
 514 00a0 F0EEC64A 		vabs.f32	s9, s12
 515              	.LBE233:
 516              	.LBE240:
 190:./stmtemp.h   ****     uint32_t quadrant = ((~ux_s & uy_s) >> 29 | ux_s >> 30);
 517              		.loc 3 190 71 discriminator 2 view .LVU155
 518 00a4 02F0004C 		and	ip, r2, #-2147483648
 189:./stmtemp.h   ****     uint32_t uy_s     = sign_mask & unsafe_bit_cast<uint32_t, float>(y);
 519              		.loc 3 189 71 discriminator 2 view .LVU156
 520 00a8 16EE102A 		vmov	r2, s12	@ int
 179:./stmtemp.h   ****     if(squared_magnitude == 0.0f)
 521              		.loc 3 179 11 discriminator 2 view .LVU157
 522 00ac A6EE067A 		vfma.f32	s14, s12, s12
 523              	.LVL39:
 180:./stmtemp.h   ****     {
 524              		.loc 3 180 5 is_stmt 1 discriminator 2 view .LVU158
 525              	.LBB241:
 526              	.LBI211:
 158:./stmtemp.h   **** {
 527              		.loc 3 158 21 discriminator 2 view .LVU159
 528              	.LBB224:
 160:./stmtemp.h   ****     float       x2, y;
 529              		.loc 3 160 5 discriminator 2 view .LVU160
 161:./stmtemp.h   ****     const float threehalfs = 1.5f;
 530              		.loc 3 161 5 discriminator 2 view .LVU161
ARM GAS  /tmp/ccoDtert.s 			page 35


 162:./stmtemp.h   ****     y                      = x;
 531              		.loc 3 162 5 discriminator 2 view .LVU162
 163:./stmtemp.h   ****     i                      = unsafe_bit_cast<uint32_t, float>(y);
 532              		.loc 3 163 5 discriminator 2 view .LVU163
 164:./stmtemp.h   ****     i                      = 0x5f3759df - (i >> 1);
 533              		.loc 3 164 5 discriminator 2 view .LVU164
 534              	.LBB213:
 535              	.LBI213:
 151:./stmtemp.h   **** {
 536              		.loc 3 151 4 discriminator 2 view .LVU165
 151:./stmtemp.h   **** {
 537              		.loc 3 151 4 is_stmt 0 discriminator 2 view .LVU166
 538              	.LBE213:
 165:./stmtemp.h   ****     y                      = unsafe_bit_cast<float, uint32_t>(i);
 539              		.loc 3 165 5 is_stmt 1 discriminator 2 view .LVU167
 166:./stmtemp.h   ****     x2                     = x * 0.5f;
 540              		.loc 3 166 5 discriminator 2 view .LVU168
 541              	.LBB214:
 542              	.LBI214:
 151:./stmtemp.h   **** {
 543              		.loc 3 151 4 discriminator 2 view .LVU169
 151:./stmtemp.h   **** {
 544              		.loc 3 151 4 is_stmt 0 discriminator 2 view .LVU170
 545              	.LBE214:
 546              	.LBE224:
 547              	.LBE241:
 180:./stmtemp.h   ****     {
 548              		.loc 3 180 5 discriminator 2 view .LVU171
 549 00b0 4FF00008 		mov	r8, #0
 189:./stmtemp.h   ****     uint32_t uy_s     = sign_mask & unsafe_bit_cast<uint32_t, float>(y);
 550              		.loc 3 189 71 discriminator 2 view .LVU172
 551 00b4 02F00047 		and	r7, r2, #-2147483648
 552              	.LBB242:
 553              	.LBB236:
 554              		.loc 4 242 31 discriminator 2 view .LVU173
 555 00b8 F0EEE66A 		vabs.f32	s13, s13
 556              	.LVL40:
 557              		.loc 4 242 31 discriminator 2 view .LVU174
 558              	.LBE236:
 559              	.LBE242:
 191:./stmtemp.h   ****     uint16_t angle    = 0;
 560              		.loc 3 191 27 discriminator 2 view .LVU175
 561 00bc FA43     		mvns	r2, r7
 191:./stmtemp.h   ****     uint16_t angle    = 0;
 562              		.loc 3 191 54 discriminator 2 view .LVU176
 563 00be 4FEA977E 		lsr	lr, r7, #30
 191:./stmtemp.h   ****     uint16_t angle    = 0;
 564              		.loc 3 191 33 discriminator 2 view .LVU177
 565 00c2 02EA0C02 		and	r2, r2, ip
 180:./stmtemp.h   ****     {
 566              		.loc 3 180 5 discriminator 2 view .LVU178
 567 00c6 B5EE407A 		vcmp.f32	s14, #0
 191:./stmtemp.h   ****     uint16_t angle    = 0;
 568              		.loc 3 191 14 discriminator 2 view .LVU179
 569 00ca 4EEA527E 		orr	lr, lr, r2, lsr #29
 570              	.LBB243:
 571              	.LBB225:
ARM GAS  /tmp/ccoDtert.s 			page 36


 572              	.LBB217:
 573              	.LBB215:
 155:./stmtemp.h   **** }
 574              		.loc 3 155 14 discriminator 2 view .LVU180
 575 00ce 17EE102A 		vmov	r2, s14	@ int
 576              	.LBE215:
 577              	.LBE217:
 578              	.LBE225:
 579              	.LBE243:
 180:./stmtemp.h   ****     {
 580              		.loc 3 180 5 discriminator 2 view .LVU181
 581 00d2 F1EE10FA 		vmrs	APSR_nzcv, FPSCR
 582              	.LBB244:
 583              	.LBB226:
 584              	.LBB218:
 585              	.LBB216:
 155:./stmtemp.h   **** }
 586              		.loc 3 155 14 discriminator 2 view .LVU182
 587 00d6 A3EB5203 		sub	r3, r3, r2, lsr #1
 588              	.LVL41:
 155:./stmtemp.h   **** }
 589              		.loc 3 155 14 discriminator 2 view .LVU183
 590 00da 07EE903A 		vmov	s15, r3	@ int
 591              	.LVL42:
 155:./stmtemp.h   **** }
 592              		.loc 3 155 14 discriminator 2 view .LVU184
 593              	.LBE216:
 594              	.LBE218:
 167:./stmtemp.h   ****     y                      = y * (threehalfs - (x2 * y * y));
 595              		.loc 3 167 5 is_stmt 1 discriminator 2 view .LVU185
 168:./stmtemp.h   ****     return y;
 596              		.loc 3 168 5 discriminator 2 view .LVU186
 597              	.LBE226:
 598              	.LBE244:
 180:./stmtemp.h   ****     {
 599              		.loc 3 180 5 is_stmt 0 discriminator 2 view .LVU187
 600 00de A0D1     		bne	.L23
 182:./stmtemp.h   ****         return 0.0f;
 601              		.loc 3 182 9 is_stmt 1 view .LVU188
 183:./stmtemp.h   ****     }
 602              		.loc 3 183 16 is_stmt 0 view .LVU189
 603 00e0 0023     		movs	r3, #0
 604              	.LVL43:
 182:./stmtemp.h   ****         return 0.0f;
 605              		.loc 3 182 12 view .LVU190
 606 00e2 45F8048C 		str	r8, [r5, #-4]	@ float
 607              	.LVL44:
 183:./stmtemp.h   ****     }
 608              		.loc 3 183 9 is_stmt 1 view .LVU191
 183:./stmtemp.h   ****     }
 609              		.loc 3 183 16 is_stmt 0 view .LVU192
 610 00e6 C5E7     		b	.L24
 611              	.LVL45:
 612              	.L32:
 202:./stmtemp.h   ****     }
 613              		.loc 3 202 50 view .LVU193
 614 00e8 67EEA67A 		vmul.f32	s15, s15, s13
ARM GAS  /tmp/ccoDtert.s 			page 37


 615              	.LVL46:
 202:./stmtemp.h   ****     }
 616              		.loc 3 202 66 view .LVU194
 617 00ec E7EEA35A 		vfma.f32	s11, s15, s7
 202:./stmtemp.h   ****     }
 618              		.loc 3 202 26 view .LVU195
 619 00f0 FCEEE55A 		vcvt.u32.f32	s11, s11
 202:./stmtemp.h   ****     }
 620              		.loc 3 202 15 view .LVU196
 621 00f4 15EE902A 		vmov	r2, s11	@ int
 622 00f8 33F81230 		ldrh	r3, [r3, r2, lsl #1]
 623              	.LVL47:
 202:./stmtemp.h   ****     }
 624              		.loc 3 202 15 view .LVU197
 625 00fc B3E7     		b	.L27
 626              	.LVL48:
 627              	.L21:
 202:./stmtemp.h   ****     }
 628              		.loc 3 202 15 view .LVU198
 629              	.LBE247:
 630              	.LBE250:
 631              	.LBE252:
 632              	.LBE253:
 123:dsp/pvoc/frame_transformation.cpp ****     }
 124:dsp/pvoc/frame_transformation.cpp **** }
 633              		.loc 1 124 1 view .LVU199
 634 00fe BDE8F081 		pop	{r4, r5, r6, r7, r8, pc}
 635              	.L35:
 636 0102 00BF     		.align	2
 637              	.L34:
 638 0104 00000000 		.word	atan_lut
 639 0108 00000044 		.word	1140850688
 640 010c DF59375F 		.word	1597463007
 641              		.cfi_endproc
 642              	.LFE4230:
 644              		.section	.text._ZN19FrameTransformation9SetPhasesEPfff,"ax",%progbits
 645              		.align	1
 646              		.p2align 2,,3
 647              		.global	_ZN19FrameTransformation9SetPhasesEPfff
 648              		.syntax unified
 649              		.thumb
 650              		.thumb_func
 651              		.fpu fpv5-d16
 653              	_ZN19FrameTransformation9SetPhasesEPfff:
 654              	.LVL49:
 655              	.LFB4231:
 125:dsp/pvoc/frame_transformation.cpp **** 
 126:dsp/pvoc/frame_transformation.cpp **** void FrameTransformation::SetPhases(float* destination,
 127:dsp/pvoc/frame_transformation.cpp ****                                     float  phase_randomization,
 128:dsp/pvoc/frame_transformation.cpp ****                                     float  pitch_ratio)
 129:dsp/pvoc/frame_transformation.cpp **** {
 656              		.loc 1 129 1 is_stmt 1 view -0
 657              		.cfi_startproc
 658              		@ args = 0, pretend = 0, frame = 0
 659              		@ frame_needed = 0, uses_anonymous_args = 0
 130:dsp/pvoc/frame_transformation.cpp ****     uint32_t* synthesis_phase = (uint32_t*)&destination[fft_size_ >> 1];
 660              		.loc 1 130 5 view .LVU201
ARM GAS  /tmp/ccoDtert.s 			page 38


 129:dsp/pvoc/frame_transformation.cpp ****     uint32_t* synthesis_phase = (uint32_t*)&destination[fft_size_ >> 1];
 661              		.loc 1 129 1 is_stmt 0 view .LVU202
 662 0000 F8B5     		push	{r3, r4, r5, r6, r7, lr}
 663              		.cfi_def_cfa_offset 24
 664              		.cfi_offset 3, -24
 665              		.cfi_offset 4, -20
 666              		.cfi_offset 5, -16
 667              		.cfi_offset 6, -12
 668              		.cfi_offset 7, -8
 669              		.cfi_offset 14, -4
 670              		.loc 1 130 67 view .LVU203
 671 0002 0468     		ldr	r4, [r0]
 129:dsp/pvoc/frame_transformation.cpp ****     uint32_t* synthesis_phase = (uint32_t*)&destination[fft_size_ >> 1];
 672              		.loc 1 129 1 view .LVU204
 673 0004 0546     		mov	r5, r0
 674              	.LBB254:
 131:dsp/pvoc/frame_transformation.cpp ****     for(int32_t i = 0; i < size_; ++i)
 675              		.loc 1 131 28 view .LVU205
 676 0006 8768     		ldr	r7, [r0, #8]
 677              	.LBE254:
 130:dsp/pvoc/frame_transformation.cpp ****     uint32_t* synthesis_phase = (uint32_t*)&destination[fft_size_ >> 1];
 678              		.loc 1 130 67 view .LVU206
 679 0008 6410     		asrs	r4, r4, #1
 680              	.LBB255:
 681              		.loc 1 131 26 view .LVU207
 682 000a 002F     		cmp	r7, #0
 683              	.LBE255:
 130:dsp/pvoc/frame_transformation.cpp ****     uint32_t* synthesis_phase = (uint32_t*)&destination[fft_size_ >> 1];
 684              		.loc 1 130 15 view .LVU208
 685 000c 01EB8401 		add	r1, r1, r4, lsl #2
 686              	.LVL50:
 687              		.loc 1 131 5 is_stmt 1 view .LVU209
 688              	.LBB256:
 689              		.loc 1 131 26 view .LVU210
 690 0010 44DD     		ble	.L37
 691 0012 826A     		ldr	r2, [r0, #40]
 692 0014 0E1F     		subs	r6, r1, #4
 693 0016 C46A     		ldr	r4, [r0, #44]
 694              		.loc 1 131 17 is_stmt 0 view .LVU211
 695 0018 0020     		movs	r0, #0
 696              	.LVL51:
 697              		.loc 1 131 17 view .LVU212
 698 001a 023A     		subs	r2, r2, #2
 699 001c 023C     		subs	r4, r4, #2
 700              	.LVL52:
 701              	.L38:
 132:dsp/pvoc/frame_transformation.cpp ****     {
 133:dsp/pvoc/frame_transformation.cpp ****         synthesis_phase[i] = phases_[i];
 702              		.loc 1 133 9 is_stmt 1 discriminator 2 view .LVU213
 134:dsp/pvoc/frame_transformation.cpp ****         phases_[i] += static_cast<uint16_t>(static_cast<float>(phases_delta_[i])
 703              		.loc 1 134 45 is_stmt 0 discriminator 2 view .LVU214
 704 001e 34F8023F 		ldrh	r3, [r4, #2]!
 131:dsp/pvoc/frame_transformation.cpp ****     for(int32_t i = 0; i < size_; ++i)
 705              		.loc 1 131 5 discriminator 2 view .LVU215
 706 0022 0130     		adds	r0, r0, #1
 707              	.LVL53:
 708              		.loc 1 134 45 discriminator 2 view .LVU216
ARM GAS  /tmp/ccoDtert.s 			page 39


 709 0024 07EE903A 		vmov	s15, r3	@ int
 133:dsp/pvoc/frame_transformation.cpp ****         phases_[i] += static_cast<uint16_t>(static_cast<float>(phases_delta_[i])
 710              		.loc 1 133 39 discriminator 2 view .LVU217
 711 0028 32F8023F 		ldrh	r3, [r2, #2]!
 712              		.loc 1 134 45 discriminator 2 view .LVU218
 713 002c F8EE677A 		vcvt.f32.u32	s15, s15
 133:dsp/pvoc/frame_transformation.cpp ****         phases_[i] += static_cast<uint16_t>(static_cast<float>(phases_delta_[i])
 714              		.loc 1 133 39 discriminator 2 view .LVU219
 715 0030 46F8043F 		str	r3, [r6, #4]!
 716              		.loc 1 134 9 is_stmt 1 discriminator 2 view .LVU220
 131:dsp/pvoc/frame_transformation.cpp ****     {
 717              		.loc 1 131 28 is_stmt 0 discriminator 2 view .LVU221
 718 0034 AF68     		ldr	r7, [r5, #8]
 135:dsp/pvoc/frame_transformation.cpp ****                                             * pitch_ratio);
 719              		.loc 1 135 45 discriminator 2 view .LVU222
 720 0036 67EEA07A 		vmul.f32	s15, s15, s1
 131:dsp/pvoc/frame_transformation.cpp ****     {
 721              		.loc 1 131 26 discriminator 2 view .LVU223
 722 003a 8742     		cmp	r7, r0
 134:dsp/pvoc/frame_transformation.cpp ****                                             * pitch_ratio);
 723              		.loc 1 134 23 discriminator 2 view .LVU224
 724 003c FCEEE77A 		vcvt.u32.f32	s15, s15
 134:dsp/pvoc/frame_transformation.cpp ****                                             * pitch_ratio);
 725              		.loc 1 134 20 discriminator 2 view .LVU225
 726 0040 17EE90CA 		vmov	ip, s15	@ int
 727 0044 6344     		add	r3, r3, ip
 728 0046 1380     		strh	r3, [r2]	@ movhi
 131:dsp/pvoc/frame_transformation.cpp ****     {
 729              		.loc 1 131 5 is_stmt 1 discriminator 2 view .LVU226
 730              	.LVL54:
 131:dsp/pvoc/frame_transformation.cpp ****     {
 731              		.loc 1 131 26 discriminator 2 view .LVU227
 732 0048 E9DC     		bgt	.L38
 733              	.LBE256:
 136:dsp/pvoc/frame_transformation.cpp ****     }
 137:dsp/pvoc/frame_transformation.cpp ****     float r = phase_randomization;
 734              		.loc 1 137 5 view .LVU228
 735              	.LVL55:
 138:dsp/pvoc/frame_transformation.cpp ****     r       = (r - 0.05f) * 1.06f;
 736              		.loc 1 138 5 view .LVU229
 737              		.loc 1 138 18 is_stmt 0 view .LVU230
 738 004a 9FED247A 		vldr.32	s14, .L48
 739              		.loc 1 138 13 view .LVU231
 740 004e DFED247A 		vldr.32	s15, .L48+4
 741              		.loc 1 138 18 view .LVU232
 742 0052 30EE470A 		vsub.f32	s0, s0, s14
 743              	.LVL56:
 744              		.loc 1 138 13 view .LVU233
 745 0056 60EE277A 		vmul.f32	s15, s0, s15
 746              	.LVL57:
 139:dsp/pvoc/frame_transformation.cpp ****     CONSTRAIN(r, 0.0f, 1.0f);
 747              		.loc 1 139 5 is_stmt 1 view .LVU234
 748 005a F5EEC07A 		vcmpe.f32	s15, #0
 749 005e F1EE10FA 		vmrs	APSR_nzcv, FPSCR
 750 0062 38D4     		bmi	.L44
 751              		.loc 1 139 5 discriminator 2 view .LVU235
 752 0064 B7EE007A 		vmov.f32	s14, #1.0e+0
ARM GAS  /tmp/ccoDtert.s 			page 40


 753 0068 F4EEC77A 		vcmpe.f32	s15, s14
 754 006c F1EE10FA 		vmrs	APSR_nzcv, FPSCR
 755 0070 28DD     		ble	.L43
 756 0072 4FF40046 		mov	r6, #32768
 757              	.LVL58:
 758              	.L39:
 759              		.loc 1 139 29 discriminator 6 view .LVU236
 140:dsp/pvoc/frame_transformation.cpp ****     r *= r;
 760              		.loc 1 140 5 discriminator 6 view .LVU237
 141:dsp/pvoc/frame_transformation.cpp ****     int32_t amount = static_cast<int32_t>(r * 32768.0f);
 761              		.loc 1 141 5 discriminator 6 view .LVU238
 142:dsp/pvoc/frame_transformation.cpp ****     for(int32_t i = 0; i < size_; ++i)
 762              		.loc 1 142 5 discriminator 6 view .LVU239
 763              	.LBB257:
 764              		.loc 1 142 26 discriminator 6 view .LVU240
 765 0076 002F     		cmp	r7, #0
 766 0078 0FDD     		ble	.L36
 767 007a 0C1F     		subs	r4, r1, #4
 768              		.loc 1 142 17 is_stmt 0 view .LVU241
 769 007c 0027     		movs	r7, #0
 770              	.LVL59:
 771              	.L42:
 143:dsp/pvoc/frame_transformation.cpp ****     {
 144:dsp/pvoc/frame_transformation.cpp ****         synthesis_phase[i]
 772              		.loc 1 144 9 is_stmt 1 discriminator 2 view .LVU242
 145:dsp/pvoc/frame_transformation.cpp ****             += static_cast<int32_t>(static_cast<int16_t>(rand() >> 16)) * amount
 773              		.loc 1 145 62 is_stmt 0 discriminator 2 view .LVU243
 774 007e FFF7FEFF 		bl	rand
 775              	.LVL60:
 776              		.loc 1 145 13 discriminator 2 view .LVU244
 777 0082 54F8042F 		ldr	r2, [r4, #4]!
 778              		.loc 1 145 65 discriminator 2 view .LVU245
 779 0086 0314     		asrs	r3, r0, #16
 142:dsp/pvoc/frame_transformation.cpp ****     for(int32_t i = 0; i < size_; ++i)
 780              		.loc 1 142 5 discriminator 2 view .LVU246
 781 0088 0137     		adds	r7, r7, #1
 782              	.LVL61:
 783              		.loc 1 145 73 discriminator 2 view .LVU247
 784 008a 06FB03F3 		mul	r3, r6, r3
 785              		.loc 1 145 13 discriminator 2 view .LVU248
 786 008e 02EBA333 		add	r3, r2, r3, asr #14
 787 0092 2360     		str	r3, [r4]
 142:dsp/pvoc/frame_transformation.cpp ****     for(int32_t i = 0; i < size_; ++i)
 788              		.loc 1 142 5 is_stmt 1 discriminator 2 view .LVU249
 789              	.LVL62:
 142:dsp/pvoc/frame_transformation.cpp ****     for(int32_t i = 0; i < size_; ++i)
 790              		.loc 1 142 26 discriminator 2 view .LVU250
 791 0094 AB68     		ldr	r3, [r5, #8]
 792 0096 BB42     		cmp	r3, r7
 793 0098 F1DC     		bgt	.L42
 794              	.LVL63:
 795              	.L36:
 142:dsp/pvoc/frame_transformation.cpp ****     for(int32_t i = 0; i < size_; ++i)
 796              		.loc 1 142 26 is_stmt 0 discriminator 2 view .LVU251
 797              	.LBE257:
 146:dsp/pvoc/frame_transformation.cpp ****                >> 14;
 147:dsp/pvoc/frame_transformation.cpp ****     }
ARM GAS  /tmp/ccoDtert.s 			page 41


 148:dsp/pvoc/frame_transformation.cpp **** }
 798              		.loc 1 148 1 view .LVU252
 799 009a F8BD     		pop	{r3, r4, r5, r6, r7, pc}
 800              	.LVL64:
 801              	.L37:
 137:dsp/pvoc/frame_transformation.cpp ****     r       = (r - 0.05f) * 1.06f;
 802              		.loc 1 137 5 is_stmt 1 view .LVU253
 138:dsp/pvoc/frame_transformation.cpp ****     CONSTRAIN(r, 0.0f, 1.0f);
 803              		.loc 1 138 5 view .LVU254
 138:dsp/pvoc/frame_transformation.cpp ****     CONSTRAIN(r, 0.0f, 1.0f);
 804              		.loc 1 138 18 is_stmt 0 view .LVU255
 805 009c 9FED0F7A 		vldr.32	s14, .L48
 138:dsp/pvoc/frame_transformation.cpp ****     CONSTRAIN(r, 0.0f, 1.0f);
 806              		.loc 1 138 13 view .LVU256
 807 00a0 DFED0F7A 		vldr.32	s15, .L48+4
 138:dsp/pvoc/frame_transformation.cpp ****     CONSTRAIN(r, 0.0f, 1.0f);
 808              		.loc 1 138 18 view .LVU257
 809 00a4 30EE470A 		vsub.f32	s0, s0, s14
 810              	.LVL65:
 138:dsp/pvoc/frame_transformation.cpp ****     CONSTRAIN(r, 0.0f, 1.0f);
 811              		.loc 1 138 13 view .LVU258
 812 00a8 60EE277A 		vmul.f32	s15, s0, s15
 813              	.LVL66:
 139:dsp/pvoc/frame_transformation.cpp ****     r *= r;
 814              		.loc 1 139 5 is_stmt 1 view .LVU259
 815 00ac F5EEC07A 		vcmpe.f32	s15, #0
 816 00b0 F1EE10FA 		vmrs	APSR_nzcv, FPSCR
 817 00b4 F1D4     		bmi	.L36
 139:dsp/pvoc/frame_transformation.cpp ****     r *= r;
 818              		.loc 1 139 5 view .LVU260
 819 00b6 B7EE007A 		vmov.f32	s14, #1.0e+0
 820 00ba F4EEC77A 		vcmpe.f32	s15, s14
 821 00be F1EE10FA 		vmrs	APSR_nzcv, FPSCR
 822 00c2 EADC     		bgt	.L36
 823              	.LVL67:
 824              	.L43:
 139:dsp/pvoc/frame_transformation.cpp ****     r *= r;
 825              		.loc 1 139 5 is_stmt 0 view .LVU261
 826 00c4 67EEA77A 		vmul.f32	s15, s15, s15
 827              	.LVL68:
 139:dsp/pvoc/frame_transformation.cpp ****     r *= r;
 828              		.loc 1 139 5 view .LVU262
 829 00c8 B0EE677A 		vmov.f32	s14, s15
 830 00cc BEEEE87A 		vcvt.s32.f32	s14, s14, #15
 831 00d0 17EE106A 		vmov	r6, s14	@ int
 832 00d4 CFE7     		b	.L39
 833              	.LVL69:
 834              	.L44:
 139:dsp/pvoc/frame_transformation.cpp ****     r *= r;
 835              		.loc 1 139 5 view .LVU263
 836 00d6 0026     		movs	r6, #0
 837 00d8 CDE7     		b	.L39
 838              	.L49:
 839 00da 00BF     		.align	2
 840              	.L48:
 841 00dc CDCC4C3D 		.word	1028443341
 842 00e0 14AE873F 		.word	1065856532
ARM GAS  /tmp/ccoDtert.s 			page 42


 843              		.cfi_endproc
 844              	.LFE4231:
 846              		.section	.text._ZN19FrameTransformation18PolarToRectangularEPf,"ax",%progbits
 847              		.align	1
 848              		.p2align 2,,3
 849              		.global	_ZN19FrameTransformation18PolarToRectangularEPf
 850              		.syntax unified
 851              		.thumb
 852              		.thumb_func
 853              		.fpu fpv5-d16
 855              	_ZN19FrameTransformation18PolarToRectangularEPf:
 856              	.LVL70:
 857              	.LFB4232:
 149:dsp/pvoc/frame_transformation.cpp **** 
 150:dsp/pvoc/frame_transformation.cpp **** void FrameTransformation::PolarToRectangular(float* fft_data)
 151:dsp/pvoc/frame_transformation.cpp **** {
 858              		.loc 1 151 1 is_stmt 1 view -0
 859              		.cfi_startproc
 860              		@ args = 0, pretend = 0, frame = 0
 861              		@ frame_needed = 0, uses_anonymous_args = 0
 152:dsp/pvoc/frame_transformation.cpp ****     float*    real      = &fft_data[0];
 862              		.loc 1 152 5 view .LVU265
 153:dsp/pvoc/frame_transformation.cpp ****     float*    imag      = &fft_data[fft_size_ >> 1];
 863              		.loc 1 153 5 view .LVU266
 151:dsp/pvoc/frame_transformation.cpp ****     float*    real      = &fft_data[0];
 864              		.loc 1 151 1 is_stmt 0 view .LVU267
 865 0000 F0B5     		push	{r4, r5, r6, r7, lr}
 866              		.cfi_def_cfa_offset 20
 867              		.cfi_offset 4, -20
 868              		.cfi_offset 5, -16
 869              		.cfi_offset 6, -12
 870              		.cfi_offset 7, -8
 871              		.cfi_offset 14, -4
 872              		.loc 1 153 47 view .LVU268
 873 0002 0768     		ldr	r7, [r0]
 874              	.LBB258:
 154:dsp/pvoc/frame_transformation.cpp ****     float*    magnitude = &fft_data[0];
 155:dsp/pvoc/frame_transformation.cpp ****     uint32_t* angle     = (uint32_t*)&fft_data[fft_size_ >> 1];
 156:dsp/pvoc/frame_transformation.cpp ****     for(int32_t i = 1; i < size_; ++i)
 875              		.loc 1 156 28 view .LVU269
 876 0004 8668     		ldr	r6, [r0, #8]
 877              	.LBE258:
 153:dsp/pvoc/frame_transformation.cpp ****     float*    magnitude = &fft_data[0];
 878              		.loc 1 153 47 view .LVU270
 879 0006 7F10     		asrs	r7, r7, #1
 880              	.LBB263:
 881              		.loc 1 156 26 view .LVU271
 882 0008 012E     		cmp	r6, #1
 883              	.LBE263:
 153:dsp/pvoc/frame_transformation.cpp ****     float*    magnitude = &fft_data[0];
 884              		.loc 1 153 51 view .LVU272
 885 000a 4FEA8704 		lsl	r4, r7, #2
 886              	.LVL71:
 154:dsp/pvoc/frame_transformation.cpp ****     float*    magnitude = &fft_data[0];
 887              		.loc 1 154 5 is_stmt 1 view .LVU273
 155:dsp/pvoc/frame_transformation.cpp ****     for(int32_t i = 1; i < size_; ++i)
 888              		.loc 1 155 5 view .LVU274
ARM GAS  /tmp/ccoDtert.s 			page 43


 889              		.loc 1 156 5 view .LVU275
 890              	.LBB264:
 891              		.loc 1 156 26 view .LVU276
 892 000e 1FDD     		ble	.L54
 893 0010 251D     		adds	r5, r4, #4
 894 0012 0A1D     		adds	r2, r1, #4
 895 0014 01EB860E 		add	lr, r1, r6, lsl #2
 896 0018 DFF858C0 		ldr	ip, .L61
 897 001c 0D44     		add	r5, r5, r1
 898              	.LVL72:
 899              	.L55:
 157:dsp/pvoc/frame_transformation.cpp ****     {
 158:dsp/pvoc/frame_transformation.cpp ****         fast_p2r(magnitude[i], angle[i], &real[i], &imag[i]);
 900              		.loc 1 158 9 discriminator 2 view .LVU277
 901              		.loc 1 158 39 is_stmt 0 discriminator 2 view .LVU278
 902 001e 2B68     		ldr	r3, [r5]
 903              		.loc 1 158 17 discriminator 2 view .LVU279
 904 0020 D2ED006A 		vldr.32	s13, [r2]
 905              	.LVL73:
 906              	.LBB259:
 907              	.LBI259:
 908              		.file 5 "dsp/pvoc/frame_transformation.h"
   1:dsp/pvoc/frame_transformation.h **** // Copyright 2014 Emilie Gillet.
   2:dsp/pvoc/frame_transformation.h **** //
   3:dsp/pvoc/frame_transformation.h **** // Author: Emilie Gillet (emilie.o.gillet@gmail.com)
   4:dsp/pvoc/frame_transformation.h **** //
   5:dsp/pvoc/frame_transformation.h **** // Permission is hereby granted, free of charge, to any person obtaining a copy
   6:dsp/pvoc/frame_transformation.h **** // of this software and associated documentation files (the "Software"), to deal
   7:dsp/pvoc/frame_transformation.h **** // in the Software without restriction, including without limitation the rights
   8:dsp/pvoc/frame_transformation.h **** // to use, copy, modify, merge, publish, distribute, sublicense, and/or sell
   9:dsp/pvoc/frame_transformation.h **** // copies of the Software, and to permit persons to whom the Software is
  10:dsp/pvoc/frame_transformation.h **** // furnished to do so, subject to the following conditions:
  11:dsp/pvoc/frame_transformation.h **** //
  12:dsp/pvoc/frame_transformation.h **** // The above copyright notice and this permission notice shall be included in
  13:dsp/pvoc/frame_transformation.h **** // all copies or substantial portions of the Software.
  14:dsp/pvoc/frame_transformation.h **** //
  15:dsp/pvoc/frame_transformation.h **** // THE SOFTWARE IS PROVIDED "AS IS", WITHOUT WARRANTY OF ANY KIND, EXPRESS OR
  16:dsp/pvoc/frame_transformation.h **** // IMPLIED, INCLUDING BUT NOT LIMITED TO THE WARRANTIES OF MERCHANTABILITY,
  17:dsp/pvoc/frame_transformation.h **** // FITNESS FOR A PARTICULAR PURPOSE AND NONINFRINGEMENT. IN NO EVENT SHALL THE
  18:dsp/pvoc/frame_transformation.h **** // AUTHORS OR COPYRIGHT HOLDERS BE LIABLE FOR ANY CLAIM, DAMAGES OR OTHER
  19:dsp/pvoc/frame_transformation.h **** // LIABILITY, WHETHER IN AN ACTION OF CONTRACT, TORT OR OTHERWISE, ARISING FROM,
  20:dsp/pvoc/frame_transformation.h **** // OUT OF OR IN CONNECTION WITH THE SOFTWARE OR THE USE OR OTHER DEALINGS IN
  21:dsp/pvoc/frame_transformation.h **** // THE SOFTWARE.
  22:dsp/pvoc/frame_transformation.h **** //
  23:dsp/pvoc/frame_transformation.h **** // See http://creativecommons.org/licenses/MIT/ for more information.
  24:dsp/pvoc/frame_transformation.h **** //
  25:dsp/pvoc/frame_transformation.h **** // -----------------------------------------------------------------------------
  26:dsp/pvoc/frame_transformation.h **** //
  27:dsp/pvoc/frame_transformation.h **** // Transformations applied to a single STFT slice.
  28:dsp/pvoc/frame_transformation.h **** 
  29:dsp/pvoc/frame_transformation.h **** #ifndef CLOUDS_DSP_PVOC_FRAME_TRANSFORMATION_H_
  30:dsp/pvoc/frame_transformation.h **** #define CLOUDS_DSP_PVOC_FRAME_TRANSFORMATION_H_
  31:dsp/pvoc/frame_transformation.h **** 
  32:dsp/pvoc/frame_transformation.h **** #include "resources.h"
  33:dsp/pvoc/frame_transformation.h **** 
  34:dsp/pvoc/frame_transformation.h **** const int32_t kMaxNumTextures          = 7;
  35:dsp/pvoc/frame_transformation.h **** const int32_t kHighFrequencyTruncation = 16;
ARM GAS  /tmp/ccoDtert.s 			page 44


  36:dsp/pvoc/frame_transformation.h **** 
  37:dsp/pvoc/frame_transformation.h **** struct Parameters;
  38:dsp/pvoc/frame_transformation.h **** 
  39:dsp/pvoc/frame_transformation.h **** class FrameTransformation
  40:dsp/pvoc/frame_transformation.h **** {
  41:dsp/pvoc/frame_transformation.h ****   public:
  42:dsp/pvoc/frame_transformation.h ****     FrameTransformation() {}
  43:dsp/pvoc/frame_transformation.h ****     ~FrameTransformation() {}
  44:dsp/pvoc/frame_transformation.h **** 
  45:dsp/pvoc/frame_transformation.h ****     void Init(float* buffer, int32_t fft_size, int32_t num_textures);
  46:dsp/pvoc/frame_transformation.h ****     void Reset();
  47:dsp/pvoc/frame_transformation.h **** 
  48:dsp/pvoc/frame_transformation.h ****     void Process(const Parameters& parameters, float* fft_out, float* ifft_in);
  49:dsp/pvoc/frame_transformation.h **** 
  50:dsp/pvoc/frame_transformation.h ****   private:
  51:dsp/pvoc/frame_transformation.h ****     void RectangularToPolar(float* fft_data);
  52:dsp/pvoc/frame_transformation.h ****     void PolarToRectangular(float* fft_data);
  53:dsp/pvoc/frame_transformation.h ****     void AddGlitch(float* xf_polar);
  54:dsp/pvoc/frame_transformation.h ****     void ShiftMagnitudes(float* source, float* xf_polar, float pitch_ratio);
  55:dsp/pvoc/frame_transformation.h ****     void WarpMagnitudes(float* source, float* xf_polar, float amount);
  56:dsp/pvoc/frame_transformation.h ****     void QuantizeMagnitudes(float* xf_polar, float amount);
  57:dsp/pvoc/frame_transformation.h ****     void StoreMagnitudes(float* xf_polar, float position, float feedback);
  58:dsp/pvoc/frame_transformation.h ****     void SetPhases(float* destination, float diffusion, float pitch_ratio);
  59:dsp/pvoc/frame_transformation.h ****     void ReplayMagnitudes(float* xf_polar, float position);
  60:dsp/pvoc/frame_transformation.h ****     void DiffuseMagnitudes(float* xf_polar, float diffusion);
  61:dsp/pvoc/frame_transformation.h **** 
  62:dsp/pvoc/frame_transformation.h ****     inline void fast_p2r(float magnitude, uint16_t angle, float* re, float* im)
 909              		.loc 5 62 17 is_stmt 1 discriminator 2 view .LVU280
 910              	.LBB260:
  63:dsp/pvoc/frame_transformation.h ****     {
  64:dsp/pvoc/frame_transformation.h ****         angle >>= 6;
 911              		.loc 5 64 9 discriminator 2 view .LVU281
 912              		.loc 5 64 15 is_stmt 0 discriminator 2 view .LVU282
 913 0024 C3F38913 		ubfx	r3, r3, #6, #10
 914              	.LVL74:
  65:dsp/pvoc/frame_transformation.h ****         *re = magnitude * lut_sin[angle + 256];
 915              		.loc 5 65 9 is_stmt 1 discriminator 2 view .LVU283
 916              		.loc 5 65 46 is_stmt 0 discriminator 2 view .LVU284
 917 0028 03F58070 		add	r0, r3, #256
  66:dsp/pvoc/frame_transformation.h ****         *im = magnitude * lut_sin[angle];
 918              		.loc 5 66 40 discriminator 2 view .LVU285
 919 002c 0CEB8303 		add	r3, ip, r3, lsl #2
 920              	.LVL75:
  65:dsp/pvoc/frame_transformation.h ****         *re = magnitude * lut_sin[angle + 256];
 921              		.loc 5 65 46 discriminator 2 view .LVU286
 922 0030 0CEB8000 		add	r0, ip, r0, lsl #2
 923              	.LVL76:
  65:dsp/pvoc/frame_transformation.h ****         *re = magnitude * lut_sin[angle + 256];
 924              		.loc 5 65 25 discriminator 2 view .LVU287
 925 0034 90ED007A 		vldr.32	s14, [r0]
 926 0038 27EE267A 		vmul.f32	s14, s14, s13
  65:dsp/pvoc/frame_transformation.h ****         *re = magnitude * lut_sin[angle + 256];
 927              		.loc 5 65 13 discriminator 2 view .LVU288
 928 003c A2EC017A 		vstmia.32	r2!, {s14}
 929              	.LVL77:
 930              		.loc 5 66 9 is_stmt 1 discriminator 2 view .LVU289
 931              	.LBE260:
ARM GAS  /tmp/ccoDtert.s 			page 45


 932              	.LBE259:
 156:dsp/pvoc/frame_transformation.cpp ****     {
 933              		.loc 1 156 26 is_stmt 0 discriminator 2 view .LVU290
 934 0040 7245     		cmp	r2, lr
 935              	.LBB262:
 936              	.LBB261:
 937              		.loc 5 66 25 discriminator 2 view .LVU291
 938 0042 D3ED007A 		vldr.32	s15, [r3]
 939 0046 67EEA67A 		vmul.f32	s15, s15, s13
 940              		.loc 5 66 13 discriminator 2 view .LVU292
 941 004a E5EC017A 		vstmia.32	r5!, {s15}
 942              	.LVL78:
 943              		.loc 5 66 13 discriminator 2 view .LVU293
 944              	.LBE261:
 945              	.LBE262:
 156:dsp/pvoc/frame_transformation.cpp ****     {
 946              		.loc 1 156 5 is_stmt 1 discriminator 2 view .LVU294
 156:dsp/pvoc/frame_transformation.cpp ****     {
 947              		.loc 1 156 26 discriminator 2 view .LVU295
 948 004e E6D1     		bne	.L55
 949              	.LVL79:
 950              	.L54:
 156:dsp/pvoc/frame_transformation.cpp ****     {
 951              		.loc 1 156 26 is_stmt 0 discriminator 2 view .LVU296
 952              	.LBE264:
 953              	.LBB265:
 159:dsp/pvoc/frame_transformation.cpp ****     }
 160:dsp/pvoc/frame_transformation.cpp ****     for(int32_t i = size_; i < (fft_size_ >> 1); ++i)
 954              		.loc 1 160 30 is_stmt 1 view .LVU297
 955 0050 B742     		cmp	r7, r6
 956 0052 0DDD     		ble	.L50
 957 0054 04EB8603 		add	r3, r4, r6, lsl #2
 958 0058 01EB8606 		add	r6, r1, r6, lsl #2
 959              	.LVL80:
 960              		.loc 1 160 30 is_stmt 0 view .LVU298
 961 005c 0B44     		add	r3, r3, r1
 962 005e 01EBC701 		add	r1, r1, r7, lsl #3
 963              	.LVL81:
 964              	.L56:
 161:dsp/pvoc/frame_transformation.cpp ****     {
 162:dsp/pvoc/frame_transformation.cpp ****         real[i] = imag[i] = 0.0f;
 965              		.loc 1 162 9 is_stmt 1 discriminator 2 view .LVU299
 966              		.loc 1 162 27 is_stmt 0 discriminator 2 view .LVU300
 967 0062 0022     		movs	r2, #0
 968 0064 43F8042B 		str	r2, [r3], #4	@ float
 160:dsp/pvoc/frame_transformation.cpp ****     {
 969              		.loc 1 160 30 discriminator 2 view .LVU301
 970 0068 8B42     		cmp	r3, r1
 971              		.loc 1 162 17 discriminator 2 view .LVU302
 972 006a 46F8042B 		str	r2, [r6], #4	@ float
 160:dsp/pvoc/frame_transformation.cpp ****     {
 973              		.loc 1 160 5 is_stmt 1 discriminator 2 view .LVU303
 160:dsp/pvoc/frame_transformation.cpp ****     {
 974              		.loc 1 160 30 discriminator 2 view .LVU304
 975 006e F8D1     		bne	.L56
 976              	.L50:
 160:dsp/pvoc/frame_transformation.cpp ****     {
ARM GAS  /tmp/ccoDtert.s 			page 46


 977              		.loc 1 160 30 is_stmt 0 discriminator 2 view .LVU305
 978              	.LBE265:
 163:dsp/pvoc/frame_transformation.cpp ****     }
 164:dsp/pvoc/frame_transformation.cpp **** }
 979              		.loc 1 164 1 view .LVU306
 980 0070 F0BD     		pop	{r4, r5, r6, r7, pc}
 981              	.LVL82:
 982              	.L62:
 983              		.loc 1 164 1 view .LVU307
 984 0072 00BF     		.align	2
 985              	.L61:
 986 0074 00000000 		.word	lut_sin
 987              		.cfi_endproc
 988              	.LFE4232:
 990              		.section	.text._ZN19FrameTransformation9AddGlitchEPf,"ax",%progbits
 991              		.align	1
 992              		.p2align 2,,3
 993              		.global	_ZN19FrameTransformation9AddGlitchEPf
 994              		.syntax unified
 995              		.thumb
 996              		.thumb_func
 997              		.fpu fpv5-d16
 999              	_ZN19FrameTransformation9AddGlitchEPf:
 1000              	.LVL83:
 1001              	.LFB4233:
 165:dsp/pvoc/frame_transformation.cpp **** 
 166:dsp/pvoc/frame_transformation.cpp **** void FrameTransformation::AddGlitch(float* xf_polar)
 167:dsp/pvoc/frame_transformation.cpp **** {
 1002              		.loc 1 167 1 is_stmt 1 view -0
 1003              		.cfi_startproc
 1004              		@ args = 0, pretend = 0, frame = 0
 1005              		@ frame_needed = 0, uses_anonymous_args = 0
 168:dsp/pvoc/frame_transformation.cpp ****     float* x = xf_polar;
 1006              		.loc 1 168 5 view .LVU309
 167:dsp/pvoc/frame_transformation.cpp ****     float* x = xf_polar;
 1007              		.loc 1 167 1 is_stmt 0 view .LVU310
 1008 0000 70B5     		push	{r4, r5, r6, lr}
 1009              		.cfi_def_cfa_offset 16
 1010              		.cfi_offset 4, -16
 1011              		.cfi_offset 5, -12
 1012              		.cfi_offset 6, -8
 1013              		.cfi_offset 14, -4
 1014 0002 2DED028B 		vpush.64	{d8}
 1015              		.cfi_def_cfa_offset 24
 1016              		.cfi_offset 80, -24
 1017              		.cfi_offset 81, -20
 1018 0006 90F93030 		ldrsb	r3, [r0, #48]
 167:dsp/pvoc/frame_transformation.cpp ****     float* x = xf_polar;
 1019              		.loc 1 167 1 view .LVU311
 1020 000a 0446     		mov	r4, r0
 1021 000c 0E46     		mov	r6, r1
 1022              	.LVL84:
 169:dsp/pvoc/frame_transformation.cpp ****     switch(glitch_algorithm_)
 1023              		.loc 1 169 5 is_stmt 1 view .LVU312
 1024 000e 032B     		cmp	r3, #3
 1025 0010 34D8     		bhi	.L63
 1026 0012 DFE803F0 		tbb	[pc, r3]
ARM GAS  /tmp/ccoDtert.s 			page 47


 1027              	.L66:
 1028 0016 82       		.byte	(.L69-.L66)/2
 1029 0017 51       		.byte	(.L68-.L66)/2
 1030 0018 02       		.byte	(.L67-.L66)/2
 1031 0019 36       		.byte	(.L65-.L66)/2
 1032              		.p2align 1
 1033              	.L67:
 1034              	.LBB266:
 1035              	.LBB267:
 170:dsp/pvoc/frame_transformation.cpp ****     {
 171:dsp/pvoc/frame_transformation.cpp ****         case 0:
 172:dsp/pvoc/frame_transformation.cpp ****             // Spectral hold and blow.
 173:dsp/pvoc/frame_transformation.cpp ****             {
 174:dsp/pvoc/frame_transformation.cpp ****                 // Create trails
 175:dsp/pvoc/frame_transformation.cpp ****                 float held = 0.0;
 176:dsp/pvoc/frame_transformation.cpp ****                 for(int32_t i = 0; i < size_; ++i)
 177:dsp/pvoc/frame_transformation.cpp ****                 {
 178:dsp/pvoc/frame_transformation.cpp ****                     if((static_cast<int16_t>(rand() >> 16) & 15) == 0)
 179:dsp/pvoc/frame_transformation.cpp ****                     {
 180:dsp/pvoc/frame_transformation.cpp ****                         held = x[i];
 181:dsp/pvoc/frame_transformation.cpp ****                     }
 182:dsp/pvoc/frame_transformation.cpp ****                     x[i] = held;
 183:dsp/pvoc/frame_transformation.cpp ****                     held = held * 1.01f;
 184:dsp/pvoc/frame_transformation.cpp ****                 }
 185:dsp/pvoc/frame_transformation.cpp ****             }
 186:dsp/pvoc/frame_transformation.cpp ****             break;
 187:dsp/pvoc/frame_transformation.cpp **** 
 188:dsp/pvoc/frame_transformation.cpp ****         case 1:
 189:dsp/pvoc/frame_transformation.cpp ****             // Spectral shift up with aliasing.
 190:dsp/pvoc/frame_transformation.cpp ****             {
 191:dsp/pvoc/frame_transformation.cpp ****                 float factor
 192:dsp/pvoc/frame_transformation.cpp ****                     = 1.0f + (static_cast<int16_t>(rand() >> 16) & 7) / 4.0f;
 193:dsp/pvoc/frame_transformation.cpp ****                 float source = 0.0f;
 194:dsp/pvoc/frame_transformation.cpp ****                 for(int32_t i = 0; i < size_; ++i)
 195:dsp/pvoc/frame_transformation.cpp ****                 {
 196:dsp/pvoc/frame_transformation.cpp ****                     source += factor;
 197:dsp/pvoc/frame_transformation.cpp ****                     if(source >= size_)
 198:dsp/pvoc/frame_transformation.cpp ****                     {
 199:dsp/pvoc/frame_transformation.cpp ****                         source = 0.0f;
 200:dsp/pvoc/frame_transformation.cpp ****                     }
 201:dsp/pvoc/frame_transformation.cpp ****                     x[i] = x[static_cast<int32_t>(source)];
 202:dsp/pvoc/frame_transformation.cpp ****                 }
 203:dsp/pvoc/frame_transformation.cpp ****             }
 204:dsp/pvoc/frame_transformation.cpp ****             break;
 205:dsp/pvoc/frame_transformation.cpp **** 
 206:dsp/pvoc/frame_transformation.cpp ****         case 2:
 1036              		.loc 1 206 9 view .LVU313
 207:dsp/pvoc/frame_transformation.cpp ****             // Kill largest harmonic and boost second largest.
 208:dsp/pvoc/frame_transformation.cpp ****             *std::max_element(&x[0], &x[size_]) = 0.0f;
 1037              		.loc 1 208 13 view .LVU314
 1038              		.loc 1 208 46 is_stmt 0 view .LVU315
 1039 001a 8568     		ldr	r5, [r0, #8]
 1040              		.loc 1 208 30 view .LVU316
 1041 001c 01EB8505 		add	r5, r1, r5, lsl #2
 1042              	.LVL85:
 1043              	.LBB268:
 1044              	.LBI268:
ARM GAS  /tmp/ccoDtert.s 			page 48


 1045              		.file 6 "/usr/include/newlib/c++/9.2.1/bits/stl_algo.h"
   1:/usr/include/newlib/c++/9.2.1/bits/stl_algo.h **** // Algorithm implementation -*- C++ -*-
   2:/usr/include/newlib/c++/9.2.1/bits/stl_algo.h **** 
   3:/usr/include/newlib/c++/9.2.1/bits/stl_algo.h **** // Copyright (C) 2001-2019 Free Software Foundation, Inc.
   4:/usr/include/newlib/c++/9.2.1/bits/stl_algo.h **** //
   5:/usr/include/newlib/c++/9.2.1/bits/stl_algo.h **** // This file is part of the GNU ISO C++ Library.  This library is free
   6:/usr/include/newlib/c++/9.2.1/bits/stl_algo.h **** // software; you can redistribute it and/or modify it under the
   7:/usr/include/newlib/c++/9.2.1/bits/stl_algo.h **** // terms of the GNU General Public License as published by the
   8:/usr/include/newlib/c++/9.2.1/bits/stl_algo.h **** // Free Software Foundation; either version 3, or (at your option)
   9:/usr/include/newlib/c++/9.2.1/bits/stl_algo.h **** // any later version.
  10:/usr/include/newlib/c++/9.2.1/bits/stl_algo.h **** 
  11:/usr/include/newlib/c++/9.2.1/bits/stl_algo.h **** // This library is distributed in the hope that it will be useful,
  12:/usr/include/newlib/c++/9.2.1/bits/stl_algo.h **** // but WITHOUT ANY WARRANTY; without even the implied warranty of
  13:/usr/include/newlib/c++/9.2.1/bits/stl_algo.h **** // MERCHANTABILITY or FITNESS FOR A PARTICULAR PURPOSE.  See the
  14:/usr/include/newlib/c++/9.2.1/bits/stl_algo.h **** // GNU General Public License for more details.
  15:/usr/include/newlib/c++/9.2.1/bits/stl_algo.h **** 
  16:/usr/include/newlib/c++/9.2.1/bits/stl_algo.h **** // Under Section 7 of GPL version 3, you are granted additional
  17:/usr/include/newlib/c++/9.2.1/bits/stl_algo.h **** // permissions described in the GCC Runtime Library Exception, version
  18:/usr/include/newlib/c++/9.2.1/bits/stl_algo.h **** // 3.1, as published by the Free Software Foundation.
  19:/usr/include/newlib/c++/9.2.1/bits/stl_algo.h **** 
  20:/usr/include/newlib/c++/9.2.1/bits/stl_algo.h **** // You should have received a copy of the GNU General Public License and
  21:/usr/include/newlib/c++/9.2.1/bits/stl_algo.h **** // a copy of the GCC Runtime Library Exception along with this program;
  22:/usr/include/newlib/c++/9.2.1/bits/stl_algo.h **** // see the files COPYING3 and COPYING.RUNTIME respectively.  If not, see
  23:/usr/include/newlib/c++/9.2.1/bits/stl_algo.h **** // <http://www.gnu.org/licenses/>.
  24:/usr/include/newlib/c++/9.2.1/bits/stl_algo.h **** 
  25:/usr/include/newlib/c++/9.2.1/bits/stl_algo.h **** /*
  26:/usr/include/newlib/c++/9.2.1/bits/stl_algo.h ****  *
  27:/usr/include/newlib/c++/9.2.1/bits/stl_algo.h ****  * Copyright (c) 1994
  28:/usr/include/newlib/c++/9.2.1/bits/stl_algo.h ****  * Hewlett-Packard Company
  29:/usr/include/newlib/c++/9.2.1/bits/stl_algo.h ****  *
  30:/usr/include/newlib/c++/9.2.1/bits/stl_algo.h ****  * Permission to use, copy, modify, distribute and sell this software
  31:/usr/include/newlib/c++/9.2.1/bits/stl_algo.h ****  * and its documentation for any purpose is hereby granted without fee,
  32:/usr/include/newlib/c++/9.2.1/bits/stl_algo.h ****  * provided that the above copyright notice appear in all copies and
  33:/usr/include/newlib/c++/9.2.1/bits/stl_algo.h ****  * that both that copyright notice and this permission notice appear
  34:/usr/include/newlib/c++/9.2.1/bits/stl_algo.h ****  * in supporting documentation.  Hewlett-Packard Company makes no
  35:/usr/include/newlib/c++/9.2.1/bits/stl_algo.h ****  * representations about the suitability of this software for any
  36:/usr/include/newlib/c++/9.2.1/bits/stl_algo.h ****  * purpose.  It is provided "as is" without express or implied warranty.
  37:/usr/include/newlib/c++/9.2.1/bits/stl_algo.h ****  *
  38:/usr/include/newlib/c++/9.2.1/bits/stl_algo.h ****  *
  39:/usr/include/newlib/c++/9.2.1/bits/stl_algo.h ****  * Copyright (c) 1996
  40:/usr/include/newlib/c++/9.2.1/bits/stl_algo.h ****  * Silicon Graphics Computer Systems, Inc.
  41:/usr/include/newlib/c++/9.2.1/bits/stl_algo.h ****  *
  42:/usr/include/newlib/c++/9.2.1/bits/stl_algo.h ****  * Permission to use, copy, modify, distribute and sell this software
  43:/usr/include/newlib/c++/9.2.1/bits/stl_algo.h ****  * and its documentation for any purpose is hereby granted without fee,
  44:/usr/include/newlib/c++/9.2.1/bits/stl_algo.h ****  * provided that the above copyright notice appear in all copies and
  45:/usr/include/newlib/c++/9.2.1/bits/stl_algo.h ****  * that both that copyright notice and this permission notice appear
  46:/usr/include/newlib/c++/9.2.1/bits/stl_algo.h ****  * in supporting documentation.  Silicon Graphics makes no
  47:/usr/include/newlib/c++/9.2.1/bits/stl_algo.h ****  * representations about the suitability of this software for any
  48:/usr/include/newlib/c++/9.2.1/bits/stl_algo.h ****  * purpose.  It is provided "as is" without express or implied warranty.
  49:/usr/include/newlib/c++/9.2.1/bits/stl_algo.h ****  */
  50:/usr/include/newlib/c++/9.2.1/bits/stl_algo.h **** 
  51:/usr/include/newlib/c++/9.2.1/bits/stl_algo.h **** /** @file bits/stl_algo.h
  52:/usr/include/newlib/c++/9.2.1/bits/stl_algo.h ****  *  This is an internal header file, included by other library headers.
  53:/usr/include/newlib/c++/9.2.1/bits/stl_algo.h ****  *  Do not attempt to use it directly. @headername{algorithm}
  54:/usr/include/newlib/c++/9.2.1/bits/stl_algo.h ****  */
  55:/usr/include/newlib/c++/9.2.1/bits/stl_algo.h **** 
  56:/usr/include/newlib/c++/9.2.1/bits/stl_algo.h **** #ifndef _STL_ALGO_H
ARM GAS  /tmp/ccoDtert.s 			page 49


  57:/usr/include/newlib/c++/9.2.1/bits/stl_algo.h **** #define _STL_ALGO_H 1
  58:/usr/include/newlib/c++/9.2.1/bits/stl_algo.h **** 
  59:/usr/include/newlib/c++/9.2.1/bits/stl_algo.h **** #include <cstdlib>	     // for rand
  60:/usr/include/newlib/c++/9.2.1/bits/stl_algo.h **** #include <bits/algorithmfwd.h>
  61:/usr/include/newlib/c++/9.2.1/bits/stl_algo.h **** #include <bits/stl_heap.h>
  62:/usr/include/newlib/c++/9.2.1/bits/stl_algo.h **** #include <bits/stl_tempbuf.h>  // for _Temporary_buffer
  63:/usr/include/newlib/c++/9.2.1/bits/stl_algo.h **** #include <bits/predefined_ops.h>
  64:/usr/include/newlib/c++/9.2.1/bits/stl_algo.h **** 
  65:/usr/include/newlib/c++/9.2.1/bits/stl_algo.h **** #if __cplusplus >= 201103L
  66:/usr/include/newlib/c++/9.2.1/bits/stl_algo.h **** #include <bits/uniform_int_dist.h>
  67:/usr/include/newlib/c++/9.2.1/bits/stl_algo.h **** #endif
  68:/usr/include/newlib/c++/9.2.1/bits/stl_algo.h **** 
  69:/usr/include/newlib/c++/9.2.1/bits/stl_algo.h **** // See concept_check.h for the __glibcxx_*_requires macros.
  70:/usr/include/newlib/c++/9.2.1/bits/stl_algo.h **** 
  71:/usr/include/newlib/c++/9.2.1/bits/stl_algo.h **** namespace std _GLIBCXX_VISIBILITY(default)
  72:/usr/include/newlib/c++/9.2.1/bits/stl_algo.h **** {
  73:/usr/include/newlib/c++/9.2.1/bits/stl_algo.h **** _GLIBCXX_BEGIN_NAMESPACE_VERSION
  74:/usr/include/newlib/c++/9.2.1/bits/stl_algo.h **** 
  75:/usr/include/newlib/c++/9.2.1/bits/stl_algo.h ****   /// Swaps the median value of *__a, *__b and *__c under __comp to *__result
  76:/usr/include/newlib/c++/9.2.1/bits/stl_algo.h ****   template<typename _Iterator, typename _Compare>
  77:/usr/include/newlib/c++/9.2.1/bits/stl_algo.h ****     void
  78:/usr/include/newlib/c++/9.2.1/bits/stl_algo.h ****     __move_median_to_first(_Iterator __result,_Iterator __a, _Iterator __b,
  79:/usr/include/newlib/c++/9.2.1/bits/stl_algo.h **** 			   _Iterator __c, _Compare __comp)
  80:/usr/include/newlib/c++/9.2.1/bits/stl_algo.h ****     {
  81:/usr/include/newlib/c++/9.2.1/bits/stl_algo.h ****       if (__comp(__a, __b))
  82:/usr/include/newlib/c++/9.2.1/bits/stl_algo.h **** 	{
  83:/usr/include/newlib/c++/9.2.1/bits/stl_algo.h **** 	  if (__comp(__b, __c))
  84:/usr/include/newlib/c++/9.2.1/bits/stl_algo.h **** 	    std::iter_swap(__result, __b);
  85:/usr/include/newlib/c++/9.2.1/bits/stl_algo.h **** 	  else if (__comp(__a, __c))
  86:/usr/include/newlib/c++/9.2.1/bits/stl_algo.h **** 	    std::iter_swap(__result, __c);
  87:/usr/include/newlib/c++/9.2.1/bits/stl_algo.h **** 	  else
  88:/usr/include/newlib/c++/9.2.1/bits/stl_algo.h **** 	    std::iter_swap(__result, __a);
  89:/usr/include/newlib/c++/9.2.1/bits/stl_algo.h **** 	}
  90:/usr/include/newlib/c++/9.2.1/bits/stl_algo.h ****       else if (__comp(__a, __c))
  91:/usr/include/newlib/c++/9.2.1/bits/stl_algo.h **** 	std::iter_swap(__result, __a);
  92:/usr/include/newlib/c++/9.2.1/bits/stl_algo.h ****       else if (__comp(__b, __c))
  93:/usr/include/newlib/c++/9.2.1/bits/stl_algo.h **** 	std::iter_swap(__result, __c);
  94:/usr/include/newlib/c++/9.2.1/bits/stl_algo.h ****       else
  95:/usr/include/newlib/c++/9.2.1/bits/stl_algo.h **** 	std::iter_swap(__result, __b);
  96:/usr/include/newlib/c++/9.2.1/bits/stl_algo.h ****     }
  97:/usr/include/newlib/c++/9.2.1/bits/stl_algo.h **** 
  98:/usr/include/newlib/c++/9.2.1/bits/stl_algo.h ****   /// This is an overload used by find algos for the Input Iterator case.
  99:/usr/include/newlib/c++/9.2.1/bits/stl_algo.h ****   template<typename _InputIterator, typename _Predicate>
 100:/usr/include/newlib/c++/9.2.1/bits/stl_algo.h ****     inline _InputIterator
 101:/usr/include/newlib/c++/9.2.1/bits/stl_algo.h ****     __find_if(_InputIterator __first, _InputIterator __last,
 102:/usr/include/newlib/c++/9.2.1/bits/stl_algo.h **** 	      _Predicate __pred, input_iterator_tag)
 103:/usr/include/newlib/c++/9.2.1/bits/stl_algo.h ****     {
 104:/usr/include/newlib/c++/9.2.1/bits/stl_algo.h ****       while (__first != __last && !__pred(__first))
 105:/usr/include/newlib/c++/9.2.1/bits/stl_algo.h **** 	++__first;
 106:/usr/include/newlib/c++/9.2.1/bits/stl_algo.h ****       return __first;
 107:/usr/include/newlib/c++/9.2.1/bits/stl_algo.h ****     }
 108:/usr/include/newlib/c++/9.2.1/bits/stl_algo.h **** 
 109:/usr/include/newlib/c++/9.2.1/bits/stl_algo.h ****   /// This is an overload used by find algos for the RAI case.
 110:/usr/include/newlib/c++/9.2.1/bits/stl_algo.h ****   template<typename _RandomAccessIterator, typename _Predicate>
 111:/usr/include/newlib/c++/9.2.1/bits/stl_algo.h ****     _RandomAccessIterator
 112:/usr/include/newlib/c++/9.2.1/bits/stl_algo.h ****     __find_if(_RandomAccessIterator __first, _RandomAccessIterator __last,
 113:/usr/include/newlib/c++/9.2.1/bits/stl_algo.h **** 	      _Predicate __pred, random_access_iterator_tag)
ARM GAS  /tmp/ccoDtert.s 			page 50


 114:/usr/include/newlib/c++/9.2.1/bits/stl_algo.h ****     {
 115:/usr/include/newlib/c++/9.2.1/bits/stl_algo.h ****       typename iterator_traits<_RandomAccessIterator>::difference_type
 116:/usr/include/newlib/c++/9.2.1/bits/stl_algo.h **** 	__trip_count = (__last - __first) >> 2;
 117:/usr/include/newlib/c++/9.2.1/bits/stl_algo.h **** 
 118:/usr/include/newlib/c++/9.2.1/bits/stl_algo.h ****       for (; __trip_count > 0; --__trip_count)
 119:/usr/include/newlib/c++/9.2.1/bits/stl_algo.h **** 	{
 120:/usr/include/newlib/c++/9.2.1/bits/stl_algo.h **** 	  if (__pred(__first))
 121:/usr/include/newlib/c++/9.2.1/bits/stl_algo.h **** 	    return __first;
 122:/usr/include/newlib/c++/9.2.1/bits/stl_algo.h **** 	  ++__first;
 123:/usr/include/newlib/c++/9.2.1/bits/stl_algo.h **** 
 124:/usr/include/newlib/c++/9.2.1/bits/stl_algo.h **** 	  if (__pred(__first))
 125:/usr/include/newlib/c++/9.2.1/bits/stl_algo.h **** 	    return __first;
 126:/usr/include/newlib/c++/9.2.1/bits/stl_algo.h **** 	  ++__first;
 127:/usr/include/newlib/c++/9.2.1/bits/stl_algo.h **** 
 128:/usr/include/newlib/c++/9.2.1/bits/stl_algo.h **** 	  if (__pred(__first))
 129:/usr/include/newlib/c++/9.2.1/bits/stl_algo.h **** 	    return __first;
 130:/usr/include/newlib/c++/9.2.1/bits/stl_algo.h **** 	  ++__first;
 131:/usr/include/newlib/c++/9.2.1/bits/stl_algo.h **** 
 132:/usr/include/newlib/c++/9.2.1/bits/stl_algo.h **** 	  if (__pred(__first))
 133:/usr/include/newlib/c++/9.2.1/bits/stl_algo.h **** 	    return __first;
 134:/usr/include/newlib/c++/9.2.1/bits/stl_algo.h **** 	  ++__first;
 135:/usr/include/newlib/c++/9.2.1/bits/stl_algo.h **** 	}
 136:/usr/include/newlib/c++/9.2.1/bits/stl_algo.h **** 
 137:/usr/include/newlib/c++/9.2.1/bits/stl_algo.h ****       switch (__last - __first)
 138:/usr/include/newlib/c++/9.2.1/bits/stl_algo.h **** 	{
 139:/usr/include/newlib/c++/9.2.1/bits/stl_algo.h **** 	case 3:
 140:/usr/include/newlib/c++/9.2.1/bits/stl_algo.h **** 	  if (__pred(__first))
 141:/usr/include/newlib/c++/9.2.1/bits/stl_algo.h **** 	    return __first;
 142:/usr/include/newlib/c++/9.2.1/bits/stl_algo.h **** 	  ++__first;
 143:/usr/include/newlib/c++/9.2.1/bits/stl_algo.h **** 	case 2:
 144:/usr/include/newlib/c++/9.2.1/bits/stl_algo.h **** 	  if (__pred(__first))
 145:/usr/include/newlib/c++/9.2.1/bits/stl_algo.h **** 	    return __first;
 146:/usr/include/newlib/c++/9.2.1/bits/stl_algo.h **** 	  ++__first;
 147:/usr/include/newlib/c++/9.2.1/bits/stl_algo.h **** 	case 1:
 148:/usr/include/newlib/c++/9.2.1/bits/stl_algo.h **** 	  if (__pred(__first))
 149:/usr/include/newlib/c++/9.2.1/bits/stl_algo.h **** 	    return __first;
 150:/usr/include/newlib/c++/9.2.1/bits/stl_algo.h **** 	  ++__first;
 151:/usr/include/newlib/c++/9.2.1/bits/stl_algo.h **** 	case 0:
 152:/usr/include/newlib/c++/9.2.1/bits/stl_algo.h **** 	default:
 153:/usr/include/newlib/c++/9.2.1/bits/stl_algo.h **** 	  return __last;
 154:/usr/include/newlib/c++/9.2.1/bits/stl_algo.h **** 	}
 155:/usr/include/newlib/c++/9.2.1/bits/stl_algo.h ****     }
 156:/usr/include/newlib/c++/9.2.1/bits/stl_algo.h **** 
 157:/usr/include/newlib/c++/9.2.1/bits/stl_algo.h ****   template<typename _Iterator, typename _Predicate>
 158:/usr/include/newlib/c++/9.2.1/bits/stl_algo.h ****     inline _Iterator
 159:/usr/include/newlib/c++/9.2.1/bits/stl_algo.h ****     __find_if(_Iterator __first, _Iterator __last, _Predicate __pred)
 160:/usr/include/newlib/c++/9.2.1/bits/stl_algo.h ****     {
 161:/usr/include/newlib/c++/9.2.1/bits/stl_algo.h ****       return __find_if(__first, __last, __pred,
 162:/usr/include/newlib/c++/9.2.1/bits/stl_algo.h **** 		       std::__iterator_category(__first));
 163:/usr/include/newlib/c++/9.2.1/bits/stl_algo.h ****     }
 164:/usr/include/newlib/c++/9.2.1/bits/stl_algo.h **** 
 165:/usr/include/newlib/c++/9.2.1/bits/stl_algo.h ****   /// Provided for stable_partition to use.
 166:/usr/include/newlib/c++/9.2.1/bits/stl_algo.h ****   template<typename _InputIterator, typename _Predicate>
 167:/usr/include/newlib/c++/9.2.1/bits/stl_algo.h ****     inline _InputIterator
 168:/usr/include/newlib/c++/9.2.1/bits/stl_algo.h ****     __find_if_not(_InputIterator __first, _InputIterator __last,
 169:/usr/include/newlib/c++/9.2.1/bits/stl_algo.h **** 		  _Predicate __pred)
 170:/usr/include/newlib/c++/9.2.1/bits/stl_algo.h ****     {
ARM GAS  /tmp/ccoDtert.s 			page 51


 171:/usr/include/newlib/c++/9.2.1/bits/stl_algo.h ****       return std::__find_if(__first, __last,
 172:/usr/include/newlib/c++/9.2.1/bits/stl_algo.h **** 			    __gnu_cxx::__ops::__negate(__pred),
 173:/usr/include/newlib/c++/9.2.1/bits/stl_algo.h **** 			    std::__iterator_category(__first));
 174:/usr/include/newlib/c++/9.2.1/bits/stl_algo.h ****     }
 175:/usr/include/newlib/c++/9.2.1/bits/stl_algo.h **** 
 176:/usr/include/newlib/c++/9.2.1/bits/stl_algo.h ****   /// Like find_if_not(), but uses and updates a count of the
 177:/usr/include/newlib/c++/9.2.1/bits/stl_algo.h ****   /// remaining range length instead of comparing against an end
 178:/usr/include/newlib/c++/9.2.1/bits/stl_algo.h ****   /// iterator.
 179:/usr/include/newlib/c++/9.2.1/bits/stl_algo.h ****   template<typename _InputIterator, typename _Predicate, typename _Distance>
 180:/usr/include/newlib/c++/9.2.1/bits/stl_algo.h ****     _InputIterator
 181:/usr/include/newlib/c++/9.2.1/bits/stl_algo.h ****     __find_if_not_n(_InputIterator __first, _Distance& __len, _Predicate __pred)
 182:/usr/include/newlib/c++/9.2.1/bits/stl_algo.h ****     {
 183:/usr/include/newlib/c++/9.2.1/bits/stl_algo.h ****       for (; __len; --__len,  (void) ++__first)
 184:/usr/include/newlib/c++/9.2.1/bits/stl_algo.h **** 	if (!__pred(__first))
 185:/usr/include/newlib/c++/9.2.1/bits/stl_algo.h **** 	  break;
 186:/usr/include/newlib/c++/9.2.1/bits/stl_algo.h ****       return __first;
 187:/usr/include/newlib/c++/9.2.1/bits/stl_algo.h ****     }
 188:/usr/include/newlib/c++/9.2.1/bits/stl_algo.h **** 
 189:/usr/include/newlib/c++/9.2.1/bits/stl_algo.h ****   // set_difference
 190:/usr/include/newlib/c++/9.2.1/bits/stl_algo.h ****   // set_intersection
 191:/usr/include/newlib/c++/9.2.1/bits/stl_algo.h ****   // set_symmetric_difference
 192:/usr/include/newlib/c++/9.2.1/bits/stl_algo.h ****   // set_union
 193:/usr/include/newlib/c++/9.2.1/bits/stl_algo.h ****   // for_each
 194:/usr/include/newlib/c++/9.2.1/bits/stl_algo.h ****   // find
 195:/usr/include/newlib/c++/9.2.1/bits/stl_algo.h ****   // find_if
 196:/usr/include/newlib/c++/9.2.1/bits/stl_algo.h ****   // find_first_of
 197:/usr/include/newlib/c++/9.2.1/bits/stl_algo.h ****   // adjacent_find
 198:/usr/include/newlib/c++/9.2.1/bits/stl_algo.h ****   // count
 199:/usr/include/newlib/c++/9.2.1/bits/stl_algo.h ****   // count_if
 200:/usr/include/newlib/c++/9.2.1/bits/stl_algo.h ****   // search
 201:/usr/include/newlib/c++/9.2.1/bits/stl_algo.h **** 
 202:/usr/include/newlib/c++/9.2.1/bits/stl_algo.h ****   template<typename _ForwardIterator1, typename _ForwardIterator2,
 203:/usr/include/newlib/c++/9.2.1/bits/stl_algo.h **** 	   typename _BinaryPredicate>
 204:/usr/include/newlib/c++/9.2.1/bits/stl_algo.h ****     _ForwardIterator1
 205:/usr/include/newlib/c++/9.2.1/bits/stl_algo.h ****     __search(_ForwardIterator1 __first1, _ForwardIterator1 __last1,
 206:/usr/include/newlib/c++/9.2.1/bits/stl_algo.h **** 	     _ForwardIterator2 __first2, _ForwardIterator2 __last2,
 207:/usr/include/newlib/c++/9.2.1/bits/stl_algo.h **** 	     _BinaryPredicate  __predicate)
 208:/usr/include/newlib/c++/9.2.1/bits/stl_algo.h ****     {
 209:/usr/include/newlib/c++/9.2.1/bits/stl_algo.h ****       // Test for empty ranges
 210:/usr/include/newlib/c++/9.2.1/bits/stl_algo.h ****       if (__first1 == __last1 || __first2 == __last2)
 211:/usr/include/newlib/c++/9.2.1/bits/stl_algo.h **** 	return __first1;
 212:/usr/include/newlib/c++/9.2.1/bits/stl_algo.h **** 
 213:/usr/include/newlib/c++/9.2.1/bits/stl_algo.h ****       // Test for a pattern of length 1.
 214:/usr/include/newlib/c++/9.2.1/bits/stl_algo.h ****       _ForwardIterator2 __p1(__first2);
 215:/usr/include/newlib/c++/9.2.1/bits/stl_algo.h ****       if (++__p1 == __last2)
 216:/usr/include/newlib/c++/9.2.1/bits/stl_algo.h **** 	return std::__find_if(__first1, __last1,
 217:/usr/include/newlib/c++/9.2.1/bits/stl_algo.h **** 		__gnu_cxx::__ops::__iter_comp_iter(__predicate, __first2));
 218:/usr/include/newlib/c++/9.2.1/bits/stl_algo.h **** 
 219:/usr/include/newlib/c++/9.2.1/bits/stl_algo.h ****       // General case.
 220:/usr/include/newlib/c++/9.2.1/bits/stl_algo.h ****       _ForwardIterator2 __p;
 221:/usr/include/newlib/c++/9.2.1/bits/stl_algo.h ****       _ForwardIterator1 __current = __first1;
 222:/usr/include/newlib/c++/9.2.1/bits/stl_algo.h **** 
 223:/usr/include/newlib/c++/9.2.1/bits/stl_algo.h ****       for (;;)
 224:/usr/include/newlib/c++/9.2.1/bits/stl_algo.h **** 	{
 225:/usr/include/newlib/c++/9.2.1/bits/stl_algo.h **** 	  __first1 =
 226:/usr/include/newlib/c++/9.2.1/bits/stl_algo.h **** 	    std::__find_if(__first1, __last1,
 227:/usr/include/newlib/c++/9.2.1/bits/stl_algo.h **** 		__gnu_cxx::__ops::__iter_comp_iter(__predicate, __first2));
ARM GAS  /tmp/ccoDtert.s 			page 52


 228:/usr/include/newlib/c++/9.2.1/bits/stl_algo.h **** 
 229:/usr/include/newlib/c++/9.2.1/bits/stl_algo.h **** 	  if (__first1 == __last1)
 230:/usr/include/newlib/c++/9.2.1/bits/stl_algo.h **** 	    return __last1;
 231:/usr/include/newlib/c++/9.2.1/bits/stl_algo.h **** 
 232:/usr/include/newlib/c++/9.2.1/bits/stl_algo.h **** 	  __p = __p1;
 233:/usr/include/newlib/c++/9.2.1/bits/stl_algo.h **** 	  __current = __first1;
 234:/usr/include/newlib/c++/9.2.1/bits/stl_algo.h **** 	  if (++__current == __last1)
 235:/usr/include/newlib/c++/9.2.1/bits/stl_algo.h **** 	    return __last1;
 236:/usr/include/newlib/c++/9.2.1/bits/stl_algo.h **** 
 237:/usr/include/newlib/c++/9.2.1/bits/stl_algo.h **** 	  while (__predicate(__current, __p))
 238:/usr/include/newlib/c++/9.2.1/bits/stl_algo.h **** 	    {
 239:/usr/include/newlib/c++/9.2.1/bits/stl_algo.h **** 	      if (++__p == __last2)
 240:/usr/include/newlib/c++/9.2.1/bits/stl_algo.h **** 		return __first1;
 241:/usr/include/newlib/c++/9.2.1/bits/stl_algo.h **** 	      if (++__current == __last1)
 242:/usr/include/newlib/c++/9.2.1/bits/stl_algo.h **** 		return __last1;
 243:/usr/include/newlib/c++/9.2.1/bits/stl_algo.h **** 	    }
 244:/usr/include/newlib/c++/9.2.1/bits/stl_algo.h **** 	  ++__first1;
 245:/usr/include/newlib/c++/9.2.1/bits/stl_algo.h **** 	}
 246:/usr/include/newlib/c++/9.2.1/bits/stl_algo.h ****       return __first1;
 247:/usr/include/newlib/c++/9.2.1/bits/stl_algo.h ****     }
 248:/usr/include/newlib/c++/9.2.1/bits/stl_algo.h **** 
 249:/usr/include/newlib/c++/9.2.1/bits/stl_algo.h ****   // search_n
 250:/usr/include/newlib/c++/9.2.1/bits/stl_algo.h **** 
 251:/usr/include/newlib/c++/9.2.1/bits/stl_algo.h ****   /**
 252:/usr/include/newlib/c++/9.2.1/bits/stl_algo.h ****    *  This is an helper function for search_n overloaded for forward iterators.
 253:/usr/include/newlib/c++/9.2.1/bits/stl_algo.h ****   */
 254:/usr/include/newlib/c++/9.2.1/bits/stl_algo.h ****   template<typename _ForwardIterator, typename _Integer,
 255:/usr/include/newlib/c++/9.2.1/bits/stl_algo.h **** 	   typename _UnaryPredicate>
 256:/usr/include/newlib/c++/9.2.1/bits/stl_algo.h ****     _ForwardIterator
 257:/usr/include/newlib/c++/9.2.1/bits/stl_algo.h ****     __search_n_aux(_ForwardIterator __first, _ForwardIterator __last,
 258:/usr/include/newlib/c++/9.2.1/bits/stl_algo.h **** 		   _Integer __count, _UnaryPredicate __unary_pred,
 259:/usr/include/newlib/c++/9.2.1/bits/stl_algo.h **** 		   std::forward_iterator_tag)
 260:/usr/include/newlib/c++/9.2.1/bits/stl_algo.h ****     {
 261:/usr/include/newlib/c++/9.2.1/bits/stl_algo.h ****       __first = std::__find_if(__first, __last, __unary_pred);
 262:/usr/include/newlib/c++/9.2.1/bits/stl_algo.h ****       while (__first != __last)
 263:/usr/include/newlib/c++/9.2.1/bits/stl_algo.h **** 	{
 264:/usr/include/newlib/c++/9.2.1/bits/stl_algo.h **** 	  typename iterator_traits<_ForwardIterator>::difference_type
 265:/usr/include/newlib/c++/9.2.1/bits/stl_algo.h **** 	    __n = __count;
 266:/usr/include/newlib/c++/9.2.1/bits/stl_algo.h **** 	  _ForwardIterator __i = __first;
 267:/usr/include/newlib/c++/9.2.1/bits/stl_algo.h **** 	  ++__i;
 268:/usr/include/newlib/c++/9.2.1/bits/stl_algo.h **** 	  while (__i != __last && __n != 1 && __unary_pred(__i))
 269:/usr/include/newlib/c++/9.2.1/bits/stl_algo.h **** 	    {
 270:/usr/include/newlib/c++/9.2.1/bits/stl_algo.h **** 	      ++__i;
 271:/usr/include/newlib/c++/9.2.1/bits/stl_algo.h **** 	      --__n;
 272:/usr/include/newlib/c++/9.2.1/bits/stl_algo.h **** 	    }
 273:/usr/include/newlib/c++/9.2.1/bits/stl_algo.h **** 	  if (__n == 1)
 274:/usr/include/newlib/c++/9.2.1/bits/stl_algo.h **** 	    return __first;
 275:/usr/include/newlib/c++/9.2.1/bits/stl_algo.h **** 	  if (__i == __last)
 276:/usr/include/newlib/c++/9.2.1/bits/stl_algo.h **** 	    return __last;
 277:/usr/include/newlib/c++/9.2.1/bits/stl_algo.h **** 	  __first = std::__find_if(++__i, __last, __unary_pred);
 278:/usr/include/newlib/c++/9.2.1/bits/stl_algo.h **** 	}
 279:/usr/include/newlib/c++/9.2.1/bits/stl_algo.h ****       return __last;
 280:/usr/include/newlib/c++/9.2.1/bits/stl_algo.h ****     }
 281:/usr/include/newlib/c++/9.2.1/bits/stl_algo.h **** 
 282:/usr/include/newlib/c++/9.2.1/bits/stl_algo.h ****   /**
 283:/usr/include/newlib/c++/9.2.1/bits/stl_algo.h ****    *  This is an helper function for search_n overloaded for random access
 284:/usr/include/newlib/c++/9.2.1/bits/stl_algo.h ****    *  iterators.
ARM GAS  /tmp/ccoDtert.s 			page 53


 285:/usr/include/newlib/c++/9.2.1/bits/stl_algo.h ****   */
 286:/usr/include/newlib/c++/9.2.1/bits/stl_algo.h ****   template<typename _RandomAccessIter, typename _Integer,
 287:/usr/include/newlib/c++/9.2.1/bits/stl_algo.h **** 	   typename _UnaryPredicate>
 288:/usr/include/newlib/c++/9.2.1/bits/stl_algo.h ****     _RandomAccessIter
 289:/usr/include/newlib/c++/9.2.1/bits/stl_algo.h ****     __search_n_aux(_RandomAccessIter __first, _RandomAccessIter __last,
 290:/usr/include/newlib/c++/9.2.1/bits/stl_algo.h **** 		   _Integer __count, _UnaryPredicate __unary_pred,
 291:/usr/include/newlib/c++/9.2.1/bits/stl_algo.h **** 		   std::random_access_iterator_tag)
 292:/usr/include/newlib/c++/9.2.1/bits/stl_algo.h ****     {
 293:/usr/include/newlib/c++/9.2.1/bits/stl_algo.h ****       typedef typename std::iterator_traits<_RandomAccessIter>::difference_type
 294:/usr/include/newlib/c++/9.2.1/bits/stl_algo.h **** 	_DistanceType;
 295:/usr/include/newlib/c++/9.2.1/bits/stl_algo.h **** 
 296:/usr/include/newlib/c++/9.2.1/bits/stl_algo.h ****       _DistanceType __tailSize = __last - __first;
 297:/usr/include/newlib/c++/9.2.1/bits/stl_algo.h ****       _DistanceType __remainder = __count;
 298:/usr/include/newlib/c++/9.2.1/bits/stl_algo.h **** 
 299:/usr/include/newlib/c++/9.2.1/bits/stl_algo.h ****       while (__remainder <= __tailSize) // the main loop...
 300:/usr/include/newlib/c++/9.2.1/bits/stl_algo.h **** 	{
 301:/usr/include/newlib/c++/9.2.1/bits/stl_algo.h **** 	  __first += __remainder;
 302:/usr/include/newlib/c++/9.2.1/bits/stl_algo.h **** 	  __tailSize -= __remainder;
 303:/usr/include/newlib/c++/9.2.1/bits/stl_algo.h **** 	  // __first here is always pointing to one past the last element of
 304:/usr/include/newlib/c++/9.2.1/bits/stl_algo.h **** 	  // next possible match.
 305:/usr/include/newlib/c++/9.2.1/bits/stl_algo.h **** 	  _RandomAccessIter __backTrack = __first; 
 306:/usr/include/newlib/c++/9.2.1/bits/stl_algo.h **** 	  while (__unary_pred(--__backTrack))
 307:/usr/include/newlib/c++/9.2.1/bits/stl_algo.h **** 	    {
 308:/usr/include/newlib/c++/9.2.1/bits/stl_algo.h **** 	      if (--__remainder == 0)
 309:/usr/include/newlib/c++/9.2.1/bits/stl_algo.h **** 		return (__first - __count); // Success
 310:/usr/include/newlib/c++/9.2.1/bits/stl_algo.h **** 	    }
 311:/usr/include/newlib/c++/9.2.1/bits/stl_algo.h **** 	  __remainder = __count + 1 - (__first - __backTrack);
 312:/usr/include/newlib/c++/9.2.1/bits/stl_algo.h **** 	}
 313:/usr/include/newlib/c++/9.2.1/bits/stl_algo.h ****       return __last; // Failure
 314:/usr/include/newlib/c++/9.2.1/bits/stl_algo.h ****     }
 315:/usr/include/newlib/c++/9.2.1/bits/stl_algo.h **** 
 316:/usr/include/newlib/c++/9.2.1/bits/stl_algo.h ****   template<typename _ForwardIterator, typename _Integer,
 317:/usr/include/newlib/c++/9.2.1/bits/stl_algo.h **** 	   typename _UnaryPredicate>
 318:/usr/include/newlib/c++/9.2.1/bits/stl_algo.h ****     _ForwardIterator
 319:/usr/include/newlib/c++/9.2.1/bits/stl_algo.h ****     __search_n(_ForwardIterator __first, _ForwardIterator __last,
 320:/usr/include/newlib/c++/9.2.1/bits/stl_algo.h **** 	       _Integer __count,
 321:/usr/include/newlib/c++/9.2.1/bits/stl_algo.h **** 	       _UnaryPredicate __unary_pred)
 322:/usr/include/newlib/c++/9.2.1/bits/stl_algo.h ****     {
 323:/usr/include/newlib/c++/9.2.1/bits/stl_algo.h ****       if (__count <= 0)
 324:/usr/include/newlib/c++/9.2.1/bits/stl_algo.h **** 	return __first;
 325:/usr/include/newlib/c++/9.2.1/bits/stl_algo.h **** 
 326:/usr/include/newlib/c++/9.2.1/bits/stl_algo.h ****       if (__count == 1)
 327:/usr/include/newlib/c++/9.2.1/bits/stl_algo.h **** 	return std::__find_if(__first, __last, __unary_pred);
 328:/usr/include/newlib/c++/9.2.1/bits/stl_algo.h **** 
 329:/usr/include/newlib/c++/9.2.1/bits/stl_algo.h ****       return std::__search_n_aux(__first, __last, __count, __unary_pred,
 330:/usr/include/newlib/c++/9.2.1/bits/stl_algo.h **** 				 std::__iterator_category(__first));
 331:/usr/include/newlib/c++/9.2.1/bits/stl_algo.h ****     }
 332:/usr/include/newlib/c++/9.2.1/bits/stl_algo.h **** 
 333:/usr/include/newlib/c++/9.2.1/bits/stl_algo.h ****   // find_end for forward iterators.
 334:/usr/include/newlib/c++/9.2.1/bits/stl_algo.h ****   template<typename _ForwardIterator1, typename _ForwardIterator2,
 335:/usr/include/newlib/c++/9.2.1/bits/stl_algo.h **** 	   typename _BinaryPredicate>
 336:/usr/include/newlib/c++/9.2.1/bits/stl_algo.h ****     _ForwardIterator1
 337:/usr/include/newlib/c++/9.2.1/bits/stl_algo.h ****     __find_end(_ForwardIterator1 __first1, _ForwardIterator1 __last1,
 338:/usr/include/newlib/c++/9.2.1/bits/stl_algo.h **** 	       _ForwardIterator2 __first2, _ForwardIterator2 __last2,
 339:/usr/include/newlib/c++/9.2.1/bits/stl_algo.h **** 	       forward_iterator_tag, forward_iterator_tag,
 340:/usr/include/newlib/c++/9.2.1/bits/stl_algo.h **** 	       _BinaryPredicate __comp)
 341:/usr/include/newlib/c++/9.2.1/bits/stl_algo.h ****     {
ARM GAS  /tmp/ccoDtert.s 			page 54


 342:/usr/include/newlib/c++/9.2.1/bits/stl_algo.h ****       if (__first2 == __last2)
 343:/usr/include/newlib/c++/9.2.1/bits/stl_algo.h **** 	return __last1;
 344:/usr/include/newlib/c++/9.2.1/bits/stl_algo.h **** 
 345:/usr/include/newlib/c++/9.2.1/bits/stl_algo.h ****       _ForwardIterator1 __result = __last1;
 346:/usr/include/newlib/c++/9.2.1/bits/stl_algo.h ****       while (1)
 347:/usr/include/newlib/c++/9.2.1/bits/stl_algo.h **** 	{
 348:/usr/include/newlib/c++/9.2.1/bits/stl_algo.h **** 	  _ForwardIterator1 __new_result
 349:/usr/include/newlib/c++/9.2.1/bits/stl_algo.h **** 	    = std::__search(__first1, __last1, __first2, __last2, __comp);
 350:/usr/include/newlib/c++/9.2.1/bits/stl_algo.h **** 	  if (__new_result == __last1)
 351:/usr/include/newlib/c++/9.2.1/bits/stl_algo.h **** 	    return __result;
 352:/usr/include/newlib/c++/9.2.1/bits/stl_algo.h **** 	  else
 353:/usr/include/newlib/c++/9.2.1/bits/stl_algo.h **** 	    {
 354:/usr/include/newlib/c++/9.2.1/bits/stl_algo.h **** 	      __result = __new_result;
 355:/usr/include/newlib/c++/9.2.1/bits/stl_algo.h **** 	      __first1 = __new_result;
 356:/usr/include/newlib/c++/9.2.1/bits/stl_algo.h **** 	      ++__first1;
 357:/usr/include/newlib/c++/9.2.1/bits/stl_algo.h **** 	    }
 358:/usr/include/newlib/c++/9.2.1/bits/stl_algo.h **** 	}
 359:/usr/include/newlib/c++/9.2.1/bits/stl_algo.h ****     }
 360:/usr/include/newlib/c++/9.2.1/bits/stl_algo.h **** 
 361:/usr/include/newlib/c++/9.2.1/bits/stl_algo.h ****   // find_end for bidirectional iterators (much faster).
 362:/usr/include/newlib/c++/9.2.1/bits/stl_algo.h ****   template<typename _BidirectionalIterator1, typename _BidirectionalIterator2,
 363:/usr/include/newlib/c++/9.2.1/bits/stl_algo.h **** 	   typename _BinaryPredicate>
 364:/usr/include/newlib/c++/9.2.1/bits/stl_algo.h ****     _BidirectionalIterator1
 365:/usr/include/newlib/c++/9.2.1/bits/stl_algo.h ****     __find_end(_BidirectionalIterator1 __first1,
 366:/usr/include/newlib/c++/9.2.1/bits/stl_algo.h **** 	       _BidirectionalIterator1 __last1,
 367:/usr/include/newlib/c++/9.2.1/bits/stl_algo.h **** 	       _BidirectionalIterator2 __first2,
 368:/usr/include/newlib/c++/9.2.1/bits/stl_algo.h **** 	       _BidirectionalIterator2 __last2,
 369:/usr/include/newlib/c++/9.2.1/bits/stl_algo.h **** 	       bidirectional_iterator_tag, bidirectional_iterator_tag,
 370:/usr/include/newlib/c++/9.2.1/bits/stl_algo.h **** 	       _BinaryPredicate __comp)
 371:/usr/include/newlib/c++/9.2.1/bits/stl_algo.h ****     {
 372:/usr/include/newlib/c++/9.2.1/bits/stl_algo.h ****       // concept requirements
 373:/usr/include/newlib/c++/9.2.1/bits/stl_algo.h ****       __glibcxx_function_requires(_BidirectionalIteratorConcept<
 374:/usr/include/newlib/c++/9.2.1/bits/stl_algo.h **** 				  _BidirectionalIterator1>)
 375:/usr/include/newlib/c++/9.2.1/bits/stl_algo.h ****       __glibcxx_function_requires(_BidirectionalIteratorConcept<
 376:/usr/include/newlib/c++/9.2.1/bits/stl_algo.h **** 				  _BidirectionalIterator2>)
 377:/usr/include/newlib/c++/9.2.1/bits/stl_algo.h **** 
 378:/usr/include/newlib/c++/9.2.1/bits/stl_algo.h ****       typedef reverse_iterator<_BidirectionalIterator1> _RevIterator1;
 379:/usr/include/newlib/c++/9.2.1/bits/stl_algo.h ****       typedef reverse_iterator<_BidirectionalIterator2> _RevIterator2;
 380:/usr/include/newlib/c++/9.2.1/bits/stl_algo.h **** 
 381:/usr/include/newlib/c++/9.2.1/bits/stl_algo.h ****       _RevIterator1 __rlast1(__first1);
 382:/usr/include/newlib/c++/9.2.1/bits/stl_algo.h ****       _RevIterator2 __rlast2(__first2);
 383:/usr/include/newlib/c++/9.2.1/bits/stl_algo.h ****       _RevIterator1 __rresult = std::__search(_RevIterator1(__last1), __rlast1,
 384:/usr/include/newlib/c++/9.2.1/bits/stl_algo.h **** 					      _RevIterator2(__last2), __rlast2,
 385:/usr/include/newlib/c++/9.2.1/bits/stl_algo.h **** 					      __comp);
 386:/usr/include/newlib/c++/9.2.1/bits/stl_algo.h **** 
 387:/usr/include/newlib/c++/9.2.1/bits/stl_algo.h ****       if (__rresult == __rlast1)
 388:/usr/include/newlib/c++/9.2.1/bits/stl_algo.h **** 	return __last1;
 389:/usr/include/newlib/c++/9.2.1/bits/stl_algo.h ****       else
 390:/usr/include/newlib/c++/9.2.1/bits/stl_algo.h **** 	{
 391:/usr/include/newlib/c++/9.2.1/bits/stl_algo.h **** 	  _BidirectionalIterator1 __result = __rresult.base();
 392:/usr/include/newlib/c++/9.2.1/bits/stl_algo.h **** 	  std::advance(__result, -std::distance(__first2, __last2));
 393:/usr/include/newlib/c++/9.2.1/bits/stl_algo.h **** 	  return __result;
 394:/usr/include/newlib/c++/9.2.1/bits/stl_algo.h **** 	}
 395:/usr/include/newlib/c++/9.2.1/bits/stl_algo.h ****     }
 396:/usr/include/newlib/c++/9.2.1/bits/stl_algo.h **** 
 397:/usr/include/newlib/c++/9.2.1/bits/stl_algo.h ****   /**
 398:/usr/include/newlib/c++/9.2.1/bits/stl_algo.h ****    *  @brief  Find last matching subsequence in a sequence.
ARM GAS  /tmp/ccoDtert.s 			page 55


 399:/usr/include/newlib/c++/9.2.1/bits/stl_algo.h ****    *  @ingroup non_mutating_algorithms
 400:/usr/include/newlib/c++/9.2.1/bits/stl_algo.h ****    *  @param  __first1  Start of range to search.
 401:/usr/include/newlib/c++/9.2.1/bits/stl_algo.h ****    *  @param  __last1   End of range to search.
 402:/usr/include/newlib/c++/9.2.1/bits/stl_algo.h ****    *  @param  __first2  Start of sequence to match.
 403:/usr/include/newlib/c++/9.2.1/bits/stl_algo.h ****    *  @param  __last2   End of sequence to match.
 404:/usr/include/newlib/c++/9.2.1/bits/stl_algo.h ****    *  @return   The last iterator @c i in the range
 405:/usr/include/newlib/c++/9.2.1/bits/stl_algo.h ****    *  @p [__first1,__last1-(__last2-__first2)) such that @c *(i+N) ==
 406:/usr/include/newlib/c++/9.2.1/bits/stl_algo.h ****    *  @p *(__first2+N) for each @c N in the range @p
 407:/usr/include/newlib/c++/9.2.1/bits/stl_algo.h ****    *  [0,__last2-__first2), or @p __last1 if no such iterator exists.
 408:/usr/include/newlib/c++/9.2.1/bits/stl_algo.h ****    *
 409:/usr/include/newlib/c++/9.2.1/bits/stl_algo.h ****    *  Searches the range @p [__first1,__last1) for a sub-sequence that
 410:/usr/include/newlib/c++/9.2.1/bits/stl_algo.h ****    *  compares equal value-by-value with the sequence given by @p
 411:/usr/include/newlib/c++/9.2.1/bits/stl_algo.h ****    *  [__first2,__last2) and returns an iterator to the __first
 412:/usr/include/newlib/c++/9.2.1/bits/stl_algo.h ****    *  element of the sub-sequence, or @p __last1 if the sub-sequence
 413:/usr/include/newlib/c++/9.2.1/bits/stl_algo.h ****    *  is not found.  The sub-sequence will be the last such
 414:/usr/include/newlib/c++/9.2.1/bits/stl_algo.h ****    *  subsequence contained in [__first1,__last1).
 415:/usr/include/newlib/c++/9.2.1/bits/stl_algo.h ****    *
 416:/usr/include/newlib/c++/9.2.1/bits/stl_algo.h ****    *  Because the sub-sequence must lie completely within the range @p
 417:/usr/include/newlib/c++/9.2.1/bits/stl_algo.h ****    *  [__first1,__last1) it must start at a position less than @p
 418:/usr/include/newlib/c++/9.2.1/bits/stl_algo.h ****    *  __last1-(__last2-__first2) where @p __last2-__first2 is the
 419:/usr/include/newlib/c++/9.2.1/bits/stl_algo.h ****    *  length of the sub-sequence.  This means that the returned
 420:/usr/include/newlib/c++/9.2.1/bits/stl_algo.h ****    *  iterator @c i will be in the range @p
 421:/usr/include/newlib/c++/9.2.1/bits/stl_algo.h ****    *  [__first1,__last1-(__last2-__first2))
 422:/usr/include/newlib/c++/9.2.1/bits/stl_algo.h ****   */
 423:/usr/include/newlib/c++/9.2.1/bits/stl_algo.h ****   template<typename _ForwardIterator1, typename _ForwardIterator2>
 424:/usr/include/newlib/c++/9.2.1/bits/stl_algo.h ****     inline _ForwardIterator1
 425:/usr/include/newlib/c++/9.2.1/bits/stl_algo.h ****     find_end(_ForwardIterator1 __first1, _ForwardIterator1 __last1,
 426:/usr/include/newlib/c++/9.2.1/bits/stl_algo.h **** 	     _ForwardIterator2 __first2, _ForwardIterator2 __last2)
 427:/usr/include/newlib/c++/9.2.1/bits/stl_algo.h ****     {
 428:/usr/include/newlib/c++/9.2.1/bits/stl_algo.h ****       // concept requirements
 429:/usr/include/newlib/c++/9.2.1/bits/stl_algo.h ****       __glibcxx_function_requires(_ForwardIteratorConcept<_ForwardIterator1>)
 430:/usr/include/newlib/c++/9.2.1/bits/stl_algo.h ****       __glibcxx_function_requires(_ForwardIteratorConcept<_ForwardIterator2>)
 431:/usr/include/newlib/c++/9.2.1/bits/stl_algo.h ****       __glibcxx_function_requires(_EqualOpConcept<
 432:/usr/include/newlib/c++/9.2.1/bits/stl_algo.h **** 	    typename iterator_traits<_ForwardIterator1>::value_type,
 433:/usr/include/newlib/c++/9.2.1/bits/stl_algo.h **** 	    typename iterator_traits<_ForwardIterator2>::value_type>)
 434:/usr/include/newlib/c++/9.2.1/bits/stl_algo.h ****       __glibcxx_requires_valid_range(__first1, __last1);
 435:/usr/include/newlib/c++/9.2.1/bits/stl_algo.h ****       __glibcxx_requires_valid_range(__first2, __last2);
 436:/usr/include/newlib/c++/9.2.1/bits/stl_algo.h **** 
 437:/usr/include/newlib/c++/9.2.1/bits/stl_algo.h ****       return std::__find_end(__first1, __last1, __first2, __last2,
 438:/usr/include/newlib/c++/9.2.1/bits/stl_algo.h **** 			     std::__iterator_category(__first1),
 439:/usr/include/newlib/c++/9.2.1/bits/stl_algo.h **** 			     std::__iterator_category(__first2),
 440:/usr/include/newlib/c++/9.2.1/bits/stl_algo.h **** 			     __gnu_cxx::__ops::__iter_equal_to_iter());
 441:/usr/include/newlib/c++/9.2.1/bits/stl_algo.h ****     }
 442:/usr/include/newlib/c++/9.2.1/bits/stl_algo.h **** 
 443:/usr/include/newlib/c++/9.2.1/bits/stl_algo.h ****   /**
 444:/usr/include/newlib/c++/9.2.1/bits/stl_algo.h ****    *  @brief  Find last matching subsequence in a sequence using a predicate.
 445:/usr/include/newlib/c++/9.2.1/bits/stl_algo.h ****    *  @ingroup non_mutating_algorithms
 446:/usr/include/newlib/c++/9.2.1/bits/stl_algo.h ****    *  @param  __first1  Start of range to search.
 447:/usr/include/newlib/c++/9.2.1/bits/stl_algo.h ****    *  @param  __last1   End of range to search.
 448:/usr/include/newlib/c++/9.2.1/bits/stl_algo.h ****    *  @param  __first2  Start of sequence to match.
 449:/usr/include/newlib/c++/9.2.1/bits/stl_algo.h ****    *  @param  __last2   End of sequence to match.
 450:/usr/include/newlib/c++/9.2.1/bits/stl_algo.h ****    *  @param  __comp    The predicate to use.
 451:/usr/include/newlib/c++/9.2.1/bits/stl_algo.h ****    *  @return The last iterator @c i in the range @p
 452:/usr/include/newlib/c++/9.2.1/bits/stl_algo.h ****    *  [__first1,__last1-(__last2-__first2)) such that @c
 453:/usr/include/newlib/c++/9.2.1/bits/stl_algo.h ****    *  predicate(*(i+N), @p (__first2+N)) is true for each @c N in the
 454:/usr/include/newlib/c++/9.2.1/bits/stl_algo.h ****    *  range @p [0,__last2-__first2), or @p __last1 if no such iterator
 455:/usr/include/newlib/c++/9.2.1/bits/stl_algo.h ****    *  exists.
ARM GAS  /tmp/ccoDtert.s 			page 56


 456:/usr/include/newlib/c++/9.2.1/bits/stl_algo.h ****    *
 457:/usr/include/newlib/c++/9.2.1/bits/stl_algo.h ****    *  Searches the range @p [__first1,__last1) for a sub-sequence that
 458:/usr/include/newlib/c++/9.2.1/bits/stl_algo.h ****    *  compares equal value-by-value with the sequence given by @p
 459:/usr/include/newlib/c++/9.2.1/bits/stl_algo.h ****    *  [__first2,__last2) using comp as a predicate and returns an
 460:/usr/include/newlib/c++/9.2.1/bits/stl_algo.h ****    *  iterator to the first element of the sub-sequence, or @p __last1
 461:/usr/include/newlib/c++/9.2.1/bits/stl_algo.h ****    *  if the sub-sequence is not found.  The sub-sequence will be the
 462:/usr/include/newlib/c++/9.2.1/bits/stl_algo.h ****    *  last such subsequence contained in [__first,__last1).
 463:/usr/include/newlib/c++/9.2.1/bits/stl_algo.h ****    *
 464:/usr/include/newlib/c++/9.2.1/bits/stl_algo.h ****    *  Because the sub-sequence must lie completely within the range @p
 465:/usr/include/newlib/c++/9.2.1/bits/stl_algo.h ****    *  [__first1,__last1) it must start at a position less than @p
 466:/usr/include/newlib/c++/9.2.1/bits/stl_algo.h ****    *  __last1-(__last2-__first2) where @p __last2-__first2 is the
 467:/usr/include/newlib/c++/9.2.1/bits/stl_algo.h ****    *  length of the sub-sequence.  This means that the returned
 468:/usr/include/newlib/c++/9.2.1/bits/stl_algo.h ****    *  iterator @c i will be in the range @p
 469:/usr/include/newlib/c++/9.2.1/bits/stl_algo.h ****    *  [__first1,__last1-(__last2-__first2))
 470:/usr/include/newlib/c++/9.2.1/bits/stl_algo.h ****   */
 471:/usr/include/newlib/c++/9.2.1/bits/stl_algo.h ****   template<typename _ForwardIterator1, typename _ForwardIterator2,
 472:/usr/include/newlib/c++/9.2.1/bits/stl_algo.h **** 	   typename _BinaryPredicate>
 473:/usr/include/newlib/c++/9.2.1/bits/stl_algo.h ****     inline _ForwardIterator1
 474:/usr/include/newlib/c++/9.2.1/bits/stl_algo.h ****     find_end(_ForwardIterator1 __first1, _ForwardIterator1 __last1,
 475:/usr/include/newlib/c++/9.2.1/bits/stl_algo.h **** 	     _ForwardIterator2 __first2, _ForwardIterator2 __last2,
 476:/usr/include/newlib/c++/9.2.1/bits/stl_algo.h **** 	     _BinaryPredicate __comp)
 477:/usr/include/newlib/c++/9.2.1/bits/stl_algo.h ****     {
 478:/usr/include/newlib/c++/9.2.1/bits/stl_algo.h ****       // concept requirements
 479:/usr/include/newlib/c++/9.2.1/bits/stl_algo.h ****       __glibcxx_function_requires(_ForwardIteratorConcept<_ForwardIterator1>)
 480:/usr/include/newlib/c++/9.2.1/bits/stl_algo.h ****       __glibcxx_function_requires(_ForwardIteratorConcept<_ForwardIterator2>)
 481:/usr/include/newlib/c++/9.2.1/bits/stl_algo.h ****       __glibcxx_function_requires(_BinaryPredicateConcept<_BinaryPredicate,
 482:/usr/include/newlib/c++/9.2.1/bits/stl_algo.h **** 	    typename iterator_traits<_ForwardIterator1>::value_type,
 483:/usr/include/newlib/c++/9.2.1/bits/stl_algo.h **** 	    typename iterator_traits<_ForwardIterator2>::value_type>)
 484:/usr/include/newlib/c++/9.2.1/bits/stl_algo.h ****       __glibcxx_requires_valid_range(__first1, __last1);
 485:/usr/include/newlib/c++/9.2.1/bits/stl_algo.h ****       __glibcxx_requires_valid_range(__first2, __last2);
 486:/usr/include/newlib/c++/9.2.1/bits/stl_algo.h **** 
 487:/usr/include/newlib/c++/9.2.1/bits/stl_algo.h ****       return std::__find_end(__first1, __last1, __first2, __last2,
 488:/usr/include/newlib/c++/9.2.1/bits/stl_algo.h **** 			     std::__iterator_category(__first1),
 489:/usr/include/newlib/c++/9.2.1/bits/stl_algo.h **** 			     std::__iterator_category(__first2),
 490:/usr/include/newlib/c++/9.2.1/bits/stl_algo.h **** 			     __gnu_cxx::__ops::__iter_comp_iter(__comp));
 491:/usr/include/newlib/c++/9.2.1/bits/stl_algo.h ****     }
 492:/usr/include/newlib/c++/9.2.1/bits/stl_algo.h **** 
 493:/usr/include/newlib/c++/9.2.1/bits/stl_algo.h **** #if __cplusplus >= 201103L
 494:/usr/include/newlib/c++/9.2.1/bits/stl_algo.h ****   /**
 495:/usr/include/newlib/c++/9.2.1/bits/stl_algo.h ****    *  @brief  Checks that a predicate is true for all the elements
 496:/usr/include/newlib/c++/9.2.1/bits/stl_algo.h ****    *          of a sequence.
 497:/usr/include/newlib/c++/9.2.1/bits/stl_algo.h ****    *  @ingroup non_mutating_algorithms
 498:/usr/include/newlib/c++/9.2.1/bits/stl_algo.h ****    *  @param  __first   An input iterator.
 499:/usr/include/newlib/c++/9.2.1/bits/stl_algo.h ****    *  @param  __last    An input iterator.
 500:/usr/include/newlib/c++/9.2.1/bits/stl_algo.h ****    *  @param  __pred    A predicate.
 501:/usr/include/newlib/c++/9.2.1/bits/stl_algo.h ****    *  @return  True if the check is true, false otherwise.
 502:/usr/include/newlib/c++/9.2.1/bits/stl_algo.h ****    *
 503:/usr/include/newlib/c++/9.2.1/bits/stl_algo.h ****    *  Returns true if @p __pred is true for each element in the range
 504:/usr/include/newlib/c++/9.2.1/bits/stl_algo.h ****    *  @p [__first,__last), and false otherwise.
 505:/usr/include/newlib/c++/9.2.1/bits/stl_algo.h ****   */
 506:/usr/include/newlib/c++/9.2.1/bits/stl_algo.h ****   template<typename _InputIterator, typename _Predicate>
 507:/usr/include/newlib/c++/9.2.1/bits/stl_algo.h ****     inline bool
 508:/usr/include/newlib/c++/9.2.1/bits/stl_algo.h ****     all_of(_InputIterator __first, _InputIterator __last, _Predicate __pred)
 509:/usr/include/newlib/c++/9.2.1/bits/stl_algo.h ****     { return __last == std::find_if_not(__first, __last, __pred); }
 510:/usr/include/newlib/c++/9.2.1/bits/stl_algo.h **** 
 511:/usr/include/newlib/c++/9.2.1/bits/stl_algo.h ****   /**
 512:/usr/include/newlib/c++/9.2.1/bits/stl_algo.h ****    *  @brief  Checks that a predicate is false for all the elements
ARM GAS  /tmp/ccoDtert.s 			page 57


 513:/usr/include/newlib/c++/9.2.1/bits/stl_algo.h ****    *          of a sequence.
 514:/usr/include/newlib/c++/9.2.1/bits/stl_algo.h ****    *  @ingroup non_mutating_algorithms
 515:/usr/include/newlib/c++/9.2.1/bits/stl_algo.h ****    *  @param  __first   An input iterator.
 516:/usr/include/newlib/c++/9.2.1/bits/stl_algo.h ****    *  @param  __last    An input iterator.
 517:/usr/include/newlib/c++/9.2.1/bits/stl_algo.h ****    *  @param  __pred    A predicate.
 518:/usr/include/newlib/c++/9.2.1/bits/stl_algo.h ****    *  @return  True if the check is true, false otherwise.
 519:/usr/include/newlib/c++/9.2.1/bits/stl_algo.h ****    *
 520:/usr/include/newlib/c++/9.2.1/bits/stl_algo.h ****    *  Returns true if @p __pred is false for each element in the range
 521:/usr/include/newlib/c++/9.2.1/bits/stl_algo.h ****    *  @p [__first,__last), and false otherwise.
 522:/usr/include/newlib/c++/9.2.1/bits/stl_algo.h ****   */
 523:/usr/include/newlib/c++/9.2.1/bits/stl_algo.h ****   template<typename _InputIterator, typename _Predicate>
 524:/usr/include/newlib/c++/9.2.1/bits/stl_algo.h ****     inline bool
 525:/usr/include/newlib/c++/9.2.1/bits/stl_algo.h ****     none_of(_InputIterator __first, _InputIterator __last, _Predicate __pred)
 526:/usr/include/newlib/c++/9.2.1/bits/stl_algo.h ****     { return __last == _GLIBCXX_STD_A::find_if(__first, __last, __pred); }
 527:/usr/include/newlib/c++/9.2.1/bits/stl_algo.h **** 
 528:/usr/include/newlib/c++/9.2.1/bits/stl_algo.h ****   /**
 529:/usr/include/newlib/c++/9.2.1/bits/stl_algo.h ****    *  @brief  Checks that a predicate is false for at least an element
 530:/usr/include/newlib/c++/9.2.1/bits/stl_algo.h ****    *          of a sequence.
 531:/usr/include/newlib/c++/9.2.1/bits/stl_algo.h ****    *  @ingroup non_mutating_algorithms
 532:/usr/include/newlib/c++/9.2.1/bits/stl_algo.h ****    *  @param  __first   An input iterator.
 533:/usr/include/newlib/c++/9.2.1/bits/stl_algo.h ****    *  @param  __last    An input iterator.
 534:/usr/include/newlib/c++/9.2.1/bits/stl_algo.h ****    *  @param  __pred    A predicate.
 535:/usr/include/newlib/c++/9.2.1/bits/stl_algo.h ****    *  @return  True if the check is true, false otherwise.
 536:/usr/include/newlib/c++/9.2.1/bits/stl_algo.h ****    *
 537:/usr/include/newlib/c++/9.2.1/bits/stl_algo.h ****    *  Returns true if an element exists in the range @p
 538:/usr/include/newlib/c++/9.2.1/bits/stl_algo.h ****    *  [__first,__last) such that @p __pred is true, and false
 539:/usr/include/newlib/c++/9.2.1/bits/stl_algo.h ****    *  otherwise.
 540:/usr/include/newlib/c++/9.2.1/bits/stl_algo.h ****   */
 541:/usr/include/newlib/c++/9.2.1/bits/stl_algo.h ****   template<typename _InputIterator, typename _Predicate>
 542:/usr/include/newlib/c++/9.2.1/bits/stl_algo.h ****     inline bool
 543:/usr/include/newlib/c++/9.2.1/bits/stl_algo.h ****     any_of(_InputIterator __first, _InputIterator __last, _Predicate __pred)
 544:/usr/include/newlib/c++/9.2.1/bits/stl_algo.h ****     { return !std::none_of(__first, __last, __pred); }
 545:/usr/include/newlib/c++/9.2.1/bits/stl_algo.h **** 
 546:/usr/include/newlib/c++/9.2.1/bits/stl_algo.h ****   /**
 547:/usr/include/newlib/c++/9.2.1/bits/stl_algo.h ****    *  @brief  Find the first element in a sequence for which a
 548:/usr/include/newlib/c++/9.2.1/bits/stl_algo.h ****    *          predicate is false.
 549:/usr/include/newlib/c++/9.2.1/bits/stl_algo.h ****    *  @ingroup non_mutating_algorithms
 550:/usr/include/newlib/c++/9.2.1/bits/stl_algo.h ****    *  @param  __first  An input iterator.
 551:/usr/include/newlib/c++/9.2.1/bits/stl_algo.h ****    *  @param  __last   An input iterator.
 552:/usr/include/newlib/c++/9.2.1/bits/stl_algo.h ****    *  @param  __pred   A predicate.
 553:/usr/include/newlib/c++/9.2.1/bits/stl_algo.h ****    *  @return   The first iterator @c i in the range @p [__first,__last)
 554:/usr/include/newlib/c++/9.2.1/bits/stl_algo.h ****    *  such that @p __pred(*i) is false, or @p __last if no such iterator exists.
 555:/usr/include/newlib/c++/9.2.1/bits/stl_algo.h ****   */
 556:/usr/include/newlib/c++/9.2.1/bits/stl_algo.h ****   template<typename _InputIterator, typename _Predicate>
 557:/usr/include/newlib/c++/9.2.1/bits/stl_algo.h ****     inline _InputIterator
 558:/usr/include/newlib/c++/9.2.1/bits/stl_algo.h ****     find_if_not(_InputIterator __first, _InputIterator __last,
 559:/usr/include/newlib/c++/9.2.1/bits/stl_algo.h **** 		_Predicate __pred)
 560:/usr/include/newlib/c++/9.2.1/bits/stl_algo.h ****     {
 561:/usr/include/newlib/c++/9.2.1/bits/stl_algo.h ****       // concept requirements
 562:/usr/include/newlib/c++/9.2.1/bits/stl_algo.h ****       __glibcxx_function_requires(_InputIteratorConcept<_InputIterator>)
 563:/usr/include/newlib/c++/9.2.1/bits/stl_algo.h ****       __glibcxx_function_requires(_UnaryPredicateConcept<_Predicate,
 564:/usr/include/newlib/c++/9.2.1/bits/stl_algo.h **** 	      typename iterator_traits<_InputIterator>::value_type>)
 565:/usr/include/newlib/c++/9.2.1/bits/stl_algo.h ****       __glibcxx_requires_valid_range(__first, __last);
 566:/usr/include/newlib/c++/9.2.1/bits/stl_algo.h ****       return std::__find_if_not(__first, __last,
 567:/usr/include/newlib/c++/9.2.1/bits/stl_algo.h **** 				__gnu_cxx::__ops::__pred_iter(__pred));
 568:/usr/include/newlib/c++/9.2.1/bits/stl_algo.h ****     }
 569:/usr/include/newlib/c++/9.2.1/bits/stl_algo.h **** 
ARM GAS  /tmp/ccoDtert.s 			page 58


 570:/usr/include/newlib/c++/9.2.1/bits/stl_algo.h ****   /**
 571:/usr/include/newlib/c++/9.2.1/bits/stl_algo.h ****    *  @brief  Checks whether the sequence is partitioned.
 572:/usr/include/newlib/c++/9.2.1/bits/stl_algo.h ****    *  @ingroup mutating_algorithms
 573:/usr/include/newlib/c++/9.2.1/bits/stl_algo.h ****    *  @param  __first  An input iterator.
 574:/usr/include/newlib/c++/9.2.1/bits/stl_algo.h ****    *  @param  __last   An input iterator.
 575:/usr/include/newlib/c++/9.2.1/bits/stl_algo.h ****    *  @param  __pred   A predicate.
 576:/usr/include/newlib/c++/9.2.1/bits/stl_algo.h ****    *  @return  True if the range @p [__first,__last) is partioned by @p __pred,
 577:/usr/include/newlib/c++/9.2.1/bits/stl_algo.h ****    *  i.e. if all elements that satisfy @p __pred appear before those that
 578:/usr/include/newlib/c++/9.2.1/bits/stl_algo.h ****    *  do not.
 579:/usr/include/newlib/c++/9.2.1/bits/stl_algo.h ****   */
 580:/usr/include/newlib/c++/9.2.1/bits/stl_algo.h ****   template<typename _InputIterator, typename _Predicate>
 581:/usr/include/newlib/c++/9.2.1/bits/stl_algo.h ****     inline bool
 582:/usr/include/newlib/c++/9.2.1/bits/stl_algo.h ****     is_partitioned(_InputIterator __first, _InputIterator __last,
 583:/usr/include/newlib/c++/9.2.1/bits/stl_algo.h **** 		   _Predicate __pred)
 584:/usr/include/newlib/c++/9.2.1/bits/stl_algo.h ****     {
 585:/usr/include/newlib/c++/9.2.1/bits/stl_algo.h ****       __first = std::find_if_not(__first, __last, __pred);
 586:/usr/include/newlib/c++/9.2.1/bits/stl_algo.h ****       if (__first == __last)
 587:/usr/include/newlib/c++/9.2.1/bits/stl_algo.h **** 	return true;
 588:/usr/include/newlib/c++/9.2.1/bits/stl_algo.h ****       ++__first;
 589:/usr/include/newlib/c++/9.2.1/bits/stl_algo.h ****       return std::none_of(__first, __last, __pred);
 590:/usr/include/newlib/c++/9.2.1/bits/stl_algo.h ****     }
 591:/usr/include/newlib/c++/9.2.1/bits/stl_algo.h **** 
 592:/usr/include/newlib/c++/9.2.1/bits/stl_algo.h ****   /**
 593:/usr/include/newlib/c++/9.2.1/bits/stl_algo.h ****    *  @brief  Find the partition point of a partitioned range.
 594:/usr/include/newlib/c++/9.2.1/bits/stl_algo.h ****    *  @ingroup mutating_algorithms
 595:/usr/include/newlib/c++/9.2.1/bits/stl_algo.h ****    *  @param  __first   An iterator.
 596:/usr/include/newlib/c++/9.2.1/bits/stl_algo.h ****    *  @param  __last    Another iterator.
 597:/usr/include/newlib/c++/9.2.1/bits/stl_algo.h ****    *  @param  __pred    A predicate.
 598:/usr/include/newlib/c++/9.2.1/bits/stl_algo.h ****    *  @return  An iterator @p mid such that @p all_of(__first, mid, __pred)
 599:/usr/include/newlib/c++/9.2.1/bits/stl_algo.h ****    *           and @p none_of(mid, __last, __pred) are both true.
 600:/usr/include/newlib/c++/9.2.1/bits/stl_algo.h ****   */
 601:/usr/include/newlib/c++/9.2.1/bits/stl_algo.h ****   template<typename _ForwardIterator, typename _Predicate>
 602:/usr/include/newlib/c++/9.2.1/bits/stl_algo.h ****     _ForwardIterator
 603:/usr/include/newlib/c++/9.2.1/bits/stl_algo.h ****     partition_point(_ForwardIterator __first, _ForwardIterator __last,
 604:/usr/include/newlib/c++/9.2.1/bits/stl_algo.h **** 		    _Predicate __pred)
 605:/usr/include/newlib/c++/9.2.1/bits/stl_algo.h ****     {
 606:/usr/include/newlib/c++/9.2.1/bits/stl_algo.h ****       // concept requirements
 607:/usr/include/newlib/c++/9.2.1/bits/stl_algo.h ****       __glibcxx_function_requires(_ForwardIteratorConcept<_ForwardIterator>)
 608:/usr/include/newlib/c++/9.2.1/bits/stl_algo.h ****       __glibcxx_function_requires(_UnaryPredicateConcept<_Predicate,
 609:/usr/include/newlib/c++/9.2.1/bits/stl_algo.h **** 	      typename iterator_traits<_ForwardIterator>::value_type>)
 610:/usr/include/newlib/c++/9.2.1/bits/stl_algo.h **** 
 611:/usr/include/newlib/c++/9.2.1/bits/stl_algo.h ****       // A specific debug-mode test will be necessary...
 612:/usr/include/newlib/c++/9.2.1/bits/stl_algo.h ****       __glibcxx_requires_valid_range(__first, __last);
 613:/usr/include/newlib/c++/9.2.1/bits/stl_algo.h **** 
 614:/usr/include/newlib/c++/9.2.1/bits/stl_algo.h ****       typedef typename iterator_traits<_ForwardIterator>::difference_type
 615:/usr/include/newlib/c++/9.2.1/bits/stl_algo.h **** 	_DistanceType;
 616:/usr/include/newlib/c++/9.2.1/bits/stl_algo.h **** 
 617:/usr/include/newlib/c++/9.2.1/bits/stl_algo.h ****       _DistanceType __len = std::distance(__first, __last);
 618:/usr/include/newlib/c++/9.2.1/bits/stl_algo.h ****       _DistanceType __half;
 619:/usr/include/newlib/c++/9.2.1/bits/stl_algo.h ****       _ForwardIterator __middle;
 620:/usr/include/newlib/c++/9.2.1/bits/stl_algo.h **** 
 621:/usr/include/newlib/c++/9.2.1/bits/stl_algo.h ****       while (__len > 0)
 622:/usr/include/newlib/c++/9.2.1/bits/stl_algo.h **** 	{
 623:/usr/include/newlib/c++/9.2.1/bits/stl_algo.h **** 	  __half = __len >> 1;
 624:/usr/include/newlib/c++/9.2.1/bits/stl_algo.h **** 	  __middle = __first;
 625:/usr/include/newlib/c++/9.2.1/bits/stl_algo.h **** 	  std::advance(__middle, __half);
 626:/usr/include/newlib/c++/9.2.1/bits/stl_algo.h **** 	  if (__pred(*__middle))
ARM GAS  /tmp/ccoDtert.s 			page 59


 627:/usr/include/newlib/c++/9.2.1/bits/stl_algo.h **** 	    {
 628:/usr/include/newlib/c++/9.2.1/bits/stl_algo.h **** 	      __first = __middle;
 629:/usr/include/newlib/c++/9.2.1/bits/stl_algo.h **** 	      ++__first;
 630:/usr/include/newlib/c++/9.2.1/bits/stl_algo.h **** 	      __len = __len - __half - 1;
 631:/usr/include/newlib/c++/9.2.1/bits/stl_algo.h **** 	    }
 632:/usr/include/newlib/c++/9.2.1/bits/stl_algo.h **** 	  else
 633:/usr/include/newlib/c++/9.2.1/bits/stl_algo.h **** 	    __len = __half;
 634:/usr/include/newlib/c++/9.2.1/bits/stl_algo.h **** 	}
 635:/usr/include/newlib/c++/9.2.1/bits/stl_algo.h ****       return __first;
 636:/usr/include/newlib/c++/9.2.1/bits/stl_algo.h ****     }
 637:/usr/include/newlib/c++/9.2.1/bits/stl_algo.h **** #endif
 638:/usr/include/newlib/c++/9.2.1/bits/stl_algo.h **** 
 639:/usr/include/newlib/c++/9.2.1/bits/stl_algo.h ****   template<typename _InputIterator, typename _OutputIterator,
 640:/usr/include/newlib/c++/9.2.1/bits/stl_algo.h **** 	   typename _Predicate>
 641:/usr/include/newlib/c++/9.2.1/bits/stl_algo.h ****     _OutputIterator
 642:/usr/include/newlib/c++/9.2.1/bits/stl_algo.h ****     __remove_copy_if(_InputIterator __first, _InputIterator __last,
 643:/usr/include/newlib/c++/9.2.1/bits/stl_algo.h **** 		     _OutputIterator __result, _Predicate __pred)
 644:/usr/include/newlib/c++/9.2.1/bits/stl_algo.h ****     {
 645:/usr/include/newlib/c++/9.2.1/bits/stl_algo.h ****       for (; __first != __last; ++__first)
 646:/usr/include/newlib/c++/9.2.1/bits/stl_algo.h **** 	if (!__pred(__first))
 647:/usr/include/newlib/c++/9.2.1/bits/stl_algo.h **** 	  {
 648:/usr/include/newlib/c++/9.2.1/bits/stl_algo.h **** 	    *__result = *__first;
 649:/usr/include/newlib/c++/9.2.1/bits/stl_algo.h **** 	    ++__result;
 650:/usr/include/newlib/c++/9.2.1/bits/stl_algo.h **** 	  }
 651:/usr/include/newlib/c++/9.2.1/bits/stl_algo.h ****       return __result;
 652:/usr/include/newlib/c++/9.2.1/bits/stl_algo.h ****     }
 653:/usr/include/newlib/c++/9.2.1/bits/stl_algo.h **** 
 654:/usr/include/newlib/c++/9.2.1/bits/stl_algo.h ****   /**
 655:/usr/include/newlib/c++/9.2.1/bits/stl_algo.h ****    *  @brief Copy a sequence, removing elements of a given value.
 656:/usr/include/newlib/c++/9.2.1/bits/stl_algo.h ****    *  @ingroup mutating_algorithms
 657:/usr/include/newlib/c++/9.2.1/bits/stl_algo.h ****    *  @param  __first   An input iterator.
 658:/usr/include/newlib/c++/9.2.1/bits/stl_algo.h ****    *  @param  __last    An input iterator.
 659:/usr/include/newlib/c++/9.2.1/bits/stl_algo.h ****    *  @param  __result  An output iterator.
 660:/usr/include/newlib/c++/9.2.1/bits/stl_algo.h ****    *  @param  __value   The value to be removed.
 661:/usr/include/newlib/c++/9.2.1/bits/stl_algo.h ****    *  @return   An iterator designating the end of the resulting sequence.
 662:/usr/include/newlib/c++/9.2.1/bits/stl_algo.h ****    *
 663:/usr/include/newlib/c++/9.2.1/bits/stl_algo.h ****    *  Copies each element in the range @p [__first,__last) not equal
 664:/usr/include/newlib/c++/9.2.1/bits/stl_algo.h ****    *  to @p __value to the range beginning at @p __result.
 665:/usr/include/newlib/c++/9.2.1/bits/stl_algo.h ****    *  remove_copy() is stable, so the relative order of elements that
 666:/usr/include/newlib/c++/9.2.1/bits/stl_algo.h ****    *  are copied is unchanged.
 667:/usr/include/newlib/c++/9.2.1/bits/stl_algo.h ****   */
 668:/usr/include/newlib/c++/9.2.1/bits/stl_algo.h ****   template<typename _InputIterator, typename _OutputIterator, typename _Tp>
 669:/usr/include/newlib/c++/9.2.1/bits/stl_algo.h ****     inline _OutputIterator
 670:/usr/include/newlib/c++/9.2.1/bits/stl_algo.h ****     remove_copy(_InputIterator __first, _InputIterator __last,
 671:/usr/include/newlib/c++/9.2.1/bits/stl_algo.h **** 		_OutputIterator __result, const _Tp& __value)
 672:/usr/include/newlib/c++/9.2.1/bits/stl_algo.h ****     {
 673:/usr/include/newlib/c++/9.2.1/bits/stl_algo.h ****       // concept requirements
 674:/usr/include/newlib/c++/9.2.1/bits/stl_algo.h ****       __glibcxx_function_requires(_InputIteratorConcept<_InputIterator>)
 675:/usr/include/newlib/c++/9.2.1/bits/stl_algo.h ****       __glibcxx_function_requires(_OutputIteratorConcept<_OutputIterator,
 676:/usr/include/newlib/c++/9.2.1/bits/stl_algo.h **** 	    typename iterator_traits<_InputIterator>::value_type>)
 677:/usr/include/newlib/c++/9.2.1/bits/stl_algo.h ****       __glibcxx_function_requires(_EqualOpConcept<
 678:/usr/include/newlib/c++/9.2.1/bits/stl_algo.h **** 	    typename iterator_traits<_InputIterator>::value_type, _Tp>)
 679:/usr/include/newlib/c++/9.2.1/bits/stl_algo.h ****       __glibcxx_requires_valid_range(__first, __last);
 680:/usr/include/newlib/c++/9.2.1/bits/stl_algo.h **** 
 681:/usr/include/newlib/c++/9.2.1/bits/stl_algo.h ****       return std::__remove_copy_if(__first, __last, __result,
 682:/usr/include/newlib/c++/9.2.1/bits/stl_algo.h **** 	__gnu_cxx::__ops::__iter_equals_val(__value));
 683:/usr/include/newlib/c++/9.2.1/bits/stl_algo.h ****     }
ARM GAS  /tmp/ccoDtert.s 			page 60


 684:/usr/include/newlib/c++/9.2.1/bits/stl_algo.h **** 
 685:/usr/include/newlib/c++/9.2.1/bits/stl_algo.h ****   /**
 686:/usr/include/newlib/c++/9.2.1/bits/stl_algo.h ****    *  @brief Copy a sequence, removing elements for which a predicate is true.
 687:/usr/include/newlib/c++/9.2.1/bits/stl_algo.h ****    *  @ingroup mutating_algorithms
 688:/usr/include/newlib/c++/9.2.1/bits/stl_algo.h ****    *  @param  __first   An input iterator.
 689:/usr/include/newlib/c++/9.2.1/bits/stl_algo.h ****    *  @param  __last    An input iterator.
 690:/usr/include/newlib/c++/9.2.1/bits/stl_algo.h ****    *  @param  __result  An output iterator.
 691:/usr/include/newlib/c++/9.2.1/bits/stl_algo.h ****    *  @param  __pred    A predicate.
 692:/usr/include/newlib/c++/9.2.1/bits/stl_algo.h ****    *  @return   An iterator designating the end of the resulting sequence.
 693:/usr/include/newlib/c++/9.2.1/bits/stl_algo.h ****    *
 694:/usr/include/newlib/c++/9.2.1/bits/stl_algo.h ****    *  Copies each element in the range @p [__first,__last) for which
 695:/usr/include/newlib/c++/9.2.1/bits/stl_algo.h ****    *  @p __pred returns false to the range beginning at @p __result.
 696:/usr/include/newlib/c++/9.2.1/bits/stl_algo.h ****    *
 697:/usr/include/newlib/c++/9.2.1/bits/stl_algo.h ****    *  remove_copy_if() is stable, so the relative order of elements that are
 698:/usr/include/newlib/c++/9.2.1/bits/stl_algo.h ****    *  copied is unchanged.
 699:/usr/include/newlib/c++/9.2.1/bits/stl_algo.h ****   */
 700:/usr/include/newlib/c++/9.2.1/bits/stl_algo.h ****   template<typename _InputIterator, typename _OutputIterator,
 701:/usr/include/newlib/c++/9.2.1/bits/stl_algo.h **** 	   typename _Predicate>
 702:/usr/include/newlib/c++/9.2.1/bits/stl_algo.h ****     inline _OutputIterator
 703:/usr/include/newlib/c++/9.2.1/bits/stl_algo.h ****     remove_copy_if(_InputIterator __first, _InputIterator __last,
 704:/usr/include/newlib/c++/9.2.1/bits/stl_algo.h **** 		   _OutputIterator __result, _Predicate __pred)
 705:/usr/include/newlib/c++/9.2.1/bits/stl_algo.h ****     {
 706:/usr/include/newlib/c++/9.2.1/bits/stl_algo.h ****       // concept requirements
 707:/usr/include/newlib/c++/9.2.1/bits/stl_algo.h ****       __glibcxx_function_requires(_InputIteratorConcept<_InputIterator>)
 708:/usr/include/newlib/c++/9.2.1/bits/stl_algo.h ****       __glibcxx_function_requires(_OutputIteratorConcept<_OutputIterator,
 709:/usr/include/newlib/c++/9.2.1/bits/stl_algo.h **** 	    typename iterator_traits<_InputIterator>::value_type>)
 710:/usr/include/newlib/c++/9.2.1/bits/stl_algo.h ****       __glibcxx_function_requires(_UnaryPredicateConcept<_Predicate,
 711:/usr/include/newlib/c++/9.2.1/bits/stl_algo.h **** 	    typename iterator_traits<_InputIterator>::value_type>)
 712:/usr/include/newlib/c++/9.2.1/bits/stl_algo.h ****       __glibcxx_requires_valid_range(__first, __last);
 713:/usr/include/newlib/c++/9.2.1/bits/stl_algo.h **** 
 714:/usr/include/newlib/c++/9.2.1/bits/stl_algo.h ****       return std::__remove_copy_if(__first, __last, __result,
 715:/usr/include/newlib/c++/9.2.1/bits/stl_algo.h **** 				   __gnu_cxx::__ops::__pred_iter(__pred));
 716:/usr/include/newlib/c++/9.2.1/bits/stl_algo.h ****     }
 717:/usr/include/newlib/c++/9.2.1/bits/stl_algo.h **** 
 718:/usr/include/newlib/c++/9.2.1/bits/stl_algo.h **** #if __cplusplus >= 201103L
 719:/usr/include/newlib/c++/9.2.1/bits/stl_algo.h ****   /**
 720:/usr/include/newlib/c++/9.2.1/bits/stl_algo.h ****    *  @brief Copy the elements of a sequence for which a predicate is true.
 721:/usr/include/newlib/c++/9.2.1/bits/stl_algo.h ****    *  @ingroup mutating_algorithms
 722:/usr/include/newlib/c++/9.2.1/bits/stl_algo.h ****    *  @param  __first   An input iterator.
 723:/usr/include/newlib/c++/9.2.1/bits/stl_algo.h ****    *  @param  __last    An input iterator.
 724:/usr/include/newlib/c++/9.2.1/bits/stl_algo.h ****    *  @param  __result  An output iterator.
 725:/usr/include/newlib/c++/9.2.1/bits/stl_algo.h ****    *  @param  __pred    A predicate.
 726:/usr/include/newlib/c++/9.2.1/bits/stl_algo.h ****    *  @return   An iterator designating the end of the resulting sequence.
 727:/usr/include/newlib/c++/9.2.1/bits/stl_algo.h ****    *
 728:/usr/include/newlib/c++/9.2.1/bits/stl_algo.h ****    *  Copies each element in the range @p [__first,__last) for which
 729:/usr/include/newlib/c++/9.2.1/bits/stl_algo.h ****    *  @p __pred returns true to the range beginning at @p __result.
 730:/usr/include/newlib/c++/9.2.1/bits/stl_algo.h ****    *
 731:/usr/include/newlib/c++/9.2.1/bits/stl_algo.h ****    *  copy_if() is stable, so the relative order of elements that are
 732:/usr/include/newlib/c++/9.2.1/bits/stl_algo.h ****    *  copied is unchanged.
 733:/usr/include/newlib/c++/9.2.1/bits/stl_algo.h ****   */
 734:/usr/include/newlib/c++/9.2.1/bits/stl_algo.h ****   template<typename _InputIterator, typename _OutputIterator,
 735:/usr/include/newlib/c++/9.2.1/bits/stl_algo.h **** 	   typename _Predicate>
 736:/usr/include/newlib/c++/9.2.1/bits/stl_algo.h ****     _OutputIterator
 737:/usr/include/newlib/c++/9.2.1/bits/stl_algo.h ****     copy_if(_InputIterator __first, _InputIterator __last,
 738:/usr/include/newlib/c++/9.2.1/bits/stl_algo.h **** 	    _OutputIterator __result, _Predicate __pred)
 739:/usr/include/newlib/c++/9.2.1/bits/stl_algo.h ****     {
 740:/usr/include/newlib/c++/9.2.1/bits/stl_algo.h ****       // concept requirements
ARM GAS  /tmp/ccoDtert.s 			page 61


 741:/usr/include/newlib/c++/9.2.1/bits/stl_algo.h ****       __glibcxx_function_requires(_InputIteratorConcept<_InputIterator>)
 742:/usr/include/newlib/c++/9.2.1/bits/stl_algo.h ****       __glibcxx_function_requires(_OutputIteratorConcept<_OutputIterator,
 743:/usr/include/newlib/c++/9.2.1/bits/stl_algo.h **** 	    typename iterator_traits<_InputIterator>::value_type>)
 744:/usr/include/newlib/c++/9.2.1/bits/stl_algo.h ****       __glibcxx_function_requires(_UnaryPredicateConcept<_Predicate,
 745:/usr/include/newlib/c++/9.2.1/bits/stl_algo.h **** 	    typename iterator_traits<_InputIterator>::value_type>)
 746:/usr/include/newlib/c++/9.2.1/bits/stl_algo.h ****       __glibcxx_requires_valid_range(__first, __last);
 747:/usr/include/newlib/c++/9.2.1/bits/stl_algo.h **** 
 748:/usr/include/newlib/c++/9.2.1/bits/stl_algo.h ****       for (; __first != __last; ++__first)
 749:/usr/include/newlib/c++/9.2.1/bits/stl_algo.h **** 	if (__pred(*__first))
 750:/usr/include/newlib/c++/9.2.1/bits/stl_algo.h **** 	  {
 751:/usr/include/newlib/c++/9.2.1/bits/stl_algo.h **** 	    *__result = *__first;
 752:/usr/include/newlib/c++/9.2.1/bits/stl_algo.h **** 	    ++__result;
 753:/usr/include/newlib/c++/9.2.1/bits/stl_algo.h **** 	  }
 754:/usr/include/newlib/c++/9.2.1/bits/stl_algo.h ****       return __result;
 755:/usr/include/newlib/c++/9.2.1/bits/stl_algo.h ****     }
 756:/usr/include/newlib/c++/9.2.1/bits/stl_algo.h **** 
 757:/usr/include/newlib/c++/9.2.1/bits/stl_algo.h ****   template<typename _InputIterator, typename _Size, typename _OutputIterator>
 758:/usr/include/newlib/c++/9.2.1/bits/stl_algo.h ****     _OutputIterator
 759:/usr/include/newlib/c++/9.2.1/bits/stl_algo.h ****     __copy_n(_InputIterator __first, _Size __n,
 760:/usr/include/newlib/c++/9.2.1/bits/stl_algo.h **** 	     _OutputIterator __result, input_iterator_tag)
 761:/usr/include/newlib/c++/9.2.1/bits/stl_algo.h ****     {
 762:/usr/include/newlib/c++/9.2.1/bits/stl_algo.h ****       if (__n > 0)
 763:/usr/include/newlib/c++/9.2.1/bits/stl_algo.h **** 	{
 764:/usr/include/newlib/c++/9.2.1/bits/stl_algo.h **** 	  while (true)
 765:/usr/include/newlib/c++/9.2.1/bits/stl_algo.h **** 	    {
 766:/usr/include/newlib/c++/9.2.1/bits/stl_algo.h **** 	      *__result = *__first;
 767:/usr/include/newlib/c++/9.2.1/bits/stl_algo.h **** 	      ++__result;
 768:/usr/include/newlib/c++/9.2.1/bits/stl_algo.h **** 	      if (--__n > 0)
 769:/usr/include/newlib/c++/9.2.1/bits/stl_algo.h **** 		++__first;
 770:/usr/include/newlib/c++/9.2.1/bits/stl_algo.h **** 	      else
 771:/usr/include/newlib/c++/9.2.1/bits/stl_algo.h **** 		break;
 772:/usr/include/newlib/c++/9.2.1/bits/stl_algo.h **** 	    }
 773:/usr/include/newlib/c++/9.2.1/bits/stl_algo.h **** 	}
 774:/usr/include/newlib/c++/9.2.1/bits/stl_algo.h ****       return __result;
 775:/usr/include/newlib/c++/9.2.1/bits/stl_algo.h ****     }
 776:/usr/include/newlib/c++/9.2.1/bits/stl_algo.h **** 
 777:/usr/include/newlib/c++/9.2.1/bits/stl_algo.h ****   template<typename _RandomAccessIterator, typename _Size,
 778:/usr/include/newlib/c++/9.2.1/bits/stl_algo.h **** 	   typename _OutputIterator>
 779:/usr/include/newlib/c++/9.2.1/bits/stl_algo.h ****     inline _OutputIterator
 780:/usr/include/newlib/c++/9.2.1/bits/stl_algo.h ****     __copy_n(_RandomAccessIterator __first, _Size __n,
 781:/usr/include/newlib/c++/9.2.1/bits/stl_algo.h **** 	     _OutputIterator __result, random_access_iterator_tag)
 782:/usr/include/newlib/c++/9.2.1/bits/stl_algo.h ****     { return std::copy(__first, __first + __n, __result); }
 783:/usr/include/newlib/c++/9.2.1/bits/stl_algo.h **** 
 784:/usr/include/newlib/c++/9.2.1/bits/stl_algo.h ****   /**
 785:/usr/include/newlib/c++/9.2.1/bits/stl_algo.h ****    *  @brief Copies the range [first,first+n) into [result,result+n).
 786:/usr/include/newlib/c++/9.2.1/bits/stl_algo.h ****    *  @ingroup mutating_algorithms
 787:/usr/include/newlib/c++/9.2.1/bits/stl_algo.h ****    *  @param  __first  An input iterator.
 788:/usr/include/newlib/c++/9.2.1/bits/stl_algo.h ****    *  @param  __n      The number of elements to copy.
 789:/usr/include/newlib/c++/9.2.1/bits/stl_algo.h ****    *  @param  __result An output iterator.
 790:/usr/include/newlib/c++/9.2.1/bits/stl_algo.h ****    *  @return  result+n.
 791:/usr/include/newlib/c++/9.2.1/bits/stl_algo.h ****    *
 792:/usr/include/newlib/c++/9.2.1/bits/stl_algo.h ****    *  This inline function will boil down to a call to @c memmove whenever
 793:/usr/include/newlib/c++/9.2.1/bits/stl_algo.h ****    *  possible.  Failing that, if random access iterators are passed, then the
 794:/usr/include/newlib/c++/9.2.1/bits/stl_algo.h ****    *  loop count will be known (and therefore a candidate for compiler
 795:/usr/include/newlib/c++/9.2.1/bits/stl_algo.h ****    *  optimizations such as unrolling).
 796:/usr/include/newlib/c++/9.2.1/bits/stl_algo.h ****   */
 797:/usr/include/newlib/c++/9.2.1/bits/stl_algo.h ****   template<typename _InputIterator, typename _Size, typename _OutputIterator>
ARM GAS  /tmp/ccoDtert.s 			page 62


 798:/usr/include/newlib/c++/9.2.1/bits/stl_algo.h ****     inline _OutputIterator
 799:/usr/include/newlib/c++/9.2.1/bits/stl_algo.h ****     copy_n(_InputIterator __first, _Size __n, _OutputIterator __result)
 800:/usr/include/newlib/c++/9.2.1/bits/stl_algo.h ****     {
 801:/usr/include/newlib/c++/9.2.1/bits/stl_algo.h ****       // concept requirements
 802:/usr/include/newlib/c++/9.2.1/bits/stl_algo.h ****       __glibcxx_function_requires(_InputIteratorConcept<_InputIterator>)
 803:/usr/include/newlib/c++/9.2.1/bits/stl_algo.h ****       __glibcxx_function_requires(_OutputIteratorConcept<_OutputIterator,
 804:/usr/include/newlib/c++/9.2.1/bits/stl_algo.h **** 	    typename iterator_traits<_InputIterator>::value_type>)
 805:/usr/include/newlib/c++/9.2.1/bits/stl_algo.h **** 
 806:/usr/include/newlib/c++/9.2.1/bits/stl_algo.h ****       return std::__copy_n(__first, __n, __result,
 807:/usr/include/newlib/c++/9.2.1/bits/stl_algo.h **** 			   std::__iterator_category(__first));
 808:/usr/include/newlib/c++/9.2.1/bits/stl_algo.h ****     }
 809:/usr/include/newlib/c++/9.2.1/bits/stl_algo.h **** 
 810:/usr/include/newlib/c++/9.2.1/bits/stl_algo.h ****   /**
 811:/usr/include/newlib/c++/9.2.1/bits/stl_algo.h ****    *  @brief Copy the elements of a sequence to separate output sequences
 812:/usr/include/newlib/c++/9.2.1/bits/stl_algo.h ****    *         depending on the truth value of a predicate.
 813:/usr/include/newlib/c++/9.2.1/bits/stl_algo.h ****    *  @ingroup mutating_algorithms
 814:/usr/include/newlib/c++/9.2.1/bits/stl_algo.h ****    *  @param  __first   An input iterator.
 815:/usr/include/newlib/c++/9.2.1/bits/stl_algo.h ****    *  @param  __last    An input iterator.
 816:/usr/include/newlib/c++/9.2.1/bits/stl_algo.h ****    *  @param  __out_true   An output iterator.
 817:/usr/include/newlib/c++/9.2.1/bits/stl_algo.h ****    *  @param  __out_false  An output iterator.
 818:/usr/include/newlib/c++/9.2.1/bits/stl_algo.h ****    *  @param  __pred    A predicate.
 819:/usr/include/newlib/c++/9.2.1/bits/stl_algo.h ****    *  @return   A pair designating the ends of the resulting sequences.
 820:/usr/include/newlib/c++/9.2.1/bits/stl_algo.h ****    *
 821:/usr/include/newlib/c++/9.2.1/bits/stl_algo.h ****    *  Copies each element in the range @p [__first,__last) for which
 822:/usr/include/newlib/c++/9.2.1/bits/stl_algo.h ****    *  @p __pred returns true to the range beginning at @p out_true
 823:/usr/include/newlib/c++/9.2.1/bits/stl_algo.h ****    *  and each element for which @p __pred returns false to @p __out_false.
 824:/usr/include/newlib/c++/9.2.1/bits/stl_algo.h ****   */
 825:/usr/include/newlib/c++/9.2.1/bits/stl_algo.h ****   template<typename _InputIterator, typename _OutputIterator1,
 826:/usr/include/newlib/c++/9.2.1/bits/stl_algo.h **** 	   typename _OutputIterator2, typename _Predicate>
 827:/usr/include/newlib/c++/9.2.1/bits/stl_algo.h ****     pair<_OutputIterator1, _OutputIterator2>
 828:/usr/include/newlib/c++/9.2.1/bits/stl_algo.h ****     partition_copy(_InputIterator __first, _InputIterator __last,
 829:/usr/include/newlib/c++/9.2.1/bits/stl_algo.h **** 		   _OutputIterator1 __out_true, _OutputIterator2 __out_false,
 830:/usr/include/newlib/c++/9.2.1/bits/stl_algo.h **** 		   _Predicate __pred)
 831:/usr/include/newlib/c++/9.2.1/bits/stl_algo.h ****     {
