ARM GAS  /tmp/ccqUnNFP.s 			page 1


   1              		.cpu cortex-m7
   2              		.eabi_attribute 28, 1
   3              		.eabi_attribute 20, 1
   4              		.eabi_attribute 21, 1
   5              		.eabi_attribute 23, 3
   6              		.eabi_attribute 24, 1
   7              		.eabi_attribute 25, 1
   8              		.eabi_attribute 26, 1
   9              		.eabi_attribute 30, 2
  10              		.eabi_attribute 34, 1
  11              		.eabi_attribute 18, 4
  12              		.file	"granular_processor.cpp"
  13              		.text
  14              	.Ltext0:
  15              		.cfi_sections	.debug_frame
  16              		.section	.text._ZN6Reverb7ProcessEP10FloatFramej,"axG",%progbits,_ZN6Reverb7ProcessEP10FloatFramej
  17              		.align	1
  18              		.p2align 2,,3
  19              		.weak	_ZN6Reverb7ProcessEP10FloatFramej
  20              		.arch armv7e-m
  21              		.syntax unified
  22              		.thumb
  23              		.thumb_func
  24              		.fpu fpv5-d16
  26              	_ZN6Reverb7ProcessEP10FloatFramej:
  27              	.LVL0:
  28              	.LFB4289:
  29              		.file 1 "dsp/fx/reverb.h"
   1:dsp/fx/reverb.h **** // Copyright 2014 Emilie Gillet.
   2:dsp/fx/reverb.h **** //
   3:dsp/fx/reverb.h **** // Author: Emilie Gillet (emilie.o.gillet@gmail.com)
   4:dsp/fx/reverb.h **** //
   5:dsp/fx/reverb.h **** // Permission is hereby granted, free of charge, to any person obtaining a copy
   6:dsp/fx/reverb.h **** // of this software and associated documentation files (the "Software"), to deal
   7:dsp/fx/reverb.h **** // in the Software without restriction, including without limitation the rights
   8:dsp/fx/reverb.h **** // to use, copy, modify, merge, publish, distribute, sublicense, and/or sell
   9:dsp/fx/reverb.h **** // copies of the Software, and to permit persons to whom the Software is
  10:dsp/fx/reverb.h **** // furnished to do so, subject to the following conditions:
  11:dsp/fx/reverb.h **** //
  12:dsp/fx/reverb.h **** // The above copyright notice and this permission notice shall be included in
  13:dsp/fx/reverb.h **** // all copies or substantial portions of the Software.
  14:dsp/fx/reverb.h **** //
  15:dsp/fx/reverb.h **** // THE SOFTWARE IS PROVIDED "AS IS", WITHOUT WARRANTY OF ANY KIND, EXPRESS OR
  16:dsp/fx/reverb.h **** // IMPLIED, INCLUDING BUT NOT LIMITED TO THE WARRANTIES OF MERCHANTABILITY,
  17:dsp/fx/reverb.h **** // FITNESS FOR A PARTICULAR PURPOSE AND NONINFRINGEMENT. IN NO EVENT SHALL THE
  18:dsp/fx/reverb.h **** // AUTHORS OR COPYRIGHT HOLDERS BE LIABLE FOR ANY CLAIM, DAMAGES OR OTHER
  19:dsp/fx/reverb.h **** // LIABILITY, WHETHER IN AN ACTION OF CONTRACT, TORT OR OTHERWISE, ARISING FROM,
  20:dsp/fx/reverb.h **** // OUT OF OR IN CONNECTION WITH THE SOFTWARE OR THE USE OR OTHER DEALINGS IN
  21:dsp/fx/reverb.h **** // THE SOFTWARE.
  22:dsp/fx/reverb.h **** //
  23:dsp/fx/reverb.h **** // See http://creativecommons.org/licenses/MIT/ for more information.
  24:dsp/fx/reverb.h **** //
  25:dsp/fx/reverb.h **** // -----------------------------------------------------------------------------
  26:dsp/fx/reverb.h **** //
  27:dsp/fx/reverb.h **** // Reverb.
  28:dsp/fx/reverb.h **** 
  29:dsp/fx/reverb.h **** #ifndef CLOUDS_DSP_FX_REVERB_H_
ARM GAS  /tmp/ccqUnNFP.s 			page 2


  30:dsp/fx/reverb.h **** #define CLOUDS_DSP_FX_REVERB_H_
  31:dsp/fx/reverb.h **** 
  32:dsp/fx/reverb.h **** 
  33:dsp/fx/reverb.h **** #include "fx_engine.h"
  34:dsp/fx/reverb.h **** 
  35:dsp/fx/reverb.h **** using namespace daisysp;
  36:dsp/fx/reverb.h **** 
  37:dsp/fx/reverb.h **** class Reverb
  38:dsp/fx/reverb.h **** {
  39:dsp/fx/reverb.h ****   public:
  40:dsp/fx/reverb.h ****     Reverb() {}
  41:dsp/fx/reverb.h ****     ~Reverb() {}
  42:dsp/fx/reverb.h **** 
  43:dsp/fx/reverb.h ****     void Init(uint16_t* buffer)
  44:dsp/fx/reverb.h ****     {
  45:dsp/fx/reverb.h ****         engine_.Init(buffer);
  46:dsp/fx/reverb.h ****         engine_.SetLFOFrequency(LFO_1, 0.5f / 32000.0f);
  47:dsp/fx/reverb.h ****         engine_.SetLFOFrequency(LFO_2, 0.3f / 32000.0f);
  48:dsp/fx/reverb.h ****         lp_        = 0.7f;
  49:dsp/fx/reverb.h ****         diffusion_ = 0.625f;
  50:dsp/fx/reverb.h ****     }
  51:dsp/fx/reverb.h **** 
  52:dsp/fx/reverb.h ****     void Process(FloatFrame* in_out, size_t size)
  30              		.loc 1 52 10 view -0
  31              		.cfi_startproc
  32              		@ args = 0, pretend = 0, frame = 32
  33              		@ frame_needed = 0, uses_anonymous_args = 0
  53:dsp/fx/reverb.h ****     {
  54:dsp/fx/reverb.h ****         // This is the Griesinger topology described in the Dattorro paper
  55:dsp/fx/reverb.h ****         // (4 AP diffusers on the input, then a loop of 2x 2AP+1Delay).
  56:dsp/fx/reverb.h ****         // Modulation is applied in the loop of the first diffuser AP for additional
  57:dsp/fx/reverb.h ****         // smearing; and to the two long delays for a slow shimmer/chorus effect.
  58:dsp/fx/reverb.h ****         typedef E::Reserve<
  34              		.loc 1 58 9 view .LVU1
  59:dsp/fx/reverb.h ****             113,
  60:dsp/fx/reverb.h ****             E::Reserve<
  61:dsp/fx/reverb.h ****                 162,
  62:dsp/fx/reverb.h ****                 E::Reserve<
  63:dsp/fx/reverb.h ****                     241,
  64:dsp/fx/reverb.h ****                     E::Reserve<
  65:dsp/fx/reverb.h ****                         399,
  66:dsp/fx/reverb.h ****                         E::Reserve<
  67:dsp/fx/reverb.h ****                             1653,
  68:dsp/fx/reverb.h ****                             E::Reserve<
  69:dsp/fx/reverb.h ****                                 2038,
  70:dsp/fx/reverb.h ****                                 E::Reserve<
  71:dsp/fx/reverb.h ****                                     3411,
  72:dsp/fx/reverb.h ****                                     E::Reserve<
  73:dsp/fx/reverb.h ****                                         1913,
  74:dsp/fx/reverb.h ****                                         E::Reserve<1663,
  75:dsp/fx/reverb.h ****                                                    E::Reserve<4782>>>>>>>>>>
  76:dsp/fx/reverb.h ****                                 Memory;
  77:dsp/fx/reverb.h ****         E::DelayLine<Memory, 0> ap1;
  35              		.loc 1 77 9 view .LVU2
  78:dsp/fx/reverb.h ****         E::DelayLine<Memory, 1> ap2;
  36              		.loc 1 78 9 view .LVU3
  79:dsp/fx/reverb.h ****         E::DelayLine<Memory, 2> ap3;
ARM GAS  /tmp/ccqUnNFP.s 			page 3


  37              		.loc 1 79 9 view .LVU4
  80:dsp/fx/reverb.h ****         E::DelayLine<Memory, 3> ap4;
  38              		.loc 1 80 9 view .LVU5
  81:dsp/fx/reverb.h ****         E::DelayLine<Memory, 4> dap1a;
  39              		.loc 1 81 9 view .LVU6
  82:dsp/fx/reverb.h ****         E::DelayLine<Memory, 5> dap1b;
  40              		.loc 1 82 9 view .LVU7
  83:dsp/fx/reverb.h ****         E::DelayLine<Memory, 6> del1;
  41              		.loc 1 83 9 view .LVU8
  84:dsp/fx/reverb.h ****         E::DelayLine<Memory, 7> dap2a;
  42              		.loc 1 84 9 view .LVU9
  85:dsp/fx/reverb.h ****         E::DelayLine<Memory, 8> dap2b;
  43              		.loc 1 85 9 view .LVU10
  86:dsp/fx/reverb.h ****         E::DelayLine<Memory, 9> del2;
  44              		.loc 1 86 9 view .LVU11
  87:dsp/fx/reverb.h ****         E::Context              c;
  45              		.loc 1 87 9 view .LVU12
  46              	.LBB1707:
  47              	.LBI1707:
  48              		.file 2 "dsp/fx/fx_engine.h"
   1:dsp/fx/fx_engine.h **** // Copyright 2014 Emilie Gillet.
   2:dsp/fx/fx_engine.h **** //
   3:dsp/fx/fx_engine.h **** // Author: Emilie Gillet (emilie.o.gillet@gmail.com)
   4:dsp/fx/fx_engine.h **** //
   5:dsp/fx/fx_engine.h **** // Permission is hereby granted, free of charge, to any person obtaining a copy
   6:dsp/fx/fx_engine.h **** // of this software and associated documentation files (the "Software"), to deal
   7:dsp/fx/fx_engine.h **** // in the Software without restriction, including without limitation the rights
   8:dsp/fx/fx_engine.h **** // to use, copy, modify, merge, publish, distribute, sublicense, and/or sell
   9:dsp/fx/fx_engine.h **** // copies of the Software, and to permit persons to whom the Software is
  10:dsp/fx/fx_engine.h **** // furnished to do so, subject to the following conditions:
  11:dsp/fx/fx_engine.h **** //
  12:dsp/fx/fx_engine.h **** // The above copyright notice and this permission notice shall be included in
  13:dsp/fx/fx_engine.h **** // all copies or substantial portions of the Software.
  14:dsp/fx/fx_engine.h **** //
  15:dsp/fx/fx_engine.h **** // THE SOFTWARE IS PROVIDED "AS IS", WITHOUT WARRANTY OF ANY KIND, EXPRESS OR
  16:dsp/fx/fx_engine.h **** // IMPLIED, INCLUDING BUT NOT LIMITED TO THE WARRANTIES OF MERCHANTABILITY,
  17:dsp/fx/fx_engine.h **** // FITNESS FOR A PARTICULAR PURPOSE AND NONINFRINGEMENT. IN NO EVENT SHALL THE
  18:dsp/fx/fx_engine.h **** // AUTHORS OR COPYRIGHT HOLDERS BE LIABLE FOR ANY CLAIM, DAMAGES OR OTHER
  19:dsp/fx/fx_engine.h **** // LIABILITY, WHETHER IN AN ACTION OF CONTRACT, TORT OR OTHERWISE, ARISING FROM,
  20:dsp/fx/fx_engine.h **** // OUT OF OR IN CONNECTION WITH THE SOFTWARE OR THE USE OR OTHER DEALINGS IN
  21:dsp/fx/fx_engine.h **** // THE SOFTWARE.
  22:dsp/fx/fx_engine.h **** //
  23:dsp/fx/fx_engine.h **** // See http://creativecommons.org/licenses/MIT/ for more information.
  24:dsp/fx/fx_engine.h **** //
  25:dsp/fx/fx_engine.h **** // -----------------------------------------------------------------------------
  26:dsp/fx/fx_engine.h **** //
  27:dsp/fx/fx_engine.h **** // Base class for building reverbs.
  28:dsp/fx/fx_engine.h **** 
  29:dsp/fx/fx_engine.h **** #ifndef CLOUDS_DSP_FX_FX_ENGINE_H_
  30:dsp/fx/fx_engine.h **** #define CLOUDS_DSP_FX_FX_ENGINE_H_
  31:dsp/fx/fx_engine.h **** 
  32:dsp/fx/fx_engine.h **** #include <algorithm>
  33:dsp/fx/fx_engine.h **** #include "stmtemp.h"
  34:dsp/fx/fx_engine.h **** 
  35:dsp/fx/fx_engine.h **** using namespace daisysp;
  36:dsp/fx/fx_engine.h **** 
  37:dsp/fx/fx_engine.h **** #define TAIL , -1
ARM GAS  /tmp/ccqUnNFP.s 			page 4


  38:dsp/fx/fx_engine.h **** 
  39:dsp/fx/fx_engine.h **** enum Format
  40:dsp/fx/fx_engine.h **** {
  41:dsp/fx/fx_engine.h ****     FORMAT_12_BIT,
  42:dsp/fx/fx_engine.h ****     FORMAT_16_BIT,
  43:dsp/fx/fx_engine.h ****     FORMAT_32_BIT
  44:dsp/fx/fx_engine.h **** };
  45:dsp/fx/fx_engine.h **** 
  46:dsp/fx/fx_engine.h **** enum LFOIndex
  47:dsp/fx/fx_engine.h **** {
  48:dsp/fx/fx_engine.h ****     LFO_1,
  49:dsp/fx/fx_engine.h ****     LFO_2
  50:dsp/fx/fx_engine.h **** };
  51:dsp/fx/fx_engine.h **** 
  52:dsp/fx/fx_engine.h **** template <Format format>
  53:dsp/fx/fx_engine.h **** struct DataType
  54:dsp/fx/fx_engine.h **** {
  55:dsp/fx/fx_engine.h **** };
  56:dsp/fx/fx_engine.h **** 
  57:dsp/fx/fx_engine.h **** template <>
  58:dsp/fx/fx_engine.h **** struct DataType<FORMAT_12_BIT>
  59:dsp/fx/fx_engine.h **** {
  60:dsp/fx/fx_engine.h ****     typedef uint16_t T;
  61:dsp/fx/fx_engine.h **** 
  62:dsp/fx/fx_engine.h ****     static inline float Decompress(T value)
  63:dsp/fx/fx_engine.h ****     {
  64:dsp/fx/fx_engine.h ****         return static_cast<float>(static_cast<int16_t>(value)) / 4096.0f;
  65:dsp/fx/fx_engine.h ****     }
  66:dsp/fx/fx_engine.h **** 
  67:dsp/fx/fx_engine.h ****     static inline T Compress(float value)
  68:dsp/fx/fx_engine.h ****     {
  69:dsp/fx/fx_engine.h ****         return static_cast<uint16_t>(
  70:dsp/fx/fx_engine.h ****             Clip16(static_cast<int32_t>(value * 4096.0f)));
  71:dsp/fx/fx_engine.h ****     }
  72:dsp/fx/fx_engine.h **** };
  73:dsp/fx/fx_engine.h **** 
  74:dsp/fx/fx_engine.h **** template <>
  75:dsp/fx/fx_engine.h **** struct DataType<FORMAT_16_BIT>
  76:dsp/fx/fx_engine.h **** {
  77:dsp/fx/fx_engine.h ****     typedef uint16_t T;
  78:dsp/fx/fx_engine.h **** 
  79:dsp/fx/fx_engine.h ****     static inline float Decompress(T value)
  80:dsp/fx/fx_engine.h ****     {
  81:dsp/fx/fx_engine.h ****         return static_cast<float>(static_cast<int16_t>(value)) / 32768.0f;
  82:dsp/fx/fx_engine.h ****     }
  83:dsp/fx/fx_engine.h **** 
  84:dsp/fx/fx_engine.h ****     static inline T Compress(float value)
  85:dsp/fx/fx_engine.h ****     {
  86:dsp/fx/fx_engine.h ****         return static_cast<uint16_t>(
  87:dsp/fx/fx_engine.h ****             Clip16(static_cast<int32_t>(value * 32768.0f)));
  88:dsp/fx/fx_engine.h ****     }
  89:dsp/fx/fx_engine.h **** };
  90:dsp/fx/fx_engine.h **** 
  91:dsp/fx/fx_engine.h **** template <>
  92:dsp/fx/fx_engine.h **** struct DataType<FORMAT_32_BIT>
  93:dsp/fx/fx_engine.h **** {
  94:dsp/fx/fx_engine.h ****     typedef float T;
ARM GAS  /tmp/ccqUnNFP.s 			page 5


  95:dsp/fx/fx_engine.h **** 
  96:dsp/fx/fx_engine.h ****     static inline float Decompress(T value)
  97:dsp/fx/fx_engine.h ****     {
  98:dsp/fx/fx_engine.h ****         return value;
  99:dsp/fx/fx_engine.h ****         ;
 100:dsp/fx/fx_engine.h ****     }
 101:dsp/fx/fx_engine.h **** 
 102:dsp/fx/fx_engine.h ****     static inline T Compress(float value) { return value; }
 103:dsp/fx/fx_engine.h **** };
 104:dsp/fx/fx_engine.h **** 
 105:dsp/fx/fx_engine.h **** template <size_t size, Format format = FORMAT_12_BIT>
 106:dsp/fx/fx_engine.h **** class FxEngine
 107:dsp/fx/fx_engine.h **** {
 108:dsp/fx/fx_engine.h ****   public:
 109:dsp/fx/fx_engine.h ****     typedef typename DataType<format>::T T;
 110:dsp/fx/fx_engine.h ****     FxEngine() {}
 111:dsp/fx/fx_engine.h ****     ~FxEngine() {}
 112:dsp/fx/fx_engine.h **** 
 113:dsp/fx/fx_engine.h ****     void Init(T* buffer)
 114:dsp/fx/fx_engine.h ****     {
 115:dsp/fx/fx_engine.h ****         buffer_ = buffer;
 116:dsp/fx/fx_engine.h ****         Clear();
 117:dsp/fx/fx_engine.h ****     }
 118:dsp/fx/fx_engine.h **** 
 119:dsp/fx/fx_engine.h ****     void Clear()
 120:dsp/fx/fx_engine.h ****     {
 121:dsp/fx/fx_engine.h ****         std::fill(&buffer_[0], &buffer_[size], 0);
 122:dsp/fx/fx_engine.h ****         write_ptr_ = 0;
 123:dsp/fx/fx_engine.h ****     }
 124:dsp/fx/fx_engine.h **** 
 125:dsp/fx/fx_engine.h ****     struct Empty
 126:dsp/fx/fx_engine.h ****     {
 127:dsp/fx/fx_engine.h ****     };
 128:dsp/fx/fx_engine.h **** 
 129:dsp/fx/fx_engine.h ****     template <int32_t l, typename T = Empty>
 130:dsp/fx/fx_engine.h ****     struct Reserve
 131:dsp/fx/fx_engine.h ****     {
 132:dsp/fx/fx_engine.h ****         typedef T Tail;
 133:dsp/fx/fx_engine.h ****         enum
 134:dsp/fx/fx_engine.h ****         {
 135:dsp/fx/fx_engine.h ****             length = l
 136:dsp/fx/fx_engine.h ****         };
 137:dsp/fx/fx_engine.h ****     };
 138:dsp/fx/fx_engine.h **** 
 139:dsp/fx/fx_engine.h ****     template <typename Memory, int32_t index>
 140:dsp/fx/fx_engine.h ****     struct DelayLine
 141:dsp/fx/fx_engine.h ****     {
 142:dsp/fx/fx_engine.h ****         enum
 143:dsp/fx/fx_engine.h ****         {
 144:dsp/fx/fx_engine.h ****             length = DelayLine<typename Memory::Tail, index - 1>::length,
 145:dsp/fx/fx_engine.h ****             base   = DelayLine<Memory, index - 1>::base
 146:dsp/fx/fx_engine.h ****                    + DelayLine<Memory, index - 1>::length + 1
 147:dsp/fx/fx_engine.h ****         };
 148:dsp/fx/fx_engine.h ****     };
 149:dsp/fx/fx_engine.h **** 
 150:dsp/fx/fx_engine.h ****     template <typename Memory>
 151:dsp/fx/fx_engine.h ****     struct DelayLine<Memory, 0>
ARM GAS  /tmp/ccqUnNFP.s 			page 6


 152:dsp/fx/fx_engine.h ****     {
 153:dsp/fx/fx_engine.h ****         enum
 154:dsp/fx/fx_engine.h ****         {
 155:dsp/fx/fx_engine.h ****             length = Memory::length,
 156:dsp/fx/fx_engine.h ****             base   = 0
 157:dsp/fx/fx_engine.h ****         };
 158:dsp/fx/fx_engine.h ****     };
 159:dsp/fx/fx_engine.h **** 
 160:dsp/fx/fx_engine.h ****     class Context
 161:dsp/fx/fx_engine.h ****     {
 162:dsp/fx/fx_engine.h ****         friend class FxEngine;
 163:dsp/fx/fx_engine.h **** 
 164:dsp/fx/fx_engine.h ****       public:
 165:dsp/fx/fx_engine.h ****         Context() {}
  49              		.loc 2 165 9 view .LVU13
  50              		.loc 2 165 9 is_stmt 0 view .LVU14
  51              	.LBE1707:
  88:dsp/fx/reverb.h **** 
  89:dsp/fx/reverb.h ****         const float kap    = diffusion_;
  52              		.loc 1 89 9 is_stmt 1 view .LVU15
  52:dsp/fx/reverb.h ****     {
  53              		.loc 1 52 10 is_stmt 0 view .LVU16
  54 0000 2DE9F04F 		push	{r4, r5, r6, r7, r8, r9, r10, fp, lr}
  55              		.cfi_def_cfa_offset 36
  56              		.cfi_offset 4, -36
  57              		.cfi_offset 5, -32
  58              		.cfi_offset 6, -28
  59              		.cfi_offset 7, -24
  60              		.cfi_offset 8, -20
  61              		.cfi_offset 9, -16
  62              		.cfi_offset 10, -12
  63              		.cfi_offset 11, -8
  64              		.cfi_offset 14, -4
  65 0004 2DED0A8B 		vpush.64	{d8, d9, d10, d11, d12}
  66              		.cfi_def_cfa_offset 76
  67              		.cfi_offset 80, -76
  68              		.cfi_offset 81, -72
  69              		.cfi_offset 82, -68
  70              		.cfi_offset 83, -64
  71              		.cfi_offset 84, -60
  72              		.cfi_offset 85, -56
  73              		.cfi_offset 86, -52
  74              		.cfi_offset 87, -48
  75              		.cfi_offset 88, -44
  76              		.cfi_offset 89, -40
  77 0008 89B0     		sub	sp, sp, #36
  78              		.cfi_def_cfa_offset 112
  52:dsp/fx/reverb.h ****     {
  79              		.loc 1 52 10 view .LVU17
  80 000a 0346     		mov	r3, r0
  81              		.loc 1 89 21 view .LVU18
  82 000c D0ED0D8A 		vldr.32	s17, [r0, #52]
  83              	.LVL1:
  90:dsp/fx/reverb.h ****         const float klp    = lp_;
  84              		.loc 1 90 9 is_stmt 1 view .LVU19
  52:dsp/fx/reverb.h ****     {
  85              		.loc 1 52 10 is_stmt 0 view .LVU20
ARM GAS  /tmp/ccqUnNFP.s 			page 7


  86 0010 0790     		str	r0, [sp, #28]
  91:dsp/fx/reverb.h ****         const float krt    = reverb_time_;
  92:dsp/fx/reverb.h ****         const float amount = amount_;
  93:dsp/fx/reverb.h ****         const float gain   = input_gain_;
  94:dsp/fx/reverb.h **** 
  95:dsp/fx/reverb.h ****         float lp_1 = lp_decay_1_;
  96:dsp/fx/reverb.h ****         float lp_2 = lp_decay_2_;
  97:dsp/fx/reverb.h **** 
  98:dsp/fx/reverb.h ****         while(size--)
  87              		.loc 1 98 19 view .LVU21
  88 0012 501E     		subs	r0, r2, #1
  89              	.LVL2:
  90:dsp/fx/reverb.h ****         const float klp    = lp_;
  90              		.loc 1 90 21 view .LVU22
  91 0014 D3ED0EAA 		vldr.32	s21, [r3, #56]
  92              	.LVL3:
  91:dsp/fx/reverb.h ****         const float krt    = reverb_time_;
  93              		.loc 1 91 9 is_stmt 1 view .LVU23
  91:dsp/fx/reverb.h ****         const float krt    = reverb_time_;
  94              		.loc 1 91 21 is_stmt 0 view .LVU24
  95 0018 93ED0CBA 		vldr.32	s22, [r3, #48]
  96              	.LVL4:
  92:dsp/fx/reverb.h ****         const float gain   = input_gain_;
  97              		.loc 1 92 9 is_stmt 1 view .LVU25
  92:dsp/fx/reverb.h ****         const float gain   = input_gain_;
  98              		.loc 1 92 21 is_stmt 0 view .LVU26
  99 001c D3ED0ABA 		vldr.32	s23, [r3, #40]
 100              	.LVL5:
  93:dsp/fx/reverb.h **** 
 101              		.loc 1 93 9 is_stmt 1 view .LVU27
  93:dsp/fx/reverb.h **** 
 102              		.loc 1 93 21 is_stmt 0 view .LVU28
 103 0020 93ED0B8A 		vldr.32	s16, [r3, #44]
 104              	.LVL6:
  95:dsp/fx/reverb.h ****         float lp_2 = lp_decay_2_;
 105              		.loc 1 95 9 is_stmt 1 view .LVU29
  95:dsp/fx/reverb.h ****         float lp_2 = lp_decay_2_;
 106              		.loc 1 95 22 is_stmt 0 view .LVU30
 107 0024 93ED0FAA 		vldr.32	s20, [r3, #60]
 108              	.LVL7:
  96:dsp/fx/reverb.h **** 
 109              		.loc 1 96 9 is_stmt 1 view .LVU31
  96:dsp/fx/reverb.h **** 
 110              		.loc 1 96 22 is_stmt 0 view .LVU32
 111 0028 D3ED109A 		vldr.32	s19, [r3, #64]
 112              	.LVL8:
 113              		.loc 1 98 9 is_stmt 1 view .LVU33
 114              		.loc 1 98 19 view .LVU34
 115              		.loc 1 98 19 is_stmt 0 view .LVU35
 116 002c 0190     		str	r0, [sp, #4]
 117              	.LVL9:
 118              		.loc 1 98 19 view .LVU36
 119 002e 002A     		cmp	r2, #0
 120 0030 00F05082 		beq	.L2
 121 0034 01F10805 		add	r5, r1, #8
 122 0038 B1EE689A 		vneg.f32	s18, s17
 123              	.LBB1708:
ARM GAS  /tmp/ccqUnNFP.s 			page 8


 124              	.LBB1709:
 125              	.LBB1710:
 166:dsp/fx/fx_engine.h ****         ~Context() {}
 167:dsp/fx/fx_engine.h **** 
 168:dsp/fx/fx_engine.h ****         inline void Load(float value) { accumulator_ = value; }
 169:dsp/fx/fx_engine.h **** 
 170:dsp/fx/fx_engine.h ****         inline void Read(float value, float scale)
 171:dsp/fx/fx_engine.h ****         {
 172:dsp/fx/fx_engine.h ****             accumulator_ += value * scale;
 173:dsp/fx/fx_engine.h ****         }
 174:dsp/fx/fx_engine.h **** 
 175:dsp/fx/fx_engine.h ****         inline void Read(float value) { accumulator_ += value; }
 176:dsp/fx/fx_engine.h **** 
 177:dsp/fx/fx_engine.h ****         inline void Write(float& value) { value = accumulator_; }
 178:dsp/fx/fx_engine.h **** 
 179:dsp/fx/fx_engine.h ****         inline void Write(float& value, float scale)
 180:dsp/fx/fx_engine.h ****         {
 181:dsp/fx/fx_engine.h ****             value = accumulator_;
 182:dsp/fx/fx_engine.h ****             accumulator_ *= scale;
 183:dsp/fx/fx_engine.h ****         }
 184:dsp/fx/fx_engine.h **** 
 185:dsp/fx/fx_engine.h ****         template <typename D>
 186:dsp/fx/fx_engine.h ****         inline void Write(D& d, int32_t offset, float scale)
 187:dsp/fx/fx_engine.h ****         {
 188:dsp/fx/fx_engine.h ****             STATIC_ASSERT(D::base + D::length <= size, delay_memory_full);
 189:dsp/fx/fx_engine.h ****             T w = DataType<format>::Compress(accumulator_);
 190:dsp/fx/fx_engine.h ****             if(offset == -1)
 191:dsp/fx/fx_engine.h ****             {
 192:dsp/fx/fx_engine.h ****                 buffer_[(write_ptr_ + D::base + D::length - 1) & MASK] = w;
 193:dsp/fx/fx_engine.h ****             }
 194:dsp/fx/fx_engine.h ****             else
 195:dsp/fx/fx_engine.h ****             {
 196:dsp/fx/fx_engine.h ****                 buffer_[(write_ptr_ + D::base + offset) & MASK] = w;
 197:dsp/fx/fx_engine.h ****             }
 198:dsp/fx/fx_engine.h ****             accumulator_ *= scale;
 199:dsp/fx/fx_engine.h ****         }
 200:dsp/fx/fx_engine.h **** 
 201:dsp/fx/fx_engine.h ****         template <typename D>
 202:dsp/fx/fx_engine.h ****         inline void Write(D& d, float scale)
 203:dsp/fx/fx_engine.h ****         {
 204:dsp/fx/fx_engine.h ****             Write(d, 0, scale);
 205:dsp/fx/fx_engine.h ****         }
 206:dsp/fx/fx_engine.h **** 
 207:dsp/fx/fx_engine.h ****         template <typename D>
 208:dsp/fx/fx_engine.h ****         inline void WriteAllPass(D& d, int32_t offset, float scale)
 209:dsp/fx/fx_engine.h ****         {
 210:dsp/fx/fx_engine.h ****             Write(d, offset, scale);
 211:dsp/fx/fx_engine.h ****             accumulator_ += previous_read_;
 212:dsp/fx/fx_engine.h ****         }
 213:dsp/fx/fx_engine.h **** 
 214:dsp/fx/fx_engine.h ****         template <typename D>
 215:dsp/fx/fx_engine.h ****         inline void WriteAllPass(D& d, float scale)
 216:dsp/fx/fx_engine.h ****         {
 217:dsp/fx/fx_engine.h ****             WriteAllPass(d, 0, scale);
 218:dsp/fx/fx_engine.h ****         }
 219:dsp/fx/fx_engine.h **** 
 220:dsp/fx/fx_engine.h ****         template <typename D>
ARM GAS  /tmp/ccqUnNFP.s 			page 9


 221:dsp/fx/fx_engine.h ****         inline void Read(D& d, int32_t offset, float scale)
 222:dsp/fx/fx_engine.h ****         {
 223:dsp/fx/fx_engine.h ****             STATIC_ASSERT(D::base + D::length <= size, delay_memory_full);
 224:dsp/fx/fx_engine.h ****             T r;
 225:dsp/fx/fx_engine.h ****             if(offset == -1)
 226:dsp/fx/fx_engine.h ****             {
 227:dsp/fx/fx_engine.h ****                 r = buffer_[(write_ptr_ + D::base + D::length - 1) & MASK];
 228:dsp/fx/fx_engine.h ****             }
 229:dsp/fx/fx_engine.h ****             else
 230:dsp/fx/fx_engine.h ****             {
 231:dsp/fx/fx_engine.h ****                 r = buffer_[(write_ptr_ + D::base + offset) & MASK];
 232:dsp/fx/fx_engine.h ****             }
 233:dsp/fx/fx_engine.h ****             float r_f      = DataType<format>::Decompress(r);
 234:dsp/fx/fx_engine.h ****             previous_read_ = r_f;
 235:dsp/fx/fx_engine.h ****             accumulator_ += r_f * scale;
 236:dsp/fx/fx_engine.h ****         }
 237:dsp/fx/fx_engine.h **** 
 238:dsp/fx/fx_engine.h ****         template <typename D>
 239:dsp/fx/fx_engine.h ****         inline void Read(D& d, float scale)
 240:dsp/fx/fx_engine.h ****         {
 241:dsp/fx/fx_engine.h ****             Read(d, 0, scale);
 242:dsp/fx/fx_engine.h ****         }
 243:dsp/fx/fx_engine.h **** 
 244:dsp/fx/fx_engine.h ****         inline void Lp(float& state, float coefficient)
 245:dsp/fx/fx_engine.h ****         {
 246:dsp/fx/fx_engine.h ****             state += coefficient * (accumulator_ - state);
 247:dsp/fx/fx_engine.h ****             accumulator_ = state;
 248:dsp/fx/fx_engine.h ****         }
 249:dsp/fx/fx_engine.h **** 
 250:dsp/fx/fx_engine.h ****         inline void Hp(float& state, float coefficient)
 251:dsp/fx/fx_engine.h ****         {
 252:dsp/fx/fx_engine.h ****             state += coefficient * (accumulator_ - state);
 253:dsp/fx/fx_engine.h ****             accumulator_ -= state;
 254:dsp/fx/fx_engine.h ****         }
 255:dsp/fx/fx_engine.h **** 
 256:dsp/fx/fx_engine.h ****         template <typename D>
 257:dsp/fx/fx_engine.h ****         inline void Interpolate(D& d, float offset, float scale)
 258:dsp/fx/fx_engine.h ****         {
 259:dsp/fx/fx_engine.h ****             STATIC_ASSERT(D::base + D::length <= size, delay_memory_full);
 260:dsp/fx/fx_engine.h ****             MAKE_INTEGRAL_FRACTIONAL(offset);
 261:dsp/fx/fx_engine.h ****             float a = DataType<format>::Decompress(
 262:dsp/fx/fx_engine.h ****                 buffer_[(write_ptr_ + offset_integral + D::base) & MASK]);
 263:dsp/fx/fx_engine.h ****             float b = DataType<format>::Decompress(
 264:dsp/fx/fx_engine.h ****                 buffer_[(write_ptr_ + offset_integral + D::base + 1) & MASK]);
 265:dsp/fx/fx_engine.h ****             float x        = a + (b - a) * offset_fractional;
 266:dsp/fx/fx_engine.h ****             previous_read_ = x;
 267:dsp/fx/fx_engine.h ****             accumulator_ += x * scale;
 268:dsp/fx/fx_engine.h ****         }
 269:dsp/fx/fx_engine.h **** 
 270:dsp/fx/fx_engine.h ****         template <typename D>
 271:dsp/fx/fx_engine.h ****         inline void Interpolate(D&       d,
 272:dsp/fx/fx_engine.h ****                                 float    offset,
 273:dsp/fx/fx_engine.h ****                                 LFOIndex index,
 274:dsp/fx/fx_engine.h ****                                 float    amplitude,
 275:dsp/fx/fx_engine.h ****                                 float    scale)
 276:dsp/fx/fx_engine.h ****         {
 277:dsp/fx/fx_engine.h ****             STATIC_ASSERT(D::base + D::length <= size, delay_memory_full);
ARM GAS  /tmp/ccqUnNFP.s 			page 10


 278:dsp/fx/fx_engine.h ****             offset += amplitude * lfo_value_[index];
 279:dsp/fx/fx_engine.h ****             MAKE_INTEGRAL_FRACTIONAL(offset);
 280:dsp/fx/fx_engine.h ****             float a = DataType<format>::Decompress(
 281:dsp/fx/fx_engine.h ****                 buffer_[(write_ptr_ + offset_integral + D::base) & MASK]);
 282:dsp/fx/fx_engine.h ****             float b = DataType<format>::Decompress(
 283:dsp/fx/fx_engine.h ****                 buffer_[(write_ptr_ + offset_integral + D::base + 1) & MASK]);
 284:dsp/fx/fx_engine.h ****             float x        = a + (b - a) * offset_fractional;
 285:dsp/fx/fx_engine.h ****             previous_read_ = x;
 286:dsp/fx/fx_engine.h ****             accumulator_ += x * scale;
 287:dsp/fx/fx_engine.h ****         }
 288:dsp/fx/fx_engine.h **** 
 289:dsp/fx/fx_engine.h ****       private:
 290:dsp/fx/fx_engine.h ****         float   accumulator_;
 291:dsp/fx/fx_engine.h ****         float   previous_read_;
 292:dsp/fx/fx_engine.h ****         float   lfo_value_[2];
 293:dsp/fx/fx_engine.h ****         T*      buffer_;
 294:dsp/fx/fx_engine.h ****         int32_t write_ptr_;
 295:dsp/fx/fx_engine.h ****     };
 296:dsp/fx/fx_engine.h **** 
 297:dsp/fx/fx_engine.h ****     inline void SetLFOFrequency(LFOIndex index, float frequency)
 298:dsp/fx/fx_engine.h ****     {
 299:dsp/fx/fx_engine.h ****         lfo_[index].Init(frequency * 32.0f);
 300:dsp/fx/fx_engine.h ****     }
 301:dsp/fx/fx_engine.h **** 
 302:dsp/fx/fx_engine.h ****     inline void Start(Context* c)
 303:dsp/fx/fx_engine.h ****     {
 304:dsp/fx/fx_engine.h ****         --write_ptr_;
 305:dsp/fx/fx_engine.h ****         if(write_ptr_ < 0)
 306:dsp/fx/fx_engine.h ****         {
 307:dsp/fx/fx_engine.h ****             write_ptr_ += size;
 308:dsp/fx/fx_engine.h ****         }
 309:dsp/fx/fx_engine.h ****         c->accumulator_   = 0.0f;
 310:dsp/fx/fx_engine.h ****         c->previous_read_ = 0.0f;
 311:dsp/fx/fx_engine.h ****         c->buffer_        = buffer_;
 126              		.loc 2 311 29 view .LVU37
 127 003c 9846     		mov	r8, r3
 128 003e 0095     		str	r5, [sp]
 129 0040 D3E9004B 		ldrd	r4, fp, [r3]
 130 0044 35E2     		b	.L10
 131              	.LVL10:
 132              	.L22:
 133              	.LBB1711:
 134              	.LBI1711:
 135              		.file 3 "./stmtemp.h"
   1:./stmtemp.h   **** #include "daisy.h"
   2:./stmtemp.h   **** #include "daisysp.h"
   3:./stmtemp.h   **** #include "resources.h"
   4:./stmtemp.h   **** 
   5:./stmtemp.h   **** using namespace daisy;
   6:./stmtemp.h   **** using namespace daisysp;
   7:./stmtemp.h   **** 
   8:./stmtemp.h   **** #define MAKE_INTEGRAL_FRACTIONAL(x)                   \
   9:./stmtemp.h   ****     int32_t x##_integral   = static_cast<int32_t>(x); \
  10:./stmtemp.h   ****     float   x##_fractional = x - static_cast<float>(x##_integral);
  11:./stmtemp.h   **** 
  12:./stmtemp.h   **** #define SLOPE(out, in, positive, negative)                \
  13:./stmtemp.h   ****     {                                                     \
ARM GAS  /tmp/ccqUnNFP.s 			page 11


  14:./stmtemp.h   ****         float error = (in)-out;                           \
  15:./stmtemp.h   ****         out += (error > 0 ? positive : negative) * error; \
  16:./stmtemp.h   ****     }
  17:./stmtemp.h   **** 
  18:./stmtemp.h   **** #define ONE_POLE(out, in, coefficient) out += (coefficient) * ((in)-out);
  19:./stmtemp.h   **** 
  20:./stmtemp.h   **** #define CONSTRAIN(var, min, max) \
  21:./stmtemp.h   ****     if(var < (min))              \
  22:./stmtemp.h   ****     {                            \
  23:./stmtemp.h   ****         var = (min);             \
  24:./stmtemp.h   ****     }                            \
  25:./stmtemp.h   ****     else if(var > (max))         \
  26:./stmtemp.h   ****     {                            \
  27:./stmtemp.h   ****         var = (max);             \
  28:./stmtemp.h   ****     }
  29:./stmtemp.h   **** 
  30:./stmtemp.h   **** #define JOIN(lhs, rhs) JOIN_1(lhs, rhs)
  31:./stmtemp.h   **** #define JOIN_1(lhs, rhs) JOIN_2(lhs, rhs)
  32:./stmtemp.h   **** #define JOIN_2(lhs, rhs) lhs##rhs
  33:./stmtemp.h   **** 
  34:./stmtemp.h   **** #define STATIC_ASSERT(expression, message)                                  \
  35:./stmtemp.h   ****     struct JOIN(__static_assertion_at_line_, __LINE__)                      \
  36:./stmtemp.h   ****     {                                                                       \
  37:./stmtemp.h   ****         impl::StaticAssertion<static_cast<bool>((expression))>              \
  38:./stmtemp.h   ****             JOIN(JOIN(JOIN(STATIC_ASSERTION_FAILED_AT_LINE_, __LINE__), _), \
  39:./stmtemp.h   ****                  message);                                                  \
  40:./stmtemp.h   ****     };
  41:./stmtemp.h   **** 
  42:./stmtemp.h   **** namespace impl
  43:./stmtemp.h   **** {
  44:./stmtemp.h   **** template <bool>
  45:./stmtemp.h   **** struct StaticAssertion;
  46:./stmtemp.h   **** 
  47:./stmtemp.h   **** template <>
  48:./stmtemp.h   **** struct StaticAssertion<true>
  49:./stmtemp.h   **** {
  50:./stmtemp.h   **** }; // StaticAssertion<true>
  51:./stmtemp.h   **** 
  52:./stmtemp.h   **** template <int i>
  53:./stmtemp.h   **** struct StaticAssertionTest
  54:./stmtemp.h   **** {
  55:./stmtemp.h   **** }; // StaticAssertionTest<int>
  56:./stmtemp.h   **** 
  57:./stmtemp.h   **** } // namespace impl
  58:./stmtemp.h   **** 
  59:./stmtemp.h   **** template <uint32_t a, uint32_t b, uint32_t c, uint32_t d>
  60:./stmtemp.h   **** struct FourCC
  61:./stmtemp.h   **** {
  62:./stmtemp.h   ****     static const uint32_t value = (((((d << 8) | c) << 8) | b) << 8) | a;
  63:./stmtemp.h   **** };
  64:./stmtemp.h   **** 
  65:./stmtemp.h   **** class CosineOscillator
  66:./stmtemp.h   **** {
  67:./stmtemp.h   ****   public:
  68:./stmtemp.h   ****     CosineOscillator() {}
  69:./stmtemp.h   ****     ~CosineOscillator() {}
  70:./stmtemp.h   **** 
ARM GAS  /tmp/ccqUnNFP.s 			page 12


  71:./stmtemp.h   ****     void Init(float freq)
  72:./stmtemp.h   ****     {
  73:./stmtemp.h   ****         float sample_rate = 48000; //hardcoded for now
  74:./stmtemp.h   ****         phs_inc_          = freq / sample_rate;
  75:./stmtemp.h   ****     }
  76:./stmtemp.h   **** 
  77:./stmtemp.h   ****     float Next()
 136              		.loc 3 77 11 is_stmt 1 view .LVU38
 137              	.LBB1712:
  78:./stmtemp.h   ****     {
  79:./stmtemp.h   ****         phs_ += phs_inc_;
 138              		.loc 3 79 9 view .LVU39
 139              		.loc 3 79 14 is_stmt 0 view .LVU40
 140 0046 98ED057A 		vldr.32	s14, [r8, #20]
  80:./stmtemp.h   **** 
  81:./stmtemp.h   ****         if(phs_ >= 1.f)
 141              		.loc 3 81 9 view .LVU41
 142 004a F7EE007A 		vmov.f32	s15, #1.0e+0
  79:./stmtemp.h   **** 
 143              		.loc 3 79 14 view .LVU42
 144 004e 98ED040A 		vldr.32	s0, [r8, #16]
 145 0052 30EE070A 		vadd.f32	s0, s0, s14
 146              		.loc 3 81 9 is_stmt 1 view .LVU43
 147 0056 B4EEE70A 		vcmpe.f32	s0, s15
 148 005a F1EE10FA 		vmrs	APSR_nzcv, FPSCR
  82:./stmtemp.h   ****         {
  83:./stmtemp.h   ****             phs_ -= 1.f;
 149              		.loc 3 83 13 view .LVU44
 150              		.loc 3 83 18 is_stmt 0 view .LVU45
 151 005e A8BF     		it	ge
 152 0060 30EE670A 		vsubge.f32	s0, s0, s15
 153 0064 88ED040A 		vstr.32	s0, [r8, #16]
 154              	.LVL11:
 155              		.loc 3 83 18 view .LVU46
 156              	.LBE1712:
 157              	.LBE1711:
 158              	.LBB1713:
 159              	.LBI1713:
 302:dsp/fx/fx_engine.h ****     {
 160              		.loc 2 302 17 is_stmt 1 view .LVU47
 161              	.LBB1714:
 162              	.LBB1715:
 163              	.LBB1716:
  84:./stmtemp.h   ****         }
  85:./stmtemp.h   **** 
  86:./stmtemp.h   ****         value_ = cos(phs_);
 164              		.loc 3 86 9 view .LVU48
 165              	.LBB1717:
 166              	.LBI1717:
 167              		.file 4 "/usr/include/newlib/c++/9.2.1/cmath"
   1:/usr/include/newlib/c++/9.2.1/cmath **** // -*- C++ -*- C forwarding header.
   2:/usr/include/newlib/c++/9.2.1/cmath **** 
   3:/usr/include/newlib/c++/9.2.1/cmath **** // Copyright (C) 1997-2019 Free Software Foundation, Inc.
   4:/usr/include/newlib/c++/9.2.1/cmath **** //
   5:/usr/include/newlib/c++/9.2.1/cmath **** // This file is part of the GNU ISO C++ Library.  This library is free
   6:/usr/include/newlib/c++/9.2.1/cmath **** // software; you can redistribute it and/or modify it under the
   7:/usr/include/newlib/c++/9.2.1/cmath **** // terms of the GNU General Public License as published by the
ARM GAS  /tmp/ccqUnNFP.s 			page 13


   8:/usr/include/newlib/c++/9.2.1/cmath **** // Free Software Foundation; either version 3, or (at your option)
   9:/usr/include/newlib/c++/9.2.1/cmath **** // any later version.
  10:/usr/include/newlib/c++/9.2.1/cmath **** 
  11:/usr/include/newlib/c++/9.2.1/cmath **** // This library is distributed in the hope that it will be useful,
  12:/usr/include/newlib/c++/9.2.1/cmath **** // but WITHOUT ANY WARRANTY; without even the implied warranty of
  13:/usr/include/newlib/c++/9.2.1/cmath **** // MERCHANTABILITY or FITNESS FOR A PARTICULAR PURPOSE.  See the
  14:/usr/include/newlib/c++/9.2.1/cmath **** // GNU General Public License for more details.
  15:/usr/include/newlib/c++/9.2.1/cmath **** 
  16:/usr/include/newlib/c++/9.2.1/cmath **** // Under Section 7 of GPL version 3, you are granted additional
  17:/usr/include/newlib/c++/9.2.1/cmath **** // permissions described in the GCC Runtime Library Exception, version
  18:/usr/include/newlib/c++/9.2.1/cmath **** // 3.1, as published by the Free Software Foundation.
  19:/usr/include/newlib/c++/9.2.1/cmath **** 
  20:/usr/include/newlib/c++/9.2.1/cmath **** // You should have received a copy of the GNU General Public License and
  21:/usr/include/newlib/c++/9.2.1/cmath **** // a copy of the GCC Runtime Library Exception along with this program;
  22:/usr/include/newlib/c++/9.2.1/cmath **** // see the files COPYING3 and COPYING.RUNTIME respectively.  If not, see
  23:/usr/include/newlib/c++/9.2.1/cmath **** // <http://www.gnu.org/licenses/>.
  24:/usr/include/newlib/c++/9.2.1/cmath **** 
  25:/usr/include/newlib/c++/9.2.1/cmath **** /** @file include/cmath
  26:/usr/include/newlib/c++/9.2.1/cmath ****  *  This is a Standard C++ Library file.  You should @c \#include this file
  27:/usr/include/newlib/c++/9.2.1/cmath ****  *  in your programs, rather than any of the @a *.h implementation files.
  28:/usr/include/newlib/c++/9.2.1/cmath ****  *
  29:/usr/include/newlib/c++/9.2.1/cmath ****  *  This is the C++ version of the Standard C Library header @c math.h,
  30:/usr/include/newlib/c++/9.2.1/cmath ****  *  and its contents are (mostly) the same as that header, but are all
  31:/usr/include/newlib/c++/9.2.1/cmath ****  *  contained in the namespace @c std (except for names which are defined
  32:/usr/include/newlib/c++/9.2.1/cmath ****  *  as macros in C).
  33:/usr/include/newlib/c++/9.2.1/cmath ****  */
  34:/usr/include/newlib/c++/9.2.1/cmath **** 
  35:/usr/include/newlib/c++/9.2.1/cmath **** //
  36:/usr/include/newlib/c++/9.2.1/cmath **** // ISO C++ 14882: 26.5  C library
  37:/usr/include/newlib/c++/9.2.1/cmath **** //
  38:/usr/include/newlib/c++/9.2.1/cmath **** 
  39:/usr/include/newlib/c++/9.2.1/cmath **** #pragma GCC system_header
  40:/usr/include/newlib/c++/9.2.1/cmath **** 
  41:/usr/include/newlib/c++/9.2.1/cmath **** #include <bits/c++config.h>
  42:/usr/include/newlib/c++/9.2.1/cmath **** #include <bits/cpp_type_traits.h>
  43:/usr/include/newlib/c++/9.2.1/cmath **** #include <ext/type_traits.h>
  44:/usr/include/newlib/c++/9.2.1/cmath **** #define _GLIBCXX_INCLUDE_NEXT_C_HEADERS
  45:/usr/include/newlib/c++/9.2.1/cmath **** #include_next <math.h>
  46:/usr/include/newlib/c++/9.2.1/cmath **** #undef _GLIBCXX_INCLUDE_NEXT_C_HEADERS
  47:/usr/include/newlib/c++/9.2.1/cmath **** #include <bits/std_abs.h>
  48:/usr/include/newlib/c++/9.2.1/cmath **** 
  49:/usr/include/newlib/c++/9.2.1/cmath **** #ifndef _GLIBCXX_CMATH
  50:/usr/include/newlib/c++/9.2.1/cmath **** #define _GLIBCXX_CMATH 1
  51:/usr/include/newlib/c++/9.2.1/cmath **** 
  52:/usr/include/newlib/c++/9.2.1/cmath **** // Get rid of those macros defined in <math.h> in lieu of real functions.
  53:/usr/include/newlib/c++/9.2.1/cmath **** #undef div
  54:/usr/include/newlib/c++/9.2.1/cmath **** #undef acos
  55:/usr/include/newlib/c++/9.2.1/cmath **** #undef asin
  56:/usr/include/newlib/c++/9.2.1/cmath **** #undef atan
  57:/usr/include/newlib/c++/9.2.1/cmath **** #undef atan2
  58:/usr/include/newlib/c++/9.2.1/cmath **** #undef ceil
  59:/usr/include/newlib/c++/9.2.1/cmath **** #undef cos
  60:/usr/include/newlib/c++/9.2.1/cmath **** #undef cosh
  61:/usr/include/newlib/c++/9.2.1/cmath **** #undef exp
  62:/usr/include/newlib/c++/9.2.1/cmath **** #undef fabs
  63:/usr/include/newlib/c++/9.2.1/cmath **** #undef floor
  64:/usr/include/newlib/c++/9.2.1/cmath **** #undef fmod
ARM GAS  /tmp/ccqUnNFP.s 			page 14


  65:/usr/include/newlib/c++/9.2.1/cmath **** #undef frexp
  66:/usr/include/newlib/c++/9.2.1/cmath **** #undef ldexp
  67:/usr/include/newlib/c++/9.2.1/cmath **** #undef log
  68:/usr/include/newlib/c++/9.2.1/cmath **** #undef log10
  69:/usr/include/newlib/c++/9.2.1/cmath **** #undef modf
  70:/usr/include/newlib/c++/9.2.1/cmath **** #undef pow
  71:/usr/include/newlib/c++/9.2.1/cmath **** #undef sin
  72:/usr/include/newlib/c++/9.2.1/cmath **** #undef sinh
  73:/usr/include/newlib/c++/9.2.1/cmath **** #undef sqrt
  74:/usr/include/newlib/c++/9.2.1/cmath **** #undef tan
  75:/usr/include/newlib/c++/9.2.1/cmath **** #undef tanh
  76:/usr/include/newlib/c++/9.2.1/cmath **** 
  77:/usr/include/newlib/c++/9.2.1/cmath **** extern "C++"
  78:/usr/include/newlib/c++/9.2.1/cmath **** {
  79:/usr/include/newlib/c++/9.2.1/cmath **** namespace std _GLIBCXX_VISIBILITY(default)
  80:/usr/include/newlib/c++/9.2.1/cmath **** {
  81:/usr/include/newlib/c++/9.2.1/cmath **** _GLIBCXX_BEGIN_NAMESPACE_VERSION
  82:/usr/include/newlib/c++/9.2.1/cmath **** 
  83:/usr/include/newlib/c++/9.2.1/cmath ****   using ::acos;
  84:/usr/include/newlib/c++/9.2.1/cmath **** 
  85:/usr/include/newlib/c++/9.2.1/cmath **** #ifndef __CORRECT_ISO_CPP_MATH_H_PROTO
  86:/usr/include/newlib/c++/9.2.1/cmath ****   inline _GLIBCXX_CONSTEXPR float
  87:/usr/include/newlib/c++/9.2.1/cmath ****   acos(float __x)
  88:/usr/include/newlib/c++/9.2.1/cmath ****   { return __builtin_acosf(__x); }
  89:/usr/include/newlib/c++/9.2.1/cmath **** 
  90:/usr/include/newlib/c++/9.2.1/cmath ****   inline _GLIBCXX_CONSTEXPR long double
  91:/usr/include/newlib/c++/9.2.1/cmath ****   acos(long double __x)
  92:/usr/include/newlib/c++/9.2.1/cmath ****   { return __builtin_acosl(__x); }
  93:/usr/include/newlib/c++/9.2.1/cmath **** #endif
  94:/usr/include/newlib/c++/9.2.1/cmath **** 
  95:/usr/include/newlib/c++/9.2.1/cmath ****   template<typename _Tp>
  96:/usr/include/newlib/c++/9.2.1/cmath ****     inline _GLIBCXX_CONSTEXPR
  97:/usr/include/newlib/c++/9.2.1/cmath ****     typename __gnu_cxx::__enable_if<__is_integer<_Tp>::__value, 
  98:/usr/include/newlib/c++/9.2.1/cmath ****                                     double>::__type
  99:/usr/include/newlib/c++/9.2.1/cmath ****     acos(_Tp __x)
 100:/usr/include/newlib/c++/9.2.1/cmath ****     { return __builtin_acos(__x); }
 101:/usr/include/newlib/c++/9.2.1/cmath **** 
 102:/usr/include/newlib/c++/9.2.1/cmath ****   using ::asin;
 103:/usr/include/newlib/c++/9.2.1/cmath **** 
 104:/usr/include/newlib/c++/9.2.1/cmath **** #ifndef __CORRECT_ISO_CPP_MATH_H_PROTO
 105:/usr/include/newlib/c++/9.2.1/cmath ****   inline _GLIBCXX_CONSTEXPR float
 106:/usr/include/newlib/c++/9.2.1/cmath ****   asin(float __x)
 107:/usr/include/newlib/c++/9.2.1/cmath ****   { return __builtin_asinf(__x); }
 108:/usr/include/newlib/c++/9.2.1/cmath **** 
 109:/usr/include/newlib/c++/9.2.1/cmath ****   inline _GLIBCXX_CONSTEXPR long double
 110:/usr/include/newlib/c++/9.2.1/cmath ****   asin(long double __x)
 111:/usr/include/newlib/c++/9.2.1/cmath ****   { return __builtin_asinl(__x); }
 112:/usr/include/newlib/c++/9.2.1/cmath **** #endif
 113:/usr/include/newlib/c++/9.2.1/cmath **** 
 114:/usr/include/newlib/c++/9.2.1/cmath ****   template<typename _Tp>
 115:/usr/include/newlib/c++/9.2.1/cmath ****     inline _GLIBCXX_CONSTEXPR
 116:/usr/include/newlib/c++/9.2.1/cmath ****     typename __gnu_cxx::__enable_if<__is_integer<_Tp>::__value,
 117:/usr/include/newlib/c++/9.2.1/cmath ****                                     double>::__type
 118:/usr/include/newlib/c++/9.2.1/cmath ****     asin(_Tp __x)
 119:/usr/include/newlib/c++/9.2.1/cmath ****     { return __builtin_asin(__x); }
 120:/usr/include/newlib/c++/9.2.1/cmath **** 
 121:/usr/include/newlib/c++/9.2.1/cmath ****   using ::atan;
ARM GAS  /tmp/ccqUnNFP.s 			page 15


 122:/usr/include/newlib/c++/9.2.1/cmath **** 
 123:/usr/include/newlib/c++/9.2.1/cmath **** #ifndef __CORRECT_ISO_CPP_MATH_H_PROTO
 124:/usr/include/newlib/c++/9.2.1/cmath ****   inline _GLIBCXX_CONSTEXPR float
 125:/usr/include/newlib/c++/9.2.1/cmath ****   atan(float __x)
 126:/usr/include/newlib/c++/9.2.1/cmath ****   { return __builtin_atanf(__x); }
 127:/usr/include/newlib/c++/9.2.1/cmath **** 
 128:/usr/include/newlib/c++/9.2.1/cmath ****   inline _GLIBCXX_CONSTEXPR long double
 129:/usr/include/newlib/c++/9.2.1/cmath ****   atan(long double __x)
 130:/usr/include/newlib/c++/9.2.1/cmath ****   { return __builtin_atanl(__x); }
 131:/usr/include/newlib/c++/9.2.1/cmath **** #endif
 132:/usr/include/newlib/c++/9.2.1/cmath **** 
 133:/usr/include/newlib/c++/9.2.1/cmath ****   template<typename _Tp>
 134:/usr/include/newlib/c++/9.2.1/cmath ****     inline _GLIBCXX_CONSTEXPR
 135:/usr/include/newlib/c++/9.2.1/cmath ****     typename __gnu_cxx::__enable_if<__is_integer<_Tp>::__value,
 136:/usr/include/newlib/c++/9.2.1/cmath ****                                     double>::__type
 137:/usr/include/newlib/c++/9.2.1/cmath ****     atan(_Tp __x)
 138:/usr/include/newlib/c++/9.2.1/cmath ****     { return __builtin_atan(__x); }
 139:/usr/include/newlib/c++/9.2.1/cmath **** 
 140:/usr/include/newlib/c++/9.2.1/cmath ****   using ::atan2;
 141:/usr/include/newlib/c++/9.2.1/cmath **** 
 142:/usr/include/newlib/c++/9.2.1/cmath **** #ifndef __CORRECT_ISO_CPP_MATH_H_PROTO
 143:/usr/include/newlib/c++/9.2.1/cmath ****   inline _GLIBCXX_CONSTEXPR float
 144:/usr/include/newlib/c++/9.2.1/cmath ****   atan2(float __y, float __x)
 145:/usr/include/newlib/c++/9.2.1/cmath ****   { return __builtin_atan2f(__y, __x); }
 146:/usr/include/newlib/c++/9.2.1/cmath **** 
 147:/usr/include/newlib/c++/9.2.1/cmath ****   inline _GLIBCXX_CONSTEXPR long double
 148:/usr/include/newlib/c++/9.2.1/cmath ****   atan2(long double __y, long double __x)
 149:/usr/include/newlib/c++/9.2.1/cmath ****   { return __builtin_atan2l(__y, __x); }
 150:/usr/include/newlib/c++/9.2.1/cmath **** #endif
 151:/usr/include/newlib/c++/9.2.1/cmath **** 
 152:/usr/include/newlib/c++/9.2.1/cmath ****   template<typename _Tp, typename _Up>
 153:/usr/include/newlib/c++/9.2.1/cmath ****     inline _GLIBCXX_CONSTEXPR
 154:/usr/include/newlib/c++/9.2.1/cmath ****     typename __gnu_cxx::__promote_2<_Tp, _Up>::__type
 155:/usr/include/newlib/c++/9.2.1/cmath ****     atan2(_Tp __y, _Up __x)
 156:/usr/include/newlib/c++/9.2.1/cmath ****     {
 157:/usr/include/newlib/c++/9.2.1/cmath ****       typedef typename __gnu_cxx::__promote_2<_Tp, _Up>::__type __type;
 158:/usr/include/newlib/c++/9.2.1/cmath ****       return atan2(__type(__y), __type(__x));
 159:/usr/include/newlib/c++/9.2.1/cmath ****     }
 160:/usr/include/newlib/c++/9.2.1/cmath **** 
 161:/usr/include/newlib/c++/9.2.1/cmath ****   using ::ceil;
 162:/usr/include/newlib/c++/9.2.1/cmath **** 
 163:/usr/include/newlib/c++/9.2.1/cmath **** #ifndef __CORRECT_ISO_CPP_MATH_H_PROTO
 164:/usr/include/newlib/c++/9.2.1/cmath ****   inline _GLIBCXX_CONSTEXPR float
 165:/usr/include/newlib/c++/9.2.1/cmath ****   ceil(float __x)
 166:/usr/include/newlib/c++/9.2.1/cmath ****   { return __builtin_ceilf(__x); }
 167:/usr/include/newlib/c++/9.2.1/cmath **** 
 168:/usr/include/newlib/c++/9.2.1/cmath ****   inline _GLIBCXX_CONSTEXPR long double
 169:/usr/include/newlib/c++/9.2.1/cmath ****   ceil(long double __x)
 170:/usr/include/newlib/c++/9.2.1/cmath ****   { return __builtin_ceill(__x); }
 171:/usr/include/newlib/c++/9.2.1/cmath **** #endif
 172:/usr/include/newlib/c++/9.2.1/cmath **** 
 173:/usr/include/newlib/c++/9.2.1/cmath ****   template<typename _Tp>
 174:/usr/include/newlib/c++/9.2.1/cmath ****     inline _GLIBCXX_CONSTEXPR
 175:/usr/include/newlib/c++/9.2.1/cmath ****     typename __gnu_cxx::__enable_if<__is_integer<_Tp>::__value, 
 176:/usr/include/newlib/c++/9.2.1/cmath ****                                     double>::__type
 177:/usr/include/newlib/c++/9.2.1/cmath ****     ceil(_Tp __x)
 178:/usr/include/newlib/c++/9.2.1/cmath ****     { return __builtin_ceil(__x); }
ARM GAS  /tmp/ccqUnNFP.s 			page 16


 179:/usr/include/newlib/c++/9.2.1/cmath **** 
 180:/usr/include/newlib/c++/9.2.1/cmath ****   using ::cos;
 181:/usr/include/newlib/c++/9.2.1/cmath **** 
 182:/usr/include/newlib/c++/9.2.1/cmath **** #ifndef __CORRECT_ISO_CPP_MATH_H_PROTO
 183:/usr/include/newlib/c++/9.2.1/cmath ****   inline _GLIBCXX_CONSTEXPR float
 184:/usr/include/newlib/c++/9.2.1/cmath ****   cos(float __x)
 168              		.loc 4 184 3 view .LVU49
 169              	.LBB1718:
 185:/usr/include/newlib/c++/9.2.1/cmath ****   { return __builtin_cosf(__x); }
 170              		.loc 4 185 5 view .LVU50
 171              		.loc 4 185 26 is_stmt 0 view .LVU51
 172 0068 FFF7FEFF 		bl	cosf
 173              	.LVL12:
 174              		.loc 4 185 26 view .LVU52
 175              	.LBE1718:
 176              	.LBE1717:
 177              	.LBE1716:
 178              	.LBE1715:
 179              	.LBB1723:
 180              	.LBB1724:
  79:./stmtemp.h   **** 
 181              		.loc 3 79 14 view .LVU53
 182 006c D8ED087A 		vldr.32	s15, [r8, #32]
 183 0070 D8ED096A 		vldr.32	s13, [r8, #36]
  81:./stmtemp.h   ****         {
 184              		.loc 3 81 9 view .LVU54
 185 0074 B7EE007A 		vmov.f32	s14, #1.0e+0
 186              	.LBE1724:
 187              	.LBE1723:
 188              	.LBB1729:
 189              	.LBB1721:
 190              	.LBB1720:
 191              	.LBB1719:
 192              		.loc 4 185 26 view .LVU55
 193 0078 B0EE40CA 		vmov.f32	s24, s0
 194              		.loc 4 185 26 view .LVU56
 195              	.LBE1719:
 196              	.LBE1720:
 197              	.LBE1721:
 198              	.LBE1729:
 199              	.LBB1730:
 200              	.LBB1727:
  79:./stmtemp.h   **** 
 201              		.loc 3 79 14 view .LVU57
 202 007c 37EEA60A 		vadd.f32	s0, s15, s13
 203              	.LBE1727:
 204              	.LBE1730:
 205              	.LBB1731:
 206              	.LBB1722:
 207              		.loc 3 86 16 view .LVU58
 208 0080 88ED02CA 		vstr.32	s24, [r8, #8]
  87:./stmtemp.h   **** 
  88:./stmtemp.h   ****         return value_;
 209              		.loc 3 88 9 is_stmt 1 view .LVU59
 210              	.LVL13:
 211              		.loc 3 88 9 is_stmt 0 view .LVU60
 212              	.LBE1722:
ARM GAS  /tmp/ccqUnNFP.s 			page 17


 213              	.LBE1731:
 214              	.LBB1732:
 215              	.LBI1723:
  77:./stmtemp.h   ****     {
 216              		.loc 3 77 11 is_stmt 1 view .LVU61
 217              	.LBB1728:
  79:./stmtemp.h   **** 
 218              		.loc 3 79 9 view .LVU62
  81:./stmtemp.h   ****         {
 219              		.loc 3 81 9 view .LVU63
 220 0084 B4EEC70A 		vcmpe.f32	s0, s14
 221 0088 F1EE10FA 		vmrs	APSR_nzcv, FPSCR
  83:./stmtemp.h   ****         }
 222              		.loc 3 83 13 view .LVU64
  83:./stmtemp.h   ****         }
 223              		.loc 3 83 18 is_stmt 0 view .LVU65
 224 008c A8BF     		it	ge
 225 008e 30EE470A 		vsubge.f32	s0, s0, s14
 226 0092 88ED080A 		vstr.32	s0, [r8, #32]
  86:./stmtemp.h   **** 
 227              		.loc 3 86 9 is_stmt 1 view .LVU66
 228              	.LVL14:
 229              	.LBB1725:
 230              	.LBI1725:
 184:/usr/include/newlib/c++/9.2.1/cmath ****   { return __builtin_cosf(__x); }
 231              		.loc 4 184 3 view .LVU67
 232              	.LBB1726:
 233              		.loc 4 185 5 view .LVU68
 234              		.loc 4 185 26 is_stmt 0 view .LVU69
 235 0096 FFF7FEFF 		bl	cosf
 236              	.LVL15:
 237              		.loc 4 185 26 view .LVU70
 238              	.LBE1726:
 239              	.LBE1725:
  86:./stmtemp.h   **** 
 240              		.loc 3 86 16 view .LVU71
 241 009a 88ED060A 		vstr.32	s0, [r8, #24]
 242              		.loc 3 88 9 is_stmt 1 view .LVU72
 243              	.LVL16:
 244              	.L9:
 245              		.loc 3 88 9 is_stmt 0 view .LVU73
 246              	.LBE1728:
 247              	.LBE1732:
 248              	.LBE1714:
 249              	.LBE1713:
 250              	.LBE1710:
 251              	.LBE1709:
  99:dsp/fx/reverb.h ****         {
 100:dsp/fx/reverb.h ****             float wet;
 101:dsp/fx/reverb.h ****             float apout = 0.0f;
 102:dsp/fx/reverb.h ****             engine_.Start(&c);
 103:dsp/fx/reverb.h **** 
 104:dsp/fx/reverb.h ****             // Smear AP1 inside the loop.
 105:dsp/fx/reverb.h ****             c.Interpolate(ap1, 10.0f, LFO_1, 60.0f, 1.0f);
 252              		.loc 1 105 13 is_stmt 1 view .LVU74
 253              	.LBB1736:
 254              	.LBI1736:
ARM GAS  /tmp/ccqUnNFP.s 			page 18


 271:dsp/fx/fx_engine.h ****                                 float    offset,
 255              		.loc 2 271 21 view .LVU75
 256              	.LBB1737:
 278:dsp/fx/fx_engine.h ****             MAKE_INTEGRAL_FRACTIONAL(offset);
 257              		.loc 2 278 13 is_stmt 0 view .LVU76
 258 009e F2EE047A 		vmov.f32	s15, #1.0e+1
 259 00a2 9FEDF67A 		vldr.32	s14, .L23
 260              	.LBE1737:
 261              	.LBE1736:
 262              	.LBE1708:
  98:dsp/fx/reverb.h ****         {
 263              		.loc 1 98 19 view .LVU77
 264 00a6 0199     		ldr	r1, [sp, #4]
 265              	.LBB2491:
 266              	.LBB1772:
 267              	.LBB1773:
 268              	.LBB1774:
 269              	.LBB1775:
  70:dsp/fx/fx_engine.h ****     }
 270              		.loc 2 70 58 view .LVU78
 271 00a8 47F6FF72 		movw	r2, #32767
 272              	.LBE1775:
 273              	.LBE1774:
 274              	.LBE1773:
 275              	.LBE1772:
 106:dsp/fx/reverb.h ****             c.Write(ap1, 100, 0.0f);
 107:dsp/fx/reverb.h **** 
 108:dsp/fx/reverb.h ****             c.Read(in_out->l + in_out->r, gain);
 276              		.loc 1 108 28 view .LVU79
 277 00ac 009D     		ldr	r5, [sp]
 278              	.LBB1793:
 279              	.LBB1786:
 196:dsp/fx/fx_engine.h ****             }
 280              		.loc 2 196 47 view .LVU80
 281 00ae 04F1640E 		add	lr, r4, #100
 282              	.LBE1786:
 283              	.LBE1793:
 284              	.LBB1794:
 285              	.LBB1758:
 278:dsp/fx/fx_engine.h ****             MAKE_INTEGRAL_FRACTIONAL(offset);
 286              		.loc 2 278 13 view .LVU81
 287 00b2 ECEE077A 		vfma.f32	s15, s24, s14
 288              	.LVL17:
 278:dsp/fx/fx_engine.h ****             MAKE_INTEGRAL_FRACTIONAL(offset);
 289              		.loc 2 278 13 view .LVU82
 290              	.LBE1758:
 291              	.LBE1794:
 292              	.LBE2491:
  98:dsp/fx/reverb.h ****         {
 293              		.loc 1 98 19 view .LVU83
 294 00b6 0139     		subs	r1, r1, #1
 295              	.LBB2492:
 296              		.loc 1 108 28 view .LVU84
 297 00b8 15ED025A 		vldr.32	s10, [r5, #-8]
 298              	.LBB1795:
 299              	.LBB1796:
 227:dsp/fx/fx_engine.h ****             }
ARM GAS  /tmp/ccqUnNFP.s 			page 19


 300              		.loc 2 227 63 view .LVU85
 301 00bc 04F17006 		add	r6, r4, #112
 302              	.LBE1796:
 303              	.LBE1795:
 304              		.loc 1 108 40 view .LVU86
 305 00c0 15ED016A 		vldr.32	s12, [r5, #-4]
 306              	.LBB1813:
 307              	.LBB1787:
 196:dsp/fx/fx_engine.h ****             }
 308              		.loc 2 196 57 view .LVU87
 309 00c4 CEF30D0E 		ubfx	lr, lr, #0, #14
 310              	.LBE1787:
 311              	.LBE1813:
 312              	.LBE2492:
  98:dsp/fx/reverb.h ****         {
 313              		.loc 1 98 19 view .LVU88
 314 00c8 0191     		str	r1, [sp, #4]
 315              	.LVL18:
 316              	.LBB2493:
 317              	.LBB1814:
 318              	.LBB1807:
 227:dsp/fx/fx_engine.h ****             }
 319              		.loc 2 227 68 view .LVU89
 320 00ca C6F30D06 		ubfx	r6, r6, #0, #14
 321              	.LBE1807:
 322              	.LBE1814:
 323              		.loc 1 108 19 view .LVU90
 324 00ce 35EE067A 		vadd.f32	s14, s10, s12
 325              	.LBB1815:
 326              	.LBB1759:
 327              	.LBB1738:
 328              	.LBB1739:
  64:dsp/fx/fx_engine.h ****     }
 329              		.loc 2 64 66 view .LVU91
 330 00d2 DFEDEB6A 		vldr.32	s13, .L23+4
 331              	.LBE1739:
 332              	.LBE1738:
 333              	.LBE1759:
 334              	.LBE1815:
 335              	.LBB1816:
 336              	.LBB1817:
 278:dsp/fx/fx_engine.h ****             MAKE_INTEGRAL_FRACTIONAL(offset);
 337              		.loc 2 278 13 view .LVU92
 338 00d6 DFEDEB2A 		vldr.32	s5, .L23+8
 339              	.LBE1817:
 340              	.LBE1816:
 341              	.LBB1859:
 342              	.LBB1860:
 227:dsp/fx/fx_engine.h ****             }
 343              		.loc 2 227 63 view .LVU93
 344 00da 04F21317 		addw	r7, r4, #275
 345              	.LBE1860:
 346              	.LBE1859:
 347              	.LBB1872:
 348              	.LBB1760:
 279:dsp/fx/fx_engine.h ****             float a = DataType<format>::Decompress(
 349              		.loc 2 279 13 view .LVU94
ARM GAS  /tmp/ccqUnNFP.s 			page 20


 350 00de FDEEE73A 		vcvt.s32.f32	s7, s15
 351              	.LVL19:
 279:dsp/fx/fx_engine.h ****             float a = DataType<format>::Decompress(
 352              		.loc 2 279 13 view .LVU95
 353              	.LBE1760:
 354              	.LBE1872:
 355              	.LBB1873:
 356              	.LBB1838:
 278:dsp/fx/fx_engine.h ****             MAKE_INTEGRAL_FRACTIONAL(offset);
 357              		.loc 2 278 13 view .LVU96
 358 00e2 DFEDE94A 		vldr.32	s9, .L23+12
 359              	.LBE1838:
 360              	.LBE1873:
 361              	.LBB1874:
 362              	.LBB1875:
 172:dsp/fx/fx_engine.h ****         }
 363              		.loc 2 172 35 view .LVU97
 364 00e6 27EE084A 		vmul.f32	s8, s14, s16
 365              	.LBE1875:
 366              	.LBE1874:
 367              	.LBB1878:
 368              	.LBB1761:
 286:dsp/fx/fx_engine.h ****         }
 369              		.loc 2 286 26 view .LVU98
 370 00ea 9FEDE83A 		vldr.32	s6, .L23+16
 371              	.LBE1761:
 372              	.LBE1878:
 373              	.LBB1879:
 374              	.LBB1839:
 278:dsp/fx/fx_engine.h ****             MAKE_INTEGRAL_FRACTIONAL(offset);
 375              		.loc 2 278 13 view .LVU99
 376 00ee E0EE224A 		vfma.f32	s9, s0, s5
 377              	.LBE1839:
 378              	.LBE1879:
 379              	.LBB1880:
 380              	.LBB1788:
 381              	.LBB1781:
 382              	.LBB1776:
  70:dsp/fx/fx_engine.h ****     }
 383              		.loc 2 70 58 view .LVU100
 384 00f2 E74B     		ldr	r3, .L23+20
 385              	.LBE1776:
 386              	.LBE1781:
 387              	.LBE1788:
 388              	.LBE1880:
 389              	.LBB1881:
 390              	.LBB1762:
 281:dsp/fx/fx_engine.h ****             float b = DataType<format>::Decompress(
 391              		.loc 2 281 37 view .LVU101
 392 00f4 13EE900A 		vmov	r0, s7	@ int
 279:dsp/fx/fx_engine.h ****             float a = DataType<format>::Decompress(
 393              		.loc 2 279 13 view .LVU102
 394 00f8 B8EEE37A 		vcvt.f32.s32	s14, s7
 395              	.LBE1762:
 396              	.LBE1881:
 397              	.LBB1882:
 398              	.LBB1883:
ARM GAS  /tmp/ccqUnNFP.s 			page 21


 399              	.LBB1884:
 400              	.LBB1885:
 401              	.LBB1886:
 196:dsp/fx/fx_engine.h ****             }
 402              		.loc 2 196 57 view .LVU103
 403 00fc C4F30D09 		ubfx	r9, r4, #0, #14
 404              	.LBE1886:
 405              	.LBE1885:
 406              	.LBE1884:
 407              	.LBE1883:
 408              	.LBE1882:
 409              	.LBB1903:
 410              	.LBB1867:
 227:dsp/fx/fx_engine.h ****             }
 411              		.loc 2 227 68 view .LVU104
 412 0100 C7F30D07 		ubfx	r7, r7, #0, #14
 413              	.LBE1867:
 414              	.LBE1903:
 415              	.LBB1904:
 416              	.LBB1763:
 281:dsp/fx/fx_engine.h ****             float b = DataType<format>::Decompress(
 417              		.loc 2 281 37 view .LVU105
 418 0104 2118     		adds	r1, r4, r0
 419              	.LBE1763:
 420              	.LBE1904:
 421              	.LBB1905:
 422              	.LBB1906:
 423              	.LBB1907:
 424              	.LBB1908:
 425              	.LBB1909:
 196:dsp/fx/fx_engine.h ****             }
 426              		.loc 2 196 37 view .LVU106
 427 0106 04F1720C 		add	ip, r4, #114
 428              	.LBE1909:
 429              	.LBE1908:
 430              	.LBE1907:
 431              	.LBE1906:
 432              	.LBE1905:
 433              	.LBB1930:
 434              	.LBB1764:
 279:dsp/fx/fx_engine.h ****             float a = DataType<format>::Decompress(
 435              		.loc 2 279 13 view .LVU107
 436 010a 37EEC77A 		vsub.f32	s14, s15, s14
 283:dsp/fx/fx_engine.h ****             float x        = a + (b - a) * offset_fractional;
 437              		.loc 2 283 65 view .LVU108
 438 010e 481C     		adds	r0, r1, #1
 439              	.LVL20:
 440              	.LBB1745:
 441              	.LBI1745:
  62:dsp/fx/fx_engine.h ****     {
 442              		.loc 2 62 25 is_stmt 1 view .LVU109
 443              	.LBB1746:
  64:dsp/fx/fx_engine.h ****     }
 444              		.loc 2 64 9 view .LVU110
 445              	.LBE1746:
 446              	.LBE1745:
 281:dsp/fx/fx_engine.h ****             float b = DataType<format>::Decompress(
ARM GAS  /tmp/ccqUnNFP.s 			page 22


 447              		.loc 2 281 66 is_stmt 0 view .LVU111
 448 0110 C1F30D01 		ubfx	r1, r1, #0, #14
 449              	.LVL21:
 281:dsp/fx/fx_engine.h ****             float b = DataType<format>::Decompress(
 450              		.loc 2 281 66 view .LVU112
 451              	.LBE1764:
 452              	.LBE1930:
 453              	.LBB1931:
 454              	.LBB1840:
 279:dsp/fx/fx_engine.h ****             float a = DataType<format>::Decompress(
 455              		.loc 2 279 13 view .LVU113
 456 0114 FDEEE42A 		vcvt.s32.f32	s5, s9
 457              	.LBE1840:
 458              	.LBE1931:
 459              	.LBB1932:
 460              	.LBB1927:
 461              	.LBB1924:
 462              	.LBB1920:
 463              	.LBB1916:
 196:dsp/fx/fx_engine.h ****             }
 464              		.loc 2 196 57 view .LVU114
 465 0118 CCF30D0C 		ubfx	ip, ip, #0, #14
 466              	.LBE1916:
 467              	.LBE1920:
 468              	.LBE1924:
 469              	.LBE1927:
 470              	.LBE1932:
 471              	.LBB1933:
 472              	.LBB1765:
 283:dsp/fx/fx_engine.h ****             float x        = a + (b - a) * offset_fractional;
 473              		.loc 2 283 70 view .LVU115
 474 011c C0F30D00 		ubfx	r0, r0, #0, #14
 475              	.LVL22:
 476              	.LBB1750:
 477              	.LBB1747:
  64:dsp/fx/fx_engine.h ****     }
 478              		.loc 2 64 16 view .LVU116
 479 0120 3BF91150 		ldrsh	r5, [fp, r1, lsl #1]
 480              	.LBE1747:
 481              	.LBE1750:
 482              	.LBE1765:
 483              	.LBE1933:
 484              	.LBB1934:
 485              	.LBB1935:
 486              	.LBB1936:
 487              	.LBB1937:
 488              	.LBB1938:
 196:dsp/fx/fx_engine.h ****             }
 489              		.loc 2 196 37 view .LVU117
 490 0124 04F21511 		addw	r1, r4, #277
 491              	.LBE1938:
 492              	.LBE1937:
 493              	.LBE1936:
 494              	.LBE1935:
 495              	.LBE1934:
 109:dsp/fx/reverb.h **** 
 110:dsp/fx/reverb.h ****             // Diffuse through 4 allpasses.
ARM GAS  /tmp/ccqUnNFP.s 			page 23


 111:dsp/fx/reverb.h ****             c.Read(ap1 TAIL, kap);
 112:dsp/fx/reverb.h ****             c.WriteAllPass(ap1, -kap);
 113:dsp/fx/reverb.h ****             c.Read(ap2 TAIL, kap);
 114:dsp/fx/reverb.h ****             c.WriteAllPass(ap2, -kap);
 115:dsp/fx/reverb.h ****             c.Read(ap3 TAIL, kap);
 116:dsp/fx/reverb.h ****             c.WriteAllPass(ap3, -kap);
 117:dsp/fx/reverb.h ****             c.Read(ap4 TAIL, kap);
 118:dsp/fx/reverb.h ****             c.WriteAllPass(ap4, -kap);
 119:dsp/fx/reverb.h ****             c.Write(apout);
 120:dsp/fx/reverb.h **** 
 121:dsp/fx/reverb.h ****             // Main reverb loop.
 122:dsp/fx/reverb.h ****             c.Load(apout);
 123:dsp/fx/reverb.h ****             c.Interpolate(del2, 4680.0f, LFO_2, 100.0f, krt);
 124:dsp/fx/reverb.h ****             c.Lp(lp_1, klp);
 125:dsp/fx/reverb.h ****             c.Read(dap1a TAIL, -kap);
 126:dsp/fx/reverb.h ****             c.WriteAllPass(dap1a, kap);
 127:dsp/fx/reverb.h ****             c.Read(dap1b TAIL, kap);
 128:dsp/fx/reverb.h ****             c.WriteAllPass(dap1b, -kap);
 129:dsp/fx/reverb.h ****             c.Write(del1, 2.0f);
 130:dsp/fx/reverb.h ****             c.Write(wet, 0.0f);
 131:dsp/fx/reverb.h **** 
 132:dsp/fx/reverb.h ****             in_out->l += (wet - in_out->l) * amount;
 496              		.loc 1 132 31 view .LVU118
 497 0128 F0EE005A 		vmov.f32	s11, #2.0e+0
 498              	.LBB1969:
 499              	.LBB1766:
 500              	.LBB1751:
 501              	.LBB1740:
  64:dsp/fx/fx_engine.h ****     }
 502              		.loc 2 64 16 view .LVU119
 503 012c 3BF91000 		ldrsh	r0, [fp, r0, lsl #1]
 504              	.LBE1740:
 505              	.LBE1751:
 506              	.LBB1752:
 507              	.LBB1748:
 508 0130 03EE905A 		vmov	s7, r5	@ int
 509              	.LVL23:
  64:dsp/fx/fx_engine.h ****     }
 510              		.loc 2 64 16 view .LVU120
 511              	.LBE1748:
 512              	.LBE1752:
 513              	.LBE1766:
 514              	.LBE1969:
 515              	.LBB1970:
 516              	.LBB1841:
 281:dsp/fx/fx_engine.h ****             float b = DataType<format>::Decompress(
 517              		.loc 2 281 37 view .LVU121
 518 0134 12EE90AA 		vmov	r10, s5	@ int
 519              	.LBE1841:
 520              	.LBE1970:
 521              	.LBB1971:
 522              	.LBB1964:
 523              	.LBB1959:
 524              	.LBB1953:
 525              	.LBB1947:
 196:dsp/fx/fx_engine.h ****             }
 526              		.loc 2 196 57 view .LVU122
ARM GAS  /tmp/ccqUnNFP.s 			page 24


 527 0138 C1F30D05 		ubfx	r5, r1, #0, #14
 528              	.LBE1947:
 529              	.LBE1953:
 530              	.LBE1959:
 531              	.LBE1964:
 532              	.LBE1971:
 533              	.LBB1972:
 534              	.LBB1767:
 535              	.LBB1753:
 536              	.LBB1741:
  64:dsp/fx/fx_engine.h ****     }
 537              		.loc 2 64 16 view .LVU123
 538 013c 07EE900A 		vmov	s15, r0	@ int
 539              	.LVL24:
  64:dsp/fx/fx_engine.h ****     }
 540              		.loc 2 64 16 view .LVU124
 541              	.LBE1741:
 542              	.LBE1753:
 543              	.LBB1754:
 544              	.LBB1749:
 545 0140 F8EEE33A 		vcvt.f32.s32	s7, s7
 546              	.LVL25:
  64:dsp/fx/fx_engine.h ****     }
 547              		.loc 2 64 16 view .LVU125
 548              	.LBE1749:
 549              	.LBE1754:
 550              	.LBB1755:
 551              	.LBI1738:
  62:dsp/fx/fx_engine.h ****     {
 552              		.loc 2 62 25 is_stmt 1 view .LVU126
 553              	.LBB1742:
  64:dsp/fx/fx_engine.h ****     }
 554              		.loc 2 64 9 view .LVU127
  64:dsp/fx/fx_engine.h ****     }
 555              		.loc 2 64 9 is_stmt 0 view .LVU128
 556              	.LBE1742:
 557              	.LBE1755:
 558              	.LBE1767:
 559              	.LBE1972:
 560              	.LBB1973:
 561              	.LBB1974:
 227:dsp/fx/fx_engine.h ****             }
 562              		.loc 2 227 63 view .LVU129
 563 0144 04F29531 		addw	r1, r4, #917
 564              	.LBE1974:
 565              	.LBE1973:
 566              	.LBB1995:
 567              	.LBB1842:
 281:dsp/fx/fx_engine.h ****             float b = DataType<format>::Decompress(
 568              		.loc 2 281 37 view .LVU130
 569 0148 A244     		add	r10, r10, r4
 570              	.LBE1842:
 571              	.LBE1995:
 572              	.LBB1996:
 573              	.LBB1768:
 574              	.LBB1756:
 575              	.LBB1743:
ARM GAS  /tmp/ccqUnNFP.s 			page 25


  64:dsp/fx/fx_engine.h ****     }
 576              		.loc 2 64 16 view .LVU131
 577 014a F8EEE77A 		vcvt.f32.s32	s15, s15
 578              	.LBE1743:
 579              	.LBE1756:
 580              	.LBE1768:
 581              	.LBE1996:
 582              	.LBB1997:
 583              	.LBB1965:
 584              	.LBB1960:
 585              	.LBB1954:
 586              	.LBB1948:
 196:dsp/fx/fx_engine.h ****             }
 587              		.loc 2 196 57 view .LVU132
 588 014e 0295     		str	r5, [sp, #8]
 589              	.LBE1948:
 590              	.LBE1954:
 591              	.LBE1960:
 592              	.LBE1965:
 593              	.LBE1997:
 594              	.LBB1998:
 595              	.LBB1987:
 227:dsp/fx/fx_engine.h ****             }
 596              		.loc 2 227 68 view .LVU133
 597 0150 C1F30D05 		ubfx	r5, r1, #0, #14
 598              	.LBE1987:
 599              	.LBE1998:
 600              	.LBB1999:
 601              	.LBB1843:
 281:dsp/fx/fx_engine.h ****             float b = DataType<format>::Decompress(
 602              		.loc 2 281 37 view .LVU134
 603 0154 5146     		mov	r1, r10
 283:dsp/fx/fx_engine.h ****             float x        = a + (b - a) * offset_fractional;
 604              		.loc 2 283 65 view .LVU135
 605 0156 42F6535A 		movw	r10, #11603
 606              	.LBE1843:
 607              	.LBE1999:
 608              	.LBB2000:
 609              	.LBB2001:
 227:dsp/fx/fx_engine.h ****             }
 610              		.loc 2 227 63 view .LVU136
 611 015a 04F20520 		addw	r0, r4, #517
 612              	.LBE2001:
 613              	.LBE2000:
 614              	.LBB2019:
 615              	.LBB1769:
 616              	.LBB1757:
 617              	.LBB1744:
  64:dsp/fx/fx_engine.h ****     }
 618              		.loc 2 64 66 view .LVU137
 619 015e 67EEA67A 		vmul.f32	s15, s15, s13
 620              	.LBE1744:
 621              	.LBE1757:
 622              	.LBE1769:
 623              	.LBE2019:
 624              	.LBB2020:
 625              	.LBB1988:
ARM GAS  /tmp/ccqUnNFP.s 			page 26


 227:dsp/fx/fx_engine.h ****             }
 626              		.loc 2 227 68 view .LVU138
 627 0162 0395     		str	r5, [sp, #12]
 628              	.LBE1988:
 629              	.LBE2020:
 630              	.LBB2021:
 631              	.LBB1844:
 283:dsp/fx/fx_engine.h ****             float x        = a + (b - a) * offset_fractional;
 632              		.loc 2 283 65 view .LVU139
 633 0164 8A44     		add	r10, r10, r1
 634              	.LBE1844:
 635              	.LBE2021:
 636              	.LBB2022:
 637              	.LBB2012:
 227:dsp/fx/fx_engine.h ****             }
 638              		.loc 2 227 68 view .LVU140
 639 0166 C0F30D00 		ubfx	r0, r0, #0, #14
 640              	.LBE2012:
 641              	.LBE2022:
 642              	.LBB2023:
 643              	.LBB1966:
 644              	.LBB1961:
 645              	.LBB1955:
 646              	.LBB1949:
 647              	.LBB1939:
 648              	.LBB1940:
  70:dsp/fx/fx_engine.h ****     }
 649              		.loc 2 70 58 view .LVU141
 650 016a 029D     		ldr	r5, [sp, #8]
 651              	.LBE1940:
 652              	.LBE1939:
 653              	.LBE1949:
 654              	.LBE1955:
 655              	.LBE1961:
 656              	.LBE1966:
 657              	.LBE2023:
 658              	.LBB2024:
 659              	.LBB1845:
 279:dsp/fx/fx_engine.h ****             float a = DataType<format>::Decompress(
 660              		.loc 2 279 13 view .LVU142
 661 016c B8EEE22A 		vcvt.f32.s32	s4, s5
 662              	.LBE1845:
 663              	.LBE2024:
 664              	.LBB2025:
 665              	.LBB1770:
 284:dsp/fx/fx_engine.h ****             previous_read_ = x;
 666              		.loc 2 284 37 view .LVU143
 667 0170 E3EEE67A 		vfms.f32	s15, s7, s13
 668              	.LBE1770:
 669              	.LBE2025:
 670              	.LBB2026:
 671              	.LBB1846:
 283:dsp/fx/fx_engine.h ****             float x        = a + (b - a) * offset_fractional;
 672              		.loc 2 283 70 view .LVU144
 673 0174 CAF30D0A 		ubfx	r10, r10, #0, #14
 674 0178 CDF810A0 		str	r10, [sp, #16]
 279:dsp/fx/fx_engine.h ****             float a = DataType<format>::Decompress(
ARM GAS  /tmp/ccqUnNFP.s 			page 27


 675              		.loc 2 279 13 view .LVU145
 676 017c 74EEC24A 		vsub.f32	s9, s9, s4
 677              	.LBE1846:
 678              	.LBE2026:
 679              	.LBB2027:
 680              	.LBB1771:
 284:dsp/fx/fx_engine.h ****             previous_read_ = x;
 681              		.loc 2 284 42 view .LVU146
 682 0180 67EE277A 		vmul.f32	s15, s14, s15
 284:dsp/fx/fx_engine.h ****             previous_read_ = x;
 683              		.loc 2 284 19 view .LVU147
 684 0184 E3EEA67A 		vfma.f32	s15, s7, s13
 685              	.LVL26:
 286:dsp/fx/fx_engine.h ****         }
 686              		.loc 2 286 26 view .LVU148
 687 0188 77EE837A 		vadd.f32	s15, s15, s6
 688              	.LVL27:
 286:dsp/fx/fx_engine.h ****         }
 689              		.loc 2 286 26 view .LVU149
 690              	.LBE1771:
 691              	.LBE2027:
 106:dsp/fx/reverb.h **** 
 692              		.loc 1 106 13 is_stmt 1 view .LVU150
 693              	.LBB2028:
 694              	.LBI1772:
 186:dsp/fx/fx_engine.h ****         {
 695              		.loc 2 186 21 view .LVU151
 696              	.LBB1789:
 697              	.LBB1782:
 698              	.LBI1774:
  67:dsp/fx/fx_engine.h ****     {
 699              		.loc 2 67 21 view .LVU152
 700              	.LBB1777:
  69:dsp/fx/fx_engine.h ****             Clip16(static_cast<int32_t>(value * 4096.0f)));
 701              		.loc 2 69 9 view .LVU153
  69:dsp/fx/fx_engine.h ****             Clip16(static_cast<int32_t>(value * 4096.0f)));
 702              		.loc 2 69 9 is_stmt 0 view .LVU154
 703              	.LBE1777:
 704              	.LBE1782:
 705              	.LBE1789:
 706              	.LBE2028:
 707              	.LBE2493:
  89:./stmtemp.h   ****     }
  90:./stmtemp.h   **** 
  91:./stmtemp.h   ****     float value() { return value_; }
  92:./stmtemp.h   **** 
  93:./stmtemp.h   ****   private:
  94:./stmtemp.h   ****     float value_ = 0.f;
  95:./stmtemp.h   ****     float sample_rate_;
  96:./stmtemp.h   ****     float phs_ = 0.f;
  97:./stmtemp.h   ****     float phs_inc_;
  98:./stmtemp.h   **** };
  99:./stmtemp.h   **** 
 100:./stmtemp.h   **** inline int32_t Clip16(int32_t x)
 101:./stmtemp.h   **** {
 102:./stmtemp.h   ****     if(x < -32768)
 708              		.loc 3 102 5 is_stmt 1 view .LVU155
ARM GAS  /tmp/ccqUnNFP.s 			page 28


 709              	.LBB2494:
 710              	.LBB2029:
 711              	.LBB1790:
 712              	.LBB1783:
 713              	.LBB1778:
  70:dsp/fx/fx_engine.h ****     }
 714              		.loc 2 70 19 is_stmt 0 view .LVU156
 715 018c B0EE677A 		vmov.f32	s14, s15
 716 0190 BEEECA7A 		vcvt.s32.f32	s14, s14, #12
 717 0194 17EE10AA 		vmov	r10, s14	@ int
 718              	.LBE1778:
 719              	.LBE1783:
 720              	.LBE1790:
 721              	.LBE2029:
 722              	.LBB2030:
 723              	.LBB1876:
 172:dsp/fx/fx_engine.h ****         }
 724              		.loc 2 172 26 view .LVU157
 725 0198 B0EE447A 		vmov.f32	s14, s8
 726              	.LBE1876:
 727              	.LBE2030:
 728              	.LBB2031:
 729              	.LBB1791:
 730              	.LBB1784:
 731              	.LBB1779:
  70:dsp/fx/fx_engine.h ****     }
 732              		.loc 2 70 58 view .LVU158
 733 019c 9245     		cmp	r10, r2
 734              	.LBE1779:
 735              	.LBE1784:
 736              	.LBE1791:
 737              	.LBE2031:
 738              	.LBB2032:
 739              	.LBB1877:
 172:dsp/fx/fx_engine.h ****         }
 740              		.loc 2 172 26 view .LVU159
 741 019e A7EE837A 		vfma.f32	s14, s15, s6
 742              	.LBE1877:
 743              	.LBE2032:
 744              	.LBB2033:
 745              	.LBB1792:
 746              	.LBB1785:
 747              	.LBB1780:
  70:dsp/fx/fx_engine.h ****     }
 748              		.loc 2 70 58 view .LVU160
 749 01a2 A8BF     		it	ge
 750 01a4 9246     		movge	r10, r2
 751 01a6 9A45     		cmp	r10, r3
 752 01a8 B8BF     		it	lt
 753 01aa 9A46     		movlt	r10, r3
 754 01ac 2BF81EA0 		strh	r10, [fp, lr, lsl #1]	@ movhi
 755              	.LVL28:
  70:dsp/fx/fx_engine.h ****     }
 756              		.loc 2 70 58 view .LVU161
 757              	.LBE1780:
 758              	.LBE1785:
 759              	.LBE1792:
ARM GAS  /tmp/ccqUnNFP.s 			page 29


 760              	.LBE2033:
 108:dsp/fx/reverb.h **** 
 761              		.loc 1 108 13 is_stmt 1 view .LVU162
 762              	.LBB2034:
 763              	.LBI1874:
 170:dsp/fx/fx_engine.h ****         {
 764              		.loc 2 170 21 view .LVU163
 170:dsp/fx/fx_engine.h ****         {
 765              		.loc 2 170 21 is_stmt 0 view .LVU164
 766              	.LBE2034:
 111:dsp/fx/reverb.h ****             c.WriteAllPass(ap1, -kap);
 767              		.loc 1 111 13 is_stmt 1 view .LVU165
 768              	.LBB2035:
 769              	.LBI1795:
 221:dsp/fx/fx_engine.h ****         {
 770              		.loc 2 221 21 view .LVU166
 771              	.LBB1808:
 772              	.LBB1797:
 773              	.LBI1797:
  62:dsp/fx/fx_engine.h ****     {
 774              		.loc 2 62 25 view .LVU167
 775              	.LBB1798:
  64:dsp/fx/fx_engine.h ****     }
 776              		.loc 2 64 9 view .LVU168
 777              	.LBE1798:
 778              	.LBE1797:
 779              	.LBE1808:
 780              	.LBE2035:
 781              	.LBB2036:
 782              	.LBB2037:
 783              	.LBB2038:
 784              	.LBB2039:
 785              	.LBB2040:
 196:dsp/fx/fx_engine.h ****             }
 786              		.loc 2 196 37 is_stmt 0 view .LVU169
 787 01b0 04F2973A 		addw	r10, r4, #919
 788              	.LBE2040:
 789              	.LBE2039:
 790              	.LBE2038:
 791              	.LBE2037:
 792              	.LBE2036:
 793              	.LBB2061:
 794              	.LBB1809:
 795              	.LBB1803:
 796              	.LBB1799:
  64:dsp/fx/fx_engine.h ****     }
 797              		.loc 2 64 16 view .LVU170
 798 01b4 3BF91660 		ldrsh	r6, [fp, r6, lsl #1]
 799              	.LBE1799:
 800              	.LBE1803:
 801              	.LBE1809:
 802              	.LBE2061:
 803              	.LBB2062:
 804              	.LBB2058:
 805              	.LBB2055:
 806              	.LBB2051:
 807              	.LBB2047:
ARM GAS  /tmp/ccqUnNFP.s 			page 30


 196:dsp/fx/fx_engine.h ****             }
 808              		.loc 2 196 57 view .LVU171
 809 01b8 CAF30D0A 		ubfx	r10, r10, #0, #14
 810              	.LBE2047:
 811              	.LBE2051:
 812              	.LBE2055:
 813              	.LBE2058:
 814              	.LBE2062:
 815              	.LBB2063:
 816              	.LBB1810:
 817              	.LBB1804:
 818              	.LBB1800:
  64:dsp/fx/fx_engine.h ****     }
 819              		.loc 2 64 16 view .LVU172
 820 01bc 07EE906A 		vmov	s15, r6	@ int
 821              	.LVL29:
  64:dsp/fx/fx_engine.h ****     }
 822              		.loc 2 64 16 view .LVU173
 823              	.LBE1800:
 824              	.LBE1804:
 825              	.LBE1810:
 826              	.LBE2063:
 827              	.LBB2064:
 828              	.LBB2065:
 829              	.LBB2066:
 830              	.LBB2067:
 831              	.LBB2068:
 196:dsp/fx/fx_engine.h ****             }
 832              		.loc 2 196 37 view .LVU174
 833 01c0 04F20726 		addw	r6, r4, #519
 834              	.LBE2068:
 835              	.LBE2067:
 836              	.LBE2066:
 837              	.LBE2065:
 838              	.LBE2064:
 839              	.LBB2089:
 840              	.LBB1811:
 841              	.LBB1805:
 842              	.LBB1801:
  64:dsp/fx/fx_engine.h ****     }
 843              		.loc 2 64 16 view .LVU175
 844 01c4 F8EEE77A 		vcvt.f32.s32	s15, s15
 845              	.LBE1801:
 846              	.LBE1805:
 847              	.LBE1811:
 848              	.LBE2089:
 849              	.LBB2090:
 850              	.LBB2086:
 851              	.LBB2083:
 852              	.LBB2079:
 853              	.LBB2075:
 196:dsp/fx/fx_engine.h ****             }
 854              		.loc 2 196 57 view .LVU176
 855 01c8 C6F30D06 		ubfx	r6, r6, #0, #14
 856              	.LBE2075:
 857              	.LBE2079:
 858              	.LBE2083:
ARM GAS  /tmp/ccqUnNFP.s 			page 31


 859              	.LBE2086:
 860              	.LBE2090:
 861              	.LBB2091:
 862              	.LBB1812:
 863              	.LBB1806:
 864              	.LBB1802:
  64:dsp/fx/fx_engine.h ****     }
 865              		.loc 2 64 66 view .LVU177
 866 01cc 67EEA67A 		vmul.f32	s15, s15, s13
 867              	.LVL30:
  64:dsp/fx/fx_engine.h ****     }
 868              		.loc 2 64 66 view .LVU178
 869              	.LBE1802:
 870              	.LBE1806:
 235:dsp/fx/fx_engine.h ****         }
 871              		.loc 2 235 26 view .LVU179
 872 01d0 A8EEA77A 		vfma.f32	s14, s17, s15
 873              	.LVL31:
 235:dsp/fx/fx_engine.h ****         }
 874              		.loc 2 235 26 view .LVU180
 875              	.LBE1812:
 876              	.LBE2091:
 112:dsp/fx/reverb.h ****             c.Read(ap2 TAIL, kap);
 877              		.loc 1 112 13 is_stmt 1 view .LVU181
 878              	.LBB2092:
 879              	.LBI1882:
 215:dsp/fx/fx_engine.h ****         {
 880              		.loc 2 215 21 view .LVU182
 881              	.LBB1901:
 882              	.LBI1883:
 208:dsp/fx/fx_engine.h ****         {
 883              		.loc 2 208 21 view .LVU183
 884              	.LBB1899:
 885              	.LBB1896:
 886              	.LBI1885:
 186:dsp/fx/fx_engine.h ****         {
 887              		.loc 2 186 21 view .LVU184
 888              	.LBB1893:
 889              	.LBB1887:
 890              	.LBI1887:
  67:dsp/fx/fx_engine.h ****     {
 891              		.loc 2 67 21 view .LVU185
 892              	.LBB1888:
  69:dsp/fx/fx_engine.h ****             Clip16(static_cast<int32_t>(value * 4096.0f)));
 893              		.loc 2 69 9 view .LVU186
  69:dsp/fx/fx_engine.h ****             Clip16(static_cast<int32_t>(value * 4096.0f)));
 894              		.loc 2 69 9 is_stmt 0 view .LVU187
 895              	.LBE1888:
 896              	.LBE1887:
 897              	.LBE1893:
 898              	.LBE1896:
 899              	.LBE1899:
 900              	.LBE1901:
 901              	.LBE2092:
 902              	.LBE2494:
 903              		.loc 3 102 5 is_stmt 1 view .LVU188
 904              	.LBB2495:
ARM GAS  /tmp/ccqUnNFP.s 			page 32


 905              	.LBB2093:
 906              	.LBB1902:
 907              	.LBB1900:
 908              	.LBB1897:
 909              	.LBB1894:
 910              	.LBB1891:
 911              	.LBB1889:
  70:dsp/fx/fx_engine.h ****     }
 912              		.loc 2 70 19 is_stmt 0 view .LVU189
 913 01d4 B0EE474A 		vmov.f32	s8, s14
 914              	.LBE1889:
 915              	.LBE1891:
 916              	.LBE1894:
 917              	.LBE1897:
 211:dsp/fx/fx_engine.h ****         }
 918              		.loc 2 211 26 view .LVU190
 919 01d8 E7EE097A 		vfma.f32	s15, s14, s18
 920              	.LVL32:
 921              	.LBB1898:
 922              	.LBB1895:
 923              	.LBB1892:
 924              	.LBB1890:
  70:dsp/fx/fx_engine.h ****     }
 925              		.loc 2 70 19 view .LVU191
 926 01dc BEEECA4A 		vcvt.s32.f32	s8, s8, #12
 927 01e0 14EE10EA 		vmov	lr, s8	@ int
  70:dsp/fx/fx_engine.h ****     }
 928              		.loc 2 70 58 view .LVU192
 929 01e4 9645     		cmp	lr, r2
 930 01e6 A8BF     		it	ge
 931 01e8 9646     		movge	lr, r2
 932 01ea 9E45     		cmp	lr, r3
 933 01ec B8BF     		it	lt
 934 01ee 9E46     		movlt	lr, r3
 935 01f0 2BF819E0 		strh	lr, [fp, r9, lsl #1]	@ movhi
 936              	.LVL33:
  70:dsp/fx/fx_engine.h ****     }
 937              		.loc 2 70 58 view .LVU193
 938              	.LBE1890:
 939              	.LBE1892:
 940              	.LBE1895:
 941              	.LBE1898:
 942              	.LBE1900:
 943              	.LBE1902:
 944              	.LBE2093:
 113:dsp/fx/reverb.h ****             c.WriteAllPass(ap2, -kap);
 945              		.loc 1 113 13 is_stmt 1 view .LVU194
 946              	.LBB2094:
 947              	.LBI1859:
 221:dsp/fx/fx_engine.h ****         {
 948              		.loc 2 221 21 view .LVU195
 949              	.LBB1868:
 950              	.LBB1861:
 951              	.LBI1861:
  62:dsp/fx/fx_engine.h ****     {
 952              		.loc 2 62 25 view .LVU196
 953              	.LBB1862:
ARM GAS  /tmp/ccqUnNFP.s 			page 33


  64:dsp/fx/fx_engine.h ****     }
 954              		.loc 2 64 9 view .LVU197
  64:dsp/fx/fx_engine.h ****     }
 955              		.loc 2 64 16 is_stmt 0 view .LVU198
 956 01f4 3BF91770 		ldrsh	r7, [fp, r7, lsl #1]
 957 01f8 07EE107A 		vmov	s14, r7	@ int
 958              	.LVL34:
  64:dsp/fx/fx_engine.h ****     }
 959              		.loc 2 64 16 view .LVU199
 960              	.LBE1862:
 961              	.LBE1861:
 962              	.LBE1868:
 963              	.LBE2094:
 964              	.LBB2095:
 965              	.LBB1847:
 281:dsp/fx/fx_engine.h ****             float b = DataType<format>::Decompress(
 966              		.loc 2 281 55 view .LVU200
 967 01fc 42F65257 		movw	r7, #11602
 968              	.LBE1847:
 969              	.LBE2095:
 970              	.LBB2096:
 971              	.LBB1869:
 972              	.LBB1865:
 973              	.LBB1863:
  64:dsp/fx/fx_engine.h ****     }
 974              		.loc 2 64 16 view .LVU201
 975 0200 B8EEC77A 		vcvt.f32.s32	s14, s14
 976              	.LBE1863:
 977              	.LBE1865:
 978              	.LBE1869:
 979              	.LBE2096:
 980              	.LBB2097:
 981              	.LBB1848:
 281:dsp/fx/fx_engine.h ****             float b = DataType<format>::Decompress(
 982              		.loc 2 281 55 view .LVU202
 983 0204 3944     		add	r1, r1, r7
 984              	.LBE1848:
 985              	.LBE2097:
 986              	.LBB2098:
 987              	.LBB2099:
 988              	.LBB2100:
 196:dsp/fx/fx_engine.h ****             }
 989              		.loc 2 196 37 view .LVU203
 990 0206 2744     		add	r7, r7, r4
 991              	.LBE2100:
 992              	.LBE2099:
 993              	.LBE2098:
 994              	.LBB2135:
 995              	.LBB1849:
 281:dsp/fx/fx_engine.h ****             float b = DataType<format>::Decompress(
 996              		.loc 2 281 66 view .LVU204
 997 0208 C1F30D01 		ubfx	r1, r1, #0, #14
 998              	.LBE1849:
 999              	.LBE2135:
 1000              	.LBB2136:
 1001              	.LBB1870:
 1002              	.LBB1866:
ARM GAS  /tmp/ccqUnNFP.s 			page 34


 1003              	.LBB1864:
  64:dsp/fx/fx_engine.h ****     }
 1004              		.loc 2 64 66 view .LVU205
 1005 020c 27EE267A 		vmul.f32	s14, s14, s13
 1006              	.LVL35:
  64:dsp/fx/fx_engine.h ****     }
 1007              		.loc 2 64 66 view .LVU206
 1008              	.LBE1864:
 1009              	.LBE1866:
 1010              	.LBE1870:
 1011              	.LBE2136:
 1012              	.LBB2137:
 1013              	.LBB2126:
 1014              	.LBB2117:
 196:dsp/fx/fx_engine.h ****             }
 1015              		.loc 2 196 57 view .LVU207
 1016 0210 C7F30D07 		ubfx	r7, r7, #0, #14
 1017 0214 0697     		str	r7, [sp, #24]
 1018              	.LBE2117:
 1019              	.LBE2126:
 1020              	.LBE2137:
 1021              	.LBB2138:
 1022              	.LBB2139:
 227:dsp/fx/fx_engine.h ****             }
 1023              		.loc 2 227 63 view .LVU208
 1024 0216 04F60B27 		addw	r7, r4, #2571
 1025              	.LBE2139:
 1026              	.LBE2138:
 1027              	.LBB2156:
 1028              	.LBB1871:
 235:dsp/fx/fx_engine.h ****         }
 1029              		.loc 2 235 26 view .LVU209
 1030 021a E8EE877A 		vfma.f32	s15, s17, s14
 1031              	.LVL36:
 235:dsp/fx/fx_engine.h ****         }
 1032              		.loc 2 235 26 view .LVU210
 1033              	.LBE1871:
 1034              	.LBE2156:
 114:dsp/fx/reverb.h ****             c.Read(ap3 TAIL, kap);
 1035              		.loc 1 114 13 is_stmt 1 view .LVU211
 1036              	.LBB2157:
 1037              	.LBI1905:
 215:dsp/fx/fx_engine.h ****         {
 1038              		.loc 2 215 21 view .LVU212
 1039              	.LBB1928:
 1040              	.LBI1906:
 208:dsp/fx/fx_engine.h ****         {
 1041              		.loc 2 208 21 view .LVU213
 1042              	.LBB1925:
 1043              	.LBB1921:
 1044              	.LBI1908:
 186:dsp/fx/fx_engine.h ****         {
 1045              		.loc 2 186 21 view .LVU214
 1046              	.LBB1917:
 1047              	.LBB1910:
 1048              	.LBI1910:
  67:dsp/fx/fx_engine.h ****     {
ARM GAS  /tmp/ccqUnNFP.s 			page 35


 1049              		.loc 2 67 21 view .LVU215
 1050              	.LBB1911:
  69:dsp/fx/fx_engine.h ****             Clip16(static_cast<int32_t>(value * 4096.0f)));
 1051              		.loc 2 69 9 view .LVU216
  69:dsp/fx/fx_engine.h ****             Clip16(static_cast<int32_t>(value * 4096.0f)));
 1052              		.loc 2 69 9 is_stmt 0 view .LVU217
 1053              	.LBE1911:
 1054              	.LBE1910:
 1055              	.LBE1917:
 1056              	.LBE1921:
 1057              	.LBE1925:
 1058              	.LBE1928:
 1059              	.LBE2157:
 1060              	.LBE2495:
 1061              		.loc 3 102 5 is_stmt 1 view .LVU218
 1062              	.LBB2496:
 1063              	.LBB2158:
 1064              	.LBB2150:
 227:dsp/fx/fx_engine.h ****             }
 1065              		.loc 2 227 68 is_stmt 0 view .LVU219
 1066 021e C7F30D07 		ubfx	r7, r7, #0, #14
 1067              	.LBE2150:
 1068              	.LBE2158:
 1069              	.LBB2159:
 1070              	.LBB1929:
 1071              	.LBB1926:
 1072              	.LBB1922:
 1073              	.LBB1918:
 1074              	.LBB1914:
 1075              	.LBB1912:
  70:dsp/fx/fx_engine.h ****     }
 1076              		.loc 2 70 19 view .LVU220
 1077 0222 B0EE674A 		vmov.f32	s8, s15
 1078              	.LBE1912:
 1079              	.LBE1914:
 1080              	.LBE1918:
 1081              	.LBE1922:
 211:dsp/fx/fx_engine.h ****         }
 1082              		.loc 2 211 26 view .LVU221
 1083 0226 A7EE897A 		vfma.f32	s14, s15, s18
 1084              	.LVL37:
 1085              	.LBB1923:
 1086              	.LBB1919:
 1087              	.LBB1915:
 1088              	.LBB1913:
  70:dsp/fx/fx_engine.h ****     }
 1089              		.loc 2 70 19 view .LVU222
 1090 022a BEEECA4A 		vcvt.s32.f32	s8, s8, #12
 1091 022e 14EE10EA 		vmov	lr, s8	@ int
  70:dsp/fx/fx_engine.h ****     }
 1092              		.loc 2 70 58 view .LVU223
 1093 0232 9645     		cmp	lr, r2
 1094 0234 A8BF     		it	ge
 1095 0236 9646     		movge	lr, r2
 1096 0238 9E45     		cmp	lr, r3
 1097 023a B8BF     		it	lt
 1098 023c 9E46     		movlt	lr, r3
ARM GAS  /tmp/ccqUnNFP.s 			page 36


 1099 023e 2BF81CE0 		strh	lr, [fp, ip, lsl #1]	@ movhi
 1100              	.LVL38:
  70:dsp/fx/fx_engine.h ****     }
 1101              		.loc 2 70 58 view .LVU224
 1102              	.LBE1913:
 1103              	.LBE1915:
 1104              	.LBE1919:
 1105              	.LBE1923:
 1106              	.LBE1926:
 1107              	.LBE1929:
 1108              	.LBE2159:
 115:dsp/fx/reverb.h ****             c.WriteAllPass(ap3, -kap);
 1109              		.loc 1 115 13 is_stmt 1 view .LVU225
 1110              	.LBB2160:
 1111              	.LBI2000:
 221:dsp/fx/fx_engine.h ****         {
 1112              		.loc 2 221 21 view .LVU226
 1113              	.LBB2013:
 1114              	.LBB2002:
 1115              	.LBI2002:
  62:dsp/fx/fx_engine.h ****     {
 1116              		.loc 2 62 25 view .LVU227
 1117              	.LBB2003:
  64:dsp/fx/fx_engine.h ****     }
 1118              		.loc 2 64 9 view .LVU228
 1119              	.LBE2003:
 1120              	.LBE2002:
 1121              	.LBE2013:
 1122              	.LBE2160:
 1123              	.LBB2161:
 1124              	.LBB2162:
 1125              	.LBB2163:
 1126              	.LBB2164:
 1127              	.LBB2165:
 196:dsp/fx/fx_engine.h ****             }
 1128              		.loc 2 196 37 is_stmt 0 view .LVU229
 1129 0242 04F60D2E 		addw	lr, r4, #2573
 1130              	.LBE2165:
 1131              	.LBE2164:
 1132              	.LBE2163:
 1133              	.LBE2162:
 1134              	.LBE2161:
 1135              	.LBB2206:
 1136              	.LBB2014:
 1137              	.LBB2008:
 1138              	.LBB2004:
  64:dsp/fx/fx_engine.h ****     }
 1139              		.loc 2 64 16 view .LVU230
 1140 0246 3BF91000 		ldrsh	r0, [fp, r0, lsl #1]
 1141              	.LBE2004:
 1142              	.LBE2008:
 1143              	.LBE2014:
 1144              	.LBE2206:
 1145              	.LBB2207:
 1146              	.LBB2199:
 1147              	.LBB2192:
 1148              	.LBB2185:
ARM GAS  /tmp/ccqUnNFP.s 			page 37


 1149              	.LBB2178:
 196:dsp/fx/fx_engine.h ****             }
 1150              		.loc 2 196 57 view .LVU231
 1151 024a CEF30D0E 		ubfx	lr, lr, #0, #14
 1152              	.LBE2178:
 1153              	.LBE2185:
 1154              	.LBE2192:
 1155              	.LBE2199:
 1156              	.LBE2207:
 1157              	.LBB2208:
 1158              	.LBB2015:
 1159              	.LBB2009:
 1160              	.LBB2005:
  64:dsp/fx/fx_engine.h ****     }
 1161              		.loc 2 64 16 view .LVU232
 1162 024e 07EE900A 		vmov	s15, r0	@ int
 1163              	.LVL39:
  64:dsp/fx/fx_engine.h ****     }
 1164              		.loc 2 64 16 view .LVU233
 1165              	.LBE2005:
 1166              	.LBE2009:
 1167              	.LBE2015:
 1168              	.LBE2208:
 1169              	.LBB2209:
 1170              	.LBB2210:
 227:dsp/fx/fx_engine.h ****             }
 1171              		.loc 2 227 63 view .LVU234
 1172 0252 41F20220 		movw	r0, #4610
 1173              	.LBE2210:
 1174              	.LBE2209:
 1175              	.LBB2219:
 1176              	.LBB2016:
 1177              	.LBB2010:
 1178              	.LBB2006:
  64:dsp/fx/fx_engine.h ****     }
 1179              		.loc 2 64 16 view .LVU235
 1180 0256 F8EEE77A 		vcvt.f32.s32	s15, s15
 1181              	.LBE2006:
 1182              	.LBE2010:
 1183              	.LBE2016:
 1184              	.LBE2219:
 1185              	.LBB2220:
 1186              	.LBB2215:
 227:dsp/fx/fx_engine.h ****             }
 1187              		.loc 2 227 63 view .LVU236
 1188 025a 2044     		add	r0, r0, r4
 227:dsp/fx/fx_engine.h ****             }
 1189              		.loc 2 227 68 view .LVU237
 1190 025c C0F30D00 		ubfx	r0, r0, #0, #14
 1191              	.LBE2215:
 1192              	.LBE2220:
 1193              	.LBB2221:
 1194              	.LBB2017:
 1195              	.LBB2011:
 1196              	.LBB2007:
  64:dsp/fx/fx_engine.h ****     }
 1197              		.loc 2 64 66 view .LVU238
ARM GAS  /tmp/ccqUnNFP.s 			page 38


 1198 0260 67EEA67A 		vmul.f32	s15, s15, s13
 1199              	.LVL40:
  64:dsp/fx/fx_engine.h ****     }
 1200              		.loc 2 64 66 view .LVU239
 1201              	.LBE2007:
 1202              	.LBE2011:
 1203              	.LBE2017:
 1204              	.LBE2221:
 1205              	.LBB2222:
 1206              	.LBB2216:
 227:dsp/fx/fx_engine.h ****             }
 1207              		.loc 2 227 68 view .LVU240
 1208 0264 0590     		str	r0, [sp, #20]
 1209              	.LBE2216:
 1210              	.LBE2222:
 1211              	.LBB2223:
 1212              	.LBB2018:
 235:dsp/fx/fx_engine.h ****         }
 1213              		.loc 2 235 26 view .LVU241
 1214 0266 A8EEA77A 		vfma.f32	s14, s17, s15
 1215              	.LVL41:
 235:dsp/fx/fx_engine.h ****         }
 1216              		.loc 2 235 26 view .LVU242
 1217              	.LBE2018:
 1218              	.LBE2223:
 116:dsp/fx/reverb.h ****             c.Read(ap4 TAIL, kap);
 1219              		.loc 1 116 13 is_stmt 1 view .LVU243
 1220              	.LBB2224:
 1221              	.LBI1934:
 215:dsp/fx/fx_engine.h ****         {
 1222              		.loc 2 215 21 view .LVU244
 1223              	.LBB1967:
 1224              	.LBI1935:
 208:dsp/fx/fx_engine.h ****         {
 1225              		.loc 2 208 21 view .LVU245
 1226              	.LBB1962:
 1227              	.LBB1956:
 1228              	.LBI1937:
 186:dsp/fx/fx_engine.h ****         {
 1229              		.loc 2 186 21 view .LVU246
 1230              	.LBB1950:
 1231              	.LBB1944:
 1232              	.LBI1939:
  67:dsp/fx/fx_engine.h ****     {
 1233              		.loc 2 67 21 view .LVU247
 1234              	.LBB1941:
  69:dsp/fx/fx_engine.h ****             Clip16(static_cast<int32_t>(value * 4096.0f)));
 1235              		.loc 2 69 9 view .LVU248
  69:dsp/fx/fx_engine.h ****             Clip16(static_cast<int32_t>(value * 4096.0f)));
 1236              		.loc 2 69 9 is_stmt 0 view .LVU249
 1237              	.LBE1941:
 1238              	.LBE1944:
 1239              	.LBE1950:
 1240              	.LBE1956:
 1241              	.LBE1962:
 1242              	.LBE1967:
 1243              	.LBE2224:
ARM GAS  /tmp/ccqUnNFP.s 			page 39


 1244              	.LBE2496:
 1245              		.loc 3 102 5 is_stmt 1 view .LVU250
 1246              	.LBB2497:
 1247              	.LBB2225:
 1248              	.LBB1968:
 1249              	.LBB1963:
 1250              	.LBB1957:
 1251              	.LBB1951:
 1252              	.LBB1945:
 1253              	.LBB1942:
  70:dsp/fx/fx_engine.h ****     }
 1254              		.loc 2 70 19 is_stmt 0 view .LVU251
 1255 026a B0EE474A 		vmov.f32	s8, s14
 1256              	.LBE1942:
 1257              	.LBE1945:
 1258              	.LBE1951:
 1259              	.LBE1957:
 211:dsp/fx/fx_engine.h ****         }
 1260              		.loc 2 211 26 view .LVU252
 1261 026e E7EE097A 		vfma.f32	s15, s14, s18
 1262              	.LVL42:
 1263              	.LBB1958:
 1264              	.LBB1952:
 1265              	.LBB1946:
 1266              	.LBB1943:
  70:dsp/fx/fx_engine.h ****     }
 1267              		.loc 2 70 19 view .LVU253
 1268 0272 BEEECA4A 		vcvt.s32.f32	s8, s8, #12
 1269 0276 14EE100A 		vmov	r0, s8	@ int
  70:dsp/fx/fx_engine.h ****     }
 1270              		.loc 2 70 58 view .LVU254
 1271 027a 9042     		cmp	r0, r2
 1272 027c A8BF     		it	ge
 1273 027e 1046     		movge	r0, r2
 1274 0280 9842     		cmp	r0, r3
 1275 0282 B8BF     		it	lt
 1276 0284 1846     		movlt	r0, r3
 1277 0286 2BF81500 		strh	r0, [fp, r5, lsl #1]	@ movhi
 1278              	.LVL43:
  70:dsp/fx/fx_engine.h ****     }
 1279              		.loc 2 70 58 view .LVU255
 1280              	.LBE1943:
 1281              	.LBE1946:
 1282              	.LBE1952:
 1283              	.LBE1958:
 1284              	.LBE1963:
 1285              	.LBE1968:
 1286              	.LBE2225:
 117:dsp/fx/reverb.h ****             c.WriteAllPass(ap4, -kap);
 1287              		.loc 1 117 13 is_stmt 1 view .LVU256
 1288              	.LBB2226:
 1289              	.LBI1973:
 221:dsp/fx/fx_engine.h ****         {
 1290              		.loc 2 221 21 view .LVU257
 1291              	.LBB1989:
 1292              	.LBB1975:
 1293              	.LBI1975:
ARM GAS  /tmp/ccqUnNFP.s 			page 40


  62:dsp/fx/fx_engine.h ****     {
 1294              		.loc 2 62 25 view .LVU258
 1295              	.LBB1976:
  64:dsp/fx/fx_engine.h ****     }
 1296              		.loc 2 64 9 view .LVU259
 1297              	.LBE1976:
 1298              	.LBE1975:
 1299              	.LBE1989:
 1300              	.LBE2226:
 1301              	.LBB2227:
 1302              	.LBB2228:
 1303              	.LBB2229:
 196:dsp/fx/fx_engine.h ****             }
 1304              		.loc 2 196 37 is_stmt 0 view .LVU260
 1305 028a 41F20420 		movw	r0, #4612
 1306              	.LBE2229:
 1307              	.LBE2228:
 1308              	.LBE2227:
 1309              	.LBB2268:
 1310              	.LBB1990:
 1311              	.LBB1982:
 1312              	.LBB1977:
  64:dsp/fx/fx_engine.h ****     }
 1313              		.loc 2 64 16 view .LVU261
 1314 028e 039D     		ldr	r5, [sp, #12]
 1315              	.LBE1977:
 1316              	.LBE1982:
 1317              	.LBE1990:
 1318              	.LBE2268:
 1319              	.LBB2269:
 1320              	.LBB2257:
 1321              	.LBB2246:
 196:dsp/fx/fx_engine.h ****             }
 1322              		.loc 2 196 37 view .LVU262
 1323 0290 2044     		add	r0, r0, r4
 1324              	.LBE2246:
 1325              	.LBE2257:
 1326              	.LBE2269:
 1327              	.LBB2270:
 1328              	.LBB1991:
 1329              	.LBB1983:
 1330              	.LBB1978:
  64:dsp/fx/fx_engine.h ****     }
 1331              		.loc 2 64 16 view .LVU263
 1332 0292 3BF915C0 		ldrsh	ip, [fp, r5, lsl #1]
 1333              	.LBE1978:
 1334              	.LBE1983:
 1335              	.LBE1991:
 1336              	.LBE2270:
 1337              	.LBB2271:
 1338              	.LBB2258:
 1339              	.LBB2247:
 196:dsp/fx/fx_engine.h ****             }
 1340              		.loc 2 196 57 view .LVU264
 1341 0296 C0F30D00 		ubfx	r0, r0, #0, #14
 1342              	.LBE2247:
 1343              	.LBE2258:
ARM GAS  /tmp/ccqUnNFP.s 			page 41


 1344              	.LBE2271:
 1345              	.LBB2272:
 1346              	.LBB1850:
 1347              	.LBB1818:
 1348              	.LBB1819:
  64:dsp/fx/fx_engine.h ****     }
 1349              		.loc 2 64 16 view .LVU265
 1350 029a 049D     		ldr	r5, [sp, #16]
 1351              	.LBE1819:
 1352              	.LBE1818:
 1353              	.LBE1850:
 1354              	.LBE2272:
 1355              	.LBB2273:
 1356              	.LBB1992:
 1357              	.LBB1984:
 1358              	.LBB1979:
 1359 029c 07EE10CA 		vmov	s14, ip	@ int
 1360              	.LVL44:
  64:dsp/fx/fx_engine.h ****     }
 1361              		.loc 2 64 16 view .LVU266
 1362              	.LBE1979:
 1363              	.LBE1984:
 1364              	.LBE1992:
 1365              	.LBE2273:
 1366              	.LBB2274:
 1367              	.LBB2275:
 227:dsp/fx/fx_engine.h ****             }
 1368              		.loc 2 227 63 view .LVU267
 1369 02a0 41F6567C 		movw	ip, #8022
 1370              	.LBE2275:
 1371              	.LBE2274:
 1372              	.LBB2290:
 1373              	.LBB2259:
 1374              	.LBB2248:
 196:dsp/fx/fx_engine.h ****             }
 1375              		.loc 2 196 57 view .LVU268
 1376 02a4 0290     		str	r0, [sp, #8]
 1377              	.LBE2248:
 1378              	.LBE2259:
 1379              	.LBE2290:
 1380              	.LBB2291:
 1381              	.LBB1993:
 1382              	.LBB1985:
 1383              	.LBB1980:
  64:dsp/fx/fx_engine.h ****     }
 1384              		.loc 2 64 16 view .LVU269
 1385 02a6 B8EEC77A 		vcvt.f32.s32	s14, s14
 1386              	.LBE1980:
 1387              	.LBE1985:
 1388              	.LBE1993:
 1389              	.LBE2291:
 1390              	.LBB2292:
 1391              	.LBB2284:
 227:dsp/fx/fx_engine.h ****             }
 1392              		.loc 2 227 63 view .LVU270
 1393 02aa A444     		add	ip, ip, r4
 227:dsp/fx/fx_engine.h ****             }
ARM GAS  /tmp/ccqUnNFP.s 			page 42


 1394              		.loc 2 227 68 view .LVU271
 1395 02ac CCF30D0C 		ubfx	ip, ip, #0, #14
 1396              	.LBE2284:
 1397              	.LBE2292:
 1398              	.LBB2293:
 1399              	.LBB1994:
 1400              	.LBB1986:
 1401              	.LBB1981:
  64:dsp/fx/fx_engine.h ****     }
 1402              		.loc 2 64 66 view .LVU272
 1403 02b0 27EE267A 		vmul.f32	s14, s14, s13
 1404              	.LVL45:
  64:dsp/fx/fx_engine.h ****     }
 1405              		.loc 2 64 66 view .LVU273
 1406              	.LBE1981:
 1407              	.LBE1986:
 235:dsp/fx/fx_engine.h ****         }
 1408              		.loc 2 235 26 view .LVU274
 1409 02b4 E8EE877A 		vfma.f32	s15, s17, s14
 1410              	.LVL46:
 235:dsp/fx/fx_engine.h ****         }
 1411              		.loc 2 235 26 view .LVU275
 1412              	.LBE1994:
 1413              	.LBE2293:
 118:dsp/fx/reverb.h ****             c.Write(apout);
 1414              		.loc 1 118 13 is_stmt 1 view .LVU276
 1415              	.LBB2294:
 1416              	.LBI2064:
 215:dsp/fx/fx_engine.h ****         {
 1417              		.loc 2 215 21 view .LVU277
 1418              	.LBB2087:
 1419              	.LBI2065:
 208:dsp/fx/fx_engine.h ****         {
 1420              		.loc 2 208 21 view .LVU278
 1421              	.LBB2084:
 1422              	.LBB2080:
 1423              	.LBI2067:
 186:dsp/fx/fx_engine.h ****         {
 1424              		.loc 2 186 21 view .LVU279
 1425              	.LBB2076:
 1426              	.LBB2069:
 1427              	.LBI2069:
  67:dsp/fx/fx_engine.h ****     {
 1428              		.loc 2 67 21 view .LVU280
 1429              	.LBB2070:
  69:dsp/fx/fx_engine.h ****             Clip16(static_cast<int32_t>(value * 4096.0f)));
 1430              		.loc 2 69 9 view .LVU281
  69:dsp/fx/fx_engine.h ****             Clip16(static_cast<int32_t>(value * 4096.0f)));
 1431              		.loc 2 69 9 is_stmt 0 view .LVU282
 1432              	.LBE2070:
 1433              	.LBE2069:
 1434              	.LBE2076:
 1435              	.LBE2080:
 1436              	.LBE2084:
 1437              	.LBE2087:
 1438              	.LBE2294:
 1439              	.LBE2497:
ARM GAS  /tmp/ccqUnNFP.s 			page 43


 1440              		.loc 3 102 5 is_stmt 1 view .LVU283
 1441              	.LBB2498:
 1442              	.LBB2295:
 1443              	.LBB2088:
 1444              	.LBB2085:
 1445              	.LBB2081:
 1446              	.LBB2077:
 1447              	.LBB2073:
 1448              	.LBB2071:
  70:dsp/fx/fx_engine.h ****     }
 1449              		.loc 2 70 19 is_stmt 0 view .LVU284
 1450 02b8 B0EE674A 		vmov.f32	s8, s15
 1451              	.LBE2071:
 1452              	.LBE2073:
 1453              	.LBE2077:
 1454              	.LBE2081:
 211:dsp/fx/fx_engine.h ****         }
 1455              		.loc 2 211 26 view .LVU285
 1456 02bc A7EE897A 		vfma.f32	s14, s15, s18
 1457              	.LVL47:
 1458              	.LBB2082:
 1459              	.LBB2078:
 1460              	.LBB2074:
 1461              	.LBB2072:
  70:dsp/fx/fx_engine.h ****     }
 1462              		.loc 2 70 19 view .LVU286
 1463 02c0 BEEECA4A 		vcvt.s32.f32	s8, s8, #12
 1464 02c4 14EE100A 		vmov	r0, s8	@ int
  70:dsp/fx/fx_engine.h ****     }
 1465              		.loc 2 70 58 view .LVU287
 1466 02c8 9042     		cmp	r0, r2
 1467 02ca A8BF     		it	ge
 1468 02cc 1046     		movge	r0, r2
 1469 02ce 9842     		cmp	r0, r3
 1470 02d0 B8BF     		it	lt
 1471 02d2 1846     		movlt	r0, r3
 1472 02d4 2BF81600 		strh	r0, [fp, r6, lsl #1]	@ movhi
 1473              	.LVL48:
  70:dsp/fx/fx_engine.h ****     }
 1474              		.loc 2 70 58 view .LVU288
 1475              	.LBE2072:
 1476              	.LBE2074:
 1477              	.LBE2078:
 1478              	.LBE2082:
 1479              	.LBE2085:
 1480              	.LBE2088:
 1481              	.LBE2295:
 119:dsp/fx/reverb.h **** 
 1482              		.loc 1 119 13 is_stmt 1 view .LVU289
 122:dsp/fx/reverb.h ****             c.Interpolate(del2, 4680.0f, LFO_2, 100.0f, krt);
 1483              		.loc 1 122 13 view .LVU290
 123:dsp/fx/reverb.h ****             c.Lp(lp_1, klp);
 1484              		.loc 1 123 13 view .LVU291
 1485              	.LBB2296:
 1486              	.LBI1816:
 271:dsp/fx/fx_engine.h ****                                 float    offset,
 1487              		.loc 2 271 21 view .LVU292
ARM GAS  /tmp/ccqUnNFP.s 			page 44


 1488              	.LBB1851:
 1489              	.LBB1825:
 1490              	.LBI1825:
  62:dsp/fx/fx_engine.h ****     {
 1491              		.loc 2 62 25 view .LVU293
 1492              	.LBB1826:
  64:dsp/fx/fx_engine.h ****     }
 1493              		.loc 2 64 9 view .LVU294
 1494              	.LBE1826:
 1495              	.LBE1825:
 1496              	.LBE1851:
 1497              	.LBE2296:
 1498              	.LBB2297:
 1499              	.LBB2298:
 227:dsp/fx/fx_engine.h ****             }
 1500              		.loc 2 227 63 is_stmt 0 view .LVU295
 1501 02d8 42F65050 		movw	r0, #11600
 1502              	.LBE2298:
 1503              	.LBE2297:
 1504              	.LBB2307:
 1505              	.LBB1852:
 1506              	.LBB1830:
 1507              	.LBB1820:
  64:dsp/fx/fx_engine.h ****     }
 1508              		.loc 2 64 16 view .LVU296
 1509 02dc 3BF91560 		ldrsh	r6, [fp, r5, lsl #1]
 1510              	.LBE1820:
 1511              	.LBE1830:
 1512              	.LBE1852:
 1513              	.LBE2307:
 1514              	.LBB2308:
 1515              	.LBB2217:
 1516              	.LBB2211:
 1517              	.LBB2212:
 1518 02e0 059D     		ldr	r5, [sp, #20]
 1519              	.LBE2212:
 1520              	.LBE2211:
 1521              	.LBE2217:
 1522              	.LBE2308:
 1523              	.LBB2309:
 1524              	.LBB2303:
 227:dsp/fx/fx_engine.h ****             }
 1525              		.loc 2 227 63 view .LVU297
 1526 02e2 2044     		add	r0, r0, r4
 1527              	.LBE2303:
 1528              	.LBE2309:
 1529              	.LBB2310:
 1530              	.LBB1853:
 1531              	.LBB1831:
 1532              	.LBB1821:
  64:dsp/fx/fx_engine.h ****     }
 1533              		.loc 2 64 16 view .LVU298
 1534 02e4 04EE106A 		vmov	s8, r6	@ int
 1535              	.LBE1821:
 1536              	.LBE1831:
 1537              	.LBB1832:
 1538              	.LBB1827:
ARM GAS  /tmp/ccqUnNFP.s 			page 45


 1539 02e8 3BF91160 		ldrsh	r6, [fp, r1, lsl #1]
 1540              	.LBE1827:
 1541              	.LBE1832:
 1542              	.LBE1853:
 1543              	.LBE2310:
 1544              	.LBB2311:
 1545              	.LBB2304:
 227:dsp/fx/fx_engine.h ****             }
 1546              		.loc 2 227 68 view .LVU299
 1547 02ec C0F30D00 		ubfx	r0, r0, #0, #14
 1548              	.LBE2304:
 1549              	.LBE2311:
 1550              	.LBB2312:
 1551              	.LBB2313:
 1552              	.LBB2314:
 1553              	.LBB2315:
 1554              	.LBB2316:
 196:dsp/fx/fx_engine.h ****             }
 1555              		.loc 2 196 37 view .LVU300
 1556 02f0 42F2D261 		movw	r1, #9938
 1557              	.LBE2316:
 1558              	.LBE2315:
 1559              	.LBE2314:
 1560              	.LBE2313:
 1561              	.LBE2312:
 1562              	.LBB2373:
 1563              	.LBB1854:
 1564              	.LBB1833:
 1565              	.LBB1822:
  64:dsp/fx/fx_engine.h ****     }
 1566              		.loc 2 64 16 view .LVU301
 1567 02f4 B8EEC44A 		vcvt.f32.s32	s8, s8
 1568              	.LBE1822:
 1569              	.LBE1833:
 1570              	.LBB1834:
 1571              	.LBB1828:
 1572 02f8 03EE906A 		vmov	s7, r6	@ int
 1573              	.LVL49:
  64:dsp/fx/fx_engine.h ****     }
 1574              		.loc 2 64 16 view .LVU302
 1575              	.LBE1828:
 1576              	.LBE1834:
 1577              	.LBE1854:
 1578              	.LBE2373:
 1579              	.LBB2374:
 1580              	.LBB2151:
 1581              	.LBB2140:
 1582              	.LBB2141:
 1583 02fc 3BF91760 		ldrsh	r6, [fp, r7, lsl #1]
 1584              	.LBE2141:
 1585              	.LBE2140:
 1586              	.LBE2151:
 1587              	.LBE2374:
 1588              	.LBB2375:
 1589              	.LBB2376:
 227:dsp/fx/fx_engine.h ****             }
 1590              		.loc 2 227 63 view .LVU303
ARM GAS  /tmp/ccqUnNFP.s 			page 46


 1591 0300 42F2D067 		movw	r7, #9936
 1592              	.LBE2376:
 1593              	.LBE2375:
 1594              	.LBB2394:
 1595              	.LBB1855:
 1596              	.LBB1835:
 1597              	.LBB1829:
  64:dsp/fx/fx_engine.h ****     }
 1598              		.loc 2 64 16 view .LVU304
 1599 0304 F8EEE33A 		vcvt.f32.s32	s7, s7
 1600              	.LVL50:
  64:dsp/fx/fx_engine.h ****     }
 1601              		.loc 2 64 16 view .LVU305
 1602              	.LBE1829:
 1603              	.LBE1835:
 1604              	.LBB1836:
 1605              	.LBI1818:
  62:dsp/fx/fx_engine.h ****     {
 1606              		.loc 2 62 25 is_stmt 1 view .LVU306
 1607              	.LBB1823:
  64:dsp/fx/fx_engine.h ****     }
 1608              		.loc 2 64 9 view .LVU307
  64:dsp/fx/fx_engine.h ****     }
 1609              		.loc 2 64 9 is_stmt 0 view .LVU308
 1610              	.LBE1823:
 1611              	.LBE1836:
 1612              	.LBE1855:
 1613              	.LBE2394:
 1614              	.LBB2395:
 1615              	.LBB2363:
 1616              	.LBB2353:
 1617              	.LBB2343:
 1618              	.LBB2333:
 196:dsp/fx/fx_engine.h ****             }
 1619              		.loc 2 196 37 view .LVU309
 1620 0308 2144     		add	r1, r1, r4
 1621              	.LBE2333:
 1622              	.LBE2343:
 1623              	.LBE2353:
 1624              	.LBE2363:
 1625              	.LBE2395:
 1626              	.LBB2396:
 1627              	.LBB1856:
 1628              	.LBB1837:
 1629              	.LBB1824:
  64:dsp/fx/fx_engine.h ****     }
 1630              		.loc 2 64 66 view .LVU310
 1631 030a 24EE264A 		vmul.f32	s8, s8, s13
 1632              	.LBE1824:
 1633              	.LBE1837:
 1634              	.LBE1856:
 1635              	.LBE2396:
 1636              	.LBB2397:
 1637              	.LBB2152:
 1638              	.LBB2146:
 1639              	.LBB2142:
  64:dsp/fx/fx_engine.h ****     }
ARM GAS  /tmp/ccqUnNFP.s 			page 47


 1640              		.loc 2 64 16 view .LVU311
 1641 030e 07EE906A 		vmov	s15, r6	@ int
 1642              	.LVL51:
  64:dsp/fx/fx_engine.h ****     }
 1643              		.loc 2 64 16 view .LVU312
 1644              	.LBE2142:
 1645              	.LBE2146:
 1646              	.LBE2152:
 1647              	.LBE2397:
 1648              	.LBB2398:
 1649              	.LBB2387:
 227:dsp/fx/fx_engine.h ****             }
 1650              		.loc 2 227 63 view .LVU313
 1651 0312 2744     		add	r7, r7, r4
 1652              	.LBE2387:
 1653              	.LBE2398:
 1654              	.LBB2399:
 1655              	.LBB2400:
 1656              	.LBB2401:
 1657              	.LBB2402:
 1658              	.LBB2403:
 196:dsp/fx/fx_engine.h ****             }
 1659              		.loc 2 196 37 view .LVU314
 1660 0314 41F65876 		movw	r6, #8024
 1661              	.LBE2403:
 1662              	.LBE2402:
 1663              	.LBE2401:
 1664              	.LBE2400:
 1665              	.LBE2399:
 1666              	.LBB2428:
 1667              	.LBB2153:
 1668              	.LBB2147:
 1669              	.LBB2143:
  64:dsp/fx/fx_engine.h ****     }
 1670              		.loc 2 64 16 view .LVU315
 1671 0318 F8EEE77A 		vcvt.f32.s32	s15, s15
 1672              	.LBE2143:
 1673              	.LBE2147:
 1674              	.LBE2153:
 1675              	.LBE2428:
 1676              	.LBB2429:
 1677              	.LBB2364:
 1678              	.LBB2354:
 1679              	.LBB2344:
 1680              	.LBB2334:
 196:dsp/fx/fx_engine.h ****             }
 1681              		.loc 2 196 57 view .LVU316
 1682 031c C1F30D01 		ubfx	r1, r1, #0, #14
 1683              	.LBE2334:
 1684              	.LBE2344:
 1685              	.LBE2354:
 1686              	.LBE2364:
 1687              	.LBE2429:
 1688              	.LBB2430:
 1689              	.LBB1857:
 284:dsp/fx/fx_engine.h ****             previous_read_ = x;
 1690              		.loc 2 284 37 view .LVU317
ARM GAS  /tmp/ccqUnNFP.s 			page 48


 1691 0320 A3EEE64A 		vfms.f32	s8, s7, s13
 1692              	.LBE1857:
 1693              	.LBE2430:
 1694              	.LBB2431:
 1695              	.LBB2388:
 227:dsp/fx/fx_engine.h ****             }
 1696              		.loc 2 227 68 view .LVU318
 1697 0324 C7F30D07 		ubfx	r7, r7, #0, #14
 1698              	.LBE2388:
 1699              	.LBE2431:
 1700              	.LBB2432:
 1701              	.LBB2424:
 1702              	.LBB2420:
 1703              	.LBB2415:
 1704              	.LBB2410:
 196:dsp/fx/fx_engine.h ****             }
 1705              		.loc 2 196 37 view .LVU319
 1706 0328 2644     		add	r6, r6, r4
 1707              	.LBE2410:
 1708              	.LBE2415:
 1709              	.LBE2420:
 1710              	.LBE2424:
 1711              	.LBE2432:
 1712              	.LBB2433:
 1713              	.LBB2154:
 1714              	.LBB2148:
 1715              	.LBB2144:
  64:dsp/fx/fx_engine.h ****     }
 1716              		.loc 2 64 66 view .LVU320
 1717 032a 67EEA67A 		vmul.f32	s15, s15, s13
 1718              	.LBE2144:
 1719              	.LBE2148:
 1720              	.LBE2154:
 1721              	.LBE2433:
 1722              	.LBB2434:
 1723              	.LBB2425:
 1724              	.LBB2421:
 1725              	.LBB2416:
 1726              	.LBB2411:
 196:dsp/fx/fx_engine.h ****             }
 1727              		.loc 2 196 57 view .LVU321
 1728 032e C6F30D06 		ubfx	r6, r6, #0, #14
 1729              	.LBE2411:
 1730              	.LBE2416:
 1731              	.LBE2421:
 1732              	.LBE2425:
 1733              	.LBE2434:
 1734              	.LBB2435:
 1735              	.LBB1858:
 284:dsp/fx/fx_engine.h ****             previous_read_ = x;
 1736              		.loc 2 284 42 view .LVU322
 1737 0332 64EE844A 		vmul.f32	s9, s9, s8
 1738              	.LVL52:
 286:dsp/fx/fx_engine.h ****         }
 1739              		.loc 2 286 26 view .LVU323
 1740 0336 B0EE474A 		vmov.f32	s8, s14
 284:dsp/fx/fx_engine.h ****             previous_read_ = x;
ARM GAS  /tmp/ccqUnNFP.s 			page 49


 1741              		.loc 2 284 19 view .LVU324
 1742 033a E3EEA64A 		vfma.f32	s9, s7, s13
 1743              	.LVL53:
 286:dsp/fx/fx_engine.h ****         }
 1744              		.loc 2 286 26 view .LVU325
 1745 033e ABEE244A 		vfma.f32	s8, s22, s9
 1746              	.LVL54:
 286:dsp/fx/fx_engine.h ****         }
 1747              		.loc 2 286 26 view .LVU326
 1748              	.LBE1858:
 1749              	.LBE2435:
 124:dsp/fx/reverb.h ****             c.Read(dap1a TAIL, -kap);
 1750              		.loc 1 124 13 is_stmt 1 view .LVU327
 1751              	.LBB2436:
 1752              	.LBI2436:
 244:dsp/fx/fx_engine.h ****         {
 1753              		.loc 2 244 21 view .LVU328
 1754              	.LBB2437:
 246:dsp/fx/fx_engine.h ****             accumulator_ = state;
 1755              		.loc 2 246 50 is_stmt 0 view .LVU329
 1756 0342 74EE4A4A 		vsub.f32	s9, s8, s20
 246:dsp/fx/fx_engine.h ****             accumulator_ = state;
 1757              		.loc 2 246 19 view .LVU330
 1758 0346 AAEEA4AA 		vfma.f32	s20, s21, s9
 1759              	.LVL55:
 246:dsp/fx/fx_engine.h ****             accumulator_ = state;
 1760              		.loc 2 246 19 view .LVU331
 1761              	.LBE2437:
 1762              	.LBE2436:
 125:dsp/fx/reverb.h ****             c.WriteAllPass(dap1a, kap);
 1763              		.loc 1 125 13 is_stmt 1 view .LVU332
 1764              	.LBB2438:
 1765              	.LBI2138:
 221:dsp/fx/fx_engine.h ****         {
 1766              		.loc 2 221 21 view .LVU333
 1767              	.LBB2155:
 1768              	.LBB2149:
 1769              	.LBI2140:
  62:dsp/fx/fx_engine.h ****     {
 1770              		.loc 2 62 25 view .LVU334
 1771              	.LBB2145:
  64:dsp/fx/fx_engine.h ****     }
 1772              		.loc 2 64 9 view .LVU335
  64:dsp/fx/fx_engine.h ****     }
 1773              		.loc 2 64 9 is_stmt 0 view .LVU336
 1774              	.LBE2145:
 1775              	.LBE2149:
 235:dsp/fx/fx_engine.h ****         }
 1776              		.loc 2 235 26 view .LVU337
 1777 034a F0EE4A4A 		vmov.f32	s9, s20
 1778 034e E7EE894A 		vfma.f32	s9, s15, s18
 1779              	.LVL56:
 235:dsp/fx/fx_engine.h ****         }
 1780              		.loc 2 235 26 view .LVU338
 1781              	.LBE2155:
 1782              	.LBE2438:
 126:dsp/fx/reverb.h ****             c.Read(dap1b TAIL, kap);
ARM GAS  /tmp/ccqUnNFP.s 			page 50


 1783              		.loc 1 126 13 is_stmt 1 view .LVU339
 1784              	.LBB2439:
 1785              	.LBI2036:
 215:dsp/fx/fx_engine.h ****         {
 1786              		.loc 2 215 21 view .LVU340
 1787              	.LBB2059:
 1788              	.LBI2037:
 208:dsp/fx/fx_engine.h ****         {
 1789              		.loc 2 208 21 view .LVU341
 1790              	.LBB2056:
 1791              	.LBB2052:
 1792              	.LBI2039:
 186:dsp/fx/fx_engine.h ****         {
 1793              		.loc 2 186 21 view .LVU342
 1794              	.LBB2048:
 1795              	.LBB2041:
 1796              	.LBI2041:
  67:dsp/fx/fx_engine.h ****     {
 1797              		.loc 2 67 21 view .LVU343
 1798              	.LBB2042:
  69:dsp/fx/fx_engine.h ****             Clip16(static_cast<int32_t>(value * 4096.0f)));
 1799              		.loc 2 69 9 view .LVU344
  69:dsp/fx/fx_engine.h ****             Clip16(static_cast<int32_t>(value * 4096.0f)));
 1800              		.loc 2 69 9 is_stmt 0 view .LVU345
 1801              	.LBE2042:
 1802              	.LBE2041:
 1803              	.LBE2048:
 1804              	.LBE2052:
 1805              	.LBE2056:
 1806              	.LBE2059:
 1807              	.LBE2439:
 1808              	.LBE2498:
 1809              		.loc 3 102 5 is_stmt 1 view .LVU346
 1810              	.LBB2499:
 1811              	.LBB2440:
 1812              	.LBB2060:
 1813              	.LBB2057:
 1814              	.LBB2053:
 1815              	.LBB2049:
 1816              	.LBB2045:
 1817              	.LBB2043:
  70:dsp/fx/fx_engine.h ****     }
 1818              		.loc 2 70 19 is_stmt 0 view .LVU347
 1819 0352 B0EE644A 		vmov.f32	s8, s9
 1820              	.LBE2043:
 1821              	.LBE2045:
 1822              	.LBE2049:
 1823              	.LBE2053:
 211:dsp/fx/fx_engine.h ****         }
 1824              		.loc 2 211 26 view .LVU348
 1825 0356 E8EEA47A 		vfma.f32	s15, s17, s9
 1826              	.LVL57:
 1827              	.LBB2054:
 1828              	.LBB2050:
 1829              	.LBB2046:
 1830              	.LBB2044:
  70:dsp/fx/fx_engine.h ****     }
ARM GAS  /tmp/ccqUnNFP.s 			page 51


 1831              		.loc 2 70 19 view .LVU349
 1832 035a BEEECA4A 		vcvt.s32.f32	s8, s8, #12
 1833 035e 14EE109A 		vmov	r9, s8	@ int
  70:dsp/fx/fx_engine.h ****     }
 1834              		.loc 2 70 58 view .LVU350
 1835 0362 9145     		cmp	r9, r2
 1836 0364 A8BF     		it	ge
 1837 0366 9146     		movge	r9, r2
 1838 0368 9945     		cmp	r9, r3
 1839 036a B8BF     		it	lt
 1840 036c 9946     		movlt	r9, r3
 1841 036e 2BF81A90 		strh	r9, [fp, r10, lsl #1]	@ movhi
 1842              	.LVL58:
  70:dsp/fx/fx_engine.h ****     }
 1843              		.loc 2 70 58 view .LVU351
 1844              	.LBE2044:
 1845              	.LBE2046:
 1846              	.LBE2050:
 1847              	.LBE2054:
 1848              	.LBE2057:
 1849              	.LBE2060:
 1850              	.LBE2440:
 127:dsp/fx/reverb.h ****             c.WriteAllPass(dap1b, -kap);
 1851              		.loc 1 127 13 is_stmt 1 view .LVU352
 1852              	.LBB2441:
 1853              	.LBI2209:
 221:dsp/fx/fx_engine.h ****         {
 1854              		.loc 2 221 21 view .LVU353
 1855              	.LBB2218:
 1856              	.LBB2214:
 1857              	.LBI2211:
  62:dsp/fx/fx_engine.h ****     {
 1858              		.loc 2 62 25 view .LVU354
 1859              	.LBB2213:
  64:dsp/fx/fx_engine.h ****     }
 1860              		.loc 2 64 9 view .LVU355
  64:dsp/fx/fx_engine.h ****     }
 1861              		.loc 2 64 16 is_stmt 0 view .LVU356
 1862 0372 3BF91590 		ldrsh	r9, [fp, r5, lsl #1]
 1863 0376 04EE909A 		vmov	s9, r9	@ int
 1864              	.LVL59:
  64:dsp/fx/fx_engine.h ****     }
 1865              		.loc 2 64 16 view .LVU357
 1866 037a F8EEE44A 		vcvt.f32.s32	s9, s9
  64:dsp/fx/fx_engine.h ****     }
 1867              		.loc 2 64 66 view .LVU358
 1868 037e 64EEA64A 		vmul.f32	s9, s9, s13
 1869              	.LVL60:
  64:dsp/fx/fx_engine.h ****     }
 1870              		.loc 2 64 66 view .LVU359
 1871              	.LBE2213:
 1872              	.LBE2214:
 235:dsp/fx/fx_engine.h ****         }
 1873              		.loc 2 235 26 view .LVU360
 1874 0382 E8EEA47A 		vfma.f32	s15, s17, s9
 1875              	.LVL61:
 235:dsp/fx/fx_engine.h ****         }
ARM GAS  /tmp/ccqUnNFP.s 			page 52


 1876              		.loc 2 235 26 view .LVU361
 1877              	.LBE2218:
 1878              	.LBE2441:
 128:dsp/fx/reverb.h ****             c.Write(del1, 2.0f);
 1879              		.loc 1 128 13 is_stmt 1 view .LVU362
 1880              	.LBB2442:
 1881              	.LBI2161:
 215:dsp/fx/fx_engine.h ****         {
 1882              		.loc 2 215 21 view .LVU363
 1883              	.LBB2200:
 1884              	.LBI2162:
 208:dsp/fx/fx_engine.h ****         {
 1885              		.loc 2 208 21 view .LVU364
 1886              	.LBB2193:
 1887              	.LBB2186:
 1888              	.LBI2164:
 186:dsp/fx/fx_engine.h ****         {
 1889              		.loc 2 186 21 view .LVU365
 1890              	.LBB2179:
 1891              	.LBB2166:
 1892              	.LBI2166:
  67:dsp/fx/fx_engine.h ****     {
 1893              		.loc 2 67 21 view .LVU366
 1894              	.LBB2167:
  69:dsp/fx/fx_engine.h ****             Clip16(static_cast<int32_t>(value * 4096.0f)));
 1895              		.loc 2 69 9 view .LVU367
  69:dsp/fx/fx_engine.h ****             Clip16(static_cast<int32_t>(value * 4096.0f)));
 1896              		.loc 2 69 9 is_stmt 0 view .LVU368
 1897              	.LBE2167:
 1898              	.LBE2166:
 1899              	.LBE2179:
 1900              	.LBE2186:
 1901              	.LBE2193:
 1902              	.LBE2200:
 1903              	.LBE2442:
 1904              	.LBE2499:
 1905              		.loc 3 102 5 is_stmt 1 view .LVU369
 1906              	.LBB2500:
 1907              	.LBB2443:
 1908              	.LBB2201:
 1909              	.LBB2194:
 211:dsp/fx/fx_engine.h ****         }
 1910              		.loc 2 211 26 is_stmt 0 view .LVU370
 1911 0386 E7EE894A 		vfma.f32	s9, s15, s18
 1912              	.LVL62:
 1913              	.LBB2187:
 1914              	.LBB2180:
 1915              	.LBB2173:
 1916              	.LBB2168:
  70:dsp/fx/fx_engine.h ****     }
 1917              		.loc 2 70 19 view .LVU371
 1918 038a B0EE674A 		vmov.f32	s8, s15
 1919 038e BEEECA4A 		vcvt.s32.f32	s8, s8, #12
 1920              	.LBE2168:
 1921              	.LBE2173:
 1922              	.LBE2180:
 1923              	.LBE2187:
ARM GAS  /tmp/ccqUnNFP.s 			page 53


 1924              	.LBE2194:
 1925              	.LBE2201:
 1926              	.LBE2443:
 1927              	.LBB2444:
 1928              	.LBB2260:
 1929              	.LBB2249:
 1930              	.LBB2230:
 1931              	.LBB2231:
 1932 0392 F0EE647A 		vmov.f32	s15, s9
 1933              	.LVL63:
  70:dsp/fx/fx_engine.h ****     }
 1934              		.loc 2 70 19 view .LVU372
 1935              	.LBE2231:
 1936              	.LBE2230:
 1937              	.LBE2249:
 1938              	.LBE2260:
 1939              	.LBE2444:
 1940              	.LBB2445:
 1941              	.LBB2202:
 1942              	.LBB2195:
 1943              	.LBB2188:
 1944              	.LBB2181:
 1945              	.LBB2174:
 1946              	.LBB2169:
 1947 0396 14EE109A 		vmov	r9, s8	@ int
 1948              	.LVL64:
  70:dsp/fx/fx_engine.h ****     }
 1949              		.loc 2 70 58 view .LVU373
 1950 039a 9145     		cmp	r9, r2
 1951              	.LBE2169:
 1952              	.LBE2174:
 1953              	.LBE2181:
 1954              	.LBE2188:
 1955              	.LBE2195:
 1956              	.LBE2202:
 1957              	.LBE2445:
 1958              	.LBB2446:
 1959              	.LBB2261:
 1960              	.LBB2250:
 1961              	.LBB2239:
 1962              	.LBB2232:
  70:dsp/fx/fx_engine.h ****     }
 1963              		.loc 2 70 19 view .LVU374
 1964 039c FEEECA7A 		vcvt.s32.f32	s15, s15, #12
 1965              	.LBE2232:
 1966              	.LBE2239:
 1967              	.LBE2250:
 1968              	.LBE2261:
 1969              	.LBE2446:
 1970              	.LBB2447:
 1971              	.LBB2203:
 1972              	.LBB2196:
 1973              	.LBB2189:
 1974              	.LBB2182:
 1975              	.LBB2175:
 1976              	.LBB2170:
  70:dsp/fx/fx_engine.h ****     }
ARM GAS  /tmp/ccqUnNFP.s 			page 54


 1977              		.loc 2 70 58 view .LVU375
 1978 03a0 A8BF     		it	ge
 1979 03a2 9146     		movge	r9, r2
 1980              	.LBE2170:
 1981              	.LBE2175:
 1982              	.LBE2182:
 1983              	.LBE2189:
 1984              	.LBE2196:
 1985              	.LBE2203:
 1986              	.LBE2447:
 1987              	.LBB2448:
 1988              	.LBB2262:
 1989              	.LBB2251:
 1990              	.LBB2240:
 1991              	.LBB2233:
  70:dsp/fx/fx_engine.h ****     }
 1992              		.loc 2 70 19 view .LVU376
 1993 03a4 17EE90AA 		vmov	r10, s15	@ int
 1994              	.LBE2233:
 1995              	.LBE2240:
 1996              	.LBE2251:
 1997              	.LBE2262:
 1998              	.LBE2448:
 1999              		.loc 1 132 31 view .LVU377
 2000 03a8 F0EE457A 		vmov.f32	s15, s10
 2001              	.LBB2449:
 2002              	.LBB2204:
 2003              	.LBB2197:
 2004              	.LBB2190:
 2005              	.LBB2183:
 2006              	.LBB2176:
 2007              	.LBB2171:
  70:dsp/fx/fx_engine.h ****     }
 2008              		.loc 2 70 58 view .LVU378
 2009 03ac 9945     		cmp	r9, r3
 2010 03ae B8BF     		it	lt
 2011 03b0 9946     		movlt	r9, r3
 2012              	.LBE2171:
 2013              	.LBE2176:
 2014              	.LBE2183:
 2015              	.LBE2190:
 2016              	.LBE2197:
 2017              	.LBE2204:
 2018              	.LBE2449:
 2019              	.LBB2450:
 2020              	.LBB2263:
 2021              	.LBB2252:
 2022              	.LBB2241:
 2023              	.LBB2234:
 2024 03b2 9245     		cmp	r10, r2
 2025              	.LBE2234:
 2026              	.LBE2241:
 2027              	.LBE2252:
 2028              	.LBE2263:
 2029              	.LBE2450:
 2030              		.loc 1 132 31 view .LVU379
 2031 03b4 D4EEA57A 		vfnms.f32	s15, s9, s11
ARM GAS  /tmp/ccqUnNFP.s 			page 55


 2032              	.LBB2451:
 2033              	.LBB2264:
 2034              	.LBB2253:
 2035              	.LBB2242:
 2036              	.LBB2235:
  70:dsp/fx/fx_engine.h ****     }
 2037              		.loc 2 70 58 view .LVU380
 2038 03b8 A8BF     		it	ge
 2039 03ba 9246     		movge	r10, r2
 2040              	.LBE2235:
 2041              	.LBE2242:
 2042              	.LBE2253:
 2043              	.LBE2264:
 2044              	.LBE2451:
 2045              	.LBB2452:
 2046              	.LBB2205:
 2047              	.LBB2198:
 2048              	.LBB2191:
 2049              	.LBB2184:
 2050              	.LBB2177:
 2051              	.LBB2172:
 2052 03bc 2BF81E90 		strh	r9, [fp, lr, lsl #1]	@ movhi
 2053              	.LVL65:
  70:dsp/fx/fx_engine.h ****     }
 2054              		.loc 2 70 58 view .LVU381
 2055              	.LBE2172:
 2056              	.LBE2177:
 2057              	.LBE2184:
 2058              	.LBE2191:
 2059              	.LBE2198:
 2060              	.LBE2205:
 2061              	.LBE2452:
 129:dsp/fx/reverb.h ****             c.Write(wet, 0.0f);
 2062              		.loc 1 129 13 is_stmt 1 view .LVU382
 2063              	.LBB2453:
 2064              	.LBI2227:
 202:dsp/fx/fx_engine.h ****         {
 2065              		.loc 2 202 21 view .LVU383
 2066              	.LBB2265:
 2067              	.LBI2228:
 186:dsp/fx/fx_engine.h ****         {
 2068              		.loc 2 186 21 view .LVU384
 2069              	.LBB2254:
 2070              	.LBB2243:
 2071              	.LBI2230:
  67:dsp/fx/fx_engine.h ****     {
 2072              		.loc 2 67 21 view .LVU385
 2073              	.LBB2236:
  69:dsp/fx/fx_engine.h ****             Clip16(static_cast<int32_t>(value * 4096.0f)));
 2074              		.loc 2 69 9 view .LVU386
  69:dsp/fx/fx_engine.h ****             Clip16(static_cast<int32_t>(value * 4096.0f)));
 2075              		.loc 2 69 9 is_stmt 0 view .LVU387
 2076              	.LBE2236:
 2077              	.LBE2243:
 2078              	.LBE2254:
 2079              	.LBE2265:
 2080              	.LBE2453:
ARM GAS  /tmp/ccqUnNFP.s 			page 56


 2081              	.LBE2500:
 2082              		.loc 3 102 5 is_stmt 1 view .LVU388
 2083              	.LBB2501:
 2084              	.LBB2454:
 2085              	.LBB2266:
 2086              	.LBB2255:
 2087              	.LBB2244:
 2088              	.LBB2237:
  70:dsp/fx/fx_engine.h ****     }
 2089              		.loc 2 70 58 is_stmt 0 view .LVU389
 2090 03c0 029D     		ldr	r5, [sp, #8]
 2091 03c2 9A45     		cmp	r10, r3
 2092 03c4 B8BF     		it	lt
 2093 03c6 9A46     		movlt	r10, r3
 2094              	.LBE2237:
 2095              	.LBE2244:
 2096              	.LBE2255:
 2097              	.LBE2266:
 2098              	.LBE2454:
 2099              		.loc 1 132 23 view .LVU390
 2100 03c8 A7EEAB5A 		vfma.f32	s10, s15, s23
 2101              	.LBB2455:
 2102              	.LBB2267:
 2103              	.LBB2256:
 2104              	.LBB2245:
 2105              	.LBB2238:
  70:dsp/fx/fx_engine.h ****     }
 2106              		.loc 2 70 58 view .LVU391
 2107 03cc 2BF815A0 		strh	r10, [fp, r5, lsl #1]	@ movhi
 2108              	.LVL66:
  70:dsp/fx/fx_engine.h ****     }
 2109              		.loc 2 70 58 view .LVU392
 2110              	.LBE2238:
 2111              	.LBE2245:
 2112              	.LBE2256:
 2113              	.LBE2267:
 2114              	.LBE2455:
 130:dsp/fx/reverb.h **** 
 2115              		.loc 1 130 13 is_stmt 1 view .LVU393
 2116              		.loc 1 132 13 view .LVU394
 2117              	.LBB2456:
 2118              	.LBB2285:
 2119              	.LBB2276:
 2120              	.LBB2277:
  64:dsp/fx/fx_engine.h ****     }
 2121              		.loc 2 64 16 is_stmt 0 view .LVU395
 2122 03d0 3BF91C50 		ldrsh	r5, [fp, ip, lsl #1]
 2123 03d4 04EE905A 		vmov	s9, r5	@ int
 2124              	.LVL67:
  64:dsp/fx/fx_engine.h ****     }
 2125              		.loc 2 64 16 view .LVU396
 2126              	.LBE2277:
 2127              	.LBE2276:
 2128              	.LBE2285:
 2129              	.LBE2456:
 2130              	.LBB2457:
 2131              	.LBB2389:
ARM GAS  /tmp/ccqUnNFP.s 			page 57


 2132              	.LBB2377:
 2133              	.LBB2378:
 2134 03d8 3BF91750 		ldrsh	r5, [fp, r7, lsl #1]
 2135              	.LBE2378:
 2136              	.LBE2377:
 2137              	.LBE2389:
 2138              	.LBE2457:
 2139              	.LBB2458:
 2140              	.LBB2286:
 2141              	.LBB2281:
 2142              	.LBB2278:
 2143 03dc F8EEE44A 		vcvt.f32.s32	s9, s9
 2144              	.LBE2278:
 2145              	.LBE2281:
 2146              	.LBE2286:
 2147              	.LBE2458:
 2148              	.LBB2459:
 2149              	.LBB2390:
 2150              	.LBB2383:
 2151              	.LBB2379:
 2152 03e0 07EE905A 		vmov	s15, r5	@ int
 2153              	.LBE2379:
 2154              	.LBE2383:
 2155              	.LBE2390:
 2156              	.LBE2459:
 2157              		.loc 1 132 23 view .LVU397
 2158 03e4 009D     		ldr	r5, [sp]
 2159              	.LBB2460:
 2160              	.LBB2391:
 2161              	.LBB2384:
 2162              	.LBB2380:
  64:dsp/fx/fx_engine.h ****     }
 2163              		.loc 2 64 16 view .LVU398
 2164 03e6 F8EEE77A 		vcvt.f32.s32	s15, s15
 2165              	.LBE2380:
 2166              	.LBE2384:
 2167              	.LBE2391:
 2168              	.LBE2460:
 2169              	.LBB2461:
 2170              	.LBB2287:
 2171              	.LBB2282:
 2172              	.LBB2279:
  64:dsp/fx/fx_engine.h ****     }
 2173              		.loc 2 64 66 view .LVU399
 2174 03ea 64EEA64A 		vmul.f32	s9, s9, s13
 2175              	.LBE2279:
 2176              	.LBE2282:
 2177              	.LBE2287:
 2178              	.LBE2461:
 2179              		.loc 1 132 23 view .LVU400
 2180 03ee 05ED025A 		vstr.32	s10, [r5, #-8]
 133:dsp/fx/reverb.h **** 
 134:dsp/fx/reverb.h ****             c.Load(apout);
 2181              		.loc 1 134 13 is_stmt 1 view .LVU401
 2182              	.LVL68:
 135:dsp/fx/reverb.h ****             // c.Interpolate(del1, 4450.0f, LFO_1, 50.0f, krt);
 136:dsp/fx/reverb.h ****             c.Read(del1 TAIL, krt);
ARM GAS  /tmp/ccqUnNFP.s 			page 58


 2183              		.loc 1 136 13 view .LVU402
 2184              	.LBB2462:
 2185              	.LBI2274:
 221:dsp/fx/fx_engine.h ****         {
 2186              		.loc 2 221 21 view .LVU403
 2187              	.LBB2288:
 2188              	.LBB2283:
 2189              	.LBI2276:
  62:dsp/fx/fx_engine.h ****     {
 2190              		.loc 2 62 25 view .LVU404
 2191              	.LBB2280:
  64:dsp/fx/fx_engine.h ****     }
 2192              		.loc 2 64 9 view .LVU405
  64:dsp/fx/fx_engine.h ****     }
 2193              		.loc 2 64 9 is_stmt 0 view .LVU406
 2194 03f2 0835     		adds	r5, r5, #8
 2195              	.LBE2280:
 2196              	.LBE2283:
 2197              	.LBE2288:
 2198              	.LBE2462:
 2199              	.LBB2463:
 2200              	.LBB2392:
 2201              	.LBB2385:
 2202              	.LBB2381:
  64:dsp/fx/fx_engine.h ****     }
 2203              		.loc 2 64 66 view .LVU407
 2204 03f4 67EEA67A 		vmul.f32	s15, s15, s13
 2205              	.LBE2381:
 2206              	.LBE2385:
 2207              	.LBE2392:
 2208              	.LBE2463:
 2209              	.LBB2464:
 2210              	.LBB2289:
 235:dsp/fx/fx_engine.h ****         }
 2211              		.loc 2 235 26 view .LVU408
 2212 03f8 ABEE247A 		vfma.f32	s14, s22, s9
 2213              	.LVL69:
 235:dsp/fx/fx_engine.h ****         }
 2214              		.loc 2 235 26 view .LVU409
 2215              	.LBE2289:
 2216              	.LBE2464:
 137:dsp/fx/reverb.h ****             c.Lp(lp_2, klp);
 2217              		.loc 1 137 13 is_stmt 1 view .LVU410
 2218              	.LBB2465:
 2219              	.LBI2465:
 244:dsp/fx/fx_engine.h ****         {
 2220              		.loc 2 244 21 view .LVU411
 2221              	.LBB2466:
 246:dsp/fx/fx_engine.h ****             accumulator_ = state;
 2222              		.loc 2 246 50 is_stmt 0 view .LVU412
 2223 03fc 37EE697A 		vsub.f32	s14, s14, s19
 246:dsp/fx/fx_engine.h ****             accumulator_ = state;
 2224              		.loc 2 246 19 view .LVU413
 2225 0400 EAEE879A 		vfma.f32	s19, s21, s14
 2226              	.LVL70:
 246:dsp/fx/fx_engine.h ****             accumulator_ = state;
 2227              		.loc 2 246 19 view .LVU414
ARM GAS  /tmp/ccqUnNFP.s 			page 59


 2228              	.LBE2466:
 2229              	.LBE2465:
 138:dsp/fx/reverb.h ****             c.Read(dap2a TAIL, kap);
 2230              		.loc 1 138 13 is_stmt 1 view .LVU415
 2231              	.LBB2467:
 2232              	.LBI2375:
 221:dsp/fx/fx_engine.h ****         {
 2233              		.loc 2 221 21 view .LVU416
 2234              	.LBB2393:
 2235              	.LBB2386:
 2236              	.LBI2377:
  62:dsp/fx/fx_engine.h ****     {
 2237              		.loc 2 62 25 view .LVU417
 2238              	.LBB2382:
  64:dsp/fx/fx_engine.h ****     }
 2239              		.loc 2 64 9 view .LVU418
  64:dsp/fx/fx_engine.h ****     }
 2240              		.loc 2 64 9 is_stmt 0 view .LVU419
 2241              	.LBE2382:
 2242              	.LBE2386:
 235:dsp/fx/fx_engine.h ****         }
 2243              		.loc 2 235 26 view .LVU420
 2244 0404 B0EE697A 		vmov.f32	s14, s19
 2245 0408 A8EEA77A 		vfma.f32	s14, s17, s15
 2246              	.LVL71:
 235:dsp/fx/fx_engine.h ****         }
 2247              		.loc 2 235 26 view .LVU421
 2248              	.LBE2393:
 2249              	.LBE2467:
 139:dsp/fx/reverb.h ****             c.WriteAllPass(dap2a, -kap);
 2250              		.loc 1 139 13 is_stmt 1 view .LVU422
 2251              	.LBB2468:
 2252              	.LBI2399:
 215:dsp/fx/fx_engine.h ****         {
 2253              		.loc 2 215 21 view .LVU423
 2254              	.LBB2426:
 2255              	.LBI2400:
 208:dsp/fx/fx_engine.h ****         {
 2256              		.loc 2 208 21 view .LVU424
 2257              	.LBB2422:
 2258              	.LBB2417:
 2259              	.LBI2402:
 186:dsp/fx/fx_engine.h ****         {
 2260              		.loc 2 186 21 view .LVU425
 2261              	.LBB2412:
 2262              	.LBB2404:
 2263              	.LBI2404:
  67:dsp/fx/fx_engine.h ****     {
 2264              		.loc 2 67 21 view .LVU426
 2265              	.LBB2405:
  69:dsp/fx/fx_engine.h ****             Clip16(static_cast<int32_t>(value * 4096.0f)));
 2266              		.loc 2 69 9 view .LVU427
  69:dsp/fx/fx_engine.h ****             Clip16(static_cast<int32_t>(value * 4096.0f)));
 2267              		.loc 2 69 9 is_stmt 0 view .LVU428
 2268              	.LBE2405:
 2269              	.LBE2404:
 2270              	.LBE2412:
ARM GAS  /tmp/ccqUnNFP.s 			page 60


 2271              	.LBE2417:
 2272              	.LBE2422:
 2273              	.LBE2426:
 2274              	.LBE2468:
 2275              	.LBE2501:
 2276              		.loc 3 102 5 is_stmt 1 view .LVU429
 2277              	.LBB2502:
 2278              	.LBB2469:
 2279              	.LBB2427:
 2280              	.LBB2423:
 2281              	.LBB2418:
 2282              	.LBB2413:
 2283              	.LBB2408:
 2284              	.LBB2406:
  70:dsp/fx/fx_engine.h ****     }
 2285              		.loc 2 70 19 is_stmt 0 view .LVU430
 2286 040c B0EE475A 		vmov.f32	s10, s14
 2287              	.LBE2406:
 2288              	.LBE2408:
 2289              	.LBE2413:
 2290              	.LBE2418:
 211:dsp/fx/fx_engine.h ****         }
 2291              		.loc 2 211 26 view .LVU431
 2292 0410 E7EE097A 		vfma.f32	s15, s14, s18
 2293              	.LVL72:
 2294              	.LBB2419:
 2295              	.LBB2414:
 2296              	.LBB2409:
 2297              	.LBB2407:
  70:dsp/fx/fx_engine.h ****     }
 2298              		.loc 2 70 19 view .LVU432
 2299 0414 BEEECA5A 		vcvt.s32.f32	s10, s10, #12
 2300 0418 15EE107A 		vmov	r7, s10	@ int
 2301              	.LVL73:
  70:dsp/fx/fx_engine.h ****     }
 2302              		.loc 2 70 58 view .LVU433
 2303 041c 9742     		cmp	r7, r2
 2304 041e A8BF     		it	ge
 2305 0420 1746     		movge	r7, r2
 2306 0422 9F42     		cmp	r7, r3
 2307 0424 B8BF     		it	lt
 2308 0426 1F46     		movlt	r7, r3
 2309 0428 2BF81670 		strh	r7, [fp, r6, lsl #1]	@ movhi
 2310              	.LVL74:
  70:dsp/fx/fx_engine.h ****     }
 2311              		.loc 2 70 58 view .LVU434
 2312              	.LBE2407:
 2313              	.LBE2409:
 2314              	.LBE2414:
 2315              	.LBE2419:
 2316              	.LBE2423:
 2317              	.LBE2427:
 2318              	.LBE2469:
 140:dsp/fx/reverb.h ****             c.Read(dap2b TAIL, -kap);
 2319              		.loc 1 140 13 is_stmt 1 view .LVU435
 2320              	.LBB2470:
 2321              	.LBI2297:
ARM GAS  /tmp/ccqUnNFP.s 			page 61


 221:dsp/fx/fx_engine.h ****         {
 2322              		.loc 2 221 21 view .LVU436
 2323              	.LBB2305:
 2324              	.LBB2299:
 2325              	.LBI2299:
  62:dsp/fx/fx_engine.h ****     {
 2326              		.loc 2 62 25 view .LVU437
 2327              	.LBB2300:
  64:dsp/fx/fx_engine.h ****     }
 2328              		.loc 2 64 9 view .LVU438
  64:dsp/fx/fx_engine.h ****     }
 2329              		.loc 2 64 16 is_stmt 0 view .LVU439
 2330 042c 3BF91000 		ldrsh	r0, [fp, r0, lsl #1]
 2331              	.LBE2300:
 2332              	.LBE2299:
 2333              	.LBE2305:
 2334              	.LBE2470:
 2335              	.LBB2471:
 2336              	.LBB2127:
 2337              	.LBB2118:
 2338              	.LBB2101:
 2339              	.LBB2102:
  70:dsp/fx/fx_engine.h ****     }
 2340              		.loc 2 70 58 view .LVU440
 2341 0430 069F     		ldr	r7, [sp, #24]
 2342              	.LBE2102:
 2343              	.LBE2101:
 2344              	.LBE2118:
 2345              	.LBE2127:
 2346              	.LBE2471:
 2347              	.LBB2472:
 2348              	.LBB2306:
 2349              	.LBB2302:
 2350              	.LBB2301:
  64:dsp/fx/fx_engine.h ****     }
 2351              		.loc 2 64 16 view .LVU441
 2352 0432 07EE100A 		vmov	s14, r0	@ int
 2353              	.LVL75:
  64:dsp/fx/fx_engine.h ****     }
 2354              		.loc 2 64 16 view .LVU442
 2355 0436 B8EEC77A 		vcvt.f32.s32	s14, s14
  64:dsp/fx/fx_engine.h ****     }
 2356              		.loc 2 64 66 view .LVU443
 2357 043a 27EE267A 		vmul.f32	s14, s14, s13
 2358              	.LVL76:
  64:dsp/fx/fx_engine.h ****     }
 2359              		.loc 2 64 66 view .LVU444
 2360              	.LBE2301:
 2361              	.LBE2302:
 235:dsp/fx/fx_engine.h ****         }
 2362              		.loc 2 235 26 view .LVU445
 2363 043e E7EE097A 		vfma.f32	s15, s14, s18
 2364              	.LVL77:
 235:dsp/fx/fx_engine.h ****         }
 2365              		.loc 2 235 26 view .LVU446
 2366              	.LBE2306:
 2367              	.LBE2472:
ARM GAS  /tmp/ccqUnNFP.s 			page 62


 141:dsp/fx/reverb.h ****             c.WriteAllPass(dap2b, kap);
 2368              		.loc 1 141 13 is_stmt 1 view .LVU447
 2369              	.LBB2473:
 2370              	.LBI2312:
 215:dsp/fx/fx_engine.h ****         {
 2371              		.loc 2 215 21 view .LVU448
 2372              	.LBB2365:
 2373              	.LBI2313:
 208:dsp/fx/fx_engine.h ****         {
 2374              		.loc 2 208 21 view .LVU449
 2375              	.LBB2355:
 2376              	.LBB2345:
 2377              	.LBI2315:
 186:dsp/fx/fx_engine.h ****         {
 2378              		.loc 2 186 21 view .LVU450
 2379              	.LBB2335:
 2380              	.LBB2317:
 2381              	.LBI2317:
  67:dsp/fx/fx_engine.h ****     {
 2382              		.loc 2 67 21 view .LVU451
 2383              	.LBB2318:
  69:dsp/fx/fx_engine.h ****             Clip16(static_cast<int32_t>(value * 4096.0f)));
 2384              		.loc 2 69 9 view .LVU452
  69:dsp/fx/fx_engine.h ****             Clip16(static_cast<int32_t>(value * 4096.0f)));
 2385              		.loc 2 69 9 is_stmt 0 view .LVU453
 2386              	.LBE2318:
 2387              	.LBE2317:
 2388              	.LBE2335:
 2389              	.LBE2345:
 2390              	.LBE2355:
 2391              	.LBE2365:
 2392              	.LBE2473:
 2393              	.LBE2502:
 2394              		.loc 3 102 5 is_stmt 1 view .LVU454
 2395              	.LBB2503:
 2396              	.LBB2474:
 2397              	.LBB2366:
 2398              	.LBB2356:
 211:dsp/fx/fx_engine.h ****         }
 2399              		.loc 2 211 26 is_stmt 0 view .LVU455
 2400 0442 A8EEA77A 		vfma.f32	s14, s17, s15
 2401              	.LVL78:
 2402              	.LBB2346:
 2403              	.LBB2336:
 2404              	.LBB2326:
 2405              	.LBB2319:
  70:dsp/fx/fx_engine.h ****     }
 2406              		.loc 2 70 19 view .LVU456
 2407 0446 F0EE676A 		vmov.f32	s13, s15
 2408              	.LVL79:
  70:dsp/fx/fx_engine.h ****     }
 2409              		.loc 2 70 19 view .LVU457
 2410              	.LBE2319:
 2411              	.LBE2326:
 2412              	.LBE2336:
 2413              	.LBE2346:
 2414              	.LBE2356:
ARM GAS  /tmp/ccqUnNFP.s 			page 63


 2415              	.LBE2366:
 2416              	.LBE2474:
 142:dsp/fx/reverb.h ****             c.Write(del2, 2.0f);
 143:dsp/fx/reverb.h ****             c.Write(wet, 0.0f);
 144:dsp/fx/reverb.h **** 
 145:dsp/fx/reverb.h ****             in_out->r += (wet - in_out->r) * amount;
 2417              		.loc 1 145 31 view .LVU458
 2418 044a F0EE467A 		vmov.f32	s15, s12
 2419              	.LVL80:
 2420              	.LBB2475:
 2421              	.LBB2367:
 2422              	.LBB2357:
 2423              	.LBB2347:
 2424              	.LBB2337:
 2425              	.LBB2327:
 2426              	.LBB2320:
  70:dsp/fx/fx_engine.h ****     }
 2427              		.loc 2 70 19 view .LVU459
 2428 044e FEEECA6A 		vcvt.s32.f32	s13, s13, #12
 2429              	.LVL81:
  70:dsp/fx/fx_engine.h ****     }
 2430              		.loc 2 70 19 view .LVU460
 2431              	.LBE2320:
 2432              	.LBE2327:
 2433              	.LBE2337:
 2434              	.LBE2347:
 2435              	.LBE2357:
 2436              	.LBE2367:
 2437              	.LBE2475:
 2438              		.loc 1 145 31 view .LVU461
 2439 0452 D7EE257A 		vfnms.f32	s15, s14, s11
 2440              	.LBB2476:
 2441              	.LBB2368:
 2442              	.LBB2358:
 2443              	.LBB2348:
 2444              	.LBB2338:
 2445              	.LBB2328:
 2446              	.LBB2321:
  70:dsp/fx/fx_engine.h ****     }
 2447              		.loc 2 70 19 view .LVU462
 2448 0456 16EE906A 		vmov	r6, s13	@ int
 2449              	.LBE2321:
 2450              	.LBE2328:
 2451              	.LBE2338:
 2452              	.LBE2348:
 2453              	.LBE2358:
 2454              	.LBE2368:
 2455              	.LBE2476:
 2456              	.LBB2477:
 2457              	.LBB2128:
 2458              	.LBB2119:
 2459              	.LBB2110:
 2460              	.LBB2103:
 2461 045a F0EE476A 		vmov.f32	s13, s14
 2462              	.LBE2103:
 2463              	.LBE2110:
 2464              	.LBE2119:
ARM GAS  /tmp/ccqUnNFP.s 			page 64


 2465              	.LBE2128:
 2466              	.LBE2477:
 2467              	.LBB2478:
 2468              	.LBB2369:
 2469              	.LBB2359:
 2470              	.LBB2349:
 2471              	.LBB2339:
 2472              	.LBB2329:
 2473              	.LBB2322:
  70:dsp/fx/fx_engine.h ****     }
 2474              		.loc 2 70 58 view .LVU463
 2475 045e 9642     		cmp	r6, r2
 2476              	.LBE2322:
 2477              	.LBE2329:
 2478              	.LBE2339:
 2479              	.LBE2349:
 2480              	.LBE2359:
 2481              	.LBE2369:
 2482              	.LBE2478:
 2483              	.LBB2479:
 2484              	.LBB2129:
 2485              	.LBB2120:
 2486              	.LBB2111:
 2487              	.LBB2104:
  70:dsp/fx/fx_engine.h ****     }
 2488              		.loc 2 70 19 view .LVU464
 2489 0460 FEEECA6A 		vcvt.s32.f32	s13, s13, #12
 2490              	.LBE2104:
 2491              	.LBE2111:
 2492              	.LBE2120:
 2493              	.LBE2129:
 2494              	.LBE2479:
 2495              	.LBB2480:
 2496              	.LBB2370:
 2497              	.LBB2360:
 2498              	.LBB2350:
 2499              	.LBB2340:
 2500              	.LBB2330:
 2501              	.LBB2323:
  70:dsp/fx/fx_engine.h ****     }
 2502              		.loc 2 70 58 view .LVU465
 2503 0464 A8BF     		it	ge
 2504 0466 1646     		movge	r6, r2
 2505              	.LBE2323:
 2506              	.LBE2330:
 2507              	.LBE2340:
 2508              	.LBE2350:
 2509              	.LBE2360:
 2510              	.LBE2370:
 2511              	.LBE2480:
 2512              		.loc 1 145 23 view .LVU466
 2513 0468 A7EEAB6A 		vfma.f32	s12, s15, s23
 2514              	.LBB2481:
 2515              	.LBB2130:
 2516              	.LBB2121:
 2517              	.LBB2112:
 2518              	.LBB2105:
ARM GAS  /tmp/ccqUnNFP.s 			page 65


  70:dsp/fx/fx_engine.h ****     }
 2519              		.loc 2 70 19 view .LVU467
 2520 046c 16EE900A 		vmov	r0, s13	@ int
 2521              	.LVL82:
  70:dsp/fx/fx_engine.h ****     }
 2522              		.loc 2 70 19 view .LVU468
 2523              	.LBE2105:
 2524              	.LBE2112:
 2525              	.LBE2121:
 2526              	.LBE2130:
 2527              	.LBE2481:
 2528              	.LBB2482:
 2529              	.LBB2371:
 2530              	.LBB2361:
 2531              	.LBB2351:
 2532              	.LBB2341:
 2533              	.LBB2331:
 2534              	.LBB2324:
  70:dsp/fx/fx_engine.h ****     }
 2535              		.loc 2 70 58 view .LVU469
 2536 0470 9E42     		cmp	r6, r3
 2537 0472 B8BF     		it	lt
 2538 0474 1E46     		movlt	r6, r3
 2539              	.LBE2324:
 2540              	.LBE2331:
 2541              	.LBE2341:
 2542              	.LBE2351:
 2543              	.LBE2361:
 2544              	.LBE2371:
 2545              	.LBE2482:
 2546              	.LBB2483:
 2547              	.LBB2131:
 2548              	.LBB2122:
 2549              	.LBB2113:
 2550              	.LBB2106:
 2551 0476 9042     		cmp	r0, r2
 2552 0478 0CE0     		b	.L24
 2553              	.L25:
 2554 047a 00BF     		.align	2
 2555              	.L23:
 2556 047c 00007042 		.word	1114636288
 2557 0480 00008039 		.word	964689920
 2558 0484 0000C842 		.word	1120403456
 2559 0488 00409245 		.word	1167212544
 2560 048c 00000000 		.word	0
 2561 0490 0080FFFF 		.word	-32768
 2562              	.L24:
 2563 0494 A8BF     		it	ge
 2564 0496 1046     		movge	r0, r2
 2565              	.LBE2106:
 2566              	.LBE2113:
 2567              	.LBE2122:
 2568              	.LBE2131:
 2569              	.LBE2483:
 2570              	.LBB2484:
 2571              	.LBB2372:
 2572              	.LBB2362:
ARM GAS  /tmp/ccqUnNFP.s 			page 66


 2573              	.LBB2352:
 2574              	.LBB2342:
 2575              	.LBB2332:
 2576              	.LBB2325:
 2577 0498 2BF81160 		strh	r6, [fp, r1, lsl #1]	@ movhi
 2578              	.LVL83:
  70:dsp/fx/fx_engine.h ****     }
 2579              		.loc 2 70 58 view .LVU470
 2580              	.LBE2325:
 2581              	.LBE2332:
 2582              	.LBE2342:
 2583              	.LBE2352:
 2584              	.LBE2362:
 2585              	.LBE2372:
 2586              	.LBE2484:
 142:dsp/fx/reverb.h ****             c.Write(del2, 2.0f);
 2587              		.loc 1 142 13 is_stmt 1 view .LVU471
 2588              	.LBB2485:
 2589              	.LBI2098:
 202:dsp/fx/fx_engine.h ****         {
 2590              		.loc 2 202 21 view .LVU472
 2591              	.LBB2132:
 2592              	.LBI2099:
 186:dsp/fx/fx_engine.h ****         {
 2593              		.loc 2 186 21 view .LVU473
 2594              	.LBB2123:
 2595              	.LBB2114:
 2596              	.LBI2101:
  67:dsp/fx/fx_engine.h ****     {
 2597              		.loc 2 67 21 view .LVU474
 2598              	.LBB2107:
  69:dsp/fx/fx_engine.h ****             Clip16(static_cast<int32_t>(value * 4096.0f)));
 2599              		.loc 2 69 9 view .LVU475
  69:dsp/fx/fx_engine.h ****             Clip16(static_cast<int32_t>(value * 4096.0f)));
 2600              		.loc 2 69 9 is_stmt 0 view .LVU476
 2601              	.LBE2107:
 2602              	.LBE2114:
 2603              	.LBE2123:
 2604              	.LBE2132:
 2605              	.LBE2485:
 2606              	.LBE2503:
 2607              		.loc 3 102 5 is_stmt 1 view .LVU477
  98:dsp/fx/reverb.h ****         {
 2608              		.loc 1 98 19 is_stmt 0 view .LVU478
 2609 049c 0199     		ldr	r1, [sp, #4]
 2610              	.LBB2504:
 2611              	.LBB2486:
 2612              	.LBB2133:
 2613              	.LBB2124:
 2614              	.LBB2115:
 2615              	.LBB2108:
  70:dsp/fx/fx_engine.h ****     }
 2616              		.loc 2 70 58 view .LVU479
 2617 049e 9842     		cmp	r0, r3
 2618 04a0 B8BF     		it	lt
 2619 04a2 1846     		movlt	r0, r3
 2620              	.LBE2108:
ARM GAS  /tmp/ccqUnNFP.s 			page 67


 2621              	.LBE2115:
 2622              	.LBE2124:
 2623              	.LBE2133:
 2624              	.LBE2486:
 2625              	.LBE2504:
  98:dsp/fx/reverb.h ****         {
 2626              		.loc 1 98 19 view .LVU480
 2627 04a4 0131     		adds	r1, r1, #1
 2628              	.LBB2505:
 2629              	.LBB2487:
 2630              	.LBB2134:
 2631              	.LBB2125:
 2632              	.LBB2116:
 2633              	.LBB2109:
  70:dsp/fx/fx_engine.h ****     }
 2634              		.loc 2 70 58 view .LVU481
 2635 04a6 2BF81700 		strh	r0, [fp, r7, lsl #1]	@ movhi
 2636              	.LVL84:
  70:dsp/fx/fx_engine.h ****     }
 2637              		.loc 2 70 58 view .LVU482
 2638              	.LBE2109:
 2639              	.LBE2116:
 2640              	.LBE2125:
 2641              	.LBE2134:
 2642              	.LBE2487:
 143:dsp/fx/reverb.h **** 
 2643              		.loc 1 143 13 is_stmt 1 view .LVU483
 2644              		.loc 1 145 13 view .LVU484
 2645              		.loc 1 145 23 is_stmt 0 view .LVU485
 2646 04aa 05ED036A 		vstr.32	s12, [r5, #-12]
 146:dsp/fx/reverb.h **** 
 147:dsp/fx/reverb.h ****             ++in_out;
 2647              		.loc 1 147 13 is_stmt 1 view .LVU486
 2648              	.LVL85:
 2649              		.loc 1 147 13 is_stmt 0 view .LVU487
 2650              	.LBE2505:
  98:dsp/fx/reverb.h ****         {
 2651              		.loc 1 98 9 is_stmt 1 view .LVU488
  98:dsp/fx/reverb.h ****         {
 2652              		.loc 1 98 19 view .LVU489
  98:dsp/fx/reverb.h ****         {
 2653              		.loc 1 98 19 is_stmt 0 view .LVU490
 2654 04ae 0095     		str	r5, [sp]
 2655 04b0 0ED0     		beq	.L20
 2656              	.LVL86:
 2657              	.L10:
 2658              	.LBB2506:
 100:dsp/fx/reverb.h ****             float apout = 0.0f;
 2659              		.loc 1 100 13 is_stmt 1 view .LVU491
 101:dsp/fx/reverb.h ****             engine_.Start(&c);
 2660              		.loc 1 101 13 view .LVU492
 102:dsp/fx/reverb.h **** 
 2661              		.loc 1 102 13 view .LVU493
 2662              	.LBB2488:
 2663              	.LBI1709:
 302:dsp/fx/fx_engine.h ****     {
 2664              		.loc 2 302 17 view .LVU494
ARM GAS  /tmp/ccqUnNFP.s 			page 68


 2665              	.LBB1733:
 305:dsp/fx/fx_engine.h ****         {
 2666              		.loc 2 305 9 is_stmt 0 view .LVU495
 2667 04b2 631E     		subs	r3, r4, #1
 2668 04b4 08D4     		bmi	.L21
 305:dsp/fx/fx_engine.h ****         {
 2669              		.loc 2 305 9 view .LVU496
 2670 04b6 1C46     		mov	r4, r3
 2671              	.L3:
 312:dsp/fx/fx_engine.h ****         c->write_ptr_     = write_ptr_;
 313:dsp/fx/fx_engine.h ****         if((write_ptr_ & 31) == 0)
 2672              		.loc 2 313 9 view .LVU497
 2673 04b8 E306     		lsls	r3, r4, #27
 2674 04ba 3FF4C4AD 		beq	.L22
 314:dsp/fx/fx_engine.h ****         {
 315:dsp/fx/fx_engine.h ****             c->lfo_value_[0] = lfo_[0].Next();
 316:dsp/fx/fx_engine.h ****             c->lfo_value_[1] = lfo_[1].Next();
 317:dsp/fx/fx_engine.h ****         }
 318:dsp/fx/fx_engine.h ****         else
 319:dsp/fx/fx_engine.h ****         {
 320:dsp/fx/fx_engine.h ****             c->lfo_value_[0] = lfo_[0].value();
 2675              		.loc 2 320 45 view .LVU498
 2676 04be 98ED02CA 		vldr.32	s24, [r8, #8]
 2677              	.LVL87:
 2678              		.loc 2 320 45 view .LVU499
 2679              	.LBE1733:
 2680              	.LBE2488:
 2681              	.LBE2506:
  91:./stmtemp.h   **** 
 2682              		.loc 3 91 21 is_stmt 1 view .LVU500
 2683              	.LBB2507:
 2684              	.LBB2489:
 2685              	.LBB1734:
 321:dsp/fx/fx_engine.h ****             c->lfo_value_[1] = lfo_[1].value();
 2686              		.loc 2 321 45 is_stmt 0 view .LVU501
 2687 04c2 98ED060A 		vldr.32	s0, [r8, #24]
 2688              	.LVL88:
 2689              		.loc 2 321 45 view .LVU502
 2690              	.LBE1734:
 2691              	.LBE2489:
 2692              	.LBE2507:
  91:./stmtemp.h   **** 
 2693              		.loc 3 91 21 is_stmt 1 view .LVU503
  91:./stmtemp.h   **** 
 2694              		.loc 3 91 21 is_stmt 0 view .LVU504
 2695 04c6 EAE5     		b	.L9
 2696              	.LVL89:
 2697              	.L21:
 2698              	.LBB2508:
 2699              	.LBB2490:
 2700              	.LBB1735:
 307:dsp/fx/fx_engine.h ****         }
 2701              		.loc 2 307 24 view .LVU505
 2702 04c8 04F57F54 		add	r4, r4, #16320
 2703 04cc 3F34     		adds	r4, r4, #63
 2704 04ce F3E7     		b	.L3
 2705              	.LVL90:
ARM GAS  /tmp/ccqUnNFP.s 			page 69


 2706              	.L20:
 307:dsp/fx/fx_engine.h ****         }
 2707              		.loc 2 307 24 view .LVU506
 2708 04d0 079B     		ldr	r3, [sp, #28]
 2709 04d2 1C60     		str	r4, [r3]
 2710              	.LVL91:
 2711              	.L2:
 307:dsp/fx/fx_engine.h ****         }
 2712              		.loc 2 307 24 view .LVU507
 2713              	.LBE1735:
 2714              	.LBE2490:
 2715              	.LBE2508:
 148:dsp/fx/reverb.h ****         }
 149:dsp/fx/reverb.h **** 
 150:dsp/fx/reverb.h ****         lp_decay_1_ = lp_1;
 2716              		.loc 1 150 9 is_stmt 1 view .LVU508
 2717              		.loc 1 150 21 is_stmt 0 view .LVU509
 2718 04d4 079B     		ldr	r3, [sp, #28]
 2719 04d6 83ED0FAA 		vstr.32	s20, [r3, #60]
 151:dsp/fx/reverb.h ****         lp_decay_2_ = lp_2;
 2720              		.loc 1 151 9 is_stmt 1 view .LVU510
 2721              		.loc 1 151 21 is_stmt 0 view .LVU511
 2722 04da C3ED109A 		vstr.32	s19, [r3, #64]
 2723              	.LVL92:
 2724              	.LBB2509:
 2725              	.LBI2509:
 166:dsp/fx/fx_engine.h **** 
 2726              		.loc 2 166 9 is_stmt 1 view .LVU512
 166:dsp/fx/fx_engine.h **** 
 2727              		.loc 2 166 9 is_stmt 0 view .LVU513
 2728              	.LBE2509:
 152:dsp/fx/reverb.h ****     }
 2729              		.loc 1 152 5 view .LVU514
 2730 04de 09B0     		add	sp, sp, #36
 2731              		.cfi_def_cfa_offset 76
 2732              		@ sp needed
 2733 04e0 BDEC0A8B 		vldm	sp!, {d8-d12}
 2734              		.cfi_restore 88
 2735              		.cfi_restore 89
 2736              		.cfi_restore 86
 2737              		.cfi_restore 87
 2738              		.cfi_restore 84
 2739              		.cfi_restore 85
 2740              		.cfi_restore 82
 2741              		.cfi_restore 83
 2742              		.cfi_restore 80
 2743              		.cfi_restore 81
 2744              		.cfi_def_cfa_offset 36
 2745              	.LVL93:
 2746              		.loc 1 152 5 view .LVU515
 2747 04e4 BDE8F08F 		pop	{r4, r5, r6, r7, r8, r9, r10, fp, pc}
 2748              		.loc 1 152 5 view .LVU516
 2749              		.cfi_endproc
 2750              	.LFE4289:
 2752              		.section	.text._ZN23GranularProcessorClouds12ResetFiltersEv,"ax",%progbits
 2753              		.align	1
 2754              		.p2align 2,,3
ARM GAS  /tmp/ccqUnNFP.s 			page 70


 2755              		.global	_ZN23GranularProcessorClouds12ResetFiltersEv
 2756              		.syntax unified
 2757              		.thumb
 2758              		.thumb_func
 2759              		.fpu fpv5-d16
 2761              	_ZN23GranularProcessorClouds12ResetFiltersEv:
 2762              	.LVL94:
 2763              	.LFB4493:
 2764              		.file 5 "dsp/granular_processor.cpp"
   1:dsp/granular_processor.cpp **** // Copyright 2014 Emilie Gillet.
   2:dsp/granular_processor.cpp **** //
   3:dsp/granular_processor.cpp **** // Author: Emilie Gillet (emilie.o.gillet@gmail.com)
   4:dsp/granular_processor.cpp **** //
   5:dsp/granular_processor.cpp **** // Permission is hereby granted, free of charge, to any person obtaining a copy
   6:dsp/granular_processor.cpp **** // of this software and associated documentation files (the "Software"), to deal
   7:dsp/granular_processor.cpp **** // in the Software without restriction, including without limitation the rights
   8:dsp/granular_processor.cpp **** // to use, copy, modify, merge, publish, distribute, sublicense, and/or sell
   9:dsp/granular_processor.cpp **** // copies of the Software, and to permit persons to whom the Software is
  10:dsp/granular_processor.cpp **** // furnished to do so, subject to the following conditions:
  11:dsp/granular_processor.cpp **** //
  12:dsp/granular_processor.cpp **** // The above copyright notice and this permission notice shall be included in
  13:dsp/granular_processor.cpp **** // all copies or substantial portions of the Software.
  14:dsp/granular_processor.cpp **** //
  15:dsp/granular_processor.cpp **** // THE SOFTWARE IS PROVIDED "AS IS", WITHOUT WARRANTY OF ANY KIND, EXPRESS OR
  16:dsp/granular_processor.cpp **** // IMPLIED, INCLUDING BUT NOT LIMITED TO THE WARRANTIES OF MERCHANTABILITY,
  17:dsp/granular_processor.cpp **** // FITNESS FOR A PARTICULAR PURPOSE AND NONINFRINGEMENT. IN NO EVENT SHALL THE
  18:dsp/granular_processor.cpp **** // AUTHORS OR COPYRIGHT HOLDERS BE LIABLE FOR ANY CLAIM, DAMAGES OR OTHER
  19:dsp/granular_processor.cpp **** // LIABILITY, WHETHER IN AN ACTION OF CONTRACT, TORT OR OTHERWISE, ARISING FROM,
  20:dsp/granular_processor.cpp **** // OUT OF OR IN CONNECTION WITH THE SOFTWARE OR THE USE OR OTHER DEALINGS IN
  21:dsp/granular_processor.cpp **** // THE SOFTWARE.
  22:dsp/granular_processor.cpp **** //
  23:dsp/granular_processor.cpp **** // See http://creativecommons.org/licenses/MIT/ for more information.
  24:dsp/granular_processor.cpp **** //
  25:dsp/granular_processor.cpp **** // -----------------------------------------------------------------------------
  26:dsp/granular_processor.cpp **** //
  27:dsp/granular_processor.cpp **** // Main processing class.
  28:dsp/granular_processor.cpp **** 
  29:dsp/granular_processor.cpp **** #include "granular_processor.h"
  30:dsp/granular_processor.cpp **** #include <stdint.h>
  31:dsp/granular_processor.cpp **** #include <cstring>
  32:dsp/granular_processor.cpp **** 
  33:dsp/granular_processor.cpp **** //#include "debug_pin.h"
  34:dsp/granular_processor.cpp **** 
  35:dsp/granular_processor.cpp **** //#include "parameter_interpolator.h"
  36:dsp/granular_processor.cpp **** #include "buffer_allocator.h"
  37:dsp/granular_processor.cpp **** #include "resources.h"
  38:dsp/granular_processor.cpp **** 
  39:dsp/granular_processor.cpp **** //using namespace daisysp;
  40:dsp/granular_processor.cpp **** //using namespace daisy;
  41:dsp/granular_processor.cpp **** using namespace std;
  42:dsp/granular_processor.cpp **** 
  43:dsp/granular_processor.cpp **** void GranularProcessorClouds::Init(float  sample_rate,
  44:dsp/granular_processor.cpp ****                                    void*  large_buffer,
  45:dsp/granular_processor.cpp ****                                    size_t large_buffer_size,
  46:dsp/granular_processor.cpp ****                                    void*  small_buffer,
  47:dsp/granular_processor.cpp ****                                    size_t small_buffer_size)
  48:dsp/granular_processor.cpp **** {
ARM GAS  /tmp/ccqUnNFP.s 			page 71


  49:dsp/granular_processor.cpp ****     sample_rate_    = sample_rate;
  50:dsp/granular_processor.cpp ****     buffer_[0]      = large_buffer;
  51:dsp/granular_processor.cpp ****     buffer_[1]      = small_buffer;
  52:dsp/granular_processor.cpp ****     buffer_size_[0] = large_buffer_size;
  53:dsp/granular_processor.cpp ****     buffer_size_[1] = small_buffer_size;
  54:dsp/granular_processor.cpp **** 
  55:dsp/granular_processor.cpp ****     num_channels_ = 2;
  56:dsp/granular_processor.cpp ****     low_fidelity_ = false;
  57:dsp/granular_processor.cpp ****     bypass_       = false;
  58:dsp/granular_processor.cpp **** 
  59:dsp/granular_processor.cpp ****     src_down_.Init();
  60:dsp/granular_processor.cpp ****     src_up_.Init();
  61:dsp/granular_processor.cpp **** 
  62:dsp/granular_processor.cpp ****     ResetFilters();
  63:dsp/granular_processor.cpp **** 
  64:dsp/granular_processor.cpp ****     previous_playback_mode_ = PLAYBACK_MODE_LAST;
  65:dsp/granular_processor.cpp ****     reset_buffers_          = true;
  66:dsp/granular_processor.cpp ****     dry_wet_                = 0.0f;
  67:dsp/granular_processor.cpp **** }
  68:dsp/granular_processor.cpp **** 
  69:dsp/granular_processor.cpp **** void GranularProcessorClouds::ResetFilters()
  70:dsp/granular_processor.cpp **** {
 2765              		.loc 5 70 1 is_stmt 1 view -0
 2766              		.cfi_startproc
 2767              		@ args = 0, pretend = 0, frame = 0
 2768              		@ frame_needed = 0, uses_anonymous_args = 0
  71:dsp/granular_processor.cpp ****     for(int32_t i = 0; i < 2; ++i)
 2769              		.loc 5 71 5 view .LVU518
 2770              	.LBB2510:
 2771              		.loc 5 71 26 view .LVU519
  72:dsp/granular_processor.cpp ****     {
  73:dsp/granular_processor.cpp ****         fb_filter_[i].Init(sample_rate_);
 2772              		.loc 5 73 9 view .LVU520
 2773              	.LBE2510:
  70:dsp/granular_processor.cpp ****     for(int32_t i = 0; i < 2; ++i)
 2774              		.loc 5 70 1 is_stmt 0 view .LVU521
 2775 0000 10B5     		push	{r4, lr}
 2776              		.cfi_def_cfa_offset 8
 2777              		.cfi_offset 4, -8
 2778              		.cfi_offset 14, -4
  70:dsp/granular_processor.cpp ****     for(int32_t i = 0; i < 2; ++i)
 2779              		.loc 5 70 1 view .LVU522
 2780 0002 0446     		mov	r4, r0
 2781              	.LBB2511:
 2782              		.loc 5 73 27 view .LVU523
 2783 0004 41F29400 		movw	r0, #4244
 2784              	.LVL95:
 2785              		.loc 5 73 27 view .LVU524
 2786 0008 94ED030A 		vldr.32	s0, [r4, #12]
 2787 000c 2044     		add	r0, r0, r4
 2788 000e FFF7FEFF 		bl	_ZN7daisysp3Svf4InitEf
 2789              	.LVL96:
  74:dsp/granular_processor.cpp ****         lp_filter_[i].Init(sample_rate_);
 2790              		.loc 5 74 9 is_stmt 1 view .LVU525
 2791              		.loc 5 74 27 is_stmt 0 view .LVU526
 2792 0012 41F2C410 		movw	r0, #4548
 2793 0016 94ED030A 		vldr.32	s0, [r4, #12]
ARM GAS  /tmp/ccqUnNFP.s 			page 72


 2794 001a 2044     		add	r0, r0, r4
 2795 001c FFF7FEFF 		bl	_ZN7daisysp3Svf4InitEf
 2796              	.LVL97:
  75:dsp/granular_processor.cpp ****         hp_filter_[i].Init(sample_rate_);
 2797              		.loc 5 75 9 is_stmt 1 view .LVU527
 2798              		.loc 5 75 27 is_stmt 0 view .LVU528
 2799 0020 41F22C10 		movw	r0, #4396
 2800 0024 94ED030A 		vldr.32	s0, [r4, #12]
 2801 0028 2044     		add	r0, r0, r4
 2802 002a FFF7FEFF 		bl	_ZN7daisysp3Svf4InitEf
 2803              	.LVL98:
  71:dsp/granular_processor.cpp ****     {
 2804              		.loc 5 71 5 is_stmt 1 view .LVU529
  71:dsp/granular_processor.cpp ****     {
 2805              		.loc 5 71 26 view .LVU530
  73:dsp/granular_processor.cpp ****         lp_filter_[i].Init(sample_rate_);
 2806              		.loc 5 73 9 view .LVU531
  73:dsp/granular_processor.cpp ****         lp_filter_[i].Init(sample_rate_);
 2807              		.loc 5 73 27 is_stmt 0 view .LVU532
 2808 002e 94ED030A 		vldr.32	s0, [r4, #12]
 2809 0032 04F58750 		add	r0, r4, #4320
 2810 0036 FFF7FEFF 		bl	_ZN7daisysp3Svf4InitEf
 2811              	.LVL99:
  74:dsp/granular_processor.cpp ****         hp_filter_[i].Init(sample_rate_);
 2812              		.loc 5 74 9 is_stmt 1 view .LVU533
  74:dsp/granular_processor.cpp ****         hp_filter_[i].Init(sample_rate_);
 2813              		.loc 5 74 27 is_stmt 0 view .LVU534
 2814 003a 41F21020 		movw	r0, #4624
 2815 003e 94ED030A 		vldr.32	s0, [r4, #12]
 2816 0042 2044     		add	r0, r0, r4
 2817 0044 FFF7FEFF 		bl	_ZN7daisysp3Svf4InitEf
 2818              	.LVL100:
 2819              		.loc 5 75 9 is_stmt 1 view .LVU535
 2820              		.loc 5 75 27 is_stmt 0 view .LVU536
 2821 0048 41F27810 		movw	r0, #4472
 2822 004c 94ED030A 		vldr.32	s0, [r4, #12]
 2823 0050 2044     		add	r0, r0, r4
 2824              	.LBE2511:
  76:dsp/granular_processor.cpp ****     }
  77:dsp/granular_processor.cpp **** }
 2825              		.loc 5 77 1 view .LVU537
 2826 0052 BDE81040 		pop	{r4, lr}
 2827              		.cfi_restore 14
 2828              		.cfi_restore 4
 2829              		.cfi_def_cfa_offset 0
 2830              	.LVL101:
 2831              	.LBB2512:
  75:dsp/granular_processor.cpp ****     }
 2832              		.loc 5 75 27 view .LVU538
 2833 0056 FFF7FEBF 		b	_ZN7daisysp3Svf4InitEf
 2834              	.LVL102:
 2835              	.LBE2512:
 2836              		.cfi_endproc
 2837              	.LFE4493:
 2839 005a 00BF     		.section	.text._ZN23GranularProcessorClouds4InitEfPvjS0_j,"ax",%progbits
 2840              		.align	1
 2841              		.p2align 2,,3
ARM GAS  /tmp/ccqUnNFP.s 			page 73


 2842              		.global	_ZN23GranularProcessorClouds4InitEfPvjS0_j
 2843              		.syntax unified
 2844              		.thumb
 2845              		.thumb_func
 2846              		.fpu fpv5-d16
 2848              	_ZN23GranularProcessorClouds4InitEfPvjS0_j:
 2849              	.LVL103:
 2850              	.LFB4492:
  48:dsp/granular_processor.cpp ****     sample_rate_    = sample_rate;
 2851              		.loc 5 48 1 is_stmt 1 view -0
 2852              		.cfi_startproc
 2853              		@ args = 4, pretend = 0, frame = 0
 2854              		@ frame_needed = 0, uses_anonymous_args = 0
  49:dsp/granular_processor.cpp ****     buffer_[0]      = large_buffer;
 2855              		.loc 5 49 5 view .LVU540
  48:dsp/granular_processor.cpp ****     sample_rate_    = sample_rate;
 2856              		.loc 5 48 1 is_stmt 0 view .LVU541
 2857 0000 70B5     		push	{r4, r5, r6, lr}
 2858              		.cfi_def_cfa_offset 16
 2859              		.cfi_offset 4, -16
 2860              		.cfi_offset 5, -12
 2861              		.cfi_offset 6, -8
 2862              		.cfi_offset 14, -4
 2863 0002 41F6D834 		movw	r4, #7128
 2864 0006 41F6A865 		movw	r5, #7848
  50:dsp/granular_processor.cpp ****     buffer_[1]      = small_buffer;
 2865              		.loc 5 50 21 view .LVU542
 2866 000a C161     		str	r1, [r0, #28]
  48:dsp/granular_processor.cpp ****     sample_rate_    = sample_rate;
 2867              		.loc 5 48 1 view .LVU543
 2868 000c 0646     		mov	r6, r0
  55:dsp/granular_processor.cpp ****     low_fidelity_ = false;
 2869              		.loc 5 55 19 view .LVU544
 2870 000e 0221     		movs	r1, #2
 2871              	.LVL104:
  52:dsp/granular_processor.cpp ****     buffer_size_[1] = small_buffer_size;
 2872              		.loc 5 52 21 view .LVU545
 2873 0010 4262     		str	r2, [r0, #36]
  51:dsp/granular_processor.cpp ****     buffer_size_[0] = large_buffer_size;
 2874              		.loc 5 51 21 view .LVU546
 2875 0012 0362     		str	r3, [r0, #32]
  56:dsp/granular_processor.cpp ****     bypass_       = false;
 2876              		.loc 5 56 19 view .LVU547
 2877 0014 0022     		movs	r2, #0
 2878              	.LVL105:
  48:dsp/granular_processor.cpp ****     sample_rate_    = sample_rate;
 2879              		.loc 5 48 1 view .LVU548
 2880 0016 049B     		ldr	r3, [sp, #16]
 2881              	.LVL106:
  48:dsp/granular_processor.cpp ****     sample_rate_    = sample_rate;
 2882              		.loc 5 48 1 view .LVU549
 2883 0018 0444     		add	r4, r4, r0
 2884 001a 0544     		add	r5, r5, r0
  49:dsp/granular_processor.cpp ****     buffer_[0]      = large_buffer;
 2885              		.loc 5 49 21 view .LVU550
 2886 001c 80ED030A 		vstr.32	s0, [r0, #12]
  50:dsp/granular_processor.cpp ****     buffer_[1]      = small_buffer;
ARM GAS  /tmp/ccqUnNFP.s 			page 74


 2887              		.loc 5 50 5 is_stmt 1 view .LVU551
  51:dsp/granular_processor.cpp ****     buffer_size_[0] = large_buffer_size;
 2888              		.loc 5 51 5 view .LVU552
  52:dsp/granular_processor.cpp ****     buffer_size_[1] = small_buffer_size;
 2889              		.loc 5 52 5 view .LVU553
  53:dsp/granular_processor.cpp **** 
 2890              		.loc 5 53 5 view .LVU554
  55:dsp/granular_processor.cpp ****     low_fidelity_ = false;
 2891              		.loc 5 55 19 is_stmt 0 view .LVU555
 2892 0020 4160     		str	r1, [r0, #4]
  53:dsp/granular_processor.cpp **** 
 2893              		.loc 5 53 21 view .LVU556
 2894 0022 8362     		str	r3, [r0, #40]
  55:dsp/granular_processor.cpp ****     low_fidelity_ = false;
 2895              		.loc 5 55 5 is_stmt 1 view .LVU557
  56:dsp/granular_processor.cpp ****     bypass_       = false;
 2896              		.loc 5 56 5 view .LVU558
  56:dsp/granular_processor.cpp ****     bypass_       = false;
 2897              		.loc 5 56 19 is_stmt 0 view .LVU559
 2898 0024 0272     		strb	r2, [r0, #8]
  57:dsp/granular_processor.cpp **** 
 2899              		.loc 5 57 5 is_stmt 1 view .LVU560
  57:dsp/granular_processor.cpp **** 
 2900              		.loc 5 57 19 is_stmt 0 view .LVU561
 2901 0026 4274     		strb	r2, [r0, #17]
  59:dsp/granular_processor.cpp ****     src_up_.Init();
 2902              		.loc 5 59 5 is_stmt 1 view .LVU562
 2903              	.LVL107:
 2904              	.LBB2513:
 2905              	.LBI2513:
 2906              		.file 6 "dsp/sample_rate_converter.h"
   1:dsp/sample_rate_converter.h **** // Copyright 2014 Emilie Gillet.
   2:dsp/sample_rate_converter.h **** //
   3:dsp/sample_rate_converter.h **** // Author: Emilie Gillet (emilie.o.gillet@gmail.com)
   4:dsp/sample_rate_converter.h **** //
   5:dsp/sample_rate_converter.h **** // Permission is hereby granted, free of charge, to any person obtaining a copy
   6:dsp/sample_rate_converter.h **** // of this software and associated documentation files (the "Software"), to deal
   7:dsp/sample_rate_converter.h **** // in the Software without restriction, including without limitation the rights
   8:dsp/sample_rate_converter.h **** // to use, copy, modify, merge, publish, distribute, sublicense, and/or sell
   9:dsp/sample_rate_converter.h **** // copies of the Software, and to permit persons to whom the Software is
  10:dsp/sample_rate_converter.h **** // furnished to do so, subject to the following conditions:
  11:dsp/sample_rate_converter.h **** //
  12:dsp/sample_rate_converter.h **** // The above copyright notice and this permission notice shall be included in
  13:dsp/sample_rate_converter.h **** // all copies or substantial portions of the Software.
  14:dsp/sample_rate_converter.h **** //
  15:dsp/sample_rate_converter.h **** // THE SOFTWARE IS PROVIDED "AS IS", WITHOUT WARRANTY OF ANY KIND, EXPRESS OR
  16:dsp/sample_rate_converter.h **** // IMPLIED, INCLUDING BUT NOT LIMITED TO THE WARRANTIES OF MERCHANTABILITY,
  17:dsp/sample_rate_converter.h **** // FITNESS FOR A PARTICULAR PURPOSE AND NONINFRINGEMENT. IN NO EVENT SHALL THE
  18:dsp/sample_rate_converter.h **** // AUTHORS OR COPYRIGHT HOLDERS BE LIABLE FOR ANY CLAIM, DAMAGES OR OTHER
  19:dsp/sample_rate_converter.h **** // LIABILITY, WHETHER IN AN ACTION OF CONTRACT, TORT OR OTHERWISE, ARISING FROM,
  20:dsp/sample_rate_converter.h **** // OUT OF OR IN CONNECTION WITH THE SOFTWARE OR THE USE OR OTHER DEALINGS IN
  21:dsp/sample_rate_converter.h **** // THE SOFTWARE.
  22:dsp/sample_rate_converter.h **** //
  23:dsp/sample_rate_converter.h **** // See http://creativecommons.org/licenses/MIT/ for more information.
  24:dsp/sample_rate_converter.h **** //
  25:dsp/sample_rate_converter.h **** // -----------------------------------------------------------------------------
  26:dsp/sample_rate_converter.h **** //
ARM GAS  /tmp/ccqUnNFP.s 			page 75


  27:dsp/sample_rate_converter.h **** // Sample rate converter
  28:dsp/sample_rate_converter.h **** 
  29:dsp/sample_rate_converter.h **** #ifndef CLOUDS_DSP_SAMPLE_RATE_CONVERTER_H_
  30:dsp/sample_rate_converter.h **** #define CLOUDS_DSP_SAMPLE_RATE_CONVERTER_H_
  31:dsp/sample_rate_converter.h **** 
  32:dsp/sample_rate_converter.h **** #include "frame.h"
  33:dsp/sample_rate_converter.h **** 
  34:dsp/sample_rate_converter.h **** using namespace daisysp;
  35:dsp/sample_rate_converter.h **** 
  36:dsp/sample_rate_converter.h **** template <int32_t ratio, int32_t filter_size, const float* coefficients>
  37:dsp/sample_rate_converter.h **** class SampleRateConverter
  38:dsp/sample_rate_converter.h **** {
  39:dsp/sample_rate_converter.h ****   public:
  40:dsp/sample_rate_converter.h ****     SampleRateConverter() {}
  41:dsp/sample_rate_converter.h ****     ~SampleRateConverter() {}
  42:dsp/sample_rate_converter.h **** 
  43:dsp/sample_rate_converter.h ****     void Init()
 2907              		.loc 6 43 10 view .LVU563
 2908              	.LBB2514:
 2909              	.LBB2515:
  44:dsp/sample_rate_converter.h ****     {
  45:dsp/sample_rate_converter.h ****         for(int32_t i = 0; i < filter_size * 2; ++i)
 2910              		.loc 6 45 30 view .LVU564
 2911              	.L29:
  46:dsp/sample_rate_converter.h ****         {
  47:dsp/sample_rate_converter.h ****             history_[i].l = history_[i].r = 0.0f;
 2912              		.loc 6 47 13 is_stmt 0 view .LVU565
 2913 0028 0023     		movs	r3, #0
 2914 002a 6360     		str	r3, [r4, #4]	@ float
 2915 002c 44F8083B 		str	r3, [r4], #8	@ float
  45:dsp/sample_rate_converter.h ****         {
 2916              		.loc 6 45 9 is_stmt 1 view .LVU566
  45:dsp/sample_rate_converter.h ****         {
 2917              		.loc 6 45 30 view .LVU567
 2918 0030 AC42     		cmp	r4, r5
 2919 0032 F9D1     		bne	.L29
 2920              	.LVL108:
  45:dsp/sample_rate_converter.h ****         {
 2921              		.loc 6 45 30 is_stmt 0 view .LVU568
 2922              	.LBE2515:
 2923              	.LBB2516:
 2924              	.LBI2516:
 2925              		.file 7 "/usr/include/newlib/c++/9.2.1/bits/stl_algobase.h"
   1:/usr/include/newlib/c++/9.2.1/bits/stl_algobase.h **** // Core algorithmic facilities -*- C++ -*-
   2:/usr/include/newlib/c++/9.2.1/bits/stl_algobase.h **** 
   3:/usr/include/newlib/c++/9.2.1/bits/stl_algobase.h **** // Copyright (C) 2001-2019 Free Software Foundation, Inc.
   4:/usr/include/newlib/c++/9.2.1/bits/stl_algobase.h **** //
   5:/usr/include/newlib/c++/9.2.1/bits/stl_algobase.h **** // This file is part of the GNU ISO C++ Library.  This library is free
   6:/usr/include/newlib/c++/9.2.1/bits/stl_algobase.h **** // software; you can redistribute it and/or modify it under the
   7:/usr/include/newlib/c++/9.2.1/bits/stl_algobase.h **** // terms of the GNU General Public License as published by the
   8:/usr/include/newlib/c++/9.2.1/bits/stl_algobase.h **** // Free Software Foundation; either version 3, or (at your option)
   9:/usr/include/newlib/c++/9.2.1/bits/stl_algobase.h **** // any later version.
  10:/usr/include/newlib/c++/9.2.1/bits/stl_algobase.h **** 
  11:/usr/include/newlib/c++/9.2.1/bits/stl_algobase.h **** // This library is distributed in the hope that it will be useful,
  12:/usr/include/newlib/c++/9.2.1/bits/stl_algobase.h **** // but WITHOUT ANY WARRANTY; without even the implied warranty of
  13:/usr/include/newlib/c++/9.2.1/bits/stl_algobase.h **** // MERCHANTABILITY or FITNESS FOR A PARTICULAR PURPOSE.  See the
  14:/usr/include/newlib/c++/9.2.1/bits/stl_algobase.h **** // GNU General Public License for more details.
ARM GAS  /tmp/ccqUnNFP.s 			page 76


  15:/usr/include/newlib/c++/9.2.1/bits/stl_algobase.h **** 
  16:/usr/include/newlib/c++/9.2.1/bits/stl_algobase.h **** // Under Section 7 of GPL version 3, you are granted additional
  17:/usr/include/newlib/c++/9.2.1/bits/stl_algobase.h **** // permissions described in the GCC Runtime Library Exception, version
  18:/usr/include/newlib/c++/9.2.1/bits/stl_algobase.h **** // 3.1, as published by the Free Software Foundation.
  19:/usr/include/newlib/c++/9.2.1/bits/stl_algobase.h **** 
  20:/usr/include/newlib/c++/9.2.1/bits/stl_algobase.h **** // You should have received a copy of the GNU General Public License and
  21:/usr/include/newlib/c++/9.2.1/bits/stl_algobase.h **** // a copy of the GCC Runtime Library Exception along with this program;
  22:/usr/include/newlib/c++/9.2.1/bits/stl_algobase.h **** // see the files COPYING3 and COPYING.RUNTIME respectively.  If not, see
  23:/usr/include/newlib/c++/9.2.1/bits/stl_algobase.h **** // <http://www.gnu.org/licenses/>.
  24:/usr/include/newlib/c++/9.2.1/bits/stl_algobase.h **** 
  25:/usr/include/newlib/c++/9.2.1/bits/stl_algobase.h **** /*
  26:/usr/include/newlib/c++/9.2.1/bits/stl_algobase.h ****  *
  27:/usr/include/newlib/c++/9.2.1/bits/stl_algobase.h ****  * Copyright (c) 1994
  28:/usr/include/newlib/c++/9.2.1/bits/stl_algobase.h ****  * Hewlett-Packard Company
  29:/usr/include/newlib/c++/9.2.1/bits/stl_algobase.h ****  *
  30:/usr/include/newlib/c++/9.2.1/bits/stl_algobase.h ****  * Permission to use, copy, modify, distribute and sell this software
  31:/usr/include/newlib/c++/9.2.1/bits/stl_algobase.h ****  * and its documentation for any purpose is hereby granted without fee,
  32:/usr/include/newlib/c++/9.2.1/bits/stl_algobase.h ****  * provided that the above copyright notice appear in all copies and
  33:/usr/include/newlib/c++/9.2.1/bits/stl_algobase.h ****  * that both that copyright notice and this permission notice appear
  34:/usr/include/newlib/c++/9.2.1/bits/stl_algobase.h ****  * in supporting documentation.  Hewlett-Packard Company makes no
  35:/usr/include/newlib/c++/9.2.1/bits/stl_algobase.h ****  * representations about the suitability of this software for any
  36:/usr/include/newlib/c++/9.2.1/bits/stl_algobase.h ****  * purpose.  It is provided "as is" without express or implied warranty.
  37:/usr/include/newlib/c++/9.2.1/bits/stl_algobase.h ****  *
  38:/usr/include/newlib/c++/9.2.1/bits/stl_algobase.h ****  *
  39:/usr/include/newlib/c++/9.2.1/bits/stl_algobase.h ****  * Copyright (c) 1996-1998
  40:/usr/include/newlib/c++/9.2.1/bits/stl_algobase.h ****  * Silicon Graphics Computer Systems, Inc.
  41:/usr/include/newlib/c++/9.2.1/bits/stl_algobase.h ****  *
  42:/usr/include/newlib/c++/9.2.1/bits/stl_algobase.h ****  * Permission to use, copy, modify, distribute and sell this software
  43:/usr/include/newlib/c++/9.2.1/bits/stl_algobase.h ****  * and its documentation for any purpose is hereby granted without fee,
  44:/usr/include/newlib/c++/9.2.1/bits/stl_algobase.h ****  * provided that the above copyright notice appear in all copies and
  45:/usr/include/newlib/c++/9.2.1/bits/stl_algobase.h ****  * that both that copyright notice and this permission notice appear
  46:/usr/include/newlib/c++/9.2.1/bits/stl_algobase.h ****  * in supporting documentation.  Silicon Graphics makes no
  47:/usr/include/newlib/c++/9.2.1/bits/stl_algobase.h ****  * representations about the suitability of this software for any
  48:/usr/include/newlib/c++/9.2.1/bits/stl_algobase.h ****  * purpose.  It is provided "as is" without express or implied warranty.
  49:/usr/include/newlib/c++/9.2.1/bits/stl_algobase.h ****  */
  50:/usr/include/newlib/c++/9.2.1/bits/stl_algobase.h **** 
  51:/usr/include/newlib/c++/9.2.1/bits/stl_algobase.h **** /** @file bits/stl_algobase.h
  52:/usr/include/newlib/c++/9.2.1/bits/stl_algobase.h ****  *  This is an internal header file, included by other library headers.
  53:/usr/include/newlib/c++/9.2.1/bits/stl_algobase.h ****  *  Do not attempt to use it directly. @headername{algorithm}
  54:/usr/include/newlib/c++/9.2.1/bits/stl_algobase.h ****  */
  55:/usr/include/newlib/c++/9.2.1/bits/stl_algobase.h **** 
  56:/usr/include/newlib/c++/9.2.1/bits/stl_algobase.h **** #ifndef _STL_ALGOBASE_H
  57:/usr/include/newlib/c++/9.2.1/bits/stl_algobase.h **** #define _STL_ALGOBASE_H 1
  58:/usr/include/newlib/c++/9.2.1/bits/stl_algobase.h **** 
  59:/usr/include/newlib/c++/9.2.1/bits/stl_algobase.h **** #include <bits/c++config.h>
  60:/usr/include/newlib/c++/9.2.1/bits/stl_algobase.h **** #include <bits/functexcept.h>
  61:/usr/include/newlib/c++/9.2.1/bits/stl_algobase.h **** #include <bits/cpp_type_traits.h>
  62:/usr/include/newlib/c++/9.2.1/bits/stl_algobase.h **** #include <ext/type_traits.h>
  63:/usr/include/newlib/c++/9.2.1/bits/stl_algobase.h **** #include <ext/numeric_traits.h>
  64:/usr/include/newlib/c++/9.2.1/bits/stl_algobase.h **** #include <bits/stl_pair.h>
  65:/usr/include/newlib/c++/9.2.1/bits/stl_algobase.h **** #include <bits/stl_iterator_base_types.h>
  66:/usr/include/newlib/c++/9.2.1/bits/stl_algobase.h **** #include <bits/stl_iterator_base_funcs.h>
  67:/usr/include/newlib/c++/9.2.1/bits/stl_algobase.h **** #include <bits/stl_iterator.h>
  68:/usr/include/newlib/c++/9.2.1/bits/stl_algobase.h **** #include <bits/concept_check.h>
  69:/usr/include/newlib/c++/9.2.1/bits/stl_algobase.h **** #include <debug/debug.h>
  70:/usr/include/newlib/c++/9.2.1/bits/stl_algobase.h **** #include <bits/move.h> // For std::swap
  71:/usr/include/newlib/c++/9.2.1/bits/stl_algobase.h **** #include <bits/predefined_ops.h>
ARM GAS  /tmp/ccqUnNFP.s 			page 77


  72:/usr/include/newlib/c++/9.2.1/bits/stl_algobase.h **** #if __cplusplus >= 201103L
  73:/usr/include/newlib/c++/9.2.1/bits/stl_algobase.h **** # include <type_traits>
  74:/usr/include/newlib/c++/9.2.1/bits/stl_algobase.h **** #endif
  75:/usr/include/newlib/c++/9.2.1/bits/stl_algobase.h **** 
  76:/usr/include/newlib/c++/9.2.1/bits/stl_algobase.h **** namespace std _GLIBCXX_VISIBILITY(default)
  77:/usr/include/newlib/c++/9.2.1/bits/stl_algobase.h **** {
  78:/usr/include/newlib/c++/9.2.1/bits/stl_algobase.h **** _GLIBCXX_BEGIN_NAMESPACE_VERSION
  79:/usr/include/newlib/c++/9.2.1/bits/stl_algobase.h **** 
  80:/usr/include/newlib/c++/9.2.1/bits/stl_algobase.h **** #if __cplusplus < 201103L
  81:/usr/include/newlib/c++/9.2.1/bits/stl_algobase.h ****   // See http://gcc.gnu.org/ml/libstdc++/2004-08/msg00167.html: in a
  82:/usr/include/newlib/c++/9.2.1/bits/stl_algobase.h ****   // nutshell, we are partially implementing the resolution of DR 187,
  83:/usr/include/newlib/c++/9.2.1/bits/stl_algobase.h ****   // when it's safe, i.e., the value_types are equal.
  84:/usr/include/newlib/c++/9.2.1/bits/stl_algobase.h ****   template<bool _BoolType>
  85:/usr/include/newlib/c++/9.2.1/bits/stl_algobase.h ****     struct __iter_swap
  86:/usr/include/newlib/c++/9.2.1/bits/stl_algobase.h ****     {
  87:/usr/include/newlib/c++/9.2.1/bits/stl_algobase.h ****       template<typename _ForwardIterator1, typename _ForwardIterator2>
  88:/usr/include/newlib/c++/9.2.1/bits/stl_algobase.h **** 	static void
  89:/usr/include/newlib/c++/9.2.1/bits/stl_algobase.h **** 	iter_swap(_ForwardIterator1 __a, _ForwardIterator2 __b)
  90:/usr/include/newlib/c++/9.2.1/bits/stl_algobase.h **** 	{
  91:/usr/include/newlib/c++/9.2.1/bits/stl_algobase.h **** 	  typedef typename iterator_traits<_ForwardIterator1>::value_type
  92:/usr/include/newlib/c++/9.2.1/bits/stl_algobase.h **** 	    _ValueType1;
  93:/usr/include/newlib/c++/9.2.1/bits/stl_algobase.h **** 	  _ValueType1 __tmp = *__a;
  94:/usr/include/newlib/c++/9.2.1/bits/stl_algobase.h **** 	  *__a = *__b;
  95:/usr/include/newlib/c++/9.2.1/bits/stl_algobase.h **** 	  *__b = __tmp;
  96:/usr/include/newlib/c++/9.2.1/bits/stl_algobase.h **** 	}
  97:/usr/include/newlib/c++/9.2.1/bits/stl_algobase.h ****     };
  98:/usr/include/newlib/c++/9.2.1/bits/stl_algobase.h **** 
  99:/usr/include/newlib/c++/9.2.1/bits/stl_algobase.h ****   template<>
 100:/usr/include/newlib/c++/9.2.1/bits/stl_algobase.h ****     struct __iter_swap<true>
 101:/usr/include/newlib/c++/9.2.1/bits/stl_algobase.h ****     {
 102:/usr/include/newlib/c++/9.2.1/bits/stl_algobase.h ****       template<typename _ForwardIterator1, typename _ForwardIterator2>
 103:/usr/include/newlib/c++/9.2.1/bits/stl_algobase.h **** 	static void
 104:/usr/include/newlib/c++/9.2.1/bits/stl_algobase.h **** 	iter_swap(_ForwardIterator1 __a, _ForwardIterator2 __b)
 105:/usr/include/newlib/c++/9.2.1/bits/stl_algobase.h **** 	{
 106:/usr/include/newlib/c++/9.2.1/bits/stl_algobase.h **** 	  swap(*__a, *__b);
 107:/usr/include/newlib/c++/9.2.1/bits/stl_algobase.h **** 	}
 108:/usr/include/newlib/c++/9.2.1/bits/stl_algobase.h ****     };
 109:/usr/include/newlib/c++/9.2.1/bits/stl_algobase.h **** #endif
 110:/usr/include/newlib/c++/9.2.1/bits/stl_algobase.h **** 
 111:/usr/include/newlib/c++/9.2.1/bits/stl_algobase.h ****   /**
 112:/usr/include/newlib/c++/9.2.1/bits/stl_algobase.h ****    *  @brief Swaps the contents of two iterators.
 113:/usr/include/newlib/c++/9.2.1/bits/stl_algobase.h ****    *  @ingroup mutating_algorithms
 114:/usr/include/newlib/c++/9.2.1/bits/stl_algobase.h ****    *  @param  __a  An iterator.
 115:/usr/include/newlib/c++/9.2.1/bits/stl_algobase.h ****    *  @param  __b  Another iterator.
 116:/usr/include/newlib/c++/9.2.1/bits/stl_algobase.h ****    *  @return   Nothing.
 117:/usr/include/newlib/c++/9.2.1/bits/stl_algobase.h ****    *
 118:/usr/include/newlib/c++/9.2.1/bits/stl_algobase.h ****    *  This function swaps the values pointed to by two iterators, not the
 119:/usr/include/newlib/c++/9.2.1/bits/stl_algobase.h ****    *  iterators themselves.
 120:/usr/include/newlib/c++/9.2.1/bits/stl_algobase.h ****   */
 121:/usr/include/newlib/c++/9.2.1/bits/stl_algobase.h ****   template<typename _ForwardIterator1, typename _ForwardIterator2>
 122:/usr/include/newlib/c++/9.2.1/bits/stl_algobase.h ****     inline void
 123:/usr/include/newlib/c++/9.2.1/bits/stl_algobase.h ****     iter_swap(_ForwardIterator1 __a, _ForwardIterator2 __b)
 124:/usr/include/newlib/c++/9.2.1/bits/stl_algobase.h ****     {
 125:/usr/include/newlib/c++/9.2.1/bits/stl_algobase.h ****       // concept requirements
 126:/usr/include/newlib/c++/9.2.1/bits/stl_algobase.h ****       __glibcxx_function_requires(_Mutable_ForwardIteratorConcept<
 127:/usr/include/newlib/c++/9.2.1/bits/stl_algobase.h **** 				  _ForwardIterator1>)
 128:/usr/include/newlib/c++/9.2.1/bits/stl_algobase.h ****       __glibcxx_function_requires(_Mutable_ForwardIteratorConcept<
ARM GAS  /tmp/ccqUnNFP.s 			page 78


 129:/usr/include/newlib/c++/9.2.1/bits/stl_algobase.h **** 				  _ForwardIterator2>)
 130:/usr/include/newlib/c++/9.2.1/bits/stl_algobase.h **** 
 131:/usr/include/newlib/c++/9.2.1/bits/stl_algobase.h **** #if __cplusplus < 201103L
 132:/usr/include/newlib/c++/9.2.1/bits/stl_algobase.h ****       typedef typename iterator_traits<_ForwardIterator1>::value_type
 133:/usr/include/newlib/c++/9.2.1/bits/stl_algobase.h **** 	_ValueType1;
 134:/usr/include/newlib/c++/9.2.1/bits/stl_algobase.h ****       typedef typename iterator_traits<_ForwardIterator2>::value_type
 135:/usr/include/newlib/c++/9.2.1/bits/stl_algobase.h **** 	_ValueType2;
 136:/usr/include/newlib/c++/9.2.1/bits/stl_algobase.h **** 
 137:/usr/include/newlib/c++/9.2.1/bits/stl_algobase.h ****       __glibcxx_function_requires(_ConvertibleConcept<_ValueType1,
 138:/usr/include/newlib/c++/9.2.1/bits/stl_algobase.h **** 				  _ValueType2>)
 139:/usr/include/newlib/c++/9.2.1/bits/stl_algobase.h ****       __glibcxx_function_requires(_ConvertibleConcept<_ValueType2,
 140:/usr/include/newlib/c++/9.2.1/bits/stl_algobase.h **** 				  _ValueType1>)
 141:/usr/include/newlib/c++/9.2.1/bits/stl_algobase.h **** 
 142:/usr/include/newlib/c++/9.2.1/bits/stl_algobase.h ****       typedef typename iterator_traits<_ForwardIterator1>::reference
 143:/usr/include/newlib/c++/9.2.1/bits/stl_algobase.h **** 	_ReferenceType1;
 144:/usr/include/newlib/c++/9.2.1/bits/stl_algobase.h ****       typedef typename iterator_traits<_ForwardIterator2>::reference
 145:/usr/include/newlib/c++/9.2.1/bits/stl_algobase.h **** 	_ReferenceType2;
 146:/usr/include/newlib/c++/9.2.1/bits/stl_algobase.h ****       std::__iter_swap<__are_same<_ValueType1, _ValueType2>::__value
 147:/usr/include/newlib/c++/9.2.1/bits/stl_algobase.h **** 	&& __are_same<_ValueType1&, _ReferenceType1>::__value
 148:/usr/include/newlib/c++/9.2.1/bits/stl_algobase.h **** 	&& __are_same<_ValueType2&, _ReferenceType2>::__value>::
 149:/usr/include/newlib/c++/9.2.1/bits/stl_algobase.h **** 	iter_swap(__a, __b);
 150:/usr/include/newlib/c++/9.2.1/bits/stl_algobase.h **** #else
 151:/usr/include/newlib/c++/9.2.1/bits/stl_algobase.h ****       swap(*__a, *__b);
 152:/usr/include/newlib/c++/9.2.1/bits/stl_algobase.h **** #endif
 153:/usr/include/newlib/c++/9.2.1/bits/stl_algobase.h ****     }
 154:/usr/include/newlib/c++/9.2.1/bits/stl_algobase.h **** 
 155:/usr/include/newlib/c++/9.2.1/bits/stl_algobase.h ****   /**
 156:/usr/include/newlib/c++/9.2.1/bits/stl_algobase.h ****    *  @brief Swap the elements of two sequences.
 157:/usr/include/newlib/c++/9.2.1/bits/stl_algobase.h ****    *  @ingroup mutating_algorithms
 158:/usr/include/newlib/c++/9.2.1/bits/stl_algobase.h ****    *  @param  __first1  A forward iterator.
 159:/usr/include/newlib/c++/9.2.1/bits/stl_algobase.h ****    *  @param  __last1   A forward iterator.
 160:/usr/include/newlib/c++/9.2.1/bits/stl_algobase.h ****    *  @param  __first2  A forward iterator.
 161:/usr/include/newlib/c++/9.2.1/bits/stl_algobase.h ****    *  @return   An iterator equal to @p first2+(last1-first1).
 162:/usr/include/newlib/c++/9.2.1/bits/stl_algobase.h ****    *
 163:/usr/include/newlib/c++/9.2.1/bits/stl_algobase.h ****    *  Swaps each element in the range @p [first1,last1) with the
 164:/usr/include/newlib/c++/9.2.1/bits/stl_algobase.h ****    *  corresponding element in the range @p [first2,(last1-first1)).
 165:/usr/include/newlib/c++/9.2.1/bits/stl_algobase.h ****    *  The ranges must not overlap.
 166:/usr/include/newlib/c++/9.2.1/bits/stl_algobase.h ****   */
 167:/usr/include/newlib/c++/9.2.1/bits/stl_algobase.h ****   template<typename _ForwardIterator1, typename _ForwardIterator2>
 168:/usr/include/newlib/c++/9.2.1/bits/stl_algobase.h ****     _ForwardIterator2
 169:/usr/include/newlib/c++/9.2.1/bits/stl_algobase.h ****     swap_ranges(_ForwardIterator1 __first1, _ForwardIterator1 __last1,
 170:/usr/include/newlib/c++/9.2.1/bits/stl_algobase.h **** 		_ForwardIterator2 __first2)
 171:/usr/include/newlib/c++/9.2.1/bits/stl_algobase.h ****     {
 172:/usr/include/newlib/c++/9.2.1/bits/stl_algobase.h ****       // concept requirements
 173:/usr/include/newlib/c++/9.2.1/bits/stl_algobase.h ****       __glibcxx_function_requires(_Mutable_ForwardIteratorConcept<
 174:/usr/include/newlib/c++/9.2.1/bits/stl_algobase.h **** 				  _ForwardIterator1>)
 175:/usr/include/newlib/c++/9.2.1/bits/stl_algobase.h ****       __glibcxx_function_requires(_Mutable_ForwardIteratorConcept<
 176:/usr/include/newlib/c++/9.2.1/bits/stl_algobase.h **** 				  _ForwardIterator2>)
 177:/usr/include/newlib/c++/9.2.1/bits/stl_algobase.h ****       __glibcxx_requires_valid_range(__first1, __last1);
 178:/usr/include/newlib/c++/9.2.1/bits/stl_algobase.h **** 
 179:/usr/include/newlib/c++/9.2.1/bits/stl_algobase.h ****       for (; __first1 != __last1; ++__first1, (void)++__first2)
 180:/usr/include/newlib/c++/9.2.1/bits/stl_algobase.h **** 	std::iter_swap(__first1, __first2);
 181:/usr/include/newlib/c++/9.2.1/bits/stl_algobase.h ****       return __first2;
 182:/usr/include/newlib/c++/9.2.1/bits/stl_algobase.h ****     }
 183:/usr/include/newlib/c++/9.2.1/bits/stl_algobase.h **** 
 184:/usr/include/newlib/c++/9.2.1/bits/stl_algobase.h ****   /**
 185:/usr/include/newlib/c++/9.2.1/bits/stl_algobase.h ****    *  @brief This does what you think it does.
ARM GAS  /tmp/ccqUnNFP.s 			page 79


 186:/usr/include/newlib/c++/9.2.1/bits/stl_algobase.h ****    *  @ingroup sorting_algorithms
 187:/usr/include/newlib/c++/9.2.1/bits/stl_algobase.h ****    *  @param  __a  A thing of arbitrary type.
 188:/usr/include/newlib/c++/9.2.1/bits/stl_algobase.h ****    *  @param  __b  Another thing of arbitrary type.
 189:/usr/include/newlib/c++/9.2.1/bits/stl_algobase.h ****    *  @return   The lesser of the parameters.
 190:/usr/include/newlib/c++/9.2.1/bits/stl_algobase.h ****    *
 191:/usr/include/newlib/c++/9.2.1/bits/stl_algobase.h ****    *  This is the simple classic generic implementation.  It will work on
 192:/usr/include/newlib/c++/9.2.1/bits/stl_algobase.h ****    *  temporary expressions, since they are only evaluated once, unlike a
 193:/usr/include/newlib/c++/9.2.1/bits/stl_algobase.h ****    *  preprocessor macro.
 194:/usr/include/newlib/c++/9.2.1/bits/stl_algobase.h ****   */
 195:/usr/include/newlib/c++/9.2.1/bits/stl_algobase.h ****   template<typename _Tp>
 196:/usr/include/newlib/c++/9.2.1/bits/stl_algobase.h ****     _GLIBCXX14_CONSTEXPR
 197:/usr/include/newlib/c++/9.2.1/bits/stl_algobase.h ****     inline const _Tp&
 198:/usr/include/newlib/c++/9.2.1/bits/stl_algobase.h ****     min(const _Tp& __a, const _Tp& __b)
 199:/usr/include/newlib/c++/9.2.1/bits/stl_algobase.h ****     {
 200:/usr/include/newlib/c++/9.2.1/bits/stl_algobase.h ****       // concept requirements
 201:/usr/include/newlib/c++/9.2.1/bits/stl_algobase.h ****       __glibcxx_function_requires(_LessThanComparableConcept<_Tp>)
 202:/usr/include/newlib/c++/9.2.1/bits/stl_algobase.h ****       //return __b < __a ? __b : __a;
 203:/usr/include/newlib/c++/9.2.1/bits/stl_algobase.h ****       if (__b < __a)
 204:/usr/include/newlib/c++/9.2.1/bits/stl_algobase.h **** 	return __b;
 205:/usr/include/newlib/c++/9.2.1/bits/stl_algobase.h ****       return __a;
 206:/usr/include/newlib/c++/9.2.1/bits/stl_algobase.h ****     }
 207:/usr/include/newlib/c++/9.2.1/bits/stl_algobase.h **** 
 208:/usr/include/newlib/c++/9.2.1/bits/stl_algobase.h ****   /**
 209:/usr/include/newlib/c++/9.2.1/bits/stl_algobase.h ****    *  @brief This does what you think it does.
 210:/usr/include/newlib/c++/9.2.1/bits/stl_algobase.h ****    *  @ingroup sorting_algorithms
 211:/usr/include/newlib/c++/9.2.1/bits/stl_algobase.h ****    *  @param  __a  A thing of arbitrary type.
 212:/usr/include/newlib/c++/9.2.1/bits/stl_algobase.h ****    *  @param  __b  Another thing of arbitrary type.
 213:/usr/include/newlib/c++/9.2.1/bits/stl_algobase.h ****    *  @return   The greater of the parameters.
 214:/usr/include/newlib/c++/9.2.1/bits/stl_algobase.h ****    *
 215:/usr/include/newlib/c++/9.2.1/bits/stl_algobase.h ****    *  This is the simple classic generic implementation.  It will work on
 216:/usr/include/newlib/c++/9.2.1/bits/stl_algobase.h ****    *  temporary expressions, since they are only evaluated once, unlike a
 217:/usr/include/newlib/c++/9.2.1/bits/stl_algobase.h ****    *  preprocessor macro.
 218:/usr/include/newlib/c++/9.2.1/bits/stl_algobase.h ****   */
 219:/usr/include/newlib/c++/9.2.1/bits/stl_algobase.h ****   template<typename _Tp>
 220:/usr/include/newlib/c++/9.2.1/bits/stl_algobase.h ****     _GLIBCXX14_CONSTEXPR
 221:/usr/include/newlib/c++/9.2.1/bits/stl_algobase.h ****     inline const _Tp&
 222:/usr/include/newlib/c++/9.2.1/bits/stl_algobase.h ****     max(const _Tp& __a, const _Tp& __b)
 223:/usr/include/newlib/c++/9.2.1/bits/stl_algobase.h ****     {
 224:/usr/include/newlib/c++/9.2.1/bits/stl_algobase.h ****       // concept requirements
 225:/usr/include/newlib/c++/9.2.1/bits/stl_algobase.h ****       __glibcxx_function_requires(_LessThanComparableConcept<_Tp>)
 226:/usr/include/newlib/c++/9.2.1/bits/stl_algobase.h ****       //return  __a < __b ? __b : __a;
 227:/usr/include/newlib/c++/9.2.1/bits/stl_algobase.h ****       if (__a < __b)
 228:/usr/include/newlib/c++/9.2.1/bits/stl_algobase.h **** 	return __b;
 229:/usr/include/newlib/c++/9.2.1/bits/stl_algobase.h ****       return __a;
 230:/usr/include/newlib/c++/9.2.1/bits/stl_algobase.h ****     }
 231:/usr/include/newlib/c++/9.2.1/bits/stl_algobase.h **** 
 232:/usr/include/newlib/c++/9.2.1/bits/stl_algobase.h ****   /**
 233:/usr/include/newlib/c++/9.2.1/bits/stl_algobase.h ****    *  @brief This does what you think it does.
 234:/usr/include/newlib/c++/9.2.1/bits/stl_algobase.h ****    *  @ingroup sorting_algorithms
 235:/usr/include/newlib/c++/9.2.1/bits/stl_algobase.h ****    *  @param  __a  A thing of arbitrary type.
 236:/usr/include/newlib/c++/9.2.1/bits/stl_algobase.h ****    *  @param  __b  Another thing of arbitrary type.
 237:/usr/include/newlib/c++/9.2.1/bits/stl_algobase.h ****    *  @param  __comp  A @link comparison_functors comparison functor@endlink.
 238:/usr/include/newlib/c++/9.2.1/bits/stl_algobase.h ****    *  @return   The lesser of the parameters.
 239:/usr/include/newlib/c++/9.2.1/bits/stl_algobase.h ****    *
 240:/usr/include/newlib/c++/9.2.1/bits/stl_algobase.h ****    *  This will work on temporary expressions, since they are only evaluated
 241:/usr/include/newlib/c++/9.2.1/bits/stl_algobase.h ****    *  once, unlike a preprocessor macro.
 242:/usr/include/newlib/c++/9.2.1/bits/stl_algobase.h ****   */
ARM GAS  /tmp/ccqUnNFP.s 			page 80


 243:/usr/include/newlib/c++/9.2.1/bits/stl_algobase.h ****   template<typename _Tp, typename _Compare>
 244:/usr/include/newlib/c++/9.2.1/bits/stl_algobase.h ****     _GLIBCXX14_CONSTEXPR
 245:/usr/include/newlib/c++/9.2.1/bits/stl_algobase.h ****     inline const _Tp&
 246:/usr/include/newlib/c++/9.2.1/bits/stl_algobase.h ****     min(const _Tp& __a, const _Tp& __b, _Compare __comp)
 247:/usr/include/newlib/c++/9.2.1/bits/stl_algobase.h ****     {
 248:/usr/include/newlib/c++/9.2.1/bits/stl_algobase.h ****       //return __comp(__b, __a) ? __b : __a;
 249:/usr/include/newlib/c++/9.2.1/bits/stl_algobase.h ****       if (__comp(__b, __a))
 250:/usr/include/newlib/c++/9.2.1/bits/stl_algobase.h **** 	return __b;
 251:/usr/include/newlib/c++/9.2.1/bits/stl_algobase.h ****       return __a;
 252:/usr/include/newlib/c++/9.2.1/bits/stl_algobase.h ****     }
 253:/usr/include/newlib/c++/9.2.1/bits/stl_algobase.h **** 
 254:/usr/include/newlib/c++/9.2.1/bits/stl_algobase.h ****   /**
 255:/usr/include/newlib/c++/9.2.1/bits/stl_algobase.h ****    *  @brief This does what you think it does.
 256:/usr/include/newlib/c++/9.2.1/bits/stl_algobase.h ****    *  @ingroup sorting_algorithms
 257:/usr/include/newlib/c++/9.2.1/bits/stl_algobase.h ****    *  @param  __a  A thing of arbitrary type.
 258:/usr/include/newlib/c++/9.2.1/bits/stl_algobase.h ****    *  @param  __b  Another thing of arbitrary type.
 259:/usr/include/newlib/c++/9.2.1/bits/stl_algobase.h ****    *  @param  __comp  A @link comparison_functors comparison functor@endlink.
 260:/usr/include/newlib/c++/9.2.1/bits/stl_algobase.h ****    *  @return   The greater of the parameters.
 261:/usr/include/newlib/c++/9.2.1/bits/stl_algobase.h ****    *
 262:/usr/include/newlib/c++/9.2.1/bits/stl_algobase.h ****    *  This will work on temporary expressions, since they are only evaluated
 263:/usr/include/newlib/c++/9.2.1/bits/stl_algobase.h ****    *  once, unlike a preprocessor macro.
 264:/usr/include/newlib/c++/9.2.1/bits/stl_algobase.h ****   */
 265:/usr/include/newlib/c++/9.2.1/bits/stl_algobase.h ****   template<typename _Tp, typename _Compare>
 266:/usr/include/newlib/c++/9.2.1/bits/stl_algobase.h ****     _GLIBCXX14_CONSTEXPR
 267:/usr/include/newlib/c++/9.2.1/bits/stl_algobase.h ****     inline const _Tp&
 268:/usr/include/newlib/c++/9.2.1/bits/stl_algobase.h ****     max(const _Tp& __a, const _Tp& __b, _Compare __comp)
 269:/usr/include/newlib/c++/9.2.1/bits/stl_algobase.h ****     {
 270:/usr/include/newlib/c++/9.2.1/bits/stl_algobase.h ****       //return __comp(__a, __b) ? __b : __a;
 271:/usr/include/newlib/c++/9.2.1/bits/stl_algobase.h ****       if (__comp(__a, __b))
 272:/usr/include/newlib/c++/9.2.1/bits/stl_algobase.h **** 	return __b;
 273:/usr/include/newlib/c++/9.2.1/bits/stl_algobase.h ****       return __a;
 274:/usr/include/newlib/c++/9.2.1/bits/stl_algobase.h ****     }
 275:/usr/include/newlib/c++/9.2.1/bits/stl_algobase.h **** 
 276:/usr/include/newlib/c++/9.2.1/bits/stl_algobase.h ****   // Fallback implementation of the function in bits/stl_iterator.h used to
 277:/usr/include/newlib/c++/9.2.1/bits/stl_algobase.h ****   // remove the __normal_iterator wrapper. See copy, fill, ...
 278:/usr/include/newlib/c++/9.2.1/bits/stl_algobase.h ****   template<typename _Iterator>
 279:/usr/include/newlib/c++/9.2.1/bits/stl_algobase.h ****     inline _Iterator
 280:/usr/include/newlib/c++/9.2.1/bits/stl_algobase.h ****     __niter_base(_Iterator __it)
 281:/usr/include/newlib/c++/9.2.1/bits/stl_algobase.h ****     _GLIBCXX_NOEXCEPT_IF(std::is_nothrow_copy_constructible<_Iterator>::value)
 282:/usr/include/newlib/c++/9.2.1/bits/stl_algobase.h ****     { return __it; }
 283:/usr/include/newlib/c++/9.2.1/bits/stl_algobase.h **** 
 284:/usr/include/newlib/c++/9.2.1/bits/stl_algobase.h ****   // Reverse the __niter_base transformation to get a
 285:/usr/include/newlib/c++/9.2.1/bits/stl_algobase.h ****   // __normal_iterator back again (this assumes that __normal_iterator
 286:/usr/include/newlib/c++/9.2.1/bits/stl_algobase.h ****   // is only used to wrap random access iterators, like pointers).
 287:/usr/include/newlib/c++/9.2.1/bits/stl_algobase.h ****   template<typename _From, typename _To>
 288:/usr/include/newlib/c++/9.2.1/bits/stl_algobase.h ****     inline _From
 289:/usr/include/newlib/c++/9.2.1/bits/stl_algobase.h ****     __niter_wrap(_From __from, _To __res)
 290:/usr/include/newlib/c++/9.2.1/bits/stl_algobase.h ****     { return __from + (__res - std::__niter_base(__from)); }
 291:/usr/include/newlib/c++/9.2.1/bits/stl_algobase.h **** 
 292:/usr/include/newlib/c++/9.2.1/bits/stl_algobase.h ****   // No need to wrap, iterator already has the right type.
 293:/usr/include/newlib/c++/9.2.1/bits/stl_algobase.h ****   template<typename _Iterator>
 294:/usr/include/newlib/c++/9.2.1/bits/stl_algobase.h ****     inline _Iterator
 295:/usr/include/newlib/c++/9.2.1/bits/stl_algobase.h ****     __niter_wrap(const _Iterator&, _Iterator __res)
 296:/usr/include/newlib/c++/9.2.1/bits/stl_algobase.h ****     { return __res; }
 297:/usr/include/newlib/c++/9.2.1/bits/stl_algobase.h **** 
 298:/usr/include/newlib/c++/9.2.1/bits/stl_algobase.h ****   // All of these auxiliary structs serve two purposes.  (1) Replace
 299:/usr/include/newlib/c++/9.2.1/bits/stl_algobase.h ****   // calls to copy with memmove whenever possible.  (Memmove, not memcpy,
ARM GAS  /tmp/ccqUnNFP.s 			page 81


 300:/usr/include/newlib/c++/9.2.1/bits/stl_algobase.h ****   // because the input and output ranges are permitted to overlap.)
 301:/usr/include/newlib/c++/9.2.1/bits/stl_algobase.h ****   // (2) If we're using random access iterators, then write the loop as
 302:/usr/include/newlib/c++/9.2.1/bits/stl_algobase.h ****   // a for loop with an explicit count.
 303:/usr/include/newlib/c++/9.2.1/bits/stl_algobase.h **** 
 304:/usr/include/newlib/c++/9.2.1/bits/stl_algobase.h ****   template<bool _IsMove, bool _IsSimple, typename _Category>
 305:/usr/include/newlib/c++/9.2.1/bits/stl_algobase.h ****     struct __copy_move
 306:/usr/include/newlib/c++/9.2.1/bits/stl_algobase.h ****     {
 307:/usr/include/newlib/c++/9.2.1/bits/stl_algobase.h ****       template<typename _II, typename _OI>
 308:/usr/include/newlib/c++/9.2.1/bits/stl_algobase.h **** 	static _OI
 309:/usr/include/newlib/c++/9.2.1/bits/stl_algobase.h **** 	__copy_m(_II __first, _II __last, _OI __result)
 310:/usr/include/newlib/c++/9.2.1/bits/stl_algobase.h **** 	{
 311:/usr/include/newlib/c++/9.2.1/bits/stl_algobase.h **** 	  for (; __first != __last; ++__result, (void)++__first)
 312:/usr/include/newlib/c++/9.2.1/bits/stl_algobase.h **** 	    *__result = *__first;
 313:/usr/include/newlib/c++/9.2.1/bits/stl_algobase.h **** 	  return __result;
 314:/usr/include/newlib/c++/9.2.1/bits/stl_algobase.h **** 	}
 315:/usr/include/newlib/c++/9.2.1/bits/stl_algobase.h ****     };
 316:/usr/include/newlib/c++/9.2.1/bits/stl_algobase.h **** 
 317:/usr/include/newlib/c++/9.2.1/bits/stl_algobase.h **** #if __cplusplus >= 201103L
 318:/usr/include/newlib/c++/9.2.1/bits/stl_algobase.h ****   template<typename _Category>
 319:/usr/include/newlib/c++/9.2.1/bits/stl_algobase.h ****     struct __copy_move<true, false, _Category>
 320:/usr/include/newlib/c++/9.2.1/bits/stl_algobase.h ****     {
 321:/usr/include/newlib/c++/9.2.1/bits/stl_algobase.h ****       template<typename _II, typename _OI>
 322:/usr/include/newlib/c++/9.2.1/bits/stl_algobase.h **** 	static _OI
 323:/usr/include/newlib/c++/9.2.1/bits/stl_algobase.h **** 	__copy_m(_II __first, _II __last, _OI __result)
 324:/usr/include/newlib/c++/9.2.1/bits/stl_algobase.h **** 	{
 325:/usr/include/newlib/c++/9.2.1/bits/stl_algobase.h **** 	  for (; __first != __last; ++__result, (void)++__first)
 326:/usr/include/newlib/c++/9.2.1/bits/stl_algobase.h **** 	    *__result = std::move(*__first);
 327:/usr/include/newlib/c++/9.2.1/bits/stl_algobase.h **** 	  return __result;
 328:/usr/include/newlib/c++/9.2.1/bits/stl_algobase.h **** 	}
 329:/usr/include/newlib/c++/9.2.1/bits/stl_algobase.h ****     };
 330:/usr/include/newlib/c++/9.2.1/bits/stl_algobase.h **** #endif
 331:/usr/include/newlib/c++/9.2.1/bits/stl_algobase.h **** 
 332:/usr/include/newlib/c++/9.2.1/bits/stl_algobase.h ****   template<>
 333:/usr/include/newlib/c++/9.2.1/bits/stl_algobase.h ****     struct __copy_move<false, false, random_access_iterator_tag>
 334:/usr/include/newlib/c++/9.2.1/bits/stl_algobase.h ****     {
 335:/usr/include/newlib/c++/9.2.1/bits/stl_algobase.h ****       template<typename _II, typename _OI>
 336:/usr/include/newlib/c++/9.2.1/bits/stl_algobase.h **** 	static _OI
 337:/usr/include/newlib/c++/9.2.1/bits/stl_algobase.h **** 	__copy_m(_II __first, _II __last, _OI __result)
 338:/usr/include/newlib/c++/9.2.1/bits/stl_algobase.h **** 	{
 339:/usr/include/newlib/c++/9.2.1/bits/stl_algobase.h **** 	  typedef typename iterator_traits<_II>::difference_type _Distance;
 340:/usr/include/newlib/c++/9.2.1/bits/stl_algobase.h **** 	  for(_Distance __n = __last - __first; __n > 0; --__n)
 341:/usr/include/newlib/c++/9.2.1/bits/stl_algobase.h **** 	    {
 342:/usr/include/newlib/c++/9.2.1/bits/stl_algobase.h **** 	      *__result = *__first;
 343:/usr/include/newlib/c++/9.2.1/bits/stl_algobase.h **** 	      ++__first;
 344:/usr/include/newlib/c++/9.2.1/bits/stl_algobase.h **** 	      ++__result;
 345:/usr/include/newlib/c++/9.2.1/bits/stl_algobase.h **** 	    }
 346:/usr/include/newlib/c++/9.2.1/bits/stl_algobase.h **** 	  return __result;
 347:/usr/include/newlib/c++/9.2.1/bits/stl_algobase.h **** 	}
 348:/usr/include/newlib/c++/9.2.1/bits/stl_algobase.h ****     };
 349:/usr/include/newlib/c++/9.2.1/bits/stl_algobase.h **** 
 350:/usr/include/newlib/c++/9.2.1/bits/stl_algobase.h **** #if __cplusplus >= 201103L
 351:/usr/include/newlib/c++/9.2.1/bits/stl_algobase.h ****   template<>
 352:/usr/include/newlib/c++/9.2.1/bits/stl_algobase.h ****     struct __copy_move<true, false, random_access_iterator_tag>
 353:/usr/include/newlib/c++/9.2.1/bits/stl_algobase.h ****     {
 354:/usr/include/newlib/c++/9.2.1/bits/stl_algobase.h ****       template<typename _II, typename _OI>
 355:/usr/include/newlib/c++/9.2.1/bits/stl_algobase.h **** 	static _OI
 356:/usr/include/newlib/c++/9.2.1/bits/stl_algobase.h **** 	__copy_m(_II __first, _II __last, _OI __result)
ARM GAS  /tmp/ccqUnNFP.s 			page 82


 357:/usr/include/newlib/c++/9.2.1/bits/stl_algobase.h **** 	{
 358:/usr/include/newlib/c++/9.2.1/bits/stl_algobase.h **** 	  typedef typename iterator_traits<_II>::difference_type _Distance;
 359:/usr/include/newlib/c++/9.2.1/bits/stl_algobase.h **** 	  for(_Distance __n = __last - __first; __n > 0; --__n)
 360:/usr/include/newlib/c++/9.2.1/bits/stl_algobase.h **** 	    {
 361:/usr/include/newlib/c++/9.2.1/bits/stl_algobase.h **** 	      *__result = std::move(*__first);
 362:/usr/include/newlib/c++/9.2.1/bits/stl_algobase.h **** 	      ++__first;
 363:/usr/include/newlib/c++/9.2.1/bits/stl_algobase.h **** 	      ++__result;
 364:/usr/include/newlib/c++/9.2.1/bits/stl_algobase.h **** 	    }
 365:/usr/include/newlib/c++/9.2.1/bits/stl_algobase.h **** 	  return __result;
 366:/usr/include/newlib/c++/9.2.1/bits/stl_algobase.h **** 	}
 367:/usr/include/newlib/c++/9.2.1/bits/stl_algobase.h ****     };
 368:/usr/include/newlib/c++/9.2.1/bits/stl_algobase.h **** #endif
 369:/usr/include/newlib/c++/9.2.1/bits/stl_algobase.h **** 
 370:/usr/include/newlib/c++/9.2.1/bits/stl_algobase.h ****   template<bool _IsMove>
 371:/usr/include/newlib/c++/9.2.1/bits/stl_algobase.h ****     struct __copy_move<_IsMove, true, random_access_iterator_tag>
 372:/usr/include/newlib/c++/9.2.1/bits/stl_algobase.h ****     {
 373:/usr/include/newlib/c++/9.2.1/bits/stl_algobase.h ****       template<typename _Tp>
 374:/usr/include/newlib/c++/9.2.1/bits/stl_algobase.h **** 	static _Tp*
 375:/usr/include/newlib/c++/9.2.1/bits/stl_algobase.h **** 	__copy_m(const _Tp* __first, const _Tp* __last, _Tp* __result)
 376:/usr/include/newlib/c++/9.2.1/bits/stl_algobase.h **** 	{
 377:/usr/include/newlib/c++/9.2.1/bits/stl_algobase.h **** #if __cplusplus >= 201103L
 378:/usr/include/newlib/c++/9.2.1/bits/stl_algobase.h **** 	  using __assignable = conditional<_IsMove,
 379:/usr/include/newlib/c++/9.2.1/bits/stl_algobase.h **** 					   is_move_assignable<_Tp>,
 380:/usr/include/newlib/c++/9.2.1/bits/stl_algobase.h **** 					   is_copy_assignable<_Tp>>;
 381:/usr/include/newlib/c++/9.2.1/bits/stl_algobase.h **** 	  // trivial types can have deleted assignment
 382:/usr/include/newlib/c++/9.2.1/bits/stl_algobase.h **** 	  static_assert( __assignable::type::value, "type is not assignable" );
 383:/usr/include/newlib/c++/9.2.1/bits/stl_algobase.h **** #endif
 384:/usr/include/newlib/c++/9.2.1/bits/stl_algobase.h **** 	  const ptrdiff_t _Num = __last - __first;
 385:/usr/include/newlib/c++/9.2.1/bits/stl_algobase.h **** 	  if (_Num)
 386:/usr/include/newlib/c++/9.2.1/bits/stl_algobase.h **** 	    __builtin_memmove(__result, __first, sizeof(_Tp) * _Num);
 387:/usr/include/newlib/c++/9.2.1/bits/stl_algobase.h **** 	  return __result + _Num;
 388:/usr/include/newlib/c++/9.2.1/bits/stl_algobase.h **** 	}
 389:/usr/include/newlib/c++/9.2.1/bits/stl_algobase.h ****     };
 390:/usr/include/newlib/c++/9.2.1/bits/stl_algobase.h **** 
 391:/usr/include/newlib/c++/9.2.1/bits/stl_algobase.h ****   template<bool _IsMove, typename _II, typename _OI>
 392:/usr/include/newlib/c++/9.2.1/bits/stl_algobase.h ****     inline _OI
 393:/usr/include/newlib/c++/9.2.1/bits/stl_algobase.h ****     __copy_move_a(_II __first, _II __last, _OI __result)
 394:/usr/include/newlib/c++/9.2.1/bits/stl_algobase.h ****     {
 395:/usr/include/newlib/c++/9.2.1/bits/stl_algobase.h ****       typedef typename iterator_traits<_II>::value_type _ValueTypeI;
 396:/usr/include/newlib/c++/9.2.1/bits/stl_algobase.h ****       typedef typename iterator_traits<_OI>::value_type _ValueTypeO;
 397:/usr/include/newlib/c++/9.2.1/bits/stl_algobase.h ****       typedef typename iterator_traits<_II>::iterator_category _Category;
 398:/usr/include/newlib/c++/9.2.1/bits/stl_algobase.h ****       const bool __simple = (__is_trivially_copyable(_ValueTypeI)
 399:/usr/include/newlib/c++/9.2.1/bits/stl_algobase.h **** 			     && __is_pointer<_II>::__value
 400:/usr/include/newlib/c++/9.2.1/bits/stl_algobase.h **** 			     && __is_pointer<_OI>::__value
 401:/usr/include/newlib/c++/9.2.1/bits/stl_algobase.h **** 			     && __are_same<_ValueTypeI, _ValueTypeO>::__value);
 402:/usr/include/newlib/c++/9.2.1/bits/stl_algobase.h **** 
 403:/usr/include/newlib/c++/9.2.1/bits/stl_algobase.h ****       return std::__copy_move<_IsMove, __simple,
 404:/usr/include/newlib/c++/9.2.1/bits/stl_algobase.h **** 			      _Category>::__copy_m(__first, __last, __result);
 405:/usr/include/newlib/c++/9.2.1/bits/stl_algobase.h ****     }
 406:/usr/include/newlib/c++/9.2.1/bits/stl_algobase.h **** 
 407:/usr/include/newlib/c++/9.2.1/bits/stl_algobase.h ****   // Helpers for streambuf iterators (either istream or ostream).
 408:/usr/include/newlib/c++/9.2.1/bits/stl_algobase.h ****   // NB: avoid including <iosfwd>, relatively large.
 409:/usr/include/newlib/c++/9.2.1/bits/stl_algobase.h ****   template<typename _CharT>
 410:/usr/include/newlib/c++/9.2.1/bits/stl_algobase.h ****     struct char_traits;
 411:/usr/include/newlib/c++/9.2.1/bits/stl_algobase.h **** 
 412:/usr/include/newlib/c++/9.2.1/bits/stl_algobase.h ****   template<typename _CharT, typename _Traits>
 413:/usr/include/newlib/c++/9.2.1/bits/stl_algobase.h ****     class istreambuf_iterator;
ARM GAS  /tmp/ccqUnNFP.s 			page 83


 414:/usr/include/newlib/c++/9.2.1/bits/stl_algobase.h **** 
 415:/usr/include/newlib/c++/9.2.1/bits/stl_algobase.h ****   template<typename _CharT, typename _Traits>
 416:/usr/include/newlib/c++/9.2.1/bits/stl_algobase.h ****     class ostreambuf_iterator;
 417:/usr/include/newlib/c++/9.2.1/bits/stl_algobase.h **** 
 418:/usr/include/newlib/c++/9.2.1/bits/stl_algobase.h ****   template<bool _IsMove, typename _CharT>
 419:/usr/include/newlib/c++/9.2.1/bits/stl_algobase.h ****     typename __gnu_cxx::__enable_if<__is_char<_CharT>::__value,
 420:/usr/include/newlib/c++/9.2.1/bits/stl_algobase.h **** 	     ostreambuf_iterator<_CharT, char_traits<_CharT> > >::__type
 421:/usr/include/newlib/c++/9.2.1/bits/stl_algobase.h ****     __copy_move_a2(_CharT*, _CharT*,
 422:/usr/include/newlib/c++/9.2.1/bits/stl_algobase.h **** 		   ostreambuf_iterator<_CharT, char_traits<_CharT> >);
 423:/usr/include/newlib/c++/9.2.1/bits/stl_algobase.h **** 
 424:/usr/include/newlib/c++/9.2.1/bits/stl_algobase.h ****   template<bool _IsMove, typename _CharT>
 425:/usr/include/newlib/c++/9.2.1/bits/stl_algobase.h ****     typename __gnu_cxx::__enable_if<__is_char<_CharT>::__value,
 426:/usr/include/newlib/c++/9.2.1/bits/stl_algobase.h **** 	     ostreambuf_iterator<_CharT, char_traits<_CharT> > >::__type
 427:/usr/include/newlib/c++/9.2.1/bits/stl_algobase.h ****     __copy_move_a2(const _CharT*, const _CharT*,
 428:/usr/include/newlib/c++/9.2.1/bits/stl_algobase.h **** 		   ostreambuf_iterator<_CharT, char_traits<_CharT> >);
 429:/usr/include/newlib/c++/9.2.1/bits/stl_algobase.h **** 
 430:/usr/include/newlib/c++/9.2.1/bits/stl_algobase.h ****   template<bool _IsMove, typename _CharT>
 431:/usr/include/newlib/c++/9.2.1/bits/stl_algobase.h ****     typename __gnu_cxx::__enable_if<__is_char<_CharT>::__value,
 432:/usr/include/newlib/c++/9.2.1/bits/stl_algobase.h **** 				    _CharT*>::__type
 433:/usr/include/newlib/c++/9.2.1/bits/stl_algobase.h ****     __copy_move_a2(istreambuf_iterator<_CharT, char_traits<_CharT> >,
 434:/usr/include/newlib/c++/9.2.1/bits/stl_algobase.h **** 		   istreambuf_iterator<_CharT, char_traits<_CharT> >, _CharT*);
 435:/usr/include/newlib/c++/9.2.1/bits/stl_algobase.h **** 
 436:/usr/include/newlib/c++/9.2.1/bits/stl_algobase.h ****   template<bool _IsMove, typename _II, typename _OI>
 437:/usr/include/newlib/c++/9.2.1/bits/stl_algobase.h ****     inline _OI
 438:/usr/include/newlib/c++/9.2.1/bits/stl_algobase.h ****     __copy_move_a2(_II __first, _II __last, _OI __result)
 439:/usr/include/newlib/c++/9.2.1/bits/stl_algobase.h ****     {
 440:/usr/include/newlib/c++/9.2.1/bits/stl_algobase.h ****       return std::__niter_wrap(__result,
 441:/usr/include/newlib/c++/9.2.1/bits/stl_algobase.h **** 		std::__copy_move_a<_IsMove>(std::__niter_base(__first),
 442:/usr/include/newlib/c++/9.2.1/bits/stl_algobase.h **** 					    std::__niter_base(__last),
 443:/usr/include/newlib/c++/9.2.1/bits/stl_algobase.h **** 					    std::__niter_base(__result)));
 444:/usr/include/newlib/c++/9.2.1/bits/stl_algobase.h ****     }
 445:/usr/include/newlib/c++/9.2.1/bits/stl_algobase.h **** 
 446:/usr/include/newlib/c++/9.2.1/bits/stl_algobase.h ****   /**
 447:/usr/include/newlib/c++/9.2.1/bits/stl_algobase.h ****    *  @brief Copies the range [first,last) into result.
 448:/usr/include/newlib/c++/9.2.1/bits/stl_algobase.h ****    *  @ingroup mutating_algorithms
 449:/usr/include/newlib/c++/9.2.1/bits/stl_algobase.h ****    *  @param  __first  An input iterator.
 450:/usr/include/newlib/c++/9.2.1/bits/stl_algobase.h ****    *  @param  __last   An input iterator.
 451:/usr/include/newlib/c++/9.2.1/bits/stl_algobase.h ****    *  @param  __result An output iterator.
 452:/usr/include/newlib/c++/9.2.1/bits/stl_algobase.h ****    *  @return   result + (first - last)
 453:/usr/include/newlib/c++/9.2.1/bits/stl_algobase.h ****    *
 454:/usr/include/newlib/c++/9.2.1/bits/stl_algobase.h ****    *  This inline function will boil down to a call to @c memmove whenever
 455:/usr/include/newlib/c++/9.2.1/bits/stl_algobase.h ****    *  possible.  Failing that, if random access iterators are passed, then the
 456:/usr/include/newlib/c++/9.2.1/bits/stl_algobase.h ****    *  loop count will be known (and therefore a candidate for compiler
 457:/usr/include/newlib/c++/9.2.1/bits/stl_algobase.h ****    *  optimizations such as unrolling).  Result may not be contained within
 458:/usr/include/newlib/c++/9.2.1/bits/stl_algobase.h ****    *  [first,last); the copy_backward function should be used instead.
 459:/usr/include/newlib/c++/9.2.1/bits/stl_algobase.h ****    *
 460:/usr/include/newlib/c++/9.2.1/bits/stl_algobase.h ****    *  Note that the end of the output range is permitted to be contained
 461:/usr/include/newlib/c++/9.2.1/bits/stl_algobase.h ****    *  within [first,last).
 462:/usr/include/newlib/c++/9.2.1/bits/stl_algobase.h ****   */
 463:/usr/include/newlib/c++/9.2.1/bits/stl_algobase.h ****   template<typename _II, typename _OI>
 464:/usr/include/newlib/c++/9.2.1/bits/stl_algobase.h ****     inline _OI
 465:/usr/include/newlib/c++/9.2.1/bits/stl_algobase.h ****     copy(_II __first, _II __last, _OI __result)
 2926              		.loc 7 465 5 is_stmt 1 view .LVU569
 2927              	.LBB2517:
 2928              	.LBI2517:
 438:/usr/include/newlib/c++/9.2.1/bits/stl_algobase.h ****     {
 2929              		.loc 7 438 5 view .LVU570
ARM GAS  /tmp/ccqUnNFP.s 			page 84


 2930              	.LBB2518:
 2931              	.LBI2518:
 393:/usr/include/newlib/c++/9.2.1/bits/stl_algobase.h ****     {
 2932              		.loc 7 393 5 view .LVU571
 2933              	.LBB2519:
 2934              	.LBB2520:
 2935              	.LBI2520:
 375:/usr/include/newlib/c++/9.2.1/bits/stl_algobase.h **** 	{
 2936              		.loc 7 375 2 view .LVU572
 2937              	.LBB2521:
 386:/usr/include/newlib/c++/9.2.1/bits/stl_algobase.h **** 	  return __result + _Num;
 2938              		.loc 7 386 23 is_stmt 0 view .LVU573
 2939 0034 41F62434 		movw	r4, #6948
 2940 0038 B422     		movs	r2, #180
 2941 003a 1449     		ldr	r1, .L34
 2942 003c 3444     		add	r4, r4, r6
 2943              	.LVL109:
 386:/usr/include/newlib/c++/9.2.1/bits/stl_algobase.h **** 	  return __result + _Num;
 2944              		.loc 7 386 23 view .LVU574
 2945 003e 2046     		mov	r0, r4
 2946              	.LVL110:
 386:/usr/include/newlib/c++/9.2.1/bits/stl_algobase.h **** 	  return __result + _Num;
 2947              		.loc 7 386 23 view .LVU575
 2948 0040 FFF7FEFF 		bl	memcpy
 2949              	.LVL111:
 386:/usr/include/newlib/c++/9.2.1/bits/stl_algobase.h **** 	  return __result + _Num;
 2950              		.loc 7 386 23 view .LVU576
 2951 0044 42F23022 		movw	r2, #8752
 2952              	.LBE2521:
 2953              	.LBE2520:
 2954              	.LBE2519:
 2955              	.LBE2518:
 2956              	.LBE2517:
 2957              	.LBE2516:
  48:dsp/sample_rate_converter.h ****         }
  49:dsp/sample_rate_converter.h ****         std::copy(
  50:dsp/sample_rate_converter.h ****             &coefficients[0], &coefficients[filter_size], &coefficients_[0]);
  51:dsp/sample_rate_converter.h ****         history_ptr_ = filter_size - 1;
 2958              		.loc 6 51 9 view .LVU577
 2959 0048 2C21     		movs	r1, #44
 2960 004a 06F5FB53 		add	r3, r6, #8032
 2961 004e 3244     		add	r2, r2, r6
 2962 0050 C4F88413 		str	r1, [r4, #900]
 2963              	.LVL112:
 2964              		.loc 6 51 9 view .LVU578
 2965              	.LBE2514:
 2966              	.LBE2513:
  60:dsp/granular_processor.cpp **** 
 2967              		.loc 5 60 5 is_stmt 1 view .LVU579
 2968              	.LBB2522:
 2969              	.LBI2522:
  43:dsp/sample_rate_converter.h ****     {
 2970              		.loc 6 43 10 view .LVU580
 2971              	.LBB2523:
 2972              	.LBB2524:
  45:dsp/sample_rate_converter.h ****         {
 2973              		.loc 6 45 30 view .LVU581
ARM GAS  /tmp/ccqUnNFP.s 			page 85


 2974              	.L30:
  47:dsp/sample_rate_converter.h ****         }
 2975              		.loc 6 47 13 is_stmt 0 view .LVU582
 2976 0054 0024     		movs	r4, #0
 2977 0056 5C60     		str	r4, [r3, #4]	@ float
 2978 0058 43F8084B 		str	r4, [r3], #8	@ float
  45:dsp/sample_rate_converter.h ****         {
 2979              		.loc 6 45 9 is_stmt 1 view .LVU583
  45:dsp/sample_rate_converter.h ****         {
 2980              		.loc 6 45 30 view .LVU584
 2981 005c 9A42     		cmp	r2, r3
 2982 005e F9D1     		bne	.L30
 2983              	.LVL113:
  45:dsp/sample_rate_converter.h ****         {
 2984              		.loc 6 45 30 is_stmt 0 view .LVU585
 2985              	.LBE2524:
 2986              	.LBB2525:
 2987              	.LBI2525:
 2988              		.loc 7 465 5 is_stmt 1 view .LVU586
 2989              	.LBB2526:
 2990              	.LBI2526:
 438:/usr/include/newlib/c++/9.2.1/bits/stl_algobase.h ****     {
 2991              		.loc 7 438 5 view .LVU587
 2992              	.LBB2527:
 2993              	.LBI2527:
 393:/usr/include/newlib/c++/9.2.1/bits/stl_algobase.h ****     {
 2994              		.loc 7 393 5 view .LVU588
 2995              	.LBB2528:
 2996              	.LBB2529:
 2997              	.LBI2529:
 375:/usr/include/newlib/c++/9.2.1/bits/stl_algobase.h **** 	{
 2998              		.loc 7 375 2 view .LVU589
 2999              	.LBB2530:
 386:/usr/include/newlib/c++/9.2.1/bits/stl_algobase.h **** 	  return __result + _Num;
 3000              		.loc 7 386 23 is_stmt 0 view .LVU590
 3001 0060 41F6AC63 		movw	r3, #7852
 3002 0064 B422     		movs	r2, #180
 3003 0066 0949     		ldr	r1, .L34
 3004 0068 3344     		add	r3, r3, r6
 3005              	.LVL114:
 386:/usr/include/newlib/c++/9.2.1/bits/stl_algobase.h **** 	  return __result + _Num;
 3006              		.loc 7 386 23 view .LVU591
 3007 006a 1846     		mov	r0, r3
 3008 006c FFF7FEFF 		bl	memcpy
 3009              	.LVL115:
 386:/usr/include/newlib/c++/9.2.1/bits/stl_algobase.h **** 	  return __result + _Num;
 3010              		.loc 7 386 23 view .LVU592
 3011              	.LBE2530:
 3012              	.LBE2529:
 3013              	.LBE2528:
 3014              	.LBE2527:
 3015              	.LBE2526:
 3016              	.LBE2525:
 3017              		.loc 6 51 9 view .LVU593
 3018 0070 2C22     		movs	r2, #44
 3019              	.LBB2536:
 3020              	.LBB2535:
ARM GAS  /tmp/ccqUnNFP.s 			page 86


 3021              	.LBB2534:
 3022              	.LBB2533:
 3023              	.LBB2532:
 3024              	.LBB2531:
 386:/usr/include/newlib/c++/9.2.1/bits/stl_algobase.h **** 	  return __result + _Num;
 3025              		.loc 7 386 23 view .LVU594
 3026 0072 0346     		mov	r3, r0
 3027              	.LVL116:
 386:/usr/include/newlib/c++/9.2.1/bits/stl_algobase.h **** 	  return __result + _Num;
 3028              		.loc 7 386 23 view .LVU595
 3029              	.LBE2531:
 3030              	.LBE2532:
 3031              	.LBE2533:
 3032              	.LBE2534:
 3033              	.LBE2535:
 3034              	.LBE2536:
 3035              	.LBE2523:
 3036              	.LBE2522:
  62:dsp/granular_processor.cpp **** 
 3037              		.loc 5 62 17 view .LVU596
 3038 0074 3046     		mov	r0, r6
 3039              	.LBB2538:
 3040              	.LBB2537:
 3041              		.loc 6 51 9 view .LVU597
 3042 0076 C3F88423 		str	r2, [r3, #900]
 3043              	.LVL117:
 3044              		.loc 6 51 9 view .LVU598
 3045              	.LBE2537:
 3046              	.LBE2538:
  62:dsp/granular_processor.cpp **** 
 3047              		.loc 5 62 5 is_stmt 1 view .LVU599
  62:dsp/granular_processor.cpp **** 
 3048              		.loc 5 62 17 is_stmt 0 view .LVU600
 3049 007a FFF7FEFF 		bl	_ZN23GranularProcessorClouds12ResetFiltersEv
 3050              	.LVL118:
  64:dsp/granular_processor.cpp ****     reset_buffers_          = true;
 3051              		.loc 5 64 5 is_stmt 1 view .LVU601
  64:dsp/granular_processor.cpp ****     reset_buffers_          = true;
 3052              		.loc 5 64 29 is_stmt 0 view .LVU602
 3053 007e 0422     		movs	r2, #4
  65:dsp/granular_processor.cpp ****     dry_wet_                = 0.0f;
 3054              		.loc 5 65 29 view .LVU603
 3055 0080 0123     		movs	r3, #1
  66:dsp/granular_processor.cpp **** }
 3056              		.loc 5 66 29 view .LVU604
 3057 0082 B461     		str	r4, [r6, #24]	@ float
  64:dsp/granular_processor.cpp ****     reset_buffers_          = true;
 3058              		.loc 5 64 29 view .LVU605
 3059 0084 7270     		strb	r2, [r6, #1]
  65:dsp/granular_processor.cpp ****     dry_wet_                = 0.0f;
 3060              		.loc 5 65 5 is_stmt 1 view .LVU606
  65:dsp/granular_processor.cpp ****     dry_wet_                = 0.0f;
 3061              		.loc 5 65 29 is_stmt 0 view .LVU607
 3062 0086 B374     		strb	r3, [r6, #18]
  66:dsp/granular_processor.cpp **** }
 3063              		.loc 5 66 5 is_stmt 1 view .LVU608
  67:dsp/granular_processor.cpp **** 
ARM GAS  /tmp/ccqUnNFP.s 			page 87


 3064              		.loc 5 67 1 is_stmt 0 view .LVU609
 3065 0088 70BD     		pop	{r4, r5, r6, pc}
 3066              	.LVL119:
 3067              	.L35:
  67:dsp/granular_processor.cpp **** 
 3068              		.loc 5 67 1 view .LVU610
 3069 008a 00BF     		.align	2
 3070              	.L34:
 3071 008c 00000000 		.word	src_filter_1x_2_45
 3072              		.cfi_endproc
 3073              	.LFE4492:
 3075              		.section	.text._ZN23GranularProcessorClouds7PrepareEv,"ax",%progbits
 3076              		.align	1
 3077              		.p2align 2,,3
 3078              		.global	_ZN23GranularProcessorClouds7PrepareEv
 3079              		.syntax unified
 3080              		.thumb
 3081              		.thumb_func
 3082              		.fpu fpv5-d16
 3084              	_ZN23GranularProcessorClouds7PrepareEv:
 3085              	.LVL120:
 3086              	.LFB4496:
  78:dsp/granular_processor.cpp **** 
  79:dsp/granular_processor.cpp **** void GranularProcessorClouds::ProcessGranular(FloatFrame* input,
  80:dsp/granular_processor.cpp ****                                               FloatFrame* output,
  81:dsp/granular_processor.cpp ****                                               size_t      size)
  82:dsp/granular_processor.cpp **** {
  83:dsp/granular_processor.cpp ****     // At the exception of the spectral mode, all modes require the incoming
  84:dsp/granular_processor.cpp ****     // audio signal to be written to the recording buffer.
  85:dsp/granular_processor.cpp ****     if(playback_mode_ != PLAYBACK_MODE_SPECTRAL)
  86:dsp/granular_processor.cpp ****     {
  87:dsp/granular_processor.cpp ****         const float* input_samples = &input[0].l;
  88:dsp/granular_processor.cpp ****         for(int32_t i = 0; i < num_channels_; ++i)
  89:dsp/granular_processor.cpp ****         {
  90:dsp/granular_processor.cpp ****             if(resolution() == 8)
  91:dsp/granular_processor.cpp ****             {
  92:dsp/granular_processor.cpp ****                 buffer_8_[i].WriteFade(
  93:dsp/granular_processor.cpp ****                     &input_samples[i], size, 2, !parameters_.freeze);
  94:dsp/granular_processor.cpp ****             }
  95:dsp/granular_processor.cpp ****             else
  96:dsp/granular_processor.cpp ****             {
  97:dsp/granular_processor.cpp ****                 buffer_16_[i].WriteFade(
  98:dsp/granular_processor.cpp ****                     &input_samples[i], size, 2, !parameters_.freeze);
  99:dsp/granular_processor.cpp ****             }
 100:dsp/granular_processor.cpp ****         }
 101:dsp/granular_processor.cpp ****     }
 102:dsp/granular_processor.cpp **** 
 103:dsp/granular_processor.cpp ****     switch(playback_mode_)
 104:dsp/granular_processor.cpp ****     {
 105:dsp/granular_processor.cpp ****         case PLAYBACK_MODE_GRANULAR:
 106:dsp/granular_processor.cpp ****             // In Granular mode, DENSITY is a meta parameter.
 107:dsp/granular_processor.cpp ****             parameters_.granular.use_deterministic_seed
 108:dsp/granular_processor.cpp ****                 = parameters_.density < 0.5f;
 109:dsp/granular_processor.cpp ****             if(parameters_.density >= 0.53f)
 110:dsp/granular_processor.cpp ****             {
 111:dsp/granular_processor.cpp ****                 parameters_.granular.overlap
 112:dsp/granular_processor.cpp ****                     = (parameters_.density - 0.53f) * 2.12f;
ARM GAS  /tmp/ccqUnNFP.s 			page 88


 113:dsp/granular_processor.cpp ****             }
 114:dsp/granular_processor.cpp ****             else if(parameters_.density <= 0.47f)
 115:dsp/granular_processor.cpp ****             {
 116:dsp/granular_processor.cpp ****                 parameters_.granular.overlap
 117:dsp/granular_processor.cpp ****                     = (0.47f - parameters_.density) * 2.12f;
 118:dsp/granular_processor.cpp ****             }
 119:dsp/granular_processor.cpp ****             else
 120:dsp/granular_processor.cpp ****             {
 121:dsp/granular_processor.cpp ****                 parameters_.granular.overlap = 0.0f;
 122:dsp/granular_processor.cpp ****             }
 123:dsp/granular_processor.cpp ****             // And TEXTURE too.
 124:dsp/granular_processor.cpp ****             parameters_.granular.window_shape
 125:dsp/granular_processor.cpp ****                 = parameters_.texture < 0.75f ? parameters_.texture * 1.333f
 126:dsp/granular_processor.cpp ****                                               : 1.0f;
 127:dsp/granular_processor.cpp **** 
 128:dsp/granular_processor.cpp ****             if(resolution() == 8)
 129:dsp/granular_processor.cpp ****             {
 130:dsp/granular_processor.cpp ****                 player_.Play(buffer_8_, parameters_, &output[0].l, size);
 131:dsp/granular_processor.cpp ****             }
 132:dsp/granular_processor.cpp ****             else
 133:dsp/granular_processor.cpp ****             {
 134:dsp/granular_processor.cpp ****                 player_.Play(buffer_16_, parameters_, &output[0].l, size);
 135:dsp/granular_processor.cpp ****             }
 136:dsp/granular_processor.cpp ****             break;
 137:dsp/granular_processor.cpp **** 
 138:dsp/granular_processor.cpp ****         case PLAYBACK_MODE_STRETCH:
 139:dsp/granular_processor.cpp ****             if(resolution() == 8)
 140:dsp/granular_processor.cpp ****             {
 141:dsp/granular_processor.cpp ****                 ws_player_.Play(buffer_8_, parameters_, &output[0].l, size);
 142:dsp/granular_processor.cpp ****             }
 143:dsp/granular_processor.cpp ****             else
 144:dsp/granular_processor.cpp ****             {
 145:dsp/granular_processor.cpp ****                 ws_player_.Play(buffer_16_, parameters_, &output[0].l, size);
 146:dsp/granular_processor.cpp ****             }
 147:dsp/granular_processor.cpp ****             break;
 148:dsp/granular_processor.cpp **** 
 149:dsp/granular_processor.cpp ****         case PLAYBACK_MODE_LOOPING_DELAY:
 150:dsp/granular_processor.cpp ****             if(resolution() == 8)
 151:dsp/granular_processor.cpp ****             {
 152:dsp/granular_processor.cpp ****                 looper_.Play(buffer_8_, parameters_, &output[0].l, size);
 153:dsp/granular_processor.cpp ****             }
 154:dsp/granular_processor.cpp ****             else
 155:dsp/granular_processor.cpp ****             {
 156:dsp/granular_processor.cpp ****                 looper_.Play(buffer_16_, parameters_, &output[0].l, size);
 157:dsp/granular_processor.cpp ****             }
 158:dsp/granular_processor.cpp ****             break;
 159:dsp/granular_processor.cpp **** 
 160:dsp/granular_processor.cpp ****         case PLAYBACK_MODE_SPECTRAL:
 161:dsp/granular_processor.cpp ****         {
 162:dsp/granular_processor.cpp ****             parameters_.spectral.quantization = parameters_.texture;
 163:dsp/granular_processor.cpp ****             parameters_.spectral.refresh_rate
 164:dsp/granular_processor.cpp ****                 = 0.01f + 0.99f * parameters_.density;
 165:dsp/granular_processor.cpp ****             float warp                = parameters_.size - 0.5f;
 166:dsp/granular_processor.cpp ****             parameters_.spectral.warp = 4.0f * warp * warp * warp + 0.5f;
 167:dsp/granular_processor.cpp **** 
 168:dsp/granular_processor.cpp ****             float randomization = parameters_.density - 0.5f;
 169:dsp/granular_processor.cpp ****             randomization *= randomization * 4.2f;
ARM GAS  /tmp/ccqUnNFP.s 			page 89


 170:dsp/granular_processor.cpp ****             randomization -= 0.05f;
 171:dsp/granular_processor.cpp ****             CONSTRAIN(randomization, 0.0f, 1.0f);
 172:dsp/granular_processor.cpp ****             parameters_.spectral.phase_randomization = randomization;
 173:dsp/granular_processor.cpp ****             phase_vocoder_.Process(parameters_, input, output, size);
 174:dsp/granular_processor.cpp **** 
 175:dsp/granular_processor.cpp ****             if(num_channels_ == 1)
 176:dsp/granular_processor.cpp ****             {
 177:dsp/granular_processor.cpp ****                 for(size_t i = 0; i < size; ++i)
 178:dsp/granular_processor.cpp ****                 {
 179:dsp/granular_processor.cpp ****                     output[i].r = output[i].l;
 180:dsp/granular_processor.cpp ****                 }
 181:dsp/granular_processor.cpp ****             }
 182:dsp/granular_processor.cpp ****         }
 183:dsp/granular_processor.cpp ****         break;
 184:dsp/granular_processor.cpp **** 
 185:dsp/granular_processor.cpp ****         default: break;
 186:dsp/granular_processor.cpp ****     }
 187:dsp/granular_processor.cpp **** }
 188:dsp/granular_processor.cpp **** 
 189:dsp/granular_processor.cpp **** void GranularProcessorClouds::Process(FloatFrame* input,
 190:dsp/granular_processor.cpp ****                                       FloatFrame* output,
 191:dsp/granular_processor.cpp ****                                       size_t      size)
 192:dsp/granular_processor.cpp **** {
 193:dsp/granular_processor.cpp ****     // TIC
 194:dsp/granular_processor.cpp ****     if(bypass_)
 195:dsp/granular_processor.cpp ****     {
 196:dsp/granular_processor.cpp ****         std::copy(&input[0], &input[size], &output[0]);
 197:dsp/granular_processor.cpp ****         return;
 198:dsp/granular_processor.cpp ****     }
 199:dsp/granular_processor.cpp **** 
 200:dsp/granular_processor.cpp ****     if(silence_ || reset_buffers_ || previous_playback_mode_ != playback_mode_)
 201:dsp/granular_processor.cpp ****     {
 202:dsp/granular_processor.cpp ****         float* output_samples = &output[0].l;
 203:dsp/granular_processor.cpp ****         std::fill(&output_samples[0], &output_samples[size << 1], 0);
 204:dsp/granular_processor.cpp ****         return;
 205:dsp/granular_processor.cpp ****     }
 206:dsp/granular_processor.cpp **** 
 207:dsp/granular_processor.cpp ****     for(size_t i = 0; i < size; ++i)
 208:dsp/granular_processor.cpp ****     {
 209:dsp/granular_processor.cpp ****         in_[i].l = input[i].l;
 210:dsp/granular_processor.cpp ****         in_[i].r = input[i].r;
 211:dsp/granular_processor.cpp ****     }
 212:dsp/granular_processor.cpp ****     if(num_channels_ == 1)
 213:dsp/granular_processor.cpp ****     {
 214:dsp/granular_processor.cpp ****         for(size_t i = 0; i < size; ++i)
 215:dsp/granular_processor.cpp ****         {
 216:dsp/granular_processor.cpp ****             in_[i].l = (in_[i].l + in_[i].r) * 0.5f;
 217:dsp/granular_processor.cpp ****             in_[i].r = in_[i].l;
 218:dsp/granular_processor.cpp ****         }
 219:dsp/granular_processor.cpp ****     }
 220:dsp/granular_processor.cpp **** 
 221:dsp/granular_processor.cpp ****     // Apply feedback, with high-pass filtering to prevent build-ups at very
 222:dsp/granular_processor.cpp ****     // low frequencies (causing large DC swings).
 223:dsp/granular_processor.cpp ****     ONE_POLE(freeze_lp_, parameters_.freeze ? 1.0f : 0.0f, 0.0005f)
 224:dsp/granular_processor.cpp ****     float feedback = parameters_.feedback;
 225:dsp/granular_processor.cpp ****     float cutoff   = (20.0f + 100.0f * feedback * feedback);
 226:dsp/granular_processor.cpp **** 
ARM GAS  /tmp/ccqUnNFP.s 			page 90


 227:dsp/granular_processor.cpp ****     fb_filter_[0].SetFreq(cutoff);
 228:dsp/granular_processor.cpp ****     fb_filter_[0].SetRes(1.f);
 229:dsp/granular_processor.cpp **** 
 230:dsp/granular_processor.cpp ****     fb_filter_[1].SetFreq(cutoff);
 231:dsp/granular_processor.cpp ****     fb_filter_[1].SetRes(1.f);
 232:dsp/granular_processor.cpp **** 
 233:dsp/granular_processor.cpp ****     for(size_t i = 0; i < size; i++)
 234:dsp/granular_processor.cpp ****     {
 235:dsp/granular_processor.cpp ****         fb_filter_[0].Process(fb_[i].l);
 236:dsp/granular_processor.cpp ****         fb_[i].l = fb_filter_[0].High();
 237:dsp/granular_processor.cpp **** 
 238:dsp/granular_processor.cpp ****         fb_filter_[1].Process(fb_[i].r);
 239:dsp/granular_processor.cpp ****         fb_[i].r = fb_filter_[1].High();
 240:dsp/granular_processor.cpp ****     }
 241:dsp/granular_processor.cpp **** 
 242:dsp/granular_processor.cpp ****     float fb_gain = feedback * (1.0f - freeze_lp_);
 243:dsp/granular_processor.cpp ****     for(size_t i = 0; i < size; ++i)
 244:dsp/granular_processor.cpp ****     {
 245:dsp/granular_processor.cpp ****         in_[i].l
 246:dsp/granular_processor.cpp ****             += fb_gain
 247:dsp/granular_processor.cpp ****                * (SoftLimit(fb_gain * 1.4f * fb_[i].l + in_[i].l) - in_[i].l);
 248:dsp/granular_processor.cpp ****         in_[i].r
 249:dsp/granular_processor.cpp ****             += fb_gain
 250:dsp/granular_processor.cpp ****                * (SoftLimit(fb_gain * 1.4f * fb_[i].r + in_[i].r) - in_[i].r);
 251:dsp/granular_processor.cpp ****     }
 252:dsp/granular_processor.cpp **** 
 253:dsp/granular_processor.cpp ****     if(low_fidelity_)
 254:dsp/granular_processor.cpp ****     {
 255:dsp/granular_processor.cpp ****         size_t downsampled_size = size / kDownsamplingFactor;
 256:dsp/granular_processor.cpp ****         src_down_.Process(in_, in_downsampled_, size);
 257:dsp/granular_processor.cpp ****         ProcessGranular(in_downsampled_, out_downsampled_, downsampled_size);
 258:dsp/granular_processor.cpp ****         src_up_.Process(out_downsampled_, out_, downsampled_size);
 259:dsp/granular_processor.cpp ****     }
 260:dsp/granular_processor.cpp ****     else
 261:dsp/granular_processor.cpp ****     {
 262:dsp/granular_processor.cpp ****         ProcessGranular(in_, out_, size);
 263:dsp/granular_processor.cpp ****     }
 264:dsp/granular_processor.cpp **** 
 265:dsp/granular_processor.cpp ****     // Diffusion and pitch-shifting post-processings.
 266:dsp/granular_processor.cpp ****     if(playback_mode_ != PLAYBACK_MODE_SPECTRAL)
 267:dsp/granular_processor.cpp ****     {
 268:dsp/granular_processor.cpp ****         float texture = parameters_.texture;
 269:dsp/granular_processor.cpp ****         float diffusion
 270:dsp/granular_processor.cpp ****             = playback_mode_ == PLAYBACK_MODE_GRANULAR
 271:dsp/granular_processor.cpp ****                   ? texture > 0.75f ? (texture - 0.75f) * 4.0f : 0.0f
 272:dsp/granular_processor.cpp ****                   : parameters_.density;
 273:dsp/granular_processor.cpp ****         diffuser_.set_amount(diffusion);
 274:dsp/granular_processor.cpp ****         diffuser_.Process(out_, size);
 275:dsp/granular_processor.cpp ****     }
 276:dsp/granular_processor.cpp **** 
 277:dsp/granular_processor.cpp ****     if(playback_mode_ == PLAYBACK_MODE_LOOPING_DELAY
 278:dsp/granular_processor.cpp ****        && (!parameters_.freeze || looper_.synchronized()))
 279:dsp/granular_processor.cpp ****     {
 280:dsp/granular_processor.cpp ****         pitch_shifter_.set_ratio(SemitonesToRatio(parameters_.pitch));
 281:dsp/granular_processor.cpp ****         pitch_shifter_.set_size(parameters_.size);
 282:dsp/granular_processor.cpp ****         pitch_shifter_.Process(out_, size);
 283:dsp/granular_processor.cpp ****     }
ARM GAS  /tmp/ccqUnNFP.s 			page 91


 284:dsp/granular_processor.cpp **** 
 285:dsp/granular_processor.cpp ****     // Apply filters.
 286:dsp/granular_processor.cpp ****     if(playback_mode_ == PLAYBACK_MODE_LOOPING_DELAY
 287:dsp/granular_processor.cpp ****        || playback_mode_ == PLAYBACK_MODE_STRETCH)
 288:dsp/granular_processor.cpp ****     {
 289:dsp/granular_processor.cpp ****         float cutoff    = parameters_.texture;
 290:dsp/granular_processor.cpp ****         float lp_cutoff = 0.5f
 291:dsp/granular_processor.cpp ****                           * SemitonesToRatio(
 292:dsp/granular_processor.cpp ****                               (cutoff < 0.5f ? cutoff - 0.5f : 0.0f) * 216.0f);
 293:dsp/granular_processor.cpp ****         float hp_cutoff = 0.25f
 294:dsp/granular_processor.cpp ****                           * SemitonesToRatio(
 295:dsp/granular_processor.cpp ****                               (cutoff < 0.5f ? -0.5f : cutoff - 1.0f) * 216.0f);
 296:dsp/granular_processor.cpp ****         CONSTRAIN(lp_cutoff, 0.0f, 0.499f);
 297:dsp/granular_processor.cpp ****         CONSTRAIN(hp_cutoff, 0.0f, 0.499f);
 298:dsp/granular_processor.cpp ****         float lpq = 1.0f + 3.0f * (1.0f - feedback) * (0.5f - lp_cutoff);
 299:dsp/granular_processor.cpp ****         lpq *= .25f;
 300:dsp/granular_processor.cpp **** 
