ARM GAS  /tmp/ccoBMhpm.s 			page 1


   1              		.cpu cortex-m7
   2              		.eabi_attribute 28, 1
   3              		.eabi_attribute 20, 1
   4              		.eabi_attribute 21, 1
   5              		.eabi_attribute 23, 3
   6              		.eabi_attribute 24, 1
   7              		.eabi_attribute 25, 1
   8              		.eabi_attribute 26, 1
   9              		.eabi_attribute 30, 2
  10              		.eabi_attribute 34, 1
  11              		.eabi_attribute 18, 4
  12              		.file	"resources.cpp"
  13              		.text
  14              	.Ltext0:
  15              		.cfi_sections	.debug_frame
  16              		.section	.text._Z10sum_windowPfiS_,"ax",%progbits
  17              		.align	1
  18              		.p2align 2,,3
  19              		.global	_Z10sum_windowPfiS_
  20              		.arch armv7e-m
  21              		.syntax unified
  22              		.thumb
  23              		.thumb_func
  24              		.fpu fpv5-d16
  26              	_Z10sum_windowPfiS_:
  27              	.LVL0:
  28              	.LFB4203:
  29              		.file 1 "resources.cpp"
   1:resources.cpp **** // Copyright 2014 Emilie Gillet.
   2:resources.cpp **** //
   3:resources.cpp **** // Author: Emilie Gillet (emilie.o.gillet@gmail.com)
   4:resources.cpp **** //
   5:resources.cpp **** // Permission is hereby granted, free of charge, to any person obtaining a copy
   6:resources.cpp **** // of this software and associated documentation files (the "Software"), to deal
   7:resources.cpp **** // in the Software without restriction, including without limitation the rights
   8:resources.cpp **** // to use, copy, modify, merge, publish, distribute, sublicense, and/or sell
   9:resources.cpp **** // copies of the Software, and to permit persons to whom the Software is
  10:resources.cpp **** // furnished to do so, subject to the following conditions:
  11:resources.cpp **** //
  12:resources.cpp **** // The above copyright notice and this permission notice shall be included in
  13:resources.cpp **** // all copies or substantiafl portions of the Software.
  14:resources.cpp **** //
  15:resources.cpp **** // THE SOFTWARE IS PROVIDED "AS IS", WITHOUT WARRANTY OF ANY KIND, EXPRESS OR
  16:resources.cpp **** // IMPLIED, INCLUDING BUT NOT LIMITED TO THE WARRANTIES OF MERCHANTABILITY,
  17:resources.cpp **** // FITNESS FOR A PARTICULAR PURPOSE AND NONINFRINGEMENT. IN NO EVENT SHALL THE
  18:resources.cpp **** // AUTHORS OR COPYRIGHT HOLDERS BE LIABLE FOR ANY CLAIM, DAMAGES OR OTHER
  19:resources.cpp **** // LIABILITY, WHETHER IN AN ACTION OF CONTRACT, TORT OR OTHERWISE, ARISING FROM,
  20:resources.cpp **** // OUT OF OR IN CONNECTION WITH THE SOFTWARE OR THE USE OR OTHER DEALINGS IN
  21:resources.cpp **** // THE SOFTWARE.
  22:resources.cpp **** //
  23:resources.cpp **** // See http://creativecommons.org/licenses/MIT/ for more information.
  24:resources.cpp **** //
  25:resources.cpp **** // -----------------------------------------------------------------------------
  26:resources.cpp **** //
  27:resources.cpp **** // Resources definitions.
  28:resources.cpp **** //
  29:resources.cpp **** // Automatically generated with:
ARM GAS  /tmp/ccoBMhpm.s 			page 2


  30:resources.cpp **** // make resources
  31:resources.cpp **** 
  32:resources.cpp **** 
  33:resources.cpp **** #include "resources.h"
  34:resources.cpp **** #include <stdint.h>
  35:resources.cpp **** #include "daisysp.h"
  36:resources.cpp **** 
  37:resources.cpp **** using namespace daisysp;
  38:resources.cpp **** 
  39:resources.cpp **** int16_t  lut_ulaw[LUT_ULAW_SIZE];
  40:resources.cpp **** float    lut_pitch_ratio_high[LUT_PITCH_RATIO_HIGH_SIZE];
  41:resources.cpp **** float    lut_pitch_ratio_low[LUT_PITCH_RATIO_LOW_SIZE];
  42:resources.cpp **** uint16_t atan_lut[ATAN_LUT_SIZE];
  43:resources.cpp **** 
  44:resources.cpp **** float lut_sin[LUT_SIN_SIZE];
  45:resources.cpp **** float lut_window[LUT_WINDOW_SIZE];
  46:resources.cpp **** float lut_xfade_in[LUT_XFADE_IN_SIZE];
  47:resources.cpp **** float lut_xfade_out[LUT_XFADE_OUT_SIZE];
  48:resources.cpp **** float lut_sine_window_4096[LUT_SINE_WINDOW_4096_SIZE];
  49:resources.cpp **** float lut_grain_size[LUT_GRAIN_SIZE_SIZE];
  50:resources.cpp **** 
  51:resources.cpp **** //helper for sine window
  52:resources.cpp **** void sum_window(float* window, int steps, float* output)
  53:resources.cpp **** {
  30              		.loc 1 53 1 view -0
  31              		.cfi_startproc
  32              		@ args = 0, pretend = 0, frame = 0
  33              		@ frame_needed = 0, uses_anonymous_args = 0
  54:resources.cpp ****     int n      = LUT_SINE_WINDOW_4096_SIZE;
  34              		.loc 1 54 5 view .LVU1
  55:resources.cpp ****     int start  = 0;
  35              		.loc 1 55 5 view .LVU2
  56:resources.cpp ****     int stride = n / steps;
  36              		.loc 1 56 5 view .LVU3
  53:resources.cpp ****     int n      = LUT_SINE_WINDOW_4096_SIZE;
  37              		.loc 1 53 1 is_stmt 0 view .LVU4
  38 0000 2DE9F043 		push	{r4, r5, r6, r7, r8, r9, lr}
  39              		.cfi_def_cfa_offset 28
  40              		.cfi_offset 4, -28
  41              		.cfi_offset 5, -24
  42              		.cfi_offset 6, -20
  43              		.cfi_offset 7, -16
  44              		.cfi_offset 8, -12
  45              		.cfi_offset 9, -8
  46              		.cfi_offset 14, -4
  47              		.loc 1 56 9 view .LVU5
  48 0004 4FF48058 		mov	r8, #4096
  49 0008 02F58045 		add	r5, r2, #16384
  50 000c 1346     		mov	r3, r2
  51 000e 98FBF1F8 		sdiv	r8, r8, r1
  52              	.LVL1:
  57:resources.cpp **** 
  58:resources.cpp ****     for(int i = 0; i < LUT_SINE_WINDOW_4096_SIZE; i++)
  53              		.loc 1 58 5 is_stmt 1 view .LVU6
  54              	.LBB39:
  55              		.loc 1 58 22 view .LVU7
  56              	.L2:
ARM GAS  /tmp/ccoBMhpm.s 			page 3


  59:resources.cpp ****     {
  60:resources.cpp ****         output[i] = 0.f;
  57              		.loc 1 60 9 discriminator 2 view .LVU8
  58              		.loc 1 60 19 is_stmt 0 discriminator 2 view .LVU9
  59 0012 0024     		movs	r4, #0
  60 0014 43F8044B 		str	r4, [r3], #4	@ float
  58:resources.cpp ****     {
  61              		.loc 1 58 5 is_stmt 1 discriminator 2 view .LVU10
  58:resources.cpp ****     {
  62              		.loc 1 58 22 discriminator 2 view .LVU11
  63 0018 AB42     		cmp	r3, r5
  64 001a FAD1     		bne	.L2
  65              	.LVL2:
  58:resources.cpp ****     {
  66              		.loc 1 58 22 is_stmt 0 discriminator 2 view .LVU12
  67              	.LBE39:
  68              	.LBB40:
  61:resources.cpp ****     }
  62:resources.cpp **** 
  63:resources.cpp ****     for(int i = 0; i < steps; i++)
  69              		.loc 1 63 22 is_stmt 1 view .LVU13
  70 001c 0029     		cmp	r1, #0
  71 001e 23DD     		ble	.L1
  72 0020 C8EB8879 		rsb	r9, r8, r8, lsl #30
  73 0024 0026     		movs	r6, #0
  74 0026 00EB8805 		add	r5, r0, r8, lsl #2
  75 002a 9446     		mov	ip, r2
  76 002c 4FEA8909 		lsl	r9, r9, #2
  77              		.loc 1 63 13 is_stmt 0 view .LVU14
  78 0030 3746     		mov	r7, r6
  79 0032 4FEA880E 		lsl	lr, r8, #2
  80              	.LVL3:
  81              	.L6:
  82              		.loc 1 63 13 view .LVU15
  83 0036 3346     		mov	r3, r6
  84              	.LVL4:
  85              	.LBB41:
  64:resources.cpp ****     {
  65:resources.cpp ****         for(int j = start; j < start + stride; j++)
  86              		.loc 1 65 30 is_stmt 1 view .LVU16
  87 0038 4644     		add	r6, r6, r8
  88 003a B342     		cmp	r3, r6
  89 003c 0FDA     		bge	.L7
  90 003e 05EB0900 		add	r0, r5, r9
  91 0042 6446     		mov	r4, ip
  92 0044 1346     		mov	r3, r2
  93              	.LVL5:
  94              	.L8:
  66:resources.cpp ****         {
  67:resources.cpp ****             output[j - start] += powf(window[j], 2.f);
  95              		.loc 1 67 13 discriminator 2 view .LVU17
  96              		.loc 1 67 38 is_stmt 0 discriminator 2 view .LVU18
  97 0046 B0EC017A 		vldmia.32	r0!, {s14}
  98              		.loc 1 67 31 discriminator 2 view .LVU19
  99 004a D3ED007A 		vldr.32	s15, [r3]
  65:resources.cpp ****         {
 100              		.loc 1 65 30 discriminator 2 view .LVU20
ARM GAS  /tmp/ccoBMhpm.s 			page 4


 101 004e A842     		cmp	r0, r5
 102              		.loc 1 67 31 discriminator 2 view .LVU21
 103 0050 E7EE077A 		vfma.f32	s15, s14, s14
 104 0054 E3EC017A 		vstmia.32	r3!, {s15}
  68:resources.cpp ****             output[j] = output[j - start];
 105              		.loc 1 68 13 is_stmt 1 discriminator 2 view .LVU22
 106              		.loc 1 68 23 is_stmt 0 discriminator 2 view .LVU23
 107 0058 E4EC017A 		vstmia.32	r4!, {s15}
  65:resources.cpp ****         {
 108              		.loc 1 65 9 is_stmt 1 discriminator 2 view .LVU24
  65:resources.cpp ****         {
 109              		.loc 1 65 30 discriminator 2 view .LVU25
 110 005c F3D1     		bne	.L8
 111              	.L7:
  65:resources.cpp ****         {
 112              		.loc 1 65 30 is_stmt 0 discriminator 2 view .LVU26
 113              	.LBE41:
 114              	.LBE40:
  69:resources.cpp ****         }
  70:resources.cpp **** 
  71:resources.cpp ****         start += stride;
 115              		.loc 1 71 9 is_stmt 1 view .LVU27
 116              	.LBB42:
  63:resources.cpp ****     {
 117              		.loc 1 63 5 view .LVU28
 118 005e 0137     		adds	r7, r7, #1
 119              	.LVL6:
  63:resources.cpp ****     {
 120              		.loc 1 63 22 view .LVU29
 121 0060 F444     		add	ip, ip, lr
 122 0062 7544     		add	r5, r5, lr
 123 0064 B942     		cmp	r1, r7
 124 0066 E6D1     		bne	.L6
 125              	.LVL7:
 126              	.L1:
  63:resources.cpp ****     {
 127              		.loc 1 63 22 is_stmt 0 view .LVU30
 128              	.LBE42:
  72:resources.cpp ****     }
  73:resources.cpp **** }
 129              		.loc 1 73 1 view .LVU31
 130 0068 BDE8F083 		pop	{r4, r5, r6, r7, r8, r9, pc}
 131              		.loc 1 73 1 view .LVU32
 132              		.cfi_endproc
 133              	.LFE4203:
 135              		.section	.text._Z13InitResourcesf,"ax",%progbits
 136              		.align	1
 137              		.p2align 2,,3
 138              		.global	_Z13InitResourcesf
 139              		.syntax unified
 140              		.thumb
 141              		.thumb_func
 142              		.fpu fpv5-d16
 144              	_Z13InitResourcesf:
 145              	.LVL8:
 146              	.LFB4205:
  74:resources.cpp **** 
ARM GAS  /tmp/ccoBMhpm.s 			page 5


  75:resources.cpp **** //helper for ulaw encoding
  76:resources.cpp **** inline short MuLaw2Lin(uint8_t u_val)
  77:resources.cpp **** {
  78:resources.cpp ****     int16_t t;
  79:resources.cpp ****     u_val = ~u_val;
  80:resources.cpp ****     t     = ((u_val & 0xf) << 3) + 0x84;
  81:resources.cpp ****     t <<= ((unsigned)u_val & 0x70) >> 4;
  82:resources.cpp ****     return ((u_val & 0x80) ? (0x84 - t) : (t - 0x84));
  83:resources.cpp **** }
  84:resources.cpp **** 
  85:resources.cpp **** //init all the luts
  86:resources.cpp **** void InitResources(float sample_rate)
  87:resources.cpp **** {
 147              		.loc 1 87 1 is_stmt 1 view -0
 148              		.cfi_startproc
 149              		@ args = 0, pretend = 0, frame = 16384
 150              		@ frame_needed = 0, uses_anonymous_args = 0
  88:resources.cpp ****     // lut_ulaw
  89:resources.cpp ****     for(int i = 0; i < LUT_ULAW_SIZE; i++)
 151              		.loc 1 89 5 view .LVU34
 152              	.LBB43:
 153              		.loc 1 89 22 view .LVU35
 154              	.LBE43:
  87:resources.cpp ****     // lut_ulaw
 155              		.loc 1 87 1 is_stmt 0 view .LVU36
 156 0000 F0B5     		push	{r4, r5, r6, r7, lr}
 157              		.cfi_def_cfa_offset 20
 158              		.cfi_offset 4, -20
 159              		.cfi_offset 5, -16
 160              		.cfi_offset 6, -12
 161              		.cfi_offset 7, -8
 162              		.cfi_offset 14, -4
 163 0002 2DED028B 		vpush.64	{d8}
 164              		.cfi_def_cfa_offset 28
 165              		.cfi_offset 80, -28
 166              		.cfi_offset 81, -24
 167 0006 ADF5804D 		sub	sp, sp, #16384
 168              		.cfi_def_cfa_offset 16412
 169 000a 9B48     		ldr	r0, .L35+32
 170 000c FF21     		movs	r1, #255
 171 000e 81B0     		sub	sp, sp, #4
 172              		.cfi_def_cfa_offset 16416
 173              	.LVL9:
 174              	.L15:
 175              	.LBB46:
  90:resources.cpp ****     {
  91:resources.cpp ****         lut_ulaw[i] = MuLaw2Lin(i);
 176              		.loc 1 91 9 is_stmt 1 discriminator 2 view .LVU37
 177              	.LBB44:
 178              	.LBI44:
  76:resources.cpp **** {
 179              		.loc 1 76 14 discriminator 2 view .LVU38
 180              	.LBB45:
  78:resources.cpp ****     u_val = ~u_val;
 181              		.loc 1 78 5 discriminator 2 view .LVU39
  79:resources.cpp ****     t     = ((u_val & 0xf) << 3) + 0x84;
 182              		.loc 1 79 5 discriminator 2 view .LVU40
ARM GAS  /tmp/ccoBMhpm.s 			page 6


  80:resources.cpp ****     t <<= ((unsigned)u_val & 0x70) >> 4;
 183              		.loc 1 80 5 discriminator 2 view .LVU41
  81:resources.cpp ****     return ((u_val & 0x80) ? (0x84 - t) : (t - 0x84));
 184              		.loc 1 81 5 discriminator 2 view .LVU42
  80:resources.cpp ****     t <<= ((unsigned)u_val & 0x70) >> 4;
 185              		.loc 1 80 28 is_stmt 0 discriminator 2 view .LVU43
 186 0010 CA00     		lsls	r2, r1, #3
  81:resources.cpp ****     return ((u_val & 0x80) ? (0x84 - t) : (t - 0x84));
 187              		.loc 1 81 36 discriminator 2 view .LVU44
 188 0012 C1F30213 		ubfx	r3, r1, #4, #3
  82:resources.cpp **** }
 189              		.loc 1 82 53 discriminator 2 view .LVU45
 190 0016 11F0800F 		tst	r1, #128
 191 001a 01F1FF31 		add	r1, r1, #-1
 192              	.LVL10:
  80:resources.cpp ****     t <<= ((unsigned)u_val & 0x70) >> 4;
 193              		.loc 1 80 28 discriminator 2 view .LVU46
 194 001e 02F07802 		and	r2, r2, #120
  81:resources.cpp ****     return ((u_val & 0x80) ? (0x84 - t) : (t - 0x84));
 195              		.loc 1 81 7 discriminator 2 view .LVU47
 196 0022 02F18402 		add	r2, r2, #132
 197 0026 02FA03F3 		lsl	r3, r2, r3
 198              	.LVL11:
  82:resources.cpp **** }
 199              		.loc 1 82 5 is_stmt 1 discriminator 2 view .LVU48
  82:resources.cpp **** }
 200              		.loc 1 82 46 is_stmt 0 discriminator 2 view .LVU49
 201 002a A3F18402 		sub	r2, r3, #132
  82:resources.cpp **** }
 202              		.loc 1 82 36 discriminator 2 view .LVU50
 203 002e C3F18403 		rsb	r3, r3, #132
 204              	.LVL12:
  82:resources.cpp **** }
 205              		.loc 1 82 53 discriminator 2 view .LVU51
 206 0032 0CBF     		ite	eq
 207 0034 13B2     		sxtheq	r3, r2
  82:resources.cpp **** }
 208              		.loc 1 82 53 discriminator 2 view .LVU52
 209 0036 1BB2     		sxthne	r3, r3
 210              	.LBE45:
 211              	.LBE44:
 212              		.loc 1 91 21 discriminator 2 view .LVU53
 213 0038 20F8023F 		strh	r3, [r0, #2]!	@ movhi
  89:resources.cpp ****     {
 214              		.loc 1 89 5 is_stmt 1 discriminator 2 view .LVU54
 215              	.LVL13:
  89:resources.cpp ****     {
 216              		.loc 1 89 22 discriminator 2 view .LVU55
 217 003c 4B1C     		adds	r3, r1, #1
 218 003e E7D1     		bne	.L15
 219 0040 8E4C     		ldr	r4, .L35+36
 220              	.LBE46:
 221              	.LBB47:
  92:resources.cpp ****     }
  93:resources.cpp **** 
  94:resources.cpp ****     // lut_pitch_ratio_high + lut_pitch_ratio_low
  95:resources.cpp ****     for(int i = 0; i < LUT_PITCH_RATIO_HIGH_SIZE; i++)
ARM GAS  /tmp/ccoBMhpm.s 			page 7


 222              		.loc 1 95 13 is_stmt 0 view .LVU56
 223 0042 0025     		movs	r5, #0
 224 0044 8E4E     		ldr	r6, .L35+40
 225 0046 04F58067 		add	r7, r4, #1024
 226              	.LVL14:
 227              	.L16:
 228              	.LBB48:
  96:resources.cpp ****     {
  97:resources.cpp ****         float ratio             = (float)i - 128.f;
 229              		.loc 1 97 9 is_stmt 1 discriminator 2 view .LVU57
 230              		.loc 1 97 35 is_stmt 0 discriminator 2 view .LVU58
 231 004a 07EE905A 		vmov	s15, r5	@ int
  98:resources.cpp ****         ratio                   = powf(2.f, ratio / 12.f);
 232              		.loc 1 98 39 discriminator 2 view .LVU59
 233 004e F2EE080A 		vmov.f32	s1, #1.2e+1
 234 0052 B0EE000A 		vmov.f32	s0, #2.0e+0
 235              	.LBE48:
  95:resources.cpp ****     {
 236              		.loc 1 95 5 discriminator 2 view .LVU60
 237 0056 0135     		adds	r5, r5, #1
 238              	.LVL15:
 239              	.LBB49:
  97:resources.cpp ****         ratio                   = powf(2.f, ratio / 12.f);
 240              		.loc 1 97 35 discriminator 2 view .LVU61
 241 0058 B8EEE78A 		vcvt.f32.s32	s16, s15
 242              	.LVL16:
 243              		.loc 1 98 9 is_stmt 1 discriminator 2 view .LVU62
  97:resources.cpp ****         ratio                   = powf(2.f, ratio / 12.f);
 244              		.loc 1 97 15 is_stmt 0 discriminator 2 view .LVU63
 245 005c DFED897A 		vldr.32	s15, .L35+44
 246              	.LVL17:
  97:resources.cpp ****         ratio                   = powf(2.f, ratio / 12.f);
 247              		.loc 1 97 15 discriminator 2 view .LVU64
 248 0060 78EE677A 		vsub.f32	s15, s16, s15
 249              	.LVL18:
 250              		.loc 1 98 39 discriminator 2 view .LVU65
 251 0064 C7EEA00A 		vdiv.f32	s1, s15, s1
 252 0068 FFF7FEFF 		bl	powf
 253              	.LVL19:
  99:resources.cpp ****         float semitone          = powf(2.f, (float)i / 256.0 / 12.0);
 254              		.loc 1 99 45 discriminator 2 view .LVU66
 255 006c B7EEC87A 		vcvt.f64.f32	d7, s16
 256              		.loc 1 99 62 discriminator 2 view .LVU67
 257 0070 B2EE085B 		vmov.f64	d5, #1.2e+1
  98:resources.cpp ****         float semitone          = powf(2.f, (float)i / 256.0 / 12.0);
 258              		.loc 1 98 39 discriminator 2 view .LVU68
 259 0074 F0EE408A 		vmov.f32	s17, s0
 260              	.LVL20:
 261              		.loc 1 99 9 is_stmt 1 discriminator 2 view .LVU69
 262              		.loc 1 99 39 is_stmt 0 discriminator 2 view .LVU70
 263 0078 B0EE000A 		vmov.f32	s0, #2.0e+0
 264              	.LVL21:
 265              		.loc 1 99 54 discriminator 2 view .LVU71
 266 007c 9FED766B 		vldr.64	d6, .L35
 267 0080 27EE067B 		vmul.f64	d7, d7, d6
 268              		.loc 1 99 62 discriminator 2 view .LVU72
 269 0084 87EE056B 		vdiv.f64	d6, d7, d5
ARM GAS  /tmp/ccoBMhpm.s 			page 8


 270              		.loc 1 99 39 discriminator 2 view .LVU73
 271 0088 F7EEC60B 		vcvt.f32.f64	s1, d6
 272 008c FFF7FEFF 		bl	powf
 273              	.LVL22:
 100:resources.cpp ****         lut_pitch_ratio_high[i] = ratio;
 274              		.loc 1 100 9 is_stmt 1 discriminator 2 view .LVU74
 275              		.loc 1 100 33 is_stmt 0 discriminator 2 view .LVU75
 276 0090 E4EC018A 		vstmia.32	r4!, {s17}
 101:resources.cpp ****         lut_pitch_ratio_low[i]  = semitone;
 277              		.loc 1 101 9 is_stmt 1 discriminator 2 view .LVU76
 278              	.LBE49:
  95:resources.cpp ****     {
 279              		.loc 1 95 22 is_stmt 0 discriminator 2 view .LVU77
 280 0094 A742     		cmp	r7, r4
 281              	.LBB50:
 282              		.loc 1 101 33 discriminator 2 view .LVU78
 283 0096 A6EC010A 		vstmia.32	r6!, {s0}
 284              	.LBE50:
  95:resources.cpp ****     {
 285              		.loc 1 95 5 is_stmt 1 discriminator 2 view .LVU79
 286              	.LVL23:
  95:resources.cpp ****     {
 287              		.loc 1 95 22 discriminator 2 view .LVU80
 288 009a D6D1     		bne	.L16
 289 009c 7A4D     		ldr	r5, .L35+48
 290              	.LVL24:
  95:resources.cpp ****     {
 291              		.loc 1 95 22 is_stmt 0 discriminator 2 view .LVU81
 292              	.LBE47:
 293              	.LBB51:
 102:resources.cpp ****     }
 103:resources.cpp **** 
 104:resources.cpp ****     // atan_lut
 105:resources.cpp ****     for(size_t i = 0; i < ATAN_LUT_SIZE; ++i)
 294              		.loc 1 105 16 view .LVU82
 295 009e 0024     		movs	r4, #0
 296              	.LVL25:
 297              	.L17:
 106:resources.cpp ****     {
 107:resources.cpp ****         atan_lut[i] = 65536.0 / (2 * PI_F) * asinf(i / 512.0f);
 298              		.loc 1 107 9 is_stmt 1 discriminator 2 view .LVU83
 299              		.loc 1 107 51 is_stmt 0 discriminator 2 view .LVU84
 300 00a0 00EE104A 		vmov	s0, r4	@ int
 105:resources.cpp ****     {
 301              		.loc 1 105 5 discriminator 2 view .LVU85
 302 00a4 0134     		adds	r4, r4, #1
 303              	.LVL26:
 304              		.loc 1 107 51 discriminator 2 view .LVU86
 305 00a6 BAEEEB0A 		vcvt.f32.s32	s0, s0, #9
 306              	.LVL27:
 307              		.loc 1 107 51 discriminator 2 view .LVU87
 308 00aa FFF7FEFF 		bl	asinf
 309              	.LVL28:
 310 00ae B7EEC00A 		vcvt.f64.f32	d0, s0
 105:resources.cpp ****     {
 311              		.loc 1 105 25 discriminator 2 view .LVU88
 312 00b2 40F20123 		movw	r3, #513
ARM GAS  /tmp/ccoBMhpm.s 			page 9


 313              		.loc 1 107 44 discriminator 2 view .LVU89
 314 00b6 9FED6A7B 		vldr.64	d7, .L35+8
 105:resources.cpp ****     {
 315              		.loc 1 105 25 discriminator 2 view .LVU90
 316 00ba 9C42     		cmp	r4, r3
 317              		.loc 1 107 44 discriminator 2 view .LVU91
 318 00bc 20EE070B 		vmul.f64	d0, d0, d7
 319              		.loc 1 107 21 discriminator 2 view .LVU92
 320 00c0 BCEEC00B 		vcvt.u32.f64	s0, d0
 321 00c4 10EE102A 		vmov	r2, s0	@ int
 322 00c8 25F8022F 		strh	r2, [r5, #2]!	@ movhi
 105:resources.cpp ****     {
 323              		.loc 1 105 5 is_stmt 1 discriminator 2 view .LVU93
 324              	.LVL29:
 105:resources.cpp ****     {
 325              		.loc 1 105 25 discriminator 2 view .LVU94
 326 00cc E8D1     		bne	.L17
 327 00ce 6F4C     		ldr	r4, .L35+52
 328              	.LVL30:
 105:resources.cpp ****     {
 329              		.loc 1 105 25 is_stmt 0 discriminator 2 view .LVU95
 330              	.LBE51:
 331              	.LBB52:
 108:resources.cpp ****     }
 109:resources.cpp **** 
 110:resources.cpp ****     // lut_sin
 111:resources.cpp ****     for(int i = 0; i < LUT_SIN_SIZE; i++)
 332              		.loc 1 111 13 view .LVU96
 333 00d0 0025     		movs	r5, #0
 334 00d2 6F4E     		ldr	r6, .L35+56
 335              	.LBE52:
 336              	.LBB56:
 105:resources.cpp ****     {
 337              		.loc 1 105 25 view .LVU97
 338 00d4 9FED6F0A 		vldr.32	s0, .L35+60
 339 00d8 07E0     		b	.L20
 340              	.LVL31:
 341              	.L18:
 105:resources.cpp ****     {
 342              		.loc 1 105 25 view .LVU98
 343 00da 00EE105A 		vmov	s0, r5	@ int
 344 00de BAEECB0A 		vcvt.f32.s32	s0, s0, #10
 345 00e2 20EE270A 		vmul.f32	s0, s0, s15
 346 00e6 FFF7FEFF 		bl	sinf
 347              	.LVL32:
 348              	.L20:
 105:resources.cpp ****     {
 349              		.loc 1 105 25 view .LVU99
 350              	.LBE56:
 351              	.LBB57:
 352              	.LBB53:
 112:resources.cpp ****     {
 113:resources.cpp ****         float t    = (float)i / 1024.f * TWOPI_F;
 353              		.loc 1 113 9 is_stmt 1 discriminator 2 view .LVU100
 114:resources.cpp ****         lut_sin[i] = sin(t);
 354              		.loc 1 114 9 discriminator 2 view .LVU101
 355              	.LBB54:
ARM GAS  /tmp/ccoBMhpm.s 			page 10


 356              	.LBI54:
 357              		.file 2 "/usr/include/newlib/c++/9.2.1/cmath"
   1:/usr/include/newlib/c++/9.2.1/cmath **** // -*- C++ -*- C forwarding header.
   2:/usr/include/newlib/c++/9.2.1/cmath **** 
   3:/usr/include/newlib/c++/9.2.1/cmath **** // Copyright (C) 1997-2019 Free Software Foundation, Inc.
   4:/usr/include/newlib/c++/9.2.1/cmath **** //
   5:/usr/include/newlib/c++/9.2.1/cmath **** // This file is part of the GNU ISO C++ Library.  This library is free
   6:/usr/include/newlib/c++/9.2.1/cmath **** // software; you can redistribute it and/or modify it under the
   7:/usr/include/newlib/c++/9.2.1/cmath **** // terms of the GNU General Public License as published by the
   8:/usr/include/newlib/c++/9.2.1/cmath **** // Free Software Foundation; either version 3, or (at your option)
   9:/usr/include/newlib/c++/9.2.1/cmath **** // any later version.
  10:/usr/include/newlib/c++/9.2.1/cmath **** 
  11:/usr/include/newlib/c++/9.2.1/cmath **** // This library is distributed in the hope that it will be useful,
  12:/usr/include/newlib/c++/9.2.1/cmath **** // but WITHOUT ANY WARRANTY; without even the implied warranty of
  13:/usr/include/newlib/c++/9.2.1/cmath **** // MERCHANTABILITY or FITNESS FOR A PARTICULAR PURPOSE.  See the
  14:/usr/include/newlib/c++/9.2.1/cmath **** // GNU General Public License for more details.
  15:/usr/include/newlib/c++/9.2.1/cmath **** 
  16:/usr/include/newlib/c++/9.2.1/cmath **** // Under Section 7 of GPL version 3, you are granted additional
  17:/usr/include/newlib/c++/9.2.1/cmath **** // permissions described in the GCC Runtime Library Exception, version
  18:/usr/include/newlib/c++/9.2.1/cmath **** // 3.1, as published by the Free Software Foundation.
  19:/usr/include/newlib/c++/9.2.1/cmath **** 
  20:/usr/include/newlib/c++/9.2.1/cmath **** // You should have received a copy of the GNU General Public License and
  21:/usr/include/newlib/c++/9.2.1/cmath **** // a copy of the GCC Runtime Library Exception along with this program;
  22:/usr/include/newlib/c++/9.2.1/cmath **** // see the files COPYING3 and COPYING.RUNTIME respectively.  If not, see
  23:/usr/include/newlib/c++/9.2.1/cmath **** // <http://www.gnu.org/licenses/>.
  24:/usr/include/newlib/c++/9.2.1/cmath **** 
  25:/usr/include/newlib/c++/9.2.1/cmath **** /** @file include/cmath
  26:/usr/include/newlib/c++/9.2.1/cmath ****  *  This is a Standard C++ Library file.  You should @c \#include this file
  27:/usr/include/newlib/c++/9.2.1/cmath ****  *  in your programs, rather than any of the @a *.h implementation files.
  28:/usr/include/newlib/c++/9.2.1/cmath ****  *
  29:/usr/include/newlib/c++/9.2.1/cmath ****  *  This is the C++ version of the Standard C Library header @c math.h,
  30:/usr/include/newlib/c++/9.2.1/cmath ****  *  and its contents are (mostly) the same as that header, but are all
  31:/usr/include/newlib/c++/9.2.1/cmath ****  *  contained in the namespace @c std (except for names which are defined
  32:/usr/include/newlib/c++/9.2.1/cmath ****  *  as macros in C).
  33:/usr/include/newlib/c++/9.2.1/cmath ****  */
  34:/usr/include/newlib/c++/9.2.1/cmath **** 
  35:/usr/include/newlib/c++/9.2.1/cmath **** //
  36:/usr/include/newlib/c++/9.2.1/cmath **** // ISO C++ 14882: 26.5  C library
  37:/usr/include/newlib/c++/9.2.1/cmath **** //
  38:/usr/include/newlib/c++/9.2.1/cmath **** 
  39:/usr/include/newlib/c++/9.2.1/cmath **** #pragma GCC system_header
  40:/usr/include/newlib/c++/9.2.1/cmath **** 
  41:/usr/include/newlib/c++/9.2.1/cmath **** #include <bits/c++config.h>
  42:/usr/include/newlib/c++/9.2.1/cmath **** #include <bits/cpp_type_traits.h>
  43:/usr/include/newlib/c++/9.2.1/cmath **** #include <ext/type_traits.h>
  44:/usr/include/newlib/c++/9.2.1/cmath **** #define _GLIBCXX_INCLUDE_NEXT_C_HEADERS
  45:/usr/include/newlib/c++/9.2.1/cmath **** #include_next <math.h>
  46:/usr/include/newlib/c++/9.2.1/cmath **** #undef _GLIBCXX_INCLUDE_NEXT_C_HEADERS
  47:/usr/include/newlib/c++/9.2.1/cmath **** #include <bits/std_abs.h>
  48:/usr/include/newlib/c++/9.2.1/cmath **** 
  49:/usr/include/newlib/c++/9.2.1/cmath **** #ifndef _GLIBCXX_CMATH
  50:/usr/include/newlib/c++/9.2.1/cmath **** #define _GLIBCXX_CMATH 1
  51:/usr/include/newlib/c++/9.2.1/cmath **** 
  52:/usr/include/newlib/c++/9.2.1/cmath **** // Get rid of those macros defined in <math.h> in lieu of real functions.
  53:/usr/include/newlib/c++/9.2.1/cmath **** #undef div
  54:/usr/include/newlib/c++/9.2.1/cmath **** #undef acos
  55:/usr/include/newlib/c++/9.2.1/cmath **** #undef asin
ARM GAS  /tmp/ccoBMhpm.s 			page 11


  56:/usr/include/newlib/c++/9.2.1/cmath **** #undef atan
  57:/usr/include/newlib/c++/9.2.1/cmath **** #undef atan2
  58:/usr/include/newlib/c++/9.2.1/cmath **** #undef ceil
  59:/usr/include/newlib/c++/9.2.1/cmath **** #undef cos
  60:/usr/include/newlib/c++/9.2.1/cmath **** #undef cosh
  61:/usr/include/newlib/c++/9.2.1/cmath **** #undef exp
  62:/usr/include/newlib/c++/9.2.1/cmath **** #undef fabs
  63:/usr/include/newlib/c++/9.2.1/cmath **** #undef floor
  64:/usr/include/newlib/c++/9.2.1/cmath **** #undef fmod
  65:/usr/include/newlib/c++/9.2.1/cmath **** #undef frexp
  66:/usr/include/newlib/c++/9.2.1/cmath **** #undef ldexp
  67:/usr/include/newlib/c++/9.2.1/cmath **** #undef log
  68:/usr/include/newlib/c++/9.2.1/cmath **** #undef log10
  69:/usr/include/newlib/c++/9.2.1/cmath **** #undef modf
  70:/usr/include/newlib/c++/9.2.1/cmath **** #undef pow
  71:/usr/include/newlib/c++/9.2.1/cmath **** #undef sin
  72:/usr/include/newlib/c++/9.2.1/cmath **** #undef sinh
  73:/usr/include/newlib/c++/9.2.1/cmath **** #undef sqrt
  74:/usr/include/newlib/c++/9.2.1/cmath **** #undef tan
  75:/usr/include/newlib/c++/9.2.1/cmath **** #undef tanh
  76:/usr/include/newlib/c++/9.2.1/cmath **** 
  77:/usr/include/newlib/c++/9.2.1/cmath **** extern "C++"
  78:/usr/include/newlib/c++/9.2.1/cmath **** {
  79:/usr/include/newlib/c++/9.2.1/cmath **** namespace std _GLIBCXX_VISIBILITY(default)
  80:/usr/include/newlib/c++/9.2.1/cmath **** {
  81:/usr/include/newlib/c++/9.2.1/cmath **** _GLIBCXX_BEGIN_NAMESPACE_VERSION
  82:/usr/include/newlib/c++/9.2.1/cmath **** 
  83:/usr/include/newlib/c++/9.2.1/cmath ****   using ::acos;
  84:/usr/include/newlib/c++/9.2.1/cmath **** 
  85:/usr/include/newlib/c++/9.2.1/cmath **** #ifndef __CORRECT_ISO_CPP_MATH_H_PROTO
  86:/usr/include/newlib/c++/9.2.1/cmath ****   inline _GLIBCXX_CONSTEXPR float
  87:/usr/include/newlib/c++/9.2.1/cmath ****   acos(float __x)
  88:/usr/include/newlib/c++/9.2.1/cmath ****   { return __builtin_acosf(__x); }
  89:/usr/include/newlib/c++/9.2.1/cmath **** 
  90:/usr/include/newlib/c++/9.2.1/cmath ****   inline _GLIBCXX_CONSTEXPR long double
  91:/usr/include/newlib/c++/9.2.1/cmath ****   acos(long double __x)
  92:/usr/include/newlib/c++/9.2.1/cmath ****   { return __builtin_acosl(__x); }
  93:/usr/include/newlib/c++/9.2.1/cmath **** #endif
  94:/usr/include/newlib/c++/9.2.1/cmath **** 
  95:/usr/include/newlib/c++/9.2.1/cmath ****   template<typename _Tp>
  96:/usr/include/newlib/c++/9.2.1/cmath ****     inline _GLIBCXX_CONSTEXPR
  97:/usr/include/newlib/c++/9.2.1/cmath ****     typename __gnu_cxx::__enable_if<__is_integer<_Tp>::__value, 
  98:/usr/include/newlib/c++/9.2.1/cmath ****                                     double>::__type
  99:/usr/include/newlib/c++/9.2.1/cmath ****     acos(_Tp __x)
 100:/usr/include/newlib/c++/9.2.1/cmath ****     { return __builtin_acos(__x); }
 101:/usr/include/newlib/c++/9.2.1/cmath **** 
 102:/usr/include/newlib/c++/9.2.1/cmath ****   using ::asin;
 103:/usr/include/newlib/c++/9.2.1/cmath **** 
 104:/usr/include/newlib/c++/9.2.1/cmath **** #ifndef __CORRECT_ISO_CPP_MATH_H_PROTO
 105:/usr/include/newlib/c++/9.2.1/cmath ****   inline _GLIBCXX_CONSTEXPR float
 106:/usr/include/newlib/c++/9.2.1/cmath ****   asin(float __x)
 107:/usr/include/newlib/c++/9.2.1/cmath ****   { return __builtin_asinf(__x); }
 108:/usr/include/newlib/c++/9.2.1/cmath **** 
 109:/usr/include/newlib/c++/9.2.1/cmath ****   inline _GLIBCXX_CONSTEXPR long double
 110:/usr/include/newlib/c++/9.2.1/cmath ****   asin(long double __x)
 111:/usr/include/newlib/c++/9.2.1/cmath ****   { return __builtin_asinl(__x); }
 112:/usr/include/newlib/c++/9.2.1/cmath **** #endif
ARM GAS  /tmp/ccoBMhpm.s 			page 12


 113:/usr/include/newlib/c++/9.2.1/cmath **** 
 114:/usr/include/newlib/c++/9.2.1/cmath ****   template<typename _Tp>
 115:/usr/include/newlib/c++/9.2.1/cmath ****     inline _GLIBCXX_CONSTEXPR
 116:/usr/include/newlib/c++/9.2.1/cmath ****     typename __gnu_cxx::__enable_if<__is_integer<_Tp>::__value,
 117:/usr/include/newlib/c++/9.2.1/cmath ****                                     double>::__type
 118:/usr/include/newlib/c++/9.2.1/cmath ****     asin(_Tp __x)
 119:/usr/include/newlib/c++/9.2.1/cmath ****     { return __builtin_asin(__x); }
 120:/usr/include/newlib/c++/9.2.1/cmath **** 
 121:/usr/include/newlib/c++/9.2.1/cmath ****   using ::atan;
 122:/usr/include/newlib/c++/9.2.1/cmath **** 
 123:/usr/include/newlib/c++/9.2.1/cmath **** #ifndef __CORRECT_ISO_CPP_MATH_H_PROTO
 124:/usr/include/newlib/c++/9.2.1/cmath ****   inline _GLIBCXX_CONSTEXPR float
 125:/usr/include/newlib/c++/9.2.1/cmath ****   atan(float __x)
 126:/usr/include/newlib/c++/9.2.1/cmath ****   { return __builtin_atanf(__x); }
 127:/usr/include/newlib/c++/9.2.1/cmath **** 
 128:/usr/include/newlib/c++/9.2.1/cmath ****   inline _GLIBCXX_CONSTEXPR long double
 129:/usr/include/newlib/c++/9.2.1/cmath ****   atan(long double __x)
 130:/usr/include/newlib/c++/9.2.1/cmath ****   { return __builtin_atanl(__x); }
 131:/usr/include/newlib/c++/9.2.1/cmath **** #endif
 132:/usr/include/newlib/c++/9.2.1/cmath **** 
 133:/usr/include/newlib/c++/9.2.1/cmath ****   template<typename _Tp>
 134:/usr/include/newlib/c++/9.2.1/cmath ****     inline _GLIBCXX_CONSTEXPR
 135:/usr/include/newlib/c++/9.2.1/cmath ****     typename __gnu_cxx::__enable_if<__is_integer<_Tp>::__value,
 136:/usr/include/newlib/c++/9.2.1/cmath ****                                     double>::__type
 137:/usr/include/newlib/c++/9.2.1/cmath ****     atan(_Tp __x)
 138:/usr/include/newlib/c++/9.2.1/cmath ****     { return __builtin_atan(__x); }
 139:/usr/include/newlib/c++/9.2.1/cmath **** 
 140:/usr/include/newlib/c++/9.2.1/cmath ****   using ::atan2;
 141:/usr/include/newlib/c++/9.2.1/cmath **** 
 142:/usr/include/newlib/c++/9.2.1/cmath **** #ifndef __CORRECT_ISO_CPP_MATH_H_PROTO
 143:/usr/include/newlib/c++/9.2.1/cmath ****   inline _GLIBCXX_CONSTEXPR float
 144:/usr/include/newlib/c++/9.2.1/cmath ****   atan2(float __y, float __x)
 145:/usr/include/newlib/c++/9.2.1/cmath ****   { return __builtin_atan2f(__y, __x); }
 146:/usr/include/newlib/c++/9.2.1/cmath **** 
 147:/usr/include/newlib/c++/9.2.1/cmath ****   inline _GLIBCXX_CONSTEXPR long double
 148:/usr/include/newlib/c++/9.2.1/cmath ****   atan2(long double __y, long double __x)
 149:/usr/include/newlib/c++/9.2.1/cmath ****   { return __builtin_atan2l(__y, __x); }
 150:/usr/include/newlib/c++/9.2.1/cmath **** #endif
 151:/usr/include/newlib/c++/9.2.1/cmath **** 
 152:/usr/include/newlib/c++/9.2.1/cmath ****   template<typename _Tp, typename _Up>
 153:/usr/include/newlib/c++/9.2.1/cmath ****     inline _GLIBCXX_CONSTEXPR
 154:/usr/include/newlib/c++/9.2.1/cmath ****     typename __gnu_cxx::__promote_2<_Tp, _Up>::__type
 155:/usr/include/newlib/c++/9.2.1/cmath ****     atan2(_Tp __y, _Up __x)
 156:/usr/include/newlib/c++/9.2.1/cmath ****     {
 157:/usr/include/newlib/c++/9.2.1/cmath ****       typedef typename __gnu_cxx::__promote_2<_Tp, _Up>::__type __type;
 158:/usr/include/newlib/c++/9.2.1/cmath ****       return atan2(__type(__y), __type(__x));
 159:/usr/include/newlib/c++/9.2.1/cmath ****     }
 160:/usr/include/newlib/c++/9.2.1/cmath **** 
 161:/usr/include/newlib/c++/9.2.1/cmath ****   using ::ceil;
 162:/usr/include/newlib/c++/9.2.1/cmath **** 
 163:/usr/include/newlib/c++/9.2.1/cmath **** #ifndef __CORRECT_ISO_CPP_MATH_H_PROTO
 164:/usr/include/newlib/c++/9.2.1/cmath ****   inline _GLIBCXX_CONSTEXPR float
 165:/usr/include/newlib/c++/9.2.1/cmath ****   ceil(float __x)
 166:/usr/include/newlib/c++/9.2.1/cmath ****   { return __builtin_ceilf(__x); }
 167:/usr/include/newlib/c++/9.2.1/cmath **** 
 168:/usr/include/newlib/c++/9.2.1/cmath ****   inline _GLIBCXX_CONSTEXPR long double
 169:/usr/include/newlib/c++/9.2.1/cmath ****   ceil(long double __x)
ARM GAS  /tmp/ccoBMhpm.s 			page 13


 170:/usr/include/newlib/c++/9.2.1/cmath ****   { return __builtin_ceill(__x); }
 171:/usr/include/newlib/c++/9.2.1/cmath **** #endif
 172:/usr/include/newlib/c++/9.2.1/cmath **** 
 173:/usr/include/newlib/c++/9.2.1/cmath ****   template<typename _Tp>
 174:/usr/include/newlib/c++/9.2.1/cmath ****     inline _GLIBCXX_CONSTEXPR
 175:/usr/include/newlib/c++/9.2.1/cmath ****     typename __gnu_cxx::__enable_if<__is_integer<_Tp>::__value, 
 176:/usr/include/newlib/c++/9.2.1/cmath ****                                     double>::__type
 177:/usr/include/newlib/c++/9.2.1/cmath ****     ceil(_Tp __x)
 178:/usr/include/newlib/c++/9.2.1/cmath ****     { return __builtin_ceil(__x); }
 179:/usr/include/newlib/c++/9.2.1/cmath **** 
 180:/usr/include/newlib/c++/9.2.1/cmath ****   using ::cos;
 181:/usr/include/newlib/c++/9.2.1/cmath **** 
 182:/usr/include/newlib/c++/9.2.1/cmath **** #ifndef __CORRECT_ISO_CPP_MATH_H_PROTO
 183:/usr/include/newlib/c++/9.2.1/cmath ****   inline _GLIBCXX_CONSTEXPR float
 184:/usr/include/newlib/c++/9.2.1/cmath ****   cos(float __x)
 185:/usr/include/newlib/c++/9.2.1/cmath ****   { return __builtin_cosf(__x); }
 186:/usr/include/newlib/c++/9.2.1/cmath **** 
 187:/usr/include/newlib/c++/9.2.1/cmath ****   inline _GLIBCXX_CONSTEXPR long double
 188:/usr/include/newlib/c++/9.2.1/cmath ****   cos(long double __x)
 189:/usr/include/newlib/c++/9.2.1/cmath ****   { return __builtin_cosl(__x); }
 190:/usr/include/newlib/c++/9.2.1/cmath **** #endif
 191:/usr/include/newlib/c++/9.2.1/cmath **** 
 192:/usr/include/newlib/c++/9.2.1/cmath ****   template<typename _Tp>
 193:/usr/include/newlib/c++/9.2.1/cmath ****     inline _GLIBCXX_CONSTEXPR
 194:/usr/include/newlib/c++/9.2.1/cmath ****     typename __gnu_cxx::__enable_if<__is_integer<_Tp>::__value,
 195:/usr/include/newlib/c++/9.2.1/cmath ****                                     double>::__type
 196:/usr/include/newlib/c++/9.2.1/cmath ****     cos(_Tp __x)
 197:/usr/include/newlib/c++/9.2.1/cmath ****     { return __builtin_cos(__x); }
 198:/usr/include/newlib/c++/9.2.1/cmath **** 
 199:/usr/include/newlib/c++/9.2.1/cmath ****   using ::cosh;
 200:/usr/include/newlib/c++/9.2.1/cmath **** 
 201:/usr/include/newlib/c++/9.2.1/cmath **** #ifndef __CORRECT_ISO_CPP_MATH_H_PROTO
 202:/usr/include/newlib/c++/9.2.1/cmath ****   inline _GLIBCXX_CONSTEXPR float
 203:/usr/include/newlib/c++/9.2.1/cmath ****   cosh(float __x)
 204:/usr/include/newlib/c++/9.2.1/cmath ****   { return __builtin_coshf(__x); }
 205:/usr/include/newlib/c++/9.2.1/cmath **** 
 206:/usr/include/newlib/c++/9.2.1/cmath ****   inline _GLIBCXX_CONSTEXPR long double
 207:/usr/include/newlib/c++/9.2.1/cmath ****   cosh(long double __x)
 208:/usr/include/newlib/c++/9.2.1/cmath ****   { return __builtin_coshl(__x); }
 209:/usr/include/newlib/c++/9.2.1/cmath **** #endif
 210:/usr/include/newlib/c++/9.2.1/cmath **** 
 211:/usr/include/newlib/c++/9.2.1/cmath ****   template<typename _Tp>
 212:/usr/include/newlib/c++/9.2.1/cmath ****     inline _GLIBCXX_CONSTEXPR
 213:/usr/include/newlib/c++/9.2.1/cmath ****     typename __gnu_cxx::__enable_if<__is_integer<_Tp>::__value,
 214:/usr/include/newlib/c++/9.2.1/cmath ****                                     double>::__type
 215:/usr/include/newlib/c++/9.2.1/cmath ****     cosh(_Tp __x)
 216:/usr/include/newlib/c++/9.2.1/cmath ****     { return __builtin_cosh(__x); }
 217:/usr/include/newlib/c++/9.2.1/cmath **** 
 218:/usr/include/newlib/c++/9.2.1/cmath ****   using ::exp;
 219:/usr/include/newlib/c++/9.2.1/cmath **** 
 220:/usr/include/newlib/c++/9.2.1/cmath **** #ifndef __CORRECT_ISO_CPP_MATH_H_PROTO
 221:/usr/include/newlib/c++/9.2.1/cmath ****   inline _GLIBCXX_CONSTEXPR float
 222:/usr/include/newlib/c++/9.2.1/cmath ****   exp(float __x)
 223:/usr/include/newlib/c++/9.2.1/cmath ****   { return __builtin_expf(__x); }
 224:/usr/include/newlib/c++/9.2.1/cmath **** 
 225:/usr/include/newlib/c++/9.2.1/cmath ****   inline _GLIBCXX_CONSTEXPR long double
 226:/usr/include/newlib/c++/9.2.1/cmath ****   exp(long double __x)
ARM GAS  /tmp/ccoBMhpm.s 			page 14


 227:/usr/include/newlib/c++/9.2.1/cmath ****   { return __builtin_expl(__x); }
 228:/usr/include/newlib/c++/9.2.1/cmath **** #endif
 229:/usr/include/newlib/c++/9.2.1/cmath **** 
 230:/usr/include/newlib/c++/9.2.1/cmath ****   template<typename _Tp>
 231:/usr/include/newlib/c++/9.2.1/cmath ****     inline _GLIBCXX_CONSTEXPR
 232:/usr/include/newlib/c++/9.2.1/cmath ****     typename __gnu_cxx::__enable_if<__is_integer<_Tp>::__value,
 233:/usr/include/newlib/c++/9.2.1/cmath ****                                     double>::__type
 234:/usr/include/newlib/c++/9.2.1/cmath ****     exp(_Tp __x)
 235:/usr/include/newlib/c++/9.2.1/cmath ****     { return __builtin_exp(__x); }
 236:/usr/include/newlib/c++/9.2.1/cmath **** 
 237:/usr/include/newlib/c++/9.2.1/cmath ****   using ::fabs;
 238:/usr/include/newlib/c++/9.2.1/cmath **** 
 239:/usr/include/newlib/c++/9.2.1/cmath **** #ifndef __CORRECT_ISO_CPP_MATH_H_PROTO
 240:/usr/include/newlib/c++/9.2.1/cmath ****   inline _GLIBCXX_CONSTEXPR float
 241:/usr/include/newlib/c++/9.2.1/cmath ****   fabs(float __x)
 242:/usr/include/newlib/c++/9.2.1/cmath ****   { return __builtin_fabsf(__x); }
 243:/usr/include/newlib/c++/9.2.1/cmath **** 
 244:/usr/include/newlib/c++/9.2.1/cmath ****   inline _GLIBCXX_CONSTEXPR long double
 245:/usr/include/newlib/c++/9.2.1/cmath ****   fabs(long double __x)
 246:/usr/include/newlib/c++/9.2.1/cmath ****   { return __builtin_fabsl(__x); }
 247:/usr/include/newlib/c++/9.2.1/cmath **** #endif
 248:/usr/include/newlib/c++/9.2.1/cmath **** 
 249:/usr/include/newlib/c++/9.2.1/cmath ****   template<typename _Tp>
 250:/usr/include/newlib/c++/9.2.1/cmath ****     inline _GLIBCXX_CONSTEXPR
 251:/usr/include/newlib/c++/9.2.1/cmath ****     typename __gnu_cxx::__enable_if<__is_integer<_Tp>::__value,
 252:/usr/include/newlib/c++/9.2.1/cmath ****                                     double>::__type
 253:/usr/include/newlib/c++/9.2.1/cmath ****     fabs(_Tp __x)
 254:/usr/include/newlib/c++/9.2.1/cmath ****     { return __builtin_fabs(__x); }
 255:/usr/include/newlib/c++/9.2.1/cmath **** 
 256:/usr/include/newlib/c++/9.2.1/cmath ****   using ::floor;
 257:/usr/include/newlib/c++/9.2.1/cmath **** 
 258:/usr/include/newlib/c++/9.2.1/cmath **** #ifndef __CORRECT_ISO_CPP_MATH_H_PROTO
 259:/usr/include/newlib/c++/9.2.1/cmath ****   inline _GLIBCXX_CONSTEXPR float
 260:/usr/include/newlib/c++/9.2.1/cmath ****   floor(float __x)
 261:/usr/include/newlib/c++/9.2.1/cmath ****   { return __builtin_floorf(__x); }
 262:/usr/include/newlib/c++/9.2.1/cmath **** 
 263:/usr/include/newlib/c++/9.2.1/cmath ****   inline _GLIBCXX_CONSTEXPR long double
 264:/usr/include/newlib/c++/9.2.1/cmath ****   floor(long double __x)
 265:/usr/include/newlib/c++/9.2.1/cmath ****   { return __builtin_floorl(__x); }
 266:/usr/include/newlib/c++/9.2.1/cmath **** #endif
 267:/usr/include/newlib/c++/9.2.1/cmath **** 
 268:/usr/include/newlib/c++/9.2.1/cmath ****   template<typename _Tp>
 269:/usr/include/newlib/c++/9.2.1/cmath ****     inline _GLIBCXX_CONSTEXPR
 270:/usr/include/newlib/c++/9.2.1/cmath ****     typename __gnu_cxx::__enable_if<__is_integer<_Tp>::__value,
 271:/usr/include/newlib/c++/9.2.1/cmath ****                                     double>::__type
 272:/usr/include/newlib/c++/9.2.1/cmath ****     floor(_Tp __x)
 273:/usr/include/newlib/c++/9.2.1/cmath ****     { return __builtin_floor(__x); }
 274:/usr/include/newlib/c++/9.2.1/cmath **** 
 275:/usr/include/newlib/c++/9.2.1/cmath ****   using ::fmod;
 276:/usr/include/newlib/c++/9.2.1/cmath **** 
 277:/usr/include/newlib/c++/9.2.1/cmath **** #ifndef __CORRECT_ISO_CPP_MATH_H_PROTO
 278:/usr/include/newlib/c++/9.2.1/cmath ****   inline _GLIBCXX_CONSTEXPR float
 279:/usr/include/newlib/c++/9.2.1/cmath ****   fmod(float __x, float __y)
 280:/usr/include/newlib/c++/9.2.1/cmath ****   { return __builtin_fmodf(__x, __y); }
 281:/usr/include/newlib/c++/9.2.1/cmath **** 
 282:/usr/include/newlib/c++/9.2.1/cmath ****   inline _GLIBCXX_CONSTEXPR long double
 283:/usr/include/newlib/c++/9.2.1/cmath ****   fmod(long double __x, long double __y)
ARM GAS  /tmp/ccoBMhpm.s 			page 15


 284:/usr/include/newlib/c++/9.2.1/cmath ****   { return __builtin_fmodl(__x, __y); }
 285:/usr/include/newlib/c++/9.2.1/cmath **** #endif
 286:/usr/include/newlib/c++/9.2.1/cmath **** 
 287:/usr/include/newlib/c++/9.2.1/cmath ****   template<typename _Tp, typename _Up>
 288:/usr/include/newlib/c++/9.2.1/cmath ****     inline _GLIBCXX_CONSTEXPR
 289:/usr/include/newlib/c++/9.2.1/cmath ****     typename __gnu_cxx::__promote_2<_Tp, _Up>::__type
 290:/usr/include/newlib/c++/9.2.1/cmath ****     fmod(_Tp __x, _Up __y)
 291:/usr/include/newlib/c++/9.2.1/cmath ****     {
 292:/usr/include/newlib/c++/9.2.1/cmath ****       typedef typename __gnu_cxx::__promote_2<_Tp, _Up>::__type __type;
 293:/usr/include/newlib/c++/9.2.1/cmath ****       return fmod(__type(__x), __type(__y));
 294:/usr/include/newlib/c++/9.2.1/cmath ****     }
 295:/usr/include/newlib/c++/9.2.1/cmath **** 
 296:/usr/include/newlib/c++/9.2.1/cmath ****   using ::frexp;
 297:/usr/include/newlib/c++/9.2.1/cmath **** 
 298:/usr/include/newlib/c++/9.2.1/cmath **** #ifndef __CORRECT_ISO_CPP_MATH_H_PROTO
 299:/usr/include/newlib/c++/9.2.1/cmath ****   inline float
 300:/usr/include/newlib/c++/9.2.1/cmath ****   frexp(float __x, int* __exp)
 301:/usr/include/newlib/c++/9.2.1/cmath ****   { return __builtin_frexpf(__x, __exp); }
 302:/usr/include/newlib/c++/9.2.1/cmath **** 
 303:/usr/include/newlib/c++/9.2.1/cmath ****   inline long double
 304:/usr/include/newlib/c++/9.2.1/cmath ****   frexp(long double __x, int* __exp)
 305:/usr/include/newlib/c++/9.2.1/cmath ****   { return __builtin_frexpl(__x, __exp); }
 306:/usr/include/newlib/c++/9.2.1/cmath **** #endif
 307:/usr/include/newlib/c++/9.2.1/cmath **** 
 308:/usr/include/newlib/c++/9.2.1/cmath ****   template<typename _Tp>
 309:/usr/include/newlib/c++/9.2.1/cmath ****     inline _GLIBCXX_CONSTEXPR
 310:/usr/include/newlib/c++/9.2.1/cmath ****     typename __gnu_cxx::__enable_if<__is_integer<_Tp>::__value, 
 311:/usr/include/newlib/c++/9.2.1/cmath ****                                     double>::__type
 312:/usr/include/newlib/c++/9.2.1/cmath ****     frexp(_Tp __x, int* __exp)
 313:/usr/include/newlib/c++/9.2.1/cmath ****     { return __builtin_frexp(__x, __exp); }
 314:/usr/include/newlib/c++/9.2.1/cmath **** 
 315:/usr/include/newlib/c++/9.2.1/cmath ****   using ::ldexp;
 316:/usr/include/newlib/c++/9.2.1/cmath **** 
 317:/usr/include/newlib/c++/9.2.1/cmath **** #ifndef __CORRECT_ISO_CPP_MATH_H_PROTO
 318:/usr/include/newlib/c++/9.2.1/cmath ****   inline _GLIBCXX_CONSTEXPR float
 319:/usr/include/newlib/c++/9.2.1/cmath ****   ldexp(float __x, int __exp)
 320:/usr/include/newlib/c++/9.2.1/cmath ****   { return __builtin_ldexpf(__x, __exp); }
 321:/usr/include/newlib/c++/9.2.1/cmath **** 
 322:/usr/include/newlib/c++/9.2.1/cmath ****   inline _GLIBCXX_CONSTEXPR long double
 323:/usr/include/newlib/c++/9.2.1/cmath ****   ldexp(long double __x, int __exp)
 324:/usr/include/newlib/c++/9.2.1/cmath ****   { return __builtin_ldexpl(__x, __exp); }
 325:/usr/include/newlib/c++/9.2.1/cmath **** #endif
 326:/usr/include/newlib/c++/9.2.1/cmath **** 
 327:/usr/include/newlib/c++/9.2.1/cmath ****   template<typename _Tp>
 328:/usr/include/newlib/c++/9.2.1/cmath ****     inline _GLIBCXX_CONSTEXPR
 329:/usr/include/newlib/c++/9.2.1/cmath ****     typename __gnu_cxx::__enable_if<__is_integer<_Tp>::__value, 
 330:/usr/include/newlib/c++/9.2.1/cmath ****                                     double>::__type
 331:/usr/include/newlib/c++/9.2.1/cmath ****     ldexp(_Tp __x, int __exp)
 332:/usr/include/newlib/c++/9.2.1/cmath ****     { return __builtin_ldexp(__x, __exp); }
 333:/usr/include/newlib/c++/9.2.1/cmath **** 
 334:/usr/include/newlib/c++/9.2.1/cmath ****   using ::log;
 335:/usr/include/newlib/c++/9.2.1/cmath **** 
 336:/usr/include/newlib/c++/9.2.1/cmath **** #ifndef __CORRECT_ISO_CPP_MATH_H_PROTO
 337:/usr/include/newlib/c++/9.2.1/cmath ****   inline _GLIBCXX_CONSTEXPR float
 338:/usr/include/newlib/c++/9.2.1/cmath ****   log(float __x)
 339:/usr/include/newlib/c++/9.2.1/cmath ****   { return __builtin_logf(__x); }
 340:/usr/include/newlib/c++/9.2.1/cmath **** 
ARM GAS  /tmp/ccoBMhpm.s 			page 16


 341:/usr/include/newlib/c++/9.2.1/cmath ****   inline _GLIBCXX_CONSTEXPR long double
 342:/usr/include/newlib/c++/9.2.1/cmath ****   log(long double __x)
 343:/usr/include/newlib/c++/9.2.1/cmath ****   { return __builtin_logl(__x); }
 344:/usr/include/newlib/c++/9.2.1/cmath **** #endif
 345:/usr/include/newlib/c++/9.2.1/cmath **** 
 346:/usr/include/newlib/c++/9.2.1/cmath ****   template<typename _Tp>
 347:/usr/include/newlib/c++/9.2.1/cmath ****     inline _GLIBCXX_CONSTEXPR
 348:/usr/include/newlib/c++/9.2.1/cmath ****     typename __gnu_cxx::__enable_if<__is_integer<_Tp>::__value, 
 349:/usr/include/newlib/c++/9.2.1/cmath ****                                     double>::__type
 350:/usr/include/newlib/c++/9.2.1/cmath ****     log(_Tp __x)
 351:/usr/include/newlib/c++/9.2.1/cmath ****     { return __builtin_log(__x); }
 352:/usr/include/newlib/c++/9.2.1/cmath **** 
 353:/usr/include/newlib/c++/9.2.1/cmath ****   using ::log10;
 354:/usr/include/newlib/c++/9.2.1/cmath **** 
 355:/usr/include/newlib/c++/9.2.1/cmath **** #ifndef __CORRECT_ISO_CPP_MATH_H_PROTO
 356:/usr/include/newlib/c++/9.2.1/cmath ****   inline _GLIBCXX_CONSTEXPR float
 357:/usr/include/newlib/c++/9.2.1/cmath ****   log10(float __x)
 358:/usr/include/newlib/c++/9.2.1/cmath ****   { return __builtin_log10f(__x); }
 359:/usr/include/newlib/c++/9.2.1/cmath **** 
 360:/usr/include/newlib/c++/9.2.1/cmath ****   inline _GLIBCXX_CONSTEXPR long double
 361:/usr/include/newlib/c++/9.2.1/cmath ****   log10(long double __x)
 362:/usr/include/newlib/c++/9.2.1/cmath ****   { return __builtin_log10l(__x); }
 363:/usr/include/newlib/c++/9.2.1/cmath **** #endif
 364:/usr/include/newlib/c++/9.2.1/cmath **** 
 365:/usr/include/newlib/c++/9.2.1/cmath ****   template<typename _Tp>
 366:/usr/include/newlib/c++/9.2.1/cmath ****     inline _GLIBCXX_CONSTEXPR
 367:/usr/include/newlib/c++/9.2.1/cmath ****     typename __gnu_cxx::__enable_if<__is_integer<_Tp>::__value,
 368:/usr/include/newlib/c++/9.2.1/cmath ****                                     double>::__type
 369:/usr/include/newlib/c++/9.2.1/cmath ****     log10(_Tp __x)
 370:/usr/include/newlib/c++/9.2.1/cmath ****     { return __builtin_log10(__x); }
 371:/usr/include/newlib/c++/9.2.1/cmath **** 
 372:/usr/include/newlib/c++/9.2.1/cmath ****   using ::modf;
 373:/usr/include/newlib/c++/9.2.1/cmath **** 
 374:/usr/include/newlib/c++/9.2.1/cmath **** #ifndef __CORRECT_ISO_CPP_MATH_H_PROTO
 375:/usr/include/newlib/c++/9.2.1/cmath ****   inline float
 376:/usr/include/newlib/c++/9.2.1/cmath ****   modf(float __x, float* __iptr)
 377:/usr/include/newlib/c++/9.2.1/cmath ****   { return __builtin_modff(__x, __iptr); }
 378:/usr/include/newlib/c++/9.2.1/cmath **** 
 379:/usr/include/newlib/c++/9.2.1/cmath ****   inline long double
 380:/usr/include/newlib/c++/9.2.1/cmath ****   modf(long double __x, long double* __iptr)
 381:/usr/include/newlib/c++/9.2.1/cmath ****   { return __builtin_modfl(__x, __iptr); }
 382:/usr/include/newlib/c++/9.2.1/cmath **** #endif
 383:/usr/include/newlib/c++/9.2.1/cmath **** 
 384:/usr/include/newlib/c++/9.2.1/cmath ****   using ::pow;
 385:/usr/include/newlib/c++/9.2.1/cmath **** 
 386:/usr/include/newlib/c++/9.2.1/cmath **** #ifndef __CORRECT_ISO_CPP_MATH_H_PROTO
 387:/usr/include/newlib/c++/9.2.1/cmath ****   inline _GLIBCXX_CONSTEXPR float
 388:/usr/include/newlib/c++/9.2.1/cmath ****   pow(float __x, float __y)
 389:/usr/include/newlib/c++/9.2.1/cmath ****   { return __builtin_powf(__x, __y); }
 390:/usr/include/newlib/c++/9.2.1/cmath **** 
 391:/usr/include/newlib/c++/9.2.1/cmath ****   inline _GLIBCXX_CONSTEXPR long double
 392:/usr/include/newlib/c++/9.2.1/cmath ****   pow(long double __x, long double __y)
 393:/usr/include/newlib/c++/9.2.1/cmath ****   { return __builtin_powl(__x, __y); }
 394:/usr/include/newlib/c++/9.2.1/cmath **** 
 395:/usr/include/newlib/c++/9.2.1/cmath **** #if __cplusplus < 201103L
 396:/usr/include/newlib/c++/9.2.1/cmath ****   // _GLIBCXX_RESOLVE_LIB_DEFECTS
 397:/usr/include/newlib/c++/9.2.1/cmath ****   // DR 550. What should the return type of pow(float,int) be?
ARM GAS  /tmp/ccoBMhpm.s 			page 17


 398:/usr/include/newlib/c++/9.2.1/cmath ****   inline double
 399:/usr/include/newlib/c++/9.2.1/cmath ****   pow(double __x, int __i)
 400:/usr/include/newlib/c++/9.2.1/cmath ****   { return __builtin_powi(__x, __i); }
 401:/usr/include/newlib/c++/9.2.1/cmath **** 
 402:/usr/include/newlib/c++/9.2.1/cmath ****   inline float
 403:/usr/include/newlib/c++/9.2.1/cmath ****   pow(float __x, int __n)
 404:/usr/include/newlib/c++/9.2.1/cmath ****   { return __builtin_powif(__x, __n); }
 405:/usr/include/newlib/c++/9.2.1/cmath **** 
 406:/usr/include/newlib/c++/9.2.1/cmath ****   inline long double
 407:/usr/include/newlib/c++/9.2.1/cmath ****   pow(long double __x, int __n)
 408:/usr/include/newlib/c++/9.2.1/cmath ****   { return __builtin_powil(__x, __n); }
 409:/usr/include/newlib/c++/9.2.1/cmath **** #endif
 410:/usr/include/newlib/c++/9.2.1/cmath **** #endif
 411:/usr/include/newlib/c++/9.2.1/cmath **** 
 412:/usr/include/newlib/c++/9.2.1/cmath ****   template<typename _Tp, typename _Up>
 413:/usr/include/newlib/c++/9.2.1/cmath ****     inline _GLIBCXX_CONSTEXPR
 414:/usr/include/newlib/c++/9.2.1/cmath ****     typename __gnu_cxx::__promote_2<_Tp, _Up>::__type
 415:/usr/include/newlib/c++/9.2.1/cmath ****     pow(_Tp __x, _Up __y)
 416:/usr/include/newlib/c++/9.2.1/cmath ****     {
 417:/usr/include/newlib/c++/9.2.1/cmath ****       typedef typename __gnu_cxx::__promote_2<_Tp, _Up>::__type __type;
 418:/usr/include/newlib/c++/9.2.1/cmath ****       return pow(__type(__x), __type(__y));
 419:/usr/include/newlib/c++/9.2.1/cmath ****     }
 420:/usr/include/newlib/c++/9.2.1/cmath **** 
 421:/usr/include/newlib/c++/9.2.1/cmath ****   using ::sin;
 422:/usr/include/newlib/c++/9.2.1/cmath **** 
 423:/usr/include/newlib/c++/9.2.1/cmath **** #ifndef __CORRECT_ISO_CPP_MATH_H_PROTO
 424:/usr/include/newlib/c++/9.2.1/cmath ****   inline _GLIBCXX_CONSTEXPR float
 425:/usr/include/newlib/c++/9.2.1/cmath ****   sin(float __x)
 358              		.loc 2 425 3 discriminator 2 view .LVU102
 359              	.LBE54:
 360              	.LBE53:
 361              	.LBE57:
 426:/usr/include/newlib/c++/9.2.1/cmath ****   { return __builtin_sinf(__x); }
 362              		.loc 2 426 5 discriminator 2 view .LVU103
 363              	.LBB58:
 364              	.LBB55:
 365              		.loc 1 114 20 is_stmt 0 discriminator 2 view .LVU104
 366 00ea A4EC010A 		vstmia.32	r4!, {s0}
 367              	.LBE55:
 111:resources.cpp ****     {
 368              		.loc 1 111 5 is_stmt 1 discriminator 2 view .LVU105
 111:resources.cpp ****     {
 369              		.loc 1 111 22 is_stmt 0 discriminator 2 view .LVU106
 370 00ee A642     		cmp	r6, r4
 371 00f0 DFED697A 		vldr.32	s15, .L35+64
 111:resources.cpp ****     {
 372              		.loc 1 111 5 discriminator 2 view .LVU107
 373 00f4 05F10105 		add	r5, r5, #1
 374              	.LVL33:
 111:resources.cpp ****     {
 375              		.loc 1 111 22 is_stmt 1 discriminator 2 view .LVU108
 376 00f8 EFD1     		bne	.L18
 111:resources.cpp ****     {
 377              		.loc 1 111 22 is_stmt 0 view .LVU109
 378 00fa B7EE000A 		vmov.f32	s0, #1.0e+0
 379 00fe 674C     		ldr	r4, .L35+68
 380 0100 674E     		ldr	r6, .L35+72
ARM GAS  /tmp/ccoBMhpm.s 			page 18


 381              	.LBE58:
 382              	.LBB59:
 115:resources.cpp ****     }
 116:resources.cpp **** 
 117:resources.cpp ****     // lut_window
 118:resources.cpp ****     for(int i = 0; i < LUT_WINDOW_SIZE; i++)
 383              		.loc 1 118 13 view .LVU110
 384 0102 0025     		movs	r5, #0
 385              	.LVL34:
 386              		.loc 1 118 13 view .LVU111
 387 0104 09E0     		b	.L19
 388              	.LVL35:
 389              	.L34:
 390              		.loc 1 118 13 view .LVU112
 391 0106 07EE905A 		vmov	s15, r5	@ int
 392 010a F8EEE77A 		vcvt.f32.s32	s15, s15
 393 010e 87EE860A 		vdiv.f32	s0, s15, s12
 394 0112 20EE260A 		vmul.f32	s0, s0, s13
 395 0116 FFF7FEFF 		bl	cosf
 396              	.LVL36:
 397              	.L19:
 398              	.LBB60:
 119:resources.cpp ****     {
 120:resources.cpp ****         float t       = (float)i / (float)LUT_WINDOW_SIZE;
 399              		.loc 1 120 9 is_stmt 1 discriminator 2 view .LVU113
 121:resources.cpp ****         lut_window[i] = 1.f - ((cos(t * PI_F) + 1.f) * .5f);
 400              		.loc 1 121 9 discriminator 2 view .LVU114
 401              	.LBB61:
 402              	.LBI61:
 184:/usr/include/newlib/c++/9.2.1/cmath ****   { return __builtin_cosf(__x); }
 403              		.loc 2 184 3 discriminator 2 view .LVU115
 404              	.LBE61:
 405              	.LBE60:
 406              	.LBE59:
 185:/usr/include/newlib/c++/9.2.1/cmath **** 
 407              		.loc 2 185 5 discriminator 2 view .LVU116
 408              	.LBB64:
 409              	.LBB62:
 410              		.loc 1 121 47 is_stmt 0 discriminator 2 view .LVU117
 411 011a F7EE007A 		vmov.f32	s15, #1.0e+0
 412 011e 9FED616A 		vldr.32	s12, .L35+76
 413              		.loc 1 121 29 discriminator 2 view .LVU118
 414 0122 B6EE007A 		vmov.f32	s14, #5.0e-1
 415 0126 DFED606A 		vldr.32	s13, .L35+80
 416              	.LBE62:
 118:resources.cpp ****     {
 417              		.loc 1 118 5 discriminator 2 view .LVU119
 418 012a 0135     		adds	r5, r5, #1
 419              	.LVL37:
 420              	.LBB63:
 421              		.loc 1 121 47 discriminator 2 view .LVU120
 422 012c 30EE270A 		vadd.f32	s0, s0, s15
 423              		.loc 1 121 29 discriminator 2 view .LVU121
 424 0130 E0EE477A 		vfms.f32	s15, s0, s14
 425              		.loc 1 121 23 discriminator 2 view .LVU122
 426 0134 E4EC017A 		vstmia.32	r4!, {s15}
 427              	.LBE63:
ARM GAS  /tmp/ccoBMhpm.s 			page 19


 118:resources.cpp ****     {
 428              		.loc 1 118 5 is_stmt 1 discriminator 2 view .LVU123
 429              	.LVL38:
 118:resources.cpp ****     {
 430              		.loc 1 118 22 discriminator 2 view .LVU124
 431 0138 A642     		cmp	r6, r4
 432 013a E4D1     		bne	.L34
 433 013c 5B4C     		ldr	r4, .L35+84
 434              	.LBE64:
 435              	.LBB65:
 122:resources.cpp ****     }
 123:resources.cpp **** 
 124:resources.cpp ****     // lut_xfade_in + lut_xfade_out
 125:resources.cpp ****     for(int i = 0; i < LUT_XFADE_IN_SIZE; i++)
 436              		.loc 1 125 13 is_stmt 0 view .LVU125
 437 013e 0025     		movs	r5, #0
 438              	.LVL39:
 439              		.loc 1 125 13 view .LVU126
 440 0140 5B4E     		ldr	r6, .L35+88
 441 0142 04F14407 		add	r7, r4, #68
 442              	.LVL40:
 443              	.L22:
 444              	.LBB66:
 126:resources.cpp ****     {
 127:resources.cpp ****         float t = i / (float)(LUT_XFADE_IN_SIZE - 1);
 445              		.loc 1 127 9 is_stmt 1 discriminator 2 view .LVU127
 128:resources.cpp ****         t       = 1.04 * t - 0.02f;
 446              		.loc 1 128 9 discriminator 2 view .LVU128
 447              		.loc 1 128 26 is_stmt 0 discriminator 2 view .LVU129
 448 0146 06EE105A 		vmov	s12, r5	@ int
 129:resources.cpp ****         t       = fclamp(t, 0.f, 1.f);
 130:resources.cpp ****         t *= PI_F / 2.f;
 449              		.loc 1 130 11 discriminator 2 view .LVU130
 450 014a DFED5A5A 		vldr.32	s11, .L35+92
 451              	.LBB67:
 452              	.LBB68:
 453              	.LBB69:
 454              		.file 3 "../../DaisySP/Source/Utility/dsp.h"
   1:../../DaisySP/Source/Utility/dsp.h **** /** Helpful defines, functions, and other utilities for use in/with daisysp modules.
   2:../../DaisySP/Source/Utility/dsp.h **** */
   3:../../DaisySP/Source/Utility/dsp.h **** #pragma once
   4:../../DaisySP/Source/Utility/dsp.h **** #ifndef DSY_CORE_DSP
   5:../../DaisySP/Source/Utility/dsp.h **** #define DSY_CORE_DSP
   6:../../DaisySP/Source/Utility/dsp.h **** #include <cassert>
   7:../../DaisySP/Source/Utility/dsp.h **** #include <cstdint>
   8:../../DaisySP/Source/Utility/dsp.h **** #include <random>
   9:../../DaisySP/Source/Utility/dsp.h **** #include <cmath>
  10:../../DaisySP/Source/Utility/dsp.h **** 
  11:../../DaisySP/Source/Utility/dsp.h **** /** PIs
  12:../../DaisySP/Source/Utility/dsp.h **** */
  13:../../DaisySP/Source/Utility/dsp.h **** #define PI_F 3.1415927410125732421875f
  14:../../DaisySP/Source/Utility/dsp.h **** #define TWOPI_F (2.0f * PI_F)
  15:../../DaisySP/Source/Utility/dsp.h **** #define HALFPI_F (PI_F * 0.5f)
  16:../../DaisySP/Source/Utility/dsp.h **** #define DSY_MIN(in, mn) (in < mn ? in : mn)
  17:../../DaisySP/Source/Utility/dsp.h **** #define DSY_MAX(in, mx) (in > mx ? in : mx)
  18:../../DaisySP/Source/Utility/dsp.h **** #define DSY_CLAMP(in, mn, mx) (DSY_MIN(DSY_MAX(in, mn), mx))
  19:../../DaisySP/Source/Utility/dsp.h **** #define DSY_COUNTOF(_arr) (sizeof(_arr) / sizeof(_arr[0]))
ARM GAS  /tmp/ccoBMhpm.s 			page 20


  20:../../DaisySP/Source/Utility/dsp.h **** 
  21:../../DaisySP/Source/Utility/dsp.h **** namespace daisysp
  22:../../DaisySP/Source/Utility/dsp.h **** {
  23:../../DaisySP/Source/Utility/dsp.h **** //Avoids division for random floats. e.g. rand() * kRandFrac
  24:../../DaisySP/Source/Utility/dsp.h **** static constexpr float kRandFrac = 1.f / (float)RAND_MAX;
  25:../../DaisySP/Source/Utility/dsp.h **** 
  26:../../DaisySP/Source/Utility/dsp.h **** //Convert from semitones to other units. e.g. 2 ^ (kOneTwelfth * x)
  27:../../DaisySP/Source/Utility/dsp.h **** static constexpr float kOneTwelfth = 1.f / 12.f;
  28:../../DaisySP/Source/Utility/dsp.h **** 
  29:../../DaisySP/Source/Utility/dsp.h **** /** efficient floating point min/max
  30:../../DaisySP/Source/Utility/dsp.h **** c/o stephen mccaul
  31:../../DaisySP/Source/Utility/dsp.h **** */
  32:../../DaisySP/Source/Utility/dsp.h **** inline float fmax(float a, float b)
  33:../../DaisySP/Source/Utility/dsp.h **** {
  34:../../DaisySP/Source/Utility/dsp.h ****     float r;
  35:../../DaisySP/Source/Utility/dsp.h **** #ifdef __arm__
  36:../../DaisySP/Source/Utility/dsp.h ****     asm("vmaxnm.f32 %[d], %[n], %[m]" : [d] "=t"(r) : [n] "t"(a), [m] "t"(b) :);
  37:../../DaisySP/Source/Utility/dsp.h **** #else
  38:../../DaisySP/Source/Utility/dsp.h ****     r = (a > b) ? a : b;
  39:../../DaisySP/Source/Utility/dsp.h **** #endif // __arm__
  40:../../DaisySP/Source/Utility/dsp.h ****     return r;
  41:../../DaisySP/Source/Utility/dsp.h **** }
  42:../../DaisySP/Source/Utility/dsp.h **** 
  43:../../DaisySP/Source/Utility/dsp.h **** inline float fmin(float a, float b)
  44:../../DaisySP/Source/Utility/dsp.h **** {
  45:../../DaisySP/Source/Utility/dsp.h ****     float r;
  46:../../DaisySP/Source/Utility/dsp.h **** #ifdef __arm__
  47:../../DaisySP/Source/Utility/dsp.h ****     asm("vminnm.f32 %[d], %[n], %[m]" : [d] "=t"(r) : [n] "t"(a), [m] "t"(b) :);
 455              		.loc 3 47 80 discriminator 2 view .LVU131
 456 014e B7EE005A 		vmov.f32	s10, #1.0e+0
 457              	.LBE69:
 458              	.LBE68:
 459              	.LBB71:
 460              	.LBB72:
  36:../../DaisySP/Source/Utility/dsp.h **** #else
 461              		.loc 3 36 80 discriminator 2 view .LVU132
 462 0152 DFED504A 		vldr.32	s9, .L35+60
 463              	.LBE72:
 464              	.LBE71:
 465              	.LBE67:
 128:resources.cpp ****         t       = fclamp(t, 0.f, 1.f);
 466              		.loc 1 128 26 discriminator 2 view .LVU133
 467 0156 BAEECE6A 		vcvt.f32.s32	s12, s12, #4
 468              	.LVL41:
 131:resources.cpp **** 
 132:resources.cpp ****         float two_neg_half = powf(2, -.5f);
 133:resources.cpp ****         lut_xfade_in[i]    = sin(t) * two_neg_half;
 469              		.loc 1 133 37 discriminator 2 view .LVU134
 470 015a DFED578A 		vldr.32	s17, .L35+96
 128:resources.cpp ****         t       = fclamp(t, 0.f, 1.f);
 471              		.loc 1 128 26 discriminator 2 view .LVU135
 472 015e 0135     		adds	r5, r5, #1
 473              	.LVL42:
 128:resources.cpp ****         t       = fclamp(t, 0.f, 1.f);
 474              		.loc 1 128 26 discriminator 2 view .LVU136
 475 0160 B7EEC66A 		vcvt.f64.f32	d6, s12
 476              	.LVL43:
ARM GAS  /tmp/ccoBMhpm.s 			page 21


 128:resources.cpp ****         t       = fclamp(t, 0.f, 1.f);
 477              		.loc 1 128 28 discriminator 2 view .LVU137
 478 0164 9FED403B 		vldr.64	d3, .L35+16
 479 0168 9FED417B 		vldr.64	d7, .L35+24
 480 016c A6EE037B 		vfma.f64	d7, d6, d3
 481              	.LVL44:
 129:resources.cpp ****         t *= PI_F / 2.f;
 482              		.loc 1 129 9 is_stmt 1 discriminator 2 view .LVU138
 483              	.LBB78:
 484              	.LBI67:
  48:../../DaisySP/Source/Utility/dsp.h **** #else
  49:../../DaisySP/Source/Utility/dsp.h ****     r = (a < b) ? a : b;
  50:../../DaisySP/Source/Utility/dsp.h **** #endif // __arm__
  51:../../DaisySP/Source/Utility/dsp.h ****     return r;
  52:../../DaisySP/Source/Utility/dsp.h **** }
  53:../../DaisySP/Source/Utility/dsp.h **** 
  54:../../DaisySP/Source/Utility/dsp.h **** /** quick fp clamp
  55:../../DaisySP/Source/Utility/dsp.h **** */
  56:../../DaisySP/Source/Utility/dsp.h **** inline float fclamp(float in, float min, float max)
 485              		.loc 3 56 14 discriminator 2 view .LVU139
 486              	.LBE78:
 487              	.LBE66:
 488              	.LBE65:
  57:../../DaisySP/Source/Utility/dsp.h **** {
  58:../../DaisySP/Source/Utility/dsp.h ****     return fmin(fmax(in, min), max);
 489              		.loc 3 58 5 discriminator 2 view .LVU140
 490              	.LBB89:
 491              	.LBB87:
 492              	.LBB79:
 493              	.LBB75:
 494              	.LBI71:
  32:../../DaisySP/Source/Utility/dsp.h **** {
 495              		.loc 3 32 14 discriminator 2 view .LVU141
 496              	.LBB73:
  34:../../DaisySP/Source/Utility/dsp.h **** #ifdef __arm__
 497              		.loc 3 34 5 discriminator 2 view .LVU142
  36:../../DaisySP/Source/Utility/dsp.h **** #else
 498              		.loc 3 36 5 discriminator 2 view .LVU143
 499              	.LBE73:
 500              	.LBE75:
 501              	.LBE79:
 128:resources.cpp ****         t       = fclamp(t, 0.f, 1.f);
 502              		.loc 1 128 17 is_stmt 0 discriminator 2 view .LVU144
 503 0170 B7EEC78B 		vcvt.f32.f64	s16, d7
 504              	.LVL45:
 505              	.LBB80:
 506              	.LBB76:
 507              	.LBB74:
  36:../../DaisySP/Source/Utility/dsp.h **** #else
 508              		.loc 3 36 80 discriminator 2 view .LVU145
 509              		.syntax unified
 510              	@ 36 "../../DaisySP/Source/Utility/dsp.h" 1
 511 0174 88FE248A 		vmaxnm.f32 s16, s16, s9
 512              	@ 0 "" 2
 513              	.LVL46:
  40:../../DaisySP/Source/Utility/dsp.h **** }
 514              		.loc 3 40 5 is_stmt 1 discriminator 2 view .LVU146
ARM GAS  /tmp/ccoBMhpm.s 			page 22


  40:../../DaisySP/Source/Utility/dsp.h **** }
 515              		.loc 3 40 5 is_stmt 0 discriminator 2 view .LVU147
 516              		.thumb
 517              		.syntax unified
 518              	.LBE74:
 519              	.LBE76:
 520              	.LBB77:
 521              	.LBI68:
  43:../../DaisySP/Source/Utility/dsp.h **** {
 522              		.loc 3 43 14 is_stmt 1 discriminator 2 view .LVU148
 523              	.LBB70:
  45:../../DaisySP/Source/Utility/dsp.h **** #ifdef __arm__
 524              		.loc 3 45 5 discriminator 2 view .LVU149
  47:../../DaisySP/Source/Utility/dsp.h **** #else
 525              		.loc 3 47 5 discriminator 2 view .LVU150
  47:../../DaisySP/Source/Utility/dsp.h **** #else
 526              		.loc 3 47 80 is_stmt 0 discriminator 2 view .LVU151
 527              		.syntax unified
 528              	@ 47 "../../DaisySP/Source/Utility/dsp.h" 1
 529 0178 88FE458A 		vminnm.f32 s16, s16, s10
 530              	@ 0 "" 2
 531              	.LVL47:
  51:../../DaisySP/Source/Utility/dsp.h **** }
 532              		.loc 3 51 5 is_stmt 1 discriminator 2 view .LVU152
  51:../../DaisySP/Source/Utility/dsp.h **** }
 533              		.loc 3 51 5 is_stmt 0 discriminator 2 view .LVU153
 534              		.thumb
 535              		.syntax unified
 536              	.LBE70:
 537              	.LBE77:
 538              	.LBE80:
 130:resources.cpp **** 
 539              		.loc 1 130 9 is_stmt 1 discriminator 2 view .LVU154
 130:resources.cpp **** 
 540              		.loc 1 130 11 is_stmt 0 discriminator 2 view .LVU155
 541 017c 28EE258A 		vmul.f32	s16, s16, s11
 542              	.LVL48:
 132:resources.cpp ****         lut_xfade_in[i]    = sin(t) * two_neg_half;
 543              		.loc 1 132 9 is_stmt 1 discriminator 2 view .LVU156
 544              		.loc 1 133 9 discriminator 2 view .LVU157
 545              	.LBB81:
 546              	.LBI81:
 425:/usr/include/newlib/c++/9.2.1/cmath ****   { return __builtin_sinf(__x); }
 547              		.loc 2 425 3 discriminator 2 view .LVU158
 548              	.LBB82:
 549              		.loc 2 426 5 discriminator 2 view .LVU159
 550              		.loc 2 426 26 is_stmt 0 discriminator 2 view .LVU160
 551 0180 B0EE480A 		vmov.f32	s0, s16
 552 0184 FFF7FEFF 		bl	sinf
 553              	.LVL49:
 554              		.loc 2 426 26 discriminator 2 view .LVU161
 555 0188 F0EE407A 		vmov.f32	s15, s0
 556              	.LBE82:
 557              	.LBE81:
 558              	.LBB83:
 559              	.LBB84:
 185:/usr/include/newlib/c++/9.2.1/cmath **** 
ARM GAS  /tmp/ccoBMhpm.s 			page 23


 560              		.loc 2 185 26 discriminator 2 view .LVU162
 561 018c B0EE480A 		vmov.f32	s0, s16
 562              	.LBE84:
 563              	.LBE83:
 564              		.loc 1 133 37 discriminator 2 view .LVU163
 565 0190 67EEA87A 		vmul.f32	s15, s15, s17
 566              		.loc 1 133 28 discriminator 2 view .LVU164
 567 0194 E4EC017A 		vstmia.32	r4!, {s15}
 134:resources.cpp ****         lut_xfade_out[i]   = cos(t) * two_neg_half;
 568              		.loc 1 134 9 is_stmt 1 discriminator 2 view .LVU165
 569              	.LVL50:
 570              	.LBB86:
 571              	.LBI83:
 184:/usr/include/newlib/c++/9.2.1/cmath ****   { return __builtin_cosf(__x); }
 572              		.loc 2 184 3 discriminator 2 view .LVU166
 573              	.LBB85:
 185:/usr/include/newlib/c++/9.2.1/cmath **** 
 574              		.loc 2 185 5 discriminator 2 view .LVU167
 185:/usr/include/newlib/c++/9.2.1/cmath **** 
 575              		.loc 2 185 26 is_stmt 0 discriminator 2 view .LVU168
 576 0198 FFF7FEFF 		bl	cosf
 577              	.LVL51:
 185:/usr/include/newlib/c++/9.2.1/cmath **** 
 578              		.loc 2 185 26 discriminator 2 view .LVU169
 579              	.LBE85:
 580              	.LBE86:
 581              		.loc 1 134 37 discriminator 2 view .LVU170
 582 019c 20EE280A 		vmul.f32	s0, s0, s17
 583              	.LBE87:
 125:resources.cpp ****     {
 584              		.loc 1 125 22 discriminator 2 view .LVU171
 585 01a0 BC42     		cmp	r4, r7
 586              	.LBB88:
 587              		.loc 1 134 28 discriminator 2 view .LVU172
 588 01a2 A6EC010A 		vstmia.32	r6!, {s0}
 589              	.LBE88:
 125:resources.cpp ****     {
 590              		.loc 1 125 5 is_stmt 1 discriminator 2 view .LVU173
 591              	.LVL52:
 125:resources.cpp ****     {
 592              		.loc 1 125 22 discriminator 2 view .LVU174
 593 01a6 CED1     		bne	.L22
 594 01a8 444D     		ldr	r5, .L35+100
 595              	.LVL53:
 125:resources.cpp ****     {
 596              		.loc 1 125 22 is_stmt 0 discriminator 2 view .LVU175
 597              	.LBE89:
 598              	.LBB90:
 135:resources.cpp ****     }
 136:resources.cpp **** 
 137:resources.cpp ****     // lut_sine_window_4096
 138:resources.cpp ****     for(int i = 0; i < LUT_SINE_WINDOW_4096_SIZE; i++)
 599              		.loc 1 138 13 view .LVU176
 600 01aa 0024     		movs	r4, #0
 601              	.LBE90:
 602              	.LBB94:
 125:resources.cpp ****     {
ARM GAS  /tmp/ccoBMhpm.s 			page 24


 603              		.loc 1 125 22 view .LVU177
 604 01ac 2E46     		mov	r6, r5
 605              	.L23:
 606              	.LVL54:
 125:resources.cpp ****     {
 607              		.loc 1 125 22 view .LVU178
 608              	.LBE94:
 609              	.LBB95:
 610              	.LBB91:
 139:resources.cpp ****     {
 140:resources.cpp ****         float t = (float)i / (float)LUT_SINE_WINDOW_4096_SIZE;
 611              		.loc 1 140 9 is_stmt 1 discriminator 2 view .LVU179
 141:resources.cpp ****         //float sine = sin(PI_F * t);
 142:resources.cpp ****         //float raised = (0.5f * cos(PI_F * t * 2.f) + 0.5f) * sqrt(4.f / 3.f);
 143:resources.cpp **** 
 144:resources.cpp ****         lut_sine_window_4096[i] = powf(1.f - powf((2.f * t - 1.f), 2.f), 1.25f);
 612              		.loc 1 144 9 discriminator 2 view .LVU180
 140:resources.cpp ****         //float sine = sin(PI_F * t);
 613              		.loc 1 140 15 is_stmt 0 discriminator 2 view .LVU181
 614 01ae 06EE904A 		vmov	s13, r4	@ int
 615              		.loc 1 144 50 discriminator 2 view .LVU182
 616 01b2 B0EE007A 		vmov.f32	s14, #2.0e+0
 617 01b6 FFEE007A 		vmov.f32	s15, #-1.0e+0
 618              	.LBE91:
 138:resources.cpp ****     {
 619              		.loc 1 138 5 discriminator 2 view .LVU183
 620 01ba 0134     		adds	r4, r4, #1
 621              	.LVL55:
 622              	.LBB92:
 140:resources.cpp ****         //float sine = sin(PI_F * t);
 623              		.loc 1 140 15 discriminator 2 view .LVU184
 624 01bc FAEECA6A 		vcvt.f32.s32	s13, s13, #12
 625              	.LVL56:
 626              		.loc 1 144 39 discriminator 2 view .LVU185
 627 01c0 B7EE000A 		vmov.f32	s0, #1.0e+0
 628 01c4 F7EE040A 		vmov.f32	s1, #1.25e+0
 629              		.loc 1 144 50 discriminator 2 view .LVU186
 630 01c8 E6EE877A 		vfma.f32	s15, s13, s14
 631              		.loc 1 144 39 discriminator 2 view .LVU187
 632 01cc A7EEE70A 		vfms.f32	s0, s15, s15
 633 01d0 FFF7FEFF 		bl	powf
 634              	.LVL57:
 635              		.loc 1 144 39 discriminator 2 view .LVU188
 636              	.LBE92:
 138:resources.cpp ****     {
 637              		.loc 1 138 22 discriminator 2 view .LVU189
 638 01d4 B4F5805F 		cmp	r4, #4096
 639              	.LBB93:
 640              		.loc 1 144 33 discriminator 2 view .LVU190
 641 01d8 A6EC010A 		vstmia.32	r6!, {s0}
 642              	.LBE93:
 138:resources.cpp ****     {
 643              		.loc 1 138 5 is_stmt 1 discriminator 2 view .LVU191
 644              	.LVL58:
 138:resources.cpp ****     {
 645              		.loc 1 138 22 discriminator 2 view .LVU192
 646 01dc E7D1     		bne	.L23
ARM GAS  /tmp/ccoBMhpm.s 			page 25


 647              	.LBE95:
 145:resources.cpp ****     }
 146:resources.cpp **** 
 147:resources.cpp ****     float compensation[LUT_SINE_WINDOW_4096_SIZE];
 648              		.loc 1 147 5 view .LVU193
 148:resources.cpp ****     sum_window(lut_sine_window_4096, 2, compensation);
 649              		.loc 1 148 5 view .LVU194
 650              		.loc 1 148 15 is_stmt 0 view .LVU195
 651 01de 0221     		movs	r1, #2
 652 01e0 3648     		ldr	r0, .L35+100
 653 01e2 6A46     		mov	r2, sp
 654 01e4 0DF58046 		add	r6, sp, #16384
 655 01e8 6C46     		mov	r4, sp
 656              	.LVL59:
 657              		.loc 1 148 15 view .LVU196
 658 01ea FFF7FEFF 		bl	_Z10sum_windowPfiS_
 659              	.LVL60:
 149:resources.cpp **** 
 150:resources.cpp ****     for(int i = 0; i < LUT_SINE_WINDOW_4096_SIZE; i++)
 660              		.loc 1 150 5 is_stmt 1 view .LVU197
 661              	.LBB96:
 662              		.loc 1 150 22 view .LVU198
 663              	.L24:
 151:resources.cpp ****     {
 152:resources.cpp ****         compensation[i] = powf(compensation[i], .5f);
 664              		.loc 1 152 9 discriminator 2 view .LVU199
 665              		.loc 1 152 31 is_stmt 0 discriminator 2 view .LVU200
 666 01ee 94ED000A 		vldr.32	s0, [r4]
 667 01f2 F6EE000A 		vmov.f32	s1, #5.0e-1
 668 01f6 FFF7FEFF 		bl	powf
 669              	.LVL61:
 153:resources.cpp ****         lut_sine_window_4096[i] /= compensation[i];
 670              		.loc 1 153 33 discriminator 2 view .LVU201
 671 01fa 95ED007A 		vldr.32	s14, [r5]
 152:resources.cpp ****         lut_sine_window_4096[i] /= compensation[i];
 672              		.loc 1 152 25 discriminator 2 view .LVU202
 673 01fe A4EC010A 		vstmia.32	r4!, {s0}
 674              		.loc 1 153 9 is_stmt 1 discriminator 2 view .LVU203
 150:resources.cpp ****     {
 675              		.loc 1 150 22 is_stmt 0 discriminator 2 view .LVU204
 676 0202 A642     		cmp	r6, r4
 677              		.loc 1 153 33 discriminator 2 view .LVU205
 678 0204 C7EE007A 		vdiv.f32	s15, s14, s0
 679 0208 E5EC017A 		vstmia.32	r5!, {s15}
 150:resources.cpp ****     {
 680              		.loc 1 150 5 is_stmt 1 discriminator 2 view .LVU206
 150:resources.cpp ****     {
 681              		.loc 1 150 22 discriminator 2 view .LVU207
 682 020c EFD1     		bne	.L24
 683 020e 2C4D     		ldr	r5, .L35+104
 684              	.LBE96:
 685              	.LBB97:
 154:resources.cpp ****     }
 155:resources.cpp **** 
 156:resources.cpp ****     // lut_grain_size
 157:resources.cpp ****     for(int i = 0; i < LUT_GRAIN_SIZE_SIZE; i++)
 686              		.loc 1 157 13 is_stmt 0 view .LVU208
ARM GAS  /tmp/ccoBMhpm.s 			page 26


 687 0210 0024     		movs	r4, #0
 688              	.L25:
 689              	.LVL62:
 690              	.LBB98:
 158:resources.cpp ****     {
 159:resources.cpp ****         float size        = ((float)i / (float)LUT_GRAIN_SIZE_SIZE) * 4.f;
 691              		.loc 1 159 9 is_stmt 1 discriminator 2 view .LVU209
 160:resources.cpp ****         lut_grain_size[i] = floor(1024.f * powf(2, size));
 692              		.loc 1 160 9 discriminator 2 view .LVU210
 159:resources.cpp ****         lut_grain_size[i] = floor(1024.f * powf(2, size));
 693              		.loc 1 159 30 is_stmt 0 discriminator 2 view .LVU211
 694 0212 07EE904A 		vmov	s15, r4	@ int
 159:resources.cpp ****         lut_grain_size[i] = floor(1024.f * powf(2, size));
 695              		.loc 1 159 39 discriminator 2 view .LVU212
 696 0216 9FED2B7A 		vldr.32	s14, .L35+108
 697              		.loc 1 160 48 discriminator 2 view .LVU213
 698 021a B0EE000A 		vmov.f32	s0, #2.0e+0
 699              	.LBE98:
 157:resources.cpp ****     {
 700              		.loc 1 157 5 discriminator 2 view .LVU214
 701 021e 0134     		adds	r4, r4, #1
 702              	.LVL63:
 703              	.LBB103:
 159:resources.cpp ****         lut_grain_size[i] = floor(1024.f * powf(2, size));
 704              		.loc 1 159 30 discriminator 2 view .LVU215
 705 0220 F8EEE76A 		vcvt.f32.s32	s13, s15
 159:resources.cpp ****         lut_grain_size[i] = floor(1024.f * powf(2, size));
 706              		.loc 1 159 15 discriminator 2 view .LVU216
 707 0224 F1EE007A 		vmov.f32	s15, #4.0e+0
 708              	.LVL64:
 159:resources.cpp ****         lut_grain_size[i] = floor(1024.f * powf(2, size));
 709              		.loc 1 159 39 discriminator 2 view .LVU217
 710 0228 C6EE870A 		vdiv.f32	s1, s13, s14
 711              		.loc 1 160 48 discriminator 2 view .LVU218
 712 022c 60EEA70A 		vmul.f32	s1, s1, s15
 713              	.LVL65:
 714              		.loc 1 160 48 discriminator 2 view .LVU219
 715 0230 FFF7FEFF 		bl	powf
 716              	.LVL66:
 717              	.LBB99:
 718              	.LBI99:
 260:/usr/include/newlib/c++/9.2.1/cmath ****   { return __builtin_floorf(__x); }
 719              		.loc 2 260 3 is_stmt 1 discriminator 2 view .LVU220
 720              	.LBB100:
 261:/usr/include/newlib/c++/9.2.1/cmath **** 
 721              		.loc 2 261 5 discriminator 2 view .LVU221
 722              	.LBE100:
 723              	.LBE99:
 724              		.loc 1 160 34 is_stmt 0 discriminator 2 view .LVU222
 725 0234 DFED247A 		vldr.32	s15, .L35+112
 726              	.LBE103:
 157:resources.cpp ****     {
 727              		.loc 1 157 22 discriminator 2 view .LVU223
 728 0238 40F20113 		movw	r3, #257
 729              	.LBB104:
 730              		.loc 1 160 34 discriminator 2 view .LVU224
 731 023c 20EE270A 		vmul.f32	s0, s0, s15
ARM GAS  /tmp/ccoBMhpm.s 			page 27


 732              	.LVL67:
 733              		.loc 1 160 34 discriminator 2 view .LVU225
 734              	.LBE104:
 157:resources.cpp ****     {
 735              		.loc 1 157 22 discriminator 2 view .LVU226
 736 0240 9C42     		cmp	r4, r3
 737              	.LBB105:
 738              	.LBB102:
 739              	.LBB101:
 261:/usr/include/newlib/c++/9.2.1/cmath **** 
 740              		.loc 2 261 28 discriminator 2 view .LVU227
 741 0242 BBFE400A 		vrintm.f32	s0, s0
 742              	.LVL68:
 261:/usr/include/newlib/c++/9.2.1/cmath **** 
 743              		.loc 2 261 28 discriminator 2 view .LVU228
 744              	.LBE101:
 745              	.LBE102:
 746              		.loc 1 160 27 discriminator 2 view .LVU229
 747 0246 A5EC010A 		vstmia.32	r5!, {s0}
 748              	.LBE105:
 157:resources.cpp ****     {
 749              		.loc 1 157 5 is_stmt 1 discriminator 2 view .LVU230
 750              	.LVL69:
 157:resources.cpp ****     {
 751              		.loc 1 157 22 discriminator 2 view .LVU231
 752 024a E2D1     		bne	.L25
 753              	.LBE97:
 161:resources.cpp ****     }
 162:resources.cpp **** }
 754              		.loc 1 162 1 is_stmt 0 view .LVU232
 755 024c 0DF5804D 		add	sp, sp, #16384
 756 0250 01B0     		add	sp, sp, #4
 757              		.cfi_def_cfa_offset 28
 758              		@ sp needed
 759 0252 BDEC028B 		vldm	sp!, {d8}
 760              		.cfi_restore 80
 761              		.cfi_restore 81
 762              		.cfi_def_cfa_offset 20
 763              	.LVL70:
 764              		.loc 1 162 1 view .LVU233
 765 0256 F0BD     		pop	{r4, r5, r6, r7, pc}
 766              	.LVL71:
 767              	.L36:
 768              		.loc 1 162 1 view .LVU234
 769              		.align	3
 770              	.L35:
 771 0258 00000000 		.word	0
 772 025c 0000703F 		.word	1064304640
 773 0260 B4F94664 		.word	1682373044
 774 0264 305FC440 		.word	1086611248
 775 0268 A4703D0A 		.word	171798692
 776 026c D7A3F03F 		.word	1072735191
 777 0270 00000040 		.word	1073741824
 778 0274 E17A94BF 		.word	-1080788255
 779 0278 FEFFFFFF 		.word	.LANCHOR0-2
 780 027c 00000000 		.word	.LANCHOR1
 781 0280 00000000 		.word	.LANCHOR2
ARM GAS  /tmp/ccoBMhpm.s 			page 28


 782 0284 00000043 		.word	1124073472
 783 0288 FEFFFFFF 		.word	.LANCHOR3-2
 784 028c 00000000 		.word	lut_sin
 785 0290 04140000 		.word	lut_sin+5124
 786 0294 00000000 		.word	0
 787 0298 DB0FC940 		.word	1086918619
 788 029c 00000000 		.word	lut_window
 789 02a0 04400000 		.word	lut_window+16388
 790 02a4 00088045 		.word	1166018560
 791 02a8 DB0F4940 		.word	1078530011
 792 02ac 00000000 		.word	.LANCHOR4
 793 02b0 00000000 		.word	.LANCHOR5
 794 02b4 DB0FC93F 		.word	1070141403
 795 02b8 F304353F 		.word	1060439283
 796 02bc 00000000 		.word	lut_sine_window_4096
 797 02c0 00000000 		.word	.LANCHOR6
 798 02c4 00808043 		.word	1132494848
 799 02c8 00008044 		.word	1149239296
 800              		.cfi_endproc
 801              	.LFE4205:
 803              		.global	src_filter_1x_2_45
 804              		.global	lut_grain_size
 805              		.global	lut_sine_window_4096
 806              		.global	lut_xfade_out
 807              		.global	lut_xfade_in
 808              		.global	lut_window
 809              		.global	lut_sin
 810              		.global	atan_lut
 811              		.global	lut_pitch_ratio_low
 812              		.global	lut_pitch_ratio_high
 813              		.global	lut_ulaw
 814              		.section	.bss.atan_lut,"aw",%nobits
 815              		.align	2
 816              		.set	.LANCHOR3,. + 0
 819              	atan_lut:
 820 0000 00000000 		.space	1026
 820      00000000 
 820      00000000 
 820      00000000 
 820      00000000 
 821              		.section	.bss.lut_grain_size,"aw",%nobits
 822              		.align	2
 823              		.set	.LANCHOR6,. + 0
 826              	lut_grain_size:
 827 0000 00000000 		.space	1028
 827      00000000 
 827      00000000 
 827      00000000 
 827      00000000 
 828              		.section	.bss.lut_pitch_ratio_high,"aw",%nobits
 829              		.align	2
 830              		.set	.LANCHOR1,. + 0
 833              	lut_pitch_ratio_high:
 834 0000 00000000 		.space	1024
 834      00000000 
 834      00000000 
 834      00000000 
ARM GAS  /tmp/ccoBMhpm.s 			page 29


 834      00000000 
 835              		.section	.bss.lut_pitch_ratio_low,"aw",%nobits
 836              		.align	2
 837              		.set	.LANCHOR2,. + 0
 840              	lut_pitch_ratio_low:
 841 0000 00000000 		.space	1024
 841      00000000 
 841      00000000 
 841      00000000 
 841      00000000 
 842              		.section	.bss.lut_sin,"aw",%nobits
 843              		.align	2
 846              	lut_sin:
 847 0000 00000000 		.space	5124
 847      00000000 
 847      00000000 
 847      00000000 
 847      00000000 
 848              		.section	.bss.lut_sine_window_4096,"aw",%nobits
 849              		.align	2
 852              	lut_sine_window_4096:
 853 0000 00000000 		.space	16384
 853      00000000 
 853      00000000 
 853      00000000 
 853      00000000 
 854              		.section	.bss.lut_ulaw,"aw",%nobits
 855              		.align	2
 856              		.set	.LANCHOR0,. + 0
 859              	lut_ulaw:
 860 0000 00000000 		.space	512
 860      00000000 
 860      00000000 
 860      00000000 
 860      00000000 
 861              		.section	.bss.lut_window,"aw",%nobits
 862              		.align	2
 865              	lut_window:
 866 0000 00000000 		.space	16388
 866      00000000 
 866      00000000 
 866      00000000 
 866      00000000 
 867              		.section	.bss.lut_xfade_in,"aw",%nobits
 868              		.align	2
 869              		.set	.LANCHOR4,. + 0
 872              	lut_xfade_in:
 873 0000 00000000 		.space	68
 873      00000000 
 873      00000000 
 873      00000000 
 873      00000000 
 874              		.section	.bss.lut_xfade_out,"aw",%nobits
 875              		.align	2
 876              		.set	.LANCHOR5,. + 0
 879              	lut_xfade_out:
 880 0000 00000000 		.space	68
ARM GAS  /tmp/ccoBMhpm.s 			page 30


 880      00000000 
 880      00000000 
 880      00000000 
 880      00000000 
 881              		.section	.rodata.src_filter_1x_2_45,"a"
 882              		.align	2
 885              	src_filter_1x_2_45:
 886 0000 18A135BA 		.word	3124076824
 887 0004 2F28C1BB 		.word	3149998127
 888 0008 FB5DE639 		.word	971398651
 889 000c EA5FAF3B 		.word	1001349098
 890 0010 9654F03A 		.word	988828822
 891 0014 70C7E8BB 		.word	3152594800
 892 0018 C1DEACBB 		.word	3148668609
 893 001c 7D0E033C 		.word	1006833277
 894 0020 49BC283C 		.word	1009302601
 895 0024 89A3EBBB 		.word	3152782217
 896 0028 4E4789BC 		.word	3163113294
 897 002c 34C86D3B 		.word	997050420
 898 0030 B58DC63C 		.word	1019645365
 899 0034 F2BC833B 		.word	998489330
 900 0038 F26E03BD 		.word	3171118834
 901 003c 4A7391BC 		.word	3163648842
 902 0040 9EAF213D 		.word	1025617822
 903 0044 990E2C3D 		.word	1026297497
 904 0048 C8843ABD 		.word	3174728904
 905 004c BDDCBDBD 		.word	3183336637
 906 0050 1FDA4A3D 		.word	1028315679
 907 0054 D3AEA13E 		.word	1050783443
 908 0058 D3D5E73E 		.word	1055380947
 909 005c D3AEA13E 		.word	1050783443
 910 0060 1FDA4A3D 		.word	1028315679
 911 0064 BDDCBDBD 		.word	3183336637
 912 0068 C8843ABD 		.word	3174728904
 913 006c 990E2C3D 		.word	1026297497
 914 0070 9EAF213D 		.word	1025617822
 915 0074 4A7391BC 		.word	3163648842
 916 0078 F26E03BD 		.word	3171118834
 917 007c F2BC833B 		.word	998489330
 918 0080 B58DC63C 		.word	1019645365
 919 0084 34C86D3B 		.word	997050420
 920 0088 4E4789BC 		.word	3163113294
 921 008c 89A3EBBB 		.word	3152782217
 922 0090 49BC283C 		.word	1009302601
 923 0094 7D0E033C 		.word	1006833277
 924 0098 C1DEACBB 		.word	3148668609
 925 009c 70C7E8BB 		.word	3152594800
 926 00a0 9654F03A 		.word	988828822
 927 00a4 EA5FAF3B 		.word	1001349098
 928 00a8 FB5DE639 		.word	971398651
 929 00ac 2F28C1BB 		.word	3149998127
 930 00b0 18A135BA 		.word	3124076824
 931              		.text
 932              	.Letext0:
 933              		.file 4 "/usr/lib/gcc/arm-none-eabi/9.2.1/include/stdint.h"
 934              		.file 5 "../../libdaisy/Drivers/CMSIS/Include/core_cm7.h"
 935              		.file 6 "../../libdaisy/Drivers/CMSIS/Device/ST/STM32H7xx/Include/system_stm32h7xx.h"
ARM GAS  /tmp/ccoBMhpm.s 			page 31


 936              		.file 7 "/usr/lib/gcc/arm-none-eabi/9.2.1/include/stddef.h"
 937              		.file 8 "/usr/include/newlib/c++/9.2.1/bits/std_abs.h"
 938              		.file 9 "/usr/include/newlib/c++/9.2.1/cstdlib"
 939              		.file 10 "/usr/include/newlib/c++/9.2.1/cstdint"
 940              		.file 11 "/usr/include/newlib/c++/9.2.1/bits/cpp_type_traits.h"
 941              		.file 12 "/usr/include/newlib/c++/9.2.1/type_traits"
 942              		.file 13 "/usr/include/newlib/c++/9.2.1/arm-none-eabi/thumb/v7e-m+dp/hard/bits/c++config.h"
 943              		.file 14 "/usr/include/newlib/c++/9.2.1/bits/stl_pair.h"
 944              		.file 15 "/usr/include/newlib/c++/9.2.1/debug/debug.h"
 945              		.file 16 "/usr/include/newlib/c++/9.2.1/bits/algorithmfwd.h"
 946              		.file 17 "/usr/include/newlib/c++/9.2.1/bits/exception_ptr.h"
 947              		.file 18 "/usr/include/newlib/c++/9.2.1/new"
 948              		.file 19 "/usr/include/newlib/c++/9.2.1/cstdarg"
 949              		.file 20 "/usr/include/newlib/c++/9.2.1/cstdio"
 950              		.file 21 "/usr/include/newlib/c++/9.2.1/cwchar"
 951              		.file 22 "/usr/include/newlib/c++/9.2.1/clocale"
 952              		.file 23 "/usr/include/newlib/c++/9.2.1/bits/basic_string.h"
 953              		.file 24 "/usr/include/newlib/c++/9.2.1/bits/uniform_int_dist.h"
 954              		.file 25 "/usr/include/newlib/c++/9.2.1/bits/random.h"
 955              		.file 26 "/usr/include/newlib/c++/9.2.1/cstring"
 956              		.file 27 "/usr/include/newlib/c++/9.2.1/bits/predefined_ops.h"
 957              		.file 28 "/usr/include/newlib/c++/9.2.1/ext/numeric_traits.h"
 958              		.file 29 "/usr/include/newlib/c++/9.2.1/ext/new_allocator.h"
 959              		.file 30 "/usr/include/newlib/sys/_types.h"
 960              		.file 31 "<built-in>"
 961              		.file 32 "/usr/include/newlib/sys/reent.h"
 962              		.file 33 "/usr/include/newlib/sys/lock.h"
 963              		.file 34 "/usr/include/newlib/math.h"
 964              		.file 35 "/usr/include/newlib/stdlib.h"
 965              		.file 36 "/usr/include/newlib/c++/9.2.1/math.h"
 966              		.file 37 "../../libdaisy/Drivers/STM32H7xx_HAL_Driver/Inc/stm32h7xx_hal_def.h"
 967              		.file 38 "../../libdaisy/Drivers/STM32H7xx_HAL_Driver/Inc/stm32h7xx_hal_flash.h"
 968              		.file 39 "/usr/include/newlib/c++/9.2.1/stdlib.h"
 969              		.file 40 "../../libdaisy/src/per/tim.h"
 970              		.file 41 "../../libdaisy/src/util/wav_format.h"
 971              		.file 42 "/usr/lib/gcc/arm-none-eabi/9.2.1/include/stdarg.h"
 972              		.file 43 "/usr/include/newlib/stdio.h"
 973              		.file 44 "/usr/include/newlib/sys/unistd.h"
 974              		.file 45 "../../libdaisy/src/util/oled_fonts.h"
 975              		.file 46 "../../libdaisy/Middlewares/Third_Party/FatFs/src/integer.h"
 976              		.file 47 "../../libdaisy/Middlewares/Third_Party/FatFs/src/ff.h"
 977              		.file 48 "../../libdaisy/Middlewares/Third_Party/FatFs/src/diskio.h"
 978              		.file 49 "../../libdaisy/Middlewares/Third_Party/FatFs/src/ff_gen_drv.h"
 979              		.file 50 "../../libdaisy/src/util/sd_diskio.h"
 980              		.file 51 "../../libdaisy/src/sys/fatfs.h"
 981              		.file 52 "resources.h"
 982              		.file 53 "../../DaisySP/Source/Control/adenv.h"
 983              		.file 54 "/usr/include/newlib/wchar.h"
 984              		.file 55 "/usr/include/newlib/locale.h"
 985              		.file 56 "/usr/include/newlib/ctype.h"
 986              		.file 57 "/usr/include/newlib/sys/errno.h"
 987              		.file 58 "/usr/include/newlib/string.h"
 988              		.file 59 "../../libdaisy/src/dev/sr_595.h"
ARM GAS  /tmp/ccoBMhpm.s 			page 32

