ARM GAS  /tmp/ccDsoCRY.s 			page 1


   1              		.cpu cortex-m7
   2              		.eabi_attribute 28, 1
   3              		.eabi_attribute 20, 1
   4              		.eabi_attribute 21, 1
   5              		.eabi_attribute 23, 3
   6              		.eabi_attribute 24, 1
   7              		.eabi_attribute 25, 1
   8              		.eabi_attribute 26, 1
   9              		.eabi_attribute 30, 2
  10              		.eabi_attribute 34, 1
  11              		.eabi_attribute 18, 4
  12              		.file	"stft.cpp"
  13              		.text
  14              	.Ltext0:
  15              		.cfi_sections	.debug_frame
  16              		.section	.text._ZN4STFT5ResetEv,"ax",%progbits
  17              		.align	1
  18              		.p2align 2,,3
  19              		.global	_ZN4STFT5ResetEv
  20              		.arch armv7e-m
  21              		.syntax unified
  22              		.thumb
  23              		.thumb_func
  24              		.fpu fpv5-d16
  26              	_ZN4STFT5ResetEv:
  27              	.LVL0:
  28              	.LFB4289:
  29              		.file 1 "dsp/pvoc/stft.cpp"
   1:dsp/pvoc/stft.cpp **** // Copyright 2014 Emilie Gillet.
   2:dsp/pvoc/stft.cpp **** //
   3:dsp/pvoc/stft.cpp **** // Author: Emilie Gillet (emilie.o.gillet@gmail.com)
   4:dsp/pvoc/stft.cpp **** //
   5:dsp/pvoc/stft.cpp **** // Permission is hereby granted, free of charge, to any person obtaining a copy
   6:dsp/pvoc/stft.cpp **** // of this software and associated documentation files (the "Software"), to deal
   7:dsp/pvoc/stft.cpp **** // in the Software without restriction, including without limitation the rights
   8:dsp/pvoc/stft.cpp **** // to use, copy, modify, merge, publish, distribute, sublicense, and/or sell
   9:dsp/pvoc/stft.cpp **** // copies of the Software, and to permit persons to whom the Software is
  10:dsp/pvoc/stft.cpp **** // furnished to do so, subject to the following conditions:
  11:dsp/pvoc/stft.cpp **** //
  12:dsp/pvoc/stft.cpp **** // The above copyright notice and this permission notice shall be included in
  13:dsp/pvoc/stft.cpp **** // all copies or substantial portions of the Software.
  14:dsp/pvoc/stft.cpp **** //
  15:dsp/pvoc/stft.cpp **** // THE SOFTWARE IS PROVIDED "AS IS", WITHOUT WARRANTY OF ANY KIND, EXPRESS OR
  16:dsp/pvoc/stft.cpp **** // IMPLIED, INCLUDING BUT NOT LIMITED TO THE WARRANTIES OF MERCHANTABILITY,
  17:dsp/pvoc/stft.cpp **** // FITNESS FOR A PARTICULAR PURPOSE AND NONINFRINGEMENT. IN NO EVENT SHALL THE
  18:dsp/pvoc/stft.cpp **** // AUTHORS OR COPYRIGHT HOLDERS BE LIABLE FOR ANY CLAIM, DAMAGES OR OTHER
  19:dsp/pvoc/stft.cpp **** // LIABILITY, WHETHER IN AN ACTION OF CONTRACT, TORT OR OTHERWISE, ARISING FROM,
  20:dsp/pvoc/stft.cpp **** // OUT OF OR IN CONNECTION WITH THE SOFTWARE OR THE USE OR OTHER DEALINGS IN
  21:dsp/pvoc/stft.cpp **** // THE SOFTWARE.
  22:dsp/pvoc/stft.cpp **** //
  23:dsp/pvoc/stft.cpp **** // See http://creativecommons.org/licenses/MIT/ for more information.
  24:dsp/pvoc/stft.cpp **** //
  25:dsp/pvoc/stft.cpp **** // -----------------------------------------------------------------------------
  26:dsp/pvoc/stft.cpp **** //
  27:dsp/pvoc/stft.cpp **** // STFT with overlap-add.
  28:dsp/pvoc/stft.cpp **** 
  29:dsp/pvoc/stft.cpp **** #include "stft.h"
ARM GAS  /tmp/ccDsoCRY.s 			page 2


  30:dsp/pvoc/stft.cpp **** #include "stmtemp.h"
  31:dsp/pvoc/stft.cpp **** #include <algorithm>
  32:dsp/pvoc/stft.cpp **** 
  33:dsp/pvoc/stft.cpp **** using namespace daisysp;
  34:dsp/pvoc/stft.cpp **** using namespace std;
  35:dsp/pvoc/stft.cpp **** using namespace daisy;
  36:dsp/pvoc/stft.cpp **** 
  37:dsp/pvoc/stft.cpp **** void STFT::Init(FFT*         fft,
  38:dsp/pvoc/stft.cpp ****                 size_t       fft_size,
  39:dsp/pvoc/stft.cpp ****                 size_t       hop_size,
  40:dsp/pvoc/stft.cpp ****                 float*       fft_buffer,
  41:dsp/pvoc/stft.cpp ****                 float*       ifft_buffer,
  42:dsp/pvoc/stft.cpp ****                 const float* window_lut,
  43:dsp/pvoc/stft.cpp ****                 short*       analysis_synthesis_buffer,
  44:dsp/pvoc/stft.cpp ****                 Modifier*    modifier)
  45:dsp/pvoc/stft.cpp **** {
  46:dsp/pvoc/stft.cpp ****     fft_size_       = fft_size;
  47:dsp/pvoc/stft.cpp ****     hop_size_       = hop_size;
  48:dsp/pvoc/stft.cpp ****     fft_num_passes_ = 0;
  49:dsp/pvoc/stft.cpp ****     for(size_t t = fft_size; t > 1; t >>= 1)
  50:dsp/pvoc/stft.cpp ****     {
  51:dsp/pvoc/stft.cpp ****         ++fft_num_passes_;
  52:dsp/pvoc/stft.cpp ****     }
  53:dsp/pvoc/stft.cpp ****     buffer_size_ = fft_size_ + hop_size_;
  54:dsp/pvoc/stft.cpp **** 
  55:dsp/pvoc/stft.cpp ****     fft_ = fft;
  56:dsp/pvoc/stft.cpp **** #ifdef USE_ARM_FFT
  57:dsp/pvoc/stft.cpp ****     arm_rfft_fast_init_f32(fft_, fft_size);
  58:dsp/pvoc/stft.cpp **** #else
  59:dsp/pvoc/stft.cpp ****     fft_->Init();
  60:dsp/pvoc/stft.cpp **** #endif // USE_ARM_FFT
  61:dsp/pvoc/stft.cpp **** 
  62:dsp/pvoc/stft.cpp ****     analysis_  = &analysis_synthesis_buffer[0];
  63:dsp/pvoc/stft.cpp ****     synthesis_ = &analysis_synthesis_buffer[buffer_size_];
  64:dsp/pvoc/stft.cpp **** 
  65:dsp/pvoc/stft.cpp ****     ifft_in_ = fft_in_ = fft_buffer;
  66:dsp/pvoc/stft.cpp ****     ifft_out_ = fft_out_ = ifft_buffer;
  67:dsp/pvoc/stft.cpp **** 
  68:dsp/pvoc/stft.cpp ****     window_        = window_lut;
  69:dsp/pvoc/stft.cpp ****     window_stride_ = LUT_SINE_WINDOW_4096_SIZE / fft_size;
  70:dsp/pvoc/stft.cpp ****     modifier_      = modifier;
  71:dsp/pvoc/stft.cpp **** 
  72:dsp/pvoc/stft.cpp ****     parameters_ = NULL;
  73:dsp/pvoc/stft.cpp **** 
  74:dsp/pvoc/stft.cpp ****     Reset();
  75:dsp/pvoc/stft.cpp **** }
  76:dsp/pvoc/stft.cpp **** 
  77:dsp/pvoc/stft.cpp **** void STFT::Reset()
  78:dsp/pvoc/stft.cpp **** {
  30              		.loc 1 78 1 view -0
  31              		.cfi_startproc
  32              		@ args = 0, pretend = 0, frame = 0
  33              		@ frame_needed = 0, uses_anonymous_args = 0
  34              		@ link register save eliminated.
  79:dsp/pvoc/stft.cpp ****     buffer_ptr_  = 0;
  35              		.loc 1 79 5 view .LVU1
  80:dsp/pvoc/stft.cpp ****     process_ptr_ = (2 * hop_size_) % buffer_size_;
ARM GAS  /tmp/ccDsoCRY.s 			page 3


  36              		.loc 1 80 38 is_stmt 0 view .LVU2
  37 0000 D0E90321 		ldrd	r2, r1, [r0, #12]
  79:dsp/pvoc/stft.cpp ****     buffer_ptr_  = 0;
  38              		.loc 1 79 18 view .LVU3
  39 0004 0023     		movs	r3, #0
  40              		.loc 1 80 23 view .LVU4
  41 0006 5200     		lsls	r2, r2, #1
  79:dsp/pvoc/stft.cpp ****     buffer_ptr_  = 0;
  42              		.loc 1 79 18 view .LVU5
  43 0008 4363     		str	r3, [r0, #52]
  44              		.loc 1 80 5 is_stmt 1 view .LVU6
  81:dsp/pvoc/stft.cpp ****     block_size_  = 0;
  45              		.loc 1 81 18 is_stmt 0 view .LVU7
  46 000a C363     		str	r3, [r0, #60]
  82:dsp/pvoc/stft.cpp ****     fill(&analysis_[0], &analysis_[buffer_size_], 0);
  47              		.loc 1 82 11 view .LVU8
  48 000c C36A     		ldr	r3, [r0, #44]
  78:dsp/pvoc/stft.cpp ****     buffer_ptr_  = 0;
  49              		.loc 1 78 1 view .LVU9
  50 000e 30B4     		push	{r4, r5}
  51              		.cfi_def_cfa_offset 8
  52              		.cfi_offset 4, -8
  53              		.cfi_offset 5, -4
  80:dsp/pvoc/stft.cpp ****     block_size_  = 0;
  54              		.loc 1 80 36 view .LVU10
  55 0010 B2FBF1F5 		udiv	r5, r2, r1
  56              		.loc 1 82 48 view .LVU11
  57 0014 4C00     		lsls	r4, r1, #1
  80:dsp/pvoc/stft.cpp ****     block_size_  = 0;
  58              		.loc 1 80 36 view .LVU12
  59 0016 01FB1522 		mls	r2, r1, r5, r2
  60              		.loc 1 82 9 view .LVU13
  61 001a 03EB4101 		add	r1, r3, r1, lsl #1
  80:dsp/pvoc/stft.cpp ****     block_size_  = 0;
  62              		.loc 1 80 18 view .LVU14
  63 001e 8263     		str	r2, [r0, #56]
  81:dsp/pvoc/stft.cpp ****     fill(&analysis_[0], &analysis_[buffer_size_], 0);
  64              		.loc 1 81 5 is_stmt 1 view .LVU15
  65              		.loc 1 82 5 view .LVU16
  66              	.LVL1:
  67              	.LBB198:
  68              	.LBI198:
  69              		.file 2 "/usr/include/newlib/c++/9.2.1/bits/stl_algobase.h"
   1:/usr/include/newlib/c++/9.2.1/bits/stl_algobase.h **** // Core algorithmic facilities -*- C++ -*-
   2:/usr/include/newlib/c++/9.2.1/bits/stl_algobase.h **** 
   3:/usr/include/newlib/c++/9.2.1/bits/stl_algobase.h **** // Copyright (C) 2001-2019 Free Software Foundation, Inc.
   4:/usr/include/newlib/c++/9.2.1/bits/stl_algobase.h **** //
   5:/usr/include/newlib/c++/9.2.1/bits/stl_algobase.h **** // This file is part of the GNU ISO C++ Library.  This library is free
   6:/usr/include/newlib/c++/9.2.1/bits/stl_algobase.h **** // software; you can redistribute it and/or modify it under the
   7:/usr/include/newlib/c++/9.2.1/bits/stl_algobase.h **** // terms of the GNU General Public License as published by the
   8:/usr/include/newlib/c++/9.2.1/bits/stl_algobase.h **** // Free Software Foundation; either version 3, or (at your option)
   9:/usr/include/newlib/c++/9.2.1/bits/stl_algobase.h **** // any later version.
  10:/usr/include/newlib/c++/9.2.1/bits/stl_algobase.h **** 
  11:/usr/include/newlib/c++/9.2.1/bits/stl_algobase.h **** // This library is distributed in the hope that it will be useful,
  12:/usr/include/newlib/c++/9.2.1/bits/stl_algobase.h **** // but WITHOUT ANY WARRANTY; without even the implied warranty of
  13:/usr/include/newlib/c++/9.2.1/bits/stl_algobase.h **** // MERCHANTABILITY or FITNESS FOR A PARTICULAR PURPOSE.  See the
  14:/usr/include/newlib/c++/9.2.1/bits/stl_algobase.h **** // GNU General Public License for more details.
ARM GAS  /tmp/ccDsoCRY.s 			page 4


  15:/usr/include/newlib/c++/9.2.1/bits/stl_algobase.h **** 
  16:/usr/include/newlib/c++/9.2.1/bits/stl_algobase.h **** // Under Section 7 of GPL version 3, you are granted additional
  17:/usr/include/newlib/c++/9.2.1/bits/stl_algobase.h **** // permissions described in the GCC Runtime Library Exception, version
  18:/usr/include/newlib/c++/9.2.1/bits/stl_algobase.h **** // 3.1, as published by the Free Software Foundation.
  19:/usr/include/newlib/c++/9.2.1/bits/stl_algobase.h **** 
  20:/usr/include/newlib/c++/9.2.1/bits/stl_algobase.h **** // You should have received a copy of the GNU General Public License and
  21:/usr/include/newlib/c++/9.2.1/bits/stl_algobase.h **** // a copy of the GCC Runtime Library Exception along with this program;
  22:/usr/include/newlib/c++/9.2.1/bits/stl_algobase.h **** // see the files COPYING3 and COPYING.RUNTIME respectively.  If not, see
  23:/usr/include/newlib/c++/9.2.1/bits/stl_algobase.h **** // <http://www.gnu.org/licenses/>.
  24:/usr/include/newlib/c++/9.2.1/bits/stl_algobase.h **** 
  25:/usr/include/newlib/c++/9.2.1/bits/stl_algobase.h **** /*
  26:/usr/include/newlib/c++/9.2.1/bits/stl_algobase.h ****  *
  27:/usr/include/newlib/c++/9.2.1/bits/stl_algobase.h ****  * Copyright (c) 1994
  28:/usr/include/newlib/c++/9.2.1/bits/stl_algobase.h ****  * Hewlett-Packard Company
  29:/usr/include/newlib/c++/9.2.1/bits/stl_algobase.h ****  *
  30:/usr/include/newlib/c++/9.2.1/bits/stl_algobase.h ****  * Permission to use, copy, modify, distribute and sell this software
  31:/usr/include/newlib/c++/9.2.1/bits/stl_algobase.h ****  * and its documentation for any purpose is hereby granted without fee,
  32:/usr/include/newlib/c++/9.2.1/bits/stl_algobase.h ****  * provided that the above copyright notice appear in all copies and
  33:/usr/include/newlib/c++/9.2.1/bits/stl_algobase.h ****  * that both that copyright notice and this permission notice appear
  34:/usr/include/newlib/c++/9.2.1/bits/stl_algobase.h ****  * in supporting documentation.  Hewlett-Packard Company makes no
  35:/usr/include/newlib/c++/9.2.1/bits/stl_algobase.h ****  * representations about the suitability of this software for any
  36:/usr/include/newlib/c++/9.2.1/bits/stl_algobase.h ****  * purpose.  It is provided "as is" without express or implied warranty.
  37:/usr/include/newlib/c++/9.2.1/bits/stl_algobase.h ****  *
  38:/usr/include/newlib/c++/9.2.1/bits/stl_algobase.h ****  *
  39:/usr/include/newlib/c++/9.2.1/bits/stl_algobase.h ****  * Copyright (c) 1996-1998
  40:/usr/include/newlib/c++/9.2.1/bits/stl_algobase.h ****  * Silicon Graphics Computer Systems, Inc.
  41:/usr/include/newlib/c++/9.2.1/bits/stl_algobase.h ****  *
  42:/usr/include/newlib/c++/9.2.1/bits/stl_algobase.h ****  * Permission to use, copy, modify, distribute and sell this software
  43:/usr/include/newlib/c++/9.2.1/bits/stl_algobase.h ****  * and its documentation for any purpose is hereby granted without fee,
  44:/usr/include/newlib/c++/9.2.1/bits/stl_algobase.h ****  * provided that the above copyright notice appear in all copies and
  45:/usr/include/newlib/c++/9.2.1/bits/stl_algobase.h ****  * that both that copyright notice and this permission notice appear
  46:/usr/include/newlib/c++/9.2.1/bits/stl_algobase.h ****  * in supporting documentation.  Silicon Graphics makes no
  47:/usr/include/newlib/c++/9.2.1/bits/stl_algobase.h ****  * representations about the suitability of this software for any
  48:/usr/include/newlib/c++/9.2.1/bits/stl_algobase.h ****  * purpose.  It is provided "as is" without express or implied warranty.
  49:/usr/include/newlib/c++/9.2.1/bits/stl_algobase.h ****  */
  50:/usr/include/newlib/c++/9.2.1/bits/stl_algobase.h **** 
  51:/usr/include/newlib/c++/9.2.1/bits/stl_algobase.h **** /** @file bits/stl_algobase.h
  52:/usr/include/newlib/c++/9.2.1/bits/stl_algobase.h ****  *  This is an internal header file, included by other library headers.
  53:/usr/include/newlib/c++/9.2.1/bits/stl_algobase.h ****  *  Do not attempt to use it directly. @headername{algorithm}
  54:/usr/include/newlib/c++/9.2.1/bits/stl_algobase.h ****  */
  55:/usr/include/newlib/c++/9.2.1/bits/stl_algobase.h **** 
  56:/usr/include/newlib/c++/9.2.1/bits/stl_algobase.h **** #ifndef _STL_ALGOBASE_H
  57:/usr/include/newlib/c++/9.2.1/bits/stl_algobase.h **** #define _STL_ALGOBASE_H 1
  58:/usr/include/newlib/c++/9.2.1/bits/stl_algobase.h **** 
  59:/usr/include/newlib/c++/9.2.1/bits/stl_algobase.h **** #include <bits/c++config.h>
  60:/usr/include/newlib/c++/9.2.1/bits/stl_algobase.h **** #include <bits/functexcept.h>
  61:/usr/include/newlib/c++/9.2.1/bits/stl_algobase.h **** #include <bits/cpp_type_traits.h>
  62:/usr/include/newlib/c++/9.2.1/bits/stl_algobase.h **** #include <ext/type_traits.h>
  63:/usr/include/newlib/c++/9.2.1/bits/stl_algobase.h **** #include <ext/numeric_traits.h>
  64:/usr/include/newlib/c++/9.2.1/bits/stl_algobase.h **** #include <bits/stl_pair.h>
  65:/usr/include/newlib/c++/9.2.1/bits/stl_algobase.h **** #include <bits/stl_iterator_base_types.h>
  66:/usr/include/newlib/c++/9.2.1/bits/stl_algobase.h **** #include <bits/stl_iterator_base_funcs.h>
  67:/usr/include/newlib/c++/9.2.1/bits/stl_algobase.h **** #include <bits/stl_iterator.h>
  68:/usr/include/newlib/c++/9.2.1/bits/stl_algobase.h **** #include <bits/concept_check.h>
  69:/usr/include/newlib/c++/9.2.1/bits/stl_algobase.h **** #include <debug/debug.h>
  70:/usr/include/newlib/c++/9.2.1/bits/stl_algobase.h **** #include <bits/move.h> // For std::swap
  71:/usr/include/newlib/c++/9.2.1/bits/stl_algobase.h **** #include <bits/predefined_ops.h>
ARM GAS  /tmp/ccDsoCRY.s 			page 5


  72:/usr/include/newlib/c++/9.2.1/bits/stl_algobase.h **** #if __cplusplus >= 201103L
  73:/usr/include/newlib/c++/9.2.1/bits/stl_algobase.h **** # include <type_traits>
  74:/usr/include/newlib/c++/9.2.1/bits/stl_algobase.h **** #endif
  75:/usr/include/newlib/c++/9.2.1/bits/stl_algobase.h **** 
  76:/usr/include/newlib/c++/9.2.1/bits/stl_algobase.h **** namespace std _GLIBCXX_VISIBILITY(default)
  77:/usr/include/newlib/c++/9.2.1/bits/stl_algobase.h **** {
  78:/usr/include/newlib/c++/9.2.1/bits/stl_algobase.h **** _GLIBCXX_BEGIN_NAMESPACE_VERSION
  79:/usr/include/newlib/c++/9.2.1/bits/stl_algobase.h **** 
  80:/usr/include/newlib/c++/9.2.1/bits/stl_algobase.h **** #if __cplusplus < 201103L
  81:/usr/include/newlib/c++/9.2.1/bits/stl_algobase.h ****   // See http://gcc.gnu.org/ml/libstdc++/2004-08/msg00167.html: in a
  82:/usr/include/newlib/c++/9.2.1/bits/stl_algobase.h ****   // nutshell, we are partially implementing the resolution of DR 187,
  83:/usr/include/newlib/c++/9.2.1/bits/stl_algobase.h ****   // when it's safe, i.e., the value_types are equal.
  84:/usr/include/newlib/c++/9.2.1/bits/stl_algobase.h ****   template<bool _BoolType>
  85:/usr/include/newlib/c++/9.2.1/bits/stl_algobase.h ****     struct __iter_swap
  86:/usr/include/newlib/c++/9.2.1/bits/stl_algobase.h ****     {
  87:/usr/include/newlib/c++/9.2.1/bits/stl_algobase.h ****       template<typename _ForwardIterator1, typename _ForwardIterator2>
  88:/usr/include/newlib/c++/9.2.1/bits/stl_algobase.h **** 	static void
  89:/usr/include/newlib/c++/9.2.1/bits/stl_algobase.h **** 	iter_swap(_ForwardIterator1 __a, _ForwardIterator2 __b)
  90:/usr/include/newlib/c++/9.2.1/bits/stl_algobase.h **** 	{
  91:/usr/include/newlib/c++/9.2.1/bits/stl_algobase.h **** 	  typedef typename iterator_traits<_ForwardIterator1>::value_type
  92:/usr/include/newlib/c++/9.2.1/bits/stl_algobase.h **** 	    _ValueType1;
  93:/usr/include/newlib/c++/9.2.1/bits/stl_algobase.h **** 	  _ValueType1 __tmp = *__a;
  94:/usr/include/newlib/c++/9.2.1/bits/stl_algobase.h **** 	  *__a = *__b;
  95:/usr/include/newlib/c++/9.2.1/bits/stl_algobase.h **** 	  *__b = __tmp;
  96:/usr/include/newlib/c++/9.2.1/bits/stl_algobase.h **** 	}
  97:/usr/include/newlib/c++/9.2.1/bits/stl_algobase.h ****     };
  98:/usr/include/newlib/c++/9.2.1/bits/stl_algobase.h **** 
  99:/usr/include/newlib/c++/9.2.1/bits/stl_algobase.h ****   template<>
 100:/usr/include/newlib/c++/9.2.1/bits/stl_algobase.h ****     struct __iter_swap<true>
 101:/usr/include/newlib/c++/9.2.1/bits/stl_algobase.h ****     {
 102:/usr/include/newlib/c++/9.2.1/bits/stl_algobase.h ****       template<typename _ForwardIterator1, typename _ForwardIterator2>
 103:/usr/include/newlib/c++/9.2.1/bits/stl_algobase.h **** 	static void
 104:/usr/include/newlib/c++/9.2.1/bits/stl_algobase.h **** 	iter_swap(_ForwardIterator1 __a, _ForwardIterator2 __b)
 105:/usr/include/newlib/c++/9.2.1/bits/stl_algobase.h **** 	{
 106:/usr/include/newlib/c++/9.2.1/bits/stl_algobase.h **** 	  swap(*__a, *__b);
 107:/usr/include/newlib/c++/9.2.1/bits/stl_algobase.h **** 	}
 108:/usr/include/newlib/c++/9.2.1/bits/stl_algobase.h ****     };
 109:/usr/include/newlib/c++/9.2.1/bits/stl_algobase.h **** #endif
 110:/usr/include/newlib/c++/9.2.1/bits/stl_algobase.h **** 
 111:/usr/include/newlib/c++/9.2.1/bits/stl_algobase.h ****   /**
 112:/usr/include/newlib/c++/9.2.1/bits/stl_algobase.h ****    *  @brief Swaps the contents of two iterators.
 113:/usr/include/newlib/c++/9.2.1/bits/stl_algobase.h ****    *  @ingroup mutating_algorithms
 114:/usr/include/newlib/c++/9.2.1/bits/stl_algobase.h ****    *  @param  __a  An iterator.
 115:/usr/include/newlib/c++/9.2.1/bits/stl_algobase.h ****    *  @param  __b  Another iterator.
 116:/usr/include/newlib/c++/9.2.1/bits/stl_algobase.h ****    *  @return   Nothing.
 117:/usr/include/newlib/c++/9.2.1/bits/stl_algobase.h ****    *
 118:/usr/include/newlib/c++/9.2.1/bits/stl_algobase.h ****    *  This function swaps the values pointed to by two iterators, not the
 119:/usr/include/newlib/c++/9.2.1/bits/stl_algobase.h ****    *  iterators themselves.
 120:/usr/include/newlib/c++/9.2.1/bits/stl_algobase.h ****   */
 121:/usr/include/newlib/c++/9.2.1/bits/stl_algobase.h ****   template<typename _ForwardIterator1, typename _ForwardIterator2>
 122:/usr/include/newlib/c++/9.2.1/bits/stl_algobase.h ****     inline void
 123:/usr/include/newlib/c++/9.2.1/bits/stl_algobase.h ****     iter_swap(_ForwardIterator1 __a, _ForwardIterator2 __b)
 124:/usr/include/newlib/c++/9.2.1/bits/stl_algobase.h ****     {
 125:/usr/include/newlib/c++/9.2.1/bits/stl_algobase.h ****       // concept requirements
 126:/usr/include/newlib/c++/9.2.1/bits/stl_algobase.h ****       __glibcxx_function_requires(_Mutable_ForwardIteratorConcept<
 127:/usr/include/newlib/c++/9.2.1/bits/stl_algobase.h **** 				  _ForwardIterator1>)
 128:/usr/include/newlib/c++/9.2.1/bits/stl_algobase.h ****       __glibcxx_function_requires(_Mutable_ForwardIteratorConcept<
ARM GAS  /tmp/ccDsoCRY.s 			page 6


 129:/usr/include/newlib/c++/9.2.1/bits/stl_algobase.h **** 				  _ForwardIterator2>)
 130:/usr/include/newlib/c++/9.2.1/bits/stl_algobase.h **** 
 131:/usr/include/newlib/c++/9.2.1/bits/stl_algobase.h **** #if __cplusplus < 201103L
 132:/usr/include/newlib/c++/9.2.1/bits/stl_algobase.h ****       typedef typename iterator_traits<_ForwardIterator1>::value_type
 133:/usr/include/newlib/c++/9.2.1/bits/stl_algobase.h **** 	_ValueType1;
 134:/usr/include/newlib/c++/9.2.1/bits/stl_algobase.h ****       typedef typename iterator_traits<_ForwardIterator2>::value_type
 135:/usr/include/newlib/c++/9.2.1/bits/stl_algobase.h **** 	_ValueType2;
 136:/usr/include/newlib/c++/9.2.1/bits/stl_algobase.h **** 
 137:/usr/include/newlib/c++/9.2.1/bits/stl_algobase.h ****       __glibcxx_function_requires(_ConvertibleConcept<_ValueType1,
 138:/usr/include/newlib/c++/9.2.1/bits/stl_algobase.h **** 				  _ValueType2>)
 139:/usr/include/newlib/c++/9.2.1/bits/stl_algobase.h ****       __glibcxx_function_requires(_ConvertibleConcept<_ValueType2,
 140:/usr/include/newlib/c++/9.2.1/bits/stl_algobase.h **** 				  _ValueType1>)
 141:/usr/include/newlib/c++/9.2.1/bits/stl_algobase.h **** 
 142:/usr/include/newlib/c++/9.2.1/bits/stl_algobase.h ****       typedef typename iterator_traits<_ForwardIterator1>::reference
 143:/usr/include/newlib/c++/9.2.1/bits/stl_algobase.h **** 	_ReferenceType1;
 144:/usr/include/newlib/c++/9.2.1/bits/stl_algobase.h ****       typedef typename iterator_traits<_ForwardIterator2>::reference
 145:/usr/include/newlib/c++/9.2.1/bits/stl_algobase.h **** 	_ReferenceType2;
 146:/usr/include/newlib/c++/9.2.1/bits/stl_algobase.h ****       std::__iter_swap<__are_same<_ValueType1, _ValueType2>::__value
 147:/usr/include/newlib/c++/9.2.1/bits/stl_algobase.h **** 	&& __are_same<_ValueType1&, _ReferenceType1>::__value
 148:/usr/include/newlib/c++/9.2.1/bits/stl_algobase.h **** 	&& __are_same<_ValueType2&, _ReferenceType2>::__value>::
 149:/usr/include/newlib/c++/9.2.1/bits/stl_algobase.h **** 	iter_swap(__a, __b);
 150:/usr/include/newlib/c++/9.2.1/bits/stl_algobase.h **** #else
 151:/usr/include/newlib/c++/9.2.1/bits/stl_algobase.h ****       swap(*__a, *__b);
 152:/usr/include/newlib/c++/9.2.1/bits/stl_algobase.h **** #endif
 153:/usr/include/newlib/c++/9.2.1/bits/stl_algobase.h ****     }
 154:/usr/include/newlib/c++/9.2.1/bits/stl_algobase.h **** 
 155:/usr/include/newlib/c++/9.2.1/bits/stl_algobase.h ****   /**
 156:/usr/include/newlib/c++/9.2.1/bits/stl_algobase.h ****    *  @brief Swap the elements of two sequences.
 157:/usr/include/newlib/c++/9.2.1/bits/stl_algobase.h ****    *  @ingroup mutating_algorithms
 158:/usr/include/newlib/c++/9.2.1/bits/stl_algobase.h ****    *  @param  __first1  A forward iterator.
 159:/usr/include/newlib/c++/9.2.1/bits/stl_algobase.h ****    *  @param  __last1   A forward iterator.
 160:/usr/include/newlib/c++/9.2.1/bits/stl_algobase.h ****    *  @param  __first2  A forward iterator.
 161:/usr/include/newlib/c++/9.2.1/bits/stl_algobase.h ****    *  @return   An iterator equal to @p first2+(last1-first1).
 162:/usr/include/newlib/c++/9.2.1/bits/stl_algobase.h ****    *
 163:/usr/include/newlib/c++/9.2.1/bits/stl_algobase.h ****    *  Swaps each element in the range @p [first1,last1) with the
 164:/usr/include/newlib/c++/9.2.1/bits/stl_algobase.h ****    *  corresponding element in the range @p [first2,(last1-first1)).
 165:/usr/include/newlib/c++/9.2.1/bits/stl_algobase.h ****    *  The ranges must not overlap.
 166:/usr/include/newlib/c++/9.2.1/bits/stl_algobase.h ****   */
 167:/usr/include/newlib/c++/9.2.1/bits/stl_algobase.h ****   template<typename _ForwardIterator1, typename _ForwardIterator2>
 168:/usr/include/newlib/c++/9.2.1/bits/stl_algobase.h ****     _ForwardIterator2
 169:/usr/include/newlib/c++/9.2.1/bits/stl_algobase.h ****     swap_ranges(_ForwardIterator1 __first1, _ForwardIterator1 __last1,
 170:/usr/include/newlib/c++/9.2.1/bits/stl_algobase.h **** 		_ForwardIterator2 __first2)
 171:/usr/include/newlib/c++/9.2.1/bits/stl_algobase.h ****     {
 172:/usr/include/newlib/c++/9.2.1/bits/stl_algobase.h ****       // concept requirements
 173:/usr/include/newlib/c++/9.2.1/bits/stl_algobase.h ****       __glibcxx_function_requires(_Mutable_ForwardIteratorConcept<
 174:/usr/include/newlib/c++/9.2.1/bits/stl_algobase.h **** 				  _ForwardIterator1>)
 175:/usr/include/newlib/c++/9.2.1/bits/stl_algobase.h ****       __glibcxx_function_requires(_Mutable_ForwardIteratorConcept<
 176:/usr/include/newlib/c++/9.2.1/bits/stl_algobase.h **** 				  _ForwardIterator2>)
 177:/usr/include/newlib/c++/9.2.1/bits/stl_algobase.h ****       __glibcxx_requires_valid_range(__first1, __last1);
 178:/usr/include/newlib/c++/9.2.1/bits/stl_algobase.h **** 
 179:/usr/include/newlib/c++/9.2.1/bits/stl_algobase.h ****       for (; __first1 != __last1; ++__first1, (void)++__first2)
 180:/usr/include/newlib/c++/9.2.1/bits/stl_algobase.h **** 	std::iter_swap(__first1, __first2);
 181:/usr/include/newlib/c++/9.2.1/bits/stl_algobase.h ****       return __first2;
 182:/usr/include/newlib/c++/9.2.1/bits/stl_algobase.h ****     }
 183:/usr/include/newlib/c++/9.2.1/bits/stl_algobase.h **** 
 184:/usr/include/newlib/c++/9.2.1/bits/stl_algobase.h ****   /**
 185:/usr/include/newlib/c++/9.2.1/bits/stl_algobase.h ****    *  @brief This does what you think it does.
ARM GAS  /tmp/ccDsoCRY.s 			page 7


 186:/usr/include/newlib/c++/9.2.1/bits/stl_algobase.h ****    *  @ingroup sorting_algorithms
 187:/usr/include/newlib/c++/9.2.1/bits/stl_algobase.h ****    *  @param  __a  A thing of arbitrary type.
 188:/usr/include/newlib/c++/9.2.1/bits/stl_algobase.h ****    *  @param  __b  Another thing of arbitrary type.
 189:/usr/include/newlib/c++/9.2.1/bits/stl_algobase.h ****    *  @return   The lesser of the parameters.
 190:/usr/include/newlib/c++/9.2.1/bits/stl_algobase.h ****    *
 191:/usr/include/newlib/c++/9.2.1/bits/stl_algobase.h ****    *  This is the simple classic generic implementation.  It will work on
 192:/usr/include/newlib/c++/9.2.1/bits/stl_algobase.h ****    *  temporary expressions, since they are only evaluated once, unlike a
 193:/usr/include/newlib/c++/9.2.1/bits/stl_algobase.h ****    *  preprocessor macro.
 194:/usr/include/newlib/c++/9.2.1/bits/stl_algobase.h ****   */
 195:/usr/include/newlib/c++/9.2.1/bits/stl_algobase.h ****   template<typename _Tp>
 196:/usr/include/newlib/c++/9.2.1/bits/stl_algobase.h ****     _GLIBCXX14_CONSTEXPR
 197:/usr/include/newlib/c++/9.2.1/bits/stl_algobase.h ****     inline const _Tp&
 198:/usr/include/newlib/c++/9.2.1/bits/stl_algobase.h ****     min(const _Tp& __a, const _Tp& __b)
 199:/usr/include/newlib/c++/9.2.1/bits/stl_algobase.h ****     {
 200:/usr/include/newlib/c++/9.2.1/bits/stl_algobase.h ****       // concept requirements
 201:/usr/include/newlib/c++/9.2.1/bits/stl_algobase.h ****       __glibcxx_function_requires(_LessThanComparableConcept<_Tp>)
 202:/usr/include/newlib/c++/9.2.1/bits/stl_algobase.h ****       //return __b < __a ? __b : __a;
 203:/usr/include/newlib/c++/9.2.1/bits/stl_algobase.h ****       if (__b < __a)
 204:/usr/include/newlib/c++/9.2.1/bits/stl_algobase.h **** 	return __b;
 205:/usr/include/newlib/c++/9.2.1/bits/stl_algobase.h ****       return __a;
 206:/usr/include/newlib/c++/9.2.1/bits/stl_algobase.h ****     }
 207:/usr/include/newlib/c++/9.2.1/bits/stl_algobase.h **** 
 208:/usr/include/newlib/c++/9.2.1/bits/stl_algobase.h ****   /**
 209:/usr/include/newlib/c++/9.2.1/bits/stl_algobase.h ****    *  @brief This does what you think it does.
 210:/usr/include/newlib/c++/9.2.1/bits/stl_algobase.h ****    *  @ingroup sorting_algorithms
 211:/usr/include/newlib/c++/9.2.1/bits/stl_algobase.h ****    *  @param  __a  A thing of arbitrary type.
 212:/usr/include/newlib/c++/9.2.1/bits/stl_algobase.h ****    *  @param  __b  Another thing of arbitrary type.
 213:/usr/include/newlib/c++/9.2.1/bits/stl_algobase.h ****    *  @return   The greater of the parameters.
 214:/usr/include/newlib/c++/9.2.1/bits/stl_algobase.h ****    *
 215:/usr/include/newlib/c++/9.2.1/bits/stl_algobase.h ****    *  This is the simple classic generic implementation.  It will work on
 216:/usr/include/newlib/c++/9.2.1/bits/stl_algobase.h ****    *  temporary expressions, since they are only evaluated once, unlike a
 217:/usr/include/newlib/c++/9.2.1/bits/stl_algobase.h ****    *  preprocessor macro.
 218:/usr/include/newlib/c++/9.2.1/bits/stl_algobase.h ****   */
 219:/usr/include/newlib/c++/9.2.1/bits/stl_algobase.h ****   template<typename _Tp>
 220:/usr/include/newlib/c++/9.2.1/bits/stl_algobase.h ****     _GLIBCXX14_CONSTEXPR
 221:/usr/include/newlib/c++/9.2.1/bits/stl_algobase.h ****     inline const _Tp&
 222:/usr/include/newlib/c++/9.2.1/bits/stl_algobase.h ****     max(const _Tp& __a, const _Tp& __b)
 223:/usr/include/newlib/c++/9.2.1/bits/stl_algobase.h ****     {
 224:/usr/include/newlib/c++/9.2.1/bits/stl_algobase.h ****       // concept requirements
 225:/usr/include/newlib/c++/9.2.1/bits/stl_algobase.h ****       __glibcxx_function_requires(_LessThanComparableConcept<_Tp>)
 226:/usr/include/newlib/c++/9.2.1/bits/stl_algobase.h ****       //return  __a < __b ? __b : __a;
 227:/usr/include/newlib/c++/9.2.1/bits/stl_algobase.h ****       if (__a < __b)
 228:/usr/include/newlib/c++/9.2.1/bits/stl_algobase.h **** 	return __b;
 229:/usr/include/newlib/c++/9.2.1/bits/stl_algobase.h ****       return __a;
 230:/usr/include/newlib/c++/9.2.1/bits/stl_algobase.h ****     }
 231:/usr/include/newlib/c++/9.2.1/bits/stl_algobase.h **** 
 232:/usr/include/newlib/c++/9.2.1/bits/stl_algobase.h ****   /**
 233:/usr/include/newlib/c++/9.2.1/bits/stl_algobase.h ****    *  @brief This does what you think it does.
 234:/usr/include/newlib/c++/9.2.1/bits/stl_algobase.h ****    *  @ingroup sorting_algorithms
 235:/usr/include/newlib/c++/9.2.1/bits/stl_algobase.h ****    *  @param  __a  A thing of arbitrary type.
 236:/usr/include/newlib/c++/9.2.1/bits/stl_algobase.h ****    *  @param  __b  Another thing of arbitrary type.
 237:/usr/include/newlib/c++/9.2.1/bits/stl_algobase.h ****    *  @param  __comp  A @link comparison_functors comparison functor@endlink.
 238:/usr/include/newlib/c++/9.2.1/bits/stl_algobase.h ****    *  @return   The lesser of the parameters.
 239:/usr/include/newlib/c++/9.2.1/bits/stl_algobase.h ****    *
 240:/usr/include/newlib/c++/9.2.1/bits/stl_algobase.h ****    *  This will work on temporary expressions, since they are only evaluated
 241:/usr/include/newlib/c++/9.2.1/bits/stl_algobase.h ****    *  once, unlike a preprocessor macro.
 242:/usr/include/newlib/c++/9.2.1/bits/stl_algobase.h ****   */
ARM GAS  /tmp/ccDsoCRY.s 			page 8


 243:/usr/include/newlib/c++/9.2.1/bits/stl_algobase.h ****   template<typename _Tp, typename _Compare>
 244:/usr/include/newlib/c++/9.2.1/bits/stl_algobase.h ****     _GLIBCXX14_CONSTEXPR
 245:/usr/include/newlib/c++/9.2.1/bits/stl_algobase.h ****     inline const _Tp&
 246:/usr/include/newlib/c++/9.2.1/bits/stl_algobase.h ****     min(const _Tp& __a, const _Tp& __b, _Compare __comp)
 247:/usr/include/newlib/c++/9.2.1/bits/stl_algobase.h ****     {
 248:/usr/include/newlib/c++/9.2.1/bits/stl_algobase.h ****       //return __comp(__b, __a) ? __b : __a;
 249:/usr/include/newlib/c++/9.2.1/bits/stl_algobase.h ****       if (__comp(__b, __a))
 250:/usr/include/newlib/c++/9.2.1/bits/stl_algobase.h **** 	return __b;
 251:/usr/include/newlib/c++/9.2.1/bits/stl_algobase.h ****       return __a;
 252:/usr/include/newlib/c++/9.2.1/bits/stl_algobase.h ****     }
 253:/usr/include/newlib/c++/9.2.1/bits/stl_algobase.h **** 
 254:/usr/include/newlib/c++/9.2.1/bits/stl_algobase.h ****   /**
 255:/usr/include/newlib/c++/9.2.1/bits/stl_algobase.h ****    *  @brief This does what you think it does.
 256:/usr/include/newlib/c++/9.2.1/bits/stl_algobase.h ****    *  @ingroup sorting_algorithms
 257:/usr/include/newlib/c++/9.2.1/bits/stl_algobase.h ****    *  @param  __a  A thing of arbitrary type.
 258:/usr/include/newlib/c++/9.2.1/bits/stl_algobase.h ****    *  @param  __b  Another thing of arbitrary type.
 259:/usr/include/newlib/c++/9.2.1/bits/stl_algobase.h ****    *  @param  __comp  A @link comparison_functors comparison functor@endlink.
 260:/usr/include/newlib/c++/9.2.1/bits/stl_algobase.h ****    *  @return   The greater of the parameters.
 261:/usr/include/newlib/c++/9.2.1/bits/stl_algobase.h ****    *
 262:/usr/include/newlib/c++/9.2.1/bits/stl_algobase.h ****    *  This will work on temporary expressions, since they are only evaluated
 263:/usr/include/newlib/c++/9.2.1/bits/stl_algobase.h ****    *  once, unlike a preprocessor macro.
 264:/usr/include/newlib/c++/9.2.1/bits/stl_algobase.h ****   */
 265:/usr/include/newlib/c++/9.2.1/bits/stl_algobase.h ****   template<typename _Tp, typename _Compare>
 266:/usr/include/newlib/c++/9.2.1/bits/stl_algobase.h ****     _GLIBCXX14_CONSTEXPR
 267:/usr/include/newlib/c++/9.2.1/bits/stl_algobase.h ****     inline const _Tp&
 268:/usr/include/newlib/c++/9.2.1/bits/stl_algobase.h ****     max(const _Tp& __a, const _Tp& __b, _Compare __comp)
 269:/usr/include/newlib/c++/9.2.1/bits/stl_algobase.h ****     {
 270:/usr/include/newlib/c++/9.2.1/bits/stl_algobase.h ****       //return __comp(__a, __b) ? __b : __a;
 271:/usr/include/newlib/c++/9.2.1/bits/stl_algobase.h ****       if (__comp(__a, __b))
 272:/usr/include/newlib/c++/9.2.1/bits/stl_algobase.h **** 	return __b;
 273:/usr/include/newlib/c++/9.2.1/bits/stl_algobase.h ****       return __a;
 274:/usr/include/newlib/c++/9.2.1/bits/stl_algobase.h ****     }
 275:/usr/include/newlib/c++/9.2.1/bits/stl_algobase.h **** 
 276:/usr/include/newlib/c++/9.2.1/bits/stl_algobase.h ****   // Fallback implementation of the function in bits/stl_iterator.h used to
 277:/usr/include/newlib/c++/9.2.1/bits/stl_algobase.h ****   // remove the __normal_iterator wrapper. See copy, fill, ...
 278:/usr/include/newlib/c++/9.2.1/bits/stl_algobase.h ****   template<typename _Iterator>
 279:/usr/include/newlib/c++/9.2.1/bits/stl_algobase.h ****     inline _Iterator
 280:/usr/include/newlib/c++/9.2.1/bits/stl_algobase.h ****     __niter_base(_Iterator __it)
 281:/usr/include/newlib/c++/9.2.1/bits/stl_algobase.h ****     _GLIBCXX_NOEXCEPT_IF(std::is_nothrow_copy_constructible<_Iterator>::value)
 282:/usr/include/newlib/c++/9.2.1/bits/stl_algobase.h ****     { return __it; }
 283:/usr/include/newlib/c++/9.2.1/bits/stl_algobase.h **** 
 284:/usr/include/newlib/c++/9.2.1/bits/stl_algobase.h ****   // Reverse the __niter_base transformation to get a
 285:/usr/include/newlib/c++/9.2.1/bits/stl_algobase.h ****   // __normal_iterator back again (this assumes that __normal_iterator
 286:/usr/include/newlib/c++/9.2.1/bits/stl_algobase.h ****   // is only used to wrap random access iterators, like pointers).
 287:/usr/include/newlib/c++/9.2.1/bits/stl_algobase.h ****   template<typename _From, typename _To>
 288:/usr/include/newlib/c++/9.2.1/bits/stl_algobase.h ****     inline _From
 289:/usr/include/newlib/c++/9.2.1/bits/stl_algobase.h ****     __niter_wrap(_From __from, _To __res)
 290:/usr/include/newlib/c++/9.2.1/bits/stl_algobase.h ****     { return __from + (__res - std::__niter_base(__from)); }
 291:/usr/include/newlib/c++/9.2.1/bits/stl_algobase.h **** 
 292:/usr/include/newlib/c++/9.2.1/bits/stl_algobase.h ****   // No need to wrap, iterator already has the right type.
 293:/usr/include/newlib/c++/9.2.1/bits/stl_algobase.h ****   template<typename _Iterator>
 294:/usr/include/newlib/c++/9.2.1/bits/stl_algobase.h ****     inline _Iterator
 295:/usr/include/newlib/c++/9.2.1/bits/stl_algobase.h ****     __niter_wrap(const _Iterator&, _Iterator __res)
 296:/usr/include/newlib/c++/9.2.1/bits/stl_algobase.h ****     { return __res; }
 297:/usr/include/newlib/c++/9.2.1/bits/stl_algobase.h **** 
 298:/usr/include/newlib/c++/9.2.1/bits/stl_algobase.h ****   // All of these auxiliary structs serve two purposes.  (1) Replace
 299:/usr/include/newlib/c++/9.2.1/bits/stl_algobase.h ****   // calls to copy with memmove whenever possible.  (Memmove, not memcpy,
ARM GAS  /tmp/ccDsoCRY.s 			page 9


 300:/usr/include/newlib/c++/9.2.1/bits/stl_algobase.h ****   // because the input and output ranges are permitted to overlap.)
 301:/usr/include/newlib/c++/9.2.1/bits/stl_algobase.h ****   // (2) If we're using random access iterators, then write the loop as
 302:/usr/include/newlib/c++/9.2.1/bits/stl_algobase.h ****   // a for loop with an explicit count.
 303:/usr/include/newlib/c++/9.2.1/bits/stl_algobase.h **** 
 304:/usr/include/newlib/c++/9.2.1/bits/stl_algobase.h ****   template<bool _IsMove, bool _IsSimple, typename _Category>
 305:/usr/include/newlib/c++/9.2.1/bits/stl_algobase.h ****     struct __copy_move
 306:/usr/include/newlib/c++/9.2.1/bits/stl_algobase.h ****     {
 307:/usr/include/newlib/c++/9.2.1/bits/stl_algobase.h ****       template<typename _II, typename _OI>
 308:/usr/include/newlib/c++/9.2.1/bits/stl_algobase.h **** 	static _OI
 309:/usr/include/newlib/c++/9.2.1/bits/stl_algobase.h **** 	__copy_m(_II __first, _II __last, _OI __result)
 310:/usr/include/newlib/c++/9.2.1/bits/stl_algobase.h **** 	{
 311:/usr/include/newlib/c++/9.2.1/bits/stl_algobase.h **** 	  for (; __first != __last; ++__result, (void)++__first)
 312:/usr/include/newlib/c++/9.2.1/bits/stl_algobase.h **** 	    *__result = *__first;
 313:/usr/include/newlib/c++/9.2.1/bits/stl_algobase.h **** 	  return __result;
 314:/usr/include/newlib/c++/9.2.1/bits/stl_algobase.h **** 	}
 315:/usr/include/newlib/c++/9.2.1/bits/stl_algobase.h ****     };
 316:/usr/include/newlib/c++/9.2.1/bits/stl_algobase.h **** 
 317:/usr/include/newlib/c++/9.2.1/bits/stl_algobase.h **** #if __cplusplus >= 201103L
 318:/usr/include/newlib/c++/9.2.1/bits/stl_algobase.h ****   template<typename _Category>
 319:/usr/include/newlib/c++/9.2.1/bits/stl_algobase.h ****     struct __copy_move<true, false, _Category>
 320:/usr/include/newlib/c++/9.2.1/bits/stl_algobase.h ****     {
 321:/usr/include/newlib/c++/9.2.1/bits/stl_algobase.h ****       template<typename _II, typename _OI>
 322:/usr/include/newlib/c++/9.2.1/bits/stl_algobase.h **** 	static _OI
 323:/usr/include/newlib/c++/9.2.1/bits/stl_algobase.h **** 	__copy_m(_II __first, _II __last, _OI __result)
 324:/usr/include/newlib/c++/9.2.1/bits/stl_algobase.h **** 	{
 325:/usr/include/newlib/c++/9.2.1/bits/stl_algobase.h **** 	  for (; __first != __last; ++__result, (void)++__first)
 326:/usr/include/newlib/c++/9.2.1/bits/stl_algobase.h **** 	    *__result = std::move(*__first);
 327:/usr/include/newlib/c++/9.2.1/bits/stl_algobase.h **** 	  return __result;
 328:/usr/include/newlib/c++/9.2.1/bits/stl_algobase.h **** 	}
 329:/usr/include/newlib/c++/9.2.1/bits/stl_algobase.h ****     };
 330:/usr/include/newlib/c++/9.2.1/bits/stl_algobase.h **** #endif
 331:/usr/include/newlib/c++/9.2.1/bits/stl_algobase.h **** 
 332:/usr/include/newlib/c++/9.2.1/bits/stl_algobase.h ****   template<>
 333:/usr/include/newlib/c++/9.2.1/bits/stl_algobase.h ****     struct __copy_move<false, false, random_access_iterator_tag>
 334:/usr/include/newlib/c++/9.2.1/bits/stl_algobase.h ****     {
 335:/usr/include/newlib/c++/9.2.1/bits/stl_algobase.h ****       template<typename _II, typename _OI>
 336:/usr/include/newlib/c++/9.2.1/bits/stl_algobase.h **** 	static _OI
 337:/usr/include/newlib/c++/9.2.1/bits/stl_algobase.h **** 	__copy_m(_II __first, _II __last, _OI __result)
 338:/usr/include/newlib/c++/9.2.1/bits/stl_algobase.h **** 	{
 339:/usr/include/newlib/c++/9.2.1/bits/stl_algobase.h **** 	  typedef typename iterator_traits<_II>::difference_type _Distance;
 340:/usr/include/newlib/c++/9.2.1/bits/stl_algobase.h **** 	  for(_Distance __n = __last - __first; __n > 0; --__n)
 341:/usr/include/newlib/c++/9.2.1/bits/stl_algobase.h **** 	    {
 342:/usr/include/newlib/c++/9.2.1/bits/stl_algobase.h **** 	      *__result = *__first;
 343:/usr/include/newlib/c++/9.2.1/bits/stl_algobase.h **** 	      ++__first;
 344:/usr/include/newlib/c++/9.2.1/bits/stl_algobase.h **** 	      ++__result;
 345:/usr/include/newlib/c++/9.2.1/bits/stl_algobase.h **** 	    }
 346:/usr/include/newlib/c++/9.2.1/bits/stl_algobase.h **** 	  return __result;
 347:/usr/include/newlib/c++/9.2.1/bits/stl_algobase.h **** 	}
 348:/usr/include/newlib/c++/9.2.1/bits/stl_algobase.h ****     };
 349:/usr/include/newlib/c++/9.2.1/bits/stl_algobase.h **** 
 350:/usr/include/newlib/c++/9.2.1/bits/stl_algobase.h **** #if __cplusplus >= 201103L
 351:/usr/include/newlib/c++/9.2.1/bits/stl_algobase.h ****   template<>
 352:/usr/include/newlib/c++/9.2.1/bits/stl_algobase.h ****     struct __copy_move<true, false, random_access_iterator_tag>
 353:/usr/include/newlib/c++/9.2.1/bits/stl_algobase.h ****     {
 354:/usr/include/newlib/c++/9.2.1/bits/stl_algobase.h ****       template<typename _II, typename _OI>
 355:/usr/include/newlib/c++/9.2.1/bits/stl_algobase.h **** 	static _OI
 356:/usr/include/newlib/c++/9.2.1/bits/stl_algobase.h **** 	__copy_m(_II __first, _II __last, _OI __result)
ARM GAS  /tmp/ccDsoCRY.s 			page 10


 357:/usr/include/newlib/c++/9.2.1/bits/stl_algobase.h **** 	{
 358:/usr/include/newlib/c++/9.2.1/bits/stl_algobase.h **** 	  typedef typename iterator_traits<_II>::difference_type _Distance;
 359:/usr/include/newlib/c++/9.2.1/bits/stl_algobase.h **** 	  for(_Distance __n = __last - __first; __n > 0; --__n)
 360:/usr/include/newlib/c++/9.2.1/bits/stl_algobase.h **** 	    {
 361:/usr/include/newlib/c++/9.2.1/bits/stl_algobase.h **** 	      *__result = std::move(*__first);
 362:/usr/include/newlib/c++/9.2.1/bits/stl_algobase.h **** 	      ++__first;
 363:/usr/include/newlib/c++/9.2.1/bits/stl_algobase.h **** 	      ++__result;
 364:/usr/include/newlib/c++/9.2.1/bits/stl_algobase.h **** 	    }
 365:/usr/include/newlib/c++/9.2.1/bits/stl_algobase.h **** 	  return __result;
 366:/usr/include/newlib/c++/9.2.1/bits/stl_algobase.h **** 	}
 367:/usr/include/newlib/c++/9.2.1/bits/stl_algobase.h ****     };
 368:/usr/include/newlib/c++/9.2.1/bits/stl_algobase.h **** #endif
 369:/usr/include/newlib/c++/9.2.1/bits/stl_algobase.h **** 
 370:/usr/include/newlib/c++/9.2.1/bits/stl_algobase.h ****   template<bool _IsMove>
 371:/usr/include/newlib/c++/9.2.1/bits/stl_algobase.h ****     struct __copy_move<_IsMove, true, random_access_iterator_tag>
 372:/usr/include/newlib/c++/9.2.1/bits/stl_algobase.h ****     {
 373:/usr/include/newlib/c++/9.2.1/bits/stl_algobase.h ****       template<typename _Tp>
 374:/usr/include/newlib/c++/9.2.1/bits/stl_algobase.h **** 	static _Tp*
 375:/usr/include/newlib/c++/9.2.1/bits/stl_algobase.h **** 	__copy_m(const _Tp* __first, const _Tp* __last, _Tp* __result)
 376:/usr/include/newlib/c++/9.2.1/bits/stl_algobase.h **** 	{
 377:/usr/include/newlib/c++/9.2.1/bits/stl_algobase.h **** #if __cplusplus >= 201103L
 378:/usr/include/newlib/c++/9.2.1/bits/stl_algobase.h **** 	  using __assignable = conditional<_IsMove,
 379:/usr/include/newlib/c++/9.2.1/bits/stl_algobase.h **** 					   is_move_assignable<_Tp>,
 380:/usr/include/newlib/c++/9.2.1/bits/stl_algobase.h **** 					   is_copy_assignable<_Tp>>;
 381:/usr/include/newlib/c++/9.2.1/bits/stl_algobase.h **** 	  // trivial types can have deleted assignment
 382:/usr/include/newlib/c++/9.2.1/bits/stl_algobase.h **** 	  static_assert( __assignable::type::value, "type is not assignable" );
 383:/usr/include/newlib/c++/9.2.1/bits/stl_algobase.h **** #endif
 384:/usr/include/newlib/c++/9.2.1/bits/stl_algobase.h **** 	  const ptrdiff_t _Num = __last - __first;
 385:/usr/include/newlib/c++/9.2.1/bits/stl_algobase.h **** 	  if (_Num)
 386:/usr/include/newlib/c++/9.2.1/bits/stl_algobase.h **** 	    __builtin_memmove(__result, __first, sizeof(_Tp) * _Num);
 387:/usr/include/newlib/c++/9.2.1/bits/stl_algobase.h **** 	  return __result + _Num;
 388:/usr/include/newlib/c++/9.2.1/bits/stl_algobase.h **** 	}
 389:/usr/include/newlib/c++/9.2.1/bits/stl_algobase.h ****     };
 390:/usr/include/newlib/c++/9.2.1/bits/stl_algobase.h **** 
 391:/usr/include/newlib/c++/9.2.1/bits/stl_algobase.h ****   template<bool _IsMove, typename _II, typename _OI>
 392:/usr/include/newlib/c++/9.2.1/bits/stl_algobase.h ****     inline _OI
 393:/usr/include/newlib/c++/9.2.1/bits/stl_algobase.h ****     __copy_move_a(_II __first, _II __last, _OI __result)
 394:/usr/include/newlib/c++/9.2.1/bits/stl_algobase.h ****     {
 395:/usr/include/newlib/c++/9.2.1/bits/stl_algobase.h ****       typedef typename iterator_traits<_II>::value_type _ValueTypeI;
 396:/usr/include/newlib/c++/9.2.1/bits/stl_algobase.h ****       typedef typename iterator_traits<_OI>::value_type _ValueTypeO;
 397:/usr/include/newlib/c++/9.2.1/bits/stl_algobase.h ****       typedef typename iterator_traits<_II>::iterator_category _Category;
 398:/usr/include/newlib/c++/9.2.1/bits/stl_algobase.h ****       const bool __simple = (__is_trivially_copyable(_ValueTypeI)
 399:/usr/include/newlib/c++/9.2.1/bits/stl_algobase.h **** 			     && __is_pointer<_II>::__value
 400:/usr/include/newlib/c++/9.2.1/bits/stl_algobase.h **** 			     && __is_pointer<_OI>::__value
 401:/usr/include/newlib/c++/9.2.1/bits/stl_algobase.h **** 			     && __are_same<_ValueTypeI, _ValueTypeO>::__value);
 402:/usr/include/newlib/c++/9.2.1/bits/stl_algobase.h **** 
 403:/usr/include/newlib/c++/9.2.1/bits/stl_algobase.h ****       return std::__copy_move<_IsMove, __simple,
 404:/usr/include/newlib/c++/9.2.1/bits/stl_algobase.h **** 			      _Category>::__copy_m(__first, __last, __result);
 405:/usr/include/newlib/c++/9.2.1/bits/stl_algobase.h ****     }
 406:/usr/include/newlib/c++/9.2.1/bits/stl_algobase.h **** 
 407:/usr/include/newlib/c++/9.2.1/bits/stl_algobase.h ****   // Helpers for streambuf iterators (either istream or ostream).
 408:/usr/include/newlib/c++/9.2.1/bits/stl_algobase.h ****   // NB: avoid including <iosfwd>, relatively large.
 409:/usr/include/newlib/c++/9.2.1/bits/stl_algobase.h ****   template<typename _CharT>
 410:/usr/include/newlib/c++/9.2.1/bits/stl_algobase.h ****     struct char_traits;
 411:/usr/include/newlib/c++/9.2.1/bits/stl_algobase.h **** 
 412:/usr/include/newlib/c++/9.2.1/bits/stl_algobase.h ****   template<typename _CharT, typename _Traits>
 413:/usr/include/newlib/c++/9.2.1/bits/stl_algobase.h ****     class istreambuf_iterator;
ARM GAS  /tmp/ccDsoCRY.s 			page 11


 414:/usr/include/newlib/c++/9.2.1/bits/stl_algobase.h **** 
 415:/usr/include/newlib/c++/9.2.1/bits/stl_algobase.h ****   template<typename _CharT, typename _Traits>
 416:/usr/include/newlib/c++/9.2.1/bits/stl_algobase.h ****     class ostreambuf_iterator;
 417:/usr/include/newlib/c++/9.2.1/bits/stl_algobase.h **** 
 418:/usr/include/newlib/c++/9.2.1/bits/stl_algobase.h ****   template<bool _IsMove, typename _CharT>
 419:/usr/include/newlib/c++/9.2.1/bits/stl_algobase.h ****     typename __gnu_cxx::__enable_if<__is_char<_CharT>::__value,
 420:/usr/include/newlib/c++/9.2.1/bits/stl_algobase.h **** 	     ostreambuf_iterator<_CharT, char_traits<_CharT> > >::__type
 421:/usr/include/newlib/c++/9.2.1/bits/stl_algobase.h ****     __copy_move_a2(_CharT*, _CharT*,
 422:/usr/include/newlib/c++/9.2.1/bits/stl_algobase.h **** 		   ostreambuf_iterator<_CharT, char_traits<_CharT> >);
 423:/usr/include/newlib/c++/9.2.1/bits/stl_algobase.h **** 
 424:/usr/include/newlib/c++/9.2.1/bits/stl_algobase.h ****   template<bool _IsMove, typename _CharT>
 425:/usr/include/newlib/c++/9.2.1/bits/stl_algobase.h ****     typename __gnu_cxx::__enable_if<__is_char<_CharT>::__value,
 426:/usr/include/newlib/c++/9.2.1/bits/stl_algobase.h **** 	     ostreambuf_iterator<_CharT, char_traits<_CharT> > >::__type
 427:/usr/include/newlib/c++/9.2.1/bits/stl_algobase.h ****     __copy_move_a2(const _CharT*, const _CharT*,
 428:/usr/include/newlib/c++/9.2.1/bits/stl_algobase.h **** 		   ostreambuf_iterator<_CharT, char_traits<_CharT> >);
 429:/usr/include/newlib/c++/9.2.1/bits/stl_algobase.h **** 
 430:/usr/include/newlib/c++/9.2.1/bits/stl_algobase.h ****   template<bool _IsMove, typename _CharT>
 431:/usr/include/newlib/c++/9.2.1/bits/stl_algobase.h ****     typename __gnu_cxx::__enable_if<__is_char<_CharT>::__value,
 432:/usr/include/newlib/c++/9.2.1/bits/stl_algobase.h **** 				    _CharT*>::__type
 433:/usr/include/newlib/c++/9.2.1/bits/stl_algobase.h ****     __copy_move_a2(istreambuf_iterator<_CharT, char_traits<_CharT> >,
 434:/usr/include/newlib/c++/9.2.1/bits/stl_algobase.h **** 		   istreambuf_iterator<_CharT, char_traits<_CharT> >, _CharT*);
 435:/usr/include/newlib/c++/9.2.1/bits/stl_algobase.h **** 
 436:/usr/include/newlib/c++/9.2.1/bits/stl_algobase.h ****   template<bool _IsMove, typename _II, typename _OI>
 437:/usr/include/newlib/c++/9.2.1/bits/stl_algobase.h ****     inline _OI
 438:/usr/include/newlib/c++/9.2.1/bits/stl_algobase.h ****     __copy_move_a2(_II __first, _II __last, _OI __result)
 439:/usr/include/newlib/c++/9.2.1/bits/stl_algobase.h ****     {
 440:/usr/include/newlib/c++/9.2.1/bits/stl_algobase.h ****       return std::__niter_wrap(__result,
 441:/usr/include/newlib/c++/9.2.1/bits/stl_algobase.h **** 		std::__copy_move_a<_IsMove>(std::__niter_base(__first),
 442:/usr/include/newlib/c++/9.2.1/bits/stl_algobase.h **** 					    std::__niter_base(__last),
 443:/usr/include/newlib/c++/9.2.1/bits/stl_algobase.h **** 					    std::__niter_base(__result)));
 444:/usr/include/newlib/c++/9.2.1/bits/stl_algobase.h ****     }
 445:/usr/include/newlib/c++/9.2.1/bits/stl_algobase.h **** 
 446:/usr/include/newlib/c++/9.2.1/bits/stl_algobase.h ****   /**
 447:/usr/include/newlib/c++/9.2.1/bits/stl_algobase.h ****    *  @brief Copies the range [first,last) into result.
 448:/usr/include/newlib/c++/9.2.1/bits/stl_algobase.h ****    *  @ingroup mutating_algorithms
 449:/usr/include/newlib/c++/9.2.1/bits/stl_algobase.h ****    *  @param  __first  An input iterator.
 450:/usr/include/newlib/c++/9.2.1/bits/stl_algobase.h ****    *  @param  __last   An input iterator.
 451:/usr/include/newlib/c++/9.2.1/bits/stl_algobase.h ****    *  @param  __result An output iterator.
 452:/usr/include/newlib/c++/9.2.1/bits/stl_algobase.h ****    *  @return   result + (first - last)
 453:/usr/include/newlib/c++/9.2.1/bits/stl_algobase.h ****    *
 454:/usr/include/newlib/c++/9.2.1/bits/stl_algobase.h ****    *  This inline function will boil down to a call to @c memmove whenever
 455:/usr/include/newlib/c++/9.2.1/bits/stl_algobase.h ****    *  possible.  Failing that, if random access iterators are passed, then the
 456:/usr/include/newlib/c++/9.2.1/bits/stl_algobase.h ****    *  loop count will be known (and therefore a candidate for compiler
 457:/usr/include/newlib/c++/9.2.1/bits/stl_algobase.h ****    *  optimizations such as unrolling).  Result may not be contained within
 458:/usr/include/newlib/c++/9.2.1/bits/stl_algobase.h ****    *  [first,last); the copy_backward function should be used instead.
 459:/usr/include/newlib/c++/9.2.1/bits/stl_algobase.h ****    *
 460:/usr/include/newlib/c++/9.2.1/bits/stl_algobase.h ****    *  Note that the end of the output range is permitted to be contained
 461:/usr/include/newlib/c++/9.2.1/bits/stl_algobase.h ****    *  within [first,last).
 462:/usr/include/newlib/c++/9.2.1/bits/stl_algobase.h ****   */
 463:/usr/include/newlib/c++/9.2.1/bits/stl_algobase.h ****   template<typename _II, typename _OI>
 464:/usr/include/newlib/c++/9.2.1/bits/stl_algobase.h ****     inline _OI
 465:/usr/include/newlib/c++/9.2.1/bits/stl_algobase.h ****     copy(_II __first, _II __last, _OI __result)
 466:/usr/include/newlib/c++/9.2.1/bits/stl_algobase.h ****     {
 467:/usr/include/newlib/c++/9.2.1/bits/stl_algobase.h ****       // concept requirements
 468:/usr/include/newlib/c++/9.2.1/bits/stl_algobase.h ****       __glibcxx_function_requires(_InputIteratorConcept<_II>)
 469:/usr/include/newlib/c++/9.2.1/bits/stl_algobase.h ****       __glibcxx_function_requires(_OutputIteratorConcept<_OI,
 470:/usr/include/newlib/c++/9.2.1/bits/stl_algobase.h **** 	    typename iterator_traits<_II>::value_type>)
ARM GAS  /tmp/ccDsoCRY.s 			page 12


 471:/usr/include/newlib/c++/9.2.1/bits/stl_algobase.h ****       __glibcxx_requires_can_increment_range(__first, __last, __result);
 472:/usr/include/newlib/c++/9.2.1/bits/stl_algobase.h **** 
 473:/usr/include/newlib/c++/9.2.1/bits/stl_algobase.h ****       return std::__copy_move_a2<__is_move_iterator<_II>::__value>
 474:/usr/include/newlib/c++/9.2.1/bits/stl_algobase.h **** 	     (std::__miter_base(__first), std::__miter_base(__last), __result);
 475:/usr/include/newlib/c++/9.2.1/bits/stl_algobase.h ****     }
 476:/usr/include/newlib/c++/9.2.1/bits/stl_algobase.h **** 
 477:/usr/include/newlib/c++/9.2.1/bits/stl_algobase.h **** #if __cplusplus >= 201103L
 478:/usr/include/newlib/c++/9.2.1/bits/stl_algobase.h ****   /**
 479:/usr/include/newlib/c++/9.2.1/bits/stl_algobase.h ****    *  @brief Moves the range [first,last) into result.
 480:/usr/include/newlib/c++/9.2.1/bits/stl_algobase.h ****    *  @ingroup mutating_algorithms
 481:/usr/include/newlib/c++/9.2.1/bits/stl_algobase.h ****    *  @param  __first  An input iterator.
 482:/usr/include/newlib/c++/9.2.1/bits/stl_algobase.h ****    *  @param  __last   An input iterator.
 483:/usr/include/newlib/c++/9.2.1/bits/stl_algobase.h ****    *  @param  __result An output iterator.
 484:/usr/include/newlib/c++/9.2.1/bits/stl_algobase.h ****    *  @return   result + (first - last)
 485:/usr/include/newlib/c++/9.2.1/bits/stl_algobase.h ****    *
 486:/usr/include/newlib/c++/9.2.1/bits/stl_algobase.h ****    *  This inline function will boil down to a call to @c memmove whenever
 487:/usr/include/newlib/c++/9.2.1/bits/stl_algobase.h ****    *  possible.  Failing that, if random access iterators are passed, then the
 488:/usr/include/newlib/c++/9.2.1/bits/stl_algobase.h ****    *  loop count will be known (and therefore a candidate for compiler
 489:/usr/include/newlib/c++/9.2.1/bits/stl_algobase.h ****    *  optimizations such as unrolling).  Result may not be contained within
 490:/usr/include/newlib/c++/9.2.1/bits/stl_algobase.h ****    *  [first,last); the move_backward function should be used instead.
 491:/usr/include/newlib/c++/9.2.1/bits/stl_algobase.h ****    *
 492:/usr/include/newlib/c++/9.2.1/bits/stl_algobase.h ****    *  Note that the end of the output range is permitted to be contained
 493:/usr/include/newlib/c++/9.2.1/bits/stl_algobase.h ****    *  within [first,last).
 494:/usr/include/newlib/c++/9.2.1/bits/stl_algobase.h ****   */
 495:/usr/include/newlib/c++/9.2.1/bits/stl_algobase.h ****   template<typename _II, typename _OI>
 496:/usr/include/newlib/c++/9.2.1/bits/stl_algobase.h ****     inline _OI
 497:/usr/include/newlib/c++/9.2.1/bits/stl_algobase.h ****     move(_II __first, _II __last, _OI __result)
 498:/usr/include/newlib/c++/9.2.1/bits/stl_algobase.h ****     {
 499:/usr/include/newlib/c++/9.2.1/bits/stl_algobase.h ****       // concept requirements
 500:/usr/include/newlib/c++/9.2.1/bits/stl_algobase.h ****       __glibcxx_function_requires(_InputIteratorConcept<_II>)
 501:/usr/include/newlib/c++/9.2.1/bits/stl_algobase.h ****       __glibcxx_function_requires(_OutputIteratorConcept<_OI,
 502:/usr/include/newlib/c++/9.2.1/bits/stl_algobase.h **** 	    typename iterator_traits<_II>::value_type>)
 503:/usr/include/newlib/c++/9.2.1/bits/stl_algobase.h ****       __glibcxx_requires_can_increment_range(__first, __last, __result);
 504:/usr/include/newlib/c++/9.2.1/bits/stl_algobase.h **** 
 505:/usr/include/newlib/c++/9.2.1/bits/stl_algobase.h ****       return std::__copy_move_a2<true>(std::__miter_base(__first),
 506:/usr/include/newlib/c++/9.2.1/bits/stl_algobase.h **** 				       std::__miter_base(__last), __result);
 507:/usr/include/newlib/c++/9.2.1/bits/stl_algobase.h ****     }
 508:/usr/include/newlib/c++/9.2.1/bits/stl_algobase.h **** 
 509:/usr/include/newlib/c++/9.2.1/bits/stl_algobase.h **** #define _GLIBCXX_MOVE3(_Tp, _Up, _Vp) std::move(_Tp, _Up, _Vp)
 510:/usr/include/newlib/c++/9.2.1/bits/stl_algobase.h **** #else
 511:/usr/include/newlib/c++/9.2.1/bits/stl_algobase.h **** #define _GLIBCXX_MOVE3(_Tp, _Up, _Vp) std::copy(_Tp, _Up, _Vp)
 512:/usr/include/newlib/c++/9.2.1/bits/stl_algobase.h **** #endif
 513:/usr/include/newlib/c++/9.2.1/bits/stl_algobase.h **** 
 514:/usr/include/newlib/c++/9.2.1/bits/stl_algobase.h ****   template<bool, bool, typename>
 515:/usr/include/newlib/c++/9.2.1/bits/stl_algobase.h ****     struct __copy_move_backward
 516:/usr/include/newlib/c++/9.2.1/bits/stl_algobase.h ****     {
 517:/usr/include/newlib/c++/9.2.1/bits/stl_algobase.h ****       template<typename _BI1, typename _BI2>
 518:/usr/include/newlib/c++/9.2.1/bits/stl_algobase.h **** 	static _BI2
 519:/usr/include/newlib/c++/9.2.1/bits/stl_algobase.h **** 	__copy_move_b(_BI1 __first, _BI1 __last, _BI2 __result)
 520:/usr/include/newlib/c++/9.2.1/bits/stl_algobase.h **** 	{
 521:/usr/include/newlib/c++/9.2.1/bits/stl_algobase.h **** 	  while (__first != __last)
 522:/usr/include/newlib/c++/9.2.1/bits/stl_algobase.h **** 	    *--__result = *--__last;
 523:/usr/include/newlib/c++/9.2.1/bits/stl_algobase.h **** 	  return __result;
 524:/usr/include/newlib/c++/9.2.1/bits/stl_algobase.h **** 	}
 525:/usr/include/newlib/c++/9.2.1/bits/stl_algobase.h ****     };
 526:/usr/include/newlib/c++/9.2.1/bits/stl_algobase.h **** 
 527:/usr/include/newlib/c++/9.2.1/bits/stl_algobase.h **** #if __cplusplus >= 201103L
ARM GAS  /tmp/ccDsoCRY.s 			page 13


 528:/usr/include/newlib/c++/9.2.1/bits/stl_algobase.h ****   template<typename _Category>
 529:/usr/include/newlib/c++/9.2.1/bits/stl_algobase.h ****     struct __copy_move_backward<true, false, _Category>
 530:/usr/include/newlib/c++/9.2.1/bits/stl_algobase.h ****     {
 531:/usr/include/newlib/c++/9.2.1/bits/stl_algobase.h ****       template<typename _BI1, typename _BI2>
 532:/usr/include/newlib/c++/9.2.1/bits/stl_algobase.h **** 	static _BI2
 533:/usr/include/newlib/c++/9.2.1/bits/stl_algobase.h **** 	__copy_move_b(_BI1 __first, _BI1 __last, _BI2 __result)
 534:/usr/include/newlib/c++/9.2.1/bits/stl_algobase.h **** 	{
 535:/usr/include/newlib/c++/9.2.1/bits/stl_algobase.h **** 	  while (__first != __last)
 536:/usr/include/newlib/c++/9.2.1/bits/stl_algobase.h **** 	    *--__result = std::move(*--__last);
 537:/usr/include/newlib/c++/9.2.1/bits/stl_algobase.h **** 	  return __result;
 538:/usr/include/newlib/c++/9.2.1/bits/stl_algobase.h **** 	}
 539:/usr/include/newlib/c++/9.2.1/bits/stl_algobase.h ****     };
 540:/usr/include/newlib/c++/9.2.1/bits/stl_algobase.h **** #endif
 541:/usr/include/newlib/c++/9.2.1/bits/stl_algobase.h **** 
 542:/usr/include/newlib/c++/9.2.1/bits/stl_algobase.h ****   template<>
 543:/usr/include/newlib/c++/9.2.1/bits/stl_algobase.h ****     struct __copy_move_backward<false, false, random_access_iterator_tag>
 544:/usr/include/newlib/c++/9.2.1/bits/stl_algobase.h ****     {
 545:/usr/include/newlib/c++/9.2.1/bits/stl_algobase.h ****       template<typename _BI1, typename _BI2>
 546:/usr/include/newlib/c++/9.2.1/bits/stl_algobase.h **** 	static _BI2
 547:/usr/include/newlib/c++/9.2.1/bits/stl_algobase.h **** 	__copy_move_b(_BI1 __first, _BI1 __last, _BI2 __result)
 548:/usr/include/newlib/c++/9.2.1/bits/stl_algobase.h **** 	{
 549:/usr/include/newlib/c++/9.2.1/bits/stl_algobase.h **** 	  typename iterator_traits<_BI1>::difference_type __n;
 550:/usr/include/newlib/c++/9.2.1/bits/stl_algobase.h **** 	  for (__n = __last - __first; __n > 0; --__n)
 551:/usr/include/newlib/c++/9.2.1/bits/stl_algobase.h **** 	    *--__result = *--__last;
 552:/usr/include/newlib/c++/9.2.1/bits/stl_algobase.h **** 	  return __result;
 553:/usr/include/newlib/c++/9.2.1/bits/stl_algobase.h **** 	}
 554:/usr/include/newlib/c++/9.2.1/bits/stl_algobase.h ****     };
 555:/usr/include/newlib/c++/9.2.1/bits/stl_algobase.h **** 
 556:/usr/include/newlib/c++/9.2.1/bits/stl_algobase.h **** #if __cplusplus >= 201103L
 557:/usr/include/newlib/c++/9.2.1/bits/stl_algobase.h ****   template<>
 558:/usr/include/newlib/c++/9.2.1/bits/stl_algobase.h ****     struct __copy_move_backward<true, false, random_access_iterator_tag>
 559:/usr/include/newlib/c++/9.2.1/bits/stl_algobase.h ****     {
 560:/usr/include/newlib/c++/9.2.1/bits/stl_algobase.h ****       template<typename _BI1, typename _BI2>
 561:/usr/include/newlib/c++/9.2.1/bits/stl_algobase.h **** 	static _BI2
 562:/usr/include/newlib/c++/9.2.1/bits/stl_algobase.h **** 	__copy_move_b(_BI1 __first, _BI1 __last, _BI2 __result)
 563:/usr/include/newlib/c++/9.2.1/bits/stl_algobase.h **** 	{
 564:/usr/include/newlib/c++/9.2.1/bits/stl_algobase.h **** 	  typename iterator_traits<_BI1>::difference_type __n;
 565:/usr/include/newlib/c++/9.2.1/bits/stl_algobase.h **** 	  for (__n = __last - __first; __n > 0; --__n)
 566:/usr/include/newlib/c++/9.2.1/bits/stl_algobase.h **** 	    *--__result = std::move(*--__last);
 567:/usr/include/newlib/c++/9.2.1/bits/stl_algobase.h **** 	  return __result;
 568:/usr/include/newlib/c++/9.2.1/bits/stl_algobase.h **** 	}
 569:/usr/include/newlib/c++/9.2.1/bits/stl_algobase.h ****     };
 570:/usr/include/newlib/c++/9.2.1/bits/stl_algobase.h **** #endif
 571:/usr/include/newlib/c++/9.2.1/bits/stl_algobase.h **** 
 572:/usr/include/newlib/c++/9.2.1/bits/stl_algobase.h ****   template<bool _IsMove>
 573:/usr/include/newlib/c++/9.2.1/bits/stl_algobase.h ****     struct __copy_move_backward<_IsMove, true, random_access_iterator_tag>
 574:/usr/include/newlib/c++/9.2.1/bits/stl_algobase.h ****     {
 575:/usr/include/newlib/c++/9.2.1/bits/stl_algobase.h ****       template<typename _Tp>
 576:/usr/include/newlib/c++/9.2.1/bits/stl_algobase.h **** 	static _Tp*
 577:/usr/include/newlib/c++/9.2.1/bits/stl_algobase.h **** 	__copy_move_b(const _Tp* __first, const _Tp* __last, _Tp* __result)
 578:/usr/include/newlib/c++/9.2.1/bits/stl_algobase.h **** 	{
 579:/usr/include/newlib/c++/9.2.1/bits/stl_algobase.h **** #if __cplusplus >= 201103L
 580:/usr/include/newlib/c++/9.2.1/bits/stl_algobase.h **** 	  using __assignable = conditional<_IsMove,
 581:/usr/include/newlib/c++/9.2.1/bits/stl_algobase.h **** 					   is_move_assignable<_Tp>,
 582:/usr/include/newlib/c++/9.2.1/bits/stl_algobase.h **** 					   is_copy_assignable<_Tp>>;
 583:/usr/include/newlib/c++/9.2.1/bits/stl_algobase.h **** 	  // trivial types can have deleted assignment
 584:/usr/include/newlib/c++/9.2.1/bits/stl_algobase.h **** 	  static_assert( __assignable::type::value, "type is not assignable" );
ARM GAS  /tmp/ccDsoCRY.s 			page 14


 585:/usr/include/newlib/c++/9.2.1/bits/stl_algobase.h **** #endif
 586:/usr/include/newlib/c++/9.2.1/bits/stl_algobase.h **** 	  const ptrdiff_t _Num = __last - __first;
 587:/usr/include/newlib/c++/9.2.1/bits/stl_algobase.h **** 	  if (_Num)
 588:/usr/include/newlib/c++/9.2.1/bits/stl_algobase.h **** 	    __builtin_memmove(__result - _Num, __first, sizeof(_Tp) * _Num);
 589:/usr/include/newlib/c++/9.2.1/bits/stl_algobase.h **** 	  return __result - _Num;
 590:/usr/include/newlib/c++/9.2.1/bits/stl_algobase.h **** 	}
 591:/usr/include/newlib/c++/9.2.1/bits/stl_algobase.h ****     };
 592:/usr/include/newlib/c++/9.2.1/bits/stl_algobase.h **** 
 593:/usr/include/newlib/c++/9.2.1/bits/stl_algobase.h ****   template<bool _IsMove, typename _BI1, typename _BI2>
 594:/usr/include/newlib/c++/9.2.1/bits/stl_algobase.h ****     inline _BI2
 595:/usr/include/newlib/c++/9.2.1/bits/stl_algobase.h ****     __copy_move_backward_a(_BI1 __first, _BI1 __last, _BI2 __result)
 596:/usr/include/newlib/c++/9.2.1/bits/stl_algobase.h ****     {
 597:/usr/include/newlib/c++/9.2.1/bits/stl_algobase.h ****       typedef typename iterator_traits<_BI1>::value_type _ValueType1;
 598:/usr/include/newlib/c++/9.2.1/bits/stl_algobase.h ****       typedef typename iterator_traits<_BI2>::value_type _ValueType2;
 599:/usr/include/newlib/c++/9.2.1/bits/stl_algobase.h ****       typedef typename iterator_traits<_BI1>::iterator_category _Category;
 600:/usr/include/newlib/c++/9.2.1/bits/stl_algobase.h ****       const bool __simple = (__is_trivially_copyable(_ValueType1)
 601:/usr/include/newlib/c++/9.2.1/bits/stl_algobase.h **** 			     && __is_pointer<_BI1>::__value
 602:/usr/include/newlib/c++/9.2.1/bits/stl_algobase.h **** 			     && __is_pointer<_BI2>::__value
 603:/usr/include/newlib/c++/9.2.1/bits/stl_algobase.h **** 			     && __are_same<_ValueType1, _ValueType2>::__value);
 604:/usr/include/newlib/c++/9.2.1/bits/stl_algobase.h **** 
 605:/usr/include/newlib/c++/9.2.1/bits/stl_algobase.h ****       return std::__copy_move_backward<_IsMove, __simple,
 606:/usr/include/newlib/c++/9.2.1/bits/stl_algobase.h **** 				       _Category>::__copy_move_b(__first,
 607:/usr/include/newlib/c++/9.2.1/bits/stl_algobase.h **** 								 __last,
 608:/usr/include/newlib/c++/9.2.1/bits/stl_algobase.h **** 								 __result);
 609:/usr/include/newlib/c++/9.2.1/bits/stl_algobase.h ****     }
 610:/usr/include/newlib/c++/9.2.1/bits/stl_algobase.h **** 
 611:/usr/include/newlib/c++/9.2.1/bits/stl_algobase.h ****   template<bool _IsMove, typename _BI1, typename _BI2>
 612:/usr/include/newlib/c++/9.2.1/bits/stl_algobase.h ****     inline _BI2
 613:/usr/include/newlib/c++/9.2.1/bits/stl_algobase.h ****     __copy_move_backward_a2(_BI1 __first, _BI1 __last, _BI2 __result)
 614:/usr/include/newlib/c++/9.2.1/bits/stl_algobase.h ****     {
 615:/usr/include/newlib/c++/9.2.1/bits/stl_algobase.h ****       return std::__niter_wrap(__result,
 616:/usr/include/newlib/c++/9.2.1/bits/stl_algobase.h **** 		std::__copy_move_backward_a<_IsMove>
 617:/usr/include/newlib/c++/9.2.1/bits/stl_algobase.h **** 		  (std::__niter_base(__first), std::__niter_base(__last),
 618:/usr/include/newlib/c++/9.2.1/bits/stl_algobase.h **** 		   std::__niter_base(__result)));
 619:/usr/include/newlib/c++/9.2.1/bits/stl_algobase.h ****     }
 620:/usr/include/newlib/c++/9.2.1/bits/stl_algobase.h **** 
 621:/usr/include/newlib/c++/9.2.1/bits/stl_algobase.h ****   /**
 622:/usr/include/newlib/c++/9.2.1/bits/stl_algobase.h ****    *  @brief Copies the range [first,last) into result.
 623:/usr/include/newlib/c++/9.2.1/bits/stl_algobase.h ****    *  @ingroup mutating_algorithms
 624:/usr/include/newlib/c++/9.2.1/bits/stl_algobase.h ****    *  @param  __first  A bidirectional iterator.
 625:/usr/include/newlib/c++/9.2.1/bits/stl_algobase.h ****    *  @param  __last   A bidirectional iterator.
 626:/usr/include/newlib/c++/9.2.1/bits/stl_algobase.h ****    *  @param  __result A bidirectional iterator.
 627:/usr/include/newlib/c++/9.2.1/bits/stl_algobase.h ****    *  @return   result - (first - last)
 628:/usr/include/newlib/c++/9.2.1/bits/stl_algobase.h ****    *
 629:/usr/include/newlib/c++/9.2.1/bits/stl_algobase.h ****    *  The function has the same effect as copy, but starts at the end of the
 630:/usr/include/newlib/c++/9.2.1/bits/stl_algobase.h ****    *  range and works its way to the start, returning the start of the result.
 631:/usr/include/newlib/c++/9.2.1/bits/stl_algobase.h ****    *  This inline function will boil down to a call to @c memmove whenever
 632:/usr/include/newlib/c++/9.2.1/bits/stl_algobase.h ****    *  possible.  Failing that, if random access iterators are passed, then the
 633:/usr/include/newlib/c++/9.2.1/bits/stl_algobase.h ****    *  loop count will be known (and therefore a candidate for compiler
 634:/usr/include/newlib/c++/9.2.1/bits/stl_algobase.h ****    *  optimizations such as unrolling).
 635:/usr/include/newlib/c++/9.2.1/bits/stl_algobase.h ****    *
 636:/usr/include/newlib/c++/9.2.1/bits/stl_algobase.h ****    *  Result may not be in the range (first,last].  Use copy instead.  Note
 637:/usr/include/newlib/c++/9.2.1/bits/stl_algobase.h ****    *  that the start of the output range may overlap [first,last).
 638:/usr/include/newlib/c++/9.2.1/bits/stl_algobase.h ****   */
 639:/usr/include/newlib/c++/9.2.1/bits/stl_algobase.h ****   template<typename _BI1, typename _BI2>
 640:/usr/include/newlib/c++/9.2.1/bits/stl_algobase.h ****     inline _BI2
 641:/usr/include/newlib/c++/9.2.1/bits/stl_algobase.h ****     copy_backward(_BI1 __first, _BI1 __last, _BI2 __result)
ARM GAS  /tmp/ccDsoCRY.s 			page 15


 642:/usr/include/newlib/c++/9.2.1/bits/stl_algobase.h ****     {
 643:/usr/include/newlib/c++/9.2.1/bits/stl_algobase.h ****       // concept requirements
 644:/usr/include/newlib/c++/9.2.1/bits/stl_algobase.h ****       __glibcxx_function_requires(_BidirectionalIteratorConcept<_BI1>)
 645:/usr/include/newlib/c++/9.2.1/bits/stl_algobase.h ****       __glibcxx_function_requires(_Mutable_BidirectionalIteratorConcept<_BI2>)
 646:/usr/include/newlib/c++/9.2.1/bits/stl_algobase.h ****       __glibcxx_function_requires(_ConvertibleConcept<
 647:/usr/include/newlib/c++/9.2.1/bits/stl_algobase.h **** 	    typename iterator_traits<_BI1>::value_type,
 648:/usr/include/newlib/c++/9.2.1/bits/stl_algobase.h **** 	    typename iterator_traits<_BI2>::value_type>)
 649:/usr/include/newlib/c++/9.2.1/bits/stl_algobase.h ****       __glibcxx_requires_can_decrement_range(__first, __last, __result);
 650:/usr/include/newlib/c++/9.2.1/bits/stl_algobase.h **** 
 651:/usr/include/newlib/c++/9.2.1/bits/stl_algobase.h ****       return std::__copy_move_backward_a2<__is_move_iterator<_BI1>::__value>
 652:/usr/include/newlib/c++/9.2.1/bits/stl_algobase.h **** 	     (std::__miter_base(__first), std::__miter_base(__last), __result);
 653:/usr/include/newlib/c++/9.2.1/bits/stl_algobase.h ****     }
 654:/usr/include/newlib/c++/9.2.1/bits/stl_algobase.h **** 
 655:/usr/include/newlib/c++/9.2.1/bits/stl_algobase.h **** #if __cplusplus >= 201103L
 656:/usr/include/newlib/c++/9.2.1/bits/stl_algobase.h ****   /**
 657:/usr/include/newlib/c++/9.2.1/bits/stl_algobase.h ****    *  @brief Moves the range [first,last) into result.
 658:/usr/include/newlib/c++/9.2.1/bits/stl_algobase.h ****    *  @ingroup mutating_algorithms
 659:/usr/include/newlib/c++/9.2.1/bits/stl_algobase.h ****    *  @param  __first  A bidirectional iterator.
 660:/usr/include/newlib/c++/9.2.1/bits/stl_algobase.h ****    *  @param  __last   A bidirectional iterator.
 661:/usr/include/newlib/c++/9.2.1/bits/stl_algobase.h ****    *  @param  __result A bidirectional iterator.
 662:/usr/include/newlib/c++/9.2.1/bits/stl_algobase.h ****    *  @return   result - (first - last)
 663:/usr/include/newlib/c++/9.2.1/bits/stl_algobase.h ****    *
 664:/usr/include/newlib/c++/9.2.1/bits/stl_algobase.h ****    *  The function has the same effect as move, but starts at the end of the
 665:/usr/include/newlib/c++/9.2.1/bits/stl_algobase.h ****    *  range and works its way to the start, returning the start of the result.
 666:/usr/include/newlib/c++/9.2.1/bits/stl_algobase.h ****    *  This inline function will boil down to a call to @c memmove whenever
 667:/usr/include/newlib/c++/9.2.1/bits/stl_algobase.h ****    *  possible.  Failing that, if random access iterators are passed, then the
 668:/usr/include/newlib/c++/9.2.1/bits/stl_algobase.h ****    *  loop count will be known (and therefore a candidate for compiler
 669:/usr/include/newlib/c++/9.2.1/bits/stl_algobase.h ****    *  optimizations such as unrolling).
 670:/usr/include/newlib/c++/9.2.1/bits/stl_algobase.h ****    *
 671:/usr/include/newlib/c++/9.2.1/bits/stl_algobase.h ****    *  Result may not be in the range (first,last].  Use move instead.  Note
 672:/usr/include/newlib/c++/9.2.1/bits/stl_algobase.h ****    *  that the start of the output range may overlap [first,last).
 673:/usr/include/newlib/c++/9.2.1/bits/stl_algobase.h ****   */
 674:/usr/include/newlib/c++/9.2.1/bits/stl_algobase.h ****   template<typename _BI1, typename _BI2>
 675:/usr/include/newlib/c++/9.2.1/bits/stl_algobase.h ****     inline _BI2
 676:/usr/include/newlib/c++/9.2.1/bits/stl_algobase.h ****     move_backward(_BI1 __first, _BI1 __last, _BI2 __result)
 677:/usr/include/newlib/c++/9.2.1/bits/stl_algobase.h ****     {
 678:/usr/include/newlib/c++/9.2.1/bits/stl_algobase.h ****       // concept requirements
 679:/usr/include/newlib/c++/9.2.1/bits/stl_algobase.h ****       __glibcxx_function_requires(_BidirectionalIteratorConcept<_BI1>)
 680:/usr/include/newlib/c++/9.2.1/bits/stl_algobase.h ****       __glibcxx_function_requires(_Mutable_BidirectionalIteratorConcept<_BI2>)
 681:/usr/include/newlib/c++/9.2.1/bits/stl_algobase.h ****       __glibcxx_function_requires(_ConvertibleConcept<
 682:/usr/include/newlib/c++/9.2.1/bits/stl_algobase.h **** 	    typename iterator_traits<_BI1>::value_type,
 683:/usr/include/newlib/c++/9.2.1/bits/stl_algobase.h **** 	    typename iterator_traits<_BI2>::value_type>)
 684:/usr/include/newlib/c++/9.2.1/bits/stl_algobase.h ****       __glibcxx_requires_can_decrement_range(__first, __last, __result);
 685:/usr/include/newlib/c++/9.2.1/bits/stl_algobase.h **** 
 686:/usr/include/newlib/c++/9.2.1/bits/stl_algobase.h ****       return std::__copy_move_backward_a2<true>(std::__miter_base(__first),
 687:/usr/include/newlib/c++/9.2.1/bits/stl_algobase.h **** 						std::__miter_base(__last),
 688:/usr/include/newlib/c++/9.2.1/bits/stl_algobase.h **** 						__result);
 689:/usr/include/newlib/c++/9.2.1/bits/stl_algobase.h ****     }
 690:/usr/include/newlib/c++/9.2.1/bits/stl_algobase.h **** 
 691:/usr/include/newlib/c++/9.2.1/bits/stl_algobase.h **** #define _GLIBCXX_MOVE_BACKWARD3(_Tp, _Up, _Vp) std::move_backward(_Tp, _Up, _Vp)
 692:/usr/include/newlib/c++/9.2.1/bits/stl_algobase.h **** #else
 693:/usr/include/newlib/c++/9.2.1/bits/stl_algobase.h **** #define _GLIBCXX_MOVE_BACKWARD3(_Tp, _Up, _Vp) std::copy_backward(_Tp, _Up, _Vp)
 694:/usr/include/newlib/c++/9.2.1/bits/stl_algobase.h **** #endif
 695:/usr/include/newlib/c++/9.2.1/bits/stl_algobase.h **** 
 696:/usr/include/newlib/c++/9.2.1/bits/stl_algobase.h ****   template<typename _ForwardIterator, typename _Tp>
 697:/usr/include/newlib/c++/9.2.1/bits/stl_algobase.h ****     inline typename
 698:/usr/include/newlib/c++/9.2.1/bits/stl_algobase.h ****     __gnu_cxx::__enable_if<!__is_scalar<_Tp>::__value, void>::__type
ARM GAS  /tmp/ccDsoCRY.s 			page 16


 699:/usr/include/newlib/c++/9.2.1/bits/stl_algobase.h ****     __fill_a(_ForwardIterator __first, _ForwardIterator __last,
 700:/usr/include/newlib/c++/9.2.1/bits/stl_algobase.h ****  	     const _Tp& __value)
 701:/usr/include/newlib/c++/9.2.1/bits/stl_algobase.h ****     {
 702:/usr/include/newlib/c++/9.2.1/bits/stl_algobase.h ****       for (; __first != __last; ++__first)
 703:/usr/include/newlib/c++/9.2.1/bits/stl_algobase.h **** 	*__first = __value;
 704:/usr/include/newlib/c++/9.2.1/bits/stl_algobase.h ****     }
 705:/usr/include/newlib/c++/9.2.1/bits/stl_algobase.h **** 
 706:/usr/include/newlib/c++/9.2.1/bits/stl_algobase.h ****   template<typename _ForwardIterator, typename _Tp>
 707:/usr/include/newlib/c++/9.2.1/bits/stl_algobase.h ****     inline typename
 708:/usr/include/newlib/c++/9.2.1/bits/stl_algobase.h ****     __gnu_cxx::__enable_if<__is_scalar<_Tp>::__value, void>::__type
 709:/usr/include/newlib/c++/9.2.1/bits/stl_algobase.h ****     __fill_a(_ForwardIterator __first, _ForwardIterator __last,
 710:/usr/include/newlib/c++/9.2.1/bits/stl_algobase.h **** 	     const _Tp& __value)
 711:/usr/include/newlib/c++/9.2.1/bits/stl_algobase.h ****     {
 712:/usr/include/newlib/c++/9.2.1/bits/stl_algobase.h ****       const _Tp __tmp = __value;
 713:/usr/include/newlib/c++/9.2.1/bits/stl_algobase.h ****       for (; __first != __last; ++__first)
 714:/usr/include/newlib/c++/9.2.1/bits/stl_algobase.h **** 	*__first = __tmp;
 715:/usr/include/newlib/c++/9.2.1/bits/stl_algobase.h ****     }
 716:/usr/include/newlib/c++/9.2.1/bits/stl_algobase.h **** 
 717:/usr/include/newlib/c++/9.2.1/bits/stl_algobase.h ****   // Specialization: for char types we can use memset.
 718:/usr/include/newlib/c++/9.2.1/bits/stl_algobase.h ****   template<typename _Tp>
 719:/usr/include/newlib/c++/9.2.1/bits/stl_algobase.h ****     inline typename
 720:/usr/include/newlib/c++/9.2.1/bits/stl_algobase.h ****     __gnu_cxx::__enable_if<__is_byte<_Tp>::__value, void>::__type
 721:/usr/include/newlib/c++/9.2.1/bits/stl_algobase.h ****     __fill_a(_Tp* __first, _Tp* __last, const _Tp& __c)
 722:/usr/include/newlib/c++/9.2.1/bits/stl_algobase.h ****     {
 723:/usr/include/newlib/c++/9.2.1/bits/stl_algobase.h ****       const _Tp __tmp = __c;
 724:/usr/include/newlib/c++/9.2.1/bits/stl_algobase.h ****       if (const size_t __len = __last - __first)
 725:/usr/include/newlib/c++/9.2.1/bits/stl_algobase.h **** 	__builtin_memset(__first, static_cast<unsigned char>(__tmp), __len);
 726:/usr/include/newlib/c++/9.2.1/bits/stl_algobase.h ****     }
 727:/usr/include/newlib/c++/9.2.1/bits/stl_algobase.h **** 
 728:/usr/include/newlib/c++/9.2.1/bits/stl_algobase.h ****   /**
 729:/usr/include/newlib/c++/9.2.1/bits/stl_algobase.h ****    *  @brief Fills the range [first,last) with copies of value.
 730:/usr/include/newlib/c++/9.2.1/bits/stl_algobase.h ****    *  @ingroup mutating_algorithms
 731:/usr/include/newlib/c++/9.2.1/bits/stl_algobase.h ****    *  @param  __first  A forward iterator.
 732:/usr/include/newlib/c++/9.2.1/bits/stl_algobase.h ****    *  @param  __last   A forward iterator.
 733:/usr/include/newlib/c++/9.2.1/bits/stl_algobase.h ****    *  @param  __value  A reference-to-const of arbitrary type.
 734:/usr/include/newlib/c++/9.2.1/bits/stl_algobase.h ****    *  @return   Nothing.
 735:/usr/include/newlib/c++/9.2.1/bits/stl_algobase.h ****    *
 736:/usr/include/newlib/c++/9.2.1/bits/stl_algobase.h ****    *  This function fills a range with copies of the same value.  For char
 737:/usr/include/newlib/c++/9.2.1/bits/stl_algobase.h ****    *  types filling contiguous areas of memory, this becomes an inline call
 738:/usr/include/newlib/c++/9.2.1/bits/stl_algobase.h ****    *  to @c memset or @c wmemset.
 739:/usr/include/newlib/c++/9.2.1/bits/stl_algobase.h ****   */
 740:/usr/include/newlib/c++/9.2.1/bits/stl_algobase.h ****   template<typename _ForwardIterator, typename _Tp>
 741:/usr/include/newlib/c++/9.2.1/bits/stl_algobase.h ****     inline void
 742:/usr/include/newlib/c++/9.2.1/bits/stl_algobase.h ****     fill(_ForwardIterator __first, _ForwardIterator __last, const _Tp& __value)
  70              		.loc 2 742 5 view .LVU17
  71              	.LBB199:
  72              	.LBI199:
 709:/usr/include/newlib/c++/9.2.1/bits/stl_algobase.h **** 	     const _Tp& __value)
  73              		.loc 2 709 5 view .LVU18
  74              	.LBB200:
 713:/usr/include/newlib/c++/9.2.1/bits/stl_algobase.h **** 	*__first = __tmp;
  75              		.loc 2 713 22 view .LVU19
  76 0020 8B42     		cmp	r3, r1
  77 0022 04D0     		beq	.L2
  78              	.LVL2:
  79              	.L3:
 714:/usr/include/newlib/c++/9.2.1/bits/stl_algobase.h ****     }
ARM GAS  /tmp/ccDsoCRY.s 			page 17


  80              		.loc 2 714 2 is_stmt 0 view .LVU20
  81 0024 0022     		movs	r2, #0
  82 0026 23F8022B 		strh	r2, [r3], #2	@ movhi
  83              	.LVL3:
 713:/usr/include/newlib/c++/9.2.1/bits/stl_algobase.h **** 	*__first = __tmp;
  84              		.loc 2 713 7 is_stmt 1 view .LVU21
 713:/usr/include/newlib/c++/9.2.1/bits/stl_algobase.h **** 	*__first = __tmp;
  85              		.loc 2 713 22 view .LVU22
  86 002a 9942     		cmp	r1, r3
  87 002c FAD1     		bne	.L3
  88              	.L2:
  89              	.LVL4:
 713:/usr/include/newlib/c++/9.2.1/bits/stl_algobase.h **** 	*__first = __tmp;
  90              		.loc 2 713 22 is_stmt 0 view .LVU23
  91              	.LBE200:
  92              	.LBE199:
  93              	.LBE198:
  83:dsp/pvoc/stft.cpp ****     fill(&synthesis_[0], &synthesis_[buffer_size_], 0);
  94              		.loc 1 83 5 is_stmt 1 view .LVU24
  95              		.loc 1 83 11 is_stmt 0 view .LVU25
  96 002e 036B     		ldr	r3, [r0, #48]
  97              		.loc 1 83 9 view .LVU26
  98 0030 1919     		adds	r1, r3, r4
  99              	.LVL5:
 100              	.LBB201:
 101              	.LBI201:
 102              		.loc 2 742 5 is_stmt 1 view .LVU27
 103              	.LBB202:
 104              	.LBI202:
 709:/usr/include/newlib/c++/9.2.1/bits/stl_algobase.h **** 	     const _Tp& __value)
 105              		.loc 2 709 5 view .LVU28
 106              	.LBB203:
 713:/usr/include/newlib/c++/9.2.1/bits/stl_algobase.h **** 	*__first = __tmp;
 107              		.loc 2 713 22 view .LVU29
 108 0032 8B42     		cmp	r3, r1
 109 0034 04D0     		beq	.L4
 110              	.LVL6:
 111              	.L5:
 714:/usr/include/newlib/c++/9.2.1/bits/stl_algobase.h ****     }
 112              		.loc 2 714 2 is_stmt 0 view .LVU30
 113 0036 0022     		movs	r2, #0
 114 0038 23F8022B 		strh	r2, [r3], #2	@ movhi
 115              	.LVL7:
 713:/usr/include/newlib/c++/9.2.1/bits/stl_algobase.h **** 	*__first = __tmp;
 116              		.loc 2 713 7 is_stmt 1 view .LVU31
 713:/usr/include/newlib/c++/9.2.1/bits/stl_algobase.h **** 	*__first = __tmp;
 117              		.loc 2 713 22 view .LVU32
 118 003c 9942     		cmp	r1, r3
 119 003e FAD1     		bne	.L5
 120              	.L4:
 121              	.LVL8:
 713:/usr/include/newlib/c++/9.2.1/bits/stl_algobase.h **** 	*__first = __tmp;
 122              		.loc 2 713 22 is_stmt 0 view .LVU33
 123              	.LBE203:
 124              	.LBE202:
 125              	.LBE201:
  84:dsp/pvoc/stft.cpp ****     ready_ = 0;
ARM GAS  /tmp/ccDsoCRY.s 			page 18


 126              		.loc 1 84 5 is_stmt 1 view .LVU34
 127              		.loc 1 84 12 is_stmt 0 view .LVU35
 128 0040 0023     		movs	r3, #0
  85:dsp/pvoc/stft.cpp ****     done_  = 0;
  86:dsp/pvoc/stft.cpp **** }
 129              		.loc 1 86 1 view .LVU36
 130 0042 30BC     		pop	{r4, r5}
 131              		.cfi_restore 5
 132              		.cfi_restore 4
 133              		.cfi_def_cfa_offset 0
  85:dsp/pvoc/stft.cpp ****     done_  = 0;
 134              		.loc 1 85 12 view .LVU37
 135 0044 C0E91033 		strd	r3, r3, [r0, #64]
 136              		.loc 1 86 1 view .LVU38
 137 0048 7047     		bx	lr
 138              		.cfi_endproc
 139              	.LFE4289:
 141 004a 00BF     		.section	.text._ZN4STFT4InitEP6ShyFFTIfLj4096E14RotationPhasorEjjPfS4_PKfPsP19FrameTransformation,
 142              		.align	1
 143              		.p2align 2,,3
 144              		.global	_ZN4STFT4InitEP6ShyFFTIfLj4096E14RotationPhasorEjjPfS4_PKfPsP19FrameTransformation
 145              		.syntax unified
 146              		.thumb
 147              		.thumb_func
 148              		.fpu fpv5-d16
 150              	_ZN4STFT4InitEP6ShyFFTIfLj4096E14RotationPhasorEjjPfS4_PKfPsP19FrameTransformation:
 151              	.LVL9:
 152              	.LFB4288:
  45:dsp/pvoc/stft.cpp ****     fft_size_       = fft_size;
 153              		.loc 1 45 1 is_stmt 1 view -0
 154              		.cfi_startproc
 155              		@ args = 20, pretend = 0, frame = 8
 156              		@ frame_needed = 0, uses_anonymous_args = 0
  46:dsp/pvoc/stft.cpp ****     hop_size_       = hop_size;
 157              		.loc 1 46 5 view .LVU40
  45:dsp/pvoc/stft.cpp ****     fft_size_       = fft_size;
 158              		.loc 1 45 1 is_stmt 0 view .LVU41
 159 0000 2DE9F04F 		push	{r4, r5, r6, r7, r8, r9, r10, fp, lr}
 160              		.cfi_def_cfa_offset 36
 161              		.cfi_offset 4, -36
 162              		.cfi_offset 5, -32
 163              		.cfi_offset 6, -28
 164              		.cfi_offset 7, -24
 165              		.cfi_offset 8, -20
 166              		.cfi_offset 9, -16
 167              		.cfi_offset 10, -12
 168              		.cfi_offset 11, -8
 169              		.cfi_offset 14, -4
 170 0004 1446     		mov	r4, r2
  48:dsp/pvoc/stft.cpp ****     for(size_t t = fft_size; t > 1; t >>= 1)
 171              		.loc 1 48 21 view .LVU42
 172 0006 0022     		movs	r2, #0
 173              	.LVL10:
  45:dsp/pvoc/stft.cpp ****     fft_size_       = fft_size;
 174              		.loc 1 45 1 view .LVU43
 175 0008 8046     		mov	r8, r0
 176              	.LBB215:
ARM GAS  /tmp/ccDsoCRY.s 			page 19


  49:dsp/pvoc/stft.cpp ****     {
 177              		.loc 1 49 32 view .LVU44
 178 000a 012C     		cmp	r4, #1
 179              	.LBE215:
  45:dsp/pvoc/stft.cpp ****     fft_size_       = fft_size;
 180              		.loc 1 45 1 view .LVU45
 181 000c 2DED028B 		vpush.64	{d8}
 182              		.cfi_def_cfa_offset 44
 183              		.cfi_offset 80, -44
 184              		.cfi_offset 81, -40
 185 0010 83B0     		sub	sp, sp, #12
 186              		.cfi_def_cfa_offset 56
  46:dsp/pvoc/stft.cpp ****     hop_size_       = hop_size;
 187              		.loc 1 46 21 view .LVU46
 188 0012 4460     		str	r4, [r0, #4]
  47:dsp/pvoc/stft.cpp ****     fft_num_passes_ = 0;
 189              		.loc 1 47 5 is_stmt 1 view .LVU47
  48:dsp/pvoc/stft.cpp ****     for(size_t t = fft_size; t > 1; t >>= 1)
 190              		.loc 1 48 21 is_stmt 0 view .LVU48
 191 0014 C0E90223 		strd	r2, r3, [r0, #8]
  49:dsp/pvoc/stft.cpp ****     {
 192              		.loc 1 49 5 is_stmt 1 view .LVU49
 193              	.LVL11:
 194              	.LBB216:
  49:dsp/pvoc/stft.cpp ****     {
 195              		.loc 1 49 32 view .LVU50
 196              	.LBE216:
  45:dsp/pvoc/stft.cpp ****     fft_size_       = fft_size;
 197              		.loc 1 45 1 is_stmt 0 view .LVU51
 198 0018 129A     		ldr	r2, [sp, #72]
 199 001a DDE90E76 		ldrd	r7, r6, [sp, #56]
 200 001e DDE91095 		ldrd	r9, r5, [sp, #64]
 201 0022 0192     		str	r2, [sp, #4]
 202              	.LBB217:
  49:dsp/pvoc/stft.cpp ****     {
 203              		.loc 1 49 32 view .LVU52
 204 0024 0AD9     		bls	.L11
 205 0026 A446     		mov	ip, r4
 206 0028 0122     		movs	r2, #1
 207              	.LVL12:
 208              	.L12:
  51:dsp/pvoc/stft.cpp ****     }
 209              		.loc 1 51 9 is_stmt 1 discriminator 2 view .LVU53
  49:dsp/pvoc/stft.cpp ****     {
 210              		.loc 1 49 5 discriminator 2 view .LVU54
  49:dsp/pvoc/stft.cpp ****     {
 211              		.loc 1 49 39 is_stmt 0 discriminator 2 view .LVU55
 212 002a 4FEA5C0C 		lsr	ip, ip, #1
 213              	.LVL13:
  49:dsp/pvoc/stft.cpp ****     {
 214              		.loc 1 49 32 is_stmt 1 discriminator 2 view .LVU56
 215 002e 1046     		mov	r0, r2
 216 0030 0132     		adds	r2, r2, #1
 217 0032 BCF1010F 		cmp	ip, #1
 218 0036 F8D1     		bne	.L12
 219 0038 C8F80800 		str	r0, [r8, #8]
 220              	.LVL14:
ARM GAS  /tmp/ccDsoCRY.s 			page 20


 221              	.L11:
  49:dsp/pvoc/stft.cpp ****     {
 222              		.loc 1 49 32 is_stmt 0 discriminator 2 view .LVU57
 223              	.LBE217:
  53:dsp/pvoc/stft.cpp **** 
 224              		.loc 1 53 5 is_stmt 1 view .LVU58
  53:dsp/pvoc/stft.cpp **** 
 225              		.loc 1 53 30 is_stmt 0 view .LVU59
 226 003c 2344     		add	r3, r3, r4
 227              	.LVL15:
 228              	.LBB218:
 229              	.LBB219:
 230              		.file 3 "./shy_fft.h"
   1:./shy_fft.h   **** // Copyright 2014 Emilie Gillet.
   2:./shy_fft.h   **** //
   3:./shy_fft.h   **** // Author: Emilie Gillet (emilie.o.gillet@gmail.com)
   4:./shy_fft.h   **** //
   5:./shy_fft.h   **** // Permission is hereby granted, free of charge, to any person obtaining a copy
   6:./shy_fft.h   **** // of this software and associated documentation files (the "Software"), to deal
   7:./shy_fft.h   **** // in the Software without restriction, including without limitation the rights
   8:./shy_fft.h   **** // to use, copy, modify, merge, publish, distribute, sublicense, and/or sell
   9:./shy_fft.h   **** // copies of the Software, and to permit persons to whom the Software is
  10:./shy_fft.h   **** // furnished to do so, subject to the following conditions:
  11:./shy_fft.h   **** //
  12:./shy_fft.h   **** // The above copyright notice and this permission notice shall be included in
  13:./shy_fft.h   **** // all copies or substantial portions of the Software.
  14:./shy_fft.h   **** //
  15:./shy_fft.h   **** // THE SOFTWARE IS PROVIDED "AS IS", WITHOUT WARRANTY OF ANY KIND, EXPRESS OR
  16:./shy_fft.h   **** // IMPLIED, INCLUDING BUT NOT LIMITED TO THE WARRANTIES OF MERCHANTABILITY,
  17:./shy_fft.h   **** // FITNESS FOR A PARTICULAR PURPOSE AND NONINFRINGEMENT. IN NO EVENT SHALL THE
  18:./shy_fft.h   **** // AUTHORS OR COPYRIGHT HOLDERS BE LIABLE FOR ANY CLAIM, DAMAGES OR OTHER
  19:./shy_fft.h   **** // LIABILITY, WHETHER IN AN ACTION OF CONTRACT, TORT OR OTHERWISE, ARISING FROM,
  20:./shy_fft.h   **** // OUT OF OR IN CONNECTION WITH THE SOFTWARE OR THE USE OR OTHER DEALINGS IN
  21:./shy_fft.h   **** // THE SOFTWARE.
  22:./shy_fft.h   **** //
  23:./shy_fft.h   **** // See http://creativecommons.org/licenses/MIT/ for more information.
  24:./shy_fft.h   **** //
  25:./shy_fft.h   **** // -----------------------------------------------------------------------------
  26:./shy_fft.h   **** //
  27:./shy_fft.h   **** // A modest implementation of real FFT for embedded audio applications,
  28:./shy_fft.h   **** // largely based on Laurent de Soras' FFTReal.
  29:./shy_fft.h   **** //
  30:./shy_fft.h   **** // Improvements:
  31:./shy_fft.h   **** // * No dynamic allocations.
  32:./shy_fft.h   **** // * No additional buffering (can use the input buffer as a workspace).
  33:./shy_fft.h   **** // * No big bitrev lookup table.
  34:./shy_fft.h   **** // * Keep the fixed size template signature, but also provide method for
  35:./shy_fft.h   **** //   variable size (up to the fixed size).
  36:./shy_fft.h   **** 
  37:./shy_fft.h   **** #ifndef STMLIB_FFT_SHY_FFT_H_
  38:./shy_fft.h   **** #define STMLIB_FFT_SHY_FFT_H_
  39:./shy_fft.h   **** 
  40:./shy_fft.h   **** #include <algorithm>
  41:./shy_fft.h   **** #include <cmath>
  42:./shy_fft.h   **** 
  43:./shy_fft.h   **** // Compile-time log 2
  44:./shy_fft.h   **** template <size_t x>
ARM GAS  /tmp/ccDsoCRY.s 			page 21


  45:./shy_fft.h   **** struct Log2
  46:./shy_fft.h   **** {
  47:./shy_fft.h   ****     enum
  48:./shy_fft.h   ****     {
  49:./shy_fft.h   ****         value = Log2<x / 2>::value + 1
  50:./shy_fft.h   ****     };
  51:./shy_fft.h   ****     typedef char CheckPowerOf2[((x & (x - 1)) == 0 ? 1 : -1)];
  52:./shy_fft.h   **** };
  53:./shy_fft.h   **** 
  54:./shy_fft.h   **** template <>
  55:./shy_fft.h   **** struct Log2<1>
  56:./shy_fft.h   **** {
  57:./shy_fft.h   ****     enum
  58:./shy_fft.h   ****     {
  59:./shy_fft.h   ****         value = 0
  60:./shy_fft.h   ****     };
  61:./shy_fft.h   **** };
  62:./shy_fft.h   **** 
  63:./shy_fft.h   **** 
  64:./shy_fft.h   **** // Bit reversal LUT size.
  65:./shy_fft.h   **** template <size_t>
  66:./shy_fft.h   **** struct BitReversalLut
  67:./shy_fft.h   **** {
  68:./shy_fft.h   ****     enum
  69:./shy_fft.h   ****     {
  70:./shy_fft.h   ****         size = 1
  71:./shy_fft.h   ****     };
  72:./shy_fft.h   **** };
  73:./shy_fft.h   **** template <>
  74:./shy_fft.h   **** struct BitReversalLut<3>
  75:./shy_fft.h   **** {
  76:./shy_fft.h   ****     enum
  77:./shy_fft.h   ****     {
  78:./shy_fft.h   ****         size = 2
  79:./shy_fft.h   ****     };
  80:./shy_fft.h   **** };
  81:./shy_fft.h   **** template <>
  82:./shy_fft.h   **** struct BitReversalLut<4>
  83:./shy_fft.h   **** {
  84:./shy_fft.h   ****     enum
  85:./shy_fft.h   ****     {
  86:./shy_fft.h   ****         size = 4
  87:./shy_fft.h   ****     };
  88:./shy_fft.h   **** };
  89:./shy_fft.h   **** template <>
  90:./shy_fft.h   **** struct BitReversalLut<5>
  91:./shy_fft.h   **** {
  92:./shy_fft.h   ****     enum
  93:./shy_fft.h   ****     {
  94:./shy_fft.h   ****         size = 8
  95:./shy_fft.h   ****     };
  96:./shy_fft.h   **** };
  97:./shy_fft.h   **** template <>
  98:./shy_fft.h   **** struct BitReversalLut<6>
  99:./shy_fft.h   **** {
 100:./shy_fft.h   ****     enum
 101:./shy_fft.h   ****     {
ARM GAS  /tmp/ccDsoCRY.s 			page 22


 102:./shy_fft.h   ****         size = 16
 103:./shy_fft.h   ****     };
 104:./shy_fft.h   **** };
 105:./shy_fft.h   **** template <>
 106:./shy_fft.h   **** struct BitReversalLut<7>
 107:./shy_fft.h   **** {
 108:./shy_fft.h   ****     enum
 109:./shy_fft.h   ****     {
 110:./shy_fft.h   ****         size = 32
 111:./shy_fft.h   ****     };
 112:./shy_fft.h   **** };
 113:./shy_fft.h   **** template <>
 114:./shy_fft.h   **** struct BitReversalLut<8>
 115:./shy_fft.h   **** {
 116:./shy_fft.h   ****     enum
 117:./shy_fft.h   ****     {
 118:./shy_fft.h   ****         size = 64
 119:./shy_fft.h   ****     };
 120:./shy_fft.h   **** };
 121:./shy_fft.h   **** 
 122:./shy_fft.h   **** 
 123:./shy_fft.h   **** // Typed math functions and constants.
 124:./shy_fft.h   **** template <typename T>
 125:./shy_fft.h   **** struct Math
 126:./shy_fft.h   **** {
 127:./shy_fft.h   ****     inline T pi() const;
 128:./shy_fft.h   ****     inline T sqrt_2_div_2() const;
 129:./shy_fft.h   ****     inline T cos(T x);
 130:./shy_fft.h   ****     inline T sin(T x);
 131:./shy_fft.h   **** };
 132:./shy_fft.h   **** 
 133:./shy_fft.h   **** template <>
 134:./shy_fft.h   **** struct Math<float>
 135:./shy_fft.h   **** {
 136:./shy_fft.h   ****     inline float pi() const { return 3.141592653589793f; }
 137:./shy_fft.h   ****     inline float sqrt_2_div_2() const { return 0.7071067811865476f; }
 138:./shy_fft.h   ****     inline float cos(float x) { return cosf(x); }
 139:./shy_fft.h   ****     inline float sin(float x) { return sinf(x); }
 140:./shy_fft.h   **** };
 141:./shy_fft.h   **** 
 142:./shy_fft.h   **** template <>
 143:./shy_fft.h   **** struct Math<double>
 144:./shy_fft.h   **** {
 145:./shy_fft.h   ****     inline double pi() const { return 3.141592653589793; }
 146:./shy_fft.h   ****     inline float  sqrt_2_div_2() const { return 0.7071067811865476; }
 147:./shy_fft.h   ****     inline double cos(double x) { return cos(x); }
 148:./shy_fft.h   ****     inline double sin(double x) { return sin(x); }
 149:./shy_fft.h   **** };
 150:./shy_fft.h   **** 
 151:./shy_fft.h   **** 
 152:./shy_fft.h   **** // Look-up table for trigonometric data.
 153:./shy_fft.h   **** template <typename T, size_t num_passes>
 154:./shy_fft.h   **** class LutPhasor
 155:./shy_fft.h   **** {
 156:./shy_fft.h   ****   public:
 157:./shy_fft.h   ****     LutPhasor() {}
 158:./shy_fft.h   ****     ~LutPhasor() {}
ARM GAS  /tmp/ccDsoCRY.s 			page 23


 159:./shy_fft.h   **** 
 160:./shy_fft.h   ****     void Init()
 161:./shy_fft.h   ****     {
 162:./shy_fft.h   ****         Math<T> math;
 163:./shy_fft.h   **** 
 164:./shy_fft.h   ****         for(size_t pass = 3; pass < num_passes; ++pass)
 165:./shy_fft.h   ****         {
 166:./shy_fft.h   ****             size_t pass_size = 1L << (pass - 1);
 167:./shy_fft.h   ****             T*     pass_ptr  = &trig_lut_[(1L << (pass - 1)) - 4];
 168:./shy_fft.h   ****             T      increment = math.pi() / (pass_size << 1);
 169:./shy_fft.h   ****             T      phase     = 0.0;
 170:./shy_fft.h   ****             for(size_t i = 0; i < pass_size; ++i)
 171:./shy_fft.h   ****             {
 172:./shy_fft.h   ****                 pass_ptr[i] = math.cos(phase);
 173:./shy_fft.h   ****                 phase += increment;
 174:./shy_fft.h   ****             }
 175:./shy_fft.h   ****         }
 176:./shy_fft.h   ****     }
 177:./shy_fft.h   **** 
 178:./shy_fft.h   ****     inline void Start(size_t pass)
 179:./shy_fft.h   ****     {
 180:./shy_fft.h   ****         size_t pass_size = 1 << (pass - 1);
 181:./shy_fft.h   ****         cos_ptr_         = &trig_lut_[pass_size - 4 + 1];
 182:./shy_fft.h   ****         sin_ptr_         = &trig_lut_[pass_size + pass_size - 4 - 1];
 183:./shy_fft.h   ****     }
 184:./shy_fft.h   **** 
 185:./shy_fft.h   ****     inline void Rotate()
 186:./shy_fft.h   ****     {
 187:./shy_fft.h   ****         ++cos_ptr_;
 188:./shy_fft.h   ****         --sin_ptr_;
 189:./shy_fft.h   ****     }
 190:./shy_fft.h   **** 
 191:./shy_fft.h   ****     inline T cos() const { return *cos_ptr_; }
 192:./shy_fft.h   ****     inline T sin() const { return *sin_ptr_; }
 193:./shy_fft.h   **** 
 194:./shy_fft.h   ****   private:
 195:./shy_fft.h   ****     T  trig_lut_[(1 << (num_passes - 1)) - 4];
 196:./shy_fft.h   ****     T* cos_ptr_;
 197:./shy_fft.h   ****     T* sin_ptr_;
 198:./shy_fft.h   **** };
 199:./shy_fft.h   **** 
 200:./shy_fft.h   **** template <typename T>
 201:./shy_fft.h   **** struct LutPhasor<T, 0>
 202:./shy_fft.h   **** {
 203:./shy_fft.h   ****     void Init(){};
 204:./shy_fft.h   **** };
 205:./shy_fft.h   **** template <typename T>
 206:./shy_fft.h   **** struct LutPhasor<T, 1>
 207:./shy_fft.h   **** {
 208:./shy_fft.h   ****     void Init(){};
 209:./shy_fft.h   **** };
 210:./shy_fft.h   **** template <typename T>
 211:./shy_fft.h   **** struct LutPhasor<T, 2>
 212:./shy_fft.h   **** {
 213:./shy_fft.h   ****     void Init(){};
 214:./shy_fft.h   **** };
 215:./shy_fft.h   **** 
ARM GAS  /tmp/ccDsoCRY.s 			page 24


 216:./shy_fft.h   **** template <typename T>
 217:./shy_fft.h   **** struct LutPhasor<T, 3>
 218:./shy_fft.h   **** {
 219:./shy_fft.h   ****     void     Init(){};
 220:./shy_fft.h   ****     void     Start(size_t){};
 221:./shy_fft.h   ****     void     Rotate(){};
 222:./shy_fft.h   ****     inline T cos() const { return 1.0; }
 223:./shy_fft.h   ****     inline T sin() const { return 0.0; }
 224:./shy_fft.h   **** };
 225:./shy_fft.h   **** 
 226:./shy_fft.h   **** 
 227:./shy_fft.h   **** // Another way of generating roots of unity.
 228:./shy_fft.h   **** template <typename T, size_t num_passes>
 229:./shy_fft.h   **** class RotationPhasor
 230:./shy_fft.h   **** {
 231:./shy_fft.h   ****   public:
 232:./shy_fft.h   ****     RotationPhasor() {}
 233:./shy_fft.h   ****     ~RotationPhasor() {}
 234:./shy_fft.h   **** 
 235:./shy_fft.h   ****     void Init()
 236:./shy_fft.h   ****     {
 237:./shy_fft.h   ****         Math<T> math;
 238:./shy_fft.h   ****         for(size_t pass = 3; pass < num_passes; ++pass)
 239:./shy_fft.h   ****         {
 240:./shy_fft.h   ****             size_t index            = (pass - 3) << 1;
 241:./shy_fft.h   ****             T      angle            = math.pi() / (1 << pass);
 242:./shy_fft.h   ****             sin_cos_lut_[index]     = math.cos(angle);
 243:./shy_fft.h   ****             sin_cos_lut_[index + 1] = math.sin(angle);
 244:./shy_fft.h   ****         }
 245:./shy_fft.h   ****     }
 246:./shy_fft.h   **** 
 247:./shy_fft.h   ****     inline void Start(size_t pass)
 248:./shy_fft.h   ****     {
 249:./shy_fft.h   ****         size_t index = (pass - 3) << 1;
 250:./shy_fft.h   ****         cos_ = real_ = sin_cos_lut_[index];
 251:./shy_fft.h   ****         sin_ = imag_ = sin_cos_lut_[index + 1];
 252:./shy_fft.h   ****     }
 253:./shy_fft.h   **** 
 254:./shy_fft.h   ****     inline void Rotate()
 255:./shy_fft.h   ****     {
 256:./shy_fft.h   ****         T temp = cos_ * real_ - sin_ * imag_;
 257:./shy_fft.h   ****         sin_   = cos_ * imag_ + sin_ * real_;
 258:./shy_fft.h   ****         cos_   = temp;
 259:./shy_fft.h   ****     }
 260:./shy_fft.h   **** 
 261:./shy_fft.h   ****     inline T cos() const { return cos_; }
 262:./shy_fft.h   ****     inline T sin() const { return sin_; }
 263:./shy_fft.h   **** 
 264:./shy_fft.h   ****   private:
 265:./shy_fft.h   ****     T sin_cos_lut_[(num_passes - 3) << 1];
 266:./shy_fft.h   ****     T cos_;
 267:./shy_fft.h   ****     T sin_;
 268:./shy_fft.h   ****     T real_;
 269:./shy_fft.h   ****     T imag_;
 270:./shy_fft.h   **** };
 271:./shy_fft.h   **** 
 272:./shy_fft.h   **** template <typename T>
ARM GAS  /tmp/ccDsoCRY.s 			page 25


 273:./shy_fft.h   **** struct RotationPhasor<T, 0>
 274:./shy_fft.h   **** {
 275:./shy_fft.h   ****     void Init(){};
 276:./shy_fft.h   **** };
 277:./shy_fft.h   **** template <typename T>
 278:./shy_fft.h   **** struct RotationPhasor<T, 1>
 279:./shy_fft.h   **** {
 280:./shy_fft.h   ****     void Init(){};
 281:./shy_fft.h   **** };
 282:./shy_fft.h   **** template <typename T>
 283:./shy_fft.h   **** struct RotationPhasor<T, 2>
 284:./shy_fft.h   **** {
 285:./shy_fft.h   ****     void Init(){};
 286:./shy_fft.h   **** };
 287:./shy_fft.h   **** 
 288:./shy_fft.h   **** template <typename T>
 289:./shy_fft.h   **** struct RotationPhasor<T, 3>
 290:./shy_fft.h   **** {
 291:./shy_fft.h   ****     void     Init(){};
 292:./shy_fft.h   ****     void     Start(size_t){};
 293:./shy_fft.h   ****     void     Rotate(){};
 294:./shy_fft.h   ****     inline T cos() const { return 1.0; }
 295:./shy_fft.h   ****     inline T sin() const { return 0.0; }
 296:./shy_fft.h   **** };
 297:./shy_fft.h   **** 
 298:./shy_fft.h   **** // Direct transform
 299:./shy_fft.h   **** template <typename T, size_t num_passes, typename Phasor>
 300:./shy_fft.h   **** struct DirectTransform
 301:./shy_fft.h   **** {
 302:./shy_fft.h   ****   private:
 303:./shy_fft.h   ****     enum
 304:./shy_fft.h   ****     {
 305:./shy_fft.h   ****         size = 1 << num_passes
 306:./shy_fft.h   ****     };
 307:./shy_fft.h   **** 
 308:./shy_fft.h   ****   public:
 309:./shy_fft.h   ****     void operator()(T* input, T* output, const uint8_t* bit_rev, Phasor* phasor)
 310:./shy_fft.h   ****     {
 311:./shy_fft.h   ****         T*      s;
 312:./shy_fft.h   ****         T*      d;
 313:./shy_fft.h   ****         Math<T> math;
 314:./shy_fft.h   **** 
 315:./shy_fft.h   ****         // First and second pass.
 316:./shy_fft.h   ****         d = output;
 317:./shy_fft.h   ****         for(size_t i = 0; i < size; i += 4)
 318:./shy_fft.h   ****         {
 319:./shy_fft.h   ****             const T* s  = input;
 320:./shy_fft.h   ****             size_t   r0 = num_passes <= 8
 321:./shy_fft.h   ****                             ? bit_rev[i >> 2]
 322:./shy_fft.h   ****                             : ((bit_rev[i & 0xff] << 8) | bit_rev[i >> 8])
 323:./shy_fft.h   ****                                   >> (16 - num_passes);
 324:./shy_fft.h   ****             size_t r1 = r0 + 2 * (size >> 2);
 325:./shy_fft.h   ****             size_t r2 = r0 + 1 * (size >> 2);
 326:./shy_fft.h   ****             size_t r3 = r0 + 3 * (size >> 2);
 327:./shy_fft.h   **** 
 328:./shy_fft.h   ****             d[1] = s[r0] - s[r1];
 329:./shy_fft.h   ****             d[3] = s[r2] - s[r3];
ARM GAS  /tmp/ccDsoCRY.s 			page 26


 330:./shy_fft.h   ****             T a  = s[r0] + s[r1];
 331:./shy_fft.h   ****             T b  = s[r2] + s[r3];
 332:./shy_fft.h   ****             d[0] = a + b;
 333:./shy_fft.h   ****             d[2] = a - b;
 334:./shy_fft.h   ****             d += 4;
 335:./shy_fft.h   ****         }
 336:./shy_fft.h   **** 
 337:./shy_fft.h   ****         // Third pass.
 338:./shy_fft.h   ****         s = output;
 339:./shy_fft.h   ****         d = input;
 340:./shy_fft.h   ****         for(size_t i = 0; i < size; i += 8)
 341:./shy_fft.h   ****         {
 342:./shy_fft.h   ****             T v;
 343:./shy_fft.h   **** 
 344:./shy_fft.h   ****             d[i]     = s[i] + s[i + 4];
 345:./shy_fft.h   ****             d[i + 4] = s[i] - s[i + 4];
 346:./shy_fft.h   ****             d[i + 2] = s[i + 2];
 347:./shy_fft.h   ****             d[i + 6] = s[i + 6];
 348:./shy_fft.h   **** 
 349:./shy_fft.h   ****             v        = (s[i + 5] - s[i + 7]) * math.sqrt_2_div_2();
 350:./shy_fft.h   ****             d[i + 1] = s[i + 1] + v;
 351:./shy_fft.h   ****             d[i + 3] = s[i + 1] - v;
 352:./shy_fft.h   **** 
 353:./shy_fft.h   ****             v        = (s[i + 5] + s[i + 7]) * math.sqrt_2_div_2();
 354:./shy_fft.h   ****             d[i + 5] = v + s[i + 3];
 355:./shy_fft.h   ****             d[i + 7] = v - s[i + 3];
 356:./shy_fft.h   ****         }
 357:./shy_fft.h   **** 
 358:./shy_fft.h   ****         // Remaining passes.
 359:./shy_fft.h   ****         for(size_t pass = 3; pass < num_passes; ++pass)
 360:./shy_fft.h   ****         {
 361:./shy_fft.h   ****             // Flip source and destination pointers
 362:./shy_fft.h   ****             {
 363:./shy_fft.h   ****                 T* tmp = s;
 364:./shy_fft.h   ****                 s      = d;
 365:./shy_fft.h   ****                 d      = tmp;
 366:./shy_fft.h   ****             }
 367:./shy_fft.h   **** 
 368:./shy_fft.h   ****             size_t n   = 1 << pass;
 369:./shy_fft.h   ****             size_t n_2 = n >> 1;
 370:./shy_fft.h   **** 
 371:./shy_fft.h   ****             for(size_t i = 0; i < size; i += (n << 1))
 372:./shy_fft.h   ****             {
 373:./shy_fft.h   ****                 T* s1r = s + i;
 374:./shy_fft.h   ****                 T* s2r = s1r + n;
 375:./shy_fft.h   ****                 T* dr  = d + i;
 376:./shy_fft.h   ****                 T* di  = dr + n;
 377:./shy_fft.h   **** 
 378:./shy_fft.h   ****                 dr[0]   = s1r[0] + s2r[0];
 379:./shy_fft.h   ****                 di[0]   = s1r[0] - s2r[0];
 380:./shy_fft.h   ****                 dr[n_2] = s1r[n_2];
 381:./shy_fft.h   ****                 di[n_2] = s2r[n_2];
 382:./shy_fft.h   ****                 T* s1i  = s1r + n_2;
 383:./shy_fft.h   ****                 T* s2i  = s1i + n;
 384:./shy_fft.h   ****                 phasor->Start(pass);
 385:./shy_fft.h   ****                 for(size_t j = 1; j < n_2; ++j)
 386:./shy_fft.h   ****                 {
ARM GAS  /tmp/ccDsoCRY.s 			page 27


 387:./shy_fft.h   ****                     T c = phasor->cos();
 388:./shy_fft.h   ****                     T s = phasor->sin();
 389:./shy_fft.h   ****                     T v;
 390:./shy_fft.h   **** 
 391:./shy_fft.h   ****                     v      = s2r[j] * c - s2i[j] * s;
 392:./shy_fft.h   ****                     dr[j]  = s1r[j] + v;
 393:./shy_fft.h   ****                     di[-j] = s1r[j] - v;
 394:./shy_fft.h   **** 
 395:./shy_fft.h   ****                     v         = s2r[j] * s + s2i[j] * c;
 396:./shy_fft.h   ****                     di[j]     = v + s1i[j];
 397:./shy_fft.h   ****                     di[n - j] = v - s1i[j];
 398:./shy_fft.h   ****                     phasor->Rotate();
 399:./shy_fft.h   ****                 }
 400:./shy_fft.h   ****             }
 401:./shy_fft.h   ****         }
 402:./shy_fft.h   **** 
 403:./shy_fft.h   ****         // Annoying additional data copy step.
 404:./shy_fft.h   ****         if(d != output)
 405:./shy_fft.h   ****         {
 406:./shy_fft.h   ****             std::copy(&d[0], &d[size], &output[0]);
 407:./shy_fft.h   ****         }
 408:./shy_fft.h   ****     }
 409:./shy_fft.h   **** 
 410:./shy_fft.h   ****     // The exact same thing but with "num_passes" as a run-time argument.
 411:./shy_fft.h   ****     void operator()(T*             input,
 412:./shy_fft.h   ****                     T*             output,
 413:./shy_fft.h   ****                     const uint8_t* bit_rev,
 414:./shy_fft.h   ****                     Phasor*        phasor,
 415:./shy_fft.h   ****                     size_t         rt_num_passes)
 416:./shy_fft.h   ****     {
 417:./shy_fft.h   ****         T*      s;
 418:./shy_fft.h   ****         T*      d;
 419:./shy_fft.h   ****         Math<T> math;
 420:./shy_fft.h   ****         size_t  rt_size = 1 << rt_num_passes;
 421:./shy_fft.h   ****         // First and second pass.
 422:./shy_fft.h   ****         d = output;
 423:./shy_fft.h   ****         for(size_t i = 0; i < rt_size; i += 4)
 424:./shy_fft.h   ****         {
 425:./shy_fft.h   ****             const T* s  = input;
 426:./shy_fft.h   ****             size_t   r0 = ((bit_rev[i & 0xff] << 8) | bit_rev[i >> 8])
 427:./shy_fft.h   ****                         >> (16 - rt_num_passes);
 428:./shy_fft.h   ****             size_t r1 = r0 + 2 * (rt_size >> 2);
 429:./shy_fft.h   ****             size_t r2 = r0 + 1 * (rt_size >> 2);
 430:./shy_fft.h   ****             size_t r3 = r0 + 3 * (rt_size >> 2);
 431:./shy_fft.h   **** 
 432:./shy_fft.h   ****             d[1] = s[r0] - s[r1];
 433:./shy_fft.h   ****             d[3] = s[r2] - s[r3];
 434:./shy_fft.h   ****             T a  = s[r0] + s[r1];
 435:./shy_fft.h   ****             T b  = s[r2] + s[r3];
 436:./shy_fft.h   ****             d[0] = a + b;
 437:./shy_fft.h   ****             d[2] = a - b;
 438:./shy_fft.h   ****             d += 4;
 439:./shy_fft.h   ****         }
 440:./shy_fft.h   **** 
 441:./shy_fft.h   ****         // Third pass.
 442:./shy_fft.h   ****         s = output;
 443:./shy_fft.h   ****         d = input;
ARM GAS  /tmp/ccDsoCRY.s 			page 28


 444:./shy_fft.h   ****         for(size_t i = 0; i < rt_size; i += 8)
 445:./shy_fft.h   ****         {
 446:./shy_fft.h   ****             T v;
 447:./shy_fft.h   **** 
 448:./shy_fft.h   ****             d[i]     = s[i] + s[i + 4];
 449:./shy_fft.h   ****             d[i + 4] = s[i] - s[i + 4];
 450:./shy_fft.h   ****             d[i + 2] = s[i + 2];
 451:./shy_fft.h   ****             d[i + 6] = s[i + 6];
 452:./shy_fft.h   **** 
 453:./shy_fft.h   ****             v        = (s[i + 5] - s[i + 7]) * math.sqrt_2_div_2();
 454:./shy_fft.h   ****             d[i + 1] = s[i + 1] + v;
 455:./shy_fft.h   ****             d[i + 3] = s[i + 1] - v;
 456:./shy_fft.h   **** 
 457:./shy_fft.h   ****             v        = (s[i + 5] + s[i + 7]) * math.sqrt_2_div_2();
 458:./shy_fft.h   ****             d[i + 5] = v + s[i + 3];
 459:./shy_fft.h   ****             d[i + 7] = v - s[i + 3];
 460:./shy_fft.h   ****         }
 461:./shy_fft.h   **** 
 462:./shy_fft.h   ****         // Remaining passes.
 463:./shy_fft.h   ****         for(size_t pass = 3; pass < rt_num_passes; ++pass)
 464:./shy_fft.h   ****         {
 465:./shy_fft.h   ****             // Flip source and destination pointers
 466:./shy_fft.h   ****             {
 467:./shy_fft.h   ****                 T* tmp = s;
 468:./shy_fft.h   ****                 s      = d;
 469:./shy_fft.h   ****                 d      = tmp;
 470:./shy_fft.h   ****             }
 471:./shy_fft.h   **** 
 472:./shy_fft.h   ****             size_t n   = 1 << pass;
 473:./shy_fft.h   ****             size_t n_2 = n >> 1;
 474:./shy_fft.h   **** 
 475:./shy_fft.h   ****             for(size_t i = 0; i < rt_size; i += (n << 1))
 476:./shy_fft.h   ****             {
 477:./shy_fft.h   ****                 T* s1r = s + i;
 478:./shy_fft.h   ****                 T* s2r = s1r + n;
 479:./shy_fft.h   ****                 T* dr  = d + i;
 480:./shy_fft.h   ****                 T* di  = dr + n;
 481:./shy_fft.h   **** 
 482:./shy_fft.h   ****                 dr[0]   = s1r[0] + s2r[0];
 483:./shy_fft.h   ****                 di[0]   = s1r[0] - s2r[0];
 484:./shy_fft.h   ****                 dr[n_2] = s1r[n_2];
 485:./shy_fft.h   ****                 di[n_2] = s2r[n_2];
 486:./shy_fft.h   ****                 T* s1i  = s1r + n_2;
 487:./shy_fft.h   ****                 T* s2i  = s1i + n;
 488:./shy_fft.h   ****                 phasor->Start(pass);
 489:./shy_fft.h   ****                 for(size_t j = 1; j < n_2; ++j)
 490:./shy_fft.h   ****                 {
 491:./shy_fft.h   ****                     T c = phasor->cos();
 492:./shy_fft.h   ****                     T s = phasor->sin();
 493:./shy_fft.h   ****                     T v;
 494:./shy_fft.h   **** 
 495:./shy_fft.h   ****                     v      = s2r[j] * c - s2i[j] * s;
 496:./shy_fft.h   ****                     dr[j]  = s1r[j] + v;
 497:./shy_fft.h   ****                     di[-j] = s1r[j] - v;
 498:./shy_fft.h   **** 
 499:./shy_fft.h   ****                     v         = s2r[j] * s + s2i[j] * c;
 500:./shy_fft.h   ****                     di[j]     = v + s1i[j];
ARM GAS  /tmp/ccDsoCRY.s 			page 29


 501:./shy_fft.h   ****                     di[n - j] = v - s1i[j];
 502:./shy_fft.h   ****                     phasor->Rotate();
 503:./shy_fft.h   ****                 }
 504:./shy_fft.h   ****             }
 505:./shy_fft.h   ****         }
 506:./shy_fft.h   **** 
 507:./shy_fft.h   ****         // Annoying additional data copy step.
 508:./shy_fft.h   ****         if(d != output)
 509:./shy_fft.h   ****         {
 510:./shy_fft.h   ****             std::copy(&d[0], &d[rt_size], &output[0]);
 511:./shy_fft.h   ****         }
 512:./shy_fft.h   ****     }
 513:./shy_fft.h   **** };
 514:./shy_fft.h   **** 
 515:./shy_fft.h   **** template <typename T, typename Phasor>
 516:./shy_fft.h   **** struct DirectTransform<T, 0, Phasor>
 517:./shy_fft.h   **** {
 518:./shy_fft.h   ****     void operator()(const T* i, T* o, T*, const uint8_t*, Phasor*)
 519:./shy_fft.h   ****     {
 520:./shy_fft.h   ****         o[0] = i[0];
 521:./shy_fft.h   ****     }
 522:./shy_fft.h   **** };
 523:./shy_fft.h   **** 
 524:./shy_fft.h   **** template <typename T, typename Phasor>
 525:./shy_fft.h   **** struct DirectTransform<T, 1, Phasor>
 526:./shy_fft.h   **** {
 527:./shy_fft.h   ****     void operator()(const T* i, T* o, T*, const uint8_t*, Phasor*)
 528:./shy_fft.h   ****     {
 529:./shy_fft.h   ****         o[0] = i[0] + i[1];
 530:./shy_fft.h   ****         o[1] = i[0] - i[1];
 531:./shy_fft.h   ****     }
 532:./shy_fft.h   **** };
 533:./shy_fft.h   **** 
 534:./shy_fft.h   **** template <typename T, typename Phasor>
 535:./shy_fft.h   **** struct DirectTransform<T, 2, Phasor>
 536:./shy_fft.h   **** {
 537:./shy_fft.h   ****     void operator()(const T* i, T* o, T*, const uint8_t*, Phasor*)
 538:./shy_fft.h   ****     {
 539:./shy_fft.h   ****         o[1] = i[0] - i[2];
 540:./shy_fft.h   ****         o[3] = i[1] - i[3];
 541:./shy_fft.h   ****         T a  = i[0] + i[2];
 542:./shy_fft.h   ****         T b  = i[1] + i[3];
 543:./shy_fft.h   ****         o[0] = a + b;
 544:./shy_fft.h   ****         o[2] = a - b;
 545:./shy_fft.h   ****     }
 546:./shy_fft.h   **** };
 547:./shy_fft.h   **** 
 548:./shy_fft.h   **** 
 549:./shy_fft.h   **** // Inverse transform
 550:./shy_fft.h   **** template <typename T, size_t num_passes, typename Phasor>
 551:./shy_fft.h   **** struct InverseTransform
 552:./shy_fft.h   **** {
 553:./shy_fft.h   ****   private:
 554:./shy_fft.h   ****     enum
 555:./shy_fft.h   ****     {
 556:./shy_fft.h   ****         size = 1 << num_passes
 557:./shy_fft.h   ****     };
ARM GAS  /tmp/ccDsoCRY.s 			page 30


 558:./shy_fft.h   **** 
 559:./shy_fft.h   ****   public:
 560:./shy_fft.h   ****     void operator()(T* input, T* output, const uint8_t* bit_rev, Phasor* phasor)
 561:./shy_fft.h   ****     {
 562:./shy_fft.h   ****         T*      s = (T*)(input);
 563:./shy_fft.h   ****         T*      d = output;
 564:./shy_fft.h   ****         Math<T> math;
 565:./shy_fft.h   **** 
 566:./shy_fft.h   ****         // Remaining passes.
 567:./shy_fft.h   ****         for(size_t pass = num_passes - 1; pass >= 3; --pass)
 568:./shy_fft.h   ****         {
 569:./shy_fft.h   ****             size_t n   = 1 << pass;
 570:./shy_fft.h   ****             size_t n_2 = n >> 1;
 571:./shy_fft.h   **** 
 572:./shy_fft.h   ****             for(size_t i = 0; i < size; i += (n << 1))
 573:./shy_fft.h   ****             {
 574:./shy_fft.h   ****                 T* sr  = s + i;
 575:./shy_fft.h   ****                 T* si  = sr + n;
 576:./shy_fft.h   ****                 T* d1r = d + i;
 577:./shy_fft.h   ****                 T* d2r = d1r + n;
 578:./shy_fft.h   **** 
 579:./shy_fft.h   ****                 d1r[0]   = sr[0] + si[0];
 580:./shy_fft.h   ****                 d2r[0]   = sr[0] - si[0];
 581:./shy_fft.h   ****                 d1r[n_2] = sr[n_2] * T(2);
 582:./shy_fft.h   ****                 d2r[n_2] = si[n_2] * T(2);
 583:./shy_fft.h   **** 
 584:./shy_fft.h   ****                 T* d1i = d1r + n_2;
 585:./shy_fft.h   ****                 T* d2i = d1i + n;
 586:./shy_fft.h   ****                 phasor->Start(pass);
 587:./shy_fft.h   ****                 for(size_t j = 1; j < n_2; ++j)
 588:./shy_fft.h   ****                 {
 589:./shy_fft.h   ****                     d1r[j] = sr[j] + si[-j];
 590:./shy_fft.h   ****                     d1i[j] = si[j] - si[n - j];
 591:./shy_fft.h   **** 
 592:./shy_fft.h   ****                     T c  = phasor->cos();
 593:./shy_fft.h   ****                     T s  = phasor->sin();
 594:./shy_fft.h   ****                     T vr = sr[j] - si[-j];
 595:./shy_fft.h   ****                     T vi = si[j] + si[n - j];
 596:./shy_fft.h   **** 
 597:./shy_fft.h   ****                     d2r[j] = vr * c + vi * s;
 598:./shy_fft.h   ****                     d2i[j] = vi * c - vr * s;
 599:./shy_fft.h   ****                     phasor->Rotate();
 600:./shy_fft.h   ****                 }
 601:./shy_fft.h   ****             }
 602:./shy_fft.h   **** 
 603:./shy_fft.h   ****             // Flip source and destination pointers for the next pass.
 604:./shy_fft.h   ****             if(d == output)
 605:./shy_fft.h   ****             {
 606:./shy_fft.h   ****                 s = output;
 607:./shy_fft.h   ****                 d = input;
 608:./shy_fft.h   ****             }
 609:./shy_fft.h   ****             else
 610:./shy_fft.h   ****             {
 611:./shy_fft.h   ****                 s = input;
 612:./shy_fft.h   ****                 d = output;
 613:./shy_fft.h   ****             }
 614:./shy_fft.h   ****         }
ARM GAS  /tmp/ccDsoCRY.s 			page 31


 615:./shy_fft.h   **** 
 616:./shy_fft.h   ****         // Copy data if necessary.
 617:./shy_fft.h   ****         if(d == output)
 618:./shy_fft.h   ****         {
 619:./shy_fft.h   ****             std::copy(&s[0], &s[size], &output[0]);
 620:./shy_fft.h   ****         }
 621:./shy_fft.h   **** 
 622:./shy_fft.h   ****         s = output;
 623:./shy_fft.h   ****         d = input;
 624:./shy_fft.h   ****         for(size_t i = 0; i < size; i += 8)
 625:./shy_fft.h   ****         {
 626:./shy_fft.h   ****             T vr, vi;
 627:./shy_fft.h   ****             d[i]     = s[i] + s[i + 4];
 628:./shy_fft.h   ****             d[i + 4] = s[i] - s[i + 4];
 629:./shy_fft.h   ****             d[i + 2] = s[i + 2] * T(2);
 630:./shy_fft.h   ****             d[i + 6] = s[i + 6] * T(2);
 631:./shy_fft.h   ****             d[i + 1] = s[i + 1] + s[i + 3];
 632:./shy_fft.h   ****             d[i + 3] = s[i + 5] - s[i + 7];
 633:./shy_fft.h   ****             vr       = s[i + 1] - s[i + 3];
 634:./shy_fft.h   ****             vi       = s[i + 5] + s[i + 7];
 635:./shy_fft.h   ****             d[i + 5] = (vr + vi) * math.sqrt_2_div_2();
 636:./shy_fft.h   ****             d[i + 7] = (vi - vr) * math.sqrt_2_div_2();
 637:./shy_fft.h   ****         }
 638:./shy_fft.h   **** 
 639:./shy_fft.h   ****         // First and second pass.
 640:./shy_fft.h   ****         s = input;
 641:./shy_fft.h   ****         d = output;
 642:./shy_fft.h   ****         for(size_t i = 0; i < size; i += 4)
 643:./shy_fft.h   ****         {
 644:./shy_fft.h   ****             size_t r0 = num_passes <= 8
 645:./shy_fft.h   ****                             ? bit_rev[i >> 2]
 646:./shy_fft.h   ****                             : ((bit_rev[i & 0xff] << 8) | bit_rev[i >> 8])
 647:./shy_fft.h   ****                                   >> (16 - num_passes);
 648:./shy_fft.h   ****             size_t r1 = r0 + 2 * (size >> 2);
 649:./shy_fft.h   ****             size_t r2 = r0 + 1 * (size >> 2);
 650:./shy_fft.h   ****             size_t r3 = r0 + 3 * (size >> 2);
 651:./shy_fft.h   **** 
 652:./shy_fft.h   ****             T b_0 = s[0] + s[2];
 653:./shy_fft.h   ****             T b_2 = s[0] - s[2];
 654:./shy_fft.h   ****             T b_1 = s[1] * T(2);
 655:./shy_fft.h   ****             T b_3 = s[3] * T(2);
 656:./shy_fft.h   **** 
 657:./shy_fft.h   ****             d[r0] = b_0 + b_1;
 658:./shy_fft.h   ****             d[r1] = b_0 - b_1;
 659:./shy_fft.h   ****             d[r2] = b_2 + b_3;
 660:./shy_fft.h   ****             d[r3] = b_2 - b_3;
 661:./shy_fft.h   ****             s += 4;
 662:./shy_fft.h   ****         }
 663:./shy_fft.h   ****     }
 664:./shy_fft.h   **** 
 665:./shy_fft.h   ****     void operator()(T*             input,
 666:./shy_fft.h   ****                     T*             output,
 667:./shy_fft.h   ****                     const uint8_t* bit_rev,
 668:./shy_fft.h   ****                     Phasor*        phasor,
 669:./shy_fft.h   ****                     size_t         rt_num_passes)
 670:./shy_fft.h   ****     {
 671:./shy_fft.h   ****         T*      s = (T*)(input);
ARM GAS  /tmp/ccDsoCRY.s 			page 32


 672:./shy_fft.h   ****         T*      d = output;
 673:./shy_fft.h   ****         Math<T> math;
 674:./shy_fft.h   **** 
 675:./shy_fft.h   ****         size_t rt_size = 1 << rt_num_passes;
 676:./shy_fft.h   **** 
 677:./shy_fft.h   ****         // Remaining passes.
 678:./shy_fft.h   ****         for(size_t pass = rt_num_passes - 1; pass >= 3; --pass)
 679:./shy_fft.h   ****         {
 680:./shy_fft.h   ****             size_t n   = 1 << pass;
 681:./shy_fft.h   ****             size_t n_2 = n >> 1;
 682:./shy_fft.h   **** 
 683:./shy_fft.h   ****             for(size_t i = 0; i < rt_size; i += (n << 1))
 684:./shy_fft.h   ****             {
 685:./shy_fft.h   ****                 T* sr  = s + i;
 686:./shy_fft.h   ****                 T* si  = sr + n;
 687:./shy_fft.h   ****                 T* d1r = d + i;
 688:./shy_fft.h   ****                 T* d2r = d1r + n;
 689:./shy_fft.h   **** 
 690:./shy_fft.h   ****                 d1r[0]   = sr[0] + si[0];
 691:./shy_fft.h   ****                 d2r[0]   = sr[0] - si[0];
 692:./shy_fft.h   ****                 d1r[n_2] = sr[n_2] * T(2);
 693:./shy_fft.h   ****                 d2r[n_2] = si[n_2] * T(2);
 694:./shy_fft.h   **** 
 695:./shy_fft.h   ****                 T* d1i = d1r + n_2;
 696:./shy_fft.h   ****                 T* d2i = d1i + n;
 697:./shy_fft.h   ****                 phasor->Start(pass);
 698:./shy_fft.h   ****                 for(size_t j = 1; j < n_2; ++j)
 699:./shy_fft.h   ****                 {
 700:./shy_fft.h   ****                     d1r[j] = sr[j] + si[-j];
 701:./shy_fft.h   ****                     d1i[j] = si[j] - si[n - j];
 702:./shy_fft.h   **** 
 703:./shy_fft.h   ****                     T c  = phasor->cos();
 704:./shy_fft.h   ****                     T s  = phasor->sin();
 705:./shy_fft.h   ****                     T vr = sr[j] - si[-j];
 706:./shy_fft.h   ****                     T vi = si[j] + si[n - j];
 707:./shy_fft.h   **** 
 708:./shy_fft.h   ****                     d2r[j] = vr * c + vi * s;
 709:./shy_fft.h   ****                     d2i[j] = vi * c - vr * s;
 710:./shy_fft.h   ****                     phasor->Rotate();
 711:./shy_fft.h   ****                 }
 712:./shy_fft.h   ****             }
 713:./shy_fft.h   **** 
 714:./shy_fft.h   ****             // Flip source and destination pointers for the next pass.
 715:./shy_fft.h   ****             if(d == output)
 716:./shy_fft.h   ****             {
 717:./shy_fft.h   ****                 s = output;
 718:./shy_fft.h   ****                 d = input;
 719:./shy_fft.h   ****             }
 720:./shy_fft.h   ****             else
 721:./shy_fft.h   ****             {
 722:./shy_fft.h   ****                 s = input;
 723:./shy_fft.h   ****                 d = output;
 724:./shy_fft.h   ****             }
 725:./shy_fft.h   ****         }
 726:./shy_fft.h   **** 
 727:./shy_fft.h   ****         // Copy data if necessary.
 728:./shy_fft.h   ****         if(d == output)
ARM GAS  /tmp/ccDsoCRY.s 			page 33


 729:./shy_fft.h   ****         {
 730:./shy_fft.h   ****             std::copy(&s[0], &s[rt_size], &output[0]);
 731:./shy_fft.h   ****         }
 732:./shy_fft.h   **** 
 733:./shy_fft.h   ****         s = output;
 734:./shy_fft.h   ****         d = input;
 735:./shy_fft.h   ****         for(size_t i = 0; i < rt_size; i += 8)
 736:./shy_fft.h   ****         {
 737:./shy_fft.h   ****             T vr, vi;
 738:./shy_fft.h   ****             d[i]     = s[i] + s[i + 4];
 739:./shy_fft.h   ****             d[i + 4] = s[i] - s[i + 4];
 740:./shy_fft.h   ****             d[i + 2] = s[i + 2] * T(2);
 741:./shy_fft.h   ****             d[i + 6] = s[i + 6] * T(2);
 742:./shy_fft.h   ****             d[i + 1] = s[i + 1] + s[i + 3];
 743:./shy_fft.h   ****             d[i + 3] = s[i + 5] - s[i + 7];
 744:./shy_fft.h   ****             vr       = s[i + 1] - s[i + 3];
 745:./shy_fft.h   ****             vi       = s[i + 5] + s[i + 7];
 746:./shy_fft.h   ****             d[i + 5] = (vr + vi) * math.sqrt_2_div_2();
 747:./shy_fft.h   ****             d[i + 7] = (vi - vr) * math.sqrt_2_div_2();
 748:./shy_fft.h   ****         }
 749:./shy_fft.h   **** 
 750:./shy_fft.h   ****         // First and second pass.
 751:./shy_fft.h   ****         s = input;
 752:./shy_fft.h   ****         d = output;
 753:./shy_fft.h   ****         for(size_t i = 0; i < rt_size; i += 4)
 754:./shy_fft.h   ****         {
 755:./shy_fft.h   ****             size_t r0 = ((bit_rev[i & 0xff] << 8) | bit_rev[i >> 8])
 756:./shy_fft.h   ****                         >> (16 - rt_num_passes);
 757:./shy_fft.h   ****             size_t r1 = r0 + 2 * (rt_size >> 2);
 758:./shy_fft.h   ****             size_t r2 = r0 + 1 * (rt_size >> 2);
 759:./shy_fft.h   ****             size_t r3 = r0 + 3 * (rt_size >> 2);
 760:./shy_fft.h   **** 
 761:./shy_fft.h   ****             T b_0 = s[0] + s[2];
 762:./shy_fft.h   ****             T b_2 = s[0] - s[2];
 763:./shy_fft.h   ****             T b_1 = s[1] * T(2);
 764:./shy_fft.h   ****             T b_3 = s[3] * T(2);
 765:./shy_fft.h   **** 
 766:./shy_fft.h   ****             d[r0] = b_0 + b_1;
 767:./shy_fft.h   ****             d[r1] = b_0 - b_1;
 768:./shy_fft.h   ****             d[r2] = b_2 + b_3;
 769:./shy_fft.h   ****             d[r3] = b_2 - b_3;
 770:./shy_fft.h   ****             s += 4;
 771:./shy_fft.h   ****         }
 772:./shy_fft.h   ****     }
 773:./shy_fft.h   **** };
 774:./shy_fft.h   **** 
 775:./shy_fft.h   **** template <typename T, typename Phasor>
 776:./shy_fft.h   **** struct InverseTransform<T, 0, Phasor>
 777:./shy_fft.h   **** {
 778:./shy_fft.h   ****     void operator()(const T* i, T* o, T*, const uint8_t*, Phasor*)
 779:./shy_fft.h   ****     {
 780:./shy_fft.h   ****         o[0] = i[0];
 781:./shy_fft.h   ****     }
 782:./shy_fft.h   **** };
 783:./shy_fft.h   **** 
 784:./shy_fft.h   **** template <typename T, typename Phasor>
 785:./shy_fft.h   **** struct InverseTransform<T, 1, Phasor>
ARM GAS  /tmp/ccDsoCRY.s 			page 34


 786:./shy_fft.h   **** {
 787:./shy_fft.h   ****     void operator()(const T* i, T* o, T*, const uint8_t*, Phasor*)
 788:./shy_fft.h   ****     {
 789:./shy_fft.h   ****         o[0] = i[0] + i[1];
 790:./shy_fft.h   ****         o[1] = i[0] - i[1];
 791:./shy_fft.h   ****     }
 792:./shy_fft.h   **** };
 793:./shy_fft.h   **** 
 794:./shy_fft.h   **** template <typename T, typename Phasor>
 795:./shy_fft.h   **** struct InverseTransform<T, 2, Phasor>
 796:./shy_fft.h   **** {
 797:./shy_fft.h   ****     void operator()(const T* i, T* o, T*, const uint8_t*, Phasor*)
 798:./shy_fft.h   ****     {
 799:./shy_fft.h   ****         T a = i[0] + i[2];
 800:./shy_fft.h   ****         T b = i[0] - i[2];
 801:./shy_fft.h   **** 
 802:./shy_fft.h   ****         o[0] = a + i[1] * T(2);
 803:./shy_fft.h   ****         o[2] = a - i[1] * T(2);
 804:./shy_fft.h   ****         o[1] = b + i[3] * T(2);
 805:./shy_fft.h   ****         o[3] = b - i[3] * T(2);
 806:./shy_fft.h   ****     }
 807:./shy_fft.h   **** };
 808:./shy_fft.h   **** 
 809:./shy_fft.h   **** 
 810:./shy_fft.h   **** template <typename T                               = float,
 811:./shy_fft.h   ****           size_t size                              = 16,
 812:./shy_fft.h   ****           template <typename, size_t> class Phasor = LutPhasor>
 813:./shy_fft.h   **** class ShyFFT
 814:./shy_fft.h   **** {
 815:./shy_fft.h   ****   public:
 816:./shy_fft.h   ****     enum
 817:./shy_fft.h   ****     {
 818:./shy_fft.h   ****         num_passes = Log2<size>::value,
 819:./shy_fft.h   ****         max_size   = size
 820:./shy_fft.h   ****     };
 821:./shy_fft.h   **** 
 822:./shy_fft.h   ****   private:
 823:./shy_fft.h   ****     typedef Phasor<T, num_passes> PhasorType;
 824:./shy_fft.h   **** 
 825:./shy_fft.h   ****   public:
 826:./shy_fft.h   ****     ShyFFT() {}
 827:./shy_fft.h   ****     ~ShyFFT() {}
 828:./shy_fft.h   **** 
 829:./shy_fft.h   ****     void Init()
 830:./shy_fft.h   ****     {
 831:./shy_fft.h   ****         bit_rev_[0] = 0;
 231              		.loc 3 831 9 view .LVU60
 232 003e 0022     		movs	r2, #0
 233              	.LBE219:
 234              	.LBE218:
  55:dsp/pvoc/stft.cpp **** #ifdef USE_ARM_FFT
 235              		.loc 1 55 10 view .LVU61
 236 0040 C8F80010 		str	r1, [r8]
 237 0044 8B46     		mov	fp, r1
  53:dsp/pvoc/stft.cpp **** 
 238              		.loc 1 53 18 view .LVU62
 239 0046 C8F81030 		str	r3, [r8, #16]
ARM GAS  /tmp/ccDsoCRY.s 			page 35


  55:dsp/pvoc/stft.cpp **** #ifdef USE_ARM_FFT
 240              		.loc 1 55 5 is_stmt 1 view .LVU63
  59:dsp/pvoc/stft.cpp **** #endif // USE_ARM_FFT
 241              		.loc 1 59 5 view .LVU64
 242              	.LVL16:
 243              	.LBB245:
 244              	.LBI218:
 829:./shy_fft.h   ****     {
 245              		.loc 3 829 10 view .LVU65
 246              	.LBB240:
 247              	.LBB220:
 248              	.LBB221:
 249              	.LBB222:
 238:./shy_fft.h   ****         {
 250              		.loc 3 238 20 is_stmt 0 view .LVU66
 251 004a 4FF0030A 		mov	r10, #3
 252              	.LBE222:
 253              	.LBE221:
 254              	.LBE220:
 255              		.loc 3 831 9 view .LVU67
 256 004e 9FED250A 		vldr.32	s0, .L18
 257 0052 9FED258A 		vldr.32	s16, .L18+4
 258 0056 81F85820 		strb	r2, [r1, #88]
 259              	.LVL17:
 260              		.loc 3 831 9 view .LVU68
 261              	.LBE240:
 262              	.LBE245:
 832:./shy_fft.h   ****         for(size_t i = 1; i < sizeof(bit_rev_); ++i)
 263              		.loc 3 832 29 is_stmt 1 view .LVU69
 264              	.LBB246:
 265              	.LBB241:
 266              	.LBB236:
 267              	.LBI220:
 235:./shy_fft.h   ****     {
 268              		.loc 3 235 10 view .LVU70
 269              	.LBB232:
 270              	.LBB228:
 238:./shy_fft.h   ****         {
 271              		.loc 3 238 35 view .LVU71
 272 005a 0FE0     		b	.L14
 273              	.LVL18:
 274              	.L17:
 238:./shy_fft.h   ****         {
 275              		.loc 3 238 35 is_stmt 0 view .LVU72
 276 005c 07EE903A 		vmov	s15, r3	@ int
 277 0060 F8EEE77A 		vcvt.f32.s32	s15, s15
 278 0064 C7EE278A 		vdiv.f32	s17, s14, s15
 279 0068 B0EE680A 		vmov.f32	s0, s17
 280 006c FFF7FEFF 		bl	cosf
 281              	.LVL19:
 238:./shy_fft.h   ****         {
 282              		.loc 3 238 35 view .LVU73
 283 0070 B0EE408A 		vmov.f32	s16, s0
 284 0074 B0EE680A 		vmov.f32	s0, s17
 285 0078 FFF7FEFF 		bl	sinf
 286              	.LVL20:
 287              	.L14:
ARM GAS  /tmp/ccDsoCRY.s 			page 36


 238:./shy_fft.h   ****         {
 288              		.loc 3 238 35 view .LVU74
 289              	.LBE228:
 290              	.LBE232:
 291              	.LBE236:
 292              	.LBE241:
 293              	.LBE246:
 136:./shy_fft.h   ****     inline float sqrt_2_div_2() const { return 0.7071067811865476f; }
 294              		.loc 3 136 31 is_stmt 1 view .LVU75
 295              	.LBB247:
 296              	.LBB242:
 297              	.LBB237:
 298              	.LBB233:
 299              	.LBB229:
 300              	.LBB223:
 301              	.LBB224:
 302              	.LBI224:
 138:./shy_fft.h   ****     inline float sin(float x) { return sinf(x); }
 303              		.loc 3 138 18 view .LVU76
 138:./shy_fft.h   ****     inline float sin(float x) { return sinf(x); }
 304              		.loc 3 138 18 is_stmt 0 view .LVU77
 305              	.LBE224:
 306              	.LBE223:
 307              	.LBE229:
 308              	.LBE233:
 309              	.LBE237:
 310              	.LBE242:
 311              	.LBE247:
 138:./shy_fft.h   ****     inline float sin(float x) { return sinf(x); }
 312              		.loc 3 138 33 is_stmt 1 view .LVU78
 138:./shy_fft.h   ****     inline float sin(float x) { return sinf(x); }
 313              		.loc 3 138 33 is_stmt 0 view .LVU79
 314 007c 0123     		movs	r3, #1
 315              	.LBB248:
 316              	.LBB243:
 317              	.LBB238:
 318              	.LBB234:
 319              	.LBB230:
 320              	.LBB226:
 242:./shy_fft.h   ****             sin_cos_lut_[index + 1] = math.sin(angle);
 321              		.loc 3 242 13 view .LVU80
 322 007e 8BED008A 		vstr.32	s16, [fp]
 243:./shy_fft.h   ****         }
 323              		.loc 3 243 13 view .LVU81
 324 0082 8BED010A 		vstr.32	s0, [fp, #4]
 325 0086 0BF1080B 		add	fp, fp, #8
 326              	.LBE226:
 238:./shy_fft.h   ****         {
 327              		.loc 3 238 9 view .LVU82
 328 008a 9A44     		add	r10, r10, r3
 329              	.LVL21:
 330              	.LBB227:
 331              	.LBB225:
 332              	.LBI225:
 139:./shy_fft.h   **** };
 333              		.loc 3 139 18 is_stmt 1 view .LVU83
 139:./shy_fft.h   **** };
ARM GAS  /tmp/ccDsoCRY.s 			page 37


 334              		.loc 3 139 18 is_stmt 0 view .LVU84
 335              	.LBE225:
 336              	.LBE227:
 337              	.LBE230:
 338              	.LBE234:
 339              	.LBE238:
 340              	.LBE243:
 341              	.LBE248:
 139:./shy_fft.h   **** };
 342              		.loc 3 139 33 is_stmt 1 view .LVU85
 343              	.LBB249:
 344              	.LBB244:
 345              	.LBB239:
 346              	.LBB235:
 347              	.LBB231:
 238:./shy_fft.h   ****         {
 348              		.loc 3 238 9 view .LVU86
 238:./shy_fft.h   ****         {
 349              		.loc 3 238 35 view .LVU87
 350 008c 9FED177A 		vldr.32	s14, .L18+8
 351 0090 BAF10C0F 		cmp	r10, #12
 352 0094 03FA0AF3 		lsl	r3, r3, r10
 353              	.LVL22:
 238:./shy_fft.h   ****         {
 354              		.loc 3 238 35 is_stmt 0 view .LVU88
 355 0098 E0D1     		bne	.L17
 356              	.LVL23:
 238:./shy_fft.h   ****         {
 357              		.loc 3 238 35 view .LVU89
 358              	.LBE231:
 359              	.LBE235:
 360              	.LBE239:
 361              	.LBE244:
 362              	.LBE249:
  62:dsp/pvoc/stft.cpp ****     synthesis_ = &analysis_synthesis_buffer[buffer_size_];
 363              		.loc 1 62 5 is_stmt 1 view .LVU90
  69:dsp/pvoc/stft.cpp ****     modifier_      = modifier;
 364              		.loc 1 69 48 is_stmt 0 view .LVU91
 365 009a 4FF48052 		mov	r2, #4096
  63:dsp/pvoc/stft.cpp **** 
 366              		.loc 1 63 57 view .LVU92
 367 009e D8F81010 		ldr	r1, [r8, #16]
  72:dsp/pvoc/stft.cpp **** 
 368              		.loc 1 72 17 view .LVU93
 369 00a2 0023     		movs	r3, #0
  62:dsp/pvoc/stft.cpp ****     synthesis_ = &analysis_synthesis_buffer[buffer_size_];
 370              		.loc 1 62 16 view .LVU94
 371 00a4 C8F82C50 		str	r5, [r8, #44]
  63:dsp/pvoc/stft.cpp **** 
 372              		.loc 1 63 5 is_stmt 1 view .LVU95
  74:dsp/pvoc/stft.cpp **** }
 373              		.loc 1 74 10 is_stmt 0 view .LVU96
 374 00a8 4046     		mov	r0, r8
  63:dsp/pvoc/stft.cpp **** 
 375              		.loc 1 63 18 view .LVU97
 376 00aa 05EB4105 		add	r5, r5, r1, lsl #1
  65:dsp/pvoc/stft.cpp ****     ifft_out_ = fft_out_ = ifft_buffer;
ARM GAS  /tmp/ccDsoCRY.s 			page 38


 377              		.loc 1 65 24 view .LVU98
 378 00ae C8F81470 		str	r7, [r8, #20]
  65:dsp/pvoc/stft.cpp ****     ifft_out_ = fft_out_ = ifft_buffer;
 379              		.loc 1 65 14 view .LVU99
 380 00b2 C8F82070 		str	r7, [r8, #32]
  68:dsp/pvoc/stft.cpp ****     window_stride_ = LUT_SINE_WINDOW_4096_SIZE / fft_size;
 381              		.loc 1 68 20 view .LVU100
 382 00b6 C8F82490 		str	r9, [r8, #36]
  72:dsp/pvoc/stft.cpp **** 
 383              		.loc 1 72 17 view .LVU101
 384 00ba C8F84830 		str	r3, [r8, #72]
  63:dsp/pvoc/stft.cpp **** 
 385              		.loc 1 63 16 view .LVU102
 386 00be C8F83050 		str	r5, [r8, #48]
  65:dsp/pvoc/stft.cpp ****     ifft_out_ = fft_out_ = ifft_buffer;
 387              		.loc 1 65 5 is_stmt 1 view .LVU103
  66:dsp/pvoc/stft.cpp **** 
 388              		.loc 1 66 5 view .LVU104
  68:dsp/pvoc/stft.cpp ****     window_stride_ = LUT_SINE_WINDOW_4096_SIZE / fft_size;
 389              		.loc 1 68 5 view .LVU105
  69:dsp/pvoc/stft.cpp ****     modifier_      = modifier;
 390              		.loc 1 69 5 view .LVU106
  69:dsp/pvoc/stft.cpp ****     modifier_      = modifier;
 391              		.loc 1 69 48 is_stmt 0 view .LVU107
 392 00c2 B2FBF4F4 		udiv	r4, r2, r4
 393              	.LVL24:
  66:dsp/pvoc/stft.cpp **** 
 394              		.loc 1 66 15 view .LVU108
 395 00c6 C8E90666 		strd	r6, r6, [r8, #24]
  70:dsp/pvoc/stft.cpp **** 
 396              		.loc 1 70 20 view .LVU109
 397 00ca 019E     		ldr	r6, [sp, #4]
  69:dsp/pvoc/stft.cpp ****     modifier_      = modifier;
 398              		.loc 1 69 20 view .LVU110
 399 00cc C8F82840 		str	r4, [r8, #40]
  70:dsp/pvoc/stft.cpp **** 
 400              		.loc 1 70 5 is_stmt 1 view .LVU111
  72:dsp/pvoc/stft.cpp **** 
 401              		.loc 1 72 5 view .LVU112
  74:dsp/pvoc/stft.cpp **** }
 402              		.loc 1 74 5 view .LVU113
  70:dsp/pvoc/stft.cpp **** 
 403              		.loc 1 70 20 is_stmt 0 view .LVU114
 404 00d0 C8F84C60 		str	r6, [r8, #76]
  75:dsp/pvoc/stft.cpp **** 
 405              		.loc 1 75 1 view .LVU115
 406 00d4 03B0     		add	sp, sp, #12
 407              		.cfi_def_cfa_offset 44
 408              		@ sp needed
 409 00d6 BDEC028B 		vldm	sp!, {d8}
 410              		.cfi_restore 80
 411              		.cfi_restore 81
 412              		.cfi_def_cfa_offset 36
 413 00da BDE8F04F 		pop	{r4, r5, r6, r7, r8, r9, r10, fp, lr}
 414              		.cfi_restore 14
 415              		.cfi_restore 11
 416              		.cfi_restore 10
ARM GAS  /tmp/ccDsoCRY.s 			page 39


 417              		.cfi_restore 9
 418              		.cfi_restore 8
 419              		.cfi_restore 7
 420              		.cfi_restore 6
 421              		.cfi_restore 5
 422              		.cfi_restore 4
 423              		.cfi_def_cfa_offset 0
 424              	.LVL25:
  74:dsp/pvoc/stft.cpp **** }
 425              		.loc 1 74 10 view .LVU116
 426 00de FFF7FEBF 		b	_ZN4STFT5ResetEv
 427              	.LVL26:
 428              	.L19:
 429 00e2 00BF     		.align	2
 430              	.L18:
 431 00e4 16EFC33E 		.word	1053028118
 432 00e8 5E836C3F 		.word	1064076126
 433 00ec DB0F4940 		.word	1078530011
 434              		.cfi_endproc
 435              	.LFE4288:
 437              		.section	.text._ZN4STFT7ProcessERK10ParametersPKfPfjj,"ax",%progbits
 438              		.align	1
 439              		.p2align 2,,3
 440              		.global	_ZN4STFT7ProcessERK10ParametersPKfPfjj
 441              		.syntax unified
 442              		.thumb
 443              		.thumb_func
 444              		.fpu fpv5-d16
 446              	_ZN4STFT7ProcessERK10ParametersPKfPfjj:
 447              	.LVL27:
 448              	.LFB4290:
  87:dsp/pvoc/stft.cpp **** 
  88:dsp/pvoc/stft.cpp **** void STFT::Process(const Parameters& parameters,
  89:dsp/pvoc/stft.cpp ****                    const float*      input,
  90:dsp/pvoc/stft.cpp ****                    float*            output,
  91:dsp/pvoc/stft.cpp ****                    size_t            size,
  92:dsp/pvoc/stft.cpp ****                    size_t            stride)
  93:dsp/pvoc/stft.cpp **** {
 449              		.loc 1 93 1 is_stmt 1 view -0
 450              		.cfi_startproc
 451              		@ args = 8, pretend = 0, frame = 8
 452              		@ frame_needed = 0, uses_anonymous_args = 0
  94:dsp/pvoc/stft.cpp ****     parameters_ = &parameters;
 453              		.loc 1 94 5 view .LVU118
  93:dsp/pvoc/stft.cpp ****     parameters_ = &parameters;
 454              		.loc 1 93 1 is_stmt 0 view .LVU119
 455 0000 2DE9F04F 		push	{r4, r5, r6, r7, r8, r9, r10, fp, lr}
 456              		.cfi_def_cfa_offset 36
 457              		.cfi_offset 4, -36
 458              		.cfi_offset 5, -32
 459              		.cfi_offset 6, -28
 460              		.cfi_offset 7, -24
 461              		.cfi_offset 8, -20
 462              		.cfi_offset 9, -16
 463              		.cfi_offset 10, -12
 464              		.cfi_offset 11, -8
 465              		.cfi_offset 14, -4
ARM GAS  /tmp/ccDsoCRY.s 			page 40


 466 0004 83B0     		sub	sp, sp, #12
 467              		.cfi_def_cfa_offset 48
 468              		.loc 1 94 17 view .LVU120
 469 0006 8164     		str	r1, [r0, #72]
  93:dsp/pvoc/stft.cpp ****     parameters_ = &parameters;
 470              		.loc 1 93 1 view .LVU121
 471 0008 DDF83080 		ldr	r8, [sp, #48]
  95:dsp/pvoc/stft.cpp ****     while(size)
 472              		.loc 1 95 5 is_stmt 1 view .LVU122
 473              		.loc 1 95 11 view .LVU123
 474 000c B8F1000F 		cmp	r8, #0
 475 0010 4FD0     		beq	.L20
 476 0012 9A46     		mov	r10, r3
 477              	.LBB250:
  96:dsp/pvoc/stft.cpp ****     {
  97:dsp/pvoc/stft.cpp ****         size_t processed = min(size, hop_size_ - block_size_);
 478              		.loc 1 97 38 is_stmt 0 view .LVU124
 479 0014 C368     		ldr	r3, [r0, #12]
 480              	.LVL28:
 481              		.loc 1 97 38 view .LVU125
 482 0016 9146     		mov	r9, r2
 483 0018 0093     		str	r3, [sp]
 484              	.LBB251:
 485              	.LBB252:
  98:dsp/pvoc/stft.cpp ****         for(size_t i = 0; i < processed; ++i)
  99:dsp/pvoc/stft.cpp ****         {
 100:dsp/pvoc/stft.cpp ****             int32_t sample             = *input * 32768.0f;
 101:dsp/pvoc/stft.cpp ****             analysis_[buffer_ptr_ + i] = Clip16(sample);
 102:dsp/pvoc/stft.cpp ****             *output
 103:dsp/pvoc/stft.cpp ****                 = static_cast<float>(synthesis_[buffer_ptr_ + i]) / 16384.0f;
 104:dsp/pvoc/stft.cpp ****             input += stride;
 486              		.loc 1 104 19 view .LVU126
 487 001a 0D9B     		ldr	r3, [sp, #52]
 488 001c 4FEA830C 		lsl	ip, r3, #2
 489 0020 0369     		ldr	r3, [r0, #16]
 490 0022 0193     		str	r3, [sp, #4]
 491              	.LVL29:
 492              	.L22:
 493              		.loc 1 104 19 view .LVU127
 494              	.LBE252:
 495              	.LBE251:
  97:dsp/pvoc/stft.cpp ****         for(size_t i = 0; i < processed; ++i)
 496              		.loc 1 97 9 is_stmt 1 view .LVU128
  97:dsp/pvoc/stft.cpp ****         for(size_t i = 0; i < processed; ++i)
 497              		.loc 1 97 50 is_stmt 0 view .LVU129
 498 0024 C76B     		ldr	r7, [r0, #60]
 499              	.LVL30:
  97:dsp/pvoc/stft.cpp ****         for(size_t i = 0; i < processed; ++i)
 500              		.loc 1 97 48 view .LVU130
 501 0026 009B     		ldr	r3, [sp]
 502 0028 DE1B     		subs	r6, r3, r7
 503 002a 4645     		cmp	r6, r8
 504 002c 28BF     		it	cs
 505 002e 4646     		movcs	r6, r8
 506              	.LVL31:
  98:dsp/pvoc/stft.cpp ****         for(size_t i = 0; i < processed; ++i)
 507              		.loc 1 98 9 is_stmt 1 view .LVU131
ARM GAS  /tmp/ccDsoCRY.s 			page 41


 508              	.LBB256:
  98:dsp/pvoc/stft.cpp ****         for(size_t i = 0; i < processed; ++i)
 509              		.loc 1 98 29 view .LVU132
 510 0030 002E     		cmp	r6, #0
 511 0032 46D0     		beq	.L23
 512              	.LBB253:
 101:dsp/pvoc/stft.cpp ****             *output
 513              		.loc 1 101 23 is_stmt 0 view .LVU133
 514 0034 426B     		ldr	r2, [r0, #52]
 103:dsp/pvoc/stft.cpp ****             input += stride;
 515              		.loc 1 103 38 view .LVU134
 516 0036 5446     		mov	r4, r10
 101:dsp/pvoc/stft.cpp ****             *output
 517              		.loc 1 101 13 view .LVU135
 518 0038 D0F82CB0 		ldr	fp, [r0, #44]
 103:dsp/pvoc/stft.cpp ****             input += stride;
 519              		.loc 1 103 38 view .LVU136
 520 003c 4946     		mov	r1, r9
 521 003e 5500     		lsls	r5, r2, #1
 522 0040 02EB060E 		add	lr, r2, r6
 523 0044 036B     		ldr	r3, [r0, #48]
 524 0046 0BEB4202 		add	r2, fp, r2, lsl #1
 525 004a 023D     		subs	r5, r5, #2
 526 004c 0BEB4E0B 		add	fp, fp, lr, lsl #1
 527 0050 1D44     		add	r5, r5, r3
 528              	.LVL32:
 529              	.L24:
 100:dsp/pvoc/stft.cpp ****             analysis_[buffer_ptr_ + i] = Clip16(sample);
 530              		.loc 1 100 13 is_stmt 1 discriminator 2 view .LVU137
 101:dsp/pvoc/stft.cpp ****             *output
 531              		.loc 1 101 13 discriminator 2 view .LVU138
 101:dsp/pvoc/stft.cpp ****             *output
 532              		.loc 1 101 13 is_stmt 0 discriminator 2 view .LVU139
 533              	.LBE253:
 534              	.LBE256:
 535              	.LBE250:
 536              		.file 4 "./stmtemp.h"
   1:./stmtemp.h   **** #include "daisy.h"
   2:./stmtemp.h   **** #include "daisysp.h"
   3:./stmtemp.h   **** #include "resources.h"
   4:./stmtemp.h   **** 
   5:./stmtemp.h   **** using namespace daisy;
   6:./stmtemp.h   **** using namespace daisysp;
   7:./stmtemp.h   **** 
   8:./stmtemp.h   **** #define MAKE_INTEGRAL_FRACTIONAL(x)                   \
   9:./stmtemp.h   ****     int32_t x##_integral   = static_cast<int32_t>(x); \
  10:./stmtemp.h   ****     float   x##_fractional = x - static_cast<float>(x##_integral);
  11:./stmtemp.h   **** 
  12:./stmtemp.h   **** #define SLOPE(out, in, positive, negative)                \
  13:./stmtemp.h   ****     {                                                     \
  14:./stmtemp.h   ****         float error = (in)-out;                           \
  15:./stmtemp.h   ****         out += (error > 0 ? positive : negative) * error; \
  16:./stmtemp.h   ****     }
  17:./stmtemp.h   **** 
  18:./stmtemp.h   **** #define ONE_POLE(out, in, coefficient) out += (coefficient) * ((in)-out);
  19:./stmtemp.h   **** 
  20:./stmtemp.h   **** #define CONSTRAIN(var, min, max) \
ARM GAS  /tmp/ccDsoCRY.s 			page 42


  21:./stmtemp.h   ****     if(var < (min))              \
  22:./stmtemp.h   ****     {                            \
  23:./stmtemp.h   ****         var = (min);             \
  24:./stmtemp.h   ****     }                            \
  25:./stmtemp.h   ****     else if(var > (max))         \
  26:./stmtemp.h   ****     {                            \
  27:./stmtemp.h   ****         var = (max);             \
  28:./stmtemp.h   ****     }
  29:./stmtemp.h   **** 
  30:./stmtemp.h   **** #define JOIN(lhs, rhs) JOIN_1(lhs, rhs)
  31:./stmtemp.h   **** #define JOIN_1(lhs, rhs) JOIN_2(lhs, rhs)
  32:./stmtemp.h   **** #define JOIN_2(lhs, rhs) lhs##rhs
  33:./stmtemp.h   **** 
  34:./stmtemp.h   **** #define STATIC_ASSERT(expression, message)                                  \
  35:./stmtemp.h   ****     struct JOIN(__static_assertion_at_line_, __LINE__)                      \
  36:./stmtemp.h   ****     {                                                                       \
  37:./stmtemp.h   ****         impl::StaticAssertion<static_cast<bool>((expression))>              \
  38:./stmtemp.h   ****             JOIN(JOIN(JOIN(STATIC_ASSERTION_FAILED_AT_LINE_, __LINE__), _), \
  39:./stmtemp.h   ****                  message);                                                  \
  40:./stmtemp.h   ****     };
  41:./stmtemp.h   **** 
  42:./stmtemp.h   **** namespace impl
  43:./stmtemp.h   **** {
  44:./stmtemp.h   **** template <bool>
  45:./stmtemp.h   **** struct StaticAssertion;
  46:./stmtemp.h   **** 
  47:./stmtemp.h   **** template <>
  48:./stmtemp.h   **** struct StaticAssertion<true>
  49:./stmtemp.h   **** {
  50:./stmtemp.h   **** }; // StaticAssertion<true>
  51:./stmtemp.h   **** 
  52:./stmtemp.h   **** template <int i>
  53:./stmtemp.h   **** struct StaticAssertionTest
  54:./stmtemp.h   **** {
  55:./stmtemp.h   **** }; // StaticAssertionTest<int>
  56:./stmtemp.h   **** 
  57:./stmtemp.h   **** } // namespace impl
  58:./stmtemp.h   **** 
  59:./stmtemp.h   **** template <uint32_t a, uint32_t b, uint32_t c, uint32_t d>
  60:./stmtemp.h   **** struct FourCC
  61:./stmtemp.h   **** {
  62:./stmtemp.h   ****     static const uint32_t value = (((((d << 8) | c) << 8) | b) << 8) | a;
  63:./stmtemp.h   **** };
  64:./stmtemp.h   **** 
  65:./stmtemp.h   **** class CosineOscillator
  66:./stmtemp.h   **** {
  67:./stmtemp.h   ****   public:
  68:./stmtemp.h   ****     CosineOscillator() {}
  69:./stmtemp.h   ****     ~CosineOscillator() {}
  70:./stmtemp.h   **** 
  71:./stmtemp.h   ****     void Init(float freq)
  72:./stmtemp.h   ****     {
  73:./stmtemp.h   ****         float sample_rate = 48000; //hardcoded for now
  74:./stmtemp.h   ****         phs_inc_          = freq / sample_rate;
  75:./stmtemp.h   ****     }
  76:./stmtemp.h   **** 
  77:./stmtemp.h   ****     float Next()
ARM GAS  /tmp/ccDsoCRY.s 			page 43


  78:./stmtemp.h   ****     {
  79:./stmtemp.h   ****         phs_ += phs_inc_;
  80:./stmtemp.h   **** 
  81:./stmtemp.h   ****         if(phs_ >= 1.f)
  82:./stmtemp.h   ****         {
  83:./stmtemp.h   ****             phs_ -= 1.f;
  84:./stmtemp.h   ****         }
  85:./stmtemp.h   **** 
  86:./stmtemp.h   ****         value_ = cos(phs_);
  87:./stmtemp.h   **** 
  88:./stmtemp.h   ****         return value_;
  89:./stmtemp.h   ****     }
  90:./stmtemp.h   **** 
  91:./stmtemp.h   ****     float value() { return value_; }
  92:./stmtemp.h   **** 
  93:./stmtemp.h   ****   private:
  94:./stmtemp.h   ****     float value_ = 0.f;
  95:./stmtemp.h   ****     float sample_rate_;
  96:./stmtemp.h   ****     float phs_ = 0.f;
  97:./stmtemp.h   ****     float phs_inc_;
  98:./stmtemp.h   **** };
  99:./stmtemp.h   **** 
 100:./stmtemp.h   **** inline int32_t Clip16(int32_t x)
 101:./stmtemp.h   **** {
 102:./stmtemp.h   ****     if(x < -32768)
 537              		.loc 4 102 5 is_stmt 1 discriminator 2 view .LVU140
 538              	.LBB258:
 539              	.LBB257:
 540              	.LBB254:
 100:dsp/pvoc/stft.cpp ****             analysis_[buffer_ptr_ + i] = Clip16(sample);
 541              		.loc 1 100 49 is_stmt 0 discriminator 2 view .LVU141
 542 0052 D1ED007A 		vldr.32	s15, [r1]
 543              		.loc 1 104 19 discriminator 2 view .LVU142
 544 0056 6144     		add	r1, r1, ip
 545              	.LVL33:
 100:dsp/pvoc/stft.cpp ****             analysis_[buffer_ptr_ + i] = Clip16(sample);
 546              		.loc 1 100 21 discriminator 2 view .LVU143
 547 0058 B0EE677A 		vmov.f32	s14, s15
 548 005c BEEEE87A 		vcvt.s32.f32	s14, s14, #15
 549 0060 17EE103A 		vmov	r3, s14	@ int
 101:dsp/pvoc/stft.cpp ****             *output
 550              		.loc 1 101 40 discriminator 2 view .LVU144
 551 0064 03F30F03 		ssat	r3, #16, r3
 552 0068 22F8023B 		strh	r3, [r2], #2	@ movhi
 102:dsp/pvoc/stft.cpp ****                 = static_cast<float>(synthesis_[buffer_ptr_ + i]) / 16384.0f;
 553              		.loc 1 102 13 is_stmt 1 discriminator 2 view .LVU145
 554              	.LBE254:
  98:dsp/pvoc/stft.cpp ****         {
 555              		.loc 1 98 29 is_stmt 0 discriminator 2 view .LVU146
 556 006c 9345     		cmp	fp, r2
 557              	.LBB255:
 103:dsp/pvoc/stft.cpp ****             input += stride;
 558              		.loc 1 103 19 discriminator 2 view .LVU147
 559 006e 35F9023F 		ldrsh	r3, [r5, #2]!
 560 0072 07EE903A 		vmov	s15, r3	@ int
 561              	.LVL34:
 103:dsp/pvoc/stft.cpp ****             input += stride;
ARM GAS  /tmp/ccDsoCRY.s 			page 44


 562              		.loc 1 103 67 discriminator 2 view .LVU148
 563 0076 FAEEC97A 		vcvt.f32.s32	s15, s15, #14
 103:dsp/pvoc/stft.cpp ****             input += stride;
 564              		.loc 1 103 17 discriminator 2 view .LVU149
 565 007a C4ED007A 		vstr.32	s15, [r4]
 566              		.loc 1 104 13 is_stmt 1 discriminator 2 view .LVU150
 567              	.LVL35:
 105:dsp/pvoc/stft.cpp ****             output += stride;
 568              		.loc 1 105 13 discriminator 2 view .LVU151
 569              		.loc 1 105 20 is_stmt 0 discriminator 2 view .LVU152
 570 007e 6444     		add	r4, r4, ip
 571              	.LVL36:
 572              		.loc 1 105 20 discriminator 2 view .LVU153
 573              	.LBE255:
  98:dsp/pvoc/stft.cpp ****         {
 574              		.loc 1 98 9 is_stmt 1 discriminator 2 view .LVU154
  98:dsp/pvoc/stft.cpp ****         {
 575              		.loc 1 98 29 discriminator 2 view .LVU155
 576 0080 E7D1     		bne	.L24
 577 0082 06FB0CF3 		mul	r3, r6, ip
 578 0086 9944     		add	r9, r9, r3
 579 0088 9A44     		add	r10, r10, r3
 580              	.LVL37:
 581              	.L25:
  98:dsp/pvoc/stft.cpp ****         {
 582              		.loc 1 98 29 is_stmt 0 discriminator 2 view .LVU156
 583              	.LBE257:
 106:dsp/pvoc/stft.cpp ****         }
 107:dsp/pvoc/stft.cpp **** 
 108:dsp/pvoc/stft.cpp ****         block_size_ += processed;
 584              		.loc 1 108 9 is_stmt 1 view .LVU157
 109:dsp/pvoc/stft.cpp ****         size -= processed;
 110:dsp/pvoc/stft.cpp ****         buffer_ptr_ += processed;
 111:dsp/pvoc/stft.cpp ****         if(buffer_ptr_ >= buffer_size_)
 585              		.loc 1 111 9 is_stmt 0 view .LVU158
 586 008a 019B     		ldr	r3, [sp, #4]
 108:dsp/pvoc/stft.cpp ****         size -= processed;
 587              		.loc 1 108 21 view .LVU159
 588 008c 3744     		add	r7, r7, r6
 109:dsp/pvoc/stft.cpp ****         size -= processed;
 589              		.loc 1 109 14 view .LVU160
 590 008e A8EB0608 		sub	r8, r8, r6
 591              		.loc 1 111 9 view .LVU161
 592 0092 9E45     		cmp	lr, r3
 108:dsp/pvoc/stft.cpp ****         size -= processed;
 593              		.loc 1 108 21 view .LVU162
 594 0094 C763     		str	r7, [r0, #60]
 109:dsp/pvoc/stft.cpp ****         size -= processed;
 595              		.loc 1 109 9 is_stmt 1 view .LVU163
 596              	.LVL38:
 110:dsp/pvoc/stft.cpp ****         if(buffer_ptr_ >= buffer_size_)
 597              		.loc 1 110 9 view .LVU164
 598              		.loc 1 111 9 view .LVU165
 599 0096 0FD2     		bcs	.L26
 110:dsp/pvoc/stft.cpp ****         if(buffer_ptr_ >= buffer_size_)
 600              		.loc 1 110 21 is_stmt 0 view .LVU166
 601 0098 C0F834E0 		str	lr, [r0, #52]
ARM GAS  /tmp/ccDsoCRY.s 			page 45


 602              	.L27:
 112:dsp/pvoc/stft.cpp ****         {
 113:dsp/pvoc/stft.cpp ****             buffer_ptr_ -= buffer_size_;
 114:dsp/pvoc/stft.cpp ****         }
 115:dsp/pvoc/stft.cpp ****         if(block_size_ >= hop_size_)
 603              		.loc 1 115 9 is_stmt 1 view .LVU167
 604 009c 009A     		ldr	r2, [sp]
 605 009e BA42     		cmp	r2, r7
 606 00a0 04D8     		bhi	.L28
 116:dsp/pvoc/stft.cpp ****         {
 117:dsp/pvoc/stft.cpp ****             block_size_ -= hop_size_;
 607              		.loc 1 117 13 view .LVU168
 118:dsp/pvoc/stft.cpp ****             ++ready_;
 608              		.loc 1 118 13 is_stmt 0 view .LVU169
 609 00a2 036C     		ldr	r3, [r0, #64]
 117:dsp/pvoc/stft.cpp ****             ++ready_;
 610              		.loc 1 117 25 view .LVU170
 611 00a4 BF1A     		subs	r7, r7, r2
 612              		.loc 1 118 13 view .LVU171
 613 00a6 0133     		adds	r3, r3, #1
 614 00a8 C0E90F73 		strd	r7, r3, [r0, #60]
 615              	.L28:
 616              	.LVL39:
 617              		.loc 1 118 13 view .LVU172
 618              	.LBE258:
  95:dsp/pvoc/stft.cpp ****     {
 619              		.loc 1 95 5 is_stmt 1 view .LVU173
  95:dsp/pvoc/stft.cpp ****     {
 620              		.loc 1 95 11 view .LVU174
 621 00ac B8F1000F 		cmp	r8, #0
 622 00b0 B8D1     		bne	.L22
 623              	.LVL40:
 624              	.L20:
 119:dsp/pvoc/stft.cpp ****         }
 120:dsp/pvoc/stft.cpp ****     }
 121:dsp/pvoc/stft.cpp **** }
 625              		.loc 1 121 1 is_stmt 0 view .LVU175
 626 00b2 03B0     		add	sp, sp, #12
 627              		.cfi_remember_state
 628              		.cfi_def_cfa_offset 36
 629              		@ sp needed
 630 00b4 BDE8F08F 		pop	{r4, r5, r6, r7, r8, r9, r10, fp, pc}
 631              	.LVL41:
 632              	.L26:
 633              		.cfi_restore_state
 634              	.LBB259:
 113:dsp/pvoc/stft.cpp ****         }
 635              		.loc 1 113 13 is_stmt 1 view .LVU176
 113:dsp/pvoc/stft.cpp ****         }
 636              		.loc 1 113 25 is_stmt 0 view .LVU177
 637 00b8 019B     		ldr	r3, [sp, #4]
 638 00ba AEEB0303 		sub	r3, lr, r3
 639 00be 4363     		str	r3, [r0, #52]
 640 00c0 ECE7     		b	.L27
 641              	.LVL42:
 642              	.L23:
 113:dsp/pvoc/stft.cpp ****         }
ARM GAS  /tmp/ccDsoCRY.s 			page 46


 643              		.loc 1 113 25 view .LVU178
 644 00c2 D0F834E0 		ldr	lr, [r0, #52]
 645 00c6 E0E7     		b	.L25
 646              	.LBE259:
 647              		.cfi_endproc
 648              	.LFE4290:
 650              		.section	.text._ZN15DirectTransformIfLj12E14RotationPhasorIfLj12EEEclEPfS3_PKhPS1_j,"axG",%progbit
 651              		.align	1
 652              		.p2align 2,,3
 653              		.weak	_ZN15DirectTransformIfLj12E14RotationPhasorIfLj12EEEclEPfS3_PKhPS1_j
 654              		.syntax unified
 655              		.thumb
 656              		.thumb_func
 657              		.fpu fpv5-d16
 659              	_ZN15DirectTransformIfLj12E14RotationPhasorIfLj12EEEclEPfS3_PKhPS1_j:
 660              	.LVL43:
 661              	.LFB4715:
 411:./shy_fft.h   ****                     T*             output,
 662              		.loc 3 411 10 is_stmt 1 view -0
 663              		.cfi_startproc
 664              		@ args = 8, pretend = 0, frame = 72
 665              		@ frame_needed = 0, uses_anonymous_args = 0
 411:./shy_fft.h   ****                     T*             output,
 666              		.loc 3 411 10 is_stmt 0 view .LVU180
 667 0000 2DE9F04F 		push	{r4, r5, r6, r7, r8, r9, r10, fp, lr}
 668              		.cfi_def_cfa_offset 36
 669              		.cfi_offset 4, -36
 670              		.cfi_offset 5, -32
 671              		.cfi_offset 6, -28
 672              		.cfi_offset 7, -24
 673              		.cfi_offset 8, -20
 674              		.cfi_offset 9, -16
 675              		.cfi_offset 10, -12
 676              		.cfi_offset 11, -8
 677              		.cfi_offset 14, -4
 678 0004 93B0     		sub	sp, sp, #76
 679              		.cfi_def_cfa_offset 112
 420:./shy_fft.h   ****         // First and second pass.
 680              		.loc 3 420 29 view .LVU181
 681 0006 0120     		movs	r0, #1
 682              	.LVL44:
 411:./shy_fft.h   ****                     T*             output,
 683              		.loc 3 411 10 view .LVU182
 684 0008 1D9C     		ldr	r4, [sp, #116]
 685              	.LVL45:
 411:./shy_fft.h   ****                     T*             output,
 686              		.loc 3 411 10 view .LVU183
 687 000a DDF870A0 		ldr	r10, [sp, #112]
 688              	.LBB260:
 423:./shy_fft.h   ****         {
 689              		.loc 3 423 29 view .LVU184
 690 000e 10FA04F5 		lsls	r5, r0, r4
 691              	.LVL46:
 423:./shy_fft.h   ****         {
 692              		.loc 3 423 29 view .LVU185
 693              	.LBE260:
 411:./shy_fft.h   ****                     T*             output,
ARM GAS  /tmp/ccDsoCRY.s 			page 47


 694              		.loc 3 411 10 view .LVU186
 695 0012 1094     		str	r4, [sp, #64]
 696 0014 0E91     		str	r1, [sp, #56]
 697 0016 1192     		str	r2, [sp, #68]
 698              	.LVL47:
 699              	.LBB265:
 423:./shy_fft.h   ****         {
 700              		.loc 3 423 29 is_stmt 1 view .LVU187
 701 0018 0995     		str	r5, [sp, #36]
 702 001a 00F08F80 		beq	.L38
 703              	.LBB261:
 428:./shy_fft.h   ****             size_t r2 = r0 + 1 * (rt_size >> 2);
 704              		.loc 3 428 43 is_stmt 0 view .LVU188
 705 001e AF08     		lsrs	r7, r5, #2
 706 0020 C4F1100E 		rsb	lr, r4, #16
 707 0024 02F11000 		add	r0, r2, #16
 708              	.LBE261:
 423:./shy_fft.h   ****         {
 709              		.loc 3 423 20 view .LVU189
 710 0028 0024     		movs	r4, #0
 711              	.LBB262:
 428:./shy_fft.h   ****             size_t r2 = r0 + 1 * (rt_size >> 2);
 712              		.loc 3 428 32 view .LVU190
 713 002a 4FEA470C 		lsl	ip, r7, #1
 714              	.LVL48:
 715              	.L40:
 426:./shy_fft.h   ****                         >> (16 - rt_num_passes);
 716              		.loc 3 426 39 discriminator 2 view .LVU191
 717 002e E6B2     		uxtb	r6, r4
 718 0030 1030     		adds	r0, r0, #16
 719              	.LVL49:
 426:./shy_fft.h   ****                         >> (16 - rt_num_passes);
 720              		.loc 3 426 65 discriminator 2 view .LVU192
 721 0032 220A     		lsrs	r2, r4, #8
 722              	.LBE262:
 423:./shy_fft.h   ****         {
 723              		.loc 3 423 9 discriminator 2 view .LVU193
 724 0034 0434     		adds	r4, r4, #4
 725              	.LVL50:
 726              	.LBB263:
 426:./shy_fft.h   ****                         >> (16 - rt_num_passes);
 727              		.loc 3 426 47 discriminator 2 view .LVU194
 728 0036 9E5D     		ldrb	r6, [r3, r6]	@ zero_extendqisi2
 426:./shy_fft.h   ****                         >> (16 - rt_num_passes);
 729              		.loc 3 426 53 discriminator 2 view .LVU195
 730 0038 9A5C     		ldrb	r2, [r3, r2]	@ zero_extendqisi2
 731              	.LBE263:
 423:./shy_fft.h   ****         {
 732              		.loc 3 423 29 discriminator 2 view .LVU196
 733 003a A542     		cmp	r5, r4
 734              	.LBB264:
 426:./shy_fft.h   ****                         >> (16 - rt_num_passes);
 735              		.loc 3 426 53 discriminator 2 view .LVU197
 736 003c 42EA0622 		orr	r2, r2, r6, lsl #8
 427:./shy_fft.h   ****             size_t r1 = r0 + 2 * (rt_size >> 2);
 737              		.loc 3 427 25 discriminator 2 view .LVU198
 738 0040 42FA0EF2 		asr	r2, r2, lr
ARM GAS  /tmp/ccDsoCRY.s 			page 48


 739              	.LVL51:
 428:./shy_fft.h   ****             size_t r2 = r0 + 1 * (rt_size >> 2);
 740              		.loc 3 428 20 discriminator 2 view .LVU199
 741 0044 0CEB0206 		add	r6, ip, r2
 742              	.LVL52:
 432:./shy_fft.h   ****             d[3] = s[r2] - s[r3];
 743              		.loc 3 432 21 discriminator 2 view .LVU200
 744 0048 01EB8208 		add	r8, r1, r2, lsl #2
 429:./shy_fft.h   ****             size_t r3 = r0 + 3 * (rt_size >> 2);
 745              		.loc 3 429 20 discriminator 2 view .LVU201
 746 004c 3A44     		add	r2, r2, r7
 747              	.LVL53:
 432:./shy_fft.h   ****             d[3] = s[r2] - s[r3];
 748              		.loc 3 432 29 discriminator 2 view .LVU202
 749 004e 01EB8609 		add	r9, r1, r6, lsl #2
 432:./shy_fft.h   ****             d[3] = s[r2] - s[r3];
 750              		.loc 3 432 26 discriminator 2 view .LVU203
 751 0052 D8ED007A 		vldr.32	s15, [r8]
 430:./shy_fft.h   **** 
 752              		.loc 3 430 20 discriminator 2 view .LVU204
 753 0056 3E44     		add	r6, r6, r7
 754              	.LVL54:
 433:./shy_fft.h   ****             T a  = s[r0] + s[r1];
 755              		.loc 3 433 21 discriminator 2 view .LVU205
 756 0058 01EB8202 		add	r2, r1, r2, lsl #2
 757              	.LVL55:
 432:./shy_fft.h   ****             d[3] = s[r2] - s[r3];
 758              		.loc 3 432 26 discriminator 2 view .LVU206
 759 005c 99ED007A 		vldr.32	s14, [r9]
 433:./shy_fft.h   ****             T a  = s[r0] + s[r1];
 760              		.loc 3 433 29 discriminator 2 view .LVU207
 761 0060 01EB8606 		add	r6, r1, r6, lsl #2
 762              	.LVL56:
 432:./shy_fft.h   ****             d[3] = s[r2] - s[r3];
 763              		.loc 3 432 26 discriminator 2 view .LVU208
 764 0064 77EEC77A 		vsub.f32	s15, s15, s14
 432:./shy_fft.h   ****             d[3] = s[r2] - s[r3];
 765              		.loc 3 432 13 discriminator 2 view .LVU209
 766 0068 40ED077A 		vstr.32	s15, [r0, #-28]
 433:./shy_fft.h   ****             T a  = s[r0] + s[r1];
 767              		.loc 3 433 26 discriminator 2 view .LVU210
 768 006c 96ED007A 		vldr.32	s14, [r6]
 769 0070 D2ED007A 		vldr.32	s15, [r2]
 770 0074 77EEC77A 		vsub.f32	s15, s15, s14
 433:./shy_fft.h   ****             T a  = s[r0] + s[r1];
 771              		.loc 3 433 13 discriminator 2 view .LVU211
 772 0078 40ED057A 		vstr.32	s15, [r0, #-20]
 435:./shy_fft.h   ****             d[0] = a + b;
 773              		.loc 3 435 15 discriminator 2 view .LVU212
 774 007c D6ED006A 		vldr.32	s13, [r6]
 434:./shy_fft.h   ****             T b  = s[r2] + s[r3];
 775              		.loc 3 434 15 discriminator 2 view .LVU213
 776 0080 D8ED007A 		vldr.32	s15, [r8]
 777 0084 99ED006A 		vldr.32	s12, [r9]
 435:./shy_fft.h   ****             d[0] = a + b;
 778              		.loc 3 435 15 discriminator 2 view .LVU214
 779 0088 92ED007A 		vldr.32	s14, [r2]
ARM GAS  /tmp/ccDsoCRY.s 			page 49


 434:./shy_fft.h   ****             T b  = s[r2] + s[r3];
 780              		.loc 3 434 15 discriminator 2 view .LVU215
 781 008c 77EE867A 		vadd.f32	s15, s15, s12
 782              	.LVL57:
 435:./shy_fft.h   ****             d[0] = a + b;
 783              		.loc 3 435 15 discriminator 2 view .LVU216
 784 0090 37EE267A 		vadd.f32	s14, s14, s13
 785              	.LVL58:
 436:./shy_fft.h   ****             d[2] = a - b;
 786              		.loc 3 436 22 discriminator 2 view .LVU217
 787 0094 77EE876A 		vadd.f32	s13, s15, s14
 437:./shy_fft.h   ****             d += 4;
 788              		.loc 3 437 22 discriminator 2 view .LVU218
 789 0098 77EEC77A 		vsub.f32	s15, s15, s14
 790              	.LVL59:
 436:./shy_fft.h   ****             d[2] = a - b;
 791              		.loc 3 436 13 discriminator 2 view .LVU219
 792 009c 40ED086A 		vstr.32	s13, [r0, #-32]
 793              	.LVL60:
 437:./shy_fft.h   ****             d += 4;
 794              		.loc 3 437 13 discriminator 2 view .LVU220
 795 00a0 40ED067A 		vstr.32	s15, [r0, #-24]
 796              	.LVL61:
 437:./shy_fft.h   ****             d += 4;
 797              		.loc 3 437 13 discriminator 2 view .LVU221
 798              	.LBE264:
 423:./shy_fft.h   ****         {
 799              		.loc 3 423 9 is_stmt 1 discriminator 2 view .LVU222
 423:./shy_fft.h   ****         {
 800              		.loc 3 423 29 discriminator 2 view .LVU223
 801 00a4 C3D8     		bhi	.L40
 802 00a6 099B     		ldr	r3, [sp, #36]
 803              	.LVL62:
 423:./shy_fft.h   ****         {
 804              		.loc 3 423 29 is_stmt 0 discriminator 2 view .LVU224
 805 00a8 0E9A     		ldr	r2, [sp, #56]
 806 00aa 591E     		subs	r1, r3, #1
 807              	.LVL63:
 423:./shy_fft.h   ****         {
 808              		.loc 3 423 29 discriminator 2 view .LVU225
 809 00ac 119B     		ldr	r3, [sp, #68]
 810 00ae C908     		lsrs	r1, r1, #3
 811 00b0 03F12000 		add	r0, r3, #32
 812 00b4 00EB4110 		add	r0, r0, r1, lsl #5
 813              	.LVL64:
 814              	.L43:
 423:./shy_fft.h   ****         {
 815              		.loc 3 423 29 discriminator 2 view .LVU226
 816              	.LBE265:
 817              	.LBB266:
 818              	.LBB267:
 448:./shy_fft.h   ****             d[i + 4] = s[i] - s[i + 4];
 819              		.loc 3 448 29 discriminator 2 view .LVU227
 820 00b8 D3ED046A 		vldr.32	s13, [r3, #16]
 821 00bc 2033     		adds	r3, r3, #32
 822 00be 13ED087A 		vldr.32	s14, [r3, #-32]
 823 00c2 2032     		adds	r2, r2, #32
ARM GAS  /tmp/ccDsoCRY.s 			page 50


 454:./shy_fft.h   ****             d[i + 3] = s[i + 1] - v;
 824              		.loc 3 454 33 discriminator 2 view .LVU228
 825 00c4 DFED967A 		vldr.32	s15, .L63
 448:./shy_fft.h   ****             d[i + 4] = s[i] - s[i + 4];
 826              		.loc 3 448 29 discriminator 2 view .LVU229
 827 00c8 37EE267A 		vadd.f32	s14, s14, s13
 448:./shy_fft.h   ****             d[i + 4] = s[i] - s[i + 4];
 828              		.loc 3 448 13 discriminator 2 view .LVU230
 829 00cc 02ED087A 		vstr.32	s14, [r2, #-32]
 449:./shy_fft.h   ****             d[i + 2] = s[i + 2];
 830              		.loc 3 449 29 discriminator 2 view .LVU231
 831 00d0 53ED046A 		vldr.32	s13, [r3, #-16]
 832 00d4 13ED087A 		vldr.32	s14, [r3, #-32]
 833 00d8 37EE667A 		vsub.f32	s14, s14, s13
 449:./shy_fft.h   ****             d[i + 2] = s[i + 2];
 834              		.loc 3 449 13 discriminator 2 view .LVU232
 835 00dc 02ED047A 		vstr.32	s14, [r2, #-16]
 450:./shy_fft.h   ****             d[i + 6] = s[i + 6];
 836              		.loc 3 450 25 discriminator 2 view .LVU233
 837 00e0 53F8181C 		ldr	r1, [r3, #-24]	@ float
 450:./shy_fft.h   ****             d[i + 6] = s[i + 6];
 838              		.loc 3 450 13 discriminator 2 view .LVU234
 839 00e4 42F8181C 		str	r1, [r2, #-24]	@ float
 451:./shy_fft.h   **** 
 840              		.loc 3 451 25 discriminator 2 view .LVU235
 841 00e8 53F8081C 		ldr	r1, [r3, #-8]	@ float
 451:./shy_fft.h   **** 
 842              		.loc 3 451 13 discriminator 2 view .LVU236
 843 00ec 42F8081C 		str	r1, [r2, #-8]	@ float
 453:./shy_fft.h   ****             d[i + 1] = s[i + 1] + v;
 844              		.loc 3 453 34 discriminator 2 view .LVU237
 845 00f0 13ED016A 		vldr.32	s12, [r3, #-4]
 846 00f4 13ED037A 		vldr.32	s14, [r3, #-12]
 454:./shy_fft.h   ****             d[i + 3] = s[i + 1] - v;
 847              		.loc 3 454 33 discriminator 2 view .LVU238
 848 00f8 53ED076A 		vldr.32	s13, [r3, #-28]
 453:./shy_fft.h   ****             d[i + 1] = s[i + 1] + v;
 849              		.loc 3 453 34 discriminator 2 view .LVU239
 850 00fc 37EE467A 		vsub.f32	s14, s14, s12
 851              	.LVL65:
 453:./shy_fft.h   ****             d[i + 1] = s[i + 1] + v;
 852              		.loc 3 453 34 discriminator 2 view .LVU240
 853              	.LBE267:
 854              	.LBE266:
 137:./shy_fft.h   ****     inline float cos(float x) { return cosf(x); }
 855              		.loc 3 137 41 is_stmt 1 discriminator 2 view .LVU241
 856              	.LBB271:
 857              	.LBB268:
 454:./shy_fft.h   ****             d[i + 3] = s[i + 1] - v;
 858              		.loc 3 454 33 is_stmt 0 discriminator 2 view .LVU242
 859 0100 E7EE276A 		vfma.f32	s13, s14, s15
 454:./shy_fft.h   ****             d[i + 3] = s[i + 1] - v;
 860              		.loc 3 454 13 discriminator 2 view .LVU243
 861 0104 42ED076A 		vstr.32	s13, [r2, #-28]
 455:./shy_fft.h   **** 
 862              		.loc 3 455 33 discriminator 2 view .LVU244
 863 0108 53ED076A 		vldr.32	s13, [r3, #-28]
ARM GAS  /tmp/ccDsoCRY.s 			page 51


 864 010c E7EE676A 		vfms.f32	s13, s14, s15
 455:./shy_fft.h   **** 
 865              		.loc 3 455 13 discriminator 2 view .LVU245
 866 0110 42ED056A 		vstr.32	s13, [r2, #-20]
 457:./shy_fft.h   ****             d[i + 5] = v + s[i + 3];
 867              		.loc 3 457 34 discriminator 2 view .LVU246
 868 0114 13ED037A 		vldr.32	s14, [r3, #-12]
 869              	.LVL66:
 457:./shy_fft.h   ****             d[i + 5] = v + s[i + 3];
 870              		.loc 3 457 34 discriminator 2 view .LVU247
 871 0118 13ED016A 		vldr.32	s12, [r3, #-4]
 458:./shy_fft.h   ****             d[i + 7] = v - s[i + 3];
 872              		.loc 3 458 26 discriminator 2 view .LVU248
 873 011c 53ED056A 		vldr.32	s13, [r3, #-20]
 457:./shy_fft.h   ****             d[i + 5] = v + s[i + 3];
 874              		.loc 3 457 34 discriminator 2 view .LVU249
 875 0120 37EE067A 		vadd.f32	s14, s14, s12
 876              	.LVL67:
 457:./shy_fft.h   ****             d[i + 5] = v + s[i + 3];
 877              		.loc 3 457 34 discriminator 2 view .LVU250
 878              	.LBE268:
 879              	.LBE271:
 137:./shy_fft.h   ****     inline float cos(float x) { return cosf(x); }
 880              		.loc 3 137 41 is_stmt 1 discriminator 2 view .LVU251
 881              	.LBB272:
 882              	.LBB269:
 458:./shy_fft.h   ****             d[i + 7] = v - s[i + 3];
 883              		.loc 3 458 26 is_stmt 0 discriminator 2 view .LVU252
 884 0124 E7EE276A 		vfma.f32	s13, s14, s15
 458:./shy_fft.h   ****             d[i + 7] = v - s[i + 3];
 885              		.loc 3 458 13 discriminator 2 view .LVU253
 886 0128 42ED036A 		vstr.32	s13, [r2, #-12]
 459:./shy_fft.h   ****         }
 887              		.loc 3 459 26 discriminator 2 view .LVU254
 888 012c 53ED056A 		vldr.32	s13, [r3, #-20]
 889              	.LBE269:
 444:./shy_fft.h   ****         {
 890              		.loc 3 444 29 discriminator 2 view .LVU255
 891 0130 8342     		cmp	r3, r0
 892              	.LBB270:
 459:./shy_fft.h   ****         }
 893              		.loc 3 459 26 discriminator 2 view .LVU256
 894 0132 D7EE276A 		vfnms.f32	s13, s14, s15
 459:./shy_fft.h   ****         }
 895              		.loc 3 459 13 discriminator 2 view .LVU257
 896 0136 42ED016A 		vstr.32	s13, [r2, #-4]
 897              	.LBE270:
 444:./shy_fft.h   ****         {
 898              		.loc 3 444 9 is_stmt 1 discriminator 2 view .LVU258
 444:./shy_fft.h   ****         {
 899              		.loc 3 444 29 discriminator 2 view .LVU259
 900 013a BDD1     		bne	.L43
 901              	.LVL68:
 902              	.L38:
 444:./shy_fft.h   ****         {
 903              		.loc 3 444 29 is_stmt 0 discriminator 2 view .LVU260
 904              	.LBE272:
ARM GAS  /tmp/ccDsoCRY.s 			page 52


 905              	.LBB273:
 463:./shy_fft.h   ****         {
 906              		.loc 3 463 35 is_stmt 1 view .LVU261
 907 013c 109B     		ldr	r3, [sp, #64]
 908 013e 032B     		cmp	r3, #3
 909 0140 40F2DC80 		bls	.L62
 910 0144 0AF10403 		add	r3, r10, #4
 911 0148 CDF81CA0 		str	r10, [sp, #28]
 912 014c 0693     		str	r3, [sp, #24]
 913 014e 119B     		ldr	r3, [sp, #68]
 914 0150 0F93     		str	r3, [sp, #60]
 463:./shy_fft.h   ****         {
 915              		.loc 3 463 20 is_stmt 0 view .LVU262
 916 0152 0323     		movs	r3, #3
 917 0154 0D93     		str	r3, [sp, #52]
 918              	.LVL69:
 919              	.L45:
 920              	.LBB274:
 472:./shy_fft.h   ****             size_t n_2 = n >> 1;
 921              		.loc 3 472 28 view .LVU263
 922 0156 0D9B     		ldr	r3, [sp, #52]
 923 0158 4FF0010E 		mov	lr, #1
 924 015c 0EFA03FE 		lsl	lr, lr, r3
 925              	.LVL70:
 473:./shy_fft.h   **** 
 926              		.loc 3 473 20 view .LVU264
 927 0160 4FEA5E03 		lsr	r3, lr, #1
 928 0164 0893     		str	r3, [sp, #32]
 929              	.LVL71:
 930              	.LBB275:
 475:./shy_fft.h   ****             {
 931              		.loc 3 475 33 is_stmt 1 view .LVU265
 932 0166 099B     		ldr	r3, [sp, #36]
 933              	.LVL72:
 475:./shy_fft.h   ****             {
 934              		.loc 3 475 33 is_stmt 0 view .LVU266
 935 0168 002B     		cmp	r3, #0
 936 016a 00F0B680 		beq	.L47
 475:./shy_fft.h   ****             {
 937              		.loc 3 475 52 view .LVU267
 938 016e 4FEA4E02 		lsl	r2, lr, #1
 939              	.LBB276:
 478:./shy_fft.h   ****                 T* dr  = d + i;
 940              		.loc 3 478 30 view .LVU268
 941 0172 0423     		movs	r3, #4
 484:./shy_fft.h   ****                 di[n_2] = s2r[n_2];
 942              		.loc 3 484 30 view .LVU269
 943 0174 089E     		ldr	r6, [sp, #32]
 944 0176 4FEACE0E 		lsl	lr, lr, #3
 945              	.LVL73:
 484:./shy_fft.h   ****                 di[n_2] = s2r[n_2];
 946              		.loc 3 484 30 view .LVU270
 947              	.LBE276:
 475:./shy_fft.h   ****             {
 948              		.loc 3 475 52 view .LVU271
 949 017a 0B92     		str	r2, [sp, #44]
 950              	.LBB290:
ARM GAS  /tmp/ccDsoCRY.s 			page 53


 478:./shy_fft.h   ****                 T* dr  = d + i;
 951              		.loc 3 478 30 view .LVU272
 952 017c 0D9A     		ldr	r2, [sp, #52]
 484:./shy_fft.h   ****                 di[n_2] = s2r[n_2];
 953              		.loc 3 484 30 view .LVU273
 954 017e 4FEA860C 		lsl	ip, r6, #2
 955 0182 0E99     		ldr	r1, [sp, #56]
 478:./shy_fft.h   ****                 T* dr  = d + i;
 956              		.loc 3 478 30 view .LVU274
 957 0184 03FA02F4 		lsl	r4, r3, r2
 958 0188 0F9F     		ldr	r7, [sp, #60]
 959 018a 01EB0309 		add	r9, r1, r3
 960 018e 6346     		mov	r3, ip
 961 0190 01EB040C 		add	ip, r1, r4
 962 0194 04F10408 		add	r8, r4, #4
 963 0198 1A1D     		adds	r2, r3, #4
 964 019a 381D     		adds	r0, r7, #4
 965 019c 9C44     		add	ip, ip, r3
 966 019e 6300     		lsls	r3, r4, #1
 967 01a0 8A18     		adds	r2, r1, r2
 968 01a2 08EB860B 		add	fp, r8, r6, lsl #2
 969 01a6 0C93     		str	r3, [sp, #48]
 970 01a8 07EB8603 		add	r3, r7, r6, lsl #2
 971 01ac 0192     		str	r2, [sp, #4]
 972 01ae 8844     		add	r8, r8, r1
 973 01b0 3A19     		adds	r2, r7, r4
 974 01b2 0493     		str	r3, [sp, #16]
 975 01b4 8B44     		add	fp, fp, r1
 976              	.LBE290:
 475:./shy_fft.h   ****             {
 977              		.loc 3 475 24 view .LVU275
 978 01b6 0023     		movs	r3, #0
 979              	.LBB291:
 478:./shy_fft.h   ****                 T* dr  = d + i;
 980              		.loc 3 478 30 view .LVU276
 981 01b8 0A94     		str	r4, [sp, #40]
 982 01ba 0290     		str	r0, [sp, #8]
 983 01bc 0392     		str	r2, [sp, #12]
 984              	.LBE291:
 475:./shy_fft.h   ****             {
 985              		.loc 3 475 24 view .LVU277
 986 01be 0593     		str	r3, [sp, #20]
 987              	.LVL74:
 988              	.L48:
 989              	.LBB292:
 482:./shy_fft.h   ****                 di[0]   = s1r[0] - s2r[0];
 990              		.loc 3 482 34 view .LVU278
 991 01c0 18ED017A 		vldr.32	s14, [r8, #-4]
 992 01c4 59ED017A 		vldr.32	s15, [r9, #-4]
 482:./shy_fft.h   ****                 di[0]   = s1r[0] - s2r[0];
 993              		.loc 3 482 17 view .LVU279
 994 01c8 029A     		ldr	r2, [sp, #8]
 482:./shy_fft.h   ****                 di[0]   = s1r[0] - s2r[0];
 995              		.loc 3 482 34 view .LVU280
 996 01ca 77EE877A 		vadd.f32	s15, s15, s14
 485:./shy_fft.h   ****                 T* s1i  = s1r + n_2;
 997              		.loc 3 485 17 view .LVU281
ARM GAS  /tmp/ccDsoCRY.s 			page 54


 998 01ce 0499     		ldr	r1, [sp, #16]
 999 01d0 0A9B     		ldr	r3, [sp, #40]
 482:./shy_fft.h   ****                 di[0]   = s1r[0] - s2r[0];
 1000              		.loc 3 482 17 view .LVU282
 1001 01d2 42ED017A 		vstr.32	s15, [r2, #-4]
 485:./shy_fft.h   ****                 T* s1i  = s1r + n_2;
 1002              		.loc 3 485 17 view .LVU283
 1003 01d6 CB18     		adds	r3, r1, r3
 483:./shy_fft.h   ****                 dr[n_2] = s1r[n_2];
 1004              		.loc 3 483 34 view .LVU284
 1005 01d8 59ED017A 		vldr.32	s15, [r9, #-4]
 1006 01dc 18ED017A 		vldr.32	s14, [r8, #-4]
 483:./shy_fft.h   ****                 dr[n_2] = s1r[n_2];
 1007              		.loc 3 483 17 view .LVU285
 1008 01e0 039A     		ldr	r2, [sp, #12]
 483:./shy_fft.h   ****                 dr[n_2] = s1r[n_2];
 1009              		.loc 3 483 34 view .LVU286
 1010 01e2 77EEC77A 		vsub.f32	s15, s15, s14
 483:./shy_fft.h   ****                 dr[n_2] = s1r[n_2];
 1011              		.loc 3 483 17 view .LVU287
 1012 01e6 C2ED007A 		vstr.32	s15, [r2]
 484:./shy_fft.h   ****                 di[n_2] = s2r[n_2];
 1013              		.loc 3 484 30 view .LVU288
 1014 01ea 019A     		ldr	r2, [sp, #4]
 1015 01ec 52F8042C 		ldr	r2, [r2, #-4]	@ float
 484:./shy_fft.h   ****                 di[n_2] = s2r[n_2];
 1016              		.loc 3 484 17 view .LVU289
 1017 01f0 0A60     		str	r2, [r1]	@ float
 485:./shy_fft.h   ****                 T* s1i  = s1r + n_2;
 1018              		.loc 3 485 30 view .LVU290
 1019 01f2 5BF8042C 		ldr	r2, [fp, #-4]	@ float
 485:./shy_fft.h   ****                 T* s1i  = s1r + n_2;
 1020              		.loc 3 485 17 view .LVU291
 1021 01f6 1A60     		str	r2, [r3]	@ float
 1022              	.LVL75:
 1023              	.LBB277:
 1024              	.LBI277:
 247:./shy_fft.h   ****     {
 1025              		.loc 3 247 17 is_stmt 1 view .LVU292
 1026              	.LBB278:
 250:./shy_fft.h   ****         sin_ = imag_ = sin_cos_lut_[index + 1];
 1027              		.loc 3 250 36 is_stmt 0 view .LVU293
 1028 01f8 069B     		ldr	r3, [sp, #24]
 1029 01fa 53ED017A 		vldr.32	s15, [r3, #-4]
 251:./shy_fft.h   ****     }
 1030              		.loc 3 251 36 view .LVU294
 1031 01fe 079B     		ldr	r3, [sp, #28]
 250:./shy_fft.h   ****         sin_ = imag_ = sin_cos_lut_[index + 1];
 1032              		.loc 3 250 9 view .LVU295
 1033 0200 CAED147A 		vstr.32	s15, [r10, #80]
 1034 0204 CAED127A 		vstr.32	s15, [r10, #72]
 251:./shy_fft.h   ****     }
 1035              		.loc 3 251 36 view .LVU296
 1036 0208 D3ED016A 		vldr.32	s13, [r3, #4]
 1037              	.LBE278:
 1038              	.LBE277:
 1039              	.LBB281:
ARM GAS  /tmp/ccDsoCRY.s 			page 55


 489:./shy_fft.h   ****                 {
 1040              		.loc 3 489 37 view .LVU297
 1041 020c 089B     		ldr	r3, [sp, #32]
 1042              	.LBE281:
 1043              	.LBB286:
 1044              	.LBB279:
 251:./shy_fft.h   ****     }
 1045              		.loc 3 251 9 view .LVU298
 1046 020e CAED156A 		vstr.32	s13, [r10, #84]
 1047              	.LBE279:
 1048              	.LBE286:
 1049              	.LBB287:
 489:./shy_fft.h   ****                 {
 1050              		.loc 3 489 37 view .LVU299
 1051 0212 012B     		cmp	r3, #1
 1052              	.LBE287:
 1053              	.LBB288:
 1054              	.LBB280:
 251:./shy_fft.h   ****     }
 1055              		.loc 3 251 9 view .LVU300
 1056 0214 CAED136A 		vstr.32	s13, [r10, #76]
 1057              	.LVL76:
 251:./shy_fft.h   ****     }
 1058              		.loc 3 251 9 view .LVU301
 1059              	.LBE280:
 1060              	.LBE288:
 1061              	.LBB289:
 489:./shy_fft.h   ****                 {
 1062              		.loc 3 489 37 is_stmt 1 view .LVU302
 1063 0218 47D9     		bls	.L49
 1064 021a 0C9B     		ldr	r3, [sp, #48]
 1065 021c 4946     		mov	r1, r9
 1066 021e 039E     		ldr	r6, [sp, #12]
 1067 0220 5A46     		mov	r2, fp
 1068 0222 1C1F     		subs	r4, r3, #4
 1069 0224 4346     		mov	r3, r8
 1070 0226 371D     		adds	r7, r6, #4
 1071 0228 DDE90105 		ldrd	r0, r5, [sp, #4]
 1072 022c 2C44     		add	r4, r4, r5
 1073              	.LVL77:
 1074              	.L50:
 1075              	.LBB282:
 495:./shy_fft.h   ****                     dr[j]  = s1r[j] + v;
 1076              		.loc 3 495 46 is_stmt 0 discriminator 2 view .LVU303
 1077 022e 92ED007A 		vldr.32	s14, [r2]
 495:./shy_fft.h   ****                     dr[j]  = s1r[j] + v;
 1078              		.loc 3 495 33 discriminator 2 view .LVU304
 1079 0232 D3ED005A 		vldr.32	s11, [r3]
 495:./shy_fft.h   ****                     dr[j]  = s1r[j] + v;
 1080              		.loc 3 495 21 discriminator 2 view .LVU305
 1081 0236 26EEC77A 		vnmul.f32	s14, s13, s14
 496:./shy_fft.h   ****                     di[-j] = s1r[j] - v;
 1082              		.loc 3 496 33 discriminator 2 view .LVU306
 1083 023a 91ED006A 		vldr.32	s12, [r1]
 495:./shy_fft.h   ****                     dr[j]  = s1r[j] + v;
 1084              		.loc 3 495 21 discriminator 2 view .LVU307
 1085 023e A5EEA77A 		vfma.f32	s14, s11, s15
ARM GAS  /tmp/ccDsoCRY.s 			page 56


 1086              	.LVL78:
 496:./shy_fft.h   ****                     di[-j] = s1r[j] - v;
 1087              		.loc 3 496 37 discriminator 2 view .LVU308
 1088 0242 36EE076A 		vadd.f32	s12, s12, s14
 496:./shy_fft.h   ****                     di[-j] = s1r[j] - v;
 1089              		.loc 3 496 21 discriminator 2 view .LVU309
 1090 0246 A5EC016A 		vstmia.32	r5!, {s12}
 1091              	.LVL79:
 497:./shy_fft.h   **** 
 1092              		.loc 3 497 37 discriminator 2 view .LVU310
 1093 024a B1EC016A 		vldmia.32	r1!, {s12}
 1094 024e 36EE477A 		vsub.f32	s14, s12, s14
 1095              	.LVL80:
 497:./shy_fft.h   **** 
 1096              		.loc 3 497 21 discriminator 2 view .LVU311
 1097 0252 26ED017A 		vstmdb.32	r6!, {s14}
 499:./shy_fft.h   ****                     di[j]     = v + s1i[j];
 1098              		.loc 3 499 53 discriminator 2 view .LVU312
 1099 0256 B2EC017A 		vldmia.32	r2!, {s14}
 499:./shy_fft.h   ****                     di[j]     = v + s1i[j];
 1100              		.loc 3 499 21 discriminator 2 view .LVU313
 1101 025a B3EC016A 		vldmia.32	r3!, {s12}
 499:./shy_fft.h   ****                     di[j]     = v + s1i[j];
 1102              		.loc 3 499 53 discriminator 2 view .LVU314
 1103 025e 67EE877A 		vmul.f32	s15, s15, s14
 500:./shy_fft.h   ****                     di[n - j] = v - s1i[j];
 1104              		.loc 3 500 40 discriminator 2 view .LVU315
 1105 0262 90ED007A 		vldr.32	s14, [r0]
 1106              	.LBE282:
 489:./shy_fft.h   ****                 {
 1107              		.loc 3 489 37 discriminator 2 view .LVU316
 1108 0266 9C45     		cmp	ip, r3
 1109              	.LBB285:
 499:./shy_fft.h   ****                     di[j]     = v + s1i[j];
 1110              		.loc 3 499 21 discriminator 2 view .LVU317
 1111 0268 E6EE267A 		vfma.f32	s15, s12, s13
 1112              	.LVL81:
 500:./shy_fft.h   ****                     di[n - j] = v - s1i[j];
 1113              		.loc 3 500 35 discriminator 2 view .LVU318
 1114 026c 37EE277A 		vadd.f32	s14, s14, s15
 500:./shy_fft.h   ****                     di[n - j] = v - s1i[j];
 1115              		.loc 3 500 21 discriminator 2 view .LVU319
 1116 0270 A7EC017A 		vstmia.32	r7!, {s14}
 501:./shy_fft.h   ****                     phasor->Rotate();
 1117              		.loc 3 501 35 discriminator 2 view .LVU320
 1118 0274 B0EC017A 		vldmia.32	r0!, {s14}
 1119 0278 77EEC77A 		vsub.f32	s15, s15, s14
 1120              	.LVL82:
 501:./shy_fft.h   ****                     phasor->Rotate();
 1121              		.loc 3 501 21 discriminator 2 view .LVU321
 1122 027c 64ED017A 		vstmdb.32	r4!, {s15}
 1123              	.LVL83:
 1124              	.LBB283:
 1125              	.LBI283:
 254:./shy_fft.h   ****     {
 1126              		.loc 3 254 17 is_stmt 1 discriminator 2 view .LVU322
 1127              	.LBB284:
ARM GAS  /tmp/ccDsoCRY.s 			page 57


 256:./shy_fft.h   ****         sin_   = cos_ * imag_ + sin_ * real_;
 1128              		.loc 3 256 33 is_stmt 0 discriminator 2 view .LVU323
 1129 0280 DAED137A 		vldr.32	s15, [r10, #76]
 256:./shy_fft.h   ****         sin_   = cos_ * imag_ + sin_ * real_;
 1130              		.loc 3 256 25 discriminator 2 view .LVU324
 1131 0284 9AED147A 		vldr.32	s14, [r10, #80]
 256:./shy_fft.h   ****         sin_   = cos_ * imag_ + sin_ * real_;
 1132              		.loc 3 256 40 discriminator 2 view .LVU325
 1133 0288 DAED155A 		vldr.32	s11, [r10, #84]
 257:./shy_fft.h   ****         cos_   = temp;
 1134              		.loc 3 257 38 discriminator 2 view .LVU326
 1135 028c 67EE276A 		vmul.f32	s13, s14, s15
 256:./shy_fft.h   ****         sin_   = cos_ * imag_ + sin_ * real_;
 1136              		.loc 3 256 18 discriminator 2 view .LVU327
 1137 0290 9AED126A 		vldr.32	s12, [r10, #72]
 256:./shy_fft.h   ****         sin_   = cos_ * imag_ + sin_ * real_;
 1138              		.loc 3 256 11 discriminator 2 view .LVU328
 1139 0294 65EEE77A 		vnmul.f32	s15, s11, s15
 257:./shy_fft.h   ****         cos_   = temp;
 1140              		.loc 3 257 31 discriminator 2 view .LVU329
 1141 0298 E6EE256A 		vfma.f32	s13, s12, s11
 256:./shy_fft.h   ****         sin_   = cos_ * imag_ + sin_ * real_;
 1142              		.loc 3 256 11 discriminator 2 view .LVU330
 1143 029c E6EE077A 		vfma.f32	s15, s12, s14
 1144              	.LVL84:
 257:./shy_fft.h   ****         cos_   = temp;
 1145              		.loc 3 257 9 discriminator 2 view .LVU331
 1146 02a0 CAED136A 		vstr.32	s13, [r10, #76]
 258:./shy_fft.h   ****     }
 1147              		.loc 3 258 9 discriminator 2 view .LVU332
 1148 02a4 CAED127A 		vstr.32	s15, [r10, #72]
 1149              	.LVL85:
 258:./shy_fft.h   ****     }
 1150              		.loc 3 258 9 discriminator 2 view .LVU333
 1151              	.LBE284:
 1152              	.LBE283:
 1153              	.LBE285:
 489:./shy_fft.h   ****                 {
 1154              		.loc 3 489 17 is_stmt 1 discriminator 2 view .LVU334
 489:./shy_fft.h   ****                 {
 1155              		.loc 3 489 37 discriminator 2 view .LVU335
 1156 02a8 C1D1     		bne	.L50
 1157              	.LVL86:
 1158              	.L49:
 489:./shy_fft.h   ****                 {
 1159              		.loc 3 489 37 is_stmt 0 discriminator 2 view .LVU336
 1160              	.LBE289:
 1161              	.LBE292:
 475:./shy_fft.h   ****             {
 1162              		.loc 3 475 13 is_stmt 1 view .LVU337
 1163 02aa 059B     		ldr	r3, [sp, #20]
 1164 02ac F044     		add	r8, r8, lr
 1165              	.LVL87:
 475:./shy_fft.h   ****             {
 1166              		.loc 3 475 13 is_stmt 0 view .LVU338
 1167 02ae 0B9A     		ldr	r2, [sp, #44]
 1168 02b0 F344     		add	fp, fp, lr
ARM GAS  /tmp/ccDsoCRY.s 			page 58


 1169 02b2 F144     		add	r9, r9, lr
 1170              	.LVL88:
 475:./shy_fft.h   ****             {
 1171              		.loc 3 475 13 view .LVU339
 1172 02b4 F444     		add	ip, ip, lr
 1173 02b6 1344     		add	r3, r3, r2
 1174 02b8 039A     		ldr	r2, [sp, #12]
 1175 02ba 7244     		add	r2, r2, lr
 1176 02bc 0593     		str	r3, [sp, #20]
 1177              	.LVL89:
 475:./shy_fft.h   ****             {
 1178              		.loc 3 475 33 is_stmt 1 view .LVU340
 1179 02be 0392     		str	r2, [sp, #12]
 1180              	.LVL90:
 475:./shy_fft.h   ****             {
 1181              		.loc 3 475 33 is_stmt 0 view .LVU341
 1182 02c0 049A     		ldr	r2, [sp, #16]
 1183 02c2 7244     		add	r2, r2, lr
 1184 02c4 0492     		str	r2, [sp, #16]
 1185 02c6 029A     		ldr	r2, [sp, #8]
 1186 02c8 7244     		add	r2, r2, lr
 1187 02ca 0292     		str	r2, [sp, #8]
 1188              	.LVL91:
 475:./shy_fft.h   ****             {
 1189              		.loc 3 475 33 view .LVU342
 1190 02cc 019A     		ldr	r2, [sp, #4]
 1191 02ce 7244     		add	r2, r2, lr
 1192 02d0 0192     		str	r2, [sp, #4]
 1193              	.LVL92:
 475:./shy_fft.h   ****             {
 1194              		.loc 3 475 33 view .LVU343
 1195 02d2 099A     		ldr	r2, [sp, #36]
 1196 02d4 9A42     		cmp	r2, r3
 1197 02d6 3FF673AF 		bhi	.L48
 1198              	.LVL93:
 1199              	.L47:
 475:./shy_fft.h   ****             {
 1200              		.loc 3 475 33 view .LVU344
 1201              	.LBE275:
 1202              	.LBE274:
 463:./shy_fft.h   ****         {
 1203              		.loc 3 463 9 is_stmt 1 view .LVU345
 1204 02da 0799     		ldr	r1, [sp, #28]
 1205 02dc 0D9A     		ldr	r2, [sp, #52]
 1206 02de 0831     		adds	r1, r1, #8
 1207 02e0 0E9B     		ldr	r3, [sp, #56]
 1208 02e2 0132     		adds	r2, r2, #1
 1209 02e4 0791     		str	r1, [sp, #28]
 1210 02e6 0699     		ldr	r1, [sp, #24]
 1211 02e8 0D92     		str	r2, [sp, #52]
 1212              	.LVL94:
 463:./shy_fft.h   ****         {
 1213              		.loc 3 463 35 view .LVU346
 1214 02ea 0831     		adds	r1, r1, #8
 1215 02ec 0691     		str	r1, [sp, #24]
 1216 02ee 0F99     		ldr	r1, [sp, #60]
 1217 02f0 0E91     		str	r1, [sp, #56]
ARM GAS  /tmp/ccDsoCRY.s 			page 59


 1218 02f2 1099     		ldr	r1, [sp, #64]
 1219 02f4 9142     		cmp	r1, r2
 1220 02f6 03D0     		beq	.L41
 1221 02f8 0F93     		str	r3, [sp, #60]
 1222              	.LVL95:
 463:./shy_fft.h   ****         {
 1223              		.loc 3 463 35 is_stmt 0 view .LVU347
 1224 02fa 2CE7     		b	.L45
 1225              	.LVL96:
 1226              	.L62:
 463:./shy_fft.h   ****         {
 1227              		.loc 3 463 35 view .LVU348
 1228              	.LBE273:
 443:./shy_fft.h   ****         for(size_t i = 0; i < rt_size; i += 8)
 1229              		.loc 3 443 9 view .LVU349
 1230 02fc 0E9B     		ldr	r3, [sp, #56]
 1231 02fe 0F93     		str	r3, [sp, #60]
 1232              	.LVL97:
 1233              	.L41:
 508:./shy_fft.h   ****         {
 1234              		.loc 3 508 9 view .LVU350
 1235 0300 1198     		ldr	r0, [sp, #68]
 1236 0302 0F99     		ldr	r1, [sp, #60]
 1237 0304 8842     		cmp	r0, r1
 1238 0306 08D0     		beq	.L37
 510:./shy_fft.h   ****         }
 1239              		.loc 3 510 32 view .LVU351
 1240 0308 0422     		movs	r2, #4
 1241              	.LVL98:
 1242              	.LBB293:
 1243              	.LBI293:
 465:/usr/include/newlib/c++/9.2.1/bits/stl_algobase.h ****     {
 1244              		.loc 2 465 5 is_stmt 1 view .LVU352
 1245              	.LBB294:
 1246              	.LBI294:
 438:/usr/include/newlib/c++/9.2.1/bits/stl_algobase.h ****     {
 1247              		.loc 2 438 5 view .LVU353
 1248              	.LBB295:
 1249              	.LBI295:
 393:/usr/include/newlib/c++/9.2.1/bits/stl_algobase.h ****     {
 1250              		.loc 2 393 5 view .LVU354
 1251              	.LBB296:
 1252              	.LBB297:
 1253              	.LBI297:
 375:/usr/include/newlib/c++/9.2.1/bits/stl_algobase.h **** 	{
 1254              		.loc 2 375 2 view .LVU355
 1255              	.LBB298:
 385:/usr/include/newlib/c++/9.2.1/bits/stl_algobase.h **** 	    __builtin_memmove(__result, __first, sizeof(_Tp) * _Num);
 1256              		.loc 2 385 4 is_stmt 0 view .LVU356
 1257 030a 109B     		ldr	r3, [sp, #64]
 1258 030c 9A40     		lsls	r2, r2, r3
 1259              	.LVL99:
 385:/usr/include/newlib/c++/9.2.1/bits/stl_algobase.h **** 	    __builtin_memmove(__result, __first, sizeof(_Tp) * _Num);
 1260              		.loc 2 385 4 view .LVU357
 1261 030e 04D0     		beq	.L37
 1262              	.LBE298:
 1263              	.LBE297:
ARM GAS  /tmp/ccDsoCRY.s 			page 60


 1264              	.LBE296:
 1265              	.LBE295:
 1266              	.LBE294:
 1267              	.LBE293:
 512:./shy_fft.h   **** };
 1268              		.loc 3 512 5 view .LVU358
 1269 0310 13B0     		add	sp, sp, #76
 1270              		.cfi_remember_state
 1271              		.cfi_def_cfa_offset 36
 1272              		@ sp needed
 1273 0312 BDE8F04F 		pop	{r4, r5, r6, r7, r8, r9, r10, fp, lr}
 1274              		.cfi_restore 14
 1275              		.cfi_restore 11
 1276              		.cfi_restore 10
 1277              		.cfi_restore 9
 1278              		.cfi_restore 8
 1279              		.cfi_restore 7
 1280              		.cfi_restore 6
 1281              		.cfi_restore 5
 1282              		.cfi_restore 4
 1283              		.cfi_def_cfa_offset 0
 1284              	.LVL100:
 1285              	.LBB304:
 1286              	.LBB303:
 1287              	.LBB302:
 1288              	.LBB301:
 1289              	.LBB300:
 1290              	.LBB299:
 386:/usr/include/newlib/c++/9.2.1/bits/stl_algobase.h **** 	  return __result + _Num;
 1291              		.loc 2 386 23 view .LVU359
 1292 0316 FFF7FEBF 		b	memmove
 1293              	.LVL101:
 1294              	.L37:
 1295              		.cfi_restore_state
 386:/usr/include/newlib/c++/9.2.1/bits/stl_algobase.h **** 	  return __result + _Num;
 1296              		.loc 2 386 23 view .LVU360
 1297              	.LBE299:
 1298              	.LBE300:
 1299              	.LBE301:
 1300              	.LBE302:
 1301              	.LBE303:
 1302              	.LBE304:
 512:./shy_fft.h   **** };
 1303              		.loc 3 512 5 view .LVU361
 1304 031a 13B0     		add	sp, sp, #76
 1305              		.cfi_def_cfa_offset 36
 1306              		@ sp needed
 1307 031c BDE8F08F 		pop	{r4, r5, r6, r7, r8, r9, r10, fp, pc}
 1308              	.LVL102:
 1309              	.L64:
 512:./shy_fft.h   **** };
 1310              		.loc 3 512 5 view .LVU362
 1311              		.align	2
 1312              	.L63:
 1313 0320 F304353F 		.word	1060439283
 1314              		.cfi_endproc
 1315              	.LFE4715:
ARM GAS  /tmp/ccDsoCRY.s 			page 61


 1317              		.section	.text._ZN16InverseTransformIfLj12E14RotationPhasorIfLj12EEEclEPfS3_PKhPS1_j,"axG",%progbi
 1318              		.align	1
 1319              		.p2align 2,,3
 1320              		.weak	_ZN16InverseTransformIfLj12E14RotationPhasorIfLj12EEEclEPfS3_PKhPS1_j
 1321              		.syntax unified
 1322              		.thumb
 1323              		.thumb_func
 1324              		.fpu fpv5-d16
 1326              	_ZN16InverseTransformIfLj12E14RotationPhasorIfLj12EEEclEPfS3_PKhPS1_j:
 1327              	.LVL103:
 1328              	.LFB4719:
 665:./shy_fft.h   ****                     T*             output,
 1329              		.loc 3 665 10 is_stmt 1 view -0
 1330              		.cfi_startproc
 1331              		@ args = 8, pretend = 0, frame = 64
 1332              		@ frame_needed = 0, uses_anonymous_args = 0
 665:./shy_fft.h   ****                     T*             output,
 1333              		.loc 3 665 10 is_stmt 0 view .LVU364
 1334 0000 2DE9F04F 		push	{r4, r5, r6, r7, r8, r9, r10, fp, lr}
 1335              		.cfi_def_cfa_offset 36
 1336              		.cfi_offset 4, -36
 1337              		.cfi_offset 5, -32
 1338              		.cfi_offset 6, -28
 1339              		.cfi_offset 7, -24
 1340              		.cfi_offset 8, -20
 1341              		.cfi_offset 9, -16
 1342              		.cfi_offset 10, -12
 1343              		.cfi_offset 11, -8
 1344              		.cfi_offset 14, -4
 1345 0004 91B0     		sub	sp, sp, #68
 1346              		.cfi_def_cfa_offset 104
 1347              	.LBB305:
 678:./shy_fft.h   ****         {
 1348              		.loc 3 678 20 view .LVU365
 1349 0006 1B98     		ldr	r0, [sp, #108]
 1350              	.LVL104:
 678:./shy_fft.h   ****         {
 1351              		.loc 3 678 20 view .LVU366
 1352              	.LBE305:
 665:./shy_fft.h   ****                     T*             output,
 1353              		.loc 3 665 10 view .LVU367
 1354 0008 0F93     		str	r3, [sp, #60]
 1355              	.LBB322:
 678:./shy_fft.h   ****         {
 1356              		.loc 3 678 20 view .LVU368
 1357 000a 441E     		subs	r4, r0, #1
 1358              	.LBE322:
 675:./shy_fft.h   **** 
 1359              		.loc 3 675 28 view .LVU369
 1360 000c 1B9B     		ldr	r3, [sp, #108]
 1361              	.LVL105:
 675:./shy_fft.h   **** 
 1362              		.loc 3 675 28 view .LVU370
 1363 000e 0120     		movs	r0, #1
 665:./shy_fft.h   ****                     T*             output,
 1364              		.loc 3 665 10 view .LVU371
 1365 0010 DDF868B0 		ldr	fp, [sp, #104]
ARM GAS  /tmp/ccDsoCRY.s 			page 62


 1366              	.LBB323:
 678:./shy_fft.h   ****         {
 1367              		.loc 3 678 51 view .LVU372
 1368 0014 022C     		cmp	r4, #2
 678:./shy_fft.h   ****         {
 1369              		.loc 3 678 20 view .LVU373
 1370 0016 0B94     		str	r4, [sp, #44]
 1371              	.LBE323:
 675:./shy_fft.h   **** 
 1372              		.loc 3 675 28 view .LVU374
 1373 0018 00FA03F3 		lsl	r3, r0, r3
 665:./shy_fft.h   ****                     T*             output,
 1374              		.loc 3 665 10 view .LVU375
 1375 001c CDE90D21 		strd	r2, r1, [sp, #52]
 1376              	.LVL106:
 675:./shy_fft.h   **** 
 1377              		.loc 3 675 28 view .LVU376
 1378 0020 0793     		str	r3, [sp, #28]
 1379              	.LVL107:
 1380              	.LBB324:
 678:./shy_fft.h   ****         {
 1381              		.loc 3 678 51 is_stmt 1 view .LVU377
 1382 0022 40F28A81 		bls	.L81
 1383 0026 1B9B     		ldr	r3, [sp, #108]
 1384              	.LVL108:
 678:./shy_fft.h   ****         {
 1385              		.loc 3 678 51 is_stmt 0 view .LVU378
 1386              	.LBE324:
 671:./shy_fft.h   ****         T*      d = output;
 1387              		.loc 3 671 17 view .LVU379
 1388 0028 8846     		mov	r8, r1
 1389              	.LBB325:
 678:./shy_fft.h   ****         {
 1390              		.loc 3 678 51 view .LVU380
 1391 002a 0C92     		str	r2, [sp, #48]
 1392 002c 0BEBC303 		add	r3, fp, r3, lsl #3
 1393 0030 0593     		str	r3, [sp, #20]
 1394              	.LVL109:
 1395              	.L74:
 1396              	.LBB306:
 680:./shy_fft.h   ****             size_t n_2 = n >> 1;
 1397              		.loc 3 680 28 view .LVU381
 1398 0032 0B9B     		ldr	r3, [sp, #44]
 1399 0034 4FF0010E 		mov	lr, #1
 1400 0038 0EFA03FE 		lsl	lr, lr, r3
 1401              	.LVL110:
 681:./shy_fft.h   **** 
 1402              		.loc 3 681 20 view .LVU382
 1403 003c 4FEA5E03 		lsr	r3, lr, #1
 1404 0040 0693     		str	r3, [sp, #24]
 1405              	.LVL111:
 1406              	.LBB307:
 683:./shy_fft.h   ****             {
 1407              		.loc 3 683 33 is_stmt 1 view .LVU383
 1408 0042 079B     		ldr	r3, [sp, #28]
 1409              	.LVL112:
 683:./shy_fft.h   ****             {
ARM GAS  /tmp/ccDsoCRY.s 			page 63


 1410              		.loc 3 683 33 is_stmt 0 view .LVU384
 1411 0044 002B     		cmp	r3, #0
 1412 0046 00F0B980 		beq	.L70
 683:./shy_fft.h   ****             {
 1413              		.loc 3 683 33 view .LVU385
 1414 004a 0C99     		ldr	r1, [sp, #48]
 683:./shy_fft.h   ****             {
 1415              		.loc 3 683 52 view .LVU386
 1416 004c 4FEA4E02 		lsl	r2, lr, #1
 1417              	.LBB308:
 686:./shy_fft.h   ****                 T* d1r = d + i;
 1418              		.loc 3 686 29 view .LVU387
 1419 0050 0423     		movs	r3, #4
 1420 0052 0698     		ldr	r0, [sp, #24]
 1421              	.LBE308:
 683:./shy_fft.h   ****             {
 1422              		.loc 3 683 52 view .LVU388
 1423 0054 0992     		str	r2, [sp, #36]
 1424 0056 4FEACE0E 		lsl	lr, lr, #3
 1425              	.LVL113:
 683:./shy_fft.h   ****             {
 1426              		.loc 3 683 52 view .LVU389
 1427 005a CA18     		adds	r2, r1, r3
 1428 005c 08EB800A 		add	r10, r8, r0, lsl #2
 1429 0060 0392     		str	r2, [sp, #12]
 1430 0062 D446     		mov	ip, r10
 1431              	.LBB318:
 686:./shy_fft.h   ****                 T* d1r = d + i;
 1432              		.loc 3 686 29 view .LVU390
 1433 0064 0B9A     		ldr	r2, [sp, #44]
 1434 0066 9340     		lsls	r3, r3, r2
 1435              	.LBE318:
 683:./shy_fft.h   ****             {
 1436              		.loc 3 683 24 view .LVU391
 1437 0068 0022     		movs	r2, #0
 1438              	.LBB319:
 686:./shy_fft.h   ****                 T* d1r = d + i;
 1439              		.loc 3 686 29 view .LVU392
 1440 006a 0893     		str	r3, [sp, #32]
 1441              	.LBE319:
 683:./shy_fft.h   ****             {
 1442              		.loc 3 683 24 view .LVU393
 1443 006c 0492     		str	r2, [sp, #16]
 1444 006e 1A1D     		adds	r2, r3, #4
 1445 0070 5B00     		lsls	r3, r3, #1
 1446 0072 08EB0209 		add	r9, r8, r2
 1447 0076 0A93     		str	r3, [sp, #40]
 1448 0078 01EB8003 		add	r3, r1, r0, lsl #2
 1449 007c 0093     		str	r3, [sp]
 1450 007e 02EB8003 		add	r3, r2, r0, lsl #2
 1451 0082 8A18     		adds	r2, r1, r2
 1452 0084 CB18     		adds	r3, r1, r3
 1453 0086 0292     		str	r2, [sp, #8]
 1454 0088 0193     		str	r3, [sp, #4]
 1455              	.LVL114:
 1456              	.L71:
 1457              	.LBB320:
ARM GAS  /tmp/ccDsoCRY.s 			page 64


 690:./shy_fft.h   ****                 d2r[0]   = sr[0] - si[0];
 1458              		.loc 3 690 34 view .LVU394
 1459 008a 19ED017A 		vldr.32	s14, [r9, #-4]
 1460 008e D8ED007A 		vldr.32	s15, [r8]
 690:./shy_fft.h   ****                 d2r[0]   = sr[0] - si[0];
 1461              		.loc 3 690 17 view .LVU395
 1462 0092 0399     		ldr	r1, [sp, #12]
 690:./shy_fft.h   ****                 d2r[0]   = sr[0] - si[0];
 1463              		.loc 3 690 34 view .LVU396
 1464 0094 77EE877A 		vadd.f32	s15, s15, s14
 693:./shy_fft.h   **** 
 1465              		.loc 3 693 30 view .LVU397
 1466 0098 089A     		ldr	r2, [sp, #32]
 1467 009a 0AEB0203 		add	r3, r10, r2
 1468 009e 4244     		add	r2, r2, r8
 1469              	.LVL115:
 690:./shy_fft.h   ****                 d2r[0]   = sr[0] - si[0];
 1470              		.loc 3 690 17 view .LVU398
 1471 00a0 41ED017A 		vstr.32	s15, [r1, #-4]
 691:./shy_fft.h   ****                 d1r[n_2] = sr[n_2] * T(2);
 1472              		.loc 3 691 34 view .LVU399
 1473 00a4 D8ED007A 		vldr.32	s15, [r8]
 1474 00a8 19ED017A 		vldr.32	s14, [r9, #-4]
 691:./shy_fft.h   ****                 d1r[n_2] = sr[n_2] * T(2);
 1475              		.loc 3 691 17 view .LVU400
 1476 00ac 0299     		ldr	r1, [sp, #8]
 1477              	.LVL116:
 691:./shy_fft.h   ****                 d1r[n_2] = sr[n_2] * T(2);
 1478              		.loc 3 691 34 view .LVU401
 1479 00ae 77EEC77A 		vsub.f32	s15, s15, s14
 691:./shy_fft.h   ****                 d1r[n_2] = sr[n_2] * T(2);
 1480              		.loc 3 691 17 view .LVU402
 1481 00b2 41ED017A 		vstr.32	s15, [r1, #-4]
 692:./shy_fft.h   ****                 d2r[n_2] = si[n_2] * T(2);
 1482              		.loc 3 692 36 view .LVU403
 1483 00b6 DAED007A 		vldr.32	s15, [r10]
 692:./shy_fft.h   ****                 d2r[n_2] = si[n_2] * T(2);
 1484              		.loc 3 692 17 view .LVU404
 1485 00ba 0099     		ldr	r1, [sp]
 692:./shy_fft.h   ****                 d2r[n_2] = si[n_2] * T(2);
 1486              		.loc 3 692 36 view .LVU405
 1487 00bc 77EEA77A 		vadd.f32	s15, s15, s15
 692:./shy_fft.h   ****                 d2r[n_2] = si[n_2] * T(2);
 1488              		.loc 3 692 17 view .LVU406
 1489 00c0 C1ED007A 		vstr.32	s15, [r1]
 693:./shy_fft.h   **** 
 1490              		.loc 3 693 36 view .LVU407
 1491 00c4 D3ED007A 		vldr.32	s15, [r3]
 1492              	.LBB309:
 1493              	.LBB310:
 250:./shy_fft.h   ****         sin_ = imag_ = sin_cos_lut_[index + 1];
 1494              		.loc 3 250 36 view .LVU408
 1495 00c8 0599     		ldr	r1, [sp, #20]
 1496              	.LBE310:
 1497              	.LBE309:
 693:./shy_fft.h   **** 
 1498              		.loc 3 693 36 view .LVU409
ARM GAS  /tmp/ccDsoCRY.s 			page 65


 1499 00ca 77EEA77A 		vadd.f32	s15, s15, s15
 693:./shy_fft.h   **** 
 1500              		.loc 3 693 17 view .LVU410
 1501 00ce 019B     		ldr	r3, [sp, #4]
 1502 00d0 43ED017A 		vstr.32	s15, [r3, #-4]
 1503              	.LVL117:
 1504              	.LBB312:
 1505              	.LBI309:
 247:./shy_fft.h   ****     {
 1506              		.loc 3 247 17 is_stmt 1 view .LVU411
 1507              	.LBB311:
 250:./shy_fft.h   ****         sin_ = imag_ = sin_cos_lut_[index + 1];
 1508              		.loc 3 250 36 is_stmt 0 view .LVU412
 1509 00d4 51F8203C 		ldr	r3, [r1, #-32]	@ float
 250:./shy_fft.h   ****         sin_ = imag_ = sin_cos_lut_[index + 1];
 1510              		.loc 3 250 9 view .LVU413
 1511 00d8 CBF85030 		str	r3, [fp, #80]	@ float
 1512 00dc CBF84830 		str	r3, [fp, #72]	@ float
 251:./shy_fft.h   ****     }
 1513              		.loc 3 251 36 view .LVU414
 1514 00e0 51F81C3C 		ldr	r3, [r1, #-28]	@ float
 251:./shy_fft.h   ****     }
 1515              		.loc 3 251 9 view .LVU415
 1516 00e4 CBF85430 		str	r3, [fp, #84]	@ float
 1517 00e8 CBF84C30 		str	r3, [fp, #76]	@ float
 1518              	.LVL118:
 251:./shy_fft.h   ****     }
 1519              		.loc 3 251 9 view .LVU416
 1520              	.LBE311:
 1521              	.LBE312:
 1522              	.LBB313:
 698:./shy_fft.h   ****                 {
 1523              		.loc 3 698 37 is_stmt 1 view .LVU417
 1524 00ec 069B     		ldr	r3, [sp, #24]
 1525 00ee 012B     		cmp	r3, #1
 1526 00f0 4CD9     		bls	.L72
 1527 00f2 0A99     		ldr	r1, [sp, #40]
 1528 00f4 08F10403 		add	r3, r8, #4
 1529 00f8 039C     		ldr	r4, [sp, #12]
 1530 00fa 08EB0100 		add	r0, r8, r1
 1531 00fe 0099     		ldr	r1, [sp]
 1532 0100 DDE90165 		ldrd	r6, r5, [sp, #4]
 1533 0104 0F1D     		adds	r7, r1, #4
 1534 0106 4946     		mov	r1, r9
 1535              	.LVL119:
 1536              	.L73:
 1537              	.LBB314:
 700:./shy_fft.h   ****                     d1i[j] = si[j] - si[n - j];
 1538              		.loc 3 700 32 is_stmt 0 discriminator 2 view .LVU418
 1539 0108 93ED007A 		vldr.32	s14, [r3]
 700:./shy_fft.h   ****                     d1i[j] = si[j] - si[n - j];
 1540              		.loc 3 700 36 discriminator 2 view .LVU419
 1541 010c 72ED017A 		vldmdb.32	r2!, {s15}
 1542 0110 77EE877A 		vadd.f32	s15, s15, s14
 700:./shy_fft.h   ****                     d1i[j] = si[j] - si[n - j];
 1543              		.loc 3 700 21 discriminator 2 view .LVU420
 1544 0114 E4EC017A 		vstmia.32	r4!, {s15}
ARM GAS  /tmp/ccDsoCRY.s 			page 66


 701:./shy_fft.h   **** 
 1545              		.loc 3 701 36 discriminator 2 view .LVU421
 1546 0118 30ED017A 		vldmdb.32	r0!, {s14}
 701:./shy_fft.h   **** 
 1547              		.loc 3 701 32 discriminator 2 view .LVU422
 1548 011c D1ED007A 		vldr.32	s15, [r1]
 701:./shy_fft.h   **** 
 1549              		.loc 3 701 36 discriminator 2 view .LVU423
 1550 0120 77EEC77A 		vsub.f32	s15, s15, s14
 701:./shy_fft.h   **** 
 1551              		.loc 3 701 21 discriminator 2 view .LVU424
 1552 0124 E7EC017A 		vstmia.32	r7!, {s15}
 706:./shy_fft.h   **** 
 1553              		.loc 3 706 23 discriminator 2 view .LVU425
 1554 0128 D0ED007A 		vldr.32	s15, [r0]
 705:./shy_fft.h   ****                     T vi = si[j] + si[n - j];
 1555              		.loc 3 705 23 discriminator 2 view .LVU426
 1556 012c F3EC016A 		vldmia.32	r3!, {s13}
 1557 0130 92ED006A 		vldr.32	s12, [r2]
 706:./shy_fft.h   **** 
 1558              		.loc 3 706 23 discriminator 2 view .LVU427
 1559 0134 B1EC017A 		vldmia.32	r1!, {s14}
 1560              	.LBE314:
 698:./shy_fft.h   ****                 {
 1561              		.loc 3 698 37 discriminator 2 view .LVU428
 1562 0138 6345     		cmp	r3, ip
 1563              	.LBB317:
 705:./shy_fft.h   ****                     T vi = si[j] + si[n - j];
 1564              		.loc 3 705 23 discriminator 2 view .LVU429
 1565 013a 76EEC66A 		vsub.f32	s13, s13, s12
 703:./shy_fft.h   ****                     T s  = phasor->sin();
 1566              		.loc 3 703 23 discriminator 2 view .LVU430
 1567 013e DBED125A 		vldr.32	s11, [fp, #72]
 1568              	.LVL120:
 706:./shy_fft.h   **** 
 1569              		.loc 3 706 23 discriminator 2 view .LVU431
 1570 0142 37EE277A 		vadd.f32	s14, s14, s15
 704:./shy_fft.h   ****                     T vr = sr[j] - si[-j];
 1571              		.loc 3 704 23 discriminator 2 view .LVU432
 1572 0146 DBED137A 		vldr.32	s15, [fp, #76]
 1573              	.LVL121:
 708:./shy_fft.h   ****                     d2i[j] = vi * c - vr * s;
 1574              		.loc 3 708 42 discriminator 2 view .LVU433
 1575 014a 27EE276A 		vmul.f32	s12, s14, s15
 709:./shy_fft.h   ****                     phasor->Rotate();
 1576              		.loc 3 709 37 discriminator 2 view .LVU434
 1577 014e 67EEE67A 		vnmul.f32	s15, s15, s13
 1578              	.LVL122:
 708:./shy_fft.h   ****                     d2i[j] = vi * c - vr * s;
 1579              		.loc 3 708 37 discriminator 2 view .LVU435
 1580 0152 A6EEA56A 		vfma.f32	s12, s13, s11
 709:./shy_fft.h   ****                     phasor->Rotate();
 1581              		.loc 3 709 37 discriminator 2 view .LVU436
 1582 0156 E7EE257A 		vfma.f32	s15, s14, s11
 708:./shy_fft.h   ****                     d2i[j] = vi * c - vr * s;
 1583              		.loc 3 708 21 discriminator 2 view .LVU437
 1584 015a A5EC016A 		vstmia.32	r5!, {s12}
ARM GAS  /tmp/ccDsoCRY.s 			page 67


 1585              	.LVL123:
 709:./shy_fft.h   ****                     phasor->Rotate();
 1586              		.loc 3 709 21 discriminator 2 view .LVU438
 1587 015e E6EC017A 		vstmia.32	r6!, {s15}
 1588              	.LVL124:
 1589              	.LBB315:
 1590              	.LBI315:
 254:./shy_fft.h   ****     {
 1591              		.loc 3 254 17 is_stmt 1 discriminator 2 view .LVU439
 1592              	.LBB316:
 256:./shy_fft.h   ****         sin_   = cos_ * imag_ + sin_ * real_;
 1593              		.loc 3 256 33 is_stmt 0 discriminator 2 view .LVU440
 1594 0162 DBED137A 		vldr.32	s15, [fp, #76]
 256:./shy_fft.h   ****         sin_   = cos_ * imag_ + sin_ * real_;
 1595              		.loc 3 256 25 discriminator 2 view .LVU441
 1596 0166 DBED146A 		vldr.32	s13, [fp, #80]
 1597              	.LVL125:
 256:./shy_fft.h   ****         sin_   = cos_ * imag_ + sin_ * real_;
 1598              		.loc 3 256 40 discriminator 2 view .LVU442
 1599 016a DBED155A 		vldr.32	s11, [fp, #84]
 1600              	.LVL126:
 257:./shy_fft.h   ****         cos_   = temp;
 1601              		.loc 3 257 38 discriminator 2 view .LVU443
 1602 016e 26EEA77A 		vmul.f32	s14, s13, s15
 1603              	.LVL127:
 256:./shy_fft.h   ****         sin_   = cos_ * imag_ + sin_ * real_;
 1604              		.loc 3 256 18 discriminator 2 view .LVU444
 1605 0172 9BED126A 		vldr.32	s12, [fp, #72]
 256:./shy_fft.h   ****         sin_   = cos_ * imag_ + sin_ * real_;
 1606              		.loc 3 256 11 discriminator 2 view .LVU445
 1607 0176 65EEE77A 		vnmul.f32	s15, s11, s15
 257:./shy_fft.h   ****         cos_   = temp;
 1608              		.loc 3 257 31 discriminator 2 view .LVU446
 1609 017a A6EE257A 		vfma.f32	s14, s12, s11
 256:./shy_fft.h   ****         sin_   = cos_ * imag_ + sin_ * real_;
 1610              		.loc 3 256 11 discriminator 2 view .LVU447
 1611 017e E6EE267A 		vfma.f32	s15, s12, s13
 1612              	.LVL128:
 257:./shy_fft.h   ****         cos_   = temp;
 1613              		.loc 3 257 9 discriminator 2 view .LVU448
 1614 0182 8BED137A 		vstr.32	s14, [fp, #76]
 258:./shy_fft.h   ****     }
 1615              		.loc 3 258 9 discriminator 2 view .LVU449
 1616 0186 CBED127A 		vstr.32	s15, [fp, #72]
 1617              	.LVL129:
 258:./shy_fft.h   ****     }
 1618              		.loc 3 258 9 discriminator 2 view .LVU450
 1619              	.LBE316:
 1620              	.LBE315:
 1621              	.LBE317:
 698:./shy_fft.h   ****                 {
 1622              		.loc 3 698 17 is_stmt 1 discriminator 2 view .LVU451
 698:./shy_fft.h   ****                 {
 1623              		.loc 3 698 37 discriminator 2 view .LVU452
 1624 018a BDD1     		bne	.L73
 1625              	.LVL130:
 1626              	.L72:
ARM GAS  /tmp/ccDsoCRY.s 			page 68


 698:./shy_fft.h   ****                 {
 1627              		.loc 3 698 37 is_stmt 0 discriminator 2 view .LVU453
 1628              	.LBE313:
 1629              	.LBE320:
 683:./shy_fft.h   ****             {
 1630              		.loc 3 683 13 is_stmt 1 view .LVU454
 1631 018c 049B     		ldr	r3, [sp, #16]
 1632 018e F044     		add	r8, r8, lr
 1633              	.LVL131:
 683:./shy_fft.h   ****             {
 1634              		.loc 3 683 13 is_stmt 0 view .LVU455
 1635 0190 099A     		ldr	r2, [sp, #36]
 1636 0192 F244     		add	r10, r10, lr
 1637 0194 F144     		add	r9, r9, lr
 1638 0196 F444     		add	ip, ip, lr
 1639 0198 1344     		add	r3, r3, r2
 1640 019a 009A     		ldr	r2, [sp]
 1641 019c 7244     		add	r2, r2, lr
 1642 019e 0493     		str	r3, [sp, #16]
 1643              	.LVL132:
 683:./shy_fft.h   ****             {
 1644              		.loc 3 683 33 is_stmt 1 view .LVU456
 1645 01a0 0092     		str	r2, [sp]
 1646              	.LVL133:
 683:./shy_fft.h   ****             {
 1647              		.loc 3 683 33 is_stmt 0 view .LVU457
 1648 01a2 039A     		ldr	r2, [sp, #12]
 1649 01a4 7244     		add	r2, r2, lr
 1650 01a6 0392     		str	r2, [sp, #12]
 1651              	.LVL134:
 683:./shy_fft.h   ****             {
 1652              		.loc 3 683 33 view .LVU458
 1653 01a8 029A     		ldr	r2, [sp, #8]
 1654 01aa 7244     		add	r2, r2, lr
 1655 01ac 0292     		str	r2, [sp, #8]
 1656              	.LVL135:
 683:./shy_fft.h   ****             {
 1657              		.loc 3 683 33 view .LVU459
 1658 01ae 019A     		ldr	r2, [sp, #4]
 1659 01b0 7244     		add	r2, r2, lr
 1660 01b2 0192     		str	r2, [sp, #4]
 1661 01b4 079A     		ldr	r2, [sp, #28]
 1662 01b6 9A42     		cmp	r2, r3
 1663 01b8 3FF667AF 		bhi	.L71
 1664              	.LVL136:
 1665              	.L70:
 683:./shy_fft.h   ****             {
 1666              		.loc 3 683 33 view .LVU460
 1667              	.LBE307:
 715:./shy_fft.h   ****             {
 1668              		.loc 3 715 13 view .LVU461
 1669 01bc 0D9B     		ldr	r3, [sp, #52]
 1670 01be 0C99     		ldr	r1, [sp, #48]
 1671 01c0 8B42     		cmp	r3, r1
 1672 01c2 00F0B680 		beq	.L82
 722:./shy_fft.h   ****                 d = output;
 1673              		.loc 3 722 17 view .LVU462
ARM GAS  /tmp/ccDsoCRY.s 			page 69


 1674 01c6 DDF83880 		ldr	r8, [sp, #56]
 715:./shy_fft.h   ****             {
 1675              		.loc 3 715 13 view .LVU463
 1676 01ca 0C93     		str	r3, [sp, #48]
 1677              	.LVL137:
 1678              	.L68:
 715:./shy_fft.h   ****             {
 1679              		.loc 3 715 13 view .LVU464
 1680              	.LBE306:
 678:./shy_fft.h   ****         {
 1681              		.loc 3 678 9 is_stmt 1 discriminator 2 view .LVU465
 1682 01cc 0B9B     		ldr	r3, [sp, #44]
 1683 01ce 059A     		ldr	r2, [sp, #20]
 1684 01d0 013B     		subs	r3, r3, #1
 1685 01d2 083A     		subs	r2, r2, #8
 678:./shy_fft.h   ****         {
 1686              		.loc 3 678 51 is_stmt 0 discriminator 2 view .LVU466
 1687 01d4 022B     		cmp	r3, #2
 678:./shy_fft.h   ****         {
 1688              		.loc 3 678 9 discriminator 2 view .LVU467
 1689 01d6 0B93     		str	r3, [sp, #44]
 1690              	.LVL138:
 678:./shy_fft.h   ****         {
 1691              		.loc 3 678 51 is_stmt 1 discriminator 2 view .LVU468
 1692 01d8 0592     		str	r2, [sp, #20]
 1693 01da 7FF42AAF 		bne	.L74
 1694 01de 4146     		mov	r1, r8
 1695              	.LBE325:
 728:./shy_fft.h   ****         {
 1696              		.loc 3 728 9 is_stmt 0 view .LVU469
 1697 01e0 DDE90C32 		ldrd	r3, r2, [sp, #48]
 1698              	.LVL139:
 728:./shy_fft.h   ****         {
 1699              		.loc 3 728 9 view .LVU470
 1700 01e4 9342     		cmp	r3, r2
 1701 01e6 00F0A980 		beq	.L66
 1702              	.LVL140:
 1703              	.L75:
 1704              	.LBB326:
 735:./shy_fft.h   ****         {
 1705              		.loc 3 735 29 is_stmt 1 discriminator 3 view .LVU471
 1706 01ea 079B     		ldr	r3, [sp, #28]
 1707 01ec 002B     		cmp	r3, #0
 1708 01ee 00F09D80 		beq	.L65
 1709 01f2 581E     		subs	r0, r3, #1
 1710 01f4 0D9B     		ldr	r3, [sp, #52]
 1711 01f6 0E9A     		ldr	r2, [sp, #56]
 1712 01f8 03F12001 		add	r1, r3, #32
 1713 01fc C008     		lsrs	r0, r0, #3
 1714 01fe 01EB4011 		add	r1, r1, r0, lsl #5
 1715              	.LVL141:
 1716              	.L78:
 1717              	.LBB327:
 738:./shy_fft.h   ****             d[i + 4] = s[i] - s[i + 4];
 1718              		.loc 3 738 29 is_stmt 0 discriminator 2 view .LVU472
 1719 0202 93ED047A 		vldr.32	s14, [r3, #16]
 1720 0206 2033     		adds	r3, r3, #32
ARM GAS  /tmp/ccDsoCRY.s 			page 70


 1721 0208 53ED087A 		vldr.32	s15, [r3, #-32]
 1722 020c 2032     		adds	r2, r2, #32
 746:./shy_fft.h   ****             d[i + 7] = (vi - vr) * math.sqrt_2_div_2();
 1723              		.loc 3 746 34 discriminator 2 view .LVU473
 1724 020e 9FED506A 		vldr.32	s12, .L89
 738:./shy_fft.h   ****             d[i + 4] = s[i] - s[i + 4];
 1725              		.loc 3 738 29 discriminator 2 view .LVU474
 1726 0212 77EE877A 		vadd.f32	s15, s15, s14
 738:./shy_fft.h   ****             d[i + 4] = s[i] - s[i + 4];
 1727              		.loc 3 738 13 discriminator 2 view .LVU475
 1728 0216 42ED087A 		vstr.32	s15, [r2, #-32]
 739:./shy_fft.h   ****             d[i + 2] = s[i + 2] * T(2);
 1729              		.loc 3 739 29 discriminator 2 view .LVU476
 1730 021a 13ED047A 		vldr.32	s14, [r3, #-16]
 1731 021e 53ED087A 		vldr.32	s15, [r3, #-32]
 1732 0222 77EEC77A 		vsub.f32	s15, s15, s14
 739:./shy_fft.h   ****             d[i + 2] = s[i + 2] * T(2);
 1733              		.loc 3 739 13 discriminator 2 view .LVU477
 1734 0226 42ED047A 		vstr.32	s15, [r2, #-16]
 740:./shy_fft.h   ****             d[i + 6] = s[i + 6] * T(2);
 1735              		.loc 3 740 33 discriminator 2 view .LVU478
 1736 022a 53ED067A 		vldr.32	s15, [r3, #-24]
 1737 022e 77EEA77A 		vadd.f32	s15, s15, s15
 740:./shy_fft.h   ****             d[i + 6] = s[i + 6] * T(2);
 1738              		.loc 3 740 13 discriminator 2 view .LVU479
 1739 0232 42ED067A 		vstr.32	s15, [r2, #-24]
 741:./shy_fft.h   ****             d[i + 1] = s[i + 1] + s[i + 3];
 1740              		.loc 3 741 33 discriminator 2 view .LVU480
 1741 0236 53ED027A 		vldr.32	s15, [r3, #-8]
 1742 023a 77EEA77A 		vadd.f32	s15, s15, s15
 741:./shy_fft.h   ****             d[i + 1] = s[i + 1] + s[i + 3];
 1743              		.loc 3 741 13 discriminator 2 view .LVU481
 1744 023e 42ED027A 		vstr.32	s15, [r2, #-8]
 742:./shy_fft.h   ****             d[i + 3] = s[i + 5] - s[i + 7];
 1745              		.loc 3 742 33 discriminator 2 view .LVU482
 1746 0242 13ED057A 		vldr.32	s14, [r3, #-20]
 1747 0246 53ED077A 		vldr.32	s15, [r3, #-28]
 1748 024a 77EE877A 		vadd.f32	s15, s15, s14
 742:./shy_fft.h   ****             d[i + 3] = s[i + 5] - s[i + 7];
 1749              		.loc 3 742 13 discriminator 2 view .LVU483
 1750 024e 42ED077A 		vstr.32	s15, [r2, #-28]
 743:./shy_fft.h   ****             vr       = s[i + 1] - s[i + 3];
 1751              		.loc 3 743 33 discriminator 2 view .LVU484
 1752 0252 13ED017A 		vldr.32	s14, [r3, #-4]
 1753 0256 53ED037A 		vldr.32	s15, [r3, #-12]
 1754 025a 77EEC77A 		vsub.f32	s15, s15, s14
 743:./shy_fft.h   ****             vr       = s[i + 1] - s[i + 3];
 1755              		.loc 3 743 13 discriminator 2 view .LVU485
 1756 025e 42ED057A 		vstr.32	s15, [r2, #-20]
 745:./shy_fft.h   ****             d[i + 5] = (vr + vi) * math.sqrt_2_div_2();
 1757              		.loc 3 745 13 discriminator 2 view .LVU486
 1758 0262 53ED016A 		vldr.32	s13, [r3, #-4]
 744:./shy_fft.h   ****             vi       = s[i + 5] + s[i + 7];
 1759              		.loc 3 744 13 discriminator 2 view .LVU487
 1760 0266 13ED077A 		vldr.32	s14, [r3, #-28]
 1761 026a 53ED055A 		vldr.32	s11, [r3, #-20]
 745:./shy_fft.h   ****             d[i + 5] = (vr + vi) * math.sqrt_2_div_2();
ARM GAS  /tmp/ccDsoCRY.s 			page 71


 1762              		.loc 3 745 13 discriminator 2 view .LVU488
 1763 026e 53ED037A 		vldr.32	s15, [r3, #-12]
 1764              	.LBE327:
 735:./shy_fft.h   ****         {
 1765              		.loc 3 735 29 discriminator 2 view .LVU489
 1766 0272 9942     		cmp	r1, r3
 1767              	.LBB328:
 744:./shy_fft.h   ****             vi       = s[i + 5] + s[i + 7];
 1768              		.loc 3 744 13 discriminator 2 view .LVU490
 1769 0274 37EE657A 		vsub.f32	s14, s14, s11
 1770              	.LVL142:
 745:./shy_fft.h   ****             d[i + 5] = (vr + vi) * math.sqrt_2_div_2();
 1771              		.loc 3 745 13 discriminator 2 view .LVU491
 1772 0278 77EEA67A 		vadd.f32	s15, s15, s13
 1773              	.LVL143:
 745:./shy_fft.h   ****             d[i + 5] = (vr + vi) * math.sqrt_2_div_2();
 1774              		.loc 3 745 13 discriminator 2 view .LVU492
 1775              	.LBE328:
 1776              	.LBE326:
 137:./shy_fft.h   ****     inline float cos(float x) { return cosf(x); }
 1777              		.loc 3 137 41 is_stmt 1 discriminator 2 view .LVU493
 1778              	.LBB331:
 1779              	.LBB329:
 746:./shy_fft.h   ****             d[i + 7] = (vi - vr) * math.sqrt_2_div_2();
 1780              		.loc 3 746 28 is_stmt 0 discriminator 2 view .LVU494
 1781 027c 77EE276A 		vadd.f32	s13, s14, s15
 747:./shy_fft.h   ****         }
 1782              		.loc 3 747 28 discriminator 2 view .LVU495
 1783 0280 77EEC77A 		vsub.f32	s15, s15, s14
 1784              	.LVL144:
 746:./shy_fft.h   ****             d[i + 7] = (vi - vr) * math.sqrt_2_div_2();
 1785              		.loc 3 746 34 discriminator 2 view .LVU496
 1786 0284 26EE867A 		vmul.f32	s14, s13, s12
 1787              	.LVL145:
 747:./shy_fft.h   ****         }
 1788              		.loc 3 747 34 discriminator 2 view .LVU497
 1789 0288 67EE867A 		vmul.f32	s15, s15, s12
 746:./shy_fft.h   ****             d[i + 7] = (vi - vr) * math.sqrt_2_div_2();
 1790              		.loc 3 746 13 discriminator 2 view .LVU498
 1791 028c 02ED037A 		vstr.32	s14, [r2, #-12]
 1792              	.LVL146:
 746:./shy_fft.h   ****             d[i + 7] = (vi - vr) * math.sqrt_2_div_2();
 1793              		.loc 3 746 13 discriminator 2 view .LVU499
 1794              	.LBE329:
 1795              	.LBE331:
 137:./shy_fft.h   ****     inline float cos(float x) { return cosf(x); }
 1796              		.loc 3 137 41 is_stmt 1 discriminator 2 view .LVU500
 1797              	.LBB332:
 1798              	.LBB330:
 747:./shy_fft.h   ****         }
 1799              		.loc 3 747 13 is_stmt 0 discriminator 2 view .LVU501
 1800 0290 42ED017A 		vstr.32	s15, [r2, #-4]
 1801              	.LBE330:
 735:./shy_fft.h   ****         {
 1802              		.loc 3 735 9 is_stmt 1 discriminator 2 view .LVU502
 735:./shy_fft.h   ****         {
 1803              		.loc 3 735 29 discriminator 2 view .LVU503
ARM GAS  /tmp/ccDsoCRY.s 			page 72


 1804 0294 B5D1     		bne	.L78
 1805              	.LBE332:
 1806              	.LBB333:
 1807              	.LBB334:
 757:./shy_fft.h   ****             size_t r2 = r0 + 1 * (rt_size >> 2);
 1808              		.loc 3 757 43 is_stmt 0 view .LVU504
 1809 0296 079B     		ldr	r3, [sp, #28]
 757:./shy_fft.h   ****             size_t r2 = r0 + 1 * (rt_size >> 2);
 1810              		.loc 3 757 32 view .LVU505
 1811 0298 0021     		movs	r1, #0
 1812 029a 1B9A     		ldr	r2, [sp, #108]
 757:./shy_fft.h   ****             size_t r2 = r0 + 1 * (rt_size >> 2);
 1813              		.loc 3 757 43 view .LVU506
 1814 029c 9C08     		lsrs	r4, r3, #2
 757:./shy_fft.h   ****             size_t r2 = r0 + 1 * (rt_size >> 2);
 1815              		.loc 3 757 32 view .LVU507
 1816 029e 9E46     		mov	lr, r3
 1817 02a0 C2F11005 		rsb	r5, r2, #16
 1818 02a4 0E9A     		ldr	r2, [sp, #56]
 1819 02a6 6600     		lsls	r6, r4, #1
 1820 02a8 0D9F     		ldr	r7, [sp, #52]
 1821 02aa 1032     		adds	r2, r2, #16
 1822 02ac DDF83CC0 		ldr	ip, [sp, #60]
 1823              	.L80:
 1824              	.LVL147:
 761:./shy_fft.h   ****             T b_2 = s[0] - s[2];
 1825              		.loc 3 761 29 discriminator 2 view .LVU508
 1826 02b0 12ED026A 		vldr.32	s12, [r2, #-8]
 755:./shy_fft.h   ****                         >> (16 - rt_num_passes);
 1827              		.loc 3 755 37 discriminator 2 view .LVU509
 1828 02b4 C8B2     		uxtb	r0, r1
 761:./shy_fft.h   ****             T b_2 = s[0] - s[2];
 1829              		.loc 3 761 22 discriminator 2 view .LVU510
 1830 02b6 52ED047A 		vldr.32	s15, [r2, #-16]
 755:./shy_fft.h   ****                         >> (16 - rt_num_passes);
 1831              		.loc 3 755 63 discriminator 2 view .LVU511
 1832 02ba 0B0A     		lsrs	r3, r1, #8
 755:./shy_fft.h   ****                         >> (16 - rt_num_passes);
 1833              		.loc 3 755 45 discriminator 2 view .LVU512
 1834 02bc 1CF80000 		ldrb	r0, [ip, r0]	@ zero_extendqisi2
 766:./shy_fft.h   ****             d[r1] = b_0 - b_1;
 1835              		.loc 3 766 25 discriminator 2 view .LVU513
 1836 02c0 F0EE006A 		vmov.f32	s13, #2.0e+0
 761:./shy_fft.h   ****             T b_2 = s[0] - s[2];
 1837              		.loc 3 761 15 discriminator 2 view .LVU514
 1838 02c4 37EE867A 		vadd.f32	s14, s15, s12
 755:./shy_fft.h   ****                         >> (16 - rt_num_passes);
 1839              		.loc 3 755 51 discriminator 2 view .LVU515
 1840 02c8 1CF80330 		ldrb	r3, [ip, r3]	@ zero_extendqisi2
 762:./shy_fft.h   ****             T b_1 = s[1] * T(2);
 1841              		.loc 3 762 15 discriminator 2 view .LVU516
 1842 02cc 77EEC67A 		vsub.f32	s15, s15, s12
 763:./shy_fft.h   ****             T b_3 = s[3] * T(2);
 1843              		.loc 3 763 22 discriminator 2 view .LVU517
 1844 02d0 52ED035A 		vldr.32	s11, [r2, #-12]
 755:./shy_fft.h   ****                         >> (16 - rt_num_passes);
 1845              		.loc 3 755 51 discriminator 2 view .LVU518
ARM GAS  /tmp/ccDsoCRY.s 			page 73


 1846 02d4 43EA0023 		orr	r3, r3, r0, lsl #8
 764:./shy_fft.h   **** 
 1847              		.loc 3 764 22 discriminator 2 view .LVU519
 1848 02d8 12ED016A 		vldr.32	s12, [r2, #-4]
 766:./shy_fft.h   ****             d[r1] = b_0 - b_1;
 1849              		.loc 3 766 25 discriminator 2 view .LVU520
 1850 02dc B0EE475A 		vmov.f32	s10, s14
 1851              	.LBE334:
 753:./shy_fft.h   ****         {
 1852              		.loc 3 753 9 discriminator 2 view .LVU521
 1853 02e0 0431     		adds	r1, r1, #4
 1854              	.LVL148:
 1855              	.LBB335:
 767:./shy_fft.h   ****             d[r2] = b_2 + b_3;
 1856              		.loc 3 767 25 discriminator 2 view .LVU522
 1857 02e2 A5EEE67A 		vfms.f32	s14, s11, s13
 756:./shy_fft.h   ****             size_t r1 = r0 + 2 * (rt_size >> 2);
 1858              		.loc 3 756 25 discriminator 2 view .LVU523
 1859 02e6 2B41     		asrs	r3, r3, r5
 1860              	.LVL149:
 756:./shy_fft.h   ****             size_t r1 = r0 + 2 * (rt_size >> 2);
 1861              		.loc 3 756 25 discriminator 2 view .LVU524
 1862              	.LBE335:
 753:./shy_fft.h   ****         {
 1863              		.loc 3 753 29 discriminator 2 view .LVU525
 1864 02e8 8E45     		cmp	lr, r1
 1865 02ea 02F11002 		add	r2, r2, #16
 1866              	.LVL150:
 1867              	.LBB336:
 766:./shy_fft.h   ****             d[r1] = b_0 - b_1;
 1868              		.loc 3 766 25 discriminator 2 view .LVU526
 1869 02ee A5EEA65A 		vfma.f32	s10, s11, s13
 757:./shy_fft.h   ****             size_t r2 = r0 + 1 * (rt_size >> 2);
 1870              		.loc 3 757 20 discriminator 2 view .LVU527
 1871 02f2 06EB0300 		add	r0, r6, r3
 1872              	.LVL151:
 768:./shy_fft.h   ****             d[r3] = b_2 - b_3;
 1873              		.loc 3 768 25 discriminator 2 view .LVU528
 1874 02f6 F0EE675A 		vmov.f32	s11, s15
 758:./shy_fft.h   ****             size_t r3 = r0 + 3 * (rt_size >> 2);
 1875              		.loc 3 758 20 discriminator 2 view .LVU529
 1876 02fa 04EB0309 		add	r9, r4, r3
 1877              	.LVL152:
 769:./shy_fft.h   ****             s += 4;
 1878              		.loc 3 769 25 discriminator 2 view .LVU530
 1879 02fe E6EE667A 		vfms.f32	s15, s12, s13
 766:./shy_fft.h   ****             d[r1] = b_0 - b_1;
 1880              		.loc 3 766 14 discriminator 2 view .LVU531
 1881 0302 07EB8303 		add	r3, r7, r3, lsl #2
 1882              	.LVL153:
 759:./shy_fft.h   **** 
 1883              		.loc 3 759 20 discriminator 2 view .LVU532
 1884 0306 04EB0008 		add	r8, r4, r0
 1885              	.LVL154:
 768:./shy_fft.h   ****             d[r3] = b_2 - b_3;
 1886              		.loc 3 768 14 discriminator 2 view .LVU533
 1887 030a 07EB8909 		add	r9, r7, r9, lsl #2
ARM GAS  /tmp/ccDsoCRY.s 			page 74


 1888              	.LVL155:
 768:./shy_fft.h   ****             d[r3] = b_2 - b_3;
 1889              		.loc 3 768 25 discriminator 2 view .LVU534
 1890 030e E6EE265A 		vfma.f32	s11, s12, s13
 1891              	.LVL156:
 767:./shy_fft.h   ****             d[r2] = b_2 + b_3;
 1892              		.loc 3 767 14 discriminator 2 view .LVU535
 1893 0312 07EB8000 		add	r0, r7, r0, lsl #2
 1894              	.LVL157:
 766:./shy_fft.h   ****             d[r1] = b_0 - b_1;
 1895              		.loc 3 766 13 discriminator 2 view .LVU536
 1896 0316 83ED005A 		vstr.32	s10, [r3]
 1897              	.LVL158:
 769:./shy_fft.h   ****             s += 4;
 1898              		.loc 3 769 14 discriminator 2 view .LVU537
 1899 031a 07EB8803 		add	r3, r7, r8, lsl #2
 767:./shy_fft.h   ****             d[r2] = b_2 + b_3;
 1900              		.loc 3 767 13 discriminator 2 view .LVU538
 1901 031e 80ED007A 		vstr.32	s14, [r0]
 768:./shy_fft.h   ****             d[r3] = b_2 - b_3;
 1902              		.loc 3 768 13 discriminator 2 view .LVU539
 1903 0322 C9ED005A 		vstr.32	s11, [r9]
 769:./shy_fft.h   ****             s += 4;
 1904              		.loc 3 769 13 discriminator 2 view .LVU540
 1905 0326 C3ED007A 		vstr.32	s15, [r3]
 1906              	.LVL159:
 769:./shy_fft.h   ****             s += 4;
 1907              		.loc 3 769 13 discriminator 2 view .LVU541
 1908              	.LBE336:
 753:./shy_fft.h   ****         {
 1909              		.loc 3 753 9 is_stmt 1 discriminator 2 view .LVU542
 753:./shy_fft.h   ****         {
 1910              		.loc 3 753 29 discriminator 2 view .LVU543
 1911 032a C1D8     		bhi	.L80
 1912              	.LVL160:
 1913              	.L65:
 753:./shy_fft.h   ****         {
 1914              		.loc 3 753 29 is_stmt 0 discriminator 2 view .LVU544
 1915              	.LBE333:
 772:./shy_fft.h   **** };
 1916              		.loc 3 772 5 view .LVU545
 1917 032c 11B0     		add	sp, sp, #68
 1918              		.cfi_remember_state
 1919              		.cfi_def_cfa_offset 36
 1920              		@ sp needed
 1921 032e BDE8F08F 		pop	{r4, r5, r6, r7, r8, r9, r10, fp, pc}
 1922              	.LVL161:
 1923              	.L82:
 1924              		.cfi_restore_state
 1925              	.LBB337:
 1926              	.LBB321:
 718:./shy_fft.h   ****             }
 1927              		.loc 3 718 17 view .LVU546
 1928 0332 DDE90D83 		ldrd	r8, r3, [sp, #52]
 1929 0336 0C93     		str	r3, [sp, #48]
 1930              	.LVL162:
 718:./shy_fft.h   ****             }
ARM GAS  /tmp/ccDsoCRY.s 			page 75


 1931              		.loc 3 718 17 view .LVU547
 1932 0338 48E7     		b	.L68
 1933              	.LVL163:
 1934              	.L81:
 718:./shy_fft.h   ****             }
 1935              		.loc 3 718 17 view .LVU548
 1936              	.LBE321:
 1937              	.LBE337:
 671:./shy_fft.h   ****         T*      d = output;
 1938              		.loc 3 671 17 view .LVU549
 1939 033a 0E99     		ldr	r1, [sp, #56]
 1940              	.LVL164:
 1941              	.L66:
 730:./shy_fft.h   ****         }
 1942              		.loc 3 730 32 view .LVU550
 1943 033c 0422     		movs	r2, #4
 1944              	.LVL165:
 1945              	.LBB338:
 1946              	.LBI338:
 465:/usr/include/newlib/c++/9.2.1/bits/stl_algobase.h ****     {
 1947              		.loc 2 465 5 is_stmt 1 view .LVU551
 1948              	.LBB339:
 1949              	.LBI339:
 438:/usr/include/newlib/c++/9.2.1/bits/stl_algobase.h ****     {
 1950              		.loc 2 438 5 view .LVU552
 1951              	.LBB340:
 1952              	.LBI340:
 393:/usr/include/newlib/c++/9.2.1/bits/stl_algobase.h ****     {
 1953              		.loc 2 393 5 view .LVU553
 1954              	.LBB341:
 1955              	.LBB342:
 1956              	.LBI342:
 375:/usr/include/newlib/c++/9.2.1/bits/stl_algobase.h **** 	{
 1957              		.loc 2 375 2 view .LVU554
 1958              	.LBB343:
 385:/usr/include/newlib/c++/9.2.1/bits/stl_algobase.h **** 	    __builtin_memmove(__result, __first, sizeof(_Tp) * _Num);
 1959              		.loc 2 385 4 is_stmt 0 view .LVU555
 1960 033e 1B9B     		ldr	r3, [sp, #108]
 1961 0340 9A40     		lsls	r2, r2, r3
 1962              	.LVL166:
 385:/usr/include/newlib/c++/9.2.1/bits/stl_algobase.h **** 	    __builtin_memmove(__result, __first, sizeof(_Tp) * _Num);
 1963              		.loc 2 385 4 view .LVU556
 1964 0342 3FF452AF 		beq	.L75
 386:/usr/include/newlib/c++/9.2.1/bits/stl_algobase.h **** 	  return __result + _Num;
 1965              		.loc 2 386 23 view .LVU557
 1966 0346 0D98     		ldr	r0, [sp, #52]
 1967 0348 FFF7FEFF 		bl	memmove
 1968              	.LVL167:
 386:/usr/include/newlib/c++/9.2.1/bits/stl_algobase.h **** 	  return __result + _Num;
 1969              		.loc 2 386 23 view .LVU558
 1970 034c 4DE7     		b	.L75
 1971              	.L90:
 1972 034e 00BF     		.align	2
 1973              	.L89:
 1974 0350 F304353F 		.word	1060439283
 1975              	.LBE343:
 1976              	.LBE342:
ARM GAS  /tmp/ccDsoCRY.s 			page 76


 1977              	.LBE341:
 1978              	.LBE340:
 1979              	.LBE339:
 1980              	.LBE338:
 1981              		.cfi_endproc
 1982              	.LFE4719:
 1984              		.section	.text._ZN4STFT6BufferEv,"ax",%progbits
 1985              		.align	1
 1986              		.p2align 2,,3
 1987              		.global	_ZN4STFT6BufferEv
 1988              		.syntax unified
 1989              		.thumb
 1990              		.thumb_func
 1991              		.fpu fpv5-d16
 1993              	_ZN4STFT6BufferEv:
 1994              	.LVL168:
 1995              	.LFB4291:
 122:dsp/pvoc/stft.cpp **** 
 123:dsp/pvoc/stft.cpp **** void STFT::Buffer()
 124:dsp/pvoc/stft.cpp **** {
 1996              		.loc 1 124 1 is_stmt 1 view -0
 1997              		.cfi_startproc
 1998              		@ args = 0, pretend = 0, frame = 88
 1999              		@ frame_needed = 0, uses_anonymous_args = 0
 125:dsp/pvoc/stft.cpp ****     if(ready_ == done_)
 2000              		.loc 1 125 5 view .LVU560
 2001 0000 026C     		ldr	r2, [r0, #64]
 2002 0002 436C     		ldr	r3, [r0, #68]
 124:dsp/pvoc/stft.cpp ****     if(ready_ == done_)
 2003              		.loc 1 124 1 is_stmt 0 view .LVU561
 2004 0004 2DE9F04F 		push	{r4, r5, r6, r7, r8, r9, r10, fp, lr}
 2005              		.cfi_def_cfa_offset 36
 2006              		.cfi_offset 4, -36
 2007              		.cfi_offset 5, -32
 2008              		.cfi_offset 6, -28
 2009              		.cfi_offset 7, -24
 2010              		.cfi_offset 8, -20
 2011              		.cfi_offset 9, -16
 2012              		.cfi_offset 10, -12
 2013              		.cfi_offset 11, -8
 2014              		.cfi_offset 14, -4
 2015              		.loc 1 125 5 view .LVU562
 2016 0008 9A42     		cmp	r2, r3
 124:dsp/pvoc/stft.cpp ****     if(ready_ == done_)
 2017              		.loc 1 124 1 view .LVU563
 2018 000a 99B0     		sub	sp, sp, #100
 2019              		.cfi_def_cfa_offset 136
 124:dsp/pvoc/stft.cpp ****     if(ready_ == done_)
 2020              		.loc 1 124 1 view .LVU564
 2021 000c 1290     		str	r0, [sp, #72]
 2022              		.loc 1 125 5 view .LVU565
 2023 000e 00F0A880 		beq	.L91
 126:dsp/pvoc/stft.cpp ****     {
 127:dsp/pvoc/stft.cpp ****         return;
 128:dsp/pvoc/stft.cpp ****     }
 129:dsp/pvoc/stft.cpp **** 
 130:dsp/pvoc/stft.cpp ****     // Copy block to FFT buffer and apply window.
ARM GAS  /tmp/ccDsoCRY.s 			page 77


 131:dsp/pvoc/stft.cpp ****     size_t       source_ptr = process_ptr_;
 2024              		.loc 1 131 5 is_stmt 1 view .LVU566
 2025              	.LBB409:
 132:dsp/pvoc/stft.cpp ****     const float* w          = window_;
 133:dsp/pvoc/stft.cpp ****     for(size_t i = 0; i < fft_size_; ++i)
 2026              		.loc 1 133 27 is_stmt 0 view .LVU567
 2027 0012 D0F804C0 		ldr	ip, [r0, #4]
 2028              	.LBE409:
 131:dsp/pvoc/stft.cpp ****     const float* w          = window_;
 2029              		.loc 1 131 18 view .LVU568
 2030 0016 836B     		ldr	r3, [r0, #56]
 2031              	.LVL169:
 132:dsp/pvoc/stft.cpp ****     const float* w          = window_;
 2032              		.loc 1 132 5 is_stmt 1 view .LVU569
 132:dsp/pvoc/stft.cpp ****     const float* w          = window_;
 2033              		.loc 1 132 18 is_stmt 0 view .LVU570
 2034 0018 416A     		ldr	r1, [r0, #36]
 2035              	.LVL170:
 2036              		.loc 1 133 5 is_stmt 1 view .LVU571
 2037              	.LBB410:
 2038              		.loc 1 133 25 view .LVU572
 2039 001a BCF1000F 		cmp	ip, #0
 2040 001e 00F0BB83 		beq	.L156
 134:dsp/pvoc/stft.cpp ****     {
 135:dsp/pvoc/stft.cpp ****         fft_in_[i] = w[0] * analysis_[source_ptr];
 2041              		.loc 1 135 9 is_stmt 0 view .LVU573
 2042 0022 129C     		ldr	r4, [sp, #72]
 2043 0024 D4F81490 		ldr	r9, [r4, #20]
 136:dsp/pvoc/stft.cpp ****         ++source_ptr;
 137:dsp/pvoc/stft.cpp ****         if(source_ptr >= buffer_size_)
 138:dsp/pvoc/stft.cpp ****         {
 139:dsp/pvoc/stft.cpp ****             source_ptr -= buffer_size_;
 140:dsp/pvoc/stft.cpp ****         }
 141:dsp/pvoc/stft.cpp ****         w += window_stride_;
 2044              		.loc 1 141 11 view .LVU574
 2045 0028 A56A     		ldr	r5, [r4, #40]
 135:dsp/pvoc/stft.cpp ****         ++source_ptr;
 2046              		.loc 1 135 29 view .LVU575
 2047 002a E66A     		ldr	r6, [r4, #44]
 2048 002c 4A46     		mov	r2, r9
 2049 002e 09EB8C07 		add	r7, r9, ip, lsl #2
 2050              		.loc 1 141 11 view .LVU576
 2051 0032 4846     		mov	r0, r9
 2052              	.LVL171:
 2053              		.loc 1 141 11 view .LVU577
 2054 0034 AD00     		lsls	r5, r5, #2
 137:dsp/pvoc/stft.cpp ****         {
 2055              		.loc 1 137 26 view .LVU578
 2056 0036 2469     		ldr	r4, [r4, #16]
 2057              	.LVL172:
 2058              	.L97:
 135:dsp/pvoc/stft.cpp ****         ++source_ptr;
 2059              		.loc 1 135 9 is_stmt 1 view .LVU579
 139:dsp/pvoc/stft.cpp ****         }
 2060              		.loc 1 139 13 view .LVU580
 135:dsp/pvoc/stft.cpp ****         ++source_ptr;
 2061              		.loc 1 135 27 is_stmt 0 view .LVU581
ARM GAS  /tmp/ccDsoCRY.s 			page 78


 2062 0038 36F913E0 		ldrsh	lr, [r6, r3, lsl #1]
 136:dsp/pvoc/stft.cpp ****         if(source_ptr >= buffer_size_)
 2063              		.loc 1 136 9 view .LVU582
 2064 003c 0133     		adds	r3, r3, #1
 2065              	.LVL173:
 135:dsp/pvoc/stft.cpp ****         ++source_ptr;
 2066              		.loc 1 135 27 view .LVU583
 2067 003e 91ED007A 		vldr.32	s14, [r1]
 2068              		.loc 1 141 11 view .LVU584
 2069 0042 2944     		add	r1, r1, r5
 2070              	.LVL174:
 135:dsp/pvoc/stft.cpp ****         ++source_ptr;
 2071              		.loc 1 135 27 view .LVU585
 2072 0044 07EE90EA 		vmov	s15, lr	@ int
 137:dsp/pvoc/stft.cpp ****         {
 2073              		.loc 1 137 9 view .LVU586
 2074 0048 9C42     		cmp	r4, r3
 135:dsp/pvoc/stft.cpp ****         ++source_ptr;
 2075              		.loc 1 135 27 view .LVU587
 2076 004a F8EEE77A 		vcvt.f32.s32	s15, s15
 139:dsp/pvoc/stft.cpp ****         }
 2077              		.loc 1 139 24 view .LVU588
 2078 004e 98BF     		it	ls
 2079 0050 1B1B     		subls	r3, r3, r4
 2080              	.LVL175:
 135:dsp/pvoc/stft.cpp ****         ++source_ptr;
 2081              		.loc 1 135 27 view .LVU589
 2082 0052 67EE877A 		vmul.f32	s15, s15, s14
 135:dsp/pvoc/stft.cpp ****         ++source_ptr;
 2083              		.loc 1 135 20 view .LVU590
 2084 0056 E0EC017A 		vstmia.32	r0!, {s15}
 136:dsp/pvoc/stft.cpp ****         if(source_ptr >= buffer_size_)
 2085              		.loc 1 136 9 is_stmt 1 view .LVU591
 137:dsp/pvoc/stft.cpp ****         {
 2086              		.loc 1 137 9 view .LVU592
 2087              	.LVL176:
 2088              		.loc 1 141 9 view .LVU593
 133:dsp/pvoc/stft.cpp ****     {
 2089              		.loc 1 133 5 view .LVU594
 133:dsp/pvoc/stft.cpp ****     {
 2090              		.loc 1 133 25 view .LVU595
 2091 005a 8742     		cmp	r7, r0
 2092 005c ECD1     		bne	.L97
 2093              	.LBE410:
 142:dsp/pvoc/stft.cpp ****     }
 143:dsp/pvoc/stft.cpp **** 
 144:dsp/pvoc/stft.cpp ****     // Compute FFT. fft_in is lost.
 145:dsp/pvoc/stft.cpp **** #ifdef USE_ARM_FFT
 146:dsp/pvoc/stft.cpp ****     arm_rfft_fast_f32(fft_, fft_in_, fft_out_, 0);
 147:dsp/pvoc/stft.cpp ****     copy(&fft_out_[0], &fft_out_[fft_size_], &fft_in_[0]);
 148:dsp/pvoc/stft.cpp ****     // Re-arrange data.
 149:dsp/pvoc/stft.cpp ****     for(size_t i = 0; i < fft_size_ / 2; ++i)
 150:dsp/pvoc/stft.cpp ****     {
 151:dsp/pvoc/stft.cpp ****         fft_out_[i]                 = fft_in_[2 * i];
 152:dsp/pvoc/stft.cpp ****         fft_out_[i + fft_size_ / 2] = fft_in_[2 * i + 1];
 153:dsp/pvoc/stft.cpp ****     }
 154:dsp/pvoc/stft.cpp **** #else
ARM GAS  /tmp/ccDsoCRY.s 			page 79


 155:dsp/pvoc/stft.cpp ****     if(fft_size_ != FFT::max_size)
 2094              		.loc 1 155 5 view .LVU596
 2095 005e BCF5805F 		cmp	ip, #4096
 2096 0062 00F08180 		beq	.L98
 2097              	.L95:
 156:dsp/pvoc/stft.cpp ****     {
 157:dsp/pvoc/stft.cpp ****         fft_->Direct(fft_in_, fft_out_, fft_num_passes_);
 2098              		.loc 1 157 9 view .LVU597
 2099              	.LVL177:
 2100              	.LBB411:
 2101              	.LBI411:
 833:./shy_fft.h   ****         {
 834:./shy_fft.h   ****             uint8_t byte        = 0;
 835:./shy_fft.h   ****             uint8_t source      = i << 2;
 836:./shy_fft.h   ****             uint8_t destination = static_cast<uint8_t>(size >> 1);
 837:./shy_fft.h   ****             while(source)
 838:./shy_fft.h   ****             {
 839:./shy_fft.h   ****                 if(source & 1)
 840:./shy_fft.h   ****                 {
 841:./shy_fft.h   ****                     byte |= destination;
 842:./shy_fft.h   ****                 }
 843:./shy_fft.h   ****                 destination >>= 1;
 844:./shy_fft.h   ****                 source >>= 1;
 845:./shy_fft.h   ****             }
 846:./shy_fft.h   ****             bit_rev_[i] = byte;
 847:./shy_fft.h   ****         }
 848:./shy_fft.h   ****         phasor_.Init();
 849:./shy_fft.h   ****     }
 850:./shy_fft.h   **** 
 851:./shy_fft.h   ****     void Direct(T* input, T* output)
 852:./shy_fft.h   ****     {
 853:./shy_fft.h   ****         DirectTransform<T, num_passes, Phasor<T, num_passes>> d;
 854:./shy_fft.h   ****         d(input,
 855:./shy_fft.h   ****           output,
 856:./shy_fft.h   ****           num_passes <= 8 ? &bit_rev_[0] : bit_rev_256_lut_,
 857:./shy_fft.h   ****           &phasor_);
 858:./shy_fft.h   ****     }
 859:./shy_fft.h   **** 
 860:./shy_fft.h   ****     void Inverse(T* input, T* output)
 861:./shy_fft.h   ****     {
 862:./shy_fft.h   ****         InverseTransform<T, num_passes, Phasor<T, num_passes>> i;
 863:./shy_fft.h   ****         i(input,
 864:./shy_fft.h   ****           output,
 865:./shy_fft.h   ****           num_passes <= 8 ? &bit_rev_[0] : bit_rev_256_lut_,
 866:./shy_fft.h   ****           &phasor_);
 867:./shy_fft.h   ****     }
 868:./shy_fft.h   **** 
 869:./shy_fft.h   ****     void Direct(T* input, T* output, size_t n)
 2102              		.loc 3 869 10 view .LVU598
 2103              	.LBB412:
 870:./shy_fft.h   ****     {
 871:./shy_fft.h   ****         DirectTransform<T, num_passes, Phasor<T, num_passes>> d;
 872:./shy_fft.h   ****         d(input, output, bit_rev_256_lut_, &phasor_, n);
 2104              		.loc 3 872 10 is_stmt 0 view .LVU599
 2105 0066 129C     		ldr	r4, [sp, #72]
 2106 0068 4946     		mov	r1, r9
 2107              	.LVL178:
ARM GAS  /tmp/ccDsoCRY.s 			page 80


 2108              		.loc 3 872 10 view .LVU600
 2109 006a 17A8     		add	r0, sp, #92
 2110 006c A268     		ldr	r2, [r4, #8]
 2111 006e 2368     		ldr	r3, [r4]
 2112              	.LVL179:
 2113              		.loc 3 872 10 view .LVU601
 2114 0070 CDE90032 		strd	r3, r2, [sp]
 2115              	.LVL180:
 2116              		.loc 3 872 10 view .LVU602
 2117 0074 424B     		ldr	r3, .L162
 2118              	.LVL181:
 2119              		.loc 3 872 10 view .LVU603
 2120 0076 A269     		ldr	r2, [r4, #24]
 2121              	.LVL182:
 2122              		.loc 3 872 10 view .LVU604
 2123 0078 FFF7FEFF 		bl	_ZN15DirectTransformIfLj12E14RotationPhasorIfLj12EEEclEPfS3_PKhPS1_j
 2124              	.LVL183:
 2125              		.loc 3 872 10 view .LVU605
 2126 007c A369     		ldr	r3, [r4, #24]
 2127 007e 0B93     		str	r3, [sp, #44]
 2128              	.L99:
 2129              		.loc 3 872 10 view .LVU606
 2130              	.LBE412:
 2131              	.LBE411:
 158:dsp/pvoc/stft.cpp ****     }
 159:dsp/pvoc/stft.cpp ****     else
 160:dsp/pvoc/stft.cpp ****     {
 161:dsp/pvoc/stft.cpp ****         fft_->Direct(fft_in_, fft_out_);
 162:dsp/pvoc/stft.cpp ****     }
 163:dsp/pvoc/stft.cpp **** #endif // USE_ARM_FFT
 164:dsp/pvoc/stft.cpp ****     // Process in the frequency domain.
 165:dsp/pvoc/stft.cpp ****     if(modifier_ != NULL && parameters_ != NULL)
 2132              		.loc 1 165 5 is_stmt 1 view .LVU607
 2133              		.loc 1 165 8 is_stmt 0 view .LVU608
 2134 0080 129B     		ldr	r3, [sp, #72]
 2135 0082 D86C     		ldr	r0, [r3, #76]
 2136              		.loc 1 165 5 view .LVU609
 2137 0084 0028     		cmp	r0, #0
 2138 0086 00F0DD81 		beq	.L107
 2139              	.L127:
 2140              		.loc 1 165 29 discriminator 1 view .LVU610
 2141 008a 129C     		ldr	r4, [sp, #72]
 2142 008c A16C     		ldr	r1, [r4, #72]
 2143              		.loc 1 165 26 discriminator 1 view .LVU611
 2144 008e 0029     		cmp	r1, #0
 2145 0090 00F0D881 		beq	.L107
 166:dsp/pvoc/stft.cpp ****     {
 167:dsp/pvoc/stft.cpp ****         modifier_->Process(*parameters_, &fft_out_[0], &ifft_in_[0]);
 2146              		.loc 1 167 9 is_stmt 1 view .LVU612
 2147              		.loc 1 167 27 is_stmt 0 view .LVU613
 2148 0094 0B9A     		ldr	r2, [sp, #44]
 2149 0096 236A     		ldr	r3, [r4, #32]
 2150 0098 FFF7FEFF 		bl	_ZN19FrameTransformation7ProcessERK10ParametersPfS3_
 2151              	.LVL184:
 2152 009c 6268     		ldr	r2, [r4, #4]
 2153 009e 236A     		ldr	r3, [r4, #32]
 2154 00a0 1392     		str	r2, [sp, #76]
ARM GAS  /tmp/ccDsoCRY.s 			page 81


 2155 00a2 1193     		str	r3, [sp, #68]
 2156              	.L108:
 168:dsp/pvoc/stft.cpp ****     }
 169:dsp/pvoc/stft.cpp ****     else
 170:dsp/pvoc/stft.cpp ****     {
 171:dsp/pvoc/stft.cpp ****         copy(&fft_out_[0], &fft_out_[fft_size_], &ifft_in_[0]);
 172:dsp/pvoc/stft.cpp ****     }
 173:dsp/pvoc/stft.cpp **** 
 174:dsp/pvoc/stft.cpp ****     // Compute IFFT. ifft_in is lost.
 175:dsp/pvoc/stft.cpp **** #ifdef USE_ARM_FFT
 176:dsp/pvoc/stft.cpp ****     // Re-arrange data.
 177:dsp/pvoc/stft.cpp ****     copy(&ifft_in_[0], &ifft_in_[fft_size_], &ifft_out_[0]);
 178:dsp/pvoc/stft.cpp ****     for(size_t i = 0; i < fft_size_ / 2; ++i)
 179:dsp/pvoc/stft.cpp ****     {
 180:dsp/pvoc/stft.cpp ****         ifft_in_[2 * i]     = ifft_out_[i];
 181:dsp/pvoc/stft.cpp ****         ifft_in_[2 * i + 1] = ifft_out_[i + fft_size_ / 2];
 182:dsp/pvoc/stft.cpp ****     }
 183:dsp/pvoc/stft.cpp ****     arm_rfft_fast_f32(fft_, ifft_in_, ifft_out_, 1);
 184:dsp/pvoc/stft.cpp **** #else
 185:dsp/pvoc/stft.cpp ****     if(fft_size_ != FFT::max_size)
 2157              		.loc 1 185 5 is_stmt 1 view .LVU614
 2158 00a4 139B     		ldr	r3, [sp, #76]
 2159 00a6 B3F5805F 		cmp	r3, #4096
 2160 00aa 00F0E181 		beq	.L109
 2161              	.L159:
 186:dsp/pvoc/stft.cpp ****     {
 187:dsp/pvoc/stft.cpp ****         fft_->Inverse(ifft_in_, ifft_out_, fft_num_passes_);
 2162              		.loc 1 187 9 view .LVU615
 2163              	.LVL185:
 2164              	.LBB413:
 2165              	.LBI413:
 873:./shy_fft.h   ****     }
 874:./shy_fft.h   **** 
 875:./shy_fft.h   ****     void Inverse(T* input, T* output, size_t n)
 2166              		.loc 3 875 10 view .LVU616
 2167              	.LBB414:
 876:./shy_fft.h   ****     {
 877:./shy_fft.h   ****         InverseTransform<T, num_passes, Phasor<T, num_passes>> i;
