ARM GAS  /tmp/ccGydHEK.s 			page 1


   1              		.cpu cortex-m7
   2              		.eabi_attribute 28, 1
   3              		.eabi_attribute 20, 1
   4              		.eabi_attribute 21, 1
   5              		.eabi_attribute 23, 3
   6              		.eabi_attribute 24, 1
   7              		.eabi_attribute 25, 1
   8              		.eabi_attribute 26, 1
   9              		.eabi_attribute 30, 2
  10              		.eabi_attribute 34, 1
  11              		.eabi_attribute 18, 4
  12              		.file	"USB_CDC.cpp"
  13              		.text
  14              	.Ltext0:
  15              		.cfi_sections	.debug_frame
  16              		.section	.text._ZN5daisy9DaisySeedD2Ev,"axG",%progbits,_ZN5daisy9DaisySeedD5Ev,comdat
  17              		.align	1
  18              		.p2align 2,,3
  19              		.weak	_ZN5daisy9DaisySeedD2Ev
  20              		.arch armv7e-m
  21              		.syntax unified
  22              		.thumb
  23              		.thumb_func
  24              		.fpu fpv5-d16
  26              	_ZN5daisy9DaisySeedD2Ev:
  27              	.LVL0:
  28              	.LFB2037:
  29              		.file 1 "../../libdaisy/src/daisy_seed.h"
   1:../../libdaisy/src/daisy_seed.h **** #pragma once
   2:../../libdaisy/src/daisy_seed.h **** #ifndef DSY_SEED_H
   3:../../libdaisy/src/daisy_seed.h **** #define DSY_SEED_H
   4:../../libdaisy/src/daisy_seed.h **** 
   5:../../libdaisy/src/daisy_seed.h **** #include "daisy.h"
   6:../../libdaisy/src/daisy_seed.h **** 
   7:../../libdaisy/src/daisy_seed.h **** //Uncomment this out if you're still using the rev2 hardware
   8:../../libdaisy/src/daisy_seed.h **** //#define SEED_REV2
   9:../../libdaisy/src/daisy_seed.h **** 
  10:../../libdaisy/src/daisy_seed.h **** namespace daisy
  11:../../libdaisy/src/daisy_seed.h **** {
  12:../../libdaisy/src/daisy_seed.h **** /**
  13:../../libdaisy/src/daisy_seed.h ****    @brief This is the higher-level interface for the Daisy board. \n 
  14:../../libdaisy/src/daisy_seed.h ****     All basic peripheral configuration/initialization is setup here. \n
  15:../../libdaisy/src/daisy_seed.h **** 
  16:../../libdaisy/src/daisy_seed.h ****    @ingroup boards
  17:../../libdaisy/src/daisy_seed.h **** */
  18:../../libdaisy/src/daisy_seed.h **** class DaisySeed
  19:../../libdaisy/src/daisy_seed.h **** {
  20:../../libdaisy/src/daisy_seed.h ****   public:
  21:../../libdaisy/src/daisy_seed.h ****     DaisySeed() {}
  22:../../libdaisy/src/daisy_seed.h ****     ~DaisySeed() {}
  30              		.loc 1 22 5 view -0
  31              		.cfi_startproc
  32              		@ args = 0, pretend = 0, frame = 0
  33              		@ frame_needed = 0, uses_anonymous_args = 0
  34              		@ link register save eliminated.
  35              	.LBB55:
  36              	.LBI55:
ARM GAS  /tmp/ccGydHEK.s 			page 2


  37              		.file 2 "../../libdaisy/src/sys/system.h"
   1:../../libdaisy/src/sys/system.h **** #ifndef DSY_SYSTEM_H
   2:../../libdaisy/src/sys/system.h **** #define DSY_SYSTEM_H
   3:../../libdaisy/src/sys/system.h **** 
   4:../../libdaisy/src/sys/system.h **** #ifndef UNIT_TEST // for unit tests, a dummy implementation is provided below
   5:../../libdaisy/src/sys/system.h **** 
   6:../../libdaisy/src/sys/system.h **** #include <cstdint>
   7:../../libdaisy/src/sys/system.h **** #include "per/tim.h"
   8:../../libdaisy/src/sys/system.h **** 
   9:../../libdaisy/src/sys/system.h **** namespace daisy
  10:../../libdaisy/src/sys/system.h **** {
  11:../../libdaisy/src/sys/system.h **** /** A handle for interacting with the Core System. 
  12:../../libdaisy/src/sys/system.h ****  ** This includes the Clock tree, MPU, global DMA initialization,
  13:../../libdaisy/src/sys/system.h ****  ** cache handling, and any other necessary global initiailzation
  14:../../libdaisy/src/sys/system.h ****  **
  15:../../libdaisy/src/sys/system.h ****  ** @author shensley
  16:../../libdaisy/src/sys/system.h ****  ** @addtogroup system
  17:../../libdaisy/src/sys/system.h ****  */
  18:../../libdaisy/src/sys/system.h **** class System
  19:../../libdaisy/src/sys/system.h **** {
  20:../../libdaisy/src/sys/system.h ****   public:
  21:../../libdaisy/src/sys/system.h ****     /** Contains settings for initializing the System */
  22:../../libdaisy/src/sys/system.h ****     struct Config
  23:../../libdaisy/src/sys/system.h ****     {
  24:../../libdaisy/src/sys/system.h ****         /** Specifies the system clock frequency that feeds APB/AHB clocks, etc. */
  25:../../libdaisy/src/sys/system.h ****         enum class SysClkFreq
  26:../../libdaisy/src/sys/system.h ****         {
  27:../../libdaisy/src/sys/system.h ****             FREQ_400MHZ,
  28:../../libdaisy/src/sys/system.h ****             FREQ_480MHZ,
  29:../../libdaisy/src/sys/system.h ****         };
  30:../../libdaisy/src/sys/system.h **** 
  31:../../libdaisy/src/sys/system.h ****         /** Method to call on the struct to set to defaults
  32:../../libdaisy/src/sys/system.h ****          ** CPU Freq set to 400MHz
  33:../../libdaisy/src/sys/system.h ****          ** Cache Enabled 
  34:../../libdaisy/src/sys/system.h ****          ** */
  35:../../libdaisy/src/sys/system.h ****         void Defaults()
  36:../../libdaisy/src/sys/system.h ****         {
  37:../../libdaisy/src/sys/system.h ****             cpu_freq   = SysClkFreq::FREQ_400MHZ;
  38:../../libdaisy/src/sys/system.h ****             use_dcache = true;
  39:../../libdaisy/src/sys/system.h ****             use_icache = true;
  40:../../libdaisy/src/sys/system.h ****         }
  41:../../libdaisy/src/sys/system.h **** 
  42:../../libdaisy/src/sys/system.h ****         /** Method to call on the struct to set to boost mode:
  43:../../libdaisy/src/sys/system.h ****          ** CPU Freq set to 480MHz
  44:../../libdaisy/src/sys/system.h ****          ** Cache Enabled 
  45:../../libdaisy/src/sys/system.h ****          ** */
  46:../../libdaisy/src/sys/system.h ****         void Boost()
  47:../../libdaisy/src/sys/system.h ****         {
  48:../../libdaisy/src/sys/system.h ****             cpu_freq   = SysClkFreq::FREQ_480MHZ;
  49:../../libdaisy/src/sys/system.h ****             use_dcache = true;
  50:../../libdaisy/src/sys/system.h ****             use_icache = true;
  51:../../libdaisy/src/sys/system.h ****         }
  52:../../libdaisy/src/sys/system.h **** 
  53:../../libdaisy/src/sys/system.h ****         SysClkFreq cpu_freq;
  54:../../libdaisy/src/sys/system.h ****         bool       use_dcache;
  55:../../libdaisy/src/sys/system.h ****         bool       use_icache;
  56:../../libdaisy/src/sys/system.h ****     };
ARM GAS  /tmp/ccGydHEK.s 			page 3


  57:../../libdaisy/src/sys/system.h **** 
  58:../../libdaisy/src/sys/system.h ****     System() {}
  59:../../libdaisy/src/sys/system.h ****     ~System() {}
  38              		.loc 2 59 5 view .LVU1
  39              		.loc 2 59 5 is_stmt 0 view .LVU2
  40              	.LBE55:
  41              	.LBB56:
  42              	.LBI56:
  43              		.file 3 "../../libdaisy/src/hid/usb.h"
   1:../../libdaisy/src/hid/usb.h **** #pragma once
   2:../../libdaisy/src/hid/usb.h **** #ifndef DSY_HID_USB_H
   3:../../libdaisy/src/hid/usb.h **** #define DSY_HID_USB_H
   4:../../libdaisy/src/hid/usb.h **** #include <stdint.h>
   5:../../libdaisy/src/hid/usb.h **** #include <stdlib.h>
   6:../../libdaisy/src/hid/usb.h **** 
   7:../../libdaisy/src/hid/usb.h **** namespace daisy
   8:../../libdaisy/src/hid/usb.h **** /** @addtogroup externals
   9:../../libdaisy/src/hid/usb.h ****     @{
  10:../../libdaisy/src/hid/usb.h **** */
  11:../../libdaisy/src/hid/usb.h **** 
  12:../../libdaisy/src/hid/usb.h **** {
  13:../../libdaisy/src/hid/usb.h **** /** 
  14:../../libdaisy/src/hid/usb.h ****     @brief Interface for initializing and using the USB Peripherals on the daisy
  15:../../libdaisy/src/hid/usb.h ****     @author Stephen Hensley
  16:../../libdaisy/src/hid/usb.h ****     @date December 2019
  17:../../libdaisy/src/hid/usb.h **** */
  18:../../libdaisy/src/hid/usb.h **** class UsbHandle
  19:../../libdaisy/src/hid/usb.h **** {
  20:../../libdaisy/src/hid/usb.h ****   public:
  21:../../libdaisy/src/hid/usb.h ****     /** Return values for USBHandle Functions */
  22:../../libdaisy/src/hid/usb.h ****     enum class Result
  23:../../libdaisy/src/hid/usb.h ****     {
  24:../../libdaisy/src/hid/usb.h ****         OK,
  25:../../libdaisy/src/hid/usb.h ****         ERR,
  26:../../libdaisy/src/hid/usb.h ****     };
  27:../../libdaisy/src/hid/usb.h **** 
  28:../../libdaisy/src/hid/usb.h ****     /** Specified which of the two USB Peripherals to initialize. */
  29:../../libdaisy/src/hid/usb.h ****     enum UsbPeriph
  30:../../libdaisy/src/hid/usb.h ****     {
  31:../../libdaisy/src/hid/usb.h ****         FS_INTERNAL, /**< Internal pin */
  32:../../libdaisy/src/hid/usb.h ****         FS_EXTERNAL, /**< FS External D+ pin is Pin 38 (GPIO32). FS External D- pin is Pin 37 (GPIO
  33:../../libdaisy/src/hid/usb.h ****         FS_BOTH,     /**< Both */
  34:../../libdaisy/src/hid/usb.h ****     };
  35:../../libdaisy/src/hid/usb.h **** 
  36:../../libdaisy/src/hid/usb.h **** 
  37:../../libdaisy/src/hid/usb.h ****     /** Function called upon reception of a buffer */
  38:../../libdaisy/src/hid/usb.h ****     typedef void (*ReceiveCallback)(uint8_t* buff, uint32_t* len);
  39:../../libdaisy/src/hid/usb.h **** 
  40:../../libdaisy/src/hid/usb.h ****     UsbHandle() {}
  41:../../libdaisy/src/hid/usb.h **** 
  42:../../libdaisy/src/hid/usb.h ****     ~UsbHandle() {}
  44              		.loc 3 42 5 is_stmt 1 view .LVU3
  45              		.loc 3 42 5 is_stmt 0 view .LVU4
  46              	.LBE56:
  47              	.LBB57:
  48              	.LBI57:
  49              		.file 4 "../../libdaisy/src/per/adc.h"
ARM GAS  /tmp/ccGydHEK.s 			page 4


   1:../../libdaisy/src/per/adc.h **** #pragma once
   2:../../libdaisy/src/per/adc.h **** #ifndef DSY_ADC_H
   3:../../libdaisy/src/per/adc.h **** #define DSY_ADC_H /**< Macro */
   4:../../libdaisy/src/per/adc.h **** #include <stdint.h>
   5:../../libdaisy/src/per/adc.h **** #include <stdlib.h>
   6:../../libdaisy/src/per/adc.h **** #include "daisy_core.h"
   7:../../libdaisy/src/per/adc.h **** #include "per/gpio.h"
   8:../../libdaisy/src/per/adc.h **** 
   9:../../libdaisy/src/per/adc.h **** #define DSY_ADC_MAX_CHANNELS 14 /**< Maximum number of ADC channels */
  10:../../libdaisy/src/per/adc.h **** 
  11:../../libdaisy/src/per/adc.h **** namespace daisy
  12:../../libdaisy/src/per/adc.h **** {
  13:../../libdaisy/src/per/adc.h **** /** @addtogroup analog_digital_conversion
  14:../../libdaisy/src/per/adc.h ****     @{
  15:../../libdaisy/src/per/adc.h **** */
  16:../../libdaisy/src/per/adc.h **** 
  17:../../libdaisy/src/per/adc.h **** /* While there may not be many configuration options here,
  18:../../libdaisy/src/per/adc.h **** using a struct like this allows us to add more configuration
  19:../../libdaisy/src/per/adc.h **** later without breaking existing functionality.
  20:../../libdaisy/src/per/adc.h **** */
  21:../../libdaisy/src/per/adc.h **** 
  22:../../libdaisy/src/per/adc.h **** /** Configuration Structure for a given channel */
  23:../../libdaisy/src/per/adc.h **** struct AdcChannelConfig
  24:../../libdaisy/src/per/adc.h **** {
  25:../../libdaisy/src/per/adc.h ****     /** Which pin to use for multiplexing */
  26:../../libdaisy/src/per/adc.h ****     enum MuxPin
  27:../../libdaisy/src/per/adc.h ****     {
  28:../../libdaisy/src/per/adc.h ****         MUX_SEL_0,    /**< & */
  29:../../libdaisy/src/per/adc.h ****         MUX_SEL_1,    /**< & */
  30:../../libdaisy/src/per/adc.h ****         MUX_SEL_2,    /**< & */
  31:../../libdaisy/src/per/adc.h ****         MUX_SEL_LAST, /**< & */
  32:../../libdaisy/src/per/adc.h ****     };
  33:../../libdaisy/src/per/adc.h **** 
  34:../../libdaisy/src/per/adc.h ****     /** Initializes a single ADC pin as an ADC. 
  35:../../libdaisy/src/per/adc.h ****     \param pin Pin to init.
  36:../../libdaisy/src/per/adc.h ****      */
  37:../../libdaisy/src/per/adc.h ****     void InitSingle(dsy_gpio_pin pin);
  38:../../libdaisy/src/per/adc.h **** 
  39:../../libdaisy/src/per/adc.h ****     /** 
  40:../../libdaisy/src/per/adc.h ****     Initializes a single ADC pin as a Multiplexed ADC.
  41:../../libdaisy/src/per/adc.h ****     Requires a CD405X Multiplexer connected to the pin.
  42:../../libdaisy/src/per/adc.h ****     You only need to supply the mux pins that are required,
  43:../../libdaisy/src/per/adc.h ****     e.g. a 4052 mux would only require mux_0 and mux_1.
  44:../../libdaisy/src/per/adc.h ****     Internal Callbacks handle the pin addressing.
  45:../../libdaisy/src/per/adc.h ****     \param mux_channels must be 1-8
  46:../../libdaisy/src/per/adc.h ****     \param mux_0 First mux pin
  47:../../libdaisy/src/per/adc.h ****     \param mux_1 Second mux pin
  48:../../libdaisy/src/per/adc.h ****     \param mux_2 Third mux pin
  49:../../libdaisy/src/per/adc.h ****     \param adc_pin &
  50:../../libdaisy/src/per/adc.h ****     */
  51:../../libdaisy/src/per/adc.h ****     void InitMux(dsy_gpio_pin adc_pin,
  52:../../libdaisy/src/per/adc.h ****                  size_t       mux_channels,
  53:../../libdaisy/src/per/adc.h ****                  dsy_gpio_pin mux_0,
  54:../../libdaisy/src/per/adc.h ****                  dsy_gpio_pin mux_1 = {DSY_GPIOX, 0},
  55:../../libdaisy/src/per/adc.h ****                  dsy_gpio_pin mux_2 = {DSY_GPIOX, 0});
  56:../../libdaisy/src/per/adc.h **** 
  57:../../libdaisy/src/per/adc.h ****     dsy_gpio pin_;                   /**< & */
ARM GAS  /tmp/ccGydHEK.s 			page 5


  58:../../libdaisy/src/per/adc.h ****     dsy_gpio mux_pin_[MUX_SEL_LAST]; /**< & */
  59:../../libdaisy/src/per/adc.h ****     uint8_t  mux_channels_;          /**< & */
  60:../../libdaisy/src/per/adc.h **** };
  61:../../libdaisy/src/per/adc.h **** 
  62:../../libdaisy/src/per/adc.h **** /**
  63:../../libdaisy/src/per/adc.h ****    Handler for analog to digital conversion
  64:../../libdaisy/src/per/adc.h **** */
  65:../../libdaisy/src/per/adc.h **** class AdcHandle
  66:../../libdaisy/src/per/adc.h **** {
  67:../../libdaisy/src/per/adc.h ****   public:
  68:../../libdaisy/src/per/adc.h ****     /** Supported oversampling amounts */
  69:../../libdaisy/src/per/adc.h ****     enum OverSampling
  70:../../libdaisy/src/per/adc.h ****     {
  71:../../libdaisy/src/per/adc.h ****         OVS_NONE, /**< & */
  72:../../libdaisy/src/per/adc.h ****         OVS_4,    /**< & */
  73:../../libdaisy/src/per/adc.h ****         OVS_8,    /**< & */
  74:../../libdaisy/src/per/adc.h ****         OVS_16,   /**< & */
  75:../../libdaisy/src/per/adc.h ****         OVS_32,   /**< & */
  76:../../libdaisy/src/per/adc.h ****         OVS_64,   /**< & */
  77:../../libdaisy/src/per/adc.h ****         OVS_128,  /**< & */
  78:../../libdaisy/src/per/adc.h ****         OVS_256,  /**< & */
  79:../../libdaisy/src/per/adc.h ****         OVS_512,  /**< & */
  80:../../libdaisy/src/per/adc.h ****         OVS_1024, /**< & */
  81:../../libdaisy/src/per/adc.h ****         OVS_LAST, /**< & */
  82:../../libdaisy/src/per/adc.h ****     };
  83:../../libdaisy/src/per/adc.h **** 
  84:../../libdaisy/src/per/adc.h ****     AdcHandle() {}
  85:../../libdaisy/src/per/adc.h ****     ~AdcHandle() {}
  50              		.loc 4 85 5 is_stmt 1 view .LVU5
  51              		.loc 4 85 5 is_stmt 0 view .LVU6
  52              	.LBE57:
  53              	.LBB58:
  54              	.LBI58:
  55              		.file 5 "../../libdaisy/src/hid/audio.h"
   1:../../libdaisy/src/hid/audio.h **** #ifndef DSY_AUDIO_H
   2:../../libdaisy/src/hid/audio.h **** #define DSY_AUDIO_H /**< & */
   3:../../libdaisy/src/hid/audio.h **** 
   4:../../libdaisy/src/hid/audio.h **** #include "per/sai.h"
   5:../../libdaisy/src/hid/audio.h **** 
   6:../../libdaisy/src/hid/audio.h **** namespace daisy
   7:../../libdaisy/src/hid/audio.h **** {
   8:../../libdaisy/src/hid/audio.h **** class AudioHandle
   9:../../libdaisy/src/hid/audio.h **** {
  10:../../libdaisy/src/hid/audio.h ****   public:
  11:../../libdaisy/src/hid/audio.h ****     /** Manually configurable details about the Audio Engine */
  12:../../libdaisy/src/hid/audio.h ****     /** TODO: Figure out how to get samplerate in here. */
  13:../../libdaisy/src/hid/audio.h ****     struct Config
  14:../../libdaisy/src/hid/audio.h ****     {
  15:../../libdaisy/src/hid/audio.h ****         size_t                        blocksize;
  16:../../libdaisy/src/hid/audio.h ****         SaiHandle::Config::SampleRate samplerate;
  17:../../libdaisy/src/hid/audio.h ****         float                         postgain;
  18:../../libdaisy/src/hid/audio.h ****     };
  19:../../libdaisy/src/hid/audio.h **** 
  20:../../libdaisy/src/hid/audio.h ****     enum class Result
  21:../../libdaisy/src/hid/audio.h ****     {
  22:../../libdaisy/src/hid/audio.h ****         OK,
  23:../../libdaisy/src/hid/audio.h ****         ERR,
ARM GAS  /tmp/ccGydHEK.s 			page 6


  24:../../libdaisy/src/hid/audio.h ****     };
  25:../../libdaisy/src/hid/audio.h **** 
  26:../../libdaisy/src/hid/audio.h ****     /** Non-Interleaving input buffer
  27:../../libdaisy/src/hid/audio.h ****      * Buffer arranged by float[chn][sample] 
  28:../../libdaisy/src/hid/audio.h ****      * const so that the user can't modify the input
  29:../../libdaisy/src/hid/audio.h ****     */
  30:../../libdaisy/src/hid/audio.h ****     typedef const float* const* InputBuffer;
  31:../../libdaisy/src/hid/audio.h **** 
  32:../../libdaisy/src/hid/audio.h ****     /** Non-Interleaving output buffer
  33:../../libdaisy/src/hid/audio.h ****      * Arranged by float[chn][sample] 
  34:../../libdaisy/src/hid/audio.h ****     */
  35:../../libdaisy/src/hid/audio.h ****     typedef float** OutputBuffer;
  36:../../libdaisy/src/hid/audio.h **** 
  37:../../libdaisy/src/hid/audio.h ****     /** Type for a Non-Interleaving audio callback 
  38:../../libdaisy/src/hid/audio.h ****    * Non-Interleaving audio callbacks in daisy will be of this type
  39:../../libdaisy/src/hid/audio.h ****   */
  40:../../libdaisy/src/hid/audio.h ****     typedef void (*AudioCallback)(InputBuffer  in,
  41:../../libdaisy/src/hid/audio.h ****                                   OutputBuffer out,
  42:../../libdaisy/src/hid/audio.h ****                                   size_t       size);
  43:../../libdaisy/src/hid/audio.h **** 
  44:../../libdaisy/src/hid/audio.h ****     /** Interleaving Input buffer
  45:../../libdaisy/src/hid/audio.h ****      ** audio is prepared as { L0, R0, L1, R1, . . . LN, RN }]
  46:../../libdaisy/src/hid/audio.h ****      ** this is const, as the user shouldn't modify it
  47:../../libdaisy/src/hid/audio.h ****     */
  48:../../libdaisy/src/hid/audio.h ****     typedef const float* InterleavingInputBuffer;
  49:../../libdaisy/src/hid/audio.h **** 
  50:../../libdaisy/src/hid/audio.h ****     /** Interleaving Output buffer 
  51:../../libdaisy/src/hid/audio.h ****      ** audio is prepared as { L0, R0, L1, R1, . . . LN, RN }
  52:../../libdaisy/src/hid/audio.h ****     */
  53:../../libdaisy/src/hid/audio.h ****     typedef float* InterleavingOutputBuffer;
  54:../../libdaisy/src/hid/audio.h **** 
  55:../../libdaisy/src/hid/audio.h ****     /** Interleaving Audio Callback 
  56:../../libdaisy/src/hid/audio.h ****    * Interleaving audio callbacks in daisy must be of this type
  57:../../libdaisy/src/hid/audio.h ****   */
  58:../../libdaisy/src/hid/audio.h ****     typedef void (*InterleavingAudioCallback)(InterleavingInputBuffer  in,
  59:../../libdaisy/src/hid/audio.h ****                                               InterleavingOutputBuffer out,
  60:../../libdaisy/src/hid/audio.h ****                                               size_t                   size);
  61:../../libdaisy/src/hid/audio.h **** 
  62:../../libdaisy/src/hid/audio.h ****     AudioHandle() : pimpl_(nullptr) {}
  63:../../libdaisy/src/hid/audio.h ****     ~AudioHandle() {}
  56              		.loc 5 63 5 is_stmt 1 view .LVU7
  57              		.loc 5 63 5 is_stmt 0 view .LVU8
  58              	.LBE58:
  59              		.loc 1 22 19 view .LVU9
  60 0000 7047     		bx	lr
  61              		.cfi_endproc
  62              	.LFE2037:
  64              		.weak	_ZN5daisy9DaisySeedD1Ev
  65              		.thumb_set _ZN5daisy9DaisySeedD1Ev,_ZN5daisy9DaisySeedD2Ev
  66 0002 00BF     		.section	.text._Z11UsbCallbackPhPm,"ax",%progbits
  67              		.align	1
  68              		.p2align 2,,3
  69              		.global	_Z11UsbCallbackPhPm
  70              		.syntax unified
  71              		.thumb
  72              		.thumb_func
  73              		.fpu fpv5-d16
ARM GAS  /tmp/ccGydHEK.s 			page 7


  75              	_Z11UsbCallbackPhPm:
  76              	.LVL1:
  77              	.LFB2042:
  78              		.file 6 "USB_CDC.cpp"
   1:USB_CDC.cpp   **** #include <stdio.h>
   2:USB_CDC.cpp   **** #include <string.h>
   3:USB_CDC.cpp   **** #include "daisy_seed.h"
   4:USB_CDC.cpp   **** 
   5:USB_CDC.cpp   **** using namespace daisy;
   6:USB_CDC.cpp   **** 
   7:USB_CDC.cpp   **** static DaisySeed hw;
   8:USB_CDC.cpp   **** 
   9:USB_CDC.cpp   **** uint8_t sumbuff[1024];
  10:USB_CDC.cpp   **** 
  11:USB_CDC.cpp   **** void UsbCallback(uint8_t* buf, uint32_t* len)
  12:USB_CDC.cpp   **** {
  79              		.loc 6 12 1 is_stmt 1 view -0
  80              		.cfi_startproc
  81              		@ args = 0, pretend = 0, frame = 0
  82              		@ frame_needed = 0, uses_anonymous_args = 0
  83              		@ link register save eliminated.
  13:USB_CDC.cpp   ****     for(size_t i = 0; i < *len; i++)
  84              		.loc 6 13 5 view .LVU11
  85              	.LBB59:
  86              		.loc 6 13 25 view .LVU12
  87 0000 0B68     		ldr	r3, [r1]
  88 0002 73B1     		cbz	r3, .L11
  89 0004 421E     		subs	r2, r0, #1
  90              	.LBE59:
  12:USB_CDC.cpp   ****     for(size_t i = 0; i < *len; i++)
  91              		.loc 6 12 1 is_stmt 0 view .LVU13
  92 0006 30B4     		push	{r4, r5}
  93              		.cfi_def_cfa_offset 8
  94              		.cfi_offset 4, -8
  95              		.cfi_offset 5, -4
  96 0008 064C     		ldr	r4, .L14
  97              	.LVL2:
  98              	.L5:
  99              	.LBB60:
  14:USB_CDC.cpp   ****     {
  15:USB_CDC.cpp   ****         sumbuff[i] = buf[i];
 100              		.loc 6 15 9 is_stmt 1 discriminator 2 view .LVU14
 101 000a 1346     		mov	r3, r2
 102              		.loc 6 15 27 is_stmt 0 discriminator 2 view .LVU15
 103 000c 12F8015F 		ldrb	r5, [r2, #1]!	@ zero_extendqisi2
 104              	.LVL3:
  13:USB_CDC.cpp   ****     {
 105              		.loc 6 13 25 discriminator 2 view .LVU16
 106 0010 0233     		adds	r3, r3, #2
 107              	.LVL4:
 108              		.loc 6 15 20 discriminator 2 view .LVU17
 109 0012 04F8015B 		strb	r5, [r4], #1
  13:USB_CDC.cpp   ****     {
 110              		.loc 6 13 5 is_stmt 1 discriminator 2 view .LVU18
 111              	.LVL5:
  13:USB_CDC.cpp   ****     {
 112              		.loc 6 13 25 discriminator 2 view .LVU19
ARM GAS  /tmp/ccGydHEK.s 			page 8


 113 0016 0D68     		ldr	r5, [r1]
 114 0018 1B1A     		subs	r3, r3, r0
 115 001a 9D42     		cmp	r5, r3
 116 001c F5D8     		bhi	.L5
 117              	.LBE60:
  16:USB_CDC.cpp   ****     }
  17:USB_CDC.cpp   **** }
 118              		.loc 6 17 1 is_stmt 0 view .LVU20
 119 001e 30BC     		pop	{r4, r5}
 120              		.cfi_restore 5
 121              		.cfi_restore 4
 122              		.cfi_def_cfa_offset 0
 123 0020 7047     		bx	lr
 124              	.LVL6:
 125              	.L11:
 126              		.loc 6 17 1 view .LVU21
 127 0022 7047     		bx	lr
 128              	.L15:
 129              		.align	2
 130              	.L14:
 131 0024 00000000 		.word	.LANCHOR0
 132              		.cfi_endproc
 133              	.LFE2042:
 135              		.section	.rodata.main.str1.4,"aMS",%progbits,1
 136              		.align	2
 137              	.LC0:
 138 0000 5469636B 		.ascii	"Tick:\011%d\015\012\000"
 138      3A092564 
 138      0D0A00
 139              		.section	.text.startup.main,"ax",%progbits
 140              		.align	1
 141              		.p2align 2,,3
 142              		.global	main
 143              		.syntax unified
 144              		.thumb
 145              		.thumb_func
 146              		.fpu fpv5-d16
 148              	main:
 149              	.LFB2043:
  18:USB_CDC.cpp   **** 
  19:USB_CDC.cpp   **** 
  20:USB_CDC.cpp   **** int main(void)
  21:USB_CDC.cpp   **** {
 150              		.loc 6 21 1 is_stmt 1 view -0
 151              		.cfi_startproc
 152              		@ args = 0, pretend = 0, frame = 512
 153              		@ frame_needed = 0, uses_anonymous_args = 0
  22:USB_CDC.cpp   ****     hw.Configure();
 154              		.loc 6 22 5 view .LVU23
  21:USB_CDC.cpp   ****     hw.Configure();
 155              		.loc 6 21 1 is_stmt 0 view .LVU24
 156 0000 30B5     		push	{r4, r5, lr}
 157              		.cfi_def_cfa_offset 12
 158              		.cfi_offset 4, -12
 159              		.cfi_offset 5, -8
 160              		.cfi_offset 14, -4
 161              		.loc 6 22 17 view .LVU25
ARM GAS  /tmp/ccGydHEK.s 			page 9


 162 0002 2248     		ldr	r0, .L19
  21:USB_CDC.cpp   ****     hw.Configure();
 163              		.loc 6 21 1 view .LVU26
 164 0004 ADF5017D 		sub	sp, sp, #516
 165              		.cfi_def_cfa_offset 528
 166              		.loc 6 22 17 view .LVU27
 167 0008 FFF7FEFF 		bl	_ZN5daisy9DaisySeed9ConfigureEv
 168              	.LVL7:
  23:USB_CDC.cpp   ****     hw.Init();
 169              		.loc 6 23 5 is_stmt 1 view .LVU28
 170              		.loc 6 23 12 is_stmt 0 view .LVU29
 171 000c 0021     		movs	r1, #0
 172 000e 1F48     		ldr	r0, .L19
  24:USB_CDC.cpp   ****     hw.usb_handle.Init(UsbHandle::FS_INTERNAL);
  25:USB_CDC.cpp   ****     int  tick_cnt = 0;
  26:USB_CDC.cpp   ****     bool ledstate = false;
 173              		.loc 6 26 10 view .LVU30
 174 0010 0D46     		mov	r5, r1
  23:USB_CDC.cpp   ****     hw.Init();
 175              		.loc 6 23 12 view .LVU31
 176 0012 FFF7FEFF 		bl	_ZN5daisy9DaisySeed4InitEb
 177              	.LVL8:
  24:USB_CDC.cpp   ****     hw.usb_handle.Init(UsbHandle::FS_INTERNAL);
 178              		.loc 6 24 5 is_stmt 1 view .LVU32
  24:USB_CDC.cpp   ****     hw.usb_handle.Init(UsbHandle::FS_INTERNAL);
 179              		.loc 6 24 23 is_stmt 0 view .LVU33
 180 0016 1E48     		ldr	r0, .L19+4
 181 0018 2946     		mov	r1, r5
  25:USB_CDC.cpp   ****     bool ledstate = false;
 182              		.loc 6 25 10 view .LVU34
 183 001a 2C46     		mov	r4, r5
  24:USB_CDC.cpp   ****     hw.usb_handle.Init(UsbHandle::FS_INTERNAL);
 184              		.loc 6 24 23 view .LVU35
 185 001c FFF7FEFF 		bl	_ZN5daisy9UsbHandle4InitENS0_9UsbPeriphE
 186              	.LVL9:
  25:USB_CDC.cpp   ****     bool ledstate = false;
 187              		.loc 6 25 5 is_stmt 1 view .LVU36
 188              		.loc 6 26 5 view .LVU37
  27:USB_CDC.cpp   ****     char buff[512];
 189              		.loc 6 27 5 view .LVU38
  28:USB_CDC.cpp   ****     sprintf(buff, "Tick:\t%d\r\n", tick_cnt);
 190              		.loc 6 28 5 view .LVU39
 191              		.loc 6 28 12 is_stmt 0 view .LVU40
 192 0020 2A46     		mov	r2, r5
 193 0022 1C49     		ldr	r1, .L19+8
 194 0024 6846     		mov	r0, sp
 195 0026 FFF7FEFF 		bl	sprintf
 196              	.LVL10:
  29:USB_CDC.cpp   ****     hw.usb_handle.TransmitInternal((uint8_t*)buff, strlen(buff));
 197              		.loc 6 29 5 is_stmt 1 view .LVU41
 198              		.loc 6 29 35 is_stmt 0 view .LVU42
 199 002a 6846     		mov	r0, sp
 200 002c FFF7FEFF 		bl	strlen
 201              	.LVL11:
 202 0030 6946     		mov	r1, sp
 203 0032 0246     		mov	r2, r0
 204 0034 1648     		ldr	r0, .L19+4
ARM GAS  /tmp/ccGydHEK.s 			page 10


 205 0036 FFF7FEFF 		bl	_ZN5daisy9UsbHandle16TransmitInternalEPhj
 206              	.LVL12:
  30:USB_CDC.cpp   ****     System::Delay(500);
 207              		.loc 6 30 5 is_stmt 1 view .LVU43
 208              		.loc 6 30 18 is_stmt 0 view .LVU44
 209 003a 4FF4FA70 		mov	r0, #500
 210 003e FFF7FEFF 		bl	_ZN5daisy6System5DelayEm
 211              	.LVL13:
  31:USB_CDC.cpp   ****     hw.usb_handle.SetReceiveCallback(UsbCallback, UsbHandle::FS_INTERNAL);
 212              		.loc 6 31 5 is_stmt 1 view .LVU45
 213              		.loc 6 31 37 is_stmt 0 view .LVU46
 214 0042 2A46     		mov	r2, r5
 215 0044 1449     		ldr	r1, .L19+12
 216 0046 1248     		ldr	r0, .L19+4
 217 0048 FFF7FEFF 		bl	_ZN5daisy9UsbHandle18SetReceiveCallbackEPFvPhPmENS0_9UsbPeriphE
 218              	.LVL14:
 219              	.L17:
  32:USB_CDC.cpp   ****     while(1)
 220              		.loc 6 32 5 is_stmt 1 discriminator 1 view .LVU47
  33:USB_CDC.cpp   ****     {
  34:USB_CDC.cpp   ****         System::Delay(500);
 221              		.loc 6 34 9 discriminator 1 view .LVU48
 222              		.loc 6 34 22 is_stmt 0 discriminator 1 view .LVU49
 223 004c 4FF4FA70 		mov	r0, #500
 224 0050 FFF7FEFF 		bl	_ZN5daisy6System5DelayEm
 225              	.LVL15:
  35:USB_CDC.cpp   ****         sprintf(buff, "Tick:\t%d\r\n", tick_cnt);
 226              		.loc 6 35 9 is_stmt 1 discriminator 1 view .LVU50
 227              		.loc 6 35 16 is_stmt 0 discriminator 1 view .LVU51
 228 0054 2246     		mov	r2, r4
 229 0056 0F49     		ldr	r1, .L19+8
 230 0058 6846     		mov	r0, sp
 231 005a FFF7FEFF 		bl	sprintf
 232              	.LVL16:
  36:USB_CDC.cpp   ****         hw.usb_handle.TransmitInternal((uint8_t*)buff, strlen(buff));
 233              		.loc 6 36 9 is_stmt 1 discriminator 1 view .LVU52
 234              		.loc 6 36 39 is_stmt 0 discriminator 1 view .LVU53
 235 005e 6846     		mov	r0, sp
 236 0060 FFF7FEFF 		bl	strlen
 237              	.LVL17:
 238 0064 6946     		mov	r1, sp
 239 0066 0246     		mov	r2, r0
 240 0068 0948     		ldr	r0, .L19+4
 241 006a FFF7FEFF 		bl	_ZN5daisy9UsbHandle16TransmitInternalEPhj
 242              	.LVL18:
  37:USB_CDC.cpp   ****         tick_cnt = (tick_cnt + 1) % 100;
 243              		.loc 6 37 9 is_stmt 1 discriminator 1 view .LVU54
 244              		.loc 6 37 30 is_stmt 0 discriminator 1 view .LVU55
 245 006e 631C     		adds	r3, r4, #1
 246              		.loc 6 37 18 discriminator 1 view .LVU56
 247 0070 0A4C     		ldr	r4, .L19+16
 248              	.LVL19:
 249              		.loc 6 37 18 discriminator 1 view .LVU57
 250 0072 6422     		movs	r2, #100
  38:USB_CDC.cpp   ****         hw.SetLed(ledstate);
 251              		.loc 6 38 18 discriminator 1 view .LVU58
 252 0074 2946     		mov	r1, r5
ARM GAS  /tmp/ccGydHEK.s 			page 11


 253 0076 0548     		ldr	r0, .L19
  37:USB_CDC.cpp   ****         tick_cnt = (tick_cnt + 1) % 100;
 254              		.loc 6 37 18 discriminator 1 view .LVU59
 255 0078 A4FB03C4 		umull	ip, r4, r4, r3
  39:USB_CDC.cpp   ****         ledstate = !ledstate;
 256              		.loc 6 39 18 discriminator 1 view .LVU60
 257 007c 85F00105 		eor	r5, r5, #1
 258              	.LVL20:
  37:USB_CDC.cpp   ****         tick_cnt = (tick_cnt + 1) % 100;
 259              		.loc 6 37 18 discriminator 1 view .LVU61
 260 0080 6409     		lsrs	r4, r4, #5
 261 0082 02FB1434 		mls	r4, r2, r4, r3
 262              	.LVL21:
  38:USB_CDC.cpp   ****         hw.SetLed(ledstate);
 263              		.loc 6 38 9 is_stmt 1 discriminator 1 view .LVU62
  38:USB_CDC.cpp   ****         hw.SetLed(ledstate);
 264              		.loc 6 38 18 is_stmt 0 discriminator 1 view .LVU63
 265 0086 FFF7FEFF 		bl	_ZN5daisy9DaisySeed6SetLedEb
 266              	.LVL22:
 267              		.loc 6 39 9 is_stmt 1 discriminator 1 view .LVU64
  32:USB_CDC.cpp   ****     {
 268              		.loc 6 32 5 discriminator 1 view .LVU65
 269 008a DFE7     		b	.L17
 270              	.L20:
 271              		.align	2
 272              	.L19:
 273 008c 00000000 		.word	.LANCHOR1
 274 0090 24000000 		.word	.LANCHOR1+36
 275 0094 00000000 		.word	.LC0
 276 0098 00000000 		.word	_Z11UsbCallbackPhPm
 277 009c 1F85EB51 		.word	1374389535
 278              		.cfi_endproc
 279              	.LFE2043:
 281              		.section	.text.startup._GLOBAL__sub_I_sumbuff,"ax",%progbits
 282              		.align	1
 283              		.p2align 2,,3
 284              		.syntax unified
 285              		.thumb
 286              		.thumb_func
 287              		.fpu fpv5-d16
 289              	_GLOBAL__sub_I_sumbuff:
 290              	.LFB2059:
  40:USB_CDC.cpp   ****     }
  41:USB_CDC.cpp   **** }
 291              		.loc 6 41 1 view -0
 292              		.cfi_startproc
 293              		@ args = 0, pretend = 0, frame = 0
 294              		@ frame_needed = 0, uses_anonymous_args = 0
 295              		@ link register save eliminated.
 296              	.LVL23:
 297              	.LBB61:
 298              	.LBI61:
 299              		.loc 6 41 1 view .LVU67
 300              	.LBB62:
 301              	.LBB63:
 302              	.LBI63:
  21:../../libdaisy/src/daisy_seed.h ****     ~DaisySeed() {}
ARM GAS  /tmp/ccGydHEK.s 			page 12


 303              		.loc 1 21 5 view .LVU68
 304              	.LBB64:
 305              	.LBB65:
 306              	.LBI65:
  62:../../libdaisy/src/hid/audio.h ****     ~AudioHandle() {}
 307              		.loc 5 62 5 view .LVU69
 308              	.LBB66:
 309              	.LBB67:
  62:../../libdaisy/src/hid/audio.h ****     ~AudioHandle() {}
 310              		.loc 5 62 35 is_stmt 0 view .LVU70
 311 0000 0348     		ldr	r0, .L22
 312 0002 0023     		movs	r3, #0
 313              	.LBE67:
 314              	.LBE66:
 315              	.LBE65:
 316              	.LBE64:
 317              	.LBE63:
   7:USB_CDC.cpp   **** 
 318              		.loc 6 7 18 view .LVU71
 319 0004 034A     		ldr	r2, .L22+4
 320 0006 0449     		ldr	r1, .L22+8
 321              	.LBB78:
 322              	.LBB77:
 323              	.LBB70:
 324              	.LBB69:
 325              	.LBB68:
  62:../../libdaisy/src/hid/audio.h ****     ~AudioHandle() {}
 326              		.loc 5 62 35 view .LVU72
 327 0008 4361     		str	r3, [r0, #20]
 328              	.LVL24:
  62:../../libdaisy/src/hid/audio.h ****     ~AudioHandle() {}
 329              		.loc 5 62 35 view .LVU73
 330              	.LBE68:
 331              	.LBE69:
 332              	.LBE70:
 333              	.LBB71:
 334              	.LBI71:
  84:../../libdaisy/src/per/adc.h ****     ~AdcHandle() {}
 335              		.loc 4 84 5 is_stmt 1 view .LVU74
  84:../../libdaisy/src/per/adc.h ****     ~AdcHandle() {}
 336              		.loc 4 84 5 is_stmt 0 view .LVU75
 337              	.LBE71:
 338              	.LBB72:
 339              	.LBI72:
 340              		.file 7 "../../libdaisy/src/per/dac.h"
   1:../../libdaisy/src/per/dac.h **** #pragma once
   2:../../libdaisy/src/per/dac.h **** #ifndef DSY_DAC_H
   3:../../libdaisy/src/per/dac.h **** #define DSY_DAC_H
   4:../../libdaisy/src/per/dac.h **** 
   5:../../libdaisy/src/per/dac.h **** #include "daisy_core.h"
   6:../../libdaisy/src/per/dac.h **** 
   7:../../libdaisy/src/per/dac.h **** namespace daisy
   8:../../libdaisy/src/per/dac.h **** {
   9:../../libdaisy/src/per/dac.h **** /** DAC handle for Built-in DAC Peripheral 
  10:../../libdaisy/src/per/dac.h ****  ** 
  11:../../libdaisy/src/per/dac.h ****  ** For now only Normal Mode is supported,
  12:../../libdaisy/src/per/dac.h ****  ** Sample and hold mode provides reduced power consumption, but requires a bit more setup.
ARM GAS  /tmp/ccGydHEK.s 			page 13


  13:../../libdaisy/src/per/dac.h ****  **
  14:../../libdaisy/src/per/dac.h ****  ** For now connecting the DAC through other internal periphearls is also not supported.
  15:../../libdaisy/src/per/dac.h ****  **
  16:../../libdaisy/src/per/dac.h ****  ** Since the DAC channels have dedicated pins we don't need to pass in a pin config like with
  17:../../libdaisy/src/per/dac.h ****  ** other modules. However, it is still important to not try to use the DAC pins for anything else.
  18:../../libdaisy/src/per/dac.h ****  ** DAC Channel 1 is on PA4, and DAC Channel 2 is on PA5
  19:../../libdaisy/src/per/dac.h ****  ***/
  20:../../libdaisy/src/per/dac.h **** class DacHandle
  21:../../libdaisy/src/per/dac.h **** {
  22:../../libdaisy/src/per/dac.h ****   public:
  23:../../libdaisy/src/per/dac.h ****     /** Return Values for the DacHandle class */
  24:../../libdaisy/src/per/dac.h ****     enum class Result
  25:../../libdaisy/src/per/dac.h ****     {
  26:../../libdaisy/src/per/dac.h ****         OK,
  27:../../libdaisy/src/per/dac.h ****         ERR,
  28:../../libdaisy/src/per/dac.h ****     };
  29:../../libdaisy/src/per/dac.h **** 
  30:../../libdaisy/src/per/dac.h ****     /** Selects which channel(s) will be configured for use. */
  31:../../libdaisy/src/per/dac.h ****     enum class Channel
  32:../../libdaisy/src/per/dac.h ****     {
  33:../../libdaisy/src/per/dac.h ****         ONE,
  34:../../libdaisy/src/per/dac.h ****         TWO,
  35:../../libdaisy/src/per/dac.h ****         BOTH,
  36:../../libdaisy/src/per/dac.h ****     };
  37:../../libdaisy/src/per/dac.h **** 
  38:../../libdaisy/src/per/dac.h ****     /** Sets the Mode for the DAC channels.
  39:../../libdaisy/src/per/dac.h ****      **
  40:../../libdaisy/src/per/dac.h ****      ** Polling mode uses the blocking mode to transmit a single value at a time.
  41:../../libdaisy/src/per/dac.h ****      **
  42:../../libdaisy/src/per/dac.h ****      ** DMA mode uses a buffer, and periodically transmits it triggering a 
  43:../../libdaisy/src/per/dac.h ****      ** callback to fill the buffer when it is ready for more samples.
  44:../../libdaisy/src/per/dac.h ****      ***/
  45:../../libdaisy/src/per/dac.h ****     enum class Mode
  46:../../libdaisy/src/per/dac.h ****     {
  47:../../libdaisy/src/per/dac.h ****         POLLING,
  48:../../libdaisy/src/per/dac.h ****         DMA,
  49:../../libdaisy/src/per/dac.h ****     };
  50:../../libdaisy/src/per/dac.h **** 
  51:../../libdaisy/src/per/dac.h ****     /** Sets the number of bits per sample transmitted out of the DAC.
  52:../../libdaisy/src/per/dac.h ****      ** The output range will be: 0V - VDDA
  53:../../libdaisy/src/per/dac.h ****      ** The resolution will be roughly: bitdepth / (VDDA - 0V) 
  54:../../libdaisy/src/per/dac.h ****      ***/
  55:../../libdaisy/src/per/dac.h ****     enum class BitDepth
  56:../../libdaisy/src/per/dac.h ****     {
  57:../../libdaisy/src/per/dac.h ****         BITS_8,
  58:../../libdaisy/src/per/dac.h ****         BITS_12
  59:../../libdaisy/src/per/dac.h ****     };
  60:../../libdaisy/src/per/dac.h **** 
  61:../../libdaisy/src/per/dac.h ****     /** Sets whether the DAC output is buffered for higher drive ability. */
  62:../../libdaisy/src/per/dac.h ****     enum class BufferState
  63:../../libdaisy/src/per/dac.h ****     {
  64:../../libdaisy/src/per/dac.h ****         ENABLED,
  65:../../libdaisy/src/per/dac.h ****         DISABLED,
  66:../../libdaisy/src/per/dac.h ****     };
  67:../../libdaisy/src/per/dac.h **** 
  68:../../libdaisy/src/per/dac.h ****     /** Configuration structure for initializing the DAC structure. */
  69:../../libdaisy/src/per/dac.h ****     struct Config
ARM GAS  /tmp/ccGydHEK.s 			page 14


  70:../../libdaisy/src/per/dac.h ****     {
  71:../../libdaisy/src/per/dac.h ****         /** Target Samplerate in Hz used to configure the internal 
  72:../../libdaisy/src/per/dac.h ****          ** timebase for DMA mode. Does nothing in POLLING mode.
  73:../../libdaisy/src/per/dac.h ****          ** If the value is 0 at Init time this will default to 48000Hz 
  74:../../libdaisy/src/per/dac.h ****          ** otherwise the driver will attempt meet the target.*/
  75:../../libdaisy/src/per/dac.h ****         uint32_t target_samplerate;
  76:../../libdaisy/src/per/dac.h **** 
  77:../../libdaisy/src/per/dac.h ****         Channel     chn;
  78:../../libdaisy/src/per/dac.h ****         Mode        mode;
  79:../../libdaisy/src/per/dac.h ****         BitDepth    bitdepth;
  80:../../libdaisy/src/per/dac.h ****         BufferState buff_state;
  81:../../libdaisy/src/per/dac.h ****     };
  82:../../libdaisy/src/per/dac.h **** 
  83:../../libdaisy/src/per/dac.h ****     DacHandle() : pimpl_(nullptr) {}
 341              		.loc 7 83 5 is_stmt 1 view .LVU76
 342              	.LBB73:
 343              	.LBB74:
 344              		.loc 7 83 33 is_stmt 0 view .LVU77
 345 000a 0362     		str	r3, [r0, #32]
 346              	.LVL25:
 347              		.loc 7 83 33 view .LVU78
 348              	.LBE74:
 349              	.LBE73:
 350              	.LBE72:
 351              	.LBB75:
 352              	.LBI75:
  40:../../libdaisy/src/hid/usb.h **** 
 353              		.loc 3 40 5 is_stmt 1 view .LVU79
  40:../../libdaisy/src/hid/usb.h **** 
 354              		.loc 3 40 5 is_stmt 0 view .LVU80
 355              	.LBE75:
 356              	.LBB76:
 357              	.LBI76:
  58:../../libdaisy/src/sys/system.h ****     ~System() {}
 358              		.loc 2 58 5 is_stmt 1 view .LVU81
  58:../../libdaisy/src/sys/system.h ****     ~System() {}
 359              		.loc 2 58 5 is_stmt 0 view .LVU82
 360              	.LBE76:
 361              	.LBE77:
 362              	.LBE78:
   7:USB_CDC.cpp   **** 
 363              		.loc 6 7 18 view .LVU83
 364 000c FFF7FEBF 		b	__aeabi_atexit
 365              	.LVL26:
 366              	.L23:
 367              		.align	2
 368              	.L22:
 369 0010 00000000 		.word	.LANCHOR1
 370 0014 00000000 		.word	__dso_handle
 371 0018 00000000 		.word	_ZN5daisy9DaisySeedD1Ev
 372              	.LBE62:
 373              	.LBE61:
 374              		.cfi_endproc
 375              	.LFE2059:
 377              		.section	.init_array,"aw",%init_array
 378              		.align	2
 379 0000 00000000 		.word	_GLOBAL__sub_I_sumbuff(target1)
ARM GAS  /tmp/ccGydHEK.s 			page 15


 380              		.global	sumbuff
 381              		.section	.bss._ZL2hw,"aw",%nobits
 382              		.align	2
 383              		.set	.LANCHOR1,. + 0
 386              	_ZL2hw:
 387 0000 00000000 		.space	60
 387      00000000 
 387      00000000 
 387      00000000 
 387      00000000 
 388              		.section	.bss.sumbuff,"aw",%nobits
 389              		.align	2
 390              		.set	.LANCHOR0,. + 0
 393              	sumbuff:
 394 0000 00000000 		.space	1024
 394      00000000 
 394      00000000 
 394      00000000 
 394      00000000 
 395              		.text
 396              	.Letext0:
 397              		.file 8 "/usr/lib/gcc/arm-none-eabi/9.2.1/include/stdint.h"
 398              		.file 9 "../../libdaisy/Drivers/CMSIS/Include/core_cm7.h"
 399              		.file 10 "../../libdaisy/Drivers/CMSIS/Device/ST/STM32H7xx/Include/system_stm32h7xx.h"
 400              		.file 11 "/usr/lib/gcc/arm-none-eabi/9.2.1/include/stddef.h"
 401              		.file 12 "/usr/include/newlib/c++/9.2.1/cmath"
 402              		.file 13 "/usr/include/newlib/c++/9.2.1/bits/std_abs.h"
 403              		.file 14 "/usr/include/newlib/c++/9.2.1/cstdlib"
 404              		.file 15 "/usr/include/newlib/c++/9.2.1/cstdint"
 405              		.file 16 "/usr/include/newlib/c++/9.2.1/type_traits"
 406              		.file 17 "/usr/include/newlib/c++/9.2.1/bits/stl_pair.h"
 407              		.file 18 "/usr/include/newlib/c++/9.2.1/debug/debug.h"
 408              		.file 19 "/usr/include/newlib/c++/9.2.1/arm-none-eabi/thumb/v7e-m+dp/hard/bits/c++config.h"
 409              		.file 20 "/usr/include/newlib/c++/9.2.1/bits/algorithmfwd.h"
 410              		.file 21 "/usr/include/newlib/c++/9.2.1/bits/exception_ptr.h"
 411              		.file 22 "/usr/include/newlib/c++/9.2.1/new"
 412              		.file 23 "/usr/include/newlib/c++/9.2.1/cstdarg"
 413              		.file 24 "/usr/include/newlib/c++/9.2.1/cstdio"
 414              		.file 25 "/usr/include/newlib/c++/9.2.1/bits/predefined_ops.h"
 415              		.file 26 "/usr/include/newlib/c++/9.2.1/ext/numeric_traits.h"
 416              		.file 27 "/usr/include/newlib/sys/_types.h"
 417              		.file 28 "<built-in>"
 418              		.file 29 "/usr/include/newlib/sys/reent.h"
 419              		.file 30 "/usr/include/newlib/sys/lock.h"
 420              		.file 31 "/usr/include/newlib/math.h"
 421              		.file 32 "/usr/include/newlib/stdlib.h"
 422              		.file 33 "/usr/include/newlib/c++/9.2.1/math.h"
 423              		.file 34 "../../libdaisy/Drivers/STM32H7xx_HAL_Driver/Inc/stm32h7xx_hal_def.h"
 424              		.file 35 "../../libdaisy/Drivers/STM32H7xx_HAL_Driver/Inc/stm32h7xx_hal_flash.h"
 425              		.file 36 "/usr/lib/gcc/arm-none-eabi/9.2.1/include/stdarg.h"
 426              		.file 37 "/usr/include/newlib/stdio.h"
 427              		.file 38 "/usr/include/newlib/c++/9.2.1/stdlib.h"
 428              		.file 39 "../../libdaisy/src/daisy_core.h"
 429              		.file 40 "../../libdaisy/src/per/tim.h"
 430              		.file 41 "../../libdaisy/src/per/sai.h"
 431              		.file 42 "../../libdaisy/src/util/wav_format.h"
 432              		.file 43 "../../libdaisy/src/per/qspi.h"
ARM GAS  /tmp/ccGydHEK.s 			page 16


 433              		.file 44 "../../libdaisy/src/per/gpio.h"
 434              		.file 45 "../../libdaisy/src/dev/sdram.h"
 435              		.file 46 "/usr/include/newlib/sys/unistd.h"
 436              		.file 47 "../../libdaisy/src/util/oled_fonts.h"
 437              		.file 48 "../../libdaisy/Middlewares/Third_Party/FatFs/src/integer.h"
 438              		.file 49 "../../libdaisy/Middlewares/Third_Party/FatFs/src/ff.h"
 439              		.file 50 "../../libdaisy/Middlewares/Third_Party/FatFs/src/diskio.h"
 440              		.file 51 "../../libdaisy/Middlewares/Third_Party/FatFs/src/ff_gen_drv.h"
 441              		.file 52 "../../libdaisy/src/util/sd_diskio.h"
 442              		.file 53 "../../libdaisy/src/sys/fatfs.h"
 443              		.file 54 "../../libdaisy/src/dev/sr_595.h"
 444              		.file 55 "/usr/include/newlib/string.h"
ARM GAS  /tmp/ccGydHEK.s 			page 17

