ARM GAS  /tmp/cc8Vnvvx.s 			page 1


   1              		.cpu cortex-m7
   2              		.eabi_attribute 28, 1
   3              		.eabi_attribute 20, 1
   4              		.eabi_attribute 21, 1
   5              		.eabi_attribute 23, 3
   6              		.eabi_attribute 24, 1
   7              		.eabi_attribute 25, 1
   8              		.eabi_attribute 26, 1
   9              		.eabi_attribute 30, 2
  10              		.eabi_attribute 34, 1
  11              		.eabi_attribute 18, 4
  12              		.file	"samplehold.cpp"
  13              		.text
  14              	.Ltext0:
  15              		.cfi_sections	.debug_frame
  16              		.section	.text._ZN7daisysp5AdEnvD2Ev,"axG",%progbits,_ZN7daisysp5AdEnvD5Ev,comdat
  17              		.align	1
  18              		.p2align 2,,3
  19              		.weak	_ZN7daisysp5AdEnvD2Ev
  20              		.arch armv7e-m
  21              		.syntax unified
  22              		.thumb
  23              		.thumb_func
  24              		.fpu fpv5-d16
  26              	_ZN7daisysp5AdEnvD2Ev:
  27              	.LVL0:
  28              	.LFB548:
  29              		.file 1 "../../DaisySP/Source/Control/adenv.h"
   1:../../DaisySP/Source/Control/adenv.h **** #pragma once
   2:../../DaisySP/Source/Control/adenv.h **** #ifndef ADENV_H
   3:../../DaisySP/Source/Control/adenv.h **** #define ADENV_H
   4:../../DaisySP/Source/Control/adenv.h **** #include <stdint.h>
   5:../../DaisySP/Source/Control/adenv.h **** #ifdef __cplusplus
   6:../../DaisySP/Source/Control/adenv.h **** 
   7:../../DaisySP/Source/Control/adenv.h **** namespace daisysp
   8:../../DaisySP/Source/Control/adenv.h **** {
   9:../../DaisySP/Source/Control/adenv.h **** /** Distinct stages that the phase of the envelope can be located in.
  10:../../DaisySP/Source/Control/adenv.h ****     @see AdEnv
  11:../../DaisySP/Source/Control/adenv.h **** */
  12:../../DaisySP/Source/Control/adenv.h **** enum AdEnvSegment
  13:../../DaisySP/Source/Control/adenv.h **** {
  14:../../DaisySP/Source/Control/adenv.h ****     /** located at phase location 0, and not currently running */
  15:../../DaisySP/Source/Control/adenv.h ****     ADENV_SEG_IDLE,
  16:../../DaisySP/Source/Control/adenv.h ****     /** First segment of envelope where phase moves from MIN value to MAX value */
  17:../../DaisySP/Source/Control/adenv.h ****     ADENV_SEG_ATTACK,
  18:../../DaisySP/Source/Control/adenv.h ****     /** Second segment of envelope where phase moves from MAX to MIN value */
  19:../../DaisySP/Source/Control/adenv.h ****     ADENV_SEG_DECAY,
  20:../../DaisySP/Source/Control/adenv.h ****     /** The final segment of the envelope (currently decay) */
  21:../../DaisySP/Source/Control/adenv.h ****     ADENV_SEG_LAST,
  22:../../DaisySP/Source/Control/adenv.h **** };
  23:../../DaisySP/Source/Control/adenv.h **** 
  24:../../DaisySP/Source/Control/adenv.h **** /** Trigger-able envelope with adjustable min/max, and independent per-segment time control.
  25:../../DaisySP/Source/Control/adenv.h **** 
  26:../../DaisySP/Source/Control/adenv.h ****     \author shensley
  27:../../DaisySP/Source/Control/adenv.h ****     \todo - Add Cycling
  28:../../DaisySP/Source/Control/adenv.h ****     \todo - Implement Curve (its only linear for now).
  29:../../DaisySP/Source/Control/adenv.h ****     \todo - Maybe make this an ADsr_ that has AD/AR/Asr_ modes.
ARM GAS  /tmp/cc8Vnvvx.s 			page 2


  30:../../DaisySP/Source/Control/adenv.h ****  */
  31:../../DaisySP/Source/Control/adenv.h **** class AdEnv
  32:../../DaisySP/Source/Control/adenv.h **** {
  33:../../DaisySP/Source/Control/adenv.h ****   public:
  34:../../DaisySP/Source/Control/adenv.h ****     AdEnv() {}
  35:../../DaisySP/Source/Control/adenv.h ****     ~AdEnv() {}
  30              		.loc 1 35 5 view -0
  31              		.cfi_startproc
  32              		@ args = 0, pretend = 0, frame = 0
  33              		@ frame_needed = 0, uses_anonymous_args = 0
  34              		@ link register save eliminated.
  35              		.loc 1 35 15 is_stmt 0 view .LVU1
  36 0000 7047     		bx	lr
  37              		.cfi_endproc
  38              	.LFE548:
  40              		.weak	_ZN7daisysp5AdEnvD1Ev
  41              		.thumb_set _ZN7daisysp5AdEnvD1Ev,_ZN7daisysp5AdEnvD2Ev
  42 0002 00BF     		.section	.text._ZN7daisysp10OscillatorD2Ev,"axG",%progbits,_ZN7daisysp10OscillatorD5Ev,comdat
  43              		.align	1
  44              		.p2align 2,,3
  45              		.weak	_ZN7daisysp10OscillatorD2Ev
  46              		.syntax unified
  47              		.thumb
  48              		.thumb_func
  49              		.fpu fpv5-d16
  51              	_ZN7daisysp10OscillatorD2Ev:
  52              	.LVL1:
  53              	.LFB2797:
  54              		.file 2 "../../DaisySP/Source/Synthesis/oscillator.h"
   1:../../DaisySP/Source/Synthesis/oscillator.h **** #pragma once
   2:../../DaisySP/Source/Synthesis/oscillator.h **** #ifndef DSY_OSCILLATOR_H
   3:../../DaisySP/Source/Synthesis/oscillator.h **** #define DSY_OSCILLATOR_H
   4:../../DaisySP/Source/Synthesis/oscillator.h **** #include <stdint.h>
   5:../../DaisySP/Source/Synthesis/oscillator.h **** #include "Utility/dsp.h"
   6:../../DaisySP/Source/Synthesis/oscillator.h **** #ifdef __cplusplus
   7:../../DaisySP/Source/Synthesis/oscillator.h **** 
   8:../../DaisySP/Source/Synthesis/oscillator.h **** namespace daisysp
   9:../../DaisySP/Source/Synthesis/oscillator.h **** {
  10:../../DaisySP/Source/Synthesis/oscillator.h **** /** Synthesis of several waveforms, including polyBLEP bandlimited waveforms.
  11:../../DaisySP/Source/Synthesis/oscillator.h **** */
  12:../../DaisySP/Source/Synthesis/oscillator.h **** class Oscillator
  13:../../DaisySP/Source/Synthesis/oscillator.h **** {
  14:../../DaisySP/Source/Synthesis/oscillator.h ****   public:
  15:../../DaisySP/Source/Synthesis/oscillator.h ****     Oscillator() {}
  16:../../DaisySP/Source/Synthesis/oscillator.h ****     ~Oscillator() {}
  55              		.loc 2 16 5 is_stmt 1 view -0
  56              		.cfi_startproc
  57              		@ args = 0, pretend = 0, frame = 0
  58              		@ frame_needed = 0, uses_anonymous_args = 0
  59              		@ link register save eliminated.
  60              		.loc 2 16 20 is_stmt 0 view .LVU3
  61 0000 7047     		bx	lr
  62              		.cfi_endproc
  63              	.LFE2797:
  65              		.weak	_ZN7daisysp10OscillatorD1Ev
  66              		.thumb_set _ZN7daisysp10OscillatorD1Ev,_ZN7daisysp10OscillatorD2Ev
  67 0002 00BF     		.section	.text._ZN7daisysp10WhiteNoiseD2Ev,"axG",%progbits,_ZN7daisysp10WhiteNoiseD5Ev,comdat
ARM GAS  /tmp/cc8Vnvvx.s 			page 3


  68              		.align	1
  69              		.p2align 2,,3
  70              		.weak	_ZN7daisysp10WhiteNoiseD2Ev
  71              		.syntax unified
  72              		.thumb
  73              		.thumb_func
  74              		.fpu fpv5-d16
  76              	_ZN7daisysp10WhiteNoiseD2Ev:
  77              	.LVL2:
  78              	.LFB3188:
  79              		.file 3 "../../DaisySP/Source/Noise/whitenoise.h"
   1:../../DaisySP/Source/Noise/whitenoise.h **** #pragma once
   2:../../DaisySP/Source/Noise/whitenoise.h **** #ifndef DSY_WHITENOISE_H
   3:../../DaisySP/Source/Noise/whitenoise.h **** #define DSY_WHITENOISE_H
   4:../../DaisySP/Source/Noise/whitenoise.h **** #include <stdint.h>
   5:../../DaisySP/Source/Noise/whitenoise.h **** #ifdef __cplusplus
   6:../../DaisySP/Source/Noise/whitenoise.h **** namespace daisysp
   7:../../DaisySP/Source/Noise/whitenoise.h **** {
   8:../../DaisySP/Source/Noise/whitenoise.h **** /** fast white noise generator
   9:../../DaisySP/Source/Noise/whitenoise.h **** 
  10:../../DaisySP/Source/Noise/whitenoise.h ****     I think this came from musicdsp.org at some point
  11:../../DaisySP/Source/Noise/whitenoise.h **** */
  12:../../DaisySP/Source/Noise/whitenoise.h **** class WhiteNoise
  13:../../DaisySP/Source/Noise/whitenoise.h **** {
  14:../../DaisySP/Source/Noise/whitenoise.h ****   public:
  15:../../DaisySP/Source/Noise/whitenoise.h ****     WhiteNoise() {}
  16:../../DaisySP/Source/Noise/whitenoise.h ****     ~WhiteNoise() {}
  80              		.loc 3 16 5 is_stmt 1 view -0
  81              		.cfi_startproc
  82              		@ args = 0, pretend = 0, frame = 0
  83              		@ frame_needed = 0, uses_anonymous_args = 0
  84              		@ link register save eliminated.
  85              		.loc 3 16 20 is_stmt 0 view .LVU5
  86 0000 7047     		bx	lr
  87              		.cfi_endproc
  88              	.LFE3188:
  90              		.weak	_ZN7daisysp10WhiteNoiseD1Ev
  91              		.thumb_set _ZN7daisysp10WhiteNoiseD1Ev,_ZN7daisysp10WhiteNoiseD2Ev
  92 0002 00BF     		.section	.text._ZN7daisysp5MetroD2Ev,"axG",%progbits,_ZN7daisysp5MetroD5Ev,comdat
  93              		.align	1
  94              		.p2align 2,,3
  95              		.weak	_ZN7daisysp5MetroD2Ev
  96              		.syntax unified
  97              		.thumb
  98              		.thumb_func
  99              		.fpu fpv5-d16
 101              	_ZN7daisysp5MetroD2Ev:
 102              	.LVL3:
 103              	.LFB3332:
 104              		.file 4 "../../DaisySP/Source/Utility/metro.h"
   1:../../DaisySP/Source/Utility/metro.h **** #pragma once
   2:../../DaisySP/Source/Utility/metro.h **** #ifndef DSY_METRO_H
   3:../../DaisySP/Source/Utility/metro.h **** #define DSY_METRO_H
   4:../../DaisySP/Source/Utility/metro.h **** #include <stdint.h>
   5:../../DaisySP/Source/Utility/metro.h **** #ifdef __cplusplus
   6:../../DaisySP/Source/Utility/metro.h **** 
   7:../../DaisySP/Source/Utility/metro.h **** namespace daisysp
ARM GAS  /tmp/cc8Vnvvx.s 			page 4


   8:../../DaisySP/Source/Utility/metro.h **** {
   9:../../DaisySP/Source/Utility/metro.h **** /** Creates a clock signal at a specific frequency.
  10:../../DaisySP/Source/Utility/metro.h **** */
  11:../../DaisySP/Source/Utility/metro.h **** class Metro
  12:../../DaisySP/Source/Utility/metro.h **** {
  13:../../DaisySP/Source/Utility/metro.h ****   public:
  14:../../DaisySP/Source/Utility/metro.h ****     Metro() {}
  15:../../DaisySP/Source/Utility/metro.h ****     ~Metro() {}
 105              		.loc 4 15 5 is_stmt 1 view -0
 106              		.cfi_startproc
 107              		@ args = 0, pretend = 0, frame = 0
 108              		@ frame_needed = 0, uses_anonymous_args = 0
 109              		@ link register save eliminated.
 110              		.loc 4 15 15 is_stmt 0 view .LVU7
 111 0000 7047     		bx	lr
 112              		.cfi_endproc
 113              	.LFE3332:
 115              		.weak	_ZN7daisysp5MetroD1Ev
 116              		.thumb_set _ZN7daisysp5MetroD1Ev,_ZN7daisysp5MetroD2Ev
 117 0002 00BF     		.section	.text._ZN7daisysp10SampleHoldD2Ev,"axG",%progbits,_ZN7daisysp10SampleHoldD5Ev,comdat
 118              		.align	1
 119              		.p2align 2,,3
 120              		.weak	_ZN7daisysp10SampleHoldD2Ev
 121              		.syntax unified
 122              		.thumb
 123              		.thumb_func
 124              		.fpu fpv5-d16
 126              	_ZN7daisysp10SampleHoldD2Ev:
 127              	.LVL4:
 128              	.LFB3348:
 129              		.file 5 "../../DaisySP/Source/Utility/samplehold.h"
   1:../../DaisySP/Source/Utility/samplehold.h **** #pragma once
   2:../../DaisySP/Source/Utility/samplehold.h **** #ifndef DSY_SAMPLEHOLD_H
   3:../../DaisySP/Source/Utility/samplehold.h **** #define DSY_SAMPLEHOLD_H
   4:../../DaisySP/Source/Utility/samplehold.h **** 
   5:../../DaisySP/Source/Utility/samplehold.h **** #include <stdint.h>
   6:../../DaisySP/Source/Utility/samplehold.h **** #ifdef __cplusplus
   7:../../DaisySP/Source/Utility/samplehold.h **** 
   8:../../DaisySP/Source/Utility/samplehold.h **** namespace daisysp
   9:../../DaisySP/Source/Utility/samplehold.h **** {
  10:../../DaisySP/Source/Utility/samplehold.h **** /** Dual track and hold / Sample and hold module. \n 
  11:../../DaisySP/Source/Utility/samplehold.h ****     Ported from soundpipe by Ben Sergentanis, June 2020.
  12:../../DaisySP/Source/Utility/samplehold.h ****     @author Paul Batchelor
  13:../../DaisySP/Source/Utility/samplehold.h ****     @date   2015
  14:../../DaisySP/Source/Utility/samplehold.h **** */
  15:../../DaisySP/Source/Utility/samplehold.h **** class SampleHold
  16:../../DaisySP/Source/Utility/samplehold.h **** {
  17:../../DaisySP/Source/Utility/samplehold.h ****   public:
  18:../../DaisySP/Source/Utility/samplehold.h ****     SampleHold() {}
  19:../../DaisySP/Source/Utility/samplehold.h ****     ~SampleHold() {}
 130              		.loc 5 19 5 is_stmt 1 view -0
 131              		.cfi_startproc
 132              		@ args = 0, pretend = 0, frame = 0
 133              		@ frame_needed = 0, uses_anonymous_args = 0
 134              		@ link register save eliminated.
 135              		.loc 5 19 20 is_stmt 0 view .LVU9
 136 0000 7047     		bx	lr
ARM GAS  /tmp/cc8Vnvvx.s 			page 5


 137              		.cfi_endproc
 138              	.LFE3348:
 140              		.weak	_ZN7daisysp10SampleHoldD1Ev
 141              		.thumb_set _ZN7daisysp10SampleHoldD1Ev,_ZN7daisysp10SampleHoldD2Ev
 142 0002 00BF     		.section	.text._ZN5daisy9DaisySeedD2Ev,"axG",%progbits,_ZN5daisy9DaisySeedD5Ev,comdat
 143              		.align	1
 144              		.p2align 2,,3
 145              		.weak	_ZN5daisy9DaisySeedD2Ev
 146              		.syntax unified
 147              		.thumb
 148              		.thumb_func
 149              		.fpu fpv5-d16
 151              	_ZN5daisy9DaisySeedD2Ev:
 152              	.LVL5:
 153              	.LFB4207:
 154              		.file 6 "../../libdaisy/src/daisy_seed.h"
   1:../../libdaisy/src/daisy_seed.h **** #pragma once
   2:../../libdaisy/src/daisy_seed.h **** #ifndef DSY_SEED_H
   3:../../libdaisy/src/daisy_seed.h **** #define DSY_SEED_H
   4:../../libdaisy/src/daisy_seed.h **** 
   5:../../libdaisy/src/daisy_seed.h **** #include "daisy.h"
   6:../../libdaisy/src/daisy_seed.h **** 
   7:../../libdaisy/src/daisy_seed.h **** //Uncomment this out if you're still using the rev2 hardware
   8:../../libdaisy/src/daisy_seed.h **** //#define SEED_REV2
   9:../../libdaisy/src/daisy_seed.h **** 
  10:../../libdaisy/src/daisy_seed.h **** namespace daisy
  11:../../libdaisy/src/daisy_seed.h **** {
  12:../../libdaisy/src/daisy_seed.h **** /**
  13:../../libdaisy/src/daisy_seed.h ****    @brief This is the higher-level interface for the Daisy board. \n 
  14:../../libdaisy/src/daisy_seed.h ****     All basic peripheral configuration/initialization is setup here. \n
  15:../../libdaisy/src/daisy_seed.h **** 
  16:../../libdaisy/src/daisy_seed.h ****    @ingroup boards
  17:../../libdaisy/src/daisy_seed.h **** */
  18:../../libdaisy/src/daisy_seed.h **** class DaisySeed
  19:../../libdaisy/src/daisy_seed.h **** {
  20:../../libdaisy/src/daisy_seed.h ****   public:
  21:../../libdaisy/src/daisy_seed.h ****     DaisySeed() {}
  22:../../libdaisy/src/daisy_seed.h ****     ~DaisySeed() {}
 155              		.loc 6 22 5 is_stmt 1 view -0
 156              		.cfi_startproc
 157              		@ args = 0, pretend = 0, frame = 0
 158              		@ frame_needed = 0, uses_anonymous_args = 0
 159              		@ link register save eliminated.
 160              	.LBB111:
 161              	.LBI111:
 162              		.file 7 "../../libdaisy/src/sys/system.h"
   1:../../libdaisy/src/sys/system.h **** #ifndef DSY_SYSTEM_H
   2:../../libdaisy/src/sys/system.h **** #define DSY_SYSTEM_H
   3:../../libdaisy/src/sys/system.h **** 
   4:../../libdaisy/src/sys/system.h **** #ifndef UNIT_TEST // for unit tests, a dummy implementation is provided below
   5:../../libdaisy/src/sys/system.h **** 
   6:../../libdaisy/src/sys/system.h **** #include <cstdint>
   7:../../libdaisy/src/sys/system.h **** #include "per/tim.h"
   8:../../libdaisy/src/sys/system.h **** 
   9:../../libdaisy/src/sys/system.h **** namespace daisy
  10:../../libdaisy/src/sys/system.h **** {
  11:../../libdaisy/src/sys/system.h **** /** A handle for interacting with the Core System. 
ARM GAS  /tmp/cc8Vnvvx.s 			page 6


  12:../../libdaisy/src/sys/system.h ****  ** This includes the Clock tree, MPU, global DMA initialization,
  13:../../libdaisy/src/sys/system.h ****  ** cache handling, and any other necessary global initiailzation
  14:../../libdaisy/src/sys/system.h ****  **
  15:../../libdaisy/src/sys/system.h ****  ** @author shensley
  16:../../libdaisy/src/sys/system.h ****  ** @addtogroup system
  17:../../libdaisy/src/sys/system.h ****  */
  18:../../libdaisy/src/sys/system.h **** class System
  19:../../libdaisy/src/sys/system.h **** {
  20:../../libdaisy/src/sys/system.h ****   public:
  21:../../libdaisy/src/sys/system.h ****     /** Contains settings for initializing the System */
  22:../../libdaisy/src/sys/system.h ****     struct Config
  23:../../libdaisy/src/sys/system.h ****     {
  24:../../libdaisy/src/sys/system.h ****         /** Specifies the system clock frequency that feeds APB/AHB clocks, etc. */
  25:../../libdaisy/src/sys/system.h ****         enum class SysClkFreq
  26:../../libdaisy/src/sys/system.h ****         {
  27:../../libdaisy/src/sys/system.h ****             FREQ_400MHZ,
  28:../../libdaisy/src/sys/system.h ****             FREQ_480MHZ,
  29:../../libdaisy/src/sys/system.h ****         };
  30:../../libdaisy/src/sys/system.h **** 
  31:../../libdaisy/src/sys/system.h ****         /** Method to call on the struct to set to defaults
  32:../../libdaisy/src/sys/system.h ****          ** CPU Freq set to 400MHz
  33:../../libdaisy/src/sys/system.h ****          ** Cache Enabled 
  34:../../libdaisy/src/sys/system.h ****          ** */
  35:../../libdaisy/src/sys/system.h ****         void Defaults()
  36:../../libdaisy/src/sys/system.h ****         {
  37:../../libdaisy/src/sys/system.h ****             cpu_freq   = SysClkFreq::FREQ_400MHZ;
  38:../../libdaisy/src/sys/system.h ****             use_dcache = true;
  39:../../libdaisy/src/sys/system.h ****             use_icache = true;
  40:../../libdaisy/src/sys/system.h ****         }
  41:../../libdaisy/src/sys/system.h **** 
  42:../../libdaisy/src/sys/system.h ****         /** Method to call on the struct to set to boost mode:
  43:../../libdaisy/src/sys/system.h ****          ** CPU Freq set to 480MHz
  44:../../libdaisy/src/sys/system.h ****          ** Cache Enabled 
  45:../../libdaisy/src/sys/system.h ****          ** */
  46:../../libdaisy/src/sys/system.h ****         void Boost()
  47:../../libdaisy/src/sys/system.h ****         {
  48:../../libdaisy/src/sys/system.h ****             cpu_freq   = SysClkFreq::FREQ_480MHZ;
  49:../../libdaisy/src/sys/system.h ****             use_dcache = true;
  50:../../libdaisy/src/sys/system.h ****             use_icache = true;
  51:../../libdaisy/src/sys/system.h ****         }
  52:../../libdaisy/src/sys/system.h **** 
  53:../../libdaisy/src/sys/system.h ****         SysClkFreq cpu_freq;
  54:../../libdaisy/src/sys/system.h ****         bool       use_dcache;
  55:../../libdaisy/src/sys/system.h ****         bool       use_icache;
  56:../../libdaisy/src/sys/system.h ****     };
  57:../../libdaisy/src/sys/system.h **** 
  58:../../libdaisy/src/sys/system.h ****     System() {}
  59:../../libdaisy/src/sys/system.h ****     ~System() {}
 163              		.loc 7 59 5 view .LVU11
 164              		.loc 7 59 5 is_stmt 0 view .LVU12
 165              	.LBE111:
 166              	.LBB112:
 167              	.LBI112:
 168              		.file 8 "../../libdaisy/src/hid/usb.h"
   1:../../libdaisy/src/hid/usb.h **** #pragma once
   2:../../libdaisy/src/hid/usb.h **** #ifndef DSY_HID_USB_H
   3:../../libdaisy/src/hid/usb.h **** #define DSY_HID_USB_H
ARM GAS  /tmp/cc8Vnvvx.s 			page 7


   4:../../libdaisy/src/hid/usb.h **** #include <stdint.h>
   5:../../libdaisy/src/hid/usb.h **** #include <stdlib.h>
   6:../../libdaisy/src/hid/usb.h **** 
   7:../../libdaisy/src/hid/usb.h **** namespace daisy
   8:../../libdaisy/src/hid/usb.h **** /** @addtogroup externals
   9:../../libdaisy/src/hid/usb.h ****     @{
  10:../../libdaisy/src/hid/usb.h **** */
  11:../../libdaisy/src/hid/usb.h **** 
  12:../../libdaisy/src/hid/usb.h **** {
  13:../../libdaisy/src/hid/usb.h **** /** 
  14:../../libdaisy/src/hid/usb.h ****     @brief Interface for initializing and using the USB Peripherals on the daisy
  15:../../libdaisy/src/hid/usb.h ****     @author Stephen Hensley
  16:../../libdaisy/src/hid/usb.h ****     @date December 2019
  17:../../libdaisy/src/hid/usb.h **** */
  18:../../libdaisy/src/hid/usb.h **** class UsbHandle
  19:../../libdaisy/src/hid/usb.h **** {
  20:../../libdaisy/src/hid/usb.h ****   public:
  21:../../libdaisy/src/hid/usb.h ****     /** Return values for USBHandle Functions */
  22:../../libdaisy/src/hid/usb.h ****     enum class Result
  23:../../libdaisy/src/hid/usb.h ****     {
  24:../../libdaisy/src/hid/usb.h ****         OK,
  25:../../libdaisy/src/hid/usb.h ****         ERR,
  26:../../libdaisy/src/hid/usb.h ****     };
  27:../../libdaisy/src/hid/usb.h **** 
  28:../../libdaisy/src/hid/usb.h ****     /** Specified which of the two USB Peripherals to initialize. */
  29:../../libdaisy/src/hid/usb.h ****     enum UsbPeriph
  30:../../libdaisy/src/hid/usb.h ****     {
  31:../../libdaisy/src/hid/usb.h ****         FS_INTERNAL, /**< Internal pin */
  32:../../libdaisy/src/hid/usb.h ****         FS_EXTERNAL, /**< FS External D+ pin is Pin 38 (GPIO32). FS External D- pin is Pin 37 (GPIO
  33:../../libdaisy/src/hid/usb.h ****         FS_BOTH,     /**< Both */
  34:../../libdaisy/src/hid/usb.h ****     };
  35:../../libdaisy/src/hid/usb.h **** 
  36:../../libdaisy/src/hid/usb.h **** 
  37:../../libdaisy/src/hid/usb.h ****     /** Function called upon reception of a buffer */
  38:../../libdaisy/src/hid/usb.h ****     typedef void (*ReceiveCallback)(uint8_t* buff, uint32_t* len);
  39:../../libdaisy/src/hid/usb.h **** 
  40:../../libdaisy/src/hid/usb.h ****     UsbHandle() {}
  41:../../libdaisy/src/hid/usb.h **** 
  42:../../libdaisy/src/hid/usb.h ****     ~UsbHandle() {}
 169              		.loc 8 42 5 is_stmt 1 view .LVU13
 170              		.loc 8 42 5 is_stmt 0 view .LVU14
 171              	.LBE112:
 172              	.LBB113:
 173              	.LBI113:
 174              		.file 9 "../../libdaisy/src/per/adc.h"
   1:../../libdaisy/src/per/adc.h **** #pragma once
   2:../../libdaisy/src/per/adc.h **** #ifndef DSY_ADC_H
   3:../../libdaisy/src/per/adc.h **** #define DSY_ADC_H /**< Macro */
   4:../../libdaisy/src/per/adc.h **** #include <stdint.h>
   5:../../libdaisy/src/per/adc.h **** #include <stdlib.h>
   6:../../libdaisy/src/per/adc.h **** #include "daisy_core.h"
   7:../../libdaisy/src/per/adc.h **** #include "per/gpio.h"
   8:../../libdaisy/src/per/adc.h **** 
   9:../../libdaisy/src/per/adc.h **** #define DSY_ADC_MAX_CHANNELS 14 /**< Maximum number of ADC channels */
  10:../../libdaisy/src/per/adc.h **** 
  11:../../libdaisy/src/per/adc.h **** namespace daisy
  12:../../libdaisy/src/per/adc.h **** {
ARM GAS  /tmp/cc8Vnvvx.s 			page 8


  13:../../libdaisy/src/per/adc.h **** /** @addtogroup analog_digital_conversion
  14:../../libdaisy/src/per/adc.h ****     @{
  15:../../libdaisy/src/per/adc.h **** */
  16:../../libdaisy/src/per/adc.h **** 
  17:../../libdaisy/src/per/adc.h **** /* While there may not be many configuration options here,
  18:../../libdaisy/src/per/adc.h **** using a struct like this allows us to add more configuration
  19:../../libdaisy/src/per/adc.h **** later without breaking existing functionality.
  20:../../libdaisy/src/per/adc.h **** */
  21:../../libdaisy/src/per/adc.h **** 
  22:../../libdaisy/src/per/adc.h **** /** Configuration Structure for a given channel */
  23:../../libdaisy/src/per/adc.h **** struct AdcChannelConfig
  24:../../libdaisy/src/per/adc.h **** {
  25:../../libdaisy/src/per/adc.h ****     /** Which pin to use for multiplexing */
  26:../../libdaisy/src/per/adc.h ****     enum MuxPin
  27:../../libdaisy/src/per/adc.h ****     {
  28:../../libdaisy/src/per/adc.h ****         MUX_SEL_0,    /**< & */
  29:../../libdaisy/src/per/adc.h ****         MUX_SEL_1,    /**< & */
  30:../../libdaisy/src/per/adc.h ****         MUX_SEL_2,    /**< & */
  31:../../libdaisy/src/per/adc.h ****         MUX_SEL_LAST, /**< & */
  32:../../libdaisy/src/per/adc.h ****     };
  33:../../libdaisy/src/per/adc.h **** 
  34:../../libdaisy/src/per/adc.h ****     /** Initializes a single ADC pin as an ADC. 
  35:../../libdaisy/src/per/adc.h ****     \param pin Pin to init.
  36:../../libdaisy/src/per/adc.h ****      */
  37:../../libdaisy/src/per/adc.h ****     void InitSingle(dsy_gpio_pin pin);
  38:../../libdaisy/src/per/adc.h **** 
  39:../../libdaisy/src/per/adc.h ****     /** 
  40:../../libdaisy/src/per/adc.h ****     Initializes a single ADC pin as a Multiplexed ADC.
  41:../../libdaisy/src/per/adc.h ****     Requires a CD405X Multiplexer connected to the pin.
  42:../../libdaisy/src/per/adc.h ****     You only need to supply the mux pins that are required,
  43:../../libdaisy/src/per/adc.h ****     e.g. a 4052 mux would only require mux_0 and mux_1.
  44:../../libdaisy/src/per/adc.h ****     Internal Callbacks handle the pin addressing.
  45:../../libdaisy/src/per/adc.h ****     \param mux_channels must be 1-8
  46:../../libdaisy/src/per/adc.h ****     \param mux_0 First mux pin
  47:../../libdaisy/src/per/adc.h ****     \param mux_1 Second mux pin
  48:../../libdaisy/src/per/adc.h ****     \param mux_2 Third mux pin
  49:../../libdaisy/src/per/adc.h ****     \param adc_pin &
  50:../../libdaisy/src/per/adc.h ****     */
  51:../../libdaisy/src/per/adc.h ****     void InitMux(dsy_gpio_pin adc_pin,
  52:../../libdaisy/src/per/adc.h ****                  size_t       mux_channels,
  53:../../libdaisy/src/per/adc.h ****                  dsy_gpio_pin mux_0,
  54:../../libdaisy/src/per/adc.h ****                  dsy_gpio_pin mux_1 = {DSY_GPIOX, 0},
  55:../../libdaisy/src/per/adc.h ****                  dsy_gpio_pin mux_2 = {DSY_GPIOX, 0});
  56:../../libdaisy/src/per/adc.h **** 
  57:../../libdaisy/src/per/adc.h ****     dsy_gpio pin_;                   /**< & */
  58:../../libdaisy/src/per/adc.h ****     dsy_gpio mux_pin_[MUX_SEL_LAST]; /**< & */
  59:../../libdaisy/src/per/adc.h ****     uint8_t  mux_channels_;          /**< & */
  60:../../libdaisy/src/per/adc.h **** };
  61:../../libdaisy/src/per/adc.h **** 
  62:../../libdaisy/src/per/adc.h **** /**
  63:../../libdaisy/src/per/adc.h ****    Handler for analog to digital conversion
  64:../../libdaisy/src/per/adc.h **** */
  65:../../libdaisy/src/per/adc.h **** class AdcHandle
  66:../../libdaisy/src/per/adc.h **** {
  67:../../libdaisy/src/per/adc.h ****   public:
  68:../../libdaisy/src/per/adc.h ****     /** Supported oversampling amounts */
  69:../../libdaisy/src/per/adc.h ****     enum OverSampling
ARM GAS  /tmp/cc8Vnvvx.s 			page 9


  70:../../libdaisy/src/per/adc.h ****     {
  71:../../libdaisy/src/per/adc.h ****         OVS_NONE, /**< & */
  72:../../libdaisy/src/per/adc.h ****         OVS_4,    /**< & */
  73:../../libdaisy/src/per/adc.h ****         OVS_8,    /**< & */
  74:../../libdaisy/src/per/adc.h ****         OVS_16,   /**< & */
  75:../../libdaisy/src/per/adc.h ****         OVS_32,   /**< & */
  76:../../libdaisy/src/per/adc.h ****         OVS_64,   /**< & */
  77:../../libdaisy/src/per/adc.h ****         OVS_128,  /**< & */
  78:../../libdaisy/src/per/adc.h ****         OVS_256,  /**< & */
  79:../../libdaisy/src/per/adc.h ****         OVS_512,  /**< & */
  80:../../libdaisy/src/per/adc.h ****         OVS_1024, /**< & */
  81:../../libdaisy/src/per/adc.h ****         OVS_LAST, /**< & */
  82:../../libdaisy/src/per/adc.h ****     };
  83:../../libdaisy/src/per/adc.h **** 
  84:../../libdaisy/src/per/adc.h ****     AdcHandle() {}
  85:../../libdaisy/src/per/adc.h ****     ~AdcHandle() {}
 175              		.loc 9 85 5 is_stmt 1 view .LVU15
 176              		.loc 9 85 5 is_stmt 0 view .LVU16
 177              	.LBE113:
 178              	.LBB114:
 179              	.LBI114:
 180              		.file 10 "../../libdaisy/src/hid/audio.h"
   1:../../libdaisy/src/hid/audio.h **** #ifndef DSY_AUDIO_H
   2:../../libdaisy/src/hid/audio.h **** #define DSY_AUDIO_H /**< & */
   3:../../libdaisy/src/hid/audio.h **** 
   4:../../libdaisy/src/hid/audio.h **** #include "per/sai.h"
   5:../../libdaisy/src/hid/audio.h **** 
   6:../../libdaisy/src/hid/audio.h **** namespace daisy
   7:../../libdaisy/src/hid/audio.h **** {
   8:../../libdaisy/src/hid/audio.h **** class AudioHandle
   9:../../libdaisy/src/hid/audio.h **** {
  10:../../libdaisy/src/hid/audio.h ****   public:
  11:../../libdaisy/src/hid/audio.h ****     /** Manually configurable details about the Audio Engine */
  12:../../libdaisy/src/hid/audio.h ****     /** TODO: Figure out how to get samplerate in here. */
  13:../../libdaisy/src/hid/audio.h ****     struct Config
  14:../../libdaisy/src/hid/audio.h ****     {
  15:../../libdaisy/src/hid/audio.h ****         size_t                        blocksize;
  16:../../libdaisy/src/hid/audio.h ****         SaiHandle::Config::SampleRate samplerate;
  17:../../libdaisy/src/hid/audio.h ****         float                         postgain;
  18:../../libdaisy/src/hid/audio.h ****     };
  19:../../libdaisy/src/hid/audio.h **** 
  20:../../libdaisy/src/hid/audio.h ****     enum class Result
  21:../../libdaisy/src/hid/audio.h ****     {
  22:../../libdaisy/src/hid/audio.h ****         OK,
  23:../../libdaisy/src/hid/audio.h ****         ERR,
  24:../../libdaisy/src/hid/audio.h ****     };
  25:../../libdaisy/src/hid/audio.h **** 
  26:../../libdaisy/src/hid/audio.h ****     /** Non-Interleaving input buffer
  27:../../libdaisy/src/hid/audio.h ****      * Buffer arranged by float[chn][sample] 
  28:../../libdaisy/src/hid/audio.h ****      * const so that the user can't modify the input
  29:../../libdaisy/src/hid/audio.h ****     */
  30:../../libdaisy/src/hid/audio.h ****     typedef const float* const* InputBuffer;
  31:../../libdaisy/src/hid/audio.h **** 
  32:../../libdaisy/src/hid/audio.h ****     /** Non-Interleaving output buffer
  33:../../libdaisy/src/hid/audio.h ****      * Arranged by float[chn][sample] 
  34:../../libdaisy/src/hid/audio.h ****     */
  35:../../libdaisy/src/hid/audio.h ****     typedef float** OutputBuffer;
ARM GAS  /tmp/cc8Vnvvx.s 			page 10


  36:../../libdaisy/src/hid/audio.h **** 
  37:../../libdaisy/src/hid/audio.h ****     /** Type for a Non-Interleaving audio callback 
  38:../../libdaisy/src/hid/audio.h ****    * Non-Interleaving audio callbacks in daisy will be of this type
  39:../../libdaisy/src/hid/audio.h ****   */
  40:../../libdaisy/src/hid/audio.h ****     typedef void (*AudioCallback)(InputBuffer  in,
  41:../../libdaisy/src/hid/audio.h ****                                   OutputBuffer out,
  42:../../libdaisy/src/hid/audio.h ****                                   size_t       size);
  43:../../libdaisy/src/hid/audio.h **** 
  44:../../libdaisy/src/hid/audio.h ****     /** Interleaving Input buffer
  45:../../libdaisy/src/hid/audio.h ****      ** audio is prepared as { L0, R0, L1, R1, . . . LN, RN }]
  46:../../libdaisy/src/hid/audio.h ****      ** this is const, as the user shouldn't modify it
  47:../../libdaisy/src/hid/audio.h ****     */
  48:../../libdaisy/src/hid/audio.h ****     typedef const float* InterleavingInputBuffer;
  49:../../libdaisy/src/hid/audio.h **** 
  50:../../libdaisy/src/hid/audio.h ****     /** Interleaving Output buffer 
  51:../../libdaisy/src/hid/audio.h ****      ** audio is prepared as { L0, R0, L1, R1, . . . LN, RN }
  52:../../libdaisy/src/hid/audio.h ****     */
  53:../../libdaisy/src/hid/audio.h ****     typedef float* InterleavingOutputBuffer;
  54:../../libdaisy/src/hid/audio.h **** 
  55:../../libdaisy/src/hid/audio.h ****     /** Interleaving Audio Callback 
  56:../../libdaisy/src/hid/audio.h ****    * Interleaving audio callbacks in daisy must be of this type
  57:../../libdaisy/src/hid/audio.h ****   */
  58:../../libdaisy/src/hid/audio.h ****     typedef void (*InterleavingAudioCallback)(InterleavingInputBuffer  in,
  59:../../libdaisy/src/hid/audio.h ****                                               InterleavingOutputBuffer out,
  60:../../libdaisy/src/hid/audio.h ****                                               size_t                   size);
  61:../../libdaisy/src/hid/audio.h **** 
  62:../../libdaisy/src/hid/audio.h ****     AudioHandle() : pimpl_(nullptr) {}
  63:../../libdaisy/src/hid/audio.h ****     ~AudioHandle() {}
 181              		.loc 10 63 5 is_stmt 1 view .LVU17
 182              		.loc 10 63 5 is_stmt 0 view .LVU18
 183              	.LBE114:
 184              		.loc 6 22 19 view .LVU19
 185 0000 7047     		bx	lr
 186              		.cfi_endproc
 187              	.LFE4207:
 189              		.weak	_ZN5daisy9DaisySeedD1Ev
 190              		.thumb_set _ZN5daisy9DaisySeedD1Ev,_ZN5daisy9DaisySeedD2Ev
 191 0002 00BF     		.section	.text._ZL13AudioCallbackPKfPfj,"ax",%progbits
 192              		.align	1
 193              		.p2align 2,,3
 194              		.syntax unified
 195              		.thumb
 196              		.thumb_func
 197              		.fpu fpv5-d16
 199              	_ZL13AudioCallbackPKfPfj:
 200              	.LVL6:
 201              	.LFB4212:
 202              		.file 11 "samplehold.cpp"
   1:samplehold.cpp **** #include "daisysp.h"
   2:samplehold.cpp **** #include "daisy_seed.h"
   3:samplehold.cpp **** 
   4:samplehold.cpp **** // Interleaved audio definitions
   5:samplehold.cpp **** #define LEFT (i)
   6:samplehold.cpp **** #define RIGHT (i + 1)
   7:samplehold.cpp **** 
   8:samplehold.cpp **** using namespace daisysp;
   9:samplehold.cpp **** using namespace daisy;
ARM GAS  /tmp/cc8Vnvvx.s 			page 11


  10:samplehold.cpp **** 
  11:samplehold.cpp **** static DaisySeed  seed;
  12:samplehold.cpp **** static Oscillator osc;
  13:samplehold.cpp **** static Metro      tick;
  14:samplehold.cpp **** static WhiteNoise noise;
  15:samplehold.cpp **** static AdEnv      env;
  16:samplehold.cpp **** static SampleHold sh;
  17:samplehold.cpp **** 
  18:samplehold.cpp **** float osc_out = 0;
  19:samplehold.cpp **** 
  20:samplehold.cpp **** static void AudioCallback(AudioHandle::InterleavingInputBuffer  in,
  21:samplehold.cpp ****                           AudioHandle::InterleavingOutputBuffer out,
  22:samplehold.cpp ****                           size_t                                size)
  23:samplehold.cpp **** {
 203              		.loc 11 23 1 is_stmt 1 view -0
 204              		.cfi_startproc
 205              		@ args = 0, pretend = 0, frame = 0
 206              		@ frame_needed = 0, uses_anonymous_args = 0
  24:samplehold.cpp ****     float osc_out, env_out;
 207              		.loc 11 24 5 view .LVU21
  25:samplehold.cpp ****     for(size_t i = 0; i < size; i += 2)
 208              		.loc 11 25 5 view .LVU22
 209              	.LBB115:
 210              		.loc 11 25 25 view .LVU23
 211 0000 002A     		cmp	r2, #0
 212 0002 60D0     		beq	.L17
 213 0004 013A     		subs	r2, r2, #1
 214              	.LVL7:
 215              		.loc 11 25 25 is_stmt 0 view .LVU24
 216              	.LBE115:
  23:samplehold.cpp ****     float osc_out, env_out;
 217              		.loc 11 23 1 view .LVU25
 218 0006 2DE9F843 		push	{r3, r4, r5, r6, r7, r8, r9, lr}
 219              		.cfi_def_cfa_offset 32
 220              		.cfi_offset 3, -32
 221              		.cfi_offset 4, -28
 222              		.cfi_offset 5, -24
 223              		.cfi_offset 6, -20
 224              		.cfi_offset 7, -16
 225              		.cfi_offset 8, -12
 226              		.cfi_offset 9, -8
 227              		.cfi_offset 14, -4
 228 000a 0C46     		mov	r4, r1
 229              	.LBB168:
 230              		.loc 11 25 16 view .LVU26
 231 000c 0026     		movs	r6, #0
 232 000e 2E4D     		ldr	r5, .L21
 233 0010 22F00109 		bic	r9, r2, #1
 234 0014 2D4F     		ldr	r7, .L21+4
 235 0016 DFF8C480 		ldr	r8, .L21+20
 236              	.LBE168:
  23:samplehold.cpp ****     float osc_out, env_out;
 237              		.loc 11 23 1 view .LVU27
 238 001a 2DED028B 		vpush.64	{d8}
 239              		.cfi_def_cfa_offset 40
 240              		.cfi_offset 80, -40
 241              		.cfi_offset 81, -36
ARM GAS  /tmp/cc8Vnvvx.s 			page 12


 242 001e 38E0     		b	.L14
 243              	.LVL8:
 244              	.L20:
 245              	.LBB169:
 246              	.LBB116:
 247              	.LBB117:
 248              	.LBB118:
 249              	.LBB119:
  20:../../DaisySP/Source/Utility/samplehold.h **** 
  21:../../DaisySP/Source/Utility/samplehold.h ****     enum Mode
  22:../../DaisySP/Source/Utility/samplehold.h ****     {
  23:../../DaisySP/Source/Utility/samplehold.h ****         MODE_SAMPLE_HOLD,
  24:../../DaisySP/Source/Utility/samplehold.h ****         MODE_TRACK_HOLD,
  25:../../DaisySP/Source/Utility/samplehold.h ****         MODE_LAST,
  26:../../DaisySP/Source/Utility/samplehold.h ****     };
  27:../../DaisySP/Source/Utility/samplehold.h **** 
  28:../../DaisySP/Source/Utility/samplehold.h ****     /** Process the next sample. Both sample and track and hold are run in parallel
  29:../../DaisySP/Source/Utility/samplehold.h ****     \param trigger Trigger the sample/track and hold
  30:../../DaisySP/Source/Utility/samplehold.h ****     \param input   Signal to be sampled/tracked and held
  31:../../DaisySP/Source/Utility/samplehold.h ****     \param mode    Whether to output the tracked or sampled values.
  32:../../DaisySP/Source/Utility/samplehold.h ****     */
  33:../../DaisySP/Source/Utility/samplehold.h ****     inline float
  34:../../DaisySP/Source/Utility/samplehold.h ****     Process(bool trigger, float input, Mode mode = MODE_SAMPLE_HOLD)
  35:../../DaisySP/Source/Utility/samplehold.h ****     {
  36:../../DaisySP/Source/Utility/samplehold.h ****         Update(trigger, input);
  37:../../DaisySP/Source/Utility/samplehold.h ****         return mode == MODE_SAMPLE_HOLD ? sample_ : track_;
  38:../../DaisySP/Source/Utility/samplehold.h ****     }
  39:../../DaisySP/Source/Utility/samplehold.h **** 
  40:../../DaisySP/Source/Utility/samplehold.h ****   private:
  41:../../DaisySP/Source/Utility/samplehold.h ****     float track_    = 0;
  42:../../DaisySP/Source/Utility/samplehold.h ****     float sample_   = 0;
  43:../../DaisySP/Source/Utility/samplehold.h ****     bool  previous_ = false;
  44:../../DaisySP/Source/Utility/samplehold.h **** 
  45:../../DaisySP/Source/Utility/samplehold.h **** 
  46:../../DaisySP/Source/Utility/samplehold.h ****     inline void Update(bool trigger, float input)
  47:../../DaisySP/Source/Utility/samplehold.h ****     {
  48:../../DaisySP/Source/Utility/samplehold.h ****         if(trigger)
  49:../../DaisySP/Source/Utility/samplehold.h ****         {
  50:../../DaisySP/Source/Utility/samplehold.h ****             if(!previous_)
  51:../../DaisySP/Source/Utility/samplehold.h ****             {
  52:../../DaisySP/Source/Utility/samplehold.h ****                 sample_ = input;
 250              		.loc 5 52 17 is_stmt 1 view .LVU28
 251              	.LBE119:
 252              	.LBE118:
 253              	.LBE117:
 254              	.LBB134:
 255              	.LBB135:
  17:../../DaisySP/Source/Noise/whitenoise.h ****     /** Initializes the WhiteNoise object
  18:../../DaisySP/Source/Noise/whitenoise.h ****     */
  19:../../DaisySP/Source/Noise/whitenoise.h ****     void Init()
  20:../../DaisySP/Source/Noise/whitenoise.h ****     {
  21:../../DaisySP/Source/Noise/whitenoise.h ****         amp_      = 1.0f;
  22:../../DaisySP/Source/Noise/whitenoise.h ****         randseed_ = 1;
  23:../../DaisySP/Source/Noise/whitenoise.h ****     }
  24:../../DaisySP/Source/Noise/whitenoise.h **** 
  25:../../DaisySP/Source/Noise/whitenoise.h ****     /** sets the amplitude of the noise output
  26:../../DaisySP/Source/Noise/whitenoise.h ****     */
ARM GAS  /tmp/cc8Vnvvx.s 			page 13


  27:../../DaisySP/Source/Noise/whitenoise.h ****     inline void SetAmp(float a) { amp_ = a; }
  28:../../DaisySP/Source/Noise/whitenoise.h ****     /** returns a new sample of noise in the range of -amp_ to amp_
  29:../../DaisySP/Source/Noise/whitenoise.h ****     */
  30:../../DaisySP/Source/Noise/whitenoise.h ****     inline float Process()
  31:../../DaisySP/Source/Noise/whitenoise.h ****     {
  32:../../DaisySP/Source/Noise/whitenoise.h ****         randseed_ *= 16807;
  33:../../DaisySP/Source/Noise/whitenoise.h ****         return (randseed_ * coeff_) * amp_;
 256              		.loc 3 33 27 is_stmt 0 view .LVU29
 257 0020 07EE903A 		vmov	s15, r3	@ int
 258              	.LBE135:
 259              	.LBE134:
 260              	.LBB139:
 261              	.LBB127:
 262              	.LBB120:
  50:../../DaisySP/Source/Utility/samplehold.h ****             {
 263              		.loc 5 50 13 view .LVU30
 264 0024 3B7A     		ldrb	r3, [r7, #8]	@ zero_extendqisi2
 265              	.LVL9:
  50:../../DaisySP/Source/Utility/samplehold.h ****             {
 266              		.loc 5 50 13 view .LVU31
 267              	.LBE120:
 268              	.LBE127:
 269              	.LBE139:
 270              	.LBB140:
 271              	.LBB136:
 272              		.loc 3 33 27 view .LVU32
 273 0026 FAEEE07A 		vcvt.f32.s32	s15, s15, #31
 274              		.loc 3 33 39 view .LVU33
 275 002a 67EEA67A 		vmul.f32	s15, s15, s13
 276              	.LBE136:
 277              	.LBE140:
  26:samplehold.cpp ****     {
  27:samplehold.cpp ****         uint8_t trig      = tick.Process();
  28:samplehold.cpp ****         float   newsample = sh.Process(
 278              		.loc 11 28 39 view .LVU34
 279 002e A7EE877A 		vfma.f32	s14, s15, s14
 280              	.LBB141:
 281              	.LBB128:
 282              	.LBB121:
  50:../../DaisySP/Source/Utility/samplehold.h ****             {
 283              		.loc 5 50 13 is_stmt 1 view .LVU35
 284 0032 002B     		cmp	r3, #0
 285 0034 3ED0     		beq	.L11
  50:../../DaisySP/Source/Utility/samplehold.h ****             {
 286              		.loc 5 50 13 is_stmt 0 view .LVU36
 287 0036 97ED018A 		vldr.32	s16, [r7, #4]
 288              	.L12:
  53:../../DaisySP/Source/Utility/samplehold.h ****             }
  54:../../DaisySP/Source/Utility/samplehold.h ****             track_ = input;
 289              		.loc 5 54 13 is_stmt 1 view .LVU37
 290              	.LBE121:
 291              	.LBE128:
 292              	.LBE141:
  29:samplehold.cpp ****             trig, noise.Process() * 500 + 500, sh.MODE_SAMPLE_HOLD);
  30:samplehold.cpp **** 
  31:samplehold.cpp ****         // When the metro ticks, trigger the envelope to start.
  32:samplehold.cpp ****         if(trig)
ARM GAS  /tmp/cc8Vnvvx.s 			page 14


  33:samplehold.cpp ****         {
  34:samplehold.cpp ****             env.Trigger();
  35:samplehold.cpp ****             tick.SetFreq(newsample / 100 + 1);
 293              		.loc 11 35 36 is_stmt 0 view .LVU38
 294 003a DFED256A 		vldr.32	s13, .L21+8
 295              	.LVL10:
 296              		.loc 11 35 25 view .LVU39
 297 003e F7EE007A 		vmov.f32	s15, #1.0e+0
 298              	.LBB142:
 299              	.LBB129:
 300              	.LBB122:
  55:../../DaisySP/Source/Utility/samplehold.h ****         }
  56:../../DaisySP/Source/Utility/samplehold.h ****         previous_ = trigger;
 301              		.loc 5 56 19 view .LVU40
 302 0042 0123     		movs	r3, #1
 303              	.LBE122:
 304              	.LBE129:
 305              	.LBE142:
 306              	.LBB143:
 307              	.LBB144:
  36:../../DaisySP/Source/Control/adenv.h ****     /** Initializes the ad envelope.
  37:../../DaisySP/Source/Control/adenv.h **** 
  38:../../DaisySP/Source/Control/adenv.h ****         Defaults:
  39:../../DaisySP/Source/Control/adenv.h ****             - current segment = idle
  40:../../DaisySP/Source/Control/adenv.h ****             - curve = linear
  41:../../DaisySP/Source/Control/adenv.h ****             - phase = 0
  42:../../DaisySP/Source/Control/adenv.h ****             - min = 0
  43:../../DaisySP/Source/Control/adenv.h ****             - max = 1
  44:../../DaisySP/Source/Control/adenv.h **** 
  45:../../DaisySP/Source/Control/adenv.h ****         \param sample_rate      sample rate of the audio engine being run
  46:../../DaisySP/Source/Control/adenv.h ****     */
  47:../../DaisySP/Source/Control/adenv.h ****     void Init(float sample_rate);
  48:../../DaisySP/Source/Control/adenv.h **** 
  49:../../DaisySP/Source/Control/adenv.h ****     /** Processes the current sample of the envelope. This should be called once
  50:../../DaisySP/Source/Control/adenv.h ****         per sample period.
  51:../../DaisySP/Source/Control/adenv.h ****         \return the current envelope value.
  52:../../DaisySP/Source/Control/adenv.h ****     */
  53:../../DaisySP/Source/Control/adenv.h ****     float Process();
  54:../../DaisySP/Source/Control/adenv.h **** 
  55:../../DaisySP/Source/Control/adenv.h ****     /** Starts or retriggers the envelope.*/
  56:../../DaisySP/Source/Control/adenv.h ****     inline void Trigger() { trigger_ = 1; }
 308              		.loc 1 56 38 view .LVU41
 309 0044 234A     		ldr	r2, .L21+12
 310              	.LBE144:
 311              	.LBE143:
 312              		.loc 11 35 36 view .LVU42
 313 0046 88EE260A 		vdiv.f32	s0, s16, s13
 314              		.loc 11 35 25 view .LVU43
 315 004a 2348     		ldr	r0, .L21+16
 316              	.LVL11:
 317              	.LBB147:
 318              	.LBB145:
 319              		.loc 1 56 38 view .LVU44
 320 004c 82F83430 		strb	r3, [r2, #52]
 321              	.LBE145:
 322              	.LBE147:
 323              	.LBB148:
ARM GAS  /tmp/cc8Vnvvx.s 			page 15


 324              	.LBB130:
 325              	.LBB123:
 326              		.loc 5 56 19 view .LVU45
 327 0050 3B72     		strb	r3, [r7, #8]
  54:../../DaisySP/Source/Utility/samplehold.h ****         }
 328              		.loc 5 54 20 view .LVU46
 329 0052 87ED007A 		vstr.32	s14, [r7]
 330              		.loc 5 56 9 is_stmt 1 view .LVU47
 331              	.LVL12:
 332              		.loc 5 56 9 is_stmt 0 view .LVU48
 333              	.LBE123:
 334              	.LBE130:
 335              	.LBE148:
 336              	.LBE116:
 337              	.LBE169:
  37:../../DaisySP/Source/Utility/samplehold.h ****     }
 338              		.loc 5 37 9 is_stmt 1 view .LVU49
 339              	.LBB170:
 340              	.LBB162:
  32:samplehold.cpp ****         {
 341              		.loc 11 32 9 view .LVU50
  34:samplehold.cpp ****             tick.SetFreq(newsample / 100 + 1);
 342              		.loc 11 34 13 view .LVU51
 343              	.LBB149:
 344              	.LBI143:
 345              		.loc 1 56 17 view .LVU52
 346              	.LBB146:
 347              		.loc 1 56 29 view .LVU53
 348              	.LBE146:
 349              	.LBE149:
 350              		.loc 11 35 13 view .LVU54
 351              		.loc 11 35 25 is_stmt 0 view .LVU55
 352 0056 30EE270A 		vadd.f32	s0, s0, s15
 353 005a FFF7FEFF 		bl	_ZN7daisysp5Metro7SetFreqEf
 354              	.LVL13:
  36:samplehold.cpp ****             osc.SetFreq(newsample);
 355              		.loc 11 36 13 is_stmt 1 view .LVU56
 356              	.LBB150:
 357              	.LBI150:
  17:../../DaisySP/Source/Synthesis/oscillator.h ****     /** Choices for output waveforms, POLYBLEP are appropriately labeled. Others are naive forms.
  18:../../DaisySP/Source/Synthesis/oscillator.h ****     */
  19:../../DaisySP/Source/Synthesis/oscillator.h ****     enum
  20:../../DaisySP/Source/Synthesis/oscillator.h ****     {
  21:../../DaisySP/Source/Synthesis/oscillator.h ****         WAVE_SIN,
  22:../../DaisySP/Source/Synthesis/oscillator.h ****         WAVE_TRI,
  23:../../DaisySP/Source/Synthesis/oscillator.h ****         WAVE_SAW,
  24:../../DaisySP/Source/Synthesis/oscillator.h ****         WAVE_RAMP,
  25:../../DaisySP/Source/Synthesis/oscillator.h ****         WAVE_SQUARE,
  26:../../DaisySP/Source/Synthesis/oscillator.h ****         WAVE_POLYBLEP_TRI,
  27:../../DaisySP/Source/Synthesis/oscillator.h ****         WAVE_POLYBLEP_SAW,
  28:../../DaisySP/Source/Synthesis/oscillator.h ****         WAVE_POLYBLEP_SQUARE,
  29:../../DaisySP/Source/Synthesis/oscillator.h ****         WAVE_LAST,
  30:../../DaisySP/Source/Synthesis/oscillator.h ****     };
  31:../../DaisySP/Source/Synthesis/oscillator.h **** 
  32:../../DaisySP/Source/Synthesis/oscillator.h **** 
  33:../../DaisySP/Source/Synthesis/oscillator.h ****     /** Initializes the Oscillator
  34:../../DaisySP/Source/Synthesis/oscillator.h **** 
ARM GAS  /tmp/cc8Vnvvx.s 			page 16


  35:../../DaisySP/Source/Synthesis/oscillator.h ****         \param sample_rate - sample rate of the audio engine being run, and the frequency that the 
  36:../../DaisySP/Source/Synthesis/oscillator.h **** 
  37:../../DaisySP/Source/Synthesis/oscillator.h ****         Defaults:
  38:../../DaisySP/Source/Synthesis/oscillator.h ****         - freq_ = 100 Hz
  39:../../DaisySP/Source/Synthesis/oscillator.h ****         - amp_ = 0.5
  40:../../DaisySP/Source/Synthesis/oscillator.h ****         - waveform_ = sine wave.
  41:../../DaisySP/Source/Synthesis/oscillator.h ****     */
  42:../../DaisySP/Source/Synthesis/oscillator.h ****     void Init(float sample_rate)
  43:../../DaisySP/Source/Synthesis/oscillator.h ****     {
  44:../../DaisySP/Source/Synthesis/oscillator.h ****         sr_        = sample_rate;
  45:../../DaisySP/Source/Synthesis/oscillator.h ****         sr_recip_  = 1.0f / sample_rate;
  46:../../DaisySP/Source/Synthesis/oscillator.h ****         freq_      = 100.0f;
  47:../../DaisySP/Source/Synthesis/oscillator.h ****         amp_       = 0.5f;
  48:../../DaisySP/Source/Synthesis/oscillator.h ****         phase_     = 0.0f;
  49:../../DaisySP/Source/Synthesis/oscillator.h ****         phase_inc_ = CalcPhaseInc(freq_);
  50:../../DaisySP/Source/Synthesis/oscillator.h ****         waveform_  = WAVE_SIN;
  51:../../DaisySP/Source/Synthesis/oscillator.h ****         eoc_       = true;
  52:../../DaisySP/Source/Synthesis/oscillator.h ****         eor_       = true;
  53:../../DaisySP/Source/Synthesis/oscillator.h ****     }
  54:../../DaisySP/Source/Synthesis/oscillator.h **** 
  55:../../DaisySP/Source/Synthesis/oscillator.h **** 
  56:../../DaisySP/Source/Synthesis/oscillator.h ****     /** Changes the frequency of the Oscillator, and recalculates phase increment.
  57:../../DaisySP/Source/Synthesis/oscillator.h ****     */
  58:../../DaisySP/Source/Synthesis/oscillator.h ****     inline void SetFreq(const float f)
 358              		.loc 2 58 17 view .LVU57
 359              	.LBB151:
  59:../../DaisySP/Source/Synthesis/oscillator.h ****     {
  60:../../DaisySP/Source/Synthesis/oscillator.h ****         freq_      = f;
 360              		.loc 2 60 9 view .LVU58
  61:../../DaisySP/Source/Synthesis/oscillator.h ****         phase_inc_ = CalcPhaseInc(f);
 361              		.loc 2 61 34 is_stmt 0 view .LVU59
 362 005e B0EE480A 		vmov.f32	s0, s16
 363 0062 1E48     		ldr	r0, .L21+20
  60:../../DaisySP/Source/Synthesis/oscillator.h ****         phase_inc_ = CalcPhaseInc(f);
 364              		.loc 2 60 20 view .LVU60
 365 0064 88ED028A 		vstr.32	s16, [r8, #8]
 366              		.loc 2 61 9 is_stmt 1 view .LVU61
 367              		.loc 2 61 34 is_stmt 0 view .LVU62
 368 0068 FFF7FEFF 		bl	_ZN7daisysp10Oscillator12CalcPhaseIncEf
 369              	.LVL14:
 370              		.loc 2 61 20 view .LVU63
 371 006c 88ED060A 		vstr.32	s0, [r8, #24]
 372              	.LVL15:
 373              	.L15:
 374              		.loc 2 61 20 view .LVU64
 375              	.LBE151:
 376              	.LBE150:
  37:samplehold.cpp ****         }
  38:samplehold.cpp **** 
  39:samplehold.cpp ****         // Use envelope to control the amplitude of the oscillator.
  40:samplehold.cpp ****         env_out = env.Process();
 377              		.loc 11 40 9 is_stmt 1 discriminator 2 view .LVU65
 378              		.loc 11 40 30 is_stmt 0 discriminator 2 view .LVU66
 379 0070 1848     		ldr	r0, .L21+12
 380 0072 0834     		adds	r4, r4, #8
 381 0074 FFF7FEFF 		bl	_ZN7daisysp5AdEnv7ProcessEv
 382              	.LVL16:
ARM GAS  /tmp/cc8Vnvvx.s 			page 17


  41:samplehold.cpp ****         osc.SetAmp(env_out);
 383              		.loc 11 41 9 is_stmt 1 discriminator 2 view .LVU67
 384              	.LBB152:
 385              	.LBI152:
  62:../../DaisySP/Source/Synthesis/oscillator.h ****     }
  63:../../DaisySP/Source/Synthesis/oscillator.h **** 
  64:../../DaisySP/Source/Synthesis/oscillator.h **** 
  65:../../DaisySP/Source/Synthesis/oscillator.h ****     /** Sets the amplitude of the waveform.
  66:../../DaisySP/Source/Synthesis/oscillator.h ****     */
  67:../../DaisySP/Source/Synthesis/oscillator.h ****     inline void SetAmp(const float a) { amp_ = a; }
 386              		.loc 2 67 17 discriminator 2 view .LVU68
 387              	.LBB153:
 388              		.loc 2 67 41 discriminator 2 view .LVU69
 389              	.LBE153:
 390              	.LBE152:
  42:samplehold.cpp ****         osc_out = osc.Process();
 391              		.loc 11 42 30 is_stmt 0 discriminator 2 view .LVU70
 392 0078 1848     		ldr	r0, .L21+20
 393              	.LBB155:
 394              	.LBB154:
 395              		.loc 2 67 46 discriminator 2 view .LVU71
 396 007a 88ED010A 		vstr.32	s0, [r8, #4]
 397              	.LVL17:
 398              		.loc 2 67 46 discriminator 2 view .LVU72
 399              	.LBE154:
 400              	.LBE155:
 401              		.loc 11 42 9 is_stmt 1 discriminator 2 view .LVU73
 402              		.loc 11 42 30 is_stmt 0 discriminator 2 view .LVU74
 403 007e FFF7FEFF 		bl	_ZN7daisysp10Oscillator7ProcessEv
 404              	.LVL18:
 405              		.loc 11 42 30 discriminator 2 view .LVU75
 406              	.LBE162:
  25:samplehold.cpp ****     {
 407              		.loc 11 25 35 discriminator 2 view .LVU76
 408 0082 B31C     		adds	r3, r6, #2
 409              	.LVL19:
 410              	.LBB163:
  43:samplehold.cpp **** 
  44:samplehold.cpp ****         out[LEFT]  = osc_out;
 411              		.loc 11 44 9 is_stmt 1 discriminator 2 view .LVU77
 412              	.LBE163:
  25:samplehold.cpp ****     {
 413              		.loc 11 25 25 is_stmt 0 discriminator 2 view .LVU78
 414 0084 B145     		cmp	r9, r6
 415              	.LBB164:
 416              		.loc 11 44 20 discriminator 2 view .LVU79
 417 0086 04ED020A 		vstr.32	s0, [r4, #-8]
  45:samplehold.cpp ****         out[RIGHT] = osc_out;
 418              		.loc 11 45 9 is_stmt 1 discriminator 2 view .LVU80
 419              		.loc 11 45 20 is_stmt 0 discriminator 2 view .LVU81
 420 008a 04ED010A 		vstr.32	s0, [r4, #-4]
 421              	.LBE164:
  25:samplehold.cpp ****     {
 422              		.loc 11 25 5 is_stmt 1 discriminator 2 view .LVU82
 423              	.LVL20:
  25:samplehold.cpp ****     {
 424              		.loc 11 25 25 discriminator 2 view .LVU83
ARM GAS  /tmp/cc8Vnvvx.s 			page 18


 425 008e 1E46     		mov	r6, r3
 426 0090 15D0     		beq	.L8
 427              	.LVL21:
 428              	.L14:
 429              	.LBB165:
  27:samplehold.cpp ****         float   newsample = sh.Process(
 430              		.loc 11 27 9 view .LVU84
  27:samplehold.cpp ****         float   newsample = sh.Process(
 431              		.loc 11 27 41 is_stmt 0 view .LVU85
 432 0092 1148     		ldr	r0, .L21+16
 433 0094 FFF7FEFF 		bl	_ZN7daisysp5Metro7ProcessEv
 434              	.LVL22:
 435              	.LBB156:
 436              	.LBB131:
 437              	.LBB124:
 438              		.loc 5 56 9 is_stmt 1 view .LVU86
 439              		.loc 5 56 9 is_stmt 0 view .LVU87
 440              	.LBE124:
 441              	.LBE131:
 442              	.LBE156:
  28:samplehold.cpp ****             trig, noise.Process() * 500 + 500, sh.MODE_SAMPLE_HOLD);
 443              		.loc 11 28 9 is_stmt 1 view .LVU88
 444              	.LBB157:
 445              	.LBB137:
  32:../../DaisySP/Source/Noise/whitenoise.h ****         return (randseed_ * coeff_) * amp_;
 446              		.loc 3 32 19 is_stmt 0 view .LVU89
 447 0098 6A68     		ldr	r2, [r5, #4]
 448 009a 44F2A713 		movw	r3, #16807
 449              	.LBE137:
 450              	.LBE157:
  28:samplehold.cpp ****             trig, noise.Process() * 500 + 500, sh.MODE_SAMPLE_HOLD);
 451              		.loc 11 28 39 view .LVU90
 452 009e 9FED107A 		vldr.32	s14, .L21+24
  29:samplehold.cpp **** 
 453              		.loc 11 29 32 view .LVU91
 454 00a2 D5ED006A 		vldr.32	s13, [r5]
 455              	.LBB158:
 456              	.LBI134:
  30:../../DaisySP/Source/Noise/whitenoise.h ****     {
 457              		.loc 3 30 18 is_stmt 1 view .LVU92
 458              	.LVL23:
 459              	.LBB138:
  32:../../DaisySP/Source/Noise/whitenoise.h ****         return (randseed_ * coeff_) * amp_;
 460              		.loc 3 32 9 view .LVU93
  32:../../DaisySP/Source/Noise/whitenoise.h ****         return (randseed_ * coeff_) * amp_;
 461              		.loc 3 32 19 is_stmt 0 view .LVU94
 462 00a6 03FB02F3 		mul	r3, r3, r2
 463 00aa 6B60     		str	r3, [r5, #4]
 464              		.loc 3 33 9 is_stmt 1 view .LVU95
 465              	.LVL24:
 466              		.loc 3 33 9 is_stmt 0 view .LVU96
 467              	.LBE138:
 468              	.LBE158:
 469              	.LBB159:
 470              	.LBI117:
  34:../../DaisySP/Source/Utility/samplehold.h ****     {
 471              		.loc 5 34 5 is_stmt 1 view .LVU97
ARM GAS  /tmp/cc8Vnvvx.s 			page 19


 472              	.LBE159:
 473              	.LBE165:
 474              	.LBE170:
  36:../../DaisySP/Source/Utility/samplehold.h ****         return mode == MODE_SAMPLE_HOLD ? sample_ : track_;
 475              		.loc 5 36 9 view .LVU98
 476              	.LBB171:
 477              	.LBB166:
 478              	.LBB160:
 479              	.LBB132:
 480              	.LBI118:
  46:../../DaisySP/Source/Utility/samplehold.h ****     {
 481              		.loc 5 46 17 view .LVU99
 482              	.LBB125:
  48:../../DaisySP/Source/Utility/samplehold.h ****         {
 483              		.loc 5 48 9 view .LVU100
 484 00ac 0028     		cmp	r0, #0
 485 00ae B7D1     		bne	.L20
 486              		.loc 5 56 19 is_stmt 0 view .LVU101
 487 00b0 3872     		strb	r0, [r7, #8]
 488              	.LVL25:
 489              		.loc 5 56 19 view .LVU102
 490              	.LBE125:
 491              	.LBE132:
 492              	.LBE160:
 493              	.LBE166:
 494              	.LBE171:
  37:../../DaisySP/Source/Utility/samplehold.h ****     }
 495              		.loc 5 37 9 is_stmt 1 view .LVU103
 496              	.LBB172:
 497              	.LBB167:
  32:samplehold.cpp ****         {
 498              		.loc 11 32 9 view .LVU104
 499 00b2 DDE7     		b	.L15
 500              	.LVL26:
 501              	.L11:
 502              	.LBB161:
 503              	.LBB133:
 504              	.LBB126:
  32:samplehold.cpp ****         {
 505              		.loc 11 32 9 is_stmt 0 view .LVU105
 506 00b4 B0EE478A 		vmov.f32	s16, s14
  52:../../DaisySP/Source/Utility/samplehold.h ****             }
 507              		.loc 5 52 25 view .LVU106
 508 00b8 87ED017A 		vstr.32	s14, [r7, #4]
 509 00bc BDE7     		b	.L12
 510              	.LVL27:
 511              	.L8:
  52:../../DaisySP/Source/Utility/samplehold.h ****             }
 512              		.loc 5 52 25 view .LVU107
 513              	.LBE126:
 514              	.LBE133:
 515              	.LBE161:
 516              	.LBE167:
 517              	.LBE172:
  46:samplehold.cpp ****     }
  47:samplehold.cpp **** }
 518              		.loc 11 47 1 view .LVU108
ARM GAS  /tmp/cc8Vnvvx.s 			page 20


 519 00be BDEC028B 		vldm	sp!, {d8}
 520              		.cfi_restore 80
 521              		.cfi_restore 81
 522              		.cfi_def_cfa_offset 32
 523 00c2 BDE8F883 		pop	{r3, r4, r5, r6, r7, r8, r9, pc}
 524              	.LVL28:
 525              	.L17:
 526              		.cfi_def_cfa_offset 0
 527              		.cfi_restore 3
 528              		.cfi_restore 4
 529              		.cfi_restore 5
 530              		.cfi_restore 6
 531              		.cfi_restore 7
 532              		.cfi_restore 8
 533              		.cfi_restore 9
 534              		.cfi_restore 14
 535              		.loc 11 47 1 view .LVU109
 536 00c6 7047     		bx	lr
 537              	.L22:
 538              		.align	2
 539              	.L21:
 540 00c8 00000000 		.word	.LANCHOR1
 541 00cc 00000000 		.word	.LANCHOR2
 542 00d0 0000C842 		.word	1120403456
 543 00d4 00000000 		.word	.LANCHOR3
 544 00d8 00000000 		.word	.LANCHOR0
 545 00dc 00000000 		.word	.LANCHOR4
 546 00e0 0000FA43 		.word	1140457472
 547              		.cfi_endproc
 548              	.LFE4212:
 550              		.section	.text.startup.main,"ax",%progbits
 551              		.align	1
 552              		.p2align 2,,3
 553              		.global	main
 554              		.syntax unified
 555              		.thumb
 556              		.thumb_func
 557              		.fpu fpv5-d16
 559              	main:
 560              	.LFB4213:
  48:samplehold.cpp **** 
  49:samplehold.cpp **** int main(void)
  50:samplehold.cpp **** {
 561              		.loc 11 50 1 is_stmt 1 view -0
 562              		.cfi_startproc
 563              		@ args = 0, pretend = 0, frame = 0
 564              		@ frame_needed = 0, uses_anonymous_args = 0
  51:samplehold.cpp ****     // initialize seed hardware and daisysp modules
  52:samplehold.cpp ****     float sample_rate;
 565              		.loc 11 52 5 view .LVU111
  53:samplehold.cpp ****     seed.Configure();
 566              		.loc 11 53 5 view .LVU112
  50:samplehold.cpp ****     // initialize seed hardware and daisysp modules
 567              		.loc 11 50 1 is_stmt 0 view .LVU113
 568 0000 2DE9F843 		push	{r3, r4, r5, r6, r7, r8, r9, lr}
 569              		.cfi_def_cfa_offset 32
 570              		.cfi_offset 3, -32
ARM GAS  /tmp/cc8Vnvvx.s 			page 21


 571              		.cfi_offset 4, -28
 572              		.cfi_offset 5, -24
 573              		.cfi_offset 6, -20
 574              		.cfi_offset 7, -16
 575              		.cfi_offset 8, -12
 576              		.cfi_offset 9, -8
 577              		.cfi_offset 14, -4
 578              		.loc 11 53 19 view .LVU114
 579 0004 2C48     		ldr	r0, .L26
 580              	.LBB173:
 581              	.LBB174:
  47:../../DaisySP/Source/Synthesis/oscillator.h ****         phase_     = 0.0f;
 582              		.loc 2 47 20 view .LVU115
 583 0006 4FF07C58 		mov	r8, #1056964608
 584              	.LBE174:
 585              	.LBE173:
  54:samplehold.cpp ****     seed.Init();
  55:samplehold.cpp ****     sample_rate = seed.AudioSampleRate();
  56:samplehold.cpp ****     env.Init(sample_rate);
 586              		.loc 11 56 13 view .LVU116
 587 000a 2C4D     		ldr	r5, .L26+4
 588              	.LBB179:
 589              	.LBB175:
  48:../../DaisySP/Source/Synthesis/oscillator.h ****         phase_inc_ = CalcPhaseInc(freq_);
 590              		.loc 2 48 20 view .LVU117
 591 000c 4FF00009 		mov	r9, #0
  44:../../DaisySP/Source/Synthesis/oscillator.h ****         sr_recip_  = 1.0f / sample_rate;
 592              		.loc 2 44 20 view .LVU118
 593 0010 2B4C     		ldr	r4, .L26+8
 594              	.LBE175:
 595              	.LBE179:
 596              	.LBB180:
 597              	.LBB181:
  57:../../DaisySP/Source/Control/adenv.h ****     /** Sets the length of time (in seconds) for a specific segment. */
  58:../../DaisySP/Source/Control/adenv.h ****     inline void SetTime(uint8_t seg, float time) { segment_time_[seg] = time; }
  59:../../DaisySP/Source/Control/adenv.h ****     /** Sets the amount of curve applied. A positve value will create a log
  60:../../DaisySP/Source/Control/adenv.h ****         curve. Input range: -100 to 100.  (or more)
  61:../../DaisySP/Source/Control/adenv.h ****     */
  62:../../DaisySP/Source/Control/adenv.h ****     inline void SetCurve(float scalar) { curve_scalar_ = scalar; }
  63:../../DaisySP/Source/Control/adenv.h ****     /** Sets the minimum value of the envelope output.
  64:../../DaisySP/Source/Control/adenv.h ****         Input range: -FLTmax_, to FLTmax_
  65:../../DaisySP/Source/Control/adenv.h ****     */
  66:../../DaisySP/Source/Control/adenv.h ****     inline void SetMin(float min) { min_ = min; }
  67:../../DaisySP/Source/Control/adenv.h ****     /** Sets the maximum value of the envelope output.
  68:../../DaisySP/Source/Control/adenv.h ****         Input range: -FLTmax_, to FLTmax_
  69:../../DaisySP/Source/Control/adenv.h ****     */
  70:../../DaisySP/Source/Control/adenv.h ****     inline void SetMax(float max) { max_ = max; }
 598              		.loc 1 70 42 view .LVU119
 599 0012 4FF07A57 		mov	r7, #1048576000
 600              	.LBE181:
 601              	.LBE180:
 602              	.LBB183:
 603              	.LBB184:
  68:../../DaisySP/Source/Synthesis/oscillator.h ****     /** Sets the waveform to be synthesized by the Process() function.
  69:../../DaisySP/Source/Synthesis/oscillator.h ****     */
  70:../../DaisySP/Source/Synthesis/oscillator.h ****     inline void SetWaveform(const uint8_t wf)
  71:../../DaisySP/Source/Synthesis/oscillator.h ****     {
ARM GAS  /tmp/cc8Vnvvx.s 			page 22


  72:../../DaisySP/Source/Synthesis/oscillator.h ****         waveform_ = wf < WAVE_LAST ? wf : WAVE_SIN;
 604              		.loc 2 72 19 view .LVU120
 605 0016 0126     		movs	r6, #1
 606              	.LBE184:
 607              	.LBE183:
  50:samplehold.cpp ****     // initialize seed hardware and daisysp modules
 608              		.loc 11 50 1 view .LVU121
 609 0018 2DED028B 		vpush.64	{d8}
 610              		.cfi_def_cfa_offset 40
 611              		.cfi_offset 80, -40
 612              		.cfi_offset 81, -36
  53:samplehold.cpp ****     seed.Init();
 613              		.loc 11 53 19 view .LVU122
 614 001c FFF7FEFF 		bl	_ZN5daisy9DaisySeed9ConfigureEv
 615              	.LVL29:
  54:samplehold.cpp ****     sample_rate = seed.AudioSampleRate();
 616              		.loc 11 54 5 is_stmt 1 view .LVU123
  54:samplehold.cpp ****     sample_rate = seed.AudioSampleRate();
 617              		.loc 11 54 14 is_stmt 0 view .LVU124
 618 0020 0021     		movs	r1, #0
 619 0022 2548     		ldr	r0, .L26
 620              	.LBB186:
 621              	.LBB176:
  45:../../DaisySP/Source/Synthesis/oscillator.h ****         freq_      = 100.0f;
 622              		.loc 2 45 27 view .LVU125
 623 0024 F7EE008A 		vmov.f32	s17, #1.0e+0
 624              	.LBE176:
 625              	.LBE186:
  54:samplehold.cpp ****     sample_rate = seed.AudioSampleRate();
 626              		.loc 11 54 14 view .LVU126
 627 0028 FFF7FEFF 		bl	_ZN5daisy9DaisySeed4InitEb
 628              	.LVL30:
  55:samplehold.cpp ****     env.Init(sample_rate);
 629              		.loc 11 55 5 is_stmt 1 view .LVU127
  55:samplehold.cpp ****     env.Init(sample_rate);
 630              		.loc 11 55 39 is_stmt 0 view .LVU128
 631 002c 2248     		ldr	r0, .L26
 632 002e FFF7FEFF 		bl	_ZN5daisy9DaisySeed15AudioSampleRateEv
 633              	.LVL31:
 634 0032 B0EE408A 		vmov.f32	s16, s0
 635              	.LVL32:
 636              		.loc 11 56 5 is_stmt 1 view .LVU129
 637              		.loc 11 56 13 is_stmt 0 view .LVU130
 638 0036 2846     		mov	r0, r5
 639 0038 FFF7FEFF 		bl	_ZN7daisysp5AdEnv4InitEf
 640              	.LVL33:
  57:samplehold.cpp ****     osc.Init(sample_rate);
 641              		.loc 11 57 5 is_stmt 1 view .LVU131
 642              	.LBB187:
 643              	.LBI173:
  42:../../DaisySP/Source/Synthesis/oscillator.h ****     {
 644              		.loc 2 42 10 view .LVU132
 645              	.LBB177:
  44:../../DaisySP/Source/Synthesis/oscillator.h ****         sr_recip_  = 1.0f / sample_rate;
 646              		.loc 2 44 9 view .LVU133
  46:../../DaisySP/Source/Synthesis/oscillator.h ****         amp_       = 0.5f;
 647              		.loc 2 46 20 is_stmt 0 view .LVU134
ARM GAS  /tmp/cc8Vnvvx.s 			page 23


 648 003c 9FED210A 		vldr.32	s0, .L26+12
  45:../../DaisySP/Source/Synthesis/oscillator.h ****         freq_      = 100.0f;
 649              		.loc 2 45 27 view .LVU135
 650 0040 C8EE887A 		vdiv.f32	s15, s17, s16
  49:../../DaisySP/Source/Synthesis/oscillator.h ****         waveform_  = WAVE_SIN;
 651              		.loc 2 49 34 view .LVU136
 652 0044 2046     		mov	r0, r4
  44:../../DaisySP/Source/Synthesis/oscillator.h ****         sr_recip_  = 1.0f / sample_rate;
 653              		.loc 2 44 20 view .LVU137
 654 0046 84ED038A 		vstr.32	s16, [r4, #12]
  45:../../DaisySP/Source/Synthesis/oscillator.h ****         freq_      = 100.0f;
 655              		.loc 2 45 9 is_stmt 1 view .LVU138
  46:../../DaisySP/Source/Synthesis/oscillator.h ****         amp_       = 0.5f;
 656              		.loc 2 46 20 is_stmt 0 view .LVU139
 657 004a 84ED020A 		vstr.32	s0, [r4, #8]
  47:../../DaisySP/Source/Synthesis/oscillator.h ****         phase_     = 0.0f;
 658              		.loc 2 47 20 view .LVU140
 659 004e C4F80480 		str	r8, [r4, #4]	@ float
  48:../../DaisySP/Source/Synthesis/oscillator.h ****         phase_inc_ = CalcPhaseInc(freq_);
 660              		.loc 2 48 20 view .LVU141
 661 0052 C4F81490 		str	r9, [r4, #20]	@ float
  45:../../DaisySP/Source/Synthesis/oscillator.h ****         freq_      = 100.0f;
 662              		.loc 2 45 20 view .LVU142
 663 0056 C4ED047A 		vstr.32	s15, [r4, #16]
  46:../../DaisySP/Source/Synthesis/oscillator.h ****         amp_       = 0.5f;
 664              		.loc 2 46 9 is_stmt 1 view .LVU143
  47:../../DaisySP/Source/Synthesis/oscillator.h ****         phase_     = 0.0f;
 665              		.loc 2 47 9 view .LVU144
  48:../../DaisySP/Source/Synthesis/oscillator.h ****         phase_inc_ = CalcPhaseInc(freq_);
 666              		.loc 2 48 9 view .LVU145
  49:../../DaisySP/Source/Synthesis/oscillator.h ****         waveform_  = WAVE_SIN;
 667              		.loc 2 49 9 view .LVU146
  49:../../DaisySP/Source/Synthesis/oscillator.h ****         waveform_  = WAVE_SIN;
 668              		.loc 2 49 34 is_stmt 0 view .LVU147
 669 005a FFF7FEFF 		bl	_ZN7daisysp10Oscillator12CalcPhaseIncEf
 670              	.LVL34:
 671 005e F0EE407A 		vmov.f32	s15, s0
  50:../../DaisySP/Source/Synthesis/oscillator.h ****         eoc_       = true;
 672              		.loc 2 50 20 view .LVU148
 673 0062 0022     		movs	r2, #0
  52:../../DaisySP/Source/Synthesis/oscillator.h ****     }
 674              		.loc 2 52 20 view .LVU149
 675 0064 40F20113 		movw	r3, #257
 676              	.LBE177:
 677              	.LBE187:
  58:samplehold.cpp ****     tick.Init(1, sample_rate);
 678              		.loc 11 58 14 view .LVU150
 679 0068 F0EE480A 		vmov.f32	s1, s16
 680 006c B0EE680A 		vmov.f32	s0, s17
 681 0070 1548     		ldr	r0, .L26+16
 682              	.LBB188:
 683              	.LBB178:
  49:../../DaisySP/Source/Synthesis/oscillator.h ****         waveform_  = WAVE_SIN;
 684              		.loc 2 49 20 view .LVU151
 685 0072 C4ED067A 		vstr.32	s15, [r4, #24]
  50:../../DaisySP/Source/Synthesis/oscillator.h ****         eoc_       = true;
 686              		.loc 2 50 9 is_stmt 1 view .LVU152
ARM GAS  /tmp/cc8Vnvvx.s 			page 24


  50:../../DaisySP/Source/Synthesis/oscillator.h ****         eoc_       = true;
 687              		.loc 2 50 20 is_stmt 0 view .LVU153
 688 0076 2270     		strb	r2, [r4]
  51:../../DaisySP/Source/Synthesis/oscillator.h ****         eor_       = true;
 689              		.loc 2 51 9 is_stmt 1 view .LVU154
  52:../../DaisySP/Source/Synthesis/oscillator.h ****     }
 690              		.loc 2 52 9 view .LVU155
  52:../../DaisySP/Source/Synthesis/oscillator.h ****     }
 691              		.loc 2 52 20 is_stmt 0 view .LVU156
 692 0078 A384     		strh	r3, [r4, #36]	@ movhi
 693              	.LVL35:
  52:../../DaisySP/Source/Synthesis/oscillator.h ****     }
 694              		.loc 2 52 20 view .LVU157
 695              	.LBE178:
 696              	.LBE188:
 697              		.loc 11 58 5 is_stmt 1 view .LVU158
 698              		.loc 11 58 14 is_stmt 0 view .LVU159
 699 007a FFF7FEFF 		bl	_ZN7daisysp5Metro4InitEff
 700              	.LVL36:
  59:samplehold.cpp **** 
  60:samplehold.cpp ****     // set adenv parameters
  61:samplehold.cpp ****     env.SetTime(ADENV_SEG_ATTACK, 0.01);
 701              		.loc 11 61 5 is_stmt 1 view .LVU160
 702              	.LBB189:
 703              	.LBI189:
  58:../../DaisySP/Source/Control/adenv.h ****     /** Sets the amount of curve applied. A positve value will create a log
 704              		.loc 1 58 17 view .LVU161
 705              	.LBB190:
  58:../../DaisySP/Source/Control/adenv.h ****     /** Sets the amount of curve applied. A positve value will create a log
 706              		.loc 1 58 52 view .LVU162
 707              	.LBE190:
 708              	.LBE189:
 709              	.LBB193:
 710              	.LBB194:
  58:../../DaisySP/Source/Control/adenv.h ****     /** Sets the amount of curve applied. A positve value will create a log
 711              		.loc 1 58 71 is_stmt 0 view .LVU163
 712 007e 134B     		ldr	r3, .L26+20
 713              	.LBE194:
 714              	.LBE193:
 715              	.LBB197:
 716              	.LBB198:
  61:../../DaisySP/Source/Synthesis/oscillator.h ****     }
 717              		.loc 2 61 34 view .LVU164
 718 0080 2046     		mov	r0, r4
  60:../../DaisySP/Source/Synthesis/oscillator.h ****         phase_inc_ = CalcPhaseInc(f);
 719              		.loc 2 60 20 view .LVU165
 720 0082 9FED130A 		vldr.32	s0, .L26+24
 721              	.LBE198:
 722              	.LBE197:
 723              	.LBB201:
 724              	.LBB191:
  58:../../DaisySP/Source/Control/adenv.h ****     /** Sets the amount of curve applied. A positve value will create a log
 725              		.loc 1 58 71 view .LVU166
 726 0086 134A     		ldr	r2, .L26+28
 727              	.LBE191:
 728              	.LBE201:
 729              	.LBB202:
ARM GAS  /tmp/cc8Vnvvx.s 			page 25


 730              	.LBB195:
 731 0088 EB60     		str	r3, [r5, #12]	@ float
 732              	.LBE195:
 733              	.LBE202:
 734              	.LBB203:
 735              	.LBB204:
  66:../../DaisySP/Source/Control/adenv.h ****     /** Sets the maximum value of the envelope output.
 736              		.loc 1 66 42 view .LVU167
 737 008a C5F81490 		str	r9, [r5, #20]	@ float
 738              	.LBE204:
 739              	.LBE203:
 740              	.LBB206:
 741              	.LBB207:
  62:../../DaisySP/Source/Control/adenv.h ****     /** Sets the minimum value of the envelope output.
 742              		.loc 1 62 56 view .LVU168
 743 008e C5F82080 		str	r8, [r5, #32]	@ float
 744              	.LBE207:
 745              	.LBE206:
 746              	.LBB209:
 747              	.LBB192:
  58:../../DaisySP/Source/Control/adenv.h ****     /** Sets the amount of curve applied. A positve value will create a log
 748              		.loc 1 58 71 view .LVU169
 749 0092 AA60     		str	r2, [r5, #8]	@ float
 750              	.LVL37:
  58:../../DaisySP/Source/Control/adenv.h ****     /** Sets the amount of curve applied. A positve value will create a log
 751              		.loc 1 58 71 view .LVU170
 752              	.LBE192:
 753              	.LBE209:
  62:samplehold.cpp ****     env.SetTime(ADENV_SEG_DECAY, 0.1);
 754              		.loc 11 62 5 is_stmt 1 view .LVU171
 755              	.LBB210:
 756              	.LBI193:
  58:../../DaisySP/Source/Control/adenv.h ****     /** Sets the amount of curve applied. A positve value will create a log
 757              		.loc 1 58 17 view .LVU172
 758              	.LBB196:
  58:../../DaisySP/Source/Control/adenv.h ****     /** Sets the amount of curve applied. A positve value will create a log
 759              		.loc 1 58 52 view .LVU173
  58:../../DaisySP/Source/Control/adenv.h ****     /** Sets the amount of curve applied. A positve value will create a log
 760              		.loc 1 58 52 is_stmt 0 view .LVU174
 761              	.LBE196:
 762              	.LBE210:
  63:samplehold.cpp ****     env.SetMin(0.0);
 763              		.loc 11 63 5 is_stmt 1 view .LVU175
 764              	.LBB211:
 765              	.LBI203:
  66:../../DaisySP/Source/Control/adenv.h ****     /** Sets the maximum value of the envelope output.
 766              		.loc 1 66 17 view .LVU176
 767              	.LBB205:
  66:../../DaisySP/Source/Control/adenv.h ****     /** Sets the maximum value of the envelope output.
 768              		.loc 1 66 37 view .LVU177
  66:../../DaisySP/Source/Control/adenv.h ****     /** Sets the maximum value of the envelope output.
 769              		.loc 1 66 37 is_stmt 0 view .LVU178
 770              	.LBE205:
 771              	.LBE211:
  64:samplehold.cpp ****     env.SetMax(0.25);
 772              		.loc 11 64 5 is_stmt 1 view .LVU179
 773              	.LBB212:
ARM GAS  /tmp/cc8Vnvvx.s 			page 26


 774              	.LBI180:
 775              		.loc 1 70 17 view .LVU180
 776              	.LBB182:
 777              		.loc 1 70 37 view .LVU181
 778              		.loc 1 70 42 is_stmt 0 view .LVU182
 779 0094 AF61     		str	r7, [r5, #24]	@ float
 780              	.LVL38:
 781              		.loc 1 70 42 view .LVU183
 782              	.LBE182:
 783              	.LBE212:
  65:samplehold.cpp ****     env.SetCurve(0.5);
 784              		.loc 11 65 5 is_stmt 1 view .LVU184
 785              	.LBB213:
 786              	.LBI206:
  62:../../DaisySP/Source/Control/adenv.h ****     /** Sets the minimum value of the envelope output.
 787              		.loc 1 62 17 view .LVU185
 788              	.LBB208:
  62:../../DaisySP/Source/Control/adenv.h ****     /** Sets the minimum value of the envelope output.
 789              		.loc 1 62 42 view .LVU186
  62:../../DaisySP/Source/Control/adenv.h ****     /** Sets the minimum value of the envelope output.
 790              		.loc 1 62 42 is_stmt 0 view .LVU187
 791              	.LBE208:
 792              	.LBE213:
  66:samplehold.cpp **** 
  67:samplehold.cpp ****     // Set parameters for oscillator
  68:samplehold.cpp ****     osc.SetWaveform(osc.WAVE_TRI);
 793              		.loc 11 68 5 is_stmt 1 view .LVU188
 794              	.LBB214:
 795              	.LBI183:
  70:../../DaisySP/Source/Synthesis/oscillator.h ****     {
 796              		.loc 2 70 17 view .LVU189
 797              	.LBB185:
 798              		.loc 2 72 9 view .LVU190
 799              		.loc 2 72 19 is_stmt 0 view .LVU191
 800 0096 2670     		strb	r6, [r4]
 801              	.LVL39:
 802              		.loc 2 72 19 view .LVU192
 803              	.LBE185:
 804              	.LBE214:
  69:samplehold.cpp ****     osc.SetFreq(220);
 805              		.loc 11 69 5 is_stmt 1 view .LVU193
 806              	.LBB215:
 807              	.LBI197:
  58:../../DaisySP/Source/Synthesis/oscillator.h ****     {
 808              		.loc 2 58 17 view .LVU194
 809              	.LBB199:
  60:../../DaisySP/Source/Synthesis/oscillator.h ****         phase_inc_ = CalcPhaseInc(f);
 810              		.loc 2 60 9 view .LVU195
  60:../../DaisySP/Source/Synthesis/oscillator.h ****         phase_inc_ = CalcPhaseInc(f);
 811              		.loc 2 60 20 is_stmt 0 view .LVU196
 812 0098 84ED020A 		vstr.32	s0, [r4, #8]
  61:../../DaisySP/Source/Synthesis/oscillator.h ****     }
 813              		.loc 2 61 9 is_stmt 1 view .LVU197
  61:../../DaisySP/Source/Synthesis/oscillator.h ****     }
 814              		.loc 2 61 34 is_stmt 0 view .LVU198
 815 009c FFF7FEFF 		bl	_ZN7daisysp10Oscillator12CalcPhaseIncEf
 816              	.LVL40:
ARM GAS  /tmp/cc8Vnvvx.s 			page 27


 817              	.LBE199:
 818              	.LBE215:
 819              	.LBB216:
 820              	.LBB217:
  21:../../DaisySP/Source/Noise/whitenoise.h ****         randseed_ = 1;
 821              		.loc 3 21 19 view .LVU199
 822 00a0 0D4B     		ldr	r3, .L26+32
 823              	.LBE217:
 824              	.LBE216:
  70:samplehold.cpp ****     osc.SetAmp(0.25);
  71:samplehold.cpp **** 
  72:samplehold.cpp ****     noise.Init();
  73:samplehold.cpp **** 
  74:samplehold.cpp ****     // start callback
  75:samplehold.cpp ****     seed.StartAudio(AudioCallback);
 825              		.loc 11 75 20 view .LVU200
 826 00a2 0E49     		ldr	r1, .L26+36
 827 00a4 0448     		ldr	r0, .L26
 828              	.LBB220:
 829              	.LBB218:
  21:../../DaisySP/Source/Noise/whitenoise.h ****         randseed_ = 1;
 830              		.loc 3 21 19 view .LVU201
 831 00a6 C3ED008A 		vstr.32	s17, [r3]
  22:../../DaisySP/Source/Noise/whitenoise.h ****     }
 832              		.loc 3 22 19 view .LVU202
 833 00aa 5E60     		str	r6, [r3, #4]
 834              	.LBE218:
 835              	.LBE220:
 836              	.LBB221:
 837              	.LBB222:
  67:../../DaisySP/Source/Synthesis/oscillator.h ****     /** Sets the waveform to be synthesized by the Process() function.
 838              		.loc 2 67 46 view .LVU203
 839 00ac 6760     		str	r7, [r4, #4]	@ float
 840              	.LBE222:
 841              	.LBE221:
 842              	.LBB224:
 843              	.LBB200:
  61:../../DaisySP/Source/Synthesis/oscillator.h ****     }
 844              		.loc 2 61 20 view .LVU204
 845 00ae 84ED060A 		vstr.32	s0, [r4, #24]
 846              	.LVL41:
  61:../../DaisySP/Source/Synthesis/oscillator.h ****     }
 847              		.loc 2 61 20 view .LVU205
 848              	.LBE200:
 849              	.LBE224:
  70:samplehold.cpp **** 
 850              		.loc 11 70 5 is_stmt 1 view .LVU206
 851              	.LBB225:
 852              	.LBI221:
  67:../../DaisySP/Source/Synthesis/oscillator.h ****     /** Sets the waveform to be synthesized by the Process() function.
 853              		.loc 2 67 17 view .LVU207
 854              	.LBB223:
  67:../../DaisySP/Source/Synthesis/oscillator.h ****     /** Sets the waveform to be synthesized by the Process() function.
 855              		.loc 2 67 41 view .LVU208
  67:../../DaisySP/Source/Synthesis/oscillator.h ****     /** Sets the waveform to be synthesized by the Process() function.
 856              		.loc 2 67 41 is_stmt 0 view .LVU209
 857              	.LBE223:
ARM GAS  /tmp/cc8Vnvvx.s 			page 28


 858              	.LBE225:
  72:samplehold.cpp **** 
 859              		.loc 11 72 5 is_stmt 1 view .LVU210
 860              	.LBB226:
 861              	.LBI216:
  19:../../DaisySP/Source/Noise/whitenoise.h ****     {
 862              		.loc 3 19 10 view .LVU211
 863              	.LBB219:
  21:../../DaisySP/Source/Noise/whitenoise.h ****         randseed_ = 1;
 864              		.loc 3 21 9 view .LVU212
  22:../../DaisySP/Source/Noise/whitenoise.h ****     }
 865              		.loc 3 22 9 view .LVU213
 866              	.LBE219:
 867              	.LBE226:
 868              		.loc 11 75 5 view .LVU214
 869              		.loc 11 75 20 is_stmt 0 view .LVU215
 870 00b2 FFF7FEFF 		bl	_ZN5daisy9DaisySeed10StartAudioEPFvPKfPfjE
 871              	.LVL42:
 872              	.L24:
  76:samplehold.cpp **** 
  77:samplehold.cpp **** 
  78:samplehold.cpp ****     while(1) {}
 873              		.loc 11 78 5 is_stmt 1 discriminator 1 view .LVU216
 874              		.loc 11 78 5 discriminator 1 view .LVU217
 875              		.loc 11 78 5 discriminator 1 view .LVU218
 876              		.loc 11 78 5 discriminator 1 view .LVU219
 877 00b6 FEE7     		b	.L24
 878              	.L27:
 879              		.align	2
 880              	.L26:
 881 00b8 00000000 		.word	.LANCHOR5
 882 00bc 00000000 		.word	.LANCHOR3
 883 00c0 00000000 		.word	.LANCHOR4
 884 00c4 0000C842 		.word	1120403456
 885 00c8 00000000 		.word	.LANCHOR0
 886 00cc CDCCCC3D 		.word	1036831949
 887 00d0 00005C43 		.word	1130102784
 888 00d4 0AD7233C 		.word	1008981770
 889 00d8 00000000 		.word	.LANCHOR1
 890 00dc 00000000 		.word	_ZL13AudioCallbackPKfPfj
 891              		.cfi_endproc
 892              	.LFE4213:
 894              		.section	.text.startup._GLOBAL__sub_I_osc_out,"ax",%progbits
 895              		.align	1
 896              		.p2align 2,,3
 897              		.syntax unified
 898              		.thumb
 899              		.thumb_func
 900              		.fpu fpv5-d16
 902              	_GLOBAL__sub_I_osc_out:
 903              	.LFB4759:
  79:samplehold.cpp **** }
 904              		.loc 11 79 1 view -0
 905              		.cfi_startproc
 906              		@ args = 0, pretend = 0, frame = 0
 907              		@ frame_needed = 0, uses_anonymous_args = 0
 908              	.LBB253:
ARM GAS  /tmp/cc8Vnvvx.s 			page 29


 909              	.LBI253:
 910              		.loc 11 79 1 view .LVU221
 911              	.LVL43:
 912              	.LBB254:
 913              	.LBB255:
 914              	.LBI255:
  21:../../libdaisy/src/daisy_seed.h ****     ~DaisySeed() {}
 915              		.loc 6 21 5 view .LVU222
 916              	.LBB256:
 917              	.LBB257:
 918              	.LBI257:
  62:../../libdaisy/src/hid/audio.h ****     ~AudioHandle() {}
 919              		.loc 10 62 5 view .LVU223
 920              	.LBE257:
 921              	.LBE256:
 922              	.LBE255:
 923              	.LBE254:
 924              	.LBE253:
 925              		.loc 11 79 1 is_stmt 0 view .LVU224
 926 0000 10B5     		push	{r4, lr}
 927              		.cfi_def_cfa_offset 8
 928              		.cfi_offset 4, -8
 929              		.cfi_offset 14, -4
 930              	.LBB289:
 931              	.LBB287:
 932              	.LBB272:
 933              	.LBB270:
 934              	.LBB262:
 935              	.LBB258:
 936              	.LBB259:
  62:../../libdaisy/src/hid/audio.h ****     ~AudioHandle() {}
 937              		.loc 10 62 35 view .LVU225
 938 0002 1348     		ldr	r0, .L30
 939 0004 0024     		movs	r4, #0
 940              	.LBE259:
 941              	.LBE258:
 942              	.LBE262:
 943              	.LBE270:
 944              	.LBE272:
  11:samplehold.cpp **** static Oscillator osc;
 945              		.loc 11 11 19 view .LVU226
 946 0006 134A     		ldr	r2, .L30+4
 947 0008 1349     		ldr	r1, .L30+8
 948              	.LBB273:
 949              	.LBB271:
 950              	.LBB263:
 951              	.LBB261:
 952              	.LBB260:
  62:../../libdaisy/src/hid/audio.h ****     ~AudioHandle() {}
 953              		.loc 10 62 35 view .LVU227
 954 000a 4461     		str	r4, [r0, #20]
 955              	.LVL44:
  62:../../libdaisy/src/hid/audio.h ****     ~AudioHandle() {}
 956              		.loc 10 62 35 view .LVU228
 957              	.LBE260:
 958              	.LBE261:
 959              	.LBE263:
ARM GAS  /tmp/cc8Vnvvx.s 			page 30


 960              	.LBB264:
 961              	.LBI264:
  84:../../libdaisy/src/per/adc.h ****     ~AdcHandle() {}
 962              		.loc 9 84 5 is_stmt 1 view .LVU229
  84:../../libdaisy/src/per/adc.h ****     ~AdcHandle() {}
 963              		.loc 9 84 5 is_stmt 0 view .LVU230
 964              	.LBE264:
 965              	.LBB265:
 966              	.LBI265:
 967              		.file 12 "../../libdaisy/src/per/dac.h"
   1:../../libdaisy/src/per/dac.h **** #pragma once
   2:../../libdaisy/src/per/dac.h **** #ifndef DSY_DAC_H
   3:../../libdaisy/src/per/dac.h **** #define DSY_DAC_H
   4:../../libdaisy/src/per/dac.h **** 
   5:../../libdaisy/src/per/dac.h **** #include "daisy_core.h"
   6:../../libdaisy/src/per/dac.h **** 
   7:../../libdaisy/src/per/dac.h **** namespace daisy
   8:../../libdaisy/src/per/dac.h **** {
   9:../../libdaisy/src/per/dac.h **** /** DAC handle for Built-in DAC Peripheral 
  10:../../libdaisy/src/per/dac.h ****  ** 
  11:../../libdaisy/src/per/dac.h ****  ** For now only Normal Mode is supported,
  12:../../libdaisy/src/per/dac.h ****  ** Sample and hold mode provides reduced power consumption, but requires a bit more setup.
  13:../../libdaisy/src/per/dac.h ****  **
  14:../../libdaisy/src/per/dac.h ****  ** For now connecting the DAC through other internal periphearls is also not supported.
  15:../../libdaisy/src/per/dac.h ****  **
  16:../../libdaisy/src/per/dac.h ****  ** Since the DAC channels have dedicated pins we don't need to pass in a pin config like with
  17:../../libdaisy/src/per/dac.h ****  ** other modules. However, it is still important to not try to use the DAC pins for anything else.
  18:../../libdaisy/src/per/dac.h ****  ** DAC Channel 1 is on PA4, and DAC Channel 2 is on PA5
  19:../../libdaisy/src/per/dac.h ****  ***/
  20:../../libdaisy/src/per/dac.h **** class DacHandle
  21:../../libdaisy/src/per/dac.h **** {
  22:../../libdaisy/src/per/dac.h ****   public:
  23:../../libdaisy/src/per/dac.h ****     /** Return Values for the DacHandle class */
  24:../../libdaisy/src/per/dac.h ****     enum class Result
  25:../../libdaisy/src/per/dac.h ****     {
  26:../../libdaisy/src/per/dac.h ****         OK,
  27:../../libdaisy/src/per/dac.h ****         ERR,
  28:../../libdaisy/src/per/dac.h ****     };
  29:../../libdaisy/src/per/dac.h **** 
  30:../../libdaisy/src/per/dac.h ****     /** Selects which channel(s) will be configured for use. */
  31:../../libdaisy/src/per/dac.h ****     enum class Channel
  32:../../libdaisy/src/per/dac.h ****     {
  33:../../libdaisy/src/per/dac.h ****         ONE,
  34:../../libdaisy/src/per/dac.h ****         TWO,
  35:../../libdaisy/src/per/dac.h ****         BOTH,
  36:../../libdaisy/src/per/dac.h ****     };
  37:../../libdaisy/src/per/dac.h **** 
  38:../../libdaisy/src/per/dac.h ****     /** Sets the Mode for the DAC channels.
  39:../../libdaisy/src/per/dac.h ****      **
  40:../../libdaisy/src/per/dac.h ****      ** Polling mode uses the blocking mode to transmit a single value at a time.
  41:../../libdaisy/src/per/dac.h ****      **
  42:../../libdaisy/src/per/dac.h ****      ** DMA mode uses a buffer, and periodically transmits it triggering a 
  43:../../libdaisy/src/per/dac.h ****      ** callback to fill the buffer when it is ready for more samples.
  44:../../libdaisy/src/per/dac.h ****      ***/
  45:../../libdaisy/src/per/dac.h ****     enum class Mode
  46:../../libdaisy/src/per/dac.h ****     {
  47:../../libdaisy/src/per/dac.h ****         POLLING,
ARM GAS  /tmp/cc8Vnvvx.s 			page 31


  48:../../libdaisy/src/per/dac.h ****         DMA,
  49:../../libdaisy/src/per/dac.h ****     };
  50:../../libdaisy/src/per/dac.h **** 
  51:../../libdaisy/src/per/dac.h ****     /** Sets the number of bits per sample transmitted out of the DAC.
  52:../../libdaisy/src/per/dac.h ****      ** The output range will be: 0V - VDDA
  53:../../libdaisy/src/per/dac.h ****      ** The resolution will be roughly: bitdepth / (VDDA - 0V) 
  54:../../libdaisy/src/per/dac.h ****      ***/
  55:../../libdaisy/src/per/dac.h ****     enum class BitDepth
  56:../../libdaisy/src/per/dac.h ****     {
  57:../../libdaisy/src/per/dac.h ****         BITS_8,
  58:../../libdaisy/src/per/dac.h ****         BITS_12
  59:../../libdaisy/src/per/dac.h ****     };
  60:../../libdaisy/src/per/dac.h **** 
  61:../../libdaisy/src/per/dac.h ****     /** Sets whether the DAC output is buffered for higher drive ability. */
  62:../../libdaisy/src/per/dac.h ****     enum class BufferState
  63:../../libdaisy/src/per/dac.h ****     {
  64:../../libdaisy/src/per/dac.h ****         ENABLED,
  65:../../libdaisy/src/per/dac.h ****         DISABLED,
  66:../../libdaisy/src/per/dac.h ****     };
  67:../../libdaisy/src/per/dac.h **** 
  68:../../libdaisy/src/per/dac.h ****     /** Configuration structure for initializing the DAC structure. */
  69:../../libdaisy/src/per/dac.h ****     struct Config
  70:../../libdaisy/src/per/dac.h ****     {
  71:../../libdaisy/src/per/dac.h ****         /** Target Samplerate in Hz used to configure the internal 
  72:../../libdaisy/src/per/dac.h ****          ** timebase for DMA mode. Does nothing in POLLING mode.
  73:../../libdaisy/src/per/dac.h ****          ** If the value is 0 at Init time this will default to 48000Hz 
  74:../../libdaisy/src/per/dac.h ****          ** otherwise the driver will attempt meet the target.*/
  75:../../libdaisy/src/per/dac.h ****         uint32_t target_samplerate;
  76:../../libdaisy/src/per/dac.h **** 
  77:../../libdaisy/src/per/dac.h ****         Channel     chn;
  78:../../libdaisy/src/per/dac.h ****         Mode        mode;
  79:../../libdaisy/src/per/dac.h ****         BitDepth    bitdepth;
  80:../../libdaisy/src/per/dac.h ****         BufferState buff_state;
  81:../../libdaisy/src/per/dac.h ****     };
  82:../../libdaisy/src/per/dac.h **** 
  83:../../libdaisy/src/per/dac.h ****     DacHandle() : pimpl_(nullptr) {}
 968              		.loc 12 83 5 is_stmt 1 view .LVU231
 969              	.LBB266:
 970              	.LBB267:
 971              		.loc 12 83 33 is_stmt 0 view .LVU232
 972 000c 0462     		str	r4, [r0, #32]
 973              	.LVL45:
 974              		.loc 12 83 33 view .LVU233
 975              	.LBE267:
 976              	.LBE266:
 977              	.LBE265:
 978              	.LBB268:
 979              	.LBI268:
  40:../../libdaisy/src/hid/usb.h **** 
 980              		.loc 8 40 5 is_stmt 1 view .LVU234
  40:../../libdaisy/src/hid/usb.h **** 
 981              		.loc 8 40 5 is_stmt 0 view .LVU235
 982              	.LBE268:
 983              	.LBB269:
 984              	.LBI269:
  58:../../libdaisy/src/sys/system.h ****     ~System() {}
 985              		.loc 7 58 5 is_stmt 1 view .LVU236
ARM GAS  /tmp/cc8Vnvvx.s 			page 32


  58:../../libdaisy/src/sys/system.h ****     ~System() {}
 986              		.loc 7 58 5 is_stmt 0 view .LVU237
 987              	.LBE269:
 988              	.LBE271:
 989              	.LBE273:
  11:samplehold.cpp **** static Oscillator osc;
 990              		.loc 11 11 19 view .LVU238
 991 000e FFF7FEFF 		bl	__aeabi_atexit
 992              	.LVL46:
 993              	.LBB274:
 994              	.LBI274:
  15:../../DaisySP/Source/Synthesis/oscillator.h ****     ~Oscillator() {}
 995              		.loc 2 15 5 is_stmt 1 view .LVU239
  15:../../DaisySP/Source/Synthesis/oscillator.h ****     ~Oscillator() {}
 996              		.loc 2 15 5 is_stmt 0 view .LVU240
 997              	.LBE274:
  12:samplehold.cpp **** static Metro      tick;
 998              		.loc 11 12 19 view .LVU241
 999 0012 104A     		ldr	r2, .L30+4
 1000 0014 1149     		ldr	r1, .L30+12
 1001 0016 1248     		ldr	r0, .L30+16
 1002 0018 FFF7FEFF 		bl	__aeabi_atexit
 1003              	.LVL47:
 1004              	.LBB275:
 1005              	.LBI275:
  14:../../DaisySP/Source/Utility/metro.h ****     ~Metro() {}
 1006              		.loc 4 14 5 is_stmt 1 view .LVU242
  14:../../DaisySP/Source/Utility/metro.h ****     ~Metro() {}
 1007              		.loc 4 14 5 is_stmt 0 view .LVU243
 1008              	.LBE275:
  13:samplehold.cpp **** static WhiteNoise noise;
 1009              		.loc 11 13 19 view .LVU244
 1010 001c 0D4A     		ldr	r2, .L30+4
 1011 001e 1149     		ldr	r1, .L30+20
 1012 0020 1148     		ldr	r0, .L30+24
 1013 0022 FFF7FEFF 		bl	__aeabi_atexit
 1014              	.LVL48:
 1015              	.LBB276:
 1016              	.LBI276:
  15:../../DaisySP/Source/Noise/whitenoise.h ****     ~WhiteNoise() {}
 1017              		.loc 3 15 5 is_stmt 1 view .LVU245
  15:../../DaisySP/Source/Noise/whitenoise.h ****     ~WhiteNoise() {}
 1018              		.loc 3 15 5 is_stmt 0 view .LVU246
 1019              	.LBE276:
  14:samplehold.cpp **** static AdEnv      env;
 1020              		.loc 11 14 19 view .LVU247
 1021 0026 0B4A     		ldr	r2, .L30+4
 1022 0028 1049     		ldr	r1, .L30+28
 1023 002a 1148     		ldr	r0, .L30+32
 1024 002c FFF7FEFF 		bl	__aeabi_atexit
 1025              	.LVL49:
 1026              	.LBB277:
 1027              	.LBI277:
  34:../../DaisySP/Source/Control/adenv.h ****     ~AdEnv() {}
 1028              		.loc 1 34 5 is_stmt 1 view .LVU248
  34:../../DaisySP/Source/Control/adenv.h ****     ~AdEnv() {}
 1029              		.loc 1 34 5 is_stmt 0 view .LVU249
ARM GAS  /tmp/cc8Vnvvx.s 			page 33


 1030              	.LBE277:
  15:samplehold.cpp **** static SampleHold sh;
 1031              		.loc 11 15 19 view .LVU250
 1032 0030 084A     		ldr	r2, .L30+4
 1033 0032 1049     		ldr	r1, .L30+36
 1034 0034 1048     		ldr	r0, .L30+40
 1035 0036 FFF7FEFF 		bl	__aeabi_atexit
 1036              	.LVL50:
 1037              	.LBB278:
 1038              	.LBI278:
  18:../../DaisySP/Source/Utility/samplehold.h ****     ~SampleHold() {}
 1039              		.loc 5 18 5 is_stmt 1 view .LVU251
 1040              	.LBB279:
 1041              	.LBB280:
  18:../../DaisySP/Source/Utility/samplehold.h ****     ~SampleHold() {}
 1042              		.loc 5 18 18 is_stmt 0 view .LVU252
 1043 003a 1048     		ldr	r0, .L30+44
 1044 003c 0023     		movs	r3, #0
 1045              	.LBE280:
 1046              	.LBE279:
 1047              	.LBE278:
  16:samplehold.cpp **** 
 1048              		.loc 11 16 19 view .LVU253
 1049 003e 054A     		ldr	r2, .L30+4
 1050              	.LBB285:
 1051              	.LBB283:
 1052              	.LBB281:
  18:../../DaisySP/Source/Utility/samplehold.h ****     ~SampleHold() {}
 1053              		.loc 5 18 18 view .LVU254
 1054 0040 0472     		strb	r4, [r0, #8]
 1055              	.LVL51:
  18:../../DaisySP/Source/Utility/samplehold.h ****     ~SampleHold() {}
 1056              		.loc 5 18 18 view .LVU255
 1057              	.LBE281:
 1058              	.LBE283:
 1059              	.LBE285:
  16:samplehold.cpp **** 
 1060              		.loc 11 16 19 view .LVU256
 1061 0042 0F49     		ldr	r1, .L30+48
 1062              	.LBB286:
 1063              	.LBB284:
 1064              	.LBB282:
  18:../../DaisySP/Source/Utility/samplehold.h ****     ~SampleHold() {}
 1065              		.loc 5 18 18 view .LVU257
 1066 0044 0360     		str	r3, [r0]	@ float
 1067 0046 4360     		str	r3, [r0, #4]	@ float
 1068              	.LBE282:
 1069              	.LBE284:
 1070              	.LBE286:
 1071              	.LBE287:
 1072              	.LBE289:
 1073              		.loc 11 79 1 view .LVU258
 1074 0048 BDE81040 		pop	{r4, lr}
 1075              		.cfi_restore 14
 1076              		.cfi_restore 4
 1077              		.cfi_def_cfa_offset 0
 1078              	.LBB290:
ARM GAS  /tmp/cc8Vnvvx.s 			page 34


 1079              	.LBB288:
  16:samplehold.cpp **** 
 1080              		.loc 11 16 19 view .LVU259
 1081 004c FFF7FEBF 		b	__aeabi_atexit
 1082              	.LVL52:
 1083              	.L31:
 1084              		.align	2
 1085              	.L30:
 1086 0050 00000000 		.word	.LANCHOR5
 1087 0054 00000000 		.word	__dso_handle
 1088 0058 00000000 		.word	_ZN5daisy9DaisySeedD1Ev
 1089 005c 00000000 		.word	_ZN7daisysp10OscillatorD1Ev
 1090 0060 00000000 		.word	.LANCHOR4
 1091 0064 00000000 		.word	_ZN7daisysp5MetroD1Ev
 1092 0068 00000000 		.word	.LANCHOR0
 1093 006c 00000000 		.word	_ZN7daisysp10WhiteNoiseD1Ev
 1094 0070 00000000 		.word	.LANCHOR1
 1095 0074 00000000 		.word	_ZN7daisysp5AdEnvD1Ev
 1096 0078 00000000 		.word	.LANCHOR3
 1097 007c 00000000 		.word	.LANCHOR2
 1098 0080 00000000 		.word	_ZN7daisysp10SampleHoldD1Ev
 1099              	.LBE288:
 1100              	.LBE290:
 1101              		.cfi_endproc
 1102              	.LFE4759:
 1104              		.section	.init_array,"aw",%init_array
 1105              		.align	2
 1106 0000 00000000 		.word	_GLOBAL__sub_I_osc_out(target1)
 1107              		.global	osc_out
 1108              		.section	.bss._ZL2sh,"aw",%nobits
 1109              		.align	2
 1110              		.set	.LANCHOR2,. + 0
 1113              	_ZL2sh:
 1114 0000 00000000 		.space	12
 1114      00000000 
 1114      00000000 
 1115              		.section	.bss._ZL3env,"aw",%nobits
 1116              		.align	2
 1117              		.set	.LANCHOR3,. + 0
 1120              	_ZL3env:
 1121 0000 00000000 		.space	56
 1121      00000000 
 1121      00000000 
 1121      00000000 
 1121      00000000 
 1122              		.section	.bss._ZL3osc,"aw",%nobits
 1123              		.align	2
 1124              		.set	.LANCHOR4,. + 0
 1127              	_ZL3osc:
 1128 0000 00000000 		.space	40
 1128      00000000 
 1128      00000000 
 1128      00000000 
 1128      00000000 
 1129              		.section	.bss._ZL4seed,"aw",%nobits
 1130              		.align	2
 1131              		.set	.LANCHOR5,. + 0
ARM GAS  /tmp/cc8Vnvvx.s 			page 35


 1134              	_ZL4seed:
 1135 0000 00000000 		.space	60
 1135      00000000 
 1135      00000000 
 1135      00000000 
 1135      00000000 
 1136              		.section	.bss._ZL4tick,"aw",%nobits
 1137              		.align	2
 1138              		.set	.LANCHOR0,. + 0
 1141              	_ZL4tick:
 1142 0000 00000000 		.space	16
 1142      00000000 
 1142      00000000 
 1142      00000000 
 1143              		.section	.bss._ZL5noise,"aw",%nobits
 1144              		.align	2
 1145              		.set	.LANCHOR1,. + 0
 1148              	_ZL5noise:
 1149 0000 00000000 		.space	8
 1149      00000000 
 1150              		.section	.bss.osc_out,"aw",%nobits
 1151              		.align	2
 1154              	osc_out:
 1155 0000 00000000 		.space	4
 1156              		.text
 1157              	.Letext0:
 1158              		.file 13 "/usr/lib/gcc/arm-none-eabi/9.2.1/include/stdint.h"
 1159              		.file 14 "../../libdaisy/Drivers/CMSIS/Include/core_cm7.h"
 1160              		.file 15 "../../libdaisy/Drivers/CMSIS/Device/ST/STM32H7xx/Include/system_stm32h7xx.h"
 1161              		.file 16 "/usr/lib/gcc/arm-none-eabi/9.2.1/include/stddef.h"
 1162              		.file 17 "/usr/include/newlib/c++/9.2.1/cmath"
 1163              		.file 18 "/usr/include/newlib/c++/9.2.1/bits/std_abs.h"
 1164              		.file 19 "/usr/include/newlib/c++/9.2.1/cstdint"
 1165              		.file 20 "/usr/include/newlib/c++/9.2.1/cstdlib"
 1166              		.file 21 "/usr/include/newlib/c++/9.2.1/type_traits"
 1167              		.file 22 "/usr/include/newlib/c++/9.2.1/arm-none-eabi/thumb/v7e-m+dp/hard/bits/c++config.h"
 1168              		.file 23 "/usr/include/newlib/c++/9.2.1/bits/stl_pair.h"
 1169              		.file 24 "/usr/include/newlib/c++/9.2.1/debug/debug.h"
 1170              		.file 25 "/usr/include/newlib/c++/9.2.1/cwchar"
 1171              		.file 26 "/usr/include/newlib/c++/9.2.1/bits/exception_ptr.h"
 1172              		.file 27 "/usr/include/newlib/c++/9.2.1/new"
 1173              		.file 28 "/usr/include/newlib/c++/9.2.1/clocale"
 1174              		.file 29 "/usr/include/newlib/c++/9.2.1/cstdio"
 1175              		.file 30 "/usr/include/newlib/c++/9.2.1/bits/basic_string.h"
 1176              		.file 31 "/usr/include/newlib/c++/9.2.1/bits/uniform_int_dist.h"
 1177              		.file 32 "/usr/include/newlib/c++/9.2.1/bits/random.h"
 1178              		.file 33 "/usr/include/newlib/c++/9.2.1/cstring"
 1179              		.file 34 "/usr/include/newlib/c++/9.2.1/bits/algorithmfwd.h"
 1180              		.file 35 "/usr/include/newlib/c++/9.2.1/cstdarg"
 1181              		.file 36 "/usr/include/newlib/c++/9.2.1/bits/predefined_ops.h"
 1182              		.file 37 "/usr/include/newlib/c++/9.2.1/ext/new_allocator.h"
 1183              		.file 38 "/usr/include/newlib/c++/9.2.1/ext/numeric_traits.h"
 1184              		.file 39 "/usr/include/newlib/sys/_types.h"
 1185              		.file 40 "<built-in>"
 1186              		.file 41 "/usr/include/newlib/sys/reent.h"
 1187              		.file 42 "/usr/include/newlib/sys/lock.h"
 1188              		.file 43 "/usr/include/newlib/math.h"
ARM GAS  /tmp/cc8Vnvvx.s 			page 36


 1189              		.file 44 "/usr/include/newlib/stdlib.h"
 1190              		.file 45 "/usr/include/newlib/c++/9.2.1/math.h"
 1191              		.file 46 "../../libdaisy/Drivers/STM32H7xx_HAL_Driver/Inc/stm32h7xx_hal_def.h"
 1192              		.file 47 "../../libdaisy/Drivers/STM32H7xx_HAL_Driver/Inc/stm32h7xx_hal_flash.h"
 1193              		.file 48 "../../DaisySP/Source/Utility/dsp.h"
 1194              		.file 49 "/usr/lib/gcc/arm-none-eabi/9.2.1/include/stdarg.h"
 1195              		.file 50 "/usr/include/newlib/wchar.h"
 1196              		.file 51 "/usr/include/newlib/locale.h"
 1197              		.file 52 "/usr/include/newlib/ctype.h"
 1198              		.file 53 "/usr/include/newlib/stdio.h"
 1199              		.file 54 "/usr/include/newlib/sys/errno.h"
 1200              		.file 55 "/usr/include/newlib/c++/9.2.1/stdlib.h"
 1201              		.file 56 "/usr/include/newlib/string.h"
 1202              		.file 57 "../../libdaisy/src/daisy_core.h"
 1203              		.file 58 "../../libdaisy/src/per/tim.h"
 1204              		.file 59 "../../libdaisy/src/per/sai.h"
 1205              		.file 60 "../../libdaisy/src/util/wav_format.h"
 1206              		.file 61 "../../libdaisy/src/per/qspi.h"
 1207              		.file 62 "../../libdaisy/src/per/gpio.h"
 1208              		.file 63 "../../libdaisy/src/dev/sdram.h"
 1209              		.file 64 "/usr/include/newlib/sys/unistd.h"
 1210              		.file 65 "../../libdaisy/src/util/oled_fonts.h"
 1211              		.file 66 "../../libdaisy/Middlewares/Third_Party/FatFs/src/integer.h"
 1212              		.file 67 "../../libdaisy/Middlewares/Third_Party/FatFs/src/ff.h"
 1213              		.file 68 "../../libdaisy/Middlewares/Third_Party/FatFs/src/diskio.h"
 1214              		.file 69 "../../libdaisy/Middlewares/Third_Party/FatFs/src/ff_gen_drv.h"
 1215              		.file 70 "../../libdaisy/src/util/sd_diskio.h"
 1216              		.file 71 "../../libdaisy/src/sys/fatfs.h"
 1217              		.file 72 "../../libdaisy/src/dev/sr_595.h"
ARM GAS  /tmp/cc8Vnvvx.s 			page 37

