ARM GAS  /tmp/ccJZO3gV.s 			page 1


   1              		.cpu cortex-m7
   2              		.eabi_attribute 28, 1
   3              		.eabi_attribute 20, 1
   4              		.eabi_attribute 21, 1
   5              		.eabi_attribute 23, 3
   6              		.eabi_attribute 24, 1
   7              		.eabi_attribute 25, 1
   8              		.eabi_attribute 26, 1
   9              		.eabi_attribute 30, 2
  10              		.eabi_attribute 34, 1
  11              		.eabi_attribute 18, 4
  12              		.file	"decimator.cpp"
  13              		.text
  14              	.Ltext0:
  15              		.cfi_sections	.debug_frame
  16              		.section	.text._ZN7daisysp6PhasorD2Ev,"axG",%progbits,_ZN7daisysp6PhasorD5Ev,comdat
  17              		.align	1
  18              		.p2align 2,,3
  19              		.weak	_ZN7daisysp6PhasorD2Ev
  20              		.arch armv7e-m
  21              		.syntax unified
  22              		.thumb
  23              		.thumb_func
  24              		.fpu fpv5-d16
  26              	_ZN7daisysp6PhasorD2Ev:
  27              	.LVL0:
  28              	.LFB578:
  29              		.file 1 "../../DaisySP/Source/Control/phasor.h"
   1:../../DaisySP/Source/Control/phasor.h **** #pragma once
   2:../../DaisySP/Source/Control/phasor.h **** #ifndef DSY_PHASOR_H
   3:../../DaisySP/Source/Control/phasor.h **** #define DSY_PHASOR_H
   4:../../DaisySP/Source/Control/phasor.h **** #ifdef __cplusplus
   5:../../DaisySP/Source/Control/phasor.h **** 
   6:../../DaisySP/Source/Control/phasor.h **** namespace daisysp
   7:../../DaisySP/Source/Control/phasor.h **** {
   8:../../DaisySP/Source/Control/phasor.h **** /** Generates a normalized signal moving from 0-1 at the specified frequency.
   9:../../DaisySP/Source/Control/phasor.h **** 
  10:../../DaisySP/Source/Control/phasor.h **** \todo Selecting which channels should be initialized/included in the sequence conversion.
  11:../../DaisySP/Source/Control/phasor.h **** \todo Setup a similar start function for an external mux, but that seems outside the scope of this 
  12:../../DaisySP/Source/Control/phasor.h **** 
  13:../../DaisySP/Source/Control/phasor.h **** */
  14:../../DaisySP/Source/Control/phasor.h **** class Phasor
  15:../../DaisySP/Source/Control/phasor.h **** {
  16:../../DaisySP/Source/Control/phasor.h ****   public:
  17:../../DaisySP/Source/Control/phasor.h ****     Phasor() {}
  18:../../DaisySP/Source/Control/phasor.h ****     ~Phasor() {}
  30              		.loc 1 18 5 view -0
  31              		.cfi_startproc
  32              		@ args = 0, pretend = 0, frame = 0
  33              		@ frame_needed = 0, uses_anonymous_args = 0
  34              		@ link register save eliminated.
  35              		.loc 1 18 16 is_stmt 0 view .LVU1
  36 0000 7047     		bx	lr
  37              		.cfi_endproc
  38              	.LFE578:
  40              		.weak	_ZN7daisysp6PhasorD1Ev
  41              		.thumb_set _ZN7daisysp6PhasorD1Ev,_ZN7daisysp6PhasorD2Ev
ARM GAS  /tmp/ccJZO3gV.s 			page 2


  42 0002 00BF     		.section	.text._ZN7daisysp10OscillatorD2Ev,"axG",%progbits,_ZN7daisysp10OscillatorD5Ev,comdat
  43              		.align	1
  44              		.p2align 2,,3
  45              		.weak	_ZN7daisysp10OscillatorD2Ev
  46              		.syntax unified
  47              		.thumb
  48              		.thumb_func
  49              		.fpu fpv5-d16
  51              	_ZN7daisysp10OscillatorD2Ev:
  52              	.LVL1:
  53              	.LFB2797:
  54              		.file 2 "../../DaisySP/Source/Synthesis/oscillator.h"
   1:../../DaisySP/Source/Synthesis/oscillator.h **** #pragma once
   2:../../DaisySP/Source/Synthesis/oscillator.h **** #ifndef DSY_OSCILLATOR_H
   3:../../DaisySP/Source/Synthesis/oscillator.h **** #define DSY_OSCILLATOR_H
   4:../../DaisySP/Source/Synthesis/oscillator.h **** #include <stdint.h>
   5:../../DaisySP/Source/Synthesis/oscillator.h **** #include "Utility/dsp.h"
   6:../../DaisySP/Source/Synthesis/oscillator.h **** #ifdef __cplusplus
   7:../../DaisySP/Source/Synthesis/oscillator.h **** 
   8:../../DaisySP/Source/Synthesis/oscillator.h **** namespace daisysp
   9:../../DaisySP/Source/Synthesis/oscillator.h **** {
  10:../../DaisySP/Source/Synthesis/oscillator.h **** /** Synthesis of several waveforms, including polyBLEP bandlimited waveforms.
  11:../../DaisySP/Source/Synthesis/oscillator.h **** */
  12:../../DaisySP/Source/Synthesis/oscillator.h **** class Oscillator
  13:../../DaisySP/Source/Synthesis/oscillator.h **** {
  14:../../DaisySP/Source/Synthesis/oscillator.h ****   public:
  15:../../DaisySP/Source/Synthesis/oscillator.h ****     Oscillator() {}
  16:../../DaisySP/Source/Synthesis/oscillator.h ****     ~Oscillator() {}
  55              		.loc 2 16 5 is_stmt 1 view -0
  56              		.cfi_startproc
  57              		@ args = 0, pretend = 0, frame = 0
  58              		@ frame_needed = 0, uses_anonymous_args = 0
  59              		@ link register save eliminated.
  60              		.loc 2 16 20 is_stmt 0 view .LVU3
  61 0000 7047     		bx	lr
  62              		.cfi_endproc
  63              	.LFE2797:
  65              		.weak	_ZN7daisysp10OscillatorD1Ev
  66              		.thumb_set _ZN7daisysp10OscillatorD1Ev,_ZN7daisysp10OscillatorD2Ev
  67 0002 00BF     		.section	.text._ZN7daisysp9DecimatorD2Ev,"axG",%progbits,_ZN7daisysp9DecimatorD5Ev,comdat
  68              		.align	1
  69              		.p2align 2,,3
  70              		.weak	_ZN7daisysp9DecimatorD2Ev
  71              		.syntax unified
  72              		.thumb
  73              		.thumb_func
  74              		.fpu fpv5-d16
  76              	_ZN7daisysp9DecimatorD2Ev:
  77              	.LVL2:
  78              	.LFB2976:
  79              		.file 3 "../../DaisySP/Source/Effects/decimator.h"
   1:../../DaisySP/Source/Effects/decimator.h **** 
   2:../../DaisySP/Source/Effects/decimator.h **** #pragma once
   3:../../DaisySP/Source/Effects/decimator.h **** #ifndef DECIMATOR_H
   4:../../DaisySP/Source/Effects/decimator.h **** #define DECIMATOR_H
   5:../../DaisySP/Source/Effects/decimator.h **** #include <stdint.h>
   6:../../DaisySP/Source/Effects/decimator.h **** #ifdef __cplusplus
ARM GAS  /tmp/ccJZO3gV.s 			page 3


   7:../../DaisySP/Source/Effects/decimator.h **** 
   8:../../DaisySP/Source/Effects/decimator.h **** namespace daisysp
   9:../../DaisySP/Source/Effects/decimator.h **** {
  10:../../DaisySP/Source/Effects/decimator.h **** /** Performs downsampling and bitcrush effects
  11:../../DaisySP/Source/Effects/decimator.h **** */
  12:../../DaisySP/Source/Effects/decimator.h **** class Decimator
  13:../../DaisySP/Source/Effects/decimator.h **** {
  14:../../DaisySP/Source/Effects/decimator.h ****   public:
  15:../../DaisySP/Source/Effects/decimator.h ****     Decimator() {}
  16:../../DaisySP/Source/Effects/decimator.h ****     ~Decimator() {}
  80              		.loc 3 16 5 is_stmt 1 view -0
  81              		.cfi_startproc
  82              		@ args = 0, pretend = 0, frame = 0
  83              		@ frame_needed = 0, uses_anonymous_args = 0
  84              		@ link register save eliminated.
  85              		.loc 3 16 19 is_stmt 0 view .LVU5
  86 0000 7047     		bx	lr
  87              		.cfi_endproc
  88              	.LFE2976:
  90              		.weak	_ZN7daisysp9DecimatorD1Ev
  91              		.thumb_set _ZN7daisysp9DecimatorD1Ev,_ZN7daisysp9DecimatorD2Ev
  92 0002 00BF     		.section	.text._ZN5daisy9DaisySeedD2Ev,"axG",%progbits,_ZN5daisy9DaisySeedD5Ev,comdat
  93              		.align	1
  94              		.p2align 2,,3
  95              		.weak	_ZN5daisy9DaisySeedD2Ev
  96              		.syntax unified
  97              		.thumb
  98              		.thumb_func
  99              		.fpu fpv5-d16
 101              	_ZN5daisy9DaisySeedD2Ev:
 102              	.LVL3:
 103              	.LFB4207:
 104              		.file 4 "../../libdaisy/src/daisy_seed.h"
   1:../../libdaisy/src/daisy_seed.h **** #pragma once
   2:../../libdaisy/src/daisy_seed.h **** #ifndef DSY_SEED_H
   3:../../libdaisy/src/daisy_seed.h **** #define DSY_SEED_H
   4:../../libdaisy/src/daisy_seed.h **** 
   5:../../libdaisy/src/daisy_seed.h **** #include "daisy.h"
   6:../../libdaisy/src/daisy_seed.h **** 
   7:../../libdaisy/src/daisy_seed.h **** //Uncomment this out if you're still using the rev2 hardware
   8:../../libdaisy/src/daisy_seed.h **** //#define SEED_REV2
   9:../../libdaisy/src/daisy_seed.h **** 
  10:../../libdaisy/src/daisy_seed.h **** namespace daisy
  11:../../libdaisy/src/daisy_seed.h **** {
  12:../../libdaisy/src/daisy_seed.h **** /**
  13:../../libdaisy/src/daisy_seed.h ****    @brief This is the higher-level interface for the Daisy board. \n 
  14:../../libdaisy/src/daisy_seed.h ****     All basic peripheral configuration/initialization is setup here. \n
  15:../../libdaisy/src/daisy_seed.h **** 
  16:../../libdaisy/src/daisy_seed.h ****    @ingroup boards
  17:../../libdaisy/src/daisy_seed.h **** */
  18:../../libdaisy/src/daisy_seed.h **** class DaisySeed
  19:../../libdaisy/src/daisy_seed.h **** {
  20:../../libdaisy/src/daisy_seed.h ****   public:
  21:../../libdaisy/src/daisy_seed.h ****     DaisySeed() {}
  22:../../libdaisy/src/daisy_seed.h ****     ~DaisySeed() {}
 105              		.loc 4 22 5 is_stmt 1 view -0
 106              		.cfi_startproc
ARM GAS  /tmp/ccJZO3gV.s 			page 4


 107              		@ args = 0, pretend = 0, frame = 0
 108              		@ frame_needed = 0, uses_anonymous_args = 0
 109              		@ link register save eliminated.
 110              	.LBB88:
 111              	.LBI88:
 112              		.file 5 "../../libdaisy/src/sys/system.h"
   1:../../libdaisy/src/sys/system.h **** #ifndef DSY_SYSTEM_H
   2:../../libdaisy/src/sys/system.h **** #define DSY_SYSTEM_H
   3:../../libdaisy/src/sys/system.h **** 
   4:../../libdaisy/src/sys/system.h **** #ifndef UNIT_TEST // for unit tests, a dummy implementation is provided below
   5:../../libdaisy/src/sys/system.h **** 
   6:../../libdaisy/src/sys/system.h **** #include <cstdint>
   7:../../libdaisy/src/sys/system.h **** #include "per/tim.h"
   8:../../libdaisy/src/sys/system.h **** 
   9:../../libdaisy/src/sys/system.h **** namespace daisy
  10:../../libdaisy/src/sys/system.h **** {
  11:../../libdaisy/src/sys/system.h **** /** A handle for interacting with the Core System. 
  12:../../libdaisy/src/sys/system.h ****  ** This includes the Clock tree, MPU, global DMA initialization,
  13:../../libdaisy/src/sys/system.h ****  ** cache handling, and any other necessary global initiailzation
  14:../../libdaisy/src/sys/system.h ****  **
  15:../../libdaisy/src/sys/system.h ****  ** @author shensley
  16:../../libdaisy/src/sys/system.h ****  ** @addtogroup system
  17:../../libdaisy/src/sys/system.h ****  */
  18:../../libdaisy/src/sys/system.h **** class System
  19:../../libdaisy/src/sys/system.h **** {
  20:../../libdaisy/src/sys/system.h ****   public:
  21:../../libdaisy/src/sys/system.h ****     /** Contains settings for initializing the System */
  22:../../libdaisy/src/sys/system.h ****     struct Config
  23:../../libdaisy/src/sys/system.h ****     {
  24:../../libdaisy/src/sys/system.h ****         /** Specifies the system clock frequency that feeds APB/AHB clocks, etc. */
  25:../../libdaisy/src/sys/system.h ****         enum class SysClkFreq
  26:../../libdaisy/src/sys/system.h ****         {
  27:../../libdaisy/src/sys/system.h ****             FREQ_400MHZ,
  28:../../libdaisy/src/sys/system.h ****             FREQ_480MHZ,
  29:../../libdaisy/src/sys/system.h ****         };
  30:../../libdaisy/src/sys/system.h **** 
  31:../../libdaisy/src/sys/system.h ****         /** Method to call on the struct to set to defaults
  32:../../libdaisy/src/sys/system.h ****          ** CPU Freq set to 400MHz
  33:../../libdaisy/src/sys/system.h ****          ** Cache Enabled 
  34:../../libdaisy/src/sys/system.h ****          ** */
  35:../../libdaisy/src/sys/system.h ****         void Defaults()
  36:../../libdaisy/src/sys/system.h ****         {
  37:../../libdaisy/src/sys/system.h ****             cpu_freq   = SysClkFreq::FREQ_400MHZ;
  38:../../libdaisy/src/sys/system.h ****             use_dcache = true;
  39:../../libdaisy/src/sys/system.h ****             use_icache = true;
  40:../../libdaisy/src/sys/system.h ****         }
  41:../../libdaisy/src/sys/system.h **** 
  42:../../libdaisy/src/sys/system.h ****         /** Method to call on the struct to set to boost mode:
  43:../../libdaisy/src/sys/system.h ****          ** CPU Freq set to 480MHz
  44:../../libdaisy/src/sys/system.h ****          ** Cache Enabled 
  45:../../libdaisy/src/sys/system.h ****          ** */
  46:../../libdaisy/src/sys/system.h ****         void Boost()
  47:../../libdaisy/src/sys/system.h ****         {
  48:../../libdaisy/src/sys/system.h ****             cpu_freq   = SysClkFreq::FREQ_480MHZ;
  49:../../libdaisy/src/sys/system.h ****             use_dcache = true;
  50:../../libdaisy/src/sys/system.h ****             use_icache = true;
  51:../../libdaisy/src/sys/system.h ****         }
ARM GAS  /tmp/ccJZO3gV.s 			page 5


  52:../../libdaisy/src/sys/system.h **** 
  53:../../libdaisy/src/sys/system.h ****         SysClkFreq cpu_freq;
  54:../../libdaisy/src/sys/system.h ****         bool       use_dcache;
  55:../../libdaisy/src/sys/system.h ****         bool       use_icache;
  56:../../libdaisy/src/sys/system.h ****     };
  57:../../libdaisy/src/sys/system.h **** 
  58:../../libdaisy/src/sys/system.h ****     System() {}
  59:../../libdaisy/src/sys/system.h ****     ~System() {}
 113              		.loc 5 59 5 view .LVU7
 114              		.loc 5 59 5 is_stmt 0 view .LVU8
 115              	.LBE88:
 116              	.LBB89:
 117              	.LBI89:
 118              		.file 6 "../../libdaisy/src/hid/usb.h"
   1:../../libdaisy/src/hid/usb.h **** #pragma once
   2:../../libdaisy/src/hid/usb.h **** #ifndef DSY_HID_USB_H
   3:../../libdaisy/src/hid/usb.h **** #define DSY_HID_USB_H
   4:../../libdaisy/src/hid/usb.h **** #include <stdint.h>
   5:../../libdaisy/src/hid/usb.h **** #include <stdlib.h>
   6:../../libdaisy/src/hid/usb.h **** 
   7:../../libdaisy/src/hid/usb.h **** namespace daisy
   8:../../libdaisy/src/hid/usb.h **** /** @addtogroup externals
   9:../../libdaisy/src/hid/usb.h ****     @{
  10:../../libdaisy/src/hid/usb.h **** */
  11:../../libdaisy/src/hid/usb.h **** 
  12:../../libdaisy/src/hid/usb.h **** {
  13:../../libdaisy/src/hid/usb.h **** /** 
  14:../../libdaisy/src/hid/usb.h ****     @brief Interface for initializing and using the USB Peripherals on the daisy
  15:../../libdaisy/src/hid/usb.h ****     @author Stephen Hensley
  16:../../libdaisy/src/hid/usb.h ****     @date December 2019
  17:../../libdaisy/src/hid/usb.h **** */
  18:../../libdaisy/src/hid/usb.h **** class UsbHandle
  19:../../libdaisy/src/hid/usb.h **** {
  20:../../libdaisy/src/hid/usb.h ****   public:
  21:../../libdaisy/src/hid/usb.h ****     /** Return values for USBHandle Functions */
  22:../../libdaisy/src/hid/usb.h ****     enum class Result
  23:../../libdaisy/src/hid/usb.h ****     {
  24:../../libdaisy/src/hid/usb.h ****         OK,
  25:../../libdaisy/src/hid/usb.h ****         ERR,
  26:../../libdaisy/src/hid/usb.h ****     };
  27:../../libdaisy/src/hid/usb.h **** 
  28:../../libdaisy/src/hid/usb.h ****     /** Specified which of the two USB Peripherals to initialize. */
  29:../../libdaisy/src/hid/usb.h ****     enum UsbPeriph
  30:../../libdaisy/src/hid/usb.h ****     {
  31:../../libdaisy/src/hid/usb.h ****         FS_INTERNAL, /**< Internal pin */
  32:../../libdaisy/src/hid/usb.h ****         FS_EXTERNAL, /**< FS External D+ pin is Pin 38 (GPIO32). FS External D- pin is Pin 37 (GPIO
  33:../../libdaisy/src/hid/usb.h ****         FS_BOTH,     /**< Both */
  34:../../libdaisy/src/hid/usb.h ****     };
  35:../../libdaisy/src/hid/usb.h **** 
  36:../../libdaisy/src/hid/usb.h **** 
  37:../../libdaisy/src/hid/usb.h ****     /** Function called upon reception of a buffer */
  38:../../libdaisy/src/hid/usb.h ****     typedef void (*ReceiveCallback)(uint8_t* buff, uint32_t* len);
  39:../../libdaisy/src/hid/usb.h **** 
  40:../../libdaisy/src/hid/usb.h ****     UsbHandle() {}
  41:../../libdaisy/src/hid/usb.h **** 
  42:../../libdaisy/src/hid/usb.h ****     ~UsbHandle() {}
 119              		.loc 6 42 5 is_stmt 1 view .LVU9
ARM GAS  /tmp/ccJZO3gV.s 			page 6


 120              		.loc 6 42 5 is_stmt 0 view .LVU10
 121              	.LBE89:
 122              	.LBB90:
 123              	.LBI90:
 124              		.file 7 "../../libdaisy/src/per/adc.h"
   1:../../libdaisy/src/per/adc.h **** #pragma once
   2:../../libdaisy/src/per/adc.h **** #ifndef DSY_ADC_H
   3:../../libdaisy/src/per/adc.h **** #define DSY_ADC_H /**< Macro */
   4:../../libdaisy/src/per/adc.h **** #include <stdint.h>
   5:../../libdaisy/src/per/adc.h **** #include <stdlib.h>
   6:../../libdaisy/src/per/adc.h **** #include "daisy_core.h"
   7:../../libdaisy/src/per/adc.h **** #include "per/gpio.h"
   8:../../libdaisy/src/per/adc.h **** 
   9:../../libdaisy/src/per/adc.h **** #define DSY_ADC_MAX_CHANNELS 14 /**< Maximum number of ADC channels */
  10:../../libdaisy/src/per/adc.h **** 
  11:../../libdaisy/src/per/adc.h **** namespace daisy
  12:../../libdaisy/src/per/adc.h **** {
  13:../../libdaisy/src/per/adc.h **** /** @addtogroup analog_digital_conversion
  14:../../libdaisy/src/per/adc.h ****     @{
  15:../../libdaisy/src/per/adc.h **** */
  16:../../libdaisy/src/per/adc.h **** 
  17:../../libdaisy/src/per/adc.h **** /* While there may not be many configuration options here,
  18:../../libdaisy/src/per/adc.h **** using a struct like this allows us to add more configuration
  19:../../libdaisy/src/per/adc.h **** later without breaking existing functionality.
  20:../../libdaisy/src/per/adc.h **** */
  21:../../libdaisy/src/per/adc.h **** 
  22:../../libdaisy/src/per/adc.h **** /** Configuration Structure for a given channel */
  23:../../libdaisy/src/per/adc.h **** struct AdcChannelConfig
  24:../../libdaisy/src/per/adc.h **** {
  25:../../libdaisy/src/per/adc.h ****     /** Which pin to use for multiplexing */
  26:../../libdaisy/src/per/adc.h ****     enum MuxPin
  27:../../libdaisy/src/per/adc.h ****     {
  28:../../libdaisy/src/per/adc.h ****         MUX_SEL_0,    /**< & */
  29:../../libdaisy/src/per/adc.h ****         MUX_SEL_1,    /**< & */
  30:../../libdaisy/src/per/adc.h ****         MUX_SEL_2,    /**< & */
  31:../../libdaisy/src/per/adc.h ****         MUX_SEL_LAST, /**< & */
  32:../../libdaisy/src/per/adc.h ****     };
  33:../../libdaisy/src/per/adc.h **** 
  34:../../libdaisy/src/per/adc.h ****     /** Initializes a single ADC pin as an ADC. 
  35:../../libdaisy/src/per/adc.h ****     \param pin Pin to init.
  36:../../libdaisy/src/per/adc.h ****      */
  37:../../libdaisy/src/per/adc.h ****     void InitSingle(dsy_gpio_pin pin);
  38:../../libdaisy/src/per/adc.h **** 
  39:../../libdaisy/src/per/adc.h ****     /** 
  40:../../libdaisy/src/per/adc.h ****     Initializes a single ADC pin as a Multiplexed ADC.
  41:../../libdaisy/src/per/adc.h ****     Requires a CD405X Multiplexer connected to the pin.
  42:../../libdaisy/src/per/adc.h ****     You only need to supply the mux pins that are required,
  43:../../libdaisy/src/per/adc.h ****     e.g. a 4052 mux would only require mux_0 and mux_1.
  44:../../libdaisy/src/per/adc.h ****     Internal Callbacks handle the pin addressing.
  45:../../libdaisy/src/per/adc.h ****     \param mux_channels must be 1-8
  46:../../libdaisy/src/per/adc.h ****     \param mux_0 First mux pin
  47:../../libdaisy/src/per/adc.h ****     \param mux_1 Second mux pin
  48:../../libdaisy/src/per/adc.h ****     \param mux_2 Third mux pin
  49:../../libdaisy/src/per/adc.h ****     \param adc_pin &
  50:../../libdaisy/src/per/adc.h ****     */
  51:../../libdaisy/src/per/adc.h ****     void InitMux(dsy_gpio_pin adc_pin,
  52:../../libdaisy/src/per/adc.h ****                  size_t       mux_channels,
ARM GAS  /tmp/ccJZO3gV.s 			page 7


  53:../../libdaisy/src/per/adc.h ****                  dsy_gpio_pin mux_0,
  54:../../libdaisy/src/per/adc.h ****                  dsy_gpio_pin mux_1 = {DSY_GPIOX, 0},
  55:../../libdaisy/src/per/adc.h ****                  dsy_gpio_pin mux_2 = {DSY_GPIOX, 0});
  56:../../libdaisy/src/per/adc.h **** 
  57:../../libdaisy/src/per/adc.h ****     dsy_gpio pin_;                   /**< & */
  58:../../libdaisy/src/per/adc.h ****     dsy_gpio mux_pin_[MUX_SEL_LAST]; /**< & */
  59:../../libdaisy/src/per/adc.h ****     uint8_t  mux_channels_;          /**< & */
  60:../../libdaisy/src/per/adc.h **** };
  61:../../libdaisy/src/per/adc.h **** 
  62:../../libdaisy/src/per/adc.h **** /**
  63:../../libdaisy/src/per/adc.h ****    Handler for analog to digital conversion
  64:../../libdaisy/src/per/adc.h **** */
  65:../../libdaisy/src/per/adc.h **** class AdcHandle
  66:../../libdaisy/src/per/adc.h **** {
  67:../../libdaisy/src/per/adc.h ****   public:
  68:../../libdaisy/src/per/adc.h ****     /** Supported oversampling amounts */
  69:../../libdaisy/src/per/adc.h ****     enum OverSampling
  70:../../libdaisy/src/per/adc.h ****     {
  71:../../libdaisy/src/per/adc.h ****         OVS_NONE, /**< & */
  72:../../libdaisy/src/per/adc.h ****         OVS_4,    /**< & */
  73:../../libdaisy/src/per/adc.h ****         OVS_8,    /**< & */
  74:../../libdaisy/src/per/adc.h ****         OVS_16,   /**< & */
  75:../../libdaisy/src/per/adc.h ****         OVS_32,   /**< & */
  76:../../libdaisy/src/per/adc.h ****         OVS_64,   /**< & */
  77:../../libdaisy/src/per/adc.h ****         OVS_128,  /**< & */
  78:../../libdaisy/src/per/adc.h ****         OVS_256,  /**< & */
  79:../../libdaisy/src/per/adc.h ****         OVS_512,  /**< & */
  80:../../libdaisy/src/per/adc.h ****         OVS_1024, /**< & */
  81:../../libdaisy/src/per/adc.h ****         OVS_LAST, /**< & */
  82:../../libdaisy/src/per/adc.h ****     };
  83:../../libdaisy/src/per/adc.h **** 
  84:../../libdaisy/src/per/adc.h ****     AdcHandle() {}
  85:../../libdaisy/src/per/adc.h ****     ~AdcHandle() {}
 125              		.loc 7 85 5 is_stmt 1 view .LVU11
 126              		.loc 7 85 5 is_stmt 0 view .LVU12
 127              	.LBE90:
 128              	.LBB91:
 129              	.LBI91:
 130              		.file 8 "../../libdaisy/src/hid/audio.h"
   1:../../libdaisy/src/hid/audio.h **** #ifndef DSY_AUDIO_H
   2:../../libdaisy/src/hid/audio.h **** #define DSY_AUDIO_H /**< & */
   3:../../libdaisy/src/hid/audio.h **** 
   4:../../libdaisy/src/hid/audio.h **** #include "per/sai.h"
   5:../../libdaisy/src/hid/audio.h **** 
   6:../../libdaisy/src/hid/audio.h **** namespace daisy
   7:../../libdaisy/src/hid/audio.h **** {
   8:../../libdaisy/src/hid/audio.h **** class AudioHandle
   9:../../libdaisy/src/hid/audio.h **** {
  10:../../libdaisy/src/hid/audio.h ****   public:
  11:../../libdaisy/src/hid/audio.h ****     /** Manually configurable details about the Audio Engine */
  12:../../libdaisy/src/hid/audio.h ****     /** TODO: Figure out how to get samplerate in here. */
  13:../../libdaisy/src/hid/audio.h ****     struct Config
  14:../../libdaisy/src/hid/audio.h ****     {
  15:../../libdaisy/src/hid/audio.h ****         size_t                        blocksize;
  16:../../libdaisy/src/hid/audio.h ****         SaiHandle::Config::SampleRate samplerate;
  17:../../libdaisy/src/hid/audio.h ****         float                         postgain;
  18:../../libdaisy/src/hid/audio.h ****     };
ARM GAS  /tmp/ccJZO3gV.s 			page 8


  19:../../libdaisy/src/hid/audio.h **** 
  20:../../libdaisy/src/hid/audio.h ****     enum class Result
  21:../../libdaisy/src/hid/audio.h ****     {
  22:../../libdaisy/src/hid/audio.h ****         OK,
  23:../../libdaisy/src/hid/audio.h ****         ERR,
  24:../../libdaisy/src/hid/audio.h ****     };
  25:../../libdaisy/src/hid/audio.h **** 
  26:../../libdaisy/src/hid/audio.h ****     /** Non-Interleaving input buffer
  27:../../libdaisy/src/hid/audio.h ****      * Buffer arranged by float[chn][sample] 
  28:../../libdaisy/src/hid/audio.h ****      * const so that the user can't modify the input
  29:../../libdaisy/src/hid/audio.h ****     */
  30:../../libdaisy/src/hid/audio.h ****     typedef const float* const* InputBuffer;
  31:../../libdaisy/src/hid/audio.h **** 
  32:../../libdaisy/src/hid/audio.h ****     /** Non-Interleaving output buffer
  33:../../libdaisy/src/hid/audio.h ****      * Arranged by float[chn][sample] 
  34:../../libdaisy/src/hid/audio.h ****     */
  35:../../libdaisy/src/hid/audio.h ****     typedef float** OutputBuffer;
  36:../../libdaisy/src/hid/audio.h **** 
  37:../../libdaisy/src/hid/audio.h ****     /** Type for a Non-Interleaving audio callback 
  38:../../libdaisy/src/hid/audio.h ****    * Non-Interleaving audio callbacks in daisy will be of this type
  39:../../libdaisy/src/hid/audio.h ****   */
  40:../../libdaisy/src/hid/audio.h ****     typedef void (*AudioCallback)(InputBuffer  in,
  41:../../libdaisy/src/hid/audio.h ****                                   OutputBuffer out,
  42:../../libdaisy/src/hid/audio.h ****                                   size_t       size);
  43:../../libdaisy/src/hid/audio.h **** 
  44:../../libdaisy/src/hid/audio.h ****     /** Interleaving Input buffer
  45:../../libdaisy/src/hid/audio.h ****      ** audio is prepared as { L0, R0, L1, R1, . . . LN, RN }]
  46:../../libdaisy/src/hid/audio.h ****      ** this is const, as the user shouldn't modify it
  47:../../libdaisy/src/hid/audio.h ****     */
  48:../../libdaisy/src/hid/audio.h ****     typedef const float* InterleavingInputBuffer;
  49:../../libdaisy/src/hid/audio.h **** 
  50:../../libdaisy/src/hid/audio.h ****     /** Interleaving Output buffer 
  51:../../libdaisy/src/hid/audio.h ****      ** audio is prepared as { L0, R0, L1, R1, . . . LN, RN }
  52:../../libdaisy/src/hid/audio.h ****     */
  53:../../libdaisy/src/hid/audio.h ****     typedef float* InterleavingOutputBuffer;
  54:../../libdaisy/src/hid/audio.h **** 
  55:../../libdaisy/src/hid/audio.h ****     /** Interleaving Audio Callback 
  56:../../libdaisy/src/hid/audio.h ****    * Interleaving audio callbacks in daisy must be of this type
  57:../../libdaisy/src/hid/audio.h ****   */
  58:../../libdaisy/src/hid/audio.h ****     typedef void (*InterleavingAudioCallback)(InterleavingInputBuffer  in,
  59:../../libdaisy/src/hid/audio.h ****                                               InterleavingOutputBuffer out,
  60:../../libdaisy/src/hid/audio.h ****                                               size_t                   size);
  61:../../libdaisy/src/hid/audio.h **** 
  62:../../libdaisy/src/hid/audio.h ****     AudioHandle() : pimpl_(nullptr) {}
  63:../../libdaisy/src/hid/audio.h ****     ~AudioHandle() {}
 131              		.loc 8 63 5 is_stmt 1 view .LVU13
 132              		.loc 8 63 5 is_stmt 0 view .LVU14
 133              	.LBE91:
 134              		.loc 4 22 19 view .LVU15
 135 0000 7047     		bx	lr
 136              		.cfi_endproc
 137              	.LFE4207:
 139              		.weak	_ZN5daisy9DaisySeedD1Ev
 140              		.thumb_set _ZN5daisy9DaisySeedD1Ev,_ZN5daisy9DaisySeedD2Ev
 141 0002 00BF     		.section	.text._ZL13AudioCallbackPKfPfj,"ax",%progbits
 142              		.align	1
 143              		.p2align 2,,3
ARM GAS  /tmp/ccJZO3gV.s 			page 9


 144              		.syntax unified
 145              		.thumb
 146              		.thumb_func
 147              		.fpu fpv5-d16
 149              	_ZL13AudioCallbackPKfPfj:
 150              	.LVL4:
 151              	.LFB4212:
 152              		.file 9 "decimator.cpp"
   1:decimator.cpp **** #include "daisysp.h"
   2:decimator.cpp **** #include "daisy_seed.h"
   3:decimator.cpp **** 
   4:decimator.cpp **** // Shortening long macro for sample rate
   5:decimator.cpp **** #ifndef sample_rate
   6:decimator.cpp **** 
   7:decimator.cpp **** #endif
   8:decimator.cpp **** 
   9:decimator.cpp **** // Interleaved audio definitions
  10:decimator.cpp **** #define LEFT (i)
  11:decimator.cpp **** #define RIGHT (i + 1)
  12:decimator.cpp **** 
  13:decimator.cpp **** using namespace daisysp;
  14:decimator.cpp **** using namespace daisy;
  15:decimator.cpp **** 
  16:decimator.cpp **** static DaisySeed  seed;
  17:decimator.cpp **** static Oscillator osc;
  18:decimator.cpp **** static Decimator  decim;
  19:decimator.cpp **** static Phasor     phs;
  20:decimator.cpp **** 
  21:decimator.cpp **** static void AudioCallback(AudioHandle::InterleavingInputBuffer  in,
  22:decimator.cpp ****                           AudioHandle::InterleavingOutputBuffer out,
  23:decimator.cpp ****                           size_t                                size)
  24:decimator.cpp **** {
 153              		.loc 9 24 1 is_stmt 1 view -0
 154              		.cfi_startproc
 155              		@ args = 0, pretend = 0, frame = 0
 156              		@ frame_needed = 0, uses_anonymous_args = 0
  25:decimator.cpp ****     float osc_out, decimated_out;
 157              		.loc 9 25 5 view .LVU17
  26:decimator.cpp ****     float downsample_amt;
 158              		.loc 9 26 5 view .LVU18
  27:decimator.cpp ****     for(size_t i = 0; i < size; i += 2)
 159              		.loc 9 27 5 view .LVU19
 160              	.LBB92:
 161              		.loc 9 27 25 view .LVU20
 162 0000 2AB3     		cbz	r2, .L14
 163 0002 013A     		subs	r2, r2, #1
 164              	.LVL5:
 165              		.loc 9 27 25 is_stmt 0 view .LVU21
 166              	.LBE92:
  24:decimator.cpp ****     float osc_out, decimated_out;
 167              		.loc 9 24 1 view .LVU22
 168 0004 F8B5     		push	{r3, r4, r5, r6, r7, lr}
 169              		.cfi_def_cfa_offset 24
 170              		.cfi_offset 3, -24
 171              		.cfi_offset 4, -20
 172              		.cfi_offset 5, -16
 173              		.cfi_offset 6, -12
ARM GAS  /tmp/ccJZO3gV.s 			page 10


 174              		.cfi_offset 7, -8
 175              		.cfi_offset 14, -4
 176 0006 0C46     		mov	r4, r1
 177              	.LBB97:
 178              		.loc 9 27 16 view .LVU23
 179 0008 0025     		movs	r5, #0
 180 000a 114F     		ldr	r7, .L17
 181 000c 22F00106 		bic	r6, r2, #1
 182              	.LBE97:
  24:decimator.cpp ****     float osc_out, decimated_out;
 183              		.loc 9 24 1 view .LVU24
 184 0010 2DED028B 		vpush.64	{d8}
 185              		.cfi_def_cfa_offset 32
 186              		.cfi_offset 80, -32
 187              		.cfi_offset 81, -28
 188              	.LVL6:
 189              	.L8:
 190              	.LBB98:
  28:decimator.cpp ****     {
  29:decimator.cpp ****         // Generate a pure sine wave
  30:decimator.cpp ****         osc_out = osc.Process();
 191              		.loc 9 30 9 is_stmt 1 discriminator 2 view .LVU25
 192              		.loc 9 30 30 is_stmt 0 discriminator 2 view .LVU26
 193 0014 0F48     		ldr	r0, .L17+4
 194 0016 0834     		adds	r4, r4, #8
 195 0018 FFF7FEFF 		bl	_ZN7daisysp10Oscillator7ProcessEv
 196              	.LVL7:
  31:decimator.cpp ****         // Modulate downsample amount via Phasor
  32:decimator.cpp ****         downsample_amt = phs.Process();
 197              		.loc 9 32 37 discriminator 2 view .LVU27
 198 001c 0E48     		ldr	r0, .L17+8
  30:decimator.cpp ****         // Modulate downsample amount via Phasor
 199              		.loc 9 30 30 discriminator 2 view .LVU28
 200 001e B0EE408A 		vmov.f32	s16, s0
 201              	.LVL8:
 202              		.loc 9 32 9 is_stmt 1 discriminator 2 view .LVU29
 203              		.loc 9 32 37 is_stmt 0 discriminator 2 view .LVU30
 204 0022 FFF7FEFF 		bl	_ZN7daisysp6Phasor7ProcessEv
 205              	.LVL9:
 206              		.loc 9 32 37 discriminator 2 view .LVU31
 207 0026 F0EE407A 		vmov.f32	s15, s0
 208              	.LVL10:
  33:decimator.cpp ****         decim.SetDownsampleFactor(downsample_amt);
 209              		.loc 9 33 9 is_stmt 1 discriminator 2 view .LVU32
 210              	.LBB93:
 211              	.LBI93:
  17:../../DaisySP/Source/Effects/decimator.h ****     /** Initializes downsample module
  18:../../DaisySP/Source/Effects/decimator.h ****     */
  19:../../DaisySP/Source/Effects/decimator.h ****     void Init();
  20:../../DaisySP/Source/Effects/decimator.h **** 
  21:../../DaisySP/Source/Effects/decimator.h ****     /** Applies downsample and bitcrush effects to input signal.
  22:../../DaisySP/Source/Effects/decimator.h ****         \return one sample. This should be called once per sample period. 
  23:../../DaisySP/Source/Effects/decimator.h ****     */
  24:../../DaisySP/Source/Effects/decimator.h ****     float Process(float input);
  25:../../DaisySP/Source/Effects/decimator.h **** 
  26:../../DaisySP/Source/Effects/decimator.h **** 
  27:../../DaisySP/Source/Effects/decimator.h ****     /** Sets amount of downsample 
ARM GAS  /tmp/ccJZO3gV.s 			page 11


  28:../../DaisySP/Source/Effects/decimator.h ****         Input range: 
  29:../../DaisySP/Source/Effects/decimator.h ****     */
  30:../../DaisySP/Source/Effects/decimator.h ****     inline void SetDownsampleFactor(float downsample_factor)
 212              		.loc 3 30 17 discriminator 2 view .LVU33
 213              	.LBB94:
  31:../../DaisySP/Source/Effects/decimator.h ****     {
  32:../../DaisySP/Source/Effects/decimator.h ****         downsample_factor_ = downsample_factor;
 214              		.loc 3 32 9 discriminator 2 view .LVU34
 215              	.LBE94:
 216              	.LBE93:
  34:decimator.cpp ****         // downsample and bitcrush
  35:decimator.cpp ****         decimated_out = decim.Process(osc_out);
 217              		.loc 9 35 38 is_stmt 0 discriminator 2 view .LVU35
 218 002a 0948     		ldr	r0, .L17
 219 002c B0EE480A 		vmov.f32	s0, s16
 220              	.LVL11:
 221              	.LBB96:
 222              	.LBB95:
 223              		.loc 3 32 28 discriminator 2 view .LVU36
 224 0030 C7ED017A 		vstr.32	s15, [r7, #4]
 225              	.LVL12:
 226              		.loc 3 32 28 discriminator 2 view .LVU37
 227              	.LBE95:
 228              	.LBE96:
 229              		.loc 9 35 9 is_stmt 1 discriminator 2 view .LVU38
 230              		.loc 9 35 38 is_stmt 0 discriminator 2 view .LVU39
 231 0034 FFF7FEFF 		bl	_ZN7daisysp9Decimator7ProcessEf
 232              	.LVL13:
  36:decimator.cpp ****         // outputs
  37:decimator.cpp ****         out[LEFT]  = decimated_out;
 233              		.loc 9 37 9 is_stmt 1 discriminator 2 view .LVU40
  27:decimator.cpp ****     {
 234              		.loc 9 27 25 is_stmt 0 discriminator 2 view .LVU41
 235 0038 B542     		cmp	r5, r6
 236              		.loc 9 37 20 discriminator 2 view .LVU42
 237 003a 04ED020A 		vstr.32	s0, [r4, #-8]
  38:decimator.cpp ****         out[RIGHT] = decimated_out;
 238              		.loc 9 38 9 is_stmt 1 discriminator 2 view .LVU43
 239              		.loc 9 38 20 is_stmt 0 discriminator 2 view .LVU44
 240 003e 04ED010A 		vstr.32	s0, [r4, #-4]
  27:decimator.cpp ****     {
 241              		.loc 9 27 5 is_stmt 1 discriminator 2 view .LVU45
  27:decimator.cpp ****     {
 242              		.loc 9 27 25 discriminator 2 view .LVU46
 243 0042 05F10205 		add	r5, r5, #2
 244              	.LVL14:
  27:decimator.cpp ****     {
 245              		.loc 9 27 25 is_stmt 0 discriminator 2 view .LVU47
 246 0046 E5D1     		bne	.L8
 247              	.LBE98:
  39:decimator.cpp ****     }
  40:decimator.cpp **** }
 248              		.loc 9 40 1 view .LVU48
 249 0048 BDEC028B 		vldm	sp!, {d8}
 250              		.cfi_restore 80
 251              		.cfi_restore 81
 252              		.cfi_def_cfa_offset 24
ARM GAS  /tmp/ccJZO3gV.s 			page 12


 253              	.LVL15:
 254              		.loc 9 40 1 view .LVU49
 255 004c F8BD     		pop	{r3, r4, r5, r6, r7, pc}
 256              	.LVL16:
 257              	.L14:
 258              		.cfi_def_cfa_offset 0
 259              		.cfi_restore 3
 260              		.cfi_restore 4
 261              		.cfi_restore 5
 262              		.cfi_restore 6
 263              		.cfi_restore 7
 264              		.cfi_restore 14
 265              		.loc 9 40 1 view .LVU50
 266 004e 7047     		bx	lr
 267              	.L18:
 268              		.align	2
 269              	.L17:
 270 0050 00000000 		.word	.LANCHOR2
 271 0054 00000000 		.word	.LANCHOR0
 272 0058 00000000 		.word	.LANCHOR1
 273              		.cfi_endproc
 274              	.LFE4212:
 276              		.section	.text.startup.main,"ax",%progbits
 277              		.align	1
 278              		.p2align 2,,3
 279              		.global	main
 280              		.syntax unified
 281              		.thumb
 282              		.thumb_func
 283              		.fpu fpv5-d16
 285              	main:
 286              	.LFB4213:
  41:decimator.cpp **** 
  42:decimator.cpp **** int main(void)
  43:decimator.cpp **** {
 287              		.loc 9 43 1 is_stmt 1 view -0
 288              		.cfi_startproc
 289              		@ args = 0, pretend = 0, frame = 0
 290              		@ frame_needed = 0, uses_anonymous_args = 0
  44:decimator.cpp ****     // initialize seed hardware and daisysp modules
  45:decimator.cpp ****     float sample_rate;
 291              		.loc 9 45 5 view .LVU52
  46:decimator.cpp ****     seed.Configure();
 292              		.loc 9 46 5 view .LVU53
  43:decimator.cpp ****     // initialize seed hardware and daisysp modules
 293              		.loc 9 43 1 is_stmt 0 view .LVU54
 294 0000 F8B5     		push	{r3, r4, r5, r6, r7, lr}
 295              		.cfi_def_cfa_offset 24
 296              		.cfi_offset 3, -24
 297              		.cfi_offset 4, -20
 298              		.cfi_offset 5, -16
 299              		.cfi_offset 6, -12
 300              		.cfi_offset 7, -8
 301              		.cfi_offset 14, -4
 302              		.loc 9 46 19 view .LVU55
 303 0002 2948     		ldr	r0, .L22
 304              	.LBB99:
ARM GAS  /tmp/ccJZO3gV.s 			page 13


 305              	.LBB100:
  17:../../DaisySP/Source/Synthesis/oscillator.h ****     /** Choices for output waveforms, POLYBLEP are appropriately labeled. Others are naive forms.
  18:../../DaisySP/Source/Synthesis/oscillator.h ****     */
  19:../../DaisySP/Source/Synthesis/oscillator.h ****     enum
  20:../../DaisySP/Source/Synthesis/oscillator.h ****     {
  21:../../DaisySP/Source/Synthesis/oscillator.h ****         WAVE_SIN,
  22:../../DaisySP/Source/Synthesis/oscillator.h ****         WAVE_TRI,
  23:../../DaisySP/Source/Synthesis/oscillator.h ****         WAVE_SAW,
  24:../../DaisySP/Source/Synthesis/oscillator.h ****         WAVE_RAMP,
  25:../../DaisySP/Source/Synthesis/oscillator.h ****         WAVE_SQUARE,
  26:../../DaisySP/Source/Synthesis/oscillator.h ****         WAVE_POLYBLEP_TRI,
  27:../../DaisySP/Source/Synthesis/oscillator.h ****         WAVE_POLYBLEP_SAW,
  28:../../DaisySP/Source/Synthesis/oscillator.h ****         WAVE_POLYBLEP_SQUARE,
  29:../../DaisySP/Source/Synthesis/oscillator.h ****         WAVE_LAST,
  30:../../DaisySP/Source/Synthesis/oscillator.h ****     };
  31:../../DaisySP/Source/Synthesis/oscillator.h **** 
  32:../../DaisySP/Source/Synthesis/oscillator.h **** 
  33:../../DaisySP/Source/Synthesis/oscillator.h ****     /** Initializes the Oscillator
  34:../../DaisySP/Source/Synthesis/oscillator.h **** 
  35:../../DaisySP/Source/Synthesis/oscillator.h ****         \param sample_rate - sample rate of the audio engine being run, and the frequency that the 
  36:../../DaisySP/Source/Synthesis/oscillator.h **** 
  37:../../DaisySP/Source/Synthesis/oscillator.h ****         Defaults:
  38:../../DaisySP/Source/Synthesis/oscillator.h ****         - freq_ = 100 Hz
  39:../../DaisySP/Source/Synthesis/oscillator.h ****         - amp_ = 0.5
  40:../../DaisySP/Source/Synthesis/oscillator.h ****         - waveform_ = sine wave.
  41:../../DaisySP/Source/Synthesis/oscillator.h ****     */
  42:../../DaisySP/Source/Synthesis/oscillator.h ****     void Init(float sample_rate)
  43:../../DaisySP/Source/Synthesis/oscillator.h ****     {
  44:../../DaisySP/Source/Synthesis/oscillator.h ****         sr_        = sample_rate;
  45:../../DaisySP/Source/Synthesis/oscillator.h ****         sr_recip_  = 1.0f / sample_rate;
  46:../../DaisySP/Source/Synthesis/oscillator.h ****         freq_      = 100.0f;
  47:../../DaisySP/Source/Synthesis/oscillator.h ****         amp_       = 0.5f;
  48:../../DaisySP/Source/Synthesis/oscillator.h ****         phase_     = 0.0f;
 306              		.loc 2 48 20 view .LVU56
 307 0004 0027     		movs	r7, #0
  44:../../DaisySP/Source/Synthesis/oscillator.h ****         sr_recip_  = 1.0f / sample_rate;
 308              		.loc 2 44 20 view .LVU57
 309 0006 294C     		ldr	r4, .L22+4
 310              	.LBE100:
 311              	.LBE99:
  47:decimator.cpp ****     seed.Init();
  48:decimator.cpp ****     sample_rate = seed.AudioSampleRate();
  49:decimator.cpp ****     osc.Init(sample_rate);
  50:decimator.cpp ****     phs.Init(sample_rate, 0.5f);
  51:decimator.cpp ****     decim.Init();
 312              		.loc 9 51 15 view .LVU58
 313 0008 294D     		ldr	r5, .L22+8
  43:decimator.cpp ****     // initialize seed hardware and daisysp modules
 314              		.loc 9 43 1 view .LVU59
 315 000a 2DED028B 		vpush.64	{d8}
 316              		.cfi_def_cfa_offset 32
 317              		.cfi_offset 80, -32
 318              		.cfi_offset 81, -28
  46:decimator.cpp ****     seed.Init();
 319              		.loc 9 46 19 view .LVU60
 320 000e FFF7FEFF 		bl	_ZN5daisy9DaisySeed9ConfigureEv
 321              	.LVL17:
ARM GAS  /tmp/ccJZO3gV.s 			page 14


  47:decimator.cpp ****     seed.Init();
 322              		.loc 9 47 5 is_stmt 1 view .LVU61
  47:decimator.cpp ****     seed.Init();
 323              		.loc 9 47 14 is_stmt 0 view .LVU62
 324 0012 0021     		movs	r1, #0
 325 0014 2448     		ldr	r0, .L22
 326              	.LBB106:
 327              	.LBB101:
  47:../../DaisySP/Source/Synthesis/oscillator.h ****         phase_     = 0.0f;
 328              		.loc 2 47 20 view .LVU63
 329 0016 F6EE008A 		vmov.f32	s17, #5.0e-1
  49:../../DaisySP/Source/Synthesis/oscillator.h ****         phase_inc_ = CalcPhaseInc(freq_);
  50:../../DaisySP/Source/Synthesis/oscillator.h ****         waveform_  = WAVE_SIN;
 330              		.loc 2 50 20 view .LVU64
 331 001a 0E46     		mov	r6, r1
 332              	.LBE101:
 333              	.LBE106:
  47:decimator.cpp ****     sample_rate = seed.AudioSampleRate();
 334              		.loc 9 47 14 view .LVU65
 335 001c FFF7FEFF 		bl	_ZN5daisy9DaisySeed4InitEb
 336              	.LVL18:
  48:decimator.cpp ****     osc.Init(sample_rate);
 337              		.loc 9 48 5 is_stmt 1 view .LVU66
  48:decimator.cpp ****     osc.Init(sample_rate);
 338              		.loc 9 48 39 is_stmt 0 view .LVU67
 339 0020 2148     		ldr	r0, .L22
 340 0022 FFF7FEFF 		bl	_ZN5daisy9DaisySeed15AudioSampleRateEv
 341              	.LVL19:
 342              	.LBB107:
 343              	.LBB102:
  45:../../DaisySP/Source/Synthesis/oscillator.h ****         freq_      = 100.0f;
 344              		.loc 2 45 27 view .LVU68
 345 0026 B7EE007A 		vmov.f32	s14, #1.0e+0
 346              	.LBE102:
 347              	.LBE107:
  48:decimator.cpp ****     osc.Init(sample_rate);
 348              		.loc 9 48 39 view .LVU69
 349 002a B0EE408A 		vmov.f32	s16, s0
 350              	.LVL20:
  49:decimator.cpp ****     phs.Init(sample_rate, 0.5f);
 351              		.loc 9 49 5 is_stmt 1 view .LVU70
 352              	.LBB108:
 353              	.LBI99:
  42:../../DaisySP/Source/Synthesis/oscillator.h ****     {
 354              		.loc 2 42 10 view .LVU71
 355              	.LBB103:
  44:../../DaisySP/Source/Synthesis/oscillator.h ****         sr_recip_  = 1.0f / sample_rate;
 356              		.loc 2 44 9 view .LVU72
  46:../../DaisySP/Source/Synthesis/oscillator.h ****         amp_       = 0.5f;
 357              		.loc 2 46 20 is_stmt 0 view .LVU73
 358 002e 9FED210A 		vldr.32	s0, .L22+12
 359              	.LVL21:
  49:../../DaisySP/Source/Synthesis/oscillator.h ****         waveform_  = WAVE_SIN;
 360              		.loc 2 49 34 view .LVU74
 361 0032 2046     		mov	r0, r4
  47:../../DaisySP/Source/Synthesis/oscillator.h ****         phase_     = 0.0f;
 362              		.loc 2 47 20 view .LVU75
ARM GAS  /tmp/ccJZO3gV.s 			page 15


 363 0034 C4ED018A 		vstr.32	s17, [r4, #4]
  46:../../DaisySP/Source/Synthesis/oscillator.h ****         amp_       = 0.5f;
 364              		.loc 2 46 20 view .LVU76
 365 0038 84ED020A 		vstr.32	s0, [r4, #8]
  45:../../DaisySP/Source/Synthesis/oscillator.h ****         freq_      = 100.0f;
 366              		.loc 2 45 27 view .LVU77
 367 003c C7EE087A 		vdiv.f32	s15, s14, s16
  44:../../DaisySP/Source/Synthesis/oscillator.h ****         sr_recip_  = 1.0f / sample_rate;
 368              		.loc 2 44 20 view .LVU78
 369 0040 84ED038A 		vstr.32	s16, [r4, #12]
  45:../../DaisySP/Source/Synthesis/oscillator.h ****         freq_      = 100.0f;
 370              		.loc 2 45 9 is_stmt 1 view .LVU79
  48:../../DaisySP/Source/Synthesis/oscillator.h ****         phase_inc_ = CalcPhaseInc(freq_);
 371              		.loc 2 48 20 is_stmt 0 view .LVU80
 372 0044 6761     		str	r7, [r4, #20]	@ float
  45:../../DaisySP/Source/Synthesis/oscillator.h ****         freq_      = 100.0f;
 373              		.loc 2 45 20 view .LVU81
 374 0046 C4ED047A 		vstr.32	s15, [r4, #16]
  46:../../DaisySP/Source/Synthesis/oscillator.h ****         amp_       = 0.5f;
 375              		.loc 2 46 9 is_stmt 1 view .LVU82
  47:../../DaisySP/Source/Synthesis/oscillator.h ****         phase_     = 0.0f;
 376              		.loc 2 47 9 view .LVU83
  48:../../DaisySP/Source/Synthesis/oscillator.h ****         phase_inc_ = CalcPhaseInc(freq_);
 377              		.loc 2 48 9 view .LVU84
  49:../../DaisySP/Source/Synthesis/oscillator.h ****         waveform_  = WAVE_SIN;
 378              		.loc 2 49 9 view .LVU85
  49:../../DaisySP/Source/Synthesis/oscillator.h ****         waveform_  = WAVE_SIN;
 379              		.loc 2 49 34 is_stmt 0 view .LVU86
 380 004a FFF7FEFF 		bl	_ZN7daisysp10Oscillator12CalcPhaseIncEf
 381              	.LVL22:
 382 004e F0EE407A 		vmov.f32	s15, s0
  51:../../DaisySP/Source/Synthesis/oscillator.h ****         eoc_       = true;
  52:../../DaisySP/Source/Synthesis/oscillator.h ****         eor_       = true;
 383              		.loc 2 52 20 view .LVU87
 384 0052 40F20113 		movw	r3, #257
 385              	.LBE103:
 386              	.LBE108:
 387              	.LBB109:
 388              	.LBB110:
 389              	.LBB111:
  19:../../DaisySP/Source/Control/phasor.h ****     /** Initializes the Phasor module
  20:../../DaisySP/Source/Control/phasor.h ****     sample rate, and freq are in Hz
  21:../../DaisySP/Source/Control/phasor.h ****     initial phase is in radians
  22:../../DaisySP/Source/Control/phasor.h ****     Additional Init functions have defaults when arg is not specified:
  23:../../DaisySP/Source/Control/phasor.h ****     - phs = 0.0f
  24:../../DaisySP/Source/Control/phasor.h ****     - freq = 1.0f
  25:../../DaisySP/Source/Control/phasor.h ****     */
  26:../../DaisySP/Source/Control/phasor.h ****     inline void Init(float sample_rate, float freq, float initial_phase)
  27:../../DaisySP/Source/Control/phasor.h ****     {
  28:../../DaisySP/Source/Control/phasor.h ****         sample_rate_ = sample_rate;
 390              		.loc 1 28 22 view .LVU88
 391 0056 1848     		ldr	r0, .L22+16
  29:../../DaisySP/Source/Control/phasor.h ****         phs_         = initial_phase;
  30:../../DaisySP/Source/Control/phasor.h ****         SetFreq(freq);
 392              		.loc 1 30 16 view .LVU89
 393 0058 B0EE680A 		vmov.f32	s0, s17
 394              	.LBE111:
ARM GAS  /tmp/ccJZO3gV.s 			page 16


 395              	.LBE110:
 396              	.LBE109:
 397              	.LBB116:
 398              	.LBB104:
 399              		.loc 2 52 20 view .LVU90
 400 005c A384     		strh	r3, [r4, #36]	@ movhi
  49:../../DaisySP/Source/Synthesis/oscillator.h ****         waveform_  = WAVE_SIN;
 401              		.loc 2 49 20 view .LVU91
 402 005e C4ED067A 		vstr.32	s15, [r4, #24]
  50:../../DaisySP/Source/Synthesis/oscillator.h ****         eoc_       = true;
 403              		.loc 2 50 9 is_stmt 1 view .LVU92
 404              	.LBE104:
 405              	.LBE116:
 406              	.LBB117:
 407              	.LBB114:
 408              	.LBB112:
  28:../../DaisySP/Source/Control/phasor.h ****         phs_         = initial_phase;
 409              		.loc 1 28 22 is_stmt 0 view .LVU93
 410 0062 80ED018A 		vstr.32	s16, [r0, #4]
  29:../../DaisySP/Source/Control/phasor.h ****         SetFreq(freq);
 411              		.loc 1 29 22 view .LVU94
 412 0066 C760     		str	r7, [r0, #12]	@ float
 413              	.LBE112:
 414              	.LBE114:
 415              	.LBE117:
 416              	.LBB118:
 417              	.LBB105:
  50:../../DaisySP/Source/Synthesis/oscillator.h ****         eoc_       = true;
 418              		.loc 2 50 20 view .LVU95
 419 0068 2670     		strb	r6, [r4]
  51:../../DaisySP/Source/Synthesis/oscillator.h ****         eor_       = true;
 420              		.loc 2 51 9 is_stmt 1 view .LVU96
 421              		.loc 2 52 9 view .LVU97
 422              	.LVL23:
 423              		.loc 2 52 9 is_stmt 0 view .LVU98
 424              	.LBE105:
 425              	.LBE118:
  50:decimator.cpp ****     decim.Init();
 426              		.loc 9 50 5 is_stmt 1 view .LVU99
 427              	.LBB119:
 428              	.LBI109:
  31:../../DaisySP/Source/Control/phasor.h ****     }
  32:../../DaisySP/Source/Control/phasor.h **** 
  33:../../DaisySP/Source/Control/phasor.h ****     /** Initialize phasor with samplerate and freq
  34:../../DaisySP/Source/Control/phasor.h ****     */
  35:../../DaisySP/Source/Control/phasor.h ****     inline void Init(float sample_rate, float freq)
 429              		.loc 1 35 17 view .LVU100
 430              	.LBE119:
  36:../../DaisySP/Source/Control/phasor.h ****     {
  37:../../DaisySP/Source/Control/phasor.h ****         Init(sample_rate, freq, 0.0f);
 431              		.loc 1 37 9 view .LVU101
 432              	.LBB120:
 433              	.LBB115:
 434              	.LBI110:
  26:../../DaisySP/Source/Control/phasor.h ****     {
 435              		.loc 1 26 17 view .LVU102
 436              	.LBB113:
ARM GAS  /tmp/ccJZO3gV.s 			page 17


  28:../../DaisySP/Source/Control/phasor.h ****         phs_         = initial_phase;
 437              		.loc 1 28 9 view .LVU103
  29:../../DaisySP/Source/Control/phasor.h ****         SetFreq(freq);
 438              		.loc 1 29 9 view .LVU104
  30:../../DaisySP/Source/Control/phasor.h ****     }
 439              		.loc 1 30 9 view .LVU105
  30:../../DaisySP/Source/Control/phasor.h ****     }
 440              		.loc 1 30 16 is_stmt 0 view .LVU106
 441 006a FFF7FEFF 		bl	_ZN7daisysp6Phasor7SetFreqEf
 442              	.LVL24:
  30:../../DaisySP/Source/Control/phasor.h ****     }
 443              		.loc 1 30 16 view .LVU107
 444              	.LBE113:
 445              	.LBE115:
 446              	.LBE120:
 447              		.loc 9 51 5 is_stmt 1 view .LVU108
 448              		.loc 9 51 15 is_stmt 0 view .LVU109
 449 006e 2846     		mov	r0, r5
 450 0070 FFF7FEFF 		bl	_ZN7daisysp9Decimator4InitEv
 451              	.LVL25:
  52:decimator.cpp **** 
  53:decimator.cpp ****     // Set parameters for oscillator
  54:decimator.cpp ****     osc.SetWaveform(osc.WAVE_SIN);
 452              		.loc 9 54 5 is_stmt 1 view .LVU110
 453              	.LBB121:
 454              	.LBI121:
  53:../../DaisySP/Source/Synthesis/oscillator.h ****     }
  54:../../DaisySP/Source/Synthesis/oscillator.h **** 
  55:../../DaisySP/Source/Synthesis/oscillator.h **** 
  56:../../DaisySP/Source/Synthesis/oscillator.h ****     /** Changes the frequency of the Oscillator, and recalculates phase increment.
  57:../../DaisySP/Source/Synthesis/oscillator.h ****     */
  58:../../DaisySP/Source/Synthesis/oscillator.h ****     inline void SetFreq(const float f)
  59:../../DaisySP/Source/Synthesis/oscillator.h ****     {
  60:../../DaisySP/Source/Synthesis/oscillator.h ****         freq_      = f;
  61:../../DaisySP/Source/Synthesis/oscillator.h ****         phase_inc_ = CalcPhaseInc(f);
  62:../../DaisySP/Source/Synthesis/oscillator.h ****     }
  63:../../DaisySP/Source/Synthesis/oscillator.h **** 
  64:../../DaisySP/Source/Synthesis/oscillator.h **** 
  65:../../DaisySP/Source/Synthesis/oscillator.h ****     /** Sets the amplitude of the waveform.
  66:../../DaisySP/Source/Synthesis/oscillator.h ****     */
  67:../../DaisySP/Source/Synthesis/oscillator.h ****     inline void SetAmp(const float a) { amp_ = a; }
  68:../../DaisySP/Source/Synthesis/oscillator.h ****     /** Sets the waveform to be synthesized by the Process() function.
  69:../../DaisySP/Source/Synthesis/oscillator.h ****     */
  70:../../DaisySP/Source/Synthesis/oscillator.h ****     inline void SetWaveform(const uint8_t wf)
 455              		.loc 2 70 17 view .LVU111
 456              	.LBB122:
  71:../../DaisySP/Source/Synthesis/oscillator.h ****     {
  72:../../DaisySP/Source/Synthesis/oscillator.h ****         waveform_ = wf < WAVE_LAST ? wf : WAVE_SIN;
 457              		.loc 2 72 9 view .LVU112
 458              	.LBE122:
 459              	.LBE121:
 460              	.LBB124:
 461              	.LBB125:
  60:../../DaisySP/Source/Synthesis/oscillator.h ****         phase_inc_ = CalcPhaseInc(f);
 462              		.loc 2 60 20 is_stmt 0 view .LVU113
 463 0074 9FED110A 		vldr.32	s0, .L22+20
  61:../../DaisySP/Source/Synthesis/oscillator.h ****     }
ARM GAS  /tmp/ccJZO3gV.s 			page 18


 464              		.loc 2 61 34 view .LVU114
 465 0078 2046     		mov	r0, r4
 466              	.LBE125:
 467              	.LBE124:
 468              	.LBB128:
 469              	.LBB123:
 470              		.loc 2 72 19 view .LVU115
 471 007a 2670     		strb	r6, [r4]
 472              	.LVL26:
 473              		.loc 2 72 19 view .LVU116
 474              	.LBE123:
 475              	.LBE128:
  55:decimator.cpp ****     osc.SetFreq(220);
 476              		.loc 9 55 5 is_stmt 1 view .LVU117
 477              	.LBB129:
 478              	.LBI124:
  58:../../DaisySP/Source/Synthesis/oscillator.h ****     {
 479              		.loc 2 58 17 view .LVU118
 480              	.LBB126:
  60:../../DaisySP/Source/Synthesis/oscillator.h ****         phase_inc_ = CalcPhaseInc(f);
 481              		.loc 2 60 9 view .LVU119
  60:../../DaisySP/Source/Synthesis/oscillator.h ****         phase_inc_ = CalcPhaseInc(f);
 482              		.loc 2 60 20 is_stmt 0 view .LVU120
 483 007c 84ED020A 		vstr.32	s0, [r4, #8]
  61:../../DaisySP/Source/Synthesis/oscillator.h ****     }
 484              		.loc 2 61 9 is_stmt 1 view .LVU121
  61:../../DaisySP/Source/Synthesis/oscillator.h ****     }
 485              		.loc 2 61 34 is_stmt 0 view .LVU122
 486 0080 FFF7FEFF 		bl	_ZN7daisysp10Oscillator12CalcPhaseIncEf
 487              	.LVL27:
 488              	.LBE126:
 489              	.LBE129:
 490              	.LBB130:
 491              	.LBB131:
  33:../../DaisySP/Source/Effects/decimator.h ****     }
  34:../../DaisySP/Source/Effects/decimator.h **** 
  35:../../DaisySP/Source/Effects/decimator.h ****     /** Sets amount of bitcrushing 
  36:../../DaisySP/Source/Effects/decimator.h ****         Input range: 
  37:../../DaisySP/Source/Effects/decimator.h ****     */
  38:../../DaisySP/Source/Effects/decimator.h ****     inline void SetBitcrushFactor(float bitcrush_factor)
  39:../../DaisySP/Source/Effects/decimator.h ****     {
  40:../../DaisySP/Source/Effects/decimator.h ****         //            bitcrush_factor_ = bitcrush_factor;
  41:../../DaisySP/Source/Effects/decimator.h ****         bits_to_crush_ = (uint32_t)(bitcrush_factor * kMaxBitsToCrush);
  42:../../DaisySP/Source/Effects/decimator.h ****     }
  43:../../DaisySP/Source/Effects/decimator.h **** 
  44:../../DaisySP/Source/Effects/decimator.h ****     /** Sets the exact number of bits to crush
  45:../../DaisySP/Source/Effects/decimator.h ****         0-16 bits
  46:../../DaisySP/Source/Effects/decimator.h ****     */
  47:../../DaisySP/Source/Effects/decimator.h ****     inline void SetBitsToCrush(const uint8_t &bits)
  48:../../DaisySP/Source/Effects/decimator.h ****     {
  49:../../DaisySP/Source/Effects/decimator.h ****         bits_to_crush_ = bits <= kMaxBitsToCrush ? bits : kMaxBitsToCrush;
 492              		.loc 3 49 50 view .LVU123
 493 0084 2B78     		ldrb	r3, [r5]	@ zero_extendqisi2
 494              	.LBE131:
 495              	.LBE130:
 496              	.LBB135:
 497              	.LBB136:
ARM GAS  /tmp/ccJZO3gV.s 			page 19


  67:../../DaisySP/Source/Synthesis/oscillator.h ****     /** Sets the waveform to be synthesized by the Process() function.
 498              		.loc 2 67 46 view .LVU124
 499 0086 4FF07A50 		mov	r0, #1048576000
 500              	.LBE136:
 501              	.LBE135:
 502              	.LBB139:
 503              	.LBB140:
  32:../../DaisySP/Source/Effects/decimator.h ****     }
 504              		.loc 3 32 28 view .LVU125
 505 008a 0D4A     		ldr	r2, .L22+24
 506              	.LBE140:
 507              	.LBE139:
 508              	.LBB142:
 509              	.LBB132:
 510              		.loc 3 49 50 view .LVU126
 511 008c 082B     		cmp	r3, #8
 512              	.LBE132:
 513              	.LBE142:
 514              	.LBB143:
 515              	.LBB137:
  67:../../DaisySP/Source/Synthesis/oscillator.h ****     /** Sets the waveform to be synthesized by the Process() function.
 516              		.loc 2 67 46 view .LVU127
 517 008e 6060     		str	r0, [r4, #4]	@ float
 518              	.LBE137:
 519              	.LBE143:
  56:decimator.cpp ****     osc.SetAmp(0.25);
  57:decimator.cpp ****     // Set downsampling, and bit crushing values.
  58:decimator.cpp ****     decim.SetDownsampleFactor(0.4f);
  59:decimator.cpp ****     decim.SetBitsToCrush(8);
  60:decimator.cpp **** 
  61:decimator.cpp **** 
  62:decimator.cpp ****     // start callback
  63:decimator.cpp ****     seed.StartAudio(AudioCallback);
 520              		.loc 9 63 20 view .LVU128
 521 0090 0C49     		ldr	r1, .L22+28
 522              	.LBB144:
 523              	.LBB133:
 524              		.loc 3 49 50 view .LVU129
 525 0092 28BF     		it	cs
 526 0094 0823     		movcs	r3, #8
 527              	.LBE133:
 528              	.LBE144:
 529              		.loc 9 63 20 view .LVU130
 530 0096 0448     		ldr	r0, .L22
 531              	.LBB145:
 532              	.LBB127:
  61:../../DaisySP/Source/Synthesis/oscillator.h ****     }
 533              		.loc 2 61 20 view .LVU131
 534 0098 84ED060A 		vstr.32	s0, [r4, #24]
 535              	.LVL28:
  61:../../DaisySP/Source/Synthesis/oscillator.h ****     }
 536              		.loc 2 61 20 view .LVU132
 537              	.LBE127:
 538              	.LBE145:
  56:decimator.cpp ****     osc.SetAmp(0.25);
 539              		.loc 9 56 5 is_stmt 1 view .LVU133
 540              	.LBB146:
ARM GAS  /tmp/ccJZO3gV.s 			page 20


 541              	.LBI135:
  67:../../DaisySP/Source/Synthesis/oscillator.h ****     /** Sets the waveform to be synthesized by the Process() function.
 542              		.loc 2 67 17 view .LVU134
 543              	.LBB138:
  67:../../DaisySP/Source/Synthesis/oscillator.h ****     /** Sets the waveform to be synthesized by the Process() function.
 544              		.loc 2 67 41 view .LVU135
  67:../../DaisySP/Source/Synthesis/oscillator.h ****     /** Sets the waveform to be synthesized by the Process() function.
 545              		.loc 2 67 41 is_stmt 0 view .LVU136
 546              	.LBE138:
 547              	.LBE146:
  58:decimator.cpp ****     decim.SetBitsToCrush(8);
 548              		.loc 9 58 5 is_stmt 1 view .LVU137
 549              	.LBB147:
 550              	.LBI139:
  30:../../DaisySP/Source/Effects/decimator.h ****     {
 551              		.loc 3 30 17 view .LVU138
 552              	.LBB141:
  32:../../DaisySP/Source/Effects/decimator.h ****     }
 553              		.loc 3 32 9 view .LVU139
  32:../../DaisySP/Source/Effects/decimator.h ****     }
 554              		.loc 3 32 28 is_stmt 0 view .LVU140
 555 009c 6A60     		str	r2, [r5, #4]	@ float
 556              	.LVL29:
  32:../../DaisySP/Source/Effects/decimator.h ****     }
 557              		.loc 3 32 28 view .LVU141
 558              	.LBE141:
 559              	.LBE147:
  59:decimator.cpp **** 
 560              		.loc 9 59 5 is_stmt 1 view .LVU142
 561              	.LBB148:
 562              	.LBI130:
  47:../../DaisySP/Source/Effects/decimator.h ****     {
 563              		.loc 3 47 17 view .LVU143
 564              	.LBB134:
 565              		.loc 3 49 9 view .LVU144
 566              		.loc 3 49 50 is_stmt 0 view .LVU145
 567 009e EB60     		str	r3, [r5, #12]
 568              	.LBE134:
 569              	.LBE148:
 570              		.loc 9 63 5 is_stmt 1 view .LVU146
 571              		.loc 9 63 20 is_stmt 0 view .LVU147
 572 00a0 FFF7FEFF 		bl	_ZN5daisy9DaisySeed10StartAudioEPFvPKfPfjE
 573              	.LVL30:
 574              	.L20:
  64:decimator.cpp **** 
  65:decimator.cpp **** 
  66:decimator.cpp ****     while(1) {}
 575              		.loc 9 66 5 is_stmt 1 discriminator 1 view .LVU148
 576              		.loc 9 66 5 discriminator 1 view .LVU149
 577              		.loc 9 66 5 discriminator 1 view .LVU150
 578              		.loc 9 66 5 discriminator 1 view .LVU151
 579 00a4 FEE7     		b	.L20
 580              	.L23:
 581 00a6 00BF     		.align	2
 582              	.L22:
 583 00a8 00000000 		.word	.LANCHOR3
 584 00ac 00000000 		.word	.LANCHOR0
ARM GAS  /tmp/ccJZO3gV.s 			page 21


 585 00b0 00000000 		.word	.LANCHOR2
 586 00b4 0000C842 		.word	1120403456
 587 00b8 00000000 		.word	.LANCHOR1
 588 00bc 00005C43 		.word	1130102784
 589 00c0 CDCCCC3E 		.word	1053609165
 590 00c4 00000000 		.word	_ZL13AudioCallbackPKfPfj
 591              		.cfi_endproc
 592              	.LFE4213:
 594              		.section	.text.startup._GLOBAL__sub_I_main,"ax",%progbits
 595              		.align	1
 596              		.p2align 2,,3
 597              		.syntax unified
 598              		.thumb
 599              		.thumb_func
 600              		.fpu fpv5-d16
 602              	_GLOBAL__sub_I_main:
 603              	.LFB4759:
  67:decimator.cpp **** }
 604              		.loc 9 67 1 view -0
 605              		.cfi_startproc
 606              		@ args = 0, pretend = 0, frame = 0
 607              		@ frame_needed = 0, uses_anonymous_args = 0
 608              	.LBB171:
 609              	.LBI171:
 610              		.loc 9 67 1 view .LVU153
 611              	.LVL31:
 612              	.LBB172:
 613              	.LBB173:
 614              	.LBI173:
  21:../../libdaisy/src/daisy_seed.h ****     ~DaisySeed() {}
 615              		.loc 4 21 5 view .LVU154
 616              	.LBB174:
 617              	.LBB175:
 618              	.LBI175:
  62:../../libdaisy/src/hid/audio.h ****     ~AudioHandle() {}
 619              		.loc 8 62 5 view .LVU155
 620              	.LBE175:
 621              	.LBE174:
 622              	.LBE173:
 623              	.LBE172:
 624              	.LBE171:
 625              		.loc 9 67 1 is_stmt 0 view .LVU156
 626 0000 08B5     		push	{r3, lr}
 627              		.cfi_def_cfa_offset 8
 628              		.cfi_offset 3, -8
 629              		.cfi_offset 14, -4
 630              	.LBB202:
 631              	.LBB200:
 632              	.LBB190:
 633              	.LBB188:
 634              	.LBB180:
 635              	.LBB176:
 636              	.LBB177:
  62:../../libdaisy/src/hid/audio.h ****     ~AudioHandle() {}
 637              		.loc 8 62 35 view .LVU157
 638 0002 0D48     		ldr	r0, .L26
 639 0004 0023     		movs	r3, #0
ARM GAS  /tmp/ccJZO3gV.s 			page 22


 640              	.LBE177:
 641              	.LBE176:
 642              	.LBE180:
 643              	.LBE188:
 644              	.LBE190:
  16:decimator.cpp **** static Oscillator osc;
 645              		.loc 9 16 19 view .LVU158
 646 0006 0D4A     		ldr	r2, .L26+4
 647              	.LBB191:
 648              	.LBB189:
 649              	.LBB181:
 650              	.LBB179:
 651              	.LBB178:
  62:../../libdaisy/src/hid/audio.h ****     ~AudioHandle() {}
 652              		.loc 8 62 35 view .LVU159
 653 0008 4361     		str	r3, [r0, #20]
 654              	.LVL32:
  62:../../libdaisy/src/hid/audio.h ****     ~AudioHandle() {}
 655              		.loc 8 62 35 view .LVU160
 656              	.LBE178:
 657              	.LBE179:
 658              	.LBE181:
 659              	.LBB182:
 660              	.LBI182:
  84:../../libdaisy/src/per/adc.h ****     ~AdcHandle() {}
 661              		.loc 7 84 5 is_stmt 1 view .LVU161
  84:../../libdaisy/src/per/adc.h ****     ~AdcHandle() {}
 662              		.loc 7 84 5 is_stmt 0 view .LVU162
 663              	.LBE182:
 664              	.LBB183:
 665              	.LBI183:
 666              		.file 10 "../../libdaisy/src/per/dac.h"
   1:../../libdaisy/src/per/dac.h **** #pragma once
   2:../../libdaisy/src/per/dac.h **** #ifndef DSY_DAC_H
   3:../../libdaisy/src/per/dac.h **** #define DSY_DAC_H
   4:../../libdaisy/src/per/dac.h **** 
   5:../../libdaisy/src/per/dac.h **** #include "daisy_core.h"
   6:../../libdaisy/src/per/dac.h **** 
   7:../../libdaisy/src/per/dac.h **** namespace daisy
   8:../../libdaisy/src/per/dac.h **** {
   9:../../libdaisy/src/per/dac.h **** /** DAC handle for Built-in DAC Peripheral 
  10:../../libdaisy/src/per/dac.h ****  ** 
  11:../../libdaisy/src/per/dac.h ****  ** For now only Normal Mode is supported,
  12:../../libdaisy/src/per/dac.h ****  ** Sample and hold mode provides reduced power consumption, but requires a bit more setup.
  13:../../libdaisy/src/per/dac.h ****  **
  14:../../libdaisy/src/per/dac.h ****  ** For now connecting the DAC through other internal periphearls is also not supported.
  15:../../libdaisy/src/per/dac.h ****  **
  16:../../libdaisy/src/per/dac.h ****  ** Since the DAC channels have dedicated pins we don't need to pass in a pin config like with
  17:../../libdaisy/src/per/dac.h ****  ** other modules. However, it is still important to not try to use the DAC pins for anything else.
  18:../../libdaisy/src/per/dac.h ****  ** DAC Channel 1 is on PA4, and DAC Channel 2 is on PA5
  19:../../libdaisy/src/per/dac.h ****  ***/
  20:../../libdaisy/src/per/dac.h **** class DacHandle
  21:../../libdaisy/src/per/dac.h **** {
  22:../../libdaisy/src/per/dac.h ****   public:
  23:../../libdaisy/src/per/dac.h ****     /** Return Values for the DacHandle class */
  24:../../libdaisy/src/per/dac.h ****     enum class Result
  25:../../libdaisy/src/per/dac.h ****     {
ARM GAS  /tmp/ccJZO3gV.s 			page 23


  26:../../libdaisy/src/per/dac.h ****         OK,
  27:../../libdaisy/src/per/dac.h ****         ERR,
  28:../../libdaisy/src/per/dac.h ****     };
  29:../../libdaisy/src/per/dac.h **** 
  30:../../libdaisy/src/per/dac.h ****     /** Selects which channel(s) will be configured for use. */
  31:../../libdaisy/src/per/dac.h ****     enum class Channel
  32:../../libdaisy/src/per/dac.h ****     {
  33:../../libdaisy/src/per/dac.h ****         ONE,
  34:../../libdaisy/src/per/dac.h ****         TWO,
  35:../../libdaisy/src/per/dac.h ****         BOTH,
  36:../../libdaisy/src/per/dac.h ****     };
  37:../../libdaisy/src/per/dac.h **** 
  38:../../libdaisy/src/per/dac.h ****     /** Sets the Mode for the DAC channels.
  39:../../libdaisy/src/per/dac.h ****      **
  40:../../libdaisy/src/per/dac.h ****      ** Polling mode uses the blocking mode to transmit a single value at a time.
  41:../../libdaisy/src/per/dac.h ****      **
  42:../../libdaisy/src/per/dac.h ****      ** DMA mode uses a buffer, and periodically transmits it triggering a 
  43:../../libdaisy/src/per/dac.h ****      ** callback to fill the buffer when it is ready for more samples.
  44:../../libdaisy/src/per/dac.h ****      ***/
  45:../../libdaisy/src/per/dac.h ****     enum class Mode
  46:../../libdaisy/src/per/dac.h ****     {
  47:../../libdaisy/src/per/dac.h ****         POLLING,
  48:../../libdaisy/src/per/dac.h ****         DMA,
  49:../../libdaisy/src/per/dac.h ****     };
  50:../../libdaisy/src/per/dac.h **** 
  51:../../libdaisy/src/per/dac.h ****     /** Sets the number of bits per sample transmitted out of the DAC.
  52:../../libdaisy/src/per/dac.h ****      ** The output range will be: 0V - VDDA
  53:../../libdaisy/src/per/dac.h ****      ** The resolution will be roughly: bitdepth / (VDDA - 0V) 
  54:../../libdaisy/src/per/dac.h ****      ***/
  55:../../libdaisy/src/per/dac.h ****     enum class BitDepth
  56:../../libdaisy/src/per/dac.h ****     {
  57:../../libdaisy/src/per/dac.h ****         BITS_8,
  58:../../libdaisy/src/per/dac.h ****         BITS_12
  59:../../libdaisy/src/per/dac.h ****     };
  60:../../libdaisy/src/per/dac.h **** 
  61:../../libdaisy/src/per/dac.h ****     /** Sets whether the DAC output is buffered for higher drive ability. */
  62:../../libdaisy/src/per/dac.h ****     enum class BufferState
  63:../../libdaisy/src/per/dac.h ****     {
  64:../../libdaisy/src/per/dac.h ****         ENABLED,
  65:../../libdaisy/src/per/dac.h ****         DISABLED,
  66:../../libdaisy/src/per/dac.h ****     };
  67:../../libdaisy/src/per/dac.h **** 
  68:../../libdaisy/src/per/dac.h ****     /** Configuration structure for initializing the DAC structure. */
  69:../../libdaisy/src/per/dac.h ****     struct Config
  70:../../libdaisy/src/per/dac.h ****     {
  71:../../libdaisy/src/per/dac.h ****         /** Target Samplerate in Hz used to configure the internal 
  72:../../libdaisy/src/per/dac.h ****          ** timebase for DMA mode. Does nothing in POLLING mode.
  73:../../libdaisy/src/per/dac.h ****          ** If the value is 0 at Init time this will default to 48000Hz 
  74:../../libdaisy/src/per/dac.h ****          ** otherwise the driver will attempt meet the target.*/
  75:../../libdaisy/src/per/dac.h ****         uint32_t target_samplerate;
  76:../../libdaisy/src/per/dac.h **** 
  77:../../libdaisy/src/per/dac.h ****         Channel     chn;
  78:../../libdaisy/src/per/dac.h ****         Mode        mode;
  79:../../libdaisy/src/per/dac.h ****         BitDepth    bitdepth;
  80:../../libdaisy/src/per/dac.h ****         BufferState buff_state;
  81:../../libdaisy/src/per/dac.h ****     };
  82:../../libdaisy/src/per/dac.h **** 
ARM GAS  /tmp/ccJZO3gV.s 			page 24


  83:../../libdaisy/src/per/dac.h ****     DacHandle() : pimpl_(nullptr) {}
 667              		.loc 10 83 5 is_stmt 1 view .LVU163
 668              	.LBB184:
 669              	.LBB185:
 670              		.loc 10 83 33 is_stmt 0 view .LVU164
 671 000a 0362     		str	r3, [r0, #32]
 672              	.LVL33:
 673              		.loc 10 83 33 view .LVU165
 674              	.LBE185:
 675              	.LBE184:
 676              	.LBE183:
 677              	.LBB186:
 678              	.LBI186:
  40:../../libdaisy/src/hid/usb.h **** 
 679              		.loc 6 40 5 is_stmt 1 view .LVU166
  40:../../libdaisy/src/hid/usb.h **** 
 680              		.loc 6 40 5 is_stmt 0 view .LVU167
 681              	.LBE186:
 682              	.LBB187:
 683              	.LBI187:
  58:../../libdaisy/src/sys/system.h ****     ~System() {}
 684              		.loc 5 58 5 is_stmt 1 view .LVU168
  58:../../libdaisy/src/sys/system.h ****     ~System() {}
 685              		.loc 5 58 5 is_stmt 0 view .LVU169
 686              	.LBE187:
 687              	.LBE189:
 688              	.LBE191:
  16:decimator.cpp **** static Oscillator osc;
 689              		.loc 9 16 19 view .LVU170
 690 000c 0C49     		ldr	r1, .L26+8
 691 000e FFF7FEFF 		bl	__aeabi_atexit
 692              	.LVL34:
 693              	.LBB192:
 694              	.LBI192:
  15:../../DaisySP/Source/Synthesis/oscillator.h ****     ~Oscillator() {}
 695              		.loc 2 15 5 is_stmt 1 view .LVU171
  15:../../DaisySP/Source/Synthesis/oscillator.h ****     ~Oscillator() {}
 696              		.loc 2 15 5 is_stmt 0 view .LVU172
 697              	.LBE192:
  17:decimator.cpp **** static Decimator  decim;
 698              		.loc 9 17 19 view .LVU173
 699 0012 0A4A     		ldr	r2, .L26+4
 700 0014 0B49     		ldr	r1, .L26+12
 701 0016 0C48     		ldr	r0, .L26+16
 702 0018 FFF7FEFF 		bl	__aeabi_atexit
 703              	.LVL35:
 704              	.LBB193:
 705              	.LBI193:
  15:../../DaisySP/Source/Effects/decimator.h ****     ~Decimator() {}
 706              		.loc 3 15 5 is_stmt 1 view .LVU174
 707              	.LBB194:
 708              	.LBB195:
  15:../../DaisySP/Source/Effects/decimator.h ****     ~Decimator() {}
 709              		.loc 3 15 17 is_stmt 0 view .LVU175
 710 001c 1023     		movs	r3, #16
 711 001e 0B48     		ldr	r0, .L26+20
 712              	.LBE195:
ARM GAS  /tmp/ccJZO3gV.s 			page 25


 713              	.LBE194:
 714              	.LBE193:
  18:decimator.cpp **** static Phasor     phs;
 715              		.loc 9 18 19 view .LVU176
 716 0020 064A     		ldr	r2, .L26+4
 717 0022 0B49     		ldr	r1, .L26+24
 718              	.LBB198:
 719              	.LBB197:
 720              	.LBB196:
  15:../../DaisySP/Source/Effects/decimator.h ****     ~Decimator() {}
 721              		.loc 3 15 17 view .LVU177
 722 0024 0370     		strb	r3, [r0]
 723              	.LVL36:
  15:../../DaisySP/Source/Effects/decimator.h ****     ~Decimator() {}
 724              		.loc 3 15 17 view .LVU178
 725              	.LBE196:
 726              	.LBE197:
 727              	.LBE198:
  18:decimator.cpp **** static Phasor     phs;
 728              		.loc 9 18 19 view .LVU179
 729 0026 FFF7FEFF 		bl	__aeabi_atexit
 730              	.LVL37:
 731              	.LBB199:
 732              	.LBI199:
  17:../../DaisySP/Source/Control/phasor.h ****     ~Phasor() {}
 733              		.loc 1 17 5 is_stmt 1 view .LVU180
  17:../../DaisySP/Source/Control/phasor.h ****     ~Phasor() {}
 734              		.loc 1 17 5 is_stmt 0 view .LVU181
 735              	.LBE199:
  19:decimator.cpp **** 
 736              		.loc 9 19 19 view .LVU182
 737 002a 044A     		ldr	r2, .L26+4
 738 002c 0949     		ldr	r1, .L26+28
 739 002e 0A48     		ldr	r0, .L26+32
 740              	.LBE200:
 741              	.LBE202:
 742              		.loc 9 67 1 view .LVU183
 743 0030 BDE80840 		pop	{r3, lr}
 744              		.cfi_restore 14
 745              		.cfi_restore 3
 746              		.cfi_def_cfa_offset 0
 747              	.LBB203:
 748              	.LBB201:
  19:decimator.cpp **** 
 749              		.loc 9 19 19 view .LVU184
 750 0034 FFF7FEBF 		b	__aeabi_atexit
 751              	.LVL38:
 752              	.L27:
 753              		.align	2
 754              	.L26:
 755 0038 00000000 		.word	.LANCHOR3
 756 003c 00000000 		.word	__dso_handle
 757 0040 00000000 		.word	_ZN5daisy9DaisySeedD1Ev
 758 0044 00000000 		.word	_ZN7daisysp10OscillatorD1Ev
 759 0048 00000000 		.word	.LANCHOR0
 760 004c 00000000 		.word	.LANCHOR2
 761 0050 00000000 		.word	_ZN7daisysp9DecimatorD1Ev
ARM GAS  /tmp/ccJZO3gV.s 			page 26


 762 0054 00000000 		.word	_ZN7daisysp6PhasorD1Ev
 763 0058 00000000 		.word	.LANCHOR1
 764              	.LBE201:
 765              	.LBE203:
 766              		.cfi_endproc
 767              	.LFE4759:
 769              		.section	.init_array,"aw",%init_array
 770              		.align	2
 771 0000 00000000 		.word	_GLOBAL__sub_I_main(target1)
 772              		.section	.bss._ZL3osc,"aw",%nobits
 773              		.align	2
 774              		.set	.LANCHOR0,. + 0
 777              	_ZL3osc:
 778 0000 00000000 		.space	40
 778      00000000 
 778      00000000 
 778      00000000 
 778      00000000 
 779              		.section	.bss._ZL3phs,"aw",%nobits
 780              		.align	2
 781              		.set	.LANCHOR1,. + 0
 784              	_ZL3phs:
 785 0000 00000000 		.space	16
 785      00000000 
 785      00000000 
 785      00000000 
 786              		.section	.bss._ZL4seed,"aw",%nobits
 787              		.align	2
 788              		.set	.LANCHOR3,. + 0
 791              	_ZL4seed:
 792 0000 00000000 		.space	60
 792      00000000 
 792      00000000 
 792      00000000 
 792      00000000 
 793              		.section	.bss._ZL5decim,"aw",%nobits
 794              		.align	2
 795              		.set	.LANCHOR2,. + 0
 798              	_ZL5decim:
 799 0000 00000000 		.space	32
 799      00000000 
 799      00000000 
 799      00000000 
 799      00000000 
 800              		.text
 801              	.Letext0:
 802              		.file 11 "/usr/lib/gcc/arm-none-eabi/9.2.1/include/stdint.h"
 803              		.file 12 "../../libdaisy/Drivers/CMSIS/Include/core_cm7.h"
 804              		.file 13 "../../libdaisy/Drivers/CMSIS/Device/ST/STM32H7xx/Include/system_stm32h7xx.h"
 805              		.file 14 "/usr/lib/gcc/arm-none-eabi/9.2.1/include/stddef.h"
 806              		.file 15 "/usr/include/newlib/c++/9.2.1/cmath"
 807              		.file 16 "/usr/include/newlib/c++/9.2.1/bits/std_abs.h"
 808              		.file 17 "/usr/include/newlib/c++/9.2.1/cstdint"
 809              		.file 18 "/usr/include/newlib/c++/9.2.1/cstdlib"
 810              		.file 19 "/usr/include/newlib/c++/9.2.1/type_traits"
 811              		.file 20 "/usr/include/newlib/c++/9.2.1/arm-none-eabi/thumb/v7e-m+dp/hard/bits/c++config.h"
 812              		.file 21 "/usr/include/newlib/c++/9.2.1/bits/stl_pair.h"
ARM GAS  /tmp/ccJZO3gV.s 			page 27


 813              		.file 22 "/usr/include/newlib/c++/9.2.1/debug/debug.h"
 814              		.file 23 "/usr/include/newlib/c++/9.2.1/cwchar"
 815              		.file 24 "/usr/include/newlib/c++/9.2.1/bits/exception_ptr.h"
 816              		.file 25 "/usr/include/newlib/c++/9.2.1/new"
 817              		.file 26 "/usr/include/newlib/c++/9.2.1/clocale"
 818              		.file 27 "/usr/include/newlib/c++/9.2.1/cstdio"
 819              		.file 28 "/usr/include/newlib/c++/9.2.1/bits/basic_string.h"
 820              		.file 29 "/usr/include/newlib/c++/9.2.1/bits/uniform_int_dist.h"
 821              		.file 30 "/usr/include/newlib/c++/9.2.1/bits/random.h"
 822              		.file 31 "/usr/include/newlib/c++/9.2.1/cstring"
 823              		.file 32 "/usr/include/newlib/c++/9.2.1/bits/algorithmfwd.h"
 824              		.file 33 "/usr/include/newlib/c++/9.2.1/cstdarg"
 825              		.file 34 "/usr/include/newlib/c++/9.2.1/bits/predefined_ops.h"
 826              		.file 35 "/usr/include/newlib/c++/9.2.1/ext/new_allocator.h"
 827              		.file 36 "/usr/include/newlib/c++/9.2.1/ext/numeric_traits.h"
 828              		.file 37 "/usr/include/newlib/sys/_types.h"
 829              		.file 38 "<built-in>"
 830              		.file 39 "/usr/include/newlib/sys/reent.h"
 831              		.file 40 "/usr/include/newlib/sys/lock.h"
 832              		.file 41 "/usr/include/newlib/math.h"
 833              		.file 42 "/usr/include/newlib/stdlib.h"
 834              		.file 43 "/usr/include/newlib/c++/9.2.1/math.h"
 835              		.file 44 "../../libdaisy/Drivers/STM32H7xx_HAL_Driver/Inc/stm32h7xx_hal_def.h"
 836              		.file 45 "../../libdaisy/Drivers/STM32H7xx_HAL_Driver/Inc/stm32h7xx_hal_flash.h"
 837              		.file 46 "../../DaisySP/Source/Control/adenv.h"
 838              		.file 47 "../../DaisySP/Source/Utility/dsp.h"
 839              		.file 48 "/usr/lib/gcc/arm-none-eabi/9.2.1/include/stdarg.h"
 840              		.file 49 "/usr/include/newlib/wchar.h"
 841              		.file 50 "/usr/include/newlib/locale.h"
 842              		.file 51 "/usr/include/newlib/ctype.h"
 843              		.file 52 "/usr/include/newlib/stdio.h"
 844              		.file 53 "/usr/include/newlib/sys/errno.h"
 845              		.file 54 "/usr/include/newlib/c++/9.2.1/stdlib.h"
 846              		.file 55 "/usr/include/newlib/string.h"
 847              		.file 56 "../../libdaisy/src/daisy_core.h"
 848              		.file 57 "../../libdaisy/src/per/tim.h"
 849              		.file 58 "../../libdaisy/src/per/sai.h"
 850              		.file 59 "../../libdaisy/src/util/wav_format.h"
 851              		.file 60 "../../libdaisy/src/per/qspi.h"
 852              		.file 61 "../../libdaisy/src/per/gpio.h"
 853              		.file 62 "../../libdaisy/src/dev/sdram.h"
 854              		.file 63 "/usr/include/newlib/sys/unistd.h"
 855              		.file 64 "../../libdaisy/src/util/oled_fonts.h"
 856              		.file 65 "../../libdaisy/Middlewares/Third_Party/FatFs/src/integer.h"
 857              		.file 66 "../../libdaisy/Middlewares/Third_Party/FatFs/src/ff.h"
 858              		.file 67 "../../libdaisy/Middlewares/Third_Party/FatFs/src/diskio.h"
 859              		.file 68 "../../libdaisy/Middlewares/Third_Party/FatFs/src/ff_gen_drv.h"
 860              		.file 69 "../../libdaisy/src/util/sd_diskio.h"
 861              		.file 70 "../../libdaisy/src/sys/fatfs.h"
 862              		.file 71 "../../libdaisy/src/dev/sr_595.h"
ARM GAS  /tmp/ccJZO3gV.s 			page 28

