ARM GAS  /tmp/ccCNWhR0.s 			page 1


   1              		.cpu cortex-m7
   2              		.eabi_attribute 28, 1
   3              		.eabi_attribute 20, 1
   4              		.eabi_attribute 21, 1
   5              		.eabi_attribute 23, 3
   6              		.eabi_attribute 24, 1
   7              		.eabi_attribute 25, 1
   8              		.eabi_attribute 26, 1
   9              		.eabi_attribute 30, 4
  10              		.eabi_attribute 34, 1
  11              		.eabi_attribute 18, 4
  12              		.file	"correlator.cpp"
  13              		.text
  14              	.Ltext0:
  15              		.cfi_sections	.debug_frame
  16              		.section	.text._ZN10Correlator4InitEPmS0_,"ax",%progbits
  17              		.align	1
  18              		.global	_ZN10Correlator4InitEPmS0_
  19              		.arch armv7e-m
  20              		.syntax unified
  21              		.thumb
  22              		.thumb_func
  23              		.fpu fpv5-d16
  25              	_ZN10Correlator4InitEPmS0_:
  26              	.LVL0:
  27              	.LFB3589:
  28              		.file 1 "dsp/correlator.cpp"
   1:dsp/correlator.cpp **** // Copyright 2014 Emilie Gillet.
   2:dsp/correlator.cpp **** //
   3:dsp/correlator.cpp **** // Author: Emilie Gillet (emilie.o.gillet@gmail.com)
   4:dsp/correlator.cpp **** //
   5:dsp/correlator.cpp **** // Permission is hereby granted, free of charge, to any person obtaining a copy
   6:dsp/correlator.cpp **** // of this software and associated documentation files (the "Software"), to deal
   7:dsp/correlator.cpp **** // in the Software without restriction, including without limitation the rights
   8:dsp/correlator.cpp **** // to use, copy, modify, merge, publish, distribute, sublicense, and/or sell
   9:dsp/correlator.cpp **** // copies of the Software, and to permit persons to whom the Software is
  10:dsp/correlator.cpp **** // furnished to do so, subject to the following conditions:
  11:dsp/correlator.cpp **** //
  12:dsp/correlator.cpp **** // The above copyright notice and this permission notice shall be included in
  13:dsp/correlator.cpp **** // all copies or substantial portions of the Software.
  14:dsp/correlator.cpp **** //
  15:dsp/correlator.cpp **** // THE SOFTWARE IS PROVIDED "AS IS", WITHOUT WARRANTY OF ANY KIND, EXPRESS OR
  16:dsp/correlator.cpp **** // IMPLIED, INCLUDING BUT NOT LIMITED TO THE WARRANTIES OF MERCHANTABILITY,
  17:dsp/correlator.cpp **** // FITNESS FOR A PARTICULAR PURPOSE AND NONINFRINGEMENT. IN NO EVENT SHALL THE
  18:dsp/correlator.cpp **** // AUTHORS OR COPYRIGHT HOLDERS BE LIABLE FOR ANY CLAIM, DAMAGES OR OTHER
  19:dsp/correlator.cpp **** // LIABILITY, WHETHER IN AN ACTION OF CONTRACT, TORT OR OTHERWISE, ARISING FROM,
  20:dsp/correlator.cpp **** // OUT OF OR IN CONNECTION WITH THE SOFTWARE OR THE USE OR OTHER DEALINGS IN
  21:dsp/correlator.cpp **** // THE SOFTWARE.
  22:dsp/correlator.cpp **** //
  23:dsp/correlator.cpp **** // See http://creativecommons.org/licenses/MIT/ for more information.
  24:dsp/correlator.cpp **** //
  25:dsp/correlator.cpp **** // -----------------------------------------------------------------------------
  26:dsp/correlator.cpp **** //
  27:dsp/correlator.cpp **** // Search for stretch/shift splicing points by maximizing correlation.
  28:dsp/correlator.cpp **** 
  29:dsp/correlator.cpp **** #include "correlator.h"
  30:dsp/correlator.cpp **** 
ARM GAS  /tmp/ccCNWhR0.s 			page 2


  31:dsp/correlator.cpp **** #include <algorithm>
  32:dsp/correlator.cpp **** 
  33:dsp/correlator.cpp **** using namespace daisysp;
  34:dsp/correlator.cpp **** 
  35:dsp/correlator.cpp **** using namespace std;
  36:dsp/correlator.cpp **** 
  37:dsp/correlator.cpp **** void Correlator::Init(uint32_t* source, uint32_t* destination)
  38:dsp/correlator.cpp **** {
  29              		.loc 1 38 1 view -0
  30              		.cfi_startproc
  31              		@ args = 0, pretend = 0, frame = 0
  32              		@ frame_needed = 0, uses_anonymous_args = 0
  33              		@ link register save eliminated.
  39:dsp/correlator.cpp ****     source_      = source;
  34              		.loc 1 39 5 view .LVU1
  40:dsp/correlator.cpp ****     destination_ = destination;
  41:dsp/correlator.cpp ****     offset_      = 0;
  35              		.loc 1 41 18 is_stmt 0 view .LVU2
  36 0000 0023     		movs	r3, #0
  37 0002 8360     		str	r3, [r0, #8]
  42:dsp/correlator.cpp ****     best_match_  = 0;
  38              		.loc 1 42 18 view .LVU3
  39 0004 C361     		str	r3, [r0, #28]
  43:dsp/correlator.cpp ****     done_        = true;
  40              		.loc 1 43 18 view .LVU4
  41 0006 0123     		movs	r3, #1
  40:dsp/correlator.cpp ****     destination_ = destination;
  42              		.loc 1 40 18 view .LVU5
  43 0008 C0E90012 		strd	r1, r2, [r0]
  41:dsp/correlator.cpp ****     best_match_  = 0;
  44              		.loc 1 41 5 is_stmt 1 view .LVU6
  42:dsp/correlator.cpp ****     best_match_  = 0;
  45              		.loc 1 42 5 view .LVU7
  46              		.loc 1 43 5 view .LVU8
  47              		.loc 1 43 18 is_stmt 0 view .LVU9
  48 000c 80F82430 		strb	r3, [r0, #36]
  44:dsp/correlator.cpp **** }
  49              		.loc 1 44 1 view .LVU10
  50 0010 7047     		bx	lr
  51              		.cfi_endproc
  52              	.LFE3589:
  54              		.section	.text._ZN10Correlator21EvaluateNextCandidateEv,"ax",%progbits
  55              		.align	1
  56              		.global	_ZN10Correlator21EvaluateNextCandidateEv
  57              		.syntax unified
  58              		.thumb
  59              		.thumb_func
  60              		.fpu fpv5-d16
  62              	_ZN10Correlator21EvaluateNextCandidateEv:
  63              	.LVL1:
  64              	.LFB3590:
  45:dsp/correlator.cpp **** 
  46:dsp/correlator.cpp **** void Correlator::EvaluateNextCandidate()
  47:dsp/correlator.cpp **** {
  65              		.loc 1 47 1 is_stmt 1 view -0
  66              		.cfi_startproc
  67              		@ args = 0, pretend = 0, frame = 0
ARM GAS  /tmp/ccCNWhR0.s 			page 3


  68              		@ frame_needed = 0, uses_anonymous_args = 0
  48:dsp/correlator.cpp ****     if(done_)
  69              		.loc 1 48 5 view .LVU12
  70 0000 90F82410 		ldrb	r1, [r0, #36]	@ zero_extendqisi2
  47:dsp/correlator.cpp ****     if(done_)
  71              		.loc 1 47 1 is_stmt 0 view .LVU13
  72 0004 2DE9F041 		push	{r4, r5, r6, r7, r8, lr}
  73              		.cfi_def_cfa_offset 24
  74              		.cfi_offset 4, -24
  75              		.cfi_offset 5, -20
  76              		.cfi_offset 6, -16
  77              		.cfi_offset 7, -12
  78              		.cfi_offset 8, -8
  79              		.cfi_offset 14, -4
  80              		.loc 1 48 5 view .LVU14
  81 0008 0029     		cmp	r1, #0
  82 000a 42D1     		bne	.L2
  49:dsp/correlator.cpp ****     {
  50:dsp/correlator.cpp ****         return;
  51:dsp/correlator.cpp ****     }
  52:dsp/correlator.cpp ****     uint32_t  num_words    = size_ >> 5;
  83              		.loc 1 52 5 is_stmt 1 view .LVU15
  53:dsp/correlator.cpp ****     uint32_t  offset_words = candidate_ >> 5;
  54:dsp/correlator.cpp ****     uint32_t  offset_bits  = candidate_ & 0x1f;
  55:dsp/correlator.cpp ****     uint32_t* source       = &source_[0];
  56:dsp/correlator.cpp ****     uint32_t* destination  = &destination_[offset_words];
  84              		.loc 1 56 15 is_stmt 0 view .LVU16
  85 000c 4468     		ldr	r4, [r0, #4]
  86 000e 0668     		ldr	r6, [r0]
  53:dsp/correlator.cpp ****     uint32_t  offset_words = candidate_ >> 5;
  87              		.loc 1 53 30 view .LVU17
  88 0010 D0E90452 		ldrd	r5, r2, [r0, #16]
  89              	.LVL2:
  54:dsp/correlator.cpp ****     uint32_t* source       = &source_[0];
  90              		.loc 1 54 5 is_stmt 1 view .LVU18
  91 0014 043E     		subs	r6, r6, #4
  53:dsp/correlator.cpp ****     uint32_t  offset_words = candidate_ >> 5;
  92              		.loc 1 53 41 is_stmt 0 view .LVU19
  93 0016 5311     		asrs	r3, r2, #5
  94              	.LVL3:
  54:dsp/correlator.cpp ****     uint32_t* source       = &source_[0];
  95              		.loc 1 54 15 view .LVU20
  96 0018 02F01F0C 		and	ip, r2, #31
  97              	.LVL4:
  55:dsp/correlator.cpp ****     uint32_t* destination  = &destination_[offset_words];
  98              		.loc 1 55 5 is_stmt 1 view .LVU21
  99              		.loc 1 56 5 view .LVU22
  57:dsp/correlator.cpp **** 
  58:dsp/correlator.cpp ****     uint32_t xcorr = 0;
 100              		.loc 1 58 5 view .LVU23
  59:dsp/correlator.cpp ****     for(uint32_t i = 0; i < num_words; ++i)
 101              		.loc 1 59 5 view .LVU24
  52:dsp/correlator.cpp ****     uint32_t  offset_words = candidate_ >> 5;
 102              		.loc 1 52 36 is_stmt 0 view .LVU25
 103 001c 6F11     		asrs	r7, r5, #5
  56:dsp/correlator.cpp **** 
 104              		.loc 1 56 15 view .LVU26
ARM GAS  /tmp/ccCNWhR0.s 			page 4


 105 001e 04EB8304 		add	r4, r4, r3, lsl #2
 106              	.LVL5:
  56:dsp/correlator.cpp **** 
 107              		.loc 1 56 15 view .LVU27
 108 0022 04EB8707 		add	r7, r4, r7, lsl #2
 109              	.LVL6:
 110              	.L5:
 111              	.LBB2:
 112              		.loc 1 59 27 is_stmt 1 discriminator 3 view .LVU28
 113 0026 BC42     		cmp	r4, r7
 114 0028 26D0     		beq	.L4
 115              	.LBB3:
  60:dsp/correlator.cpp ****     {
  61:dsp/correlator.cpp ****         uint32_t source_bits      = source[i];
 116              		.loc 1 61 9 discriminator 2 view .LVU29
 117              	.LVL7:
  62:dsp/correlator.cpp ****         uint32_t destination_bits = 0;
 118              		.loc 1 62 9 discriminator 2 view .LVU30
  63:dsp/correlator.cpp ****         destination_bits |= destination[i] << offset_bits;
 119              		.loc 1 63 9 discriminator 2 view .LVU31
 120              		.loc 1 63 44 is_stmt 0 discriminator 2 view .LVU32
 121 002a 2368     		ldr	r3, [r4]
  64:dsp/correlator.cpp ****         destination_bits |= destination[i + 1] >> (32 - offset_bits);
 122              		.loc 1 64 55 discriminator 2 view .LVU33
 123 002c CCF12008 		rsb	r8, ip, #32
  63:dsp/correlator.cpp ****         destination_bits |= destination[i] << offset_bits;
 124              		.loc 1 63 44 discriminator 2 view .LVU34
 125 0030 03FA0CFE 		lsl	lr, r3, ip
 126              	.LVL8:
 127              		.loc 1 64 9 is_stmt 1 discriminator 2 view .LVU35
  65:dsp/correlator.cpp ****         uint32_t count = ~(source_bits ^ destination_bits);
 128              		.loc 1 65 9 discriminator 2 view .LVU36
  64:dsp/correlator.cpp ****         destination_bits |= destination[i + 1] >> (32 - offset_bits);
 129              		.loc 1 64 48 is_stmt 0 discriminator 2 view .LVU37
 130 0034 54F8043F 		ldr	r3, [r4, #4]!
 131              	.LVL9:
  64:dsp/correlator.cpp ****         destination_bits |= destination[i + 1] >> (32 - offset_bits);
 132              		.loc 1 64 48 discriminator 2 view .LVU38
 133 0038 23FA08F3 		lsr	r3, r3, r8
  64:dsp/correlator.cpp ****         destination_bits |= destination[i + 1] >> (32 - offset_bits);
 134              		.loc 1 64 26 discriminator 2 view .LVU39
 135 003c 43EA0E03 		orr	r3, r3, lr
 136              	.LVL10:
 137              		.loc 1 65 40 discriminator 2 view .LVU40
 138 0040 56F804EF 		ldr	lr, [r6, #4]!
 139              	.LVL11:
 140              		.loc 1 65 40 discriminator 2 view .LVU41
 141 0044 83EA0E03 		eor	r3, r3, lr
 142              	.LVL12:
 143              		.loc 1 65 18 discriminator 2 view .LVU42
 144 0048 DB43     		mvns	r3, r3
 145              	.LVL13:
  66:dsp/correlator.cpp ****         count          = count - ((count >> 1) & 0x55555555);
 146              		.loc 1 66 9 is_stmt 1 discriminator 2 view .LVU43
 147              		.loc 1 66 42 is_stmt 0 discriminator 2 view .LVU44
 148 004a 4FEA530E 		lsr	lr, r3, #1
 149              		.loc 1 66 48 discriminator 2 view .LVU45
ARM GAS  /tmp/ccCNWhR0.s 			page 5


 150 004e 0EF0553E 		and	lr, lr, #1431655765
 151              		.loc 1 66 24 discriminator 2 view .LVU46
 152 0052 A3EB0E03 		sub	r3, r3, lr
 153              	.LVL14:
  67:dsp/correlator.cpp ****         count          = (count & 0x33333333) + ((count >> 2) & 0x33333333);
 154              		.loc 1 67 9 is_stmt 1 discriminator 2 view .LVU47
 155              		.loc 1 67 33 is_stmt 0 discriminator 2 view .LVU48
 156 0056 03F0333E 		and	lr, r3, #858993459
 157              		.loc 1 67 57 discriminator 2 view .LVU49
 158 005a 9B08     		lsrs	r3, r3, #2
 159              	.LVL15:
 160              		.loc 1 67 63 discriminator 2 view .LVU50
 161 005c 03F03333 		and	r3, r3, #858993459
 162              		.loc 1 67 24 discriminator 2 view .LVU51
 163 0060 7344     		add	r3, r3, lr
 164              	.LVL16:
  68:dsp/correlator.cpp ****         count = (((count + (count >> 4)) & 0xf0f0f0f) * 0x1010101) >> 24;
 165              		.loc 1 68 9 is_stmt 1 discriminator 2 view .LVU52
 166              		.loc 1 68 55 is_stmt 0 discriminator 2 view .LVU53
 167 0062 4FF0013E 		mov	lr, #16843009
 168              		.loc 1 68 26 discriminator 2 view .LVU54
 169 0066 03EB1313 		add	r3, r3, r3, lsr #4
 170              	.LVL17:
 171              		.loc 1 68 42 discriminator 2 view .LVU55
 172 006a 03F00F33 		and	r3, r3, #252645135
 173              		.loc 1 68 55 discriminator 2 view .LVU56
 174 006e 0EFB03F3 		mul	r3, lr, r3
 175              	.LVL18:
  69:dsp/correlator.cpp ****         xcorr += count;
 176              		.loc 1 69 9 is_stmt 1 discriminator 2 view .LVU57
 177              		.loc 1 69 15 is_stmt 0 discriminator 2 view .LVU58
 178 0072 01EB1361 		add	r1, r1, r3, lsr #24
 179              	.LVL19:
 180              		.loc 1 69 15 discriminator 2 view .LVU59
 181              	.LBE3:
  59:dsp/correlator.cpp ****     {
 182              		.loc 1 59 5 is_stmt 1 discriminator 2 view .LVU60
 183 0076 D6E7     		b	.L5
 184              	.LVL20:
 185              	.L4:
  59:dsp/correlator.cpp ****     {
 186              		.loc 1 59 5 is_stmt 0 discriminator 2 view .LVU61
 187              	.LBE2:
  70:dsp/correlator.cpp ****     }
  71:dsp/correlator.cpp ****     if(xcorr > best_score_)
 188              		.loc 1 71 5 is_stmt 1 view .LVU62
 189 0078 8369     		ldr	r3, [r0, #24]
 190 007a 8B42     		cmp	r3, r1
  72:dsp/correlator.cpp ****     {
  73:dsp/correlator.cpp ****         best_match_ = candidate_;
 191              		.loc 1 73 9 view .LVU63
  74:dsp/correlator.cpp ****         best_score_ = xcorr;
 192              		.loc 1 74 21 is_stmt 0 view .LVU64
 193 007c 38BF     		it	cc
 194 007e C0E90612 		strdcc	r1, r2, [r0, #24]
  75:dsp/correlator.cpp ****     }
  76:dsp/correlator.cpp ****     ++candidate_;
ARM GAS  /tmp/ccCNWhR0.s 			page 6


 195              		.loc 1 76 5 is_stmt 1 view .LVU65
 196 0082 0132     		adds	r2, r2, #1
 197              	.LVL21:
  77:dsp/correlator.cpp ****     done_ = candidate_ >= size_;
 198              		.loc 1 77 24 is_stmt 0 view .LVU66
 199 0084 9542     		cmp	r5, r2
  76:dsp/correlator.cpp ****     done_ = candidate_ >= size_;
 200              		.loc 1 76 5 view .LVU67
 201 0086 4261     		str	r2, [r0, #20]
 202              	.LVL22:
 203              		.loc 1 77 5 is_stmt 1 view .LVU68
 204              		.loc 1 77 24 is_stmt 0 view .LVU69
 205 0088 CCBF     		ite	gt
 206 008a 0022     		movgt	r2, #0
 207              	.LVL23:
 208              		.loc 1 77 24 view .LVU70
 209 008c 0122     		movle	r2, #1
 210 008e 80F82420 		strb	r2, [r0, #36]
 211              	.LVL24:
 212              	.L2:
  78:dsp/correlator.cpp **** }
 213              		.loc 1 78 1 view .LVU71
 214 0092 BDE8F081 		pop	{r4, r5, r6, r7, r8, pc}
 215              		.cfi_endproc
 216              	.LFE3590:
 218              		.section	.text._ZN10Correlator11StartSearchElll,"ax",%progbits
 219              		.align	1
 220              		.global	_ZN10Correlator11StartSearchElll
 221              		.syntax unified
 222              		.thumb
 223              		.thumb_func
 224              		.fpu fpv5-d16
 226              	_ZN10Correlator11StartSearchElll:
 227              	.LVL25:
 228              	.LFB3591:
  79:dsp/correlator.cpp **** 
  80:dsp/correlator.cpp **** void Correlator::StartSearch(int32_t size, int32_t offset, int32_t increment)
  81:dsp/correlator.cpp **** {
 229              		.loc 1 81 1 is_stmt 1 view -0
 230              		.cfi_startproc
 231              		@ args = 0, pretend = 0, frame = 0
 232              		@ frame_needed = 0, uses_anonymous_args = 0
 233              		@ link register save eliminated.
  82:dsp/correlator.cpp ****     offset_     = offset;
 234              		.loc 1 82 5 view .LVU73
  83:dsp/correlator.cpp ****     increment_  = increment;
 235              		.loc 1 83 17 is_stmt 0 view .LVU74
 236 0000 C0E90223 		strd	r2, r3, [r0, #8]
  84:dsp/correlator.cpp ****     best_score_ = 0;
 237              		.loc 1 84 5 is_stmt 1 view .LVU75
 238              		.loc 1 84 17 is_stmt 0 view .LVU76
 239 0004 0023     		movs	r3, #0
 240              	.LVL26:
  85:dsp/correlator.cpp ****     best_match_ = 0;
 241              		.loc 1 85 17 view .LVU77
 242 0006 C0E90633 		strd	r3, r3, [r0, #24]
  86:dsp/correlator.cpp ****     candidate_  = 0;
ARM GAS  /tmp/ccCNWhR0.s 			page 7


 243              		.loc 1 86 5 is_stmt 1 view .LVU78
  87:dsp/correlator.cpp ****     size_       = size;
 244              		.loc 1 87 17 is_stmt 0 view .LVU79
 245 000a C0E90413 		strd	r1, r3, [r0, #16]
  88:dsp/correlator.cpp ****     done_       = false;
 246              		.loc 1 88 5 is_stmt 1 view .LVU80
 247              		.loc 1 88 17 is_stmt 0 view .LVU81
 248 000e 80F82430 		strb	r3, [r0, #36]
  89:dsp/correlator.cpp **** }
 249              		.loc 1 89 1 view .LVU82
 250 0012 7047     		bx	lr
 251              		.cfi_endproc
 252              	.LFE3591:
 254              		.text
 255              	.Letext0:
 256              		.file 2 "/usr/lib/gcc/arm-none-eabi/9.2.1/include/stdint.h"
 257              		.file 3 "../../libdaisy/Drivers/CMSIS/Include/core_cm7.h"
 258              		.file 4 "../../libdaisy/Drivers/CMSIS/Device/ST/STM32H7xx/Include/system_stm32h7xx.h"
 259              		.file 5 "/usr/lib/gcc/arm-none-eabi/9.2.1/include/stddef.h"
 260              		.file 6 "/usr/include/newlib/c++/9.2.1/cmath"
 261              		.file 7 "/usr/include/newlib/c++/9.2.1/bits/std_abs.h"
 262              		.file 8 "/usr/include/newlib/c++/9.2.1/cstdint"
 263              		.file 9 "/usr/include/newlib/c++/9.2.1/cstdlib"
 264              		.file 10 "/usr/include/newlib/c++/9.2.1/type_traits"
 265              		.file 11 "/usr/include/newlib/c++/9.2.1/arm-none-eabi/thumb/v7e-m+dp/hard/bits/c++config.h"
 266              		.file 12 "/usr/include/newlib/c++/9.2.1/bits/stl_pair.h"
 267              		.file 13 "/usr/include/newlib/c++/9.2.1/debug/debug.h"
 268              		.file 14 "/usr/include/newlib/c++/9.2.1/cwchar"
 269              		.file 15 "/usr/include/newlib/c++/9.2.1/bits/exception_ptr.h"
 270              		.file 16 "/usr/include/newlib/c++/9.2.1/new"
 271              		.file 17 "/usr/include/newlib/c++/9.2.1/clocale"
 272              		.file 18 "/usr/include/newlib/c++/9.2.1/cstdio"
 273              		.file 19 "/usr/include/newlib/c++/9.2.1/bits/basic_string.h"
 274              		.file 20 "/usr/include/newlib/c++/9.2.1/bits/uniform_int_dist.h"
 275              		.file 21 "/usr/include/newlib/c++/9.2.1/bits/random.h"
 276              		.file 22 "/usr/include/newlib/c++/9.2.1/cstring"
 277              		.file 23 "/usr/include/newlib/c++/9.2.1/bits/algorithmfwd.h"
 278              		.file 24 "/usr/include/newlib/c++/9.2.1/bits/predefined_ops.h"
 279              		.file 25 "/usr/include/newlib/c++/9.2.1/ext/new_allocator.h"
 280              		.file 26 "/usr/include/newlib/c++/9.2.1/ext/numeric_traits.h"
 281              		.file 27 "/usr/include/newlib/sys/_types.h"
 282              		.file 28 "<built-in>"
 283              		.file 29 "/usr/include/newlib/sys/reent.h"
 284              		.file 30 "/usr/include/newlib/sys/lock.h"
 285              		.file 31 "/usr/include/newlib/math.h"
 286              		.file 32 "/usr/include/newlib/stdlib.h"
 287              		.file 33 "/usr/include/newlib/c++/9.2.1/math.h"
 288              		.file 34 "../../libdaisy/Drivers/STM32H7xx_HAL_Driver/Inc/stm32h7xx_hal_def.h"
 289              		.file 35 "../../libdaisy/Drivers/STM32H7xx_HAL_Driver/Inc/stm32h7xx_hal_flash.h"
 290              		.file 36 "../../DaisySP/Source/Control/adenv.h"
 291              		.file 37 "../../DaisySP/Source/Utility/dsp.h"
 292              		.file 38 "/usr/lib/gcc/arm-none-eabi/9.2.1/include/stdarg.h"
 293              		.file 39 "/usr/include/newlib/wchar.h"
 294              		.file 40 "/usr/include/newlib/locale.h"
 295              		.file 41 "/usr/include/newlib/ctype.h"
 296              		.file 42 "/usr/include/newlib/stdio.h"
 297              		.file 43 "/usr/include/newlib/sys/errno.h"
ARM GAS  /tmp/ccCNWhR0.s 			page 8


 298              		.file 44 "/usr/include/newlib/c++/9.2.1/stdlib.h"
 299              		.file 45 "/usr/include/newlib/string.h"
 300              		.file 46 "dsp/correlator.h"
ARM GAS  /tmp/ccCNWhR0.s 			page 9

