ARM GAS  /tmp/ccmw9Hql.s 			page 1


   1              		.cpu cortex-m7
   2              		.eabi_attribute 28, 1
   3              		.eabi_attribute 20, 1
   4              		.eabi_attribute 21, 1
   5              		.eabi_attribute 23, 3
   6              		.eabi_attribute 24, 1
   7              		.eabi_attribute 25, 1
   8              		.eabi_attribute 26, 1
   9              		.eabi_attribute 30, 4
  10              		.eabi_attribute 34, 1
  11              		.eabi_attribute 18, 4
  12              		.file	"granular_processor.cpp"
  13              		.text
  14              	.Ltext0:
  15              		.cfi_sections	.debug_frame
  16              		.section	.text._ZNK11AudioBufferIL10Resolution3EE7ReadZOHElt.isra.0,"axG",%progbits,_ZN20GranularS
  17              		.align	1
  18              		.arch armv7e-m
  19              		.syntax unified
  20              		.thumb
  21              		.thumb_func
  22              		.fpu fpv5-d16
  24              	_ZNK11AudioBufferIL10Resolution3EE7ReadZOHElt.isra.0:
  25              	.LVL0:
  26              	.LFB5425:
  27              		.file 1 "dsp/audio_buffer.h"
   1:dsp/audio_buffer.h **** // Copyright 2014 Emilie Gillet.
   2:dsp/audio_buffer.h **** //
   3:dsp/audio_buffer.h **** // Author: Emilie Gillet (emilie.o.gillet@gmail.com)
   4:dsp/audio_buffer.h **** //
   5:dsp/audio_buffer.h **** // Permission is hereby granted, free of charge, to any person obtaining a copy
   6:dsp/audio_buffer.h **** // of this software and associated documentation files (the "Software"), to deal
   7:dsp/audio_buffer.h **** // in the Software without restriction, including without limitation the rights
   8:dsp/audio_buffer.h **** // to use, copy, modify, merge, publish, distribute, sublicense, and/or sell
   9:dsp/audio_buffer.h **** // copies of the Software, and to permit persons to whom the Software is
  10:dsp/audio_buffer.h **** // furnished to do so, subject to the following conditions:
  11:dsp/audio_buffer.h **** //
  12:dsp/audio_buffer.h **** // The above copyright notice and this permission notice shall be included in
  13:dsp/audio_buffer.h **** // all copies or substantial portions of the Software.
  14:dsp/audio_buffer.h **** //
  15:dsp/audio_buffer.h **** // THE SOFTWARE IS PROVIDED "AS IS", WITHOUT WARRANTY OF ANY KIND, EXPRESS OR
  16:dsp/audio_buffer.h **** // IMPLIED, INCLUDING BUT NOT LIMITED TO THE WARRANTIES OF MERCHANTABILITY,
  17:dsp/audio_buffer.h **** // FITNESS FOR A PARTICULAR PURPOSE AND NONINFRINGEMENT. IN NO EVENT SHALL THE
  18:dsp/audio_buffer.h **** // AUTHORS OR COPYRIGHT HOLDERS BE LIABLE FOR ANY CLAIM, DAMAGES OR OTHER
  19:dsp/audio_buffer.h **** // LIABILITY, WHETHER IN AN ACTION OF CONTRACT, TORT OR OTHERWISE, ARISING FROM,
  20:dsp/audio_buffer.h **** // OUT OF OR IN CONNECTION WITH THE SOFTWARE OR THE USE OR OTHER DEALINGS IN
  21:dsp/audio_buffer.h **** // THE SOFTWARE.
  22:dsp/audio_buffer.h **** //
  23:dsp/audio_buffer.h **** // See http://creativecommons.org/licenses/MIT/ for more information.
  24:dsp/audio_buffer.h **** //
  25:dsp/audio_buffer.h **** // -----------------------------------------------------------------------------
  26:dsp/audio_buffer.h **** //
  27:dsp/audio_buffer.h **** // Circular buffer storing audio samples.
  28:dsp/audio_buffer.h **** 
  29:dsp/audio_buffer.h **** #ifndef CLOUDS_DSP_AUDIO_BUFFER_H_
  30:dsp/audio_buffer.h **** #define CLOUDS_DSP_AUDIO_BUFFER_H_
  31:dsp/audio_buffer.h **** 
ARM GAS  /tmp/ccmw9Hql.s 			page 2


  32:dsp/audio_buffer.h **** #include <algorithm>
  33:dsp/audio_buffer.h **** #include "daisy.h"
  34:dsp/audio_buffer.h **** #include "mu_law.h"
  35:dsp/audio_buffer.h **** 
  36:dsp/audio_buffer.h **** using namespace daisy;
  37:dsp/audio_buffer.h **** 
  38:dsp/audio_buffer.h **** const int32_t kCrossFadeSize     = 256;
  39:dsp/audio_buffer.h **** const int32_t kInterpolationTail = 8;
  40:dsp/audio_buffer.h **** 
  41:dsp/audio_buffer.h **** enum Resolution
  42:dsp/audio_buffer.h **** {
  43:dsp/audio_buffer.h ****     RESOLUTION_16_BIT,
  44:dsp/audio_buffer.h ****     RESOLUTION_8_BIT,
  45:dsp/audio_buffer.h ****     RESOLUTION_8_BIT_DITHERED,
  46:dsp/audio_buffer.h ****     RESOLUTION_8_BIT_MU_LAW,
  47:dsp/audio_buffer.h **** };
  48:dsp/audio_buffer.h **** 
  49:dsp/audio_buffer.h **** enum InterpolationMethod
  50:dsp/audio_buffer.h **** {
  51:dsp/audio_buffer.h ****     INTERPOLATION_ZOH,
  52:dsp/audio_buffer.h ****     INTERPOLATION_LINEAR,
  53:dsp/audio_buffer.h ****     INTERPOLATION_HERMITE
  54:dsp/audio_buffer.h **** };
  55:dsp/audio_buffer.h **** 
  56:dsp/audio_buffer.h **** template <Resolution resolution>
  57:dsp/audio_buffer.h **** class AudioBuffer
  58:dsp/audio_buffer.h **** {
  59:dsp/audio_buffer.h ****   public:
  60:dsp/audio_buffer.h ****     AudioBuffer() {}
  61:dsp/audio_buffer.h ****     ~AudioBuffer() {}
  62:dsp/audio_buffer.h **** 
  63:dsp/audio_buffer.h ****     void Init(void* buffer, int32_t size, int16_t* tail_buffer)
  64:dsp/audio_buffer.h ****     {
  65:dsp/audio_buffer.h ****         s16_                = static_cast<int16_t*>(buffer);
  66:dsp/audio_buffer.h ****         s8_                 = static_cast<int8_t*>(buffer);
  67:dsp/audio_buffer.h ****         size_               = size - kInterpolationTail;
  68:dsp/audio_buffer.h ****         write_head_         = 0;
  69:dsp/audio_buffer.h ****         quantization_error_ = 0.0f;
  70:dsp/audio_buffer.h ****         crossfade_counter_  = 0;
  71:dsp/audio_buffer.h ****         if(resolution == RESOLUTION_16_BIT)
  72:dsp/audio_buffer.h ****         {
  73:dsp/audio_buffer.h ****             std::fill(&s16_[0], &s16_[size], 0);
  74:dsp/audio_buffer.h ****         }
  75:dsp/audio_buffer.h ****         else
  76:dsp/audio_buffer.h ****         {
  77:dsp/audio_buffer.h ****             std::fill(&s8_[0],
  78:dsp/audio_buffer.h ****                       &s8_[size],
  79:dsp/audio_buffer.h ****                       resolution == RESOLUTION_8_BIT_MU_LAW ? 127 : 0);
  80:dsp/audio_buffer.h ****         }
  81:dsp/audio_buffer.h ****         tail_ = tail_buffer;
  82:dsp/audio_buffer.h ****     }
  83:dsp/audio_buffer.h **** 
  84:dsp/audio_buffer.h ****     inline void Resync(int32_t head)
  85:dsp/audio_buffer.h ****     {
  86:dsp/audio_buffer.h ****         write_head_        = head;
  87:dsp/audio_buffer.h ****         crossfade_counter_ = 0;
  88:dsp/audio_buffer.h ****     }
ARM GAS  /tmp/ccmw9Hql.s 			page 3


  89:dsp/audio_buffer.h **** 
  90:dsp/audio_buffer.h ****     inline void Write(float in)
  91:dsp/audio_buffer.h ****     {
  92:dsp/audio_buffer.h ****         if(resolution == RESOLUTION_16_BIT)
  93:dsp/audio_buffer.h ****         {
  94:dsp/audio_buffer.h ****             s16_[write_head_] = Clip16(static_cast<int32_t>(in * 32768.0f));
  95:dsp/audio_buffer.h ****         }
  96:dsp/audio_buffer.h ****         else if(resolution == RESOLUTION_8_BIT_DITHERED)
  97:dsp/audio_buffer.h ****         {
  98:dsp/audio_buffer.h ****             float sample = in * 127.0f;
  99:dsp/audio_buffer.h ****             sample += quantization_error_;
 100:dsp/audio_buffer.h ****             int32_t quantized = static_cast<int32_t>(sample);
 101:dsp/audio_buffer.h ****             if(quantized < -127)
 102:dsp/audio_buffer.h ****                 quantized = -127;
 103:dsp/audio_buffer.h ****             else if(quantized > 127)
 104:dsp/audio_buffer.h ****                 quantized = 127;
 105:dsp/audio_buffer.h ****             quantization_error_ = sample - static_cast<float>(in);
 106:dsp/audio_buffer.h ****             s8_[write_head_]    = quantized;
 107:dsp/audio_buffer.h ****         }
 108:dsp/audio_buffer.h ****         else if(resolution == RESOLUTION_8_BIT_MU_LAW)
 109:dsp/audio_buffer.h ****         {
 110:dsp/audio_buffer.h ****             int16_t sample   = Clip16(static_cast<int32_t>(in * 32768.0f));
 111:dsp/audio_buffer.h ****             s8_[write_head_] = Lin2MuLaw(sample);
 112:dsp/audio_buffer.h ****         }
 113:dsp/audio_buffer.h ****         else
 114:dsp/audio_buffer.h ****         {
 115:dsp/audio_buffer.h ****             s8_[write_head_] = static_cast<int8_t>(Clip16(in * 32768.0f) >> 8);
 116:dsp/audio_buffer.h ****         }
 117:dsp/audio_buffer.h **** 
 118:dsp/audio_buffer.h ****         if(resolution == RESOLUTION_16_BIT)
 119:dsp/audio_buffer.h ****         {
 120:dsp/audio_buffer.h ****             if(write_head_ < kInterpolationTail)
 121:dsp/audio_buffer.h ****             {
 122:dsp/audio_buffer.h ****                 s16_[write_head_ + size_] = s16_[write_head_];
 123:dsp/audio_buffer.h ****             }
 124:dsp/audio_buffer.h ****         }
 125:dsp/audio_buffer.h ****         else
 126:dsp/audio_buffer.h ****         {
 127:dsp/audio_buffer.h ****             if(write_head_ < kInterpolationTail)
 128:dsp/audio_buffer.h ****             {
 129:dsp/audio_buffer.h ****                 s8_[write_head_ + size_] = s8_[write_head_];
 130:dsp/audio_buffer.h ****             }
 131:dsp/audio_buffer.h ****         }
 132:dsp/audio_buffer.h ****         ++write_head_;
 133:dsp/audio_buffer.h ****         if(write_head_ >= size_)
 134:dsp/audio_buffer.h ****         {
 135:dsp/audio_buffer.h ****             write_head_ = 0;
 136:dsp/audio_buffer.h ****         }
 137:dsp/audio_buffer.h ****     }
 138:dsp/audio_buffer.h **** 
 139:dsp/audio_buffer.h ****     inline void
 140:dsp/audio_buffer.h ****     WriteFade(const float* in, int32_t size, int32_t stride, bool write)
 141:dsp/audio_buffer.h ****     {
 142:dsp/audio_buffer.h ****         if(!write)
 143:dsp/audio_buffer.h ****         {
 144:dsp/audio_buffer.h ****             // Continue recording samples to have something to crossfade with
 145:dsp/audio_buffer.h ****             // when recording resumes.
ARM GAS  /tmp/ccmw9Hql.s 			page 4


 146:dsp/audio_buffer.h ****             if(crossfade_counter_ < kCrossFadeSize)
 147:dsp/audio_buffer.h ****             {
 148:dsp/audio_buffer.h ****                 while(size--)
 149:dsp/audio_buffer.h ****                 {
 150:dsp/audio_buffer.h ****                     if(crossfade_counter_ < kCrossFadeSize)
 151:dsp/audio_buffer.h ****                     {
 152:dsp/audio_buffer.h ****                         tail_[crossfade_counter_++]
 153:dsp/audio_buffer.h ****                             = Clip16(static_cast<int32_t>(*in * 32767.0f));
 154:dsp/audio_buffer.h ****                         in += stride;
 155:dsp/audio_buffer.h ****                     }
 156:dsp/audio_buffer.h ****                 }
 157:dsp/audio_buffer.h ****             }
 158:dsp/audio_buffer.h ****         }
 159:dsp/audio_buffer.h ****         else if(write && !crossfade_counter_ && resolution == RESOLUTION_16_BIT
 160:dsp/audio_buffer.h ****                 && write_head_ >= kInterpolationTail
 161:dsp/audio_buffer.h ****                 && write_head_ < (size_ - size))
 162:dsp/audio_buffer.h ****         {
 163:dsp/audio_buffer.h ****             // Fast write routine for the most common case.
 164:dsp/audio_buffer.h ****             while(size--)
 165:dsp/audio_buffer.h ****             {
 166:dsp/audio_buffer.h ****                 s16_[write_head_]
 167:dsp/audio_buffer.h ****                     = Clip16(static_cast<int32_t>(*in * 32767.0f));
 168:dsp/audio_buffer.h ****                 ++write_head_;
 169:dsp/audio_buffer.h ****                 in += stride;
 170:dsp/audio_buffer.h ****             }
 171:dsp/audio_buffer.h ****         }
 172:dsp/audio_buffer.h ****         else
 173:dsp/audio_buffer.h ****         {
 174:dsp/audio_buffer.h ****             while(size--)
 175:dsp/audio_buffer.h ****             {
 176:dsp/audio_buffer.h ****                 float sample = *in;
 177:dsp/audio_buffer.h ****                 if(crossfade_counter_)
 178:dsp/audio_buffer.h ****                 {
 179:dsp/audio_buffer.h ****                     --crossfade_counter_;
 180:dsp/audio_buffer.h ****                     float tail_sample
 181:dsp/audio_buffer.h ****                         = tail_[kCrossFadeSize - crossfade_counter_];
 182:dsp/audio_buffer.h ****                     float gain
 183:dsp/audio_buffer.h ****                         = crossfade_counter_ * (1.0f / float(kCrossFadeSize));
 184:dsp/audio_buffer.h ****                     sample += (tail_sample / 32768.0f - sample) * gain;
 185:dsp/audio_buffer.h ****                 }
 186:dsp/audio_buffer.h ****                 Write(sample);
 187:dsp/audio_buffer.h ****                 in += stride;
 188:dsp/audio_buffer.h ****             }
 189:dsp/audio_buffer.h ****         }
 190:dsp/audio_buffer.h ****     }
 191:dsp/audio_buffer.h **** 
 192:dsp/audio_buffer.h ****     inline void Write(const float* in, int32_t size, int32_t stride)
 193:dsp/audio_buffer.h ****     {
 194:dsp/audio_buffer.h ****         if(resolution == RESOLUTION_16_BIT && write_head_ >= kInterpolationTail
 195:dsp/audio_buffer.h ****            && write_head_ < (size_ - size))
 196:dsp/audio_buffer.h ****         {
 197:dsp/audio_buffer.h ****             // Fast write routine for the most common case.
 198:dsp/audio_buffer.h ****             while(size--)
 199:dsp/audio_buffer.h ****             {
 200:dsp/audio_buffer.h ****                 s16_[write_head_]
 201:dsp/audio_buffer.h ****                     = Clip16(static_cast<int32_t>(*in * 32768.0f));
 202:dsp/audio_buffer.h ****                 ++write_head_;
ARM GAS  /tmp/ccmw9Hql.s 			page 5


 203:dsp/audio_buffer.h ****                 in += stride;
 204:dsp/audio_buffer.h ****             }
 205:dsp/audio_buffer.h ****         }
 206:dsp/audio_buffer.h ****         else
 207:dsp/audio_buffer.h ****         {
 208:dsp/audio_buffer.h ****             while(size--)
 209:dsp/audio_buffer.h ****             {
 210:dsp/audio_buffer.h ****                 Write(*in);
 211:dsp/audio_buffer.h ****                 in += stride;
 212:dsp/audio_buffer.h ****             }
 213:dsp/audio_buffer.h ****         }
 214:dsp/audio_buffer.h ****     }
 215:dsp/audio_buffer.h **** 
 216:dsp/audio_buffer.h ****     template <InterpolationMethod method>
 217:dsp/audio_buffer.h ****     inline float Read(int32_t integral, uint16_t fractional) const
 218:dsp/audio_buffer.h ****     {
 219:dsp/audio_buffer.h ****         if(method == INTERPOLATION_ZOH)
 220:dsp/audio_buffer.h ****         {
 221:dsp/audio_buffer.h ****             return ReadZOH(integral, fractional);
 222:dsp/audio_buffer.h ****         }
 223:dsp/audio_buffer.h ****         else if(method == INTERPOLATION_LINEAR)
 224:dsp/audio_buffer.h ****         {
 225:dsp/audio_buffer.h ****             return ReadLinear(integral, fractional);
 226:dsp/audio_buffer.h ****         }
 227:dsp/audio_buffer.h ****         else if(method == INTERPOLATION_HERMITE)
 228:dsp/audio_buffer.h ****         {
 229:dsp/audio_buffer.h ****             return ReadHermite(integral, fractional);
 230:dsp/audio_buffer.h ****         }
 231:dsp/audio_buffer.h ****     }
 232:dsp/audio_buffer.h **** 
 233:dsp/audio_buffer.h ****     inline float ReadZOH(int32_t integral, uint16_t fractional) const
  28              		.loc 1 233 18 view -0
  29              		.cfi_startproc
  30              		@ args = 0, pretend = 0, frame = 0
  31              		@ frame_needed = 0, uses_anonymous_args = 0
  32              		@ link register save eliminated.
 234:dsp/audio_buffer.h ****     {
 235:dsp/audio_buffer.h ****         if(integral >= size_)
  33              		.loc 1 235 24 is_stmt 0 view .LVU1
  34 0000 0369     		ldr	r3, [r0, #16]
  35              		.loc 1 235 9 view .LVU2
  36 0002 8B42     		cmp	r3, r1
 236:dsp/audio_buffer.h ****         {
 237:dsp/audio_buffer.h ****             integral -= size_;
  37              		.loc 1 237 13 view .LVU3
  38 0004 D8BF     		it	le
  39 0006 C91A     		suble	r1, r1, r3
  40              	.LVL1:
  41              	.LBB663:
  42              	.LBI663:
  43              		.file 2 "dsp/mu_law.h"
   1:dsp/mu_law.h  **** // Copyright 2014 Emilie Gillet.
   2:dsp/mu_law.h  **** //
   3:dsp/mu_law.h  **** // Author: Emilie Gillet (emilie.o.gillet@gmail.com)
   4:dsp/mu_law.h  **** //
   5:dsp/mu_law.h  **** // Permission is hereby granted, free of charge, to any person obtaining a copy
   6:dsp/mu_law.h  **** // of this software and associated documentation files (the "Software"), to deal
ARM GAS  /tmp/ccmw9Hql.s 			page 6


   7:dsp/mu_law.h  **** // in the Software without restriction, including without limitation the rights
   8:dsp/mu_law.h  **** // to use, copy, modify, merge, publish, distribute, sublicense, and/or sell
   9:dsp/mu_law.h  **** // copies of the Software, and to permit persons to whom the Software is
  10:dsp/mu_law.h  **** // furnished to do so, subject to the following conditions:
  11:dsp/mu_law.h  **** //
  12:dsp/mu_law.h  **** // The above copyright notice and this permission notice shall be included in
  13:dsp/mu_law.h  **** // all copies or substantial portions of the Software.
  14:dsp/mu_law.h  **** //
  15:dsp/mu_law.h  **** // THE SOFTWARE IS PROVIDED "AS IS", WITHOUT WARRANTY OF ANY KIND, EXPRESS OR
  16:dsp/mu_law.h  **** // IMPLIED, INCLUDING BUT NOT LIMITED TO THE WARRANTIES OF MERCHANTABILITY,
  17:dsp/mu_law.h  **** // FITNESS FOR A PARTICULAR PURPOSE AND NONINFRINGEMENT. IN NO EVENT SHALL THE
  18:dsp/mu_law.h  **** // AUTHORS OR COPYRIGHT HOLDERS BE LIABLE FOR ANY CLAIM, DAMAGES OR OTHER
  19:dsp/mu_law.h  **** // LIABILITY, WHETHER IN AN ACTION OF CONTRACT, TORT OR OTHERWISE, ARISING FROM,
  20:dsp/mu_law.h  **** // OUT OF OR IN CONNECTION WITH THE SOFTWARE OR THE USE OR OTHER DEALINGS IN
  21:dsp/mu_law.h  **** // THE SOFTWARE.
  22:dsp/mu_law.h  **** //
  23:dsp/mu_law.h  **** // See http://creativecommons.org/licenses/MIT/ for more information.
  24:dsp/mu_law.h  **** //
  25:dsp/mu_law.h  **** // -----------------------------------------------------------------------------
  26:dsp/mu_law.h  **** //
  27:dsp/mu_law.h  **** // Mu-law encoding.
  28:dsp/mu_law.h  **** 
  29:dsp/mu_law.h  **** #ifndef CLOUDS_DSP_MU_LAW_H_
  30:dsp/mu_law.h  **** #define CLOUDS_DSP_MU_LAW_H_
  31:dsp/mu_law.h  **** 
  32:dsp/mu_law.h  **** #include "daisy.h"
  33:dsp/mu_law.h  **** #include <stdint.h>
  34:dsp/mu_law.h  **** #include "resources.h"
  35:dsp/mu_law.h  **** 
  36:dsp/mu_law.h  **** using namespace daisy;
  37:dsp/mu_law.h  **** 
  38:dsp/mu_law.h  **** //lut_ulaw moved to resources.h
  39:dsp/mu_law.h  **** inline short MuLaw2Lin(uint8_t u_val)
  44              		.loc 2 39 14 is_stmt 1 view .LVU4
  45              	.LBB664:
  40:dsp/mu_law.h  **** {
  41:dsp/mu_law.h  ****     return lut_ulaw[u_val];
  46              		.loc 2 41 5 view .LVU5
  47              		.loc 2 41 5 is_stmt 0 view .LVU6
  48              	.LBE664:
  49              	.LBE663:
 238:dsp/audio_buffer.h ****         }
 239:dsp/audio_buffer.h **** 
 240:dsp/audio_buffer.h ****         float x0, scale;
 241:dsp/audio_buffer.h ****         if(resolution == RESOLUTION_16_BIT)
 242:dsp/audio_buffer.h ****         {
 243:dsp/audio_buffer.h ****             x0    = s16_[integral];
 244:dsp/audio_buffer.h ****             scale = 1.0f / 32768.0f;
 245:dsp/audio_buffer.h ****         }
 246:dsp/audio_buffer.h ****         else if(resolution == RESOLUTION_8_BIT_MU_LAW)
 247:dsp/audio_buffer.h ****         {
 248:dsp/audio_buffer.h ****             x0    = MuLaw2Lin(s8_[integral]);
  50              		.loc 1 248 30 view .LVU7
  51 0008 4368     		ldr	r3, [r0, #4]
  52              	.LBB666:
  53              	.LBB665:
  54              		.loc 2 41 21 view .LVU8
ARM GAS  /tmp/ccmw9Hql.s 			page 7


  55 000a 5A5C     		ldrb	r2, [r3, r1]	@ zero_extendqisi2
  56              	.LBE665:
  57              	.LBE666:
  58              		.loc 1 248 13 view .LVU9
  59 000c 034B     		ldr	r3, .L3
  60 000e 33F91230 		ldrsh	r3, [r3, r2, lsl #1]
  61 0012 00EE103A 		vmov	s0, r3	@ int
 249:dsp/audio_buffer.h ****             scale = 1.0f / 32768.0f;
 250:dsp/audio_buffer.h ****         }
 251:dsp/audio_buffer.h ****         else
 252:dsp/audio_buffer.h ****         {
 253:dsp/audio_buffer.h ****             x0    = s8_[integral];
 254:dsp/audio_buffer.h ****             scale = 1.0f / 128.0f;
 255:dsp/audio_buffer.h ****         }
 256:dsp/audio_buffer.h ****         return x0 * scale;
 257:dsp/audio_buffer.h ****     }
  62              		.loc 1 257 5 view .LVU10
  63 0016 BAEEE80A 		vcvt.f32.s32	s0, s0, #15
  64 001a 7047     		bx	lr
  65              	.L4:
  66              		.align	2
  67              	.L3:
  68 001c 00000000 		.word	lut_ulaw
  69              		.cfi_endproc
  70              	.LFE5425:
  72              		.section	.text._ZNK11AudioBufferIL10Resolution0EE7ReadZOHElt.isra.0,"axG",%progbits,_ZN20GranularS
  73              		.align	1
  74              		.syntax unified
  75              		.thumb
  76              		.thumb_func
  77              		.fpu fpv5-d16
  79              	_ZNK11AudioBufferIL10Resolution0EE7ReadZOHElt.isra.0:
  80              	.LVL2:
  81              	.LFB5427:
 233:dsp/audio_buffer.h ****     {
  82              		.loc 1 233 18 is_stmt 1 view -0
  83              		.cfi_startproc
  84              		@ args = 0, pretend = 0, frame = 0
  85              		@ frame_needed = 0, uses_anonymous_args = 0
  86              		@ link register save eliminated.
 235:dsp/audio_buffer.h ****         {
  87              		.loc 1 235 24 is_stmt 0 view .LVU12
  88 0000 0369     		ldr	r3, [r0, #16]
 235:dsp/audio_buffer.h ****         {
  89              		.loc 1 235 9 view .LVU13
  90 0002 8B42     		cmp	r3, r1
 237:dsp/audio_buffer.h ****         }
  91              		.loc 1 237 13 view .LVU14
  92 0004 D8BF     		it	le
  93 0006 C91A     		suble	r1, r1, r3
  94              	.LVL3:
 243:dsp/audio_buffer.h ****             scale = 1.0f / 32768.0f;
  95              		.loc 1 243 19 view .LVU15
  96 0008 0368     		ldr	r3, [r0]
 243:dsp/audio_buffer.h ****             scale = 1.0f / 32768.0f;
  97              		.loc 1 243 13 view .LVU16
  98 000a 33F91130 		ldrsh	r3, [r3, r1, lsl #1]
ARM GAS  /tmp/ccmw9Hql.s 			page 8


  99 000e 00EE103A 		vmov	s0, r3	@ int
 100              		.loc 1 257 5 view .LVU17
 101 0012 BAEEE80A 		vcvt.f32.s32	s0, s0, #15
 102 0016 7047     		bx	lr
 103              		.cfi_endproc
 104              	.LFE5427:
 106              		.section	.text._ZN16CosineOscillator4NextEv,"axG",%progbits,_ZN16CosineOscillator4NextEv,comdat
 107              		.align	1
 108              		.weak	_ZN16CosineOscillator4NextEv
 109              		.syntax unified
 110              		.thumb
 111              		.thumb_func
 112              		.fpu fpv5-d16
 114              	_ZN16CosineOscillator4NextEv:
 115              	.LVL4:
 116              	.LFB4222:
 117              		.file 3 "./stmtemp.h"
   1:./stmtemp.h   **** #include "daisy.h"
   2:./stmtemp.h   **** #include "daisysp.h"
   3:./stmtemp.h   **** #include "resources.h"
   4:./stmtemp.h   **** 
   5:./stmtemp.h   **** using namespace daisy;
   6:./stmtemp.h   **** using namespace daisysp;
   7:./stmtemp.h   **** 
   8:./stmtemp.h   **** #define MAKE_INTEGRAL_FRACTIONAL(x)                   \
   9:./stmtemp.h   ****     int32_t x##_integral   = static_cast<int32_t>(x); \
  10:./stmtemp.h   ****     float   x##_fractional = x - static_cast<float>(x##_integral);
  11:./stmtemp.h   **** 
  12:./stmtemp.h   **** #define SLOPE(out, in, positive, negative)                \
  13:./stmtemp.h   ****     {                                                     \
  14:./stmtemp.h   ****         float error = (in)-out;                           \
  15:./stmtemp.h   ****         out += (error > 0 ? positive : negative) * error; \
  16:./stmtemp.h   ****     }
  17:./stmtemp.h   **** 
  18:./stmtemp.h   **** #define ONE_POLE(out, in, coefficient) out += (coefficient) * ((in)-out);
  19:./stmtemp.h   **** 
  20:./stmtemp.h   **** #define CONSTRAIN(var, min, max) \
  21:./stmtemp.h   ****     if(var < (min))              \
  22:./stmtemp.h   ****     {                            \
  23:./stmtemp.h   ****         var = (min);             \
  24:./stmtemp.h   ****     }                            \
  25:./stmtemp.h   ****     else if(var > (max))         \
  26:./stmtemp.h   ****     {                            \
  27:./stmtemp.h   ****         var = (max);             \
  28:./stmtemp.h   ****     }
  29:./stmtemp.h   **** 
  30:./stmtemp.h   **** #define JOIN(lhs, rhs) JOIN_1(lhs, rhs)
  31:./stmtemp.h   **** #define JOIN_1(lhs, rhs) JOIN_2(lhs, rhs)
  32:./stmtemp.h   **** #define JOIN_2(lhs, rhs) lhs##rhs
  33:./stmtemp.h   **** 
  34:./stmtemp.h   **** #define STATIC_ASSERT(expression, message)                                  \
  35:./stmtemp.h   ****     struct JOIN(__static_assertion_at_line_, __LINE__)                      \
  36:./stmtemp.h   ****     {                                                                       \
  37:./stmtemp.h   ****         impl::StaticAssertion<static_cast<bool>((expression))>              \
  38:./stmtemp.h   ****             JOIN(JOIN(JOIN(STATIC_ASSERTION_FAILED_AT_LINE_, __LINE__), _), \
  39:./stmtemp.h   ****                  message);                                                  \
  40:./stmtemp.h   ****     };
ARM GAS  /tmp/ccmw9Hql.s 			page 9


  41:./stmtemp.h   **** 
  42:./stmtemp.h   **** namespace impl
  43:./stmtemp.h   **** {
  44:./stmtemp.h   **** template <bool>
  45:./stmtemp.h   **** struct StaticAssertion;
  46:./stmtemp.h   **** 
  47:./stmtemp.h   **** template <>
  48:./stmtemp.h   **** struct StaticAssertion<true>
  49:./stmtemp.h   **** {
  50:./stmtemp.h   **** }; // StaticAssertion<true>
  51:./stmtemp.h   **** 
  52:./stmtemp.h   **** template <int i>
  53:./stmtemp.h   **** struct StaticAssertionTest
  54:./stmtemp.h   **** {
  55:./stmtemp.h   **** }; // StaticAssertionTest<int>
  56:./stmtemp.h   **** 
  57:./stmtemp.h   **** } // namespace impl
  58:./stmtemp.h   **** 
  59:./stmtemp.h   **** template <uint32_t a, uint32_t b, uint32_t c, uint32_t d>
  60:./stmtemp.h   **** struct FourCC
  61:./stmtemp.h   **** {
  62:./stmtemp.h   ****     static const uint32_t value = (((((d << 8) | c) << 8) | b) << 8) | a;
  63:./stmtemp.h   **** };
  64:./stmtemp.h   **** 
  65:./stmtemp.h   **** class CosineOscillator
  66:./stmtemp.h   **** {
  67:./stmtemp.h   ****   public:
  68:./stmtemp.h   ****     CosineOscillator() {}
  69:./stmtemp.h   ****     ~CosineOscillator() {}
  70:./stmtemp.h   **** 
  71:./stmtemp.h   ****     void Init(float freq)
  72:./stmtemp.h   ****     {
  73:./stmtemp.h   ****         float sample_rate = 48000; //hardcoded for now
  74:./stmtemp.h   ****         phs_inc_          = freq / sample_rate;
  75:./stmtemp.h   ****     }
  76:./stmtemp.h   **** 
  77:./stmtemp.h   ****     float Next()
 118              		.loc 3 77 11 is_stmt 1 view -0
 119              		.cfi_startproc
 120              		@ args = 0, pretend = 0, frame = 0
 121              		@ frame_needed = 0, uses_anonymous_args = 0
  78:./stmtemp.h   ****     {
  79:./stmtemp.h   ****         phs_ += phs_inc_;
 122              		.loc 3 79 9 view .LVU19
 123              		.loc 3 79 14 is_stmt 0 view .LVU20
 124 0000 D0ED027A 		vldr.32	s15, [r0, #8]
 125 0004 90ED037A 		vldr.32	s14, [r0, #12]
 126 0008 77EE877A 		vadd.f32	s15, s15, s14
  80:./stmtemp.h   **** 
  81:./stmtemp.h   ****         if(phs_ >= 1.f)
 127              		.loc 3 81 9 is_stmt 1 view .LVU21
 128 000c B7EE007A 		vmov.f32	s14, #1.0e+0
  77:./stmtemp.h   ****     {
 129              		.loc 3 77 11 is_stmt 0 view .LVU22
 130 0010 10B5     		push	{r4, lr}
 131              		.cfi_def_cfa_offset 8
 132              		.cfi_offset 4, -8
ARM GAS  /tmp/ccmw9Hql.s 			page 10


 133              		.cfi_offset 14, -4
 134              		.loc 3 81 9 view .LVU23
 135 0012 F4EEC77A 		vcmpe.f32	s15, s14
  77:./stmtemp.h   ****     {
 136              		.loc 3 77 11 view .LVU24
 137 0016 0446     		mov	r4, r0
 138              		.loc 3 81 9 view .LVU25
 139 0018 F1EE10FA 		vmrs	APSR_nzcv, FPSCR
  82:./stmtemp.h   ****         {
  83:./stmtemp.h   ****             phs_ -= 1.f;
 140              		.loc 3 83 13 is_stmt 1 view .LVU26
 141              		.loc 3 83 18 is_stmt 0 view .LVU27
 142 001c A8BF     		it	ge
 143 001e 77EEC77A 		vsubge.f32	s15, s15, s14
 144 0022 C0ED027A 		vstr.32	s15, [r0, #8]
  84:./stmtemp.h   ****         }
  85:./stmtemp.h   **** 
  86:./stmtemp.h   ****         value_ = cos(phs_);
 145              		.loc 3 86 9 is_stmt 1 view .LVU28
 146              	.LVL5:
 147              	.LBB667:
 148              	.LBI667:
 149              		.file 4 "/usr/include/newlib/c++/9.2.1/cmath"
   1:/usr/include/newlib/c++/9.2.1/cmath **** // -*- C++ -*- C forwarding header.
   2:/usr/include/newlib/c++/9.2.1/cmath **** 
   3:/usr/include/newlib/c++/9.2.1/cmath **** // Copyright (C) 1997-2019 Free Software Foundation, Inc.
   4:/usr/include/newlib/c++/9.2.1/cmath **** //
   5:/usr/include/newlib/c++/9.2.1/cmath **** // This file is part of the GNU ISO C++ Library.  This library is free
   6:/usr/include/newlib/c++/9.2.1/cmath **** // software; you can redistribute it and/or modify it under the
   7:/usr/include/newlib/c++/9.2.1/cmath **** // terms of the GNU General Public License as published by the
   8:/usr/include/newlib/c++/9.2.1/cmath **** // Free Software Foundation; either version 3, or (at your option)
   9:/usr/include/newlib/c++/9.2.1/cmath **** // any later version.
  10:/usr/include/newlib/c++/9.2.1/cmath **** 
  11:/usr/include/newlib/c++/9.2.1/cmath **** // This library is distributed in the hope that it will be useful,
  12:/usr/include/newlib/c++/9.2.1/cmath **** // but WITHOUT ANY WARRANTY; without even the implied warranty of
  13:/usr/include/newlib/c++/9.2.1/cmath **** // MERCHANTABILITY or FITNESS FOR A PARTICULAR PURPOSE.  See the
  14:/usr/include/newlib/c++/9.2.1/cmath **** // GNU General Public License for more details.
  15:/usr/include/newlib/c++/9.2.1/cmath **** 
  16:/usr/include/newlib/c++/9.2.1/cmath **** // Under Section 7 of GPL version 3, you are granted additional
  17:/usr/include/newlib/c++/9.2.1/cmath **** // permissions described in the GCC Runtime Library Exception, version
  18:/usr/include/newlib/c++/9.2.1/cmath **** // 3.1, as published by the Free Software Foundation.
  19:/usr/include/newlib/c++/9.2.1/cmath **** 
  20:/usr/include/newlib/c++/9.2.1/cmath **** // You should have received a copy of the GNU General Public License and
  21:/usr/include/newlib/c++/9.2.1/cmath **** // a copy of the GCC Runtime Library Exception along with this program;
  22:/usr/include/newlib/c++/9.2.1/cmath **** // see the files COPYING3 and COPYING.RUNTIME respectively.  If not, see
  23:/usr/include/newlib/c++/9.2.1/cmath **** // <http://www.gnu.org/licenses/>.
  24:/usr/include/newlib/c++/9.2.1/cmath **** 
  25:/usr/include/newlib/c++/9.2.1/cmath **** /** @file include/cmath
  26:/usr/include/newlib/c++/9.2.1/cmath ****  *  This is a Standard C++ Library file.  You should @c \#include this file
  27:/usr/include/newlib/c++/9.2.1/cmath ****  *  in your programs, rather than any of the @a *.h implementation files.
  28:/usr/include/newlib/c++/9.2.1/cmath ****  *
  29:/usr/include/newlib/c++/9.2.1/cmath ****  *  This is the C++ version of the Standard C Library header @c math.h,
  30:/usr/include/newlib/c++/9.2.1/cmath ****  *  and its contents are (mostly) the same as that header, but are all
  31:/usr/include/newlib/c++/9.2.1/cmath ****  *  contained in the namespace @c std (except for names which are defined
  32:/usr/include/newlib/c++/9.2.1/cmath ****  *  as macros in C).
  33:/usr/include/newlib/c++/9.2.1/cmath ****  */
  34:/usr/include/newlib/c++/9.2.1/cmath **** 
ARM GAS  /tmp/ccmw9Hql.s 			page 11


  35:/usr/include/newlib/c++/9.2.1/cmath **** //
  36:/usr/include/newlib/c++/9.2.1/cmath **** // ISO C++ 14882: 26.5  C library
  37:/usr/include/newlib/c++/9.2.1/cmath **** //
  38:/usr/include/newlib/c++/9.2.1/cmath **** 
  39:/usr/include/newlib/c++/9.2.1/cmath **** #pragma GCC system_header
  40:/usr/include/newlib/c++/9.2.1/cmath **** 
  41:/usr/include/newlib/c++/9.2.1/cmath **** #include <bits/c++config.h>
  42:/usr/include/newlib/c++/9.2.1/cmath **** #include <bits/cpp_type_traits.h>
  43:/usr/include/newlib/c++/9.2.1/cmath **** #include <ext/type_traits.h>
  44:/usr/include/newlib/c++/9.2.1/cmath **** #define _GLIBCXX_INCLUDE_NEXT_C_HEADERS
  45:/usr/include/newlib/c++/9.2.1/cmath **** #include_next <math.h>
  46:/usr/include/newlib/c++/9.2.1/cmath **** #undef _GLIBCXX_INCLUDE_NEXT_C_HEADERS
  47:/usr/include/newlib/c++/9.2.1/cmath **** #include <bits/std_abs.h>
  48:/usr/include/newlib/c++/9.2.1/cmath **** 
  49:/usr/include/newlib/c++/9.2.1/cmath **** #ifndef _GLIBCXX_CMATH
  50:/usr/include/newlib/c++/9.2.1/cmath **** #define _GLIBCXX_CMATH 1
  51:/usr/include/newlib/c++/9.2.1/cmath **** 
  52:/usr/include/newlib/c++/9.2.1/cmath **** // Get rid of those macros defined in <math.h> in lieu of real functions.
  53:/usr/include/newlib/c++/9.2.1/cmath **** #undef div
  54:/usr/include/newlib/c++/9.2.1/cmath **** #undef acos
  55:/usr/include/newlib/c++/9.2.1/cmath **** #undef asin
  56:/usr/include/newlib/c++/9.2.1/cmath **** #undef atan
  57:/usr/include/newlib/c++/9.2.1/cmath **** #undef atan2
  58:/usr/include/newlib/c++/9.2.1/cmath **** #undef ceil
  59:/usr/include/newlib/c++/9.2.1/cmath **** #undef cos
  60:/usr/include/newlib/c++/9.2.1/cmath **** #undef cosh
  61:/usr/include/newlib/c++/9.2.1/cmath **** #undef exp
  62:/usr/include/newlib/c++/9.2.1/cmath **** #undef fabs
  63:/usr/include/newlib/c++/9.2.1/cmath **** #undef floor
  64:/usr/include/newlib/c++/9.2.1/cmath **** #undef fmod
  65:/usr/include/newlib/c++/9.2.1/cmath **** #undef frexp
  66:/usr/include/newlib/c++/9.2.1/cmath **** #undef ldexp
  67:/usr/include/newlib/c++/9.2.1/cmath **** #undef log
  68:/usr/include/newlib/c++/9.2.1/cmath **** #undef log10
  69:/usr/include/newlib/c++/9.2.1/cmath **** #undef modf
  70:/usr/include/newlib/c++/9.2.1/cmath **** #undef pow
  71:/usr/include/newlib/c++/9.2.1/cmath **** #undef sin
  72:/usr/include/newlib/c++/9.2.1/cmath **** #undef sinh
  73:/usr/include/newlib/c++/9.2.1/cmath **** #undef sqrt
  74:/usr/include/newlib/c++/9.2.1/cmath **** #undef tan
  75:/usr/include/newlib/c++/9.2.1/cmath **** #undef tanh
  76:/usr/include/newlib/c++/9.2.1/cmath **** 
  77:/usr/include/newlib/c++/9.2.1/cmath **** extern "C++"
  78:/usr/include/newlib/c++/9.2.1/cmath **** {
  79:/usr/include/newlib/c++/9.2.1/cmath **** namespace std _GLIBCXX_VISIBILITY(default)
  80:/usr/include/newlib/c++/9.2.1/cmath **** {
  81:/usr/include/newlib/c++/9.2.1/cmath **** _GLIBCXX_BEGIN_NAMESPACE_VERSION
  82:/usr/include/newlib/c++/9.2.1/cmath **** 
  83:/usr/include/newlib/c++/9.2.1/cmath ****   using ::acos;
  84:/usr/include/newlib/c++/9.2.1/cmath **** 
  85:/usr/include/newlib/c++/9.2.1/cmath **** #ifndef __CORRECT_ISO_CPP_MATH_H_PROTO
  86:/usr/include/newlib/c++/9.2.1/cmath ****   inline _GLIBCXX_CONSTEXPR float
  87:/usr/include/newlib/c++/9.2.1/cmath ****   acos(float __x)
  88:/usr/include/newlib/c++/9.2.1/cmath ****   { return __builtin_acosf(__x); }
  89:/usr/include/newlib/c++/9.2.1/cmath **** 
  90:/usr/include/newlib/c++/9.2.1/cmath ****   inline _GLIBCXX_CONSTEXPR long double
  91:/usr/include/newlib/c++/9.2.1/cmath ****   acos(long double __x)
ARM GAS  /tmp/ccmw9Hql.s 			page 12


  92:/usr/include/newlib/c++/9.2.1/cmath ****   { return __builtin_acosl(__x); }
  93:/usr/include/newlib/c++/9.2.1/cmath **** #endif
  94:/usr/include/newlib/c++/9.2.1/cmath **** 
  95:/usr/include/newlib/c++/9.2.1/cmath ****   template<typename _Tp>
  96:/usr/include/newlib/c++/9.2.1/cmath ****     inline _GLIBCXX_CONSTEXPR
  97:/usr/include/newlib/c++/9.2.1/cmath ****     typename __gnu_cxx::__enable_if<__is_integer<_Tp>::__value, 
  98:/usr/include/newlib/c++/9.2.1/cmath ****                                     double>::__type
  99:/usr/include/newlib/c++/9.2.1/cmath ****     acos(_Tp __x)
 100:/usr/include/newlib/c++/9.2.1/cmath ****     { return __builtin_acos(__x); }
 101:/usr/include/newlib/c++/9.2.1/cmath **** 
 102:/usr/include/newlib/c++/9.2.1/cmath ****   using ::asin;
 103:/usr/include/newlib/c++/9.2.1/cmath **** 
 104:/usr/include/newlib/c++/9.2.1/cmath **** #ifndef __CORRECT_ISO_CPP_MATH_H_PROTO
 105:/usr/include/newlib/c++/9.2.1/cmath ****   inline _GLIBCXX_CONSTEXPR float
 106:/usr/include/newlib/c++/9.2.1/cmath ****   asin(float __x)
 107:/usr/include/newlib/c++/9.2.1/cmath ****   { return __builtin_asinf(__x); }
 108:/usr/include/newlib/c++/9.2.1/cmath **** 
 109:/usr/include/newlib/c++/9.2.1/cmath ****   inline _GLIBCXX_CONSTEXPR long double
 110:/usr/include/newlib/c++/9.2.1/cmath ****   asin(long double __x)
 111:/usr/include/newlib/c++/9.2.1/cmath ****   { return __builtin_asinl(__x); }
 112:/usr/include/newlib/c++/9.2.1/cmath **** #endif
 113:/usr/include/newlib/c++/9.2.1/cmath **** 
 114:/usr/include/newlib/c++/9.2.1/cmath ****   template<typename _Tp>
 115:/usr/include/newlib/c++/9.2.1/cmath ****     inline _GLIBCXX_CONSTEXPR
 116:/usr/include/newlib/c++/9.2.1/cmath ****     typename __gnu_cxx::__enable_if<__is_integer<_Tp>::__value,
 117:/usr/include/newlib/c++/9.2.1/cmath ****                                     double>::__type
 118:/usr/include/newlib/c++/9.2.1/cmath ****     asin(_Tp __x)
 119:/usr/include/newlib/c++/9.2.1/cmath ****     { return __builtin_asin(__x); }
 120:/usr/include/newlib/c++/9.2.1/cmath **** 
 121:/usr/include/newlib/c++/9.2.1/cmath ****   using ::atan;
 122:/usr/include/newlib/c++/9.2.1/cmath **** 
 123:/usr/include/newlib/c++/9.2.1/cmath **** #ifndef __CORRECT_ISO_CPP_MATH_H_PROTO
 124:/usr/include/newlib/c++/9.2.1/cmath ****   inline _GLIBCXX_CONSTEXPR float
 125:/usr/include/newlib/c++/9.2.1/cmath ****   atan(float __x)
 126:/usr/include/newlib/c++/9.2.1/cmath ****   { return __builtin_atanf(__x); }
 127:/usr/include/newlib/c++/9.2.1/cmath **** 
 128:/usr/include/newlib/c++/9.2.1/cmath ****   inline _GLIBCXX_CONSTEXPR long double
 129:/usr/include/newlib/c++/9.2.1/cmath ****   atan(long double __x)
 130:/usr/include/newlib/c++/9.2.1/cmath ****   { return __builtin_atanl(__x); }
 131:/usr/include/newlib/c++/9.2.1/cmath **** #endif
 132:/usr/include/newlib/c++/9.2.1/cmath **** 
 133:/usr/include/newlib/c++/9.2.1/cmath ****   template<typename _Tp>
 134:/usr/include/newlib/c++/9.2.1/cmath ****     inline _GLIBCXX_CONSTEXPR
 135:/usr/include/newlib/c++/9.2.1/cmath ****     typename __gnu_cxx::__enable_if<__is_integer<_Tp>::__value,
 136:/usr/include/newlib/c++/9.2.1/cmath ****                                     double>::__type
 137:/usr/include/newlib/c++/9.2.1/cmath ****     atan(_Tp __x)
 138:/usr/include/newlib/c++/9.2.1/cmath ****     { return __builtin_atan(__x); }
 139:/usr/include/newlib/c++/9.2.1/cmath **** 
 140:/usr/include/newlib/c++/9.2.1/cmath ****   using ::atan2;
 141:/usr/include/newlib/c++/9.2.1/cmath **** 
 142:/usr/include/newlib/c++/9.2.1/cmath **** #ifndef __CORRECT_ISO_CPP_MATH_H_PROTO
 143:/usr/include/newlib/c++/9.2.1/cmath ****   inline _GLIBCXX_CONSTEXPR float
 144:/usr/include/newlib/c++/9.2.1/cmath ****   atan2(float __y, float __x)
 145:/usr/include/newlib/c++/9.2.1/cmath ****   { return __builtin_atan2f(__y, __x); }
 146:/usr/include/newlib/c++/9.2.1/cmath **** 
 147:/usr/include/newlib/c++/9.2.1/cmath ****   inline _GLIBCXX_CONSTEXPR long double
 148:/usr/include/newlib/c++/9.2.1/cmath ****   atan2(long double __y, long double __x)
ARM GAS  /tmp/ccmw9Hql.s 			page 13


 149:/usr/include/newlib/c++/9.2.1/cmath ****   { return __builtin_atan2l(__y, __x); }
 150:/usr/include/newlib/c++/9.2.1/cmath **** #endif
 151:/usr/include/newlib/c++/9.2.1/cmath **** 
 152:/usr/include/newlib/c++/9.2.1/cmath ****   template<typename _Tp, typename _Up>
 153:/usr/include/newlib/c++/9.2.1/cmath ****     inline _GLIBCXX_CONSTEXPR
 154:/usr/include/newlib/c++/9.2.1/cmath ****     typename __gnu_cxx::__promote_2<_Tp, _Up>::__type
 155:/usr/include/newlib/c++/9.2.1/cmath ****     atan2(_Tp __y, _Up __x)
 156:/usr/include/newlib/c++/9.2.1/cmath ****     {
 157:/usr/include/newlib/c++/9.2.1/cmath ****       typedef typename __gnu_cxx::__promote_2<_Tp, _Up>::__type __type;
 158:/usr/include/newlib/c++/9.2.1/cmath ****       return atan2(__type(__y), __type(__x));
 159:/usr/include/newlib/c++/9.2.1/cmath ****     }
 160:/usr/include/newlib/c++/9.2.1/cmath **** 
 161:/usr/include/newlib/c++/9.2.1/cmath ****   using ::ceil;
 162:/usr/include/newlib/c++/9.2.1/cmath **** 
 163:/usr/include/newlib/c++/9.2.1/cmath **** #ifndef __CORRECT_ISO_CPP_MATH_H_PROTO
 164:/usr/include/newlib/c++/9.2.1/cmath ****   inline _GLIBCXX_CONSTEXPR float
 165:/usr/include/newlib/c++/9.2.1/cmath ****   ceil(float __x)
 166:/usr/include/newlib/c++/9.2.1/cmath ****   { return __builtin_ceilf(__x); }
 167:/usr/include/newlib/c++/9.2.1/cmath **** 
 168:/usr/include/newlib/c++/9.2.1/cmath ****   inline _GLIBCXX_CONSTEXPR long double
 169:/usr/include/newlib/c++/9.2.1/cmath ****   ceil(long double __x)
 170:/usr/include/newlib/c++/9.2.1/cmath ****   { return __builtin_ceill(__x); }
 171:/usr/include/newlib/c++/9.2.1/cmath **** #endif
 172:/usr/include/newlib/c++/9.2.1/cmath **** 
 173:/usr/include/newlib/c++/9.2.1/cmath ****   template<typename _Tp>
 174:/usr/include/newlib/c++/9.2.1/cmath ****     inline _GLIBCXX_CONSTEXPR
 175:/usr/include/newlib/c++/9.2.1/cmath ****     typename __gnu_cxx::__enable_if<__is_integer<_Tp>::__value, 
 176:/usr/include/newlib/c++/9.2.1/cmath ****                                     double>::__type
 177:/usr/include/newlib/c++/9.2.1/cmath ****     ceil(_Tp __x)
 178:/usr/include/newlib/c++/9.2.1/cmath ****     { return __builtin_ceil(__x); }
 179:/usr/include/newlib/c++/9.2.1/cmath **** 
 180:/usr/include/newlib/c++/9.2.1/cmath ****   using ::cos;
 181:/usr/include/newlib/c++/9.2.1/cmath **** 
 182:/usr/include/newlib/c++/9.2.1/cmath **** #ifndef __CORRECT_ISO_CPP_MATH_H_PROTO
 183:/usr/include/newlib/c++/9.2.1/cmath ****   inline _GLIBCXX_CONSTEXPR float
 184:/usr/include/newlib/c++/9.2.1/cmath ****   cos(float __x)
 150              		.loc 4 184 3 view .LVU29
 151              	.LBB668:
 185:/usr/include/newlib/c++/9.2.1/cmath ****   { return __builtin_cosf(__x); }
 152              		.loc 4 185 5 view .LVU30
 153              		.loc 4 185 26 is_stmt 0 view .LVU31
 154 0026 90ED020A 		vldr.32	s0, [r0, #8]
 155 002a FFF7FEFF 		bl	cosf
 156              	.LVL6:
 157              		.loc 4 185 26 view .LVU32
 158              	.LBE668:
 159              	.LBE667:
 160              		.loc 3 86 16 view .LVU33
 161 002e 84ED000A 		vstr.32	s0, [r4]
  87:./stmtemp.h   **** 
  88:./stmtemp.h   ****         return value_;
 162              		.loc 3 88 9 is_stmt 1 view .LVU34
  89:./stmtemp.h   ****     }
 163              		.loc 3 89 5 is_stmt 0 view .LVU35
 164 0032 10BD     		pop	{r4, pc}
 165              		.loc 3 89 5 view .LVU36
 166              		.cfi_endproc
ARM GAS  /tmp/ccmw9Hql.s 			page 14


 167              	.LFE4222:
 169              		.section	.text._Z6Clip16l,"axG",%progbits,_Z6Clip16l,comdat
 170              		.align	1
 171              		.weak	_Z6Clip16l
 172              		.syntax unified
 173              		.thumb
 174              		.thumb_func
 175              		.fpu fpv5-d16
 177              	_Z6Clip16l:
 178              	.LVL7:
 179              	.LFB4224:
  90:./stmtemp.h   **** 
  91:./stmtemp.h   ****     float value() { return value_; }
  92:./stmtemp.h   **** 
  93:./stmtemp.h   ****   private:
  94:./stmtemp.h   ****     float value_ = 0.f;
  95:./stmtemp.h   ****     float sample_rate_;
  96:./stmtemp.h   ****     float phs_ = 0.f;
  97:./stmtemp.h   ****     float phs_inc_;
  98:./stmtemp.h   **** };
  99:./stmtemp.h   **** 
 100:./stmtemp.h   **** inline int32_t Clip16(int32_t x)
 101:./stmtemp.h   **** {
 180              		.loc 3 101 1 is_stmt 1 view -0
 181              		.cfi_startproc
 182              		@ args = 0, pretend = 0, frame = 0
 183              		@ frame_needed = 0, uses_anonymous_args = 0
 184              		@ link register save eliminated.
 102:./stmtemp.h   ****     if(x < -32768)
 185              		.loc 3 102 5 view .LVU38
 103:./stmtemp.h   ****     {
 104:./stmtemp.h   ****         return -32768;
 105:./stmtemp.h   ****     }
 106:./stmtemp.h   ****     else if(x > 32767)
 107:./stmtemp.h   ****     {
 108:./stmtemp.h   ****         return 32767;
 109:./stmtemp.h   ****     }
 110:./stmtemp.h   ****     else
 111:./stmtemp.h   ****     {
 112:./stmtemp.h   ****         return x;
 113:./stmtemp.h   ****     }
 114:./stmtemp.h   **** }
 186              		.loc 3 114 1 is_stmt 0 view .LVU39
 187 0000 00F30F00 		ssat	r0, #16, r0
 188              	.LVL8:
 189              		.loc 3 114 1 view .LVU40
 190 0004 7047     		bx	lr
 191              		.cfi_endproc
 192              	.LFE4224:
 194              		.section	.text._Z11InterpolatePKfff,"axG",%progbits,_Z11InterpolatePKfff,comdat
 195              		.align	1
 196              		.weak	_Z11InterpolatePKfff
 197              		.syntax unified
 198              		.thumb
 199              		.thumb_func
 200              		.fpu fpv5-d16
 202              	_Z11InterpolatePKfff:
ARM GAS  /tmp/ccmw9Hql.s 			page 15


 203              	.LVL9:
 204              	.LFB4225:
 115:./stmtemp.h   **** 
 116:./stmtemp.h   **** inline float Interpolate(const float* table, float index, float size)
 117:./stmtemp.h   **** {
 205              		.loc 3 117 1 is_stmt 1 view -0
 206              		.cfi_startproc
 207              		@ args = 0, pretend = 0, frame = 0
 208              		@ frame_needed = 0, uses_anonymous_args = 0
 209              		@ link register save eliminated.
 118:./stmtemp.h   ****     index *= size;
 210              		.loc 3 118 5 view .LVU42
 211              		.loc 3 118 11 is_stmt 0 view .LVU43
 212 0000 60EE200A 		vmul.f32	s1, s0, s1
 213              	.LVL10:
 119:./stmtemp.h   ****     MAKE_INTEGRAL_FRACTIONAL(index)
 214              		.loc 3 119 5 is_stmt 1 view .LVU44
 215 0004 FDEEE07A 		vcvt.s32.f32	s15, s1
 216              	.LVL11:
 217              		.loc 3 119 5 view .LVU45
 120:./stmtemp.h   ****     float a = table[index_integral];
 218              		.loc 3 120 5 view .LVU46
 219              		.loc 3 120 11 is_stmt 0 view .LVU47
 220 0008 17EE903A 		vmov	r3, s15	@ int
 119:./stmtemp.h   ****     MAKE_INTEGRAL_FRACTIONAL(index)
 221              		.loc 3 119 5 view .LVU48
 222 000c F8EEE77A 		vcvt.f32.s32	s15, s15
 223              	.LVL12:
 224              		.loc 3 120 11 view .LVU49
 225 0010 00EB8300 		add	r0, r0, r3, lsl #2
 226              	.LVL13:
 119:./stmtemp.h   ****     MAKE_INTEGRAL_FRACTIONAL(index)
 227              		.loc 3 119 5 view .LVU50
 228 0014 70EEE70A 		vsub.f32	s1, s1, s15
 229              	.LVL14:
 230              		.loc 3 120 11 view .LVU51
 231 0018 90ED000A 		vldr.32	s0, [r0]
 232              	.LVL15:
 121:./stmtemp.h   ****     float b = table[index_integral + 1];
 233              		.loc 3 121 5 is_stmt 1 view .LVU52
 122:./stmtemp.h   ****     return a + (b - a) * index_fractional;
 234              		.loc 3 122 5 view .LVU53
 235              		.loc 3 122 19 is_stmt 0 view .LVU54
 236 001c 90ED017A 		vldr.32	s14, [r0, #4]
 237 0020 37EE407A 		vsub.f32	s14, s14, s0
 123:./stmtemp.h   **** }
 238              		.loc 3 123 1 view .LVU55
 239 0024 A7EE200A 		vfma.f32	s0, s14, s1
 240              	.LVL16:
 241              		.loc 3 123 1 view .LVU56
 242 0028 7047     		bx	lr
 243              		.cfi_endproc
 244              	.LFE4225:
 246              		.section	.text._Z16SemitonesToRatiof,"axG",%progbits,_Z16SemitonesToRatiof,comdat
 247              		.align	1
 248              		.weak	_Z16SemitonesToRatiof
 249              		.syntax unified
ARM GAS  /tmp/ccmw9Hql.s 			page 16


 250              		.thumb
 251              		.thumb_func
 252              		.fpu fpv5-d16
 254              	_Z16SemitonesToRatiof:
 255              	.LVL17:
 256              	.LFB4226:
 124:./stmtemp.h   **** 
 125:./stmtemp.h   **** inline float SemitonesToRatio(float semitones)
 126:./stmtemp.h   **** {
 257              		.loc 3 126 1 is_stmt 1 view -0
 258              		.cfi_startproc
 259              		@ args = 0, pretend = 0, frame = 0
 260              		@ frame_needed = 0, uses_anonymous_args = 0
 261              		@ link register save eliminated.
 127:./stmtemp.h   ****     float pitch = semitones + 128.0f;
 262              		.loc 3 127 5 view .LVU58
 263              		.loc 3 127 11 is_stmt 0 view .LVU59
 264 0000 DFED0E7A 		vldr.32	s15, .L14
 128:./stmtemp.h   ****     MAKE_INTEGRAL_FRACTIONAL(pitch)
 129:./stmtemp.h   **** 
 130:./stmtemp.h   ****     return lut_pitch_ratio_high[pitch_integral]
 131:./stmtemp.h   ****            * lut_pitch_ratio_low[static_cast<int32_t>(pitch_fractional
 132:./stmtemp.h   ****                                                       * 256.0f)];
 265              		.loc 3 132 64 view .LVU60
 266 0004 0E4A     		ldr	r2, .L14+4
 127:./stmtemp.h   ****     float pitch = semitones + 128.0f;
 267              		.loc 3 127 11 view .LVU61
 268 0006 30EE270A 		vadd.f32	s0, s0, s15
 269              	.LVL18:
 128:./stmtemp.h   ****     MAKE_INTEGRAL_FRACTIONAL(pitch)
 270              		.loc 3 128 5 is_stmt 1 view .LVU62
 271 000a FDEEC07A 		vcvt.s32.f32	s15, s0
 272              	.LVL19:
 128:./stmtemp.h   ****     MAKE_INTEGRAL_FRACTIONAL(pitch)
 273              		.loc 3 128 5 view .LVU63
 130:./stmtemp.h   ****            * lut_pitch_ratio_low[static_cast<int32_t>(pitch_fractional
 274              		.loc 3 130 5 view .LVU64
 128:./stmtemp.h   ****     MAKE_INTEGRAL_FRACTIONAL(pitch)
 275              		.loc 3 128 5 is_stmt 0 view .LVU65
 276 000e B8EEE77A 		vcvt.f32.s32	s14, s15
 130:./stmtemp.h   ****            * lut_pitch_ratio_low[static_cast<int32_t>(pitch_fractional
 277              		.loc 3 130 47 view .LVU66
 278 0012 17EE901A 		vmov	r1, s15	@ int
 128:./stmtemp.h   ****     MAKE_INTEGRAL_FRACTIONAL(pitch)
 279              		.loc 3 128 5 view .LVU67
 280 0016 30EE470A 		vsub.f32	s0, s0, s14
 281              	.LVL20:
 131:./stmtemp.h   ****                                                       * 256.0f)];
 282              		.loc 3 131 34 view .LVU68
 283 001a BEEECC0A 		vcvt.s32.f32	s0, s0, #8
 284              	.LVL21:
 285              		.loc 3 132 64 view .LVU69
 286 001e 10EE103A 		vmov	r3, s0	@ int
 287 0022 02EB8302 		add	r2, r2, r3, lsl #2
 130:./stmtemp.h   ****            * lut_pitch_ratio_low[static_cast<int32_t>(pitch_fractional
 288              		.loc 3 130 47 view .LVU70
 289 0026 074B     		ldr	r3, .L14+8
ARM GAS  /tmp/ccmw9Hql.s 			page 17


 290 0028 03EB8103 		add	r3, r3, r1, lsl #2
 291              		.loc 3 132 64 view .LVU71
 292 002c 92ED000A 		vldr.32	s0, [r2]
 293 0030 D3ED007A 		vldr.32	s15, [r3]
 294              	.LVL22:
 133:./stmtemp.h   **** }
 295              		.loc 3 133 1 view .LVU72
 296 0034 20EE270A 		vmul.f32	s0, s0, s15
 297 0038 7047     		bx	lr
 298              	.L15:
 299 003a 00BF     		.align	2
 300              	.L14:
 301 003c 00000043 		.word	1124073472
 302 0040 00000000 		.word	lut_pitch_ratio_low
 303 0044 00000000 		.word	lut_pitch_ratio_high
 304              		.cfi_endproc
 305              	.LFE4226:
 307              		.section	.text._ZN8DataTypeIL6Format0EE8CompressEf,"axG",%progbits,_ZN8DataTypeIL6Format0EE8Compre
 308              		.align	1
 309              		.weak	_ZN8DataTypeIL6Format0EE8CompressEf
 310              		.syntax unified
 311              		.thumb
 312              		.thumb_func
 313              		.fpu fpv5-d16
 315              	_ZN8DataTypeIL6Format0EE8CompressEf:
 316              	.LVL23:
 317              	.LFB4233:
 318              		.file 5 "dsp/fx/fx_engine.h"
   1:dsp/fx/fx_engine.h **** // Copyright 2014 Emilie Gillet.
   2:dsp/fx/fx_engine.h **** //
   3:dsp/fx/fx_engine.h **** // Author: Emilie Gillet (emilie.o.gillet@gmail.com)
   4:dsp/fx/fx_engine.h **** //
   5:dsp/fx/fx_engine.h **** // Permission is hereby granted, free of charge, to any person obtaining a copy
   6:dsp/fx/fx_engine.h **** // of this software and associated documentation files (the "Software"), to deal
   7:dsp/fx/fx_engine.h **** // in the Software without restriction, including without limitation the rights
   8:dsp/fx/fx_engine.h **** // to use, copy, modify, merge, publish, distribute, sublicense, and/or sell
   9:dsp/fx/fx_engine.h **** // copies of the Software, and to permit persons to whom the Software is
  10:dsp/fx/fx_engine.h **** // furnished to do so, subject to the following conditions:
  11:dsp/fx/fx_engine.h **** //
  12:dsp/fx/fx_engine.h **** // The above copyright notice and this permission notice shall be included in
  13:dsp/fx/fx_engine.h **** // all copies or substantial portions of the Software.
  14:dsp/fx/fx_engine.h **** //
  15:dsp/fx/fx_engine.h **** // THE SOFTWARE IS PROVIDED "AS IS", WITHOUT WARRANTY OF ANY KIND, EXPRESS OR
  16:dsp/fx/fx_engine.h **** // IMPLIED, INCLUDING BUT NOT LIMITED TO THE WARRANTIES OF MERCHANTABILITY,
  17:dsp/fx/fx_engine.h **** // FITNESS FOR A PARTICULAR PURPOSE AND NONINFRINGEMENT. IN NO EVENT SHALL THE
  18:dsp/fx/fx_engine.h **** // AUTHORS OR COPYRIGHT HOLDERS BE LIABLE FOR ANY CLAIM, DAMAGES OR OTHER
  19:dsp/fx/fx_engine.h **** // LIABILITY, WHETHER IN AN ACTION OF CONTRACT, TORT OR OTHERWISE, ARISING FROM,
  20:dsp/fx/fx_engine.h **** // OUT OF OR IN CONNECTION WITH THE SOFTWARE OR THE USE OR OTHER DEALINGS IN
  21:dsp/fx/fx_engine.h **** // THE SOFTWARE.
  22:dsp/fx/fx_engine.h **** //
  23:dsp/fx/fx_engine.h **** // See http://creativecommons.org/licenses/MIT/ for more information.
  24:dsp/fx/fx_engine.h **** //
  25:dsp/fx/fx_engine.h **** // -----------------------------------------------------------------------------
  26:dsp/fx/fx_engine.h **** //
  27:dsp/fx/fx_engine.h **** // Base class for building reverbs.
  28:dsp/fx/fx_engine.h **** 
  29:dsp/fx/fx_engine.h **** #ifndef CLOUDS_DSP_FX_FX_ENGINE_H_
ARM GAS  /tmp/ccmw9Hql.s 			page 18


  30:dsp/fx/fx_engine.h **** #define CLOUDS_DSP_FX_FX_ENGINE_H_
  31:dsp/fx/fx_engine.h **** 
  32:dsp/fx/fx_engine.h **** #include <algorithm>
  33:dsp/fx/fx_engine.h **** #include "stmtemp.h"
  34:dsp/fx/fx_engine.h **** 
  35:dsp/fx/fx_engine.h **** using namespace daisysp;
  36:dsp/fx/fx_engine.h **** 
  37:dsp/fx/fx_engine.h **** #define TAIL , -1
  38:dsp/fx/fx_engine.h **** 
  39:dsp/fx/fx_engine.h **** enum Format
  40:dsp/fx/fx_engine.h **** {
  41:dsp/fx/fx_engine.h ****     FORMAT_12_BIT,
  42:dsp/fx/fx_engine.h ****     FORMAT_16_BIT,
  43:dsp/fx/fx_engine.h ****     FORMAT_32_BIT
  44:dsp/fx/fx_engine.h **** };
  45:dsp/fx/fx_engine.h **** 
  46:dsp/fx/fx_engine.h **** enum LFOIndex
  47:dsp/fx/fx_engine.h **** {
  48:dsp/fx/fx_engine.h ****     LFO_1,
  49:dsp/fx/fx_engine.h ****     LFO_2
  50:dsp/fx/fx_engine.h **** };
  51:dsp/fx/fx_engine.h **** 
  52:dsp/fx/fx_engine.h **** template <Format format>
  53:dsp/fx/fx_engine.h **** struct DataType
  54:dsp/fx/fx_engine.h **** {
  55:dsp/fx/fx_engine.h **** };
  56:dsp/fx/fx_engine.h **** 
  57:dsp/fx/fx_engine.h **** template <>
  58:dsp/fx/fx_engine.h **** struct DataType<FORMAT_12_BIT>
  59:dsp/fx/fx_engine.h **** {
  60:dsp/fx/fx_engine.h ****     typedef uint16_t T;
  61:dsp/fx/fx_engine.h **** 
  62:dsp/fx/fx_engine.h ****     static inline float Decompress(T value)
  63:dsp/fx/fx_engine.h ****     {
  64:dsp/fx/fx_engine.h ****         return static_cast<float>(static_cast<int16_t>(value)) / 4096.0f;
  65:dsp/fx/fx_engine.h ****     }
  66:dsp/fx/fx_engine.h **** 
  67:dsp/fx/fx_engine.h ****     static inline T Compress(float value)
 319              		.loc 5 67 21 is_stmt 1 view -0
 320              		.cfi_startproc
 321              		@ args = 0, pretend = 0, frame = 0
 322              		@ frame_needed = 0, uses_anonymous_args = 0
  68:dsp/fx/fx_engine.h ****     {
  69:dsp/fx/fx_engine.h ****         return static_cast<uint16_t>(
 323              		.loc 5 69 9 view .LVU74
  70:dsp/fx/fx_engine.h ****             Clip16(static_cast<int32_t>(value * 4096.0f)));
 324              		.loc 5 70 19 is_stmt 0 view .LVU75
 325 0000 F0EE407A 		vmov.f32	s15, s0
  67:dsp/fx/fx_engine.h ****     {
 326              		.loc 5 67 21 view .LVU76
 327 0004 08B5     		push	{r3, lr}
 328              		.cfi_def_cfa_offset 8
 329              		.cfi_offset 3, -8
 330              		.cfi_offset 14, -4
 331              		.loc 5 70 19 view .LVU77
 332 0006 FEEECA7A 		vcvt.s32.f32	s15, s15, #12
 333 000a 17EE900A 		vmov	r0, s15	@ int
ARM GAS  /tmp/ccmw9Hql.s 			page 19


 334 000e FFF7FEFF 		bl	_Z6Clip16l
 335              	.LVL24:
  71:dsp/fx/fx_engine.h ****     }
 336              		.loc 5 71 5 view .LVU78
 337 0012 80B2     		uxth	r0, r0
 338 0014 08BD     		pop	{r3, pc}
 339              		.cfi_endproc
 340              	.LFE4233:
 342              		.section	.text._ZN8Diffuser7ProcessEP10FloatFramej,"axG",%progbits,_ZN8Diffuser7ProcessEP10FloatFr
 343              		.align	1
 344              		.weak	_ZN8Diffuser7ProcessEP10FloatFramej
 345              		.syntax unified
 346              		.thumb
 347              		.thumb_func
 348              		.fpu fpv5-d16
 350              	_ZN8Diffuser7ProcessEP10FloatFramej:
 351              	.LVL25:
 352              	.LFB4268:
 353              		.file 6 "dsp/fx/diffuser.h"
   1:dsp/fx/diffuser.h **** // Copyright 2014 Emilie Gillet.
   2:dsp/fx/diffuser.h **** //
   3:dsp/fx/diffuser.h **** // Author: Emilie Gillet (emilie.o.gillet@gmail.com)
   4:dsp/fx/diffuser.h **** //
   5:dsp/fx/diffuser.h **** // Permission is hereby granted, free of charge, to any person obtaining a copy
   6:dsp/fx/diffuser.h **** // of this software and associated documentation files (the "Software"), to deal
   7:dsp/fx/diffuser.h **** // in the Software without restriction, including without limitation the rights
   8:dsp/fx/diffuser.h **** // to use, copy, modify, merge, publish, distribute, sublicense, and/or sell
   9:dsp/fx/diffuser.h **** // copies of the Software, and to permit persons to whom the Software is
  10:dsp/fx/diffuser.h **** // furnished to do so, subject to the following conditions:
  11:dsp/fx/diffuser.h **** //
  12:dsp/fx/diffuser.h **** // The above copyright notice and this permission notice shall be included in
  13:dsp/fx/diffuser.h **** // all copies or substantial portions of the Software.
  14:dsp/fx/diffuser.h **** //
  15:dsp/fx/diffuser.h **** // THE SOFTWARE IS PROVIDED "AS IS", WITHOUT WARRANTY OF ANY KIND, EXPRESS OR
  16:dsp/fx/diffuser.h **** // IMPLIED, INCLUDING BUT NOT LIMITED TO THE WARRANTIES OF MERCHANTABILITY,
  17:dsp/fx/diffuser.h **** // FITNESS FOR A PARTICULAR PURPOSE AND NONINFRINGEMENT. IN NO EVENT SHALL THE
  18:dsp/fx/diffuser.h **** // AUTHORS OR COPYRIGHT HOLDERS BE LIABLE FOR ANY CLAIM, DAMAGES OR OTHER
  19:dsp/fx/diffuser.h **** // LIABILITY, WHETHER IN AN ACTION OF CONTRACT, TORT OR OTHERWISE, ARISING FROM,
  20:dsp/fx/diffuser.h **** // OUT OF OR IN CONNECTION WITH THE SOFTWARE OR THE USE OR OTHER DEALINGS IN
  21:dsp/fx/diffuser.h **** // THE SOFTWARE.
  22:dsp/fx/diffuser.h **** //
  23:dsp/fx/diffuser.h **** // See http://creativecommons.org/licenses/MIT/ for more information.
  24:dsp/fx/diffuser.h **** //
  25:dsp/fx/diffuser.h **** // -----------------------------------------------------------------------------
  26:dsp/fx/diffuser.h **** //
  27:dsp/fx/diffuser.h **** // AP diffusion network.
  28:dsp/fx/diffuser.h **** 
  29:dsp/fx/diffuser.h **** #ifndef CLOUDS_DSP_FX_DIFFUSER_H_
  30:dsp/fx/diffuser.h **** #define CLOUDS_DSP_FX_DIFFUSER_H_
  31:dsp/fx/diffuser.h **** 
  32:dsp/fx/diffuser.h **** #include "fx_engine.h"
  33:dsp/fx/diffuser.h **** 
  34:dsp/fx/diffuser.h **** using namespace daisysp;
  35:dsp/fx/diffuser.h **** 
  36:dsp/fx/diffuser.h **** class Diffuser
  37:dsp/fx/diffuser.h **** {
  38:dsp/fx/diffuser.h ****   public:
ARM GAS  /tmp/ccmw9Hql.s 			page 20


  39:dsp/fx/diffuser.h ****     Diffuser() {}
  40:dsp/fx/diffuser.h ****     ~Diffuser() {}
  41:dsp/fx/diffuser.h **** 
  42:dsp/fx/diffuser.h ****     void Init(float* buffer) { engine_.Init(buffer); }
  43:dsp/fx/diffuser.h **** 
  44:dsp/fx/diffuser.h ****     void Process(FloatFrame* in_out, size_t size)
 354              		.loc 6 44 10 is_stmt 1 view -0
 355              		.cfi_startproc
 356              		@ args = 0, pretend = 0, frame = 0
 357              		@ frame_needed = 0, uses_anonymous_args = 0
  45:dsp/fx/diffuser.h ****     {
  46:dsp/fx/diffuser.h ****         typedef E::Reserve<
 358              		.loc 6 46 9 view .LVU80
  47:dsp/fx/diffuser.h ****             126,
  48:dsp/fx/diffuser.h ****             E::Reserve<
  49:dsp/fx/diffuser.h ****                 180,
  50:dsp/fx/diffuser.h ****                 E::Reserve<
  51:dsp/fx/diffuser.h ****                     269,
  52:dsp/fx/diffuser.h ****                     E::Reserve<
  53:dsp/fx/diffuser.h ****                         444,
  54:dsp/fx/diffuser.h ****                         E::Reserve<
  55:dsp/fx/diffuser.h ****                             151,
  56:dsp/fx/diffuser.h ****                             E::Reserve<205,
  57:dsp/fx/diffuser.h ****                                        E::Reserve<245, E::Reserve<405>>>>>>>>
  58:dsp/fx/diffuser.h ****                                 Memory;
  59:dsp/fx/diffuser.h ****         E::DelayLine<Memory, 0> apl1;
 359              		.loc 6 59 9 view .LVU81
  60:dsp/fx/diffuser.h ****         E::DelayLine<Memory, 1> apl2;
 360              		.loc 6 60 9 view .LVU82
  61:dsp/fx/diffuser.h ****         E::DelayLine<Memory, 2> apl3;
 361              		.loc 6 61 9 view .LVU83
  62:dsp/fx/diffuser.h ****         E::DelayLine<Memory, 3> apl4;
 362              		.loc 6 62 9 view .LVU84
  63:dsp/fx/diffuser.h ****         E::DelayLine<Memory, 4> apr1;
 363              		.loc 6 63 9 view .LVU85
  64:dsp/fx/diffuser.h ****         E::DelayLine<Memory, 5> apr2;
 364              		.loc 6 64 9 view .LVU86
  65:dsp/fx/diffuser.h ****         E::DelayLine<Memory, 6> apr3;
 365              		.loc 6 65 9 view .LVU87
  66:dsp/fx/diffuser.h ****         E::DelayLine<Memory, 7> apr4;
 366              		.loc 6 66 9 view .LVU88
  67:dsp/fx/diffuser.h ****         E::Context              c;
 367              		.loc 6 67 9 view .LVU89
 368              	.LBB753:
 369              	.LBI753:
  72:dsp/fx/fx_engine.h **** };
  73:dsp/fx/fx_engine.h **** 
  74:dsp/fx/fx_engine.h **** template <>
  75:dsp/fx/fx_engine.h **** struct DataType<FORMAT_16_BIT>
  76:dsp/fx/fx_engine.h **** {
  77:dsp/fx/fx_engine.h ****     typedef uint16_t T;
  78:dsp/fx/fx_engine.h **** 
  79:dsp/fx/fx_engine.h ****     static inline float Decompress(T value)
  80:dsp/fx/fx_engine.h ****     {
  81:dsp/fx/fx_engine.h ****         return static_cast<float>(static_cast<int16_t>(value)) / 32768.0f;
  82:dsp/fx/fx_engine.h ****     }
  83:dsp/fx/fx_engine.h **** 
ARM GAS  /tmp/ccmw9Hql.s 			page 21


  84:dsp/fx/fx_engine.h ****     static inline T Compress(float value)
  85:dsp/fx/fx_engine.h ****     {
  86:dsp/fx/fx_engine.h ****         return static_cast<uint16_t>(
  87:dsp/fx/fx_engine.h ****             Clip16(static_cast<int32_t>(value * 32768.0f)));
  88:dsp/fx/fx_engine.h ****     }
  89:dsp/fx/fx_engine.h **** };
  90:dsp/fx/fx_engine.h **** 
  91:dsp/fx/fx_engine.h **** template <>
  92:dsp/fx/fx_engine.h **** struct DataType<FORMAT_32_BIT>
  93:dsp/fx/fx_engine.h **** {
  94:dsp/fx/fx_engine.h ****     typedef float T;
  95:dsp/fx/fx_engine.h **** 
  96:dsp/fx/fx_engine.h ****     static inline float Decompress(T value)
  97:dsp/fx/fx_engine.h ****     {
  98:dsp/fx/fx_engine.h ****         return value;
  99:dsp/fx/fx_engine.h ****         ;
 100:dsp/fx/fx_engine.h ****     }
 101:dsp/fx/fx_engine.h **** 
 102:dsp/fx/fx_engine.h ****     static inline T Compress(float value) { return value; }
 103:dsp/fx/fx_engine.h **** };
 104:dsp/fx/fx_engine.h **** 
 105:dsp/fx/fx_engine.h **** template <size_t size, Format format = FORMAT_12_BIT>
 106:dsp/fx/fx_engine.h **** class FxEngine
 107:dsp/fx/fx_engine.h **** {
 108:dsp/fx/fx_engine.h ****   public:
 109:dsp/fx/fx_engine.h ****     typedef typename DataType<format>::T T;
 110:dsp/fx/fx_engine.h ****     FxEngine() {}
 111:dsp/fx/fx_engine.h ****     ~FxEngine() {}
 112:dsp/fx/fx_engine.h **** 
 113:dsp/fx/fx_engine.h ****     void Init(T* buffer)
 114:dsp/fx/fx_engine.h ****     {
 115:dsp/fx/fx_engine.h ****         buffer_ = buffer;
 116:dsp/fx/fx_engine.h ****         Clear();
 117:dsp/fx/fx_engine.h ****     }
 118:dsp/fx/fx_engine.h **** 
 119:dsp/fx/fx_engine.h ****     void Clear()
 120:dsp/fx/fx_engine.h ****     {
 121:dsp/fx/fx_engine.h ****         std::fill(&buffer_[0], &buffer_[size], 0);
 122:dsp/fx/fx_engine.h ****         write_ptr_ = 0;
 123:dsp/fx/fx_engine.h ****     }
 124:dsp/fx/fx_engine.h **** 
 125:dsp/fx/fx_engine.h ****     struct Empty
 126:dsp/fx/fx_engine.h ****     {
 127:dsp/fx/fx_engine.h ****     };
 128:dsp/fx/fx_engine.h **** 
 129:dsp/fx/fx_engine.h ****     template <int32_t l, typename T = Empty>
 130:dsp/fx/fx_engine.h ****     struct Reserve
 131:dsp/fx/fx_engine.h ****     {
 132:dsp/fx/fx_engine.h ****         typedef T Tail;
 133:dsp/fx/fx_engine.h ****         enum
 134:dsp/fx/fx_engine.h ****         {
 135:dsp/fx/fx_engine.h ****             length = l
 136:dsp/fx/fx_engine.h ****         };
 137:dsp/fx/fx_engine.h ****     };
 138:dsp/fx/fx_engine.h **** 
 139:dsp/fx/fx_engine.h ****     template <typename Memory, int32_t index>
 140:dsp/fx/fx_engine.h ****     struct DelayLine
ARM GAS  /tmp/ccmw9Hql.s 			page 22


 141:dsp/fx/fx_engine.h ****     {
 142:dsp/fx/fx_engine.h ****         enum
 143:dsp/fx/fx_engine.h ****         {
 144:dsp/fx/fx_engine.h ****             length = DelayLine<typename Memory::Tail, index - 1>::length,
 145:dsp/fx/fx_engine.h ****             base   = DelayLine<Memory, index - 1>::base
 146:dsp/fx/fx_engine.h ****                    + DelayLine<Memory, index - 1>::length + 1
 147:dsp/fx/fx_engine.h ****         };
 148:dsp/fx/fx_engine.h ****     };
 149:dsp/fx/fx_engine.h **** 
 150:dsp/fx/fx_engine.h ****     template <typename Memory>
 151:dsp/fx/fx_engine.h ****     struct DelayLine<Memory, 0>
 152:dsp/fx/fx_engine.h ****     {
 153:dsp/fx/fx_engine.h ****         enum
 154:dsp/fx/fx_engine.h ****         {
 155:dsp/fx/fx_engine.h ****             length = Memory::length,
 156:dsp/fx/fx_engine.h ****             base   = 0
 157:dsp/fx/fx_engine.h ****         };
 158:dsp/fx/fx_engine.h ****     };
 159:dsp/fx/fx_engine.h **** 
 160:dsp/fx/fx_engine.h ****     class Context
 161:dsp/fx/fx_engine.h ****     {
 162:dsp/fx/fx_engine.h ****         friend class FxEngine;
 163:dsp/fx/fx_engine.h **** 
 164:dsp/fx/fx_engine.h ****       public:
 165:dsp/fx/fx_engine.h ****         Context() {}
 370              		.loc 5 165 9 view .LVU90
 371              		.loc 5 165 9 is_stmt 0 view .LVU91
 372              	.LBE753:
  68:dsp/fx/diffuser.h ****         const float             kap = 0.625f;
 373              		.loc 6 68 9 is_stmt 1 view .LVU92
  44:dsp/fx/diffuser.h ****     {
 374              		.loc 6 44 10 is_stmt 0 view .LVU93
 375 0000 2DE9F041 		push	{r4, r5, r6, r7, r8, lr}
 376              		.cfi_def_cfa_offset 24
 377              		.cfi_offset 4, -24
 378              		.cfi_offset 5, -20
 379              		.cfi_offset 6, -16
 380              		.cfi_offset 7, -12
 381              		.cfi_offset 8, -8
 382              		.cfi_offset 14, -4
  44:dsp/fx/diffuser.h ****     {
 383              		.loc 6 44 10 view .LVU94
 384 0004 0646     		mov	r6, r0
 385 0006 9046     		mov	r8, r2
 386 0008 01F10807 		add	r7, r1, #8
 387              	.LVL26:
 388              	.L22:
  69:dsp/fx/diffuser.h ****         while(size--)
 389              		.loc 6 69 9 is_stmt 1 view .LVU95
 390              		.loc 6 69 19 view .LVU96
 391 000c B8F10108 		subs	r8, r8, #1
 392              	.LVL27:
 393              		.loc 6 69 19 is_stmt 0 view .LVU97
 394 0010 C0F0D780 		bcc	.L17
 395              	.LBB754:
  70:dsp/fx/diffuser.h ****         {
  71:dsp/fx/diffuser.h ****             engine_.Start(&c);
ARM GAS  /tmp/ccmw9Hql.s 			page 23


 396              		.loc 6 71 13 is_stmt 1 view .LVU98
 397              	.LVL28:
 398              	.LBB755:
 399              	.LBI755:
 166:dsp/fx/fx_engine.h ****         ~Context() {}
 167:dsp/fx/fx_engine.h **** 
 168:dsp/fx/fx_engine.h ****         inline void Load(float value) { accumulator_ = value; }
 169:dsp/fx/fx_engine.h **** 
 170:dsp/fx/fx_engine.h ****         inline void Read(float value, float scale)
 171:dsp/fx/fx_engine.h ****         {
 172:dsp/fx/fx_engine.h ****             accumulator_ += value * scale;
 173:dsp/fx/fx_engine.h ****         }
 174:dsp/fx/fx_engine.h **** 
 175:dsp/fx/fx_engine.h ****         inline void Read(float value) { accumulator_ += value; }
 176:dsp/fx/fx_engine.h **** 
 177:dsp/fx/fx_engine.h ****         inline void Write(float& value) { value = accumulator_; }
 178:dsp/fx/fx_engine.h **** 
 179:dsp/fx/fx_engine.h ****         inline void Write(float& value, float scale)
 180:dsp/fx/fx_engine.h ****         {
 181:dsp/fx/fx_engine.h ****             value = accumulator_;
 182:dsp/fx/fx_engine.h ****             accumulator_ *= scale;
 183:dsp/fx/fx_engine.h ****         }
 184:dsp/fx/fx_engine.h **** 
 185:dsp/fx/fx_engine.h ****         template <typename D>
 186:dsp/fx/fx_engine.h ****         inline void Write(D& d, int32_t offset, float scale)
 187:dsp/fx/fx_engine.h ****         {
 188:dsp/fx/fx_engine.h ****             STATIC_ASSERT(D::base + D::length <= size, delay_memory_full);
 189:dsp/fx/fx_engine.h ****             T w = DataType<format>::Compress(accumulator_);
 190:dsp/fx/fx_engine.h ****             if(offset == -1)
 191:dsp/fx/fx_engine.h ****             {
 192:dsp/fx/fx_engine.h ****                 buffer_[(write_ptr_ + D::base + D::length - 1) & MASK] = w;
 193:dsp/fx/fx_engine.h ****             }
 194:dsp/fx/fx_engine.h ****             else
 195:dsp/fx/fx_engine.h ****             {
 196:dsp/fx/fx_engine.h ****                 buffer_[(write_ptr_ + D::base + offset) & MASK] = w;
 197:dsp/fx/fx_engine.h ****             }
 198:dsp/fx/fx_engine.h ****             accumulator_ *= scale;
 199:dsp/fx/fx_engine.h ****         }
 200:dsp/fx/fx_engine.h **** 
 201:dsp/fx/fx_engine.h ****         template <typename D>
 202:dsp/fx/fx_engine.h ****         inline void Write(D& d, float scale)
 203:dsp/fx/fx_engine.h ****         {
 204:dsp/fx/fx_engine.h ****             Write(d, 0, scale);
 205:dsp/fx/fx_engine.h ****         }
 206:dsp/fx/fx_engine.h **** 
 207:dsp/fx/fx_engine.h ****         template <typename D>
 208:dsp/fx/fx_engine.h ****         inline void WriteAllPass(D& d, int32_t offset, float scale)
 209:dsp/fx/fx_engine.h ****         {
 210:dsp/fx/fx_engine.h ****             Write(d, offset, scale);
 211:dsp/fx/fx_engine.h ****             accumulator_ += previous_read_;
 212:dsp/fx/fx_engine.h ****         }
 213:dsp/fx/fx_engine.h **** 
 214:dsp/fx/fx_engine.h ****         template <typename D>
 215:dsp/fx/fx_engine.h ****         inline void WriteAllPass(D& d, float scale)
 216:dsp/fx/fx_engine.h ****         {
 217:dsp/fx/fx_engine.h ****             WriteAllPass(d, 0, scale);
 218:dsp/fx/fx_engine.h ****         }
ARM GAS  /tmp/ccmw9Hql.s 			page 24


 219:dsp/fx/fx_engine.h **** 
 220:dsp/fx/fx_engine.h ****         template <typename D>
 221:dsp/fx/fx_engine.h ****         inline void Read(D& d, int32_t offset, float scale)
 222:dsp/fx/fx_engine.h ****         {
 223:dsp/fx/fx_engine.h ****             STATIC_ASSERT(D::base + D::length <= size, delay_memory_full);
 224:dsp/fx/fx_engine.h ****             T r;
 225:dsp/fx/fx_engine.h ****             if(offset == -1)
 226:dsp/fx/fx_engine.h ****             {
 227:dsp/fx/fx_engine.h ****                 r = buffer_[(write_ptr_ + D::base + D::length - 1) & MASK];
 228:dsp/fx/fx_engine.h ****             }
 229:dsp/fx/fx_engine.h ****             else
 230:dsp/fx/fx_engine.h ****             {
 231:dsp/fx/fx_engine.h ****                 r = buffer_[(write_ptr_ + D::base + offset) & MASK];
 232:dsp/fx/fx_engine.h ****             }
 233:dsp/fx/fx_engine.h ****             float r_f      = DataType<format>::Decompress(r);
 234:dsp/fx/fx_engine.h ****             previous_read_ = r_f;
 235:dsp/fx/fx_engine.h ****             accumulator_ += r_f * scale;
 236:dsp/fx/fx_engine.h ****         }
 237:dsp/fx/fx_engine.h **** 
 238:dsp/fx/fx_engine.h ****         template <typename D>
 239:dsp/fx/fx_engine.h ****         inline void Read(D& d, float scale)
 240:dsp/fx/fx_engine.h ****         {
 241:dsp/fx/fx_engine.h ****             Read(d, 0, scale);
 242:dsp/fx/fx_engine.h ****         }
 243:dsp/fx/fx_engine.h **** 
 244:dsp/fx/fx_engine.h ****         inline void Lp(float& state, float coefficient)
 245:dsp/fx/fx_engine.h ****         {
 246:dsp/fx/fx_engine.h ****             state += coefficient * (accumulator_ - state);
 247:dsp/fx/fx_engine.h ****             accumulator_ = state;
 248:dsp/fx/fx_engine.h ****         }
 249:dsp/fx/fx_engine.h **** 
 250:dsp/fx/fx_engine.h ****         inline void Hp(float& state, float coefficient)
 251:dsp/fx/fx_engine.h ****         {
 252:dsp/fx/fx_engine.h ****             state += coefficient * (accumulator_ - state);
 253:dsp/fx/fx_engine.h ****             accumulator_ -= state;
 254:dsp/fx/fx_engine.h ****         }
 255:dsp/fx/fx_engine.h **** 
 256:dsp/fx/fx_engine.h ****         template <typename D>
 257:dsp/fx/fx_engine.h ****         inline void Interpolate(D& d, float offset, float scale)
 258:dsp/fx/fx_engine.h ****         {
 259:dsp/fx/fx_engine.h ****             STATIC_ASSERT(D::base + D::length <= size, delay_memory_full);
 260:dsp/fx/fx_engine.h ****             MAKE_INTEGRAL_FRACTIONAL(offset);
 261:dsp/fx/fx_engine.h ****             float a = DataType<format>::Decompress(
 262:dsp/fx/fx_engine.h ****                 buffer_[(write_ptr_ + offset_integral + D::base) & MASK]);
 263:dsp/fx/fx_engine.h ****             float b = DataType<format>::Decompress(
 264:dsp/fx/fx_engine.h ****                 buffer_[(write_ptr_ + offset_integral + D::base + 1) & MASK]);
 265:dsp/fx/fx_engine.h ****             float x        = a + (b - a) * offset_fractional;
 266:dsp/fx/fx_engine.h ****             previous_read_ = x;
 267:dsp/fx/fx_engine.h ****             accumulator_ += x * scale;
 268:dsp/fx/fx_engine.h ****         }
 269:dsp/fx/fx_engine.h **** 
 270:dsp/fx/fx_engine.h ****         template <typename D>
 271:dsp/fx/fx_engine.h ****         inline void Interpolate(D&       d,
 272:dsp/fx/fx_engine.h ****                                 float    offset,
 273:dsp/fx/fx_engine.h ****                                 LFOIndex index,
 274:dsp/fx/fx_engine.h ****                                 float    amplitude,
 275:dsp/fx/fx_engine.h ****                                 float    scale)
ARM GAS  /tmp/ccmw9Hql.s 			page 25


 276:dsp/fx/fx_engine.h ****         {
 277:dsp/fx/fx_engine.h ****             STATIC_ASSERT(D::base + D::length <= size, delay_memory_full);
 278:dsp/fx/fx_engine.h ****             offset += amplitude * lfo_value_[index];
 279:dsp/fx/fx_engine.h ****             MAKE_INTEGRAL_FRACTIONAL(offset);
 280:dsp/fx/fx_engine.h ****             float a = DataType<format>::Decompress(
 281:dsp/fx/fx_engine.h ****                 buffer_[(write_ptr_ + offset_integral + D::base) & MASK]);
 282:dsp/fx/fx_engine.h ****             float b = DataType<format>::Decompress(
 283:dsp/fx/fx_engine.h ****                 buffer_[(write_ptr_ + offset_integral + D::base + 1) & MASK]);
 284:dsp/fx/fx_engine.h ****             float x        = a + (b - a) * offset_fractional;
 285:dsp/fx/fx_engine.h ****             previous_read_ = x;
 286:dsp/fx/fx_engine.h ****             accumulator_ += x * scale;
 287:dsp/fx/fx_engine.h ****         }
 288:dsp/fx/fx_engine.h **** 
 289:dsp/fx/fx_engine.h ****       private:
 290:dsp/fx/fx_engine.h ****         float   accumulator_;
 291:dsp/fx/fx_engine.h ****         float   previous_read_;
 292:dsp/fx/fx_engine.h ****         float   lfo_value_[2];
 293:dsp/fx/fx_engine.h ****         T*      buffer_;
 294:dsp/fx/fx_engine.h ****         int32_t write_ptr_;
 295:dsp/fx/fx_engine.h ****     };
 296:dsp/fx/fx_engine.h **** 
 297:dsp/fx/fx_engine.h ****     inline void SetLFOFrequency(LFOIndex index, float frequency)
 298:dsp/fx/fx_engine.h ****     {
 299:dsp/fx/fx_engine.h ****         lfo_[index].Init(frequency * 32.0f);
 300:dsp/fx/fx_engine.h ****     }
 301:dsp/fx/fx_engine.h **** 
 302:dsp/fx/fx_engine.h ****     inline void Start(Context* c)
 400              		.loc 5 302 17 view .LVU99
 401              	.LBB756:
 303:dsp/fx/fx_engine.h ****     {
 304:dsp/fx/fx_engine.h ****         --write_ptr_;
 402              		.loc 5 304 11 is_stmt 0 view .LVU100
 403 0014 3368     		ldr	r3, [r6]
 305:dsp/fx/fx_engine.h ****         if(write_ptr_ < 0)
 404              		.loc 5 305 9 view .LVU101
 405 0016 5A1E     		subs	r2, r3, #1
 306:dsp/fx/fx_engine.h ****         {
 307:dsp/fx/fx_engine.h ****             write_ptr_ += size;
 406              		.loc 5 307 24 view .LVU102
 407 0018 4ABF     		itet	mi
 408 001a 03F2FF73 		addwmi	r3, r3, #2047
 304:dsp/fx/fx_engine.h ****         if(write_ptr_ < 0)
 409              		.loc 5 304 9 view .LVU103
 410 001e 3260     		strpl	r2, [r6]
 411              		.loc 5 307 13 view .LVU104
 412 0020 3360     		strmi	r3, [r6]
 308:dsp/fx/fx_engine.h ****         }
 309:dsp/fx/fx_engine.h ****         c->accumulator_   = 0.0f;
 310:dsp/fx/fx_engine.h ****         c->previous_read_ = 0.0f;
 311:dsp/fx/fx_engine.h ****         c->buffer_        = buffer_;
 312:dsp/fx/fx_engine.h ****         c->write_ptr_     = write_ptr_;
 413              		.loc 5 312 29 view .LVU105
 414 0022 D6E90045 		ldrd	r4, r5, [r6]
 313:dsp/fx/fx_engine.h ****         if((write_ptr_ & 31) == 0)
 415              		.loc 5 313 9 view .LVU106
 416 0026 E306     		lsls	r3, r4, #27
 417 0028 07D1     		bne	.L21
ARM GAS  /tmp/ccmw9Hql.s 			page 26


 418              	.LVL29:
 419              	.LBB757:
 420              	.LBI757:
 302:dsp/fx/fx_engine.h ****     {
 421              		.loc 5 302 17 is_stmt 1 view .LVU107
 422              	.LBB758:
 314:dsp/fx/fx_engine.h ****         {
 315:dsp/fx/fx_engine.h ****             c->lfo_value_[0] = lfo_[0].Next();
 423              		.loc 5 315 44 is_stmt 0 view .LVU108
 424 002a 06F10800 		add	r0, r6, #8
 425 002e FFF7FEFF 		bl	_ZN16CosineOscillator4NextEv
 426              	.LVL30:
 316:dsp/fx/fx_engine.h ****             c->lfo_value_[1] = lfo_[1].Next();
 427              		.loc 5 316 44 view .LVU109
 428 0032 06F11800 		add	r0, r6, #24
 429 0036 FFF7FEFF 		bl	_ZN16CosineOscillator4NextEv
 430              	.LVL31:
 431              	.L21:
 432              		.loc 5 316 44 view .LVU110
 433              	.LBE758:
 434              	.LBE757:
 435              	.LBE756:
 436              	.LBE755:
  72:dsp/fx/diffuser.h **** 
  73:dsp/fx/diffuser.h ****             float wet = 0.0f;
 437              		.loc 6 73 13 is_stmt 1 view .LVU111
  74:dsp/fx/diffuser.h ****             c.Read(in_out->l);
 438              		.loc 6 74 13 view .LVU112
 439              	.LBB759:
 440              	.LBI759:
 175:dsp/fx/fx_engine.h **** 
 441              		.loc 5 175 21 view .LVU113
 175:dsp/fx/fx_engine.h **** 
 442              		.loc 5 175 21 is_stmt 0 view .LVU114
 443              	.LBE759:
  75:dsp/fx/diffuser.h ****             c.Read(apl1 TAIL, kap);
 444              		.loc 6 75 13 is_stmt 1 view .LVU115
 445              	.LBB762:
 446              	.LBI762:
 221:dsp/fx/fx_engine.h ****         {
 447              		.loc 5 221 21 view .LVU116
 448              	.LBB763:
 227:dsp/fx/fx_engine.h ****             }
 449              		.loc 5 227 63 is_stmt 0 view .LVU117
 450 003a 04F17D03 		add	r3, r4, #125
 451              	.LBE763:
 452              	.LBE762:
 453              	.LBB767:
 454              	.LBB760:
 175:dsp/fx/fx_engine.h **** 
 455              		.loc 5 175 54 view .LVU118
 456 003e 17ED026A 		vldr.32	s12, [r7, #-8]
 457 0042 DFED615A 		vldr.32	s11, .L23
 458              	.LBE760:
 459              	.LBE767:
 460              	.LBB768:
 461              	.LBB764:
ARM GAS  /tmp/ccmw9Hql.s 			page 27


 235:dsp/fx/fx_engine.h ****         }
 462              		.loc 5 235 26 view .LVU119
 463 0046 B6EE047A 		vmov.f32	s14, #6.25e-1
 227:dsp/fx/fx_engine.h ****             }
 464              		.loc 5 227 68 view .LVU120
 465 004a C3F30A03 		ubfx	r3, r3, #0, #11
 466              	.LBE764:
 467              	.LBE768:
 468              	.LBB769:
 469              	.LBB770:
 470              	.LBB771:
 211:dsp/fx/fx_engine.h ****         }
 471              		.loc 5 211 26 view .LVU121
 472 004e FEEE047A 		vmov.f32	s15, #-6.25e-1
 473              	.LBE771:
 474              	.LBE770:
 475              	.LBE769:
 476              	.LBB785:
 477              	.LBB761:
 175:dsp/fx/fx_engine.h **** 
 478              		.loc 5 175 54 view .LVU122
 479 0052 36EE256A 		vadd.f32	s12, s12, s11
 480 0056 0837     		adds	r7, r7, #8
 481              	.LVL32:
 175:dsp/fx/fx_engine.h **** 
 482              		.loc 5 175 54 view .LVU123
 483              	.LBE761:
 484              	.LBE785:
 485              	.LBB786:
 486              	.LBB765:
 227:dsp/fx/fx_engine.h ****             }
 487              		.loc 5 227 17 view .LVU124
 488 0058 05EB8303 		add	r3, r5, r3, lsl #2
 489 005c D3ED006A 		vldr.32	s13, [r3]
 490              	.LVL33:
 227:dsp/fx/fx_engine.h ****             }
 491              		.loc 5 227 17 view .LVU125
 492              	.LBE765:
 493              	.LBE786:
 494              	.LBE754:
  98:dsp/fx/fx_engine.h ****         ;
 495              		.loc 5 98 9 is_stmt 1 view .LVU126
  99:dsp/fx/fx_engine.h ****     }
 496              		.loc 5 99 9 view .LVU127
 497              	.LBB969:
 498              	.LBB787:
 499              	.LBB781:
 500              	.LBB777:
 501              	.LBB772:
 502              	.LBB773:
 196:dsp/fx/fx_engine.h ****             }
 503              		.loc 5 196 57 is_stmt 0 view .LVU128
 504 0060 C4F30A03 		ubfx	r3, r4, #0, #11
 505              	.LBE773:
 506              	.LBE772:
 507              	.LBE777:
 508              	.LBE781:
ARM GAS  /tmp/ccmw9Hql.s 			page 28


 509              	.LBE787:
 510              	.LBB788:
 511              	.LBB766:
 235:dsp/fx/fx_engine.h ****         }
 512              		.loc 5 235 26 view .LVU129
 513 0064 A6EE876A 		vfma.f32	s12, s13, s14
 514              	.LVL34:
 235:dsp/fx/fx_engine.h ****         }
 515              		.loc 5 235 26 view .LVU130
 516              	.LBE766:
 517              	.LBE788:
  76:dsp/fx/diffuser.h ****             c.WriteAllPass(apl1, -kap);
 518              		.loc 6 76 13 is_stmt 1 view .LVU131
 519              	.LBB789:
 520              	.LBI769:
 215:dsp/fx/fx_engine.h ****         {
 521              		.loc 5 215 21 view .LVU132
 522              	.LBB782:
 523              	.LBI770:
 208:dsp/fx/fx_engine.h ****         {
 524              		.loc 5 208 21 view .LVU133
 525              	.LBB778:
 526              	.LBB775:
 527              	.LBI772:
 186:dsp/fx/fx_engine.h ****         {
 528              		.loc 5 186 21 view .LVU134
 186:dsp/fx/fx_engine.h ****         {
 529              		.loc 5 186 21 is_stmt 0 view .LVU135
 530              	.LBE775:
 531              	.LBE778:
 532              	.LBE782:
 533              	.LBE789:
 534              	.LBE969:
 102:dsp/fx/fx_engine.h **** };
 535              		.loc 5 102 45 is_stmt 1 view .LVU136
 536              	.LBB970:
 537              	.LBB790:
 538              	.LBB783:
 539              	.LBB779:
 540              	.LBB776:
 541              	.LBB774:
 196:dsp/fx/fx_engine.h ****             }
 542              		.loc 5 196 17 is_stmt 0 view .LVU137
 543 0068 05EB8303 		add	r3, r5, r3, lsl #2
 544 006c 83ED006A 		vstr.32	s12, [r3]
 545              	.LVL35:
 196:dsp/fx/fx_engine.h ****             }
 546              		.loc 5 196 17 view .LVU138
 547              	.LBE774:
 548              	.LBE776:
 549              	.LBE779:
 550              	.LBE783:
 551              	.LBE790:
 552              	.LBB791:
 553              	.LBB792:
 227:dsp/fx/fx_engine.h ****             }
 554              		.loc 5 227 63 view .LVU139
ARM GAS  /tmp/ccmw9Hql.s 			page 29


 555 0070 04F59973 		add	r3, r4, #306
 556              	.LBE792:
 557              	.LBE791:
 558              	.LBB795:
 559              	.LBB784:
 560              	.LBB780:
 211:dsp/fx/fx_engine.h ****         }
 561              		.loc 5 211 26 view .LVU140
 562 0074 E6EE276A 		vfma.f32	s13, s12, s15
 563              	.LVL36:
 211:dsp/fx/fx_engine.h ****         }
 564              		.loc 5 211 26 view .LVU141
 565              	.LBE780:
 566              	.LBE784:
 567              	.LBE795:
  77:dsp/fx/diffuser.h ****             c.Read(apl2 TAIL, kap);
 568              		.loc 6 77 13 is_stmt 1 view .LVU142
 569              	.LBB796:
 570              	.LBI791:
 221:dsp/fx/fx_engine.h ****         {
 571              		.loc 5 221 21 view .LVU143
 572              	.LBB793:
 227:dsp/fx/fx_engine.h ****             }
 573              		.loc 5 227 68 is_stmt 0 view .LVU144
 574 0078 C3F30A03 		ubfx	r3, r3, #0, #11
 227:dsp/fx/fx_engine.h ****             }
 575              		.loc 5 227 17 view .LVU145
 576 007c 05EB8303 		add	r3, r5, r3, lsl #2
 577 0080 93ED006A 		vldr.32	s12, [r3]
 578              	.LVL37:
 227:dsp/fx/fx_engine.h ****             }
 579              		.loc 5 227 17 view .LVU146
 580              	.LBE793:
 581              	.LBE796:
 582              	.LBE970:
  98:dsp/fx/fx_engine.h ****         ;
 583              		.loc 5 98 9 is_stmt 1 view .LVU147
  99:dsp/fx/fx_engine.h ****     }
 584              		.loc 5 99 9 view .LVU148
 585              	.LBB971:
 586              	.LBB797:
 587              	.LBB798:
 588              	.LBB799:
 589              	.LBB800:
 590              	.LBB801:
 196:dsp/fx/fx_engine.h ****             }
 591              		.loc 5 196 37 is_stmt 0 view .LVU149
 592 0084 04F17F03 		add	r3, r4, #127
 593              	.LBE801:
 594              	.LBE800:
 595              	.LBE799:
 596              	.LBE798:
 597              	.LBE797:
 598              	.LBB811:
 599              	.LBB794:
 235:dsp/fx/fx_engine.h ****         }
 600              		.loc 5 235 26 view .LVU150
ARM GAS  /tmp/ccmw9Hql.s 			page 30


 601 0088 E6EE076A 		vfma.f32	s13, s12, s14
 602              	.LVL38:
 235:dsp/fx/fx_engine.h ****         }
 603              		.loc 5 235 26 view .LVU151
 604              	.LBE794:
 605              	.LBE811:
  78:dsp/fx/diffuser.h ****             c.WriteAllPass(apl2, -kap);
 606              		.loc 6 78 13 is_stmt 1 view .LVU152
 607              	.LBB812:
 608              	.LBI797:
 215:dsp/fx/fx_engine.h ****         {
 609              		.loc 5 215 21 view .LVU153
 610              	.LBB808:
 611              	.LBI798:
 208:dsp/fx/fx_engine.h ****         {
 612              		.loc 5 208 21 view .LVU154
 613              	.LBB805:
 614              	.LBB803:
 615              	.LBI800:
 186:dsp/fx/fx_engine.h ****         {
 616              		.loc 5 186 21 view .LVU155
 186:dsp/fx/fx_engine.h ****         {
 617              		.loc 5 186 21 is_stmt 0 view .LVU156
 618              	.LBE803:
 619              	.LBE805:
 620              	.LBE808:
 621              	.LBE812:
 622              	.LBE971:
 102:dsp/fx/fx_engine.h **** };
 623              		.loc 5 102 45 is_stmt 1 view .LVU157
 624              	.LBB972:
 625              	.LBB813:
 626              	.LBB809:
 627              	.LBB806:
 628              	.LBB804:
 629              	.LBB802:
 196:dsp/fx/fx_engine.h ****             }
 630              		.loc 5 196 57 is_stmt 0 view .LVU158
 631 008c C3F30A03 		ubfx	r3, r3, #0, #11
 196:dsp/fx/fx_engine.h ****             }
 632              		.loc 5 196 17 view .LVU159
 633 0090 05EB8303 		add	r3, r5, r3, lsl #2
 634 0094 C3ED006A 		vstr.32	s13, [r3]
 635              	.LVL39:
 196:dsp/fx/fx_engine.h ****             }
 636              		.loc 5 196 17 view .LVU160
 637              	.LBE802:
 638              	.LBE804:
 639              	.LBE806:
 640              	.LBE809:
 641              	.LBE813:
 642              	.LBB814:
 643              	.LBB815:
 227:dsp/fx/fx_engine.h ****             }
 644              		.loc 5 227 63 view .LVU161
 645 0098 04F51073 		add	r3, r4, #576
 646              	.LBE815:
ARM GAS  /tmp/ccmw9Hql.s 			page 31


 647              	.LBE814:
 648              	.LBB818:
 649              	.LBB810:
 650              	.LBB807:
 211:dsp/fx/fx_engine.h ****         }
 651              		.loc 5 211 26 view .LVU162
 652 009c A6EEA76A 		vfma.f32	s12, s13, s15
 653              	.LVL40:
 211:dsp/fx/fx_engine.h ****         }
 654              		.loc 5 211 26 view .LVU163
 655              	.LBE807:
 656              	.LBE810:
 657              	.LBE818:
  79:dsp/fx/diffuser.h ****             c.Read(apl3 TAIL, kap);
 658              		.loc 6 79 13 is_stmt 1 view .LVU164
 659              	.LBB819:
 660              	.LBI814:
 221:dsp/fx/fx_engine.h ****         {
 661              		.loc 5 221 21 view .LVU165
 662              	.LBB816:
 227:dsp/fx/fx_engine.h ****             }
 663              		.loc 5 227 68 is_stmt 0 view .LVU166
 664 00a0 C3F30A03 		ubfx	r3, r3, #0, #11
 227:dsp/fx/fx_engine.h ****             }
 665              		.loc 5 227 17 view .LVU167
 666 00a4 05EB8303 		add	r3, r5, r3, lsl #2
 667 00a8 D3ED006A 		vldr.32	s13, [r3]
 668              	.LVL41:
 227:dsp/fx/fx_engine.h ****             }
 669              		.loc 5 227 17 view .LVU168
 670              	.LBE816:
 671              	.LBE819:
 672              	.LBE972:
  98:dsp/fx/fx_engine.h ****         ;
 673              		.loc 5 98 9 is_stmt 1 view .LVU169
  99:dsp/fx/fx_engine.h ****     }
 674              		.loc 5 99 9 view .LVU170
 675              	.LBB973:
 676              	.LBB820:
 677              	.LBB821:
 678              	.LBB822:
 679              	.LBB823:
 680              	.LBB824:
 196:dsp/fx/fx_engine.h ****             }
 681              		.loc 5 196 37 is_stmt 0 view .LVU171
 682 00ac 04F59A73 		add	r3, r4, #308
 683              	.LBE824:
 684              	.LBE823:
 685              	.LBE822:
 686              	.LBE821:
 687              	.LBE820:
 688              	.LBB834:
 689              	.LBB817:
 235:dsp/fx/fx_engine.h ****         }
 690              		.loc 5 235 26 view .LVU172
 691 00b0 A6EE876A 		vfma.f32	s12, s13, s14
 692              	.LVL42:
ARM GAS  /tmp/ccmw9Hql.s 			page 32


 235:dsp/fx/fx_engine.h ****         }
 693              		.loc 5 235 26 view .LVU173
 694              	.LBE817:
 695              	.LBE834:
  80:dsp/fx/diffuser.h ****             c.WriteAllPass(apl3, -kap);
 696              		.loc 6 80 13 is_stmt 1 view .LVU174
 697              	.LBB835:
 698              	.LBI820:
 215:dsp/fx/fx_engine.h ****         {
 699              		.loc 5 215 21 view .LVU175
 700              	.LBB831:
 701              	.LBI821:
 208:dsp/fx/fx_engine.h ****         {
 702              		.loc 5 208 21 view .LVU176
 703              	.LBB828:
 704              	.LBB826:
 705              	.LBI823:
 186:dsp/fx/fx_engine.h ****         {
 706              		.loc 5 186 21 view .LVU177
 186:dsp/fx/fx_engine.h ****         {
 707              		.loc 5 186 21 is_stmt 0 view .LVU178
 708              	.LBE826:
 709              	.LBE828:
 710              	.LBE831:
 711              	.LBE835:
 712              	.LBE973:
 102:dsp/fx/fx_engine.h **** };
 713              		.loc 5 102 45 is_stmt 1 view .LVU179
 714              	.LBB974:
 715              	.LBB836:
 716              	.LBB832:
 717              	.LBB829:
 718              	.LBB827:
 719              	.LBB825:
 196:dsp/fx/fx_engine.h ****             }
 720              		.loc 5 196 57 is_stmt 0 view .LVU180
 721 00b4 C3F30A03 		ubfx	r3, r3, #0, #11
 196:dsp/fx/fx_engine.h ****             }
 722              		.loc 5 196 17 view .LVU181
 723 00b8 05EB8303 		add	r3, r5, r3, lsl #2
 724 00bc 83ED006A 		vstr.32	s12, [r3]
 725              	.LVL43:
 196:dsp/fx/fx_engine.h ****             }
 726              		.loc 5 196 17 view .LVU182
 727              	.LBE825:
 728              	.LBE827:
 729              	.LBE829:
 730              	.LBE832:
 731              	.LBE836:
 732              	.LBB837:
 733              	.LBB838:
 227:dsp/fx/fx_engine.h ****             }
 734              		.loc 5 227 63 view .LVU183
 735 00c0 04F2FD33 		addw	r3, r4, #1021
 736              	.LBE838:
 737              	.LBE837:
 738              	.LBB841:
ARM GAS  /tmp/ccmw9Hql.s 			page 33


 739              	.LBB833:
 740              	.LBB830:
 211:dsp/fx/fx_engine.h ****         }
 741              		.loc 5 211 26 view .LVU184
 742 00c4 E6EE276A 		vfma.f32	s13, s12, s15
 743              	.LVL44:
 211:dsp/fx/fx_engine.h ****         }
 744              		.loc 5 211 26 view .LVU185
 745              	.LBE830:
 746              	.LBE833:
 747              	.LBE841:
  81:dsp/fx/diffuser.h ****             c.Read(apl4 TAIL, kap);
 748              		.loc 6 81 13 is_stmt 1 view .LVU186
 749              	.LBB842:
 750              	.LBI837:
 221:dsp/fx/fx_engine.h ****         {
 751              		.loc 5 221 21 view .LVU187
 752              	.LBB839:
 227:dsp/fx/fx_engine.h ****             }
 753              		.loc 5 227 68 is_stmt 0 view .LVU188
 754 00c8 C3F30A03 		ubfx	r3, r3, #0, #11
 227:dsp/fx/fx_engine.h ****             }
 755              		.loc 5 227 17 view .LVU189
 756 00cc 05EB8303 		add	r3, r5, r3, lsl #2
 757 00d0 93ED006A 		vldr.32	s12, [r3]
 758              	.LVL45:
 227:dsp/fx/fx_engine.h ****             }
 759              		.loc 5 227 17 view .LVU190
 760              	.LBE839:
 761              	.LBE842:
 762              	.LBE974:
  98:dsp/fx/fx_engine.h ****         ;
 763              		.loc 5 98 9 is_stmt 1 view .LVU191
  99:dsp/fx/fx_engine.h ****     }
 764              		.loc 5 99 9 view .LVU192
 765              	.LBB975:
 766              	.LBB843:
 767              	.LBB844:
 768              	.LBB845:
 769              	.LBB846:
 770              	.LBB847:
 196:dsp/fx/fx_engine.h ****             }
 771              		.loc 5 196 37 is_stmt 0 view .LVU193
 772 00d4 04F24223 		addw	r3, r4, #578
 773              	.LBE847:
 774              	.LBE846:
 775              	.LBE845:
 776              	.LBE844:
 777              	.LBE843:
 778              	.LBB859:
 779              	.LBB840:
 235:dsp/fx/fx_engine.h ****         }
 780              		.loc 5 235 26 view .LVU194
 781 00d8 E6EE076A 		vfma.f32	s13, s12, s14
 782              	.LVL46:
 235:dsp/fx/fx_engine.h ****         }
 783              		.loc 5 235 26 view .LVU195
ARM GAS  /tmp/ccmw9Hql.s 			page 34


 784              	.LBE840:
 785              	.LBE859:
  82:dsp/fx/diffuser.h ****             c.WriteAllPass(apl4, -kap);
 786              		.loc 6 82 13 is_stmt 1 view .LVU196
 787              	.LBB860:
 788              	.LBI843:
 215:dsp/fx/fx_engine.h ****         {
 789              		.loc 5 215 21 view .LVU197
 790              	.LBB856:
 791              	.LBI844:
 208:dsp/fx/fx_engine.h ****         {
 792              		.loc 5 208 21 view .LVU198
 793              	.LBB853:
 794              	.LBB850:
 795              	.LBI846:
 186:dsp/fx/fx_engine.h ****         {
 796              		.loc 5 186 21 view .LVU199
 186:dsp/fx/fx_engine.h ****         {
 797              		.loc 5 186 21 is_stmt 0 view .LVU200
 798              	.LBE850:
 799              	.LBE853:
 800              	.LBE856:
 801              	.LBE860:
 802              	.LBE975:
 102:dsp/fx/fx_engine.h **** };
 803              		.loc 5 102 45 is_stmt 1 view .LVU201
 804              	.LBB976:
 805              	.LBB861:
 806              	.LBB857:
 807              	.LBB854:
 808              	.LBB851:
 809              	.LBB848:
 196:dsp/fx/fx_engine.h ****             }
 810              		.loc 5 196 57 is_stmt 0 view .LVU202
 811 00dc C3F30A03 		ubfx	r3, r3, #0, #11
 196:dsp/fx/fx_engine.h ****             }
 812              		.loc 5 196 17 view .LVU203
 813 00e0 05EB8303 		add	r3, r5, r3, lsl #2
 814              	.LBE848:
 815              	.LBE851:
 211:dsp/fx/fx_engine.h ****         }
 816              		.loc 5 211 26 view .LVU204
 817 00e4 A6EEA76A 		vfma.f32	s12, s13, s15
 818              	.LVL47:
 819              	.LBB852:
 820              	.LBB849:
 196:dsp/fx/fx_engine.h ****             }
 821              		.loc 5 196 17 view .LVU205
 822 00e8 C3ED006A 		vstr.32	s13, [r3]
 823              	.LVL48:
 196:dsp/fx/fx_engine.h ****             }
 824              		.loc 5 196 17 view .LVU206
 825              	.LBE849:
 826              	.LBE852:
 827              	.LBE854:
 828              	.LBE857:
 829              	.LBE861:
ARM GAS  /tmp/ccmw9Hql.s 			page 35


  83:dsp/fx/diffuser.h ****             c.Write(wet, 0.0f);
  84:dsp/fx/diffuser.h ****             in_out->l += amount_ * (wet - in_out->l);
 830              		.loc 6 84 23 view .LVU207
 831 00ec D6ED0A4A 		vldr.32	s9, [r6, #40]
 832              	.LBB862:
 833              	.LBB863:
 227:dsp/fx/fx_engine.h ****             }
 834              		.loc 5 227 63 view .LVU208
 835 00f0 04F29543 		addw	r3, r4, #1173
 227:dsp/fx/fx_engine.h ****             }
 836              		.loc 5 227 68 view .LVU209
 837 00f4 C3F30A03 		ubfx	r3, r3, #0, #11
 227:dsp/fx/fx_engine.h ****             }
 838              		.loc 5 227 17 view .LVU210
 839 00f8 05EB8303 		add	r3, r5, r3, lsl #2
 840              	.LBE863:
 841              	.LBE862:
 842              	.LBB866:
 843              	.LBB858:
 844              	.LBB855:
 211:dsp/fx/fx_engine.h ****         }
 845              		.loc 5 211 26 view .LVU211
 846 00fc F0EE466A 		vmov.f32	s13, s12
 847              	.LVL49:
 211:dsp/fx/fx_engine.h ****         }
 848              		.loc 5 211 26 view .LVU212
 849              	.LBE855:
 850              	.LBE858:
 851              	.LBE866:
  83:dsp/fx/diffuser.h ****             c.Write(wet, 0.0f);
 852              		.loc 6 83 13 is_stmt 1 view .LVU213
 853              		.loc 6 84 13 view .LVU214
 854              		.loc 6 84 23 is_stmt 0 view .LVU215
 855 0100 17ED046A 		vldr.32	s12, [r7, #-16]
 856              	.LVL50:
 857              		.loc 6 84 41 view .LVU216
 858 0104 36EEC65A 		vsub.f32	s10, s13, s12
 859              		.loc 6 84 23 view .LVU217
 860 0108 A4EE856A 		vfma.f32	s12, s9, s10
 861 010c 07ED046A 		vstr.32	s12, [r7, #-16]
 862              	.LVL51:
  85:dsp/fx/diffuser.h **** 
  86:dsp/fx/diffuser.h ****             c.Read(in_out->r);
 863              		.loc 6 86 13 is_stmt 1 view .LVU218
 864              	.LBB867:
 865              	.LBI867:
 175:dsp/fx/fx_engine.h **** 
 866              		.loc 5 175 21 view .LVU219
 867              	.LBB868:
 175:dsp/fx/fx_engine.h **** 
 868              		.loc 5 175 54 is_stmt 0 view .LVU220
 869 0110 17ED036A 		vldr.32	s12, [r7, #-12]
 870 0114 A6EEA56A 		vfma.f32	s12, s13, s11
 871              	.LBE868:
 872              	.LBE867:
  87:dsp/fx/diffuser.h ****             c.Read(apr1 TAIL, kap);
 873              		.loc 6 87 13 is_stmt 1 view .LVU221
ARM GAS  /tmp/ccmw9Hql.s 			page 36


 874              	.LVL52:
 875              	.LBB869:
 876              	.LBI862:
 221:dsp/fx/fx_engine.h ****         {
 877              		.loc 5 221 21 view .LVU222
 878              	.LBB864:
 227:dsp/fx/fx_engine.h ****             }
 879              		.loc 5 227 17 is_stmt 0 view .LVU223
 880 0118 D3ED006A 		vldr.32	s13, [r3]
 881              	.LVL53:
 227:dsp/fx/fx_engine.h ****             }
 882              		.loc 5 227 17 view .LVU224
 883              	.LBE864:
 884              	.LBE869:
 885              	.LBE976:
  98:dsp/fx/fx_engine.h ****         ;
 886              		.loc 5 98 9 is_stmt 1 view .LVU225
  99:dsp/fx/fx_engine.h ****     }
 887              		.loc 5 99 9 view .LVU226
 888              	.LBB977:
 889              	.LBB870:
 890              	.LBB871:
 891              	.LBB872:
 892              	.LBB873:
 893              	.LBB874:
 196:dsp/fx/fx_engine.h ****             }
 894              		.loc 5 196 37 is_stmt 0 view .LVU227
 895 011c 04F2FF33 		addw	r3, r4, #1023
 196:dsp/fx/fx_engine.h ****             }
 896              		.loc 5 196 57 view .LVU228
 897 0120 C3F30A03 		ubfx	r3, r3, #0, #11
 196:dsp/fx/fx_engine.h ****             }
 898              		.loc 5 196 17 view .LVU229
 899 0124 05EB8303 		add	r3, r5, r3, lsl #2
 900              	.LBE874:
 901              	.LBE873:
 902              	.LBE872:
 903              	.LBE871:
 904              	.LBE870:
 905              	.LBB884:
 906              	.LBB865:
 235:dsp/fx/fx_engine.h ****         }
 907              		.loc 5 235 26 view .LVU230
 908 0128 A6EE876A 		vfma.f32	s12, s13, s14
 909              	.LVL54:
 235:dsp/fx/fx_engine.h ****         }
 910              		.loc 5 235 26 view .LVU231
 911              	.LBE865:
 912              	.LBE884:
  88:dsp/fx/diffuser.h ****             c.WriteAllPass(apr1, -kap);
 913              		.loc 6 88 13 is_stmt 1 view .LVU232
 914              	.LBB885:
 915              	.LBI870:
 215:dsp/fx/fx_engine.h ****         {
 916              		.loc 5 215 21 view .LVU233
 917              	.LBB881:
 918              	.LBI871:
ARM GAS  /tmp/ccmw9Hql.s 			page 37


 208:dsp/fx/fx_engine.h ****         {
 919              		.loc 5 208 21 view .LVU234
 920              	.LBB878:
 921              	.LBB876:
 922              	.LBI873:
 186:dsp/fx/fx_engine.h ****         {
 923              		.loc 5 186 21 view .LVU235
 186:dsp/fx/fx_engine.h ****         {
 924              		.loc 5 186 21 is_stmt 0 view .LVU236
 925              	.LBE876:
 926              	.LBE878:
 927              	.LBE881:
 928              	.LBE885:
 929              	.LBE977:
 102:dsp/fx/fx_engine.h **** };
 930              		.loc 5 102 45 is_stmt 1 view .LVU237
 931              	.LBB978:
 932              	.LBB886:
 933              	.LBB882:
 934              	.LBB879:
 935              	.LBB877:
 936              	.LBB875:
 196:dsp/fx/fx_engine.h ****             }
 937              		.loc 5 196 17 is_stmt 0 view .LVU238
 938 012c 83ED006A 		vstr.32	s12, [r3]
 939              	.LVL55:
 196:dsp/fx/fx_engine.h ****             }
 940              		.loc 5 196 17 view .LVU239
 941              	.LBE875:
 942              	.LBE877:
 943              	.LBE879:
 944              	.LBE882:
 945              	.LBE886:
 946              	.LBB887:
 947              	.LBB888:
 227:dsp/fx/fx_engine.h ****             }
 948              		.loc 5 227 63 view .LVU240
 949 0130 04F26353 		addw	r3, r4, #1379
 950              	.LBE888:
 951              	.LBE887:
 952              	.LBB891:
 953              	.LBB883:
 954              	.LBB880:
 211:dsp/fx/fx_engine.h ****         }
 955              		.loc 5 211 26 view .LVU241
 956 0134 E6EE276A 		vfma.f32	s13, s12, s15
 957              	.LVL56:
 211:dsp/fx/fx_engine.h ****         }
 958              		.loc 5 211 26 view .LVU242
 959              	.LBE880:
 960              	.LBE883:
 961              	.LBE891:
  89:dsp/fx/diffuser.h ****             c.Read(apr2 TAIL, kap);
 962              		.loc 6 89 13 is_stmt 1 view .LVU243
 963              	.LBB892:
 964              	.LBI887:
 221:dsp/fx/fx_engine.h ****         {
ARM GAS  /tmp/ccmw9Hql.s 			page 38


 965              		.loc 5 221 21 view .LVU244
 966              	.LBB889:
 227:dsp/fx/fx_engine.h ****             }
 967              		.loc 5 227 68 is_stmt 0 view .LVU245
 968 0138 C3F30A03 		ubfx	r3, r3, #0, #11
 227:dsp/fx/fx_engine.h ****             }
 969              		.loc 5 227 17 view .LVU246
 970 013c 05EB8303 		add	r3, r5, r3, lsl #2
 971 0140 93ED006A 		vldr.32	s12, [r3]
 972              	.LVL57:
 227:dsp/fx/fx_engine.h ****             }
 973              		.loc 5 227 17 view .LVU247
 974              	.LBE889:
 975              	.LBE892:
 976              	.LBE978:
  98:dsp/fx/fx_engine.h ****         ;
 977              		.loc 5 98 9 is_stmt 1 view .LVU248
  99:dsp/fx/fx_engine.h ****     }
 978              		.loc 5 99 9 view .LVU249
 979              	.LBB979:
 980              	.LBB893:
 981              	.LBB894:
 982              	.LBB895:
 983              	.LBB896:
 984              	.LBB897:
 196:dsp/fx/fx_engine.h ****             }
 985              		.loc 5 196 37 is_stmt 0 view .LVU250
 986 0144 04F29743 		addw	r3, r4, #1175
 987              	.LBE897:
 988              	.LBE896:
 989              	.LBE895:
 990              	.LBE894:
 991              	.LBE893:
 992              	.LBB907:
 993              	.LBB890:
 235:dsp/fx/fx_engine.h ****         }
 994              		.loc 5 235 26 view .LVU251
 995 0148 E6EE076A 		vfma.f32	s13, s12, s14
 996              	.LVL58:
 235:dsp/fx/fx_engine.h ****         }
 997              		.loc 5 235 26 view .LVU252
 998              	.LBE890:
 999              	.LBE907:
  90:dsp/fx/diffuser.h ****             c.WriteAllPass(apr2, -kap);
 1000              		.loc 6 90 13 is_stmt 1 view .LVU253
 1001              	.LBB908:
 1002              	.LBI893:
 215:dsp/fx/fx_engine.h ****         {
 1003              		.loc 5 215 21 view .LVU254
 1004              	.LBB904:
 1005              	.LBI894:
 208:dsp/fx/fx_engine.h ****         {
 1006              		.loc 5 208 21 view .LVU255
 1007              	.LBB901:
 1008              	.LBB899:
 1009              	.LBI896:
 186:dsp/fx/fx_engine.h ****         {
ARM GAS  /tmp/ccmw9Hql.s 			page 39


 1010              		.loc 5 186 21 view .LVU256
 186:dsp/fx/fx_engine.h ****         {
 1011              		.loc 5 186 21 is_stmt 0 view .LVU257
 1012              	.LBE899:
 1013              	.LBE901:
 1014              	.LBE904:
 1015              	.LBE908:
 1016              	.LBE979:
 102:dsp/fx/fx_engine.h **** };
 1017              		.loc 5 102 45 is_stmt 1 view .LVU258
 1018              	.LBB980:
 1019              	.LBB909:
 1020              	.LBB905:
 1021              	.LBB902:
 1022              	.LBB900:
 1023              	.LBB898:
 196:dsp/fx/fx_engine.h ****             }
 1024              		.loc 5 196 57 is_stmt 0 view .LVU259
 1025 014c C3F30A03 		ubfx	r3, r3, #0, #11
 196:dsp/fx/fx_engine.h ****             }
 1026              		.loc 5 196 17 view .LVU260
 1027 0150 05EB8303 		add	r3, r5, r3, lsl #2
 1028 0154 C3ED006A 		vstr.32	s13, [r3]
 1029              	.LVL59:
 196:dsp/fx/fx_engine.h ****             }
 1030              		.loc 5 196 17 view .LVU261
 1031              	.LBE898:
 1032              	.LBE900:
 1033              	.LBE902:
 1034              	.LBE905:
 1035              	.LBE909:
 1036              	.LBB910:
 1037              	.LBB911:
 227:dsp/fx/fx_engine.h ****             }
 1038              		.loc 5 227 63 view .LVU262
 1039 0158 04F25963 		addw	r3, r4, #1625
 1040              	.LBE911:
 1041              	.LBE910:
 1042              	.LBB914:
 1043              	.LBB906:
 1044              	.LBB903:
 211:dsp/fx/fx_engine.h ****         }
 1045              		.loc 5 211 26 view .LVU263
 1046 015c A6EEA76A 		vfma.f32	s12, s13, s15
 1047              	.LVL60:
 211:dsp/fx/fx_engine.h ****         }
 1048              		.loc 5 211 26 view .LVU264
 1049              	.LBE903:
 1050              	.LBE906:
 1051              	.LBE914:
  91:dsp/fx/diffuser.h ****             c.Read(apr3 TAIL, kap);
 1052              		.loc 6 91 13 is_stmt 1 view .LVU265
 1053              	.LBB915:
 1054              	.LBI910:
 221:dsp/fx/fx_engine.h ****         {
 1055              		.loc 5 221 21 view .LVU266
 1056              	.LBB912:
ARM GAS  /tmp/ccmw9Hql.s 			page 40


 227:dsp/fx/fx_engine.h ****             }
 1057              		.loc 5 227 68 is_stmt 0 view .LVU267
 1058 0160 C3F30A03 		ubfx	r3, r3, #0, #11
 227:dsp/fx/fx_engine.h ****             }
 1059              		.loc 5 227 17 view .LVU268
 1060 0164 05EB8303 		add	r3, r5, r3, lsl #2
 1061 0168 D3ED006A 		vldr.32	s13, [r3]
 1062              	.LVL61:
 227:dsp/fx/fx_engine.h ****             }
 1063              		.loc 5 227 17 view .LVU269
 1064              	.LBE912:
 1065              	.LBE915:
 1066              	.LBE980:
  98:dsp/fx/fx_engine.h ****         ;
 1067              		.loc 5 98 9 is_stmt 1 view .LVU270
  99:dsp/fx/fx_engine.h ****     }
 1068              		.loc 5 99 9 view .LVU271
 1069              	.LBB981:
 1070              	.LBB916:
 1071              	.LBB917:
 1072              	.LBB918:
 1073              	.LBB919:
 1074              	.LBB920:
 196:dsp/fx/fx_engine.h ****             }
 1075              		.loc 5 196 37 is_stmt 0 view .LVU272
 1076 016c 04F26553 		addw	r3, r4, #1381
 1077              	.LBE920:
 1078              	.LBE919:
 1079              	.LBE918:
 1080              	.LBE917:
 1081              	.LBE916:
 1082              	.LBB930:
 1083              	.LBB913:
 235:dsp/fx/fx_engine.h ****         }
 1084              		.loc 5 235 26 view .LVU273
 1085 0170 A6EE876A 		vfma.f32	s12, s13, s14
 1086              	.LVL62:
 235:dsp/fx/fx_engine.h ****         }
 1087              		.loc 5 235 26 view .LVU274
 1088              	.LBE913:
 1089              	.LBE930:
  92:dsp/fx/diffuser.h ****             c.WriteAllPass(apr3, -kap);
 1090              		.loc 6 92 13 is_stmt 1 view .LVU275
 1091              	.LBB931:
 1092              	.LBI916:
 215:dsp/fx/fx_engine.h ****         {
 1093              		.loc 5 215 21 view .LVU276
 1094              	.LBB927:
 1095              	.LBI917:
 208:dsp/fx/fx_engine.h ****         {
 1096              		.loc 5 208 21 view .LVU277
 1097              	.LBB924:
 1098              	.LBB922:
 1099              	.LBI919:
 186:dsp/fx/fx_engine.h ****         {
 1100              		.loc 5 186 21 view .LVU278
 186:dsp/fx/fx_engine.h ****         {
ARM GAS  /tmp/ccmw9Hql.s 			page 41


 1101              		.loc 5 186 21 is_stmt 0 view .LVU279
 1102              	.LBE922:
 1103              	.LBE924:
 1104              	.LBE927:
 1105              	.LBE931:
 1106              	.LBE981:
 102:dsp/fx/fx_engine.h **** };
 1107              		.loc 5 102 45 is_stmt 1 view .LVU280
 1108              	.LBB982:
 1109              	.LBB932:
 1110              	.LBB928:
 1111              	.LBB925:
 1112              	.LBB923:
 1113              	.LBB921:
 196:dsp/fx/fx_engine.h ****             }
 1114              		.loc 5 196 57 is_stmt 0 view .LVU281
 1115 0174 C3F30A03 		ubfx	r3, r3, #0, #11
 196:dsp/fx/fx_engine.h ****             }
 1116              		.loc 5 196 17 view .LVU282
 1117 0178 05EB8303 		add	r3, r5, r3, lsl #2
 1118 017c 83ED006A 		vstr.32	s12, [r3]
 1119              	.LVL63:
 196:dsp/fx/fx_engine.h ****             }
 1120              		.loc 5 196 17 view .LVU283
 1121              	.LBE921:
 1122              	.LBE923:
 1123              	.LBE925:
 1124              	.LBE928:
 1125              	.LBE932:
 1126              	.LBB933:
 1127              	.LBB934:
 227:dsp/fx/fx_engine.h ****             }
 1128              		.loc 5 227 63 view .LVU284
 1129 0180 04F2EF73 		addw	r3, r4, #2031
 1130              	.LBE934:
 1131              	.LBE933:
 1132              	.LBB939:
 1133              	.LBB929:
 1134              	.LBB926:
 211:dsp/fx/fx_engine.h ****         }
 1135              		.loc 5 211 26 view .LVU285
 1136 0184 E6EE276A 		vfma.f32	s13, s12, s15
 1137              	.LVL64:
 211:dsp/fx/fx_engine.h ****         }
 1138              		.loc 5 211 26 view .LVU286
 1139              	.LBE926:
 1140              	.LBE929:
 1141              	.LBE939:
  93:dsp/fx/diffuser.h ****             c.Read(apr4 TAIL, kap);
 1142              		.loc 6 93 13 is_stmt 1 view .LVU287
 1143              	.LBB940:
 1144              	.LBI933:
 221:dsp/fx/fx_engine.h ****         {
 1145              		.loc 5 221 21 view .LVU288
 221:dsp/fx/fx_engine.h ****         {
 1146              		.loc 5 221 21 is_stmt 0 view .LVU289
 1147              	.LBE940:
ARM GAS  /tmp/ccmw9Hql.s 			page 42


 1148              	.LBB941:
 1149              	.LBB942:
 1150              	.LBB943:
 1151              	.LBB944:
 1152              	.LBB945:
 196:dsp/fx/fx_engine.h ****             }
 1153              		.loc 5 196 37 view .LVU290
 1154 0188 04F25B64 		addw	r4, r4, #1627
 1155              	.LBE945:
 1156              	.LBE944:
 1157              	.LBE943:
 1158              	.LBE942:
 1159              	.LBE941:
 1160              	.LBB961:
 1161              	.LBB935:
 227:dsp/fx/fx_engine.h ****             }
 1162              		.loc 5 227 68 view .LVU291
 1163 018c C3F30A03 		ubfx	r3, r3, #0, #11
 1164              	.LBE935:
 1165              	.LBE961:
 1166              	.LBB962:
 1167              	.LBB957:
 1168              	.LBB953:
 1169              	.LBB949:
 1170              	.LBB946:
 196:dsp/fx/fx_engine.h ****             }
 1171              		.loc 5 196 57 view .LVU292
 1172 0190 C4F30A04 		ubfx	r4, r4, #0, #11
 1173              	.LBE946:
 1174              	.LBE949:
 1175              	.LBE953:
 1176              	.LBE957:
 1177              	.LBE962:
 1178              	.LBB963:
 1179              	.LBB936:
 227:dsp/fx/fx_engine.h ****             }
 1180              		.loc 5 227 17 view .LVU293
 1181 0194 05EB8303 		add	r3, r5, r3, lsl #2
 1182              	.LBE936:
 1183              	.LBE963:
 1184              	.LBB964:
 1185              	.LBB958:
 1186              	.LBB954:
 1187              	.LBB950:
 1188              	.LBB947:
 196:dsp/fx/fx_engine.h ****             }
 1189              		.loc 5 196 17 view .LVU294
 1190 0198 05EB8404 		add	r4, r5, r4, lsl #2
 1191              	.LBE947:
 1192              	.LBE950:
 1193              	.LBE954:
 1194              	.LBE958:
 1195              	.LBE964:
 1196              	.LBB965:
 1197              	.LBB937:
 227:dsp/fx/fx_engine.h ****             }
 1198              		.loc 5 227 17 view .LVU295
ARM GAS  /tmp/ccmw9Hql.s 			page 43


 1199 019c 93ED006A 		vldr.32	s12, [r3]
 1200              	.LVL65:
 227:dsp/fx/fx_engine.h ****             }
 1201              		.loc 5 227 17 view .LVU296
 1202              	.LBE937:
 1203              	.LBE965:
 1204              	.LBE982:
  98:dsp/fx/fx_engine.h ****         ;
 1205              		.loc 5 98 9 is_stmt 1 view .LVU297
  99:dsp/fx/fx_engine.h ****     }
 1206              		.loc 5 99 9 view .LVU298
 1207              	.LBB983:
 1208              	.LBB966:
 1209              	.LBB938:
 235:dsp/fx/fx_engine.h ****         }
 1210              		.loc 5 235 26 is_stmt 0 view .LVU299
 1211 01a0 E6EE076A 		vfma.f32	s13, s12, s14
 1212              	.LVL66:
 235:dsp/fx/fx_engine.h ****         }
 1213              		.loc 5 235 26 view .LVU300
 1214              	.LBE938:
 1215              	.LBE966:
  94:dsp/fx/diffuser.h ****             c.WriteAllPass(apr4, -kap);
 1216              		.loc 6 94 13 is_stmt 1 view .LVU301
 1217              	.LBB967:
 1218              	.LBI941:
 215:dsp/fx/fx_engine.h ****         {
 1219              		.loc 5 215 21 view .LVU302
 1220              	.LBB959:
 1221              	.LBI942:
 208:dsp/fx/fx_engine.h ****         {
 1222              		.loc 5 208 21 view .LVU303
 1223              	.LBB955:
 1224              	.LBB951:
 1225              	.LBI944:
 186:dsp/fx/fx_engine.h ****         {
 1226              		.loc 5 186 21 view .LVU304
 186:dsp/fx/fx_engine.h ****         {
 1227              		.loc 5 186 21 is_stmt 0 view .LVU305
 1228              	.LBE951:
 1229              	.LBE955:
 1230              	.LBE959:
 1231              	.LBE967:
 1232              	.LBE983:
 102:dsp/fx/fx_engine.h **** };
 1233              		.loc 5 102 45 is_stmt 1 view .LVU306
 1234              	.LBB984:
 1235              	.LBB968:
 1236              	.LBB960:
 1237              	.LBB956:
 211:dsp/fx/fx_engine.h ****         }
 1238              		.loc 5 211 26 is_stmt 0 view .LVU307
 1239 01a4 A6EEA76A 		vfma.f32	s12, s13, s15
 1240              	.LVL67:
 1241              	.LBB952:
 1242              	.LBB948:
 196:dsp/fx/fx_engine.h ****             }
ARM GAS  /tmp/ccmw9Hql.s 			page 44


 1243              		.loc 5 196 17 view .LVU308
 1244 01a8 C4ED006A 		vstr.32	s13, [r4]
 1245              	.LVL68:
 196:dsp/fx/fx_engine.h ****             }
 1246              		.loc 5 196 17 view .LVU309
 1247              	.LBE948:
 1248              	.LBE952:
 1249              	.LBE956:
 1250              	.LBE960:
 1251              	.LBE968:
  95:dsp/fx/diffuser.h ****             c.Write(wet, 0.0f);
 1252              		.loc 6 95 13 is_stmt 1 view .LVU310
  96:dsp/fx/diffuser.h ****             in_out->r += amount_ * (wet - in_out->r);
 1253              		.loc 6 96 13 view .LVU311
 1254              		.loc 6 96 23 is_stmt 0 view .LVU312
 1255 01ac 57ED037A 		vldr.32	s15, [r7, #-12]
 1256 01b0 96ED0A7A 		vldr.32	s14, [r6, #40]
 1257              		.loc 6 96 41 view .LVU313
 1258 01b4 36EE676A 		vsub.f32	s12, s12, s15
 1259              	.LVL69:
 1260              		.loc 6 96 23 view .LVU314
 1261 01b8 E7EE067A 		vfma.f32	s15, s14, s12
 1262 01bc 47ED037A 		vstr.32	s15, [r7, #-12]
  97:dsp/fx/diffuser.h **** 
  98:dsp/fx/diffuser.h ****             ++in_out;
 1263              		.loc 6 98 13 is_stmt 1 view .LVU315
 1264              	.LVL70:
 1265              		.loc 6 98 13 is_stmt 0 view .LVU316
 1266              	.LBE984:
  69:dsp/fx/diffuser.h ****         {
 1267              		.loc 6 69 9 view .LVU317
 1268 01c0 24E7     		b	.L22
 1269              	.LVL71:
 1270              	.L17:
  99:dsp/fx/diffuser.h ****         }
 100:dsp/fx/diffuser.h ****     }
 1271              		.loc 6 100 5 view .LVU318
 1272 01c2 BDE8F081 		pop	{r4, r5, r6, r7, r8, pc}
 1273              	.LVL72:
 1274              	.L24:
 1275              		.loc 6 100 5 view .LVU319
 1276 01c6 00BF     		.align	2
 1277              	.L23:
 1278 01c8 00000000 		.word	0
 1279              		.cfi_endproc
 1280              	.LFE4268:
 1282              		.section	.text._ZN6Reverb7ProcessEP10FloatFramej,"axG",%progbits,_ZN6Reverb7ProcessEP10FloatFramej
 1283              		.align	1
 1284              		.weak	_ZN6Reverb7ProcessEP10FloatFramej
 1285              		.syntax unified
 1286              		.thumb
 1287              		.thumb_func
 1288              		.fpu fpv5-d16
 1290              	_ZN6Reverb7ProcessEP10FloatFramej:
 1291              	.LVL73:
 1292              	.LFB4289:
 1293              		.file 7 "dsp/fx/reverb.h"
ARM GAS  /tmp/ccmw9Hql.s 			page 45


   1:dsp/fx/reverb.h **** // Copyright 2014 Emilie Gillet.
   2:dsp/fx/reverb.h **** //
   3:dsp/fx/reverb.h **** // Author: Emilie Gillet (emilie.o.gillet@gmail.com)
   4:dsp/fx/reverb.h **** //
   5:dsp/fx/reverb.h **** // Permission is hereby granted, free of charge, to any person obtaining a copy
   6:dsp/fx/reverb.h **** // of this software and associated documentation files (the "Software"), to deal
   7:dsp/fx/reverb.h **** // in the Software without restriction, including without limitation the rights
   8:dsp/fx/reverb.h **** // to use, copy, modify, merge, publish, distribute, sublicense, and/or sell
   9:dsp/fx/reverb.h **** // copies of the Software, and to permit persons to whom the Software is
  10:dsp/fx/reverb.h **** // furnished to do so, subject to the following conditions:
  11:dsp/fx/reverb.h **** //
  12:dsp/fx/reverb.h **** // The above copyright notice and this permission notice shall be included in
  13:dsp/fx/reverb.h **** // all copies or substantial portions of the Software.
  14:dsp/fx/reverb.h **** //
  15:dsp/fx/reverb.h **** // THE SOFTWARE IS PROVIDED "AS IS", WITHOUT WARRANTY OF ANY KIND, EXPRESS OR
  16:dsp/fx/reverb.h **** // IMPLIED, INCLUDING BUT NOT LIMITED TO THE WARRANTIES OF MERCHANTABILITY,
  17:dsp/fx/reverb.h **** // FITNESS FOR A PARTICULAR PURPOSE AND NONINFRINGEMENT. IN NO EVENT SHALL THE
  18:dsp/fx/reverb.h **** // AUTHORS OR COPYRIGHT HOLDERS BE LIABLE FOR ANY CLAIM, DAMAGES OR OTHER
  19:dsp/fx/reverb.h **** // LIABILITY, WHETHER IN AN ACTION OF CONTRACT, TORT OR OTHERWISE, ARISING FROM,
  20:dsp/fx/reverb.h **** // OUT OF OR IN CONNECTION WITH THE SOFTWARE OR THE USE OR OTHER DEALINGS IN
  21:dsp/fx/reverb.h **** // THE SOFTWARE.
  22:dsp/fx/reverb.h **** //
  23:dsp/fx/reverb.h **** // See http://creativecommons.org/licenses/MIT/ for more information.
  24:dsp/fx/reverb.h **** //
  25:dsp/fx/reverb.h **** // -----------------------------------------------------------------------------
  26:dsp/fx/reverb.h **** //
  27:dsp/fx/reverb.h **** // Reverb.
  28:dsp/fx/reverb.h **** 
  29:dsp/fx/reverb.h **** #ifndef CLOUDS_DSP_FX_REVERB_H_
  30:dsp/fx/reverb.h **** #define CLOUDS_DSP_FX_REVERB_H_
  31:dsp/fx/reverb.h **** 
  32:dsp/fx/reverb.h **** 
  33:dsp/fx/reverb.h **** #include "fx_engine.h"
  34:dsp/fx/reverb.h **** 
  35:dsp/fx/reverb.h **** using namespace daisysp;
  36:dsp/fx/reverb.h **** 
  37:dsp/fx/reverb.h **** class Reverb
  38:dsp/fx/reverb.h **** {
  39:dsp/fx/reverb.h ****   public:
  40:dsp/fx/reverb.h ****     Reverb() {}
  41:dsp/fx/reverb.h ****     ~Reverb() {}
  42:dsp/fx/reverb.h **** 
  43:dsp/fx/reverb.h ****     void Init(uint16_t* buffer)
  44:dsp/fx/reverb.h ****     {
  45:dsp/fx/reverb.h ****         engine_.Init(buffer);
  46:dsp/fx/reverb.h ****         engine_.SetLFOFrequency(LFO_1, 0.5f / 32000.0f);
  47:dsp/fx/reverb.h ****         engine_.SetLFOFrequency(LFO_2, 0.3f / 32000.0f);
  48:dsp/fx/reverb.h ****         lp_        = 0.7f;
  49:dsp/fx/reverb.h ****         diffusion_ = 0.625f;
  50:dsp/fx/reverb.h ****     }
  51:dsp/fx/reverb.h **** 
  52:dsp/fx/reverb.h ****     void Process(FloatFrame* in_out, size_t size)
 1294              		.loc 7 52 10 is_stmt 1 view -0
 1295              		.cfi_startproc
 1296              		@ args = 0, pretend = 0, frame = 0
 1297              		@ frame_needed = 0, uses_anonymous_args = 0
  53:dsp/fx/reverb.h ****     {
ARM GAS  /tmp/ccmw9Hql.s 			page 46


  54:dsp/fx/reverb.h ****         // This is the Griesinger topology described in the Dattorro paper
  55:dsp/fx/reverb.h ****         // (4 AP diffusers on the input, then a loop of 2x 2AP+1Delay).
  56:dsp/fx/reverb.h ****         // Modulation is applied in the loop of the first diffuser AP for additional
  57:dsp/fx/reverb.h ****         // smearing; and to the two long delays for a slow shimmer/chorus effect.
  58:dsp/fx/reverb.h ****         typedef E::Reserve<
 1298              		.loc 7 58 9 view .LVU321
  59:dsp/fx/reverb.h ****             113,
  60:dsp/fx/reverb.h ****             E::Reserve<
  61:dsp/fx/reverb.h ****                 162,
  62:dsp/fx/reverb.h ****                 E::Reserve<
  63:dsp/fx/reverb.h ****                     241,
  64:dsp/fx/reverb.h ****                     E::Reserve<
  65:dsp/fx/reverb.h ****                         399,
  66:dsp/fx/reverb.h ****                         E::Reserve<
  67:dsp/fx/reverb.h ****                             1653,
  68:dsp/fx/reverb.h ****                             E::Reserve<
  69:dsp/fx/reverb.h ****                                 2038,
  70:dsp/fx/reverb.h ****                                 E::Reserve<
  71:dsp/fx/reverb.h ****                                     3411,
  72:dsp/fx/reverb.h ****                                     E::Reserve<
  73:dsp/fx/reverb.h ****                                         1913,
  74:dsp/fx/reverb.h ****                                         E::Reserve<1663,
  75:dsp/fx/reverb.h ****                                                    E::Reserve<4782>>>>>>>>>>
  76:dsp/fx/reverb.h ****                                 Memory;
  77:dsp/fx/reverb.h ****         E::DelayLine<Memory, 0> ap1;
 1299              		.loc 7 77 9 view .LVU322
  78:dsp/fx/reverb.h ****         E::DelayLine<Memory, 1> ap2;
 1300              		.loc 7 78 9 view .LVU323
  79:dsp/fx/reverb.h ****         E::DelayLine<Memory, 2> ap3;
 1301              		.loc 7 79 9 view .LVU324
  80:dsp/fx/reverb.h ****         E::DelayLine<Memory, 3> ap4;
 1302              		.loc 7 80 9 view .LVU325
  81:dsp/fx/reverb.h ****         E::DelayLine<Memory, 4> dap1a;
 1303              		.loc 7 81 9 view .LVU326
  82:dsp/fx/reverb.h ****         E::DelayLine<Memory, 5> dap1b;
 1304              		.loc 7 82 9 view .LVU327
  83:dsp/fx/reverb.h ****         E::DelayLine<Memory, 6> del1;
 1305              		.loc 7 83 9 view .LVU328
  84:dsp/fx/reverb.h ****         E::DelayLine<Memory, 7> dap2a;
 1306              		.loc 7 84 9 view .LVU329
  85:dsp/fx/reverb.h ****         E::DelayLine<Memory, 8> dap2b;
 1307              		.loc 7 85 9 view .LVU330
  86:dsp/fx/reverb.h ****         E::DelayLine<Memory, 9> del2;
 1308              		.loc 7 86 9 view .LVU331
  87:dsp/fx/reverb.h ****         E::Context              c;
 1309              		.loc 7 87 9 view .LVU332
 1310              	.LBB1115:
 1311              	.LBI1115:
 165:dsp/fx/fx_engine.h ****         ~Context() {}
 1312              		.loc 5 165 9 view .LVU333
 165:dsp/fx/fx_engine.h ****         ~Context() {}
 1313              		.loc 5 165 9 is_stmt 0 view .LVU334
 1314              	.LBE1115:
  88:dsp/fx/reverb.h **** 
  89:dsp/fx/reverb.h ****         const float kap    = diffusion_;
 1315              		.loc 7 89 9 is_stmt 1 view .LVU335
  52:dsp/fx/reverb.h ****     {
ARM GAS  /tmp/ccmw9Hql.s 			page 47


 1316              		.loc 7 52 10 is_stmt 0 view .LVU336
 1317 0000 2DE9F843 		push	{r3, r4, r5, r6, r7, r8, r9, lr}
 1318              		.cfi_def_cfa_offset 32
 1319              		.cfi_offset 3, -32
 1320              		.cfi_offset 4, -28
 1321              		.cfi_offset 5, -24
 1322              		.cfi_offset 6, -20
 1323              		.cfi_offset 7, -16
 1324              		.cfi_offset 8, -12
 1325              		.cfi_offset 9, -8
 1326              		.cfi_offset 14, -4
 1327 0004 0646     		mov	r6, r0
 1328 0006 9046     		mov	r8, r2
 1329 0008 01F10807 		add	r7, r1, #8
 1330 000c 2DED0E8B 		vpush.64	{d8, d9, d10, d11, d12, d13, d14}
 1331              		.cfi_def_cfa_offset 88
 1332              		.cfi_offset 80, -88
 1333              		.cfi_offset 81, -84
 1334              		.cfi_offset 82, -80
 1335              		.cfi_offset 83, -76
 1336              		.cfi_offset 84, -72
 1337              		.cfi_offset 85, -68
 1338              		.cfi_offset 86, -64
 1339              		.cfi_offset 87, -60
 1340              		.cfi_offset 88, -56
 1341              		.cfi_offset 89, -52
 1342              		.cfi_offset 90, -48
 1343              		.cfi_offset 91, -44
 1344              		.cfi_offset 92, -40
 1345              		.cfi_offset 93, -36
 1346              		.loc 7 89 21 view .LVU337
 1347 0010 90ED0D9A 		vldr.32	s18, [r0, #52]
 1348              	.LVL74:
  90:dsp/fx/reverb.h ****         const float klp    = lp_;
 1349              		.loc 7 90 9 is_stmt 1 view .LVU338
 1350              		.loc 7 90 21 is_stmt 0 view .LVU339
 1351 0014 90ED0EAA 		vldr.32	s20, [r0, #56]
 1352              	.LVL75:
  91:dsp/fx/reverb.h ****         const float krt    = reverb_time_;
 1353              		.loc 7 91 9 is_stmt 1 view .LVU340
 1354              		.loc 7 91 21 is_stmt 0 view .LVU341
 1355 0018 D0ED0CAA 		vldr.32	s21, [r0, #48]
 1356              	.LVL76:
  92:dsp/fx/reverb.h ****         const float amount = amount_;
 1357              		.loc 7 92 9 is_stmt 1 view .LVU342
 1358              		.loc 7 92 21 is_stmt 0 view .LVU343
 1359 001c D0ED0A9A 		vldr.32	s19, [r0, #40]
 1360              	.LVL77:
  93:dsp/fx/reverb.h ****         const float gain   = input_gain_;
 1361              		.loc 7 93 9 is_stmt 1 view .LVU344
 1362              		.loc 7 93 21 is_stmt 0 view .LVU345
 1363 0020 90ED0BBA 		vldr.32	s22, [r0, #44]
 1364              	.LVL78:
  94:dsp/fx/reverb.h **** 
  95:dsp/fx/reverb.h ****         float lp_1 = lp_decay_1_;
 1365              		.loc 7 95 9 is_stmt 1 view .LVU346
 1366              		.loc 7 95 22 is_stmt 0 view .LVU347
ARM GAS  /tmp/ccmw9Hql.s 			page 48


 1367 0024 90ED0FDA 		vldr.32	s26, [r0, #60]
 1368              	.LVL79:
  96:dsp/fx/reverb.h ****         float lp_2 = lp_decay_2_;
 1369              		.loc 7 96 9 is_stmt 1 view .LVU348
 1370              		.loc 7 96 22 is_stmt 0 view .LVU349
 1371 0028 D0ED10CA 		vldr.32	s25, [r0, #64]
 1372              	.LVL80:
 1373              	.L31:
  97:dsp/fx/reverb.h **** 
  98:dsp/fx/reverb.h ****         while(size--)
 1374              		.loc 7 98 9 is_stmt 1 view .LVU350
 1375              		.loc 7 98 19 view .LVU351
 1376 002c B8F10108 		subs	r8, r8, #1
 1377              	.LVL81:
 1378              		.loc 7 98 19 is_stmt 0 view .LVU352
 1379 0030 C0F0B081 		bcc	.L26
 1380              	.LBB1116:
  99:dsp/fx/reverb.h ****         {
 100:dsp/fx/reverb.h ****             float wet;
 1381              		.loc 7 100 13 is_stmt 1 view .LVU353
 101:dsp/fx/reverb.h ****             float apout = 0.0f;
 1382              		.loc 7 101 13 view .LVU354
 1383              	.LVL82:
 102:dsp/fx/reverb.h ****             engine_.Start(&c);
 1384              		.loc 7 102 13 view .LVU355
 1385              	.LBB1117:
 1386              	.LBI1117:
 302:dsp/fx/fx_engine.h ****     {
 1387              		.loc 5 302 17 view .LVU356
 1388              	.LBB1118:
 304:dsp/fx/fx_engine.h ****         if(write_ptr_ < 0)
 1389              		.loc 5 304 11 is_stmt 0 view .LVU357
 1390 0034 3368     		ldr	r3, [r6]
 305:dsp/fx/fx_engine.h ****         {
 1391              		.loc 5 305 9 view .LVU358
 1392 0036 5A1E     		subs	r2, r3, #1
 307:dsp/fx/fx_engine.h ****         }
 1393              		.loc 5 307 24 view .LVU359
 1394 0038 49BF     		itett	mi
 1395 003a 03F57F53 		addmi	r3, r3, #16320
 304:dsp/fx/fx_engine.h ****         if(write_ptr_ < 0)
 1396              		.loc 5 304 9 view .LVU360
 1397 003e 3260     		strpl	r2, [r6]
 307:dsp/fx/fx_engine.h ****         }
 1398              		.loc 5 307 24 view .LVU361
 1399 0040 3F33     		addmi	r3, r3, #63
 307:dsp/fx/fx_engine.h ****         }
 1400              		.loc 5 307 13 view .LVU362
 1401 0042 3360     		strmi	r3, [r6]
 312:dsp/fx/fx_engine.h ****         if((write_ptr_ & 31) == 0)
 1402              		.loc 5 312 29 view .LVU363
 1403 0044 D6E90045 		ldrd	r4, r5, [r6]
 313:dsp/fx/fx_engine.h ****         {
 1404              		.loc 5 313 9 view .LVU364
 1405 0048 E306     		lsls	r3, r4, #27
 1406 004a 40F09E81 		bne	.L29
 1407              	.LVL83:
ARM GAS  /tmp/ccmw9Hql.s 			page 49


 1408              	.LBB1119:
 1409              	.LBI1119:
 302:dsp/fx/fx_engine.h ****     {
 1410              		.loc 5 302 17 is_stmt 1 view .LVU365
 1411              	.LBB1120:
 315:dsp/fx/fx_engine.h ****             c->lfo_value_[1] = lfo_[1].Next();
 1412              		.loc 5 315 44 is_stmt 0 view .LVU366
 1413 004e 06F10800 		add	r0, r6, #8
 1414 0052 FFF7FEFF 		bl	_ZN16CosineOscillator4NextEv
 1415              	.LVL84:
 1416              		.loc 5 316 44 view .LVU367
 1417 0056 06F11800 		add	r0, r6, #24
 315:dsp/fx/fx_engine.h ****             c->lfo_value_[1] = lfo_[1].Next();
 1418              		.loc 5 315 44 view .LVU368
 1419 005a B0EE408A 		vmov.f32	s16, s0
 1420              	.LVL85:
 1421              		.loc 5 316 44 view .LVU369
 1422 005e FFF7FEFF 		bl	_ZN16CosineOscillator4NextEv
 1423              	.LVL86:
 1424              		.loc 5 316 44 view .LVU370
 1425 0062 F0EE40EA 		vmov.f32	s29, s0
 1426              	.LVL87:
 1427              	.L30:
 1428              		.loc 5 316 44 view .LVU371
 1429              	.LBE1120:
 1430              	.LBE1119:
 1431              	.LBE1118:
 1432              	.LBE1117:
 103:dsp/fx/reverb.h **** 
 104:dsp/fx/reverb.h ****             // Smear AP1 inside the loop.
 105:dsp/fx/reverb.h ****             c.Interpolate(ap1, 10.0f, LFO_1, 60.0f, 1.0f);
 1433              		.loc 7 105 13 is_stmt 1 view .LVU372
 1434              	.LBB1123:
 1435              	.LBI1123:
 271:dsp/fx/fx_engine.h ****                                 float    offset,
 1436              		.loc 5 271 21 view .LVU373
 1437              	.LBB1124:
 278:dsp/fx/fx_engine.h ****             MAKE_INTEGRAL_FRACTIONAL(offset);
 1438              		.loc 5 278 13 is_stmt 0 view .LVU374
 1439 0066 F2EE048A 		vmov.f32	s17, #1.0e+1
 1440 006a DFEDCE7A 		vldr.32	s15, .L32
 286:dsp/fx/fx_engine.h ****         }
 1441              		.loc 5 286 26 view .LVU375
 1442 006e 9FEDCECA 		vldr.32	s24, .L32+4
 1443              	.LBE1124:
 1444              	.LBE1123:
 1445              	.LBB1142:
 1446              	.LBB1143:
 281:dsp/fx/fx_engine.h ****             float b = DataType<format>::Decompress(
 1447              		.loc 5 281 55 view .LVU376
 1448 0072 42F65259 		movw	r9, #11602
 1449 0076 0837     		adds	r7, r7, #8
 1450              	.LVL88:
 281:dsp/fx/fx_engine.h ****             float b = DataType<format>::Decompress(
 1451              		.loc 5 281 55 view .LVU377
 1452              	.LBE1143:
 1453              	.LBE1142:
ARM GAS  /tmp/ccmw9Hql.s 			page 50


 1454              	.LBB1169:
 1455              	.LBB1141:
 278:dsp/fx/fx_engine.h ****             MAKE_INTEGRAL_FRACTIONAL(offset);
 1456              		.loc 5 278 13 view .LVU378
 1457 0078 E8EE278A 		vfma.f32	s17, s16, s15
 1458              	.LVL89:
 1459              	.LBB1125:
 1460              	.LBB1126:
  64:dsp/fx/fx_engine.h ****     }
 1461              		.loc 5 64 66 view .LVU379
 1462 007c 9FEDCB8A 		vldr.32	s16, .L32+8
 1463              	.LVL90:
  64:dsp/fx/fx_engine.h ****     }
 1464              		.loc 5 64 66 view .LVU380
 1465              	.LBE1126:
 1466              	.LBE1125:
 279:dsp/fx/fx_engine.h ****             float a = DataType<format>::Decompress(
 1467              		.loc 5 279 13 view .LVU381
 1468 0080 BDEEE87A 		vcvt.s32.f32	s14, s17
 1469              	.LVL91:
 281:dsp/fx/fx_engine.h ****             float b = DataType<format>::Decompress(
 1470              		.loc 5 281 37 view .LVU382
 1471 0084 17EE103A 		vmov	r3, s14	@ int
 279:dsp/fx/fx_engine.h ****             float a = DataType<format>::Decompress(
 1472              		.loc 5 279 13 view .LVU383
 1473 0088 F8EEC77A 		vcvt.f32.s32	s15, s14
 281:dsp/fx/fx_engine.h ****             float b = DataType<format>::Decompress(
 1474              		.loc 5 281 37 view .LVU384
 1475 008c 2344     		add	r3, r3, r4
 279:dsp/fx/fx_engine.h ****             float a = DataType<format>::Decompress(
 1476              		.loc 5 279 13 view .LVU385
 1477 008e 78EEE77A 		vsub.f32	s15, s17, s15
 1478              	.LVL92:
 1479              	.LBB1130:
 1480              	.LBI1130:
  62:dsp/fx/fx_engine.h ****     {
 1481              		.loc 5 62 25 is_stmt 1 view .LVU386
 1482              	.LBB1131:
  64:dsp/fx/fx_engine.h ****     }
 1483              		.loc 5 64 9 view .LVU387
 1484              	.LBE1131:
 1485              	.LBE1130:
 281:dsp/fx/fx_engine.h ****             float b = DataType<format>::Decompress(
 1486              		.loc 5 281 66 is_stmt 0 view .LVU388
 1487 0092 C3F30D02 		ubfx	r2, r3, #0, #14
 283:dsp/fx/fx_engine.h ****             float x        = a + (b - a) * offset_fractional;
 1488              		.loc 5 283 65 view .LVU389
 1489 0096 0133     		adds	r3, r3, #1
 1490              	.LVL93:
 283:dsp/fx/fx_engine.h ****             float x        = a + (b - a) * offset_fractional;
 1491              		.loc 5 283 70 view .LVU390
 1492 0098 C3F30D03 		ubfx	r3, r3, #0, #14
 1493              	.LVL94:
 1494              	.LBB1135:
 1495              	.LBB1132:
  64:dsp/fx/fx_engine.h ****     }
 1496              		.loc 5 64 16 view .LVU391
ARM GAS  /tmp/ccmw9Hql.s 			page 51


 1497 009c 35F91220 		ldrsh	r2, [r5, r2, lsl #1]
 1498              	.LBE1132:
 1499              	.LBE1135:
 1500              	.LBB1136:
 1501              	.LBB1127:
 1502 00a0 35F91330 		ldrsh	r3, [r5, r3, lsl #1]
 1503              	.LBE1127:
 1504              	.LBE1136:
 1505              	.LBB1137:
 1506              	.LBB1133:
 1507 00a4 07EE102A 		vmov	s14, r2	@ int
 1508              	.LVL95:
  64:dsp/fx/fx_engine.h ****     }
 1509              		.loc 5 64 16 view .LVU392
 1510              	.LBE1133:
 1511              	.LBE1137:
 1512              	.LBB1138:
 1513              	.LBB1128:
 1514 00a8 08EE903A 		vmov	s17, r3	@ int
 1515              	.LVL96:
  64:dsp/fx/fx_engine.h ****     }
 1516              		.loc 5 64 16 view .LVU393
 1517              	.LBE1128:
 1518              	.LBE1138:
 1519              	.LBB1139:
 1520              	.LBB1134:
 1521 00ac B8EEC77A 		vcvt.f32.s32	s14, s14
 1522              	.LVL97:
  64:dsp/fx/fx_engine.h ****     }
 1523              		.loc 5 64 16 view .LVU394
 1524              	.LBE1134:
 1525              	.LBE1139:
 1526              	.LBB1140:
 1527              	.LBI1125:
  62:dsp/fx/fx_engine.h ****     {
 1528              		.loc 5 62 25 is_stmt 1 view .LVU395
 1529              	.LBB1129:
  64:dsp/fx/fx_engine.h ****     }
 1530              		.loc 5 64 9 view .LVU396
  64:dsp/fx/fx_engine.h ****     }
 1531              		.loc 5 64 16 is_stmt 0 view .LVU397
 1532 00b0 F8EEE88A 		vcvt.f32.s32	s17, s17
  64:dsp/fx/fx_engine.h ****     }
 1533              		.loc 5 64 66 view .LVU398
 1534 00b4 68EE888A 		vmul.f32	s17, s17, s16
 1535              	.LBE1129:
 1536              	.LBE1140:
 284:dsp/fx/fx_engine.h ****             previous_read_ = x;
 1537              		.loc 5 284 37 view .LVU399
 1538 00b8 E7EE488A 		vfms.f32	s17, s14, s16
 284:dsp/fx/fx_engine.h ****             previous_read_ = x;
 1539              		.loc 5 284 42 view .LVU400
 1540 00bc 67EEA88A 		vmul.f32	s17, s15, s17
 284:dsp/fx/fx_engine.h ****             previous_read_ = x;
 1541              		.loc 5 284 19 view .LVU401
 1542 00c0 E7EE088A 		vfma.f32	s17, s14, s16
 1543              	.LVL98:
ARM GAS  /tmp/ccmw9Hql.s 			page 52


 286:dsp/fx/fx_engine.h ****         }
 1544              		.loc 5 286 26 view .LVU402
 1545 00c4 78EE8C8A 		vadd.f32	s17, s17, s24
 1546              	.LVL99:
 286:dsp/fx/fx_engine.h ****         }
 1547              		.loc 5 286 26 view .LVU403
 1548              	.LBE1141:
 1549              	.LBE1169:
 106:dsp/fx/reverb.h ****             c.Write(ap1, 100, 0.0f);
 1550              		.loc 7 106 13 is_stmt 1 view .LVU404
 1551              	.LBB1170:
 1552              	.LBI1170:
 186:dsp/fx/fx_engine.h ****         {
 1553              		.loc 5 186 21 view .LVU405
 1554              	.LBB1171:
 189:dsp/fx/fx_engine.h ****             if(offset == -1)
 1555              		.loc 5 189 45 is_stmt 0 view .LVU406
 1556 00c8 B0EE680A 		vmov.f32	s0, s17
 1557 00cc FFF7FEFF 		bl	_ZN8DataTypeIL6Format0EE8CompressEf
 1558              	.LVL100:
 196:dsp/fx/fx_engine.h ****             }
 1559              		.loc 5 196 47 view .LVU407
 1560 00d0 04F16403 		add	r3, r4, #100
 1561              	.LBE1171:
 1562              	.LBE1170:
 107:dsp/fx/reverb.h **** 
 108:dsp/fx/reverb.h ****             c.Read(in_out->l + in_out->r, gain);
 1563              		.loc 7 108 28 view .LVU408
 1564 00d4 17ED04EA 		vldr.32	s28, [r7, #-16]
 1565              		.loc 7 108 40 view .LVU409
 1566 00d8 57ED03DA 		vldr.32	s27, [r7, #-12]
 1567              	.LBB1174:
 1568              	.LBB1172:
 196:dsp/fx/fx_engine.h ****             }
 1569              		.loc 5 196 57 view .LVU410
 1570 00dc C3F30D03 		ubfx	r3, r3, #0, #14
 1571              	.LBE1172:
 1572              	.LBE1174:
 1573              		.loc 7 108 19 view .LVU411
 1574 00e0 7EEE2DBA 		vadd.f32	s23, s28, s27
 1575              	.LBB1175:
 1576              	.LBB1173:
 196:dsp/fx/fx_engine.h ****             }
 1577              		.loc 5 196 17 view .LVU412
 1578 00e4 25F81300 		strh	r0, [r5, r3, lsl #1]	@ movhi
 1579              	.LVL101:
 196:dsp/fx/fx_engine.h ****             }
 1580              		.loc 5 196 17 view .LVU413
 1581              	.LBE1173:
 1582              	.LBE1175:
 1583              		.loc 7 108 13 is_stmt 1 view .LVU414
 1584              	.LBB1176:
 1585              	.LBI1176:
 170:dsp/fx/fx_engine.h ****         {
 1586              		.loc 5 170 21 view .LVU415
 170:dsp/fx/fx_engine.h ****         {
 1587              		.loc 5 170 21 is_stmt 0 view .LVU416
ARM GAS  /tmp/ccmw9Hql.s 			page 53


 1588              	.LBE1176:
 1589              	.LBB1179:
 1590              	.LBB1180:
 227:dsp/fx/fx_engine.h ****             }
 1591              		.loc 5 227 63 view .LVU417
 1592 00e8 04F17003 		add	r3, r4, #112
 227:dsp/fx/fx_engine.h ****             }
 1593              		.loc 5 227 68 view .LVU418
 1594 00ec C3F30D03 		ubfx	r3, r3, #0, #14
 1595              	.LBE1180:
 1596              	.LBE1179:
 1597              	.LBB1190:
 1598              	.LBB1177:
 172:dsp/fx/fx_engine.h ****         }
 1599              		.loc 5 172 35 view .LVU419
 1600 00f0 6BEE8BBA 		vmul.f32	s23, s23, s22
 1601              	.LVL102:
 172:dsp/fx/fx_engine.h ****         }
 1602              		.loc 5 172 35 view .LVU420
 1603              	.LBE1177:
 1604              	.LBE1190:
 1605              	.LBB1191:
 1606              	.LBB1187:
 1607              	.LBB1181:
 1608              	.LBB1182:
  64:dsp/fx/fx_engine.h ****     }
 1609              		.loc 5 64 16 view .LVU421
 1610 00f4 35F91330 		ldrsh	r3, [r5, r3, lsl #1]
 1611              	.LBE1182:
 1612              	.LBE1181:
 1613              	.LBE1187:
 1614              	.LBE1191:
 1615              	.LBB1192:
 1616              	.LBB1178:
 172:dsp/fx/fx_engine.h ****         }
 1617              		.loc 5 172 26 view .LVU422
 1618 00f8 E8EE8CBA 		vfma.f32	s23, s17, s24
 1619              	.LVL103:
 172:dsp/fx/fx_engine.h ****         }
 1620              		.loc 5 172 26 view .LVU423
 1621              	.LBE1178:
 1622              	.LBE1192:
 109:dsp/fx/reverb.h **** 
 110:dsp/fx/reverb.h ****             // Diffuse through 4 allpasses.
 111:dsp/fx/reverb.h ****             c.Read(ap1 TAIL, kap);
 1623              		.loc 7 111 13 is_stmt 1 view .LVU424
 1624              	.LBB1193:
 1625              	.LBI1179:
 221:dsp/fx/fx_engine.h ****         {
 1626              		.loc 5 221 21 view .LVU425
 1627              	.LBB1188:
 1628              	.LBB1185:
 1629              	.LBI1181:
  62:dsp/fx/fx_engine.h ****     {
 1630              		.loc 5 62 25 view .LVU426
 1631              	.LBB1183:
  64:dsp/fx/fx_engine.h ****     }
ARM GAS  /tmp/ccmw9Hql.s 			page 54


 1632              		.loc 5 64 9 view .LVU427
  64:dsp/fx/fx_engine.h ****     }
 1633              		.loc 5 64 16 is_stmt 0 view .LVU428
 1634 00fc 08EE903A 		vmov	s17, r3	@ int
 1635              	.LBE1183:
 1636              	.LBE1185:
 1637              	.LBE1188:
 1638              	.LBE1193:
 112:dsp/fx/reverb.h ****             c.WriteAllPass(ap1, -kap);
 1639              		.loc 7 112 27 view .LVU429
 1640 0100 B1EE49CA 		vneg.f32	s24, s18
 1641              	.LBB1194:
 1642              	.LBB1189:
 1643              	.LBB1186:
 1644              	.LBB1184:
  64:dsp/fx/fx_engine.h ****     }
 1645              		.loc 5 64 16 view .LVU430
 1646 0104 F8EEE88A 		vcvt.f32.s32	s17, s17
  64:dsp/fx/fx_engine.h ****     }
 1647              		.loc 5 64 66 view .LVU431
 1648 0108 68EE888A 		vmul.f32	s17, s17, s16
 1649              	.LVL104:
  64:dsp/fx/fx_engine.h ****     }
 1650              		.loc 5 64 66 view .LVU432
 1651              	.LBE1184:
 1652              	.LBE1186:
 235:dsp/fx/fx_engine.h ****         }
 1653              		.loc 5 235 26 view .LVU433
 1654 010c E9EE28BA 		vfma.f32	s23, s18, s17
 1655              	.LVL105:
 235:dsp/fx/fx_engine.h ****         }
 1656              		.loc 5 235 26 view .LVU434
 1657              	.LBE1189:
 1658              	.LBE1194:
 1659              		.loc 7 112 13 is_stmt 1 view .LVU435
 1660              	.LBB1195:
 1661              	.LBI1195:
 215:dsp/fx/fx_engine.h ****         {
 1662              		.loc 5 215 21 view .LVU436
 1663              	.LBB1196:
 1664              	.LBI1196:
 208:dsp/fx/fx_engine.h ****         {
 1665              		.loc 5 208 21 view .LVU437
 1666              	.LBB1197:
 1667              	.LBB1198:
 1668              	.LBI1198:
 186:dsp/fx/fx_engine.h ****         {
 1669              		.loc 5 186 21 view .LVU438
 1670              	.LBB1199:
 189:dsp/fx/fx_engine.h ****             if(offset == -1)
 1671              		.loc 5 189 45 is_stmt 0 view .LVU439
 1672 0110 B0EE6B0A 		vmov.f32	s0, s23
 1673 0114 FFF7FEFF 		bl	_ZN8DataTypeIL6Format0EE8CompressEf
 1674              	.LVL106:
 196:dsp/fx/fx_engine.h ****             }
 1675              		.loc 5 196 57 view .LVU440
 1676 0118 C4F30D03 		ubfx	r3, r4, #0, #14
ARM GAS  /tmp/ccmw9Hql.s 			page 55


 1677              	.LBE1199:
 1678              	.LBE1198:
 211:dsp/fx/fx_engine.h ****         }
 1679              		.loc 5 211 26 view .LVU441
 1680 011c ECEE2B8A 		vfma.f32	s17, s24, s23
 1681              	.LVL107:
 1682              	.LBB1201:
 1683              	.LBB1200:
 196:dsp/fx/fx_engine.h ****             }
 1684              		.loc 5 196 17 view .LVU442
 1685 0120 25F81300 		strh	r0, [r5, r3, lsl #1]	@ movhi
 1686              	.LVL108:
 196:dsp/fx/fx_engine.h ****             }
 1687              		.loc 5 196 17 view .LVU443
 1688              	.LBE1200:
 1689              	.LBE1201:
 1690              	.LBE1197:
 1691              	.LBE1196:
 1692              	.LBE1195:
 1693              	.LBB1204:
 1694              	.LBB1205:
 227:dsp/fx/fx_engine.h ****             }
 1695              		.loc 5 227 63 view .LVU444
 1696 0124 04F21313 		addw	r3, r4, #275
 227:dsp/fx/fx_engine.h ****             }
 1697              		.loc 5 227 68 view .LVU445
 1698 0128 C3F30D03 		ubfx	r3, r3, #0, #14
 1699              	.LBB1206:
 1700              	.LBB1207:
  64:dsp/fx/fx_engine.h ****     }
 1701              		.loc 5 64 16 view .LVU446
 1702 012c 35F91330 		ldrsh	r3, [r5, r3, lsl #1]
 1703              	.LBE1207:
 1704              	.LBE1206:
 1705              	.LBE1205:
 1706              	.LBE1204:
 1707              	.LBB1211:
 1708              	.LBB1203:
 1709              	.LBB1202:
 211:dsp/fx/fx_engine.h ****         }
 1710              		.loc 5 211 26 view .LVU447
 1711 0130 F0EE68BA 		vmov.f32	s23, s17
 1712              	.LVL109:
 211:dsp/fx/fx_engine.h ****         }
 1713              		.loc 5 211 26 view .LVU448
 1714              	.LBE1202:
 1715              	.LBE1203:
 1716              	.LBE1211:
 113:dsp/fx/reverb.h ****             c.Read(ap2 TAIL, kap);
 1717              		.loc 7 113 13 is_stmt 1 view .LVU449
 1718              	.LBB1212:
 1719              	.LBI1204:
 221:dsp/fx/fx_engine.h ****         {
 1720              		.loc 5 221 21 view .LVU450
 1721              	.LBB1210:
 1722              	.LBB1209:
 1723              	.LBI1206:
ARM GAS  /tmp/ccmw9Hql.s 			page 56


  62:dsp/fx/fx_engine.h ****     {
 1724              		.loc 5 62 25 view .LVU451
 1725              	.LBB1208:
  64:dsp/fx/fx_engine.h ****     }
 1726              		.loc 5 64 9 view .LVU452
  64:dsp/fx/fx_engine.h ****     }
 1727              		.loc 5 64 16 is_stmt 0 view .LVU453
 1728 0134 08EE903A 		vmov	s17, r3	@ int
 1729 0138 F8EEE88A 		vcvt.f32.s32	s17, s17
  64:dsp/fx/fx_engine.h ****     }
 1730              		.loc 5 64 66 view .LVU454
 1731 013c 68EE888A 		vmul.f32	s17, s17, s16
 1732              	.LVL110:
  64:dsp/fx/fx_engine.h ****     }
 1733              		.loc 5 64 66 view .LVU455
 1734              	.LBE1208:
 1735              	.LBE1209:
 235:dsp/fx/fx_engine.h ****         }
 1736              		.loc 5 235 26 view .LVU456
 1737 0140 E9EE28BA 		vfma.f32	s23, s18, s17
 1738              	.LVL111:
 235:dsp/fx/fx_engine.h ****         }
 1739              		.loc 5 235 26 view .LVU457
 1740              	.LBE1210:
 1741              	.LBE1212:
 114:dsp/fx/reverb.h ****             c.WriteAllPass(ap2, -kap);
 1742              		.loc 7 114 13 is_stmt 1 view .LVU458
 1743              	.LBB1213:
 1744              	.LBI1213:
 215:dsp/fx/fx_engine.h ****         {
 1745              		.loc 5 215 21 view .LVU459
 1746              	.LBB1214:
 1747              	.LBI1214:
 208:dsp/fx/fx_engine.h ****         {
 1748              		.loc 5 208 21 view .LVU460
 1749              	.LBB1215:
 1750              	.LBB1216:
 1751              	.LBI1216:
 186:dsp/fx/fx_engine.h ****         {
 1752              		.loc 5 186 21 view .LVU461
 1753              	.LBB1217:
 189:dsp/fx/fx_engine.h ****             if(offset == -1)
 1754              		.loc 5 189 45 is_stmt 0 view .LVU462
 1755 0144 B0EE6B0A 		vmov.f32	s0, s23
 1756 0148 FFF7FEFF 		bl	_ZN8DataTypeIL6Format0EE8CompressEf
 1757              	.LVL112:
 196:dsp/fx/fx_engine.h ****             }
 1758              		.loc 5 196 37 view .LVU463
 1759 014c 04F17203 		add	r3, r4, #114
 1760              	.LBE1217:
 1761              	.LBE1216:
 211:dsp/fx/fx_engine.h ****         }
 1762              		.loc 5 211 26 view .LVU464
 1763 0150 ECEE2B8A 		vfma.f32	s17, s24, s23
 1764              	.LVL113:
 1765              	.LBB1219:
 1766              	.LBB1218:
ARM GAS  /tmp/ccmw9Hql.s 			page 57


 196:dsp/fx/fx_engine.h ****             }
 1767              		.loc 5 196 57 view .LVU465
 1768 0154 C3F30D03 		ubfx	r3, r3, #0, #14
 196:dsp/fx/fx_engine.h ****             }
 1769              		.loc 5 196 17 view .LVU466
 1770 0158 25F81300 		strh	r0, [r5, r3, lsl #1]	@ movhi
 1771              	.LVL114:
 196:dsp/fx/fx_engine.h ****             }
 1772              		.loc 5 196 17 view .LVU467
 1773              	.LBE1218:
 1774              	.LBE1219:
 1775              	.LBE1215:
 1776              	.LBE1214:
 1777              	.LBE1213:
 1778              	.LBB1222:
 1779              	.LBB1223:
 227:dsp/fx/fx_engine.h ****             }
 1780              		.loc 5 227 63 view .LVU468
 1781 015c 04F20523 		addw	r3, r4, #517
 227:dsp/fx/fx_engine.h ****             }
 1782              		.loc 5 227 68 view .LVU469
 1783 0160 C3F30D03 		ubfx	r3, r3, #0, #14
 1784              	.LBE1223:
 1785              	.LBE1222:
 1786              	.LBB1227:
 1787              	.LBB1221:
 1788              	.LBB1220:
 211:dsp/fx/fx_engine.h ****         }
 1789              		.loc 5 211 26 view .LVU470
 1790 0164 F0EE68BA 		vmov.f32	s23, s17
 1791              	.LVL115:
 211:dsp/fx/fx_engine.h ****         }
 1792              		.loc 5 211 26 view .LVU471
 1793              	.LBE1220:
 1794              	.LBE1221:
 1795              	.LBE1227:
 115:dsp/fx/reverb.h ****             c.Read(ap3 TAIL, kap);
 1796              		.loc 7 115 13 is_stmt 1 view .LVU472
 1797              	.LBB1228:
 1798              	.LBI1222:
 221:dsp/fx/fx_engine.h ****         {
 1799              		.loc 5 221 21 view .LVU473
 1800              	.LBB1226:
 1801              	.LBB1224:
 1802              	.LBI1224:
  62:dsp/fx/fx_engine.h ****     {
 1803              		.loc 5 62 25 view .LVU474
 1804              	.LBB1225:
  64:dsp/fx/fx_engine.h ****     }
 1805              		.loc 5 64 9 view .LVU475
  64:dsp/fx/fx_engine.h ****     }
 1806              		.loc 5 64 16 is_stmt 0 view .LVU476
 1807 0168 35F91330 		ldrsh	r3, [r5, r3, lsl #1]
 1808 016c 08EE903A 		vmov	s17, r3	@ int
 1809 0170 F8EEE88A 		vcvt.f32.s32	s17, s17
  64:dsp/fx/fx_engine.h ****     }
 1810              		.loc 5 64 66 view .LVU477
ARM GAS  /tmp/ccmw9Hql.s 			page 58


 1811 0174 68EE888A 		vmul.f32	s17, s17, s16
 1812              	.LVL116:
  64:dsp/fx/fx_engine.h ****     }
 1813              		.loc 5 64 66 view .LVU478
 1814              	.LBE1225:
 1815              	.LBE1224:
 235:dsp/fx/fx_engine.h ****         }
 1816              		.loc 5 235 26 view .LVU479
 1817 0178 E9EE28BA 		vfma.f32	s23, s18, s17
 1818              	.LVL117:
 235:dsp/fx/fx_engine.h ****         }
 1819              		.loc 5 235 26 view .LVU480
 1820              	.LBE1226:
 1821              	.LBE1228:
 116:dsp/fx/reverb.h ****             c.WriteAllPass(ap3, -kap);
 1822              		.loc 7 116 13 is_stmt 1 view .LVU481
 1823              	.LBB1229:
 1824              	.LBI1229:
 215:dsp/fx/fx_engine.h ****         {
 1825              		.loc 5 215 21 view .LVU482
 1826              	.LBB1230:
 1827              	.LBI1230:
 208:dsp/fx/fx_engine.h ****         {
 1828              		.loc 5 208 21 view .LVU483
 1829              	.LBB1231:
 1830              	.LBB1232:
 1831              	.LBI1232:
 186:dsp/fx/fx_engine.h ****         {
 1832              		.loc 5 186 21 view .LVU484
 1833              	.LBB1233:
 189:dsp/fx/fx_engine.h ****             if(offset == -1)
 1834              		.loc 5 189 45 is_stmt 0 view .LVU485
 1835 017c B0EE6B0A 		vmov.f32	s0, s23
 1836 0180 FFF7FEFF 		bl	_ZN8DataTypeIL6Format0EE8CompressEf
 1837              	.LVL118:
 196:dsp/fx/fx_engine.h ****             }
 1838              		.loc 5 196 37 view .LVU486
 1839 0184 04F21513 		addw	r3, r4, #277
 1840              	.LBE1233:
 1841              	.LBE1232:
 211:dsp/fx/fx_engine.h ****         }
 1842              		.loc 5 211 26 view .LVU487
 1843 0188 ECEE2B8A 		vfma.f32	s17, s24, s23
 1844              	.LVL119:
 1845              	.LBB1235:
 1846              	.LBB1234:
 196:dsp/fx/fx_engine.h ****             }
 1847              		.loc 5 196 57 view .LVU488
 1848 018c C3F30D03 		ubfx	r3, r3, #0, #14
 196:dsp/fx/fx_engine.h ****             }
 1849              		.loc 5 196 17 view .LVU489
 1850 0190 25F81300 		strh	r0, [r5, r3, lsl #1]	@ movhi
 1851              	.LVL120:
 196:dsp/fx/fx_engine.h ****             }
 1852              		.loc 5 196 17 view .LVU490
 1853              	.LBE1234:
 1854              	.LBE1235:
ARM GAS  /tmp/ccmw9Hql.s 			page 59


 1855              	.LBE1231:
 1856              	.LBE1230:
 1857              	.LBE1229:
 1858              	.LBB1238:
 1859              	.LBB1239:
 227:dsp/fx/fx_engine.h ****             }
 1860              		.loc 5 227 63 view .LVU491
 1861 0194 04F29533 		addw	r3, r4, #917
 227:dsp/fx/fx_engine.h ****             }
 1862              		.loc 5 227 68 view .LVU492
 1863 0198 C3F30D03 		ubfx	r3, r3, #0, #14
 1864              	.LBE1239:
 1865              	.LBE1238:
 1866              	.LBB1243:
 1867              	.LBB1237:
 1868              	.LBB1236:
 211:dsp/fx/fx_engine.h ****         }
 1869              		.loc 5 211 26 view .LVU493
 1870 019c F0EE68BA 		vmov.f32	s23, s17
 1871              	.LVL121:
 211:dsp/fx/fx_engine.h ****         }
 1872              		.loc 5 211 26 view .LVU494
 1873              	.LBE1236:
 1874              	.LBE1237:
 1875              	.LBE1243:
 117:dsp/fx/reverb.h ****             c.Read(ap4 TAIL, kap);
 1876              		.loc 7 117 13 is_stmt 1 view .LVU495
 1877              	.LBB1244:
 1878              	.LBI1238:
 221:dsp/fx/fx_engine.h ****         {
 1879              		.loc 5 221 21 view .LVU496
 1880              	.LBB1242:
 1881              	.LBB1240:
 1882              	.LBI1240:
  62:dsp/fx/fx_engine.h ****     {
 1883              		.loc 5 62 25 view .LVU497
 1884              	.LBB1241:
  64:dsp/fx/fx_engine.h ****     }
 1885              		.loc 5 64 9 view .LVU498
  64:dsp/fx/fx_engine.h ****     }
 1886              		.loc 5 64 16 is_stmt 0 view .LVU499
 1887 01a0 35F91330 		ldrsh	r3, [r5, r3, lsl #1]
 1888 01a4 08EE903A 		vmov	s17, r3	@ int
 1889 01a8 F8EEE88A 		vcvt.f32.s32	s17, s17
  64:dsp/fx/fx_engine.h ****     }
 1890              		.loc 5 64 66 view .LVU500
 1891 01ac 68EE888A 		vmul.f32	s17, s17, s16
 1892              	.LVL122:
  64:dsp/fx/fx_engine.h ****     }
 1893              		.loc 5 64 66 view .LVU501
 1894              	.LBE1241:
 1895              	.LBE1240:
 235:dsp/fx/fx_engine.h ****         }
 1896              		.loc 5 235 26 view .LVU502
 1897 01b0 E9EE28BA 		vfma.f32	s23, s18, s17
 1898              	.LVL123:
 235:dsp/fx/fx_engine.h ****         }
ARM GAS  /tmp/ccmw9Hql.s 			page 60


 1899              		.loc 5 235 26 view .LVU503
 1900              	.LBE1242:
 1901              	.LBE1244:
 118:dsp/fx/reverb.h ****             c.WriteAllPass(ap4, -kap);
 1902              		.loc 7 118 13 is_stmt 1 view .LVU504
 1903              	.LBB1245:
 1904              	.LBI1245:
 215:dsp/fx/fx_engine.h ****         {
 1905              		.loc 5 215 21 view .LVU505
 1906              	.LBB1246:
 1907              	.LBI1246:
 208:dsp/fx/fx_engine.h ****         {
 1908              		.loc 5 208 21 view .LVU506
 1909              	.LBB1247:
 1910              	.LBB1248:
 1911              	.LBI1248:
 186:dsp/fx/fx_engine.h ****         {
 1912              		.loc 5 186 21 view .LVU507
 1913              	.LBB1249:
 189:dsp/fx/fx_engine.h ****             if(offset == -1)
 1914              		.loc 5 189 45 is_stmt 0 view .LVU508
 1915 01b4 B0EE6B0A 		vmov.f32	s0, s23
 1916 01b8 FFF7FEFF 		bl	_ZN8DataTypeIL6Format0EE8CompressEf
 1917              	.LVL124:
 189:dsp/fx/fx_engine.h ****             if(offset == -1)
 1918              		.loc 5 189 45 view .LVU509
 1919              	.LBE1249:
 1920              	.LBE1248:
 1921              	.LBE1247:
 1922              	.LBE1246:
 1923              	.LBE1245:
 1924              	.LBB1258:
 1925              	.LBB1162:
 278:dsp/fx/fx_engine.h ****             MAKE_INTEGRAL_FRACTIONAL(offset);
 1926              		.loc 5 278 13 view .LVU510
 1927 01bc DFED7C7A 		vldr.32	s15, .L32+12
 1928 01c0 9FED7C7A 		vldr.32	s14, .L32+16
 1929              	.LBE1162:
 1930              	.LBE1258:
 1931              	.LBB1259:
 1932              	.LBB1256:
 1933              	.LBB1254:
 1934              	.LBB1252:
 1935              	.LBB1250:
 196:dsp/fx/fx_engine.h ****             }
 1936              		.loc 5 196 37 view .LVU511
 1937 01c4 04F20723 		addw	r3, r4, #519
 1938              	.LBE1250:
 1939              	.LBE1252:
 211:dsp/fx/fx_engine.h ****         }
 1940              		.loc 5 211 26 view .LVU512
 1941 01c8 ECEE2B8A 		vfma.f32	s17, s24, s23
 1942              	.LVL125:
 211:dsp/fx/fx_engine.h ****         }
 1943              		.loc 5 211 26 view .LVU513
 1944              	.LBE1254:
 1945              	.LBE1256:
ARM GAS  /tmp/ccmw9Hql.s 			page 61


 1946              	.LBE1259:
 1947              	.LBB1260:
 1948              	.LBB1163:
 278:dsp/fx/fx_engine.h ****             MAKE_INTEGRAL_FRACTIONAL(offset);
 1949              		.loc 5 278 13 view .LVU514
 1950 01cc AEEEA77A 		vfma.f32	s14, s29, s15
 1951              	.LBE1163:
 1952              	.LBE1260:
 1953              	.LBB1261:
 1954              	.LBB1257:
 1955              	.LBB1255:
 1956              	.LBB1253:
 1957              	.LBB1251:
 196:dsp/fx/fx_engine.h ****             }
 1958              		.loc 5 196 57 view .LVU515
 1959 01d0 C3F30D03 		ubfx	r3, r3, #0, #14
 196:dsp/fx/fx_engine.h ****             }
 1960              		.loc 5 196 17 view .LVU516
 1961 01d4 25F81300 		strh	r0, [r5, r3, lsl #1]	@ movhi
 1962              	.LVL126:
 196:dsp/fx/fx_engine.h ****             }
 1963              		.loc 5 196 17 view .LVU517
 1964              	.LBE1251:
 1965              	.LBE1253:
 1966              	.LBE1255:
 1967              	.LBE1257:
 1968              	.LBE1261:
 119:dsp/fx/reverb.h ****             c.Write(apout);
 1969              		.loc 7 119 13 is_stmt 1 view .LVU518
 120:dsp/fx/reverb.h **** 
 121:dsp/fx/reverb.h ****             // Main reverb loop.
 122:dsp/fx/reverb.h ****             c.Load(apout);
 1970              		.loc 7 122 13 view .LVU519
 123:dsp/fx/reverb.h ****             c.Interpolate(del2, 4680.0f, LFO_2, 100.0f, krt);
 1971              		.loc 7 123 13 view .LVU520
 1972              	.LBB1262:
 1973              	.LBI1142:
 271:dsp/fx/fx_engine.h ****                                 float    offset,
 1974              		.loc 5 271 21 view .LVU521
 1975              	.LBB1164:
 279:dsp/fx/fx_engine.h ****             float a = DataType<format>::Decompress(
 1976              		.loc 5 279 13 is_stmt 0 view .LVU522
 1977 01d8 FDEEC77A 		vcvt.s32.f32	s15, s14
 1978              	.LVL127:
 281:dsp/fx/fx_engine.h ****             float b = DataType<format>::Decompress(
 1979              		.loc 5 281 37 view .LVU523
 1980 01dc 17EE903A 		vmov	r3, s15	@ int
 279:dsp/fx/fx_engine.h ****             float a = DataType<format>::Decompress(
 1981              		.loc 5 279 13 view .LVU524
 1982 01e0 F8EEE76A 		vcvt.f32.s32	s13, s15
 281:dsp/fx/fx_engine.h ****             float b = DataType<format>::Decompress(
 1983              		.loc 5 281 37 view .LVU525
 1984 01e4 2344     		add	r3, r3, r4
 279:dsp/fx/fx_engine.h ****             float a = DataType<format>::Decompress(
 1985              		.loc 5 279 13 view .LVU526
 1986 01e6 77EE666A 		vsub.f32	s13, s14, s13
 1987              	.LVL128:
ARM GAS  /tmp/ccmw9Hql.s 			page 62


 1988              	.LBB1144:
 1989              	.LBI1144:
  62:dsp/fx/fx_engine.h ****     {
 1990              		.loc 5 62 25 is_stmt 1 view .LVU527
 1991              	.LBB1145:
  64:dsp/fx/fx_engine.h ****     }
 1992              		.loc 5 64 9 view .LVU528
 1993              	.LBE1145:
 1994              	.LBE1144:
 281:dsp/fx/fx_engine.h ****             float b = DataType<format>::Decompress(
 1995              		.loc 5 281 55 is_stmt 0 view .LVU529
 1996 01ea 03EB0902 		add	r2, r3, r9
 1997              	.LVL129:
 283:dsp/fx/fx_engine.h ****             float x        = a + (b - a) * offset_fractional;
 1998              		.loc 5 283 65 view .LVU530
 1999 01ee 03F53553 		add	r3, r3, #11584
 2000 01f2 1333     		adds	r3, r3, #19
 281:dsp/fx/fx_engine.h ****             float b = DataType<format>::Decompress(
 2001              		.loc 5 281 66 view .LVU531
 2002 01f4 C2F30D02 		ubfx	r2, r2, #0, #14
 2003              	.LVL130:
 283:dsp/fx/fx_engine.h ****             float x        = a + (b - a) * offset_fractional;
 2004              		.loc 5 283 70 view .LVU532
 2005 01f8 C3F30D03 		ubfx	r3, r3, #0, #14
 2006              	.LVL131:
 2007              	.LBB1149:
 2008              	.LBB1146:
  64:dsp/fx/fx_engine.h ****     }
 2009              		.loc 5 64 16 view .LVU533
 2010 01fc 35F91220 		ldrsh	r2, [r5, r2, lsl #1]
 2011              	.LBE1146:
 2012              	.LBE1149:
 2013              	.LBB1150:
 2014              	.LBB1151:
 2015 0200 35F91330 		ldrsh	r3, [r5, r3, lsl #1]
 2016              	.LBE1151:
 2017              	.LBE1150:
 2018              	.LBB1156:
 2019              	.LBB1147:
 2020 0204 07EE902A 		vmov	s15, r2	@ int
 2021              	.LVL132:
  64:dsp/fx/fx_engine.h ****     }
 2022              		.loc 5 64 16 view .LVU534
 2023              	.LBE1147:
 2024              	.LBE1156:
 2025              	.LBB1157:
 2026              	.LBB1152:
 2027 0208 07EE103A 		vmov	s14, r3	@ int
 2028              	.LVL133:
  64:dsp/fx/fx_engine.h ****     }
 2029              		.loc 5 64 16 view .LVU535
 2030              	.LBE1152:
 2031              	.LBE1157:
 2032              	.LBB1158:
 2033              	.LBB1148:
 2034 020c F8EEE77A 		vcvt.f32.s32	s15, s15
 2035              	.LVL134:
ARM GAS  /tmp/ccmw9Hql.s 			page 63


  64:dsp/fx/fx_engine.h ****     }
 2036              		.loc 5 64 16 view .LVU536
 2037              	.LBE1148:
 2038              	.LBE1158:
 2039              	.LBB1159:
 2040              	.LBI1150:
  62:dsp/fx/fx_engine.h ****     {
 2041              		.loc 5 62 25 is_stmt 1 view .LVU537
 2042              	.LBB1153:
  64:dsp/fx/fx_engine.h ****     }
 2043              		.loc 5 64 9 view .LVU538
  64:dsp/fx/fx_engine.h ****     }
 2044              		.loc 5 64 9 is_stmt 0 view .LVU539
 2045              	.LBE1153:
 2046              	.LBE1159:
 2047              	.LBE1164:
 2048              	.LBE1262:
 2049              	.LBB1263:
 2050              	.LBB1264:
 227:dsp/fx/fx_engine.h ****             }
 2051              		.loc 5 227 63 view .LVU540
 2052 0210 04F60B23 		addw	r3, r4, #2571
 2053              	.LBE1264:
 2054              	.LBE1263:
 2055              	.LBB1275:
 2056              	.LBB1165:
 2057              	.LBB1160:
 2058              	.LBB1154:
  64:dsp/fx/fx_engine.h ****     }
 2059              		.loc 5 64 16 view .LVU541
 2060 0214 B8EEC77A 		vcvt.f32.s32	s14, s14
 2061              	.LBE1154:
 2062              	.LBE1160:
 2063              	.LBE1165:
 2064              	.LBE1275:
 2065              	.LBB1276:
 2066              	.LBB1271:
 227:dsp/fx/fx_engine.h ****             }
 2067              		.loc 5 227 68 view .LVU542
 2068 0218 C3F30D03 		ubfx	r3, r3, #0, #14
 2069              	.LBE1271:
 2070              	.LBE1276:
 2071              	.LBB1277:
 2072              	.LBB1166:
 2073              	.LBB1161:
 2074              	.LBB1155:
  64:dsp/fx/fx_engine.h ****     }
 2075              		.loc 5 64 66 view .LVU543
 2076 021c 27EE087A 		vmul.f32	s14, s14, s16
 2077              	.LBE1155:
 2078              	.LBE1161:
 2079              	.LBE1166:
 2080              	.LBE1277:
 2081              	.LBB1278:
 2082              	.LBB1272:
 2083              	.LBB1265:
 2084              	.LBB1266:
ARM GAS  /tmp/ccmw9Hql.s 			page 64


  64:dsp/fx/fx_engine.h ****     }
 2085              		.loc 5 64 16 view .LVU544
 2086 0220 35F91330 		ldrsh	r3, [r5, r3, lsl #1]
 2087 0224 0BEE903A 		vmov	s23, r3	@ int
 2088              	.LBE1266:
 2089              	.LBE1265:
 2090              	.LBE1272:
 2091              	.LBE1278:
 2092              	.LBB1279:
 2093              	.LBB1167:
 284:dsp/fx/fx_engine.h ****             previous_read_ = x;
 2094              		.loc 5 284 37 view .LVU545
 2095 0228 A7EEC87A 		vfms.f32	s14, s15, s16
 2096              	.LBE1167:
 2097              	.LBE1279:
 2098              	.LBB1280:
 2099              	.LBB1273:
 2100              	.LBB1269:
 2101              	.LBB1267:
  64:dsp/fx/fx_engine.h ****     }
 2102              		.loc 5 64 16 view .LVU546
 2103 022c F8EEEBBA 		vcvt.f32.s32	s23, s23
  64:dsp/fx/fx_engine.h ****     }
 2104              		.loc 5 64 66 view .LVU547
 2105 0230 6BEE88BA 		vmul.f32	s23, s23, s16
 2106              	.LBE1267:
 2107              	.LBE1269:
 2108              	.LBE1273:
 2109              	.LBE1280:
 2110              	.LBB1281:
 2111              	.LBB1168:
 284:dsp/fx/fx_engine.h ****             previous_read_ = x;
 2112              		.loc 5 284 42 view .LVU548
 2113 0234 26EE877A 		vmul.f32	s14, s13, s14
 284:dsp/fx/fx_engine.h ****             previous_read_ = x;
 2114              		.loc 5 284 19 view .LVU549
 2115 0238 A7EE887A 		vfma.f32	s14, s15, s16
 2116              	.LVL135:
 286:dsp/fx/fx_engine.h ****         }
 2117              		.loc 5 286 26 view .LVU550
 2118 023c F0EE687A 		vmov.f32	s15, s17
 2119              	.LVL136:
 286:dsp/fx/fx_engine.h ****         }
 2120              		.loc 5 286 26 view .LVU551
 2121 0240 EAEE877A 		vfma.f32	s15, s21, s14
 2122              	.LVL137:
 286:dsp/fx/fx_engine.h ****         }
 2123              		.loc 5 286 26 view .LVU552
 2124              	.LBE1168:
 2125              	.LBE1281:
 124:dsp/fx/reverb.h ****             c.Lp(lp_1, klp);
 2126              		.loc 7 124 13 is_stmt 1 view .LVU553
 2127              	.LBB1282:
 2128              	.LBI1282:
 244:dsp/fx/fx_engine.h ****         {
 2129              		.loc 5 244 21 view .LVU554
 2130              	.LBB1283:
ARM GAS  /tmp/ccmw9Hql.s 			page 65


 246:dsp/fx/fx_engine.h ****             accumulator_ = state;
 2131              		.loc 5 246 50 is_stmt 0 view .LVU555
 2132 0244 77EECD7A 		vsub.f32	s15, s15, s26
 246:dsp/fx/fx_engine.h ****             accumulator_ = state;
 2133              		.loc 5 246 19 view .LVU556
 2134 0248 AAEE27DA 		vfma.f32	s26, s20, s15
 2135              	.LVL138:
 246:dsp/fx/fx_engine.h ****             accumulator_ = state;
 2136              		.loc 5 246 19 view .LVU557
 2137              	.LBE1283:
 2138              	.LBE1282:
 125:dsp/fx/reverb.h ****             c.Read(dap1a TAIL, -kap);
 2139              		.loc 7 125 13 is_stmt 1 view .LVU558
 2140              	.LBB1284:
 2141              	.LBI1263:
 221:dsp/fx/fx_engine.h ****         {
 2142              		.loc 5 221 21 view .LVU559
 2143              	.LBB1274:
 2144              	.LBB1270:
 2145              	.LBI1265:
  62:dsp/fx/fx_engine.h ****     {
 2146              		.loc 5 62 25 view .LVU560
 2147              	.LBB1268:
  64:dsp/fx/fx_engine.h ****     }
 2148              		.loc 5 64 9 view .LVU561
  64:dsp/fx/fx_engine.h ****     }
 2149              		.loc 5 64 9 is_stmt 0 view .LVU562
 2150              	.LBE1268:
 2151              	.LBE1270:
 235:dsp/fx/fx_engine.h ****         }
 2152              		.loc 5 235 26 view .LVU563
 2153 024c F0EE4DEA 		vmov.f32	s29, s26
 2154              	.LVL139:
 235:dsp/fx/fx_engine.h ****         }
 2155              		.loc 5 235 26 view .LVU564
 2156 0250 ECEE2BEA 		vfma.f32	s29, s24, s23
 2157              	.LVL140:
 235:dsp/fx/fx_engine.h ****         }
 2158              		.loc 5 235 26 view .LVU565
 2159              	.LBE1274:
 2160              	.LBE1284:
 126:dsp/fx/reverb.h ****             c.WriteAllPass(dap1a, kap);
 2161              		.loc 7 126 13 is_stmt 1 view .LVU566
 2162              	.LBB1285:
 2163              	.LBI1285:
 215:dsp/fx/fx_engine.h ****         {
 2164              		.loc 5 215 21 view .LVU567
 2165              	.LBB1286:
 2166              	.LBI1286:
 208:dsp/fx/fx_engine.h ****         {
 2167              		.loc 5 208 21 view .LVU568
 2168              	.LBB1287:
 2169              	.LBB1288:
 2170              	.LBI1288:
 186:dsp/fx/fx_engine.h ****         {
 2171              		.loc 5 186 21 view .LVU569
 2172              	.LBB1289:
ARM GAS  /tmp/ccmw9Hql.s 			page 66


 189:dsp/fx/fx_engine.h ****             if(offset == -1)
 2173              		.loc 5 189 45 is_stmt 0 view .LVU570
 2174 0254 B0EE6E0A 		vmov.f32	s0, s29
 2175 0258 FFF7FEFF 		bl	_ZN8DataTypeIL6Format0EE8CompressEf
 2176              	.LVL141:
 196:dsp/fx/fx_engine.h ****             }
 2177              		.loc 5 196 37 view .LVU571
 2178 025c 04F29733 		addw	r3, r4, #919
 2179              	.LBE1289:
 2180              	.LBE1288:
 211:dsp/fx/fx_engine.h ****         }
 2181              		.loc 5 211 26 view .LVU572
 2182 0260 E9EE2EBA 		vfma.f32	s23, s18, s29
 2183              	.LVL142:
 2184              	.LBB1291:
 2185              	.LBB1290:
 196:dsp/fx/fx_engine.h ****             }
 2186              		.loc 5 196 57 view .LVU573
 2187 0264 C3F30D03 		ubfx	r3, r3, #0, #14
 196:dsp/fx/fx_engine.h ****             }
 2188              		.loc 5 196 17 view .LVU574
 2189 0268 25F81300 		strh	r0, [r5, r3, lsl #1]	@ movhi
 2190              	.LVL143:
 196:dsp/fx/fx_engine.h ****             }
 2191              		.loc 5 196 17 view .LVU575
 2192              	.LBE1290:
 2193              	.LBE1291:
 2194              	.LBE1287:
 2195              	.LBE1286:
 2196              	.LBE1285:
 127:dsp/fx/reverb.h ****             c.Read(dap1b TAIL, kap);
 2197              		.loc 7 127 13 is_stmt 1 view .LVU576
 2198              	.LBB1292:
 2199              	.LBI1292:
 221:dsp/fx/fx_engine.h ****         {
 2200              		.loc 5 221 21 view .LVU577
 2201              	.LBB1293:
 2202              	.LBB1294:
 2203              	.LBI1294:
  62:dsp/fx/fx_engine.h ****     {
 2204              		.loc 5 62 25 view .LVU578
 2205              	.LBB1295:
  64:dsp/fx/fx_engine.h ****     }
 2206              		.loc 5 64 9 view .LVU579
 2207              	.LBE1295:
 2208              	.LBE1294:
 227:dsp/fx/fx_engine.h ****             }
 2209              		.loc 5 227 63 is_stmt 0 view .LVU580
 2210 026c 04F59053 		add	r3, r4, #4608
 2211 0270 0233     		adds	r3, r3, #2
 227:dsp/fx/fx_engine.h ****             }
 2212              		.loc 5 227 68 view .LVU581
 2213 0272 C3F30D03 		ubfx	r3, r3, #0, #14
 2214              	.LBB1297:
 2215              	.LBB1296:
  64:dsp/fx/fx_engine.h ****     }
 2216              		.loc 5 64 16 view .LVU582
ARM GAS  /tmp/ccmw9Hql.s 			page 67


 2217 0276 35F91330 		ldrsh	r3, [r5, r3, lsl #1]
 2218 027a 0EEE903A 		vmov	s29, r3	@ int
 2219 027e F8EEEEEA 		vcvt.f32.s32	s29, s29
  64:dsp/fx/fx_engine.h ****     }
 2220              		.loc 5 64 66 view .LVU583
 2221 0282 6EEE88EA 		vmul.f32	s29, s29, s16
 2222              	.LVL144:
  64:dsp/fx/fx_engine.h ****     }
 2223              		.loc 5 64 66 view .LVU584
 2224              	.LBE1296:
 2225              	.LBE1297:
 235:dsp/fx/fx_engine.h ****         }
 2226              		.loc 5 235 26 view .LVU585
 2227 0286 E9EE2EBA 		vfma.f32	s23, s18, s29
 2228              	.LVL145:
 235:dsp/fx/fx_engine.h ****         }
 2229              		.loc 5 235 26 view .LVU586
 2230              	.LBE1293:
 2231              	.LBE1292:
 128:dsp/fx/reverb.h ****             c.WriteAllPass(dap1b, -kap);
 2232              		.loc 7 128 13 is_stmt 1 view .LVU587
 2233              	.LBB1298:
 2234              	.LBI1298:
 215:dsp/fx/fx_engine.h ****         {
 2235              		.loc 5 215 21 view .LVU588
 2236              	.LBB1299:
 2237              	.LBI1299:
 208:dsp/fx/fx_engine.h ****         {
 2238              		.loc 5 208 21 view .LVU589
 2239              	.LBB1300:
 2240              	.LBB1301:
 2241              	.LBI1301:
 186:dsp/fx/fx_engine.h ****         {
 2242              		.loc 5 186 21 view .LVU590
 186:dsp/fx/fx_engine.h ****         {
 2243              		.loc 5 186 21 is_stmt 0 view .LVU591
 2244              	.LBE1301:
 211:dsp/fx/fx_engine.h ****         }
 2245              		.loc 5 211 26 view .LVU592
 2246 028a ECEE2BEA 		vfma.f32	s29, s24, s23
 2247              	.LVL146:
 2248              	.LBB1305:
 2249              	.LBB1302:
 189:dsp/fx/fx_engine.h ****             if(offset == -1)
 2250              		.loc 5 189 45 view .LVU593
 2251 028e B0EE6B0A 		vmov.f32	s0, s23
 2252 0292 FFF7FEFF 		bl	_ZN8DataTypeIL6Format0EE8CompressEf
 2253              	.LVL147:
 196:dsp/fx/fx_engine.h ****             }
 2254              		.loc 5 196 37 view .LVU594
 2255 0296 04F60D23 		addw	r3, r4, #2573
 2256              	.LBE1302:
 2257              	.LBE1305:
 2258              	.LBE1300:
 2259              	.LBE1299:
 2260              	.LBE1298:
 129:dsp/fx/reverb.h ****             c.Write(del1, 2.0f);
ARM GAS  /tmp/ccmw9Hql.s 			page 68


 130:dsp/fx/reverb.h ****             c.Write(wet, 0.0f);
 131:dsp/fx/reverb.h **** 
 132:dsp/fx/reverb.h ****             in_out->l += (wet - in_out->l) * amount;
 2261              		.loc 7 132 31 view .LVU595
 2262 029a F0EE00BA 		vmov.f32	s23, #2.0e+0
 2263              	.LBB1312:
 2264              	.LBB1310:
 2265              	.LBB1308:
 2266              	.LBB1306:
 2267              	.LBB1303:
 196:dsp/fx/fx_engine.h ****             }
 2268              		.loc 5 196 57 view .LVU596
 2269 029e C3F30D03 		ubfx	r3, r3, #0, #14
 2270              	.LBE1303:
 2271              	.LBE1306:
 2272              	.LBE1308:
 2273              	.LBE1310:
 2274              	.LBE1312:
 2275              	.LBB1313:
 2276              	.LBB1314:
 2277              	.LBB1315:
 189:dsp/fx/fx_engine.h ****             if(offset == -1)
 2278              		.loc 5 189 45 view .LVU597
 2279 02a2 B0EE6E0A 		vmov.f32	s0, s29
 2280              	.LBE1315:
 2281              	.LBE1314:
 2282              	.LBE1313:
 2283              	.LBB1322:
 2284              	.LBB1311:
 2285              	.LBB1309:
 2286              	.LBB1307:
 2287              	.LBB1304:
 196:dsp/fx/fx_engine.h ****             }
 2288              		.loc 5 196 17 view .LVU598
 2289 02a6 25F81300 		strh	r0, [r5, r3, lsl #1]	@ movhi
 2290              	.LVL148:
 196:dsp/fx/fx_engine.h ****             }
 2291              		.loc 5 196 17 view .LVU599
 2292              	.LBE1304:
 2293              	.LBE1307:
 2294              	.LBE1309:
 2295              	.LBE1311:
 2296              	.LBE1322:
 129:dsp/fx/reverb.h ****             c.Write(del1, 2.0f);
 2297              		.loc 7 129 13 is_stmt 1 view .LVU600
 2298              	.LBB1323:
 2299              	.LBI1313:
 202:dsp/fx/fx_engine.h ****         {
 2300              		.loc 5 202 21 view .LVU601
 2301              	.LBB1319:
 2302              	.LBI1314:
 186:dsp/fx/fx_engine.h ****         {
 2303              		.loc 5 186 21 view .LVU602
 2304              	.LBB1316:
 189:dsp/fx/fx_engine.h ****             if(offset == -1)
 2305              		.loc 5 189 45 is_stmt 0 view .LVU603
 2306 02aa FFF7FEFF 		bl	_ZN8DataTypeIL6Format0EE8CompressEf
ARM GAS  /tmp/ccmw9Hql.s 			page 69


 2307              	.LVL149:
 196:dsp/fx/fx_engine.h ****             }
 2308              		.loc 5 196 37 view .LVU604
 2309 02ae 04F59053 		add	r3, r4, #4608
 2310              	.LBE1316:
 2311              	.LBE1319:
 2312              	.LBE1323:
 2313              		.loc 7 132 31 view .LVU605
 2314 02b2 F0EE4E7A 		vmov.f32	s15, s28
 2315              	.LBB1324:
 2316              	.LBB1320:
 2317              	.LBB1317:
 196:dsp/fx/fx_engine.h ****             }
 2318              		.loc 5 196 37 view .LVU606
 2319 02b6 0433     		adds	r3, r3, #4
 196:dsp/fx/fx_engine.h ****             }
 2320              		.loc 5 196 57 view .LVU607
 2321 02b8 C3F30D03 		ubfx	r3, r3, #0, #14
 2322              	.LBE1317:
 2323              	.LBE1320:
 2324              	.LBE1324:
 2325              		.loc 7 132 31 view .LVU608
 2326 02bc DEEEAB7A 		vfnms.f32	s15, s29, s23
 2327              	.LBB1325:
 2328              	.LBB1321:
 2329              	.LBB1318:
 196:dsp/fx/fx_engine.h ****             }
 2330              		.loc 5 196 17 view .LVU609
 2331 02c0 25F81300 		strh	r0, [r5, r3, lsl #1]	@ movhi
 2332              	.LVL150:
 196:dsp/fx/fx_engine.h ****             }
 2333              		.loc 5 196 17 view .LVU610
 2334              	.LBE1318:
 2335              	.LBE1321:
 2336              	.LBE1325:
 130:dsp/fx/reverb.h **** 
 2337              		.loc 7 130 13 is_stmt 1 view .LVU611
 2338              		.loc 7 132 13 view .LVU612
 2339              	.LBB1326:
 2340              	.LBB1327:
 227:dsp/fx/fx_engine.h ****             }
 2341              		.loc 5 227 63 is_stmt 0 view .LVU613
 2342 02c4 04F5FA53 		add	r3, r4, #8000
 2343 02c8 1633     		adds	r3, r3, #22
 227:dsp/fx/fx_engine.h ****             }
 2344              		.loc 5 227 68 view .LVU614
 2345 02ca C3F30D03 		ubfx	r3, r3, #0, #14
 2346              	.LBE1327:
 2347              	.LBE1326:
 2348              		.loc 7 132 23 view .LVU615
 2349 02ce A7EEA9EA 		vfma.f32	s28, s15, s19
 2350              	.LBB1341:
 2351              	.LBB1336:
 2352              	.LBB1328:
 2353              	.LBB1329:
  64:dsp/fx/fx_engine.h ****     }
 2354              		.loc 5 64 16 view .LVU616
ARM GAS  /tmp/ccmw9Hql.s 			page 70


 2355 02d2 35F91330 		ldrsh	r3, [r5, r3, lsl #1]
 2356 02d6 07EE903A 		vmov	s15, r3	@ int
 2357              	.LBE1329:
 2358              	.LBE1328:
 2359              	.LBE1336:
 2360              	.LBE1341:
 2361              	.LBB1342:
 2362              	.LBB1343:
 227:dsp/fx/fx_engine.h ****             }
 2363              		.loc 5 227 63 view .LVU617
 2364 02da 04F51B53 		add	r3, r4, #9920
 2365              	.LBE1343:
 2366              	.LBE1342:
 2367              	.LBB1352:
 2368              	.LBB1337:
 2369              	.LBB1333:
 2370              	.LBB1330:
  64:dsp/fx/fx_engine.h ****     }
 2371              		.loc 5 64 16 view .LVU618
 2372 02de F8EEE77A 		vcvt.f32.s32	s15, s15
 2373              	.LBE1330:
 2374              	.LBE1333:
 2375              	.LBE1337:
 2376              	.LBE1352:
 2377              	.LBB1353:
 2378              	.LBB1348:
 227:dsp/fx/fx_engine.h ****             }
 2379              		.loc 5 227 63 view .LVU619
 2380 02e2 1033     		adds	r3, r3, #16
 2381              	.LBE1348:
 2382              	.LBE1353:
 2383              		.loc 7 132 23 view .LVU620
 2384 02e4 07ED04EA 		vstr.32	s28, [r7, #-16]
 133:dsp/fx/reverb.h **** 
 134:dsp/fx/reverb.h ****             c.Load(apout);
 2385              		.loc 7 134 13 is_stmt 1 view .LVU621
 2386              	.LVL151:
 135:dsp/fx/reverb.h ****             // c.Interpolate(del1, 4450.0f, LFO_1, 50.0f, krt);
 136:dsp/fx/reverb.h ****             c.Read(del1 TAIL, krt);
 2387              		.loc 7 136 13 view .LVU622
 2388              	.LBB1354:
 2389              	.LBI1326:
 221:dsp/fx/fx_engine.h ****         {
 2390              		.loc 5 221 21 view .LVU623
 2391              	.LBB1338:
 2392              	.LBB1334:
 2393              	.LBI1328:
  62:dsp/fx/fx_engine.h ****     {
 2394              		.loc 5 62 25 view .LVU624
 2395              	.LBB1331:
  64:dsp/fx/fx_engine.h ****     }
 2396              		.loc 5 64 9 view .LVU625
  64:dsp/fx/fx_engine.h ****     }
 2397              		.loc 5 64 9 is_stmt 0 view .LVU626
 2398              	.LBE1331:
 2399              	.LBE1334:
 2400              	.LBE1338:
ARM GAS  /tmp/ccmw9Hql.s 			page 71


 2401              	.LBE1354:
 2402              	.LBB1355:
 2403              	.LBB1349:
 227:dsp/fx/fx_engine.h ****             }
 2404              		.loc 5 227 68 view .LVU627
 2405 02e8 C3F30D03 		ubfx	r3, r3, #0, #14
 2406              	.LBE1349:
 2407              	.LBE1355:
 2408              	.LBB1356:
 2409              	.LBB1339:
 2410              	.LBB1335:
 2411              	.LBB1332:
  64:dsp/fx/fx_engine.h ****     }
 2412              		.loc 5 64 66 view .LVU628
 2413 02ec 67EE887A 		vmul.f32	s15, s15, s16
 2414              	.LBE1332:
 2415              	.LBE1335:
 2416              	.LBE1339:
 2417              	.LBE1356:
 2418              	.LBB1357:
 2419              	.LBB1350:
 2420              	.LBB1344:
 2421              	.LBB1345:
  64:dsp/fx/fx_engine.h ****     }
 2422              		.loc 5 64 16 view .LVU629
 2423 02f0 35F91330 		ldrsh	r3, [r5, r3, lsl #1]
 2424              	.LBE1345:
 2425              	.LBE1344:
 2426              	.LBE1350:
 2427              	.LBE1357:
 2428              	.LBB1358:
 2429              	.LBB1340:
 235:dsp/fx/fx_engine.h ****         }
 2430              		.loc 5 235 26 view .LVU630
 2431 02f4 EAEEA78A 		vfma.f32	s17, s21, s15
 2432              	.LVL152:
 235:dsp/fx/fx_engine.h ****         }
 2433              		.loc 5 235 26 view .LVU631
 2434              	.LBE1340:
 2435              	.LBE1358:
 137:dsp/fx/reverb.h ****             c.Lp(lp_2, klp);
 2436              		.loc 7 137 13 is_stmt 1 view .LVU632
 2437              	.LBB1359:
 2438              	.LBI1359:
 244:dsp/fx/fx_engine.h ****         {
 2439              		.loc 5 244 21 view .LVU633
 2440              	.LBB1360:
 246:dsp/fx/fx_engine.h ****             accumulator_ = state;
 2441              		.loc 5 246 50 is_stmt 0 view .LVU634
 2442 02f8 78EEEC8A 		vsub.f32	s17, s17, s25
 246:dsp/fx/fx_engine.h ****             accumulator_ = state;
 2443              		.loc 5 246 19 view .LVU635
 2444 02fc EAEE28CA 		vfma.f32	s25, s20, s17
 2445              	.LVL153:
 246:dsp/fx/fx_engine.h ****             accumulator_ = state;
 2446              		.loc 5 246 19 view .LVU636
 2447              	.LBE1360:
ARM GAS  /tmp/ccmw9Hql.s 			page 72


 2448              	.LBE1359:
 138:dsp/fx/reverb.h ****             c.Read(dap2a TAIL, kap);
 2449              		.loc 7 138 13 is_stmt 1 view .LVU637
 2450              	.LBB1361:
 2451              	.LBI1342:
 221:dsp/fx/fx_engine.h ****         {
 2452              		.loc 5 221 21 view .LVU638
 2453              	.LBB1351:
 2454              	.LBB1347:
 2455              	.LBI1344:
  62:dsp/fx/fx_engine.h ****     {
 2456              		.loc 5 62 25 view .LVU639
 2457              	.LBB1346:
  64:dsp/fx/fx_engine.h ****     }
 2458              		.loc 5 64 9 view .LVU640
  64:dsp/fx/fx_engine.h ****     }
 2459              		.loc 5 64 16 is_stmt 0 view .LVU641
 2460 0300 08EE903A 		vmov	s17, r3	@ int
 2461 0304 F8EEE88A 		vcvt.f32.s32	s17, s17
  64:dsp/fx/fx_engine.h ****     }
 2462              		.loc 5 64 66 view .LVU642
 2463 0308 68EE888A 		vmul.f32	s17, s17, s16
 2464              	.LVL154:
  64:dsp/fx/fx_engine.h ****     }
 2465              		.loc 5 64 66 view .LVU643
 2466              	.LBE1346:
 2467              	.LBE1347:
 235:dsp/fx/fx_engine.h ****         }
 2468              		.loc 5 235 26 view .LVU644
 2469 030c B0EE6CEA 		vmov.f32	s28, s25
 2470 0310 A9EE28EA 		vfma.f32	s28, s18, s17
 2471              	.LVL155:
 235:dsp/fx/fx_engine.h ****         }
 2472              		.loc 5 235 26 view .LVU645
 2473              	.LBE1351:
 2474              	.LBE1361:
 139:dsp/fx/reverb.h ****             c.WriteAllPass(dap2a, -kap);
 2475              		.loc 7 139 13 is_stmt 1 view .LVU646
 2476              	.LBB1362:
 2477              	.LBI1362:
 215:dsp/fx/fx_engine.h ****         {
 2478              		.loc 5 215 21 view .LVU647
 2479              	.LBB1363:
 2480              	.LBI1363:
 208:dsp/fx/fx_engine.h ****         {
 2481              		.loc 5 208 21 view .LVU648
 2482              	.LBB1364:
 2483              	.LBB1365:
 2484              	.LBI1365:
 186:dsp/fx/fx_engine.h ****         {
 2485              		.loc 5 186 21 view .LVU649
 2486              	.LBB1366:
 189:dsp/fx/fx_engine.h ****             if(offset == -1)
 2487              		.loc 5 189 45 is_stmt 0 view .LVU650
 2488 0314 B0EE4E0A 		vmov.f32	s0, s28
 2489 0318 FFF7FEFF 		bl	_ZN8DataTypeIL6Format0EE8CompressEf
 2490              	.LVL156:
ARM GAS  /tmp/ccmw9Hql.s 			page 73


 196:dsp/fx/fx_engine.h ****             }
 2491              		.loc 5 196 37 view .LVU651
 2492 031c 04F5FA53 		add	r3, r4, #8000
 2493              	.LBE1366:
 2494              	.LBE1365:
 211:dsp/fx/fx_engine.h ****         }
 2495              		.loc 5 211 26 view .LVU652
 2496 0320 ECEE0E8A 		vfma.f32	s17, s24, s28
 2497              	.LVL157:
 2498              	.LBB1368:
 2499              	.LBB1367:
 196:dsp/fx/fx_engine.h ****             }
 2500              		.loc 5 196 37 view .LVU653
 2501 0324 1833     		adds	r3, r3, #24
 196:dsp/fx/fx_engine.h ****             }
 2502              		.loc 5 196 57 view .LVU654
 2503 0326 C3F30D03 		ubfx	r3, r3, #0, #14
 196:dsp/fx/fx_engine.h ****             }
 2504              		.loc 5 196 17 view .LVU655
 2505 032a 25F81300 		strh	r0, [r5, r3, lsl #1]	@ movhi
 2506              	.LVL158:
 196:dsp/fx/fx_engine.h ****             }
 2507              		.loc 5 196 17 view .LVU656
 2508              	.LBE1367:
 2509              	.LBE1368:
 2510              	.LBE1364:
 2511              	.LBE1363:
 2512              	.LBE1362:
 140:dsp/fx/reverb.h ****             c.Read(dap2b TAIL, -kap);
 2513              		.loc 7 140 13 is_stmt 1 view .LVU657
 2514              	.LBB1369:
 2515              	.LBI1369:
 221:dsp/fx/fx_engine.h ****         {
 2516              		.loc 5 221 21 view .LVU658
 2517              	.LBB1370:
 2518              	.LBB1371:
 2519              	.LBI1371:
  62:dsp/fx/fx_engine.h ****     {
 2520              		.loc 5 62 25 view .LVU659
 2521              	.LBB1372:
  64:dsp/fx/fx_engine.h ****     }
 2522              		.loc 5 64 9 view .LVU660
 2523              	.LBE1372:
 2524              	.LBE1371:
 227:dsp/fx/fx_engine.h ****             }
 2525              		.loc 5 227 63 is_stmt 0 view .LVU661
 2526 032e 04F53553 		add	r3, r4, #11584
 2527 0332 1033     		adds	r3, r3, #16
 227:dsp/fx/fx_engine.h ****             }
 2528              		.loc 5 227 68 view .LVU662
 2529 0334 C3F30D03 		ubfx	r3, r3, #0, #14
 2530              	.LBB1374:
 2531              	.LBB1373:
  64:dsp/fx/fx_engine.h ****     }
 2532              		.loc 5 64 16 view .LVU663
 2533 0338 35F91330 		ldrsh	r3, [r5, r3, lsl #1]
 2534 033c 00EE103A 		vmov	s0, r3	@ int
ARM GAS  /tmp/ccmw9Hql.s 			page 74


 2535 0340 B8EEC00A 		vcvt.f32.s32	s0, s0
  64:dsp/fx/fx_engine.h ****     }
 2536              		.loc 5 64 66 view .LVU664
 2537 0344 20EE088A 		vmul.f32	s16, s0, s16
 2538              	.LVL159:
  64:dsp/fx/fx_engine.h ****     }
 2539              		.loc 5 64 66 view .LVU665
 2540              	.LBE1373:
 2541              	.LBE1374:
 235:dsp/fx/fx_engine.h ****         }
 2542              		.loc 5 235 26 view .LVU666
 2543 0348 ECEE088A 		vfma.f32	s17, s24, s16
 2544              	.LVL160:
 235:dsp/fx/fx_engine.h ****         }
 2545              		.loc 5 235 26 view .LVU667
 2546              	.LBE1370:
 2547              	.LBE1369:
 141:dsp/fx/reverb.h ****             c.WriteAllPass(dap2b, kap);
 2548              		.loc 7 141 13 is_stmt 1 view .LVU668
 2549              	.LBB1375:
 2550              	.LBI1375:
 215:dsp/fx/fx_engine.h ****         {
 2551              		.loc 5 215 21 view .LVU669
 2552              	.LBB1376:
 2553              	.LBI1376:
 208:dsp/fx/fx_engine.h ****         {
 2554              		.loc 5 208 21 view .LVU670
 2555              	.LBB1377:
 2556              	.LBB1378:
 2557              	.LBI1378:
 186:dsp/fx/fx_engine.h ****         {
 2558              		.loc 5 186 21 view .LVU671
 2559              	.LBB1379:
 189:dsp/fx/fx_engine.h ****             if(offset == -1)
 2560              		.loc 5 189 45 is_stmt 0 view .LVU672
 2561 034c B0EE680A 		vmov.f32	s0, s17
 2562 0350 FFF7FEFF 		bl	_ZN8DataTypeIL6Format0EE8CompressEf
 2563              	.LVL161:
 189:dsp/fx/fx_engine.h ****             if(offset == -1)
 2564              		.loc 5 189 45 view .LVU673
 2565              	.LBE1379:
 2566              	.LBE1378:
 211:dsp/fx/fx_engine.h ****         }
 2567              		.loc 5 211 26 view .LVU674
 2568 0354 A9EE288A 		vfma.f32	s16, s18, s17
 2569              	.LVL162:
 2570              	.LBB1384:
 2571              	.LBB1380:
 196:dsp/fx/fx_engine.h ****             }
 2572              		.loc 5 196 37 view .LVU675
 2573 0358 04F51B53 		add	r3, r4, #9920
 2574              	.LBE1380:
 2575              	.LBE1384:
 2576              	.LBE1377:
 2577              	.LBE1376:
 2578              	.LBE1375:
 2579              	.LBB1394:
ARM GAS  /tmp/ccmw9Hql.s 			page 75


 2580              	.LBB1395:
 2581              	.LBB1396:
 2582 035c 4C44     		add	r4, r4, r9
 2583              	.LBE1396:
 2584              	.LBE1395:
 2585              	.LBE1394:
 2586              	.LBB1405:
 2587              	.LBB1391:
 2588              	.LBB1388:
 2589              	.LBB1385:
 2590              	.LBB1381:
 2591 035e 1233     		adds	r3, r3, #18
 2592              	.LBE1381:
 2593              	.LBE1385:
 2594              	.LBE1388:
 2595              	.LBE1391:
 2596              	.LBE1405:
 2597              	.LBB1406:
 2598              	.LBB1401:
 2599              	.LBB1397:
 196:dsp/fx/fx_engine.h ****             }
 2600              		.loc 5 196 57 view .LVU676
 2601 0360 C4F30D04 		ubfx	r4, r4, #0, #14
 2602              	.LBE1397:
 2603              	.LBE1401:
 2604              	.LBE1406:
 2605              	.LBB1407:
 2606              	.LBB1392:
 2607              	.LBB1389:
 2608              	.LBB1386:
 2609              	.LBB1382:
 2610 0364 C3F30D03 		ubfx	r3, r3, #0, #14
 2611              	.LBE1382:
 2612              	.LBE1386:
 2613              	.LBE1389:
 2614              	.LBE1392:
 2615              	.LBE1407:
 2616              	.LBB1408:
 2617              	.LBB1402:
 2618              	.LBB1398:
 189:dsp/fx/fx_engine.h ****             if(offset == -1)
 2619              		.loc 5 189 45 view .LVU677
 2620 0368 B0EE480A 		vmov.f32	s0, s16
 2621              	.LBE1398:
 2622              	.LBE1402:
 2623              	.LBE1408:
 2624              	.LBB1409:
 2625              	.LBB1393:
 2626              	.LBB1390:
 2627              	.LBB1387:
 2628              	.LBB1383:
 196:dsp/fx/fx_engine.h ****             }
 2629              		.loc 5 196 17 view .LVU678
 2630 036c 25F81300 		strh	r0, [r5, r3, lsl #1]	@ movhi
 2631              	.LVL163:
 196:dsp/fx/fx_engine.h ****             }
 2632              		.loc 5 196 17 view .LVU679
ARM GAS  /tmp/ccmw9Hql.s 			page 76


 2633              	.LBE1383:
 2634              	.LBE1387:
 2635              	.LBE1390:
 2636              	.LBE1393:
 2637              	.LBE1409:
 142:dsp/fx/reverb.h ****             c.Write(del2, 2.0f);
 2638              		.loc 7 142 13 is_stmt 1 view .LVU680
 2639              	.LBB1410:
 2640              	.LBI1394:
 202:dsp/fx/fx_engine.h ****         {
 2641              		.loc 5 202 21 view .LVU681
 2642              	.LBB1403:
 2643              	.LBI1395:
 186:dsp/fx/fx_engine.h ****         {
 2644              		.loc 5 186 21 view .LVU682
 2645              	.LBB1399:
 189:dsp/fx/fx_engine.h ****             if(offset == -1)
 2646              		.loc 5 189 45 is_stmt 0 view .LVU683
 2647 0370 FFF7FEFF 		bl	_ZN8DataTypeIL6Format0EE8CompressEf
 2648              	.LVL164:
 189:dsp/fx/fx_engine.h ****             if(offset == -1)
 2649              		.loc 5 189 45 view .LVU684
 2650              	.LBE1399:
 2651              	.LBE1403:
 2652              	.LBE1410:
 143:dsp/fx/reverb.h ****             c.Write(wet, 0.0f);
 144:dsp/fx/reverb.h **** 
 145:dsp/fx/reverb.h ****             in_out->r += (wet - in_out->r) * amount;
 2653              		.loc 7 145 31 view .LVU685
 2654 0374 F0EE6D7A 		vmov.f32	s15, s27
 2655              	.LBB1411:
 2656              	.LBB1404:
 2657              	.LBB1400:
 196:dsp/fx/fx_engine.h ****             }
 2658              		.loc 5 196 17 view .LVU686
 2659 0378 25F81400 		strh	r0, [r5, r4, lsl #1]	@ movhi
 2660              	.LVL165:
 196:dsp/fx/fx_engine.h ****             }
 2661              		.loc 5 196 17 view .LVU687
 2662              	.LBE1400:
 2663              	.LBE1404:
 2664              	.LBE1411:
 143:dsp/fx/reverb.h ****             c.Write(wet, 0.0f);
 2665              		.loc 7 143 13 is_stmt 1 view .LVU688
 2666              		.loc 7 145 13 view .LVU689
 2667              		.loc 7 145 31 is_stmt 0 view .LVU690
 2668 037c D8EE2B7A 		vfnms.f32	s15, s16, s23
 2669              		.loc 7 145 23 view .LVU691
 2670 0380 E7EEA9DA 		vfma.f32	s27, s15, s19
 2671 0384 47ED03DA 		vstr.32	s27, [r7, #-12]
 146:dsp/fx/reverb.h **** 
 147:dsp/fx/reverb.h ****             ++in_out;
 2672              		.loc 7 147 13 is_stmt 1 view .LVU692
 2673              	.LVL166:
 2674              		.loc 7 147 13 is_stmt 0 view .LVU693
 2675              	.LBE1116:
  98:dsp/fx/reverb.h ****         {
ARM GAS  /tmp/ccmw9Hql.s 			page 77


 2676              		.loc 7 98 9 view .LVU694
 2677 0388 50E6     		b	.L31
 2678              	.LVL167:
 2679              	.L29:
 2680              	.LBB1414:
 2681              	.LBB1412:
 2682              	.LBB1121:
 317:dsp/fx/fx_engine.h ****         }
 318:dsp/fx/fx_engine.h ****         else
 319:dsp/fx/fx_engine.h ****         {
 320:dsp/fx/fx_engine.h ****             c->lfo_value_[0] = lfo_[0].value();
 2683              		.loc 5 320 45 view .LVU695
 2684 038a 96ED028A 		vldr.32	s16, [r6, #8]
 2685              	.LVL168:
 2686              		.loc 5 320 45 view .LVU696
 2687              	.LBE1121:
 2688              	.LBE1412:
 2689              	.LBE1414:
  91:./stmtemp.h   **** 
 2690              		.loc 3 91 21 is_stmt 1 view .LVU697
 2691              	.LBB1415:
 2692              	.LBB1413:
 2693              	.LBB1122:
 321:dsp/fx/fx_engine.h ****             c->lfo_value_[1] = lfo_[1].value();
 2694              		.loc 5 321 45 is_stmt 0 view .LVU698
 2695 038e D6ED06EA 		vldr.32	s29, [r6, #24]
 2696              	.LVL169:
 2697              		.loc 5 321 45 view .LVU699
 2698              	.LBE1122:
 2699              	.LBE1413:
 2700              	.LBE1415:
  91:./stmtemp.h   **** 
 2701              		.loc 3 91 21 is_stmt 1 view .LVU700
  91:./stmtemp.h   **** 
 2702              		.loc 3 91 21 is_stmt 0 view .LVU701
 2703 0392 68E6     		b	.L30
 2704              	.LVL170:
 2705              	.L26:
 148:dsp/fx/reverb.h ****         }
 149:dsp/fx/reverb.h **** 
 150:dsp/fx/reverb.h ****         lp_decay_1_ = lp_1;
 2706              		.loc 7 150 9 is_stmt 1 view .LVU702
 2707              		.loc 7 150 21 is_stmt 0 view .LVU703
 2708 0394 86ED0FDA 		vstr.32	s26, [r6, #60]
 151:dsp/fx/reverb.h ****         lp_decay_2_ = lp_2;
 2709              		.loc 7 151 9 is_stmt 1 view .LVU704
 2710              		.loc 7 151 21 is_stmt 0 view .LVU705
 2711 0398 C6ED10CA 		vstr.32	s25, [r6, #64]
 2712              	.LVL171:
 2713              	.LBB1416:
 2714              	.LBI1416:
 166:dsp/fx/fx_engine.h **** 
 2715              		.loc 5 166 9 is_stmt 1 view .LVU706
 166:dsp/fx/fx_engine.h **** 
 2716              		.loc 5 166 9 is_stmt 0 view .LVU707
 2717              	.LBE1416:
 152:dsp/fx/reverb.h ****     }
ARM GAS  /tmp/ccmw9Hql.s 			page 78


 2718              		.loc 7 152 5 view .LVU708
 2719 039c BDEC0E8B 		vldm	sp!, {d8-d14}
 2720              		.cfi_restore 92
 2721              		.cfi_restore 93
 2722              		.cfi_restore 90
 2723              		.cfi_restore 91
 2724              		.cfi_restore 88
 2725              		.cfi_restore 89
 2726              		.cfi_restore 86
 2727              		.cfi_restore 87
 2728              		.cfi_restore 84
 2729              		.cfi_restore 85
 2730              		.cfi_restore 82
 2731              		.cfi_restore 83
 2732              		.cfi_restore 80
 2733              		.cfi_restore 81
 2734              		.cfi_def_cfa_offset 32
 2735              	.LVL172:
 2736              		.loc 7 152 5 view .LVU709
 2737 03a0 BDE8F883 		pop	{r3, r4, r5, r6, r7, r8, r9, pc}
 2738              	.LVL173:
 2739              	.L33:
 2740              		.loc 7 152 5 view .LVU710
 2741              		.align	2
 2742              	.L32:
 2743 03a4 00007042 		.word	1114636288
 2744 03a8 00000000 		.word	0
 2745 03ac 00008039 		.word	964689920
 2746 03b0 0000C842 		.word	1120403456
 2747 03b4 00409245 		.word	1167212544
 2748              		.cfi_endproc
 2749              	.LFE4289:
 2751              		.section	.text._ZN20GranularSamplePlayer13ScheduleGrainEP5GrainRK10Parameterslll12GrainQuality,"ax
 2752              		.align	1
 2753              		.weak	_ZN20GranularSamplePlayer13ScheduleGrainEP5GrainRK10Parameterslll12GrainQuality
 2754              		.syntax unified
 2755              		.thumb
 2756              		.thumb_func
 2757              		.fpu fpv5-d16
 2759              	_ZN20GranularSamplePlayer13ScheduleGrainEP5GrainRK10Parameterslll12GrainQuality:
 2760              	.LVL174:
 2761              	.LFB4331:
 2762              		.file 8 "dsp/granular_sample_player.h"
   1:dsp/granular_sample_player.h **** // Copyright 2014 Emilie Gillet.
   2:dsp/granular_sample_player.h **** //
   3:dsp/granular_sample_player.h **** // Author: Emilie Gillet (emilie.o.gillet@gmail.com)
   4:dsp/granular_sample_player.h **** //
   5:dsp/granular_sample_player.h **** // Permission is hereby granted, free of charge, to any person obtaining a copy
   6:dsp/granular_sample_player.h **** // of this software and associated documentation files (the "Software"), to deal
   7:dsp/granular_sample_player.h **** // in the Software without restriction, including without limitation the rights
   8:dsp/granular_sample_player.h **** // to use, copy, modify, merge, publish, distribute, sublicense, and/or sell
   9:dsp/granular_sample_player.h **** // copies of the Software, and to permit persons to whom the Software is
  10:dsp/granular_sample_player.h **** // furnished to do so, subject to the following conditions:
  11:dsp/granular_sample_player.h **** //
  12:dsp/granular_sample_player.h **** // The above copyright notice and this permission notice shall be included in
  13:dsp/granular_sample_player.h **** // all copies or substantial portions of the Software.
  14:dsp/granular_sample_player.h **** //
ARM GAS  /tmp/ccmw9Hql.s 			page 79


  15:dsp/granular_sample_player.h **** // THE SOFTWARE IS PROVIDED "AS IS", WITHOUT WARRANTY OF ANY KIND, EXPRESS OR
  16:dsp/granular_sample_player.h **** // IMPLIED, INCLUDING BUT NOT LIMITED TO THE WARRANTIES OF MERCHANTABILITY,
  17:dsp/granular_sample_player.h **** // FITNESS FOR A PARTICULAR PURPOSE AND NONINFRINGEMENT. IN NO EVENT SHALL THE
  18:dsp/granular_sample_player.h **** // AUTHORS OR COPYRIGHT HOLDERS BE LIABLE FOR ANY CLAIM, DAMAGES OR OTHER
  19:dsp/granular_sample_player.h **** // LIABILITY, WHETHER IN AN ACTION OF CONTRACT, TORT OR OTHERWISE, ARISING FROM,
  20:dsp/granular_sample_player.h **** // OUT OF OR IN CONNECTION WITH THE SOFTWARE OR THE USE OR OTHER DEALINGS IN
  21:dsp/granular_sample_player.h **** // THE SOFTWARE.
  22:dsp/granular_sample_player.h **** //
  23:dsp/granular_sample_player.h **** // See http://creativecommons.org/licenses/MIT/ for more information.
  24:dsp/granular_sample_player.h **** //
  25:dsp/granular_sample_player.h **** // -----------------------------------------------------------------------------
  26:dsp/granular_sample_player.h **** //
  27:dsp/granular_sample_player.h **** // Granular playback of audio stored in a buffer.
  28:dsp/granular_sample_player.h **** 
  29:dsp/granular_sample_player.h **** #ifndef CLOUDS_DSP_GRANULAR_SAMPLE_PLAYER_H_
  30:dsp/granular_sample_player.h **** #define CLOUDS_DSP_GRANULAR_SAMPLE_PLAYER_H_
  31:dsp/granular_sample_player.h **** 
  32:dsp/granular_sample_player.h **** #include "daisy.h"
  33:dsp/granular_sample_player.h **** 
  34:dsp/granular_sample_player.h **** #include <algorithm>
  35:dsp/granular_sample_player.h **** 
  36:dsp/granular_sample_player.h **** #include "audio_buffer.h"
  37:dsp/granular_sample_player.h **** #include "frame.h"
  38:dsp/granular_sample_player.h **** #include "grain.h"
  39:dsp/granular_sample_player.h **** #include "parameters.h"
  40:dsp/granular_sample_player.h **** 
  41:dsp/granular_sample_player.h **** #include <random>
  42:dsp/granular_sample_player.h **** 
  43:dsp/granular_sample_player.h **** using namespace daisysp;
  44:dsp/granular_sample_player.h **** 
  45:dsp/granular_sample_player.h **** const int32_t kMaxNumGrains = 64;
  46:dsp/granular_sample_player.h **** 
  47:dsp/granular_sample_player.h **** using namespace daisy;
  48:dsp/granular_sample_player.h **** 
  49:dsp/granular_sample_player.h **** class GranularSamplePlayer
  50:dsp/granular_sample_player.h **** {
  51:dsp/granular_sample_player.h ****   public:
  52:dsp/granular_sample_player.h ****     GranularSamplePlayer() {}
  53:dsp/granular_sample_player.h ****     ~GranularSamplePlayer() {}
  54:dsp/granular_sample_player.h **** 
  55:dsp/granular_sample_player.h ****     void Init(int32_t num_channels, int32_t max_num_grains)
  56:dsp/granular_sample_player.h ****     {
  57:dsp/granular_sample_player.h ****         max_num_grains_     = max_num_grains;
  58:dsp/granular_sample_player.h ****         num_midfi_grains_   = 3 * max_num_grains / 4;
  59:dsp/granular_sample_player.h ****         gain_normalization_ = 1.0f;
  60:dsp/granular_sample_player.h ****         for(int32_t i = 0; i < kMaxNumGrains; ++i)
  61:dsp/granular_sample_player.h ****         {
  62:dsp/granular_sample_player.h ****             grains_[i].Init();
  63:dsp/granular_sample_player.h ****         }
  64:dsp/granular_sample_player.h ****         num_grains_      = 0.0f;
  65:dsp/granular_sample_player.h ****         num_channels_    = num_channels;
  66:dsp/granular_sample_player.h ****         grain_size_hint_ = 1024.0f;
  67:dsp/granular_sample_player.h ****     }
  68:dsp/granular_sample_player.h **** 
  69:dsp/granular_sample_player.h ****     template <Resolution resolution>
  70:dsp/granular_sample_player.h ****     void Play(const AudioBuffer<resolution>* buffer,
  71:dsp/granular_sample_player.h ****               const Parameters&              parameters,
ARM GAS  /tmp/ccmw9Hql.s 			page 80


  72:dsp/granular_sample_player.h ****               float*                         out,
  73:dsp/granular_sample_player.h ****               size_t                         size)
  74:dsp/granular_sample_player.h ****     {
  75:dsp/granular_sample_player.h ****         float overlap           = parameters.granular.overlap;
  76:dsp/granular_sample_player.h ****         overlap                 = overlap * overlap * overlap;
  77:dsp/granular_sample_player.h ****         float target_num_grains = max_num_grains_ * overlap;
  78:dsp/granular_sample_player.h ****         float p = target_num_grains / static_cast<float>(grain_size_hint_);
  79:dsp/granular_sample_player.h ****         float space_between_grains = grain_size_hint_ / target_num_grains;
  80:dsp/granular_sample_player.h ****         if(parameters.granular.use_deterministic_seed)
  81:dsp/granular_sample_player.h ****         {
  82:dsp/granular_sample_player.h ****             p = -1.0f;
  83:dsp/granular_sample_player.h ****         }
  84:dsp/granular_sample_player.h ****         else
  85:dsp/granular_sample_player.h ****         {
  86:dsp/granular_sample_player.h ****             grain_rate_phasor_ = -1000.0f;
  87:dsp/granular_sample_player.h ****         }
  88:dsp/granular_sample_player.h **** 
  89:dsp/granular_sample_player.h ****         // Build a list of available grains.
  90:dsp/granular_sample_player.h ****         int32_t num_available_grains = FillAvailableGrainsList();
  91:dsp/granular_sample_player.h **** 
  92:dsp/granular_sample_player.h ****         // Try to schedule new grains.
  93:dsp/granular_sample_player.h ****         bool seed_trigger = parameters.trigger;
  94:dsp/granular_sample_player.h ****         for(size_t t = 0; t < size; ++t)
  95:dsp/granular_sample_player.h ****         {
  96:dsp/granular_sample_player.h ****             grain_rate_phasor_ += 1.0f;
  97:dsp/granular_sample_player.h ****             bool seed_probabilistic
  98:dsp/granular_sample_player.h ****                 = kRandFrac * rand() < p && target_num_grains > num_grains_;
  99:dsp/granular_sample_player.h ****             bool seed_deterministic
 100:dsp/granular_sample_player.h ****                 = grain_rate_phasor_ >= space_between_grains;
 101:dsp/granular_sample_player.h ****             bool seed
 102:dsp/granular_sample_player.h ****                 = seed_probabilistic || seed_deterministic || seed_trigger;
 103:dsp/granular_sample_player.h ****             if(num_available_grains && seed)
 104:dsp/granular_sample_player.h ****             {
 105:dsp/granular_sample_player.h ****                 --num_available_grains;
 106:dsp/granular_sample_player.h ****                 int32_t      index = available_grains_[num_available_grains];
 107:dsp/granular_sample_player.h ****                 GrainQuality quality;
 108:dsp/granular_sample_player.h ****                 if(num_available_grains < num_midfi_grains_)
 109:dsp/granular_sample_player.h ****                 {
 110:dsp/granular_sample_player.h ****                     quality = GRAIN_QUALITY_MEDIUM;
 111:dsp/granular_sample_player.h ****                 }
 112:dsp/granular_sample_player.h ****                 else
 113:dsp/granular_sample_player.h ****                 {
 114:dsp/granular_sample_player.h ****                     quality = GRAIN_QUALITY_HIGH;
 115:dsp/granular_sample_player.h ****                 }
 116:dsp/granular_sample_player.h **** 
 117:dsp/granular_sample_player.h ****                 Grain* g = &grains_[index];
 118:dsp/granular_sample_player.h ****                 ScheduleGrain(g,
 119:dsp/granular_sample_player.h ****                               parameters,
 120:dsp/granular_sample_player.h ****                               t,
 121:dsp/granular_sample_player.h ****                               buffer->size(),
 122:dsp/granular_sample_player.h ****                               buffer->head() - size + t,
 123:dsp/granular_sample_player.h ****                               quality);
 124:dsp/granular_sample_player.h ****                 grain_rate_phasor_ = 0.0f;
 125:dsp/granular_sample_player.h ****                 seed_trigger       = false;
 126:dsp/granular_sample_player.h ****             }
 127:dsp/granular_sample_player.h ****         }
 128:dsp/granular_sample_player.h **** 
ARM GAS  /tmp/ccmw9Hql.s 			page 81


 129:dsp/granular_sample_player.h ****         // Overlap grains.
 130:dsp/granular_sample_player.h ****         std::fill(&out[0], &out[size * 2], 0.0f);
 131:dsp/granular_sample_player.h ****         float* e = envelope_buffer_;
 132:dsp/granular_sample_player.h ****         for(int32_t i = 0; i < max_num_grains_; ++i)
 133:dsp/granular_sample_player.h ****         {
 134:dsp/granular_sample_player.h ****             Grain* g = &grains_[i];
 135:dsp/granular_sample_player.h ****             if(g->recommended_quality() == GRAIN_QUALITY_HIGH)
 136:dsp/granular_sample_player.h ****             {
 137:dsp/granular_sample_player.h ****                 if(num_channels_ == 1)
 138:dsp/granular_sample_player.h ****                 {
 139:dsp/granular_sample_player.h ****                     g->OverlapAdd<1, GRAIN_QUALITY_HIGH>(buffer, out, e, size);
 140:dsp/granular_sample_player.h ****                 }
 141:dsp/granular_sample_player.h ****                 else
 142:dsp/granular_sample_player.h ****                 {
 143:dsp/granular_sample_player.h ****                     g->OverlapAdd<2, GRAIN_QUALITY_HIGH>(buffer, out, e, size);
 144:dsp/granular_sample_player.h ****                 }
 145:dsp/granular_sample_player.h ****             }
 146:dsp/granular_sample_player.h ****             else if(g->recommended_quality() == GRAIN_QUALITY_MEDIUM)
 147:dsp/granular_sample_player.h ****             {
 148:dsp/granular_sample_player.h ****                 if(num_channels_ == 1)
 149:dsp/granular_sample_player.h ****                 {
 150:dsp/granular_sample_player.h ****                     g->OverlapAdd<1, GRAIN_QUALITY_MEDIUM>(
 151:dsp/granular_sample_player.h ****                         buffer, out, e, size);
 152:dsp/granular_sample_player.h ****                 }
 153:dsp/granular_sample_player.h ****                 else
 154:dsp/granular_sample_player.h ****                 {
 155:dsp/granular_sample_player.h ****                     g->OverlapAdd<2, GRAIN_QUALITY_MEDIUM>(
 156:dsp/granular_sample_player.h ****                         buffer, out, e, size);
 157:dsp/granular_sample_player.h ****                 }
 158:dsp/granular_sample_player.h ****             }
 159:dsp/granular_sample_player.h ****             else
 160:dsp/granular_sample_player.h ****             {
 161:dsp/granular_sample_player.h ****                 if(num_channels_ == 1)
 162:dsp/granular_sample_player.h ****                 {
 163:dsp/granular_sample_player.h ****                     g->OverlapAdd<1, GRAIN_QUALITY_LOW>(buffer, out, e, size);
 164:dsp/granular_sample_player.h ****                 }
 165:dsp/granular_sample_player.h ****                 else
 166:dsp/granular_sample_player.h ****                 {
 167:dsp/granular_sample_player.h ****                     g->OverlapAdd<2, GRAIN_QUALITY_LOW>(buffer, out, e, size);
 168:dsp/granular_sample_player.h ****                 }
 169:dsp/granular_sample_player.h ****             }
 170:dsp/granular_sample_player.h ****         }
 171:dsp/granular_sample_player.h **** 
 172:dsp/granular_sample_player.h ****         // Compute normalization factor.
 173:dsp/granular_sample_player.h ****         int32_t active_grains = max_num_grains_ - num_available_grains;
 174:dsp/granular_sample_player.h ****         SLOPE(num_grains_, static_cast<float>(active_grains), 0.9f, 0.2f);
 175:dsp/granular_sample_player.h **** 
 176:dsp/granular_sample_player.h ****         float gain_normalization = num_grains_ > 2.0f
 177:dsp/granular_sample_player.h ****                                        ? fast_rsqrt_carmack(num_grains_ - 1.0f)
 178:dsp/granular_sample_player.h ****                                        : 1.0f;
 179:dsp/granular_sample_player.h ****         float window_gain = 1.0f + 2.0f * parameters.granular.window_shape;
 180:dsp/granular_sample_player.h ****         CONSTRAIN(window_gain, 1.0f, 2.0f);
 181:dsp/granular_sample_player.h ****         gain_normalization
 182:dsp/granular_sample_player.h ****             *= Crossfade(1.0f, window_gain, parameters.granular.overlap);
 183:dsp/granular_sample_player.h **** 
 184:dsp/granular_sample_player.h ****         // Apply gain normalization.
 185:dsp/granular_sample_player.h ****         for(size_t t = 0; t < size; ++t)
ARM GAS  /tmp/ccmw9Hql.s 			page 82


 186:dsp/granular_sample_player.h ****         {
 187:dsp/granular_sample_player.h ****             ONE_POLE(gain_normalization_, gain_normalization, 0.01f)
 188:dsp/granular_sample_player.h ****             *out++ *= gain_normalization_;
 189:dsp/granular_sample_player.h ****             *out++ *= gain_normalization_;
 190:dsp/granular_sample_player.h ****         }
 191:dsp/granular_sample_player.h ****     }
 192:dsp/granular_sample_player.h **** 
 193:dsp/granular_sample_player.h ****   private:
 194:dsp/granular_sample_player.h ****     int32_t FillAvailableGrainsList()
 195:dsp/granular_sample_player.h ****     {
 196:dsp/granular_sample_player.h ****         int32_t num_available_grains = 0;
 197:dsp/granular_sample_player.h ****         for(int32_t i = 0; i < max_num_grains_; ++i)
 198:dsp/granular_sample_player.h ****         {
 199:dsp/granular_sample_player.h ****             if(!grains_[i].active())
 200:dsp/granular_sample_player.h ****             {
 201:dsp/granular_sample_player.h ****                 available_grains_[num_available_grains] = i;
 202:dsp/granular_sample_player.h ****                 ++num_available_grains;
 203:dsp/granular_sample_player.h ****             }
 204:dsp/granular_sample_player.h ****         }
 205:dsp/granular_sample_player.h ****         return num_available_grains;
 206:dsp/granular_sample_player.h ****     }
 207:dsp/granular_sample_player.h **** 
 208:dsp/granular_sample_player.h ****     void ScheduleGrain(Grain*            grain,
 2763              		.loc 8 208 10 is_stmt 1 view -0
 2764              		.cfi_startproc
 2765              		@ args = 12, pretend = 0, frame = 0
 2766              		@ frame_needed = 0, uses_anonymous_args = 0
 209:dsp/granular_sample_player.h ****                        const Parameters& parameters,
 210:dsp/granular_sample_player.h ****                        int32_t           pre_delay,
 211:dsp/granular_sample_player.h ****                        int32_t           buffer_size,
 212:dsp/granular_sample_player.h ****                        int32_t           buffer_head,
 213:dsp/granular_sample_player.h ****                        GrainQuality      quality)
 214:dsp/granular_sample_player.h ****     {
 215:dsp/granular_sample_player.h ****         float position     = parameters.position;
 2767              		.loc 8 215 9 view .LVU712
 208:dsp/granular_sample_player.h ****                        const Parameters& parameters,
 2768              		.loc 8 208 10 is_stmt 0 view .LVU713
 2769 0000 2DE9F041 		push	{r4, r5, r6, r7, r8, lr}
 2770              		.cfi_def_cfa_offset 24
 2771              		.cfi_offset 4, -24
 2772              		.cfi_offset 5, -20
 2773              		.cfi_offset 6, -16
 2774              		.cfi_offset 7, -12
 2775              		.cfi_offset 8, -8
 2776              		.cfi_offset 14, -4
 2777 0004 2DED0A8B 		vpush.64	{d8, d9, d10, d11, d12}
 2778              		.cfi_def_cfa_offset 64
 2779              		.cfi_offset 80, -64
 2780              		.cfi_offset 81, -60
 2781              		.cfi_offset 82, -56
 2782              		.cfi_offset 83, -52
 2783              		.cfi_offset 84, -48
 2784              		.cfi_offset 85, -44
 2785              		.cfi_offset 86, -40
 2786              		.cfi_offset 87, -36
 2787              		.cfi_offset 88, -32
 2788              		.cfi_offset 89, -28
ARM GAS  /tmp/ccmw9Hql.s 			page 83


 216:dsp/granular_sample_player.h ****         float pitch        = parameters.pitch;
 2789              		.loc 8 216 15 view .LVU714
 2790 0008 92ED028A 		vldr.32	s16, [r2, #8]
 208:dsp/granular_sample_player.h ****                        const Parameters& parameters,
 2791              		.loc 8 208 10 view .LVU715
 2792 000c 0646     		mov	r6, r0
 217:dsp/granular_sample_player.h ****         float window_shape = parameters.granular.window_shape;
 218:dsp/granular_sample_player.h ****         float grain_size = Interpolate(lut_grain_size, parameters.size, 256.0f);
 2793              		.loc 8 218 39 view .LVU716
 2794 000e DFED6D0A 		vldr.32	s1, .L51
 208:dsp/granular_sample_player.h ****                        const Parameters& parameters,
 2795              		.loc 8 208 10 view .LVU717
 2796 0012 1546     		mov	r5, r2
 2797              		.loc 8 218 39 view .LVU718
 2798 0014 92ED010A 		vldr.32	s0, [r2, #4]
 208:dsp/granular_sample_player.h ****                        const Parameters& parameters,
 2799              		.loc 8 208 10 view .LVU719
 2800 0018 9846     		mov	r8, r3
 2801              		.loc 8 218 39 view .LVU720
 2802 001a 6B48     		ldr	r0, .L51+4
 2803              	.LVL175:
 208:dsp/granular_sample_player.h ****                        const Parameters& parameters,
 2804              		.loc 8 208 10 view .LVU721
 2805 001c 0C46     		mov	r4, r1
 215:dsp/granular_sample_player.h ****         float pitch        = parameters.pitch;
 2806              		.loc 8 215 15 view .LVU722
 2807 001e 92ED00AA 		vldr.32	s20, [r2]
 2808              	.LVL176:
 216:dsp/granular_sample_player.h ****         float window_shape = parameters.granular.window_shape;
 2809              		.loc 8 216 9 is_stmt 1 view .LVU723
 217:dsp/granular_sample_player.h ****         float grain_size = Interpolate(lut_grain_size, parameters.size, 256.0f);
 2810              		.loc 8 217 9 view .LVU724
 219:dsp/granular_sample_player.h ****         float pitch_ratio     = SemitonesToRatio(pitch);
 220:dsp/granular_sample_player.h ****         float inv_pitch_ratio = SemitonesToRatio(-pitch);
 221:dsp/granular_sample_player.h ****         float pan
 222:dsp/granular_sample_player.h ****             = 0.5f + parameters.stereo_spread * (kRandFrac * rand() - 0.5f);
 2811              		.loc 8 222 75 is_stmt 0 view .LVU725
 2812 0022 B6EE009A 		vmov.f32	s18, #5.0e-1
 217:dsp/granular_sample_player.h ****         float grain_size = Interpolate(lut_grain_size, parameters.size, 256.0f);
 2813              		.loc 8 217 15 view .LVU726
 2814 0026 D2ED0BAA 		vldr.32	s21, [r2, #44]
 2815              	.LVL177:
 218:dsp/granular_sample_player.h ****         float pitch_ratio     = SemitonesToRatio(pitch);
 2816              		.loc 8 218 9 is_stmt 1 view .LVU727
 218:dsp/granular_sample_player.h ****         float pitch_ratio     = SemitonesToRatio(pitch);
 2817              		.loc 8 218 39 is_stmt 0 view .LVU728
 2818 002a FFF7FEFF 		bl	_Z11InterpolatePKfff
 2819              	.LVL178:
 218:dsp/granular_sample_player.h ****         float pitch_ratio     = SemitonesToRatio(pitch);
 2820              		.loc 8 218 39 view .LVU729
 2821 002e F0EE408A 		vmov.f32	s17, s0
 2822              	.LVL179:
 219:dsp/granular_sample_player.h ****         float pitch_ratio     = SemitonesToRatio(pitch);
 2823              		.loc 8 219 9 is_stmt 1 view .LVU730
 208:dsp/granular_sample_player.h ****                        const Parameters& parameters,
 2824              		.loc 8 208 10 is_stmt 0 view .LVU731
 2825 0032 109F     		ldr	r7, [sp, #64]
ARM GAS  /tmp/ccmw9Hql.s 			page 84


 219:dsp/granular_sample_player.h ****         float pitch_ratio     = SemitonesToRatio(pitch);
 2826              		.loc 8 219 49 view .LVU732
 2827 0034 B0EE480A 		vmov.f32	s0, s16
 2828              	.LVL180:
 219:dsp/granular_sample_player.h ****         float pitch_ratio     = SemitonesToRatio(pitch);
 2829              		.loc 8 219 49 view .LVU733
 2830 0038 FFF7FEFF 		bl	_Z16SemitonesToRatiof
 2831              	.LVL181:
 2832 003c F0EE409A 		vmov.f32	s19, s0
 2833              	.LVL182:
 220:dsp/granular_sample_player.h ****         float pan
 2834              		.loc 8 220 9 is_stmt 1 view .LVU734
 220:dsp/granular_sample_player.h ****         float pan
 2835              		.loc 8 220 49 is_stmt 0 view .LVU735
 2836 0040 B1EE480A 		vneg.f32	s0, s16
 2837              	.LVL183:
 220:dsp/granular_sample_player.h ****         float pan
 2838              		.loc 8 220 49 view .LVU736
 2839 0044 FFF7FEFF 		bl	_Z16SemitonesToRatiof
 2840              	.LVL184:
 2841              		.loc 8 222 33 view .LVU737
 2842 0048 95ED068A 		vldr.32	s16, [r5, #24]
 2843              	.LVL185:
 220:dsp/granular_sample_player.h ****         float pan
 2844              		.loc 8 220 49 view .LVU738
 2845 004c F0EE40BA 		vmov.f32	s23, s0
 2846              	.LVL186:
 221:dsp/granular_sample_player.h ****             = 0.5f + parameters.stereo_spread * (kRandFrac * rand() - 0.5f);
 2847              		.loc 8 221 9 is_stmt 1 view .LVU739
 2848              		.loc 8 222 66 is_stmt 0 view .LVU740
 2849 0050 FFF7FEFF 		bl	rand
 2850              	.LVL187:
 2851              		.loc 8 222 60 view .LVU741
 2852 0054 07EE900A 		vmov	s15, r0	@ int
 2853              		.loc 8 222 69 view .LVU742
 2854 0058 DFED5C6A 		vldr.32	s13, .L51+8
 223:dsp/granular_sample_player.h ****         float gain_l, gain_r;
 224:dsp/granular_sample_player.h ****         if(num_channels_ == 1)
 2855              		.loc 8 224 9 view .LVU743
 2856 005c B368     		ldr	r3, [r6, #8]
 2857 005e B7EE00BA 		vmov.f32	s22, #1.0e+0
 222:dsp/granular_sample_player.h ****         float gain_l, gain_r;
 2858              		.loc 8 222 60 view .LVU744
 2859 0062 B8EEE77A 		vcvt.f32.s32	s14, s15
 222:dsp/granular_sample_player.h ****         float gain_l, gain_r;
 2860              		.loc 8 222 69 view .LVU745
 2861 0066 FEEE007A 		vmov.f32	s15, #-5.0e-1
 2862              		.loc 8 224 9 view .LVU746
 2863 006a 012B     		cmp	r3, #1
 222:dsp/granular_sample_player.h ****         float gain_l, gain_r;
 2864              		.loc 8 222 69 view .LVU747
 2865 006c E7EE267A 		vfma.f32	s15, s14, s13
 222:dsp/granular_sample_player.h ****         float gain_l, gain_r;
 2866              		.loc 8 222 75 view .LVU748
 2867 0070 B0EE497A 		vmov.f32	s14, s18
 2868 0074 A8EE277A 		vfma.f32	s14, s16, s15
 2869 0078 B0EE478A 		vmov.f32	s16, s14
ARM GAS  /tmp/ccmw9Hql.s 			page 85


 2870              	.LVL188:
 223:dsp/granular_sample_player.h ****         float gain_l, gain_r;
 2871              		.loc 8 223 9 is_stmt 1 view .LVU749
 2872              		.loc 8 224 9 view .LVU750
 2873 007c 40F09180 		bne	.L35
 225:dsp/granular_sample_player.h ****         {
 226:dsp/granular_sample_player.h ****             gain_l = Interpolate(lut_sin, pan, 256.0f);
 2874              		.loc 8 226 13 view .LVU751
 2875              		.loc 8 226 33 is_stmt 0 view .LVU752
 2876 0080 B0EE470A 		vmov.f32	s0, s14
 2877 0084 DFED4F0A 		vldr.32	s1, .L51
 2878 0088 5148     		ldr	r0, .L51+12
 2879 008a FFF7FEFF 		bl	_Z11InterpolatePKfff
 2880              	.LVL189:
 227:dsp/granular_sample_player.h ****             gain_r = Interpolate(lut_sin + 256, pan, 256.0f);
 2881              		.loc 8 227 33 view .LVU753
 2882 008e DFED4D0A 		vldr.32	s1, .L51
 226:dsp/granular_sample_player.h ****             gain_r = Interpolate(lut_sin + 256, pan, 256.0f);
 2883              		.loc 8 226 33 view .LVU754
 2884 0092 B0EE40CA 		vmov.f32	s24, s0
 2885              	.LVL190:
 2886              		.loc 8 227 13 is_stmt 1 view .LVU755
 2887              		.loc 8 227 33 is_stmt 0 view .LVU756
 2888 0096 4F48     		ldr	r0, .L51+16
 2889 0098 B0EE480A 		vmov.f32	s0, s16
 2890              	.LVL191:
 2891              		.loc 8 227 33 view .LVU757
 2892 009c FFF7FEFF 		bl	_Z11InterpolatePKfff
 2893              	.LVL192:
 2894 00a0 B0EE408A 		vmov.f32	s16, s0
 2895              	.LVL193:
 2896              	.L36:
 228:dsp/granular_sample_player.h ****         }
 229:dsp/granular_sample_player.h ****         else
 230:dsp/granular_sample_player.h ****         {
 231:dsp/granular_sample_player.h ****             if(pan < 0.5f)
 232:dsp/granular_sample_player.h ****             {
 233:dsp/granular_sample_player.h ****                 gain_l = 1.0f;
 234:dsp/granular_sample_player.h ****                 gain_r = 2.0f * pan;
 235:dsp/granular_sample_player.h ****             }
 236:dsp/granular_sample_player.h ****             else
 237:dsp/granular_sample_player.h ****             {
 238:dsp/granular_sample_player.h ****                 gain_r = 1.0f;
 239:dsp/granular_sample_player.h ****                 gain_l = 2.0f * (1.0f - pan);
 240:dsp/granular_sample_player.h ****             }
 241:dsp/granular_sample_player.h ****         }
 242:dsp/granular_sample_player.h **** 
 243:dsp/granular_sample_player.h ****         if(pitch_ratio > 1.0f)
 2897              		.loc 8 243 9 is_stmt 1 view .LVU758
 2898 00a4 F4EECB9A 		vcmpe.f32	s19, s22
 2899 00a8 07EE907A 		vmov	s15, r7	@ int
 2900 00ac F8EEE77A 		vcvt.f32.s32	s15, s15
 2901 00b0 F1EE10FA 		vmrs	APSR_nzcv, FPSCR
 2902 00b4 0BDD     		ble	.L39
 244:dsp/granular_sample_player.h ****         {
 245:dsp/granular_sample_player.h ****             // The grain's play-head moves faster than the buffer record-head.
 246:dsp/granular_sample_player.h ****             // we must make sure that the grain will not consume too much data.
ARM GAS  /tmp/ccmw9Hql.s 			page 86


 247:dsp/granular_sample_player.h ****             // In some situations, it might be necessary to reduce the size of the
 248:dsp/granular_sample_player.h ****             // grain.
 249:dsp/granular_sample_player.h ****             grain_size
 2903              		.loc 8 249 13 view .LVU759
 250:dsp/granular_sample_player.h ****                 = std::min(grain_size, buffer_size * 0.25f * inv_pitch_ratio);
 2904              		.loc 8 250 52 is_stmt 0 view .LVU760
 2905 00b6 F5EE006A 		vmov.f32	s13, #2.5e-1
 2906 00ba 67EEA66A 		vmul.f32	s13, s15, s13
 2907              		.loc 8 250 60 view .LVU761
 2908 00be 26EEAB7A 		vmul.f32	s14, s13, s23
 2909              	.LVL194:
 2910              	.LBB1421:
 2911              	.LBI1421:
 2912              		.file 9 "/usr/include/newlib/c++/9.2.1/bits/stl_algobase.h"
   1:/usr/include/newlib/c++/9.2.1/bits/stl_algobase.h **** // Core algorithmic facilities -*- C++ -*-
   2:/usr/include/newlib/c++/9.2.1/bits/stl_algobase.h **** 
   3:/usr/include/newlib/c++/9.2.1/bits/stl_algobase.h **** // Copyright (C) 2001-2019 Free Software Foundation, Inc.
   4:/usr/include/newlib/c++/9.2.1/bits/stl_algobase.h **** //
   5:/usr/include/newlib/c++/9.2.1/bits/stl_algobase.h **** // This file is part of the GNU ISO C++ Library.  This library is free
   6:/usr/include/newlib/c++/9.2.1/bits/stl_algobase.h **** // software; you can redistribute it and/or modify it under the
   7:/usr/include/newlib/c++/9.2.1/bits/stl_algobase.h **** // terms of the GNU General Public License as published by the
   8:/usr/include/newlib/c++/9.2.1/bits/stl_algobase.h **** // Free Software Foundation; either version 3, or (at your option)
   9:/usr/include/newlib/c++/9.2.1/bits/stl_algobase.h **** // any later version.
  10:/usr/include/newlib/c++/9.2.1/bits/stl_algobase.h **** 
  11:/usr/include/newlib/c++/9.2.1/bits/stl_algobase.h **** // This library is distributed in the hope that it will be useful,
  12:/usr/include/newlib/c++/9.2.1/bits/stl_algobase.h **** // but WITHOUT ANY WARRANTY; without even the implied warranty of
  13:/usr/include/newlib/c++/9.2.1/bits/stl_algobase.h **** // MERCHANTABILITY or FITNESS FOR A PARTICULAR PURPOSE.  See the
  14:/usr/include/newlib/c++/9.2.1/bits/stl_algobase.h **** // GNU General Public License for more details.
  15:/usr/include/newlib/c++/9.2.1/bits/stl_algobase.h **** 
  16:/usr/include/newlib/c++/9.2.1/bits/stl_algobase.h **** // Under Section 7 of GPL version 3, you are granted additional
  17:/usr/include/newlib/c++/9.2.1/bits/stl_algobase.h **** // permissions described in the GCC Runtime Library Exception, version
  18:/usr/include/newlib/c++/9.2.1/bits/stl_algobase.h **** // 3.1, as published by the Free Software Foundation.
  19:/usr/include/newlib/c++/9.2.1/bits/stl_algobase.h **** 
  20:/usr/include/newlib/c++/9.2.1/bits/stl_algobase.h **** // You should have received a copy of the GNU General Public License and
  21:/usr/include/newlib/c++/9.2.1/bits/stl_algobase.h **** // a copy of the GCC Runtime Library Exception along with this program;
  22:/usr/include/newlib/c++/9.2.1/bits/stl_algobase.h **** // see the files COPYING3 and COPYING.RUNTIME respectively.  If not, see
  23:/usr/include/newlib/c++/9.2.1/bits/stl_algobase.h **** // <http://www.gnu.org/licenses/>.
  24:/usr/include/newlib/c++/9.2.1/bits/stl_algobase.h **** 
  25:/usr/include/newlib/c++/9.2.1/bits/stl_algobase.h **** /*
  26:/usr/include/newlib/c++/9.2.1/bits/stl_algobase.h ****  *
  27:/usr/include/newlib/c++/9.2.1/bits/stl_algobase.h ****  * Copyright (c) 1994
  28:/usr/include/newlib/c++/9.2.1/bits/stl_algobase.h ****  * Hewlett-Packard Company
  29:/usr/include/newlib/c++/9.2.1/bits/stl_algobase.h ****  *
  30:/usr/include/newlib/c++/9.2.1/bits/stl_algobase.h ****  * Permission to use, copy, modify, distribute and sell this software
  31:/usr/include/newlib/c++/9.2.1/bits/stl_algobase.h ****  * and its documentation for any purpose is hereby granted without fee,
  32:/usr/include/newlib/c++/9.2.1/bits/stl_algobase.h ****  * provided that the above copyright notice appear in all copies and
  33:/usr/include/newlib/c++/9.2.1/bits/stl_algobase.h ****  * that both that copyright notice and this permission notice appear
  34:/usr/include/newlib/c++/9.2.1/bits/stl_algobase.h ****  * in supporting documentation.  Hewlett-Packard Company makes no
  35:/usr/include/newlib/c++/9.2.1/bits/stl_algobase.h ****  * representations about the suitability of this software for any
  36:/usr/include/newlib/c++/9.2.1/bits/stl_algobase.h ****  * purpose.  It is provided "as is" without express or implied warranty.
  37:/usr/include/newlib/c++/9.2.1/bits/stl_algobase.h ****  *
  38:/usr/include/newlib/c++/9.2.1/bits/stl_algobase.h ****  *
  39:/usr/include/newlib/c++/9.2.1/bits/stl_algobase.h ****  * Copyright (c) 1996-1998
  40:/usr/include/newlib/c++/9.2.1/bits/stl_algobase.h ****  * Silicon Graphics Computer Systems, Inc.
  41:/usr/include/newlib/c++/9.2.1/bits/stl_algobase.h ****  *
  42:/usr/include/newlib/c++/9.2.1/bits/stl_algobase.h ****  * Permission to use, copy, modify, distribute and sell this software
  43:/usr/include/newlib/c++/9.2.1/bits/stl_algobase.h ****  * and its documentation for any purpose is hereby granted without fee,
ARM GAS  /tmp/ccmw9Hql.s 			page 87


  44:/usr/include/newlib/c++/9.2.1/bits/stl_algobase.h ****  * provided that the above copyright notice appear in all copies and
  45:/usr/include/newlib/c++/9.2.1/bits/stl_algobase.h ****  * that both that copyright notice and this permission notice appear
  46:/usr/include/newlib/c++/9.2.1/bits/stl_algobase.h ****  * in supporting documentation.  Silicon Graphics makes no
  47:/usr/include/newlib/c++/9.2.1/bits/stl_algobase.h ****  * representations about the suitability of this software for any
  48:/usr/include/newlib/c++/9.2.1/bits/stl_algobase.h ****  * purpose.  It is provided "as is" without express or implied warranty.
  49:/usr/include/newlib/c++/9.2.1/bits/stl_algobase.h ****  */
  50:/usr/include/newlib/c++/9.2.1/bits/stl_algobase.h **** 
  51:/usr/include/newlib/c++/9.2.1/bits/stl_algobase.h **** /** @file bits/stl_algobase.h
  52:/usr/include/newlib/c++/9.2.1/bits/stl_algobase.h ****  *  This is an internal header file, included by other library headers.
  53:/usr/include/newlib/c++/9.2.1/bits/stl_algobase.h ****  *  Do not attempt to use it directly. @headername{algorithm}
  54:/usr/include/newlib/c++/9.2.1/bits/stl_algobase.h ****  */
  55:/usr/include/newlib/c++/9.2.1/bits/stl_algobase.h **** 
  56:/usr/include/newlib/c++/9.2.1/bits/stl_algobase.h **** #ifndef _STL_ALGOBASE_H
  57:/usr/include/newlib/c++/9.2.1/bits/stl_algobase.h **** #define _STL_ALGOBASE_H 1
  58:/usr/include/newlib/c++/9.2.1/bits/stl_algobase.h **** 
  59:/usr/include/newlib/c++/9.2.1/bits/stl_algobase.h **** #include <bits/c++config.h>
  60:/usr/include/newlib/c++/9.2.1/bits/stl_algobase.h **** #include <bits/functexcept.h>
  61:/usr/include/newlib/c++/9.2.1/bits/stl_algobase.h **** #include <bits/cpp_type_traits.h>
  62:/usr/include/newlib/c++/9.2.1/bits/stl_algobase.h **** #include <ext/type_traits.h>
  63:/usr/include/newlib/c++/9.2.1/bits/stl_algobase.h **** #include <ext/numeric_traits.h>
  64:/usr/include/newlib/c++/9.2.1/bits/stl_algobase.h **** #include <bits/stl_pair.h>
  65:/usr/include/newlib/c++/9.2.1/bits/stl_algobase.h **** #include <bits/stl_iterator_base_types.h>
  66:/usr/include/newlib/c++/9.2.1/bits/stl_algobase.h **** #include <bits/stl_iterator_base_funcs.h>
  67:/usr/include/newlib/c++/9.2.1/bits/stl_algobase.h **** #include <bits/stl_iterator.h>
  68:/usr/include/newlib/c++/9.2.1/bits/stl_algobase.h **** #include <bits/concept_check.h>
  69:/usr/include/newlib/c++/9.2.1/bits/stl_algobase.h **** #include <debug/debug.h>
  70:/usr/include/newlib/c++/9.2.1/bits/stl_algobase.h **** #include <bits/move.h> // For std::swap
  71:/usr/include/newlib/c++/9.2.1/bits/stl_algobase.h **** #include <bits/predefined_ops.h>
  72:/usr/include/newlib/c++/9.2.1/bits/stl_algobase.h **** #if __cplusplus >= 201103L
  73:/usr/include/newlib/c++/9.2.1/bits/stl_algobase.h **** # include <type_traits>
  74:/usr/include/newlib/c++/9.2.1/bits/stl_algobase.h **** #endif
  75:/usr/include/newlib/c++/9.2.1/bits/stl_algobase.h **** 
  76:/usr/include/newlib/c++/9.2.1/bits/stl_algobase.h **** namespace std _GLIBCXX_VISIBILITY(default)
  77:/usr/include/newlib/c++/9.2.1/bits/stl_algobase.h **** {
  78:/usr/include/newlib/c++/9.2.1/bits/stl_algobase.h **** _GLIBCXX_BEGIN_NAMESPACE_VERSION
  79:/usr/include/newlib/c++/9.2.1/bits/stl_algobase.h **** 
  80:/usr/include/newlib/c++/9.2.1/bits/stl_algobase.h **** #if __cplusplus < 201103L
  81:/usr/include/newlib/c++/9.2.1/bits/stl_algobase.h ****   // See http://gcc.gnu.org/ml/libstdc++/2004-08/msg00167.html: in a
  82:/usr/include/newlib/c++/9.2.1/bits/stl_algobase.h ****   // nutshell, we are partially implementing the resolution of DR 187,
  83:/usr/include/newlib/c++/9.2.1/bits/stl_algobase.h ****   // when it's safe, i.e., the value_types are equal.
  84:/usr/include/newlib/c++/9.2.1/bits/stl_algobase.h ****   template<bool _BoolType>
  85:/usr/include/newlib/c++/9.2.1/bits/stl_algobase.h ****     struct __iter_swap
  86:/usr/include/newlib/c++/9.2.1/bits/stl_algobase.h ****     {
  87:/usr/include/newlib/c++/9.2.1/bits/stl_algobase.h ****       template<typename _ForwardIterator1, typename _ForwardIterator2>
  88:/usr/include/newlib/c++/9.2.1/bits/stl_algobase.h **** 	static void
  89:/usr/include/newlib/c++/9.2.1/bits/stl_algobase.h **** 	iter_swap(_ForwardIterator1 __a, _ForwardIterator2 __b)
  90:/usr/include/newlib/c++/9.2.1/bits/stl_algobase.h **** 	{
  91:/usr/include/newlib/c++/9.2.1/bits/stl_algobase.h **** 	  typedef typename iterator_traits<_ForwardIterator1>::value_type
  92:/usr/include/newlib/c++/9.2.1/bits/stl_algobase.h **** 	    _ValueType1;
  93:/usr/include/newlib/c++/9.2.1/bits/stl_algobase.h **** 	  _ValueType1 __tmp = *__a;
  94:/usr/include/newlib/c++/9.2.1/bits/stl_algobase.h **** 	  *__a = *__b;
  95:/usr/include/newlib/c++/9.2.1/bits/stl_algobase.h **** 	  *__b = __tmp;
  96:/usr/include/newlib/c++/9.2.1/bits/stl_algobase.h **** 	}
  97:/usr/include/newlib/c++/9.2.1/bits/stl_algobase.h ****     };
  98:/usr/include/newlib/c++/9.2.1/bits/stl_algobase.h **** 
  99:/usr/include/newlib/c++/9.2.1/bits/stl_algobase.h ****   template<>
 100:/usr/include/newlib/c++/9.2.1/bits/stl_algobase.h ****     struct __iter_swap<true>
ARM GAS  /tmp/ccmw9Hql.s 			page 88


 101:/usr/include/newlib/c++/9.2.1/bits/stl_algobase.h ****     {
 102:/usr/include/newlib/c++/9.2.1/bits/stl_algobase.h ****       template<typename _ForwardIterator1, typename _ForwardIterator2>
 103:/usr/include/newlib/c++/9.2.1/bits/stl_algobase.h **** 	static void
 104:/usr/include/newlib/c++/9.2.1/bits/stl_algobase.h **** 	iter_swap(_ForwardIterator1 __a, _ForwardIterator2 __b)
 105:/usr/include/newlib/c++/9.2.1/bits/stl_algobase.h **** 	{
 106:/usr/include/newlib/c++/9.2.1/bits/stl_algobase.h **** 	  swap(*__a, *__b);
 107:/usr/include/newlib/c++/9.2.1/bits/stl_algobase.h **** 	}
 108:/usr/include/newlib/c++/9.2.1/bits/stl_algobase.h ****     };
 109:/usr/include/newlib/c++/9.2.1/bits/stl_algobase.h **** #endif
 110:/usr/include/newlib/c++/9.2.1/bits/stl_algobase.h **** 
 111:/usr/include/newlib/c++/9.2.1/bits/stl_algobase.h ****   /**
 112:/usr/include/newlib/c++/9.2.1/bits/stl_algobase.h ****    *  @brief Swaps the contents of two iterators.
 113:/usr/include/newlib/c++/9.2.1/bits/stl_algobase.h ****    *  @ingroup mutating_algorithms
 114:/usr/include/newlib/c++/9.2.1/bits/stl_algobase.h ****    *  @param  __a  An iterator.
 115:/usr/include/newlib/c++/9.2.1/bits/stl_algobase.h ****    *  @param  __b  Another iterator.
 116:/usr/include/newlib/c++/9.2.1/bits/stl_algobase.h ****    *  @return   Nothing.
 117:/usr/include/newlib/c++/9.2.1/bits/stl_algobase.h ****    *
 118:/usr/include/newlib/c++/9.2.1/bits/stl_algobase.h ****    *  This function swaps the values pointed to by two iterators, not the
 119:/usr/include/newlib/c++/9.2.1/bits/stl_algobase.h ****    *  iterators themselves.
 120:/usr/include/newlib/c++/9.2.1/bits/stl_algobase.h ****   */
 121:/usr/include/newlib/c++/9.2.1/bits/stl_algobase.h ****   template<typename _ForwardIterator1, typename _ForwardIterator2>
 122:/usr/include/newlib/c++/9.2.1/bits/stl_algobase.h ****     inline void
 123:/usr/include/newlib/c++/9.2.1/bits/stl_algobase.h ****     iter_swap(_ForwardIterator1 __a, _ForwardIterator2 __b)
 124:/usr/include/newlib/c++/9.2.1/bits/stl_algobase.h ****     {
 125:/usr/include/newlib/c++/9.2.1/bits/stl_algobase.h ****       // concept requirements
 126:/usr/include/newlib/c++/9.2.1/bits/stl_algobase.h ****       __glibcxx_function_requires(_Mutable_ForwardIteratorConcept<
 127:/usr/include/newlib/c++/9.2.1/bits/stl_algobase.h **** 				  _ForwardIterator1>)
 128:/usr/include/newlib/c++/9.2.1/bits/stl_algobase.h ****       __glibcxx_function_requires(_Mutable_ForwardIteratorConcept<
 129:/usr/include/newlib/c++/9.2.1/bits/stl_algobase.h **** 				  _ForwardIterator2>)
 130:/usr/include/newlib/c++/9.2.1/bits/stl_algobase.h **** 
 131:/usr/include/newlib/c++/9.2.1/bits/stl_algobase.h **** #if __cplusplus < 201103L
 132:/usr/include/newlib/c++/9.2.1/bits/stl_algobase.h ****       typedef typename iterator_traits<_ForwardIterator1>::value_type
 133:/usr/include/newlib/c++/9.2.1/bits/stl_algobase.h **** 	_ValueType1;
 134:/usr/include/newlib/c++/9.2.1/bits/stl_algobase.h ****       typedef typename iterator_traits<_ForwardIterator2>::value_type
 135:/usr/include/newlib/c++/9.2.1/bits/stl_algobase.h **** 	_ValueType2;
 136:/usr/include/newlib/c++/9.2.1/bits/stl_algobase.h **** 
 137:/usr/include/newlib/c++/9.2.1/bits/stl_algobase.h ****       __glibcxx_function_requires(_ConvertibleConcept<_ValueType1,
 138:/usr/include/newlib/c++/9.2.1/bits/stl_algobase.h **** 				  _ValueType2>)
 139:/usr/include/newlib/c++/9.2.1/bits/stl_algobase.h ****       __glibcxx_function_requires(_ConvertibleConcept<_ValueType2,
 140:/usr/include/newlib/c++/9.2.1/bits/stl_algobase.h **** 				  _ValueType1>)
 141:/usr/include/newlib/c++/9.2.1/bits/stl_algobase.h **** 
 142:/usr/include/newlib/c++/9.2.1/bits/stl_algobase.h ****       typedef typename iterator_traits<_ForwardIterator1>::reference
 143:/usr/include/newlib/c++/9.2.1/bits/stl_algobase.h **** 	_ReferenceType1;
 144:/usr/include/newlib/c++/9.2.1/bits/stl_algobase.h ****       typedef typename iterator_traits<_ForwardIterator2>::reference
 145:/usr/include/newlib/c++/9.2.1/bits/stl_algobase.h **** 	_ReferenceType2;
 146:/usr/include/newlib/c++/9.2.1/bits/stl_algobase.h ****       std::__iter_swap<__are_same<_ValueType1, _ValueType2>::__value
 147:/usr/include/newlib/c++/9.2.1/bits/stl_algobase.h **** 	&& __are_same<_ValueType1&, _ReferenceType1>::__value
 148:/usr/include/newlib/c++/9.2.1/bits/stl_algobase.h **** 	&& __are_same<_ValueType2&, _ReferenceType2>::__value>::
 149:/usr/include/newlib/c++/9.2.1/bits/stl_algobase.h **** 	iter_swap(__a, __b);
 150:/usr/include/newlib/c++/9.2.1/bits/stl_algobase.h **** #else
 151:/usr/include/newlib/c++/9.2.1/bits/stl_algobase.h ****       swap(*__a, *__b);
 152:/usr/include/newlib/c++/9.2.1/bits/stl_algobase.h **** #endif
 153:/usr/include/newlib/c++/9.2.1/bits/stl_algobase.h ****     }
 154:/usr/include/newlib/c++/9.2.1/bits/stl_algobase.h **** 
 155:/usr/include/newlib/c++/9.2.1/bits/stl_algobase.h ****   /**
 156:/usr/include/newlib/c++/9.2.1/bits/stl_algobase.h ****    *  @brief Swap the elements of two sequences.
 157:/usr/include/newlib/c++/9.2.1/bits/stl_algobase.h ****    *  @ingroup mutating_algorithms
ARM GAS  /tmp/ccmw9Hql.s 			page 89


 158:/usr/include/newlib/c++/9.2.1/bits/stl_algobase.h ****    *  @param  __first1  A forward iterator.
 159:/usr/include/newlib/c++/9.2.1/bits/stl_algobase.h ****    *  @param  __last1   A forward iterator.
 160:/usr/include/newlib/c++/9.2.1/bits/stl_algobase.h ****    *  @param  __first2  A forward iterator.
 161:/usr/include/newlib/c++/9.2.1/bits/stl_algobase.h ****    *  @return   An iterator equal to @p first2+(last1-first1).
 162:/usr/include/newlib/c++/9.2.1/bits/stl_algobase.h ****    *
 163:/usr/include/newlib/c++/9.2.1/bits/stl_algobase.h ****    *  Swaps each element in the range @p [first1,last1) with the
 164:/usr/include/newlib/c++/9.2.1/bits/stl_algobase.h ****    *  corresponding element in the range @p [first2,(last1-first1)).
 165:/usr/include/newlib/c++/9.2.1/bits/stl_algobase.h ****    *  The ranges must not overlap.
 166:/usr/include/newlib/c++/9.2.1/bits/stl_algobase.h ****   */
 167:/usr/include/newlib/c++/9.2.1/bits/stl_algobase.h ****   template<typename _ForwardIterator1, typename _ForwardIterator2>
 168:/usr/include/newlib/c++/9.2.1/bits/stl_algobase.h ****     _ForwardIterator2
 169:/usr/include/newlib/c++/9.2.1/bits/stl_algobase.h ****     swap_ranges(_ForwardIterator1 __first1, _ForwardIterator1 __last1,
 170:/usr/include/newlib/c++/9.2.1/bits/stl_algobase.h **** 		_ForwardIterator2 __first2)
 171:/usr/include/newlib/c++/9.2.1/bits/stl_algobase.h ****     {
 172:/usr/include/newlib/c++/9.2.1/bits/stl_algobase.h ****       // concept requirements
 173:/usr/include/newlib/c++/9.2.1/bits/stl_algobase.h ****       __glibcxx_function_requires(_Mutable_ForwardIteratorConcept<
 174:/usr/include/newlib/c++/9.2.1/bits/stl_algobase.h **** 				  _ForwardIterator1>)
 175:/usr/include/newlib/c++/9.2.1/bits/stl_algobase.h ****       __glibcxx_function_requires(_Mutable_ForwardIteratorConcept<
 176:/usr/include/newlib/c++/9.2.1/bits/stl_algobase.h **** 				  _ForwardIterator2>)
 177:/usr/include/newlib/c++/9.2.1/bits/stl_algobase.h ****       __glibcxx_requires_valid_range(__first1, __last1);
 178:/usr/include/newlib/c++/9.2.1/bits/stl_algobase.h **** 
 179:/usr/include/newlib/c++/9.2.1/bits/stl_algobase.h ****       for (; __first1 != __last1; ++__first1, (void)++__first2)
 180:/usr/include/newlib/c++/9.2.1/bits/stl_algobase.h **** 	std::iter_swap(__first1, __first2);
 181:/usr/include/newlib/c++/9.2.1/bits/stl_algobase.h ****       return __first2;
 182:/usr/include/newlib/c++/9.2.1/bits/stl_algobase.h ****     }
 183:/usr/include/newlib/c++/9.2.1/bits/stl_algobase.h **** 
 184:/usr/include/newlib/c++/9.2.1/bits/stl_algobase.h ****   /**
 185:/usr/include/newlib/c++/9.2.1/bits/stl_algobase.h ****    *  @brief This does what you think it does.
 186:/usr/include/newlib/c++/9.2.1/bits/stl_algobase.h ****    *  @ingroup sorting_algorithms
 187:/usr/include/newlib/c++/9.2.1/bits/stl_algobase.h ****    *  @param  __a  A thing of arbitrary type.
 188:/usr/include/newlib/c++/9.2.1/bits/stl_algobase.h ****    *  @param  __b  Another thing of arbitrary type.
 189:/usr/include/newlib/c++/9.2.1/bits/stl_algobase.h ****    *  @return   The lesser of the parameters.
 190:/usr/include/newlib/c++/9.2.1/bits/stl_algobase.h ****    *
 191:/usr/include/newlib/c++/9.2.1/bits/stl_algobase.h ****    *  This is the simple classic generic implementation.  It will work on
 192:/usr/include/newlib/c++/9.2.1/bits/stl_algobase.h ****    *  temporary expressions, since they are only evaluated once, unlike a
 193:/usr/include/newlib/c++/9.2.1/bits/stl_algobase.h ****    *  preprocessor macro.
 194:/usr/include/newlib/c++/9.2.1/bits/stl_algobase.h ****   */
 195:/usr/include/newlib/c++/9.2.1/bits/stl_algobase.h ****   template<typename _Tp>
 196:/usr/include/newlib/c++/9.2.1/bits/stl_algobase.h ****     _GLIBCXX14_CONSTEXPR
 197:/usr/include/newlib/c++/9.2.1/bits/stl_algobase.h ****     inline const _Tp&
 198:/usr/include/newlib/c++/9.2.1/bits/stl_algobase.h ****     min(const _Tp& __a, const _Tp& __b)
 2913              		.loc 9 198 5 is_stmt 1 view .LVU762
 2914              	.LBB1422:
 199:/usr/include/newlib/c++/9.2.1/bits/stl_algobase.h ****     {
 200:/usr/include/newlib/c++/9.2.1/bits/stl_algobase.h ****       // concept requirements
 201:/usr/include/newlib/c++/9.2.1/bits/stl_algobase.h ****       __glibcxx_function_requires(_LessThanComparableConcept<_Tp>)
 202:/usr/include/newlib/c++/9.2.1/bits/stl_algobase.h ****       //return __b < __a ? __b : __a;
 203:/usr/include/newlib/c++/9.2.1/bits/stl_algobase.h ****       if (__b < __a)
 204:/usr/include/newlib/c++/9.2.1/bits/stl_algobase.h **** 	return __b;
 205:/usr/include/newlib/c++/9.2.1/bits/stl_algobase.h ****       return __a;
 2915              		.loc 9 205 14 is_stmt 0 view .LVU763
 2916 00c2 F4EEC78A 		vcmpe.f32	s17, s14
 2917 00c6 F1EE10FA 		vmrs	APSR_nzcv, FPSCR
 2918 00ca 77FE288A 		vselgt.f32	s17, s14, s17
 2919              	.LVL195:
 2920              	.L39:
 2921              		.loc 9 205 14 view .LVU764
ARM GAS  /tmp/ccmw9Hql.s 			page 90


 2922              	.LBE1422:
 2923              	.LBE1421:
 251:dsp/granular_sample_player.h ****         }
 252:dsp/granular_sample_player.h **** 
 253:dsp/granular_sample_player.h ****         float eaten_by_play_head      = grain_size * pitch_ratio;
 2924              		.loc 8 253 9 is_stmt 1 view .LVU765
 254:dsp/granular_sample_player.h ****         float eaten_by_recording_head = grain_size;
 2925              		.loc 8 254 9 view .LVU766
 255:dsp/granular_sample_player.h **** 
 256:dsp/granular_sample_player.h ****         float available = 0.0;
 2926              		.loc 8 256 9 view .LVU767
 257:dsp/granular_sample_player.h ****         available += static_cast<float>(buffer_size);
 2927              		.loc 8 257 9 view .LVU768
 2928              		.loc 8 257 19 is_stmt 0 view .LVU769
 2929 00ce 9FED427A 		vldr.32	s14, .L51+20
 258:dsp/granular_sample_player.h ****         available -= eaten_by_play_head;
 259:dsp/granular_sample_player.h ****         available -= eaten_by_recording_head;
 260:dsp/granular_sample_player.h **** 
 261:dsp/granular_sample_player.h ****         int32_t size = static_cast<int32_t>(grain_size) & ~1;
 2930              		.loc 8 261 24 view .LVU770
 2931 00d2 FDEEE86A 		vcvt.s32.f32	s13, s17
 2932              	.LBB1423:
 2933              	.LBB1424:
 2934              		.file 10 "dsp/grain.h"
   1:dsp/grain.h   **** // Copyright 2014 Emilie Gillet.
   2:dsp/grain.h   **** //
   3:dsp/grain.h   **** // Author: Emilie Gillet (emilie.o.gillet@gmail.com)
   4:dsp/grain.h   **** //
   5:dsp/grain.h   **** // Permission is hereby granted, free of charge, to any person obtaining a copy
   6:dsp/grain.h   **** // of this software and associated documentation files (the "Software"), to deal
   7:dsp/grain.h   **** // in the Software without restriction, including without limitation the rights
   8:dsp/grain.h   **** // to use, copy, modify, merge, publish, distribute, sublicense, and/or sell
   9:dsp/grain.h   **** // copies of the Software, and to permit persons to whom the Software is
  10:dsp/grain.h   **** // furnished to do so, subject to the following conditions:
  11:dsp/grain.h   **** //
  12:dsp/grain.h   **** // The above copyright notice and this permission notice shall be included in
  13:dsp/grain.h   **** // all copies or substantial portions of the Software.
  14:dsp/grain.h   **** //
  15:dsp/grain.h   **** // THE SOFTWARE IS PROVIDED "AS IS", WITHOUT WARRANTY OF ANY KIND, EXPRESS OR
  16:dsp/grain.h   **** // IMPLIED, INCLUDING BUT NOT LIMITED TO THE WARRANTIES OF MERCHANTABILITY,
  17:dsp/grain.h   **** // FITNESS FOR A PARTICULAR PURPOSE AND NONINFRINGEMENT. IN NO EVENT SHALL THE
  18:dsp/grain.h   **** // AUTHORS OR COPYRIGHT HOLDERS BE LIABLE FOR ANY CLAIM, DAMAGES OR OTHER
  19:dsp/grain.h   **** // LIABILITY, WHETHER IN AN ACTION OF CONTRACT, TORT OR OTHERWISE, ARISING FROM,
  20:dsp/grain.h   **** // OUT OF OR IN CONNECTION WITH THE SOFTWARE OR THE USE OR OTHER DEALINGS IN
  21:dsp/grain.h   **** // THE SOFTWARE.
  22:dsp/grain.h   **** //
  23:dsp/grain.h   **** // See http://creativecommons.org/licenses/MIT/ for more information.
  24:dsp/grain.h   **** //
  25:dsp/grain.h   **** // -----------------------------------------------------------------------------
  26:dsp/grain.h   **** //
  27:dsp/grain.h   **** // Single grain synthesis.
  28:dsp/grain.h   **** 
