ARM GAS  /tmp/ccpjMo0x.s 			page 1


   1              		.cpu cortex-m7
   2              		.eabi_attribute 28, 1
   3              		.eabi_attribute 20, 1
   4              		.eabi_attribute 21, 1
   5              		.eabi_attribute 23, 3
   6              		.eabi_attribute 24, 1
   7              		.eabi_attribute 25, 1
   8              		.eabi_attribute 26, 1
   9              		.eabi_attribute 30, 2
  10              		.eabi_attribute 34, 1
  11              		.eabi_attribute 18, 4
  12              		.file	"stringvoice.cpp"
  13              		.text
  14              	.Ltext0:
  15              		.cfi_sections	.debug_frame
  16              		.section	.text._ZN5daisy10DaisyFieldD2Ev,"axG",%progbits,_ZN5daisy10DaisyFieldD5Ev,comdat
  17              		.align	1
  18              		.p2align 2,,3
  19              		.weak	_ZN5daisy10DaisyFieldD2Ev
  20              		.arch armv7e-m
  21              		.syntax unified
  22              		.thumb
  23              		.thumb_func
  24              		.fpu fpv5-d16
  26              	_ZN5daisy10DaisyFieldD2Ev:
  27              	.LVL0:
  28              	.LFB2063:
  29              		.file 1 "../../libdaisy/src/daisy_field.h"
   1:../../libdaisy/src/daisy_field.h **** #pragma once
   2:../../libdaisy/src/daisy_field.h **** #ifndef DSY_FIELD_BSP_H
   3:../../libdaisy/src/daisy_field.h **** #define DSY_FIELD_BSP_H /**< & */
   4:../../libdaisy/src/daisy_field.h **** #include "daisy_seed.h"
   5:../../libdaisy/src/daisy_field.h **** #include "dev/oled_ssd130x.h"
   6:../../libdaisy/src/daisy_field.h **** 
   7:../../libdaisy/src/daisy_field.h **** /**
   8:../../libdaisy/src/daisy_field.h ****    @brief Hardware defines and helpers for daisy field platform.
   9:../../libdaisy/src/daisy_field.h **** */
  10:../../libdaisy/src/daisy_field.h **** namespace daisy
  11:../../libdaisy/src/daisy_field.h **** {
  12:../../libdaisy/src/daisy_field.h **** /** @addtogroup boards
  13:../../libdaisy/src/daisy_field.h ****     @{
  14:../../libdaisy/src/daisy_field.h **** */
  15:../../libdaisy/src/daisy_field.h **** class DaisyField
  16:../../libdaisy/src/daisy_field.h **** {
  17:../../libdaisy/src/daisy_field.h ****   public:
  18:../../libdaisy/src/daisy_field.h ****     /** enums for controls, etc.
  19:../../libdaisy/src/daisy_field.h **** */
  20:../../libdaisy/src/daisy_field.h ****     enum
  21:../../libdaisy/src/daisy_field.h ****     {
  22:../../libdaisy/src/daisy_field.h ****         SW_1,    /**< tactile switch */
  23:../../libdaisy/src/daisy_field.h ****         SW_2,    /**< tactile switch */
  24:../../libdaisy/src/daisy_field.h ****         SW_LAST, /**< & */
  25:../../libdaisy/src/daisy_field.h ****     };
  26:../../libdaisy/src/daisy_field.h **** 
  27:../../libdaisy/src/daisy_field.h ****     /** All knobs connect to Daisy Seed's ADC1 pin via CD4051 mux
  28:../../libdaisy/src/daisy_field.h ****         Knobs are in order that they are laid out on hardware.
  29:../../libdaisy/src/daisy_field.h ****     */
ARM GAS  /tmp/ccpjMo0x.s 			page 2


  30:../../libdaisy/src/daisy_field.h ****     enum
  31:../../libdaisy/src/daisy_field.h ****     {
  32:../../libdaisy/src/daisy_field.h ****         KNOB_1,    /**< & */
  33:../../libdaisy/src/daisy_field.h ****         KNOB_2,    /**< & */
  34:../../libdaisy/src/daisy_field.h ****         KNOB_3,    /**< & */
  35:../../libdaisy/src/daisy_field.h ****         KNOB_4,    /**< & */
  36:../../libdaisy/src/daisy_field.h ****         KNOB_5,    /**< & */
  37:../../libdaisy/src/daisy_field.h ****         KNOB_6,    /**< & */
  38:../../libdaisy/src/daisy_field.h ****         KNOB_7,    /**< & */
  39:../../libdaisy/src/daisy_field.h ****         KNOB_8,    /**< & */
  40:../../libdaisy/src/daisy_field.h ****         KNOB_LAST, /**< & */
  41:../../libdaisy/src/daisy_field.h ****     };
  42:../../libdaisy/src/daisy_field.h **** 
  43:../../libdaisy/src/daisy_field.h ****     enum
  44:../../libdaisy/src/daisy_field.h ****     {
  45:../../libdaisy/src/daisy_field.h ****         CV_1,    /** Connected to ADC1_INP17 */
  46:../../libdaisy/src/daisy_field.h ****         CV_2,    /** Connected  to ADC1_INP15 */
  47:../../libdaisy/src/daisy_field.h ****         CV_3,    /** Connected to ADC1_INP4 */
  48:../../libdaisy/src/daisy_field.h ****         CV_4,    /** Connected to ADC1_INP11 */
  49:../../libdaisy/src/daisy_field.h ****         CV_LAST, /**< & */
  50:../../libdaisy/src/daisy_field.h ****     };
  51:../../libdaisy/src/daisy_field.h **** 
  52:../../libdaisy/src/daisy_field.h ****     enum
  53:../../libdaisy/src/daisy_field.h ****     {
  54:../../libdaisy/src/daisy_field.h ****         LED_KEY_B1, /**< & */
  55:../../libdaisy/src/daisy_field.h ****         LED_KEY_B2, /**< & */
  56:../../libdaisy/src/daisy_field.h ****         LED_KEY_B3, /**< & */
  57:../../libdaisy/src/daisy_field.h ****         LED_KEY_B4, /**< & */
  58:../../libdaisy/src/daisy_field.h ****         LED_KEY_B5, /**< & */
  59:../../libdaisy/src/daisy_field.h ****         LED_KEY_B6, /**< & */
  60:../../libdaisy/src/daisy_field.h ****         LED_KEY_B7, /**< & */
  61:../../libdaisy/src/daisy_field.h ****         LED_KEY_B8, /**< & */
  62:../../libdaisy/src/daisy_field.h ****         LED_KEY_A8, /**< & */
  63:../../libdaisy/src/daisy_field.h ****         LED_KEY_A7, /**< & */
  64:../../libdaisy/src/daisy_field.h ****         LED_KEY_A6, /**< & */
  65:../../libdaisy/src/daisy_field.h ****         LED_KEY_A5, /**< & */
  66:../../libdaisy/src/daisy_field.h ****         LED_KEY_A4, /**< & */
  67:../../libdaisy/src/daisy_field.h ****         LED_KEY_A3, /**< & */
  68:../../libdaisy/src/daisy_field.h ****         LED_KEY_A2, /**< & */
  69:../../libdaisy/src/daisy_field.h ****         LED_KEY_A1, /**< & */
  70:../../libdaisy/src/daisy_field.h ****         LED_KNOB_1, /**< & */
  71:../../libdaisy/src/daisy_field.h ****         LED_KNOB_2, /**< & */
  72:../../libdaisy/src/daisy_field.h ****         LED_KNOB_3, /**< & */
  73:../../libdaisy/src/daisy_field.h ****         LED_KNOB_4, /**< & */
  74:../../libdaisy/src/daisy_field.h ****         LED_KNOB_5, /**< & */
  75:../../libdaisy/src/daisy_field.h ****         LED_KNOB_6, /**< & */
  76:../../libdaisy/src/daisy_field.h ****         LED_KNOB_7, /**< & */
  77:../../libdaisy/src/daisy_field.h ****         LED_KNOB_8, /**< & */
  78:../../libdaisy/src/daisy_field.h ****         LED_SW_1,   /**< & */
  79:../../libdaisy/src/daisy_field.h ****         LED_SW_2,   /**< & */
  80:../../libdaisy/src/daisy_field.h ****         LED_LAST    /**< & */
  81:../../libdaisy/src/daisy_field.h ****     };
  82:../../libdaisy/src/daisy_field.h **** 
  83:../../libdaisy/src/daisy_field.h ****     DaisyField() {}
  84:../../libdaisy/src/daisy_field.h ****     ~DaisyField() {}
  30              		.loc 1 84 5 view -0
  31              		.cfi_startproc
ARM GAS  /tmp/ccpjMo0x.s 			page 3


  32              		@ args = 0, pretend = 0, frame = 0
  33              		@ frame_needed = 0, uses_anonymous_args = 0
  34              		@ link register save eliminated.
  35              	.LBB504:
  36              	.LBI504:
  37              		.file 2 "../../libdaisy/src/dev/sr_4021.h"
   1:../../libdaisy/src/dev/sr_4021.h **** #pragma once
   2:../../libdaisy/src/dev/sr_4021.h **** #ifndef DEV_SR_4021_H
   3:../../libdaisy/src/dev/sr_4021.h **** #define DEV_SR_4021_H
   4:../../libdaisy/src/dev/sr_4021.h **** #include "per/gpio.h"
   5:../../libdaisy/src/dev/sr_4021.h **** #include "sys/system.h"
   6:../../libdaisy/src/dev/sr_4021.h **** 
   7:../../libdaisy/src/dev/sr_4021.h **** namespace daisy
   8:../../libdaisy/src/dev/sr_4021.h **** {
   9:../../libdaisy/src/dev/sr_4021.h **** /** @brief Device Driver for CD4021 shift register
  10:../../libdaisy/src/dev/sr_4021.h ****  ** @author shensley
  11:../../libdaisy/src/dev/sr_4021.h ****  ** @addtogroup shiftregister
  12:../../libdaisy/src/dev/sr_4021.h ****  **
  13:../../libdaisy/src/dev/sr_4021.h ****  ** CD4021B-Q1: CMOS 8-STAGE STATIC SHIFT REGISTER
  14:../../libdaisy/src/dev/sr_4021.h ****  ** 
  15:../../libdaisy/src/dev/sr_4021.h ****  ** Supply Voltage: 3V to 18V
  16:../../libdaisy/src/dev/sr_4021.h ****  ** Clock Freq: 3MHz at 5V (less at 3v3) -> 8.5MHz at 15V
  17:../../libdaisy/src/dev/sr_4021.h ****  ** Pin Descriptions:
  18:../../libdaisy/src/dev/sr_4021.h ****  ** - Parallel Data[1-8] - 7, 6, 5, 4, 13, 14, 115, 1
  19:../../libdaisy/src/dev/sr_4021.h ****  ** - Serial Data        - 11
  20:../../libdaisy/src/dev/sr_4021.h ****  ** - Clock              - 10
  21:../../libdaisy/src/dev/sr_4021.h ****  ** - P/!S               - 9
  22:../../libdaisy/src/dev/sr_4021.h ****  ** - Q[6-8]             - 2, 12, 3
  23:../../libdaisy/src/dev/sr_4021.h ****  **
  24:../../libdaisy/src/dev/sr_4021.h ****  ** Driver has support for daisy chaining and running up to 2 same-sized 
  25:../../libdaisy/src/dev/sr_4021.h ****  ** chains in parallel from a single set of clk/latch pins to reduce 
  26:../../libdaisy/src/dev/sr_4021.h ****  ** pin/code overhead when using multiple devices.
  27:../../libdaisy/src/dev/sr_4021.h ****  **
  28:../../libdaisy/src/dev/sr_4021.h ****  ** When dealing with multiple parallel/daisy-chained devices the 
  29:../../libdaisy/src/dev/sr_4021.h ****  ** states of all inputs will be filled in the following order (example uses two chained and two pa
  30:../../libdaisy/src/dev/sr_4021.h ****  ** data[chain0,parallel0], data[chain1,parallel0], data[chain0,parallel1], data[chain1,parallel1];
  31:../../libdaisy/src/dev/sr_4021.h ****  ** 
  32:../../libdaisy/src/dev/sr_4021.h ****  ** When combining multiple daisy chained and parallel devices the number of devices chained should
  33:../../libdaisy/src/dev/sr_4021.h ****  ** for each parallel device chain.
  34:../../libdaisy/src/dev/sr_4021.h ****  **
  35:../../libdaisy/src/dev/sr_4021.h ****  ***/
  36:../../libdaisy/src/dev/sr_4021.h **** template <size_t num_daisychained = 1, size_t num_parallel = 1>
  37:../../libdaisy/src/dev/sr_4021.h **** class ShiftRegister4021
  38:../../libdaisy/src/dev/sr_4021.h **** {
  39:../../libdaisy/src/dev/sr_4021.h ****   public:
  40:../../libdaisy/src/dev/sr_4021.h ****     /** Configuration Structure for handling the pin setting of the device */
  41:../../libdaisy/src/dev/sr_4021.h ****     struct Config
  42:../../libdaisy/src/dev/sr_4021.h ****     {
  43:../../libdaisy/src/dev/sr_4021.h ****         dsy_gpio_pin clk;   /**< Clock pin to attach to pin 10 of device(s) */
  44:../../libdaisy/src/dev/sr_4021.h ****         dsy_gpio_pin latch; /**< Latch pin to attach to pin 9 of device(s) */
  45:../../libdaisy/src/dev/sr_4021.h ****         dsy_gpio_pin data[num_parallel]; /**< Data Pin(s) */
  46:../../libdaisy/src/dev/sr_4021.h ****     };
  47:../../libdaisy/src/dev/sr_4021.h **** 
  48:../../libdaisy/src/dev/sr_4021.h ****     ShiftRegister4021() {}
  49:../../libdaisy/src/dev/sr_4021.h ****     ~ShiftRegister4021() {}
  38              		.loc 2 49 5 view .LVU1
  39              		.loc 2 49 5 is_stmt 0 view .LVU2
ARM GAS  /tmp/ccpjMo0x.s 			page 4


  40              	.LBE504:
  41              	.LBB505:
  42              	.LBI505:
  43              		.file 3 "../../libdaisy/src/hid/midi.h"
   1:../../libdaisy/src/hid/midi.h **** #pragma once
   2:../../libdaisy/src/hid/midi.h **** #ifndef DSY_MIDI_H
   3:../../libdaisy/src/hid/midi.h **** #define DSY_MIDI_H
   4:../../libdaisy/src/hid/midi.h **** 
   5:../../libdaisy/src/hid/midi.h **** // TODO: make this adjustable
   6:../../libdaisy/src/hid/midi.h **** #define SYSEX_BUFFER_LEN 128
   7:../../libdaisy/src/hid/midi.h **** 
   8:../../libdaisy/src/hid/midi.h **** #include <stdint.h>
   9:../../libdaisy/src/hid/midi.h **** #include <stdlib.h>
  10:../../libdaisy/src/hid/midi.h **** #include "per/uart.h"
  11:../../libdaisy/src/hid/midi.h **** #include "util/ringbuffer.h"
  12:../../libdaisy/src/hid/midi.h **** #include "hid/MidiEvent.h"
  13:../../libdaisy/src/hid/midi.h **** #include "sys/system.h"
  14:../../libdaisy/src/hid/midi.h **** 
  15:../../libdaisy/src/hid/midi.h **** namespace daisy
  16:../../libdaisy/src/hid/midi.h **** {
  17:../../libdaisy/src/hid/midi.h **** /** @addtogroup external 
  18:../../libdaisy/src/hid/midi.h ****     @{ 
  19:../../libdaisy/src/hid/midi.h **** */
  20:../../libdaisy/src/hid/midi.h **** 
  21:../../libdaisy/src/hid/midi.h **** class MidiUartTransport
  22:../../libdaisy/src/hid/midi.h **** {
  23:../../libdaisy/src/hid/midi.h ****   public:
  24:../../libdaisy/src/hid/midi.h ****     MidiUartTransport() {}
  25:../../libdaisy/src/hid/midi.h ****     ~MidiUartTransport() {}
  26:../../libdaisy/src/hid/midi.h **** 
  27:../../libdaisy/src/hid/midi.h ****     struct Config
  28:../../libdaisy/src/hid/midi.h ****     {
  29:../../libdaisy/src/hid/midi.h ****         UartHandler::Config::Peripheral periph;
  30:../../libdaisy/src/hid/midi.h ****         dsy_gpio_pin                    rx;
  31:../../libdaisy/src/hid/midi.h ****         dsy_gpio_pin                    tx;
  32:../../libdaisy/src/hid/midi.h **** 
  33:../../libdaisy/src/hid/midi.h ****         Config()
  34:../../libdaisy/src/hid/midi.h ****         {
  35:../../libdaisy/src/hid/midi.h ****             periph = UartHandler::Config::Peripheral::USART_1;
  36:../../libdaisy/src/hid/midi.h ****             rx     = {DSY_GPIOB, 7};
  37:../../libdaisy/src/hid/midi.h ****             tx     = {DSY_GPIOB, 6};
  38:../../libdaisy/src/hid/midi.h ****         }
  39:../../libdaisy/src/hid/midi.h ****     };
  40:../../libdaisy/src/hid/midi.h **** 
  41:../../libdaisy/src/hid/midi.h ****     inline void Init(Config config)
  42:../../libdaisy/src/hid/midi.h ****     {
  43:../../libdaisy/src/hid/midi.h ****         UartHandler::Config uart_config;
  44:../../libdaisy/src/hid/midi.h **** 
  45:../../libdaisy/src/hid/midi.h ****         //defaults
  46:../../libdaisy/src/hid/midi.h ****         uart_config.baudrate   = 31250;
  47:../../libdaisy/src/hid/midi.h ****         uart_config.stopbits   = UartHandler::Config::StopBits::BITS_1;
  48:../../libdaisy/src/hid/midi.h ****         uart_config.parity     = UartHandler::Config::Parity::NONE;
  49:../../libdaisy/src/hid/midi.h ****         uart_config.mode       = UartHandler::Config::Mode::TX_RX;
  50:../../libdaisy/src/hid/midi.h ****         uart_config.wordlength = UartHandler::Config::WordLength::BITS_8;
  51:../../libdaisy/src/hid/midi.h **** 
  52:../../libdaisy/src/hid/midi.h ****         //user settings
  53:../../libdaisy/src/hid/midi.h ****         uart_config.periph        = config.periph;
ARM GAS  /tmp/ccpjMo0x.s 			page 5


  54:../../libdaisy/src/hid/midi.h ****         uart_config.pin_config.rx = config.rx;
  55:../../libdaisy/src/hid/midi.h ****         uart_config.pin_config.tx = config.tx;
  56:../../libdaisy/src/hid/midi.h **** 
  57:../../libdaisy/src/hid/midi.h ****         uart_.Init(uart_config);
  58:../../libdaisy/src/hid/midi.h ****     }
  59:../../libdaisy/src/hid/midi.h **** 
  60:../../libdaisy/src/hid/midi.h ****     inline void    StartRx() { uart_.StartRx(); }
  61:../../libdaisy/src/hid/midi.h ****     inline size_t  Readable() { return uart_.Readable(); }
  62:../../libdaisy/src/hid/midi.h ****     inline uint8_t Rx() { return uart_.PopRx(); }
  63:../../libdaisy/src/hid/midi.h ****     inline bool    RxActive() { return uart_.RxActive(); }
  64:../../libdaisy/src/hid/midi.h ****     inline void    FlushRx() { uart_.FlushRx(); }
  65:../../libdaisy/src/hid/midi.h ****     inline void    Tx(uint8_t* buff, size_t size) { uart_.PollTx(buff, size); }
  66:../../libdaisy/src/hid/midi.h **** 
  67:../../libdaisy/src/hid/midi.h ****   private:
  68:../../libdaisy/src/hid/midi.h ****     UartHandler uart_;
  69:../../libdaisy/src/hid/midi.h **** };
  70:../../libdaisy/src/hid/midi.h **** 
  71:../../libdaisy/src/hid/midi.h **** /** 
  72:../../libdaisy/src/hid/midi.h ****     @brief Simple MIDI Handler \n 
  73:../../libdaisy/src/hid/midi.h ****     Parses bytes from an input into valid MidiEvents. \n 
  74:../../libdaisy/src/hid/midi.h ****     The MidiEvents fill a FIFO queue that the user can pop messages from.
  75:../../libdaisy/src/hid/midi.h ****     @author shensley
  76:../../libdaisy/src/hid/midi.h ****     @date March 2020
  77:../../libdaisy/src/hid/midi.h **** */
  78:../../libdaisy/src/hid/midi.h **** template <typename Transport>
  79:../../libdaisy/src/hid/midi.h **** class MidiHandler
  80:../../libdaisy/src/hid/midi.h **** {
  81:../../libdaisy/src/hid/midi.h ****   public:
  82:../../libdaisy/src/hid/midi.h ****     MidiHandler() {}
  83:../../libdaisy/src/hid/midi.h ****     ~MidiHandler() {}
  44              		.loc 3 83 5 is_stmt 1 view .LVU3
  45              	.LBB506:
  46              	.LBI506:
  25:../../libdaisy/src/hid/midi.h **** 
  47              		.loc 3 25 5 view .LVU4
  25:../../libdaisy/src/hid/midi.h **** 
  48              		.loc 3 25 5 is_stmt 0 view .LVU5
  49              	.LBE506:
  50              	.LBE505:
  51              	.LBB507:
  52              	.LBI507:
  53              		.file 4 "../../libdaisy/src/hid/gatein.h"
   1:../../libdaisy/src/hid/gatein.h **** #pragma once
   2:../../libdaisy/src/hid/gatein.h **** #ifndef DSY_GATEIN_H
   3:../../libdaisy/src/hid/gatein.h **** #define DSY_GATEIN_H
   4:../../libdaisy/src/hid/gatein.h **** #include "per/gpio.h"
   5:../../libdaisy/src/hid/gatein.h **** 
   6:../../libdaisy/src/hid/gatein.h **** namespace daisy
   7:../../libdaisy/src/hid/gatein.h **** {
   8:../../libdaisy/src/hid/gatein.h **** /** @file hid_gatein.h */
   9:../../libdaisy/src/hid/gatein.h **** /**
  10:../../libdaisy/src/hid/gatein.h ****    @brief Generic Class for handling gate inputs through GPIO.
  11:../../libdaisy/src/hid/gatein.h ****    @author Stephen Hensley
  12:../../libdaisy/src/hid/gatein.h ****    @date    March 2020
  13:../../libdaisy/src/hid/gatein.h ****    @ingroup controls
  14:../../libdaisy/src/hid/gatein.h **** */
  15:../../libdaisy/src/hid/gatein.h **** class GateIn
ARM GAS  /tmp/ccpjMo0x.s 			page 6


  16:../../libdaisy/src/hid/gatein.h **** {
  17:../../libdaisy/src/hid/gatein.h ****   public:
  18:../../libdaisy/src/hid/gatein.h ****     /** GateIn 
  19:../../libdaisy/src/hid/gatein.h ****     Constructor 
  20:../../libdaisy/src/hid/gatein.h ****     */
  21:../../libdaisy/src/hid/gatein.h ****     GateIn() {}
  22:../../libdaisy/src/hid/gatein.h ****     /** GateIn~
  23:../../libdaisy/src/hid/gatein.h ****     Destructor 
  24:../../libdaisy/src/hid/gatein.h ****     */
  25:../../libdaisy/src/hid/gatein.h ****     ~GateIn() {}
  54              		.loc 4 25 5 is_stmt 1 view .LVU6
  55              		.loc 4 25 5 is_stmt 0 view .LVU7
  56              	.LBE507:
  57              	.LBB508:
  58              	.LBI508:
  59              		.file 5 "../../libdaisy/src/hid/disp/oled_display.h"
   1:../../libdaisy/src/hid/disp/oled_display.h **** #pragma once
   2:../../libdaisy/src/hid/disp/oled_display.h **** #ifndef DSY_OLED_DISPLAY_H
   3:../../libdaisy/src/hid/disp/oled_display.h **** #define DSY_OLED_DISPLAY_H /**< Macro */
   4:../../libdaisy/src/hid/disp/oled_display.h **** 
   5:../../libdaisy/src/hid/disp/oled_display.h **** #include "display.h"
   6:../../libdaisy/src/hid/disp/oled_display.h **** 
   7:../../libdaisy/src/hid/disp/oled_display.h **** namespace daisy
   8:../../libdaisy/src/hid/disp/oled_display.h **** {
   9:../../libdaisy/src/hid/disp/oled_display.h **** /** 
  10:../../libdaisy/src/hid/disp/oled_display.h ****  * This class is for drawing to a monochrome OLED display. 
  11:../../libdaisy/src/hid/disp/oled_display.h **** */
  12:../../libdaisy/src/hid/disp/oled_display.h **** template <typename DisplayDriver>
  13:../../libdaisy/src/hid/disp/oled_display.h **** class OledDisplay : public OneBitGraphicsDisplayImpl<OledDisplay<DisplayDriver>>
  14:../../libdaisy/src/hid/disp/oled_display.h **** {
  15:../../libdaisy/src/hid/disp/oled_display.h ****   public:
  16:../../libdaisy/src/hid/disp/oled_display.h ****     OledDisplay() {}
  17:../../libdaisy/src/hid/disp/oled_display.h ****     virtual ~OledDisplay() {}
  60              		.loc 5 17 13 is_stmt 1 view .LVU8
  61              	.LBB509:
  62              	.LBI509:
  63              		.file 6 "../../libdaisy/src/hid/disp/display.h"
   1:../../libdaisy/src/hid/disp/display.h **** #pragma once
   2:../../libdaisy/src/hid/disp/display.h **** #ifndef DSY_DISPLAY_H
   3:../../libdaisy/src/hid/disp/display.h **** #define DSY_DISPLAY_H /**< Macro */
   4:../../libdaisy/src/hid/disp/display.h **** #include <cmath>
   5:../../libdaisy/src/hid/disp/display.h **** #include "util/oled_fonts.h"
   6:../../libdaisy/src/hid/disp/display.h **** #include "daisy_core.h"
   7:../../libdaisy/src/hid/disp/display.h **** #include "graphics_common.h"
   8:../../libdaisy/src/hid/disp/display.h **** 
   9:../../libdaisy/src/hid/disp/display.h **** #ifndef deg2rad
  10:../../libdaisy/src/hid/disp/display.h **** #define deg2rad(deg) ((deg)*3.141592 / 180.0)
  11:../../libdaisy/src/hid/disp/display.h **** #endif
  12:../../libdaisy/src/hid/disp/display.h **** 
  13:../../libdaisy/src/hid/disp/display.h **** namespace daisy
  14:../../libdaisy/src/hid/disp/display.h **** {
  15:../../libdaisy/src/hid/disp/display.h **** /** 
  16:../../libdaisy/src/hid/disp/display.h ****  * This interface is used as a base class for all types of 1bit-per-pixel
  17:../../libdaisy/src/hid/disp/display.h ****  * graphics displays.
  18:../../libdaisy/src/hid/disp/display.h **** */
  19:../../libdaisy/src/hid/disp/display.h **** class OneBitGraphicsDisplay
  20:../../libdaisy/src/hid/disp/display.h **** {
ARM GAS  /tmp/ccpjMo0x.s 			page 7


  21:../../libdaisy/src/hid/disp/display.h ****   public:
  22:../../libdaisy/src/hid/disp/display.h ****     OneBitGraphicsDisplay() {}
  23:../../libdaisy/src/hid/disp/display.h ****     virtual ~OneBitGraphicsDisplay() {}
  24:../../libdaisy/src/hid/disp/display.h **** 
  25:../../libdaisy/src/hid/disp/display.h ****     virtual uint16_t Height() const = 0;
  26:../../libdaisy/src/hid/disp/display.h ****     virtual uint16_t Width() const  = 0;
  27:../../libdaisy/src/hid/disp/display.h **** 
  28:../../libdaisy/src/hid/disp/display.h ****     Rectangle GetBounds() const
  29:../../libdaisy/src/hid/disp/display.h ****     {
  30:../../libdaisy/src/hid/disp/display.h ****         return Rectangle(int16_t(Width()), int16_t(Height()));
  31:../../libdaisy/src/hid/disp/display.h ****     }
  32:../../libdaisy/src/hid/disp/display.h **** 
  33:../../libdaisy/src/hid/disp/display.h **** 
  34:../../libdaisy/src/hid/disp/display.h ****     size_t CurrentX() { return currentX_; };
  35:../../libdaisy/src/hid/disp/display.h ****     size_t CurrentY() { return currentY_; };
  36:../../libdaisy/src/hid/disp/display.h **** 
  37:../../libdaisy/src/hid/disp/display.h ****     /** 
  38:../../libdaisy/src/hid/disp/display.h ****     Fills the entire display with either on/off.
  39:../../libdaisy/src/hid/disp/display.h ****     \param on Sets on or off.
  40:../../libdaisy/src/hid/disp/display.h ****     */
  41:../../libdaisy/src/hid/disp/display.h ****     virtual void Fill(bool on) = 0;
  42:../../libdaisy/src/hid/disp/display.h **** 
  43:../../libdaisy/src/hid/disp/display.h ****     /**
  44:../../libdaisy/src/hid/disp/display.h ****     Sets the pixel at the specified coordinate to be on/off.
  45:../../libdaisy/src/hid/disp/display.h ****     \param x   x Coordinate
  46:../../libdaisy/src/hid/disp/display.h ****     \param y   y coordinate
  47:../../libdaisy/src/hid/disp/display.h ****     \param on  on or off
  48:../../libdaisy/src/hid/disp/display.h ****     */
  49:../../libdaisy/src/hid/disp/display.h ****     virtual void DrawPixel(uint_fast8_t x, uint_fast8_t y, bool on) = 0;
  50:../../libdaisy/src/hid/disp/display.h **** 
  51:../../libdaisy/src/hid/disp/display.h ****     /**
  52:../../libdaisy/src/hid/disp/display.h ****     Draws a line from (x1, y1) to (y1, y2)
  53:../../libdaisy/src/hid/disp/display.h ****     \param x1  x Coordinate of the starting point
  54:../../libdaisy/src/hid/disp/display.h ****     \param y1  y Coordinate of the starting point
  55:../../libdaisy/src/hid/disp/display.h ****     \param x2  x Coordinate of the ending point
  56:../../libdaisy/src/hid/disp/display.h ****     \param y2  y Coordinate of the ending point
  57:../../libdaisy/src/hid/disp/display.h ****     \param on  on or off
  58:../../libdaisy/src/hid/disp/display.h ****     */
  59:../../libdaisy/src/hid/disp/display.h ****     virtual void DrawLine(uint_fast8_t x1,
  60:../../libdaisy/src/hid/disp/display.h ****                           uint_fast8_t y1,
  61:../../libdaisy/src/hid/disp/display.h ****                           uint_fast8_t x2,
  62:../../libdaisy/src/hid/disp/display.h ****                           uint_fast8_t y2,
  63:../../libdaisy/src/hid/disp/display.h ****                           bool         on)
  64:../../libdaisy/src/hid/disp/display.h ****         = 0;
  65:../../libdaisy/src/hid/disp/display.h **** 
  66:../../libdaisy/src/hid/disp/display.h ****     /**
  67:../../libdaisy/src/hid/disp/display.h ****     Draws a rectangle based on two coordinates.
  68:../../libdaisy/src/hid/disp/display.h ****     \param x1 x Coordinate of the first point
  69:../../libdaisy/src/hid/disp/display.h ****     \param y1 y Coordinate of the first point
  70:../../libdaisy/src/hid/disp/display.h ****     \param x2 x Coordinate of the second point
  71:../../libdaisy/src/hid/disp/display.h ****     \param y2 y Coordinate of the second point
  72:../../libdaisy/src/hid/disp/display.h ****     \param on on or off
  73:../../libdaisy/src/hid/disp/display.h ****     \param fill fill the rectangle or draw only the outline
  74:../../libdaisy/src/hid/disp/display.h ****     */
  75:../../libdaisy/src/hid/disp/display.h ****     virtual void DrawRect(uint_fast8_t x1,
  76:../../libdaisy/src/hid/disp/display.h ****                           uint_fast8_t y1,
  77:../../libdaisy/src/hid/disp/display.h ****                           uint_fast8_t x2,
ARM GAS  /tmp/ccpjMo0x.s 			page 8


  78:../../libdaisy/src/hid/disp/display.h ****                           uint_fast8_t y2,
  79:../../libdaisy/src/hid/disp/display.h ****                           bool         on,
  80:../../libdaisy/src/hid/disp/display.h ****                           bool         fill = false)
  81:../../libdaisy/src/hid/disp/display.h ****         = 0;
  82:../../libdaisy/src/hid/disp/display.h **** 
  83:../../libdaisy/src/hid/disp/display.h ****     /**
  84:../../libdaisy/src/hid/disp/display.h ****     Draws a rectangle.
  85:../../libdaisy/src/hid/disp/display.h ****     \param rect the rectangle
  86:../../libdaisy/src/hid/disp/display.h ****     \param on   on or off
  87:../../libdaisy/src/hid/disp/display.h ****     \param fill fill the rectangle or draw only the outline
  88:../../libdaisy/src/hid/disp/display.h ****     */
  89:../../libdaisy/src/hid/disp/display.h ****     void DrawRect(const Rectangle& rect, bool on, bool fill = false)
  90:../../libdaisy/src/hid/disp/display.h ****     {
  91:../../libdaisy/src/hid/disp/display.h ****         DrawRect(rect.GetX(),
  92:../../libdaisy/src/hid/disp/display.h ****                  rect.GetY(),
  93:../../libdaisy/src/hid/disp/display.h ****                  rect.GetRight(),
  94:../../libdaisy/src/hid/disp/display.h ****                  rect.GetBottom(),
  95:../../libdaisy/src/hid/disp/display.h ****                  on,
  96:../../libdaisy/src/hid/disp/display.h ****                  fill);
  97:../../libdaisy/src/hid/disp/display.h ****     }
  98:../../libdaisy/src/hid/disp/display.h **** 
  99:../../libdaisy/src/hid/disp/display.h ****     /**
 100:../../libdaisy/src/hid/disp/display.h ****     Draws an arc around the specified coordinate
 101:../../libdaisy/src/hid/disp/display.h ****     \param x           x Coordinate of the center of the arc
 102:../../libdaisy/src/hid/disp/display.h ****     \param y           y Coordinate of the center of the arc
 103:../../libdaisy/src/hid/disp/display.h ****     \param radius      radius of the arc
 104:../../libdaisy/src/hid/disp/display.h ****     \param start_angle angle where to start the arc
 105:../../libdaisy/src/hid/disp/display.h ****     \param sweep       total angle of the arc
 106:../../libdaisy/src/hid/disp/display.h ****     \param on  on or off
 107:../../libdaisy/src/hid/disp/display.h ****     */
 108:../../libdaisy/src/hid/disp/display.h ****     virtual void DrawArc(uint_fast8_t x,
 109:../../libdaisy/src/hid/disp/display.h ****                          uint_fast8_t y,
 110:../../libdaisy/src/hid/disp/display.h ****                          uint_fast8_t radius,
 111:../../libdaisy/src/hid/disp/display.h ****                          int_fast16_t start_angle,
 112:../../libdaisy/src/hid/disp/display.h ****                          int_fast16_t sweep,
 113:../../libdaisy/src/hid/disp/display.h ****                          bool         on)
 114:../../libdaisy/src/hid/disp/display.h ****         = 0;
 115:../../libdaisy/src/hid/disp/display.h **** 
 116:../../libdaisy/src/hid/disp/display.h ****     /**
 117:../../libdaisy/src/hid/disp/display.h ****     Draws a circle around the specified coordinate
 118:../../libdaisy/src/hid/disp/display.h ****     \param x           x Coordinate of the center of the circle
 119:../../libdaisy/src/hid/disp/display.h ****     \param y           y Coordinate of the center of the circle
 120:../../libdaisy/src/hid/disp/display.h ****     \param radius      radius of the circle
 121:../../libdaisy/src/hid/disp/display.h ****     \param on  on or off
 122:../../libdaisy/src/hid/disp/display.h ****     */
 123:../../libdaisy/src/hid/disp/display.h ****     void
 124:../../libdaisy/src/hid/disp/display.h ****     DrawCircle(uint_fast8_t x, uint_fast8_t y, uint_fast8_t radius, bool on)
 125:../../libdaisy/src/hid/disp/display.h ****     {
 126:../../libdaisy/src/hid/disp/display.h ****         DrawArc(x, y, radius, 0, 360, on);
 127:../../libdaisy/src/hid/disp/display.h ****     };
 128:../../libdaisy/src/hid/disp/display.h **** 
 129:../../libdaisy/src/hid/disp/display.h ****     /** 
 130:../../libdaisy/src/hid/disp/display.h ****     Writes the character with the specific FontDef
 131:../../libdaisy/src/hid/disp/display.h ****     to the display buffer at the current Cursor position.
 132:../../libdaisy/src/hid/disp/display.h ****     \param ch character to be written
 133:../../libdaisy/src/hid/disp/display.h ****     \param font font to be written in
 134:../../libdaisy/src/hid/disp/display.h ****     \param on    on or off
ARM GAS  /tmp/ccpjMo0x.s 			page 9


 135:../../libdaisy/src/hid/disp/display.h ****     \return &
 136:../../libdaisy/src/hid/disp/display.h ****     */
 137:../../libdaisy/src/hid/disp/display.h ****     virtual char WriteChar(char ch, FontDef font, bool on) = 0;
 138:../../libdaisy/src/hid/disp/display.h **** 
 139:../../libdaisy/src/hid/disp/display.h ****     /** 
 140:../../libdaisy/src/hid/disp/display.h ****     Similar to WriteChar, except it will handle an entire String.
 141:../../libdaisy/src/hid/disp/display.h ****     Wrapping does not happen automatically, so the width
 142:../../libdaisy/src/hid/disp/display.h ****     of the string must be kept within the dimensions of the screen.
 143:../../libdaisy/src/hid/disp/display.h ****     \param str string to be written
 144:../../libdaisy/src/hid/disp/display.h ****     \param font font to use
 145:../../libdaisy/src/hid/disp/display.h ****     \param on  on or off
 146:../../libdaisy/src/hid/disp/display.h ****     \return &
 147:../../libdaisy/src/hid/disp/display.h ****     */
 148:../../libdaisy/src/hid/disp/display.h ****     virtual char WriteString(const char* str, FontDef font, bool on) = 0;
 149:../../libdaisy/src/hid/disp/display.h **** 
 150:../../libdaisy/src/hid/disp/display.h ****     /** 
 151:../../libdaisy/src/hid/disp/display.h ****     Similar to WriteString but justified within a bounding box.
 152:../../libdaisy/src/hid/disp/display.h ****     \param str          string to be written
 153:../../libdaisy/src/hid/disp/display.h ****     \param font         font to use
 154:../../libdaisy/src/hid/disp/display.h ****     \param boundingBox  the bounding box to draw the text in
 155:../../libdaisy/src/hid/disp/display.h ****     \param alignment    the alignment to use
 156:../../libdaisy/src/hid/disp/display.h ****     \param on           on or off
 157:../../libdaisy/src/hid/disp/display.h ****     \return The rectangle that was drawn to
 158:../../libdaisy/src/hid/disp/display.h ****     */
 159:../../libdaisy/src/hid/disp/display.h ****     virtual Rectangle WriteStringAligned(const char*    str,
 160:../../libdaisy/src/hid/disp/display.h ****                                          const FontDef& font,
 161:../../libdaisy/src/hid/disp/display.h ****                                          Rectangle      boundingBox,
 162:../../libdaisy/src/hid/disp/display.h ****                                          Alignment      alignment,
 163:../../libdaisy/src/hid/disp/display.h ****                                          bool           on)
 164:../../libdaisy/src/hid/disp/display.h ****         = 0;
 165:../../libdaisy/src/hid/disp/display.h **** 
 166:../../libdaisy/src/hid/disp/display.h ****     /** 
 167:../../libdaisy/src/hid/disp/display.h ****     Moves the 'Cursor' position used for WriteChar, and WriteStr to the specified coordinate.
 168:../../libdaisy/src/hid/disp/display.h ****     \param x x pos
 169:../../libdaisy/src/hid/disp/display.h ****     \param y y pos
 170:../../libdaisy/src/hid/disp/display.h ****     */
 171:../../libdaisy/src/hid/disp/display.h ****     void SetCursor(uint16_t x, uint16_t y)
 172:../../libdaisy/src/hid/disp/display.h ****     {
 173:../../libdaisy/src/hid/disp/display.h ****         currentX_ = (x >= Width()) ? Width() - 1 : x;
 174:../../libdaisy/src/hid/disp/display.h ****         currentY_ = (y >= Height()) ? Height() - 1 : y;
 175:../../libdaisy/src/hid/disp/display.h ****     }
 176:../../libdaisy/src/hid/disp/display.h **** 
 177:../../libdaisy/src/hid/disp/display.h ****     /** 
 178:../../libdaisy/src/hid/disp/display.h ****     Writes the current display buffer to the OLED device using SPI or I2C depending on 
 179:../../libdaisy/src/hid/disp/display.h ****     how the object was initialized.
 180:../../libdaisy/src/hid/disp/display.h ****     */
 181:../../libdaisy/src/hid/disp/display.h ****     virtual void Update() = 0;
 182:../../libdaisy/src/hid/disp/display.h **** 
 183:../../libdaisy/src/hid/disp/display.h ****   protected:
 184:../../libdaisy/src/hid/disp/display.h ****     uint16_t currentX_;
 185:../../libdaisy/src/hid/disp/display.h ****     uint16_t currentY_;
 186:../../libdaisy/src/hid/disp/display.h **** };
 187:../../libdaisy/src/hid/disp/display.h **** 
 188:../../libdaisy/src/hid/disp/display.h **** /** This class is intended as a intermediary class for your actual implementation of the OneBitGrap
 189:../../libdaisy/src/hid/disp/display.h ****  *  interface. It uses the CRTP design pattern where the template argument is the child class. It p
 190:../../libdaisy/src/hid/disp/display.h ****  *  implementations for most of the functions, except DrawPixel(), Update() and Fill(), which you'l
 191:../../libdaisy/src/hid/disp/display.h ****  *  to provide in your child class.
ARM GAS  /tmp/ccpjMo0x.s 			page 10


 192:../../libdaisy/src/hid/disp/display.h ****  *  The main goal of this class is to provide common drawing functions without relying on massive a
 193:../../libdaisy/src/hid/disp/display.h ****  *  virtual function calls that would result in a performance loss. To achieve this, any drawing fu
 194:../../libdaisy/src/hid/disp/display.h ****  *  is implemented here and internally calls other drawing functions (e.g. DrawRect() which interna
 195:../../libdaisy/src/hid/disp/display.h ****  *  DrawPixel() and DrawLine()) makes these calls via the qualified name of these functions to expl
 196:../../libdaisy/src/hid/disp/display.h ****  *  suppress the virtual dispatch mechanism like this:
 197:../../libdaisy/src/hid/disp/display.h ****  * 
 198:../../libdaisy/src/hid/disp/display.h ****  *      ChildType::DrawPixel(...); // no virtual function call; direct call into the child class fu
 199:../../libdaisy/src/hid/disp/display.h ****  *  
 200:../../libdaisy/src/hid/disp/display.h ****  *  To create a custom OneBitGraphicsDisplay implementation, you can 
 201:../../libdaisy/src/hid/disp/display.h ****  *  A) inherit from OneBitGraphicsDisplay directly and provide all the drawing functions yourself
 202:../../libdaisy/src/hid/disp/display.h ****  *  B) Inherit from OneBitGraphicsDisplayImpl and only provide DrawPixel(), Fill() and Update()
 203:../../libdaisy/src/hid/disp/display.h ****  *     like this:
 204:../../libdaisy/src/hid/disp/display.h ****  *  
 205:../../libdaisy/src/hid/disp/display.h ****  *      class MyDisplayClass : public OneBitGraphicsDisplayImpl<MyDisplayClass> 
 206:../../libdaisy/src/hid/disp/display.h ****  *      {
 207:../../libdaisy/src/hid/disp/display.h ****  *      public:
 208:../../libdaisy/src/hid/disp/display.h ****  *          void Fill() override { ... };
 209:../../libdaisy/src/hid/disp/display.h ****  *          void DrawPixel(uint_fast8_t x, uint_fast8_t y, bool on) override { ... };
 210:../../libdaisy/src/hid/disp/display.h ****  *          void Update() override { ... }
 211:../../libdaisy/src/hid/disp/display.h ****  *      };
 212:../../libdaisy/src/hid/disp/display.h ****  *  
 213:../../libdaisy/src/hid/disp/display.h ****  */
 214:../../libdaisy/src/hid/disp/display.h **** template <class ChildType>
 215:../../libdaisy/src/hid/disp/display.h **** class OneBitGraphicsDisplayImpl : public OneBitGraphicsDisplay
 216:../../libdaisy/src/hid/disp/display.h **** {
 217:../../libdaisy/src/hid/disp/display.h ****   public:
 218:../../libdaisy/src/hid/disp/display.h ****     OneBitGraphicsDisplayImpl() {}
 219:../../libdaisy/src/hid/disp/display.h ****     virtual ~OneBitGraphicsDisplayImpl() {}
  64              		.loc 6 219 13 view .LVU9
  65              	.LBB510:
  66              	.LBI510:
  23:../../libdaisy/src/hid/disp/display.h **** 
  67              		.loc 6 23 13 view .LVU10
  23:../../libdaisy/src/hid/disp/display.h **** 
  68              		.loc 6 23 13 is_stmt 0 view .LVU11
  69              	.LBE510:
  70              	.LBE509:
  71              	.LBE508:
  72              	.LBB511:
  73              	.LBI511:
  74              		.file 7 "../../libdaisy/src/daisy_seed.h"
   1:../../libdaisy/src/daisy_seed.h **** #pragma once
   2:../../libdaisy/src/daisy_seed.h **** #ifndef DSY_SEED_H
   3:../../libdaisy/src/daisy_seed.h **** #define DSY_SEED_H
   4:../../libdaisy/src/daisy_seed.h **** 
   5:../../libdaisy/src/daisy_seed.h **** #include "daisy.h"
   6:../../libdaisy/src/daisy_seed.h **** 
   7:../../libdaisy/src/daisy_seed.h **** //Uncomment this out if you're still using the rev2 hardware
   8:../../libdaisy/src/daisy_seed.h **** //#define SEED_REV2
   9:../../libdaisy/src/daisy_seed.h **** 
  10:../../libdaisy/src/daisy_seed.h **** namespace daisy
  11:../../libdaisy/src/daisy_seed.h **** {
  12:../../libdaisy/src/daisy_seed.h **** /**
  13:../../libdaisy/src/daisy_seed.h ****    @brief This is the higher-level interface for the Daisy board. \n 
  14:../../libdaisy/src/daisy_seed.h ****     All basic peripheral configuration/initialization is setup here. \n
  15:../../libdaisy/src/daisy_seed.h **** 
  16:../../libdaisy/src/daisy_seed.h ****    @ingroup boards
ARM GAS  /tmp/ccpjMo0x.s 			page 11


  17:../../libdaisy/src/daisy_seed.h **** */
  18:../../libdaisy/src/daisy_seed.h **** class DaisySeed
  19:../../libdaisy/src/daisy_seed.h **** {
  20:../../libdaisy/src/daisy_seed.h ****   public:
  21:../../libdaisy/src/daisy_seed.h ****     DaisySeed() {}
  22:../../libdaisy/src/daisy_seed.h ****     ~DaisySeed() {}
  75              		.loc 7 22 5 is_stmt 1 view .LVU12
  76              	.LBB512:
  77              	.LBI512:
  78              		.file 8 "../../libdaisy/src/sys/system.h"
   1:../../libdaisy/src/sys/system.h **** #ifndef DSY_SYSTEM_H
   2:../../libdaisy/src/sys/system.h **** #define DSY_SYSTEM_H
   3:../../libdaisy/src/sys/system.h **** 
   4:../../libdaisy/src/sys/system.h **** #ifndef UNIT_TEST // for unit tests, a dummy implementation is provided below
   5:../../libdaisy/src/sys/system.h **** 
   6:../../libdaisy/src/sys/system.h **** #include <cstdint>
   7:../../libdaisy/src/sys/system.h **** #include "per/tim.h"
   8:../../libdaisy/src/sys/system.h **** 
   9:../../libdaisy/src/sys/system.h **** namespace daisy
  10:../../libdaisy/src/sys/system.h **** {
  11:../../libdaisy/src/sys/system.h **** /** A handle for interacting with the Core System. 
  12:../../libdaisy/src/sys/system.h ****  ** This includes the Clock tree, MPU, global DMA initialization,
  13:../../libdaisy/src/sys/system.h ****  ** cache handling, and any other necessary global initiailzation
  14:../../libdaisy/src/sys/system.h ****  **
  15:../../libdaisy/src/sys/system.h ****  ** @author shensley
  16:../../libdaisy/src/sys/system.h ****  ** @addtogroup system
  17:../../libdaisy/src/sys/system.h ****  */
  18:../../libdaisy/src/sys/system.h **** class System
  19:../../libdaisy/src/sys/system.h **** {
  20:../../libdaisy/src/sys/system.h ****   public:
  21:../../libdaisy/src/sys/system.h ****     /** Contains settings for initializing the System */
  22:../../libdaisy/src/sys/system.h ****     struct Config
  23:../../libdaisy/src/sys/system.h ****     {
  24:../../libdaisy/src/sys/system.h ****         /** Specifies the system clock frequency that feeds APB/AHB clocks, etc. */
  25:../../libdaisy/src/sys/system.h ****         enum class SysClkFreq
  26:../../libdaisy/src/sys/system.h ****         {
  27:../../libdaisy/src/sys/system.h ****             FREQ_400MHZ,
  28:../../libdaisy/src/sys/system.h ****             FREQ_480MHZ,
  29:../../libdaisy/src/sys/system.h ****         };
  30:../../libdaisy/src/sys/system.h **** 
  31:../../libdaisy/src/sys/system.h ****         /** Method to call on the struct to set to defaults
  32:../../libdaisy/src/sys/system.h ****          ** CPU Freq set to 400MHz
  33:../../libdaisy/src/sys/system.h ****          ** Cache Enabled 
  34:../../libdaisy/src/sys/system.h ****          ** */
  35:../../libdaisy/src/sys/system.h ****         void Defaults()
  36:../../libdaisy/src/sys/system.h ****         {
  37:../../libdaisy/src/sys/system.h ****             cpu_freq   = SysClkFreq::FREQ_400MHZ;
  38:../../libdaisy/src/sys/system.h ****             use_dcache = true;
  39:../../libdaisy/src/sys/system.h ****             use_icache = true;
  40:../../libdaisy/src/sys/system.h ****         }
  41:../../libdaisy/src/sys/system.h **** 
  42:../../libdaisy/src/sys/system.h ****         /** Method to call on the struct to set to boost mode:
  43:../../libdaisy/src/sys/system.h ****          ** CPU Freq set to 480MHz
  44:../../libdaisy/src/sys/system.h ****          ** Cache Enabled 
  45:../../libdaisy/src/sys/system.h ****          ** */
  46:../../libdaisy/src/sys/system.h ****         void Boost()
  47:../../libdaisy/src/sys/system.h ****         {
ARM GAS  /tmp/ccpjMo0x.s 			page 12


  48:../../libdaisy/src/sys/system.h ****             cpu_freq   = SysClkFreq::FREQ_480MHZ;
  49:../../libdaisy/src/sys/system.h ****             use_dcache = true;
  50:../../libdaisy/src/sys/system.h ****             use_icache = true;
  51:../../libdaisy/src/sys/system.h ****         }
  52:../../libdaisy/src/sys/system.h **** 
  53:../../libdaisy/src/sys/system.h ****         SysClkFreq cpu_freq;
  54:../../libdaisy/src/sys/system.h ****         bool       use_dcache;
  55:../../libdaisy/src/sys/system.h ****         bool       use_icache;
  56:../../libdaisy/src/sys/system.h ****     };
  57:../../libdaisy/src/sys/system.h **** 
  58:../../libdaisy/src/sys/system.h ****     System() {}
  59:../../libdaisy/src/sys/system.h ****     ~System() {}
  79              		.loc 8 59 5 view .LVU13
  80              		.loc 8 59 5 is_stmt 0 view .LVU14
  81              	.LBE512:
  82              	.LBB513:
  83              	.LBI513:
  84              		.file 9 "../../libdaisy/src/hid/usb.h"
   1:../../libdaisy/src/hid/usb.h **** #pragma once
   2:../../libdaisy/src/hid/usb.h **** #ifndef DSY_HID_USB_H
   3:../../libdaisy/src/hid/usb.h **** #define DSY_HID_USB_H
   4:../../libdaisy/src/hid/usb.h **** #include <stdint.h>
   5:../../libdaisy/src/hid/usb.h **** #include <stdlib.h>
   6:../../libdaisy/src/hid/usb.h **** 
   7:../../libdaisy/src/hid/usb.h **** namespace daisy
   8:../../libdaisy/src/hid/usb.h **** /** @addtogroup externals
   9:../../libdaisy/src/hid/usb.h ****     @{
  10:../../libdaisy/src/hid/usb.h **** */
  11:../../libdaisy/src/hid/usb.h **** 
  12:../../libdaisy/src/hid/usb.h **** {
  13:../../libdaisy/src/hid/usb.h **** /** 
  14:../../libdaisy/src/hid/usb.h ****     @brief Interface for initializing and using the USB Peripherals on the daisy
  15:../../libdaisy/src/hid/usb.h ****     @author Stephen Hensley
  16:../../libdaisy/src/hid/usb.h ****     @date December 2019
  17:../../libdaisy/src/hid/usb.h **** */
  18:../../libdaisy/src/hid/usb.h **** class UsbHandle
  19:../../libdaisy/src/hid/usb.h **** {
  20:../../libdaisy/src/hid/usb.h ****   public:
  21:../../libdaisy/src/hid/usb.h ****     /** Return values for USBHandle Functions */
  22:../../libdaisy/src/hid/usb.h ****     enum class Result
  23:../../libdaisy/src/hid/usb.h ****     {
  24:../../libdaisy/src/hid/usb.h ****         OK,
  25:../../libdaisy/src/hid/usb.h ****         ERR,
  26:../../libdaisy/src/hid/usb.h ****     };
  27:../../libdaisy/src/hid/usb.h **** 
  28:../../libdaisy/src/hid/usb.h ****     /** Specified which of the two USB Peripherals to initialize. */
  29:../../libdaisy/src/hid/usb.h ****     enum UsbPeriph
  30:../../libdaisy/src/hid/usb.h ****     {
  31:../../libdaisy/src/hid/usb.h ****         FS_INTERNAL, /**< Internal pin */
  32:../../libdaisy/src/hid/usb.h ****         FS_EXTERNAL, /**< FS External D+ pin is Pin 38 (GPIO32). FS External D- pin is Pin 37 (GPIO
  33:../../libdaisy/src/hid/usb.h ****         FS_BOTH,     /**< Both */
  34:../../libdaisy/src/hid/usb.h ****     };
  35:../../libdaisy/src/hid/usb.h **** 
  36:../../libdaisy/src/hid/usb.h **** 
  37:../../libdaisy/src/hid/usb.h ****     /** Function called upon reception of a buffer */
  38:../../libdaisy/src/hid/usb.h ****     typedef void (*ReceiveCallback)(uint8_t* buff, uint32_t* len);
  39:../../libdaisy/src/hid/usb.h **** 
ARM GAS  /tmp/ccpjMo0x.s 			page 13


  40:../../libdaisy/src/hid/usb.h ****     UsbHandle() {}
  41:../../libdaisy/src/hid/usb.h **** 
  42:../../libdaisy/src/hid/usb.h ****     ~UsbHandle() {}
  85              		.loc 9 42 5 is_stmt 1 view .LVU15
  86              		.loc 9 42 5 is_stmt 0 view .LVU16
  87              	.LBE513:
  88              	.LBB514:
  89              	.LBI514:
  90              		.file 10 "../../libdaisy/src/per/adc.h"
   1:../../libdaisy/src/per/adc.h **** #pragma once
   2:../../libdaisy/src/per/adc.h **** #ifndef DSY_ADC_H
   3:../../libdaisy/src/per/adc.h **** #define DSY_ADC_H /**< Macro */
   4:../../libdaisy/src/per/adc.h **** #include <stdint.h>
   5:../../libdaisy/src/per/adc.h **** #include <stdlib.h>
   6:../../libdaisy/src/per/adc.h **** #include "daisy_core.h"
   7:../../libdaisy/src/per/adc.h **** #include "per/gpio.h"
   8:../../libdaisy/src/per/adc.h **** 
   9:../../libdaisy/src/per/adc.h **** #define DSY_ADC_MAX_CHANNELS 14 /**< Maximum number of ADC channels */
  10:../../libdaisy/src/per/adc.h **** 
  11:../../libdaisy/src/per/adc.h **** namespace daisy
  12:../../libdaisy/src/per/adc.h **** {
  13:../../libdaisy/src/per/adc.h **** /** @addtogroup analog_digital_conversion
  14:../../libdaisy/src/per/adc.h ****     @{
  15:../../libdaisy/src/per/adc.h **** */
  16:../../libdaisy/src/per/adc.h **** 
  17:../../libdaisy/src/per/adc.h **** /* While there may not be many configuration options here,
  18:../../libdaisy/src/per/adc.h **** using a struct like this allows us to add more configuration
  19:../../libdaisy/src/per/adc.h **** later without breaking existing functionality.
  20:../../libdaisy/src/per/adc.h **** */
  21:../../libdaisy/src/per/adc.h **** 
  22:../../libdaisy/src/per/adc.h **** /** Configuration Structure for a given channel */
  23:../../libdaisy/src/per/adc.h **** struct AdcChannelConfig
  24:../../libdaisy/src/per/adc.h **** {
  25:../../libdaisy/src/per/adc.h ****     /** Which pin to use for multiplexing */
  26:../../libdaisy/src/per/adc.h ****     enum MuxPin
  27:../../libdaisy/src/per/adc.h ****     {
  28:../../libdaisy/src/per/adc.h ****         MUX_SEL_0,    /**< & */
  29:../../libdaisy/src/per/adc.h ****         MUX_SEL_1,    /**< & */
  30:../../libdaisy/src/per/adc.h ****         MUX_SEL_2,    /**< & */
  31:../../libdaisy/src/per/adc.h ****         MUX_SEL_LAST, /**< & */
  32:../../libdaisy/src/per/adc.h ****     };
  33:../../libdaisy/src/per/adc.h **** 
  34:../../libdaisy/src/per/adc.h ****     /** Initializes a single ADC pin as an ADC. 
  35:../../libdaisy/src/per/adc.h ****     \param pin Pin to init.
  36:../../libdaisy/src/per/adc.h ****      */
  37:../../libdaisy/src/per/adc.h ****     void InitSingle(dsy_gpio_pin pin);
  38:../../libdaisy/src/per/adc.h **** 
  39:../../libdaisy/src/per/adc.h ****     /** 
  40:../../libdaisy/src/per/adc.h ****     Initializes a single ADC pin as a Multiplexed ADC.
  41:../../libdaisy/src/per/adc.h ****     Requires a CD405X Multiplexer connected to the pin.
  42:../../libdaisy/src/per/adc.h ****     You only need to supply the mux pins that are required,
  43:../../libdaisy/src/per/adc.h ****     e.g. a 4052 mux would only require mux_0 and mux_1.
  44:../../libdaisy/src/per/adc.h ****     Internal Callbacks handle the pin addressing.
  45:../../libdaisy/src/per/adc.h ****     \param mux_channels must be 1-8
  46:../../libdaisy/src/per/adc.h ****     \param mux_0 First mux pin
  47:../../libdaisy/src/per/adc.h ****     \param mux_1 Second mux pin
  48:../../libdaisy/src/per/adc.h ****     \param mux_2 Third mux pin
ARM GAS  /tmp/ccpjMo0x.s 			page 14


  49:../../libdaisy/src/per/adc.h ****     \param adc_pin &
  50:../../libdaisy/src/per/adc.h ****     */
  51:../../libdaisy/src/per/adc.h ****     void InitMux(dsy_gpio_pin adc_pin,
  52:../../libdaisy/src/per/adc.h ****                  size_t       mux_channels,
  53:../../libdaisy/src/per/adc.h ****                  dsy_gpio_pin mux_0,
  54:../../libdaisy/src/per/adc.h ****                  dsy_gpio_pin mux_1 = {DSY_GPIOX, 0},
  55:../../libdaisy/src/per/adc.h ****                  dsy_gpio_pin mux_2 = {DSY_GPIOX, 0});
  56:../../libdaisy/src/per/adc.h **** 
  57:../../libdaisy/src/per/adc.h ****     dsy_gpio pin_;                   /**< & */
  58:../../libdaisy/src/per/adc.h ****     dsy_gpio mux_pin_[MUX_SEL_LAST]; /**< & */
  59:../../libdaisy/src/per/adc.h ****     uint8_t  mux_channels_;          /**< & */
  60:../../libdaisy/src/per/adc.h **** };
  61:../../libdaisy/src/per/adc.h **** 
  62:../../libdaisy/src/per/adc.h **** /**
  63:../../libdaisy/src/per/adc.h ****    Handler for analog to digital conversion
  64:../../libdaisy/src/per/adc.h **** */
  65:../../libdaisy/src/per/adc.h **** class AdcHandle
  66:../../libdaisy/src/per/adc.h **** {
  67:../../libdaisy/src/per/adc.h ****   public:
  68:../../libdaisy/src/per/adc.h ****     /** Supported oversampling amounts */
  69:../../libdaisy/src/per/adc.h ****     enum OverSampling
  70:../../libdaisy/src/per/adc.h ****     {
  71:../../libdaisy/src/per/adc.h ****         OVS_NONE, /**< & */
  72:../../libdaisy/src/per/adc.h ****         OVS_4,    /**< & */
  73:../../libdaisy/src/per/adc.h ****         OVS_8,    /**< & */
  74:../../libdaisy/src/per/adc.h ****         OVS_16,   /**< & */
  75:../../libdaisy/src/per/adc.h ****         OVS_32,   /**< & */
  76:../../libdaisy/src/per/adc.h ****         OVS_64,   /**< & */
  77:../../libdaisy/src/per/adc.h ****         OVS_128,  /**< & */
  78:../../libdaisy/src/per/adc.h ****         OVS_256,  /**< & */
  79:../../libdaisy/src/per/adc.h ****         OVS_512,  /**< & */
  80:../../libdaisy/src/per/adc.h ****         OVS_1024, /**< & */
  81:../../libdaisy/src/per/adc.h ****         OVS_LAST, /**< & */
  82:../../libdaisy/src/per/adc.h ****     };
  83:../../libdaisy/src/per/adc.h **** 
  84:../../libdaisy/src/per/adc.h ****     AdcHandle() {}
  85:../../libdaisy/src/per/adc.h ****     ~AdcHandle() {}
  91              		.loc 10 85 5 is_stmt 1 view .LVU17
  92              		.loc 10 85 5 is_stmt 0 view .LVU18
  93              	.LBE514:
  94              	.LBB515:
  95              	.LBI515:
  96              		.file 11 "../../libdaisy/src/hid/audio.h"
   1:../../libdaisy/src/hid/audio.h **** #ifndef DSY_AUDIO_H
   2:../../libdaisy/src/hid/audio.h **** #define DSY_AUDIO_H /**< & */
   3:../../libdaisy/src/hid/audio.h **** 
   4:../../libdaisy/src/hid/audio.h **** #include "per/sai.h"
   5:../../libdaisy/src/hid/audio.h **** 
   6:../../libdaisy/src/hid/audio.h **** namespace daisy
   7:../../libdaisy/src/hid/audio.h **** {
   8:../../libdaisy/src/hid/audio.h **** class AudioHandle
   9:../../libdaisy/src/hid/audio.h **** {
  10:../../libdaisy/src/hid/audio.h ****   public:
  11:../../libdaisy/src/hid/audio.h ****     /** Manually configurable details about the Audio Engine */
  12:../../libdaisy/src/hid/audio.h ****     /** TODO: Figure out how to get samplerate in here. */
  13:../../libdaisy/src/hid/audio.h ****     struct Config
  14:../../libdaisy/src/hid/audio.h ****     {
ARM GAS  /tmp/ccpjMo0x.s 			page 15


  15:../../libdaisy/src/hid/audio.h ****         size_t                        blocksize;
  16:../../libdaisy/src/hid/audio.h ****         SaiHandle::Config::SampleRate samplerate;
  17:../../libdaisy/src/hid/audio.h ****         float                         postgain;
  18:../../libdaisy/src/hid/audio.h ****     };
  19:../../libdaisy/src/hid/audio.h **** 
  20:../../libdaisy/src/hid/audio.h ****     enum class Result
  21:../../libdaisy/src/hid/audio.h ****     {
  22:../../libdaisy/src/hid/audio.h ****         OK,
  23:../../libdaisy/src/hid/audio.h ****         ERR,
  24:../../libdaisy/src/hid/audio.h ****     };
  25:../../libdaisy/src/hid/audio.h **** 
  26:../../libdaisy/src/hid/audio.h ****     /** Non-Interleaving input buffer
  27:../../libdaisy/src/hid/audio.h ****      * Buffer arranged by float[chn][sample] 
  28:../../libdaisy/src/hid/audio.h ****      * const so that the user can't modify the input
  29:../../libdaisy/src/hid/audio.h ****     */
  30:../../libdaisy/src/hid/audio.h ****     typedef const float* const* InputBuffer;
  31:../../libdaisy/src/hid/audio.h **** 
  32:../../libdaisy/src/hid/audio.h ****     /** Non-Interleaving output buffer
  33:../../libdaisy/src/hid/audio.h ****      * Arranged by float[chn][sample] 
  34:../../libdaisy/src/hid/audio.h ****     */
  35:../../libdaisy/src/hid/audio.h ****     typedef float** OutputBuffer;
  36:../../libdaisy/src/hid/audio.h **** 
  37:../../libdaisy/src/hid/audio.h ****     /** Type for a Non-Interleaving audio callback 
  38:../../libdaisy/src/hid/audio.h ****    * Non-Interleaving audio callbacks in daisy will be of this type
  39:../../libdaisy/src/hid/audio.h ****   */
  40:../../libdaisy/src/hid/audio.h ****     typedef void (*AudioCallback)(InputBuffer  in,
  41:../../libdaisy/src/hid/audio.h ****                                   OutputBuffer out,
  42:../../libdaisy/src/hid/audio.h ****                                   size_t       size);
  43:../../libdaisy/src/hid/audio.h **** 
  44:../../libdaisy/src/hid/audio.h ****     /** Interleaving Input buffer
  45:../../libdaisy/src/hid/audio.h ****      ** audio is prepared as { L0, R0, L1, R1, . . . LN, RN }]
  46:../../libdaisy/src/hid/audio.h ****      ** this is const, as the user shouldn't modify it
  47:../../libdaisy/src/hid/audio.h ****     */
  48:../../libdaisy/src/hid/audio.h ****     typedef const float* InterleavingInputBuffer;
  49:../../libdaisy/src/hid/audio.h **** 
  50:../../libdaisy/src/hid/audio.h ****     /** Interleaving Output buffer 
  51:../../libdaisy/src/hid/audio.h ****      ** audio is prepared as { L0, R0, L1, R1, . . . LN, RN }
  52:../../libdaisy/src/hid/audio.h ****     */
  53:../../libdaisy/src/hid/audio.h ****     typedef float* InterleavingOutputBuffer;
  54:../../libdaisy/src/hid/audio.h **** 
  55:../../libdaisy/src/hid/audio.h ****     /** Interleaving Audio Callback 
  56:../../libdaisy/src/hid/audio.h ****    * Interleaving audio callbacks in daisy must be of this type
  57:../../libdaisy/src/hid/audio.h ****   */
  58:../../libdaisy/src/hid/audio.h ****     typedef void (*InterleavingAudioCallback)(InterleavingInputBuffer  in,
  59:../../libdaisy/src/hid/audio.h ****                                               InterleavingOutputBuffer out,
  60:../../libdaisy/src/hid/audio.h ****                                               size_t                   size);
  61:../../libdaisy/src/hid/audio.h **** 
  62:../../libdaisy/src/hid/audio.h ****     AudioHandle() : pimpl_(nullptr) {}
  63:../../libdaisy/src/hid/audio.h ****     ~AudioHandle() {}
  97              		.loc 11 63 5 is_stmt 1 view .LVU19
  98              		.loc 11 63 5 is_stmt 0 view .LVU20
  99              	.LBE515:
 100              	.LBE511:
 101              		.loc 1 84 20 view .LVU21
 102 0000 7047     		bx	lr
 103              		.cfi_endproc
 104              	.LFE2063:
ARM GAS  /tmp/ccpjMo0x.s 			page 16


 106              		.weak	_ZN5daisy10DaisyFieldD1Ev
 107              		.thumb_set _ZN5daisy10DaisyFieldD1Ev,_ZN5daisy10DaisyFieldD2Ev
 108 0002 00BF     		.section	.text._ZN7daisysp11StringVoiceD2Ev,"axG",%progbits,_ZN7daisysp11StringVoiceD5Ev,comdat
 109              		.align	1
 110              		.p2align 2,,3
 111              		.weak	_ZN7daisysp11StringVoiceD2Ev
 112              		.syntax unified
 113              		.thumb
 114              		.thumb_func
 115              		.fpu fpv5-d16
 117              	_ZN7daisysp11StringVoiceD2Ev:
 118              	.LVL1:
 119              	.LFB4126:
 120              		.file 12 "../../DaisySP/Source/PhysicalModeling/stringvoice.h"
   1:../../DaisySP/Source/PhysicalModeling/stringvoice.h **** #pragma once
   2:../../DaisySP/Source/PhysicalModeling/stringvoice.h **** #ifndef DSY_STRINGVOICE_H
   3:../../DaisySP/Source/PhysicalModeling/stringvoice.h **** #define DSY_STRINGVOICE_H
   4:../../DaisySP/Source/PhysicalModeling/stringvoice.h **** 
   5:../../DaisySP/Source/PhysicalModeling/stringvoice.h **** #include "Filters/svf.h"
   6:../../DaisySP/Source/PhysicalModeling/stringvoice.h **** #include "PhysicalModeling/KarplusString.h"
   7:../../DaisySP/Source/PhysicalModeling/stringvoice.h **** #include "Noise/dust.h"
   8:../../DaisySP/Source/PhysicalModeling/stringvoice.h **** #include <stdint.h>
   9:../../DaisySP/Source/PhysicalModeling/stringvoice.h **** #ifdef __cplusplus
  10:../../DaisySP/Source/PhysicalModeling/stringvoice.h **** 
  11:../../DaisySP/Source/PhysicalModeling/stringvoice.h **** /** @file stringvoice.h */
  12:../../DaisySP/Source/PhysicalModeling/stringvoice.h **** 
  13:../../DaisySP/Source/PhysicalModeling/stringvoice.h **** namespace daisysp
  14:../../DaisySP/Source/PhysicalModeling/stringvoice.h **** {
  15:../../DaisySP/Source/PhysicalModeling/stringvoice.h **** /**  
  16:../../DaisySP/Source/PhysicalModeling/stringvoice.h ****        @brief Extended Karplus-Strong, with all the niceties from Rings 
  17:../../DaisySP/Source/PhysicalModeling/stringvoice.h ****        @author Ben Sergentanis
  18:../../DaisySP/Source/PhysicalModeling/stringvoice.h ****        @date Jan 2021
  19:../../DaisySP/Source/PhysicalModeling/stringvoice.h ****        Ported from pichenettes/eurorack/plaits/dsp/physical_modelling/string_voice.h \n
  20:../../DaisySP/Source/PhysicalModeling/stringvoice.h ****        and pichenettes/eurorack/plaits/dsp/physical_modelling/string_voice.cc \n
  21:../../DaisySP/Source/PhysicalModeling/stringvoice.h ****        to an independent module. \n
  22:../../DaisySP/Source/PhysicalModeling/stringvoice.h ****        Original code written by Emilie Gillet in 2016. \n
  23:../../DaisySP/Source/PhysicalModeling/stringvoice.h **** */
  24:../../DaisySP/Source/PhysicalModeling/stringvoice.h **** class StringVoice
  25:../../DaisySP/Source/PhysicalModeling/stringvoice.h **** {
  26:../../DaisySP/Source/PhysicalModeling/stringvoice.h ****   public:
  27:../../DaisySP/Source/PhysicalModeling/stringvoice.h ****     StringVoice() {}
  28:../../DaisySP/Source/PhysicalModeling/stringvoice.h ****     ~StringVoice() {}
 121              		.loc 12 28 5 is_stmt 1 view -0
 122              		.cfi_startproc
 123              		@ args = 0, pretend = 0, frame = 0
 124              		@ frame_needed = 0, uses_anonymous_args = 0
 125              		@ link register save eliminated.
 126              	.LBB516:
 127              	.LBI516:
 128              		.file 13 "../../DaisySP/Source/PhysicalModeling/KarplusString.h"
   1:../../DaisySP/Source/PhysicalModeling/KarplusString.h **** #pragma once
   2:../../DaisySP/Source/PhysicalModeling/KarplusString.h **** #ifndef DSY_STRING_H
   3:../../DaisySP/Source/PhysicalModeling/KarplusString.h **** #define DSY_STRING_H
   4:../../DaisySP/Source/PhysicalModeling/KarplusString.h **** 
   5:../../DaisySP/Source/PhysicalModeling/KarplusString.h **** #include <stdint.h>
   6:../../DaisySP/Source/PhysicalModeling/KarplusString.h **** 
   7:../../DaisySP/Source/PhysicalModeling/KarplusString.h **** #include "Dynamics/crossfade.h"
ARM GAS  /tmp/ccpjMo0x.s 			page 17


   8:../../DaisySP/Source/PhysicalModeling/KarplusString.h **** #include "Utility/dcblock.h"
   9:../../DaisySP/Source/PhysicalModeling/KarplusString.h **** #include "Utility/delayline.h"
  10:../../DaisySP/Source/PhysicalModeling/KarplusString.h **** #include "Filters/svf.h"
  11:../../DaisySP/Source/PhysicalModeling/KarplusString.h **** #include "Filters/tone.h"
  12:../../DaisySP/Source/PhysicalModeling/KarplusString.h **** 
  13:../../DaisySP/Source/PhysicalModeling/KarplusString.h **** #ifdef __cplusplus
  14:../../DaisySP/Source/PhysicalModeling/KarplusString.h **** 
  15:../../DaisySP/Source/PhysicalModeling/KarplusString.h **** /** @file KarplusString.h */
  16:../../DaisySP/Source/PhysicalModeling/KarplusString.h **** 
  17:../../DaisySP/Source/PhysicalModeling/KarplusString.h **** namespace daisysp
  18:../../DaisySP/Source/PhysicalModeling/KarplusString.h **** {
  19:../../DaisySP/Source/PhysicalModeling/KarplusString.h **** /**  
  20:../../DaisySP/Source/PhysicalModeling/KarplusString.h ****        @brief Comb filter / KS string.
  21:../../DaisySP/Source/PhysicalModeling/KarplusString.h ****        @author Ben Sergentanis
  22:../../DaisySP/Source/PhysicalModeling/KarplusString.h ****        @date Jan 2021 
  23:../../DaisySP/Source/PhysicalModeling/KarplusString.h ****        "Lite" version of the implementation used in Rings \n \n 
  24:../../DaisySP/Source/PhysicalModeling/KarplusString.h ****        Ported from pichenettes/eurorack/plaits/dsp/oscillator/formant_oscillator.h \n
  25:../../DaisySP/Source/PhysicalModeling/KarplusString.h ****        to an independent module. \n
  26:../../DaisySP/Source/PhysicalModeling/KarplusString.h ****        Original code written by Emilie Gillet in 2016. \n
  27:../../DaisySP/Source/PhysicalModeling/KarplusString.h **** */
  28:../../DaisySP/Source/PhysicalModeling/KarplusString.h **** class String
  29:../../DaisySP/Source/PhysicalModeling/KarplusString.h **** {
  30:../../DaisySP/Source/PhysicalModeling/KarplusString.h ****   public:
  31:../../DaisySP/Source/PhysicalModeling/KarplusString.h ****     String() {}
  32:../../DaisySP/Source/PhysicalModeling/KarplusString.h ****     ~String() {}
 129              		.loc 13 32 5 view .LVU23
 130              	.LBB517:
 131              	.LBI517:
 132              		.file 14 "../../DaisySP/Source/Dynamics/crossfade.h"
   1:../../DaisySP/Source/Dynamics/crossfade.h **** #pragma once
   2:../../DaisySP/Source/Dynamics/crossfade.h **** #ifndef DSY_CROSSFADE_H
   3:../../DaisySP/Source/Dynamics/crossfade.h **** #define DSY_CROSSFADE_H
   4:../../DaisySP/Source/Dynamics/crossfade.h **** #include <stdint.h>
   5:../../DaisySP/Source/Dynamics/crossfade.h **** #ifdef __cplusplus
   6:../../DaisySP/Source/Dynamics/crossfade.h **** 
   7:../../DaisySP/Source/Dynamics/crossfade.h **** namespace daisysp
   8:../../DaisySP/Source/Dynamics/crossfade.h **** {
   9:../../DaisySP/Source/Dynamics/crossfade.h **** /** Curve applied to the CrossFade
  10:../../DaisySP/Source/Dynamics/crossfade.h **** - LIN = linear
  11:../../DaisySP/Source/Dynamics/crossfade.h **** - CPOW = constant power
  12:../../DaisySP/Source/Dynamics/crossfade.h **** - LOG = logarithmic
  13:../../DaisySP/Source/Dynamics/crossfade.h **** - EXP  exponential
  14:../../DaisySP/Source/Dynamics/crossfade.h **** - LAST = end of enum (used for array indexing)
  15:../../DaisySP/Source/Dynamics/crossfade.h **** */
  16:../../DaisySP/Source/Dynamics/crossfade.h **** enum
  17:../../DaisySP/Source/Dynamics/crossfade.h **** {
  18:../../DaisySP/Source/Dynamics/crossfade.h ****     CROSSFADE_LIN,
  19:../../DaisySP/Source/Dynamics/crossfade.h ****     CROSSFADE_CPOW,
  20:../../DaisySP/Source/Dynamics/crossfade.h ****     CROSSFADE_LOG,
  21:../../DaisySP/Source/Dynamics/crossfade.h ****     CROSSFADE_EXP,
  22:../../DaisySP/Source/Dynamics/crossfade.h ****     CROSSFADE_LAST,
  23:../../DaisySP/Source/Dynamics/crossfade.h **** };
  24:../../DaisySP/Source/Dynamics/crossfade.h **** 
  25:../../DaisySP/Source/Dynamics/crossfade.h **** /** Performs a CrossFade between two signals
  26:../../DaisySP/Source/Dynamics/crossfade.h **** 
  27:../../DaisySP/Source/Dynamics/crossfade.h ****     Original author: Paul Batchelor
  28:../../DaisySP/Source/Dynamics/crossfade.h **** 
ARM GAS  /tmp/ccpjMo0x.s 			page 18


  29:../../DaisySP/Source/Dynamics/crossfade.h ****     Ported from Soundpipe by Andrew Ikenberry
  30:../../DaisySP/Source/Dynamics/crossfade.h **** 
  31:../../DaisySP/Source/Dynamics/crossfade.h ****     added curve option for constant power, etc.
  32:../../DaisySP/Source/Dynamics/crossfade.h **** */
  33:../../DaisySP/Source/Dynamics/crossfade.h **** class CrossFade
  34:../../DaisySP/Source/Dynamics/crossfade.h **** {
  35:../../DaisySP/Source/Dynamics/crossfade.h ****   public:
  36:../../DaisySP/Source/Dynamics/crossfade.h ****     CrossFade() {}
  37:../../DaisySP/Source/Dynamics/crossfade.h ****     ~CrossFade() {}
 133              		.loc 14 37 5 view .LVU24
 134              		.loc 14 37 5 is_stmt 0 view .LVU25
 135              	.LBE517:
 136              	.LBB518:
 137              	.LBI518:
 138              		.file 15 "../../DaisySP/Source/Utility/dcblock.h"
   1:../../DaisySP/Source/Utility/dcblock.h **** 
   2:../../DaisySP/Source/Utility/dcblock.h **** #pragma once
   3:../../DaisySP/Source/Utility/dcblock.h **** #ifndef DSY_DCBLOCK_H
   4:../../DaisySP/Source/Utility/dcblock.h **** #define DSY_DCBLOCK_H
   5:../../DaisySP/Source/Utility/dcblock.h **** #ifdef __cplusplus
   6:../../DaisySP/Source/Utility/dcblock.h **** 
   7:../../DaisySP/Source/Utility/dcblock.h **** namespace daisysp
   8:../../DaisySP/Source/Utility/dcblock.h **** {
   9:../../DaisySP/Source/Utility/dcblock.h **** /** Removes DC component of a signal
  10:../../DaisySP/Source/Utility/dcblock.h ****     */
  11:../../DaisySP/Source/Utility/dcblock.h **** class DcBlock
  12:../../DaisySP/Source/Utility/dcblock.h **** {
  13:../../DaisySP/Source/Utility/dcblock.h ****   public:
  14:../../DaisySP/Source/Utility/dcblock.h ****     DcBlock(){};
  15:../../DaisySP/Source/Utility/dcblock.h ****     ~DcBlock(){};
 139              		.loc 15 15 5 is_stmt 1 view .LVU26
 140              		.loc 15 15 5 is_stmt 0 view .LVU27
 141              	.LBE518:
 142              	.LBB519:
 143              	.LBI519:
 144              		.file 16 "../../DaisySP/Source/Filters/tone.h"
   1:../../DaisySP/Source/Filters/tone.h **** #pragma once
   2:../../DaisySP/Source/Filters/tone.h **** #ifndef DSY_TONE_H
   3:../../DaisySP/Source/Filters/tone.h **** #define DSY_TONE_H
   4:../../DaisySP/Source/Filters/tone.h **** 
   5:../../DaisySP/Source/Filters/tone.h **** #include <stdint.h>
   6:../../DaisySP/Source/Filters/tone.h **** #ifdef __cplusplus
   7:../../DaisySP/Source/Filters/tone.h **** 
   8:../../DaisySP/Source/Filters/tone.h **** namespace daisysp
   9:../../DaisySP/Source/Filters/tone.h **** {
  10:../../DaisySP/Source/Filters/tone.h **** /** A first-order recursive low-pass filter with variable frequency response.
  11:../../DaisySP/Source/Filters/tone.h **** */
  12:../../DaisySP/Source/Filters/tone.h **** class Tone
  13:../../DaisySP/Source/Filters/tone.h **** {
  14:../../DaisySP/Source/Filters/tone.h ****   public:
  15:../../DaisySP/Source/Filters/tone.h ****     Tone() {}
  16:../../DaisySP/Source/Filters/tone.h ****     ~Tone() {}
 145              		.loc 16 16 5 is_stmt 1 view .LVU28
 146              		.loc 16 16 5 is_stmt 0 view .LVU29
 147              	.LBE519:
 148              	.LBB520:
 149              	.LBI520:
ARM GAS  /tmp/ccpjMo0x.s 			page 19


 150              		.file 17 "../../DaisySP/Source/Utility/delayline.h"
   1:../../DaisySP/Source/Utility/delayline.h **** #pragma once
   2:../../DaisySP/Source/Utility/delayline.h **** #ifndef DSY_DELAY_H
   3:../../DaisySP/Source/Utility/delayline.h **** #define DSY_DELAY_H
   4:../../DaisySP/Source/Utility/delayline.h **** #include <stdlib.h>
   5:../../DaisySP/Source/Utility/delayline.h **** #include <stdint.h>
   6:../../DaisySP/Source/Utility/delayline.h **** namespace daisysp
   7:../../DaisySP/Source/Utility/delayline.h **** {
   8:../../DaisySP/Source/Utility/delayline.h **** /** Simple Delay line.
   9:../../DaisySP/Source/Utility/delayline.h **** November 2019
  10:../../DaisySP/Source/Utility/delayline.h **** 
  11:../../DaisySP/Source/Utility/delayline.h **** Converted to Template December 2019
  12:../../DaisySP/Source/Utility/delayline.h **** 
  13:../../DaisySP/Source/Utility/delayline.h **** declaration example: (1 second of floats)
  14:../../DaisySP/Source/Utility/delayline.h **** 
  15:../../DaisySP/Source/Utility/delayline.h **** DelayLine<float, SAMPLE_RATE> del;
  16:../../DaisySP/Source/Utility/delayline.h **** 
  17:../../DaisySP/Source/Utility/delayline.h **** By: shensley
  18:../../DaisySP/Source/Utility/delayline.h **** */
  19:../../DaisySP/Source/Utility/delayline.h **** template <typename T, size_t max_size>
  20:../../DaisySP/Source/Utility/delayline.h **** class DelayLine
  21:../../DaisySP/Source/Utility/delayline.h **** {
  22:../../DaisySP/Source/Utility/delayline.h ****   public:
  23:../../DaisySP/Source/Utility/delayline.h ****     DelayLine() {}
  24:../../DaisySP/Source/Utility/delayline.h ****     ~DelayLine() {}
 151              		.loc 17 24 5 is_stmt 1 view .LVU30
 152              		.loc 17 24 5 is_stmt 0 view .LVU31
 153              	.LBE520:
 154              	.LBB521:
 155              	.LBI521:
 156              		.loc 17 24 5 is_stmt 1 view .LVU32
 157              		.loc 17 24 5 is_stmt 0 view .LVU33
 158              	.LBE521:
 159              	.LBE516:
 160              	.LBB522:
 161              	.LBI522:
 162              		.file 18 "../../DaisySP/Source/Filters/svf.h"
   1:../../DaisySP/Source/Filters/svf.h **** #pragma once
   2:../../DaisySP/Source/Filters/svf.h **** #ifndef DSY_SVF_H
   3:../../DaisySP/Source/Filters/svf.h **** #define DSY_SVF_H
   4:../../DaisySP/Source/Filters/svf.h **** 
   5:../../DaisySP/Source/Filters/svf.h **** namespace daisysp
   6:../../DaisySP/Source/Filters/svf.h **** {
   7:../../DaisySP/Source/Filters/svf.h **** /**      Double Sampled, Stable State Variable Filter
   8:../../DaisySP/Source/Filters/svf.h **** 
   9:../../DaisySP/Source/Filters/svf.h **** Credit to Andrew Simper from musicdsp.org
  10:../../DaisySP/Source/Filters/svf.h **** 
  11:../../DaisySP/Source/Filters/svf.h **** This is his "State Variable Filter (Double Sampled, Stable)"
  12:../../DaisySP/Source/Filters/svf.h **** 
  13:../../DaisySP/Source/Filters/svf.h **** Additional thanks to Laurent de Soras for stability limit, and 
  14:../../DaisySP/Source/Filters/svf.h **** Stefan Diedrichsen for the correct notch output
  15:../../DaisySP/Source/Filters/svf.h **** 
  16:../../DaisySP/Source/Filters/svf.h **** Ported by: Stephen Hensley
  17:../../DaisySP/Source/Filters/svf.h **** */
  18:../../DaisySP/Source/Filters/svf.h **** class Svf
  19:../../DaisySP/Source/Filters/svf.h **** {
  20:../../DaisySP/Source/Filters/svf.h ****   public:
ARM GAS  /tmp/ccpjMo0x.s 			page 20


  21:../../DaisySP/Source/Filters/svf.h ****     Svf() {}
  22:../../DaisySP/Source/Filters/svf.h ****     ~Svf() {}
 163              		.loc 18 22 5 is_stmt 1 view .LVU34
 164              		.loc 18 22 5 is_stmt 0 view .LVU35
 165              	.LBE522:
 166              	.LBB523:
 167              	.LBI523:
 168              		.file 19 "../../DaisySP/Source/Noise/dust.h"
   1:../../DaisySP/Source/Noise/dust.h **** #pragma once
   2:../../DaisySP/Source/Noise/dust.h **** #ifndef DSY_DUST_H
   3:../../DaisySP/Source/Noise/dust.h **** #define DSY_DUST_H
   4:../../DaisySP/Source/Noise/dust.h **** #include <cstdlib>
   5:../../DaisySP/Source/Noise/dust.h **** #include <random>
   6:../../DaisySP/Source/Noise/dust.h **** #include "Utility/dsp.h"
   7:../../DaisySP/Source/Noise/dust.h **** #ifdef __cplusplus
   8:../../DaisySP/Source/Noise/dust.h **** 
   9:../../DaisySP/Source/Noise/dust.h **** /** @file dust.h */
  10:../../DaisySP/Source/Noise/dust.h **** 
  11:../../DaisySP/Source/Noise/dust.h **** namespace daisysp
  12:../../DaisySP/Source/Noise/dust.h **** {
  13:../../DaisySP/Source/Noise/dust.h **** /**  
  14:../../DaisySP/Source/Noise/dust.h ****        @brief Dust Module
  15:../../DaisySP/Source/Noise/dust.h ****        @author Ported by Ben Sergentanis 
  16:../../DaisySP/Source/Noise/dust.h ****        @date Jan 2021 
  17:../../DaisySP/Source/Noise/dust.h ****        Randomly Clocked Samples \n \n
  18:../../DaisySP/Source/Noise/dust.h ****        Ported from pichenettes/eurorack/plaits/dsp/noise/dust.h \n
  19:../../DaisySP/Source/Noise/dust.h ****        to an independent module. \n
  20:../../DaisySP/Source/Noise/dust.h ****        Original code written by Emilie Gillet in 2016. \n
  21:../../DaisySP/Source/Noise/dust.h **** 
  22:../../DaisySP/Source/Noise/dust.h **** */
  23:../../DaisySP/Source/Noise/dust.h **** class Dust
  24:../../DaisySP/Source/Noise/dust.h **** {
  25:../../DaisySP/Source/Noise/dust.h ****   public:
  26:../../DaisySP/Source/Noise/dust.h ****     Dust() {}
  27:../../DaisySP/Source/Noise/dust.h ****     ~Dust() {}
 169              		.loc 19 27 5 is_stmt 1 view .LVU36
 170              		.loc 19 27 5 is_stmt 0 view .LVU37
 171              	.LBE523:
 172              		.loc 12 28 21 view .LVU38
 173 0000 7047     		bx	lr
 174              		.cfi_endproc
 175              	.LFE4126:
 177              		.weak	_ZN7daisysp11StringVoiceD1Ev
 178              		.thumb_set _ZN7daisysp11StringVoiceD1Ev,_ZN7daisysp11StringVoiceD2Ev
 179 0002 00BF     		.section	.text._ZN5daisy11OledDisplayINS_13SSD130xDriverILj128ELj64ENS_24SSD130x4WireSpiTransportE
 180              		.align	1
 181              		.p2align 2,,3
 182              		.weak	_ZN5daisy11OledDisplayINS_13SSD130xDriverILj128ELj64ENS_24SSD130x4WireSpiTransportEEEED2Ev
 183              		.syntax unified
 184              		.thumb
 185              		.thumb_func
 186              		.fpu fpv5-d16
 188              	_ZN5daisy11OledDisplayINS_13SSD130xDriverILj128ELj64ENS_24SSD130x4WireSpiTransportEEEED2Ev:
 189              	.LVL2:
 190              	.LFB4258:
 191              		.loc 5 17 13 is_stmt 1 view -0
 192              		.cfi_startproc
ARM GAS  /tmp/ccpjMo0x.s 			page 21


 193              		@ args = 0, pretend = 0, frame = 0
 194              		@ frame_needed = 0, uses_anonymous_args = 0
 195              		@ link register save eliminated.
 196              	.LBB524:
 197              	.LBI524:
 198              		.loc 6 219 13 view .LVU40
 199              	.LBB525:
 200              	.LBI525:
  23:../../libdaisy/src/hid/disp/display.h **** 
 201              		.loc 6 23 13 view .LVU41
  23:../../libdaisy/src/hid/disp/display.h **** 
 202              		.loc 6 23 13 is_stmt 0 view .LVU42
 203              	.LBE525:
 204              	.LBE524:
 205              		.loc 5 17 29 view .LVU43
 206 0000 7047     		bx	lr
 207              		.cfi_endproc
 208              	.LFE4258:
 210              		.weak	_ZN5daisy11OledDisplayINS_13SSD130xDriverILj128ELj64ENS_24SSD130x4WireSpiTransportEEEED1Ev
 211              		.thumb_set _ZN5daisy11OledDisplayINS_13SSD130xDriverILj128ELj64ENS_24SSD130x4WireSpiTransportEEEED
 212 0002 00BF     		.section	.text._ZNK5daisy11OledDisplayINS_13SSD130xDriverILj128ELj64ENS_24SSD130x4WireSpiTransport
 213              		.align	1
 214              		.p2align 2,,3
 215              		.weak	_ZNK5daisy11OledDisplayINS_13SSD130xDriverILj128ELj64ENS_24SSD130x4WireSpiTransportEEEE6Heig
 216              		.syntax unified
 217              		.thumb
 218              		.thumb_func
 219              		.fpu fpv5-d16
 221              	_ZNK5daisy11OledDisplayINS_13SSD130xDriverILj128ELj64ENS_24SSD130x4WireSpiTransportEEEE6HeightEv:
 222              	.LVL3:
 223              	.LFB4831:
  18:../../libdaisy/src/hid/disp/oled_display.h **** 
  19:../../libdaisy/src/hid/disp/oled_display.h ****     struct Config
  20:../../libdaisy/src/hid/disp/oled_display.h ****     {
  21:../../libdaisy/src/hid/disp/oled_display.h ****         typename DisplayDriver::Config driver_config;
  22:../../libdaisy/src/hid/disp/oled_display.h ****     };
  23:../../libdaisy/src/hid/disp/oled_display.h **** 
  24:../../libdaisy/src/hid/disp/oled_display.h ****     void Init(Config config) { driver_.Init(config.driver_config); }
  25:../../libdaisy/src/hid/disp/oled_display.h **** 
  26:../../libdaisy/src/hid/disp/oled_display.h ****     uint16_t Height() const override { return driver_.Height(); }
 224              		.loc 5 26 14 is_stmt 1 view -0
 225              		.cfi_startproc
 226              		@ args = 0, pretend = 0, frame = 0
 227              		@ frame_needed = 0, uses_anonymous_args = 0
 228              		@ link register save eliminated.
 229              		.loc 5 26 65 is_stmt 0 view .LVU45
 230 0000 4020     		movs	r0, #64
 231              	.LVL4:
 232              		.loc 5 26 65 view .LVU46
 233 0002 7047     		bx	lr
 234              		.cfi_endproc
 235              	.LFE4831:
 237              		.section	.text._ZNK5daisy11OledDisplayINS_13SSD130xDriverILj128ELj64ENS_24SSD130x4WireSpiTransport
 238              		.align	1
 239              		.p2align 2,,3
 240              		.weak	_ZNK5daisy11OledDisplayINS_13SSD130xDriverILj128ELj64ENS_24SSD130x4WireSpiTransportEEEE5Widt
 241              		.syntax unified
ARM GAS  /tmp/ccpjMo0x.s 			page 22


 242              		.thumb
 243              		.thumb_func
 244              		.fpu fpv5-d16
 246              	_ZNK5daisy11OledDisplayINS_13SSD130xDriverILj128ELj64ENS_24SSD130x4WireSpiTransportEEEE5WidthEv:
 247              	.LVL5:
 248              	.LFB4832:
  27:../../libdaisy/src/hid/disp/oled_display.h ****     uint16_t Width() const override { return driver_.Width(); }
 249              		.loc 5 27 14 is_stmt 1 view -0
 250              		.cfi_startproc
 251              		@ args = 0, pretend = 0, frame = 0
 252              		@ frame_needed = 0, uses_anonymous_args = 0
 253              		@ link register save eliminated.
 254              		.loc 5 27 63 is_stmt 0 view .LVU48
 255 0000 8020     		movs	r0, #128
 256              	.LVL6:
 257              		.loc 5 27 63 view .LVU49
 258 0002 7047     		bx	lr
 259              		.cfi_endproc
 260              	.LFE4832:
 262              		.section	.text._ZN5daisy11OledDisplayINS_13SSD130xDriverILj128ELj64ENS_24SSD130x4WireSpiTransportE
 263              		.align	1
 264              		.p2align 2,,3
 265              		.weak	_ZN5daisy11OledDisplayINS_13SSD130xDriverILj128ELj64ENS_24SSD130x4WireSpiTransportEEEE4FillE
 266              		.syntax unified
 267              		.thumb
 268              		.thumb_func
 269              		.fpu fpv5-d16
 271              	_ZN5daisy11OledDisplayINS_13SSD130xDriverILj128ELj64ENS_24SSD130x4WireSpiTransportEEEE4FillEb:
 272              	.LVL7:
 273              	.LFB4833:
  28:../../libdaisy/src/hid/disp/oled_display.h **** 
  29:../../libdaisy/src/hid/disp/oled_display.h ****     /** 
  30:../../libdaisy/src/hid/disp/oled_display.h ****     Fills the entire display with either on/off.
  31:../../libdaisy/src/hid/disp/oled_display.h ****     \param on Sets on or off.
  32:../../libdaisy/src/hid/disp/oled_display.h ****     */
  33:../../libdaisy/src/hid/disp/oled_display.h ****     void Fill(bool on) override { driver_.Fill(on); }
 274              		.loc 5 33 10 is_stmt 1 view -0
 275              		.cfi_startproc
 276              		@ args = 0, pretend = 0, frame = 0
 277              		@ frame_needed = 0, uses_anonymous_args = 0
 278              		@ link register save eliminated.
 279              	.LBB526:
 280              	.LBI526:
 281              		.file 20 "../../libdaisy/src/dev/oled_ssd130x.h"
   1:../../libdaisy/src/dev/oled_ssd130x.h **** #pragma once
   2:../../libdaisy/src/dev/oled_ssd130x.h **** #ifndef SA_OLED_SSD130X_H
   3:../../libdaisy/src/dev/oled_ssd130x.h **** #define SA_OLED_SSD130X_H /**< & */
   4:../../libdaisy/src/dev/oled_ssd130x.h **** 
   5:../../libdaisy/src/dev/oled_ssd130x.h **** #include "per/i2c.h"
   6:../../libdaisy/src/dev/oled_ssd130x.h **** #include "per/spi.h"
   7:../../libdaisy/src/dev/oled_ssd130x.h **** #include "per/gpio.h"
   8:../../libdaisy/src/dev/oled_ssd130x.h **** #include "sys/system.h"
   9:../../libdaisy/src/dev/oled_ssd130x.h **** 
  10:../../libdaisy/src/dev/oled_ssd130x.h **** namespace daisy
  11:../../libdaisy/src/dev/oled_ssd130x.h **** {
  12:../../libdaisy/src/dev/oled_ssd130x.h **** /**
  13:../../libdaisy/src/dev/oled_ssd130x.h ****  * I2C Transport for SSD1306 / SSD1309 OLED display devices
ARM GAS  /tmp/ccpjMo0x.s 			page 23


  14:../../libdaisy/src/dev/oled_ssd130x.h ****  */
  15:../../libdaisy/src/dev/oled_ssd130x.h **** class SSD130xI2CTransport
  16:../../libdaisy/src/dev/oled_ssd130x.h **** {
  17:../../libdaisy/src/dev/oled_ssd130x.h ****   public:
  18:../../libdaisy/src/dev/oled_ssd130x.h ****     struct Config
  19:../../libdaisy/src/dev/oled_ssd130x.h ****     {
  20:../../libdaisy/src/dev/oled_ssd130x.h ****         I2CHandle::Config i2c_config;
  21:../../libdaisy/src/dev/oled_ssd130x.h ****         uint8_t           i2c_address;
  22:../../libdaisy/src/dev/oled_ssd130x.h ****         void              Defaults()
  23:../../libdaisy/src/dev/oled_ssd130x.h ****         {
  24:../../libdaisy/src/dev/oled_ssd130x.h ****             i2c_config.periph         = I2CHandle::Config::Peripheral::I2C_1;
  25:../../libdaisy/src/dev/oled_ssd130x.h ****             i2c_config.speed          = I2CHandle::Config::Speed::I2C_1MHZ;
  26:../../libdaisy/src/dev/oled_ssd130x.h ****             i2c_config.mode           = I2CHandle::Config::Mode::I2C_MASTER;
  27:../../libdaisy/src/dev/oled_ssd130x.h ****             i2c_config.pin_config.scl = {DSY_GPIOB, 8};
  28:../../libdaisy/src/dev/oled_ssd130x.h ****             i2c_config.pin_config.sda = {DSY_GPIOB, 9};
  29:../../libdaisy/src/dev/oled_ssd130x.h ****             i2c_address               = 0x3C;
  30:../../libdaisy/src/dev/oled_ssd130x.h ****         }
  31:../../libdaisy/src/dev/oled_ssd130x.h ****     };
  32:../../libdaisy/src/dev/oled_ssd130x.h ****     void Init(const Config& config)
  33:../../libdaisy/src/dev/oled_ssd130x.h ****     {
  34:../../libdaisy/src/dev/oled_ssd130x.h ****         i2c_address_ = config.i2c_address;
  35:../../libdaisy/src/dev/oled_ssd130x.h ****         i2c_.Init(config.i2c_config);
  36:../../libdaisy/src/dev/oled_ssd130x.h ****     };
  37:../../libdaisy/src/dev/oled_ssd130x.h ****     void SendCommand(uint8_t cmd)
  38:../../libdaisy/src/dev/oled_ssd130x.h ****     {
  39:../../libdaisy/src/dev/oled_ssd130x.h ****         uint8_t buf[2] = {0X00, cmd};
  40:../../libdaisy/src/dev/oled_ssd130x.h ****         i2c_.TransmitBlocking(i2c_address_, buf, 2, 1000);
  41:../../libdaisy/src/dev/oled_ssd130x.h ****     };
  42:../../libdaisy/src/dev/oled_ssd130x.h **** 
  43:../../libdaisy/src/dev/oled_ssd130x.h ****     void SendData(uint8_t* buff, size_t size)
  44:../../libdaisy/src/dev/oled_ssd130x.h ****     {
  45:../../libdaisy/src/dev/oled_ssd130x.h ****         for(size_t i = 0; i < size; i++)
  46:../../libdaisy/src/dev/oled_ssd130x.h ****         {
  47:../../libdaisy/src/dev/oled_ssd130x.h ****             uint8_t buf[2] = {0X40, buff[i]};
  48:../../libdaisy/src/dev/oled_ssd130x.h ****             i2c_.TransmitBlocking(i2c_address_, buf, 2, 1000);
  49:../../libdaisy/src/dev/oled_ssd130x.h ****         }
  50:../../libdaisy/src/dev/oled_ssd130x.h ****     };
  51:../../libdaisy/src/dev/oled_ssd130x.h **** 
  52:../../libdaisy/src/dev/oled_ssd130x.h ****   private:
  53:../../libdaisy/src/dev/oled_ssd130x.h ****     daisy::I2CHandle i2c_;
  54:../../libdaisy/src/dev/oled_ssd130x.h ****     uint8_t          i2c_address_;
  55:../../libdaisy/src/dev/oled_ssd130x.h **** };
  56:../../libdaisy/src/dev/oled_ssd130x.h **** 
  57:../../libdaisy/src/dev/oled_ssd130x.h **** /**
  58:../../libdaisy/src/dev/oled_ssd130x.h ****  * 4 Wire SPI Transport for SSD1306 / SSD1309 OLED display devices
  59:../../libdaisy/src/dev/oled_ssd130x.h ****  */
  60:../../libdaisy/src/dev/oled_ssd130x.h **** class SSD130x4WireSpiTransport
  61:../../libdaisy/src/dev/oled_ssd130x.h **** {
  62:../../libdaisy/src/dev/oled_ssd130x.h ****   public:
  63:../../libdaisy/src/dev/oled_ssd130x.h ****     struct Config
  64:../../libdaisy/src/dev/oled_ssd130x.h ****     {
  65:../../libdaisy/src/dev/oled_ssd130x.h ****         struct
  66:../../libdaisy/src/dev/oled_ssd130x.h ****         {
  67:../../libdaisy/src/dev/oled_ssd130x.h ****             dsy_gpio_pin dc;    /**< & */
  68:../../libdaisy/src/dev/oled_ssd130x.h ****             dsy_gpio_pin reset; /**< & */
  69:../../libdaisy/src/dev/oled_ssd130x.h ****         } pin_config;
  70:../../libdaisy/src/dev/oled_ssd130x.h ****         void Defaults()
ARM GAS  /tmp/ccpjMo0x.s 			page 24


  71:../../libdaisy/src/dev/oled_ssd130x.h ****         {
  72:../../libdaisy/src/dev/oled_ssd130x.h ****             pin_config.dc    = {DSY_GPIOB, 4};
  73:../../libdaisy/src/dev/oled_ssd130x.h ****             pin_config.reset = {DSY_GPIOB, 15};
  74:../../libdaisy/src/dev/oled_ssd130x.h ****         }
  75:../../libdaisy/src/dev/oled_ssd130x.h ****     };
  76:../../libdaisy/src/dev/oled_ssd130x.h ****     void Init(const Config& config)
  77:../../libdaisy/src/dev/oled_ssd130x.h ****     {
  78:../../libdaisy/src/dev/oled_ssd130x.h ****         // Initialize both GPIO
  79:../../libdaisy/src/dev/oled_ssd130x.h ****         pin_dc_.mode = DSY_GPIO_MODE_OUTPUT_PP;
  80:../../libdaisy/src/dev/oled_ssd130x.h ****         pin_dc_.pin  = config.pin_config.dc;
  81:../../libdaisy/src/dev/oled_ssd130x.h ****         dsy_gpio_init(&pin_dc_);
  82:../../libdaisy/src/dev/oled_ssd130x.h ****         pin_reset_.mode = DSY_GPIO_MODE_OUTPUT_PP;
  83:../../libdaisy/src/dev/oled_ssd130x.h ****         pin_reset_.pin  = config.pin_config.reset;
  84:../../libdaisy/src/dev/oled_ssd130x.h ****         dsy_gpio_init(&pin_reset_);
  85:../../libdaisy/src/dev/oled_ssd130x.h ****         // Initialize SPI
  86:../../libdaisy/src/dev/oled_ssd130x.h ****         SpiHandle::Config spi_config;
  87:../../libdaisy/src/dev/oled_ssd130x.h ****         spi_config.periph    = SpiHandle::Config::Peripheral::SPI_1;
  88:../../libdaisy/src/dev/oled_ssd130x.h ****         spi_config.mode      = SpiHandle::Config::Mode::MASTER;
  89:../../libdaisy/src/dev/oled_ssd130x.h ****         spi_config.direction = SpiHandle::Config::Direction::TWO_LINES_TX_ONLY;
  90:../../libdaisy/src/dev/oled_ssd130x.h ****         spi_config.datasize  = 8;
  91:../../libdaisy/src/dev/oled_ssd130x.h ****         spi_config.clock_polarity = SpiHandle::Config::ClockPolarity::LOW;
  92:../../libdaisy/src/dev/oled_ssd130x.h ****         spi_config.clock_phase    = SpiHandle::Config::ClockPhase::ONE_EDGE;
  93:../../libdaisy/src/dev/oled_ssd130x.h ****         spi_config.nss            = SpiHandle::Config::NSS::HARD_OUTPUT;
  94:../../libdaisy/src/dev/oled_ssd130x.h ****         spi_config.baud_prescaler = SpiHandle::Config::BaudPrescaler::PS_8;
  95:../../libdaisy/src/dev/oled_ssd130x.h **** 
  96:../../libdaisy/src/dev/oled_ssd130x.h ****         spi_config.pin_config.sclk = {DSY_GPIOG, 11};
  97:../../libdaisy/src/dev/oled_ssd130x.h ****         spi_config.pin_config.miso = {DSY_GPIOX, 0};
  98:../../libdaisy/src/dev/oled_ssd130x.h ****         spi_config.pin_config.mosi = {DSY_GPIOB, 5};
  99:../../libdaisy/src/dev/oled_ssd130x.h ****         spi_config.pin_config.nss  = {DSY_GPIOG, 10};
 100:../../libdaisy/src/dev/oled_ssd130x.h **** 
 101:../../libdaisy/src/dev/oled_ssd130x.h ****         spi_.Init(spi_config);
 102:../../libdaisy/src/dev/oled_ssd130x.h **** 
 103:../../libdaisy/src/dev/oled_ssd130x.h ****         // Reset and Configure OLED.
 104:../../libdaisy/src/dev/oled_ssd130x.h ****         dsy_gpio_write(&pin_reset_, 0);
 105:../../libdaisy/src/dev/oled_ssd130x.h ****         System::Delay(10);
 106:../../libdaisy/src/dev/oled_ssd130x.h ****         dsy_gpio_write(&pin_reset_, 1);
 107:../../libdaisy/src/dev/oled_ssd130x.h ****         System::Delay(10);
 108:../../libdaisy/src/dev/oled_ssd130x.h ****     };
 109:../../libdaisy/src/dev/oled_ssd130x.h ****     void SendCommand(uint8_t cmd)
 110:../../libdaisy/src/dev/oled_ssd130x.h ****     {
 111:../../libdaisy/src/dev/oled_ssd130x.h ****         dsy_gpio_write(&pin_dc_, 0);
 112:../../libdaisy/src/dev/oled_ssd130x.h ****         spi_.BlockingTransmit(&cmd, 1);
 113:../../libdaisy/src/dev/oled_ssd130x.h ****     };
 114:../../libdaisy/src/dev/oled_ssd130x.h **** 
 115:../../libdaisy/src/dev/oled_ssd130x.h ****     void SendData(uint8_t* buff, size_t size)
 116:../../libdaisy/src/dev/oled_ssd130x.h ****     {
 117:../../libdaisy/src/dev/oled_ssd130x.h ****         dsy_gpio_write(&pin_dc_, 1);
 118:../../libdaisy/src/dev/oled_ssd130x.h ****         spi_.BlockingTransmit(buff, size);
 119:../../libdaisy/src/dev/oled_ssd130x.h ****     };
 120:../../libdaisy/src/dev/oled_ssd130x.h **** 
 121:../../libdaisy/src/dev/oled_ssd130x.h ****   private:
 122:../../libdaisy/src/dev/oled_ssd130x.h ****     SpiHandle spi_;
 123:../../libdaisy/src/dev/oled_ssd130x.h ****     dsy_gpio  pin_reset_;
 124:../../libdaisy/src/dev/oled_ssd130x.h ****     dsy_gpio  pin_dc_;
 125:../../libdaisy/src/dev/oled_ssd130x.h **** };
 126:../../libdaisy/src/dev/oled_ssd130x.h **** 
 127:../../libdaisy/src/dev/oled_ssd130x.h **** 
ARM GAS  /tmp/ccpjMo0x.s 			page 25


 128:../../libdaisy/src/dev/oled_ssd130x.h **** /**
 129:../../libdaisy/src/dev/oled_ssd130x.h ****  * A driver implementation for the SSD1306/SSD1309
 130:../../libdaisy/src/dev/oled_ssd130x.h ****  */
 131:../../libdaisy/src/dev/oled_ssd130x.h **** template <size_t width, size_t height, typename Transport>
 132:../../libdaisy/src/dev/oled_ssd130x.h **** class SSD130xDriver
 133:../../libdaisy/src/dev/oled_ssd130x.h **** {
 134:../../libdaisy/src/dev/oled_ssd130x.h ****   public:
 135:../../libdaisy/src/dev/oled_ssd130x.h ****     struct Config
 136:../../libdaisy/src/dev/oled_ssd130x.h ****     {
 137:../../libdaisy/src/dev/oled_ssd130x.h ****         typename Transport::Config transport_config;
 138:../../libdaisy/src/dev/oled_ssd130x.h ****     };
 139:../../libdaisy/src/dev/oled_ssd130x.h **** 
 140:../../libdaisy/src/dev/oled_ssd130x.h ****     void Init(Config config)
 141:../../libdaisy/src/dev/oled_ssd130x.h ****     {
 142:../../libdaisy/src/dev/oled_ssd130x.h ****         transport_.Init(config.transport_config);
 143:../../libdaisy/src/dev/oled_ssd130x.h **** 
 144:../../libdaisy/src/dev/oled_ssd130x.h ****         // Init routine...
 145:../../libdaisy/src/dev/oled_ssd130x.h **** 
 146:../../libdaisy/src/dev/oled_ssd130x.h ****         // Display Off
 147:../../libdaisy/src/dev/oled_ssd130x.h ****         transport_.SendCommand(0xaE);
 148:../../libdaisy/src/dev/oled_ssd130x.h ****         // Dimension dependent commands...
 149:../../libdaisy/src/dev/oled_ssd130x.h ****         switch(height)
 150:../../libdaisy/src/dev/oled_ssd130x.h ****         {
 151:../../libdaisy/src/dev/oled_ssd130x.h ****             case 16:
 152:../../libdaisy/src/dev/oled_ssd130x.h ****                 // Display Clock Divide Ratio
 153:../../libdaisy/src/dev/oled_ssd130x.h ****                 transport_.SendCommand(0xD5);
 154:../../libdaisy/src/dev/oled_ssd130x.h ****                 transport_.SendCommand(0x60);
 155:../../libdaisy/src/dev/oled_ssd130x.h ****                 // Multiplex Ratio
 156:../../libdaisy/src/dev/oled_ssd130x.h ****                 transport_.SendCommand(0xA8);
 157:../../libdaisy/src/dev/oled_ssd130x.h ****                 transport_.SendCommand(0x0F);
 158:../../libdaisy/src/dev/oled_ssd130x.h ****                 // COM Pins
 159:../../libdaisy/src/dev/oled_ssd130x.h ****                 transport_.SendCommand(0xDA);
 160:../../libdaisy/src/dev/oled_ssd130x.h ****                 transport_.SendCommand(0x02);
 161:../../libdaisy/src/dev/oled_ssd130x.h ****                 break;
 162:../../libdaisy/src/dev/oled_ssd130x.h ****             case 32:
 163:../../libdaisy/src/dev/oled_ssd130x.h ****                 // Display Clock Divide Ratio
 164:../../libdaisy/src/dev/oled_ssd130x.h ****                 transport_.SendCommand(0xD5);
 165:../../libdaisy/src/dev/oled_ssd130x.h ****                 transport_.SendCommand(0x80);
 166:../../libdaisy/src/dev/oled_ssd130x.h ****                 // Multiplex Ratio
 167:../../libdaisy/src/dev/oled_ssd130x.h ****                 transport_.SendCommand(0xA8);
 168:../../libdaisy/src/dev/oled_ssd130x.h ****                 transport_.SendCommand(0x1F);
 169:../../libdaisy/src/dev/oled_ssd130x.h ****                 // COM Pins
 170:../../libdaisy/src/dev/oled_ssd130x.h ****                 transport_.SendCommand(0xDA);
 171:../../libdaisy/src/dev/oled_ssd130x.h ****                 if(width == 64)
 172:../../libdaisy/src/dev/oled_ssd130x.h ****                 {
 173:../../libdaisy/src/dev/oled_ssd130x.h ****                     transport_.SendCommand(0x12);
 174:../../libdaisy/src/dev/oled_ssd130x.h ****                 }
 175:../../libdaisy/src/dev/oled_ssd130x.h ****                 else
 176:../../libdaisy/src/dev/oled_ssd130x.h ****                 {
 177:../../libdaisy/src/dev/oled_ssd130x.h ****                     transport_.SendCommand(0x02);
 178:../../libdaisy/src/dev/oled_ssd130x.h ****                 }
 179:../../libdaisy/src/dev/oled_ssd130x.h **** 
 180:../../libdaisy/src/dev/oled_ssd130x.h ****                 break;
 181:../../libdaisy/src/dev/oled_ssd130x.h ****             case 48:
 182:../../libdaisy/src/dev/oled_ssd130x.h ****                 // Display Clock Divide Ratio
 183:../../libdaisy/src/dev/oled_ssd130x.h ****                 transport_.SendCommand(0xD5);
 184:../../libdaisy/src/dev/oled_ssd130x.h ****                 transport_.SendCommand(0x80);
ARM GAS  /tmp/ccpjMo0x.s 			page 26


 185:../../libdaisy/src/dev/oled_ssd130x.h ****                 // Multiplex Ratio
 186:../../libdaisy/src/dev/oled_ssd130x.h ****                 transport_.SendCommand(0xA8);
 187:../../libdaisy/src/dev/oled_ssd130x.h ****                 transport_.SendCommand(0x2F);
 188:../../libdaisy/src/dev/oled_ssd130x.h ****                 // COM Pins
 189:../../libdaisy/src/dev/oled_ssd130x.h ****                 transport_.SendCommand(0xDA);
 190:../../libdaisy/src/dev/oled_ssd130x.h ****                 transport_.SendCommand(0x12);
 191:../../libdaisy/src/dev/oled_ssd130x.h ****                 break;
 192:../../libdaisy/src/dev/oled_ssd130x.h ****             default: // 128
 193:../../libdaisy/src/dev/oled_ssd130x.h ****                 // Display Clock Divide Ratio
 194:../../libdaisy/src/dev/oled_ssd130x.h ****                 transport_.SendCommand(0xD5);
 195:../../libdaisy/src/dev/oled_ssd130x.h ****                 transport_.SendCommand(0x80);
 196:../../libdaisy/src/dev/oled_ssd130x.h ****                 // Multiplex Ratio
 197:../../libdaisy/src/dev/oled_ssd130x.h ****                 transport_.SendCommand(0xA8);
 198:../../libdaisy/src/dev/oled_ssd130x.h ****                 transport_.SendCommand(0x3F);
 199:../../libdaisy/src/dev/oled_ssd130x.h ****                 // COM Pins
 200:../../libdaisy/src/dev/oled_ssd130x.h ****                 transport_.SendCommand(0xDA);
 201:../../libdaisy/src/dev/oled_ssd130x.h ****                 transport_.SendCommand(0x12);
 202:../../libdaisy/src/dev/oled_ssd130x.h ****                 break;
 203:../../libdaisy/src/dev/oled_ssd130x.h ****         }
 204:../../libdaisy/src/dev/oled_ssd130x.h **** 
 205:../../libdaisy/src/dev/oled_ssd130x.h ****         // Display Offset
 206:../../libdaisy/src/dev/oled_ssd130x.h ****         transport_.SendCommand(0xD3);
 207:../../libdaisy/src/dev/oled_ssd130x.h ****         transport_.SendCommand(0x00);
 208:../../libdaisy/src/dev/oled_ssd130x.h ****         // Start Line Address
 209:../../libdaisy/src/dev/oled_ssd130x.h ****         transport_.SendCommand(0x40);
 210:../../libdaisy/src/dev/oled_ssd130x.h ****         // Normal Display
 211:../../libdaisy/src/dev/oled_ssd130x.h ****         transport_.SendCommand(0xA6);
 212:../../libdaisy/src/dev/oled_ssd130x.h ****         // All On Resume
 213:../../libdaisy/src/dev/oled_ssd130x.h ****         transport_.SendCommand(0xA4);
 214:../../libdaisy/src/dev/oled_ssd130x.h ****         // Charge Pump
 215:../../libdaisy/src/dev/oled_ssd130x.h ****         transport_.SendCommand(0x8D);
 216:../../libdaisy/src/dev/oled_ssd130x.h ****         transport_.SendCommand(0x14);
 217:../../libdaisy/src/dev/oled_ssd130x.h ****         // Set Segment Remap
 218:../../libdaisy/src/dev/oled_ssd130x.h ****         transport_.SendCommand(0xA1);
 219:../../libdaisy/src/dev/oled_ssd130x.h ****         // COM Output Scan Direction
 220:../../libdaisy/src/dev/oled_ssd130x.h ****         transport_.SendCommand(0xC8);
 221:../../libdaisy/src/dev/oled_ssd130x.h ****         // Contrast Control
 222:../../libdaisy/src/dev/oled_ssd130x.h ****         transport_.SendCommand(0x81);
 223:../../libdaisy/src/dev/oled_ssd130x.h ****         transport_.SendCommand(0x8F);
 224:../../libdaisy/src/dev/oled_ssd130x.h ****         // Pre Charge
 225:../../libdaisy/src/dev/oled_ssd130x.h ****         transport_.SendCommand(0xD9);
 226:../../libdaisy/src/dev/oled_ssd130x.h ****         transport_.SendCommand(0x25);
 227:../../libdaisy/src/dev/oled_ssd130x.h ****         // VCOM Detect
 228:../../libdaisy/src/dev/oled_ssd130x.h ****         transport_.SendCommand(0xDB);
 229:../../libdaisy/src/dev/oled_ssd130x.h ****         transport_.SendCommand(0x34);
 230:../../libdaisy/src/dev/oled_ssd130x.h **** 
 231:../../libdaisy/src/dev/oled_ssd130x.h **** 
 232:../../libdaisy/src/dev/oled_ssd130x.h ****         // Display On
 233:../../libdaisy/src/dev/oled_ssd130x.h ****         transport_.SendCommand(0xAF); //--turn on oled panel
 234:../../libdaisy/src/dev/oled_ssd130x.h ****     };
 235:../../libdaisy/src/dev/oled_ssd130x.h **** 
 236:../../libdaisy/src/dev/oled_ssd130x.h ****     size_t Width() const { return width; };
 237:../../libdaisy/src/dev/oled_ssd130x.h ****     size_t Height() const { return height; };
 238:../../libdaisy/src/dev/oled_ssd130x.h **** 
 239:../../libdaisy/src/dev/oled_ssd130x.h ****     void DrawPixel(uint_fast8_t x, uint_fast8_t y, bool on)
 240:../../libdaisy/src/dev/oled_ssd130x.h ****     {
 241:../../libdaisy/src/dev/oled_ssd130x.h ****         if(x >= width || y >= height)
ARM GAS  /tmp/ccpjMo0x.s 			page 27


 242:../../libdaisy/src/dev/oled_ssd130x.h ****             return;
 243:../../libdaisy/src/dev/oled_ssd130x.h ****         if(on)
 244:../../libdaisy/src/dev/oled_ssd130x.h ****             buffer_[x + (y / 8) * width] |= (1 << (y % 8));
 245:../../libdaisy/src/dev/oled_ssd130x.h ****         else
 246:../../libdaisy/src/dev/oled_ssd130x.h ****             buffer_[x + (y / 8) * width] &= ~(1 << (y % 8));
 247:../../libdaisy/src/dev/oled_ssd130x.h ****     }
 248:../../libdaisy/src/dev/oled_ssd130x.h **** 
 249:../../libdaisy/src/dev/oled_ssd130x.h ****     void Fill(bool on)
 282              		.loc 20 249 10 view .LVU51
 283              	.LBB527:
 250:../../libdaisy/src/dev/oled_ssd130x.h ****     {
 251:../../libdaisy/src/dev/oled_ssd130x.h ****         for(size_t i = 0; i < sizeof(buffer_); i++)
 284              		.loc 20 251 29 view .LVU52
 285 0000 4942     		rsbs	r1, r1, #0
 286              	.LVL8:
 287              		.loc 20 251 29 is_stmt 0 view .LVU53
 288 0002 00F11303 		add	r3, r0, #19
 289 0006 00F21342 		addw	r2, r0, #1043
 290 000a C9B2     		uxtb	r1, r1
 291              	.LVL9:
 292              	.L8:
 252:../../libdaisy/src/dev/oled_ssd130x.h ****         {
 253:../../libdaisy/src/dev/oled_ssd130x.h ****             buffer_[i] = on ? 0xff : 0x00;
 293              		.loc 20 253 13 view .LVU54
 294 000c 03F8011F 		strb	r1, [r3, #1]!
 295              	.LVL10:
 251:../../libdaisy/src/dev/oled_ssd130x.h ****         {
 296              		.loc 20 251 9 is_stmt 1 view .LVU55
 251:../../libdaisy/src/dev/oled_ssd130x.h ****         {
 297              		.loc 20 251 29 view .LVU56
 298 0010 9342     		cmp	r3, r2
 299 0012 FBD1     		bne	.L8
 300              	.LBE527:
 301              	.LBE526:
 302              		.loc 5 33 53 is_stmt 0 view .LVU57
 303 0014 7047     		bx	lr
 304              		.cfi_endproc
 305              	.LFE4833:
 307 0016 00BF     		.section	.text._Z13AudioCallbackPKPKfPPfj,"ax",%progbits
 308              		.align	1
 309              		.p2align 2,,3
 310              		.global	_Z13AudioCallbackPKPKfPPfj
 311              		.syntax unified
 312              		.thumb
 313              		.thumb_func
 314              		.fpu fpv5-d16
 316              	_Z13AudioCallbackPKPKfPPfj:
 317              	.LVL11:
 318              	.LFB4236:
 319              		.file 21 "stringvoice.cpp"
   1:stringvoice.cpp **** #include "daisy_field.h"
   2:stringvoice.cpp **** #include "daisysp.h"
   3:stringvoice.cpp **** 
   4:stringvoice.cpp **** using namespace daisysp;
   5:stringvoice.cpp **** using namespace daisy;
   6:stringvoice.cpp **** 
   7:stringvoice.cpp **** #define NUM_CONTROLS 4
ARM GAS  /tmp/ccpjMo0x.s 			page 28


   8:stringvoice.cpp **** 
   9:stringvoice.cpp **** DaisyField  hw;
  10:stringvoice.cpp **** StringVoice str;
  11:stringvoice.cpp **** 
  12:stringvoice.cpp **** uint8_t buttons[16];
  13:stringvoice.cpp **** // Use bottom row to set major scale
  14:stringvoice.cpp **** // Top row chromatic notes, and the inbetween notes are just the octave.
  15:stringvoice.cpp **** float scale[16]   = {0.f,
  16:stringvoice.cpp ****                    2.f,
  17:stringvoice.cpp ****                    4.f,
  18:stringvoice.cpp ****                    5.f,
  19:stringvoice.cpp ****                    7.f,
  20:stringvoice.cpp ****                    9.f,
  21:stringvoice.cpp ****                    11.f,
  22:stringvoice.cpp ****                    12.f,
  23:stringvoice.cpp ****                    0.f,
  24:stringvoice.cpp ****                    1.f,
  25:stringvoice.cpp ****                    3.f,
  26:stringvoice.cpp ****                    0.f,
  27:stringvoice.cpp ****                    6.f,
  28:stringvoice.cpp ****                    8.f,
  29:stringvoice.cpp ****                    10.f,
  30:stringvoice.cpp ****                    0.0f};
  31:stringvoice.cpp **** float active_note = scale[0];
  32:stringvoice.cpp **** 
  33:stringvoice.cpp **** int8_t octaves = 0;
  34:stringvoice.cpp **** 
  35:stringvoice.cpp **** // Use two side buttons to change octaves.
  36:stringvoice.cpp **** float kvals[NUM_CONTROLS];
  37:stringvoice.cpp **** 
  38:stringvoice.cpp **** void AudioCallback(AudioHandle::InputBuffer  in,
  39:stringvoice.cpp ****                    AudioHandle::OutputBuffer out,
  40:stringvoice.cpp ****                    size_t                    size)
  41:stringvoice.cpp **** {
 320              		.loc 21 41 1 is_stmt 1 view -0
 321              		.cfi_startproc
 322              		@ args = 0, pretend = 0, frame = 0
 323              		@ frame_needed = 0, uses_anonymous_args = 0
  42:stringvoice.cpp ****     hw.ProcessAnalogControls();
 324              		.loc 21 42 5 view .LVU59
  41:stringvoice.cpp ****     hw.ProcessAnalogControls();
 325              		.loc 21 41 1 is_stmt 0 view .LVU60
 326 0000 2DE9F843 		push	{r3, r4, r5, r6, r7, r8, r9, lr}
 327              		.cfi_def_cfa_offset 32
 328              		.cfi_offset 3, -32
 329              		.cfi_offset 4, -28
 330              		.cfi_offset 5, -24
 331              		.cfi_offset 6, -20
 332              		.cfi_offset 7, -16
 333              		.cfi_offset 8, -12
 334              		.cfi_offset 9, -8
 335              		.cfi_offset 14, -4
 336              		.loc 21 42 29 view .LVU61
 337 0004 444C     		ldr	r4, .L29
  41:stringvoice.cpp ****     hw.ProcessAnalogControls();
 338              		.loc 21 41 1 view .LVU62
 339 0006 0E46     		mov	r6, r1
ARM GAS  /tmp/ccpjMo0x.s 			page 29


  43:stringvoice.cpp ****     hw.ProcessDigitalControls();
  44:stringvoice.cpp **** 
  45:stringvoice.cpp ****     octaves += hw.sw[0].RisingEdge() ? -1 : 0;
  46:stringvoice.cpp ****     octaves += hw.sw[1].RisingEdge() ? 1 : 0;
  47:stringvoice.cpp ****     octaves = DSY_MIN(DSY_MAX(0, octaves), 4);
 340              		.loc 21 47 13 view .LVU63
 341 0008 444D     		ldr	r5, .L29+4
  41:stringvoice.cpp ****     hw.ProcessAnalogControls();
 342              		.loc 21 41 1 view .LVU64
 343 000a 1746     		mov	r7, r2
  42:stringvoice.cpp ****     hw.ProcessDigitalControls();
 344              		.loc 21 42 29 view .LVU65
 345 000c 2046     		mov	r0, r4
 346              	.LVL12:
  42:stringvoice.cpp ****     hw.ProcessDigitalControls();
 347              		.loc 21 42 29 view .LVU66
 348 000e DFF82081 		ldr	r8, .L29+24
 349 0012 FFF7FEFF 		bl	_ZN5daisy10DaisyField21ProcessAnalogControlsEv
 350              	.LVL13:
  43:stringvoice.cpp ****     hw.ProcessDigitalControls();
 351              		.loc 21 43 5 is_stmt 1 view .LVU67
  43:stringvoice.cpp ****     hw.ProcessDigitalControls();
 352              		.loc 21 43 30 is_stmt 0 view .LVU68
 353 0016 2046     		mov	r0, r4
 354 0018 FFF7FEFF 		bl	_ZN5daisy10DaisyField22ProcessDigitalControlsEv
 355              	.LVL14:
  45:stringvoice.cpp ****     octaves += hw.sw[1].RisingEdge() ? 1 : 0;
 356              		.loc 21 45 5 is_stmt 1 view .LVU69
 357              		.file 22 "../../libdaisy/src/hid/switch.h"
   1:../../libdaisy/src/hid/switch.h **** #pragma once
   2:../../libdaisy/src/hid/switch.h **** #ifndef DSY_SWITCH_H
   3:../../libdaisy/src/hid/switch.h **** #define DSY_SWITCH_H
   4:../../libdaisy/src/hid/switch.h **** #include "daisy_core.h"
   5:../../libdaisy/src/hid/switch.h **** #include "per/gpio.h"
   6:../../libdaisy/src/hid/switch.h **** 
   7:../../libdaisy/src/hid/switch.h **** namespace daisy
   8:../../libdaisy/src/hid/switch.h **** {
   9:../../libdaisy/src/hid/switch.h **** /** 
  10:../../libdaisy/src/hid/switch.h ****     Generic Class for handling momentary/latching switches \n 
  11:../../libdaisy/src/hid/switch.h ****     Inspired/influenced by Mutable Instruments (pichenettes) Switch classes
  12:../../libdaisy/src/hid/switch.h ****     @author Stephen Hensley
  13:../../libdaisy/src/hid/switch.h ****     @date December 2019
  14:../../libdaisy/src/hid/switch.h ****     @ingroup controls
  15:../../libdaisy/src/hid/switch.h **** */
  16:../../libdaisy/src/hid/switch.h **** class Switch
  17:../../libdaisy/src/hid/switch.h **** {
  18:../../libdaisy/src/hid/switch.h ****   public:
  19:../../libdaisy/src/hid/switch.h ****     /** Specifies the expected behavior of the switch */
  20:../../libdaisy/src/hid/switch.h ****     enum Type
  21:../../libdaisy/src/hid/switch.h ****     {
  22:../../libdaisy/src/hid/switch.h ****         TYPE_TOGGLE,    /**< & */
  23:../../libdaisy/src/hid/switch.h ****         TYPE_MOMENTARY, /**< & */
  24:../../libdaisy/src/hid/switch.h ****     };
  25:../../libdaisy/src/hid/switch.h ****     /** Specifies whether the pressed is HIGH or LOW. */
  26:../../libdaisy/src/hid/switch.h ****     enum Polarity
  27:../../libdaisy/src/hid/switch.h ****     {
  28:../../libdaisy/src/hid/switch.h ****         POLARITY_NORMAL,   /**< & */
ARM GAS  /tmp/ccpjMo0x.s 			page 30


  29:../../libdaisy/src/hid/switch.h ****         POLARITY_INVERTED, /**< & */
  30:../../libdaisy/src/hid/switch.h ****     };
  31:../../libdaisy/src/hid/switch.h **** 
  32:../../libdaisy/src/hid/switch.h ****     /** Specifies whether to use built-in Pull Up/Down resistors to hold button at a given state wh
  33:../../libdaisy/src/hid/switch.h ****     enum Pull
  34:../../libdaisy/src/hid/switch.h ****     {
  35:../../libdaisy/src/hid/switch.h ****         PULL_UP,   /**< & */
  36:../../libdaisy/src/hid/switch.h ****         PULL_DOWN, /**< & */
  37:../../libdaisy/src/hid/switch.h ****         PULL_NONE, /**< & */
  38:../../libdaisy/src/hid/switch.h ****     };
  39:../../libdaisy/src/hid/switch.h **** 
  40:../../libdaisy/src/hid/switch.h ****     Switch() {}
  41:../../libdaisy/src/hid/switch.h ****     ~Switch() {}
  42:../../libdaisy/src/hid/switch.h **** 
  43:../../libdaisy/src/hid/switch.h ****     /** 
  44:../../libdaisy/src/hid/switch.h ****     Initializes the switch object with a given port/pin combo.
  45:../../libdaisy/src/hid/switch.h ****     \param pin port/pin object to tell the switch which hardware pin to use.
  46:../../libdaisy/src/hid/switch.h ****     \param update_rate the rate at which the Debounce() function will be called. (used for timing).
  47:../../libdaisy/src/hid/switch.h ****     \param t switch type -- Default: TYPE_MOMENTARY
  48:../../libdaisy/src/hid/switch.h ****     \param pol switch polarity -- Default: POLARITY_INVERTED
  49:../../libdaisy/src/hid/switch.h ****     \param pu switch pull up/down -- Default: PULL_UP
  50:../../libdaisy/src/hid/switch.h ****     */
  51:../../libdaisy/src/hid/switch.h ****     void
  52:../../libdaisy/src/hid/switch.h ****     Init(dsy_gpio_pin pin, float update_rate, Type t, Polarity pol, Pull pu);
  53:../../libdaisy/src/hid/switch.h **** 
  54:../../libdaisy/src/hid/switch.h ****     /**
  55:../../libdaisy/src/hid/switch.h ****        Simplified Init.
  56:../../libdaisy/src/hid/switch.h ****        \param pin port/pin object to tell the switch which hardware pin to use.
  57:../../libdaisy/src/hid/switch.h ****        \param update_rate the rate at which the Debounce() function will be called. (used for timin
  58:../../libdaisy/src/hid/switch.h ****     */
  59:../../libdaisy/src/hid/switch.h ****     void Init(dsy_gpio_pin pin, float update_rate);
  60:../../libdaisy/src/hid/switch.h **** 
  61:../../libdaisy/src/hid/switch.h ****     /** 
  62:../../libdaisy/src/hid/switch.h ****     Called at update_rate to debounce and handle timing for the switch.
  63:../../libdaisy/src/hid/switch.h ****     In order for events not to be missed, its important that the Edge/Pressed checks
  64:../../libdaisy/src/hid/switch.h ****     be made at the same rate as the debounce function is being called.
  65:../../libdaisy/src/hid/switch.h ****     */
  66:../../libdaisy/src/hid/switch.h ****     void Debounce();
  67:../../libdaisy/src/hid/switch.h **** 
  68:../../libdaisy/src/hid/switch.h ****     /** \return true if a button was just pressed. */
  69:../../libdaisy/src/hid/switch.h ****     inline bool RisingEdge() const { return state_ == 0x7f; }
 358              		.loc 22 69 38 view .LVU70
  46:stringvoice.cpp ****     octaves = DSY_MIN(DSY_MAX(0, octaves), 4);
 359              		.loc 21 46 5 view .LVU71
 360              		.loc 22 69 38 view .LVU72
 361              		.loc 21 47 5 view .LVU73
  46:stringvoice.cpp ****     octaves = DSY_MIN(DSY_MAX(0, octaves), 4);
 362              		.loc 21 46 38 is_stmt 0 view .LVU74
 363 001c 94F88916 		ldrb	r1, [r4, #1673]	@ zero_extendqisi2
  46:stringvoice.cpp ****     octaves = DSY_MIN(DSY_MAX(0, octaves), 4);
 364              		.loc 21 46 13 view .LVU75
 365 0020 2B78     		ldrb	r3, [r5]	@ zero_extendqisi2
 366 0022 C146     		mov	r9, r8
  45:stringvoice.cpp ****     octaves += hw.sw[1].RisingEdge() ? 1 : 0;
 367              		.loc 21 45 38 view .LVU76
 368 0024 94F87926 		ldrb	r2, [r4, #1657]	@ zero_extendqisi2
 369              	.LBB528:
ARM GAS  /tmp/ccpjMo0x.s 			page 31


  48:stringvoice.cpp **** 
  49:stringvoice.cpp ****     for(int i = 0; i < NUM_CONTROLS; i++)
 370              		.loc 21 49 13 view .LVU77
 371 0028 0024     		movs	r4, #0
 372              	.LBE528:
  46:stringvoice.cpp ****     octaves = DSY_MIN(DSY_MAX(0, octaves), 4);
 373              		.loc 21 46 13 view .LVU78
 374 002a 7F29     		cmp	r1, #127
 375 002c 08BF     		it	eq
 376 002e 0133     		addeq	r3, r3, #1
 377 0030 7F2A     		cmp	r2, #127
 378 0032 08BF     		it	eq
 379 0034 013B     		subeq	r3, r3, #1
  47:stringvoice.cpp **** 
 380              		.loc 21 47 13 view .LVU79
 381 0036 5BB2     		sxtb	r3, r3
 382 0038 23EAE373 		bic	r3, r3, r3, asr #31
 383 003c 042B     		cmp	r3, #4
 384 003e A8BF     		it	ge
 385 0040 0423     		movge	r3, #4
 386 0042 2B70     		strb	r3, [r5]
 387              		.loc 21 49 5 is_stmt 1 view .LVU80
 388              	.LVL15:
 389              	.LBB529:
 390              		.loc 21 49 22 view .LVU81
 391              	.L11:
  50:stringvoice.cpp ****     {
  51:stringvoice.cpp ****         kvals[i] = hw.GetKnobValue(i);
 392              		.loc 21 51 9 discriminator 2 view .LVU82
 393              		.loc 21 51 35 is_stmt 0 discriminator 2 view .LVU83
 394 0044 2146     		mov	r1, r4
  49:stringvoice.cpp ****     {
 395              		.loc 21 49 5 discriminator 2 view .LVU84
 396 0046 0134     		adds	r4, r4, #1
 397              	.LVL16:
 398              		.loc 21 51 35 discriminator 2 view .LVU85
 399 0048 3348     		ldr	r0, .L29
 400 004a FFF7FEFF 		bl	_ZNK5daisy10DaisyField12GetKnobValueEj
 401              	.LVL17:
  49:stringvoice.cpp ****     {
 402              		.loc 21 49 22 discriminator 2 view .LVU86
 403 004e 042C     		cmp	r4, #4
 404              		.loc 21 51 18 discriminator 2 view .LVU87
 405 0050 A9EC010A 		vstmia.32	r9!, {s0}
  49:stringvoice.cpp ****     {
 406              		.loc 21 49 5 is_stmt 1 discriminator 2 view .LVU88
 407              	.LVL18:
  49:stringvoice.cpp ****     {
 408              		.loc 21 49 22 discriminator 2 view .LVU89
 409 0054 F6D1     		bne	.L11
 410              	.LBE529:
  52:stringvoice.cpp ****     }
  53:stringvoice.cpp **** 
  54:stringvoice.cpp ****     str.SetBrightness(kvals[0]);
 411              		.loc 21 54 5 view .LVU90
 412              		.loc 21 54 22 is_stmt 0 view .LVU91
 413 0056 98ED000A 		vldr.32	s0, [r8]
ARM GAS  /tmp/ccpjMo0x.s 			page 32


 414              	.LBB530:
  55:stringvoice.cpp ****     str.SetStructure(kvals[1]);
  56:stringvoice.cpp ****     str.SetDamping(kvals[2]);
  57:stringvoice.cpp ****     str.SetAccent(kvals[3]);
  58:stringvoice.cpp **** 
  59:stringvoice.cpp ****     for(size_t i = 0; i < 16; i++)
 415              		.loc 21 59 16 view .LVU92
 416 005a 0024     		movs	r4, #0
 417              	.LVL19:
 418              		.loc 21 59 16 view .LVU93
 419              	.LBE530:
  54:stringvoice.cpp ****     str.SetStructure(kvals[1]);
 420              		.loc 21 54 22 view .LVU94
 421 005c 3048     		ldr	r0, .L29+8
 422 005e FFF7FEFF 		bl	_ZN7daisysp11StringVoice13SetBrightnessEf
 423              	.LVL20:
  55:stringvoice.cpp ****     str.SetStructure(kvals[1]);
 424              		.loc 21 55 5 is_stmt 1 view .LVU95
  55:stringvoice.cpp ****     str.SetStructure(kvals[1]);
 425              		.loc 21 55 21 is_stmt 0 view .LVU96
 426 0062 98ED010A 		vldr.32	s0, [r8, #4]
 427 0066 2E48     		ldr	r0, .L29+8
 428 0068 FFF7FEFF 		bl	_ZN7daisysp11StringVoice12SetStructureEf
 429              	.LVL21:
  56:stringvoice.cpp ****     str.SetAccent(kvals[3]);
 430              		.loc 21 56 5 is_stmt 1 view .LVU97
  56:stringvoice.cpp ****     str.SetAccent(kvals[3]);
 431              		.loc 21 56 19 is_stmt 0 view .LVU98
 432 006c 98ED020A 		vldr.32	s0, [r8, #8]
 433 0070 2B48     		ldr	r0, .L29+8
 434 0072 FFF7FEFF 		bl	_ZN7daisysp11StringVoice10SetDampingEf
 435              	.LVL22:
  57:stringvoice.cpp **** 
 436              		.loc 21 57 5 is_stmt 1 view .LVU99
  57:stringvoice.cpp **** 
 437              		.loc 21 57 18 is_stmt 0 view .LVU100
 438 0076 98ED030A 		vldr.32	s0, [r8, #12]
 439 007a 2948     		ldr	r0, .L29+8
 440 007c FFF7FEFF 		bl	_ZN7daisysp11StringVoice9SetAccentEf
 441              	.LVL23:
 442              		.loc 21 59 5 is_stmt 1 view .LVU101
 443              	.LBB543:
 444              		.loc 21 59 25 view .LVU102
 445              	.L13:
 446              		.loc 21 59 25 is_stmt 0 view .LVU103
 447              	.LBE543:
  60:stringvoice.cpp ****     {
  61:stringvoice.cpp ****         if(hw.KeyboardRisingEdge(i) && i != 8 && i != 11 && i != 15)
 448              		.loc 21 61 9 is_stmt 1 view .LVU104
 449              	.LBB544:
 450              	.LBB531:
 451              		.loc 21 61 33 is_stmt 0 view .LVU105
 452 0080 2146     		mov	r1, r4
 453 0082 2548     		ldr	r0, .L29
 454 0084 FFF7FEFF 		bl	_ZNK5daisy10DaisyField18KeyboardRisingEdgeEj
 455              	.LVL24:
 456              		.loc 21 61 52 view .LVU106
ARM GAS  /tmp/ccpjMo0x.s 			page 33


 457 0088 24F00403 		bic	r3, r4, #4
 458              		.loc 21 61 58 view .LVU107
 459 008c 50B3     		cbz	r0, .L12
 460              		.loc 21 61 58 discriminator 1 view .LVU108
 461 008e 0B2B     		cmp	r3, #11
 462 0090 28D0     		beq	.L12
 463              	.LBB532:
  62:stringvoice.cpp ****         {
  63:stringvoice.cpp ****             str.Trig();
 464              		.loc 21 63 13 is_stmt 1 discriminator 1 view .LVU109
 465              	.LBE532:
  61:stringvoice.cpp ****         {
 466              		.loc 21 61 58 is_stmt 0 discriminator 1 view .LVU110
 467 0092 082C     		cmp	r4, #8
 468              	.LBB541:
 469              		.loc 21 63 21 discriminator 1 view .LVU111
 470 0094 2248     		ldr	r0, .L29+8
 471              	.LBE541:
  61:stringvoice.cpp ****         {
 472              		.loc 21 61 58 discriminator 1 view .LVU112
 473 0096 25D0     		beq	.L12
 474              	.LBB542:
 475              		.loc 21 63 21 view .LVU113
 476 0098 FFF7FEFF 		bl	_ZN7daisysp11StringVoice4TrigEv
 477              	.LVL25:
  64:stringvoice.cpp ****             float m = (12.0f * octaves) + 24.0f + scale[i];
 478              		.loc 21 64 13 is_stmt 1 view .LVU114
 479              		.loc 21 64 30 is_stmt 0 view .LVU115
 480 009c 95F90030 		ldrsb	r3, [r5]
 481              		.loc 21 64 41 view .LVU116
 482 00a0 F2EE080A 		vmov.f32	s1, #1.2e+1
 483              	.LBB533:
 484              	.LBB534:
 485              		.file 23 "../../DaisySP/Source/Utility/dsp.h"
   1:../../DaisySP/Source/Utility/dsp.h **** /** Helpful defines, functions, and other utilities for use in/with daisysp modules.
   2:../../DaisySP/Source/Utility/dsp.h **** */
   3:../../DaisySP/Source/Utility/dsp.h **** #pragma once
   4:../../DaisySP/Source/Utility/dsp.h **** #ifndef DSY_CORE_DSP
   5:../../DaisySP/Source/Utility/dsp.h **** #define DSY_CORE_DSP
   6:../../DaisySP/Source/Utility/dsp.h **** #include <cassert>
   7:../../DaisySP/Source/Utility/dsp.h **** #include <cstdint>
   8:../../DaisySP/Source/Utility/dsp.h **** #include <random>
   9:../../DaisySP/Source/Utility/dsp.h **** #include <cmath>
  10:../../DaisySP/Source/Utility/dsp.h **** 
  11:../../DaisySP/Source/Utility/dsp.h **** /** PIs
  12:../../DaisySP/Source/Utility/dsp.h **** */
  13:../../DaisySP/Source/Utility/dsp.h **** #define PI_F 3.1415927410125732421875f
  14:../../DaisySP/Source/Utility/dsp.h **** #define TWOPI_F (2.0f * PI_F)
  15:../../DaisySP/Source/Utility/dsp.h **** #define HALFPI_F (PI_F * 0.5f)
  16:../../DaisySP/Source/Utility/dsp.h **** #define DSY_MIN(in, mn) (in < mn ? in : mn)
  17:../../DaisySP/Source/Utility/dsp.h **** #define DSY_MAX(in, mx) (in > mx ? in : mx)
  18:../../DaisySP/Source/Utility/dsp.h **** #define DSY_CLAMP(in, mn, mx) (DSY_MIN(DSY_MAX(in, mn), mx))
  19:../../DaisySP/Source/Utility/dsp.h **** #define DSY_COUNTOF(_arr) (sizeof(_arr) / sizeof(_arr[0]))
  20:../../DaisySP/Source/Utility/dsp.h **** 
  21:../../DaisySP/Source/Utility/dsp.h **** namespace daisysp
  22:../../DaisySP/Source/Utility/dsp.h **** {
  23:../../DaisySP/Source/Utility/dsp.h **** //Avoids division for random floats. e.g. rand() * kRandFrac
ARM GAS  /tmp/ccpjMo0x.s 			page 34


  24:../../DaisySP/Source/Utility/dsp.h **** static constexpr float kRandFrac = 1.f / (float)RAND_MAX;
  25:../../DaisySP/Source/Utility/dsp.h **** 
  26:../../DaisySP/Source/Utility/dsp.h **** //Convert from semitones to other units. e.g. 2 ^ (kOneTwelfth * x)
  27:../../DaisySP/Source/Utility/dsp.h **** static constexpr float kOneTwelfth = 1.f / 12.f;
  28:../../DaisySP/Source/Utility/dsp.h **** 
  29:../../DaisySP/Source/Utility/dsp.h **** /** efficient floating point min/max
  30:../../DaisySP/Source/Utility/dsp.h **** c/o stephen mccaul
  31:../../DaisySP/Source/Utility/dsp.h **** */
  32:../../DaisySP/Source/Utility/dsp.h **** inline float fmax(float a, float b)
  33:../../DaisySP/Source/Utility/dsp.h **** {
  34:../../DaisySP/Source/Utility/dsp.h ****     float r;
  35:../../DaisySP/Source/Utility/dsp.h **** #ifdef __arm__
  36:../../DaisySP/Source/Utility/dsp.h ****     asm("vmaxnm.f32 %[d], %[n], %[m]" : [d] "=t"(r) : [n] "t"(a), [m] "t"(b) :);
  37:../../DaisySP/Source/Utility/dsp.h **** #else
  38:../../DaisySP/Source/Utility/dsp.h ****     r = (a > b) ? a : b;
  39:../../DaisySP/Source/Utility/dsp.h **** #endif // __arm__
  40:../../DaisySP/Source/Utility/dsp.h ****     return r;
  41:../../DaisySP/Source/Utility/dsp.h **** }
  42:../../DaisySP/Source/Utility/dsp.h **** 
  43:../../DaisySP/Source/Utility/dsp.h **** inline float fmin(float a, float b)
  44:../../DaisySP/Source/Utility/dsp.h **** {
  45:../../DaisySP/Source/Utility/dsp.h ****     float r;
  46:../../DaisySP/Source/Utility/dsp.h **** #ifdef __arm__
  47:../../DaisySP/Source/Utility/dsp.h ****     asm("vminnm.f32 %[d], %[n], %[m]" : [d] "=t"(r) : [n] "t"(a), [m] "t"(b) :);
  48:../../DaisySP/Source/Utility/dsp.h **** #else
  49:../../DaisySP/Source/Utility/dsp.h ****     r = (a < b) ? a : b;
  50:../../DaisySP/Source/Utility/dsp.h **** #endif // __arm__
  51:../../DaisySP/Source/Utility/dsp.h ****     return r;
  52:../../DaisySP/Source/Utility/dsp.h **** }
  53:../../DaisySP/Source/Utility/dsp.h **** 
  54:../../DaisySP/Source/Utility/dsp.h **** /** quick fp clamp
  55:../../DaisySP/Source/Utility/dsp.h **** */
  56:../../DaisySP/Source/Utility/dsp.h **** inline float fclamp(float in, float min, float max)
  57:../../DaisySP/Source/Utility/dsp.h **** {
  58:../../DaisySP/Source/Utility/dsp.h ****     return fmin(fmax(in, min), max);
  59:../../DaisySP/Source/Utility/dsp.h **** }
  60:../../DaisySP/Source/Utility/dsp.h **** 
  61:../../DaisySP/Source/Utility/dsp.h **** /** From Musicdsp.org "Fast power and root estimates for 32bit floats)
  62:../../DaisySP/Source/Utility/dsp.h **** Original code by Stefan Stenzel
  63:../../DaisySP/Source/Utility/dsp.h **** These are approximations
  64:../../DaisySP/Source/Utility/dsp.h **** */
  65:../../DaisySP/Source/Utility/dsp.h **** inline float fastpower(float f, int n)
  66:../../DaisySP/Source/Utility/dsp.h **** {
  67:../../DaisySP/Source/Utility/dsp.h ****     long *lp, l;
  68:../../DaisySP/Source/Utility/dsp.h ****     lp = (long *)(&f);
  69:../../DaisySP/Source/Utility/dsp.h ****     l  = *lp;
  70:../../DaisySP/Source/Utility/dsp.h ****     l -= 0x3F800000;
  71:../../DaisySP/Source/Utility/dsp.h ****     l <<= (n - 1);
  72:../../DaisySP/Source/Utility/dsp.h ****     l += 0x3F800000;
  73:../../DaisySP/Source/Utility/dsp.h ****     *lp = l;
  74:../../DaisySP/Source/Utility/dsp.h ****     return f;
  75:../../DaisySP/Source/Utility/dsp.h **** }
  76:../../DaisySP/Source/Utility/dsp.h **** 
  77:../../DaisySP/Source/Utility/dsp.h **** inline float fastroot(float f, int n)
  78:../../DaisySP/Source/Utility/dsp.h **** {
  79:../../DaisySP/Source/Utility/dsp.h ****     long *lp, l;
  80:../../DaisySP/Source/Utility/dsp.h ****     lp = (long *)(&f);
ARM GAS  /tmp/ccpjMo0x.s 			page 35


  81:../../DaisySP/Source/Utility/dsp.h ****     l  = *lp;
  82:../../DaisySP/Source/Utility/dsp.h ****     l -= 0x3F800000;
  83:../../DaisySP/Source/Utility/dsp.h ****     l >>= (n = 1);
  84:../../DaisySP/Source/Utility/dsp.h ****     l += 0x3F800000;
  85:../../DaisySP/Source/Utility/dsp.h ****     *lp = l;
  86:../../DaisySP/Source/Utility/dsp.h ****     return f;
  87:../../DaisySP/Source/Utility/dsp.h **** }
  88:../../DaisySP/Source/Utility/dsp.h **** 
  89:../../DaisySP/Source/Utility/dsp.h **** /** From http://openaudio.blogspot.com/2017/02/faster-log10-and-pow.html
  90:../../DaisySP/Source/Utility/dsp.h **** No approximation, pow10f(x) gives a 90% speed increase over powf(10.f, x)
  91:../../DaisySP/Source/Utility/dsp.h **** */
  92:../../DaisySP/Source/Utility/dsp.h **** inline float pow10f(float f)
  93:../../DaisySP/Source/Utility/dsp.h **** {
  94:../../DaisySP/Source/Utility/dsp.h ****     return expf(2.302585092994046f * f);
  95:../../DaisySP/Source/Utility/dsp.h **** }
  96:../../DaisySP/Source/Utility/dsp.h **** 
  97:../../DaisySP/Source/Utility/dsp.h **** /* Original code for fastlog2f by Dr. Paul Beckmann from the ARM community forum, adapted from the 
  98:../../DaisySP/Source/Utility/dsp.h **** About 25% performance increase over std::log10f
  99:../../DaisySP/Source/Utility/dsp.h **** */
 100:../../DaisySP/Source/Utility/dsp.h **** inline float fastlog2f(float f)
 101:../../DaisySP/Source/Utility/dsp.h **** {
 102:../../DaisySP/Source/Utility/dsp.h ****     float frac;
 103:../../DaisySP/Source/Utility/dsp.h ****     int   exp;
 104:../../DaisySP/Source/Utility/dsp.h ****     frac = frexpf(fabsf(f), &exp);
 105:../../DaisySP/Source/Utility/dsp.h ****     f    = 1.23149591368684f;
 106:../../DaisySP/Source/Utility/dsp.h ****     f *= frac;
 107:../../DaisySP/Source/Utility/dsp.h ****     f += -4.11852516267426f;
 108:../../DaisySP/Source/Utility/dsp.h ****     f *= frac;
 109:../../DaisySP/Source/Utility/dsp.h ****     f += 6.02197014179219f;
 110:../../DaisySP/Source/Utility/dsp.h ****     f *= frac;
 111:../../DaisySP/Source/Utility/dsp.h ****     f += -3.13396450166353f;
 112:../../DaisySP/Source/Utility/dsp.h ****     f += exp;
 113:../../DaisySP/Source/Utility/dsp.h ****     return (f);
 114:../../DaisySP/Source/Utility/dsp.h **** }
 115:../../DaisySP/Source/Utility/dsp.h **** 
 116:../../DaisySP/Source/Utility/dsp.h **** inline float fastlog10f(float f)
 117:../../DaisySP/Source/Utility/dsp.h **** {
 118:../../DaisySP/Source/Utility/dsp.h ****     return fastlog2f(f) * 0.3010299956639812f;
 119:../../DaisySP/Source/Utility/dsp.h **** }
 120:../../DaisySP/Source/Utility/dsp.h **** 
 121:../../DaisySP/Source/Utility/dsp.h **** /** Midi to frequency helper
 122:../../DaisySP/Source/Utility/dsp.h **** */
 123:../../DaisySP/Source/Utility/dsp.h **** inline float mtof(float m)
 124:../../DaisySP/Source/Utility/dsp.h **** {
 125:../../DaisySP/Source/Utility/dsp.h ****     return powf(2, (m - 69.0f) / 12.0f) * 440.0f;
 486              		.loc 23 125 23 view .LVU117
 487 00a4 DFED1F6A 		vldr.32	s13, .L29+12
 488              	.LBE534:
 489              	.LBE533:
 490              		.loc 21 64 30 view .LVU118
 491 00a8 07EE103A 		vmov	s14, r3	@ int
 492              		.loc 21 64 41 view .LVU119
 493 00ac F3EE087A 		vmov.f32	s15, #2.4e+1
 494              		.loc 21 64 58 view .LVU120
 495 00b0 1D4B     		ldr	r3, .L29+16
 496              	.LBB538:
 497              	.LBB535:
ARM GAS  /tmp/ccpjMo0x.s 			page 36


 498              		.loc 23 125 16 view .LVU121
 499 00b2 B0EE000A 		vmov.f32	s0, #2.0e+0
 500              	.LBE535:
 501              	.LBE538:
 502              		.loc 21 64 30 view .LVU122
 503 00b6 B8EEC77A 		vcvt.f32.s32	s14, s14
 504              		.loc 21 64 58 view .LVU123
 505 00ba 03EB8403 		add	r3, r3, r4, lsl #2
 506              		.loc 21 64 41 view .LVU124
 507 00be E7EE207A 		vfma.f32	s15, s14, s1
 508              	.LVL26:
  65:stringvoice.cpp ****             str.SetFreq(mtof(m));
 509              		.loc 21 65 13 is_stmt 1 view .LVU125
 510              	.LBB539:
 511              	.LBI533:
 123:../../DaisySP/Source/Utility/dsp.h **** {
 512              		.loc 23 123 14 view .LVU126
 513              	.LBB536:
 514              		.loc 23 125 5 view .LVU127
 515              	.LBE536:
 516              	.LBE539:
  64:stringvoice.cpp ****             str.SetFreq(mtof(m));
 517              		.loc 21 64 19 is_stmt 0 view .LVU128
 518 00c2 93ED006A 		vldr.32	s12, [r3]
 519 00c6 77EE867A 		vadd.f32	s15, s15, s12
 520              	.LVL27:
 521              	.LBB540:
 522              	.LBB537:
 523              		.loc 23 125 23 view .LVU129
 524 00ca 77EEE67A 		vsub.f32	s15, s15, s13
 525              		.loc 23 125 16 view .LVU130
 526 00ce C7EEA00A 		vdiv.f32	s1, s15, s1
 527              	.LVL28:
 528              		.loc 23 125 16 view .LVU131
 529 00d2 FFF7FEFF 		bl	powf
 530              	.LVL29:
 531              		.loc 23 125 43 view .LVU132
 532 00d6 DFED157A 		vldr.32	s15, .L29+20
 533              	.LBE537:
 534              	.LBE540:
 535              		.loc 21 65 24 view .LVU133
 536 00da 1148     		ldr	r0, .L29+8
 537 00dc 20EE270A 		vmul.f32	s0, s0, s15
 538 00e0 FFF7FEFF 		bl	_ZN7daisysp11StringVoice7SetFreqEf
 539              	.LVL30:
 540              	.L12:
 541              		.loc 21 65 24 view .LVU134
 542              	.LBE542:
 543              	.LBE531:
  59:stringvoice.cpp ****     {
 544              		.loc 21 59 5 is_stmt 1 discriminator 2 view .LVU135
 545 00e4 0134     		adds	r4, r4, #1
 546              	.LVL31:
  59:stringvoice.cpp ****     {
 547              		.loc 21 59 25 discriminator 2 view .LVU136
 548 00e6 102C     		cmp	r4, #16
 549 00e8 CAD1     		bne	.L13
ARM GAS  /tmp/ccpjMo0x.s 			page 37


 550              	.LVL32:
  59:stringvoice.cpp ****     {
 551              		.loc 21 59 25 is_stmt 0 discriminator 2 view .LVU137
 552              	.LBE544:
 553              	.LBB545:
  66:stringvoice.cpp ****         }
  67:stringvoice.cpp ****     }
  68:stringvoice.cpp **** 
  69:stringvoice.cpp ****     for(size_t i = 0; i < size; i++)
 554              		.loc 21 69 25 is_stmt 1 view .LVU138
 555 00ea 97B1     		cbz	r7, .L10
 556              		.loc 21 69 16 is_stmt 0 view .LVU139
 557 00ec 0024     		movs	r4, #0
 558              	.LVL33:
 559              	.L14:
  70:stringvoice.cpp ****     {
  71:stringvoice.cpp ****         out[0][i] = out[1][i] = str.Process();
 560              		.loc 21 71 9 is_stmt 1 discriminator 2 view .LVU140
 561              		.loc 21 71 29 is_stmt 0 discriminator 2 view .LVU141
 562 00ee 7568     		ldr	r5, [r6, #4]
 563              		.loc 21 71 44 discriminator 2 view .LVU142
 564 00f0 0021     		movs	r1, #0
 565 00f2 0B48     		ldr	r0, .L29+8
 566 00f4 4FEA8408 		lsl	r8, r4, #2
 567 00f8 FFF7FEFF 		bl	_ZN7daisysp11StringVoice7ProcessEb
 568              	.LVL34:
 569              		.loc 21 71 19 discriminator 2 view .LVU143
 570 00fc 3368     		ldr	r3, [r6]
 571              		.loc 21 71 29 discriminator 2 view .LVU144
 572 00fe 05EB8405 		add	r5, r5, r4, lsl #2
  69:stringvoice.cpp ****     {
 573              		.loc 21 69 5 discriminator 2 view .LVU145
 574 0102 0134     		adds	r4, r4, #1
 575              	.LVL35:
 576              		.loc 21 71 19 discriminator 2 view .LVU146
 577 0104 4344     		add	r3, r3, r8
  69:stringvoice.cpp ****     {
 578              		.loc 21 69 25 discriminator 2 view .LVU147
 579 0106 A742     		cmp	r7, r4
 580              		.loc 21 71 31 discriminator 2 view .LVU148
 581 0108 85ED000A 		vstr.32	s0, [r5]
 582              		.loc 21 71 19 discriminator 2 view .LVU149
 583 010c 83ED000A 		vstr.32	s0, [r3]
  69:stringvoice.cpp ****     {
 584              		.loc 21 69 5 is_stmt 1 discriminator 2 view .LVU150
 585              	.LVL36:
  69:stringvoice.cpp ****     {
 586              		.loc 21 69 25 discriminator 2 view .LVU151
 587 0110 EDD1     		bne	.L14
 588              	.LVL37:
 589              	.L10:
  69:stringvoice.cpp ****     {
 590              		.loc 21 69 25 is_stmt 0 discriminator 2 view .LVU152
 591              	.LBE545:
  72:stringvoice.cpp ****     }
  73:stringvoice.cpp **** }
 592              		.loc 21 73 1 view .LVU153
ARM GAS  /tmp/ccpjMo0x.s 			page 38


 593 0112 BDE8F883 		pop	{r3, r4, r5, r6, r7, r8, r9, pc}
 594              	.LVL38:
 595              	.L30:
 596              		.loc 21 73 1 view .LVU154
 597 0116 00BF     		.align	2
 598              	.L29:
 599 0118 00000000 		.word	hw
 600 011c 00000000 		.word	.LANCHOR0
 601 0120 00000000 		.word	str
 602 0124 00008A42 		.word	1116340224
 603 0128 00000000 		.word	.LANCHOR2
 604 012c 0000DC43 		.word	1138491392
 605 0130 00000000 		.word	.LANCHOR1
 606              		.cfi_endproc
 607              	.LFE4236:
 609              		.section	.text._ZN5daisy11OledDisplayINS_13SSD130xDriverILj128ELj64ENS_24SSD130x4WireSpiTransportE
 610              		.align	1
 611              		.p2align 2,,3
 612              		.weak	_ZN5daisy11OledDisplayINS_13SSD130xDriverILj128ELj64ENS_24SSD130x4WireSpiTransportEEEED0Ev
 613              		.syntax unified
 614              		.thumb
 615              		.thumb_func
 616              		.fpu fpv5-d16
 618              	_ZN5daisy11OledDisplayINS_13SSD130xDriverILj128ELj64ENS_24SSD130x4WireSpiTransportEEEED0Ev:
 619              	.LVL39:
 620              	.LFB4260:
  17:../../libdaisy/src/hid/disp/oled_display.h **** 
 621              		.loc 5 17 13 is_stmt 1 view -0
 622              		.cfi_startproc
 623              		@ args = 0, pretend = 0, frame = 0
 624              		@ frame_needed = 0, uses_anonymous_args = 0
  17:../../libdaisy/src/hid/disp/oled_display.h **** 
 625              		.loc 5 17 13 is_stmt 0 view .LVU156
 626 0000 10B5     		push	{r4, lr}
 627              		.cfi_def_cfa_offset 8
 628              		.cfi_offset 4, -8
 629              		.cfi_offset 14, -4
  17:../../libdaisy/src/hid/disp/oled_display.h **** 
 630              		.loc 5 17 13 view .LVU157
 631 0002 0446     		mov	r4, r0
 632              	.LVL40:
 633              	.LBB546:
 634              	.LBI546:
  17:../../libdaisy/src/hid/disp/oled_display.h **** 
 635              		.loc 5 17 13 is_stmt 1 view .LVU158
 636              	.LBB547:
 637              	.LBI547:
 638              		.loc 6 219 13 view .LVU159
 639              	.LBB548:
 640              	.LBI548:
  23:../../libdaisy/src/hid/disp/display.h **** 
 641              		.loc 6 23 13 view .LVU160
  23:../../libdaisy/src/hid/disp/display.h **** 
 642              		.loc 6 23 13 is_stmt 0 view .LVU161
 643              	.LBE548:
 644              	.LBE547:
 645              	.LBE546:
ARM GAS  /tmp/ccpjMo0x.s 			page 39


  17:../../libdaisy/src/hid/disp/oled_display.h **** 
 646              		.loc 5 17 29 view .LVU162
 647 0004 40F21441 		movw	r1, #1044
 648 0008 FFF7FEFF 		bl	_ZdlPvj
 649              	.LVL41:
  17:../../libdaisy/src/hid/disp/oled_display.h **** 
 650              		.loc 5 17 29 view .LVU163
 651 000c 2046     		mov	r0, r4
 652 000e 10BD     		pop	{r4, pc}
  17:../../libdaisy/src/hid/disp/oled_display.h **** 
 653              		.loc 5 17 29 view .LVU164
 654              		.cfi_endproc
 655              	.LFE4260:
 657              		.section	.text._ZN5daisy11OledDisplayINS_13SSD130xDriverILj128ELj64ENS_24SSD130x4WireSpiTransportE
 658              		.align	1
 659              		.p2align 2,,3
 660              		.weak	_ZN5daisy11OledDisplayINS_13SSD130xDriverILj128ELj64ENS_24SSD130x4WireSpiTransportEEEE6Updat
 661              		.syntax unified
 662              		.thumb
 663              		.thumb_func
 664              		.fpu fpv5-d16
 666              	_ZN5daisy11OledDisplayINS_13SSD130xDriverILj128ELj64ENS_24SSD130x4WireSpiTransportEEEE6UpdateEv:
 667              	.LVL42:
 668              	.LFB4841:
  34:../../libdaisy/src/hid/disp/oled_display.h **** 
  35:../../libdaisy/src/hid/disp/oled_display.h ****     /**
  36:../../libdaisy/src/hid/disp/oled_display.h ****     Sets the pixel at the specified coordinate to be on/off.
  37:../../libdaisy/src/hid/disp/oled_display.h ****     \param x   x Coordinate
  38:../../libdaisy/src/hid/disp/oled_display.h ****     \param y   y coordinate
  39:../../libdaisy/src/hid/disp/oled_display.h ****     \param on  on or off
  40:../../libdaisy/src/hid/disp/oled_display.h ****     */
  41:../../libdaisy/src/hid/disp/oled_display.h ****     void DrawPixel(uint_fast8_t x, uint_fast8_t y, bool on) override
  42:../../libdaisy/src/hid/disp/oled_display.h ****     {
  43:../../libdaisy/src/hid/disp/oled_display.h ****         driver_.DrawPixel(x, y, on);
  44:../../libdaisy/src/hid/disp/oled_display.h ****     }
  45:../../libdaisy/src/hid/disp/oled_display.h **** 
  46:../../libdaisy/src/hid/disp/oled_display.h ****     /** 
  47:../../libdaisy/src/hid/disp/oled_display.h ****     Writes the current display buffer to the OLED device using SPI or I2C depending on 
  48:../../libdaisy/src/hid/disp/oled_display.h ****     how the object was initialized.
  49:../../libdaisy/src/hid/disp/oled_display.h ****     */
  50:../../libdaisy/src/hid/disp/oled_display.h ****     void Update() override { driver_.Update(); }
 669              		.loc 5 50 10 is_stmt 1 view -0
 670              		.cfi_startproc
 671              		@ args = 0, pretend = 0, frame = 8
 672              		@ frame_needed = 0, uses_anonymous_args = 0
 673              	.LBB559:
 674              	.LBI559:
 254:../../libdaisy/src/dev/oled_ssd130x.h ****         }
 255:../../libdaisy/src/dev/oled_ssd130x.h ****     };
 256:../../libdaisy/src/dev/oled_ssd130x.h **** 
 257:../../libdaisy/src/dev/oled_ssd130x.h ****     /**
 258:../../libdaisy/src/dev/oled_ssd130x.h ****      * Update the display 
 259:../../libdaisy/src/dev/oled_ssd130x.h ****     */
 260:../../libdaisy/src/dev/oled_ssd130x.h ****     void Update()
 675              		.loc 20 260 10 view .LVU166
 676              	.LBB560:
 261:../../libdaisy/src/dev/oled_ssd130x.h ****     {
ARM GAS  /tmp/ccpjMo0x.s 			page 40


 262:../../libdaisy/src/dev/oled_ssd130x.h ****         uint8_t i;
 263:../../libdaisy/src/dev/oled_ssd130x.h ****         uint8_t high_column_addr;
 264:../../libdaisy/src/dev/oled_ssd130x.h ****         switch(height)
 265:../../libdaisy/src/dev/oled_ssd130x.h ****         {
 266:../../libdaisy/src/dev/oled_ssd130x.h ****             case 32: high_column_addr = 0x12; break;
 267:../../libdaisy/src/dev/oled_ssd130x.h **** 
 268:../../libdaisy/src/dev/oled_ssd130x.h ****             default: high_column_addr = 0x10; break;
 269:../../libdaisy/src/dev/oled_ssd130x.h ****         }
 270:../../libdaisy/src/dev/oled_ssd130x.h ****         for(i = 0; i < (height / 8); i++)
 677              		.loc 20 270 22 view .LVU167
 678              	.LBE560:
 679              	.LBE559:
 680              		.loc 5 50 10 is_stmt 0 view .LVU168
 681 0000 2DE9F041 		push	{r4, r5, r6, r7, r8, lr}
 682              		.cfi_def_cfa_offset 24
 683              		.cfi_offset 4, -24
 684              		.cfi_offset 5, -20
 685              		.cfi_offset 6, -16
 686              		.cfi_offset 7, -12
 687              		.cfi_offset 8, -8
 688              		.cfi_offset 14, -4
 689 0004 B025     		movs	r5, #176
 690 0006 82B0     		sub	sp, sp, #8
 691              		.cfi_def_cfa_offset 32
 692 0008 00F10807 		add	r7, r0, #8
 693 000c 00F11006 		add	r6, r0, #16
 694 0010 00F11404 		add	r4, r0, #20
 695              	.LVL43:
 696              	.L34:
 697              	.LBB573:
 698              	.LBB572:
 699              	.LBB561:
 700              	.LBB562:
 111:../../libdaisy/src/dev/oled_ssd130x.h ****         spi_.BlockingTransmit(&cmd, 1);
 701              		.loc 20 111 23 view .LVU169
 702 0014 0021     		movs	r1, #0
 703 0016 3046     		mov	r0, r6
 704 0018 8DF80750 		strb	r5, [sp, #7]
 705              	.LVL44:
 111:../../libdaisy/src/dev/oled_ssd130x.h ****         spi_.BlockingTransmit(&cmd, 1);
 706              		.loc 20 111 23 view .LVU170
 707              	.LBE562:
 708              	.LBI561:
 109:../../libdaisy/src/dev/oled_ssd130x.h ****     {
 709              		.loc 20 109 10 is_stmt 1 view .LVU171
 710              	.LBB563:
 111:../../libdaisy/src/dev/oled_ssd130x.h ****         spi_.BlockingTransmit(&cmd, 1);
 711              		.loc 20 111 9 view .LVU172
 712 001c 0135     		adds	r5, r5, #1
 713              	.LVL45:
 111:../../libdaisy/src/dev/oled_ssd130x.h ****         spi_.BlockingTransmit(&cmd, 1);
 714              		.loc 20 111 9 is_stmt 0 view .LVU173
 715 001e 8846     		mov	r8, r1
 111:../../libdaisy/src/dev/oled_ssd130x.h ****         spi_.BlockingTransmit(&cmd, 1);
 716              		.loc 20 111 23 view .LVU174
 717 0020 FFF7FEFF 		bl	dsy_gpio_write
 718              	.LVL46:
ARM GAS  /tmp/ccpjMo0x.s 			page 41


 112:../../libdaisy/src/dev/oled_ssd130x.h ****     };
 719              		.loc 20 112 9 is_stmt 1 view .LVU175
 112:../../libdaisy/src/dev/oled_ssd130x.h ****     };
 720              		.loc 20 112 30 is_stmt 0 view .LVU176
 721 0024 6423     		movs	r3, #100
 722 0026 0122     		movs	r2, #1
 723 0028 0DF10701 		add	r1, sp, #7
 724 002c 3846     		mov	r0, r7
 725 002e FFF7FEFF 		bl	_ZN5daisy9SpiHandle16BlockingTransmitEPhjm
 726              	.LVL47:
 112:../../libdaisy/src/dev/oled_ssd130x.h ****     };
 727              		.loc 20 112 30 view .LVU177
 728              	.LBE563:
 729              	.LBE561:
 730              	.LBB564:
 731              	.LBB565:
 111:../../libdaisy/src/dev/oled_ssd130x.h ****         spi_.BlockingTransmit(&cmd, 1);
 732              		.loc 20 111 23 view .LVU178
 733 0032 4146     		mov	r1, r8
 734 0034 3046     		mov	r0, r6
 735 0036 8DF80780 		strb	r8, [sp, #7]
 736              	.LVL48:
 111:../../libdaisy/src/dev/oled_ssd130x.h ****         spi_.BlockingTransmit(&cmd, 1);
 737              		.loc 20 111 23 view .LVU179
 738              	.LBE565:
 739              	.LBI564:
 109:../../libdaisy/src/dev/oled_ssd130x.h ****     {
 740              		.loc 20 109 10 is_stmt 1 view .LVU180
 741              	.LBB566:
 111:../../libdaisy/src/dev/oled_ssd130x.h ****         spi_.BlockingTransmit(&cmd, 1);
 742              		.loc 20 111 9 view .LVU181
 111:../../libdaisy/src/dev/oled_ssd130x.h ****         spi_.BlockingTransmit(&cmd, 1);
 743              		.loc 20 111 23 is_stmt 0 view .LVU182
 744 003a FFF7FEFF 		bl	dsy_gpio_write
 745              	.LVL49:
 112:../../libdaisy/src/dev/oled_ssd130x.h ****     };
 746              		.loc 20 112 9 is_stmt 1 view .LVU183
 112:../../libdaisy/src/dev/oled_ssd130x.h ****     };
 747              		.loc 20 112 30 is_stmt 0 view .LVU184
 748 003e 0122     		movs	r2, #1
 749 0040 6423     		movs	r3, #100
 750 0042 0DF10701 		add	r1, sp, #7
 751 0046 3846     		mov	r0, r7
 752 0048 EDB2     		uxtb	r5, r5
 753 004a FFF7FEFF 		bl	_ZN5daisy9SpiHandle16BlockingTransmitEPhjm
 754              	.LVL50:
 112:../../libdaisy/src/dev/oled_ssd130x.h ****     };
 755              		.loc 20 112 30 view .LVU185
 756 004e 1023     		movs	r3, #16
 757              	.LBE566:
 758              	.LBE564:
 759              	.LBB567:
 760              	.LBB568:
 111:../../libdaisy/src/dev/oled_ssd130x.h ****         spi_.BlockingTransmit(&cmd, 1);
 761              		.loc 20 111 23 view .LVU186
 762 0050 4146     		mov	r1, r8
 763 0052 3046     		mov	r0, r6
ARM GAS  /tmp/ccpjMo0x.s 			page 42


 764 0054 8DF80730 		strb	r3, [sp, #7]
 765              	.LVL51:
 111:../../libdaisy/src/dev/oled_ssd130x.h ****         spi_.BlockingTransmit(&cmd, 1);
 766              		.loc 20 111 23 view .LVU187
 767              	.LBE568:
 768              	.LBI567:
 109:../../libdaisy/src/dev/oled_ssd130x.h ****     {
 769              		.loc 20 109 10 is_stmt 1 view .LVU188
 770              	.LBB569:
 111:../../libdaisy/src/dev/oled_ssd130x.h ****         spi_.BlockingTransmit(&cmd, 1);
 771              		.loc 20 111 9 view .LVU189
 111:../../libdaisy/src/dev/oled_ssd130x.h ****         spi_.BlockingTransmit(&cmd, 1);
 772              		.loc 20 111 23 is_stmt 0 view .LVU190
 773 0058 FFF7FEFF 		bl	dsy_gpio_write
 774              	.LVL52:
 112:../../libdaisy/src/dev/oled_ssd130x.h ****     };
 775              		.loc 20 112 9 is_stmt 1 view .LVU191
 112:../../libdaisy/src/dev/oled_ssd130x.h ****     };
 776              		.loc 20 112 30 is_stmt 0 view .LVU192
 777 005c 6423     		movs	r3, #100
 778 005e 0122     		movs	r2, #1
 779 0060 0DF10701 		add	r1, sp, #7
 780 0064 3846     		mov	r0, r7
 781 0066 FFF7FEFF 		bl	_ZN5daisy9SpiHandle16BlockingTransmitEPhjm
 782              	.LVL53:
 112:../../libdaisy/src/dev/oled_ssd130x.h ****     };
 783              		.loc 20 112 30 view .LVU193
 784              	.LBE569:
 785              	.LBE567:
 786              	.LBB570:
 787              	.LBI570:
 115:../../libdaisy/src/dev/oled_ssd130x.h ****     {
 788              		.loc 20 115 10 is_stmt 1 view .LVU194
 789              	.LBB571:
 117:../../libdaisy/src/dev/oled_ssd130x.h ****         spi_.BlockingTransmit(buff, size);
 790              		.loc 20 117 9 view .LVU195
 117:../../libdaisy/src/dev/oled_ssd130x.h ****         spi_.BlockingTransmit(buff, size);
 791              		.loc 20 117 23 is_stmt 0 view .LVU196
 792 006a 0121     		movs	r1, #1
 793 006c 3046     		mov	r0, r6
 794 006e FFF7FEFF 		bl	dsy_gpio_write
 795              	.LVL54:
 118:../../libdaisy/src/dev/oled_ssd130x.h ****     };
 796              		.loc 20 118 9 is_stmt 1 view .LVU197
 118:../../libdaisy/src/dev/oled_ssd130x.h ****     };
 797              		.loc 20 118 30 is_stmt 0 view .LVU198
 798 0072 8022     		movs	r2, #128
 799 0074 2146     		mov	r1, r4
 800 0076 6423     		movs	r3, #100
 801 0078 3846     		mov	r0, r7
 802 007a 1444     		add	r4, r4, r2
 803              	.LVL55:
 118:../../libdaisy/src/dev/oled_ssd130x.h ****     };
 804              		.loc 20 118 30 view .LVU199
 805 007c FFF7FEFF 		bl	_ZN5daisy9SpiHandle16BlockingTransmitEPhjm
 806              	.LVL56:
 118:../../libdaisy/src/dev/oled_ssd130x.h ****     };
ARM GAS  /tmp/ccpjMo0x.s 			page 43


 807              		.loc 20 118 30 view .LVU200
 808              	.LBE571:
 809              	.LBE570:
 810              		.loc 20 270 9 is_stmt 1 view .LVU201
 811              		.loc 20 270 22 view .LVU202
 812 0080 B82D     		cmp	r5, #184
 813 0082 C7D1     		bne	.L34
 814              	.LBE572:
 815              	.LBE573:
 816              		.loc 5 50 48 is_stmt 0 view .LVU203
 817 0084 02B0     		add	sp, sp, #8
 818              		.cfi_def_cfa_offset 24
 819              		@ sp needed
 820 0086 BDE8F081 		pop	{r4, r5, r6, r7, r8, pc}
 821              		.loc 5 50 48 view .LVU204
 822              		.cfi_endproc
 823              	.LFE4841:
 825 008a 00BF     		.section	.text._ZN5daisy16LedDriverPca9685ILi2ELb1EE14TxCpltCallbackEPvNS_9I2CHandle6ResultE,"axG"
 826              		.align	1
 827              		.p2align 2,,3
 828              		.weak	_ZN5daisy16LedDriverPca9685ILi2ELb1EE14TxCpltCallbackEPvNS_9I2CHandle6ResultE
 829              		.syntax unified
 830              		.thumb
 831              		.thumb_func
 832              		.fpu fpv5-d16
 834              	_ZN5daisy16LedDriverPca9685ILi2ELb1EE14TxCpltCallbackEPvNS_9I2CHandle6ResultE:
 835              	.LVL57:
 836              	.LFB4729:
 837              		.file 24 "../../libdaisy/src/dev/leddriver.h"
   1:../../libdaisy/src/dev/leddriver.h **** #pragma once
   2:../../libdaisy/src/dev/leddriver.h **** #ifndef SA_LED_DRIVER_H
   3:../../libdaisy/src/dev/leddriver.h **** #define SA_LED_DRIVER_H /**< & */
   4:../../libdaisy/src/dev/leddriver.h **** 
   5:../../libdaisy/src/dev/leddriver.h **** #ifdef __cplusplus
   6:../../libdaisy/src/dev/leddriver.h **** 
   7:../../libdaisy/src/dev/leddriver.h **** #include <stdint.h>
   8:../../libdaisy/src/dev/leddriver.h **** #include "per/i2c.h"
   9:../../libdaisy/src/dev/leddriver.h **** #include "per/gpio.h"
  10:../../libdaisy/src/dev/leddriver.h **** 
  11:../../libdaisy/src/dev/leddriver.h **** namespace daisy
  12:../../libdaisy/src/dev/leddriver.h **** {
  13:../../libdaisy/src/dev/leddriver.h **** /** LED driver for one or multiple PCA9685 12bit PWM chips connected to
  14:../../libdaisy/src/dev/leddriver.h ****  * a single I2C peripheral.
  15:../../libdaisy/src/dev/leddriver.h ****  * It includes gamma correction from 8bit brightness values but it 
  16:../../libdaisy/src/dev/leddriver.h ****  * can also be supplied with raw 12bit values.
  17:../../libdaisy/src/dev/leddriver.h ****  * This driver uses two buffers - one for drawing, one for transmitting.
  18:../../libdaisy/src/dev/leddriver.h ****  * Multiple LedDriverPca9685 instances can be used at the same time.
  19:../../libdaisy/src/dev/leddriver.h ****  * \param numDrivers    The number of PCA9685 driver attached to the I2C
  20:../../libdaisy/src/dev/leddriver.h ****  *                      peripheral.
  21:../../libdaisy/src/dev/leddriver.h ****  * \param persistentBufferContents If set to true, the current draw buffer 
  22:../../libdaisy/src/dev/leddriver.h ****  *                      contents will be copied to the next draw buffer 
  23:../../libdaisy/src/dev/leddriver.h ****  *                      during SwapBuffersAndTransmit(). Use this, if you plan
  24:../../libdaisy/src/dev/leddriver.h ****  *                      to write single leds at a time. 
  25:../../libdaisy/src/dev/leddriver.h ****  *                      If you will alway update all leds before calling 
  26:../../libdaisy/src/dev/leddriver.h ****  *                      SwapBuffersAndTransmit(), you can set this to false
  27:../../libdaisy/src/dev/leddriver.h ****  *                      and safe some cycles.
  28:../../libdaisy/src/dev/leddriver.h ****  */
ARM GAS  /tmp/ccpjMo0x.s 			page 44


  29:../../libdaisy/src/dev/leddriver.h **** template <int numDrivers, bool persistentBufferContents = true>
  30:../../libdaisy/src/dev/leddriver.h **** class LedDriverPca9685
  31:../../libdaisy/src/dev/leddriver.h **** {
  32:../../libdaisy/src/dev/leddriver.h ****   public:
  33:../../libdaisy/src/dev/leddriver.h ****     /** Buffer Type for a single PCA9685 driver chip. */
  34:../../libdaisy/src/dev/leddriver.h ****     struct __attribute__((packed)) PCA9685TransmitBuffer
  35:../../libdaisy/src/dev/leddriver.h ****     {
  36:../../libdaisy/src/dev/leddriver.h ****         /** register address */
  37:../../libdaisy/src/dev/leddriver.h ****         uint8_t registerAddr = PCA9685_LED0;
  38:../../libdaisy/src/dev/leddriver.h ****         struct __attribute__((packed))
  39:../../libdaisy/src/dev/leddriver.h ****         {
  40:../../libdaisy/src/dev/leddriver.h ****             /** cycle at which to switch on the led */
  41:../../libdaisy/src/dev/leddriver.h ****             uint16_t on;
  42:../../libdaisy/src/dev/leddriver.h ****             /** cycle at which to switch off the led */
  43:../../libdaisy/src/dev/leddriver.h ****             uint16_t off;
  44:../../libdaisy/src/dev/leddriver.h ****         } leds[16];
  45:../../libdaisy/src/dev/leddriver.h ****         /** full size in bytes */
  46:../../libdaisy/src/dev/leddriver.h ****         static constexpr uint16_t size = 16 * 4 + 1;
  47:../../libdaisy/src/dev/leddriver.h ****     };
  48:../../libdaisy/src/dev/leddriver.h ****     /** Buffer type for the entire DMA buffer. */
  49:../../libdaisy/src/dev/leddriver.h ****     using DmaBuffer = PCA9685TransmitBuffer[numDrivers];
  50:../../libdaisy/src/dev/leddriver.h **** 
  51:../../libdaisy/src/dev/leddriver.h ****     /** Initialises the driver. 
  52:../../libdaisy/src/dev/leddriver.h ****      * \param i2c           The I2C peripheral to use.
  53:../../libdaisy/src/dev/leddriver.h ****      * \param addresses     An array of addresses for each of the driver chips.
  54:../../libdaisy/src/dev/leddriver.h ****      * \param dma_buffer_a  The first buffer for the DMA. This must be placed in 
  55:../../libdaisy/src/dev/leddriver.h ****      *                      D2 memory by adding the DMA_BUFFER_MEM_SECTION attribute
  56:../../libdaisy/src/dev/leddriver.h ****      *                      like this: `LedDriverPca9685<2>::DmaBuffer DMA_BUFFER_MEM_SECTION buffe
  57:../../libdaisy/src/dev/leddriver.h ****      * \param dma_buffer_b  The second buffer for the DMA. This must be placed in 
  58:../../libdaisy/src/dev/leddriver.h ****      *                      D2 memory by adding the DMA_BUFFER_MEM_SECTION attribute
  59:../../libdaisy/src/dev/leddriver.h ****      *                      like this: `LedDriverPca9685<2>::DmaBuffer DMA_BUFFER_MEM_SECTION buffe
  60:../../libdaisy/src/dev/leddriver.h ****      * \param oe_pin        If the output enable pin is used, supply its configuration here.
  61:../../libdaisy/src/dev/leddriver.h ****      *                      It will automatically be pulled low by the driver.
  62:../../libdaisy/src/dev/leddriver.h ****     */
  63:../../libdaisy/src/dev/leddriver.h ****     void Init(I2CHandle i2c,
  64:../../libdaisy/src/dev/leddriver.h ****               const uint8_t (&addresses)[numDrivers],
  65:../../libdaisy/src/dev/leddriver.h ****               DmaBuffer    dma_buffer_a,
  66:../../libdaisy/src/dev/leddriver.h ****               DmaBuffer    dma_buffer_b,
  67:../../libdaisy/src/dev/leddriver.h ****               dsy_gpio_pin oe_pin = {DSY_GPIOX, 0})
  68:../../libdaisy/src/dev/leddriver.h ****     {
  69:../../libdaisy/src/dev/leddriver.h ****         i2c_             = i2c;
  70:../../libdaisy/src/dev/leddriver.h ****         draw_buffer_     = dma_buffer_a;
  71:../../libdaisy/src/dev/leddriver.h ****         transmit_buffer_ = dma_buffer_b;
  72:../../libdaisy/src/dev/leddriver.h ****         oe_pin_          = oe_pin;
  73:../../libdaisy/src/dev/leddriver.h ****         for(int d = 0; d < numDrivers; d++)
  74:../../libdaisy/src/dev/leddriver.h ****             addresses_[d] = addresses[d];
  75:../../libdaisy/src/dev/leddriver.h ****         current_driver_idx_ = -1;
  76:../../libdaisy/src/dev/leddriver.h **** 
  77:../../libdaisy/src/dev/leddriver.h ****         InitializeBuffers();
  78:../../libdaisy/src/dev/leddriver.h ****         InitializeDrivers();
  79:../../libdaisy/src/dev/leddriver.h ****     }
  80:../../libdaisy/src/dev/leddriver.h **** 
  81:../../libdaisy/src/dev/leddriver.h ****     /** Returns the number of leds available from this driver. */
  82:../../libdaisy/src/dev/leddriver.h ****     constexpr int GetNumLeds() const { return numDrivers * 16; }
  83:../../libdaisy/src/dev/leddriver.h **** 
  84:../../libdaisy/src/dev/leddriver.h ****     /** Sets all leds to a gamma corrected brightness between 0.0f and 1.0f. */
  85:../../libdaisy/src/dev/leddriver.h ****     void SetAllTo(float brightness)
ARM GAS  /tmp/ccpjMo0x.s 			page 45


  86:../../libdaisy/src/dev/leddriver.h ****     {
  87:../../libdaisy/src/dev/leddriver.h ****         const uint8_t intBrightness
  88:../../libdaisy/src/dev/leddriver.h ****             = (uint8_t)(clamp(brightness * 255.0f, 0.0f, 255.0f));
  89:../../libdaisy/src/dev/leddriver.h ****         SetAllTo(intBrightness);
  90:../../libdaisy/src/dev/leddriver.h ****     }
  91:../../libdaisy/src/dev/leddriver.h **** 
  92:../../libdaisy/src/dev/leddriver.h ****     /** Sets all leds to a gamma corrected brightness between 0 and 255. */
  93:../../libdaisy/src/dev/leddriver.h ****     void SetAllTo(uint8_t brightness)
  94:../../libdaisy/src/dev/leddriver.h ****     {
  95:../../libdaisy/src/dev/leddriver.h ****         const uint16_t cycles = gamma_table_[brightness];
  96:../../libdaisy/src/dev/leddriver.h ****         SetAllToRaw(cycles);
  97:../../libdaisy/src/dev/leddriver.h ****     }
  98:../../libdaisy/src/dev/leddriver.h **** 
  99:../../libdaisy/src/dev/leddriver.h ****     /** Sets all leds to a raw 12bit brightness between 0 and 4095. */
 100:../../libdaisy/src/dev/leddriver.h ****     void SetAllToRaw(uint16_t rawBrightness)
 101:../../libdaisy/src/dev/leddriver.h ****     {
 102:../../libdaisy/src/dev/leddriver.h ****         for(int led = 0; led < GetNumLeds(); led++)
 103:../../libdaisy/src/dev/leddriver.h ****             SetLedRaw(led, rawBrightness);
 104:../../libdaisy/src/dev/leddriver.h ****     }
 105:../../libdaisy/src/dev/leddriver.h **** 
 106:../../libdaisy/src/dev/leddriver.h ****     /** Sets a single led to a gamma corrected brightness between 0.0f and 1.0f. */
 107:../../libdaisy/src/dev/leddriver.h ****     void SetLed(int ledIndex, float brightness)
 108:../../libdaisy/src/dev/leddriver.h ****     {
 109:../../libdaisy/src/dev/leddriver.h ****         const uint8_t intBrightness
 110:../../libdaisy/src/dev/leddriver.h ****             = (uint8_t)(clamp(brightness * 255.0f, 0.0f, 255.0f));
 111:../../libdaisy/src/dev/leddriver.h ****         SetLed(ledIndex, intBrightness);
 112:../../libdaisy/src/dev/leddriver.h ****     }
 113:../../libdaisy/src/dev/leddriver.h **** 
 114:../../libdaisy/src/dev/leddriver.h ****     /** Sets a single led to a gamma corrected brightness between 0 and 255. */
 115:../../libdaisy/src/dev/leddriver.h ****     void SetLed(int ledIndex, uint8_t brightness)
 116:../../libdaisy/src/dev/leddriver.h ****     {
 117:../../libdaisy/src/dev/leddriver.h ****         const uint16_t cycles = gamma_table_[brightness];
 118:../../libdaisy/src/dev/leddriver.h ****         SetLedRaw(ledIndex, cycles);
 119:../../libdaisy/src/dev/leddriver.h ****     }
 120:../../libdaisy/src/dev/leddriver.h **** 
 121:../../libdaisy/src/dev/leddriver.h ****     /** Sets a single led to a raw 12bit brightness between 0 and 4095. */
 122:../../libdaisy/src/dev/leddriver.h ****     void SetLedRaw(int ledIndex, uint16_t rawBrightness)
 123:../../libdaisy/src/dev/leddriver.h ****     {
 124:../../libdaisy/src/dev/leddriver.h ****         const auto d  = GetDriverForLed(ledIndex);
 125:../../libdaisy/src/dev/leddriver.h ****         const auto ch = GetDriverChannelForLed(ledIndex);
 126:../../libdaisy/src/dev/leddriver.h ****         // mask away the "full on" bit
 127:../../libdaisy/src/dev/leddriver.h ****         const auto on                = draw_buffer_[d].leds[ch].on & (0x0FFF);
 128:../../libdaisy/src/dev/leddriver.h ****         draw_buffer_[d].leds[ch].off = (on + rawBrightness) & (0x0FFF);
 129:../../libdaisy/src/dev/leddriver.h ****         // full on condition
 130:../../libdaisy/src/dev/leddriver.h ****         if(rawBrightness >= 0x0FFF)
 131:../../libdaisy/src/dev/leddriver.h ****             draw_buffer_[d].leds[ch].on = 0x1000 | on; // set "full on" bit
 132:../../libdaisy/src/dev/leddriver.h ****         else
 133:../../libdaisy/src/dev/leddriver.h ****             draw_buffer_[d].leds[ch].on = on; // clear "full on" bit
 134:../../libdaisy/src/dev/leddriver.h ****     }
 135:../../libdaisy/src/dev/leddriver.h **** 
 136:../../libdaisy/src/dev/leddriver.h ****     /** Swaps the current draw buffer and the current transmit buffer and
 137:../../libdaisy/src/dev/leddriver.h ****      *  starts transmitting the values to all chips.
 138:../../libdaisy/src/dev/leddriver.h ****      */
 139:../../libdaisy/src/dev/leddriver.h ****     void SwapBuffersAndTransmit()
 140:../../libdaisy/src/dev/leddriver.h ****     {
 141:../../libdaisy/src/dev/leddriver.h ****         // wait for current transmission to complete
 142:../../libdaisy/src/dev/leddriver.h ****         while(current_driver_idx_ >= 0) {};
ARM GAS  /tmp/ccpjMo0x.s 			page 46


 143:../../libdaisy/src/dev/leddriver.h **** 
 144:../../libdaisy/src/dev/leddriver.h ****         // swap buffers
 145:../../libdaisy/src/dev/leddriver.h ****         auto tmp         = transmit_buffer_;
 146:../../libdaisy/src/dev/leddriver.h ****         transmit_buffer_ = draw_buffer_;
 147:../../libdaisy/src/dev/leddriver.h ****         draw_buffer_     = tmp;
 148:../../libdaisy/src/dev/leddriver.h **** 
 149:../../libdaisy/src/dev/leddriver.h ****         // copy current transmit buffer contents to the new draw buffer
 150:../../libdaisy/src/dev/leddriver.h ****         // to keep the led settings (if required)
 151:../../libdaisy/src/dev/leddriver.h ****         if(persistentBufferContents)
 152:../../libdaisy/src/dev/leddriver.h ****         {
 153:../../libdaisy/src/dev/leddriver.h ****             for(int d = 0; d < numDrivers; d++)
 154:../../libdaisy/src/dev/leddriver.h ****                 for(int ch = 0; ch < 16; ch++)
 155:../../libdaisy/src/dev/leddriver.h ****                     draw_buffer_[d].leds[ch].off
 156:../../libdaisy/src/dev/leddriver.h ****                         = transmit_buffer_[d].leds[ch].off;
 157:../../libdaisy/src/dev/leddriver.h ****         }
 158:../../libdaisy/src/dev/leddriver.h **** 
 159:../../libdaisy/src/dev/leddriver.h ****         // start transmission
 160:../../libdaisy/src/dev/leddriver.h ****         current_driver_idx_ = -1;
 161:../../libdaisy/src/dev/leddriver.h ****         ContinueTransmission();
 162:../../libdaisy/src/dev/leddriver.h ****     }
 163:../../libdaisy/src/dev/leddriver.h **** 
 164:../../libdaisy/src/dev/leddriver.h ****   private:
 165:../../libdaisy/src/dev/leddriver.h ****     void ContinueTransmission()
 166:../../libdaisy/src/dev/leddriver.h ****     {
 167:../../libdaisy/src/dev/leddriver.h ****         current_driver_idx_++;
 168:../../libdaisy/src/dev/leddriver.h ****         if(current_driver_idx_ >= numDrivers)
 169:../../libdaisy/src/dev/leddriver.h ****         {
 170:../../libdaisy/src/dev/leddriver.h ****             current_driver_idx_ = -1;
 171:../../libdaisy/src/dev/leddriver.h ****             return;
 172:../../libdaisy/src/dev/leddriver.h ****         }
 173:../../libdaisy/src/dev/leddriver.h **** 
 174:../../libdaisy/src/dev/leddriver.h ****         const auto    d       = current_driver_idx_;
 175:../../libdaisy/src/dev/leddriver.h ****         const uint8_t address = PCA9685_I2C_BASE_ADDRESS | addresses_[d];
 176:../../libdaisy/src/dev/leddriver.h ****         const auto    status  = i2c_.TransmitDma(address,
 177:../../libdaisy/src/dev/leddriver.h ****                                              (uint8_t*)&transmit_buffer_[d],
 178:../../libdaisy/src/dev/leddriver.h ****                                              PCA9685TransmitBuffer::size,
 179:../../libdaisy/src/dev/leddriver.h ****                                              &TxCpltCallback,
 180:../../libdaisy/src/dev/leddriver.h ****                                              this);
 181:../../libdaisy/src/dev/leddriver.h ****         if(status != I2CHandle::Result::OK)
 182:../../libdaisy/src/dev/leddriver.h ****         {
 183:../../libdaisy/src/dev/leddriver.h ****             // TODO: fix this :-)
 184:../../libdaisy/src/dev/leddriver.h ****             // Reinit I2C (probably a flag to kill, but hey this works fairly well for now.)
 185:../../libdaisy/src/dev/leddriver.h ****             i2c_.Init(i2c_.GetConfig());
 186:../../libdaisy/src/dev/leddriver.h ****         }
 187:../../libdaisy/src/dev/leddriver.h ****     }
 188:../../libdaisy/src/dev/leddriver.h ****     uint16_t GetStartCycleForLed(int ledIndex) const
 189:../../libdaisy/src/dev/leddriver.h ****     {
 190:../../libdaisy/src/dev/leddriver.h ****         return (ledIndex << 2) & 0x0FFF; // shift each led by 4 cycles
 191:../../libdaisy/src/dev/leddriver.h ****     }
 192:../../libdaisy/src/dev/leddriver.h **** 
 193:../../libdaisy/src/dev/leddriver.h ****     uint8_t GetDriverForLed(int ledIndex) const { return ledIndex >> 4; }
 194:../../libdaisy/src/dev/leddriver.h **** 
 195:../../libdaisy/src/dev/leddriver.h ****     uint8_t GetDriverChannelForLed(int ledIndex) const
 196:../../libdaisy/src/dev/leddriver.h ****     {
 197:../../libdaisy/src/dev/leddriver.h ****         return ledIndex & 0x0F;
 198:../../libdaisy/src/dev/leddriver.h ****     }
 199:../../libdaisy/src/dev/leddriver.h **** 
ARM GAS  /tmp/ccpjMo0x.s 			page 47


 200:../../libdaisy/src/dev/leddriver.h ****     void InitializeBuffers()
 201:../../libdaisy/src/dev/leddriver.h ****     {
 202:../../libdaisy/src/dev/leddriver.h ****         for(int led = 0; led < GetNumLeds(); led++)
 203:../../libdaisy/src/dev/leddriver.h ****         {
 204:../../libdaisy/src/dev/leddriver.h ****             const auto d                     = GetDriverForLed(led);
 205:../../libdaisy/src/dev/leddriver.h ****             const auto ch                    = GetDriverChannelForLed(led);
 206:../../libdaisy/src/dev/leddriver.h ****             const auto startCycle            = GetStartCycleForLed(led);
 207:../../libdaisy/src/dev/leddriver.h ****             draw_buffer_[d].registerAddr     = PCA9685_LED0;
 208:../../libdaisy/src/dev/leddriver.h ****             draw_buffer_[d].leds[ch].on      = startCycle;
 209:../../libdaisy/src/dev/leddriver.h ****             draw_buffer_[d].leds[ch].off     = startCycle;
 210:../../libdaisy/src/dev/leddriver.h ****             transmit_buffer_[d].registerAddr = PCA9685_LED0;
 211:../../libdaisy/src/dev/leddriver.h ****             transmit_buffer_[d].leds[ch].on  = startCycle;
 212:../../libdaisy/src/dev/leddriver.h ****             transmit_buffer_[d].leds[ch].off = startCycle;
 213:../../libdaisy/src/dev/leddriver.h ****         }
 214:../../libdaisy/src/dev/leddriver.h ****     }
 215:../../libdaisy/src/dev/leddriver.h **** 
 216:../../libdaisy/src/dev/leddriver.h ****     void InitializeDrivers()
 217:../../libdaisy/src/dev/leddriver.h ****     {
 218:../../libdaisy/src/dev/leddriver.h ****         // init OE pin and pull low to enable outputs
 219:../../libdaisy/src/dev/leddriver.h ****         if(oe_pin_.port != DSY_GPIOX)
 220:../../libdaisy/src/dev/leddriver.h ****         {
 221:../../libdaisy/src/dev/leddriver.h ****             oe_pin_gpio_.pin  = oe_pin_;
 222:../../libdaisy/src/dev/leddriver.h ****             oe_pin_gpio_.mode = DSY_GPIO_MODE_OUTPUT_PP;
 223:../../libdaisy/src/dev/leddriver.h ****             oe_pin_gpio_.pull = DSY_GPIO_NOPULL;
 224:../../libdaisy/src/dev/leddriver.h ****             dsy_gpio_init(&oe_pin_gpio_);
 225:../../libdaisy/src/dev/leddriver.h ****             dsy_gpio_write(&oe_pin_gpio_, 0);
 226:../../libdaisy/src/dev/leddriver.h ****         }
 227:../../libdaisy/src/dev/leddriver.h **** 
 228:../../libdaisy/src/dev/leddriver.h ****         // init the individual drivers
 229:../../libdaisy/src/dev/leddriver.h ****         for(int d = 0; d < numDrivers; d++)
 230:../../libdaisy/src/dev/leddriver.h ****         {
 231:../../libdaisy/src/dev/leddriver.h ****             const uint8_t address = PCA9685_I2C_BASE_ADDRESS | addresses_[d];
 232:../../libdaisy/src/dev/leddriver.h ****             uint8_t       buffer[2];
 233:../../libdaisy/src/dev/leddriver.h ****             buffer[0] = PCA9685_MODE1;
 234:../../libdaisy/src/dev/leddriver.h ****             buffer[1] = 0x00;
 235:../../libdaisy/src/dev/leddriver.h ****             i2c_.TransmitBlocking(address, buffer, 2, 1);
 236:../../libdaisy/src/dev/leddriver.h ****             System::Delay(20);
 237:../../libdaisy/src/dev/leddriver.h ****             buffer[0] = PCA9685_MODE1;
 238:../../libdaisy/src/dev/leddriver.h ****             buffer[1] = 0x00;
 239:../../libdaisy/src/dev/leddriver.h ****             i2c_.TransmitBlocking(address, buffer, 2, 1);
 240:../../libdaisy/src/dev/leddriver.h ****             System::Delay(20);
 241:../../libdaisy/src/dev/leddriver.h ****             buffer[0] = PCA9685_MODE1;
 242:../../libdaisy/src/dev/leddriver.h ****             // auto increment on
 243:../../libdaisy/src/dev/leddriver.h ****             buffer[1] = 0b00100000;
 244:../../libdaisy/src/dev/leddriver.h ****             i2c_.TransmitBlocking(address, buffer, 2, 1);
 245:../../libdaisy/src/dev/leddriver.h ****             System::Delay(20);
 246:../../libdaisy/src/dev/leddriver.h ****             buffer[0] = PCA9685_MODE2;
 247:../../libdaisy/src/dev/leddriver.h ****             // OE-high = high Impedance
 248:../../libdaisy/src/dev/leddriver.h ****             // Push-Pull outputs
 249:../../libdaisy/src/dev/leddriver.h ****             // outputs change on STOP
 250:../../libdaisy/src/dev/leddriver.h ****             // outputs inverted
 251:../../libdaisy/src/dev/leddriver.h ****             buffer[1] = 0b000110110;
 252:../../libdaisy/src/dev/leddriver.h ****             i2c_.TransmitBlocking(address, buffer, 2, 5);
 253:../../libdaisy/src/dev/leddriver.h ****         }
 254:../../libdaisy/src/dev/leddriver.h ****     }
 255:../../libdaisy/src/dev/leddriver.h **** 
 256:../../libdaisy/src/dev/leddriver.h ****     // no std::clamp available in C++14.... remove this when C++17 is available
ARM GAS  /tmp/ccpjMo0x.s 			page 48


 257:../../libdaisy/src/dev/leddriver.h ****     template <typename T>
 258:../../libdaisy/src/dev/leddriver.h ****     T clamp(T in, T low, T high)
 259:../../libdaisy/src/dev/leddriver.h ****     {
 260:../../libdaisy/src/dev/leddriver.h ****         return (in < low) ? low : (high < in) ? high : in;
 261:../../libdaisy/src/dev/leddriver.h ****     }
 262:../../libdaisy/src/dev/leddriver.h **** 
 263:../../libdaisy/src/dev/leddriver.h ****     // an internal function to handle i2c callbacks
 264:../../libdaisy/src/dev/leddriver.h ****     // called when an I2C transmission completes and the next driver must be updated
 265:../../libdaisy/src/dev/leddriver.h ****     static void TxCpltCallback(void* context, I2CHandle::Result result)
 838              		.loc 24 265 17 is_stmt 1 view -0
 839              		.cfi_startproc
 840              		@ args = 0, pretend = 0, frame = 0
 841              		@ frame_needed = 0, uses_anonymous_args = 0
 842              		.loc 24 265 17 is_stmt 0 view .LVU206
 843 0000 70B5     		push	{r4, r5, r6, lr}
 844              		.cfi_def_cfa_offset 16
 845              		.cfi_offset 4, -16
 846              		.cfi_offset 5, -12
 847              		.cfi_offset 6, -8
 848              		.cfi_offset 14, -4
 849              	.LBB578:
 850              	.LBB579:
 167:../../libdaisy/src/dev/leddriver.h ****         if(current_driver_idx_ >= numDrivers)
 851              		.loc 24 167 9 view .LVU207
 852 0002 037D     		ldrb	r3, [r0, #20]	@ zero_extendqisi2
 853              	.LBE579:
 854              	.LBE578:
 855              		.loc 24 265 17 view .LVU208
 856 0004 82B0     		sub	sp, sp, #8
 857              		.cfi_def_cfa_offset 24
 858              		.loc 24 265 17 view .LVU209
 859 0006 0446     		mov	r4, r0
 860              	.LVL58:
 861              	.LBB587:
 862              	.LBI578:
 165:../../libdaisy/src/dev/leddriver.h ****     {
 863              		.loc 24 165 10 is_stmt 1 view .LVU210
 864              	.LBB584:
 167:../../libdaisy/src/dev/leddriver.h ****         if(current_driver_idx_ >= numDrivers)
 865              		.loc 24 167 9 is_stmt 0 view .LVU211
 866 0008 0133     		adds	r3, r3, #1
 867 000a 5BB2     		sxtb	r3, r3
 868 000c 0375     		strb	r3, [r0, #20]
 168:../../libdaisy/src/dev/leddriver.h ****         {
 869              		.loc 24 168 12 view .LVU212
 870 000e 037D     		ldrb	r3, [r0, #20]	@ zero_extendqisi2
 871 0010 5BB2     		sxtb	r3, r3
 168:../../libdaisy/src/dev/leddriver.h ****         {
 872              		.loc 24 168 9 view .LVU213
 873 0012 012B     		cmp	r3, #1
 874 0014 03DD     		ble	.L38
 170:../../libdaisy/src/dev/leddriver.h ****             return;
 875              		.loc 24 170 13 view .LVU214
 876 0016 FF23     		movs	r3, #255
 877 0018 0375     		strb	r3, [r0, #20]
 878              	.LVL59:
 879              	.L37:
ARM GAS  /tmp/ccpjMo0x.s 			page 49


 170:../../libdaisy/src/dev/leddriver.h ****             return;
 880              		.loc 24 170 13 view .LVU215
 881              	.LBE584:
 882              	.LBE587:
 266:../../libdaisy/src/dev/leddriver.h ****     {
 267:../../libdaisy/src/dev/leddriver.h ****         auto drv_ptr = reinterpret_cast<
 268:../../libdaisy/src/dev/leddriver.h ****             LedDriverPca9685<numDrivers, persistentBufferContents>*>(context);
 269:../../libdaisy/src/dev/leddriver.h ****         drv_ptr->ContinueTransmission();
 270:../../libdaisy/src/dev/leddriver.h ****     }
 883              		.loc 24 270 5 view .LVU216
 884 001a 02B0     		add	sp, sp, #8
 885              		.cfi_remember_state
 886              		.cfi_def_cfa_offset 16
 887              		@ sp needed
 888 001c 70BD     		pop	{r4, r5, r6, pc}
 889              	.LVL60:
 890              	.L38:
 891              		.cfi_restore_state
 892              	.LBB588:
 893              	.LBB585:
 894              	.LBB580:
 895              	.LBI580:
 165:../../libdaisy/src/dev/leddriver.h ****     {
 896              		.loc 24 165 10 is_stmt 1 view .LVU217
 897              	.LBB581:
 174:../../libdaisy/src/dev/leddriver.h ****         const uint8_t address = PCA9685_I2C_BASE_ADDRESS | addresses_[d];
 898              		.loc 24 174 23 is_stmt 0 view .LVU218
 899 001e 057D     		ldrb	r5, [r0, #20]	@ zero_extendqisi2
 900              	.LVL61:
 176:../../libdaisy/src/dev/leddriver.h ****                                              (uint8_t*)&transmit_buffer_[d],
 901              		.loc 24 176 23 view .LVU219
 902 0020 4123     		movs	r3, #65
 177:../../libdaisy/src/dev/leddriver.h ****                                              PCA9685TransmitBuffer::size,
 903              		.loc 24 177 73 view .LVU220
 904 0022 8668     		ldr	r6, [r0, #8]
 905 0024 69B2     		sxtb	r1, r5
 906              	.LVL62:
 175:../../libdaisy/src/dev/leddriver.h ****         const auto    status  = i2c_.TransmitDma(address,
 907              		.loc 24 175 70 view .LVU221
 908 0026 40FA85F5 		sxtab	r5, r0, r5
 909              	.LVL63:
 176:../../libdaisy/src/dev/leddriver.h ****                                              (uint8_t*)&transmit_buffer_[d],
 910              		.loc 24 176 23 view .LVU222
 911 002a 0190     		str	r0, [sp, #4]
 912              	.LVL64:
 177:../../libdaisy/src/dev/leddriver.h ****                                              PCA9685TransmitBuffer::size,
 913              		.loc 24 177 73 view .LVU223
 914 002c 01EB8112 		add	r2, r1, r1, lsl #6
 175:../../libdaisy/src/dev/leddriver.h ****         const auto    status  = i2c_.TransmitDma(address,
 915              		.loc 24 175 23 view .LVU224
 916 0030 297B     		ldrb	r1, [r5, #12]	@ zero_extendqisi2
 917              	.LVL65:
 176:../../libdaisy/src/dev/leddriver.h ****                                              (uint8_t*)&transmit_buffer_[d],
 918              		.loc 24 176 23 view .LVU225
 919 0032 094D     		ldr	r5, .L44
 920 0034 41F04001 		orr	r1, r1, #64
 921 0038 3244     		add	r2, r2, r6
ARM GAS  /tmp/ccpjMo0x.s 			page 50


 922 003a 0095     		str	r5, [sp]
 923 003c FFF7FEFF 		bl	_ZN5daisy9I2CHandle11TransmitDmaEtPhtPFvPvNS0_6ResultEES2_
 924              	.LVL66:
 181:../../libdaisy/src/dev/leddriver.h ****         {
 925              		.loc 24 181 9 view .LVU226
 926 0040 0028     		cmp	r0, #0
 927 0042 EAD0     		beq	.L37
 185:../../libdaisy/src/dev/leddriver.h ****         }
 928              		.loc 24 185 22 view .LVU227
 929 0044 2046     		mov	r0, r4
 930              	.LVL67:
 185:../../libdaisy/src/dev/leddriver.h ****         }
 931              		.loc 24 185 22 view .LVU228
 932 0046 FFF7FEFF 		bl	_ZNK5daisy9I2CHandle9GetConfigEv
 933              	.LVL68:
 934 004a 0146     		mov	r1, r0
 935 004c 2046     		mov	r0, r4
 936              	.LBE581:
 937              	.LBE580:
 938              	.LBE585:
 939              	.LBE588:
 940              		.loc 24 270 5 view .LVU229
 941 004e 02B0     		add	sp, sp, #8
 942              		.cfi_def_cfa_offset 16
 943              		@ sp needed
 944 0050 BDE87040 		pop	{r4, r5, r6, lr}
 945              		.cfi_restore 14
 946              		.cfi_restore 6
 947              		.cfi_restore 5
 948              		.cfi_restore 4
 949              		.cfi_def_cfa_offset 0
 950              	.LVL69:
 951              	.LBB589:
 952              	.LBB586:
 953              	.LBB583:
 954              	.LBB582:
 185:../../libdaisy/src/dev/leddriver.h ****         }
 955              		.loc 24 185 22 view .LVU230
 956 0054 FFF7FEBF 		b	_ZN5daisy9I2CHandle4InitERKNS0_6ConfigE
 957              	.LVL70:
 958              	.L45:
 185:../../libdaisy/src/dev/leddriver.h ****         }
 959              		.loc 24 185 22 view .LVU231
 960              		.align	2
 961              	.L44:
 962 0058 00000000 		.word	_ZN5daisy16LedDriverPca9685ILi2ELb1EE14TxCpltCallbackEPvNS_9I2CHandle6ResultE
 963              	.LBE582:
 964              	.LBE583:
 965              	.LBE586:
 966              	.LBE589:
 967              		.cfi_endproc
 968              	.LFE4729:
 970              		.section	.text._ZN5daisy25OneBitGraphicsDisplayImplINS_11OledDisplayINS_13SSD130xDriverILj128ELj64
 971              		.align	1
 972              		.p2align 2,,3
 973              		.weak	_ZN5daisy25OneBitGraphicsDisplayImplINS_11OledDisplayINS_13SSD130xDriverILj128ELj64ENS_24SSD
 974              		.syntax unified
ARM GAS  /tmp/ccpjMo0x.s 			page 51


 975              		.thumb
 976              		.thumb_func
 977              		.fpu fpv5-d16
 979              	_ZN5daisy25OneBitGraphicsDisplayImplINS_11OledDisplayINS_13SSD130xDriverILj128ELj64ENS_24SSD130x4Wi
 980              	.LVL71:
 981              	.LFB4839:
 220:../../libdaisy/src/hid/disp/display.h **** 
 221:../../libdaisy/src/hid/disp/display.h ****     void DrawLine(uint_fast8_t x1,
 222:../../libdaisy/src/hid/disp/display.h ****                   uint_fast8_t y1,
 223:../../libdaisy/src/hid/disp/display.h ****                   uint_fast8_t x2,
 224:../../libdaisy/src/hid/disp/display.h ****                   uint_fast8_t y2,
 225:../../libdaisy/src/hid/disp/display.h ****                   bool         on) override
 226:../../libdaisy/src/hid/disp/display.h ****     {
 227:../../libdaisy/src/hid/disp/display.h ****         int_fast16_t deltaX = abs((int_fast16_t)x2 - (int_fast16_t)x1);
 228:../../libdaisy/src/hid/disp/display.h ****         int_fast16_t deltaY = abs((int_fast16_t)y2 - (int_fast16_t)y1);
 229:../../libdaisy/src/hid/disp/display.h ****         int_fast16_t signX  = ((x1 < x2) ? 1 : -1);
 230:../../libdaisy/src/hid/disp/display.h ****         int_fast16_t signY  = ((y1 < y2) ? 1 : -1);
 231:../../libdaisy/src/hid/disp/display.h ****         int_fast16_t error  = deltaX - deltaY;
 232:../../libdaisy/src/hid/disp/display.h ****         int_fast16_t error2;
 233:../../libdaisy/src/hid/disp/display.h **** 
 234:../../libdaisy/src/hid/disp/display.h ****         // If we write "ChildType::DrawPixel(x2, y2, on);", we end up with
 235:../../libdaisy/src/hid/disp/display.h ****         // all sorts of weird compiler errors when the Child class is a template
 236:../../libdaisy/src/hid/disp/display.h ****         // class. The only way around this is to use this very verbose syntax:
 237:../../libdaisy/src/hid/disp/display.h ****         ((ChildType*)(this))->ChildType::DrawPixel(x2, y2, on);
 238:../../libdaisy/src/hid/disp/display.h **** 
 239:../../libdaisy/src/hid/disp/display.h ****         while((x1 != x2) || (y1 != y2))
 240:../../libdaisy/src/hid/disp/display.h ****         {
 241:../../libdaisy/src/hid/disp/display.h ****             ((ChildType*)(this))->ChildType::DrawPixel(x1, y1, on);
 242:../../libdaisy/src/hid/disp/display.h ****             error2 = error * 2;
 243:../../libdaisy/src/hid/disp/display.h ****             if(error2 > -deltaY)
 244:../../libdaisy/src/hid/disp/display.h ****             {
 245:../../libdaisy/src/hid/disp/display.h ****                 error -= deltaY;
 246:../../libdaisy/src/hid/disp/display.h ****                 x1 += signX;
 247:../../libdaisy/src/hid/disp/display.h ****             }
 248:../../libdaisy/src/hid/disp/display.h **** 
 249:../../libdaisy/src/hid/disp/display.h ****             if(error2 < deltaX)
 250:../../libdaisy/src/hid/disp/display.h ****             {
 251:../../libdaisy/src/hid/disp/display.h ****                 error += deltaX;
 252:../../libdaisy/src/hid/disp/display.h ****                 y1 += signY;
 253:../../libdaisy/src/hid/disp/display.h ****             }
 254:../../libdaisy/src/hid/disp/display.h ****         }
 255:../../libdaisy/src/hid/disp/display.h ****     }
 256:../../libdaisy/src/hid/disp/display.h **** 
 257:../../libdaisy/src/hid/disp/display.h ****     void DrawRect(uint_fast8_t x1,
 258:../../libdaisy/src/hid/disp/display.h ****                   uint_fast8_t y1,
 259:../../libdaisy/src/hid/disp/display.h ****                   uint_fast8_t x2,
 260:../../libdaisy/src/hid/disp/display.h ****                   uint_fast8_t y2,
 261:../../libdaisy/src/hid/disp/display.h ****                   bool         on,
 262:../../libdaisy/src/hid/disp/display.h ****                   bool         fill = false) override
 263:../../libdaisy/src/hid/disp/display.h ****     {
 264:../../libdaisy/src/hid/disp/display.h ****         if(fill)
 265:../../libdaisy/src/hid/disp/display.h ****         {
 266:../../libdaisy/src/hid/disp/display.h ****             for(uint_fast8_t x = x1; x <= x2; x++)
 267:../../libdaisy/src/hid/disp/display.h ****             {
 268:../../libdaisy/src/hid/disp/display.h ****                 for(uint_fast8_t y = y1; y <= y2; y++)
 269:../../libdaisy/src/hid/disp/display.h ****                 {
 270:../../libdaisy/src/hid/disp/display.h ****                     ((ChildType*)(this))->ChildType::DrawPixel(x, y, on);
ARM GAS  /tmp/ccpjMo0x.s 			page 52


 271:../../libdaisy/src/hid/disp/display.h ****                 }
 272:../../libdaisy/src/hid/disp/display.h ****             }
 273:../../libdaisy/src/hid/disp/display.h ****         }
 274:../../libdaisy/src/hid/disp/display.h ****         else
 275:../../libdaisy/src/hid/disp/display.h ****         {
 276:../../libdaisy/src/hid/disp/display.h ****             ((ChildType*)(this))->ChildType::DrawLine(x1, y1, x2, y1, on);
 277:../../libdaisy/src/hid/disp/display.h ****             ((ChildType*)(this))->ChildType::DrawLine(x2, y1, x2, y2, on);
 278:../../libdaisy/src/hid/disp/display.h ****             ((ChildType*)(this))->ChildType::DrawLine(x2, y2, x1, y2, on);
 279:../../libdaisy/src/hid/disp/display.h ****             ((ChildType*)(this))->ChildType::DrawLine(x1, y2, x1, y1, on);
 280:../../libdaisy/src/hid/disp/display.h ****         }
 281:../../libdaisy/src/hid/disp/display.h ****     }
 282:../../libdaisy/src/hid/disp/display.h **** 
 283:../../libdaisy/src/hid/disp/display.h ****     void DrawArc(uint_fast8_t x,
 284:../../libdaisy/src/hid/disp/display.h ****                  uint_fast8_t y,
 285:../../libdaisy/src/hid/disp/display.h ****                  uint_fast8_t radius,
 286:../../libdaisy/src/hid/disp/display.h ****                  int_fast16_t start_angle,
 287:../../libdaisy/src/hid/disp/display.h ****                  int_fast16_t sweep,
 288:../../libdaisy/src/hid/disp/display.h ****                  bool         on) override
 289:../../libdaisy/src/hid/disp/display.h ****     {
 290:../../libdaisy/src/hid/disp/display.h ****         // Values to calculate the circle
 291:../../libdaisy/src/hid/disp/display.h ****         int_fast16_t t_x, t_y, err, e2;
 292:../../libdaisy/src/hid/disp/display.h **** 
 293:../../libdaisy/src/hid/disp/display.h ****         // Temporary values to speed up comparisons
 294:../../libdaisy/src/hid/disp/display.h ****         float t_sxy, t_syx, t_sxny, t_synx;
 295:../../libdaisy/src/hid/disp/display.h ****         float t_exy, t_eyx, t_exny, t_eynx;
 296:../../libdaisy/src/hid/disp/display.h **** 
 297:../../libdaisy/src/hid/disp/display.h ****         float start_angle_rad, end_angle_rad;
 298:../../libdaisy/src/hid/disp/display.h ****         float start_x, start_y, end_x, end_y;
 299:../../libdaisy/src/hid/disp/display.h **** 
 300:../../libdaisy/src/hid/disp/display.h ****         bool d1, d2, d3, d4;
 301:../../libdaisy/src/hid/disp/display.h **** 
 302:../../libdaisy/src/hid/disp/display.h ****         d1 = d2 = d3 = d4 = true;
 303:../../libdaisy/src/hid/disp/display.h **** 
 304:../../libdaisy/src/hid/disp/display.h ****         bool circle = false;
 305:../../libdaisy/src/hid/disp/display.h **** 
 306:../../libdaisy/src/hid/disp/display.h ****         if(sweep < 0)
 307:../../libdaisy/src/hid/disp/display.h ****         {
 308:../../libdaisy/src/hid/disp/display.h ****             start_angle += sweep;
 309:../../libdaisy/src/hid/disp/display.h ****             sweep = -sweep;
 310:../../libdaisy/src/hid/disp/display.h ****         }
 311:../../libdaisy/src/hid/disp/display.h **** 
 312:../../libdaisy/src/hid/disp/display.h ****         start_angle_rad = deg2rad(start_angle);
 313:../../libdaisy/src/hid/disp/display.h ****         end_angle_rad   = deg2rad(start_angle + sweep);
 314:../../libdaisy/src/hid/disp/display.h **** 
 315:../../libdaisy/src/hid/disp/display.h ****         start_x = cos(start_angle_rad) * radius;
 316:../../libdaisy/src/hid/disp/display.h ****         start_y = -sin(start_angle_rad) * radius;
 317:../../libdaisy/src/hid/disp/display.h ****         end_x   = cos(end_angle_rad) * radius;
 318:../../libdaisy/src/hid/disp/display.h ****         end_y   = -sin(end_angle_rad) * radius;
 319:../../libdaisy/src/hid/disp/display.h **** 
 320:../../libdaisy/src/hid/disp/display.h ****         // Check if start and endpoint are very near
 321:../../libdaisy/src/hid/disp/display.h ****         if((end_x - start_x) * (end_x - start_x)
 322:../../libdaisy/src/hid/disp/display.h ****                + (end_y - start_y) * (end_y - start_y)
 323:../../libdaisy/src/hid/disp/display.h ****            < 2.0f)
 324:../../libdaisy/src/hid/disp/display.h ****         {
 325:../../libdaisy/src/hid/disp/display.h ****             if(sweep > 180)
 326:../../libdaisy/src/hid/disp/display.h ****                 circle = true;
 327:../../libdaisy/src/hid/disp/display.h ****             else
ARM GAS  /tmp/ccpjMo0x.s 			page 53


 328:../../libdaisy/src/hid/disp/display.h ****                 // Nothing to draw
 329:../../libdaisy/src/hid/disp/display.h ****                 return;
 330:../../libdaisy/src/hid/disp/display.h ****         }
 331:../../libdaisy/src/hid/disp/display.h **** 
 332:../../libdaisy/src/hid/disp/display.h ****         t_x = -radius;
 333:../../libdaisy/src/hid/disp/display.h ****         t_y = 0;
 334:../../libdaisy/src/hid/disp/display.h ****         err = 2 - 2 * radius;
 335:../../libdaisy/src/hid/disp/display.h **** 
 336:../../libdaisy/src/hid/disp/display.h ****         do
 337:../../libdaisy/src/hid/disp/display.h ****         {
 338:../../libdaisy/src/hid/disp/display.h ****             if(!circle)
 339:../../libdaisy/src/hid/disp/display.h ****             {
 340:../../libdaisy/src/hid/disp/display.h ****                 t_sxy  = start_x * t_y;
 341:../../libdaisy/src/hid/disp/display.h ****                 t_syx  = start_y * t_x;
 342:../../libdaisy/src/hid/disp/display.h ****                 t_sxny = start_x * -t_y;
 343:../../libdaisy/src/hid/disp/display.h ****                 t_synx = start_y * -t_x;
 344:../../libdaisy/src/hid/disp/display.h ****                 t_exy  = end_x * t_y;
 345:../../libdaisy/src/hid/disp/display.h ****                 t_eyx  = end_y * t_x;
 346:../../libdaisy/src/hid/disp/display.h ****                 t_exny = end_x * -t_y;
 347:../../libdaisy/src/hid/disp/display.h ****                 t_eynx = end_y * -t_x;
 348:../../libdaisy/src/hid/disp/display.h **** 
 349:../../libdaisy/src/hid/disp/display.h ****                 if(sweep > 180)
 350:../../libdaisy/src/hid/disp/display.h ****                 {
 351:../../libdaisy/src/hid/disp/display.h ****                     d1 = (t_sxy - t_synx < 0 || t_exy - t_eynx > 0);
 352:../../libdaisy/src/hid/disp/display.h ****                     d2 = (t_sxy - t_syx < 0 || t_exy - t_eyx > 0);
 353:../../libdaisy/src/hid/disp/display.h ****                     d3 = (t_sxny - t_syx < 0 || t_exny - t_eyx > 0);
 354:../../libdaisy/src/hid/disp/display.h ****                     d4 = (t_sxny - t_synx < 0 || t_exny - t_eynx > 0);
 355:../../libdaisy/src/hid/disp/display.h ****                 }
 356:../../libdaisy/src/hid/disp/display.h ****                 else
 357:../../libdaisy/src/hid/disp/display.h ****                 {
 358:../../libdaisy/src/hid/disp/display.h ****                     d1 = (t_sxy - t_synx < 0 && t_exy - t_eynx > 0);
 359:../../libdaisy/src/hid/disp/display.h ****                     d2 = (t_sxy - t_syx < 0 && t_exy - t_eyx > 0);
 360:../../libdaisy/src/hid/disp/display.h ****                     d3 = (t_sxny - t_syx < 0 && t_exny - t_eyx > 0);
 361:../../libdaisy/src/hid/disp/display.h ****                     d4 = (t_sxny - t_synx < 0 && t_exny - t_eynx > 0);
 362:../../libdaisy/src/hid/disp/display.h ****                 }
 363:../../libdaisy/src/hid/disp/display.h ****             }
 364:../../libdaisy/src/hid/disp/display.h **** 
 365:../../libdaisy/src/hid/disp/display.h ****             if(d1)
 366:../../libdaisy/src/hid/disp/display.h ****                 ((ChildType*)(this))
 367:../../libdaisy/src/hid/disp/display.h ****                     ->ChildType::DrawPixel(x - t_x, y + t_y, on);
 368:../../libdaisy/src/hid/disp/display.h ****             if(d2)
 369:../../libdaisy/src/hid/disp/display.h ****                 ((ChildType*)(this))
 370:../../libdaisy/src/hid/disp/display.h ****                     ->ChildType::DrawPixel(x + t_x, y + t_y, on);
 371:../../libdaisy/src/hid/disp/display.h ****             if(d3)
 372:../../libdaisy/src/hid/disp/display.h ****                 ((ChildType*)(this))
 373:../../libdaisy/src/hid/disp/display.h ****                     ->ChildType::DrawPixel(x + t_x, y - t_y, on);
 374:../../libdaisy/src/hid/disp/display.h ****             if(d4)
 375:../../libdaisy/src/hid/disp/display.h ****                 ((ChildType*)(this))
 376:../../libdaisy/src/hid/disp/display.h ****                     ->ChildType::DrawPixel(x - t_x, y - t_y, on);
 377:../../libdaisy/src/hid/disp/display.h **** 
 378:../../libdaisy/src/hid/disp/display.h ****             e2 = err;
 379:../../libdaisy/src/hid/disp/display.h ****             if(e2 <= t_y)
 380:../../libdaisy/src/hid/disp/display.h ****             {
 381:../../libdaisy/src/hid/disp/display.h ****                 t_y++;
 382:../../libdaisy/src/hid/disp/display.h ****                 err = err + (t_y * 2 + 1);
 383:../../libdaisy/src/hid/disp/display.h ****                 if(-t_x == t_y && e2 <= t_x)
 384:../../libdaisy/src/hid/disp/display.h ****                 {
ARM GAS  /tmp/ccpjMo0x.s 			page 54


 385:../../libdaisy/src/hid/disp/display.h ****                     e2 = 0;
 386:../../libdaisy/src/hid/disp/display.h ****                 }
 387:../../libdaisy/src/hid/disp/display.h ****             }
 388:../../libdaisy/src/hid/disp/display.h ****             if(e2 > t_x)
 389:../../libdaisy/src/hid/disp/display.h ****             {
 390:../../libdaisy/src/hid/disp/display.h ****                 t_x++;
 391:../../libdaisy/src/hid/disp/display.h ****                 err = err + (t_x * 2 + 1);
 392:../../libdaisy/src/hid/disp/display.h ****             }
 393:../../libdaisy/src/hid/disp/display.h ****         } while(t_x <= 0);
 394:../../libdaisy/src/hid/disp/display.h ****     }
 395:../../libdaisy/src/hid/disp/display.h **** 
 396:../../libdaisy/src/hid/disp/display.h ****     char WriteChar(char ch, FontDef font, bool on) override
 397:../../libdaisy/src/hid/disp/display.h ****     {
 398:../../libdaisy/src/hid/disp/display.h ****         uint32_t i, b, j;
 399:../../libdaisy/src/hid/disp/display.h **** 
 400:../../libdaisy/src/hid/disp/display.h ****         // Check if character is valid
 401:../../libdaisy/src/hid/disp/display.h ****         if(ch < 32 || ch > 126)
 402:../../libdaisy/src/hid/disp/display.h ****             return 0;
 403:../../libdaisy/src/hid/disp/display.h **** 
 404:../../libdaisy/src/hid/disp/display.h ****         // Check remaining space on current line
 405:../../libdaisy/src/hid/disp/display.h ****         if(Width() < (currentX_ + font.FontWidth)
 406:../../libdaisy/src/hid/disp/display.h ****            || Height() < (currentY_ + font.FontHeight))
 407:../../libdaisy/src/hid/disp/display.h ****         {
 408:../../libdaisy/src/hid/disp/display.h ****             // Not enough space on current line
 409:../../libdaisy/src/hid/disp/display.h ****             return 0;
 410:../../libdaisy/src/hid/disp/display.h ****         }
 411:../../libdaisy/src/hid/disp/display.h **** 
 412:../../libdaisy/src/hid/disp/display.h ****         // Use the font to write
 413:../../libdaisy/src/hid/disp/display.h ****         for(i = 0; i < font.FontHeight; i++)
 414:../../libdaisy/src/hid/disp/display.h ****         {
 415:../../libdaisy/src/hid/disp/display.h ****             b = font.data[(ch - 32) * font.FontHeight + i];
 416:../../libdaisy/src/hid/disp/display.h ****             for(j = 0; j < font.FontWidth; j++)
 417:../../libdaisy/src/hid/disp/display.h ****             {
 418:../../libdaisy/src/hid/disp/display.h ****                 if((b << j) & 0x8000)
 419:../../libdaisy/src/hid/disp/display.h ****                 {
 420:../../libdaisy/src/hid/disp/display.h ****                     ((ChildType*)(this))
 421:../../libdaisy/src/hid/disp/display.h ****                         ->ChildType::DrawPixel(
 422:../../libdaisy/src/hid/disp/display.h ****                             currentX_ + j, (currentY_ + i), on);
 423:../../libdaisy/src/hid/disp/display.h ****                 }
 424:../../libdaisy/src/hid/disp/display.h ****                 else
 425:../../libdaisy/src/hid/disp/display.h ****                 {
 426:../../libdaisy/src/hid/disp/display.h ****                     ((ChildType*)(this))
 427:../../libdaisy/src/hid/disp/display.h ****                         ->ChildType::DrawPixel(
 428:../../libdaisy/src/hid/disp/display.h ****                             currentX_ + j, (currentY_ + i), !on);
 429:../../libdaisy/src/hid/disp/display.h ****                 }
 430:../../libdaisy/src/hid/disp/display.h ****             }
 431:../../libdaisy/src/hid/disp/display.h ****         }
 432:../../libdaisy/src/hid/disp/display.h **** 
 433:../../libdaisy/src/hid/disp/display.h ****         // The current space is now taken
 434:../../libdaisy/src/hid/disp/display.h ****         SetCursor(currentX_ + font.FontWidth, currentY_);
 435:../../libdaisy/src/hid/disp/display.h **** 
 436:../../libdaisy/src/hid/disp/display.h ****         // Return written char for validation
 437:../../libdaisy/src/hid/disp/display.h ****         return ch;
 438:../../libdaisy/src/hid/disp/display.h ****     }
 439:../../libdaisy/src/hid/disp/display.h **** 
 440:../../libdaisy/src/hid/disp/display.h ****     char WriteString(const char* str, FontDef font, bool on) override
 982              		.loc 6 440 10 is_stmt 1 view -0
ARM GAS  /tmp/ccpjMo0x.s 			page 55


 983              		.cfi_startproc
 984              		@ args = 4, pretend = 0, frame = 32
 985              		@ frame_needed = 0, uses_anonymous_args = 0
 986              		.loc 6 440 10 is_stmt 0 view .LVU233
 987 0000 2DE9F04F 		push	{r4, r5, r6, r7, r8, r9, r10, fp, lr}
 988              		.cfi_def_cfa_offset 36
 989              		.cfi_offset 4, -36
 990              		.cfi_offset 5, -32
 991              		.cfi_offset 6, -28
 992              		.cfi_offset 7, -24
 993              		.cfi_offset 8, -20
 994              		.cfi_offset 9, -16
 995              		.cfi_offset 10, -12
 996              		.cfi_offset 11, -8
 997              		.cfi_offset 14, -4
 998 0004 89B0     		sub	sp, sp, #36
 999              		.cfi_def_cfa_offset 72
 1000              		.loc 6 440 10 view .LVU234
 1001 0006 8B46     		mov	fp, r1
 441:../../libdaisy/src/hid/disp/display.h ****     {
 442:../../libdaisy/src/hid/disp/display.h ****         // Write until null-byte
 443:../../libdaisy/src/hid/disp/display.h ****         while(*str)
 1002              		.loc 6 443 9 is_stmt 1 view .LVU235
 1003 0008 91F80090 		ldrb	r9, [r1]	@ zero_extendqisi2
 440:../../libdaisy/src/hid/disp/display.h ****     {
 1004              		.loc 6 440 10 is_stmt 0 view .LVU236
 1005 000c 9DF84840 		ldrb	r4, [sp, #72]	@ zero_extendqisi2
 1006 0010 08A9     		add	r1, sp, #32
 1007              	.LVL72:
 440:../../libdaisy/src/hid/disp/display.h ****     {
 1008              		.loc 6 440 10 view .LVU237
 1009 0012 0494     		str	r4, [sp, #16]
 1010 0014 01E90C00 		stmdb	r1, {r2, r3}
 1011              		.loc 6 443 9 view .LVU238
 1012 0018 B9F1000F 		cmp	r9, #0
 1013 001c 00F0B780 		beq	.L70
 1014 0020 9DF81930 		ldrb	r3, [sp, #25]	@ zero_extendqisi2
 1015 0024 8046     		mov	r8, r0
 1016 0026 9DF818A0 		ldrb	r10, [sp, #24]	@ zero_extendqisi2
 1017 002a 4D46     		mov	r5, r9
 1018 002c 0193     		str	r3, [sp, #4]
 1019 002e 079B     		ldr	r3, [sp, #28]
 1020 0030 0593     		str	r3, [sp, #20]
 1021              	.LVL73:
 1022              	.L71:
 1023              	.LBB618:
 1024              	.LBI618:
 396:../../libdaisy/src/hid/disp/display.h ****     {
 1025              		.loc 6 396 10 is_stmt 1 view .LVU239
 1026              	.LBB619:
 401:../../libdaisy/src/hid/disp/display.h ****             return 0;
 1027              		.loc 6 401 20 is_stmt 0 view .LVU240
 1028 0032 A5F12004 		sub	r4, r5, #32
 401:../../libdaisy/src/hid/disp/display.h ****             return 0;
 1029              		.loc 6 401 9 view .LVU241
 1030 0036 E3B2     		uxtb	r3, r4
 1031 0038 5E2B     		cmp	r3, #94
ARM GAS  /tmp/ccpjMo0x.s 			page 56


 1032 003a 00F2AC80 		bhi	.L52
 405:../../libdaisy/src/hid/disp/display.h ****            || Height() < (currentY_ + font.FontHeight))
 1033              		.loc 6 405 17 view .LVU242
 1034 003e D8F80030 		ldr	r3, [r8]
 1035 0042 654A     		ldr	r2, .L92
 1036 0044 DB68     		ldr	r3, [r3, #12]
 1037 0046 9342     		cmp	r3, r2
 1038 0048 40F0A780 		bne	.L85
 1039 004c 8020     		movs	r0, #128
 1040              	.L51:
 405:../../libdaisy/src/hid/disp/display.h ****            || Height() < (currentY_ + font.FontHeight))
 1041              		.loc 6 405 23 view .LVU243
 1042 004e B8F80430 		ldrh	r3, [r8, #4]
 405:../../libdaisy/src/hid/disp/display.h ****            || Height() < (currentY_ + font.FontHeight))
 1043              		.loc 6 405 33 view .LVU244
 1044 0052 5344     		add	r3, r3, r10
 406:../../libdaisy/src/hid/disp/display.h ****         {
 1045              		.loc 6 406 12 view .LVU245
 1046 0054 8342     		cmp	r3, r0
 1047 0056 00F39E80 		bgt	.L52
 406:../../libdaisy/src/hid/disp/display.h ****         {
 1048              		.loc 6 406 21 view .LVU246
 1049 005a D8F80030 		ldr	r3, [r8]
 1050 005e 5F4A     		ldr	r2, .L92+4
 1051 0060 9B68     		ldr	r3, [r3, #8]
 1052 0062 9342     		cmp	r3, r2
 1053 0064 40F09C80 		bne	.L86
 1054 0068 4020     		movs	r0, #64
 1055              	.L53:
 406:../../libdaisy/src/hid/disp/display.h ****         {
 1056              		.loc 6 406 27 view .LVU247
 1057 006a B8F80610 		ldrh	r1, [r8, #6]
 406:../../libdaisy/src/hid/disp/display.h ****         {
 1058              		.loc 6 406 37 view .LVU248
 1059 006e 019A     		ldr	r2, [sp, #4]
 406:../../libdaisy/src/hid/disp/display.h ****         {
 1060              		.loc 6 406 27 view .LVU249
 1061 0070 0091     		str	r1, [sp]
 406:../../libdaisy/src/hid/disp/display.h ****         {
 1062              		.loc 6 406 37 view .LVU250
 1063 0072 8B18     		adds	r3, r1, r2
 406:../../libdaisy/src/hid/disp/display.h ****         {
 1064              		.loc 6 406 12 view .LVU251
 1065 0074 8342     		cmp	r3, r0
 1066 0076 00F38E80 		bgt	.L52
 1067              	.LVL74:
 413:../../libdaisy/src/hid/disp/display.h ****         {
 1068              		.loc 6 413 22 is_stmt 1 view .LVU252
 1069 007a 1046     		mov	r0, r2
 1070 007c 002A     		cmp	r2, #0
 1071 007e 00F09A80 		beq	.L54
 415:../../libdaisy/src/hid/disp/display.h ****             for(j = 0; j < font.FontWidth; j++)
 1072              		.loc 6 415 37 is_stmt 0 view .LVU253
 1073 0082 1346     		mov	r3, r2
 1074 0084 6FF00046 		mvn	r6, #-2147483648
 1075 0088 B8F80470 		ldrh	r7, [r8, #4]
 1076 008c 03FB04F3 		mul	r3, r3, r4
ARM GAS  /tmp/ccpjMo0x.s 			page 57


 1077 0090 059C     		ldr	r4, [sp, #20]
 1078 0092 BE46     		mov	lr, r7
 1079 0094 CDF80CB0 		str	fp, [sp, #12]
 1080 0098 1E44     		add	r6, r6, r3
 1081 009a A21E     		subs	r2, r4, #2
 1082 009c 0344     		add	r3, r3, r0
 1083 009e 5746     		mov	r7, r10
 1084 00a0 04EB4606 		add	r6, r4, r6, lsl #1
 1085 00a4 DDF81090 		ldr	r9, [sp, #16]
 1086 00a8 02EB4303 		add	r3, r2, r3, lsl #1
 1087 00ac 0295     		str	r5, [sp, #8]
 1088 00ae 9B46     		mov	fp, r3
 1089              	.LVL75:
 1090              	.L57:
 415:../../libdaisy/src/hid/disp/display.h ****             for(j = 0; j < font.FontWidth; j++)
 1091              		.loc 6 415 13 view .LVU254
 1092 00b0 36F802AF 		ldrh	r10, [r6, #2]!
 1093              	.LVL76:
 416:../../libdaisy/src/hid/disp/display.h ****             {
 1094              		.loc 6 416 26 is_stmt 1 view .LVU255
 1095 00b4 A7B3     		cbz	r7, .L62
 1096              	.LBB620:
 1097              	.LBB621:
 1098              	.LBB622:
 1099              	.LBB623:
 1100              	.LBB624:
 246:../../libdaisy/src/dev/oled_ssd130x.h ****     }
 1101              		.loc 20 246 49 is_stmt 0 view .LVU256
 1102 00b6 0124     		movs	r4, #1
 246:../../libdaisy/src/dev/oled_ssd130x.h ****     }
 1103              		.loc 20 246 55 view .LVU257
 1104 00b8 01F00702 		and	r2, r1, #7
 246:../../libdaisy/src/dev/oled_ssd130x.h ****     }
 1105              		.loc 20 246 28 view .LVU258
 1106 00bc C808     		lsrs	r0, r1, #3
 1107 00be 0EF11403 		add	r3, lr, #20
 246:../../libdaisy/src/dev/oled_ssd130x.h ****     }
 1108              		.loc 20 246 49 view .LVU259
 1109 00c2 04FA02F2 		lsl	r2, r4, r2
 1110 00c6 7446     		mov	r4, lr
 1111 00c8 03EBC013 		add	r3, r3, r0, lsl #7
 1112              	.LBE624:
 1113              	.LBE623:
 1114              	.LBE622:
 1115              	.LBE621:
 1116              	.LBE620:
 416:../../libdaisy/src/hid/disp/display.h ****             {
 1117              		.loc 6 416 19 view .LVU260
 1118 00cc 0020     		movs	r0, #0
 1119              	.LBB642:
 1120              	.LBB637:
 1121              	.LBB632:
 1122              	.LBB628:
 1123              	.LBB625:
 246:../../libdaisy/src/dev/oled_ssd130x.h ****     }
 1124              		.loc 20 246 42 view .LVU261
 1125 00ce 52B2     		sxtb	r2, r2
ARM GAS  /tmp/ccpjMo0x.s 			page 58


 1126 00d0 4344     		add	r3, r3, r8
 1127 00d2 6FEA020C 		mvn	ip, r2
 1128 00d6 0EE0     		b	.L63
 1129              	.LVL77:
 1130              	.L87:
 246:../../libdaisy/src/dev/oled_ssd130x.h ****     }
 1131              		.loc 20 246 42 view .LVU262
 1132              	.LBE625:
 1133              	.LBE628:
 1134              	.LBE632:
 1135              	.LBE637:
 1136              	.LBE642:
 1137              	.LBB643:
 1138              	.LBI643:
  41:../../libdaisy/src/hid/disp/oled_display.h ****     {
 1139              		.loc 5 41 10 is_stmt 1 view .LVU263
 1140              	.LBB644:
 1141              	.LBI644:
 239:../../libdaisy/src/dev/oled_ssd130x.h ****     {
 1142              		.loc 20 239 10 view .LVU264
 1143              	.LBB645:
 241:../../libdaisy/src/dev/oled_ssd130x.h ****             return;
 1144              		.loc 20 241 9 is_stmt 0 view .LVU265
 1145 00d8 7F2C     		cmp	r4, #127
 1146 00da 07D8     		bhi	.L59
 1147 00dc 3F29     		cmp	r1, #63
 1148 00de 05D8     		bhi	.L59
 244:../../libdaisy/src/dev/oled_ssd130x.h ****         else
 1149              		.loc 20 244 42 view .LVU266
 1150 00e0 1D78     		ldrb	r5, [r3]	@ zero_extendqisi2
 243:../../libdaisy/src/dev/oled_ssd130x.h ****             buffer_[x + (y / 8) * width] |= (1 << (y % 8));
 1151              		.loc 20 243 9 view .LVU267
 1152 00e2 B9F1000F 		cmp	r9, #0
 1153 00e6 12D0     		beq	.L61
 1154              	.L84:
 243:../../libdaisy/src/dev/oled_ssd130x.h ****             buffer_[x + (y / 8) * width] |= (1 << (y % 8));
 1155              		.loc 20 243 9 view .LVU268
 1156              	.LBE645:
 1157              	.LBE644:
 1158              	.LBE643:
 1159              	.LBB646:
 1160              	.LBB638:
 1161              	.LBB633:
 244:../../libdaisy/src/dev/oled_ssd130x.h ****         else
 1162              		.loc 20 244 42 view .LVU269
 1163 00e8 1543     		orrs	r5, r5, r2
 244:../../libdaisy/src/dev/oled_ssd130x.h ****         else
 1164              		.loc 20 244 13 view .LVU270
 1165 00ea 1D70     		strb	r5, [r3]
 1166              	.L59:
 1167              	.LBE633:
 1168              	.LBE638:
 1169              	.LBE646:
 416:../../libdaisy/src/hid/disp/display.h ****             {
 1170              		.loc 6 416 13 is_stmt 1 view .LVU271
 1171 00ec 0130     		adds	r0, r0, #1
 1172              	.LVL78:
ARM GAS  /tmp/ccpjMo0x.s 			page 59


 416:../../libdaisy/src/hid/disp/display.h ****             {
 1173              		.loc 6 416 26 view .LVU272
 1174 00ee 0133     		adds	r3, r3, #1
 1175 00f0 0134     		adds	r4, r4, #1
 1176 00f2 B842     		cmp	r0, r7
 1177 00f4 14D0     		beq	.L62
 1178              	.LVL79:
 1179              	.L63:
 418:../../libdaisy/src/hid/disp/display.h ****                 {
 1180              		.loc 6 418 23 is_stmt 0 view .LVU273
 1181 00f6 0AFA00F5 		lsl	r5, r10, r0
 418:../../libdaisy/src/hid/disp/display.h ****                 {
 1182              		.loc 6 418 17 view .LVU274
 1183 00fa 2D04     		lsls	r5, r5, #16
 1184 00fc ECD4     		bmi	.L87
 1185              	.LVL80:
 1186              	.LBB647:
 1187              	.LBI620:
  41:../../libdaisy/src/hid/disp/oled_display.h ****     {
 1188              		.loc 5 41 10 is_stmt 1 view .LVU275
 1189              	.LBB639:
 1190              	.LBI621:
 239:../../libdaisy/src/dev/oled_ssd130x.h ****     {
 1191              		.loc 20 239 10 view .LVU276
 1192              	.LBB634:
 241:../../libdaisy/src/dev/oled_ssd130x.h ****             return;
 1193              		.loc 20 241 9 is_stmt 0 view .LVU277
 1194 00fe 7F2C     		cmp	r4, #127
 1195 0100 F4D8     		bhi	.L59
 1196 0102 3F29     		cmp	r1, #63
 1197 0104 F2D8     		bhi	.L59
 244:../../libdaisy/src/dev/oled_ssd130x.h ****         else
 1198              		.loc 20 244 42 view .LVU278
 1199 0106 1D78     		ldrb	r5, [r3]	@ zero_extendqisi2
 243:../../libdaisy/src/dev/oled_ssd130x.h ****             buffer_[x + (y / 8) * width] |= (1 << (y % 8));
 1200              		.loc 20 243 9 view .LVU279
 1201 0108 B9F1000F 		cmp	r9, #0
 1202 010c ECD0     		beq	.L84
 1203              	.L61:
 1204              	.LVL81:
 1205              	.LBB629:
 1206              	.LBI623:
 239:../../libdaisy/src/dev/oled_ssd130x.h ****     {
 1207              		.loc 20 239 10 is_stmt 1 view .LVU280
 239:../../libdaisy/src/dev/oled_ssd130x.h ****     {
 1208              		.loc 20 239 10 is_stmt 0 view .LVU281
 1209              	.LBE629:
 1210              	.LBE634:
 1211              	.LBE639:
 1212              	.LBE647:
 416:../../libdaisy/src/hid/disp/display.h ****             {
 1213              		.loc 6 416 13 view .LVU282
 1214 010e 0130     		adds	r0, r0, #1
 1215              	.LVL82:
 1216              	.LBB648:
 1217              	.LBB640:
 1218              	.LBB635:
ARM GAS  /tmp/ccpjMo0x.s 			page 60


 1219              	.LBB630:
 1220              	.LBB626:
 246:../../libdaisy/src/dev/oled_ssd130x.h ****     }
 1221              		.loc 20 246 42 view .LVU283
 1222 0110 0CEA0505 		and	r5, ip, r5
 1223 0114 0133     		adds	r3, r3, #1
 1224 0116 0134     		adds	r4, r4, #1
 1225              	.LBE626:
 1226              	.LBE630:
 1227              	.LBE635:
 1228              	.LBE640:
 1229              	.LBE648:
 416:../../libdaisy/src/hid/disp/display.h ****             {
 1230              		.loc 6 416 26 view .LVU284
 1231 0118 B842     		cmp	r0, r7
 1232              	.LBB649:
 1233              	.LBB641:
 1234              	.LBB636:
 1235              	.LBB631:
 1236              	.LBB627:
 246:../../libdaisy/src/dev/oled_ssd130x.h ****     }
 1237              		.loc 20 246 13 view .LVU285
 1238 011a 03F8015C 		strb	r5, [r3, #-1]
 246:../../libdaisy/src/dev/oled_ssd130x.h ****     }
 1239              		.loc 20 246 13 view .LVU286
 1240              	.LBE627:
 1241              	.LBE631:
 1242              	.LBE636:
 1243              	.LBE641:
 1244              	.LBE649:
 416:../../libdaisy/src/hid/disp/display.h ****             {
 1245              		.loc 6 416 13 is_stmt 1 view .LVU287
 1246              	.LVL83:
 416:../../libdaisy/src/hid/disp/display.h ****             {
 1247              		.loc 6 416 26 view .LVU288
 1248 011e EAD1     		bne	.L63
 1249              	.LVL84:
 1250              	.L62:
 413:../../libdaisy/src/hid/disp/display.h ****         {
 1251              		.loc 6 413 9 view .LVU289
 413:../../libdaisy/src/hid/disp/display.h ****         {
 1252              		.loc 6 413 22 view .LVU290
 1253 0120 5E45     		cmp	r6, fp
 1254 0122 01F10101 		add	r1, r1, #1
 1255 0126 C3D1     		bne	.L57
 1256 0128 BA46     		mov	r10, r7
 1257              	.LVL85:
 413:../../libdaisy/src/hid/disp/display.h ****         {
 1258              		.loc 6 413 22 is_stmt 0 view .LVU291
 1259 012a 029D     		ldr	r5, [sp, #8]
 1260 012c 7746     		mov	r7, lr
 1261 012e DDF80CB0 		ldr	fp, [sp, #12]
 1262              	.L56:
 1263              	.LBB650:
 1264              	.LBB651:
 173:../../libdaisy/src/hid/disp/display.h ****         currentY_ = (y >= Height()) ? Height() - 1 : y;
 1265              		.loc 6 173 33 view .LVU292
ARM GAS  /tmp/ccpjMo0x.s 			page 61


 1266 0132 D8F80020 		ldr	r2, [r8]
 1267              	.LBE651:
 1268              	.LBE650:
 434:../../libdaisy/src/hid/disp/display.h **** 
 1269              		.loc 6 434 18 view .LVU293
 1270 0136 5744     		add	r7, r7, r10
 1271 0138 2749     		ldr	r1, .L92
 1272              	.LBB655:
 1273              	.LBB652:
 173:../../libdaisy/src/hid/disp/display.h ****         currentY_ = (y >= Height()) ? Height() - 1 : y;
 1274              		.loc 6 173 33 view .LVU294
 1275 013a D368     		ldr	r3, [r2, #12]
 1276              	.LBE652:
 1277              	.LBE655:
 434:../../libdaisy/src/hid/disp/display.h **** 
 1278              		.loc 6 434 18 view .LVU295
 1279 013c BFB2     		uxth	r7, r7
 1280              	.LVL86:
 1281              	.LBB656:
 1282              	.LBI650:
 171:../../libdaisy/src/hid/disp/display.h ****     {
 1283              		.loc 6 171 10 is_stmt 1 view .LVU296
 1284              	.LBB653:
 173:../../libdaisy/src/hid/disp/display.h ****         currentY_ = (y >= Height()) ? Height() - 1 : y;
 1285              		.loc 6 173 9 view .LVU297
 1286 013e 8B42     		cmp	r3, r1
 1287 0140 34D1     		bne	.L88
 173:../../libdaisy/src/hid/disp/display.h ****         currentY_ = (y >= Height()) ? Height() - 1 : y;
 1288              		.loc 6 173 33 is_stmt 0 view .LVU298
 1289 0142 8020     		movs	r0, #128
 1290              	.L64:
 173:../../libdaisy/src/hid/disp/display.h ****         currentY_ = (y >= Height()) ? Height() - 1 : y;
 1291              		.loc 6 173 19 view .LVU299
 1292 0144 8742     		cmp	r7, r0
 1293 0146 04D3     		bcc	.L65
 173:../../libdaisy/src/hid/disp/display.h ****         currentY_ = (y >= Height()) ? Height() - 1 : y;
 1294              		.loc 6 173 44 view .LVU300
 1295 0148 D368     		ldr	r3, [r2, #12]
 1296 014a 2349     		ldr	r1, .L92
 1297 014c 8B42     		cmp	r3, r1
 1298 014e 3BD1     		bne	.L89
 1299 0150 7F27     		movs	r7, #127
 1300              	.LVL87:
 1301              	.L65:
 174:../../libdaisy/src/hid/disp/display.h ****     }
 1302              		.loc 6 174 34 view .LVU301
 1303 0152 9368     		ldr	r3, [r2, #8]
 1304 0154 214A     		ldr	r2, .L92+4
 173:../../libdaisy/src/hid/disp/display.h ****         currentY_ = (y >= Height()) ? Height() - 1 : y;
 1305              		.loc 6 173 19 view .LVU302
 1306 0156 A8F80470 		strh	r7, [r8, #4]	@ movhi
 174:../../libdaisy/src/hid/disp/display.h ****     }
 1307              		.loc 6 174 9 is_stmt 1 view .LVU303
 1308 015a 9342     		cmp	r3, r2
 1309 015c 23D1     		bne	.L90
 174:../../libdaisy/src/hid/disp/display.h ****     }
 1310              		.loc 6 174 34 is_stmt 0 view .LVU304
ARM GAS  /tmp/ccpjMo0x.s 			page 62


 1311 015e 4020     		movs	r0, #64
 1312              	.L67:
 174:../../libdaisy/src/hid/disp/display.h ****     }
 1313              		.loc 6 174 19 view .LVU305
 1314 0160 009B     		ldr	r3, [sp]
 1315 0162 8342     		cmp	r3, r0
 1316 0164 07D3     		bcc	.L68
 174:../../libdaisy/src/hid/disp/display.h ****     }
 1317              		.loc 6 174 46 view .LVU306
 1318 0166 D8F80030 		ldr	r3, [r8]
 1319 016a 1C4A     		ldr	r2, .L92+4
 1320 016c 9B68     		ldr	r3, [r3, #8]
 1321 016e 9342     		cmp	r3, r2
 1322 0170 24D1     		bne	.L91
 1323 0172 3F23     		movs	r3, #63
 1324 0174 0093     		str	r3, [sp]
 1325              	.LVL88:
 1326              	.L68:
 174:../../libdaisy/src/hid/disp/display.h ****     }
 1327              		.loc 6 174 19 view .LVU307
 1328 0176 009B     		ldr	r3, [sp]
 1329 0178 A8F80630 		strh	r3, [r8, #6]	@ movhi
 1330              	.LVL89:
 1331              	.L50:
 174:../../libdaisy/src/hid/disp/display.h ****     }
 1332              		.loc 6 174 19 view .LVU308
 1333              	.LBE653:
 1334              	.LBE656:
 1335              	.LBE619:
 1336              	.LBE618:
 444:../../libdaisy/src/hid/disp/display.h ****         {
 445:../../libdaisy/src/hid/disp/display.h ****             if(((ChildType*)(this))->ChildType::WriteChar(*str, font, on)
 446:../../libdaisy/src/hid/disp/display.h ****                != *str)
 1337              		.loc 6 446 16 view .LVU309
 1338 017c 9BF80000 		ldrb	r0, [fp]	@ zero_extendqisi2
 445:../../libdaisy/src/hid/disp/display.h ****                != *str)
 1339              		.loc 6 445 13 view .LVU310
 1340 0180 A842     		cmp	r0, r5
 1341 0182 05D1     		bne	.L48
 1342              	.LVL90:
 443:../../libdaisy/src/hid/disp/display.h ****         {
 1343              		.loc 6 443 9 is_stmt 1 view .LVU311
 1344 0184 1BF8015F 		ldrb	r5, [fp, #1]!	@ zero_extendqisi2
 1345              	.LVL91:
 443:../../libdaisy/src/hid/disp/display.h ****         {
 1346              		.loc 6 443 9 is_stmt 0 view .LVU312
 1347 0188 002D     		cmp	r5, #0
 1348 018a 7FF452AF 		bne	.L71
 1349              	.LVL92:
 1350              	.L70:
 1351              	.LBB660:
 1352              	.LBB658:
 402:../../libdaisy/src/hid/disp/display.h **** 
 1353              		.loc 6 402 20 view .LVU313
 1354 018e 0020     		movs	r0, #0
 1355              	.LVL93:
 1356              	.L48:
ARM GAS  /tmp/ccpjMo0x.s 			page 63


 402:../../libdaisy/src/hid/disp/display.h **** 
 1357              		.loc 6 402 20 view .LVU314
 1358              	.LBE658:
 1359              	.LBE660:
 447:../../libdaisy/src/hid/disp/display.h ****             {
 448:../../libdaisy/src/hid/disp/display.h ****                 // Char could not be written
 449:../../libdaisy/src/hid/disp/display.h ****                 return *str;
 450:../../libdaisy/src/hid/disp/display.h ****             }
 451:../../libdaisy/src/hid/disp/display.h **** 
 452:../../libdaisy/src/hid/disp/display.h ****             // Next char
 453:../../libdaisy/src/hid/disp/display.h ****             str++;
 454:../../libdaisy/src/hid/disp/display.h ****         }
 455:../../libdaisy/src/hid/disp/display.h **** 
 456:../../libdaisy/src/hid/disp/display.h ****         // Everything ok
 457:../../libdaisy/src/hid/disp/display.h ****         return *str;
 458:../../libdaisy/src/hid/disp/display.h ****     }
 1360              		.loc 6 458 5 view .LVU315
 1361 0190 09B0     		add	sp, sp, #36
 1362              		.cfi_remember_state
 1363              		.cfi_def_cfa_offset 36
 1364              		@ sp needed
 1365 0192 BDE8F08F 		pop	{r4, r5, r6, r7, r8, r9, r10, fp, pc}
 1366              	.LVL94:
 1367              	.L52:
 1368              		.cfi_restore_state
 1369              	.LBB661:
 1370              	.LBB659:
 402:../../libdaisy/src/hid/disp/display.h **** 
 1371              		.loc 6 402 20 view .LVU316
 1372 0196 0025     		movs	r5, #0
 1373              	.LVL95:
 402:../../libdaisy/src/hid/disp/display.h **** 
 1374              		.loc 6 402 20 view .LVU317
 1375 0198 F0E7     		b	.L50
 1376              	.LVL96:
 1377              	.L85:
 405:../../libdaisy/src/hid/disp/display.h ****            || Height() < (currentY_ + font.FontHeight))
 1378              		.loc 6 405 17 view .LVU318
 1379 019a 4046     		mov	r0, r8
 1380 019c 9847     		blx	r3
 1381              	.LVL97:
 1382 019e 56E7     		b	.L51
 1383              	.L86:
 406:../../libdaisy/src/hid/disp/display.h ****         {
 1384              		.loc 6 406 21 view .LVU319
 1385 01a0 4046     		mov	r0, r8
 1386 01a2 9847     		blx	r3
 1387              	.LVL98:
 1388 01a4 61E7     		b	.L53
 1389              	.LVL99:
 1390              	.L90:
 1391              	.LBB657:
 1392              	.LBB654:
 174:../../libdaisy/src/hid/disp/display.h ****     }
 1393              		.loc 6 174 33 view .LVU320
 1394 01a6 4046     		mov	r0, r8
 1395 01a8 9847     		blx	r3
ARM GAS  /tmp/ccpjMo0x.s 			page 64


 1396              	.LVL100:
 1397 01aa D9E7     		b	.L67
 1398              	.LVL101:
 1399              	.L88:
 173:../../libdaisy/src/hid/disp/display.h ****         currentY_ = (y >= Height()) ? Height() - 1 : y;
 1400              		.loc 6 173 32 view .LVU321
 1401 01ac 4046     		mov	r0, r8
 1402 01ae 9847     		blx	r3
 1403              	.LVL102:
 1404 01b0 D8F80020 		ldr	r2, [r8]
 1405 01b4 C6E7     		b	.L64
 1406              	.LVL103:
 1407              	.L54:
 173:../../libdaisy/src/hid/disp/display.h ****         currentY_ = (y >= Height()) ? Height() - 1 : y;
 1408              		.loc 6 173 32 view .LVU322
 1409 01b6 B8F80470 		ldrh	r7, [r8, #4]
 1410 01ba BAE7     		b	.L56
 1411              	.LVL104:
 1412              	.L91:
 174:../../libdaisy/src/hid/disp/display.h ****     }
 1413              		.loc 6 174 45 view .LVU323
 1414 01bc 4046     		mov	r0, r8
 1415 01be 9847     		blx	r3
 1416              	.LVL105:
 1417 01c0 0138     		subs	r0, r0, #1
 1418 01c2 83B2     		uxth	r3, r0
 1419 01c4 0093     		str	r3, [sp]
 1420              	.LVL106:
 174:../../libdaisy/src/hid/disp/display.h ****     }
 1421              		.loc 6 174 45 view .LVU324
 1422 01c6 D6E7     		b	.L68
 1423              	.LVL107:
 1424              	.L89:
 173:../../libdaisy/src/hid/disp/display.h ****         currentY_ = (y >= Height()) ? Height() - 1 : y;
 1425              		.loc 6 173 43 view .LVU325
 1426 01c8 4046     		mov	r0, r8
 1427 01ca 9847     		blx	r3
 1428              	.LVL108:
 1429 01cc 0138     		subs	r0, r0, #1
 1430 01ce D8F80020 		ldr	r2, [r8]
 1431 01d2 87B2     		uxth	r7, r0
 1432              	.LVL109:
 173:../../libdaisy/src/hid/disp/display.h ****         currentY_ = (y >= Height()) ? Height() - 1 : y;
 1433              		.loc 6 173 43 view .LVU326
 1434 01d4 BDE7     		b	.L65
 1435              	.L93:
 1436 01d6 00BF     		.align	2
 1437              	.L92:
 1438 01d8 00000000 		.word	_ZNK5daisy11OledDisplayINS_13SSD130xDriverILj128ELj64ENS_24SSD130x4WireSpiTransportEEEE5Widt
 1439 01dc 00000000 		.word	_ZNK5daisy11OledDisplayINS_13SSD130xDriverILj128ELj64ENS_24SSD130x4WireSpiTransportEEEE6Heig
 1440              	.LBE654:
 1441              	.LBE657:
 1442              	.LBE659:
 1443              	.LBE661:
 1444              		.cfi_endproc
 1445              	.LFE4839:
 1447              		.section	.text._ZN5daisy25OneBitGraphicsDisplayImplINS_11OledDisplayINS_13SSD130xDriverILj128ELj64
ARM GAS  /tmp/ccpjMo0x.s 			page 65


 1448              		.align	1
 1449              		.p2align 2,,3
 1450              		.weak	_ZN5daisy25OneBitGraphicsDisplayImplINS_11OledDisplayINS_13SSD130xDriverILj128ELj64ENS_24SSD
 1451              		.syntax unified
 1452              		.thumb
 1453              		.thumb_func
 1454              		.fpu fpv5-d16
 1456              	_ZN5daisy25OneBitGraphicsDisplayImplINS_11OledDisplayINS_13SSD130xDriverILj128ELj64ENS_24SSD130x4Wi
 1457              	.LVL110:
 1458              	.LFB4838:
 396:../../libdaisy/src/hid/disp/display.h ****     {
 1459              		.loc 6 396 10 is_stmt 1 view -0
 1460              		.cfi_startproc
 1461              		@ args = 4, pretend = 0, frame = 16
 1462              		@ frame_needed = 0, uses_anonymous_args = 0
 396:../../libdaisy/src/hid/disp/display.h ****     {
 1463              		.loc 6 396 10 is_stmt 0 view .LVU328
 1464 0000 2DE9F04F 		push	{r4, r5, r6, r7, r8, r9, r10, fp, lr}
 1465              		.cfi_def_cfa_offset 36
 1466              		.cfi_offset 4, -36
 1467              		.cfi_offset 5, -32
 1468              		.cfi_offset 6, -28
 1469              		.cfi_offset 7, -24
 1470              		.cfi_offset 8, -20
 1471              		.cfi_offset 9, -16
 1472              		.cfi_offset 10, -12
 1473              		.cfi_offset 11, -8
 1474              		.cfi_offset 14, -4
 1475 0004 85B0     		sub	sp, sp, #20
 1476              		.cfi_def_cfa_offset 56
 1477              	.LVL111:
 401:../../libdaisy/src/hid/disp/display.h ****             return 0;
 1478              		.loc 6 401 20 view .LVU329
 1479 0006 A1F12004 		sub	r4, r1, #32
 396:../../libdaisy/src/hid/disp/display.h ****     {
 1480              		.loc 6 396 10 view .LVU330
 1481 000a 0091     		str	r1, [sp]
 1482 000c 04A9     		add	r1, sp, #16
 1483              	.LVL112:
 396:../../libdaisy/src/hid/disp/display.h ****     {
 1484              		.loc 6 396 10 view .LVU331
 1485 000e 9DF83880 		ldrb	r8, [sp, #56]	@ zero_extendqisi2
 1486 0012 01E90C00 		stmdb	r1, {r2, r3}
 1487              	.LVL113:
 401:../../libdaisy/src/hid/disp/display.h ****             return 0;
 1488              		.loc 6 401 9 view .LVU332
 1489 0016 E3B2     		uxtb	r3, r4
 1490 0018 5E2B     		cmp	r3, #94
 1491 001a 00F29480 		bhi	.L98
 405:../../libdaisy/src/hid/disp/display.h ****            || Height() < (currentY_ + font.FontHeight))
 1492              		.loc 6 405 17 view .LVU333
 1493 001e 0368     		ldr	r3, [r0]
 1494 0020 8146     		mov	r9, r0
 1495 0022 5E4A     		ldr	r2, .L134
 1496 0024 DB68     		ldr	r3, [r3, #12]
 1497 0026 9DF80860 		ldrb	r6, [sp, #8]	@ zero_extendqisi2
 1498 002a 9342     		cmp	r3, r2
ARM GAS  /tmp/ccpjMo0x.s 			page 66


 1499 002c 9DF80950 		ldrb	r5, [sp, #9]	@ zero_extendqisi2
 1500 0030 40F09380 		bne	.L125
 1501 0034 8022     		movs	r2, #128
 1502              	.LVL114:
 1503              	.L97:
 405:../../libdaisy/src/hid/disp/display.h ****            || Height() < (currentY_ + font.FontHeight))
 1504              		.loc 6 405 23 view .LVU334
 1505 0036 B9F80430 		ldrh	r3, [r9, #4]
 405:../../libdaisy/src/hid/disp/display.h ****            || Height() < (currentY_ + font.FontHeight))
 1506              		.loc 6 405 33 view .LVU335
 1507 003a 3344     		add	r3, r3, r6
 406:../../libdaisy/src/hid/disp/display.h ****         {
 1508              		.loc 6 406 12 view .LVU336
 1509 003c 9342     		cmp	r3, r2
 1510 003e 00F38280 		bgt	.L98
 406:../../libdaisy/src/hid/disp/display.h ****         {
 1511              		.loc 6 406 21 discriminator 2 view .LVU337
 1512 0042 D9F80030 		ldr	r3, [r9]
 1513 0046 564A     		ldr	r2, .L134+4
 1514 0048 9B68     		ldr	r3, [r3, #8]
 1515 004a 9342     		cmp	r3, r2
 1516 004c 40F08980 		bne	.L126
 406:../../libdaisy/src/hid/disp/display.h ****         {
 1517              		.loc 6 406 21 view .LVU338
 1518 0050 4023     		movs	r3, #64
 1519              	.L99:
 406:../../libdaisy/src/hid/disp/display.h ****         {
 1520              		.loc 6 406 27 discriminator 2 view .LVU339
 1521 0052 B9F80610 		ldrh	r1, [r9, #6]
 406:../../libdaisy/src/hid/disp/display.h ****         {
 1522              		.loc 6 406 37 discriminator 2 view .LVU340
 1523 0056 4A19     		adds	r2, r1, r5
 406:../../libdaisy/src/hid/disp/display.h ****         {
 1524              		.loc 6 406 27 discriminator 2 view .LVU341
 1525 0058 0191     		str	r1, [sp, #4]
 406:../../libdaisy/src/hid/disp/display.h ****         {
 1526              		.loc 6 406 12 discriminator 2 view .LVU342
 1527 005a 9A42     		cmp	r2, r3
 1528 005c 73DC     		bgt	.L98
 1529              	.LVL115:
 413:../../libdaisy/src/hid/disp/display.h ****         {
 1530              		.loc 6 413 22 is_stmt 1 view .LVU343
 1531 005e 002D     		cmp	r5, #0
 1532 0060 00F08C80 		beq	.L100
 415:../../libdaisy/src/hid/disp/display.h ****             for(j = 0; j < font.FontWidth; j++)
 1533              		.loc 6 415 37 is_stmt 0 view .LVU344
 1534 0064 05FB04F4 		mul	r4, r5, r4
 415:../../libdaisy/src/hid/disp/display.h ****             for(j = 0; j < font.FontWidth; j++)
 1535              		.loc 6 415 22 view .LVU345
 1536 0068 039A     		ldr	r2, [sp, #12]
 1537 006a 6FF00043 		mvn	r3, #-2147483648
 1538 006e B9F804A0 		ldrh	r10, [r9, #4]
 1539 0072 2544     		add	r5, r5, r4
 1540 0074 A2F1020B 		sub	fp, r2, #2
 1541 0078 2344     		add	r3, r3, r4
 1542 007a 0BEB450B 		add	fp, fp, r5, lsl #1
 1543 007e 0D46     		mov	r5, r1
ARM GAS  /tmp/ccpjMo0x.s 			page 67


 1544 0080 02EB430E 		add	lr, r2, r3, lsl #1
 1545              	.LVL116:
 1546              	.L103:
 415:../../libdaisy/src/hid/disp/display.h ****             for(j = 0; j < font.FontWidth; j++)
 1547              		.loc 6 415 13 view .LVU346
 1548 0084 3EF8024F 		ldrh	r4, [lr, #2]!
 1549              	.LVL117:
 416:../../libdaisy/src/hid/disp/display.h ****             {
 1550              		.loc 6 416 26 is_stmt 1 view .LVU347
 1551 0088 A6B3     		cbz	r6, .L108
 1552              	.LBB692:
 1553              	.LBB693:
 1554              	.LBB694:
 1555              	.LBB695:
 1556              	.LBB696:
 246:../../libdaisy/src/dev/oled_ssd130x.h ****     }
 1557              		.loc 20 246 55 is_stmt 0 view .LVU348
 1558 008a 05F00703 		and	r3, r5, #7
 246:../../libdaisy/src/dev/oled_ssd130x.h ****     }
 1559              		.loc 20 246 49 view .LVU349
 1560 008e 0127     		movs	r7, #1
 246:../../libdaisy/src/dev/oled_ssd130x.h ****     }
 1561              		.loc 20 246 28 view .LVU350
 1562 0090 E808     		lsrs	r0, r5, #3
 246:../../libdaisy/src/dev/oled_ssd130x.h ****     }
 1563              		.loc 20 246 42 view .LVU351
 1564 0092 4146     		mov	r1, r8
 246:../../libdaisy/src/dev/oled_ssd130x.h ****     }
 1565              		.loc 20 246 49 view .LVU352
 1566 0094 9F40     		lsls	r7, r7, r3
 1567              	.LBE696:
 1568              	.LBE695:
 1569              	.LBE694:
 1570              	.LBE693:
 1571              	.LBE692:
 416:../../libdaisy/src/hid/disp/display.h ****             {
 1572              		.loc 6 416 19 view .LVU353
 1573 0096 0022     		movs	r2, #0
 1574 0098 0AEBC013 		add	r3, r10, r0, lsl #7
 1575              	.LBB714:
 1576              	.LBB709:
 1577              	.LBB704:
 1578              	.LBB700:
 1579              	.LBB697:
 246:../../libdaisy/src/dev/oled_ssd130x.h ****     }
 1580              		.loc 20 246 42 view .LVU354
 1581 009c 7FB2     		sxtb	r7, r7
 1582 009e 4B44     		add	r3, r3, r9
 1583 00a0 09EBC010 		add	r0, r9, r0, lsl #7
 1584 00a4 6FEA070C 		mvn	ip, r7
 1585 00a8 B846     		mov	r8, r7
 1586 00aa 0F46     		mov	r7, r1
 1587 00ac 0CE0     		b	.L109
 1588              	.LVL118:
 1589              	.L128:
 246:../../libdaisy/src/dev/oled_ssd130x.h ****     }
 1590              		.loc 20 246 42 view .LVU355
ARM GAS  /tmp/ccpjMo0x.s 			page 68


 1591              	.LBE697:
 1592              	.LBE700:
 1593              	.LBE704:
 1594              	.LBE709:
 1595              	.LBE714:
 1596              	.LBB715:
 1597              	.LBI715:
  41:../../libdaisy/src/hid/disp/oled_display.h ****     {
 1598              		.loc 5 41 10 is_stmt 1 view .LVU356
 1599              	.LBB716:
 1600              	.LBI716:
 239:../../libdaisy/src/dev/oled_ssd130x.h ****     {
 1601              		.loc 20 239 10 view .LVU357
 1602              	.LBB717:
 241:../../libdaisy/src/dev/oled_ssd130x.h ****             return;
 1603              		.loc 20 241 9 is_stmt 0 view .LVU358
 1604 00ae 7F29     		cmp	r1, #127
 1605 00b0 06D8     		bhi	.L105
 1606 00b2 3F2D     		cmp	r5, #63
 1607 00b4 04D8     		bhi	.L105
 244:../../libdaisy/src/dev/oled_ssd130x.h ****         else
 1608              		.loc 20 244 42 view .LVU359
 1609 00b6 197D     		ldrb	r1, [r3, #20]	@ zero_extendqisi2
 243:../../libdaisy/src/dev/oled_ssd130x.h ****             buffer_[x + (y / 8) * width] |= (1 << (y % 8));
 1610              		.loc 20 243 9 view .LVU360
 1611 00b8 A7B1     		cbz	r7, .L107
 1612              	.L124:
 243:../../libdaisy/src/dev/oled_ssd130x.h ****             buffer_[x + (y / 8) * width] |= (1 << (y % 8));
 1613              		.loc 20 243 9 view .LVU361
 1614              	.LBE717:
 1615              	.LBE716:
 1616              	.LBE715:
 1617              	.LBB720:
 1618              	.LBB710:
 1619              	.LBB705:
 244:../../libdaisy/src/dev/oled_ssd130x.h ****         else
 1620              		.loc 20 244 42 view .LVU362
 1621 00ba 48EA0101 		orr	r1, r8, r1
 244:../../libdaisy/src/dev/oled_ssd130x.h ****         else
 1622              		.loc 20 244 13 view .LVU363
 1623 00be 1975     		strb	r1, [r3, #20]
 1624              	.L105:
 1625              	.LBE705:
 1626              	.LBE710:
 1627              	.LBE720:
 416:../../libdaisy/src/hid/disp/display.h ****             {
 1628              		.loc 6 416 13 is_stmt 1 discriminator 2 view .LVU364
 1629 00c0 0132     		adds	r2, r2, #1
 1630              	.LVL119:
 416:../../libdaisy/src/hid/disp/display.h ****             {
 1631              		.loc 6 416 26 discriminator 2 view .LVU365
 1632 00c2 0133     		adds	r3, r3, #1
 1633 00c4 9642     		cmp	r6, r2
 1634 00c6 14D0     		beq	.L127
 1635              	.LVL120:
 1636              	.L109:
 418:../../libdaisy/src/hid/disp/display.h ****                 {
ARM GAS  /tmp/ccpjMo0x.s 			page 69


 1637              		.loc 6 418 23 is_stmt 0 view .LVU366
 1638 00c8 04FA02F1 		lsl	r1, r4, r2
 418:../../libdaisy/src/hid/disp/display.h ****                 {
 1639              		.loc 6 418 17 view .LVU367
 1640 00cc 11F4004F 		tst	r1, #32768
 1641              	.LBB721:
 1642              	.LBB719:
 1643              	.LBB718:
 241:../../libdaisy/src/dev/oled_ssd130x.h ****             return;
 1644              		.loc 20 241 14 view .LVU368
 1645 00d0 A3EB0001 		sub	r1, r3, r0
 1646              	.LBE718:
 1647              	.LBE719:
 1648              	.LBE721:
 418:../../libdaisy/src/hid/disp/display.h ****                 {
 1649              		.loc 6 418 17 view .LVU369
 1650 00d4 EBD1     		bne	.L128
 1651              	.LVL121:
 1652              	.LBB722:
 1653              	.LBI692:
  41:../../libdaisy/src/hid/disp/oled_display.h ****     {
 1654              		.loc 5 41 10 is_stmt 1 view .LVU370
 1655              	.LBB711:
 1656              	.LBI693:
 239:../../libdaisy/src/dev/oled_ssd130x.h ****     {
 1657              		.loc 20 239 10 view .LVU371
 1658              	.LBB706:
 241:../../libdaisy/src/dev/oled_ssd130x.h ****             return;
 1659              		.loc 20 241 9 is_stmt 0 view .LVU372
 1660 00d6 7F29     		cmp	r1, #127
 1661 00d8 F2D8     		bhi	.L105
 1662 00da 3F2D     		cmp	r5, #63
 1663 00dc F0D8     		bhi	.L105
 244:../../libdaisy/src/dev/oled_ssd130x.h ****         else
 1664              		.loc 20 244 42 view .LVU373
 1665 00de 197D     		ldrb	r1, [r3, #20]	@ zero_extendqisi2
 243:../../libdaisy/src/dev/oled_ssd130x.h ****             buffer_[x + (y / 8) * width] |= (1 << (y % 8));
 1666              		.loc 20 243 9 view .LVU374
 1667 00e0 002F     		cmp	r7, #0
 1668 00e2 EAD0     		beq	.L124
 1669              	.L107:
 1670              	.LVL122:
 1671              	.LBB701:
 1672              	.LBI695:
 239:../../libdaisy/src/dev/oled_ssd130x.h ****     {
 1673              		.loc 20 239 10 is_stmt 1 view .LVU375
 239:../../libdaisy/src/dev/oled_ssd130x.h ****     {
 1674              		.loc 20 239 10 is_stmt 0 view .LVU376
 1675              	.LBE701:
 1676              	.LBE706:
 1677              	.LBE711:
 1678              	.LBE722:
 416:../../libdaisy/src/hid/disp/display.h ****             {
 1679              		.loc 6 416 13 view .LVU377
 1680 00e4 0132     		adds	r2, r2, #1
 1681              	.LVL123:
 1682              	.LBB723:
ARM GAS  /tmp/ccpjMo0x.s 			page 70


 1683              	.LBB712:
 1684              	.LBB707:
 1685              	.LBB702:
 1686              	.LBB698:
 246:../../libdaisy/src/dev/oled_ssd130x.h ****     }
 1687              		.loc 20 246 42 view .LVU378
 1688 00e6 0CEA0101 		and	r1, ip, r1
 1689 00ea 0133     		adds	r3, r3, #1
 1690              	.LBE698:
 1691              	.LBE702:
 1692              	.LBE707:
 1693              	.LBE712:
 1694              	.LBE723:
 416:../../libdaisy/src/hid/disp/display.h ****             {
 1695              		.loc 6 416 26 view .LVU379
 1696 00ec 9642     		cmp	r6, r2
 1697              	.LBB724:
 1698              	.LBB713:
 1699              	.LBB708:
 1700              	.LBB703:
 1701              	.LBB699:
 246:../../libdaisy/src/dev/oled_ssd130x.h ****     }
 1702              		.loc 20 246 13 view .LVU380
 1703 00ee D974     		strb	r1, [r3, #19]
 246:../../libdaisy/src/dev/oled_ssd130x.h ****     }
 1704              		.loc 20 246 13 view .LVU381
 1705              	.LBE699:
 1706              	.LBE703:
 1707              	.LBE708:
 1708              	.LBE713:
 1709              	.LBE724:
 416:../../libdaisy/src/hid/disp/display.h ****             {
 1710              		.loc 6 416 13 is_stmt 1 view .LVU382
 1711              	.LVL124:
 416:../../libdaisy/src/hid/disp/display.h ****             {
 1712              		.loc 6 416 26 view .LVU383
 1713 00f0 EAD1     		bne	.L109
 1714              	.L127:
 416:../../libdaisy/src/hid/disp/display.h ****             {
 1715              		.loc 6 416 26 is_stmt 0 view .LVU384
 1716 00f2 B846     		mov	r8, r7
 1717              	.LVL125:
 1718              	.L108:
 413:../../libdaisy/src/hid/disp/display.h ****         {
 1719              		.loc 6 413 9 is_stmt 1 view .LVU385
 413:../../libdaisy/src/hid/disp/display.h ****         {
 1720              		.loc 6 413 22 view .LVU386
 1721 00f4 F345     		cmp	fp, lr
 1722 00f6 05F10105 		add	r5, r5, #1
 1723 00fa C3D1     		bne	.L103
 1724              	.LVL126:
 1725              	.L102:
 1726              	.LBB725:
 1727              	.LBB726:
 173:../../libdaisy/src/hid/disp/display.h ****         currentY_ = (y >= Height()) ? Height() - 1 : y;
 1728              		.loc 6 173 33 is_stmt 0 view .LVU387
 1729 00fc D9F80030 		ldr	r3, [r9]
ARM GAS  /tmp/ccpjMo0x.s 			page 71


 1730              	.LBE726:
 1731              	.LBE725:
 434:../../libdaisy/src/hid/disp/display.h **** 
 1732              		.loc 6 434 18 view .LVU388
 1733 0100 0AEB0604 		add	r4, r10, r6
 1734 0104 2549     		ldr	r1, .L134
 1735              	.LBB731:
 1736              	.LBB727:
 173:../../libdaisy/src/hid/disp/display.h ****         currentY_ = (y >= Height()) ? Height() - 1 : y;
 1737              		.loc 6 173 33 view .LVU389
 1738 0106 DA68     		ldr	r2, [r3, #12]
 1739              	.LBE727:
 1740              	.LBE731:
 434:../../libdaisy/src/hid/disp/display.h **** 
 1741              		.loc 6 434 18 view .LVU390
 1742 0108 A4B2     		uxth	r4, r4
 1743              	.LVL127:
 1744              	.LBB732:
 1745              	.LBI725:
 171:../../libdaisy/src/hid/disp/display.h ****     {
 1746              		.loc 6 171 10 is_stmt 1 view .LVU391
 1747              	.LBB728:
 173:../../libdaisy/src/hid/disp/display.h ****         currentY_ = (y >= Height()) ? Height() - 1 : y;
 1748              		.loc 6 173 9 view .LVU392
 1749 010a 8A42     		cmp	r2, r1
 1750 010c 31D1     		bne	.L129
 173:../../libdaisy/src/hid/disp/display.h ****         currentY_ = (y >= Height()) ? Height() - 1 : y;
 1751              		.loc 6 173 33 is_stmt 0 view .LVU393
 1752 010e 8020     		movs	r0, #128
 1753              	.L110:
 173:../../libdaisy/src/hid/disp/display.h ****         currentY_ = (y >= Height()) ? Height() - 1 : y;
 1754              		.loc 6 173 19 view .LVU394
 1755 0110 8442     		cmp	r4, r0
 1756 0112 1CD2     		bcs	.L130
 1757              	.LVL128:
 1758              	.L111:
 174:../../libdaisy/src/hid/disp/display.h ****     }
 1759              		.loc 6 174 34 view .LVU395
 1760 0114 9B68     		ldr	r3, [r3, #8]
 1761 0116 224A     		ldr	r2, .L134+4
 173:../../libdaisy/src/hid/disp/display.h ****         currentY_ = (y >= Height()) ? Height() - 1 : y;
 1762              		.loc 6 173 19 view .LVU396
 1763 0118 A9F80440 		strh	r4, [r9, #4]	@ movhi
 174:../../libdaisy/src/hid/disp/display.h ****     }
 1764              		.loc 6 174 9 is_stmt 1 view .LVU397
 1765 011c 9342     		cmp	r3, r2
 1766 011e 25D1     		bne	.L131
 174:../../libdaisy/src/hid/disp/display.h ****     }
 1767              		.loc 6 174 34 is_stmt 0 view .LVU398
 1768 0120 4020     		movs	r0, #64
 1769              	.L113:
 174:../../libdaisy/src/hid/disp/display.h ****     }
 1770              		.loc 6 174 19 view .LVU399
 1771 0122 019B     		ldr	r3, [sp, #4]
 1772 0124 8342     		cmp	r3, r0
 1773 0126 07D3     		bcc	.L114
 174:../../libdaisy/src/hid/disp/display.h ****     }
ARM GAS  /tmp/ccpjMo0x.s 			page 72


 1774              		.loc 6 174 46 view .LVU400
 1775 0128 D9F80030 		ldr	r3, [r9]
 1776 012c 1C4A     		ldr	r2, .L134+4
 1777 012e 9B68     		ldr	r3, [r3, #8]
 1778 0130 9342     		cmp	r3, r2
 1779 0132 2DD1     		bne	.L132
 1780 0134 3F23     		movs	r3, #63
 1781 0136 0193     		str	r3, [sp, #4]
 1782              	.LVL129:
 1783              	.L114:
 174:../../libdaisy/src/hid/disp/display.h ****     }
 1784              		.loc 6 174 19 view .LVU401
 1785 0138 DDE90003 		ldrd	r0, r3, [sp]
 1786 013c A9F80630 		strh	r3, [r9, #6]	@ movhi
 1787              	.LVL130:
 174:../../libdaisy/src/hid/disp/display.h ****     }
 1788              		.loc 6 174 19 view .LVU402
 1789              	.LBE728:
 1790              	.LBE732:
 438:../../libdaisy/src/hid/disp/display.h **** 
 1791              		.loc 6 438 5 view .LVU403
 1792 0140 05B0     		add	sp, sp, #20
 1793              		.cfi_remember_state
 1794              		.cfi_def_cfa_offset 36
 1795              		@ sp needed
 1796 0142 BDE8F08F 		pop	{r4, r5, r6, r7, r8, r9, r10, fp, pc}
 1797              	.LVL131:
 1798              	.L98:
 1799              		.cfi_restore_state
 402:../../libdaisy/src/hid/disp/display.h **** 
 1800              		.loc 6 402 20 view .LVU404
 1801 0146 0020     		movs	r0, #0
 438:../../libdaisy/src/hid/disp/display.h **** 
 1802              		.loc 6 438 5 view .LVU405
 1803 0148 05B0     		add	sp, sp, #20
 1804              		.cfi_remember_state
 1805              		.cfi_def_cfa_offset 36
 1806              		@ sp needed
 1807 014a BDE8F08F 		pop	{r4, r5, r6, r7, r8, r9, r10, fp, pc}
 1808              	.LVL132:
 1809              	.L130:
 1810              		.cfi_restore_state
 1811              	.LBB733:
 1812              	.LBB729:
 173:../../libdaisy/src/hid/disp/display.h ****         currentY_ = (y >= Height()) ? Height() - 1 : y;
 1813              		.loc 6 173 44 view .LVU406
 1814 014e DA68     		ldr	r2, [r3, #12]
 1815 0150 1249     		ldr	r1, .L134
 1816 0152 8A42     		cmp	r2, r1
 1817 0154 15D1     		bne	.L133
 1818 0156 7F24     		movs	r4, #127
 1819              	.LVL133:
 173:../../libdaisy/src/hid/disp/display.h ****         currentY_ = (y >= Height()) ? Height() - 1 : y;
 1820              		.loc 6 173 44 view .LVU407
 1821 0158 DCE7     		b	.L111
 1822              	.LVL134:
 1823              	.L125:
ARM GAS  /tmp/ccpjMo0x.s 			page 73


 173:../../libdaisy/src/hid/disp/display.h ****         currentY_ = (y >= Height()) ? Height() - 1 : y;
 1824              		.loc 6 173 44 view .LVU408
 1825              	.LBE729:
 1826              	.LBE733:
 405:../../libdaisy/src/hid/disp/display.h ****            || Height() < (currentY_ + font.FontHeight))
 1827              		.loc 6 405 17 view .LVU409
 1828 015a 9847     		blx	r3
 1829              	.LVL135:
 405:../../libdaisy/src/hid/disp/display.h ****            || Height() < (currentY_ + font.FontHeight))
 1830              		.loc 6 405 17 view .LVU410
 1831 015c 0246     		mov	r2, r0
 1832 015e 0190     		str	r0, [sp, #4]
 1833 0160 69E7     		b	.L97
 1834              	.L126:
 406:../../libdaisy/src/hid/disp/display.h ****         {
 1835              		.loc 6 406 21 discriminator 2 view .LVU411
 1836 0162 4846     		mov	r0, r9
 1837 0164 9847     		blx	r3
 1838              	.LVL136:
 1839 0166 0346     		mov	r3, r0
 1840 0168 0190     		str	r0, [sp, #4]
 1841 016a 72E7     		b	.L99
 1842              	.LVL137:
 1843              	.L131:
 1844              	.LBB734:
 1845              	.LBB730:
 174:../../libdaisy/src/hid/disp/display.h ****     }
 1846              		.loc 6 174 33 view .LVU412
 1847 016c 4846     		mov	r0, r9
 1848 016e 9847     		blx	r3
 1849              	.LVL138:
 1850 0170 D7E7     		b	.L113
 1851              	.LVL139:
 1852              	.L129:
 173:../../libdaisy/src/hid/disp/display.h ****         currentY_ = (y >= Height()) ? Height() - 1 : y;
 1853              		.loc 6 173 32 view .LVU413
 1854 0172 4846     		mov	r0, r9
 1855 0174 9047     		blx	r2
 1856              	.LVL140:
 1857 0176 D9F80030 		ldr	r3, [r9]
 1858 017a C9E7     		b	.L110
 1859              	.LVL141:
 1860              	.L100:
 173:../../libdaisy/src/hid/disp/display.h ****         currentY_ = (y >= Height()) ? Height() - 1 : y;
 1861              		.loc 6 173 32 view .LVU414
 1862 017c B9F804A0 		ldrh	r10, [r9, #4]
 1863 0180 BCE7     		b	.L102
 1864              	.LVL142:
 1865              	.L133:
 173:../../libdaisy/src/hid/disp/display.h ****         currentY_ = (y >= Height()) ? Height() - 1 : y;
 1866              		.loc 6 173 43 view .LVU415
 1867 0182 4846     		mov	r0, r9
 1868 0184 9047     		blx	r2
 1869              	.LVL143:
 1870 0186 0138     		subs	r0, r0, #1
 1871 0188 D9F80030 		ldr	r3, [r9]
 1872 018c 84B2     		uxth	r4, r0
ARM GAS  /tmp/ccpjMo0x.s 			page 74


 1873              	.LVL144:
 173:../../libdaisy/src/hid/disp/display.h ****         currentY_ = (y >= Height()) ? Height() - 1 : y;
 1874              		.loc 6 173 43 view .LVU416
 1875 018e C1E7     		b	.L111
 1876              	.L132:
 174:../../libdaisy/src/hid/disp/display.h ****     }
 1877              		.loc 6 174 45 view .LVU417
 1878 0190 4846     		mov	r0, r9
 1879 0192 9847     		blx	r3
 1880              	.LVL145:
 1881 0194 0138     		subs	r0, r0, #1
 1882 0196 83B2     		uxth	r3, r0
 1883 0198 0193     		str	r3, [sp, #4]
 1884              	.LVL146:
 174:../../libdaisy/src/hid/disp/display.h ****     }
 1885              		.loc 6 174 45 view .LVU418
 1886 019a CDE7     		b	.L114
 1887              	.L135:
 1888              		.align	2
 1889              	.L134:
 1890 019c 00000000 		.word	_ZNK5daisy11OledDisplayINS_13SSD130xDriverILj128ELj64ENS_24SSD130x4WireSpiTransportEEEE5Widt
 1891 01a0 00000000 		.word	_ZNK5daisy11OledDisplayINS_13SSD130xDriverILj128ELj64ENS_24SSD130x4WireSpiTransportEEEE6Heig
 1892              	.LBE730:
 1893              	.LBE734:
 1894              		.cfi_endproc
 1895              	.LFE4838:
 1897              		.section	.text._ZN5daisy25OneBitGraphicsDisplayImplINS_11OledDisplayINS_13SSD130xDriverILj128ELj64
 1898              		.align	1
 1899              		.p2align 2,,3
 1900              		.weak	_ZN5daisy25OneBitGraphicsDisplayImplINS_11OledDisplayINS_13SSD130xDriverILj128ELj64ENS_24SSD
 1901              		.syntax unified
 1902              		.thumb
 1903              		.thumb_func
 1904              		.fpu fpv5-d16
 1906              	_ZN5daisy25OneBitGraphicsDisplayImplINS_11OledDisplayINS_13SSD130xDriverILj128ELj64ENS_24SSD130x4Wi
 1907              	.LVL147:
 1908              	.LFB4840:
 459:../../libdaisy/src/hid/disp/display.h **** 
 460:../../libdaisy/src/hid/disp/display.h ****     Rectangle WriteStringAligned(const char*    str,
 1909              		.loc 6 460 15 is_stmt 1 view -0
 1910              		.cfi_startproc
 1911              		@ args = 12, pretend = 0, frame = 40
 1912              		@ frame_needed = 0, uses_anonymous_args = 0
 1913              		.loc 6 460 15 is_stmt 0 view .LVU420
 1914 0000 2DE9F04F 		push	{r4, r5, r6, r7, r8, r9, r10, fp, lr}
 1915              		.cfi_def_cfa_offset 36
 1916              		.cfi_offset 4, -36
 1917              		.cfi_offset 5, -32
 1918              		.cfi_offset 6, -28
 1919              		.cfi_offset 7, -24
 1920              		.cfi_offset 8, -20
 1921              		.cfi_offset 9, -16
 1922              		.cfi_offset 10, -12
 1923              		.cfi_offset 11, -8
 1924              		.cfi_offset 14, -4
 1925 0004 0C46     		mov	r4, r1
 1926 0006 8BB0     		sub	sp, sp, #44
ARM GAS  /tmp/ccpjMo0x.s 			page 75


 1927              		.cfi_def_cfa_offset 80
 1928              	.LBB869:
 1929              	.LBB870:
 1930              	.LBB871:
 1931              	.LBB872:
 461:../../libdaisy/src/hid/disp/display.h ****                                  const FontDef& font,
 462:../../libdaisy/src/hid/disp/display.h ****                                  Rectangle      boundingBox,
 463:../../libdaisy/src/hid/disp/display.h ****                                  Alignment      alignment,
 464:../../libdaisy/src/hid/disp/display.h ****                                  bool           on) override
 465:../../libdaisy/src/hid/disp/display.h ****     {
 466:../../libdaisy/src/hid/disp/display.h ****         const auto alignedRect
 467:../../libdaisy/src/hid/disp/display.h ****             = GetTextRect(str, font).AlignedWithin(boundingBox, alignment);
 468:../../libdaisy/src/hid/disp/display.h ****         SetCursor(alignedRect.GetX(), alignedRect.GetY());
 469:../../libdaisy/src/hid/disp/display.h ****         ((ChildType*)(this))->ChildType::WriteString(str, font, on);
 470:../../libdaisy/src/hid/disp/display.h ****         return alignedRect;
 471:../../libdaisy/src/hid/disp/display.h ****     }
 472:../../libdaisy/src/hid/disp/display.h **** 
 473:../../libdaisy/src/hid/disp/display.h ****   private:
 474:../../libdaisy/src/hid/disp/display.h ****     uint32_t strlen(const char* string)
 475:../../libdaisy/src/hid/disp/display.h ****     {
 476:../../libdaisy/src/hid/disp/display.h ****         uint32_t result = 0;
 477:../../libdaisy/src/hid/disp/display.h ****         while(*string++ != '\0')
 1932              		.loc 6 477 25 view .LVU421
 1933 0008 1146     		mov	r1, r2
 1934              	.LVL148:
 1935              		.loc 6 477 25 view .LVU422
 1936              	.LBE872:
 1937              	.LBE871:
 1938              	.LBE870:
 1939              	.LBE869:
 460:../../libdaisy/src/hid/disp/display.h ****                                  const FontDef& font,
 1940              		.loc 6 460 15 view .LVU423
 1941 000a 9046     		mov	r8, r2
 1942 000c 0990     		str	r0, [sp, #36]
 1943 000e 1D46     		mov	r5, r3
 1944              	.LVL149:
 1945              	.LBB887:
 1946              	.LBI869:
 478:../../libdaisy/src/hid/disp/display.h ****             result++;
 479:../../libdaisy/src/hid/disp/display.h ****         return result;
 480:../../libdaisy/src/hid/disp/display.h ****     }
 481:../../libdaisy/src/hid/disp/display.h **** 
 482:../../libdaisy/src/hid/disp/display.h ****     Rectangle GetTextRect(const char* text, const FontDef& font)
 1947              		.loc 6 482 15 is_stmt 1 view .LVU424
 1948              	.LBB883:
 1949              	.LBB876:
 1950              	.LBB873:
 477:../../libdaisy/src/hid/disp/display.h ****             result++;
 1951              		.loc 6 477 25 view .LVU425
 477:../../libdaisy/src/hid/disp/display.h ****             result++;
 1952              		.loc 6 477 25 is_stmt 0 view .LVU426
 1953              	.LBE873:
 1954              	.LBE876:
 1955              	.LBE883:
 1956              	.LBE887:
