ARM GAS  /tmp/ccjLgGKX.s 			page 1


   1              		.cpu cortex-m7
   2              		.eabi_attribute 28, 1
   3              		.eabi_attribute 20, 1
   4              		.eabi_attribute 21, 1
   5              		.eabi_attribute 23, 3
   6              		.eabi_attribute 24, 1
   7              		.eabi_attribute 25, 1
   8              		.eabi_attribute 26, 1
   9              		.eabi_attribute 30, 2
  10              		.eabi_attribute 34, 1
  11              		.eabi_attribute 18, 4
  12              		.file	"Decimator.cpp"
  13              		.text
  14              	.Ltext0:
  15              		.cfi_sections	.debug_frame
  16              		.section	.text._ZN5daisy11DaisyVersioD2Ev,"axG",%progbits,_ZN5daisy11DaisyVersioD5Ev,comdat
  17              		.align	1
  18              		.p2align 2,,3
  19              		.weak	_ZN5daisy11DaisyVersioD2Ev
  20              		.arch armv7e-m
  21              		.syntax unified
  22              		.thumb
  23              		.thumb_func
  24              		.fpu fpv5-d16
  26              	_ZN5daisy11DaisyVersioD2Ev:
  27              	.LVL0:
  28              	.LFB2046:
  29              		.file 1 "../../libdaisy/src/daisy_versio.h"
   1:../../libdaisy/src/daisy_versio.h **** #pragma once
   2:../../libdaisy/src/daisy_versio.h **** #include "daisy_seed.h"
   3:../../libdaisy/src/daisy_versio.h **** 
   4:../../libdaisy/src/daisy_versio.h **** namespace daisy
   5:../../libdaisy/src/daisy_versio.h **** {
   6:../../libdaisy/src/daisy_versio.h **** /**
   7:../../libdaisy/src/daisy_versio.h ****     @brief Class that handles initializing all of the hardware specific to the Desmodus Versio hard
   8:../../libdaisy/src/daisy_versio.h ****     Helper funtions are also in place to provide easy access to built-in controls and peripherals.
   9:../../libdaisy/src/daisy_versio.h ****     @author Ankoor Apte, Noise Engineering
  10:../../libdaisy/src/daisy_versio.h ****     @date October 2020
  11:../../libdaisy/src/daisy_versio.h ****     @ingroup boards
  12:../../libdaisy/src/daisy_versio.h **** */
  13:../../libdaisy/src/daisy_versio.h **** class DaisyVersio
  14:../../libdaisy/src/daisy_versio.h **** {
  15:../../libdaisy/src/daisy_versio.h ****   public:
  16:../../libdaisy/src/daisy_versio.h ****     // ENUMS to help index 4 LEDs, 7 knobs/CV inputs, 2 3-position switches
  17:../../libdaisy/src/daisy_versio.h ****     enum AV_LEDS
  18:../../libdaisy/src/daisy_versio.h ****     {
  19:../../libdaisy/src/daisy_versio.h ****         LED_0,
  20:../../libdaisy/src/daisy_versio.h ****         LED_1,
  21:../../libdaisy/src/daisy_versio.h ****         LED_2,
  22:../../libdaisy/src/daisy_versio.h ****         LED_3,
  23:../../libdaisy/src/daisy_versio.h ****         LED_LAST
  24:../../libdaisy/src/daisy_versio.h ****     };
  25:../../libdaisy/src/daisy_versio.h **** 
  26:../../libdaisy/src/daisy_versio.h ****     enum AV_KNOBS
  27:../../libdaisy/src/daisy_versio.h ****     {
  28:../../libdaisy/src/daisy_versio.h ****         KNOB_0,
  29:../../libdaisy/src/daisy_versio.h ****         KNOB_1,
ARM GAS  /tmp/ccjLgGKX.s 			page 2


  30:../../libdaisy/src/daisy_versio.h ****         KNOB_2,
  31:../../libdaisy/src/daisy_versio.h ****         KNOB_3,
  32:../../libdaisy/src/daisy_versio.h ****         KNOB_4,
  33:../../libdaisy/src/daisy_versio.h ****         KNOB_5,
  34:../../libdaisy/src/daisy_versio.h ****         KNOB_6,
  35:../../libdaisy/src/daisy_versio.h ****         KNOB_LAST
  36:../../libdaisy/src/daisy_versio.h ****     };
  37:../../libdaisy/src/daisy_versio.h **** 
  38:../../libdaisy/src/daisy_versio.h ****     enum AV_TOGGLE3
  39:../../libdaisy/src/daisy_versio.h ****     {
  40:../../libdaisy/src/daisy_versio.h ****         SW_0,
  41:../../libdaisy/src/daisy_versio.h ****         SW_1,
  42:../../libdaisy/src/daisy_versio.h ****         SW_LAST
  43:../../libdaisy/src/daisy_versio.h ****     };
  44:../../libdaisy/src/daisy_versio.h **** 
  45:../../libdaisy/src/daisy_versio.h ****     DaisyVersio() {}
  46:../../libdaisy/src/daisy_versio.h ****     ~DaisyVersio() {}
  30              		.loc 1 46 5 view -0
  31              		.cfi_startproc
  32              		@ args = 0, pretend = 0, frame = 0
  33              		@ frame_needed = 0, uses_anonymous_args = 0
  34              		@ link register save eliminated.
  35              	.LBB170:
  36              	.LBI170:
  37              		.file 2 "../../libdaisy/src/hid/gatein.h"
   1:../../libdaisy/src/hid/gatein.h **** #pragma once
   2:../../libdaisy/src/hid/gatein.h **** #ifndef DSY_GATEIN_H
   3:../../libdaisy/src/hid/gatein.h **** #define DSY_GATEIN_H
   4:../../libdaisy/src/hid/gatein.h **** #include "per/gpio.h"
   5:../../libdaisy/src/hid/gatein.h **** 
   6:../../libdaisy/src/hid/gatein.h **** namespace daisy
   7:../../libdaisy/src/hid/gatein.h **** {
   8:../../libdaisy/src/hid/gatein.h **** /** @file hid_gatein.h */
   9:../../libdaisy/src/hid/gatein.h **** /**
  10:../../libdaisy/src/hid/gatein.h ****    @brief Generic Class for handling gate inputs through GPIO.
  11:../../libdaisy/src/hid/gatein.h ****    @author Stephen Hensley
  12:../../libdaisy/src/hid/gatein.h ****    @date    March 2020
  13:../../libdaisy/src/hid/gatein.h ****    @ingroup controls
  14:../../libdaisy/src/hid/gatein.h **** */
  15:../../libdaisy/src/hid/gatein.h **** class GateIn
  16:../../libdaisy/src/hid/gatein.h **** {
  17:../../libdaisy/src/hid/gatein.h ****   public:
  18:../../libdaisy/src/hid/gatein.h ****     /** GateIn 
  19:../../libdaisy/src/hid/gatein.h ****     Constructor 
  20:../../libdaisy/src/hid/gatein.h ****     */
  21:../../libdaisy/src/hid/gatein.h ****     GateIn() {}
  22:../../libdaisy/src/hid/gatein.h ****     /** GateIn~
  23:../../libdaisy/src/hid/gatein.h ****     Destructor 
  24:../../libdaisy/src/hid/gatein.h ****     */
  25:../../libdaisy/src/hid/gatein.h ****     ~GateIn() {}
  38              		.loc 2 25 5 view .LVU1
  39              		.loc 2 25 5 is_stmt 0 view .LVU2
  40              	.LBE170:
  41              	.LBB171:
  42              	.LBI171:
  43              		.file 3 "../../libdaisy/src/hid/switch.h"
   1:../../libdaisy/src/hid/switch.h **** #pragma once
ARM GAS  /tmp/ccjLgGKX.s 			page 3


   2:../../libdaisy/src/hid/switch.h **** #ifndef DSY_SWITCH_H
   3:../../libdaisy/src/hid/switch.h **** #define DSY_SWITCH_H
   4:../../libdaisy/src/hid/switch.h **** #include "daisy_core.h"
   5:../../libdaisy/src/hid/switch.h **** #include "per/gpio.h"
   6:../../libdaisy/src/hid/switch.h **** 
   7:../../libdaisy/src/hid/switch.h **** namespace daisy
   8:../../libdaisy/src/hid/switch.h **** {
   9:../../libdaisy/src/hid/switch.h **** /** 
  10:../../libdaisy/src/hid/switch.h ****     Generic Class for handling momentary/latching switches \n 
  11:../../libdaisy/src/hid/switch.h ****     Inspired/influenced by Mutable Instruments (pichenettes) Switch classes
  12:../../libdaisy/src/hid/switch.h ****     @author Stephen Hensley
  13:../../libdaisy/src/hid/switch.h ****     @date December 2019
  14:../../libdaisy/src/hid/switch.h ****     @ingroup controls
  15:../../libdaisy/src/hid/switch.h **** */
  16:../../libdaisy/src/hid/switch.h **** class Switch
  17:../../libdaisy/src/hid/switch.h **** {
  18:../../libdaisy/src/hid/switch.h ****   public:
  19:../../libdaisy/src/hid/switch.h ****     /** Specifies the expected behavior of the switch */
  20:../../libdaisy/src/hid/switch.h ****     enum Type
  21:../../libdaisy/src/hid/switch.h ****     {
  22:../../libdaisy/src/hid/switch.h ****         TYPE_TOGGLE,    /**< & */
  23:../../libdaisy/src/hid/switch.h ****         TYPE_MOMENTARY, /**< & */
  24:../../libdaisy/src/hid/switch.h ****     };
  25:../../libdaisy/src/hid/switch.h ****     /** Specifies whether the pressed is HIGH or LOW. */
  26:../../libdaisy/src/hid/switch.h ****     enum Polarity
  27:../../libdaisy/src/hid/switch.h ****     {
  28:../../libdaisy/src/hid/switch.h ****         POLARITY_NORMAL,   /**< & */
  29:../../libdaisy/src/hid/switch.h ****         POLARITY_INVERTED, /**< & */
  30:../../libdaisy/src/hid/switch.h ****     };
  31:../../libdaisy/src/hid/switch.h **** 
  32:../../libdaisy/src/hid/switch.h ****     /** Specifies whether to use built-in Pull Up/Down resistors to hold button at a given state wh
  33:../../libdaisy/src/hid/switch.h ****     enum Pull
  34:../../libdaisy/src/hid/switch.h ****     {
  35:../../libdaisy/src/hid/switch.h ****         PULL_UP,   /**< & */
  36:../../libdaisy/src/hid/switch.h ****         PULL_DOWN, /**< & */
  37:../../libdaisy/src/hid/switch.h ****         PULL_NONE, /**< & */
  38:../../libdaisy/src/hid/switch.h ****     };
  39:../../libdaisy/src/hid/switch.h **** 
  40:../../libdaisy/src/hid/switch.h ****     Switch() {}
  41:../../libdaisy/src/hid/switch.h ****     ~Switch() {}
  44              		.loc 3 41 5 is_stmt 1 view .LVU3
  45              		.loc 3 41 5 is_stmt 0 view .LVU4
  46              	.LBE171:
  47              	.LBB172:
  48              	.LBI172:
  49              		.file 4 "../../libdaisy/src/daisy_seed.h"
   1:../../libdaisy/src/daisy_seed.h **** #pragma once
   2:../../libdaisy/src/daisy_seed.h **** #ifndef DSY_SEED_H
   3:../../libdaisy/src/daisy_seed.h **** #define DSY_SEED_H
   4:../../libdaisy/src/daisy_seed.h **** 
   5:../../libdaisy/src/daisy_seed.h **** #include "daisy.h"
   6:../../libdaisy/src/daisy_seed.h **** 
   7:../../libdaisy/src/daisy_seed.h **** //Uncomment this out if you're still using the rev2 hardware
   8:../../libdaisy/src/daisy_seed.h **** //#define SEED_REV2
   9:../../libdaisy/src/daisy_seed.h **** 
  10:../../libdaisy/src/daisy_seed.h **** namespace daisy
  11:../../libdaisy/src/daisy_seed.h **** {
ARM GAS  /tmp/ccjLgGKX.s 			page 4


  12:../../libdaisy/src/daisy_seed.h **** /**
  13:../../libdaisy/src/daisy_seed.h ****    @brief This is the higher-level interface for the Daisy board. \n 
  14:../../libdaisy/src/daisy_seed.h ****     All basic peripheral configuration/initialization is setup here. \n
  15:../../libdaisy/src/daisy_seed.h **** 
  16:../../libdaisy/src/daisy_seed.h ****    @ingroup boards
  17:../../libdaisy/src/daisy_seed.h **** */
  18:../../libdaisy/src/daisy_seed.h **** class DaisySeed
  19:../../libdaisy/src/daisy_seed.h **** {
  20:../../libdaisy/src/daisy_seed.h ****   public:
  21:../../libdaisy/src/daisy_seed.h ****     DaisySeed() {}
  22:../../libdaisy/src/daisy_seed.h ****     ~DaisySeed() {}
  50              		.loc 4 22 5 is_stmt 1 view .LVU5
  51              	.LBB173:
  52              	.LBI173:
  53              		.file 5 "../../libdaisy/src/sys/system.h"
   1:../../libdaisy/src/sys/system.h **** #ifndef DSY_SYSTEM_H
   2:../../libdaisy/src/sys/system.h **** #define DSY_SYSTEM_H
   3:../../libdaisy/src/sys/system.h **** 
   4:../../libdaisy/src/sys/system.h **** #ifndef UNIT_TEST // for unit tests, a dummy implementation is provided below
   5:../../libdaisy/src/sys/system.h **** 
   6:../../libdaisy/src/sys/system.h **** #include <cstdint>
   7:../../libdaisy/src/sys/system.h **** #include "per/tim.h"
   8:../../libdaisy/src/sys/system.h **** 
   9:../../libdaisy/src/sys/system.h **** namespace daisy
  10:../../libdaisy/src/sys/system.h **** {
  11:../../libdaisy/src/sys/system.h **** /** A handle for interacting with the Core System. 
  12:../../libdaisy/src/sys/system.h ****  ** This includes the Clock tree, MPU, global DMA initialization,
  13:../../libdaisy/src/sys/system.h ****  ** cache handling, and any other necessary global initiailzation
  14:../../libdaisy/src/sys/system.h ****  **
  15:../../libdaisy/src/sys/system.h ****  ** @author shensley
  16:../../libdaisy/src/sys/system.h ****  ** @addtogroup system
  17:../../libdaisy/src/sys/system.h ****  */
  18:../../libdaisy/src/sys/system.h **** class System
  19:../../libdaisy/src/sys/system.h **** {
  20:../../libdaisy/src/sys/system.h ****   public:
  21:../../libdaisy/src/sys/system.h ****     /** Contains settings for initializing the System */
  22:../../libdaisy/src/sys/system.h ****     struct Config
  23:../../libdaisy/src/sys/system.h ****     {
  24:../../libdaisy/src/sys/system.h ****         /** Specifies the system clock frequency that feeds APB/AHB clocks, etc. */
  25:../../libdaisy/src/sys/system.h ****         enum class SysClkFreq
  26:../../libdaisy/src/sys/system.h ****         {
  27:../../libdaisy/src/sys/system.h ****             FREQ_400MHZ,
  28:../../libdaisy/src/sys/system.h ****             FREQ_480MHZ,
  29:../../libdaisy/src/sys/system.h ****         };
  30:../../libdaisy/src/sys/system.h **** 
  31:../../libdaisy/src/sys/system.h ****         /** Method to call on the struct to set to defaults
  32:../../libdaisy/src/sys/system.h ****          ** CPU Freq set to 400MHz
  33:../../libdaisy/src/sys/system.h ****          ** Cache Enabled 
  34:../../libdaisy/src/sys/system.h ****          ** */
  35:../../libdaisy/src/sys/system.h ****         void Defaults()
  36:../../libdaisy/src/sys/system.h ****         {
  37:../../libdaisy/src/sys/system.h ****             cpu_freq   = SysClkFreq::FREQ_400MHZ;
  38:../../libdaisy/src/sys/system.h ****             use_dcache = true;
  39:../../libdaisy/src/sys/system.h ****             use_icache = true;
  40:../../libdaisy/src/sys/system.h ****         }
  41:../../libdaisy/src/sys/system.h **** 
  42:../../libdaisy/src/sys/system.h ****         /** Method to call on the struct to set to boost mode:
ARM GAS  /tmp/ccjLgGKX.s 			page 5


  43:../../libdaisy/src/sys/system.h ****          ** CPU Freq set to 480MHz
  44:../../libdaisy/src/sys/system.h ****          ** Cache Enabled 
  45:../../libdaisy/src/sys/system.h ****          ** */
  46:../../libdaisy/src/sys/system.h ****         void Boost()
  47:../../libdaisy/src/sys/system.h ****         {
  48:../../libdaisy/src/sys/system.h ****             cpu_freq   = SysClkFreq::FREQ_480MHZ;
  49:../../libdaisy/src/sys/system.h ****             use_dcache = true;
  50:../../libdaisy/src/sys/system.h ****             use_icache = true;
  51:../../libdaisy/src/sys/system.h ****         }
  52:../../libdaisy/src/sys/system.h **** 
  53:../../libdaisy/src/sys/system.h ****         SysClkFreq cpu_freq;
  54:../../libdaisy/src/sys/system.h ****         bool       use_dcache;
  55:../../libdaisy/src/sys/system.h ****         bool       use_icache;
  56:../../libdaisy/src/sys/system.h ****     };
  57:../../libdaisy/src/sys/system.h **** 
  58:../../libdaisy/src/sys/system.h ****     System() {}
  59:../../libdaisy/src/sys/system.h ****     ~System() {}
  54              		.loc 5 59 5 view .LVU6
  55              		.loc 5 59 5 is_stmt 0 view .LVU7
  56              	.LBE173:
  57              	.LBB174:
  58              	.LBI174:
  59              		.file 6 "../../libdaisy/src/hid/usb.h"
   1:../../libdaisy/src/hid/usb.h **** #pragma once
   2:../../libdaisy/src/hid/usb.h **** #ifndef DSY_HID_USB_H
   3:../../libdaisy/src/hid/usb.h **** #define DSY_HID_USB_H
   4:../../libdaisy/src/hid/usb.h **** #include <stdint.h>
   5:../../libdaisy/src/hid/usb.h **** #include <stdlib.h>
   6:../../libdaisy/src/hid/usb.h **** 
   7:../../libdaisy/src/hid/usb.h **** namespace daisy
   8:../../libdaisy/src/hid/usb.h **** /** @addtogroup externals
   9:../../libdaisy/src/hid/usb.h ****     @{
  10:../../libdaisy/src/hid/usb.h **** */
  11:../../libdaisy/src/hid/usb.h **** 
  12:../../libdaisy/src/hid/usb.h **** {
  13:../../libdaisy/src/hid/usb.h **** /** 
  14:../../libdaisy/src/hid/usb.h ****     @brief Interface for initializing and using the USB Peripherals on the daisy
  15:../../libdaisy/src/hid/usb.h ****     @author Stephen Hensley
  16:../../libdaisy/src/hid/usb.h ****     @date December 2019
  17:../../libdaisy/src/hid/usb.h **** */
  18:../../libdaisy/src/hid/usb.h **** class UsbHandle
  19:../../libdaisy/src/hid/usb.h **** {
  20:../../libdaisy/src/hid/usb.h ****   public:
  21:../../libdaisy/src/hid/usb.h ****     /** Return values for USBHandle Functions */
  22:../../libdaisy/src/hid/usb.h ****     enum class Result
  23:../../libdaisy/src/hid/usb.h ****     {
  24:../../libdaisy/src/hid/usb.h ****         OK,
  25:../../libdaisy/src/hid/usb.h ****         ERR,
  26:../../libdaisy/src/hid/usb.h ****     };
  27:../../libdaisy/src/hid/usb.h **** 
  28:../../libdaisy/src/hid/usb.h ****     /** Specified which of the two USB Peripherals to initialize. */
  29:../../libdaisy/src/hid/usb.h ****     enum UsbPeriph
  30:../../libdaisy/src/hid/usb.h ****     {
  31:../../libdaisy/src/hid/usb.h ****         FS_INTERNAL, /**< Internal pin */
  32:../../libdaisy/src/hid/usb.h ****         FS_EXTERNAL, /**< FS External D+ pin is Pin 38 (GPIO32). FS External D- pin is Pin 37 (GPIO
  33:../../libdaisy/src/hid/usb.h ****         FS_BOTH,     /**< Both */
  34:../../libdaisy/src/hid/usb.h ****     };
ARM GAS  /tmp/ccjLgGKX.s 			page 6


  35:../../libdaisy/src/hid/usb.h **** 
  36:../../libdaisy/src/hid/usb.h **** 
  37:../../libdaisy/src/hid/usb.h ****     /** Function called upon reception of a buffer */
  38:../../libdaisy/src/hid/usb.h ****     typedef void (*ReceiveCallback)(uint8_t* buff, uint32_t* len);
  39:../../libdaisy/src/hid/usb.h **** 
  40:../../libdaisy/src/hid/usb.h ****     UsbHandle() {}
  41:../../libdaisy/src/hid/usb.h **** 
  42:../../libdaisy/src/hid/usb.h ****     ~UsbHandle() {}
  60              		.loc 6 42 5 is_stmt 1 view .LVU8
  61              		.loc 6 42 5 is_stmt 0 view .LVU9
  62              	.LBE174:
  63              	.LBB175:
  64              	.LBI175:
  65              		.file 7 "../../libdaisy/src/per/adc.h"
   1:../../libdaisy/src/per/adc.h **** #pragma once
   2:../../libdaisy/src/per/adc.h **** #ifndef DSY_ADC_H
   3:../../libdaisy/src/per/adc.h **** #define DSY_ADC_H /**< Macro */
   4:../../libdaisy/src/per/adc.h **** #include <stdint.h>
   5:../../libdaisy/src/per/adc.h **** #include <stdlib.h>
   6:../../libdaisy/src/per/adc.h **** #include "daisy_core.h"
   7:../../libdaisy/src/per/adc.h **** #include "per/gpio.h"
   8:../../libdaisy/src/per/adc.h **** 
   9:../../libdaisy/src/per/adc.h **** #define DSY_ADC_MAX_CHANNELS 14 /**< Maximum number of ADC channels */
  10:../../libdaisy/src/per/adc.h **** 
  11:../../libdaisy/src/per/adc.h **** namespace daisy
  12:../../libdaisy/src/per/adc.h **** {
  13:../../libdaisy/src/per/adc.h **** /** @addtogroup analog_digital_conversion
  14:../../libdaisy/src/per/adc.h ****     @{
  15:../../libdaisy/src/per/adc.h **** */
  16:../../libdaisy/src/per/adc.h **** 
  17:../../libdaisy/src/per/adc.h **** /* While there may not be many configuration options here,
  18:../../libdaisy/src/per/adc.h **** using a struct like this allows us to add more configuration
  19:../../libdaisy/src/per/adc.h **** later without breaking existing functionality.
  20:../../libdaisy/src/per/adc.h **** */
  21:../../libdaisy/src/per/adc.h **** 
  22:../../libdaisy/src/per/adc.h **** /** Configuration Structure for a given channel */
  23:../../libdaisy/src/per/adc.h **** struct AdcChannelConfig
  24:../../libdaisy/src/per/adc.h **** {
  25:../../libdaisy/src/per/adc.h ****     /** Which pin to use for multiplexing */
  26:../../libdaisy/src/per/adc.h ****     enum MuxPin
  27:../../libdaisy/src/per/adc.h ****     {
  28:../../libdaisy/src/per/adc.h ****         MUX_SEL_0,    /**< & */
  29:../../libdaisy/src/per/adc.h ****         MUX_SEL_1,    /**< & */
  30:../../libdaisy/src/per/adc.h ****         MUX_SEL_2,    /**< & */
  31:../../libdaisy/src/per/adc.h ****         MUX_SEL_LAST, /**< & */
  32:../../libdaisy/src/per/adc.h ****     };
  33:../../libdaisy/src/per/adc.h **** 
  34:../../libdaisy/src/per/adc.h ****     /** Initializes a single ADC pin as an ADC. 
  35:../../libdaisy/src/per/adc.h ****     \param pin Pin to init.
  36:../../libdaisy/src/per/adc.h ****      */
  37:../../libdaisy/src/per/adc.h ****     void InitSingle(dsy_gpio_pin pin);
  38:../../libdaisy/src/per/adc.h **** 
  39:../../libdaisy/src/per/adc.h ****     /** 
  40:../../libdaisy/src/per/adc.h ****     Initializes a single ADC pin as a Multiplexed ADC.
  41:../../libdaisy/src/per/adc.h ****     Requires a CD405X Multiplexer connected to the pin.
  42:../../libdaisy/src/per/adc.h ****     You only need to supply the mux pins that are required,
  43:../../libdaisy/src/per/adc.h ****     e.g. a 4052 mux would only require mux_0 and mux_1.
ARM GAS  /tmp/ccjLgGKX.s 			page 7


  44:../../libdaisy/src/per/adc.h ****     Internal Callbacks handle the pin addressing.
  45:../../libdaisy/src/per/adc.h ****     \param mux_channels must be 1-8
  46:../../libdaisy/src/per/adc.h ****     \param mux_0 First mux pin
  47:../../libdaisy/src/per/adc.h ****     \param mux_1 Second mux pin
  48:../../libdaisy/src/per/adc.h ****     \param mux_2 Third mux pin
  49:../../libdaisy/src/per/adc.h ****     \param adc_pin &
  50:../../libdaisy/src/per/adc.h ****     */
  51:../../libdaisy/src/per/adc.h ****     void InitMux(dsy_gpio_pin adc_pin,
  52:../../libdaisy/src/per/adc.h ****                  size_t       mux_channels,
  53:../../libdaisy/src/per/adc.h ****                  dsy_gpio_pin mux_0,
  54:../../libdaisy/src/per/adc.h ****                  dsy_gpio_pin mux_1 = {DSY_GPIOX, 0},
  55:../../libdaisy/src/per/adc.h ****                  dsy_gpio_pin mux_2 = {DSY_GPIOX, 0});
  56:../../libdaisy/src/per/adc.h **** 
  57:../../libdaisy/src/per/adc.h ****     dsy_gpio pin_;                   /**< & */
  58:../../libdaisy/src/per/adc.h ****     dsy_gpio mux_pin_[MUX_SEL_LAST]; /**< & */
  59:../../libdaisy/src/per/adc.h ****     uint8_t  mux_channels_;          /**< & */
  60:../../libdaisy/src/per/adc.h **** };
  61:../../libdaisy/src/per/adc.h **** 
  62:../../libdaisy/src/per/adc.h **** /**
  63:../../libdaisy/src/per/adc.h ****    Handler for analog to digital conversion
  64:../../libdaisy/src/per/adc.h **** */
  65:../../libdaisy/src/per/adc.h **** class AdcHandle
  66:../../libdaisy/src/per/adc.h **** {
  67:../../libdaisy/src/per/adc.h ****   public:
  68:../../libdaisy/src/per/adc.h ****     /** Supported oversampling amounts */
  69:../../libdaisy/src/per/adc.h ****     enum OverSampling
  70:../../libdaisy/src/per/adc.h ****     {
  71:../../libdaisy/src/per/adc.h ****         OVS_NONE, /**< & */
  72:../../libdaisy/src/per/adc.h ****         OVS_4,    /**< & */
  73:../../libdaisy/src/per/adc.h ****         OVS_8,    /**< & */
  74:../../libdaisy/src/per/adc.h ****         OVS_16,   /**< & */
  75:../../libdaisy/src/per/adc.h ****         OVS_32,   /**< & */
  76:../../libdaisy/src/per/adc.h ****         OVS_64,   /**< & */
  77:../../libdaisy/src/per/adc.h ****         OVS_128,  /**< & */
  78:../../libdaisy/src/per/adc.h ****         OVS_256,  /**< & */
  79:../../libdaisy/src/per/adc.h ****         OVS_512,  /**< & */
  80:../../libdaisy/src/per/adc.h ****         OVS_1024, /**< & */
  81:../../libdaisy/src/per/adc.h ****         OVS_LAST, /**< & */
  82:../../libdaisy/src/per/adc.h ****     };
  83:../../libdaisy/src/per/adc.h **** 
  84:../../libdaisy/src/per/adc.h ****     AdcHandle() {}
  85:../../libdaisy/src/per/adc.h ****     ~AdcHandle() {}
  66              		.loc 7 85 5 is_stmt 1 view .LVU10
  67              		.loc 7 85 5 is_stmt 0 view .LVU11
  68              	.LBE175:
  69              	.LBB176:
  70              	.LBI176:
  71              		.file 8 "../../libdaisy/src/hid/audio.h"
   1:../../libdaisy/src/hid/audio.h **** #ifndef DSY_AUDIO_H
   2:../../libdaisy/src/hid/audio.h **** #define DSY_AUDIO_H /**< & */
   3:../../libdaisy/src/hid/audio.h **** 
   4:../../libdaisy/src/hid/audio.h **** #include "per/sai.h"
   5:../../libdaisy/src/hid/audio.h **** 
   6:../../libdaisy/src/hid/audio.h **** namespace daisy
   7:../../libdaisy/src/hid/audio.h **** {
   8:../../libdaisy/src/hid/audio.h **** class AudioHandle
   9:../../libdaisy/src/hid/audio.h **** {
ARM GAS  /tmp/ccjLgGKX.s 			page 8


  10:../../libdaisy/src/hid/audio.h ****   public:
  11:../../libdaisy/src/hid/audio.h ****     /** Manually configurable details about the Audio Engine */
  12:../../libdaisy/src/hid/audio.h ****     /** TODO: Figure out how to get samplerate in here. */
  13:../../libdaisy/src/hid/audio.h ****     struct Config
  14:../../libdaisy/src/hid/audio.h ****     {
  15:../../libdaisy/src/hid/audio.h ****         size_t                        blocksize;
  16:../../libdaisy/src/hid/audio.h ****         SaiHandle::Config::SampleRate samplerate;
  17:../../libdaisy/src/hid/audio.h ****         float                         postgain;
  18:../../libdaisy/src/hid/audio.h ****     };
  19:../../libdaisy/src/hid/audio.h **** 
  20:../../libdaisy/src/hid/audio.h ****     enum class Result
  21:../../libdaisy/src/hid/audio.h ****     {
  22:../../libdaisy/src/hid/audio.h ****         OK,
  23:../../libdaisy/src/hid/audio.h ****         ERR,
  24:../../libdaisy/src/hid/audio.h ****     };
  25:../../libdaisy/src/hid/audio.h **** 
  26:../../libdaisy/src/hid/audio.h ****     /** Non-Interleaving input buffer
  27:../../libdaisy/src/hid/audio.h ****      * Buffer arranged by float[chn][sample] 
  28:../../libdaisy/src/hid/audio.h ****      * const so that the user can't modify the input
  29:../../libdaisy/src/hid/audio.h ****     */
  30:../../libdaisy/src/hid/audio.h ****     typedef const float* const* InputBuffer;
  31:../../libdaisy/src/hid/audio.h **** 
  32:../../libdaisy/src/hid/audio.h ****     /** Non-Interleaving output buffer
  33:../../libdaisy/src/hid/audio.h ****      * Arranged by float[chn][sample] 
  34:../../libdaisy/src/hid/audio.h ****     */
  35:../../libdaisy/src/hid/audio.h ****     typedef float** OutputBuffer;
  36:../../libdaisy/src/hid/audio.h **** 
  37:../../libdaisy/src/hid/audio.h ****     /** Type for a Non-Interleaving audio callback 
  38:../../libdaisy/src/hid/audio.h ****    * Non-Interleaving audio callbacks in daisy will be of this type
  39:../../libdaisy/src/hid/audio.h ****   */
  40:../../libdaisy/src/hid/audio.h ****     typedef void (*AudioCallback)(InputBuffer  in,
  41:../../libdaisy/src/hid/audio.h ****                                   OutputBuffer out,
  42:../../libdaisy/src/hid/audio.h ****                                   size_t       size);
  43:../../libdaisy/src/hid/audio.h **** 
  44:../../libdaisy/src/hid/audio.h ****     /** Interleaving Input buffer
  45:../../libdaisy/src/hid/audio.h ****      ** audio is prepared as { L0, R0, L1, R1, . . . LN, RN }]
  46:../../libdaisy/src/hid/audio.h ****      ** this is const, as the user shouldn't modify it
  47:../../libdaisy/src/hid/audio.h ****     */
  48:../../libdaisy/src/hid/audio.h ****     typedef const float* InterleavingInputBuffer;
  49:../../libdaisy/src/hid/audio.h **** 
  50:../../libdaisy/src/hid/audio.h ****     /** Interleaving Output buffer 
  51:../../libdaisy/src/hid/audio.h ****      ** audio is prepared as { L0, R0, L1, R1, . . . LN, RN }
  52:../../libdaisy/src/hid/audio.h ****     */
  53:../../libdaisy/src/hid/audio.h ****     typedef float* InterleavingOutputBuffer;
  54:../../libdaisy/src/hid/audio.h **** 
  55:../../libdaisy/src/hid/audio.h ****     /** Interleaving Audio Callback 
  56:../../libdaisy/src/hid/audio.h ****    * Interleaving audio callbacks in daisy must be of this type
  57:../../libdaisy/src/hid/audio.h ****   */
  58:../../libdaisy/src/hid/audio.h ****     typedef void (*InterleavingAudioCallback)(InterleavingInputBuffer  in,
  59:../../libdaisy/src/hid/audio.h ****                                               InterleavingOutputBuffer out,
  60:../../libdaisy/src/hid/audio.h ****                                               size_t                   size);
  61:../../libdaisy/src/hid/audio.h **** 
  62:../../libdaisy/src/hid/audio.h ****     AudioHandle() : pimpl_(nullptr) {}
  63:../../libdaisy/src/hid/audio.h ****     ~AudioHandle() {}
  72              		.loc 8 63 5 is_stmt 1 view .LVU12
  73              		.loc 8 63 5 is_stmt 0 view .LVU13
  74              	.LBE176:
ARM GAS  /tmp/ccjLgGKX.s 			page 9


  75              	.LBE172:
  76              		.loc 1 46 21 view .LVU14
  77 0000 7047     		bx	lr
  78              		.cfi_endproc
  79              	.LFE2046:
  81              		.weak	_ZN5daisy11DaisyVersioD1Ev
  82              		.thumb_set _ZN5daisy11DaisyVersioD1Ev,_ZN5daisy11DaisyVersioD2Ev
  83 0002 00BF     		.section	.text._ZN7daisysp9DecimatorD2Ev,"axG",%progbits,_ZN7daisysp9DecimatorD5Ev,comdat
  84              		.align	1
  85              		.p2align 2,,3
  86              		.weak	_ZN7daisysp9DecimatorD2Ev
  87              		.syntax unified
  88              		.thumb
  89              		.thumb_func
  90              		.fpu fpv5-d16
  92              	_ZN7daisysp9DecimatorD2Ev:
  93              	.LVL1:
  94              	.LFB3860:
  95              		.file 9 "../../DaisySP/Source/Effects/decimator.h"
   1:../../DaisySP/Source/Effects/decimator.h **** 
   2:../../DaisySP/Source/Effects/decimator.h **** #pragma once
   3:../../DaisySP/Source/Effects/decimator.h **** #ifndef DECIMATOR_H
   4:../../DaisySP/Source/Effects/decimator.h **** #define DECIMATOR_H
   5:../../DaisySP/Source/Effects/decimator.h **** #include <stdint.h>
   6:../../DaisySP/Source/Effects/decimator.h **** #ifdef __cplusplus
   7:../../DaisySP/Source/Effects/decimator.h **** 
   8:../../DaisySP/Source/Effects/decimator.h **** namespace daisysp
   9:../../DaisySP/Source/Effects/decimator.h **** {
  10:../../DaisySP/Source/Effects/decimator.h **** /** Performs downsampling and bitcrush effects
  11:../../DaisySP/Source/Effects/decimator.h **** */
  12:../../DaisySP/Source/Effects/decimator.h **** class Decimator
  13:../../DaisySP/Source/Effects/decimator.h **** {
  14:../../DaisySP/Source/Effects/decimator.h ****   public:
  15:../../DaisySP/Source/Effects/decimator.h ****     Decimator() {}
  16:../../DaisySP/Source/Effects/decimator.h ****     ~Decimator() {}
  96              		.loc 9 16 5 is_stmt 1 view -0
  97              		.cfi_startproc
  98              		@ args = 0, pretend = 0, frame = 0
  99              		@ frame_needed = 0, uses_anonymous_args = 0
 100              		@ link register save eliminated.
 101              		.loc 9 16 19 is_stmt 0 view .LVU16
 102 0000 7047     		bx	lr
 103              		.cfi_endproc
 104              	.LFE3860:
 106              		.weak	_ZN7daisysp9DecimatorD1Ev
 107              		.thumb_set _ZN7daisysp9DecimatorD1Ev,_ZN7daisysp9DecimatorD2Ev
 108 0002 00BF     		.section	.text._Z8callbackPKfPfj,"ax",%progbits
 109              		.align	1
 110              		.p2align 2,,3
 111              		.global	_Z8callbackPKfPfj
 112              		.syntax unified
 113              		.thumb
 114              		.thumb_func
 115              		.fpu fpv5-d16
 117              	_Z8callbackPKfPfj:
 118              	.LVL2:
 119              	.LFB4219:
ARM GAS  /tmp/ccjLgGKX.s 			page 10


 120              		.file 10 "Decimator.cpp"
   1:Decimator.cpp **** #include "daisy_versio.h"
   2:Decimator.cpp **** #include "daisysp.h"
   3:Decimator.cpp **** #include <string>
   4:Decimator.cpp **** 
   5:Decimator.cpp **** using namespace daisy;
   6:Decimator.cpp **** using namespace daisysp;
   7:Decimator.cpp **** 
   8:Decimator.cpp **** DaisyVersio hw;
   9:Decimator.cpp **** 
  10:Decimator.cpp **** // bitcrush effect
  11:Decimator.cpp **** Decimator decimator_l;
  12:Decimator.cpp **** Decimator decimator_r;
  13:Decimator.cpp **** 
  14:Decimator.cpp **** static float kval;
  15:Decimator.cpp **** 
  16:Decimator.cpp **** // This runs at a fixed rate, to prepare audio samples
  17:Decimator.cpp **** void callback(AudioHandle::InterleavingInputBuffer  in,
  18:Decimator.cpp ****               AudioHandle::InterleavingOutputBuffer out,
  19:Decimator.cpp ****               size_t                                size)
  20:Decimator.cpp **** {
 121              		.loc 10 20 1 is_stmt 1 view -0
 122              		.cfi_startproc
 123              		@ args = 0, pretend = 0, frame = 0
 124              		@ frame_needed = 0, uses_anonymous_args = 0
  21:Decimator.cpp ****     // Audio is interleaved stereo by default
  22:Decimator.cpp ****     for(size_t i = 0; i < size; i += 2)
 125              		.loc 10 22 5 view .LVU18
 126              	.LBB177:
 127              		.loc 10 22 25 view .LVU19
 128 0000 DAB1     		cbz	r2, .L12
 129 0002 013A     		subs	r2, r2, #1
 130              	.LVL3:
 131              		.loc 10 22 25 is_stmt 0 view .LVU20
 132              	.LBE177:
  20:Decimator.cpp ****     // Audio is interleaved stereo by default
 133              		.loc 10 20 1 view .LVU21
 134 0004 70B5     		push	{r4, r5, r6, lr}
 135              		.cfi_def_cfa_offset 16
 136              		.cfi_offset 4, -16
 137              		.cfi_offset 5, -12
 138              		.cfi_offset 6, -8
 139              		.cfi_offset 14, -4
 140 0006 5208     		lsrs	r2, r2, #1
 141              	.LVL4:
  20:Decimator.cpp ****     // Audio is interleaved stereo by default
 142              		.loc 10 20 1 view .LVU22
 143 0008 00F10806 		add	r6, r0, #8
 144 000c 0446     		mov	r4, r0
 145 000e 0D46     		mov	r5, r1
 146 0010 06EBC206 		add	r6, r6, r2, lsl #3
 147              	.LVL5:
 148              	.L6:
 149              	.LBB178:
  23:Decimator.cpp ****     {
  24:Decimator.cpp ****         // left out
  25:Decimator.cpp ****         out[i] = decimator_l.Process(in[i]);
ARM GAS  /tmp/ccjLgGKX.s 			page 11


 150              		.loc 10 25 9 is_stmt 1 discriminator 2 view .LVU23
 151              		.loc 10 25 37 is_stmt 0 discriminator 2 view .LVU24
 152 0014 94ED000A 		vldr.32	s0, [r4]
 153 0018 0834     		adds	r4, r4, #8
 154 001a 0848     		ldr	r0, .L15
 155 001c 0835     		adds	r5, r5, #8
 156 001e FFF7FEFF 		bl	_ZN7daisysp9Decimator7ProcessEf
 157              	.LVL6:
  26:Decimator.cpp **** 
  27:Decimator.cpp ****         // right out
  28:Decimator.cpp ****         out[i + 1] = decimator_r.Process(in[i + 1]);
 158              		.loc 10 28 41 discriminator 2 view .LVU25
 159 0022 0748     		ldr	r0, .L15+4
  25:Decimator.cpp **** 
 160              		.loc 10 25 16 discriminator 2 view .LVU26
 161 0024 05ED020A 		vstr.32	s0, [r5, #-8]
 162              		.loc 10 28 9 is_stmt 1 discriminator 2 view .LVU27
 163              		.loc 10 28 41 is_stmt 0 discriminator 2 view .LVU28
 164 0028 14ED010A 		vldr.32	s0, [r4, #-4]
 165 002c FFF7FEFF 		bl	_ZN7daisysp9Decimator7ProcessEf
 166              	.LVL7:
  22:Decimator.cpp ****     {
 167              		.loc 10 22 25 discriminator 2 view .LVU29
 168 0030 B442     		cmp	r4, r6
 169              		.loc 10 28 20 discriminator 2 view .LVU30
 170 0032 05ED010A 		vstr.32	s0, [r5, #-4]
  22:Decimator.cpp ****     {
 171              		.loc 10 22 5 is_stmt 1 discriminator 2 view .LVU31
  22:Decimator.cpp ****     {
 172              		.loc 10 22 25 discriminator 2 view .LVU32
 173 0036 EDD1     		bne	.L6
 174              	.LBE178:
  29:Decimator.cpp ****     }
  30:Decimator.cpp **** }
 175              		.loc 10 30 1 is_stmt 0 view .LVU33
 176 0038 70BD     		pop	{r4, r5, r6, pc}
 177              	.LVL8:
 178              	.L12:
 179              		.cfi_def_cfa_offset 0
 180              		.cfi_restore 4
 181              		.cfi_restore 5
 182              		.cfi_restore 6
 183              		.cfi_restore 14
 184              		.loc 10 30 1 view .LVU34
 185 003a 7047     		bx	lr
 186              	.L16:
 187              		.align	2
 188              	.L15:
 189 003c 00000000 		.word	.LANCHOR0
 190 0040 00000000 		.word	.LANCHOR1
 191              		.cfi_endproc
 192              	.LFE4219:
 194              		.section	.text.startup.main,"ax",%progbits
 195              		.align	1
 196              		.p2align 2,,3
 197              		.global	main
 198              		.syntax unified
ARM GAS  /tmp/ccjLgGKX.s 			page 12


 199              		.thumb
 200              		.thumb_func
 201              		.fpu fpv5-d16
 203              	main:
 204              	.LFB4220:
  31:Decimator.cpp **** 
  32:Decimator.cpp **** int main(void)
  33:Decimator.cpp **** {
 205              		.loc 10 33 1 is_stmt 1 view -0
 206              		.cfi_startproc
 207              		@ Volatile: function does not return.
 208              		@ args = 0, pretend = 0, frame = 0
 209              		@ frame_needed = 0, uses_anonymous_args = 0
  34:Decimator.cpp ****     // Initialize Versio hardware and start audio, ADC
  35:Decimator.cpp ****     hw.Init();
 210              		.loc 10 35 5 view .LVU36
 211              		.loc 10 35 12 is_stmt 0 view .LVU37
 212 0000 0021     		movs	r1, #0
 213 0002 2548     		ldr	r0, .L20
 214 0004 254D     		ldr	r5, .L20+4
 215 0006 264C     		ldr	r4, .L20+8
  33:Decimator.cpp ****     // Initialize Versio hardware and start audio, ADC
 216              		.loc 10 33 1 view .LVU38
 217 0008 08B5     		push	{r3, lr}
 218              		.cfi_def_cfa_offset 8
 219              		.cfi_offset 3, -8
 220              		.cfi_offset 14, -4
 221              		.loc 10 35 12 view .LVU39
 222 000a FFF7FEFF 		bl	_ZN5daisy11DaisyVersio4InitEb
 223              	.LVL9:
  36:Decimator.cpp **** 
  37:Decimator.cpp ****     decimator_l.Init();
 224              		.loc 10 37 5 is_stmt 1 view .LVU40
 225              		.loc 10 37 21 is_stmt 0 view .LVU41
 226 000e 2348     		ldr	r0, .L20+4
 227 0010 FFF7FEFF 		bl	_ZN7daisysp9Decimator4InitEv
 228              	.LVL10:
  38:Decimator.cpp ****     decimator_r.Init();
 229              		.loc 10 38 5 is_stmt 1 view .LVU42
 230              		.loc 10 38 21 is_stmt 0 view .LVU43
 231 0014 2248     		ldr	r0, .L20+8
 232 0016 FFF7FEFF 		bl	_ZN7daisysp9Decimator4InitEv
 233              	.LVL11:
  39:Decimator.cpp **** 
  40:Decimator.cpp ****     kval = 0.f;
 234              		.loc 10 40 5 is_stmt 1 view .LVU44
  41:Decimator.cpp **** 
  42:Decimator.cpp ****     hw.StartAudio(callback);
 235              		.loc 10 42 5 view .LVU45
 236              		.loc 10 42 18 is_stmt 0 view .LVU46
 237 001a 1F48     		ldr	r0, .L20
 238 001c 2149     		ldr	r1, .L20+12
 239 001e FFF7FEFF 		bl	_ZN5daisy11DaisyVersio10StartAudioEPFvPKfPfjE
 240              	.LVL12:
  43:Decimator.cpp ****     hw.StartAdc();
 241              		.loc 10 43 5 is_stmt 1 view .LVU47
 242              		.loc 10 43 16 is_stmt 0 view .LVU48
ARM GAS  /tmp/ccjLgGKX.s 			page 13


 243 0022 1D48     		ldr	r0, .L20
 244 0024 FFF7FEFF 		bl	_ZN5daisy11DaisyVersio8StartAdcEv
 245              	.LVL13:
 246              	.L18:
  44:Decimator.cpp **** 
  45:Decimator.cpp ****     while(1)
 247              		.loc 10 45 5 is_stmt 1 discriminator 1 view .LVU49
  46:Decimator.cpp ****     {
  47:Decimator.cpp ****         hw.ProcessAnalogControls(); // Normalize CV inputs
 248              		.loc 10 47 9 discriminator 1 view .LVU50
 249              		.loc 10 47 33 is_stmt 0 discriminator 1 view .LVU51
 250 0028 1B48     		ldr	r0, .L20
 251 002a FFF7FEFF 		bl	_ZN5daisy11DaisyVersio21ProcessAnalogControlsEv
 252              	.LVL14:
  48:Decimator.cpp ****         hw.UpdateExample(); // Control the LED colors using the knobs and gate inputs
 253              		.loc 10 48 9 is_stmt 1 discriminator 1 view .LVU52
 254              		.loc 10 48 25 is_stmt 0 discriminator 1 view .LVU53
 255 002e 1A48     		ldr	r0, .L20
 256 0030 FFF7FEFF 		bl	_ZN5daisy11DaisyVersio13UpdateExampleEv
 257              	.LVL15:
  49:Decimator.cpp ****         hw.UpdateLeds();
 258              		.loc 10 49 9 is_stmt 1 discriminator 1 view .LVU54
 259              		.loc 10 49 22 is_stmt 0 discriminator 1 view .LVU55
 260 0034 1848     		ldr	r0, .L20
 261 0036 FFF7FEFF 		bl	_ZN5daisy11DaisyVersio10UpdateLedsEv
 262              	.LVL16:
  50:Decimator.cpp **** 
  51:Decimator.cpp ****         decimator_l.SetBitcrushFactor(hw.GetKnobValue(DaisyVersio::KNOB_0));
 263              		.loc 10 51 9 is_stmt 1 discriminator 1 view .LVU56
 264              		.loc 10 51 38 is_stmt 0 discriminator 1 view .LVU57
 265 003a 0021     		movs	r1, #0
 266 003c 1648     		ldr	r0, .L20
 267 003e FFF7FEFF 		bl	_ZN5daisy11DaisyVersio12GetKnobValueEi
 268              	.LVL17:
 269              	.LBB179:
 270              	.LBI179:
  17:../../DaisySP/Source/Effects/decimator.h ****     /** Initializes downsample module
  18:../../DaisySP/Source/Effects/decimator.h ****     */
  19:../../DaisySP/Source/Effects/decimator.h ****     void Init();
  20:../../DaisySP/Source/Effects/decimator.h **** 
  21:../../DaisySP/Source/Effects/decimator.h ****     /** Applies downsample and bitcrush effects to input signal.
  22:../../DaisySP/Source/Effects/decimator.h ****         \return one sample. This should be called once per sample period. 
  23:../../DaisySP/Source/Effects/decimator.h ****     */
  24:../../DaisySP/Source/Effects/decimator.h ****     float Process(float input);
  25:../../DaisySP/Source/Effects/decimator.h **** 
  26:../../DaisySP/Source/Effects/decimator.h **** 
  27:../../DaisySP/Source/Effects/decimator.h ****     /** Sets amount of downsample 
  28:../../DaisySP/Source/Effects/decimator.h ****         Input range: 
  29:../../DaisySP/Source/Effects/decimator.h ****     */
  30:../../DaisySP/Source/Effects/decimator.h ****     inline void SetDownsampleFactor(float downsample_factor)
  31:../../DaisySP/Source/Effects/decimator.h ****     {
  32:../../DaisySP/Source/Effects/decimator.h ****         downsample_factor_ = downsample_factor;
  33:../../DaisySP/Source/Effects/decimator.h ****     }
  34:../../DaisySP/Source/Effects/decimator.h **** 
  35:../../DaisySP/Source/Effects/decimator.h ****     /** Sets amount of bitcrushing 
  36:../../DaisySP/Source/Effects/decimator.h ****         Input range: 
  37:../../DaisySP/Source/Effects/decimator.h ****     */
ARM GAS  /tmp/ccjLgGKX.s 			page 14


  38:../../DaisySP/Source/Effects/decimator.h ****     inline void SetBitcrushFactor(float bitcrush_factor)
 271              		.loc 9 38 17 is_stmt 1 discriminator 1 view .LVU58
 272              	.LBB180:
  39:../../DaisySP/Source/Effects/decimator.h ****     {
  40:../../DaisySP/Source/Effects/decimator.h ****         //            bitcrush_factor_ = bitcrush_factor;
  41:../../DaisySP/Source/Effects/decimator.h ****         bits_to_crush_ = (uint32_t)(bitcrush_factor * kMaxBitsToCrush);
 273              		.loc 9 41 9 discriminator 1 view .LVU59
 274              		.loc 9 41 55 is_stmt 0 discriminator 1 view .LVU60
 275 0042 2B78     		ldrb	r3, [r5]	@ zero_extendqisi2
 276              	.LBE180:
 277              	.LBE179:
  52:Decimator.cpp ****         decimator_l.SetDownsampleFactor(hw.GetKnobValue(DaisyVersio::KNOB_1));
 278              		.loc 10 52 40 discriminator 1 view .LVU61
 279 0044 0121     		movs	r1, #1
 280 0046 1448     		ldr	r0, .L20
 281              	.LBB182:
 282              	.LBB181:
 283              		.loc 9 41 55 discriminator 1 view .LVU62
 284 0048 07EE903A 		vmov	s15, r3	@ int
 285              		.loc 9 41 53 discriminator 1 view .LVU63
 286 004c F8EEE77A 		vcvt.f32.s32	s15, s15
 287 0050 27EE800A 		vmul.f32	s0, s15, s0
 288              	.LVL18:
 289              		.loc 9 41 26 discriminator 1 view .LVU64
 290 0054 BCEEC00A 		vcvt.u32.f32	s0, s0
 291 0058 85ED030A 		vstr.32	s0, [r5, #12]	@ int
 292              		.loc 9 41 26 discriminator 1 view .LVU65
 293              	.LBE181:
 294              	.LBE182:
 295              		.loc 10 52 9 is_stmt 1 discriminator 1 view .LVU66
 296              		.loc 10 52 40 is_stmt 0 discriminator 1 view .LVU67
 297 005c FFF7FEFF 		bl	_ZN5daisy11DaisyVersio12GetKnobValueEi
 298              	.LVL19:
 299              	.LBB183:
 300              	.LBI183:
  30:../../DaisySP/Source/Effects/decimator.h ****     {
 301              		.loc 9 30 17 is_stmt 1 discriminator 1 view .LVU68
 302              	.LBB184:
  32:../../DaisySP/Source/Effects/decimator.h ****     }
 303              		.loc 9 32 9 discriminator 1 view .LVU69
 304              	.LBE184:
 305              	.LBE183:
  53:Decimator.cpp **** 
  54:Decimator.cpp ****         decimator_r.SetBitcrushFactor(hw.GetKnobValue(DaisyVersio::KNOB_2));
 306              		.loc 10 54 38 is_stmt 0 discriminator 1 view .LVU70
 307 0060 0221     		movs	r1, #2
 308 0062 0D48     		ldr	r0, .L20
 309              	.LBB186:
 310              	.LBB185:
  32:../../DaisySP/Source/Effects/decimator.h ****     }
 311              		.loc 9 32 28 discriminator 1 view .LVU71
 312 0064 85ED010A 		vstr.32	s0, [r5, #4]
 313              	.LVL20:
  32:../../DaisySP/Source/Effects/decimator.h ****     }
 314              		.loc 9 32 28 discriminator 1 view .LVU72
 315              	.LBE185:
 316              	.LBE186:
ARM GAS  /tmp/ccjLgGKX.s 			page 15


 317              		.loc 10 54 9 is_stmt 1 discriminator 1 view .LVU73
 318              		.loc 10 54 38 is_stmt 0 discriminator 1 view .LVU74
 319 0068 FFF7FEFF 		bl	_ZN5daisy11DaisyVersio12GetKnobValueEi
 320              	.LVL21:
 321              	.LBB187:
 322              	.LBI187:
  38:../../DaisySP/Source/Effects/decimator.h ****     {
 323              		.loc 9 38 17 is_stmt 1 discriminator 1 view .LVU75
 324              	.LBB188:
 325              		.loc 9 41 9 discriminator 1 view .LVU76
 326              		.loc 9 41 55 is_stmt 0 discriminator 1 view .LVU77
 327 006c 2378     		ldrb	r3, [r4]	@ zero_extendqisi2
 328              	.LBE188:
 329              	.LBE187:
  55:Decimator.cpp ****         decimator_r.SetDownsampleFactor(hw.GetKnobValue(DaisyVersio::KNOB_3));
 330              		.loc 10 55 40 discriminator 1 view .LVU78
 331 006e 0321     		movs	r1, #3
 332 0070 0948     		ldr	r0, .L20
 333              	.LBB190:
 334              	.LBB189:
 335              		.loc 9 41 55 discriminator 1 view .LVU79
 336 0072 07EE903A 		vmov	s15, r3	@ int
 337              		.loc 9 41 53 discriminator 1 view .LVU80
 338 0076 F8EEE77A 		vcvt.f32.s32	s15, s15
 339 007a 27EE800A 		vmul.f32	s0, s15, s0
 340              	.LVL22:
 341              		.loc 9 41 26 discriminator 1 view .LVU81
 342 007e BCEEC00A 		vcvt.u32.f32	s0, s0
 343 0082 84ED030A 		vstr.32	s0, [r4, #12]	@ int
 344              		.loc 9 41 26 discriminator 1 view .LVU82
 345              	.LBE189:
 346              	.LBE190:
 347              		.loc 10 55 9 is_stmt 1 discriminator 1 view .LVU83
 348              		.loc 10 55 40 is_stmt 0 discriminator 1 view .LVU84
 349 0086 FFF7FEFF 		bl	_ZN5daisy11DaisyVersio12GetKnobValueEi
 350              	.LVL23:
 351              	.LBB191:
 352              	.LBI191:
  30:../../DaisySP/Source/Effects/decimator.h ****     {
 353              		.loc 9 30 17 is_stmt 1 discriminator 1 view .LVU85
 354              	.LBB192:
  32:../../DaisySP/Source/Effects/decimator.h ****     }
 355              		.loc 9 32 9 discriminator 1 view .LVU86
 356              	.LBE192:
 357              	.LBE191:
  56:Decimator.cpp **** 
  57:Decimator.cpp ****         kval = hw.GetKnobValue(DaisyVersio::KNOB_6);
 358              		.loc 10 57 31 is_stmt 0 discriminator 1 view .LVU87
 359 008a 0621     		movs	r1, #6
 360 008c 0248     		ldr	r0, .L20
 361              	.LBB194:
 362              	.LBB193:
  32:../../DaisySP/Source/Effects/decimator.h ****     }
 363              		.loc 9 32 28 discriminator 1 view .LVU88
 364 008e 84ED010A 		vstr.32	s0, [r4, #4]
 365              	.LVL24:
  32:../../DaisySP/Source/Effects/decimator.h ****     }
ARM GAS  /tmp/ccjLgGKX.s 			page 16


 366              		.loc 9 32 28 discriminator 1 view .LVU89
 367              	.LBE193:
 368              	.LBE194:
 369              		.loc 10 57 9 is_stmt 1 discriminator 1 view .LVU90
 370              		.loc 10 57 31 is_stmt 0 discriminator 1 view .LVU91
 371 0092 FFF7FEFF 		bl	_ZN5daisy11DaisyVersio12GetKnobValueEi
 372              	.LVL25:
  45:Decimator.cpp ****     {
 373              		.loc 10 45 5 is_stmt 1 discriminator 1 view .LVU92
 374 0096 C7E7     		b	.L18
 375              	.L21:
 376              		.align	2
 377              	.L20:
 378 0098 00000000 		.word	.LANCHOR2
 379 009c 00000000 		.word	.LANCHOR0
 380 00a0 00000000 		.word	.LANCHOR1
 381 00a4 00000000 		.word	_Z8callbackPKfPfj
 382              		.cfi_endproc
 383              	.LFE4220:
 385              		.section	.text.startup._GLOBAL__sub_I_hw,"ax",%progbits
 386              		.align	1
 387              		.p2align 2,,3
 388              		.syntax unified
 389              		.thumb
 390              		.thumb_func
 391              		.fpu fpv5-d16
 393              	_GLOBAL__sub_I_hw:
 394              	.LFB4766:
  58:Decimator.cpp ****     }
  59:Decimator.cpp **** }
 395              		.loc 10 59 1 view -0
 396              		.cfi_startproc
 397              		@ args = 0, pretend = 0, frame = 0
 398              		@ frame_needed = 0, uses_anonymous_args = 0
 399              	.LBB228:
 400              	.LBI228:
 401              		.loc 10 59 1 view .LVU94
 402              	.LVL26:
 403              	.LBB229:
 404              	.LBB230:
 405              	.LBI230:
  45:../../libdaisy/src/daisy_versio.h ****     ~DaisyVersio() {}
 406              		.loc 1 45 5 view .LVU95
 407              	.LBB231:
 408              	.LBB232:
 409              	.LBI232:
  21:../../libdaisy/src/daisy_seed.h ****     ~DaisySeed() {}
 410              		.loc 4 21 5 view .LVU96
 411              	.LBB233:
 412              	.LBB234:
 413              	.LBI234:
  62:../../libdaisy/src/hid/audio.h ****     ~AudioHandle() {}
 414              		.loc 8 62 5 view .LVU97
 415              	.LBB235:
 416              	.LBB236:
  62:../../libdaisy/src/hid/audio.h ****     ~AudioHandle() {}
 417              		.loc 8 62 35 is_stmt 0 view .LVU98
ARM GAS  /tmp/ccjLgGKX.s 			page 17


 418 0000 0023     		movs	r3, #0
 419 0002 0B48     		ldr	r0, .L24
 420              	.LBE236:
 421              	.LBE235:
 422              	.LBE234:
 423              	.LBE233:
 424              	.LBE232:
 425              	.LBE231:
 426              	.LBE230:
   8:Decimator.cpp **** 
 427              		.loc 10 8 13 view .LVU99
 428 0004 0B4A     		ldr	r2, .L24+4
 429 0006 0C49     		ldr	r1, .L24+8
 430              	.LBE229:
 431              	.LBE228:
 432              		.loc 10 59 1 view .LVU100
 433 0008 10B5     		push	{r4, lr}
 434              		.cfi_def_cfa_offset 8
 435              		.cfi_offset 4, -8
 436              		.cfi_offset 14, -4
 437              	.LBB278:
 438              	.LBB274:
 439              	.LBB256:
 440              	.LBB253:
 441              	.LBB249:
 442              	.LBB247:
 443              	.LBB239:
 444              	.LBB238:
 445              	.LBB237:
  62:../../libdaisy/src/hid/audio.h ****     ~AudioHandle() {}
 446              		.loc 8 62 35 view .LVU101
 447 000a 4361     		str	r3, [r0, #20]
 448              	.LVL27:
  62:../../libdaisy/src/hid/audio.h ****     ~AudioHandle() {}
 449              		.loc 8 62 35 view .LVU102
 450              	.LBE237:
 451              	.LBE238:
 452              	.LBE239:
 453              	.LBB240:
 454              	.LBI240:
  84:../../libdaisy/src/per/adc.h ****     ~AdcHandle() {}
 455              		.loc 7 84 5 is_stmt 1 view .LVU103
  84:../../libdaisy/src/per/adc.h ****     ~AdcHandle() {}
 456              		.loc 7 84 5 is_stmt 0 view .LVU104
 457              	.LBE240:
 458              	.LBB241:
 459              	.LBI241:
 460              		.file 11 "../../libdaisy/src/per/dac.h"
   1:../../libdaisy/src/per/dac.h **** #pragma once
   2:../../libdaisy/src/per/dac.h **** #ifndef DSY_DAC_H
   3:../../libdaisy/src/per/dac.h **** #define DSY_DAC_H
   4:../../libdaisy/src/per/dac.h **** 
   5:../../libdaisy/src/per/dac.h **** #include "daisy_core.h"
   6:../../libdaisy/src/per/dac.h **** 
   7:../../libdaisy/src/per/dac.h **** namespace daisy
   8:../../libdaisy/src/per/dac.h **** {
   9:../../libdaisy/src/per/dac.h **** /** DAC handle for Built-in DAC Peripheral 
ARM GAS  /tmp/ccjLgGKX.s 			page 18


  10:../../libdaisy/src/per/dac.h ****  ** 
  11:../../libdaisy/src/per/dac.h ****  ** For now only Normal Mode is supported,
  12:../../libdaisy/src/per/dac.h ****  ** Sample and hold mode provides reduced power consumption, but requires a bit more setup.
  13:../../libdaisy/src/per/dac.h ****  **
  14:../../libdaisy/src/per/dac.h ****  ** For now connecting the DAC through other internal periphearls is also not supported.
  15:../../libdaisy/src/per/dac.h ****  **
  16:../../libdaisy/src/per/dac.h ****  ** Since the DAC channels have dedicated pins we don't need to pass in a pin config like with
  17:../../libdaisy/src/per/dac.h ****  ** other modules. However, it is still important to not try to use the DAC pins for anything else.
  18:../../libdaisy/src/per/dac.h ****  ** DAC Channel 1 is on PA4, and DAC Channel 2 is on PA5
  19:../../libdaisy/src/per/dac.h ****  ***/
  20:../../libdaisy/src/per/dac.h **** class DacHandle
  21:../../libdaisy/src/per/dac.h **** {
  22:../../libdaisy/src/per/dac.h ****   public:
  23:../../libdaisy/src/per/dac.h ****     /** Return Values for the DacHandle class */
  24:../../libdaisy/src/per/dac.h ****     enum class Result
  25:../../libdaisy/src/per/dac.h ****     {
  26:../../libdaisy/src/per/dac.h ****         OK,
  27:../../libdaisy/src/per/dac.h ****         ERR,
  28:../../libdaisy/src/per/dac.h ****     };
  29:../../libdaisy/src/per/dac.h **** 
  30:../../libdaisy/src/per/dac.h ****     /** Selects which channel(s) will be configured for use. */
  31:../../libdaisy/src/per/dac.h ****     enum class Channel
  32:../../libdaisy/src/per/dac.h ****     {
  33:../../libdaisy/src/per/dac.h ****         ONE,
  34:../../libdaisy/src/per/dac.h ****         TWO,
  35:../../libdaisy/src/per/dac.h ****         BOTH,
  36:../../libdaisy/src/per/dac.h ****     };
  37:../../libdaisy/src/per/dac.h **** 
  38:../../libdaisy/src/per/dac.h ****     /** Sets the Mode for the DAC channels.
  39:../../libdaisy/src/per/dac.h ****      **
  40:../../libdaisy/src/per/dac.h ****      ** Polling mode uses the blocking mode to transmit a single value at a time.
  41:../../libdaisy/src/per/dac.h ****      **
  42:../../libdaisy/src/per/dac.h ****      ** DMA mode uses a buffer, and periodically transmits it triggering a 
  43:../../libdaisy/src/per/dac.h ****      ** callback to fill the buffer when it is ready for more samples.
  44:../../libdaisy/src/per/dac.h ****      ***/
  45:../../libdaisy/src/per/dac.h ****     enum class Mode
  46:../../libdaisy/src/per/dac.h ****     {
  47:../../libdaisy/src/per/dac.h ****         POLLING,
  48:../../libdaisy/src/per/dac.h ****         DMA,
  49:../../libdaisy/src/per/dac.h ****     };
  50:../../libdaisy/src/per/dac.h **** 
  51:../../libdaisy/src/per/dac.h ****     /** Sets the number of bits per sample transmitted out of the DAC.
  52:../../libdaisy/src/per/dac.h ****      ** The output range will be: 0V - VDDA
  53:../../libdaisy/src/per/dac.h ****      ** The resolution will be roughly: bitdepth / (VDDA - 0V) 
  54:../../libdaisy/src/per/dac.h ****      ***/
  55:../../libdaisy/src/per/dac.h ****     enum class BitDepth
  56:../../libdaisy/src/per/dac.h ****     {
  57:../../libdaisy/src/per/dac.h ****         BITS_8,
  58:../../libdaisy/src/per/dac.h ****         BITS_12
  59:../../libdaisy/src/per/dac.h ****     };
  60:../../libdaisy/src/per/dac.h **** 
  61:../../libdaisy/src/per/dac.h ****     /** Sets whether the DAC output is buffered for higher drive ability. */
  62:../../libdaisy/src/per/dac.h ****     enum class BufferState
  63:../../libdaisy/src/per/dac.h ****     {
  64:../../libdaisy/src/per/dac.h ****         ENABLED,
  65:../../libdaisy/src/per/dac.h ****         DISABLED,
  66:../../libdaisy/src/per/dac.h ****     };
ARM GAS  /tmp/ccjLgGKX.s 			page 19


  67:../../libdaisy/src/per/dac.h **** 
  68:../../libdaisy/src/per/dac.h ****     /** Configuration structure for initializing the DAC structure. */
  69:../../libdaisy/src/per/dac.h ****     struct Config
  70:../../libdaisy/src/per/dac.h ****     {
  71:../../libdaisy/src/per/dac.h ****         /** Target Samplerate in Hz used to configure the internal 
  72:../../libdaisy/src/per/dac.h ****          ** timebase for DMA mode. Does nothing in POLLING mode.
  73:../../libdaisy/src/per/dac.h ****          ** If the value is 0 at Init time this will default to 48000Hz 
  74:../../libdaisy/src/per/dac.h ****          ** otherwise the driver will attempt meet the target.*/
  75:../../libdaisy/src/per/dac.h ****         uint32_t target_samplerate;
  76:../../libdaisy/src/per/dac.h **** 
  77:../../libdaisy/src/per/dac.h ****         Channel     chn;
  78:../../libdaisy/src/per/dac.h ****         Mode        mode;
  79:../../libdaisy/src/per/dac.h ****         BitDepth    bitdepth;
  80:../../libdaisy/src/per/dac.h ****         BufferState buff_state;
  81:../../libdaisy/src/per/dac.h ****     };
  82:../../libdaisy/src/per/dac.h **** 
  83:../../libdaisy/src/per/dac.h ****     DacHandle() : pimpl_(nullptr) {}
 461              		.loc 11 83 5 is_stmt 1 view .LVU105
 462              	.LBE241:
 463              	.LBE247:
 464              	.LBE249:
 465              	.LBE253:
 466              	.LBE256:
 467              	.LBB257:
 468              	.LBB258:
 469              	.LBB259:
  15:../../DaisySP/Source/Effects/decimator.h ****     ~Decimator() {}
 470              		.loc 9 15 17 is_stmt 0 view .LVU106
 471 000c 1024     		movs	r4, #16
 472              	.LBE259:
 473              	.LBE258:
 474              	.LBE257:
 475              	.LBB264:
 476              	.LBB254:
 477              	.LBB250:
 478              	.LBB248:
 479              	.LBB244:
 480              	.LBB242:
 481              	.LBB243:
 482              		.loc 11 83 33 view .LVU107
 483 000e 0362     		str	r3, [r0, #32]
 484              	.LVL28:
 485              		.loc 11 83 33 view .LVU108
 486              	.LBE243:
 487              	.LBE242:
 488              	.LBE244:
 489              	.LBB245:
 490              	.LBI245:
  40:../../libdaisy/src/hid/usb.h **** 
 491              		.loc 6 40 5 is_stmt 1 view .LVU109
  40:../../libdaisy/src/hid/usb.h **** 
 492              		.loc 6 40 5 is_stmt 0 view .LVU110
 493              	.LBE245:
 494              	.LBB246:
 495              	.LBI246:
  58:../../libdaisy/src/sys/system.h ****     ~System() {}
 496              		.loc 5 58 5 is_stmt 1 view .LVU111
ARM GAS  /tmp/ccjLgGKX.s 			page 20


  58:../../libdaisy/src/sys/system.h ****     ~System() {}
 497              		.loc 5 58 5 is_stmt 0 view .LVU112
 498              	.LBE246:
 499              	.LBE248:
 500              	.LBE250:
 501              	.LBE254:
 502              	.LBE264:
 503              	.LBE274:
 504              	.LBE278:
  45:../../libdaisy/src/daisy_versio.h ****     ~DaisyVersio() {}
 505              		.loc 1 45 19 is_stmt 1 view .LVU113
  45:../../libdaisy/src/daisy_versio.h ****     ~DaisyVersio() {}
 506              		.loc 1 45 19 view .LVU114
 507              	.LBB279:
 508              	.LBB275:
 509              	.LBB265:
 510              	.LBB255:
 511              	.LBB251:
 512              	.LBI251:
  40:../../libdaisy/src/hid/switch.h ****     ~Switch() {}
 513              		.loc 3 40 5 view .LVU115
  40:../../libdaisy/src/hid/switch.h ****     ~Switch() {}
 514              		.loc 3 40 5 is_stmt 0 view .LVU116
 515              	.LBE251:
 516              	.LBB252:
 517              	.LBI252:
  21:../../libdaisy/src/hid/gatein.h ****     /** GateIn~
 518              		.loc 2 21 5 is_stmt 1 view .LVU117
  21:../../libdaisy/src/hid/gatein.h ****     /** GateIn~
 519              		.loc 2 21 5 is_stmt 0 view .LVU118
 520              	.LBE252:
 521              	.LBE255:
 522              	.LBE265:
 523              	.LBE275:
 524              	.LBE279:
  45:../../libdaisy/src/daisy_versio.h ****     ~DaisyVersio() {}
 525              		.loc 1 45 19 is_stmt 1 view .LVU119
 526              	.LBB280:
 527              	.LBB276:
   8:Decimator.cpp **** 
 528              		.loc 10 8 13 is_stmt 0 view .LVU120
 529 0010 FFF7FEFF 		bl	__aeabi_atexit
 530              	.LVL29:
 531              	.LBB266:
 532              	.LBI257:
  15:../../DaisySP/Source/Effects/decimator.h ****     ~Decimator() {}
 533              		.loc 9 15 5 is_stmt 1 view .LVU121
 534              	.LBB262:
 535              	.LBB260:
  15:../../DaisySP/Source/Effects/decimator.h ****     ~Decimator() {}
 536              		.loc 9 15 17 is_stmt 0 view .LVU122
 537 0014 0948     		ldr	r0, .L24+12
 538              	.LBE260:
 539              	.LBE262:
 540              	.LBE266:
  11:Decimator.cpp **** Decimator decimator_r;
 541              		.loc 10 11 11 view .LVU123
ARM GAS  /tmp/ccjLgGKX.s 			page 21


 542 0016 0A49     		ldr	r1, .L24+16
 543 0018 064A     		ldr	r2, .L24+4
 544              	.LBB267:
 545              	.LBB263:
 546              	.LBB261:
  15:../../DaisySP/Source/Effects/decimator.h ****     ~Decimator() {}
 547              		.loc 9 15 17 view .LVU124
 548 001a 0470     		strb	r4, [r0]
 549              	.LVL30:
  15:../../DaisySP/Source/Effects/decimator.h ****     ~Decimator() {}
 550              		.loc 9 15 17 view .LVU125
 551              	.LBE261:
 552              	.LBE263:
 553              	.LBE267:
  11:Decimator.cpp **** Decimator decimator_r;
 554              		.loc 10 11 11 view .LVU126
 555 001c FFF7FEFF 		bl	__aeabi_atexit
 556              	.LVL31:
 557              	.LBB268:
 558              	.LBI268:
  15:../../DaisySP/Source/Effects/decimator.h ****     ~Decimator() {}
 559              		.loc 9 15 5 is_stmt 1 view .LVU127
 560              	.LBB269:
 561              	.LBB270:
  15:../../DaisySP/Source/Effects/decimator.h ****     ~Decimator() {}
 562              		.loc 9 15 17 is_stmt 0 view .LVU128
 563 0020 0848     		ldr	r0, .L24+20
 564              	.LBE270:
 565              	.LBE269:
 566              	.LBE268:
  12:Decimator.cpp **** 
 567              		.loc 10 12 11 view .LVU129
 568 0022 044A     		ldr	r2, .L24+4
 569              	.LBB273:
 570              	.LBB272:
 571              	.LBB271:
  15:../../DaisySP/Source/Effects/decimator.h ****     ~Decimator() {}
 572              		.loc 9 15 17 view .LVU130
 573 0024 0470     		strb	r4, [r0]
 574              	.LVL32:
  15:../../DaisySP/Source/Effects/decimator.h ****     ~Decimator() {}
 575              		.loc 9 15 17 view .LVU131
 576              	.LBE271:
 577              	.LBE272:
 578              	.LBE273:
  12:Decimator.cpp **** 
 579              		.loc 10 12 11 view .LVU132
 580 0026 0649     		ldr	r1, .L24+16
 581              	.LBE276:
 582              	.LBE280:
 583              		.loc 10 59 1 view .LVU133
 584 0028 BDE81040 		pop	{r4, lr}
 585              		.cfi_restore 14
 586              		.cfi_restore 4
 587              		.cfi_def_cfa_offset 0
 588              	.LBB281:
 589              	.LBB277:
ARM GAS  /tmp/ccjLgGKX.s 			page 22


  12:Decimator.cpp **** 
 590              		.loc 10 12 11 view .LVU134
 591 002c FFF7FEBF 		b	__aeabi_atexit
 592              	.LVL33:
 593              	.L25:
 594              		.align	2
 595              	.L24:
 596 0030 00000000 		.word	.LANCHOR2
 597 0034 00000000 		.word	__dso_handle
 598 0038 00000000 		.word	_ZN5daisy11DaisyVersioD1Ev
 599 003c 00000000 		.word	.LANCHOR0
 600 0040 00000000 		.word	_ZN7daisysp9DecimatorD1Ev
 601 0044 00000000 		.word	.LANCHOR1
 602              	.LBE277:
 603              	.LBE281:
 604              		.cfi_endproc
 605              	.LFE4766:
 607              		.section	.init_array,"aw",%init_array
 608              		.align	2
 609 0000 00000000 		.word	_GLOBAL__sub_I_hw(target1)
 610              		.global	decimator_r
 611              		.global	decimator_l
 612              		.global	hw
 613              		.section	.bss.decimator_l,"aw",%nobits
 614              		.align	2
 615              		.set	.LANCHOR0,. + 0
 618              	decimator_l:
 619 0000 00000000 		.space	32
 619      00000000 
 619      00000000 
 619      00000000 
 619      00000000 
 620              		.section	.bss.decimator_r,"aw",%nobits
 621              		.align	2
 622              		.set	.LANCHOR1,. + 0
 625              	decimator_r:
 626 0000 00000000 		.space	32
 626      00000000 
 626      00000000 
 626      00000000 
 626      00000000 
 627              		.section	.bss.hw,"aw",%nobits
 628              		.align	2
 629              		.set	.LANCHOR2,. + 0
 632              	hw:
 633 0000 00000000 		.space	660
 633      00000000 
 633      00000000 
 633      00000000 
 633      00000000 
 634              		.text
 635              	.Letext0:
 636              		.file 12 "/usr/lib/gcc/arm-none-eabi/9.2.1/include/stdint.h"
 637              		.file 13 "../../libdaisy/Drivers/CMSIS/Include/core_cm7.h"
 638              		.file 14 "../../libdaisy/Drivers/CMSIS/Device/ST/STM32H7xx/Include/system_stm32h7xx.h"
 639              		.file 15 "/usr/lib/gcc/arm-none-eabi/9.2.1/include/stddef.h"
 640              		.file 16 "/usr/include/newlib/c++/9.2.1/cmath"
ARM GAS  /tmp/ccjLgGKX.s 			page 23


 641              		.file 17 "/usr/include/newlib/c++/9.2.1/bits/std_abs.h"
 642              		.file 18 "/usr/include/newlib/c++/9.2.1/cstdlib"
 643              		.file 19 "/usr/include/newlib/c++/9.2.1/cstdint"
 644              		.file 20 "/usr/include/newlib/c++/9.2.1/type_traits"
 645              		.file 21 "/usr/include/newlib/c++/9.2.1/arm-none-eabi/thumb/v7e-m+dp/hard/bits/c++config.h"
 646              		.file 22 "/usr/include/newlib/c++/9.2.1/bits/stl_pair.h"
 647              		.file 23 "/usr/include/newlib/c++/9.2.1/debug/debug.h"
 648              		.file 24 "/usr/include/newlib/c++/9.2.1/bits/algorithmfwd.h"
 649              		.file 25 "/usr/include/newlib/c++/9.2.1/bits/exception_ptr.h"
 650              		.file 26 "/usr/include/newlib/c++/9.2.1/new"
 651              		.file 27 "/usr/include/newlib/c++/9.2.1/cstdarg"
 652              		.file 28 "/usr/include/newlib/c++/9.2.1/cstdio"
 653              		.file 29 "/usr/include/newlib/c++/9.2.1/cwchar"
 654              		.file 30 "/usr/include/newlib/c++/9.2.1/clocale"
 655              		.file 31 "/usr/include/newlib/c++/9.2.1/bits/basic_string.h"
 656              		.file 32 "/usr/include/newlib/c++/9.2.1/bits/uniform_int_dist.h"
 657              		.file 33 "/usr/include/newlib/c++/9.2.1/bits/random.h"
 658              		.file 34 "/usr/include/newlib/c++/9.2.1/cstring"
 659              		.file 35 "/usr/include/newlib/c++/9.2.1/bits/predefined_ops.h"
 660              		.file 36 "/usr/include/newlib/c++/9.2.1/ext/numeric_traits.h"
 661              		.file 37 "/usr/include/newlib/c++/9.2.1/ext/new_allocator.h"
 662              		.file 38 "/usr/include/newlib/sys/_types.h"
 663              		.file 39 "<built-in>"
 664              		.file 40 "/usr/include/newlib/sys/reent.h"
 665              		.file 41 "/usr/include/newlib/sys/lock.h"
 666              		.file 42 "/usr/include/newlib/math.h"
 667              		.file 43 "/usr/include/newlib/stdlib.h"
 668              		.file 44 "/usr/include/newlib/c++/9.2.1/math.h"
 669              		.file 45 "../../libdaisy/Drivers/STM32H7xx_HAL_Driver/Inc/stm32h7xx_hal_def.h"
 670              		.file 46 "../../libdaisy/Drivers/STM32H7xx_HAL_Driver/Inc/stm32h7xx_hal_flash.h"
 671              		.file 47 "/usr/include/newlib/c++/9.2.1/stdlib.h"
 672              		.file 48 "../../libdaisy/src/daisy_core.h"
 673              		.file 49 "../../libdaisy/src/per/tim.h"
 674              		.file 50 "../../libdaisy/src/per/sai.h"
 675              		.file 51 "../../libdaisy/src/hid/switch3.h"
 676              		.file 52 "../../libdaisy/src/hid/ctrl.h"
 677              		.file 53 "../../libdaisy/src/util/wav_format.h"
 678              		.file 54 "../../libdaisy/src/hid/led.h"
 679              		.file 55 "../../libdaisy/src/util/color.h"
 680              		.file 56 "../../libdaisy/src/hid/rgb_led.h"
 681              		.file 57 "../../libdaisy/src/per/qspi.h"
 682              		.file 58 "../../libdaisy/src/per/gpio.h"
 683              		.file 59 "../../libdaisy/src/dev/sdram.h"
 684              		.file 60 "/usr/lib/gcc/arm-none-eabi/9.2.1/include/stdarg.h"
 685              		.file 61 "/usr/include/newlib/stdio.h"
 686              		.file 62 "/usr/include/newlib/sys/unistd.h"
 687              		.file 63 "../../libdaisy/src/util/oled_fonts.h"
 688              		.file 64 "../../libdaisy/Middlewares/Third_Party/FatFs/src/integer.h"
 689              		.file 65 "../../libdaisy/Middlewares/Third_Party/FatFs/src/ff.h"
 690              		.file 66 "../../libdaisy/Middlewares/Third_Party/FatFs/src/diskio.h"
 691              		.file 67 "../../libdaisy/Middlewares/Third_Party/FatFs/src/ff_gen_drv.h"
 692              		.file 68 "../../libdaisy/src/util/sd_diskio.h"
 693              		.file 69 "../../libdaisy/src/sys/fatfs.h"
 694              		.file 70 "../../DaisySP/Source/Control/adenv.h"
 695              		.file 71 "../../DaisySP/Source/Utility/dsp.h"
 696              		.file 72 "/usr/include/newlib/wchar.h"
 697              		.file 73 "/usr/include/newlib/locale.h"
ARM GAS  /tmp/ccjLgGKX.s 			page 24


 698              		.file 74 "/usr/include/newlib/ctype.h"
 699              		.file 75 "/usr/include/newlib/sys/errno.h"
 700              		.file 76 "/usr/include/newlib/string.h"
 701              		.file 77 "../../libdaisy/src/dev/sr_595.h"
ARM GAS  /tmp/ccjLgGKX.s 			page 25

