ARM GAS  /tmp/ccwZ0rcF.s 			page 1


   1              		.cpu cortex-m7
   2              		.eabi_attribute 28, 1
   3              		.eabi_attribute 20, 1
   4              		.eabi_attribute 21, 1
   5              		.eabi_attribute 23, 3
   6              		.eabi_attribute 24, 1
   7              		.eabi_attribute 25, 1
   8              		.eabi_attribute 26, 1
   9              		.eabi_attribute 30, 2
  10              		.eabi_attribute 34, 1
  11              		.eabi_attribute 18, 4
  12              		.file	"analogsnaredrum.cpp"
  13              		.text
  14              	.Ltext0:
  15              		.cfi_sections	.debug_frame
  16              		.section	.text._ZN5daisy9DaisySeedD2Ev,"axG",%progbits,_ZN5daisy9DaisySeedD5Ev,comdat
  17              		.align	1
  18              		.p2align 2,,3
  19              		.weak	_ZN5daisy9DaisySeedD2Ev
  20              		.arch armv7e-m
  21              		.syntax unified
  22              		.thumb
  23              		.thumb_func
  24              		.fpu fpv5-d16
  26              	_ZN5daisy9DaisySeedD2Ev:
  27              	.LVL0:
  28              	.LFB2037:
  29              		.file 1 "../../libdaisy/src/daisy_seed.h"
   1:../../libdaisy/src/daisy_seed.h **** #pragma once
   2:../../libdaisy/src/daisy_seed.h **** #ifndef DSY_SEED_H
   3:../../libdaisy/src/daisy_seed.h **** #define DSY_SEED_H
   4:../../libdaisy/src/daisy_seed.h **** 
   5:../../libdaisy/src/daisy_seed.h **** #include "daisy.h"
   6:../../libdaisy/src/daisy_seed.h **** 
   7:../../libdaisy/src/daisy_seed.h **** //Uncomment this out if you're still using the rev2 hardware
   8:../../libdaisy/src/daisy_seed.h **** //#define SEED_REV2
   9:../../libdaisy/src/daisy_seed.h **** 
  10:../../libdaisy/src/daisy_seed.h **** namespace daisy
  11:../../libdaisy/src/daisy_seed.h **** {
  12:../../libdaisy/src/daisy_seed.h **** /**
  13:../../libdaisy/src/daisy_seed.h ****    @brief This is the higher-level interface for the Daisy board. \n 
  14:../../libdaisy/src/daisy_seed.h ****     All basic peripheral configuration/initialization is setup here. \n
  15:../../libdaisy/src/daisy_seed.h **** 
  16:../../libdaisy/src/daisy_seed.h ****    @ingroup boards
  17:../../libdaisy/src/daisy_seed.h **** */
  18:../../libdaisy/src/daisy_seed.h **** class DaisySeed
  19:../../libdaisy/src/daisy_seed.h **** {
  20:../../libdaisy/src/daisy_seed.h ****   public:
  21:../../libdaisy/src/daisy_seed.h ****     DaisySeed() {}
  22:../../libdaisy/src/daisy_seed.h ****     ~DaisySeed() {}
  30              		.loc 1 22 5 view -0
  31              		.cfi_startproc
  32              		@ args = 0, pretend = 0, frame = 0
  33              		@ frame_needed = 0, uses_anonymous_args = 0
  34              		@ link register save eliminated.
  35              	.LBB79:
  36              	.LBI79:
ARM GAS  /tmp/ccwZ0rcF.s 			page 2


  37              		.file 2 "../../libdaisy/src/sys/system.h"
   1:../../libdaisy/src/sys/system.h **** #ifndef DSY_SYSTEM_H
   2:../../libdaisy/src/sys/system.h **** #define DSY_SYSTEM_H
   3:../../libdaisy/src/sys/system.h **** 
   4:../../libdaisy/src/sys/system.h **** #ifndef UNIT_TEST // for unit tests, a dummy implementation is provided below
   5:../../libdaisy/src/sys/system.h **** 
   6:../../libdaisy/src/sys/system.h **** #include <cstdint>
   7:../../libdaisy/src/sys/system.h **** #include "per/tim.h"
   8:../../libdaisy/src/sys/system.h **** 
   9:../../libdaisy/src/sys/system.h **** namespace daisy
  10:../../libdaisy/src/sys/system.h **** {
  11:../../libdaisy/src/sys/system.h **** /** A handle for interacting with the Core System. 
  12:../../libdaisy/src/sys/system.h ****  ** This includes the Clock tree, MPU, global DMA initialization,
  13:../../libdaisy/src/sys/system.h ****  ** cache handling, and any other necessary global initiailzation
  14:../../libdaisy/src/sys/system.h ****  **
  15:../../libdaisy/src/sys/system.h ****  ** @author shensley
  16:../../libdaisy/src/sys/system.h ****  ** @addtogroup system
  17:../../libdaisy/src/sys/system.h ****  */
  18:../../libdaisy/src/sys/system.h **** class System
  19:../../libdaisy/src/sys/system.h **** {
  20:../../libdaisy/src/sys/system.h ****   public:
  21:../../libdaisy/src/sys/system.h ****     /** Contains settings for initializing the System */
  22:../../libdaisy/src/sys/system.h ****     struct Config
  23:../../libdaisy/src/sys/system.h ****     {
  24:../../libdaisy/src/sys/system.h ****         /** Specifies the system clock frequency that feeds APB/AHB clocks, etc. */
  25:../../libdaisy/src/sys/system.h ****         enum class SysClkFreq
  26:../../libdaisy/src/sys/system.h ****         {
  27:../../libdaisy/src/sys/system.h ****             FREQ_400MHZ,
  28:../../libdaisy/src/sys/system.h ****             FREQ_480MHZ,
  29:../../libdaisy/src/sys/system.h ****         };
  30:../../libdaisy/src/sys/system.h **** 
  31:../../libdaisy/src/sys/system.h ****         /** Method to call on the struct to set to defaults
  32:../../libdaisy/src/sys/system.h ****          ** CPU Freq set to 400MHz
  33:../../libdaisy/src/sys/system.h ****          ** Cache Enabled 
  34:../../libdaisy/src/sys/system.h ****          ** */
  35:../../libdaisy/src/sys/system.h ****         void Defaults()
  36:../../libdaisy/src/sys/system.h ****         {
  37:../../libdaisy/src/sys/system.h ****             cpu_freq   = SysClkFreq::FREQ_400MHZ;
  38:../../libdaisy/src/sys/system.h ****             use_dcache = true;
  39:../../libdaisy/src/sys/system.h ****             use_icache = true;
  40:../../libdaisy/src/sys/system.h ****         }
  41:../../libdaisy/src/sys/system.h **** 
  42:../../libdaisy/src/sys/system.h ****         /** Method to call on the struct to set to boost mode:
  43:../../libdaisy/src/sys/system.h ****          ** CPU Freq set to 480MHz
  44:../../libdaisy/src/sys/system.h ****          ** Cache Enabled 
  45:../../libdaisy/src/sys/system.h ****          ** */
  46:../../libdaisy/src/sys/system.h ****         void Boost()
  47:../../libdaisy/src/sys/system.h ****         {
  48:../../libdaisy/src/sys/system.h ****             cpu_freq   = SysClkFreq::FREQ_480MHZ;
  49:../../libdaisy/src/sys/system.h ****             use_dcache = true;
  50:../../libdaisy/src/sys/system.h ****             use_icache = true;
  51:../../libdaisy/src/sys/system.h ****         }
  52:../../libdaisy/src/sys/system.h **** 
  53:../../libdaisy/src/sys/system.h ****         SysClkFreq cpu_freq;
  54:../../libdaisy/src/sys/system.h ****         bool       use_dcache;
  55:../../libdaisy/src/sys/system.h ****         bool       use_icache;
  56:../../libdaisy/src/sys/system.h ****     };
ARM GAS  /tmp/ccwZ0rcF.s 			page 3


  57:../../libdaisy/src/sys/system.h **** 
  58:../../libdaisy/src/sys/system.h ****     System() {}
  59:../../libdaisy/src/sys/system.h ****     ~System() {}
  38              		.loc 2 59 5 view .LVU1
  39              		.loc 2 59 5 is_stmt 0 view .LVU2
  40              	.LBE79:
  41              	.LBB80:
  42              	.LBI80:
  43              		.file 3 "../../libdaisy/src/hid/usb.h"
   1:../../libdaisy/src/hid/usb.h **** #pragma once
   2:../../libdaisy/src/hid/usb.h **** #ifndef DSY_HID_USB_H
   3:../../libdaisy/src/hid/usb.h **** #define DSY_HID_USB_H
   4:../../libdaisy/src/hid/usb.h **** #include <stdint.h>
   5:../../libdaisy/src/hid/usb.h **** #include <stdlib.h>
   6:../../libdaisy/src/hid/usb.h **** 
   7:../../libdaisy/src/hid/usb.h **** namespace daisy
   8:../../libdaisy/src/hid/usb.h **** /** @addtogroup externals
   9:../../libdaisy/src/hid/usb.h ****     @{
  10:../../libdaisy/src/hid/usb.h **** */
  11:../../libdaisy/src/hid/usb.h **** 
  12:../../libdaisy/src/hid/usb.h **** {
  13:../../libdaisy/src/hid/usb.h **** /** 
  14:../../libdaisy/src/hid/usb.h ****     @brief Interface for initializing and using the USB Peripherals on the daisy
  15:../../libdaisy/src/hid/usb.h ****     @author Stephen Hensley
  16:../../libdaisy/src/hid/usb.h ****     @date December 2019
  17:../../libdaisy/src/hid/usb.h **** */
  18:../../libdaisy/src/hid/usb.h **** class UsbHandle
  19:../../libdaisy/src/hid/usb.h **** {
  20:../../libdaisy/src/hid/usb.h ****   public:
  21:../../libdaisy/src/hid/usb.h ****     /** Return values for USBHandle Functions */
  22:../../libdaisy/src/hid/usb.h ****     enum class Result
  23:../../libdaisy/src/hid/usb.h ****     {
  24:../../libdaisy/src/hid/usb.h ****         OK,
  25:../../libdaisy/src/hid/usb.h ****         ERR,
  26:../../libdaisy/src/hid/usb.h ****     };
  27:../../libdaisy/src/hid/usb.h **** 
  28:../../libdaisy/src/hid/usb.h ****     /** Specified which of the two USB Peripherals to initialize. */
  29:../../libdaisy/src/hid/usb.h ****     enum UsbPeriph
  30:../../libdaisy/src/hid/usb.h ****     {
  31:../../libdaisy/src/hid/usb.h ****         FS_INTERNAL, /**< Internal pin */
  32:../../libdaisy/src/hid/usb.h ****         FS_EXTERNAL, /**< FS External D+ pin is Pin 38 (GPIO32). FS External D- pin is Pin 37 (GPIO
  33:../../libdaisy/src/hid/usb.h ****         FS_BOTH,     /**< Both */
  34:../../libdaisy/src/hid/usb.h ****     };
  35:../../libdaisy/src/hid/usb.h **** 
  36:../../libdaisy/src/hid/usb.h **** 
  37:../../libdaisy/src/hid/usb.h ****     /** Function called upon reception of a buffer */
  38:../../libdaisy/src/hid/usb.h ****     typedef void (*ReceiveCallback)(uint8_t* buff, uint32_t* len);
  39:../../libdaisy/src/hid/usb.h **** 
  40:../../libdaisy/src/hid/usb.h ****     UsbHandle() {}
  41:../../libdaisy/src/hid/usb.h **** 
  42:../../libdaisy/src/hid/usb.h ****     ~UsbHandle() {}
  44              		.loc 3 42 5 is_stmt 1 view .LVU3
  45              		.loc 3 42 5 is_stmt 0 view .LVU4
  46              	.LBE80:
  47              	.LBB81:
  48              	.LBI81:
  49              		.file 4 "../../libdaisy/src/per/adc.h"
ARM GAS  /tmp/ccwZ0rcF.s 			page 4


   1:../../libdaisy/src/per/adc.h **** #pragma once
   2:../../libdaisy/src/per/adc.h **** #ifndef DSY_ADC_H
   3:../../libdaisy/src/per/adc.h **** #define DSY_ADC_H /**< Macro */
   4:../../libdaisy/src/per/adc.h **** #include <stdint.h>
   5:../../libdaisy/src/per/adc.h **** #include <stdlib.h>
   6:../../libdaisy/src/per/adc.h **** #include "daisy_core.h"
   7:../../libdaisy/src/per/adc.h **** #include "per/gpio.h"
   8:../../libdaisy/src/per/adc.h **** 
   9:../../libdaisy/src/per/adc.h **** #define DSY_ADC_MAX_CHANNELS 14 /**< Maximum number of ADC channels */
  10:../../libdaisy/src/per/adc.h **** 
  11:../../libdaisy/src/per/adc.h **** namespace daisy
  12:../../libdaisy/src/per/adc.h **** {
  13:../../libdaisy/src/per/adc.h **** /** @addtogroup analog_digital_conversion
  14:../../libdaisy/src/per/adc.h ****     @{
  15:../../libdaisy/src/per/adc.h **** */
  16:../../libdaisy/src/per/adc.h **** 
  17:../../libdaisy/src/per/adc.h **** /* While there may not be many configuration options here,
  18:../../libdaisy/src/per/adc.h **** using a struct like this allows us to add more configuration
  19:../../libdaisy/src/per/adc.h **** later without breaking existing functionality.
  20:../../libdaisy/src/per/adc.h **** */
  21:../../libdaisy/src/per/adc.h **** 
  22:../../libdaisy/src/per/adc.h **** /** Configuration Structure for a given channel */
  23:../../libdaisy/src/per/adc.h **** struct AdcChannelConfig
  24:../../libdaisy/src/per/adc.h **** {
  25:../../libdaisy/src/per/adc.h ****     /** Which pin to use for multiplexing */
  26:../../libdaisy/src/per/adc.h ****     enum MuxPin
  27:../../libdaisy/src/per/adc.h ****     {
  28:../../libdaisy/src/per/adc.h ****         MUX_SEL_0,    /**< & */
  29:../../libdaisy/src/per/adc.h ****         MUX_SEL_1,    /**< & */
  30:../../libdaisy/src/per/adc.h ****         MUX_SEL_2,    /**< & */
  31:../../libdaisy/src/per/adc.h ****         MUX_SEL_LAST, /**< & */
  32:../../libdaisy/src/per/adc.h ****     };
  33:../../libdaisy/src/per/adc.h **** 
  34:../../libdaisy/src/per/adc.h ****     /** Initializes a single ADC pin as an ADC. 
  35:../../libdaisy/src/per/adc.h ****     \param pin Pin to init.
  36:../../libdaisy/src/per/adc.h ****      */
  37:../../libdaisy/src/per/adc.h ****     void InitSingle(dsy_gpio_pin pin);
  38:../../libdaisy/src/per/adc.h **** 
  39:../../libdaisy/src/per/adc.h ****     /** 
  40:../../libdaisy/src/per/adc.h ****     Initializes a single ADC pin as a Multiplexed ADC.
  41:../../libdaisy/src/per/adc.h ****     Requires a CD405X Multiplexer connected to the pin.
  42:../../libdaisy/src/per/adc.h ****     You only need to supply the mux pins that are required,
  43:../../libdaisy/src/per/adc.h ****     e.g. a 4052 mux would only require mux_0 and mux_1.
  44:../../libdaisy/src/per/adc.h ****     Internal Callbacks handle the pin addressing.
  45:../../libdaisy/src/per/adc.h ****     \param mux_channels must be 1-8
  46:../../libdaisy/src/per/adc.h ****     \param mux_0 First mux pin
  47:../../libdaisy/src/per/adc.h ****     \param mux_1 Second mux pin
  48:../../libdaisy/src/per/adc.h ****     \param mux_2 Third mux pin
  49:../../libdaisy/src/per/adc.h ****     \param adc_pin &
  50:../../libdaisy/src/per/adc.h ****     */
  51:../../libdaisy/src/per/adc.h ****     void InitMux(dsy_gpio_pin adc_pin,
  52:../../libdaisy/src/per/adc.h ****                  size_t       mux_channels,
  53:../../libdaisy/src/per/adc.h ****                  dsy_gpio_pin mux_0,
  54:../../libdaisy/src/per/adc.h ****                  dsy_gpio_pin mux_1 = {DSY_GPIOX, 0},
  55:../../libdaisy/src/per/adc.h ****                  dsy_gpio_pin mux_2 = {DSY_GPIOX, 0});
  56:../../libdaisy/src/per/adc.h **** 
  57:../../libdaisy/src/per/adc.h ****     dsy_gpio pin_;                   /**< & */
ARM GAS  /tmp/ccwZ0rcF.s 			page 5


  58:../../libdaisy/src/per/adc.h ****     dsy_gpio mux_pin_[MUX_SEL_LAST]; /**< & */
  59:../../libdaisy/src/per/adc.h ****     uint8_t  mux_channels_;          /**< & */
  60:../../libdaisy/src/per/adc.h **** };
  61:../../libdaisy/src/per/adc.h **** 
  62:../../libdaisy/src/per/adc.h **** /**
  63:../../libdaisy/src/per/adc.h ****    Handler for analog to digital conversion
  64:../../libdaisy/src/per/adc.h **** */
  65:../../libdaisy/src/per/adc.h **** class AdcHandle
  66:../../libdaisy/src/per/adc.h **** {
  67:../../libdaisy/src/per/adc.h ****   public:
  68:../../libdaisy/src/per/adc.h ****     /** Supported oversampling amounts */
  69:../../libdaisy/src/per/adc.h ****     enum OverSampling
  70:../../libdaisy/src/per/adc.h ****     {
  71:../../libdaisy/src/per/adc.h ****         OVS_NONE, /**< & */
  72:../../libdaisy/src/per/adc.h ****         OVS_4,    /**< & */
  73:../../libdaisy/src/per/adc.h ****         OVS_8,    /**< & */
  74:../../libdaisy/src/per/adc.h ****         OVS_16,   /**< & */
  75:../../libdaisy/src/per/adc.h ****         OVS_32,   /**< & */
  76:../../libdaisy/src/per/adc.h ****         OVS_64,   /**< & */
  77:../../libdaisy/src/per/adc.h ****         OVS_128,  /**< & */
  78:../../libdaisy/src/per/adc.h ****         OVS_256,  /**< & */
  79:../../libdaisy/src/per/adc.h ****         OVS_512,  /**< & */
  80:../../libdaisy/src/per/adc.h ****         OVS_1024, /**< & */
  81:../../libdaisy/src/per/adc.h ****         OVS_LAST, /**< & */
  82:../../libdaisy/src/per/adc.h ****     };
  83:../../libdaisy/src/per/adc.h **** 
  84:../../libdaisy/src/per/adc.h ****     AdcHandle() {}
  85:../../libdaisy/src/per/adc.h ****     ~AdcHandle() {}
  50              		.loc 4 85 5 is_stmt 1 view .LVU5
  51              		.loc 4 85 5 is_stmt 0 view .LVU6
  52              	.LBE81:
  53              	.LBB82:
  54              	.LBI82:
  55              		.file 5 "../../libdaisy/src/hid/audio.h"
   1:../../libdaisy/src/hid/audio.h **** #ifndef DSY_AUDIO_H
   2:../../libdaisy/src/hid/audio.h **** #define DSY_AUDIO_H /**< & */
   3:../../libdaisy/src/hid/audio.h **** 
   4:../../libdaisy/src/hid/audio.h **** #include "per/sai.h"
   5:../../libdaisy/src/hid/audio.h **** 
   6:../../libdaisy/src/hid/audio.h **** namespace daisy
   7:../../libdaisy/src/hid/audio.h **** {
   8:../../libdaisy/src/hid/audio.h **** class AudioHandle
   9:../../libdaisy/src/hid/audio.h **** {
  10:../../libdaisy/src/hid/audio.h ****   public:
  11:../../libdaisy/src/hid/audio.h ****     /** Manually configurable details about the Audio Engine */
  12:../../libdaisy/src/hid/audio.h ****     /** TODO: Figure out how to get samplerate in here. */
  13:../../libdaisy/src/hid/audio.h ****     struct Config
  14:../../libdaisy/src/hid/audio.h ****     {
  15:../../libdaisy/src/hid/audio.h ****         size_t                        blocksize;
  16:../../libdaisy/src/hid/audio.h ****         SaiHandle::Config::SampleRate samplerate;
  17:../../libdaisy/src/hid/audio.h ****         float                         postgain;
  18:../../libdaisy/src/hid/audio.h ****     };
  19:../../libdaisy/src/hid/audio.h **** 
  20:../../libdaisy/src/hid/audio.h ****     enum class Result
  21:../../libdaisy/src/hid/audio.h ****     {
  22:../../libdaisy/src/hid/audio.h ****         OK,
  23:../../libdaisy/src/hid/audio.h ****         ERR,
ARM GAS  /tmp/ccwZ0rcF.s 			page 6


  24:../../libdaisy/src/hid/audio.h ****     };
  25:../../libdaisy/src/hid/audio.h **** 
  26:../../libdaisy/src/hid/audio.h ****     /** Non-Interleaving input buffer
  27:../../libdaisy/src/hid/audio.h ****      * Buffer arranged by float[chn][sample] 
  28:../../libdaisy/src/hid/audio.h ****      * const so that the user can't modify the input
  29:../../libdaisy/src/hid/audio.h ****     */
  30:../../libdaisy/src/hid/audio.h ****     typedef const float* const* InputBuffer;
  31:../../libdaisy/src/hid/audio.h **** 
  32:../../libdaisy/src/hid/audio.h ****     /** Non-Interleaving output buffer
  33:../../libdaisy/src/hid/audio.h ****      * Arranged by float[chn][sample] 
  34:../../libdaisy/src/hid/audio.h ****     */
  35:../../libdaisy/src/hid/audio.h ****     typedef float** OutputBuffer;
  36:../../libdaisy/src/hid/audio.h **** 
  37:../../libdaisy/src/hid/audio.h ****     /** Type for a Non-Interleaving audio callback 
  38:../../libdaisy/src/hid/audio.h ****    * Non-Interleaving audio callbacks in daisy will be of this type
  39:../../libdaisy/src/hid/audio.h ****   */
  40:../../libdaisy/src/hid/audio.h ****     typedef void (*AudioCallback)(InputBuffer  in,
  41:../../libdaisy/src/hid/audio.h ****                                   OutputBuffer out,
  42:../../libdaisy/src/hid/audio.h ****                                   size_t       size);
  43:../../libdaisy/src/hid/audio.h **** 
  44:../../libdaisy/src/hid/audio.h ****     /** Interleaving Input buffer
  45:../../libdaisy/src/hid/audio.h ****      ** audio is prepared as { L0, R0, L1, R1, . . . LN, RN }]
  46:../../libdaisy/src/hid/audio.h ****      ** this is const, as the user shouldn't modify it
  47:../../libdaisy/src/hid/audio.h ****     */
  48:../../libdaisy/src/hid/audio.h ****     typedef const float* InterleavingInputBuffer;
  49:../../libdaisy/src/hid/audio.h **** 
  50:../../libdaisy/src/hid/audio.h ****     /** Interleaving Output buffer 
  51:../../libdaisy/src/hid/audio.h ****      ** audio is prepared as { L0, R0, L1, R1, . . . LN, RN }
  52:../../libdaisy/src/hid/audio.h ****     */
  53:../../libdaisy/src/hid/audio.h ****     typedef float* InterleavingOutputBuffer;
  54:../../libdaisy/src/hid/audio.h **** 
  55:../../libdaisy/src/hid/audio.h ****     /** Interleaving Audio Callback 
  56:../../libdaisy/src/hid/audio.h ****    * Interleaving audio callbacks in daisy must be of this type
  57:../../libdaisy/src/hid/audio.h ****   */
  58:../../libdaisy/src/hid/audio.h ****     typedef void (*InterleavingAudioCallback)(InterleavingInputBuffer  in,
  59:../../libdaisy/src/hid/audio.h ****                                               InterleavingOutputBuffer out,
  60:../../libdaisy/src/hid/audio.h ****                                               size_t                   size);
  61:../../libdaisy/src/hid/audio.h **** 
  62:../../libdaisy/src/hid/audio.h ****     AudioHandle() : pimpl_(nullptr) {}
  63:../../libdaisy/src/hid/audio.h ****     ~AudioHandle() {}
  56              		.loc 5 63 5 is_stmt 1 view .LVU7
  57              		.loc 5 63 5 is_stmt 0 view .LVU8
  58              	.LBE82:
  59              		.loc 1 22 19 view .LVU9
  60 0000 7047     		bx	lr
  61              		.cfi_endproc
  62              	.LFE2037:
  64              		.weak	_ZN5daisy9DaisySeedD1Ev
  65              		.thumb_set _ZN5daisy9DaisySeedD1Ev,_ZN5daisy9DaisySeedD2Ev
  66 0002 00BF     		.section	.text._ZN7daisysp15AnalogSnareDrumD2Ev,"axG",%progbits,_ZN7daisysp15AnalogSnareDrumD5Ev,c
  67              		.align	1
  68              		.p2align 2,,3
  69              		.weak	_ZN7daisysp15AnalogSnareDrumD2Ev
  70              		.syntax unified
  71              		.thumb
  72              		.thumb_func
  73              		.fpu fpv5-d16
ARM GAS  /tmp/ccwZ0rcF.s 			page 7


  75              	_ZN7daisysp15AnalogSnareDrumD2Ev:
  76              	.LVL1:
  77              	.LFB3707:
  78              		.file 6 "../../DaisySP/Source/Drums/analogsnaredrum.h"
   1:../../DaisySP/Source/Drums/analogsnaredrum.h **** #pragma once
   2:../../DaisySP/Source/Drums/analogsnaredrum.h **** #ifndef DSY_ANALOG_SNARE_H
   3:../../DaisySP/Source/Drums/analogsnaredrum.h **** #define DSY_ANALOG_SNARE_H
   4:../../DaisySP/Source/Drums/analogsnaredrum.h **** 
   5:../../DaisySP/Source/Drums/analogsnaredrum.h **** #include "Filters/svf.h"
   6:../../DaisySP/Source/Drums/analogsnaredrum.h **** 
   7:../../DaisySP/Source/Drums/analogsnaredrum.h **** #include <stdint.h>
   8:../../DaisySP/Source/Drums/analogsnaredrum.h **** #ifdef __cplusplus
   9:../../DaisySP/Source/Drums/analogsnaredrum.h **** 
  10:../../DaisySP/Source/Drums/analogsnaredrum.h **** /** @file analogsnaredrum.h */
  11:../../DaisySP/Source/Drums/analogsnaredrum.h **** 
  12:../../DaisySP/Source/Drums/analogsnaredrum.h **** namespace daisysp
  13:../../DaisySP/Source/Drums/analogsnaredrum.h **** {
  14:../../DaisySP/Source/Drums/analogsnaredrum.h **** /**  
  15:../../DaisySP/Source/Drums/analogsnaredrum.h ****        @brief 808 snare drum model, revisited.
  16:../../DaisySP/Source/Drums/analogsnaredrum.h ****        @author Ben Sergentanis
  17:../../DaisySP/Source/Drums/analogsnaredrum.h ****        @date Jan 2021
  18:../../DaisySP/Source/Drums/analogsnaredrum.h ****        Ported from pichenettes/eurorack/plaits/dsp/drums/analog_snare_drum.h \n
  19:../../DaisySP/Source/Drums/analogsnaredrum.h ****        to an independent module. \n
  20:../../DaisySP/Source/Drums/analogsnaredrum.h ****        Original code written by Emilie Gillet in 2016. \n
  21:../../DaisySP/Source/Drums/analogsnaredrum.h **** */
  22:../../DaisySP/Source/Drums/analogsnaredrum.h **** class AnalogSnareDrum
  23:../../DaisySP/Source/Drums/analogsnaredrum.h **** {
  24:../../DaisySP/Source/Drums/analogsnaredrum.h ****   public:
  25:../../DaisySP/Source/Drums/analogsnaredrum.h ****     AnalogSnareDrum() {}
  26:../../DaisySP/Source/Drums/analogsnaredrum.h ****     ~AnalogSnareDrum() {}
  79              		.loc 6 26 5 is_stmt 1 view -0
  80              		.cfi_startproc
  81              		@ args = 0, pretend = 0, frame = 0
  82              		@ frame_needed = 0, uses_anonymous_args = 0
  83              		@ link register save eliminated.
  84              	.LBB83:
  85              	.LBI83:
  86              		.file 7 "../../DaisySP/Source/Filters/svf.h"
   1:../../DaisySP/Source/Filters/svf.h **** #pragma once
   2:../../DaisySP/Source/Filters/svf.h **** #ifndef DSY_SVF_H
   3:../../DaisySP/Source/Filters/svf.h **** #define DSY_SVF_H
   4:../../DaisySP/Source/Filters/svf.h **** 
   5:../../DaisySP/Source/Filters/svf.h **** namespace daisysp
   6:../../DaisySP/Source/Filters/svf.h **** {
   7:../../DaisySP/Source/Filters/svf.h **** /**      Double Sampled, Stable State Variable Filter
   8:../../DaisySP/Source/Filters/svf.h **** 
   9:../../DaisySP/Source/Filters/svf.h **** Credit to Andrew Simper from musicdsp.org
  10:../../DaisySP/Source/Filters/svf.h **** 
  11:../../DaisySP/Source/Filters/svf.h **** This is his "State Variable Filter (Double Sampled, Stable)"
  12:../../DaisySP/Source/Filters/svf.h **** 
  13:../../DaisySP/Source/Filters/svf.h **** Additional thanks to Laurent de Soras for stability limit, and 
  14:../../DaisySP/Source/Filters/svf.h **** Stefan Diedrichsen for the correct notch output
  15:../../DaisySP/Source/Filters/svf.h **** 
  16:../../DaisySP/Source/Filters/svf.h **** Ported by: Stephen Hensley
  17:../../DaisySP/Source/Filters/svf.h **** */
  18:../../DaisySP/Source/Filters/svf.h **** class Svf
  19:../../DaisySP/Source/Filters/svf.h **** {
ARM GAS  /tmp/ccwZ0rcF.s 			page 8


  20:../../DaisySP/Source/Filters/svf.h ****   public:
  21:../../DaisySP/Source/Filters/svf.h ****     Svf() {}
  22:../../DaisySP/Source/Filters/svf.h ****     ~Svf() {}
  87              		.loc 7 22 5 view .LVU11
  88              		.loc 7 22 5 is_stmt 0 view .LVU12
  89              	.LBE83:
  90              		.loc 6 26 25 view .LVU13
  91 0000 7047     		bx	lr
  92              		.cfi_endproc
  93              	.LFE3707:
  95              		.weak	_ZN7daisysp15AnalogSnareDrumD1Ev
  96              		.thumb_set _ZN7daisysp15AnalogSnareDrumD1Ev,_ZN7daisysp15AnalogSnareDrumD2Ev
  97 0002 00BF     		.section	.text._ZN7daisysp5MetroD2Ev,"axG",%progbits,_ZN7daisysp5MetroD5Ev,comdat
  98              		.align	1
  99              		.p2align 2,,3
 100              		.weak	_ZN7daisysp5MetroD2Ev
 101              		.syntax unified
 102              		.thumb
 103              		.thumb_func
 104              		.fpu fpv5-d16
 106              	_ZN7daisysp5MetroD2Ev:
 107              	.LVL2:
 108              	.LFB4183:
 109              		.file 8 "../../DaisySP/Source/Utility/metro.h"
   1:../../DaisySP/Source/Utility/metro.h **** #pragma once
   2:../../DaisySP/Source/Utility/metro.h **** #ifndef DSY_METRO_H
   3:../../DaisySP/Source/Utility/metro.h **** #define DSY_METRO_H
   4:../../DaisySP/Source/Utility/metro.h **** #include <stdint.h>
   5:../../DaisySP/Source/Utility/metro.h **** #ifdef __cplusplus
   6:../../DaisySP/Source/Utility/metro.h **** 
   7:../../DaisySP/Source/Utility/metro.h **** namespace daisysp
   8:../../DaisySP/Source/Utility/metro.h **** {
   9:../../DaisySP/Source/Utility/metro.h **** /** Creates a clock signal at a specific frequency.
  10:../../DaisySP/Source/Utility/metro.h **** */
  11:../../DaisySP/Source/Utility/metro.h **** class Metro
  12:../../DaisySP/Source/Utility/metro.h **** {
  13:../../DaisySP/Source/Utility/metro.h ****   public:
  14:../../DaisySP/Source/Utility/metro.h ****     Metro() {}
  15:../../DaisySP/Source/Utility/metro.h ****     ~Metro() {}
 110              		.loc 8 15 5 is_stmt 1 view -0
 111              		.cfi_startproc
 112              		@ args = 0, pretend = 0, frame = 0
 113              		@ frame_needed = 0, uses_anonymous_args = 0
 114              		@ link register save eliminated.
 115              		.loc 8 15 15 is_stmt 0 view .LVU15
 116 0000 7047     		bx	lr
 117              		.cfi_endproc
 118              	.LFE4183:
 120              		.weak	_ZN7daisysp5MetroD1Ev
 121              		.thumb_set _ZN7daisysp5MetroD1Ev,_ZN7daisysp5MetroD2Ev
 122 0002 00BF     		.section	.text._Z13AudioCallbackPKPKfPPfj,"ax",%progbits
 123              		.align	1
 124              		.p2align 2,,3
 125              		.global	_Z13AudioCallbackPKPKfPPfj
 126              		.syntax unified
 127              		.thumb
 128              		.thumb_func
ARM GAS  /tmp/ccwZ0rcF.s 			page 9


 129              		.fpu fpv5-d16
 131              	_Z13AudioCallbackPKPKfPPfj:
 132              	.LVL3:
 133              	.LFB4212:
 134              		.file 9 "analogsnaredrum.cpp"
   1:analogsnaredrum.cpp **** #include "daisy_seed.h"
   2:analogsnaredrum.cpp **** #include "daisysp.h"
   3:analogsnaredrum.cpp **** 
   4:analogsnaredrum.cpp **** using namespace daisy;
   5:analogsnaredrum.cpp **** using namespace daisysp;
   6:analogsnaredrum.cpp **** 
   7:analogsnaredrum.cpp **** DaisySeed       hw;
   8:analogsnaredrum.cpp **** AnalogSnareDrum sd;
   9:analogsnaredrum.cpp **** Metro           tick;
  10:analogsnaredrum.cpp **** 
  11:analogsnaredrum.cpp **** void AudioCallback(AudioHandle::InputBuffer  in,
  12:analogsnaredrum.cpp ****                    AudioHandle::OutputBuffer out,
  13:analogsnaredrum.cpp ****                    size_t                    size)
  14:analogsnaredrum.cpp **** {
 135              		.loc 9 14 1 is_stmt 1 view -0
 136              		.cfi_startproc
 137              		@ args = 0, pretend = 0, frame = 8
 138              		@ frame_needed = 0, uses_anonymous_args = 0
  15:analogsnaredrum.cpp ****     for(size_t i = 0; i < size; i++)
 139              		.loc 9 15 5 view .LVU17
 140              	.LBB84:
 141              		.loc 9 15 25 view .LVU18
 142 0000 002A     		cmp	r2, #0
 143 0002 4FD0     		beq	.L17
 144              	.LBE84:
  14:analogsnaredrum.cpp ****     for(size_t i = 0; i < size; i++)
 145              		.loc 9 14 1 is_stmt 0 view .LVU19
 146 0004 2DE9F041 		push	{r4, r5, r6, r7, r8, lr}
 147              		.cfi_def_cfa_offset 24
 148              		.cfi_offset 4, -24
 149              		.cfi_offset 5, -20
 150              		.cfi_offset 6, -16
 151              		.cfi_offset 7, -12
 152              		.cfi_offset 8, -8
 153              		.cfi_offset 14, -4
 154 0008 0E46     		mov	r6, r1
 155 000a 9046     		mov	r8, r2
 156              	.LBB89:
 157              		.loc 9 15 16 view .LVU20
 158 000c 0024     		movs	r4, #0
 159              	.LBE89:
  14:analogsnaredrum.cpp ****     for(size_t i = 0; i < size; i++)
 160              		.loc 9 14 1 view .LVU21
 161 000e 2DED028B 		vpush.64	{d8}
 162              		.cfi_def_cfa_offset 32
 163              		.cfi_offset 80, -32
 164              		.cfi_offset 81, -28
 165 0012 82B0     		sub	sp, sp, #8
 166              		.cfi_def_cfa_offset 40
 167 0014 0EE0     		b	.L8
 168              	.LVL4:
 169              	.L7:
ARM GAS  /tmp/ccwZ0rcF.s 			page 10


 170              	.LBB90:
 171              	.LBB85:
  16:analogsnaredrum.cpp ****     {
  17:analogsnaredrum.cpp ****         bool t = tick.Process();
  18:analogsnaredrum.cpp ****         if(t)
  19:analogsnaredrum.cpp ****         {
  20:analogsnaredrum.cpp ****             sd.SetDecay(random() / (float)RAND_MAX);
  21:analogsnaredrum.cpp ****             sd.SetSnappy(random() / (float)RAND_MAX);
  22:analogsnaredrum.cpp ****             sd.SetTone(.8f * random() / (float)RAND_MAX);
  23:analogsnaredrum.cpp ****         }
  24:analogsnaredrum.cpp ****         out[0][i] = out[1][i] = sd.Process(t);
 172              		.loc 9 24 9 is_stmt 1 discriminator 2 view .LVU22
 173              		.loc 9 24 29 is_stmt 0 discriminator 2 view .LVU23
 174 0016 7368     		ldr	r3, [r6, #4]
 175              		.loc 9 24 43 discriminator 2 view .LVU24
 176 0018 2348     		ldr	r0, .L21
 177              		.loc 9 24 29 discriminator 2 view .LVU25
 178 001a 03EB8405 		add	r5, r3, r4, lsl #2
 179              	.LBE85:
  15:analogsnaredrum.cpp ****     {
 180              		.loc 9 15 5 discriminator 2 view .LVU26
 181 001e 0134     		adds	r4, r4, #1
 182              	.LVL5:
 183              	.LBB86:
 184              		.loc 9 24 43 discriminator 2 view .LVU27
 185 0020 FFF7FEFF 		bl	_ZN7daisysp15AnalogSnareDrum7ProcessEb
 186              	.LVL6:
 187              		.loc 9 24 19 discriminator 2 view .LVU28
 188 0024 3368     		ldr	r3, [r6]
 189              	.LBE86:
  15:analogsnaredrum.cpp ****     {
 190              		.loc 9 15 25 discriminator 2 view .LVU29
 191 0026 A045     		cmp	r8, r4
 192              	.LBB87:
 193              		.loc 9 24 31 discriminator 2 view .LVU30
 194 0028 85ED000A 		vstr.32	s0, [r5]
 195              		.loc 9 24 19 discriminator 2 view .LVU31
 196 002c 3B44     		add	r3, r3, r7
 197 002e 83ED000A 		vstr.32	s0, [r3]
 198              	.LBE87:
  15:analogsnaredrum.cpp ****     {
 199              		.loc 9 15 5 is_stmt 1 discriminator 2 view .LVU32
 200              	.LVL7:
  15:analogsnaredrum.cpp ****     {
 201              		.loc 9 15 25 discriminator 2 view .LVU33
 202 0032 32D0     		beq	.L20
 203              	.LVL8:
 204              	.L8:
 205              	.LBB88:
  17:analogsnaredrum.cpp ****         if(t)
 206              		.loc 9 17 9 view .LVU34
  17:analogsnaredrum.cpp ****         if(t)
 207              		.loc 9 17 30 is_stmt 0 view .LVU35
 208 0034 1D48     		ldr	r0, .L21+4
 209 0036 A700     		lsls	r7, r4, #2
 210 0038 FFF7FEFF 		bl	_ZN7daisysp5Metro7ProcessEv
 211              	.LVL9:
ARM GAS  /tmp/ccwZ0rcF.s 			page 11


  17:analogsnaredrum.cpp ****         if(t)
 212              		.loc 9 17 31 view .LVU36
 213 003c 0028     		cmp	r0, #0
 214 003e 14BF     		ite	ne
 215 0040 0121     		movne	r1, #1
 216 0042 0021     		moveq	r1, #0
 217              	.LVL10:
  18:analogsnaredrum.cpp ****         {
 218              		.loc 9 18 9 is_stmt 1 view .LVU37
 219 0044 E7D0     		beq	.L7
  20:analogsnaredrum.cpp ****             sd.SetSnappy(random() / (float)RAND_MAX);
 220              		.loc 9 20 13 view .LVU38
 221 0046 0191     		str	r1, [sp, #4]
  20:analogsnaredrum.cpp ****             sd.SetSnappy(random() / (float)RAND_MAX);
 222              		.loc 9 20 31 is_stmt 0 view .LVU39
 223 0048 FFF7FEFF 		bl	random
 224              	.LVL11:
  20:analogsnaredrum.cpp ****             sd.SetSnappy(random() / (float)RAND_MAX);
 225              		.loc 9 20 24 view .LVU40
 226 004c 07EE900A 		vmov	s15, r0	@ int
 227 0050 9FED178A 		vldr.32	s16, .L21+8
 228 0054 1448     		ldr	r0, .L21
 229 0056 B8EEE70A 		vcvt.f32.s32	s0, s15
 230 005a 20EE080A 		vmul.f32	s0, s0, s16
 231 005e FFF7FEFF 		bl	_ZN7daisysp15AnalogSnareDrum8SetDecayEf
 232              	.LVL12:
  21:analogsnaredrum.cpp ****             sd.SetTone(.8f * random() / (float)RAND_MAX);
 233              		.loc 9 21 13 is_stmt 1 view .LVU41
  21:analogsnaredrum.cpp ****             sd.SetTone(.8f * random() / (float)RAND_MAX);
 234              		.loc 9 21 32 is_stmt 0 view .LVU42
 235 0062 FFF7FEFF 		bl	random
 236              	.LVL13:
 237 0066 00EE100A 		vmov	s0, r0	@ int
  21:analogsnaredrum.cpp ****             sd.SetTone(.8f * random() / (float)RAND_MAX);
 238              		.loc 9 21 25 view .LVU43
 239 006a 0F48     		ldr	r0, .L21
 240 006c B8EEC00A 		vcvt.f32.s32	s0, s0
 241 0070 20EE080A 		vmul.f32	s0, s0, s16
 242 0074 FFF7FEFF 		bl	_ZN7daisysp15AnalogSnareDrum9SetSnappyEf
 243              	.LVL14:
  22:analogsnaredrum.cpp ****         }
 244              		.loc 9 22 13 is_stmt 1 view .LVU44
  22:analogsnaredrum.cpp ****         }
 245              		.loc 9 22 36 is_stmt 0 view .LVU45
 246 0078 FFF7FEFF 		bl	random
 247              	.LVL15:
  22:analogsnaredrum.cpp ****         }
 248              		.loc 9 22 28 view .LVU46
 249 007c 07EE100A 		vmov	s14, r0	@ int
 250 0080 DFED0C7A 		vldr.32	s15, .L21+12
 251 0084 B8EEC70A 		vcvt.f32.s32	s0, s14
  22:analogsnaredrum.cpp ****         }
 252              		.loc 9 22 23 view .LVU47
 253 0088 0748     		ldr	r0, .L21
  22:analogsnaredrum.cpp ****         }
 254              		.loc 9 22 28 view .LVU48
 255 008a 20EE270A 		vmul.f32	s0, s0, s15
ARM GAS  /tmp/ccwZ0rcF.s 			page 12


  22:analogsnaredrum.cpp ****         }
 256              		.loc 9 22 23 view .LVU49
 257 008e 20EE080A 		vmul.f32	s0, s0, s16
 258 0092 FFF7FEFF 		bl	_ZN7daisysp15AnalogSnareDrum7SetToneEf
 259              	.LVL16:
 260 0096 0199     		ldr	r1, [sp, #4]
 261 0098 BDE7     		b	.L7
 262              	.LVL17:
 263              	.L20:
  22:analogsnaredrum.cpp ****         }
 264              		.loc 9 22 23 view .LVU50
 265              	.LBE88:
 266              	.LBE90:
  25:analogsnaredrum.cpp ****     }
  26:analogsnaredrum.cpp **** }
 267              		.loc 9 26 1 view .LVU51
 268 009a 02B0     		add	sp, sp, #8
 269              		.cfi_def_cfa_offset 32
 270              		@ sp needed
 271 009c BDEC028B 		vldm	sp!, {d8}
 272              		.cfi_restore 80
 273              		.cfi_restore 81
 274              		.cfi_def_cfa_offset 24
 275 00a0 BDE8F081 		pop	{r4, r5, r6, r7, r8, pc}
 276              	.LVL18:
 277              	.L17:
 278              		.cfi_def_cfa_offset 0
 279              		.cfi_restore 4
 280              		.cfi_restore 5
 281              		.cfi_restore 6
 282              		.cfi_restore 7
 283              		.cfi_restore 8
 284              		.cfi_restore 14
 285              		.loc 9 26 1 view .LVU52
 286 00a4 7047     		bx	lr
 287              	.L22:
 288 00a6 00BF     		.align	2
 289              	.L21:
 290 00a8 00000000 		.word	.LANCHOR1
 291 00ac 00000000 		.word	.LANCHOR0
 292 00b0 00000030 		.word	805306368
 293 00b4 CDCC4C3F 		.word	1061997773
 294              		.cfi_endproc
 295              	.LFE4212:
 297              		.section	.text.startup.main,"ax",%progbits
 298              		.align	1
 299              		.p2align 2,,3
 300              		.global	main
 301              		.syntax unified
 302              		.thumb
 303              		.thumb_func
 304              		.fpu fpv5-d16
 306              	main:
 307              	.LFB4213:
  27:analogsnaredrum.cpp **** 
  28:analogsnaredrum.cpp **** int main(void)
  29:analogsnaredrum.cpp **** {
ARM GAS  /tmp/ccwZ0rcF.s 			page 13


 308              		.loc 9 29 1 is_stmt 1 view -0
 309              		.cfi_startproc
 310              		@ args = 0, pretend = 0, frame = 0
 311              		@ frame_needed = 0, uses_anonymous_args = 0
  30:analogsnaredrum.cpp ****     hw.Configure();
 312              		.loc 9 30 5 view .LVU54
  29:analogsnaredrum.cpp ****     hw.Configure();
 313              		.loc 9 29 1 is_stmt 0 view .LVU55
 314 0000 08B5     		push	{r3, lr}
 315              		.cfi_def_cfa_offset 8
 316              		.cfi_offset 3, -8
 317              		.cfi_offset 14, -4
 318              		.loc 9 30 17 view .LVU56
 319 0002 0F48     		ldr	r0, .L26
  29:analogsnaredrum.cpp ****     hw.Configure();
 320              		.loc 9 29 1 view .LVU57
 321 0004 2DED028B 		vpush.64	{d8}
 322              		.cfi_def_cfa_offset 16
 323              		.cfi_offset 80, -16
 324              		.cfi_offset 81, -12
 325              		.loc 9 30 17 view .LVU58
 326 0008 FFF7FEFF 		bl	_ZN5daisy9DaisySeed9ConfigureEv
 327              	.LVL19:
  31:analogsnaredrum.cpp ****     hw.Init();
 328              		.loc 9 31 5 is_stmt 1 view .LVU59
 329              		.loc 9 31 12 is_stmt 0 view .LVU60
 330 000c 0021     		movs	r1, #0
 331 000e 0C48     		ldr	r0, .L26
 332 0010 FFF7FEFF 		bl	_ZN5daisy9DaisySeed4InitEb
 333              	.LVL20:
  32:analogsnaredrum.cpp ****     float sample_rate = hw.AudioSampleRate();
 334              		.loc 9 32 5 is_stmt 1 view .LVU61
 335              		.loc 9 32 43 is_stmt 0 view .LVU62
 336 0014 0A48     		ldr	r0, .L26
 337 0016 FFF7FEFF 		bl	_ZN5daisy9DaisySeed15AudioSampleRateEv
 338              	.LVL21:
 339 001a B0EE408A 		vmov.f32	s16, s0
  33:analogsnaredrum.cpp **** 
  34:analogsnaredrum.cpp ****     tick.Init(2.f, sample_rate);
 340              		.loc 9 34 14 view .LVU63
 341 001e 0948     		ldr	r0, .L26+4
 342 0020 B0EE000A 		vmov.f32	s0, #2.0e+0
 343              	.LVL22:
 344              		.loc 9 34 5 is_stmt 1 view .LVU64
 345              		.loc 9 34 14 is_stmt 0 view .LVU65
 346 0024 F0EE480A 		vmov.f32	s1, s16
 347 0028 FFF7FEFF 		bl	_ZN7daisysp5Metro4InitEff
 348              	.LVL23:
  35:analogsnaredrum.cpp **** 
  36:analogsnaredrum.cpp ****     sd.Init(sample_rate);
 349              		.loc 9 36 5 is_stmt 1 view .LVU66
 350              		.loc 9 36 12 is_stmt 0 view .LVU67
 351 002c 0648     		ldr	r0, .L26+8
 352 002e B0EE480A 		vmov.f32	s0, s16
 353 0032 FFF7FEFF 		bl	_ZN7daisysp15AnalogSnareDrum4InitEf
 354              	.LVL24:
  37:analogsnaredrum.cpp **** 
ARM GAS  /tmp/ccwZ0rcF.s 			page 14


  38:analogsnaredrum.cpp ****     hw.StartAudio(AudioCallback);
 355              		.loc 9 38 5 is_stmt 1 view .LVU68
 356              		.loc 9 38 18 is_stmt 0 view .LVU69
 357 0036 0549     		ldr	r1, .L26+12
 358 0038 0148     		ldr	r0, .L26
 359 003a FFF7FEFF 		bl	_ZN5daisy9DaisySeed10StartAudioEPFvPKPKfPPfjE
 360              	.LVL25:
 361              	.L24:
  39:analogsnaredrum.cpp ****     while(1) {}
 362              		.loc 9 39 5 is_stmt 1 discriminator 1 view .LVU70
 363              		.loc 9 39 5 discriminator 1 view .LVU71
 364              		.loc 9 39 5 discriminator 1 view .LVU72
 365              		.loc 9 39 5 discriminator 1 view .LVU73
 366 003e FEE7     		b	.L24
 367              	.L27:
 368              		.align	2
 369              	.L26:
 370 0040 00000000 		.word	.LANCHOR2
 371 0044 00000000 		.word	.LANCHOR0
 372 0048 00000000 		.word	.LANCHOR1
 373 004c 00000000 		.word	_Z13AudioCallbackPKPKfPPfj
 374              		.cfi_endproc
 375              	.LFE4213:
 377              		.section	.text.startup._GLOBAL__sub_I_hw,"ax",%progbits
 378              		.align	1
 379              		.p2align 2,,3
 380              		.syntax unified
 381              		.thumb
 382              		.thumb_func
 383              		.fpu fpv5-d16
 385              	_GLOBAL__sub_I_hw:
 386              	.LFB4759:
  40:analogsnaredrum.cpp **** }
 387              		.loc 9 40 1 view -0
 388              		.cfi_startproc
 389              		@ args = 0, pretend = 0, frame = 0
 390              		@ frame_needed = 0, uses_anonymous_args = 0
 391              	.LBB113:
 392              	.LBI113:
 393              		.loc 9 40 1 view .LVU75
 394              	.LVL26:
 395              	.LBB114:
 396              	.LBB115:
 397              	.LBI115:
  21:../../libdaisy/src/daisy_seed.h ****     ~DaisySeed() {}
 398              		.loc 1 21 5 view .LVU76
 399              	.LBB116:
 400              	.LBB117:
 401              	.LBI117:
  62:../../libdaisy/src/hid/audio.h ****     ~AudioHandle() {}
 402              		.loc 5 62 5 view .LVU77
 403              	.LBE117:
 404              	.LBE116:
 405              	.LBE115:
 406              	.LBE114:
 407              	.LBE113:
 408              		.loc 9 40 1 is_stmt 0 view .LVU78
ARM GAS  /tmp/ccwZ0rcF.s 			page 15


 409 0000 08B5     		push	{r3, lr}
 410              		.cfi_def_cfa_offset 8
 411              		.cfi_offset 3, -8
 412              		.cfi_offset 14, -4
 413              	.LBB142:
 414              	.LBB139:
 415              	.LBB132:
 416              	.LBB130:
 417              	.LBB122:
 418              	.LBB118:
 419              	.LBB119:
  62:../../libdaisy/src/hid/audio.h ****     ~AudioHandle() {}
 420              		.loc 5 62 35 view .LVU79
 421 0002 0A48     		ldr	r0, .L30
 422 0004 0023     		movs	r3, #0
 423              	.LBE119:
 424              	.LBE118:
 425              	.LBE122:
 426              	.LBE130:
 427              	.LBE132:
   7:analogsnaredrum.cpp **** AnalogSnareDrum sd;
 428              		.loc 9 7 17 view .LVU80
 429 0006 0A4A     		ldr	r2, .L30+4
 430              	.LBB133:
 431              	.LBB131:
 432              	.LBB123:
 433              	.LBB121:
 434              	.LBB120:
  62:../../libdaisy/src/hid/audio.h ****     ~AudioHandle() {}
 435              		.loc 5 62 35 view .LVU81
 436 0008 4361     		str	r3, [r0, #20]
 437              	.LVL27:
  62:../../libdaisy/src/hid/audio.h ****     ~AudioHandle() {}
 438              		.loc 5 62 35 view .LVU82
 439              	.LBE120:
 440              	.LBE121:
 441              	.LBE123:
 442              	.LBB124:
 443              	.LBI124:
  84:../../libdaisy/src/per/adc.h ****     ~AdcHandle() {}
 444              		.loc 4 84 5 is_stmt 1 view .LVU83
  84:../../libdaisy/src/per/adc.h ****     ~AdcHandle() {}
 445              		.loc 4 84 5 is_stmt 0 view .LVU84
 446              	.LBE124:
 447              	.LBB125:
 448              	.LBI125:
 449              		.file 10 "../../libdaisy/src/per/dac.h"
   1:../../libdaisy/src/per/dac.h **** #pragma once
   2:../../libdaisy/src/per/dac.h **** #ifndef DSY_DAC_H
   3:../../libdaisy/src/per/dac.h **** #define DSY_DAC_H
   4:../../libdaisy/src/per/dac.h **** 
   5:../../libdaisy/src/per/dac.h **** #include "daisy_core.h"
   6:../../libdaisy/src/per/dac.h **** 
   7:../../libdaisy/src/per/dac.h **** namespace daisy
   8:../../libdaisy/src/per/dac.h **** {
   9:../../libdaisy/src/per/dac.h **** /** DAC handle for Built-in DAC Peripheral 
  10:../../libdaisy/src/per/dac.h ****  ** 
ARM GAS  /tmp/ccwZ0rcF.s 			page 16


  11:../../libdaisy/src/per/dac.h ****  ** For now only Normal Mode is supported,
  12:../../libdaisy/src/per/dac.h ****  ** Sample and hold mode provides reduced power consumption, but requires a bit more setup.
  13:../../libdaisy/src/per/dac.h ****  **
  14:../../libdaisy/src/per/dac.h ****  ** For now connecting the DAC through other internal periphearls is also not supported.
  15:../../libdaisy/src/per/dac.h ****  **
  16:../../libdaisy/src/per/dac.h ****  ** Since the DAC channels have dedicated pins we don't need to pass in a pin config like with
  17:../../libdaisy/src/per/dac.h ****  ** other modules. However, it is still important to not try to use the DAC pins for anything else.
  18:../../libdaisy/src/per/dac.h ****  ** DAC Channel 1 is on PA4, and DAC Channel 2 is on PA5
  19:../../libdaisy/src/per/dac.h ****  ***/
  20:../../libdaisy/src/per/dac.h **** class DacHandle
  21:../../libdaisy/src/per/dac.h **** {
  22:../../libdaisy/src/per/dac.h ****   public:
  23:../../libdaisy/src/per/dac.h ****     /** Return Values for the DacHandle class */
  24:../../libdaisy/src/per/dac.h ****     enum class Result
  25:../../libdaisy/src/per/dac.h ****     {
  26:../../libdaisy/src/per/dac.h ****         OK,
  27:../../libdaisy/src/per/dac.h ****         ERR,
  28:../../libdaisy/src/per/dac.h ****     };
  29:../../libdaisy/src/per/dac.h **** 
  30:../../libdaisy/src/per/dac.h ****     /** Selects which channel(s) will be configured for use. */
  31:../../libdaisy/src/per/dac.h ****     enum class Channel
  32:../../libdaisy/src/per/dac.h ****     {
  33:../../libdaisy/src/per/dac.h ****         ONE,
  34:../../libdaisy/src/per/dac.h ****         TWO,
  35:../../libdaisy/src/per/dac.h ****         BOTH,
  36:../../libdaisy/src/per/dac.h ****     };
  37:../../libdaisy/src/per/dac.h **** 
  38:../../libdaisy/src/per/dac.h ****     /** Sets the Mode for the DAC channels.
  39:../../libdaisy/src/per/dac.h ****      **
  40:../../libdaisy/src/per/dac.h ****      ** Polling mode uses the blocking mode to transmit a single value at a time.
  41:../../libdaisy/src/per/dac.h ****      **
  42:../../libdaisy/src/per/dac.h ****      ** DMA mode uses a buffer, and periodically transmits it triggering a 
  43:../../libdaisy/src/per/dac.h ****      ** callback to fill the buffer when it is ready for more samples.
  44:../../libdaisy/src/per/dac.h ****      ***/
  45:../../libdaisy/src/per/dac.h ****     enum class Mode
  46:../../libdaisy/src/per/dac.h ****     {
  47:../../libdaisy/src/per/dac.h ****         POLLING,
  48:../../libdaisy/src/per/dac.h ****         DMA,
  49:../../libdaisy/src/per/dac.h ****     };
  50:../../libdaisy/src/per/dac.h **** 
  51:../../libdaisy/src/per/dac.h ****     /** Sets the number of bits per sample transmitted out of the DAC.
  52:../../libdaisy/src/per/dac.h ****      ** The output range will be: 0V - VDDA
  53:../../libdaisy/src/per/dac.h ****      ** The resolution will be roughly: bitdepth / (VDDA - 0V) 
  54:../../libdaisy/src/per/dac.h ****      ***/
  55:../../libdaisy/src/per/dac.h ****     enum class BitDepth
  56:../../libdaisy/src/per/dac.h ****     {
  57:../../libdaisy/src/per/dac.h ****         BITS_8,
  58:../../libdaisy/src/per/dac.h ****         BITS_12
  59:../../libdaisy/src/per/dac.h ****     };
  60:../../libdaisy/src/per/dac.h **** 
  61:../../libdaisy/src/per/dac.h ****     /** Sets whether the DAC output is buffered for higher drive ability. */
  62:../../libdaisy/src/per/dac.h ****     enum class BufferState
  63:../../libdaisy/src/per/dac.h ****     {
  64:../../libdaisy/src/per/dac.h ****         ENABLED,
  65:../../libdaisy/src/per/dac.h ****         DISABLED,
  66:../../libdaisy/src/per/dac.h ****     };
  67:../../libdaisy/src/per/dac.h **** 
ARM GAS  /tmp/ccwZ0rcF.s 			page 17


  68:../../libdaisy/src/per/dac.h ****     /** Configuration structure for initializing the DAC structure. */
  69:../../libdaisy/src/per/dac.h ****     struct Config
  70:../../libdaisy/src/per/dac.h ****     {
  71:../../libdaisy/src/per/dac.h ****         /** Target Samplerate in Hz used to configure the internal 
  72:../../libdaisy/src/per/dac.h ****          ** timebase for DMA mode. Does nothing in POLLING mode.
  73:../../libdaisy/src/per/dac.h ****          ** If the value is 0 at Init time this will default to 48000Hz 
  74:../../libdaisy/src/per/dac.h ****          ** otherwise the driver will attempt meet the target.*/
  75:../../libdaisy/src/per/dac.h ****         uint32_t target_samplerate;
  76:../../libdaisy/src/per/dac.h **** 
  77:../../libdaisy/src/per/dac.h ****         Channel     chn;
  78:../../libdaisy/src/per/dac.h ****         Mode        mode;
  79:../../libdaisy/src/per/dac.h ****         BitDepth    bitdepth;
  80:../../libdaisy/src/per/dac.h ****         BufferState buff_state;
  81:../../libdaisy/src/per/dac.h ****     };
  82:../../libdaisy/src/per/dac.h **** 
  83:../../libdaisy/src/per/dac.h ****     DacHandle() : pimpl_(nullptr) {}
 450              		.loc 10 83 5 is_stmt 1 view .LVU85
 451              	.LBB126:
 452              	.LBB127:
 453              		.loc 10 83 33 is_stmt 0 view .LVU86
 454 000a 0362     		str	r3, [r0, #32]
 455              	.LVL28:
 456              		.loc 10 83 33 view .LVU87
 457              	.LBE127:
 458              	.LBE126:
 459              	.LBE125:
 460              	.LBB128:
 461              	.LBI128:
  40:../../libdaisy/src/hid/usb.h **** 
 462              		.loc 3 40 5 is_stmt 1 view .LVU88
  40:../../libdaisy/src/hid/usb.h **** 
 463              		.loc 3 40 5 is_stmt 0 view .LVU89
 464              	.LBE128:
 465              	.LBB129:
 466              	.LBI129:
  58:../../libdaisy/src/sys/system.h ****     ~System() {}
 467              		.loc 2 58 5 is_stmt 1 view .LVU90
  58:../../libdaisy/src/sys/system.h ****     ~System() {}
 468              		.loc 2 58 5 is_stmt 0 view .LVU91
 469              	.LBE129:
 470              	.LBE131:
 471              	.LBE133:
   7:analogsnaredrum.cpp **** AnalogSnareDrum sd;
 472              		.loc 9 7 17 view .LVU92
 473 000c 0949     		ldr	r1, .L30+8
 474 000e FFF7FEFF 		bl	__aeabi_atexit
 475              	.LVL29:
 476              	.LBB134:
 477              	.LBI134:
  25:../../DaisySP/Source/Drums/analogsnaredrum.h ****     ~AnalogSnareDrum() {}
 478              		.loc 6 25 5 is_stmt 1 view .LVU93
 479              	.LBE134:
 480              	.LBE139:
 481              	.LBE142:
  25:../../DaisySP/Source/Drums/analogsnaredrum.h ****     ~AnalogSnareDrum() {}
 482              		.loc 6 25 23 view .LVU94
 483              	.LBB143:
ARM GAS  /tmp/ccwZ0rcF.s 			page 18


 484              	.LBB140:
 485              	.LBB137:
 486              	.LBB135:
 487              	.LBB136:
 488              	.LBI136:
  21:../../DaisySP/Source/Filters/svf.h ****     ~Svf() {}
 489              		.loc 7 21 5 view .LVU95
  21:../../DaisySP/Source/Filters/svf.h ****     ~Svf() {}
 490              		.loc 7 21 5 is_stmt 0 view .LVU96
 491              	.LBE136:
 492              	.LBE135:
 493              	.LBE137:
   8:analogsnaredrum.cpp **** Metro           tick;
 494              		.loc 9 8 17 view .LVU97
 495 0012 074A     		ldr	r2, .L30+4
 496 0014 0849     		ldr	r1, .L30+12
 497 0016 0948     		ldr	r0, .L30+16
 498 0018 FFF7FEFF 		bl	__aeabi_atexit
 499              	.LVL30:
 500              	.LBB138:
 501              	.LBI138:
  14:../../DaisySP/Source/Utility/metro.h ****     ~Metro() {}
 502              		.loc 8 14 5 is_stmt 1 view .LVU98
  14:../../DaisySP/Source/Utility/metro.h ****     ~Metro() {}
 503              		.loc 8 14 5 is_stmt 0 view .LVU99
 504              	.LBE138:
   9:analogsnaredrum.cpp **** 
 505              		.loc 9 9 17 view .LVU100
 506 001c 044A     		ldr	r2, .L30+4
 507 001e 0849     		ldr	r1, .L30+20
 508 0020 0848     		ldr	r0, .L30+24
 509              	.LBE140:
 510              	.LBE143:
 511              		.loc 9 40 1 view .LVU101
 512 0022 BDE80840 		pop	{r3, lr}
 513              		.cfi_restore 14
 514              		.cfi_restore 3
 515              		.cfi_def_cfa_offset 0
 516              	.LBB144:
 517              	.LBB141:
   9:analogsnaredrum.cpp **** 
 518              		.loc 9 9 17 view .LVU102
 519 0026 FFF7FEBF 		b	__aeabi_atexit
 520              	.LVL31:
 521              	.L31:
 522 002a 00BF     		.align	2
 523              	.L30:
 524 002c 00000000 		.word	.LANCHOR2
 525 0030 00000000 		.word	__dso_handle
 526 0034 00000000 		.word	_ZN5daisy9DaisySeedD1Ev
 527 0038 00000000 		.word	_ZN7daisysp15AnalogSnareDrumD1Ev
 528 003c 00000000 		.word	.LANCHOR1
 529 0040 00000000 		.word	_ZN7daisysp5MetroD1Ev
 530 0044 00000000 		.word	.LANCHOR0
 531              	.LBE141:
 532              	.LBE144:
 533              		.cfi_endproc
ARM GAS  /tmp/ccwZ0rcF.s 			page 19


 534              	.LFE4759:
 536              		.section	.init_array,"aw",%init_array
 537              		.align	2
 538 0000 00000000 		.word	_GLOBAL__sub_I_hw(target1)
 539              		.global	tick
 540              		.global	sd
 541              		.global	hw
 542              		.section	.bss.hw,"aw",%nobits
 543              		.align	2
 544              		.set	.LANCHOR2,. + 0
 547              	hw:
 548 0000 00000000 		.space	60
 548      00000000 
 548      00000000 
 548      00000000 
 548      00000000 
 549              		.section	.bss.sd,"aw",%nobits
 550              		.align	2
 551              		.set	.LANCHOR1,. + 0
 554              	sd:
 555 0000 00000000 		.space	528
 555      00000000 
 555      00000000 
 555      00000000 
 555      00000000 
 556              		.section	.bss.tick,"aw",%nobits
 557              		.align	2
 558              		.set	.LANCHOR0,. + 0
 561              	tick:
 562 0000 00000000 		.space	16
 562      00000000 
 562      00000000 
 562      00000000 
 563              		.text
 564              	.Letext0:
 565              		.file 11 "/usr/lib/gcc/arm-none-eabi/9.2.1/include/stdint.h"
 566              		.file 12 "../../libdaisy/Drivers/CMSIS/Include/core_cm7.h"
 567              		.file 13 "../../libdaisy/Drivers/CMSIS/Device/ST/STM32H7xx/Include/system_stm32h7xx.h"
 568              		.file 14 "/usr/lib/gcc/arm-none-eabi/9.2.1/include/stddef.h"
 569              		.file 15 "/usr/include/newlib/c++/9.2.1/cmath"
 570              		.file 16 "/usr/include/newlib/c++/9.2.1/bits/std_abs.h"
 571              		.file 17 "/usr/include/newlib/c++/9.2.1/cstdlib"
 572              		.file 18 "/usr/include/newlib/c++/9.2.1/cstdint"
 573              		.file 19 "/usr/include/newlib/c++/9.2.1/type_traits"
 574              		.file 20 "/usr/include/newlib/c++/9.2.1/arm-none-eabi/thumb/v7e-m+dp/hard/bits/c++config.h"
 575              		.file 21 "/usr/include/newlib/c++/9.2.1/bits/stl_pair.h"
 576              		.file 22 "/usr/include/newlib/c++/9.2.1/debug/debug.h"
 577              		.file 23 "/usr/include/newlib/c++/9.2.1/bits/algorithmfwd.h"
 578              		.file 24 "/usr/include/newlib/c++/9.2.1/bits/exception_ptr.h"
 579              		.file 25 "/usr/include/newlib/c++/9.2.1/new"
 580              		.file 26 "/usr/include/newlib/c++/9.2.1/cstdarg"
 581              		.file 27 "/usr/include/newlib/c++/9.2.1/cstdio"
 582              		.file 28 "/usr/include/newlib/c++/9.2.1/cwchar"
 583              		.file 29 "/usr/include/newlib/c++/9.2.1/clocale"
 584              		.file 30 "/usr/include/newlib/c++/9.2.1/bits/basic_string.h"
 585              		.file 31 "/usr/include/newlib/c++/9.2.1/bits/uniform_int_dist.h"
 586              		.file 32 "/usr/include/newlib/c++/9.2.1/bits/random.h"
ARM GAS  /tmp/ccwZ0rcF.s 			page 20


 587              		.file 33 "/usr/include/newlib/c++/9.2.1/cstring"
 588              		.file 34 "/usr/include/newlib/c++/9.2.1/bits/predefined_ops.h"
 589              		.file 35 "/usr/include/newlib/c++/9.2.1/ext/numeric_traits.h"
 590              		.file 36 "/usr/include/newlib/c++/9.2.1/ext/new_allocator.h"
 591              		.file 37 "/usr/include/newlib/sys/_types.h"
 592              		.file 38 "<built-in>"
 593              		.file 39 "/usr/include/newlib/sys/reent.h"
 594              		.file 40 "/usr/include/newlib/sys/lock.h"
 595              		.file 41 "/usr/include/newlib/math.h"
 596              		.file 42 "/usr/include/newlib/stdlib.h"
 597              		.file 43 "/usr/include/newlib/c++/9.2.1/math.h"
 598              		.file 44 "../../libdaisy/Drivers/STM32H7xx_HAL_Driver/Inc/stm32h7xx_hal_def.h"
 599              		.file 45 "../../libdaisy/Drivers/STM32H7xx_HAL_Driver/Inc/stm32h7xx_hal_flash.h"
 600              		.file 46 "/usr/include/newlib/c++/9.2.1/stdlib.h"
 601              		.file 47 "../../libdaisy/src/daisy_core.h"
 602              		.file 48 "../../libdaisy/src/per/tim.h"
 603              		.file 49 "../../libdaisy/src/per/sai.h"
 604              		.file 50 "../../libdaisy/src/util/wav_format.h"
 605              		.file 51 "../../libdaisy/src/per/qspi.h"
 606              		.file 52 "../../libdaisy/src/per/gpio.h"
 607              		.file 53 "../../libdaisy/src/dev/sdram.h"
 608              		.file 54 "/usr/lib/gcc/arm-none-eabi/9.2.1/include/stdarg.h"
 609              		.file 55 "/usr/include/newlib/stdio.h"
 610              		.file 56 "/usr/include/newlib/sys/unistd.h"
 611              		.file 57 "../../libdaisy/src/util/oled_fonts.h"
 612              		.file 58 "../../libdaisy/Middlewares/Third_Party/FatFs/src/integer.h"
 613              		.file 59 "../../libdaisy/Middlewares/Third_Party/FatFs/src/ff.h"
 614              		.file 60 "../../libdaisy/Middlewares/Third_Party/FatFs/src/diskio.h"
 615              		.file 61 "../../libdaisy/Middlewares/Third_Party/FatFs/src/ff_gen_drv.h"
 616              		.file 62 "../../libdaisy/src/util/sd_diskio.h"
 617              		.file 63 "../../libdaisy/src/sys/fatfs.h"
 618              		.file 64 "../../DaisySP/Source/Control/adenv.h"
 619              		.file 65 "../../DaisySP/Source/Utility/dsp.h"
 620              		.file 66 "/usr/include/newlib/wchar.h"
 621              		.file 67 "/usr/include/newlib/locale.h"
 622              		.file 68 "/usr/include/newlib/ctype.h"
 623              		.file 69 "/usr/include/newlib/sys/errno.h"
 624              		.file 70 "/usr/include/newlib/string.h"
 625              		.file 71 "../../libdaisy/src/dev/sr_595.h"
ARM GAS  /tmp/ccwZ0rcF.s 			page 21

