ARM GAS  /tmp/ccdYaiNY.s 			page 1


   1              		.cpu cortex-m7
   2              		.eabi_attribute 28, 1
   3              		.eabi_attribute 20, 1
   4              		.eabi_attribute 21, 1
   5              		.eabi_attribute 23, 3
   6              		.eabi_attribute 24, 1
   7              		.eabi_attribute 25, 1
   8              		.eabi_attribute 26, 1
   9              		.eabi_attribute 30, 2
  10              		.eabi_attribute 34, 1
  11              		.eabi_attribute 18, 4
  12              		.file	"Verb.cpp"
  13              		.text
  14              	.Ltext0:
  15              		.cfi_sections	.debug_frame
  16              		.section	.text._ZN5daisy9ParameterD2Ev,"axG",%progbits,_ZN5daisy9ParameterD5Ev,comdat
  17              		.align	1
  18              		.p2align 2,,3
  19              		.weak	_ZN5daisy9ParameterD2Ev
  20              		.arch armv7e-m
  21              		.syntax unified
  22              		.thumb
  23              		.thumb_func
  24              		.fpu fpv5-d16
  26              	_ZN5daisy9ParameterD2Ev:
  27              	.LVL0:
  28              	.LFB1607:
  29              		.file 1 "../../libdaisy/src/hid/parameter.h"
   1:../../libdaisy/src/hid/parameter.h **** #pragma once
   2:../../libdaisy/src/hid/parameter.h **** #include <stdint.h>
   3:../../libdaisy/src/hid/parameter.h **** #include "hid/ctrl.h"
   4:../../libdaisy/src/hid/parameter.h **** 
   5:../../libdaisy/src/hid/parameter.h **** namespace daisy
   6:../../libdaisy/src/hid/parameter.h **** {
   7:../../libdaisy/src/hid/parameter.h **** /** @addtogroup controls
   8:../../libdaisy/src/hid/parameter.h ****     @{
   9:../../libdaisy/src/hid/parameter.h **** */
  10:../../libdaisy/src/hid/parameter.h **** 
  11:../../libdaisy/src/hid/parameter.h **** /**      Simple parameter mapping tool that takes a 0-1 input from an hid_ctrl. */
  12:../../libdaisy/src/hid/parameter.h **** class Parameter
  13:../../libdaisy/src/hid/parameter.h **** {
  14:../../libdaisy/src/hid/parameter.h ****   public:
  15:../../libdaisy/src/hid/parameter.h ****     /** Curves are applied to the output signal */
  16:../../libdaisy/src/hid/parameter.h ****     enum Curve
  17:../../libdaisy/src/hid/parameter.h ****     {
  18:../../libdaisy/src/hid/parameter.h ****         LINEAR,      /**< Linear curve */
  19:../../libdaisy/src/hid/parameter.h ****         EXPONENTIAL, /**< Exponential curve */
  20:../../libdaisy/src/hid/parameter.h ****         LOGARITHMIC, /**<  Logarithmic curve */
  21:../../libdaisy/src/hid/parameter.h ****         CUBE,        /**< Cubic curve */
  22:../../libdaisy/src/hid/parameter.h ****         LAST,        /**< Final enum element. */
  23:../../libdaisy/src/hid/parameter.h ****     };
  24:../../libdaisy/src/hid/parameter.h ****     /** Constructor */
  25:../../libdaisy/src/hid/parameter.h ****     Parameter() {}
  26:../../libdaisy/src/hid/parameter.h ****     /** Destructor */
  27:../../libdaisy/src/hid/parameter.h ****     ~Parameter() {}
  30              		.loc 1 27 5 view -0
  31              		.cfi_startproc
ARM GAS  /tmp/ccdYaiNY.s 			page 2


  32              		@ args = 0, pretend = 0, frame = 0
  33              		@ frame_needed = 0, uses_anonymous_args = 0
  34              		@ link register save eliminated.
  35              	.LBB246:
  36              	.LBI246:
  37              		.file 2 "../../libdaisy/src/hid/ctrl.h"
   1:../../libdaisy/src/hid/ctrl.h **** #pragma once
   2:../../libdaisy/src/hid/ctrl.h **** #ifndef DSY_KNOB_H
   3:../../libdaisy/src/hid/ctrl.h **** #define DSY_KNOB_H /**< & */
   4:../../libdaisy/src/hid/ctrl.h **** #include <stdint.h>
   5:../../libdaisy/src/hid/ctrl.h **** 
   6:../../libdaisy/src/hid/ctrl.h **** #ifdef __cplusplus
   7:../../libdaisy/src/hid/ctrl.h **** namespace daisy
   8:../../libdaisy/src/hid/ctrl.h **** {
   9:../../libdaisy/src/hid/ctrl.h **** /**
  10:../../libdaisy/src/hid/ctrl.h ****     @brief Hardware Interface for control inputs \n 
  11:../../libdaisy/src/hid/ctrl.h ****     Primarily designed for ADC input controls such as \n 
  12:../../libdaisy/src/hid/ctrl.h ****     potentiometers, and control voltage. \n 
  13:../../libdaisy/src/hid/ctrl.h ****     @author Stephen Hensley
  14:../../libdaisy/src/hid/ctrl.h ****     @date November 2019
  15:../../libdaisy/src/hid/ctrl.h ****     @ingroup controls
  16:../../libdaisy/src/hid/ctrl.h **** */
  17:../../libdaisy/src/hid/ctrl.h **** class AnalogControl
  18:../../libdaisy/src/hid/ctrl.h **** {
  19:../../libdaisy/src/hid/ctrl.h ****   public:
  20:../../libdaisy/src/hid/ctrl.h ****     /** Constructor */
  21:../../libdaisy/src/hid/ctrl.h ****     AnalogControl() {}
  22:../../libdaisy/src/hid/ctrl.h ****     /** destructor */
  23:../../libdaisy/src/hid/ctrl.h ****     ~AnalogControl() {}
  38              		.loc 2 23 5 view .LVU1
  39              		.loc 2 23 5 is_stmt 0 view .LVU2
  40              	.LBE246:
  41              		.loc 1 27 19 view .LVU3
  42 0000 7047     		bx	lr
  43              		.cfi_endproc
  44              	.LFE1607:
  46              		.weak	_ZN5daisy9ParameterD1Ev
  47              		.thumb_set _ZN5daisy9ParameterD1Ev,_ZN5daisy9ParameterD2Ev
  48 0002 00BF     		.section	.text._ZN5daisy10DaisyPetalD2Ev,"axG",%progbits,_ZN5daisy10DaisyPetalD5Ev,comdat
  49              		.align	1
  50              		.p2align 2,,3
  51              		.weak	_ZN5daisy10DaisyPetalD2Ev
  52              		.syntax unified
  53              		.thumb
  54              		.thumb_func
  55              		.fpu fpv5-d16
  57              	_ZN5daisy10DaisyPetalD2Ev:
  58              	.LVL1:
  59              	.LFB2049:
  60              		.file 3 "../../libdaisy/src/daisy_petal.h"
   1:../../libdaisy/src/daisy_petal.h **** #pragma once
   2:../../libdaisy/src/daisy_petal.h **** #ifndef DSY_PETAL_H
   3:../../libdaisy/src/daisy_petal.h **** #define DSY_PETAL_H /**< & */
   4:../../libdaisy/src/daisy_petal.h **** 
   5:../../libdaisy/src/daisy_petal.h **** #include "daisy_seed.h"
   6:../../libdaisy/src/daisy_petal.h **** 
   7:../../libdaisy/src/daisy_petal.h **** namespace daisy
ARM GAS  /tmp/ccdYaiNY.s 			page 3


   8:../../libdaisy/src/daisy_petal.h **** {
   9:../../libdaisy/src/daisy_petal.h **** /**
  10:../../libdaisy/src/daisy_petal.h ****    @brief Helpers and hardware definitions for daisy petal.
  11:../../libdaisy/src/daisy_petal.h ****    @ingroup boards
  12:../../libdaisy/src/daisy_petal.h **** */
  13:../../libdaisy/src/daisy_petal.h **** class DaisyPetal
  14:../../libdaisy/src/daisy_petal.h **** {
  15:../../libdaisy/src/daisy_petal.h ****   public:
  16:../../libdaisy/src/daisy_petal.h ****     /** Switches */
  17:../../libdaisy/src/daisy_petal.h ****     enum Sw
  18:../../libdaisy/src/daisy_petal.h ****     {
  19:../../libdaisy/src/daisy_petal.h ****         SW_1,    /**< Footswitch */
  20:../../libdaisy/src/daisy_petal.h ****         SW_2,    /**< Footswitch */
  21:../../libdaisy/src/daisy_petal.h ****         SW_3,    /**< Footswitch */
  22:../../libdaisy/src/daisy_petal.h ****         SW_4,    /**< Footswitch */
  23:../../libdaisy/src/daisy_petal.h ****         SW_5,    /**< Toggle */
  24:../../libdaisy/src/daisy_petal.h ****         SW_6,    /**< Toggle */
  25:../../libdaisy/src/daisy_petal.h ****         SW_7,    /**< Toggle */
  26:../../libdaisy/src/daisy_petal.h ****         SW_LAST, /**< Last enum item */
  27:../../libdaisy/src/daisy_petal.h ****     };
  28:../../libdaisy/src/daisy_petal.h **** 
  29:../../libdaisy/src/daisy_petal.h ****     /** Knobs */
  30:../../libdaisy/src/daisy_petal.h ****     enum Knob
  31:../../libdaisy/src/daisy_petal.h ****     {
  32:../../libdaisy/src/daisy_petal.h ****         KNOB_1,    /**< & */
  33:../../libdaisy/src/daisy_petal.h ****         KNOB_2,    /**< & */
  34:../../libdaisy/src/daisy_petal.h ****         KNOB_3,    /**< & */
  35:../../libdaisy/src/daisy_petal.h ****         KNOB_4,    /**< & */
  36:../../libdaisy/src/daisy_petal.h ****         KNOB_5,    /**< & */
  37:../../libdaisy/src/daisy_petal.h ****         KNOB_6,    /**< & */
  38:../../libdaisy/src/daisy_petal.h ****         KNOB_LAST, /**< & */
  39:../../libdaisy/src/daisy_petal.h ****     };
  40:../../libdaisy/src/daisy_petal.h **** 
  41:../../libdaisy/src/daisy_petal.h ****     /** Leds in ringled */
  42:../../libdaisy/src/daisy_petal.h ****     enum RingLed
  43:../../libdaisy/src/daisy_petal.h ****     {
  44:../../libdaisy/src/daisy_petal.h ****         RING_LED_1,   /**< & */
  45:../../libdaisy/src/daisy_petal.h ****         RING_LED_2,   /**< & */
  46:../../libdaisy/src/daisy_petal.h ****         RING_LED_3,   /**< & */
  47:../../libdaisy/src/daisy_petal.h ****         RING_LED_4,   /**< & */
  48:../../libdaisy/src/daisy_petal.h ****         RING_LED_5,   /**< & */
  49:../../libdaisy/src/daisy_petal.h ****         RING_LED_6,   /**< & */
  50:../../libdaisy/src/daisy_petal.h ****         RING_LED_7,   /**< & */
  51:../../libdaisy/src/daisy_petal.h ****         RING_LED_8,   /**< & */
  52:../../libdaisy/src/daisy_petal.h ****         RING_LED_LAST /**< & */
  53:../../libdaisy/src/daisy_petal.h ****     };
  54:../../libdaisy/src/daisy_petal.h **** 
  55:../../libdaisy/src/daisy_petal.h ****     /** footswitch leds */
  56:../../libdaisy/src/daisy_petal.h ****     enum FootswitchLed
  57:../../libdaisy/src/daisy_petal.h ****     {
  58:../../libdaisy/src/daisy_petal.h ****         FOOTSWITCH_LED_1,    /**< & */
  59:../../libdaisy/src/daisy_petal.h ****         FOOTSWITCH_LED_2,    /**< & */
  60:../../libdaisy/src/daisy_petal.h ****         FOOTSWITCH_LED_3,    /**< & */
  61:../../libdaisy/src/daisy_petal.h ****         FOOTSWITCH_LED_4,    /**< & */
  62:../../libdaisy/src/daisy_petal.h ****         FOOTSWITCH_LED_LAST, /**< & */
  63:../../libdaisy/src/daisy_petal.h ****     };
  64:../../libdaisy/src/daisy_petal.h **** 
ARM GAS  /tmp/ccdYaiNY.s 			page 4


  65:../../libdaisy/src/daisy_petal.h ****     /** Constructor */
  66:../../libdaisy/src/daisy_petal.h ****     DaisyPetal() {}
  67:../../libdaisy/src/daisy_petal.h ****     /** Destructor */
  68:../../libdaisy/src/daisy_petal.h ****     ~DaisyPetal() {}
  61              		.loc 3 68 5 is_stmt 1 view -0
  62              		.cfi_startproc
  63              		@ args = 0, pretend = 0, frame = 0
  64              		@ frame_needed = 0, uses_anonymous_args = 0
  65              		@ link register save eliminated.
  66              	.LBB247:
  67              	.LBI247:
  68              		.loc 2 23 5 view .LVU5
  69              		.loc 2 23 5 is_stmt 0 view .LVU6
  70              	.LBE247:
  71              	.LBB248:
  72              	.LBI248:
  73              		.file 4 "../../libdaisy/src/hid/encoder.h"
   1:../../libdaisy/src/hid/encoder.h **** #pragma once
   2:../../libdaisy/src/hid/encoder.h **** #ifndef DSY_ENCODER_H
   3:../../libdaisy/src/hid/encoder.h **** #define DSY_ENCODER_H
   4:../../libdaisy/src/hid/encoder.h **** #include "daisy_core.h"
   5:../../libdaisy/src/hid/encoder.h **** #include "per/gpio.h"
   6:../../libdaisy/src/hid/encoder.h **** #include "hid/switch.h"
   7:../../libdaisy/src/hid/encoder.h **** 
   8:../../libdaisy/src/hid/encoder.h **** namespace daisy
   9:../../libdaisy/src/hid/encoder.h **** {
  10:../../libdaisy/src/hid/encoder.h **** /** 
  11:../../libdaisy/src/hid/encoder.h ****     @brief Generic Class for handling Quadrature Encoders \n 
  12:../../libdaisy/src/hid/encoder.h ****     Inspired/influenced by Mutable Instruments (pichenettes) Encoder classes
  13:../../libdaisy/src/hid/encoder.h ****     @author Stephen Hensley
  14:../../libdaisy/src/hid/encoder.h ****     @date December 2019
  15:../../libdaisy/src/hid/encoder.h ****     @ingroup controls
  16:../../libdaisy/src/hid/encoder.h **** */
  17:../../libdaisy/src/hid/encoder.h **** class Encoder
  18:../../libdaisy/src/hid/encoder.h **** {
  19:../../libdaisy/src/hid/encoder.h ****   public:
  20:../../libdaisy/src/hid/encoder.h ****     Encoder() {}
  21:../../libdaisy/src/hid/encoder.h ****     ~Encoder() {}
  74              		.loc 4 21 5 is_stmt 1 view .LVU7
  75              	.LBB249:
  76              	.LBI249:
  77              		.file 5 "../../libdaisy/src/hid/switch.h"
   1:../../libdaisy/src/hid/switch.h **** #pragma once
   2:../../libdaisy/src/hid/switch.h **** #ifndef DSY_SWITCH_H
   3:../../libdaisy/src/hid/switch.h **** #define DSY_SWITCH_H
   4:../../libdaisy/src/hid/switch.h **** #include "daisy_core.h"
   5:../../libdaisy/src/hid/switch.h **** #include "per/gpio.h"
   6:../../libdaisy/src/hid/switch.h **** 
   7:../../libdaisy/src/hid/switch.h **** namespace daisy
   8:../../libdaisy/src/hid/switch.h **** {
   9:../../libdaisy/src/hid/switch.h **** /** 
  10:../../libdaisy/src/hid/switch.h ****     Generic Class for handling momentary/latching switches \n 
  11:../../libdaisy/src/hid/switch.h ****     Inspired/influenced by Mutable Instruments (pichenettes) Switch classes
  12:../../libdaisy/src/hid/switch.h ****     @author Stephen Hensley
  13:../../libdaisy/src/hid/switch.h ****     @date December 2019
  14:../../libdaisy/src/hid/switch.h ****     @ingroup controls
  15:../../libdaisy/src/hid/switch.h **** */
ARM GAS  /tmp/ccdYaiNY.s 			page 5


  16:../../libdaisy/src/hid/switch.h **** class Switch
  17:../../libdaisy/src/hid/switch.h **** {
  18:../../libdaisy/src/hid/switch.h ****   public:
  19:../../libdaisy/src/hid/switch.h ****     /** Specifies the expected behavior of the switch */
  20:../../libdaisy/src/hid/switch.h ****     enum Type
  21:../../libdaisy/src/hid/switch.h ****     {
  22:../../libdaisy/src/hid/switch.h ****         TYPE_TOGGLE,    /**< & */
  23:../../libdaisy/src/hid/switch.h ****         TYPE_MOMENTARY, /**< & */
  24:../../libdaisy/src/hid/switch.h ****     };
  25:../../libdaisy/src/hid/switch.h ****     /** Specifies whether the pressed is HIGH or LOW. */
  26:../../libdaisy/src/hid/switch.h ****     enum Polarity
  27:../../libdaisy/src/hid/switch.h ****     {
  28:../../libdaisy/src/hid/switch.h ****         POLARITY_NORMAL,   /**< & */
  29:../../libdaisy/src/hid/switch.h ****         POLARITY_INVERTED, /**< & */
  30:../../libdaisy/src/hid/switch.h ****     };
  31:../../libdaisy/src/hid/switch.h **** 
  32:../../libdaisy/src/hid/switch.h ****     /** Specifies whether to use built-in Pull Up/Down resistors to hold button at a given state wh
  33:../../libdaisy/src/hid/switch.h ****     enum Pull
  34:../../libdaisy/src/hid/switch.h ****     {
  35:../../libdaisy/src/hid/switch.h ****         PULL_UP,   /**< & */
  36:../../libdaisy/src/hid/switch.h ****         PULL_DOWN, /**< & */
  37:../../libdaisy/src/hid/switch.h ****         PULL_NONE, /**< & */
  38:../../libdaisy/src/hid/switch.h ****     };
  39:../../libdaisy/src/hid/switch.h **** 
  40:../../libdaisy/src/hid/switch.h ****     Switch() {}
  41:../../libdaisy/src/hid/switch.h ****     ~Switch() {}
  78              		.loc 5 41 5 view .LVU8
  79              		.loc 5 41 5 is_stmt 0 view .LVU9
  80              	.LBE249:
  81              	.LBE248:
  82              	.LBB250:
  83              	.LBI250:
  84              		.file 6 "../../libdaisy/src/daisy_seed.h"
   1:../../libdaisy/src/daisy_seed.h **** #pragma once
   2:../../libdaisy/src/daisy_seed.h **** #ifndef DSY_SEED_H
   3:../../libdaisy/src/daisy_seed.h **** #define DSY_SEED_H
   4:../../libdaisy/src/daisy_seed.h **** 
   5:../../libdaisy/src/daisy_seed.h **** #include "daisy.h"
   6:../../libdaisy/src/daisy_seed.h **** 
   7:../../libdaisy/src/daisy_seed.h **** //Uncomment this out if you're still using the rev2 hardware
   8:../../libdaisy/src/daisy_seed.h **** //#define SEED_REV2
   9:../../libdaisy/src/daisy_seed.h **** 
  10:../../libdaisy/src/daisy_seed.h **** namespace daisy
  11:../../libdaisy/src/daisy_seed.h **** {
  12:../../libdaisy/src/daisy_seed.h **** /**
  13:../../libdaisy/src/daisy_seed.h ****    @brief This is the higher-level interface for the Daisy board. \n 
  14:../../libdaisy/src/daisy_seed.h ****     All basic peripheral configuration/initialization is setup here. \n
  15:../../libdaisy/src/daisy_seed.h **** 
  16:../../libdaisy/src/daisy_seed.h ****    @ingroup boards
  17:../../libdaisy/src/daisy_seed.h **** */
  18:../../libdaisy/src/daisy_seed.h **** class DaisySeed
  19:../../libdaisy/src/daisy_seed.h **** {
  20:../../libdaisy/src/daisy_seed.h ****   public:
  21:../../libdaisy/src/daisy_seed.h ****     DaisySeed() {}
  22:../../libdaisy/src/daisy_seed.h ****     ~DaisySeed() {}
  85              		.loc 6 22 5 is_stmt 1 view .LVU10
  86              	.LBB251:
ARM GAS  /tmp/ccdYaiNY.s 			page 6


  87              	.LBI251:
  88              		.file 7 "../../libdaisy/src/sys/system.h"
   1:../../libdaisy/src/sys/system.h **** #ifndef DSY_SYSTEM_H
   2:../../libdaisy/src/sys/system.h **** #define DSY_SYSTEM_H
   3:../../libdaisy/src/sys/system.h **** 
   4:../../libdaisy/src/sys/system.h **** #ifndef UNIT_TEST // for unit tests, a dummy implementation is provided below
   5:../../libdaisy/src/sys/system.h **** 
   6:../../libdaisy/src/sys/system.h **** #include <cstdint>
   7:../../libdaisy/src/sys/system.h **** #include "per/tim.h"
   8:../../libdaisy/src/sys/system.h **** 
   9:../../libdaisy/src/sys/system.h **** namespace daisy
  10:../../libdaisy/src/sys/system.h **** {
  11:../../libdaisy/src/sys/system.h **** /** A handle for interacting with the Core System. 
  12:../../libdaisy/src/sys/system.h ****  ** This includes the Clock tree, MPU, global DMA initialization,
  13:../../libdaisy/src/sys/system.h ****  ** cache handling, and any other necessary global initiailzation
  14:../../libdaisy/src/sys/system.h ****  **
  15:../../libdaisy/src/sys/system.h ****  ** @author shensley
  16:../../libdaisy/src/sys/system.h ****  ** @addtogroup system
  17:../../libdaisy/src/sys/system.h ****  */
  18:../../libdaisy/src/sys/system.h **** class System
  19:../../libdaisy/src/sys/system.h **** {
  20:../../libdaisy/src/sys/system.h ****   public:
  21:../../libdaisy/src/sys/system.h ****     /** Contains settings for initializing the System */
  22:../../libdaisy/src/sys/system.h ****     struct Config
  23:../../libdaisy/src/sys/system.h ****     {
  24:../../libdaisy/src/sys/system.h ****         /** Specifies the system clock frequency that feeds APB/AHB clocks, etc. */
  25:../../libdaisy/src/sys/system.h ****         enum class SysClkFreq
  26:../../libdaisy/src/sys/system.h ****         {
  27:../../libdaisy/src/sys/system.h ****             FREQ_400MHZ,
  28:../../libdaisy/src/sys/system.h ****             FREQ_480MHZ,
  29:../../libdaisy/src/sys/system.h ****         };
  30:../../libdaisy/src/sys/system.h **** 
  31:../../libdaisy/src/sys/system.h ****         /** Method to call on the struct to set to defaults
  32:../../libdaisy/src/sys/system.h ****          ** CPU Freq set to 400MHz
  33:../../libdaisy/src/sys/system.h ****          ** Cache Enabled 
  34:../../libdaisy/src/sys/system.h ****          ** */
  35:../../libdaisy/src/sys/system.h ****         void Defaults()
  36:../../libdaisy/src/sys/system.h ****         {
  37:../../libdaisy/src/sys/system.h ****             cpu_freq   = SysClkFreq::FREQ_400MHZ;
  38:../../libdaisy/src/sys/system.h ****             use_dcache = true;
  39:../../libdaisy/src/sys/system.h ****             use_icache = true;
  40:../../libdaisy/src/sys/system.h ****         }
  41:../../libdaisy/src/sys/system.h **** 
  42:../../libdaisy/src/sys/system.h ****         /** Method to call on the struct to set to boost mode:
  43:../../libdaisy/src/sys/system.h ****          ** CPU Freq set to 480MHz
  44:../../libdaisy/src/sys/system.h ****          ** Cache Enabled 
  45:../../libdaisy/src/sys/system.h ****          ** */
  46:../../libdaisy/src/sys/system.h ****         void Boost()
  47:../../libdaisy/src/sys/system.h ****         {
  48:../../libdaisy/src/sys/system.h ****             cpu_freq   = SysClkFreq::FREQ_480MHZ;
  49:../../libdaisy/src/sys/system.h ****             use_dcache = true;
  50:../../libdaisy/src/sys/system.h ****             use_icache = true;
  51:../../libdaisy/src/sys/system.h ****         }
  52:../../libdaisy/src/sys/system.h **** 
  53:../../libdaisy/src/sys/system.h ****         SysClkFreq cpu_freq;
  54:../../libdaisy/src/sys/system.h ****         bool       use_dcache;
  55:../../libdaisy/src/sys/system.h ****         bool       use_icache;
ARM GAS  /tmp/ccdYaiNY.s 			page 7


  56:../../libdaisy/src/sys/system.h ****     };
  57:../../libdaisy/src/sys/system.h **** 
  58:../../libdaisy/src/sys/system.h ****     System() {}
  59:../../libdaisy/src/sys/system.h ****     ~System() {}
  89              		.loc 7 59 5 view .LVU11
  90              		.loc 7 59 5 is_stmt 0 view .LVU12
  91              	.LBE251:
  92              	.LBB252:
  93              	.LBI252:
  94              		.file 8 "../../libdaisy/src/hid/usb.h"
   1:../../libdaisy/src/hid/usb.h **** #pragma once
   2:../../libdaisy/src/hid/usb.h **** #ifndef DSY_HID_USB_H
   3:../../libdaisy/src/hid/usb.h **** #define DSY_HID_USB_H
   4:../../libdaisy/src/hid/usb.h **** #include <stdint.h>
   5:../../libdaisy/src/hid/usb.h **** #include <stdlib.h>
   6:../../libdaisy/src/hid/usb.h **** 
   7:../../libdaisy/src/hid/usb.h **** namespace daisy
   8:../../libdaisy/src/hid/usb.h **** /** @addtogroup externals
   9:../../libdaisy/src/hid/usb.h ****     @{
  10:../../libdaisy/src/hid/usb.h **** */
  11:../../libdaisy/src/hid/usb.h **** 
  12:../../libdaisy/src/hid/usb.h **** {
  13:../../libdaisy/src/hid/usb.h **** /** 
  14:../../libdaisy/src/hid/usb.h ****     @brief Interface for initializing and using the USB Peripherals on the daisy
  15:../../libdaisy/src/hid/usb.h ****     @author Stephen Hensley
  16:../../libdaisy/src/hid/usb.h ****     @date December 2019
  17:../../libdaisy/src/hid/usb.h **** */
  18:../../libdaisy/src/hid/usb.h **** class UsbHandle
  19:../../libdaisy/src/hid/usb.h **** {
  20:../../libdaisy/src/hid/usb.h ****   public:
  21:../../libdaisy/src/hid/usb.h ****     /** Return values for USBHandle Functions */
  22:../../libdaisy/src/hid/usb.h ****     enum class Result
  23:../../libdaisy/src/hid/usb.h ****     {
  24:../../libdaisy/src/hid/usb.h ****         OK,
  25:../../libdaisy/src/hid/usb.h ****         ERR,
  26:../../libdaisy/src/hid/usb.h ****     };
  27:../../libdaisy/src/hid/usb.h **** 
  28:../../libdaisy/src/hid/usb.h ****     /** Specified which of the two USB Peripherals to initialize. */
  29:../../libdaisy/src/hid/usb.h ****     enum UsbPeriph
  30:../../libdaisy/src/hid/usb.h ****     {
  31:../../libdaisy/src/hid/usb.h ****         FS_INTERNAL, /**< Internal pin */
  32:../../libdaisy/src/hid/usb.h ****         FS_EXTERNAL, /**< FS External D+ pin is Pin 38 (GPIO32). FS External D- pin is Pin 37 (GPIO
  33:../../libdaisy/src/hid/usb.h ****         FS_BOTH,     /**< Both */
  34:../../libdaisy/src/hid/usb.h ****     };
  35:../../libdaisy/src/hid/usb.h **** 
  36:../../libdaisy/src/hid/usb.h **** 
  37:../../libdaisy/src/hid/usb.h ****     /** Function called upon reception of a buffer */
  38:../../libdaisy/src/hid/usb.h ****     typedef void (*ReceiveCallback)(uint8_t* buff, uint32_t* len);
  39:../../libdaisy/src/hid/usb.h **** 
  40:../../libdaisy/src/hid/usb.h ****     UsbHandle() {}
  41:../../libdaisy/src/hid/usb.h **** 
  42:../../libdaisy/src/hid/usb.h ****     ~UsbHandle() {}
  95              		.loc 8 42 5 is_stmt 1 view .LVU13
  96              		.loc 8 42 5 is_stmt 0 view .LVU14
  97              	.LBE252:
  98              	.LBB253:
  99              	.LBI253:
ARM GAS  /tmp/ccdYaiNY.s 			page 8


 100              		.file 9 "../../libdaisy/src/per/adc.h"
   1:../../libdaisy/src/per/adc.h **** #pragma once
   2:../../libdaisy/src/per/adc.h **** #ifndef DSY_ADC_H
   3:../../libdaisy/src/per/adc.h **** #define DSY_ADC_H /**< Macro */
   4:../../libdaisy/src/per/adc.h **** #include <stdint.h>
   5:../../libdaisy/src/per/adc.h **** #include <stdlib.h>
   6:../../libdaisy/src/per/adc.h **** #include "daisy_core.h"
   7:../../libdaisy/src/per/adc.h **** #include "per/gpio.h"
   8:../../libdaisy/src/per/adc.h **** 
   9:../../libdaisy/src/per/adc.h **** #define DSY_ADC_MAX_CHANNELS 14 /**< Maximum number of ADC channels */
  10:../../libdaisy/src/per/adc.h **** 
  11:../../libdaisy/src/per/adc.h **** namespace daisy
  12:../../libdaisy/src/per/adc.h **** {
  13:../../libdaisy/src/per/adc.h **** /** @addtogroup analog_digital_conversion
  14:../../libdaisy/src/per/adc.h ****     @{
  15:../../libdaisy/src/per/adc.h **** */
  16:../../libdaisy/src/per/adc.h **** 
  17:../../libdaisy/src/per/adc.h **** /* While there may not be many configuration options here,
  18:../../libdaisy/src/per/adc.h **** using a struct like this allows us to add more configuration
  19:../../libdaisy/src/per/adc.h **** later without breaking existing functionality.
  20:../../libdaisy/src/per/adc.h **** */
  21:../../libdaisy/src/per/adc.h **** 
  22:../../libdaisy/src/per/adc.h **** /** Configuration Structure for a given channel */
  23:../../libdaisy/src/per/adc.h **** struct AdcChannelConfig
  24:../../libdaisy/src/per/adc.h **** {
  25:../../libdaisy/src/per/adc.h ****     /** Which pin to use for multiplexing */
  26:../../libdaisy/src/per/adc.h ****     enum MuxPin
  27:../../libdaisy/src/per/adc.h ****     {
  28:../../libdaisy/src/per/adc.h ****         MUX_SEL_0,    /**< & */
  29:../../libdaisy/src/per/adc.h ****         MUX_SEL_1,    /**< & */
  30:../../libdaisy/src/per/adc.h ****         MUX_SEL_2,    /**< & */
  31:../../libdaisy/src/per/adc.h ****         MUX_SEL_LAST, /**< & */
  32:../../libdaisy/src/per/adc.h ****     };
  33:../../libdaisy/src/per/adc.h **** 
  34:../../libdaisy/src/per/adc.h ****     /** Initializes a single ADC pin as an ADC. 
  35:../../libdaisy/src/per/adc.h ****     \param pin Pin to init.
  36:../../libdaisy/src/per/adc.h ****      */
  37:../../libdaisy/src/per/adc.h ****     void InitSingle(dsy_gpio_pin pin);
  38:../../libdaisy/src/per/adc.h **** 
  39:../../libdaisy/src/per/adc.h ****     /** 
  40:../../libdaisy/src/per/adc.h ****     Initializes a single ADC pin as a Multiplexed ADC.
  41:../../libdaisy/src/per/adc.h ****     Requires a CD405X Multiplexer connected to the pin.
  42:../../libdaisy/src/per/adc.h ****     You only need to supply the mux pins that are required,
  43:../../libdaisy/src/per/adc.h ****     e.g. a 4052 mux would only require mux_0 and mux_1.
  44:../../libdaisy/src/per/adc.h ****     Internal Callbacks handle the pin addressing.
  45:../../libdaisy/src/per/adc.h ****     \param mux_channels must be 1-8
  46:../../libdaisy/src/per/adc.h ****     \param mux_0 First mux pin
  47:../../libdaisy/src/per/adc.h ****     \param mux_1 Second mux pin
  48:../../libdaisy/src/per/adc.h ****     \param mux_2 Third mux pin
  49:../../libdaisy/src/per/adc.h ****     \param adc_pin &
  50:../../libdaisy/src/per/adc.h ****     */
  51:../../libdaisy/src/per/adc.h ****     void InitMux(dsy_gpio_pin adc_pin,
  52:../../libdaisy/src/per/adc.h ****                  size_t       mux_channels,
  53:../../libdaisy/src/per/adc.h ****                  dsy_gpio_pin mux_0,
  54:../../libdaisy/src/per/adc.h ****                  dsy_gpio_pin mux_1 = {DSY_GPIOX, 0},
  55:../../libdaisy/src/per/adc.h ****                  dsy_gpio_pin mux_2 = {DSY_GPIOX, 0});
  56:../../libdaisy/src/per/adc.h **** 
ARM GAS  /tmp/ccdYaiNY.s 			page 9


  57:../../libdaisy/src/per/adc.h ****     dsy_gpio pin_;                   /**< & */
  58:../../libdaisy/src/per/adc.h ****     dsy_gpio mux_pin_[MUX_SEL_LAST]; /**< & */
  59:../../libdaisy/src/per/adc.h ****     uint8_t  mux_channels_;          /**< & */
  60:../../libdaisy/src/per/adc.h **** };
  61:../../libdaisy/src/per/adc.h **** 
  62:../../libdaisy/src/per/adc.h **** /**
  63:../../libdaisy/src/per/adc.h ****    Handler for analog to digital conversion
  64:../../libdaisy/src/per/adc.h **** */
  65:../../libdaisy/src/per/adc.h **** class AdcHandle
  66:../../libdaisy/src/per/adc.h **** {
  67:../../libdaisy/src/per/adc.h ****   public:
  68:../../libdaisy/src/per/adc.h ****     /** Supported oversampling amounts */
  69:../../libdaisy/src/per/adc.h ****     enum OverSampling
  70:../../libdaisy/src/per/adc.h ****     {
  71:../../libdaisy/src/per/adc.h ****         OVS_NONE, /**< & */
  72:../../libdaisy/src/per/adc.h ****         OVS_4,    /**< & */
  73:../../libdaisy/src/per/adc.h ****         OVS_8,    /**< & */
  74:../../libdaisy/src/per/adc.h ****         OVS_16,   /**< & */
  75:../../libdaisy/src/per/adc.h ****         OVS_32,   /**< & */
  76:../../libdaisy/src/per/adc.h ****         OVS_64,   /**< & */
  77:../../libdaisy/src/per/adc.h ****         OVS_128,  /**< & */
  78:../../libdaisy/src/per/adc.h ****         OVS_256,  /**< & */
  79:../../libdaisy/src/per/adc.h ****         OVS_512,  /**< & */
  80:../../libdaisy/src/per/adc.h ****         OVS_1024, /**< & */
  81:../../libdaisy/src/per/adc.h ****         OVS_LAST, /**< & */
  82:../../libdaisy/src/per/adc.h ****     };
  83:../../libdaisy/src/per/adc.h **** 
  84:../../libdaisy/src/per/adc.h ****     AdcHandle() {}
  85:../../libdaisy/src/per/adc.h ****     ~AdcHandle() {}
 101              		.loc 9 85 5 is_stmt 1 view .LVU15
 102              		.loc 9 85 5 is_stmt 0 view .LVU16
 103              	.LBE253:
 104              	.LBB254:
 105              	.LBI254:
 106              		.file 10 "../../libdaisy/src/hid/audio.h"
   1:../../libdaisy/src/hid/audio.h **** #ifndef DSY_AUDIO_H
   2:../../libdaisy/src/hid/audio.h **** #define DSY_AUDIO_H /**< & */
   3:../../libdaisy/src/hid/audio.h **** 
   4:../../libdaisy/src/hid/audio.h **** #include "per/sai.h"
   5:../../libdaisy/src/hid/audio.h **** 
   6:../../libdaisy/src/hid/audio.h **** namespace daisy
   7:../../libdaisy/src/hid/audio.h **** {
   8:../../libdaisy/src/hid/audio.h **** class AudioHandle
   9:../../libdaisy/src/hid/audio.h **** {
  10:../../libdaisy/src/hid/audio.h ****   public:
  11:../../libdaisy/src/hid/audio.h ****     /** Manually configurable details about the Audio Engine */
  12:../../libdaisy/src/hid/audio.h ****     /** TODO: Figure out how to get samplerate in here. */
  13:../../libdaisy/src/hid/audio.h ****     struct Config
  14:../../libdaisy/src/hid/audio.h ****     {
  15:../../libdaisy/src/hid/audio.h ****         size_t                        blocksize;
  16:../../libdaisy/src/hid/audio.h ****         SaiHandle::Config::SampleRate samplerate;
  17:../../libdaisy/src/hid/audio.h ****         float                         postgain;
  18:../../libdaisy/src/hid/audio.h ****     };
  19:../../libdaisy/src/hid/audio.h **** 
  20:../../libdaisy/src/hid/audio.h ****     enum class Result
  21:../../libdaisy/src/hid/audio.h ****     {
  22:../../libdaisy/src/hid/audio.h ****         OK,
ARM GAS  /tmp/ccdYaiNY.s 			page 10


  23:../../libdaisy/src/hid/audio.h ****         ERR,
  24:../../libdaisy/src/hid/audio.h ****     };
  25:../../libdaisy/src/hid/audio.h **** 
  26:../../libdaisy/src/hid/audio.h ****     /** Non-Interleaving input buffer
  27:../../libdaisy/src/hid/audio.h ****      * Buffer arranged by float[chn][sample] 
  28:../../libdaisy/src/hid/audio.h ****      * const so that the user can't modify the input
  29:../../libdaisy/src/hid/audio.h ****     */
  30:../../libdaisy/src/hid/audio.h ****     typedef const float* const* InputBuffer;
  31:../../libdaisy/src/hid/audio.h **** 
  32:../../libdaisy/src/hid/audio.h ****     /** Non-Interleaving output buffer
  33:../../libdaisy/src/hid/audio.h ****      * Arranged by float[chn][sample] 
  34:../../libdaisy/src/hid/audio.h ****     */
  35:../../libdaisy/src/hid/audio.h ****     typedef float** OutputBuffer;
  36:../../libdaisy/src/hid/audio.h **** 
  37:../../libdaisy/src/hid/audio.h ****     /** Type for a Non-Interleaving audio callback 
  38:../../libdaisy/src/hid/audio.h ****    * Non-Interleaving audio callbacks in daisy will be of this type
  39:../../libdaisy/src/hid/audio.h ****   */
  40:../../libdaisy/src/hid/audio.h ****     typedef void (*AudioCallback)(InputBuffer  in,
  41:../../libdaisy/src/hid/audio.h ****                                   OutputBuffer out,
  42:../../libdaisy/src/hid/audio.h ****                                   size_t       size);
  43:../../libdaisy/src/hid/audio.h **** 
  44:../../libdaisy/src/hid/audio.h ****     /** Interleaving Input buffer
  45:../../libdaisy/src/hid/audio.h ****      ** audio is prepared as { L0, R0, L1, R1, . . . LN, RN }]
  46:../../libdaisy/src/hid/audio.h ****      ** this is const, as the user shouldn't modify it
  47:../../libdaisy/src/hid/audio.h ****     */
  48:../../libdaisy/src/hid/audio.h ****     typedef const float* InterleavingInputBuffer;
  49:../../libdaisy/src/hid/audio.h **** 
  50:../../libdaisy/src/hid/audio.h ****     /** Interleaving Output buffer 
  51:../../libdaisy/src/hid/audio.h ****      ** audio is prepared as { L0, R0, L1, R1, . . . LN, RN }
  52:../../libdaisy/src/hid/audio.h ****     */
  53:../../libdaisy/src/hid/audio.h ****     typedef float* InterleavingOutputBuffer;
  54:../../libdaisy/src/hid/audio.h **** 
  55:../../libdaisy/src/hid/audio.h ****     /** Interleaving Audio Callback 
  56:../../libdaisy/src/hid/audio.h ****    * Interleaving audio callbacks in daisy must be of this type
  57:../../libdaisy/src/hid/audio.h ****   */
  58:../../libdaisy/src/hid/audio.h ****     typedef void (*InterleavingAudioCallback)(InterleavingInputBuffer  in,
  59:../../libdaisy/src/hid/audio.h ****                                               InterleavingOutputBuffer out,
  60:../../libdaisy/src/hid/audio.h ****                                               size_t                   size);
  61:../../libdaisy/src/hid/audio.h **** 
  62:../../libdaisy/src/hid/audio.h ****     AudioHandle() : pimpl_(nullptr) {}
  63:../../libdaisy/src/hid/audio.h ****     ~AudioHandle() {}
 107              		.loc 10 63 5 is_stmt 1 view .LVU17
 108              		.loc 10 63 5 is_stmt 0 view .LVU18
 109              	.LBE254:
 110              	.LBE250:
 111              		.loc 3 68 20 view .LVU19
 112 0000 7047     		bx	lr
 113              		.cfi_endproc
 114              	.LFE2049:
 116              		.weak	_ZN5daisy10DaisyPetalD1Ev
 117              		.thumb_set _ZN5daisy10DaisyPetalD1Ev,_ZN5daisy10DaisyPetalD2Ev
 118 0002 00BF     		.section	.text._ZN7daisysp8ReverbScD2Ev,"axG",%progbits,_ZN7daisysp8ReverbScD5Ev,comdat
 119              		.align	1
 120              		.p2align 2,,3
 121              		.weak	_ZN7daisysp8ReverbScD2Ev
 122              		.syntax unified
 123              		.thumb
ARM GAS  /tmp/ccdYaiNY.s 			page 11


 124              		.thumb_func
 125              		.fpu fpv5-d16
 127              	_ZN7daisysp8ReverbScD2Ev:
 128              	.LVL2:
 129              	.LFB3888:
 130              		.file 11 "../../DaisySP/Source/Effects/reverbsc.h"
   1:../../DaisySP/Source/Effects/reverbsc.h **** #pragma once
   2:../../DaisySP/Source/Effects/reverbsc.h **** #ifndef DSYSP_REVERBSC_H
   3:../../DaisySP/Source/Effects/reverbsc.h **** #define DSYSP_REVERBSC_H
   4:../../DaisySP/Source/Effects/reverbsc.h **** 
   5:../../DaisySP/Source/Effects/reverbsc.h **** #define DSY_REVERBSC_MAX_SIZE 98936
   6:../../DaisySP/Source/Effects/reverbsc.h **** 
   7:../../DaisySP/Source/Effects/reverbsc.h **** namespace daisysp
   8:../../DaisySP/Source/Effects/reverbsc.h **** {
   9:../../DaisySP/Source/Effects/reverbsc.h **** /**Delay line for internal reverb use
  10:../../DaisySP/Source/Effects/reverbsc.h **** */
  11:../../DaisySP/Source/Effects/reverbsc.h **** typedef struct
  12:../../DaisySP/Source/Effects/reverbsc.h **** {
  13:../../DaisySP/Source/Effects/reverbsc.h ****     int    write_pos;         /**< write position */
  14:../../DaisySP/Source/Effects/reverbsc.h ****     int    buffer_size;       /**< buffer size */
  15:../../DaisySP/Source/Effects/reverbsc.h ****     int    read_pos;          /**< read position */
  16:../../DaisySP/Source/Effects/reverbsc.h ****     int    read_pos_frac;     /**< fractional component of read pos */
  17:../../DaisySP/Source/Effects/reverbsc.h ****     int    read_pos_frac_inc; /**< increment for fractional */
  18:../../DaisySP/Source/Effects/reverbsc.h ****     int    dummy;             /**<  dummy var */
  19:../../DaisySP/Source/Effects/reverbsc.h ****     int    seed_val;          /**< randseed */
  20:../../DaisySP/Source/Effects/reverbsc.h ****     int    rand_line_cnt;     /**< number of random lines */
  21:../../DaisySP/Source/Effects/reverbsc.h ****     float  filter_state;      /**< state of filter */
  22:../../DaisySP/Source/Effects/reverbsc.h ****     float *buf;               /**< buffer ptr */
  23:../../DaisySP/Source/Effects/reverbsc.h **** } ReverbScDl;
  24:../../DaisySP/Source/Effects/reverbsc.h **** 
  25:../../DaisySP/Source/Effects/reverbsc.h **** /** Stereo Reverb
  26:../../DaisySP/Source/Effects/reverbsc.h **** 
  27:../../DaisySP/Source/Effects/reverbsc.h **** Reverb SC:               Ported from csound/soundpipe
  28:../../DaisySP/Source/Effects/reverbsc.h **** 
  29:../../DaisySP/Source/Effects/reverbsc.h **** Original author(s):        Sean Costello, Istvan Varga
  30:../../DaisySP/Source/Effects/reverbsc.h **** 
  31:../../DaisySP/Source/Effects/reverbsc.h **** Year:                    1999, 2005
  32:../../DaisySP/Source/Effects/reverbsc.h **** 
  33:../../DaisySP/Source/Effects/reverbsc.h **** Ported to soundpipe by:  Paul Batchelor
  34:../../DaisySP/Source/Effects/reverbsc.h **** 
  35:../../DaisySP/Source/Effects/reverbsc.h **** Ported by:                Stephen Hensley
  36:../../DaisySP/Source/Effects/reverbsc.h **** */
  37:../../DaisySP/Source/Effects/reverbsc.h **** class ReverbSc
  38:../../DaisySP/Source/Effects/reverbsc.h **** {
  39:../../DaisySP/Source/Effects/reverbsc.h ****   public:
  40:../../DaisySP/Source/Effects/reverbsc.h ****     ReverbSc() {}
  41:../../DaisySP/Source/Effects/reverbsc.h ****     ~ReverbSc() {}
 131              		.loc 11 41 5 is_stmt 1 view -0
 132              		.cfi_startproc
 133              		@ args = 0, pretend = 0, frame = 0
 134              		@ frame_needed = 0, uses_anonymous_args = 0
 135              		@ link register save eliminated.
 136              		.loc 11 41 18 is_stmt 0 view .LVU21
 137 0000 7047     		bx	lr
 138              		.cfi_endproc
 139              	.LFE3888:
 141              		.weak	_ZN7daisysp8ReverbScD1Ev
ARM GAS  /tmp/ccdYaiNY.s 			page 12


 142              		.thumb_set _ZN7daisysp8ReverbScD1Ev,_ZN7daisysp8ReverbScD2Ev
 143 0002 00BF     		.section	.text._Z8callbackPKfPfj,"ax",%progbits
 144              		.align	1
 145              		.p2align 2,,3
 146              		.global	_Z8callbackPKfPfj
 147              		.syntax unified
 148              		.thumb
 149              		.thumb_func
 150              		.fpu fpv5-d16
 152              	_Z8callbackPKfPfj:
 153              	.LVL3:
 154              	.LFB4223:
 155              		.file 12 "Verb.cpp"
   1:Verb.cpp      **** #include "daisy_petal.h"
   2:Verb.cpp      **** #include "daisysp.h"
   3:Verb.cpp      **** 
   4:Verb.cpp      **** using namespace daisy;
   5:Verb.cpp      **** using namespace daisysp;
   6:Verb.cpp      **** 
   7:Verb.cpp      **** // Declare a local daisy_petal for hardware access
   8:Verb.cpp      **** DaisyPetal hw;
   9:Verb.cpp      **** 
  10:Verb.cpp      **** Parameter vtime, vfreq, vsend;
  11:Verb.cpp      **** bool      bypass;
  12:Verb.cpp      **** ReverbSc  verb;
  13:Verb.cpp      **** 
  14:Verb.cpp      **** // This runs at a fixed rate, to prepare audio samples
  15:Verb.cpp      **** void callback(AudioHandle::InterleavingInputBuffer  in,
  16:Verb.cpp      ****               AudioHandle::InterleavingOutputBuffer out,
  17:Verb.cpp      ****               size_t                                size)
  18:Verb.cpp      **** {
 156              		.loc 12 18 1 is_stmt 1 view -0
 157              		.cfi_startproc
 158              		@ args = 0, pretend = 0, frame = 16
 159              		@ frame_needed = 0, uses_anonymous_args = 0
  19:Verb.cpp      ****     float dryl, dryr, wetl, wetr, sendl, sendr;
 160              		.loc 12 19 5 view .LVU23
  20:Verb.cpp      ****     hw.ProcessDigitalControls();
 161              		.loc 12 20 5 view .LVU24
  18:Verb.cpp      ****     float dryl, dryr, wetl, wetr, sendl, sendr;
 162              		.loc 12 18 1 is_stmt 0 view .LVU25
 163 0000 2DE9F043 		push	{r4, r5, r6, r7, r8, r9, lr}
 164              		.cfi_def_cfa_offset 28
 165              		.cfi_offset 4, -28
 166              		.cfi_offset 5, -24
 167              		.cfi_offset 6, -20
 168              		.cfi_offset 7, -16
 169              		.cfi_offset 8, -12
 170              		.cfi_offset 9, -8
 171              		.cfi_offset 14, -4
 172              		.loc 12 20 30 view .LVU26
 173 0004 344F     		ldr	r7, .L18
  18:Verb.cpp      ****     float dryl, dryr, wetl, wetr, sendl, sendr;
 174              		.loc 12 18 1 view .LVU27
 175 0006 0446     		mov	r4, r0
 176              	.LBB255:
 177              	.LBB256:
ARM GAS  /tmp/ccdYaiNY.s 			page 13


  42:../../DaisySP/Source/Effects/reverbsc.h ****     /** Initializes the reverb module, and sets the sample_rate at which the Process function will 
  43:../../DaisySP/Source/Effects/reverbsc.h ****         Returns 0 if all good, or 1 if it runs out of delay times exceed maximum allowed.
  44:../../DaisySP/Source/Effects/reverbsc.h ****     */
  45:../../DaisySP/Source/Effects/reverbsc.h ****     int Init(float sample_rate);
  46:../../DaisySP/Source/Effects/reverbsc.h **** 
  47:../../DaisySP/Source/Effects/reverbsc.h ****     /** Process the input through the reverb, and updates values of out1, and out2 with the new pro
  48:../../DaisySP/Source/Effects/reverbsc.h ****     */
  49:../../DaisySP/Source/Effects/reverbsc.h ****     int Process(const float &in1, const float &in2, float *out1, float *out2);
  50:../../DaisySP/Source/Effects/reverbsc.h **** 
  51:../../DaisySP/Source/Effects/reverbsc.h ****     /** controls the reverb time. reverb tail becomes infinite when set to 1.0
  52:../../DaisySP/Source/Effects/reverbsc.h ****         \param fb - sets reverb time. range: 0.0 to 1.0
  53:../../DaisySP/Source/Effects/reverbsc.h ****     */
  54:../../DaisySP/Source/Effects/reverbsc.h ****     inline void SetFeedback(const float &fb) { feedback_ = fb; }
 178              		.loc 11 54 58 view .LVU28
 179 0008 DFF8E080 		ldr	r8, .L18+20
 180              	.LBE256:
 181              	.LBE255:
  18:Verb.cpp      ****     float dryl, dryr, wetl, wetr, sendl, sendr;
 182              		.loc 12 18 1 view .LVU29
 183 000c 0D46     		mov	r5, r1
 184              		.loc 12 20 30 view .LVU30
 185 000e 3846     		mov	r0, r7
 186              	.LVL4:
  18:Verb.cpp      ****     float dryl, dryr, wetl, wetr, sendl, sendr;
 187              		.loc 12 18 1 view .LVU31
 188 0010 1646     		mov	r6, r2
 189 0012 2DED028B 		vpush.64	{d8}
 190              		.cfi_def_cfa_offset 36
 191              		.cfi_offset 80, -36
 192              		.cfi_offset 81, -32
 193 0016 87B0     		sub	sp, sp, #28
 194              		.cfi_def_cfa_offset 64
 195              		.loc 12 20 30 view .LVU32
 196 0018 FFF7FEFF 		bl	_ZN5daisy10DaisyPetal22ProcessDigitalControlsEv
 197              	.LVL5:
  21:Verb.cpp      ****     verb.SetFeedback(vtime.Process());
 198              		.loc 12 21 5 is_stmt 1 view .LVU33
 199              		.loc 12 21 35 is_stmt 0 view .LVU34
 200 001c 2F48     		ldr	r0, .L18+4
 201 001e FFF7FEFF 		bl	_ZN5daisy9Parameter7ProcessEv
 202              	.LVL6:
 203              	.LBB259:
 204              	.LBI255:
 205              		.loc 11 54 17 is_stmt 1 view .LVU35
 206              	.LBB257:
 207              		.loc 11 54 48 view .LVU36
 208              	.LBE257:
 209              	.LBE259:
  22:Verb.cpp      ****     verb.SetLpFreq(vfreq.Process());
 210              		.loc 12 22 33 is_stmt 0 view .LVU37
 211 0022 2F48     		ldr	r0, .L18+8
 212              	.LBB260:
 213              	.LBB258:
 214              		.loc 11 54 58 view .LVU38
 215 0024 88ED000A 		vstr.32	s0, [r8]
 216              	.LBE258:
 217              	.LBE260:
ARM GAS  /tmp/ccdYaiNY.s 			page 14


 218              		.loc 12 22 5 is_stmt 1 view .LVU39
 219              		.loc 12 22 33 is_stmt 0 view .LVU40
 220 0028 FFF7FEFF 		bl	_ZN5daisy9Parameter7ProcessEv
 221              	.LVL7:
 222              	.LBB261:
 223              	.LBI261:
  55:../../DaisySP/Source/Effects/reverbsc.h ****     /** controls the internal dampening filter's cutoff frequency.
  56:../../DaisySP/Source/Effects/reverbsc.h ****         \param freq - low pass frequency. range: 0.0 to sample_rate / 2
  57:../../DaisySP/Source/Effects/reverbsc.h ****     */
  58:../../DaisySP/Source/Effects/reverbsc.h ****     inline void SetLpFreq(const float &freq) { lpfreq_ = freq; }
 224              		.loc 11 58 17 is_stmt 1 view .LVU41
 225              	.LBB262:
 226              		.loc 11 58 48 view .LVU42
 227              	.LBE262:
 228              	.LBE261:
  23:Verb.cpp      ****     vsend.Process(); // Process Send to use later
 229              		.loc 12 23 18 is_stmt 0 view .LVU43
 230 002c 2D48     		ldr	r0, .L18+12
 231              	.LBB264:
 232              	.LBB263:
 233              		.loc 11 58 56 view .LVU44
 234 002e 88ED010A 		vstr.32	s0, [r8, #4]
 235              	.LBE263:
 236              	.LBE264:
 237              		.loc 12 23 5 is_stmt 1 view .LVU45
 238              		.loc 12 23 18 is_stmt 0 view .LVU46
 239 0032 FFF7FEFF 		bl	_ZN5daisy9Parameter7ProcessEv
 240              	.LVL8:
  24:Verb.cpp      ****     //bypass = hw.switches[DaisyPetal::SW_5].Pressed();
  25:Verb.cpp      ****     if(hw.switches[DaisyPetal::SW_1].RisingEdge())
 241              		.loc 12 25 5 is_stmt 1 view .LVU47
  42:../../libdaisy/src/hid/switch.h **** 
  43:../../libdaisy/src/hid/switch.h ****     /** 
  44:../../libdaisy/src/hid/switch.h ****     Initializes the switch object with a given port/pin combo.
  45:../../libdaisy/src/hid/switch.h ****     \param pin port/pin object to tell the switch which hardware pin to use.
  46:../../libdaisy/src/hid/switch.h ****     \param update_rate the rate at which the Debounce() function will be called. (used for timing).
  47:../../libdaisy/src/hid/switch.h ****     \param t switch type -- Default: TYPE_MOMENTARY
  48:../../libdaisy/src/hid/switch.h ****     \param pol switch polarity -- Default: POLARITY_INVERTED
  49:../../libdaisy/src/hid/switch.h ****     \param pu switch pull up/down -- Default: PULL_UP
  50:../../libdaisy/src/hid/switch.h ****     */
  51:../../libdaisy/src/hid/switch.h ****     void
  52:../../libdaisy/src/hid/switch.h ****     Init(dsy_gpio_pin pin, float update_rate, Type t, Polarity pol, Pull pu);
  53:../../libdaisy/src/hid/switch.h **** 
  54:../../libdaisy/src/hid/switch.h ****     /**
  55:../../libdaisy/src/hid/switch.h ****        Simplified Init.
  56:../../libdaisy/src/hid/switch.h ****        \param pin port/pin object to tell the switch which hardware pin to use.
  57:../../libdaisy/src/hid/switch.h ****        \param update_rate the rate at which the Debounce() function will be called. (used for timin
  58:../../libdaisy/src/hid/switch.h ****     */
  59:../../libdaisy/src/hid/switch.h ****     void Init(dsy_gpio_pin pin, float update_rate);
  60:../../libdaisy/src/hid/switch.h **** 
  61:../../libdaisy/src/hid/switch.h ****     /** 
  62:../../libdaisy/src/hid/switch.h ****     Called at update_rate to debounce and handle timing for the switch.
  63:../../libdaisy/src/hid/switch.h ****     In order for events not to be missed, its important that the Edge/Pressed checks
  64:../../libdaisy/src/hid/switch.h ****     be made at the same rate as the debounce function is being called.
  65:../../libdaisy/src/hid/switch.h ****     */
  66:../../libdaisy/src/hid/switch.h ****     void Debounce();
  67:../../libdaisy/src/hid/switch.h **** 
ARM GAS  /tmp/ccdYaiNY.s 			page 15


  68:../../libdaisy/src/hid/switch.h ****     /** \return true if a button was just pressed. */
  69:../../libdaisy/src/hid/switch.h ****     inline bool RisingEdge() const { return state_ == 0x7f; }
 242              		.loc 5 69 38 view .LVU48
 243              		.loc 12 25 5 is_stmt 0 view .LVU49
 244 0036 97F84131 		ldrb	r3, [r7, #321]	@ zero_extendqisi2
 245 003a 7F2B     		cmp	r3, #127
 246 003c 46D0     		beq	.L16
 247              	.L6:
 248              	.LVL9:
 249              	.LBB265:
  26:Verb.cpp      ****         bypass = !bypass;
  27:Verb.cpp      ****     for(size_t i = 0; i < size; i += 2)
 250              		.loc 12 27 25 is_stmt 1 discriminator 1 view .LVU50
 251 003e 002E     		cmp	r6, #0
 252 0040 3FD0     		beq	.L5
 253 0042 013E     		subs	r6, r6, #1
 254              	.LVL10:
 255              		.loc 12 27 25 is_stmt 0 discriminator 1 view .LVU51
 256 0044 04F10803 		add	r3, r4, #8
 257 0048 274F     		ldr	r7, .L18+16
 258 004a 0DF10C08 		add	r8, sp, #12
 259 004e 7608     		lsrs	r6, r6, #1
 260              	.LVL11:
 261              		.loc 12 27 25 discriminator 1 view .LVU52
 262 0050 DFF89090 		ldr	r9, .L18+12
 263 0054 03EBC606 		add	r6, r3, r6, lsl #3
 264 0058 0AE0     		b	.L10
 265              	.LVL12:
 266              	.L17:
  28:Verb.cpp      ****     {
  29:Verb.cpp      ****         dryl  = in[i];
  30:Verb.cpp      ****         dryr  = in[i + 1];
  31:Verb.cpp      ****         sendl = dryl * vsend.Value();
  32:Verb.cpp      ****         sendr = dryr * vsend.Value();
  33:Verb.cpp      ****         verb.Process(sendl, sendr, &wetl, &wetr);
  34:Verb.cpp      ****         if(bypass)
  35:Verb.cpp      ****         {
  36:Verb.cpp      ****             out[i]     = in[i];     // left
 267              		.loc 12 36 30 view .LVU53
 268 005a 2368     		ldr	r3, [r4]	@ float
 269 005c 0834     		adds	r4, r4, #8
 270 005e 0835     		adds	r5, r5, #8
 271              		.loc 12 36 24 view .LVU54
 272 0060 45F8083C 		str	r3, [r5, #-8]	@ float
  37:Verb.cpp      ****             out[i + 1] = in[i + 1]; // right
 273              		.loc 12 37 13 is_stmt 1 view .LVU55
 274              		.loc 12 37 34 is_stmt 0 view .LVU56
 275 0064 54F8043C 		ldr	r3, [r4, #-4]	@ float
  27:Verb.cpp      ****     {
 276              		.loc 12 27 25 view .LVU57
 277 0068 B442     		cmp	r4, r6
 278              		.loc 12 37 24 view .LVU58
 279 006a 45F8043C 		str	r3, [r5, #-4]	@ float
  27:Verb.cpp      ****     {
 280              		.loc 12 27 5 is_stmt 1 view .LVU59
  27:Verb.cpp      ****     {
 281              		.loc 12 27 25 view .LVU60
ARM GAS  /tmp/ccdYaiNY.s 			page 16


 282 006e 28D0     		beq	.L5
 283              	.LVL13:
 284              	.L10:
  29:Verb.cpp      ****         dryr  = in[i + 1];
 285              		.loc 12 29 9 view .LVU61
  29:Verb.cpp      ****         dryr  = in[i + 1];
 286              		.loc 12 29 15 is_stmt 0 view .LVU62
 287 0070 D4ED008A 		vldr.32	s17, [r4]
 288              	.LVL14:
  30:Verb.cpp      ****         sendl = dryl * vsend.Value();
 289              		.loc 12 30 9 is_stmt 1 view .LVU63
  33:Verb.cpp      ****         if(bypass)
 290              		.loc 12 33 21 is_stmt 0 view .LVU64
 291 0074 02AB     		add	r3, sp, #8
  31:Verb.cpp      ****         sendr = dryr * vsend.Value();
 292              		.loc 12 31 35 view .LVU65
 293 0076 D9ED0C7A 		vldr.32	s15, [r9, #48]
  33:Verb.cpp      ****         if(bypass)
 294              		.loc 12 33 21 view .LVU66
 295 007a 05AA     		add	r2, sp, #20
  30:Verb.cpp      ****         sendl = dryl * vsend.Value();
 296              		.loc 12 30 15 view .LVU67
 297 007c 94ED018A 		vldr.32	s16, [r4, #4]
 298              	.LVL15:
  31:Verb.cpp      ****         sendr = dryr * vsend.Value();
 299              		.loc 12 31 9 is_stmt 1 view .LVU68
  31:Verb.cpp      ****         sendr = dryr * vsend.Value();
 300              		.loc 12 31 9 is_stmt 0 view .LVU69
 301              	.LBE265:
  28:../../libdaisy/src/hid/parameter.h **** 
  29:../../libdaisy/src/hid/parameter.h ****     /** initialize a parameter using an hid_ctrl object.
  30:../../libdaisy/src/hid/parameter.h ****     \param input - object containing the direct link to a hardware control source.
  31:../../libdaisy/src/hid/parameter.h ****     \param min - bottom of range. (when input is 0.0)
  32:../../libdaisy/src/hid/parameter.h ****         \param max - top of range (when input is 1.0)
  33:../../libdaisy/src/hid/parameter.h ****     \param curve - the scaling curve for the input->output transformation.
  34:../../libdaisy/src/hid/parameter.h ****     */
  35:../../libdaisy/src/hid/parameter.h ****     void Init(AnalogControl input, float min, float max, Curve curve);
  36:../../libdaisy/src/hid/parameter.h **** 
  37:../../libdaisy/src/hid/parameter.h ****     /** processes the input signal, this should be called at the samplerate of the hid_ctrl passed 
  38:../../libdaisy/src/hid/parameter.h ****     \return  a float with the specified transformation applied.
  39:../../libdaisy/src/hid/parameter.h ****     */
  40:../../libdaisy/src/hid/parameter.h ****     float Process();
  41:../../libdaisy/src/hid/parameter.h **** 
  42:../../libdaisy/src/hid/parameter.h ****     /** 
  43:../../libdaisy/src/hid/parameter.h ****     \return the current value from the parameter without processing another sample.
  44:../../libdaisy/src/hid/parameter.h ****     this is useful if you need to use the value multiple times, and don't store
  45:../../libdaisy/src/hid/parameter.h **** 
  46:../../libdaisy/src/hid/parameter.h ****     the output of process in a local variable.
  47:../../libdaisy/src/hid/parameter.h ****     */
  48:../../libdaisy/src/hid/parameter.h ****     inline float Value() { return val_; }
 302              		.loc 1 48 28 is_stmt 1 view .LVU70
 303              	.LBB266:
  33:Verb.cpp      ****         if(bypass)
 304              		.loc 12 33 21 is_stmt 0 view .LVU71
 305 0080 04A9     		add	r1, sp, #16
  31:Verb.cpp      ****         sendr = dryr * vsend.Value();
 306              		.loc 12 31 22 view .LVU72
ARM GAS  /tmp/ccdYaiNY.s 			page 17


 307 0082 28EEA77A 		vmul.f32	s14, s17, s15
  33:Verb.cpp      ****         if(bypass)
 308              		.loc 12 33 21 view .LVU73
 309 0086 1948     		ldr	r0, .L18+20
  32:Verb.cpp      ****         verb.Process(sendl, sendr, &wetl, &wetr);
 310              		.loc 12 32 22 view .LVU74
 311 0088 68EE277A 		vmul.f32	s15, s16, s15
  33:Verb.cpp      ****         if(bypass)
 312              		.loc 12 33 21 view .LVU75
 313 008c CDF80080 		str	r8, [sp]
  31:Verb.cpp      ****         sendr = dryr * vsend.Value();
 314              		.loc 12 31 15 view .LVU76
 315 0090 8DED047A 		vstr.32	s14, [sp, #16]
  32:Verb.cpp      ****         verb.Process(sendl, sendr, &wetl, &wetr);
 316              		.loc 12 32 9 is_stmt 1 view .LVU77
 317              	.LVL16:
  32:Verb.cpp      ****         verb.Process(sendl, sendr, &wetl, &wetr);
 318              		.loc 12 32 9 is_stmt 0 view .LVU78
 319              	.LBE266:
 320              		.loc 1 48 28 is_stmt 1 view .LVU79
 321              	.LBB267:
  32:Verb.cpp      ****         verb.Process(sendl, sendr, &wetl, &wetr);
 322              		.loc 12 32 15 is_stmt 0 view .LVU80
 323 0094 CDED057A 		vstr.32	s15, [sp, #20]
  33:Verb.cpp      ****         if(bypass)
 324              		.loc 12 33 9 is_stmt 1 view .LVU81
  33:Verb.cpp      ****         if(bypass)
 325              		.loc 12 33 21 is_stmt 0 view .LVU82
 326 0098 FFF7FEFF 		bl	_ZN7daisysp8ReverbSc7ProcessERKfS2_PfS3_
 327              	.LVL17:
  34:Verb.cpp      ****         {
 328              		.loc 12 34 9 is_stmt 1 view .LVU83
  36:Verb.cpp      ****             out[i + 1] = in[i + 1]; // right
 329              		.loc 12 36 13 view .LVU84
  38:Verb.cpp      ****         }
  39:Verb.cpp      ****         else
  40:Verb.cpp      ****         {
  41:Verb.cpp      ****             out[i]     = dryl + wetl;
 330              		.loc 12 41 13 view .LVU85
  34:Verb.cpp      ****         {
 331              		.loc 12 34 9 is_stmt 0 view .LVU86
 332 009c 3B78     		ldrb	r3, [r7]	@ zero_extendqisi2
 333 009e 002B     		cmp	r3, #0
 334 00a0 DBD1     		bne	.L17
 335              		.loc 12 41 31 view .LVU87
 336 00a2 9DED027A 		vldr.32	s14, [sp, #8]
 337 00a6 0834     		adds	r4, r4, #8
  42:Verb.cpp      ****             out[i + 1] = dryr + wetr;
 338              		.loc 12 42 31 view .LVU88
 339 00a8 DDED037A 		vldr.32	s15, [sp, #12]
 340 00ac 0835     		adds	r5, r5, #8
  41:Verb.cpp      ****             out[i + 1] = dryr + wetr;
 341              		.loc 12 41 31 view .LVU89
 342 00ae 77EE288A 		vadd.f32	s17, s14, s17
 343              	.LVL18:
  27:Verb.cpp      ****     {
 344              		.loc 12 27 25 view .LVU90
ARM GAS  /tmp/ccdYaiNY.s 			page 18


 345 00b2 B442     		cmp	r4, r6
 346              		.loc 12 42 31 view .LVU91
 347 00b4 37EE888A 		vadd.f32	s16, s15, s16
 348              	.LVL19:
  41:Verb.cpp      ****             out[i + 1] = dryr + wetr;
 349              		.loc 12 41 24 view .LVU92
 350 00b8 45ED028A 		vstr.32	s17, [r5, #-8]
 351              		.loc 12 42 13 is_stmt 1 view .LVU93
 352              		.loc 12 42 24 is_stmt 0 view .LVU94
 353 00bc 05ED018A 		vstr.32	s16, [r5, #-4]
  27:Verb.cpp      ****     {
 354              		.loc 12 27 5 is_stmt 1 view .LVU95
  27:Verb.cpp      ****     {
 355              		.loc 12 27 25 view .LVU96
 356 00c0 D6D1     		bne	.L10
 357              	.LVL20:
 358              	.L5:
  27:Verb.cpp      ****     {
 359              		.loc 12 27 25 is_stmt 0 view .LVU97
 360              	.LBE267:
  43:Verb.cpp      ****         }
  44:Verb.cpp      ****     }
  45:Verb.cpp      **** }
 361              		.loc 12 45 1 view .LVU98
 362 00c2 07B0     		add	sp, sp, #28
 363              		.cfi_remember_state
 364              		.cfi_def_cfa_offset 36
 365              		@ sp needed
 366 00c4 BDEC028B 		vldm	sp!, {d8}
 367              		.cfi_restore 80
 368              		.cfi_restore 81
 369              		.cfi_def_cfa_offset 28
 370 00c8 BDE8F083 		pop	{r4, r5, r6, r7, r8, r9, pc}
 371              	.LVL21:
 372              	.L16:
 373              		.cfi_restore_state
  26:Verb.cpp      ****     for(size_t i = 0; i < size; i += 2)
 374              		.loc 12 26 9 is_stmt 1 view .LVU99
  26:Verb.cpp      ****     for(size_t i = 0; i < size; i += 2)
 375              		.loc 12 26 16 is_stmt 0 view .LVU100
 376 00cc 064F     		ldr	r7, .L18+16
  26:Verb.cpp      ****     for(size_t i = 0; i < size; i += 2)
 377              		.loc 12 26 18 view .LVU101
 378 00ce 3B78     		ldrb	r3, [r7]	@ zero_extendqisi2
 379 00d0 83F00103 		eor	r3, r3, #1
  26:Verb.cpp      ****     for(size_t i = 0; i < size; i += 2)
 380              		.loc 12 26 16 view .LVU102
 381 00d4 3B70     		strb	r3, [r7]
 382 00d6 B2E7     		b	.L6
 383              	.L19:
 384              		.align	2
 385              	.L18:
 386 00d8 00000000 		.word	.LANCHOR0
 387 00dc 00000000 		.word	.LANCHOR1
 388 00e0 00000000 		.word	.LANCHOR2
 389 00e4 00000000 		.word	.LANCHOR3
 390 00e8 00000000 		.word	.LANCHOR4
ARM GAS  /tmp/ccdYaiNY.s 			page 19


 391 00ec 00000000 		.word	verb
 392              		.cfi_endproc
 393              	.LFE4223:
 395              		.section	.text.startup.main,"ax",%progbits
 396              		.align	1
 397              		.p2align 2,,3
 398              		.global	main
 399              		.syntax unified
 400              		.thumb
 401              		.thumb_func
 402              		.fpu fpv5-d16
 404              	main:
 405              	.LFB4224:
  46:Verb.cpp      **** 
  47:Verb.cpp      **** int main(void)
  48:Verb.cpp      **** {
 406              		.loc 12 48 1 is_stmt 1 view -0
 407              		.cfi_startproc
 408              		@ args = 0, pretend = 0, frame = 32
 409              		@ frame_needed = 0, uses_anonymous_args = 0
  49:Verb.cpp      ****     float samplerate;
 410              		.loc 12 49 5 view .LVU104
  50:Verb.cpp      **** 
  51:Verb.cpp      ****     hw.Init();
 411              		.loc 12 51 5 view .LVU105
 412              		.loc 12 51 12 is_stmt 0 view .LVU106
 413 0000 3548     		ldr	r0, .L25
 414 0002 0021     		movs	r1, #0
  48:Verb.cpp      ****     float samplerate;
 415              		.loc 12 48 1 view .LVU107
 416 0004 F0B5     		push	{r4, r5, r6, r7, lr}
 417              		.cfi_def_cfa_offset 20
 418              		.cfi_offset 4, -20
 419              		.cfi_offset 5, -16
 420              		.cfi_offset 6, -12
 421              		.cfi_offset 7, -8
 422              		.cfi_offset 14, -4
  52:Verb.cpp      ****     samplerate = hw.AudioSampleRate();
  53:Verb.cpp      **** 
  54:Verb.cpp      ****     vtime.Init(hw.knob[hw.KNOB_1], 0.6f, 0.999f, Parameter::LOGARITHMIC);
 423              		.loc 12 54 33 view .LVU108
 424 0006 00F15C06 		add	r6, r0, #92
 425 000a 344C     		ldr	r4, .L25+4
  48:Verb.cpp      ****     float samplerate;
 426              		.loc 12 48 1 view .LVU109
 427 000c 2DED028B 		vpush.64	{d8}
 428              		.cfi_def_cfa_offset 28
 429              		.cfi_offset 80, -28
 430              		.cfi_offset 81, -24
 431 0010 89B0     		sub	sp, sp, #36
 432              		.cfi_def_cfa_offset 64
  51:Verb.cpp      ****     samplerate = hw.AudioSampleRate();
 433              		.loc 12 51 12 view .LVU110
 434 0012 FFF7FEFF 		bl	_ZN5daisy10DaisyPetal4InitEb
 435              	.LVL22:
  52:Verb.cpp      ****     samplerate = hw.AudioSampleRate();
 436              		.loc 12 52 5 is_stmt 1 view .LVU111
ARM GAS  /tmp/ccdYaiNY.s 			page 20


  52:Verb.cpp      ****     samplerate = hw.AudioSampleRate();
 437              		.loc 12 52 36 is_stmt 0 view .LVU112
 438 0016 A6F15C00 		sub	r0, r6, #92
 439 001a FFF7FEFF 		bl	_ZN5daisy10DaisyPetal15AudioSampleRateEv
 440              	.LVL23:
 441              		.loc 12 54 33 view .LVU113
 442 001e 6D46     		mov	r5, sp
  52:Verb.cpp      ****     samplerate = hw.AudioSampleRate();
 443              		.loc 12 52 36 view .LVU114
 444 0020 B0EE408A 		vmov.f32	s16, s0
 445              		.loc 12 54 15 view .LVU115
 446 0024 DFED2E0A 		vldr.32	s1, .L25+8
 447 0028 9FED2E0A 		vldr.32	s0, .L25+12
 448              	.LVL24:
 449              		.loc 12 54 5 is_stmt 1 view .LVU116
 450              		.loc 12 54 33 is_stmt 0 view .LVU117
 451 002c 0FCE     		ldmia	r6!, {r0, r1, r2, r3}
 452 002e 0FC5     		stmia	r5!, {r0, r1, r2, r3}
 453 0030 96E80F00 		ldm	r6, {r0, r1, r2, r3}
  55:Verb.cpp      ****     vfreq.Init(hw.knob[hw.KNOB_2], 500.0f, 20000.0f, Parameter::LOGARITHMIC);
 454              		.loc 12 55 33 view .LVU118
 455 0034 06F11007 		add	r7, r6, #16
  54:Verb.cpp      ****     vfreq.Init(hw.knob[hw.KNOB_2], 500.0f, 20000.0f, Parameter::LOGARITHMIC);
 456              		.loc 12 54 33 view .LVU119
 457 0038 85E80F00 		stm	r5, {r0, r1, r2, r3}
  54:Verb.cpp      ****     vfreq.Init(hw.knob[hw.KNOB_2], 500.0f, 20000.0f, Parameter::LOGARITHMIC);
 458              		.loc 12 54 15 view .LVU120
 459 003c 6946     		mov	r1, sp
 460 003e 0222     		movs	r2, #2
 461 0040 2948     		ldr	r0, .L25+16
 462 0042 FFF7FEFF 		bl	_ZN5daisy9Parameter4InitENS_13AnalogControlEffNS0_5CurveE
 463              	.LVL25:
 464              	.LBB268:
 465              	.LBI268:
 466              		.loc 2 23 5 is_stmt 1 view .LVU121
 467              		.loc 2 23 5 is_stmt 0 view .LVU122
 468              	.LBE268:
 469              		.loc 12 55 5 is_stmt 1 view .LVU123
 470              		.loc 12 55 33 is_stmt 0 view .LVU124
 471 0046 EC46     		mov	ip, sp
 472              		.loc 12 55 15 view .LVU125
 473 0048 DFED280A 		vldr.32	s1, .L25+20
 474 004c 9FED280A 		vldr.32	s0, .L25+24
 475              		.loc 12 55 33 view .LVU126
 476 0050 0FCF     		ldmia	r7!, {r0, r1, r2, r3}
 477 0052 ACE80F00 		stmia	ip!, {r0, r1, r2, r3}
 478 0056 97E80F00 		ldm	r7, {r0, r1, r2, r3}
  56:Verb.cpp      ****     vsend.Init(hw.knob[hw.KNOB_3], 0.0f, 1.0f, Parameter::LINEAR);
 479              		.loc 12 56 33 view .LVU127
 480 005a 06F13007 		add	r7, r6, #48
  55:Verb.cpp      ****     vfreq.Init(hw.knob[hw.KNOB_2], 500.0f, 20000.0f, Parameter::LOGARITHMIC);
 481              		.loc 12 55 33 view .LVU128
 482 005e 85E80F00 		stm	r5, {r0, r1, r2, r3}
  55:Verb.cpp      ****     vfreq.Init(hw.knob[hw.KNOB_2], 500.0f, 20000.0f, Parameter::LOGARITHMIC);
 483              		.loc 12 55 15 view .LVU129
 484 0062 6946     		mov	r1, sp
 485 0064 0222     		movs	r2, #2
ARM GAS  /tmp/ccdYaiNY.s 			page 21


 486 0066 2348     		ldr	r0, .L25+28
 487 0068 FFF7FEFF 		bl	_ZN5daisy9Parameter4InitENS_13AnalogControlEffNS0_5CurveE
 488              	.LVL26:
 489              	.LBB269:
 490              	.LBI269:
 491              		.loc 2 23 5 is_stmt 1 view .LVU130
 492              		.loc 2 23 5 is_stmt 0 view .LVU131
 493              	.LBE269:
 494              		.loc 12 56 5 is_stmt 1 view .LVU132
 495              		.loc 12 56 33 is_stmt 0 view .LVU133
 496 006c EC46     		mov	ip, sp
 497              		.loc 12 56 15 view .LVU134
 498 006e F7EE000A 		vmov.f32	s1, #1.0e+0
 499 0072 9FED210A 		vldr.32	s0, .L25+32
 500              		.loc 12 56 33 view .LVU135
 501 0076 0FCF     		ldmia	r7!, {r0, r1, r2, r3}
 502 0078 ACE80F00 		stmia	ip!, {r0, r1, r2, r3}
 503 007c 97E80F00 		ldm	r7, {r0, r1, r2, r3}
 504 0080 85E80F00 		stm	r5, {r0, r1, r2, r3}
 505              		.loc 12 56 15 view .LVU136
 506 0084 6946     		mov	r1, sp
 507 0086 0022     		movs	r2, #0
 508 0088 1C48     		ldr	r0, .L25+36
 509 008a FFF7FEFF 		bl	_ZN5daisy9Parameter4InitENS_13AnalogControlEffNS0_5CurveE
 510              	.LVL27:
 511              	.LBB270:
 512              	.LBI270:
 513              		.loc 2 23 5 is_stmt 1 view .LVU137
 514              		.loc 2 23 5 is_stmt 0 view .LVU138
 515              	.LBE270:
  57:Verb.cpp      ****     verb.Init(samplerate);
 516              		.loc 12 57 5 is_stmt 1 view .LVU139
 517              		.loc 12 57 14 is_stmt 0 view .LVU140
 518 008e B0EE480A 		vmov.f32	s0, s16
 519 0092 1B48     		ldr	r0, .L25+40
 520 0094 FFF7FEFF 		bl	_ZN7daisysp8ReverbSc4InitEf
 521              	.LVL28:
  58:Verb.cpp      **** 
  59:Verb.cpp      ****     hw.StartAdc();
 522              		.loc 12 59 5 is_stmt 1 view .LVU141
 523              		.loc 12 59 16 is_stmt 0 view .LVU142
 524 0098 A6F16C00 		sub	r0, r6, #108
 525 009c FFF7FEFF 		bl	_ZN5daisy10DaisyPetal8StartAdcEv
 526              	.LVL29:
  60:Verb.cpp      ****     hw.StartAudio(callback);
 527              		.loc 12 60 5 is_stmt 1 view .LVU143
 528              		.loc 12 60 18 is_stmt 0 view .LVU144
 529 00a0 A6F16C00 		sub	r0, r6, #108
 530 00a4 1749     		ldr	r1, .L25+44
 531 00a6 FFF7FEFF 		bl	_ZN5daisy10DaisyPetal10StartAudioEPFvPKfPfjE
 532              	.LVL30:
 533              	.L22:
  61:Verb.cpp      ****     while(1)
 534              		.loc 12 61 5 is_stmt 1 view .LVU145
  62:Verb.cpp      ****     {
  63:Verb.cpp      ****         // Do Stuff InfInitely Here
  64:Verb.cpp      ****         System::Delay(10);
ARM GAS  /tmp/ccdYaiNY.s 			page 22


 535              		.loc 12 64 9 view .LVU146
 536              		.loc 12 64 22 is_stmt 0 view .LVU147
 537 00aa 0A20     		movs	r0, #10
 538 00ac FFF7FEFF 		bl	_ZN5daisy6System5DelayEm
 539              	.LVL31:
  65:Verb.cpp      ****         hw.ClearLeds();
 540              		.loc 12 65 9 is_stmt 1 view .LVU148
 541              		.loc 12 65 21 is_stmt 0 view .LVU149
 542 00b0 0948     		ldr	r0, .L25
 543 00b2 FFF7FEFF 		bl	_ZN5daisy10DaisyPetal9ClearLedsEv
 544              	.LVL32:
  66:Verb.cpp      ****         hw.SetFootswitchLed(hw.FOOTSWITCH_LED_1, bypass ? 0.0f : 1.0f);
 545              		.loc 12 66 9 is_stmt 1 view .LVU150
 546              		.loc 12 66 28 is_stmt 0 view .LVU151
 547 00b6 2378     		ldrb	r3, [r4]	@ zero_extendqisi2
 548 00b8 F7EE007A 		vmov.f32	s15, #1.0e+0
 549 00bc 9FED0E0A 		vldr.32	s0, .L25+32
 550 00c0 002B     		cmp	r3, #0
 551 00c2 4FF00001 		mov	r1, #0
 552 00c6 0448     		ldr	r0, .L25
 553 00c8 07FE800A 		vseleq.f32	s0, s15, s0
 554 00cc FFF7FEFF 		bl	_ZN5daisy10DaisyPetal16SetFootswitchLedENS0_13FootswitchLedEf
 555              	.LVL33:
  67:Verb.cpp      ****         hw.UpdateLeds();
 556              		.loc 12 67 9 is_stmt 1 view .LVU152
 557              		.loc 12 67 22 is_stmt 0 view .LVU153
 558 00d0 0148     		ldr	r0, .L25
 559 00d2 FFF7FEFF 		bl	_ZN5daisy10DaisyPetal10UpdateLedsEv
 560              	.LVL34:
  61:Verb.cpp      ****     {
 561              		.loc 12 61 5 is_stmt 1 view .LVU154
  64:Verb.cpp      ****         hw.ClearLeds();
 562              		.loc 12 64 22 is_stmt 0 view .LVU155
 563 00d6 E8E7     		b	.L22
 564              	.L26:
 565              		.align	2
 566              	.L25:
 567 00d8 00000000 		.word	.LANCHOR0
 568 00dc 00000000 		.word	.LANCHOR4
 569 00e0 77BE7F3F 		.word	1065336439
 570 00e4 9A99193F 		.word	1058642330
 571 00e8 00000000 		.word	.LANCHOR1
 572 00ec 00409C46 		.word	1184645120
 573 00f0 0000FA43 		.word	1140457472
 574 00f4 00000000 		.word	.LANCHOR2
 575 00f8 00000000 		.word	0
 576 00fc 00000000 		.word	.LANCHOR3
 577 0100 00000000 		.word	verb
 578 0104 00000000 		.word	_Z8callbackPKfPfj
 579              		.cfi_endproc
 580              	.LFE4224:
 582              		.section	.text.startup._GLOBAL__sub_I_hw,"ax",%progbits
 583              		.align	1
 584              		.p2align 2,,3
 585              		.syntax unified
 586              		.thumb
 587              		.thumb_func
ARM GAS  /tmp/ccdYaiNY.s 			page 23


 588              		.fpu fpv5-d16
 590              	_GLOBAL__sub_I_hw:
 591              	.LFB4770:
  68:Verb.cpp      ****     }
  69:Verb.cpp      **** }
 592              		.loc 12 69 1 is_stmt 1 view -0
 593              		.cfi_startproc
 594              		@ args = 0, pretend = 0, frame = 0
 595              		@ frame_needed = 0, uses_anonymous_args = 0
 596              	.LBB320:
 597              	.LBI320:
 598              		.loc 12 69 1 view .LVU157
 599              	.LVL35:
 600              	.LBB321:
 601              	.LBB322:
 602              	.LBI322:
  66:../../libdaisy/src/daisy_petal.h ****     /** Destructor */
 603              		.loc 3 66 5 view .LVU158
 604              	.LBB323:
 605              	.LBB324:
 606              	.LBI324:
  21:../../libdaisy/src/daisy_seed.h ****     ~DaisySeed() {}
 607              		.loc 6 21 5 view .LVU159
 608              	.LBB325:
 609              	.LBB326:
 610              	.LBI326:
  62:../../libdaisy/src/hid/audio.h ****     ~AudioHandle() {}
 611              		.loc 10 62 5 view .LVU160
 612              	.LBE326:
 613              	.LBE325:
 614              	.LBE324:
 615              	.LBE323:
 616              	.LBE322:
 617              	.LBE321:
 618              	.LBE320:
 619              		.loc 12 69 1 is_stmt 0 view .LVU161
 620 0000 70B5     		push	{r4, r5, r6, lr}
 621              		.cfi_def_cfa_offset 16
 622              		.cfi_offset 4, -16
 623              		.cfi_offset 5, -12
 624              		.cfi_offset 6, -8
 625              		.cfi_offset 14, -4
 626              	.LBB380:
 627              	.LBB376:
 628              	.LBB361:
 629              	.LBB356:
 630              	.LBB341:
 631              	.LBB339:
 632              	.LBB331:
 633              	.LBB327:
 634              	.LBB328:
  62:../../libdaisy/src/hid/audio.h ****     ~AudioHandle() {}
 635              		.loc 10 62 35 view .LVU162
 636 0002 154D     		ldr	r5, .L29
 637 0004 0023     		movs	r3, #0
 638              	.LBE328:
 639              	.LBE327:
ARM GAS  /tmp/ccdYaiNY.s 			page 24


 640              	.LBE331:
 641              	.LBE339:
 642              	.LBE341:
 643              	.LBE356:
 644              	.LBE361:
   8:Verb.cpp      **** 
 645              		.loc 12 8 12 view .LVU163
 646 0006 154C     		ldr	r4, .L29+4
 647              	.LBB362:
 648              	.LBB357:
 649              	.LBB342:
 650              	.LBB343:
 651              		.file 13 "../../libdaisy/src/dev/leddriver.h"
   1:../../libdaisy/src/dev/leddriver.h **** #pragma once
   2:../../libdaisy/src/dev/leddriver.h **** #ifndef SA_LED_DRIVER_H
   3:../../libdaisy/src/dev/leddriver.h **** #define SA_LED_DRIVER_H /**< & */
   4:../../libdaisy/src/dev/leddriver.h **** 
   5:../../libdaisy/src/dev/leddriver.h **** #ifdef __cplusplus
   6:../../libdaisy/src/dev/leddriver.h **** 
   7:../../libdaisy/src/dev/leddriver.h **** #include <stdint.h>
   8:../../libdaisy/src/dev/leddriver.h **** #include "per/i2c.h"
   9:../../libdaisy/src/dev/leddriver.h **** #include "per/gpio.h"
  10:../../libdaisy/src/dev/leddriver.h **** 
  11:../../libdaisy/src/dev/leddriver.h **** namespace daisy
  12:../../libdaisy/src/dev/leddriver.h **** {
  13:../../libdaisy/src/dev/leddriver.h **** /** LED driver for one or multiple PCA9685 12bit PWM chips connected to
  14:../../libdaisy/src/dev/leddriver.h ****  * a single I2C peripheral.
  15:../../libdaisy/src/dev/leddriver.h ****  * It includes gamma correction from 8bit brightness values but it 
  16:../../libdaisy/src/dev/leddriver.h ****  * can also be supplied with raw 12bit values.
  17:../../libdaisy/src/dev/leddriver.h ****  * This driver uses two buffers - one for drawing, one for transmitting.
  18:../../libdaisy/src/dev/leddriver.h ****  * Multiple LedDriverPca9685 instances can be used at the same time.
  19:../../libdaisy/src/dev/leddriver.h ****  * \param numDrivers    The number of PCA9685 driver attached to the I2C
  20:../../libdaisy/src/dev/leddriver.h ****  *                      peripheral.
  21:../../libdaisy/src/dev/leddriver.h ****  * \param persistentBufferContents If set to true, the current draw buffer 
  22:../../libdaisy/src/dev/leddriver.h ****  *                      contents will be copied to the next draw buffer 
  23:../../libdaisy/src/dev/leddriver.h ****  *                      during SwapBuffersAndTransmit(). Use this, if you plan
  24:../../libdaisy/src/dev/leddriver.h ****  *                      to write single leds at a time. 
  25:../../libdaisy/src/dev/leddriver.h ****  *                      If you will alway update all leds before calling 
  26:../../libdaisy/src/dev/leddriver.h ****  *                      SwapBuffersAndTransmit(), you can set this to false
  27:../../libdaisy/src/dev/leddriver.h ****  *                      and safe some cycles.
  28:../../libdaisy/src/dev/leddriver.h ****  */
  29:../../libdaisy/src/dev/leddriver.h **** template <int numDrivers, bool persistentBufferContents = true>
  30:../../libdaisy/src/dev/leddriver.h **** class LedDriverPca9685
 652              		.loc 13 30 7 view .LVU164
 653 0008 4FF40072 		mov	r2, #512
 654              	.LBE343:
 655              	.LBE342:
 656              	.LBE357:
 657              	.LBE362:
  10:Verb.cpp      **** bool      bypass;
 658              		.loc 12 10 11 view .LVU165
 659 000c 144E     		ldr	r6, .L29+8
 660              	.LBB363:
 661              	.LBB358:
 662              	.LBB349:
 663              	.LBB347:
 664              		.loc 13 30 7 view .LVU166
ARM GAS  /tmp/ccdYaiNY.s 			page 25


 665 000e 05F2D240 		addw	r0, r5, #1234
 666 0012 1449     		ldr	r1, .L29+12
 667              	.LBE347:
 668              	.LBE349:
 669              	.LBB350:
 670              	.LBB340:
 671              	.LBB332:
 672              	.LBB330:
 673              	.LBB329:
  62:../../libdaisy/src/hid/audio.h ****     ~AudioHandle() {}
 674              		.loc 10 62 35 view .LVU167
 675 0014 6B61     		str	r3, [r5, #20]
 676              	.LVL36:
  62:../../libdaisy/src/hid/audio.h ****     ~AudioHandle() {}
 677              		.loc 10 62 35 view .LVU168
 678              	.LBE329:
 679              	.LBE330:
 680              	.LBE332:
 681              	.LBB333:
 682              	.LBI333:
  84:../../libdaisy/src/per/adc.h ****     ~AdcHandle() {}
 683              		.loc 9 84 5 is_stmt 1 view .LVU169
  84:../../libdaisy/src/per/adc.h ****     ~AdcHandle() {}
 684              		.loc 9 84 5 is_stmt 0 view .LVU170
 685              	.LBE333:
 686              	.LBB334:
 687              	.LBI334:
 688              		.file 14 "../../libdaisy/src/per/dac.h"
   1:../../libdaisy/src/per/dac.h **** #pragma once
   2:../../libdaisy/src/per/dac.h **** #ifndef DSY_DAC_H
   3:../../libdaisy/src/per/dac.h **** #define DSY_DAC_H
   4:../../libdaisy/src/per/dac.h **** 
   5:../../libdaisy/src/per/dac.h **** #include "daisy_core.h"
   6:../../libdaisy/src/per/dac.h **** 
   7:../../libdaisy/src/per/dac.h **** namespace daisy
   8:../../libdaisy/src/per/dac.h **** {
   9:../../libdaisy/src/per/dac.h **** /** DAC handle for Built-in DAC Peripheral 
  10:../../libdaisy/src/per/dac.h ****  ** 
  11:../../libdaisy/src/per/dac.h ****  ** For now only Normal Mode is supported,
  12:../../libdaisy/src/per/dac.h ****  ** Sample and hold mode provides reduced power consumption, but requires a bit more setup.
  13:../../libdaisy/src/per/dac.h ****  **
  14:../../libdaisy/src/per/dac.h ****  ** For now connecting the DAC through other internal periphearls is also not supported.
  15:../../libdaisy/src/per/dac.h ****  **
  16:../../libdaisy/src/per/dac.h ****  ** Since the DAC channels have dedicated pins we don't need to pass in a pin config like with
  17:../../libdaisy/src/per/dac.h ****  ** other modules. However, it is still important to not try to use the DAC pins for anything else.
  18:../../libdaisy/src/per/dac.h ****  ** DAC Channel 1 is on PA4, and DAC Channel 2 is on PA5
  19:../../libdaisy/src/per/dac.h ****  ***/
  20:../../libdaisy/src/per/dac.h **** class DacHandle
  21:../../libdaisy/src/per/dac.h **** {
  22:../../libdaisy/src/per/dac.h ****   public:
  23:../../libdaisy/src/per/dac.h ****     /** Return Values for the DacHandle class */
  24:../../libdaisy/src/per/dac.h ****     enum class Result
  25:../../libdaisy/src/per/dac.h ****     {
  26:../../libdaisy/src/per/dac.h ****         OK,
  27:../../libdaisy/src/per/dac.h ****         ERR,
  28:../../libdaisy/src/per/dac.h ****     };
  29:../../libdaisy/src/per/dac.h **** 
ARM GAS  /tmp/ccdYaiNY.s 			page 26


  30:../../libdaisy/src/per/dac.h ****     /** Selects which channel(s) will be configured for use. */
  31:../../libdaisy/src/per/dac.h ****     enum class Channel
  32:../../libdaisy/src/per/dac.h ****     {
  33:../../libdaisy/src/per/dac.h ****         ONE,
  34:../../libdaisy/src/per/dac.h ****         TWO,
  35:../../libdaisy/src/per/dac.h ****         BOTH,
  36:../../libdaisy/src/per/dac.h ****     };
  37:../../libdaisy/src/per/dac.h **** 
  38:../../libdaisy/src/per/dac.h ****     /** Sets the Mode for the DAC channels.
  39:../../libdaisy/src/per/dac.h ****      **
  40:../../libdaisy/src/per/dac.h ****      ** Polling mode uses the blocking mode to transmit a single value at a time.
  41:../../libdaisy/src/per/dac.h ****      **
  42:../../libdaisy/src/per/dac.h ****      ** DMA mode uses a buffer, and periodically transmits it triggering a 
  43:../../libdaisy/src/per/dac.h ****      ** callback to fill the buffer when it is ready for more samples.
  44:../../libdaisy/src/per/dac.h ****      ***/
  45:../../libdaisy/src/per/dac.h ****     enum class Mode
  46:../../libdaisy/src/per/dac.h ****     {
  47:../../libdaisy/src/per/dac.h ****         POLLING,
  48:../../libdaisy/src/per/dac.h ****         DMA,
  49:../../libdaisy/src/per/dac.h ****     };
  50:../../libdaisy/src/per/dac.h **** 
  51:../../libdaisy/src/per/dac.h ****     /** Sets the number of bits per sample transmitted out of the DAC.
  52:../../libdaisy/src/per/dac.h ****      ** The output range will be: 0V - VDDA
  53:../../libdaisy/src/per/dac.h ****      ** The resolution will be roughly: bitdepth / (VDDA - 0V) 
  54:../../libdaisy/src/per/dac.h ****      ***/
  55:../../libdaisy/src/per/dac.h ****     enum class BitDepth
  56:../../libdaisy/src/per/dac.h ****     {
  57:../../libdaisy/src/per/dac.h ****         BITS_8,
  58:../../libdaisy/src/per/dac.h ****         BITS_12
  59:../../libdaisy/src/per/dac.h ****     };
  60:../../libdaisy/src/per/dac.h **** 
  61:../../libdaisy/src/per/dac.h ****     /** Sets whether the DAC output is buffered for higher drive ability. */
  62:../../libdaisy/src/per/dac.h ****     enum class BufferState
  63:../../libdaisy/src/per/dac.h ****     {
  64:../../libdaisy/src/per/dac.h ****         ENABLED,
  65:../../libdaisy/src/per/dac.h ****         DISABLED,
  66:../../libdaisy/src/per/dac.h ****     };
  67:../../libdaisy/src/per/dac.h **** 
  68:../../libdaisy/src/per/dac.h ****     /** Configuration structure for initializing the DAC structure. */
  69:../../libdaisy/src/per/dac.h ****     struct Config
  70:../../libdaisy/src/per/dac.h ****     {
  71:../../libdaisy/src/per/dac.h ****         /** Target Samplerate in Hz used to configure the internal 
  72:../../libdaisy/src/per/dac.h ****          ** timebase for DMA mode. Does nothing in POLLING mode.
  73:../../libdaisy/src/per/dac.h ****          ** If the value is 0 at Init time this will default to 48000Hz 
  74:../../libdaisy/src/per/dac.h ****          ** otherwise the driver will attempt meet the target.*/
  75:../../libdaisy/src/per/dac.h ****         uint32_t target_samplerate;
  76:../../libdaisy/src/per/dac.h **** 
  77:../../libdaisy/src/per/dac.h ****         Channel     chn;
  78:../../libdaisy/src/per/dac.h ****         Mode        mode;
  79:../../libdaisy/src/per/dac.h ****         BitDepth    bitdepth;
  80:../../libdaisy/src/per/dac.h ****         BufferState buff_state;
  81:../../libdaisy/src/per/dac.h ****     };
  82:../../libdaisy/src/per/dac.h **** 
  83:../../libdaisy/src/per/dac.h ****     DacHandle() : pimpl_(nullptr) {}
 689              		.loc 14 83 5 is_stmt 1 view .LVU171
 690              	.LBB335:
 691              	.LBB336:
ARM GAS  /tmp/ccdYaiNY.s 			page 27


 692              		.loc 14 83 33 is_stmt 0 view .LVU172
 693 0016 2B62     		str	r3, [r5, #32]
 694              	.LVL37:
 695              		.loc 14 83 33 view .LVU173
 696              	.LBE336:
 697              	.LBE335:
 698              	.LBE334:
 699              	.LBB337:
 700              	.LBI337:
  40:../../libdaisy/src/hid/usb.h **** 
 701              		.loc 8 40 5 is_stmt 1 view .LVU174
  40:../../libdaisy/src/hid/usb.h **** 
 702              		.loc 8 40 5 is_stmt 0 view .LVU175
 703              	.LBE337:
 704              	.LBB338:
 705              	.LBI338:
  58:../../libdaisy/src/sys/system.h ****     ~System() {}
 706              		.loc 7 58 5 is_stmt 1 view .LVU176
  58:../../libdaisy/src/sys/system.h ****     ~System() {}
 707              		.loc 7 58 5 is_stmt 0 view .LVU177
 708              	.LBE338:
 709              	.LBE340:
 710              	.LBE350:
 711              	.LBB351:
 712              	.LBI351:
  20:../../libdaisy/src/hid/encoder.h ****     ~Encoder() {}
 713              		.loc 4 20 5 is_stmt 1 view .LVU178
 714              	.LBB352:
 715              	.LBB353:
 716              	.LBI353:
  40:../../libdaisy/src/hid/switch.h ****     ~Switch() {}
 717              		.loc 5 40 5 view .LVU179
  40:../../libdaisy/src/hid/switch.h ****     ~Switch() {}
 718              		.loc 5 40 5 is_stmt 0 view .LVU180
 719              	.LBE353:
 720              	.LBE352:
 721              	.LBE351:
 722              	.LBE358:
 723              	.LBE363:
 724              	.LBE376:
 725              	.LBE380:
  66:../../libdaisy/src/daisy_petal.h ****     /** Destructor */
 726              		.loc 3 66 18 is_stmt 1 view .LVU181
 727              	.LBB381:
 728              	.LBB377:
 729              	.LBB364:
 730              	.LBB359:
 731              	.LBB354:
 732              	.LBI354:
  21:../../libdaisy/src/hid/ctrl.h ****     /** destructor */
 733              		.loc 2 21 5 view .LVU182
  21:../../libdaisy/src/hid/ctrl.h ****     /** destructor */
 734              		.loc 2 21 5 is_stmt 0 view .LVU183
 735              	.LBE354:
 736              	.LBE359:
 737              	.LBE364:
 738              	.LBE377:
ARM GAS  /tmp/ccdYaiNY.s 			page 28


 739              	.LBE381:
  66:../../libdaisy/src/daisy_petal.h ****     /** Destructor */
 740              		.loc 3 66 18 is_stmt 1 view .LVU184
  66:../../libdaisy/src/daisy_petal.h ****     /** Destructor */
 741              		.loc 3 66 18 view .LVU185
  66:../../libdaisy/src/daisy_petal.h ****     /** Destructor */
 742              		.loc 3 66 18 view .LVU186
 743              	.LBB382:
 744              	.LBB378:
 745              	.LBB365:
 746              	.LBB360:
 747              	.LBB355:
 748              	.LBI342:
 749              		.loc 13 30 7 view .LVU187
 750              	.LBB348:
 751              	.LBB344:
 752              	.LBI344:
 753              		.file 15 "../../libdaisy/src/per/i2c.h"
   1:../../libdaisy/src/per/i2c.h **** #pragma once
   2:../../libdaisy/src/per/i2c.h **** #include "daisy_core.h"
   3:../../libdaisy/src/per/i2c.h **** 
   4:../../libdaisy/src/per/i2c.h **** namespace daisy
   5:../../libdaisy/src/per/i2c.h **** {
   6:../../libdaisy/src/per/i2c.h **** /** A handle for interacting with an I2C peripheral. This is a dumb
   7:../../libdaisy/src/per/i2c.h ****  *  gateway that internally points to one of the four I2C peripherals
   8:../../libdaisy/src/per/i2c.h ****  *  after it was initialised. It can then be copied and passed around.
   9:../../libdaisy/src/per/i2c.h ****  *  Use an I2CHandle like this:
  10:../../libdaisy/src/per/i2c.h ****  *  
  11:../../libdaisy/src/per/i2c.h ****  *      // setup the configuration
  12:../../libdaisy/src/per/i2c.h ****  *      I2CHandle::Config i2c_conf;
  13:../../libdaisy/src/per/i2c.h ****  *      i2c_conf.periph = I2CHandle::Config::Peripheral::I2C_1;
  14:../../libdaisy/src/per/i2c.h ****  *      i2c_conf.speed  = I2CHandle::Config::Speed::I2C_400KHZ;
  15:../../libdaisy/src/per/i2c.h ****  *      i2c_conf.mode   = I2CHandle::Config::Mode::Master;
  16:../../libdaisy/src/per/i2c.h ****  *      i2c_conf.pin_config.scl  = {DSY_GPIOB, 8};
  17:../../libdaisy/src/per/i2c.h ****  *      i2c_conf.pin_config.sda  = {DSY_GPIOB, 9};
  18:../../libdaisy/src/per/i2c.h ****  *      // initialise the peripheral
  19:../../libdaisy/src/per/i2c.h ****  *      I2CHandle i2c;
  20:../../libdaisy/src/per/i2c.h ****  *      i2c.Init(i2c_conf);
  21:../../libdaisy/src/per/i2c.h ****  *      // now i2c points to the corresponding peripheral and can be used.
  22:../../libdaisy/src/per/i2c.h ****  *      i2c.TransmitBlocking( ... );
  23:../../libdaisy/src/per/i2c.h ****  */
  24:../../libdaisy/src/per/i2c.h **** class I2CHandle
  25:../../libdaisy/src/per/i2c.h **** {
  26:../../libdaisy/src/per/i2c.h ****   public:
  27:../../libdaisy/src/per/i2c.h ****     /** Contains settings for initialising an I2C interface. */
  28:../../libdaisy/src/per/i2c.h ****     struct Config
  29:../../libdaisy/src/per/i2c.h ****     {
  30:../../libdaisy/src/per/i2c.h ****         /** Specifies whether the interface will operate in master or slave mode. */
  31:../../libdaisy/src/per/i2c.h ****         enum class Mode
  32:../../libdaisy/src/per/i2c.h ****         {
  33:../../libdaisy/src/per/i2c.h ****             I2C_MASTER,
  34:../../libdaisy/src/per/i2c.h ****             I2C_SLAVE,
  35:../../libdaisy/src/per/i2c.h ****         };
  36:../../libdaisy/src/per/i2c.h **** 
  37:../../libdaisy/src/per/i2c.h ****         /** Specifices the internal peripheral to use (these are mapped to different pins on the ha
  38:../../libdaisy/src/per/i2c.h ****         enum class Peripheral
  39:../../libdaisy/src/per/i2c.h ****         {
ARM GAS  /tmp/ccdYaiNY.s 			page 29


  40:../../libdaisy/src/per/i2c.h ****             I2C_1 = 0, /**< & */
  41:../../libdaisy/src/per/i2c.h ****             I2C_2,     /**< & */
  42:../../libdaisy/src/per/i2c.h ****             I2C_3,     /**< & */
  43:../../libdaisy/src/per/i2c.h ****             I2C_4,     /**< & */
  44:../../libdaisy/src/per/i2c.h ****         };
  45:../../libdaisy/src/per/i2c.h **** 
  46:../../libdaisy/src/per/i2c.h ****         /** Rate at which the clock/data will be sent/received. The device being used will have max
  47:../../libdaisy/src/per/i2c.h ****          *  1MHZ Mode is currently 886kHz
  48:../../libdaisy/src/per/i2c.h ****          */
  49:../../libdaisy/src/per/i2c.h ****         enum class Speed
  50:../../libdaisy/src/per/i2c.h ****         {
  51:../../libdaisy/src/per/i2c.h ****             I2C_100KHZ, /**< & */
  52:../../libdaisy/src/per/i2c.h ****             I2C_400KHZ, /**< & */
  53:../../libdaisy/src/per/i2c.h ****             I2C_1MHZ,   /**< & */
  54:../../libdaisy/src/per/i2c.h ****         };
  55:../../libdaisy/src/per/i2c.h **** 
  56:../../libdaisy/src/per/i2c.h ****         Peripheral periph; /**< & */
  57:../../libdaisy/src/per/i2c.h ****         struct
  58:../../libdaisy/src/per/i2c.h ****         {
  59:../../libdaisy/src/per/i2c.h ****             dsy_gpio_pin scl; /**< & */
  60:../../libdaisy/src/per/i2c.h ****             dsy_gpio_pin sda; /**< & */
  61:../../libdaisy/src/per/i2c.h ****         } pin_config;         /**< & */
  62:../../libdaisy/src/per/i2c.h **** 
  63:../../libdaisy/src/per/i2c.h ****         Speed speed; /**< & */
  64:../../libdaisy/src/per/i2c.h ****         Mode  mode;  /**< & */
  65:../../libdaisy/src/per/i2c.h ****         // 0x10 is chosen as a default to avoid conflicts with reserved addresses
  66:../../libdaisy/src/per/i2c.h ****         uint8_t address = 0x10; /**< & */
  67:../../libdaisy/src/per/i2c.h ****     };
  68:../../libdaisy/src/per/i2c.h **** 
  69:../../libdaisy/src/per/i2c.h ****     /** Return values for I2C functions. */
  70:../../libdaisy/src/per/i2c.h ****     enum class Result
  71:../../libdaisy/src/per/i2c.h ****     {
  72:../../libdaisy/src/per/i2c.h ****         OK, /**< & */
  73:../../libdaisy/src/per/i2c.h ****         ERR /**< & */
  74:../../libdaisy/src/per/i2c.h ****     };
  75:../../libdaisy/src/per/i2c.h **** 
  76:../../libdaisy/src/per/i2c.h ****     enum class Direction
  77:../../libdaisy/src/per/i2c.h ****     {
  78:../../libdaisy/src/per/i2c.h ****         TRANSMIT, /**< & */
  79:../../libdaisy/src/per/i2c.h ****         RECEIVE,  /**< & */
  80:../../libdaisy/src/per/i2c.h ****     };
  81:../../libdaisy/src/per/i2c.h **** 
  82:../../libdaisy/src/per/i2c.h ****     I2CHandle() : pimpl_(nullptr) {}
 754              		.loc 15 82 5 view .LVU188
 755              	.LBB345:
 756              	.LBB346:
 757              		.loc 15 82 33 is_stmt 0 view .LVU189
 758 0018 C5F8BC34 		str	r3, [r5, #1212]
 759              	.LVL38:
 760              		.loc 15 82 33 view .LVU190
 761              	.LBE346:
 762              	.LBE345:
 763              	.LBE344:
 764              		.loc 13 30 7 view .LVU191
 765 001c FFF7FEFF 		bl	memcpy
 766              	.LVL39:
 767              		.loc 13 30 7 view .LVU192
ARM GAS  /tmp/ccdYaiNY.s 			page 30


 768              	.LBE348:
 769              	.LBE355:
 770              	.LBE360:
 771              	.LBE365:
   8:Verb.cpp      **** 
 772              		.loc 12 8 12 view .LVU193
 773 0020 2246     		mov	r2, r4
 774 0022 2846     		mov	r0, r5
 775 0024 1049     		ldr	r1, .L29+16
 776 0026 FFF7FEFF 		bl	__aeabi_atexit
 777              	.LVL40:
 778              	.LBB366:
 779              	.LBI366:
  25:../../libdaisy/src/hid/parameter.h ****     /** Destructor */
 780              		.loc 1 25 5 is_stmt 1 view .LVU194
 781              	.LBB367:
 782              	.LBB368:
 783              	.LBI368:
  21:../../libdaisy/src/hid/ctrl.h ****     /** destructor */
 784              		.loc 2 21 5 view .LVU195
  21:../../libdaisy/src/hid/ctrl.h ****     /** destructor */
 785              		.loc 2 21 5 is_stmt 0 view .LVU196
 786              	.LBE368:
 787              	.LBE367:
 788              	.LBE366:
  10:Verb.cpp      **** bool      bypass;
 789              		.loc 12 10 11 view .LVU197
 790 002a 2246     		mov	r2, r4
 791 002c 3146     		mov	r1, r6
 792 002e 0F48     		ldr	r0, .L29+20
 793 0030 FFF7FEFF 		bl	__aeabi_atexit
 794              	.LVL41:
 795              	.LBB369:
 796              	.LBI369:
  25:../../libdaisy/src/hid/parameter.h ****     /** Destructor */
 797              		.loc 1 25 5 is_stmt 1 view .LVU198
 798              	.LBB370:
 799              	.LBB371:
 800              	.LBI371:
  21:../../libdaisy/src/hid/ctrl.h ****     /** destructor */
 801              		.loc 2 21 5 view .LVU199
  21:../../libdaisy/src/hid/ctrl.h ****     /** destructor */
 802              		.loc 2 21 5 is_stmt 0 view .LVU200
 803              	.LBE371:
 804              	.LBE370:
 805              	.LBE369:
  10:Verb.cpp      **** bool      bypass;
 806              		.loc 12 10 18 view .LVU201
 807 0034 2246     		mov	r2, r4
 808 0036 3146     		mov	r1, r6
 809 0038 0D48     		ldr	r0, .L29+24
 810 003a FFF7FEFF 		bl	__aeabi_atexit
 811              	.LVL42:
 812              	.LBB372:
 813              	.LBI372:
  25:../../libdaisy/src/hid/parameter.h ****     /** Destructor */
 814              		.loc 1 25 5 is_stmt 1 view .LVU202
ARM GAS  /tmp/ccdYaiNY.s 			page 31


 815              	.LBB373:
 816              	.LBB374:
 817              	.LBI374:
  21:../../libdaisy/src/hid/ctrl.h ****     /** destructor */
 818              		.loc 2 21 5 view .LVU203
  21:../../libdaisy/src/hid/ctrl.h ****     /** destructor */
 819              		.loc 2 21 5 is_stmt 0 view .LVU204
 820              	.LBE374:
 821              	.LBE373:
 822              	.LBE372:
  10:Verb.cpp      **** bool      bypass;
 823              		.loc 12 10 25 view .LVU205
 824 003e 2246     		mov	r2, r4
 825 0040 3146     		mov	r1, r6
 826 0042 0C48     		ldr	r0, .L29+28
 827 0044 FFF7FEFF 		bl	__aeabi_atexit
 828              	.LVL43:
 829              	.LBB375:
 830              	.LBI375:
  40:../../DaisySP/Source/Effects/reverbsc.h ****     ~ReverbSc() {}
 831              		.loc 11 40 5 is_stmt 1 view .LVU206
  40:../../DaisySP/Source/Effects/reverbsc.h ****     ~ReverbSc() {}
 832              		.loc 11 40 5 is_stmt 0 view .LVU207
 833              	.LBE375:
  12:Verb.cpp      **** 
 834              		.loc 12 12 11 view .LVU208
 835 0048 2246     		mov	r2, r4
 836 004a 0B49     		ldr	r1, .L29+32
 837 004c 0B48     		ldr	r0, .L29+36
 838              	.LBE378:
 839              	.LBE382:
 840              		.loc 12 69 1 view .LVU209
 841 004e BDE87040 		pop	{r4, r5, r6, lr}
 842              		.cfi_restore 14
 843              		.cfi_restore 6
 844              		.cfi_restore 5
 845              		.cfi_restore 4
 846              		.cfi_def_cfa_offset 0
 847              	.LBB383:
 848              	.LBB379:
  12:Verb.cpp      **** 
 849              		.loc 12 12 11 view .LVU210
 850 0052 FFF7FEBF 		b	__aeabi_atexit
 851              	.LVL44:
 852              	.L30:
 853 0056 00BF     		.align	2
 854              	.L29:
 855 0058 00000000 		.word	.LANCHOR0
 856 005c 00000000 		.word	__dso_handle
 857 0060 00000000 		.word	_ZN5daisy9ParameterD1Ev
 858 0064 00000000 		.word	.LANCHOR5
 859 0068 00000000 		.word	_ZN5daisy10DaisyPetalD1Ev
 860 006c 00000000 		.word	.LANCHOR1
 861 0070 00000000 		.word	.LANCHOR2
 862 0074 00000000 		.word	.LANCHOR3
 863 0078 00000000 		.word	_ZN7daisysp8ReverbScD1Ev
 864 007c 00000000 		.word	verb
ARM GAS  /tmp/ccdYaiNY.s 			page 32


 865              	.LBE379:
 866              	.LBE383:
 867              		.cfi_endproc
 868              	.LFE4770:
 870              		.section	.init_array,"aw",%init_array
 871              		.align	2
 872 0000 00000000 		.word	_GLOBAL__sub_I_hw(target1)
 873              		.global	verb
 874              		.global	bypass
 875              		.global	vsend
 876              		.global	vfreq
 877              		.global	vtime
 878              		.global	hw
 879              		.section	.rodata
 880              		.align	2
 881              		.set	.LANCHOR5,. + 0
 882              	.LC0:
 883 0000 0000     		.short	0
 884 0002 0100     		.short	1
 885 0004 0100     		.short	1
 886 0006 0100     		.short	1
 887 0008 0100     		.short	1
 888 000a 0100     		.short	1
 889 000c 0100     		.short	1
 890 000e 0100     		.short	1
 891 0010 0100     		.short	1
 892 0012 0100     		.short	1
 893 0014 0100     		.short	1
 894 0016 0100     		.short	1
 895 0018 0200     		.short	2
 896 001a 0200     		.short	2
 897 001c 0200     		.short	2
 898 001e 0200     		.short	2
 899 0020 0200     		.short	2
 900 0022 0200     		.short	2
 901 0024 0200     		.short	2
 902 0026 0300     		.short	3
 903 0028 0300     		.short	3
 904 002a 0400     		.short	4
 905 002c 0400     		.short	4
 906 002e 0500     		.short	5
 907 0030 0500     		.short	5
 908 0032 0600     		.short	6
 909 0034 0700     		.short	7
 910 0036 0800     		.short	8
 911 0038 0800     		.short	8
 912 003a 0900     		.short	9
 913 003c 0A00     		.short	10
 914 003e 0B00     		.short	11
 915 0040 0C00     		.short	12
 916 0042 0D00     		.short	13
 917 0044 0F00     		.short	15
 918 0046 1000     		.short	16
 919 0048 1100     		.short	17
 920 004a 1200     		.short	18
 921 004c 1400     		.short	20
 922 004e 1500     		.short	21
ARM GAS  /tmp/ccdYaiNY.s 			page 33


 923 0050 1700     		.short	23
 924 0052 1900     		.short	25
 925 0054 1A00     		.short	26
 926 0056 1C00     		.short	28
 927 0058 1E00     		.short	30
 928 005a 2000     		.short	32
 929 005c 2200     		.short	34
 930 005e 2400     		.short	36
 931 0060 2600     		.short	38
 932 0062 2800     		.short	40
 933 0064 2B00     		.short	43
 934 0066 2D00     		.short	45
 935 0068 3000     		.short	48
 936 006a 3200     		.short	50
 937 006c 3500     		.short	53
 938 006e 3800     		.short	56
 939 0070 3B00     		.short	59
 940 0072 3E00     		.short	62
 941 0074 4100     		.short	65
 942 0076 4400     		.short	68
 943 0078 4700     		.short	71
 944 007a 4B00     		.short	75
 945 007c 4E00     		.short	78
 946 007e 5200     		.short	82
 947 0080 5500     		.short	85
 948 0082 5900     		.short	89
 949 0084 5D00     		.short	93
 950 0086 6100     		.short	97
 951 0088 6500     		.short	101
 952 008a 6900     		.short	105
 953 008c 6E00     		.short	110
 954 008e 7200     		.short	114
 955 0090 7700     		.short	119
 956 0092 7B00     		.short	123
 957 0094 8000     		.short	128
 958 0096 8500     		.short	133
 959 0098 8A00     		.short	138
 960 009a 8F00     		.short	143
 961 009c 9500     		.short	149
 962 009e 9A00     		.short	154
 963 00a0 9F00     		.short	159
 964 00a2 A500     		.short	165
 965 00a4 AB00     		.short	171
 966 00a6 B100     		.short	177
 967 00a8 B700     		.short	183
 968 00aa BD00     		.short	189
 969 00ac C300     		.short	195
 970 00ae CA00     		.short	202
 971 00b0 D000     		.short	208
 972 00b2 D700     		.short	215
 973 00b4 DE00     		.short	222
 974 00b6 E500     		.short	229
 975 00b8 EC00     		.short	236
 976 00ba F300     		.short	243
 977 00bc FA00     		.short	250
 978 00be 0201     		.short	258
 979 00c0 0A01     		.short	266
ARM GAS  /tmp/ccdYaiNY.s 			page 34


 980 00c2 1101     		.short	273
 981 00c4 1901     		.short	281
 982 00c6 2201     		.short	290
 983 00c8 2A01     		.short	298
 984 00ca 3201     		.short	306
 985 00cc 3B01     		.short	315
 986 00ce 4401     		.short	324
 987 00d0 4C01     		.short	332
 988 00d2 5501     		.short	341
 989 00d4 5F01     		.short	351
 990 00d6 6801     		.short	360
 991 00d8 7101     		.short	369
 992 00da 7B01     		.short	379
 993 00dc 8501     		.short	389
 994 00de 8F01     		.short	399
 995 00e0 9901     		.short	409
 996 00e2 A301     		.short	419
 997 00e4 AE01     		.short	430
 998 00e6 B801     		.short	440
 999 00e8 C301     		.short	451
 1000 00ea CE01     		.short	462
 1001 00ec D901     		.short	473
 1002 00ee E501     		.short	485
 1003 00f0 F001     		.short	496
 1004 00f2 FC01     		.short	508
 1005 00f4 0802     		.short	520
 1006 00f6 1402     		.short	532
 1007 00f8 2002     		.short	544
 1008 00fa 2C02     		.short	556
 1009 00fc 3902     		.short	569
 1010 00fe 4602     		.short	582
 1011 0100 5202     		.short	594
 1012 0102 6002     		.short	608
 1013 0104 6D02     		.short	621
 1014 0106 7A02     		.short	634
 1015 0108 8802     		.short	648
 1016 010a 9602     		.short	662
 1017 010c A402     		.short	676
 1018 010e B202     		.short	690
 1019 0110 C002     		.short	704
 1020 0112 CF02     		.short	719
 1021 0114 DE02     		.short	734
 1022 0116 ED02     		.short	749
 1023 0118 FC02     		.short	764
 1024 011a 0B03     		.short	779
 1025 011c 1B03     		.short	795
 1026 011e 2B03     		.short	811
 1027 0120 3B03     		.short	827
 1028 0122 4B03     		.short	843
 1029 0124 5B03     		.short	859
 1030 0126 6C03     		.short	876
 1031 0128 7D03     		.short	893
 1032 012a 8E03     		.short	910
 1033 012c 9F03     		.short	927
 1034 012e B003     		.short	944
 1035 0130 C203     		.short	962
 1036 0132 D403     		.short	980
ARM GAS  /tmp/ccdYaiNY.s 			page 35


 1037 0134 E603     		.short	998
 1038 0136 F803     		.short	1016
 1039 0138 0A04     		.short	1034
 1040 013a 1D04     		.short	1053
 1041 013c 3004     		.short	1072
 1042 013e 4304     		.short	1091
 1043 0140 5604     		.short	1110
 1044 0142 6A04     		.short	1130
 1045 0144 7E04     		.short	1150
 1046 0146 9204     		.short	1170
 1047 0148 A604     		.short	1190
 1048 014a BA04     		.short	1210
 1049 014c CF04     		.short	1231
 1050 014e E404     		.short	1252
 1051 0150 F904     		.short	1273
 1052 0152 0E05     		.short	1294
 1053 0154 2405     		.short	1316
 1054 0156 3A05     		.short	1338
 1055 0158 5005     		.short	1360
 1056 015a 6605     		.short	1382
 1057 015c 7C05     		.short	1404
 1058 015e 9305     		.short	1427
 1059 0160 AA05     		.short	1450
 1060 0162 C105     		.short	1473
 1061 0164 D905     		.short	1497
 1062 0166 F005     		.short	1520
 1063 0168 0806     		.short	1544
 1064 016a 2006     		.short	1568
 1065 016c 3906     		.short	1593
 1066 016e 5106     		.short	1617
 1067 0170 6A06     		.short	1642
 1068 0172 8306     		.short	1667
 1069 0174 9D06     		.short	1693
 1070 0176 B606     		.short	1718
 1071 0178 D006     		.short	1744
 1072 017a EA06     		.short	1770
 1073 017c 0507     		.short	1797
 1074 017e 1F07     		.short	1823
 1075 0180 3A07     		.short	1850
 1076 0182 5507     		.short	1877
 1077 0184 7107     		.short	1905
 1078 0186 8C07     		.short	1932
 1079 0188 A807     		.short	1960
 1080 018a C407     		.short	1988
 1081 018c E107     		.short	2017
 1082 018e FD07     		.short	2045
 1083 0190 1A08     		.short	2074
 1084 0192 3708     		.short	2103
 1085 0194 5508     		.short	2133
 1086 0196 7208     		.short	2162
 1087 0198 9008     		.short	2192
 1088 019a AF08     		.short	2223
 1089 019c CD08     		.short	2253
 1090 019e EC08     		.short	2284
 1091 01a0 0B09     		.short	2315
 1092 01a2 2A09     		.short	2346
 1093 01a4 4A09     		.short	2378
ARM GAS  /tmp/ccdYaiNY.s 			page 36


 1094 01a6 6A09     		.short	2410
 1095 01a8 8A09     		.short	2442
 1096 01aa AA09     		.short	2474
 1097 01ac CB09     		.short	2507
 1098 01ae EC09     		.short	2540
 1099 01b0 0D0A     		.short	2573
 1100 01b2 2E0A     		.short	2606
 1101 01b4 500A     		.short	2640
 1102 01b6 720A     		.short	2674
 1103 01b8 940A     		.short	2708
 1104 01ba B70A     		.short	2743
 1105 01bc DA0A     		.short	2778
 1106 01be FD0A     		.short	2813
 1107 01c0 210B     		.short	2849
 1108 01c2 440B     		.short	2884
 1109 01c4 680B     		.short	2920
 1110 01c6 8D0B     		.short	2957
 1111 01c8 B10B     		.short	2993
 1112 01ca D60B     		.short	3030
 1113 01cc FB0B     		.short	3067
 1114 01ce 210C     		.short	3105
 1115 01d0 470C     		.short	3143
 1116 01d2 6D0C     		.short	3181
 1117 01d4 930C     		.short	3219
 1118 01d6 BA0C     		.short	3258
 1119 01d8 E10C     		.short	3297
 1120 01da 080D     		.short	3336
 1121 01dc 300D     		.short	3376
 1122 01de 580D     		.short	3416
 1123 01e0 800D     		.short	3456
 1124 01e2 A80D     		.short	3496
 1125 01e4 D10D     		.short	3537
 1126 01e6 FA0D     		.short	3578
 1127 01e8 230E     		.short	3619
 1128 01ea 4D0E     		.short	3661
 1129 01ec 770E     		.short	3703
 1130 01ee A10E     		.short	3745
 1131 01f0 CC0E     		.short	3788
 1132 01f2 F70E     		.short	3831
 1133 01f4 220F     		.short	3874
 1134 01f6 4E0F     		.short	3918
 1135 01f8 7A0F     		.short	3962
 1136 01fa A60F     		.short	4006
 1137 01fc D20F     		.short	4050
 1138 01fe FF0F     		.short	4095
 1139              		.section	.bss.bypass,"aw",%nobits
 1140              		.set	.LANCHOR4,. + 0
 1143              	bypass:
 1144 0000 00       		.space	1
 1145              		.section	.bss.hw,"aw",%nobits
 1146              		.align	2
 1147              		.set	.LANCHOR0,. + 0
 1150              	hw:
 1151 0000 00000000 		.space	1748
 1151      00000000 
 1151      00000000 
 1151      00000000 
ARM GAS  /tmp/ccdYaiNY.s 			page 37


 1151      00000000 
 1152              		.section	.bss.verb,"aw",%nobits
 1153              		.align	2
 1156              	verb:
 1157 0000 00000000 		.space	396100
 1157      00000000 
 1157      00000000 
 1157      00000000 
 1157      00000000 
 1158              		.section	.bss.vfreq,"aw",%nobits
 1159              		.align	2
 1160              		.set	.LANCHOR2,. + 0
 1163              	vfreq:
 1164 0000 00000000 		.space	56
 1164      00000000 
 1164      00000000 
 1164      00000000 
 1164      00000000 
 1165              		.section	.bss.vsend,"aw",%nobits
 1166              		.align	2
 1167              		.set	.LANCHOR3,. + 0
 1170              	vsend:
 1171 0000 00000000 		.space	56
 1171      00000000 
 1171      00000000 
 1171      00000000 
 1171      00000000 
 1172              		.section	.bss.vtime,"aw",%nobits
 1173              		.align	2
 1174              		.set	.LANCHOR1,. + 0
 1177              	vtime:
 1178 0000 00000000 		.space	56
 1178      00000000 
 1178      00000000 
 1178      00000000 
 1178      00000000 
 1179              		.text
 1180              	.Letext0:
 1181              		.file 16 "/usr/lib/gcc/arm-none-eabi/9.2.1/include/stdint.h"
 1182              		.file 17 "../../libdaisy/Drivers/CMSIS/Include/core_cm7.h"
 1183              		.file 18 "../../libdaisy/Drivers/CMSIS/Device/ST/STM32H7xx/Include/system_stm32h7xx.h"
 1184              		.file 19 "/usr/lib/gcc/arm-none-eabi/9.2.1/include/stddef.h"
 1185              		.file 20 "/usr/include/newlib/c++/9.2.1/cmath"
 1186              		.file 21 "/usr/include/newlib/c++/9.2.1/bits/std_abs.h"
 1187              		.file 22 "/usr/include/newlib/c++/9.2.1/cstdlib"
 1188              		.file 23 "/usr/include/newlib/c++/9.2.1/cstdint"
 1189              		.file 24 "/usr/include/newlib/c++/9.2.1/type_traits"
 1190              		.file 25 "/usr/include/newlib/c++/9.2.1/arm-none-eabi/thumb/v7e-m+dp/hard/bits/c++config.h"
 1191              		.file 26 "/usr/include/newlib/c++/9.2.1/bits/stl_pair.h"
 1192              		.file 27 "/usr/include/newlib/c++/9.2.1/debug/debug.h"
 1193              		.file 28 "/usr/include/newlib/c++/9.2.1/bits/algorithmfwd.h"
 1194              		.file 29 "/usr/include/newlib/c++/9.2.1/bits/exception_ptr.h"
 1195              		.file 30 "/usr/include/newlib/c++/9.2.1/new"
 1196              		.file 31 "/usr/include/newlib/c++/9.2.1/cstdarg"
 1197              		.file 32 "/usr/include/newlib/c++/9.2.1/cstdio"
 1198              		.file 33 "/usr/include/newlib/c++/9.2.1/cwchar"
 1199              		.file 34 "/usr/include/newlib/c++/9.2.1/clocale"
ARM GAS  /tmp/ccdYaiNY.s 			page 38


 1200              		.file 35 "/usr/include/newlib/c++/9.2.1/bits/basic_string.h"
 1201              		.file 36 "/usr/include/newlib/c++/9.2.1/bits/uniform_int_dist.h"
 1202              		.file 37 "/usr/include/newlib/c++/9.2.1/bits/random.h"
 1203              		.file 38 "/usr/include/newlib/c++/9.2.1/cstring"
 1204              		.file 39 "/usr/include/newlib/c++/9.2.1/bits/predefined_ops.h"
 1205              		.file 40 "/usr/include/newlib/c++/9.2.1/ext/numeric_traits.h"
 1206              		.file 41 "/usr/include/newlib/c++/9.2.1/ext/new_allocator.h"
 1207              		.file 42 "/usr/include/newlib/sys/_types.h"
 1208              		.file 43 "<built-in>"
 1209              		.file 44 "/usr/include/newlib/sys/reent.h"
 1210              		.file 45 "/usr/include/newlib/sys/lock.h"
 1211              		.file 46 "/usr/include/newlib/math.h"
 1212              		.file 47 "/usr/include/newlib/stdlib.h"
 1213              		.file 48 "/usr/include/newlib/c++/9.2.1/math.h"
 1214              		.file 49 "../../libdaisy/Drivers/STM32H7xx_HAL_Driver/Inc/stm32h7xx_hal_def.h"
 1215              		.file 50 "../../libdaisy/Drivers/STM32H7xx_HAL_Driver/Inc/stm32h7xx_hal_flash.h"
 1216              		.file 51 "/usr/include/newlib/c++/9.2.1/stdlib.h"
 1217              		.file 52 "../../libdaisy/src/daisy_core.h"
 1218              		.file 53 "../../libdaisy/src/per/tim.h"
 1219              		.file 54 "../../libdaisy/src/per/sai.h"
 1220              		.file 55 "../../libdaisy/src/util/wav_format.h"
 1221              		.file 56 "../../libdaisy/src/hid/led.h"
 1222              		.file 57 "../../libdaisy/src/util/color.h"
 1223              		.file 58 "../../libdaisy/src/hid/rgb_led.h"
 1224              		.file 59 "../../libdaisy/src/per/qspi.h"
 1225              		.file 60 "../../libdaisy/src/per/gpio.h"
 1226              		.file 61 "../../libdaisy/src/dev/sdram.h"
 1227              		.file 62 "/usr/lib/gcc/arm-none-eabi/9.2.1/include/stdarg.h"
 1228              		.file 63 "/usr/include/newlib/stdio.h"
 1229              		.file 64 "/usr/include/newlib/sys/unistd.h"
 1230              		.file 65 "../../libdaisy/src/util/oled_fonts.h"
 1231              		.file 66 "../../libdaisy/Middlewares/Third_Party/FatFs/src/integer.h"
 1232              		.file 67 "../../libdaisy/Middlewares/Third_Party/FatFs/src/ff.h"
 1233              		.file 68 "../../libdaisy/Middlewares/Third_Party/FatFs/src/diskio.h"
 1234              		.file 69 "../../libdaisy/Middlewares/Third_Party/FatFs/src/ff_gen_drv.h"
 1235              		.file 70 "../../libdaisy/src/util/sd_diskio.h"
 1236              		.file 71 "../../libdaisy/src/sys/fatfs.h"
 1237              		.file 72 "../../DaisySP/Source/Control/adenv.h"
 1238              		.file 73 "../../DaisySP/Source/Utility/dsp.h"
 1239              		.file 74 "/usr/include/newlib/wchar.h"
 1240              		.file 75 "/usr/include/newlib/locale.h"
 1241              		.file 76 "/usr/include/newlib/ctype.h"
 1242              		.file 77 "/usr/include/newlib/sys/errno.h"
 1243              		.file 78 "/usr/include/newlib/string.h"
 1244              		.file 79 "../../libdaisy/src/dev/sr_595.h"
ARM GAS  /tmp/ccdYaiNY.s 			page 39

