ARM GAS  /tmp/cceytVzI.s 			page 1


   1              		.cpu cortex-m7
   2              		.eabi_attribute 28, 1
   3              		.eabi_attribute 20, 1
   4              		.eabi_attribute 21, 1
   5              		.eabi_attribute 23, 3
   6              		.eabi_attribute 24, 1
   7              		.eabi_attribute 25, 1
   8              		.eabi_attribute 26, 1
   9              		.eabi_attribute 30, 2
  10              		.eabi_attribute 34, 1
  11              		.eabi_attribute 18, 4
  12              		.file	"clockednoise.cpp"
  13              		.text
  14              	.Ltext0:
  15              		.cfi_sections	.debug_frame
  16              		.section	.text._ZN5daisy9DaisySeedD2Ev,"axG",%progbits,_ZN5daisy9DaisySeedD5Ev,comdat
  17              		.align	1
  18              		.p2align 2,,3
  19              		.weak	_ZN5daisy9DaisySeedD2Ev
  20              		.arch armv7e-m
  21              		.syntax unified
  22              		.thumb
  23              		.thumb_func
  24              		.fpu fpv5-d16
  26              	_ZN5daisy9DaisySeedD2Ev:
  27              	.LVL0:
  28              	.LFB2037:
  29              		.file 1 "../../libdaisy/src/daisy_seed.h"
   1:../../libdaisy/src/daisy_seed.h **** #pragma once
   2:../../libdaisy/src/daisy_seed.h **** #ifndef DSY_SEED_H
   3:../../libdaisy/src/daisy_seed.h **** #define DSY_SEED_H
   4:../../libdaisy/src/daisy_seed.h **** 
   5:../../libdaisy/src/daisy_seed.h **** #include "daisy.h"
   6:../../libdaisy/src/daisy_seed.h **** 
   7:../../libdaisy/src/daisy_seed.h **** //Uncomment this out if you're still using the rev2 hardware
   8:../../libdaisy/src/daisy_seed.h **** //#define SEED_REV2
   9:../../libdaisy/src/daisy_seed.h **** 
  10:../../libdaisy/src/daisy_seed.h **** namespace daisy
  11:../../libdaisy/src/daisy_seed.h **** {
  12:../../libdaisy/src/daisy_seed.h **** /**
  13:../../libdaisy/src/daisy_seed.h ****    @brief This is the higher-level interface for the Daisy board. \n 
  14:../../libdaisy/src/daisy_seed.h ****     All basic peripheral configuration/initialization is setup here. \n
  15:../../libdaisy/src/daisy_seed.h **** 
  16:../../libdaisy/src/daisy_seed.h ****    @ingroup boards
  17:../../libdaisy/src/daisy_seed.h **** */
  18:../../libdaisy/src/daisy_seed.h **** class DaisySeed
  19:../../libdaisy/src/daisy_seed.h **** {
  20:../../libdaisy/src/daisy_seed.h ****   public:
  21:../../libdaisy/src/daisy_seed.h ****     DaisySeed() {}
  22:../../libdaisy/src/daisy_seed.h ****     ~DaisySeed() {}
  30              		.loc 1 22 5 view -0
  31              		.cfi_startproc
  32              		@ args = 0, pretend = 0, frame = 0
  33              		@ frame_needed = 0, uses_anonymous_args = 0
  34              		@ link register save eliminated.
  35              	.LBB67:
  36              	.LBI67:
ARM GAS  /tmp/cceytVzI.s 			page 2


  37              		.file 2 "../../libdaisy/src/sys/system.h"
   1:../../libdaisy/src/sys/system.h **** #ifndef DSY_SYSTEM_H
   2:../../libdaisy/src/sys/system.h **** #define DSY_SYSTEM_H
   3:../../libdaisy/src/sys/system.h **** 
   4:../../libdaisy/src/sys/system.h **** #ifndef UNIT_TEST // for unit tests, a dummy implementation is provided below
   5:../../libdaisy/src/sys/system.h **** 
   6:../../libdaisy/src/sys/system.h **** #include <cstdint>
   7:../../libdaisy/src/sys/system.h **** #include "per/tim.h"
   8:../../libdaisy/src/sys/system.h **** 
   9:../../libdaisy/src/sys/system.h **** namespace daisy
  10:../../libdaisy/src/sys/system.h **** {
  11:../../libdaisy/src/sys/system.h **** /** A handle for interacting with the Core System. 
  12:../../libdaisy/src/sys/system.h ****  ** This includes the Clock tree, MPU, global DMA initialization,
  13:../../libdaisy/src/sys/system.h ****  ** cache handling, and any other necessary global initiailzation
  14:../../libdaisy/src/sys/system.h ****  **
  15:../../libdaisy/src/sys/system.h ****  ** @author shensley
  16:../../libdaisy/src/sys/system.h ****  ** @addtogroup system
  17:../../libdaisy/src/sys/system.h ****  */
  18:../../libdaisy/src/sys/system.h **** class System
  19:../../libdaisy/src/sys/system.h **** {
  20:../../libdaisy/src/sys/system.h ****   public:
  21:../../libdaisy/src/sys/system.h ****     /** Contains settings for initializing the System */
  22:../../libdaisy/src/sys/system.h ****     struct Config
  23:../../libdaisy/src/sys/system.h ****     {
  24:../../libdaisy/src/sys/system.h ****         /** Specifies the system clock frequency that feeds APB/AHB clocks, etc. */
  25:../../libdaisy/src/sys/system.h ****         enum class SysClkFreq
  26:../../libdaisy/src/sys/system.h ****         {
  27:../../libdaisy/src/sys/system.h ****             FREQ_400MHZ,
  28:../../libdaisy/src/sys/system.h ****             FREQ_480MHZ,
  29:../../libdaisy/src/sys/system.h ****         };
  30:../../libdaisy/src/sys/system.h **** 
  31:../../libdaisy/src/sys/system.h ****         /** Method to call on the struct to set to defaults
  32:../../libdaisy/src/sys/system.h ****          ** CPU Freq set to 400MHz
  33:../../libdaisy/src/sys/system.h ****          ** Cache Enabled 
  34:../../libdaisy/src/sys/system.h ****          ** */
  35:../../libdaisy/src/sys/system.h ****         void Defaults()
  36:../../libdaisy/src/sys/system.h ****         {
  37:../../libdaisy/src/sys/system.h ****             cpu_freq   = SysClkFreq::FREQ_400MHZ;
  38:../../libdaisy/src/sys/system.h ****             use_dcache = true;
  39:../../libdaisy/src/sys/system.h ****             use_icache = true;
  40:../../libdaisy/src/sys/system.h ****         }
  41:../../libdaisy/src/sys/system.h **** 
  42:../../libdaisy/src/sys/system.h ****         /** Method to call on the struct to set to boost mode:
  43:../../libdaisy/src/sys/system.h ****          ** CPU Freq set to 480MHz
  44:../../libdaisy/src/sys/system.h ****          ** Cache Enabled 
  45:../../libdaisy/src/sys/system.h ****          ** */
  46:../../libdaisy/src/sys/system.h ****         void Boost()
  47:../../libdaisy/src/sys/system.h ****         {
  48:../../libdaisy/src/sys/system.h ****             cpu_freq   = SysClkFreq::FREQ_480MHZ;
  49:../../libdaisy/src/sys/system.h ****             use_dcache = true;
  50:../../libdaisy/src/sys/system.h ****             use_icache = true;
  51:../../libdaisy/src/sys/system.h ****         }
  52:../../libdaisy/src/sys/system.h **** 
  53:../../libdaisy/src/sys/system.h ****         SysClkFreq cpu_freq;
  54:../../libdaisy/src/sys/system.h ****         bool       use_dcache;
  55:../../libdaisy/src/sys/system.h ****         bool       use_icache;
  56:../../libdaisy/src/sys/system.h ****     };
ARM GAS  /tmp/cceytVzI.s 			page 3


  57:../../libdaisy/src/sys/system.h **** 
  58:../../libdaisy/src/sys/system.h ****     System() {}
  59:../../libdaisy/src/sys/system.h ****     ~System() {}
  38              		.loc 2 59 5 view .LVU1
  39              		.loc 2 59 5 is_stmt 0 view .LVU2
  40              	.LBE67:
  41              	.LBB68:
  42              	.LBI68:
  43              		.file 3 "../../libdaisy/src/hid/usb.h"
   1:../../libdaisy/src/hid/usb.h **** #pragma once
   2:../../libdaisy/src/hid/usb.h **** #ifndef DSY_HID_USB_H
   3:../../libdaisy/src/hid/usb.h **** #define DSY_HID_USB_H
   4:../../libdaisy/src/hid/usb.h **** #include <stdint.h>
   5:../../libdaisy/src/hid/usb.h **** #include <stdlib.h>
   6:../../libdaisy/src/hid/usb.h **** 
   7:../../libdaisy/src/hid/usb.h **** namespace daisy
   8:../../libdaisy/src/hid/usb.h **** /** @addtogroup externals
   9:../../libdaisy/src/hid/usb.h ****     @{
  10:../../libdaisy/src/hid/usb.h **** */
  11:../../libdaisy/src/hid/usb.h **** 
  12:../../libdaisy/src/hid/usb.h **** {
  13:../../libdaisy/src/hid/usb.h **** /** 
  14:../../libdaisy/src/hid/usb.h ****     @brief Interface for initializing and using the USB Peripherals on the daisy
  15:../../libdaisy/src/hid/usb.h ****     @author Stephen Hensley
  16:../../libdaisy/src/hid/usb.h ****     @date December 2019
  17:../../libdaisy/src/hid/usb.h **** */
  18:../../libdaisy/src/hid/usb.h **** class UsbHandle
  19:../../libdaisy/src/hid/usb.h **** {
  20:../../libdaisy/src/hid/usb.h ****   public:
  21:../../libdaisy/src/hid/usb.h ****     /** Return values for USBHandle Functions */
  22:../../libdaisy/src/hid/usb.h ****     enum class Result
  23:../../libdaisy/src/hid/usb.h ****     {
  24:../../libdaisy/src/hid/usb.h ****         OK,
  25:../../libdaisy/src/hid/usb.h ****         ERR,
  26:../../libdaisy/src/hid/usb.h ****     };
  27:../../libdaisy/src/hid/usb.h **** 
  28:../../libdaisy/src/hid/usb.h ****     /** Specified which of the two USB Peripherals to initialize. */
  29:../../libdaisy/src/hid/usb.h ****     enum UsbPeriph
  30:../../libdaisy/src/hid/usb.h ****     {
  31:../../libdaisy/src/hid/usb.h ****         FS_INTERNAL, /**< Internal pin */
  32:../../libdaisy/src/hid/usb.h ****         FS_EXTERNAL, /**< FS External D+ pin is Pin 38 (GPIO32). FS External D- pin is Pin 37 (GPIO
  33:../../libdaisy/src/hid/usb.h ****         FS_BOTH,     /**< Both */
  34:../../libdaisy/src/hid/usb.h ****     };
  35:../../libdaisy/src/hid/usb.h **** 
  36:../../libdaisy/src/hid/usb.h **** 
  37:../../libdaisy/src/hid/usb.h ****     /** Function called upon reception of a buffer */
  38:../../libdaisy/src/hid/usb.h ****     typedef void (*ReceiveCallback)(uint8_t* buff, uint32_t* len);
  39:../../libdaisy/src/hid/usb.h **** 
  40:../../libdaisy/src/hid/usb.h ****     UsbHandle() {}
  41:../../libdaisy/src/hid/usb.h **** 
  42:../../libdaisy/src/hid/usb.h ****     ~UsbHandle() {}
  44              		.loc 3 42 5 is_stmt 1 view .LVU3
  45              		.loc 3 42 5 is_stmt 0 view .LVU4
  46              	.LBE68:
  47              	.LBB69:
  48              	.LBI69:
  49              		.file 4 "../../libdaisy/src/per/adc.h"
ARM GAS  /tmp/cceytVzI.s 			page 4


   1:../../libdaisy/src/per/adc.h **** #pragma once
   2:../../libdaisy/src/per/adc.h **** #ifndef DSY_ADC_H
   3:../../libdaisy/src/per/adc.h **** #define DSY_ADC_H /**< Macro */
   4:../../libdaisy/src/per/adc.h **** #include <stdint.h>
   5:../../libdaisy/src/per/adc.h **** #include <stdlib.h>
   6:../../libdaisy/src/per/adc.h **** #include "daisy_core.h"
   7:../../libdaisy/src/per/adc.h **** #include "per/gpio.h"
   8:../../libdaisy/src/per/adc.h **** 
   9:../../libdaisy/src/per/adc.h **** #define DSY_ADC_MAX_CHANNELS 14 /**< Maximum number of ADC channels */
  10:../../libdaisy/src/per/adc.h **** 
  11:../../libdaisy/src/per/adc.h **** namespace daisy
  12:../../libdaisy/src/per/adc.h **** {
  13:../../libdaisy/src/per/adc.h **** /** @addtogroup analog_digital_conversion
  14:../../libdaisy/src/per/adc.h ****     @{
  15:../../libdaisy/src/per/adc.h **** */
  16:../../libdaisy/src/per/adc.h **** 
  17:../../libdaisy/src/per/adc.h **** /* While there may not be many configuration options here,
  18:../../libdaisy/src/per/adc.h **** using a struct like this allows us to add more configuration
  19:../../libdaisy/src/per/adc.h **** later without breaking existing functionality.
  20:../../libdaisy/src/per/adc.h **** */
  21:../../libdaisy/src/per/adc.h **** 
  22:../../libdaisy/src/per/adc.h **** /** Configuration Structure for a given channel */
  23:../../libdaisy/src/per/adc.h **** struct AdcChannelConfig
  24:../../libdaisy/src/per/adc.h **** {
  25:../../libdaisy/src/per/adc.h ****     /** Which pin to use for multiplexing */
  26:../../libdaisy/src/per/adc.h ****     enum MuxPin
  27:../../libdaisy/src/per/adc.h ****     {
  28:../../libdaisy/src/per/adc.h ****         MUX_SEL_0,    /**< & */
  29:../../libdaisy/src/per/adc.h ****         MUX_SEL_1,    /**< & */
  30:../../libdaisy/src/per/adc.h ****         MUX_SEL_2,    /**< & */
  31:../../libdaisy/src/per/adc.h ****         MUX_SEL_LAST, /**< & */
  32:../../libdaisy/src/per/adc.h ****     };
  33:../../libdaisy/src/per/adc.h **** 
  34:../../libdaisy/src/per/adc.h ****     /** Initializes a single ADC pin as an ADC. 
  35:../../libdaisy/src/per/adc.h ****     \param pin Pin to init.
  36:../../libdaisy/src/per/adc.h ****      */
  37:../../libdaisy/src/per/adc.h ****     void InitSingle(dsy_gpio_pin pin);
  38:../../libdaisy/src/per/adc.h **** 
  39:../../libdaisy/src/per/adc.h ****     /** 
  40:../../libdaisy/src/per/adc.h ****     Initializes a single ADC pin as a Multiplexed ADC.
  41:../../libdaisy/src/per/adc.h ****     Requires a CD405X Multiplexer connected to the pin.
  42:../../libdaisy/src/per/adc.h ****     You only need to supply the mux pins that are required,
  43:../../libdaisy/src/per/adc.h ****     e.g. a 4052 mux would only require mux_0 and mux_1.
  44:../../libdaisy/src/per/adc.h ****     Internal Callbacks handle the pin addressing.
  45:../../libdaisy/src/per/adc.h ****     \param mux_channels must be 1-8
  46:../../libdaisy/src/per/adc.h ****     \param mux_0 First mux pin
  47:../../libdaisy/src/per/adc.h ****     \param mux_1 Second mux pin
  48:../../libdaisy/src/per/adc.h ****     \param mux_2 Third mux pin
  49:../../libdaisy/src/per/adc.h ****     \param adc_pin &
  50:../../libdaisy/src/per/adc.h ****     */
  51:../../libdaisy/src/per/adc.h ****     void InitMux(dsy_gpio_pin adc_pin,
  52:../../libdaisy/src/per/adc.h ****                  size_t       mux_channels,
  53:../../libdaisy/src/per/adc.h ****                  dsy_gpio_pin mux_0,
  54:../../libdaisy/src/per/adc.h ****                  dsy_gpio_pin mux_1 = {DSY_GPIOX, 0},
  55:../../libdaisy/src/per/adc.h ****                  dsy_gpio_pin mux_2 = {DSY_GPIOX, 0});
  56:../../libdaisy/src/per/adc.h **** 
  57:../../libdaisy/src/per/adc.h ****     dsy_gpio pin_;                   /**< & */
ARM GAS  /tmp/cceytVzI.s 			page 5


  58:../../libdaisy/src/per/adc.h ****     dsy_gpio mux_pin_[MUX_SEL_LAST]; /**< & */
  59:../../libdaisy/src/per/adc.h ****     uint8_t  mux_channels_;          /**< & */
  60:../../libdaisy/src/per/adc.h **** };
  61:../../libdaisy/src/per/adc.h **** 
  62:../../libdaisy/src/per/adc.h **** /**
  63:../../libdaisy/src/per/adc.h ****    Handler for analog to digital conversion
  64:../../libdaisy/src/per/adc.h **** */
  65:../../libdaisy/src/per/adc.h **** class AdcHandle
  66:../../libdaisy/src/per/adc.h **** {
  67:../../libdaisy/src/per/adc.h ****   public:
  68:../../libdaisy/src/per/adc.h ****     /** Supported oversampling amounts */
  69:../../libdaisy/src/per/adc.h ****     enum OverSampling
  70:../../libdaisy/src/per/adc.h ****     {
  71:../../libdaisy/src/per/adc.h ****         OVS_NONE, /**< & */
  72:../../libdaisy/src/per/adc.h ****         OVS_4,    /**< & */
  73:../../libdaisy/src/per/adc.h ****         OVS_8,    /**< & */
  74:../../libdaisy/src/per/adc.h ****         OVS_16,   /**< & */
  75:../../libdaisy/src/per/adc.h ****         OVS_32,   /**< & */
  76:../../libdaisy/src/per/adc.h ****         OVS_64,   /**< & */
  77:../../libdaisy/src/per/adc.h ****         OVS_128,  /**< & */
  78:../../libdaisy/src/per/adc.h ****         OVS_256,  /**< & */
  79:../../libdaisy/src/per/adc.h ****         OVS_512,  /**< & */
  80:../../libdaisy/src/per/adc.h ****         OVS_1024, /**< & */
  81:../../libdaisy/src/per/adc.h ****         OVS_LAST, /**< & */
  82:../../libdaisy/src/per/adc.h ****     };
  83:../../libdaisy/src/per/adc.h **** 
  84:../../libdaisy/src/per/adc.h ****     AdcHandle() {}
  85:../../libdaisy/src/per/adc.h ****     ~AdcHandle() {}
  50              		.loc 4 85 5 is_stmt 1 view .LVU5
  51              		.loc 4 85 5 is_stmt 0 view .LVU6
  52              	.LBE69:
  53              	.LBB70:
  54              	.LBI70:
  55              		.file 5 "../../libdaisy/src/hid/audio.h"
   1:../../libdaisy/src/hid/audio.h **** #ifndef DSY_AUDIO_H
   2:../../libdaisy/src/hid/audio.h **** #define DSY_AUDIO_H /**< & */
   3:../../libdaisy/src/hid/audio.h **** 
   4:../../libdaisy/src/hid/audio.h **** #include "per/sai.h"
   5:../../libdaisy/src/hid/audio.h **** 
   6:../../libdaisy/src/hid/audio.h **** namespace daisy
   7:../../libdaisy/src/hid/audio.h **** {
   8:../../libdaisy/src/hid/audio.h **** class AudioHandle
   9:../../libdaisy/src/hid/audio.h **** {
  10:../../libdaisy/src/hid/audio.h ****   public:
  11:../../libdaisy/src/hid/audio.h ****     /** Manually configurable details about the Audio Engine */
  12:../../libdaisy/src/hid/audio.h ****     /** TODO: Figure out how to get samplerate in here. */
  13:../../libdaisy/src/hid/audio.h ****     struct Config
  14:../../libdaisy/src/hid/audio.h ****     {
  15:../../libdaisy/src/hid/audio.h ****         size_t                        blocksize;
  16:../../libdaisy/src/hid/audio.h ****         SaiHandle::Config::SampleRate samplerate;
  17:../../libdaisy/src/hid/audio.h ****         float                         postgain;
  18:../../libdaisy/src/hid/audio.h ****     };
  19:../../libdaisy/src/hid/audio.h **** 
  20:../../libdaisy/src/hid/audio.h ****     enum class Result
  21:../../libdaisy/src/hid/audio.h ****     {
  22:../../libdaisy/src/hid/audio.h ****         OK,
  23:../../libdaisy/src/hid/audio.h ****         ERR,
ARM GAS  /tmp/cceytVzI.s 			page 6


  24:../../libdaisy/src/hid/audio.h ****     };
  25:../../libdaisy/src/hid/audio.h **** 
  26:../../libdaisy/src/hid/audio.h ****     /** Non-Interleaving input buffer
  27:../../libdaisy/src/hid/audio.h ****      * Buffer arranged by float[chn][sample] 
  28:../../libdaisy/src/hid/audio.h ****      * const so that the user can't modify the input
  29:../../libdaisy/src/hid/audio.h ****     */
  30:../../libdaisy/src/hid/audio.h ****     typedef const float* const* InputBuffer;
  31:../../libdaisy/src/hid/audio.h **** 
  32:../../libdaisy/src/hid/audio.h ****     /** Non-Interleaving output buffer
  33:../../libdaisy/src/hid/audio.h ****      * Arranged by float[chn][sample] 
  34:../../libdaisy/src/hid/audio.h ****     */
  35:../../libdaisy/src/hid/audio.h ****     typedef float** OutputBuffer;
  36:../../libdaisy/src/hid/audio.h **** 
  37:../../libdaisy/src/hid/audio.h ****     /** Type for a Non-Interleaving audio callback 
  38:../../libdaisy/src/hid/audio.h ****    * Non-Interleaving audio callbacks in daisy will be of this type
  39:../../libdaisy/src/hid/audio.h ****   */
  40:../../libdaisy/src/hid/audio.h ****     typedef void (*AudioCallback)(InputBuffer  in,
  41:../../libdaisy/src/hid/audio.h ****                                   OutputBuffer out,
  42:../../libdaisy/src/hid/audio.h ****                                   size_t       size);
  43:../../libdaisy/src/hid/audio.h **** 
  44:../../libdaisy/src/hid/audio.h ****     /** Interleaving Input buffer
  45:../../libdaisy/src/hid/audio.h ****      ** audio is prepared as { L0, R0, L1, R1, . . . LN, RN }]
  46:../../libdaisy/src/hid/audio.h ****      ** this is const, as the user shouldn't modify it
  47:../../libdaisy/src/hid/audio.h ****     */
  48:../../libdaisy/src/hid/audio.h ****     typedef const float* InterleavingInputBuffer;
  49:../../libdaisy/src/hid/audio.h **** 
  50:../../libdaisy/src/hid/audio.h ****     /** Interleaving Output buffer 
  51:../../libdaisy/src/hid/audio.h ****      ** audio is prepared as { L0, R0, L1, R1, . . . LN, RN }
  52:../../libdaisy/src/hid/audio.h ****     */
  53:../../libdaisy/src/hid/audio.h ****     typedef float* InterleavingOutputBuffer;
  54:../../libdaisy/src/hid/audio.h **** 
  55:../../libdaisy/src/hid/audio.h ****     /** Interleaving Audio Callback 
  56:../../libdaisy/src/hid/audio.h ****    * Interleaving audio callbacks in daisy must be of this type
  57:../../libdaisy/src/hid/audio.h ****   */
  58:../../libdaisy/src/hid/audio.h ****     typedef void (*InterleavingAudioCallback)(InterleavingInputBuffer  in,
  59:../../libdaisy/src/hid/audio.h ****                                               InterleavingOutputBuffer out,
  60:../../libdaisy/src/hid/audio.h ****                                               size_t                   size);
  61:../../libdaisy/src/hid/audio.h **** 
  62:../../libdaisy/src/hid/audio.h ****     AudioHandle() : pimpl_(nullptr) {}
  63:../../libdaisy/src/hid/audio.h ****     ~AudioHandle() {}
  56              		.loc 5 63 5 is_stmt 1 view .LVU7
  57              		.loc 5 63 5 is_stmt 0 view .LVU8
  58              	.LBE70:
  59              		.loc 1 22 19 view .LVU9
  60 0000 7047     		bx	lr
  61              		.cfi_endproc
  62              	.LFE2037:
  64              		.weak	_ZN5daisy9DaisySeedD1Ev
  65              		.thumb_set _ZN5daisy9DaisySeedD1Ev,_ZN5daisy9DaisySeedD2Ev
  66 0002 00BF     		.section	.text._ZN7daisysp10OscillatorD2Ev,"axG",%progbits,_ZN7daisysp10OscillatorD5Ev,comdat
  67              		.align	1
  68              		.p2align 2,,3
  69              		.weak	_ZN7daisysp10OscillatorD2Ev
  70              		.syntax unified
  71              		.thumb
  72              		.thumb_func
  73              		.fpu fpv5-d16
ARM GAS  /tmp/cceytVzI.s 			page 7


  75              	_ZN7daisysp10OscillatorD2Ev:
  76              	.LVL1:
  77              	.LFB3674:
  78              		.file 6 "../../DaisySP/Source/Synthesis/oscillator.h"
   1:../../DaisySP/Source/Synthesis/oscillator.h **** #pragma once
   2:../../DaisySP/Source/Synthesis/oscillator.h **** #ifndef DSY_OSCILLATOR_H
   3:../../DaisySP/Source/Synthesis/oscillator.h **** #define DSY_OSCILLATOR_H
   4:../../DaisySP/Source/Synthesis/oscillator.h **** #include <stdint.h>
   5:../../DaisySP/Source/Synthesis/oscillator.h **** #include "Utility/dsp.h"
   6:../../DaisySP/Source/Synthesis/oscillator.h **** #ifdef __cplusplus
   7:../../DaisySP/Source/Synthesis/oscillator.h **** 
   8:../../DaisySP/Source/Synthesis/oscillator.h **** namespace daisysp
   9:../../DaisySP/Source/Synthesis/oscillator.h **** {
  10:../../DaisySP/Source/Synthesis/oscillator.h **** /** Synthesis of several waveforms, including polyBLEP bandlimited waveforms.
  11:../../DaisySP/Source/Synthesis/oscillator.h **** */
  12:../../DaisySP/Source/Synthesis/oscillator.h **** class Oscillator
  13:../../DaisySP/Source/Synthesis/oscillator.h **** {
  14:../../DaisySP/Source/Synthesis/oscillator.h ****   public:
  15:../../DaisySP/Source/Synthesis/oscillator.h ****     Oscillator() {}
  16:../../DaisySP/Source/Synthesis/oscillator.h ****     ~Oscillator() {}
  79              		.loc 6 16 5 is_stmt 1 view -0
  80              		.cfi_startproc
  81              		@ args = 0, pretend = 0, frame = 0
  82              		@ frame_needed = 0, uses_anonymous_args = 0
  83              		@ link register save eliminated.
  84              		.loc 6 16 20 is_stmt 0 view .LVU11
  85 0000 7047     		bx	lr
  86              		.cfi_endproc
  87              	.LFE3674:
  89              		.weak	_ZN7daisysp10OscillatorD1Ev
  90              		.thumb_set _ZN7daisysp10OscillatorD1Ev,_ZN7daisysp10OscillatorD2Ev
  91 0002 00BF     		.section	.text._ZN7daisysp12ClockedNoiseD2Ev,"axG",%progbits,_ZN7daisysp12ClockedNoiseD5Ev,comdat
  92              		.align	1
  93              		.p2align 2,,3
  94              		.weak	_ZN7daisysp12ClockedNoiseD2Ev
  95              		.syntax unified
  96              		.thumb
  97              		.thumb_func
  98              		.fpu fpv5-d16
 100              	_ZN7daisysp12ClockedNoiseD2Ev:
 101              	.LVL2:
 102              	.LFB4006:
 103              		.file 7 "../../DaisySP/Source/Noise/clockednoise.h"
   1:../../DaisySP/Source/Noise/clockednoise.h **** #pragma once
   2:../../DaisySP/Source/Noise/clockednoise.h **** #ifndef DSY_CLOCKEDNOISE_H
   3:../../DaisySP/Source/Noise/clockednoise.h **** #define DSY_CLOCKEDNOISE_H
   4:../../DaisySP/Source/Noise/clockednoise.h **** 
   5:../../DaisySP/Source/Noise/clockednoise.h **** #include <stdint.h>
   6:../../DaisySP/Source/Noise/clockednoise.h **** #ifdef __cplusplus
   7:../../DaisySP/Source/Noise/clockednoise.h **** 
   8:../../DaisySP/Source/Noise/clockednoise.h **** /** @file clockednoise.h */
   9:../../DaisySP/Source/Noise/clockednoise.h **** 
  10:../../DaisySP/Source/Noise/clockednoise.h **** namespace daisysp
  11:../../DaisySP/Source/Noise/clockednoise.h **** {
  12:../../DaisySP/Source/Noise/clockednoise.h **** /**  
  13:../../DaisySP/Source/Noise/clockednoise.h ****            @brief Clocked Noise Module
  14:../../DaisySP/Source/Noise/clockednoise.h ****        @author Ported by Ben Sergentanis 
ARM GAS  /tmp/cceytVzI.s 			page 8


  15:../../DaisySP/Source/Noise/clockednoise.h ****        @date Jan 2021 
  16:../../DaisySP/Source/Noise/clockednoise.h ****        Noise processed by a sample and hold running at a target frequency. \n \n
  17:../../DaisySP/Source/Noise/clockednoise.h ****        Ported from pichenettes/eurorack/plaits/dsp/noise/clocked_noise.h \n
  18:../../DaisySP/Source/Noise/clockednoise.h ****        to an independent module. \n
  19:../../DaisySP/Source/Noise/clockednoise.h ****        Original code written by Emilie Gillet in 2016. \n
  20:../../DaisySP/Source/Noise/clockednoise.h **** */
  21:../../DaisySP/Source/Noise/clockednoise.h **** class ClockedNoise
  22:../../DaisySP/Source/Noise/clockednoise.h **** {
  23:../../DaisySP/Source/Noise/clockednoise.h ****   public:
  24:../../DaisySP/Source/Noise/clockednoise.h ****     ClockedNoise() {}
  25:../../DaisySP/Source/Noise/clockednoise.h ****     ~ClockedNoise() {}
 104              		.loc 7 25 5 is_stmt 1 view -0
 105              		.cfi_startproc
 106              		@ args = 0, pretend = 0, frame = 0
 107              		@ frame_needed = 0, uses_anonymous_args = 0
 108              		@ link register save eliminated.
 109              		.loc 7 25 22 is_stmt 0 view .LVU13
 110 0000 7047     		bx	lr
 111              		.cfi_endproc
 112              	.LFE4006:
 114              		.weak	_ZN7daisysp12ClockedNoiseD1Ev
 115              		.thumb_set _ZN7daisysp12ClockedNoiseD1Ev,_ZN7daisysp12ClockedNoiseD2Ev
 116 0002 00BF     		.section	.text._Z13AudioCallbackPKPKfPPfj,"ax",%progbits
 117              		.align	1
 118              		.p2align 2,,3
 119              		.global	_Z13AudioCallbackPKPKfPPfj
 120              		.syntax unified
 121              		.thumb
 122              		.thumb_func
 123              		.fpu fpv5-d16
 125              	_Z13AudioCallbackPKPKfPPfj:
 126              	.LVL3:
 127              	.LFB4212:
 128              		.file 8 "clockednoise.cpp"
   1:clockednoise.cpp **** #include "daisy_seed.h"
   2:clockednoise.cpp **** #include "daisysp.h"
   3:clockednoise.cpp **** 
   4:clockednoise.cpp **** using namespace daisy;
   5:clockednoise.cpp **** using namespace daisysp;
   6:clockednoise.cpp **** 
   7:clockednoise.cpp **** DaisySeed    hw;
   8:clockednoise.cpp **** ClockedNoise noise;
   9:clockednoise.cpp **** Oscillator   lfo;
  10:clockednoise.cpp **** 
  11:clockednoise.cpp **** void AudioCallback(AudioHandle::InputBuffer  in,
  12:clockednoise.cpp ****                    AudioHandle::OutputBuffer out,
  13:clockednoise.cpp ****                    size_t                    size)
  14:clockednoise.cpp **** {
 129              		.loc 8 14 1 is_stmt 1 view -0
 130              		.cfi_startproc
 131              		@ args = 0, pretend = 0, frame = 0
 132              		@ frame_needed = 0, uses_anonymous_args = 0
  15:clockednoise.cpp ****     for(size_t i = 0; i < size; i++)
 133              		.loc 8 15 5 view .LVU15
 134              	.LBB71:
 135              		.loc 8 15 25 view .LVU16
 136 0000 F2B1     		cbz	r2, .L13
ARM GAS  /tmp/cceytVzI.s 			page 9


 137              	.LBE71:
  14:clockednoise.cpp ****     for(size_t i = 0; i < size; i++)
 138              		.loc 8 14 1 is_stmt 0 view .LVU17
 139 0002 2DE9F041 		push	{r4, r5, r6, r7, r8, lr}
 140              		.cfi_def_cfa_offset 24
 141              		.cfi_offset 4, -24
 142              		.cfi_offset 5, -20
 143              		.cfi_offset 6, -16
 144              		.cfi_offset 7, -12
 145              		.cfi_offset 8, -8
 146              		.cfi_offset 14, -4
 147 0006 0E46     		mov	r6, r1
 148 0008 9046     		mov	r8, r2
 149              	.LBB72:
 150              		.loc 8 15 16 view .LVU18
 151 000a 0024     		movs	r4, #0
 152              	.LVL4:
 153              	.L7:
  16:clockednoise.cpp ****     {
  17:clockednoise.cpp ****         noise.SetFreq(fabsf(lfo.Process()));
 154              		.loc 8 17 9 is_stmt 1 discriminator 2 view .LVU19
 155              		.loc 8 17 40 is_stmt 0 discriminator 2 view .LVU20
 156 000c 0D48     		ldr	r0, .L16
 157 000e A700     		lsls	r7, r4, #2
 158 0010 FFF7FEFF 		bl	_ZN7daisysp10Oscillator7ProcessEv
 159              	.LVL5:
 160              		.loc 8 17 22 discriminator 2 view .LVU21
 161 0014 0C48     		ldr	r0, .L16+4
 162 0016 B0EEC00A 		vabs.f32	s0, s0
 163 001a FFF7FEFF 		bl	_ZN7daisysp12ClockedNoise7SetFreqEf
 164              	.LVL6:
  18:clockednoise.cpp ****         out[0][i] = out[1][i] = noise.Process();
 165              		.loc 8 18 9 is_stmt 1 discriminator 2 view .LVU22
 166              		.loc 8 18 29 is_stmt 0 discriminator 2 view .LVU23
 167 001e 7568     		ldr	r5, [r6, #4]
 168              		.loc 8 18 46 discriminator 2 view .LVU24
 169 0020 0948     		ldr	r0, .L16+4
 170 0022 FFF7FEFF 		bl	_ZN7daisysp12ClockedNoise7ProcessEv
 171              	.LVL7:
 172              		.loc 8 18 19 discriminator 2 view .LVU25
 173 0026 3368     		ldr	r3, [r6]
 174              		.loc 8 18 29 discriminator 2 view .LVU26
 175 0028 05EB8405 		add	r5, r5, r4, lsl #2
  15:clockednoise.cpp ****     {
 176              		.loc 8 15 5 discriminator 2 view .LVU27
 177 002c 0134     		adds	r4, r4, #1
 178              	.LVL8:
 179              		.loc 8 18 19 discriminator 2 view .LVU28
 180 002e 3B44     		add	r3, r3, r7
  15:clockednoise.cpp ****     {
 181              		.loc 8 15 25 discriminator 2 view .LVU29
 182 0030 A045     		cmp	r8, r4
 183              		.loc 8 18 31 discriminator 2 view .LVU30
 184 0032 85ED000A 		vstr.32	s0, [r5]
 185              		.loc 8 18 19 discriminator 2 view .LVU31
 186 0036 83ED000A 		vstr.32	s0, [r3]
  15:clockednoise.cpp ****     {
ARM GAS  /tmp/cceytVzI.s 			page 10


 187              		.loc 8 15 5 is_stmt 1 discriminator 2 view .LVU32
 188              	.LVL9:
  15:clockednoise.cpp ****     {
 189              		.loc 8 15 25 discriminator 2 view .LVU33
 190 003a E7D1     		bne	.L7
 191              	.LBE72:
  19:clockednoise.cpp ****     }
  20:clockednoise.cpp **** }
 192              		.loc 8 20 1 is_stmt 0 view .LVU34
 193 003c BDE8F081 		pop	{r4, r5, r6, r7, r8, pc}
 194              	.LVL10:
 195              	.L13:
 196              		.cfi_def_cfa_offset 0
 197              		.cfi_restore 4
 198              		.cfi_restore 5
 199              		.cfi_restore 6
 200              		.cfi_restore 7
 201              		.cfi_restore 8
 202              		.cfi_restore 14
 203              		.loc 8 20 1 view .LVU35
 204 0040 7047     		bx	lr
 205              	.L17:
 206 0042 00BF     		.align	2
 207              	.L16:
 208 0044 00000000 		.word	.LANCHOR0
 209 0048 00000000 		.word	.LANCHOR1
 210              		.cfi_endproc
 211              	.LFE4212:
 213              		.section	.text.startup.main,"ax",%progbits
 214              		.align	1
 215              		.p2align 2,,3
 216              		.global	main
 217              		.syntax unified
 218              		.thumb
 219              		.thumb_func
 220              		.fpu fpv5-d16
 222              	main:
 223              	.LFB4213:
  21:clockednoise.cpp **** 
  22:clockednoise.cpp **** int main(void)
  23:clockednoise.cpp **** {
 224              		.loc 8 23 1 is_stmt 1 view -0
 225              		.cfi_startproc
 226              		@ args = 0, pretend = 0, frame = 0
 227              		@ frame_needed = 0, uses_anonymous_args = 0
  24:clockednoise.cpp ****     hw.Configure();
 228              		.loc 8 24 5 view .LVU37
  23:clockednoise.cpp ****     hw.Configure();
 229              		.loc 8 23 1 is_stmt 0 view .LVU38
 230 0000 10B5     		push	{r4, lr}
 231              		.cfi_def_cfa_offset 8
 232              		.cfi_offset 4, -8
 233              		.cfi_offset 14, -4
 234              		.loc 8 24 17 view .LVU39
 235 0002 2148     		ldr	r0, .L21
 236              	.LBB73:
 237              	.LBB74:
ARM GAS  /tmp/cceytVzI.s 			page 11


  17:../../DaisySP/Source/Synthesis/oscillator.h ****     /** Choices for output waveforms, POLYBLEP are appropriately labeled. Others are naive forms.
  18:../../DaisySP/Source/Synthesis/oscillator.h ****     */
  19:../../DaisySP/Source/Synthesis/oscillator.h ****     enum
  20:../../DaisySP/Source/Synthesis/oscillator.h ****     {
  21:../../DaisySP/Source/Synthesis/oscillator.h ****         WAVE_SIN,
  22:../../DaisySP/Source/Synthesis/oscillator.h ****         WAVE_TRI,
  23:../../DaisySP/Source/Synthesis/oscillator.h ****         WAVE_SAW,
  24:../../DaisySP/Source/Synthesis/oscillator.h ****         WAVE_RAMP,
  25:../../DaisySP/Source/Synthesis/oscillator.h ****         WAVE_SQUARE,
  26:../../DaisySP/Source/Synthesis/oscillator.h ****         WAVE_POLYBLEP_TRI,
  27:../../DaisySP/Source/Synthesis/oscillator.h ****         WAVE_POLYBLEP_SAW,
  28:../../DaisySP/Source/Synthesis/oscillator.h ****         WAVE_POLYBLEP_SQUARE,
  29:../../DaisySP/Source/Synthesis/oscillator.h ****         WAVE_LAST,
  30:../../DaisySP/Source/Synthesis/oscillator.h ****     };
  31:../../DaisySP/Source/Synthesis/oscillator.h **** 
  32:../../DaisySP/Source/Synthesis/oscillator.h **** 
  33:../../DaisySP/Source/Synthesis/oscillator.h ****     /** Initializes the Oscillator
  34:../../DaisySP/Source/Synthesis/oscillator.h **** 
  35:../../DaisySP/Source/Synthesis/oscillator.h ****         \param sample_rate - sample rate of the audio engine being run, and the frequency that the 
  36:../../DaisySP/Source/Synthesis/oscillator.h **** 
  37:../../DaisySP/Source/Synthesis/oscillator.h ****         Defaults:
  38:../../DaisySP/Source/Synthesis/oscillator.h ****         - freq_ = 100 Hz
  39:../../DaisySP/Source/Synthesis/oscillator.h ****         - amp_ = 0.5
  40:../../DaisySP/Source/Synthesis/oscillator.h ****         - waveform_ = sine wave.
  41:../../DaisySP/Source/Synthesis/oscillator.h ****     */
  42:../../DaisySP/Source/Synthesis/oscillator.h ****     void Init(float sample_rate)
  43:../../DaisySP/Source/Synthesis/oscillator.h ****     {
  44:../../DaisySP/Source/Synthesis/oscillator.h ****         sr_        = sample_rate;
 238              		.loc 6 44 20 view .LVU40
 239 0004 214C     		ldr	r4, .L21+4
 240              	.LBE74:
 241              	.LBE73:
  23:clockednoise.cpp ****     hw.Configure();
 242              		.loc 8 23 1 view .LVU41
 243 0006 2DED028B 		vpush.64	{d8}
 244              		.cfi_def_cfa_offset 16
 245              		.cfi_offset 80, -16
 246              		.cfi_offset 81, -12
 247              		.loc 8 24 17 view .LVU42
 248 000a FFF7FEFF 		bl	_ZN5daisy9DaisySeed9ConfigureEv
 249              	.LVL11:
  25:clockednoise.cpp ****     hw.Init();
 250              		.loc 8 25 5 is_stmt 1 view .LVU43
 251              		.loc 8 25 12 is_stmt 0 view .LVU44
 252 000e 0021     		movs	r1, #0
 253 0010 1D48     		ldr	r0, .L21
 254 0012 FFF7FEFF 		bl	_ZN5daisy9DaisySeed4InitEb
 255              	.LVL12:
  26:clockednoise.cpp ****     float sample_rate = hw.AudioSampleRate();
 256              		.loc 8 26 5 is_stmt 1 view .LVU45
 257              		.loc 8 26 43 is_stmt 0 view .LVU46
 258 0016 1C48     		ldr	r0, .L21
 259 0018 FFF7FEFF 		bl	_ZN5daisy9DaisySeed15AudioSampleRateEv
 260              	.LVL13:
  27:clockednoise.cpp **** 
  28:clockednoise.cpp ****     noise.Init(sample_rate);
 261              		.loc 8 28 15 view .LVU47
ARM GAS  /tmp/cceytVzI.s 			page 12


 262 001c 1C48     		ldr	r0, .L21+8
  26:clockednoise.cpp ****     float sample_rate = hw.AudioSampleRate();
 263              		.loc 8 26 43 view .LVU48
 264 001e B0EE408A 		vmov.f32	s16, s0
 265              	.LVL14:
 266              		.loc 8 28 5 is_stmt 1 view .LVU49
 267              		.loc 8 28 15 is_stmt 0 view .LVU50
 268 0022 FFF7FEFF 		bl	_ZN7daisysp12ClockedNoise4InitEf
 269              	.LVL15:
  29:clockednoise.cpp **** 
  30:clockednoise.cpp ****     lfo.Init(sample_rate);
 270              		.loc 8 30 5 is_stmt 1 view .LVU51
 271              	.LBB80:
 272              	.LBI73:
  42:../../DaisySP/Source/Synthesis/oscillator.h ****     {
 273              		.loc 6 42 10 view .LVU52
 274              	.LBB75:
 275              		.loc 6 44 9 view .LVU53
  45:../../DaisySP/Source/Synthesis/oscillator.h ****         sr_recip_  = 1.0f / sample_rate;
 276              		.loc 6 45 27 is_stmt 0 view .LVU54
 277 0026 B7EE007A 		vmov.f32	s14, #1.0e+0
  46:../../DaisySP/Source/Synthesis/oscillator.h ****         freq_      = 100.0f;
  47:../../DaisySP/Source/Synthesis/oscillator.h ****         amp_       = 0.5f;
 278              		.loc 6 47 20 view .LVU55
 279 002a 4FF07C52 		mov	r2, #1056964608
  48:../../DaisySP/Source/Synthesis/oscillator.h ****         phase_     = 0.0f;
 280              		.loc 6 48 20 view .LVU56
 281 002e 0023     		movs	r3, #0
  46:../../DaisySP/Source/Synthesis/oscillator.h ****         freq_      = 100.0f;
 282              		.loc 6 46 20 view .LVU57
 283 0030 9FED180A 		vldr.32	s0, .L21+12
  49:../../DaisySP/Source/Synthesis/oscillator.h ****         phase_inc_ = CalcPhaseInc(freq_);
 284              		.loc 6 49 34 view .LVU58
 285 0034 2046     		mov	r0, r4
  47:../../DaisySP/Source/Synthesis/oscillator.h ****         phase_     = 0.0f;
 286              		.loc 6 47 20 view .LVU59
 287 0036 6260     		str	r2, [r4, #4]	@ float
  45:../../DaisySP/Source/Synthesis/oscillator.h ****         freq_      = 100.0f;
 288              		.loc 6 45 27 view .LVU60
 289 0038 C7EE087A 		vdiv.f32	s15, s14, s16
  48:../../DaisySP/Source/Synthesis/oscillator.h ****         phase_inc_ = CalcPhaseInc(freq_);
 290              		.loc 6 48 20 view .LVU61
 291 003c 6361     		str	r3, [r4, #20]	@ float
  44:../../DaisySP/Source/Synthesis/oscillator.h ****         sr_recip_  = 1.0f / sample_rate;
 292              		.loc 6 44 20 view .LVU62
 293 003e 84ED038A 		vstr.32	s16, [r4, #12]
  45:../../DaisySP/Source/Synthesis/oscillator.h ****         freq_      = 100.0f;
 294              		.loc 6 45 9 is_stmt 1 view .LVU63
  46:../../DaisySP/Source/Synthesis/oscillator.h ****         amp_       = 0.5f;
 295              		.loc 6 46 20 is_stmt 0 view .LVU64
 296 0042 84ED020A 		vstr.32	s0, [r4, #8]
  45:../../DaisySP/Source/Synthesis/oscillator.h ****         freq_      = 100.0f;
 297              		.loc 6 45 20 view .LVU65
 298 0046 C4ED047A 		vstr.32	s15, [r4, #16]
  46:../../DaisySP/Source/Synthesis/oscillator.h ****         amp_       = 0.5f;
 299              		.loc 6 46 9 is_stmt 1 view .LVU66
  47:../../DaisySP/Source/Synthesis/oscillator.h ****         phase_     = 0.0f;
ARM GAS  /tmp/cceytVzI.s 			page 13


 300              		.loc 6 47 9 view .LVU67
  48:../../DaisySP/Source/Synthesis/oscillator.h ****         phase_inc_ = CalcPhaseInc(freq_);
 301              		.loc 6 48 9 view .LVU68
 302              		.loc 6 49 9 view .LVU69
 303              		.loc 6 49 34 is_stmt 0 view .LVU70
 304 004a FFF7FEFF 		bl	_ZN7daisysp10Oscillator12CalcPhaseIncEf
 305              	.LVL16:
 306              	.LBE75:
 307              	.LBE80:
  31:clockednoise.cpp ****     lfo.SetAmp(sample_rate / 3.f);
 308              		.loc 8 31 15 view .LVU71
 309 004e F0EE086A 		vmov.f32	s13, #3.0e+0
 310              	.LBB81:
 311              	.LBB76:
  50:../../DaisySP/Source/Synthesis/oscillator.h ****         waveform_  = WAVE_SIN;
 312              		.loc 6 50 20 view .LVU72
 313 0052 0022     		movs	r2, #0
 314              	.LBE76:
 315              	.LBE81:
 316              	.LBB82:
 317              	.LBB83:
  51:../../DaisySP/Source/Synthesis/oscillator.h ****         eoc_       = true;
  52:../../DaisySP/Source/Synthesis/oscillator.h ****         eor_       = true;
  53:../../DaisySP/Source/Synthesis/oscillator.h ****     }
  54:../../DaisySP/Source/Synthesis/oscillator.h **** 
  55:../../DaisySP/Source/Synthesis/oscillator.h **** 
  56:../../DaisySP/Source/Synthesis/oscillator.h ****     /** Changes the frequency of the Oscillator, and recalculates phase increment.
  57:../../DaisySP/Source/Synthesis/oscillator.h ****     */
  58:../../DaisySP/Source/Synthesis/oscillator.h ****     inline void SetFreq(const float f)
  59:../../DaisySP/Source/Synthesis/oscillator.h ****     {
  60:../../DaisySP/Source/Synthesis/oscillator.h ****         freq_      = f;
 318              		.loc 6 60 20 view .LVU73
 319 0054 F4EE007A 		vmov.f32	s15, #1.25e-1
 320              	.LBE83:
 321              	.LBE82:
 322              	.LBB88:
 323              	.LBB77:
  52:../../DaisySP/Source/Synthesis/oscillator.h ****     }
 324              		.loc 6 52 20 view .LVU74
 325 0058 40F20113 		movw	r3, #257
 326              	.LBE77:
 327              	.LBE88:
 328              	.LBB89:
 329              	.LBB84:
  61:../../DaisySP/Source/Synthesis/oscillator.h ****         phase_inc_ = CalcPhaseInc(f);
 330              		.loc 6 61 34 view .LVU75
 331 005c 2046     		mov	r0, r4
 332              	.LBE84:
 333              	.LBE89:
 334              	.LBB90:
 335              	.LBB78:
  49:../../DaisySP/Source/Synthesis/oscillator.h ****         waveform_  = WAVE_SIN;
 336              		.loc 6 49 20 view .LVU76
 337 005e 84ED060A 		vstr.32	s0, [r4, #24]
  50:../../DaisySP/Source/Synthesis/oscillator.h ****         eoc_       = true;
 338              		.loc 6 50 9 is_stmt 1 view .LVU77
 339              	.LBE78:
ARM GAS  /tmp/cceytVzI.s 			page 14


 340              	.LBE90:
 341              		.loc 8 31 15 is_stmt 0 view .LVU78
 342 0062 88EE267A 		vdiv.f32	s14, s16, s13
 343              	.LBB91:
 344              	.LBB79:
  50:../../DaisySP/Source/Synthesis/oscillator.h ****         eoc_       = true;
 345              		.loc 6 50 20 view .LVU79
 346 0066 2270     		strb	r2, [r4]
  51:../../DaisySP/Source/Synthesis/oscillator.h ****         eor_       = true;
 347              		.loc 6 51 9 is_stmt 1 view .LVU80
  52:../../DaisySP/Source/Synthesis/oscillator.h ****     }
 348              		.loc 6 52 9 view .LVU81
  52:../../DaisySP/Source/Synthesis/oscillator.h ****     }
 349              		.loc 6 52 20 is_stmt 0 view .LVU82
 350 0068 A384     		strh	r3, [r4, #36]	@ movhi
 351              	.LVL17:
  52:../../DaisySP/Source/Synthesis/oscillator.h ****     }
 352              		.loc 6 52 20 view .LVU83
 353              	.LBE79:
 354              	.LBE91:
 355              		.loc 8 31 5 is_stmt 1 view .LVU84
 356              	.LBB92:
 357              	.LBI92:
  62:../../DaisySP/Source/Synthesis/oscillator.h ****     }
  63:../../DaisySP/Source/Synthesis/oscillator.h **** 
  64:../../DaisySP/Source/Synthesis/oscillator.h **** 
  65:../../DaisySP/Source/Synthesis/oscillator.h ****     /** Sets the amplitude of the waveform.
  66:../../DaisySP/Source/Synthesis/oscillator.h ****     */
  67:../../DaisySP/Source/Synthesis/oscillator.h ****     inline void SetAmp(const float a) { amp_ = a; }
 358              		.loc 6 67 17 view .LVU85
 359              	.LBB93:
 360              		.loc 6 67 41 view .LVU86
 361              	.LBE93:
 362              	.LBE92:
 363              	.LBB95:
 364              	.LBB85:
  60:../../DaisySP/Source/Synthesis/oscillator.h ****         phase_inc_ = CalcPhaseInc(f);
 365              		.loc 6 60 20 is_stmt 0 view .LVU87
 366 006a C4ED027A 		vstr.32	s15, [r4, #8]
  61:../../DaisySP/Source/Synthesis/oscillator.h ****     }
 367              		.loc 6 61 34 view .LVU88
 368 006e B0EE670A 		vmov.f32	s0, s15
 369              	.LBE85:
 370              	.LBE95:
 371              	.LBB96:
 372              	.LBB94:
 373              		.loc 6 67 46 view .LVU89
 374 0072 84ED017A 		vstr.32	s14, [r4, #4]
 375              	.LVL18:
 376              		.loc 6 67 46 view .LVU90
 377              	.LBE94:
 378              	.LBE96:
  32:clockednoise.cpp ****     lfo.SetFreq(.125f);
 379              		.loc 8 32 5 is_stmt 1 view .LVU91
 380              	.LBB97:
 381              	.LBI82:
  58:../../DaisySP/Source/Synthesis/oscillator.h ****     {
ARM GAS  /tmp/cceytVzI.s 			page 15


 382              		.loc 6 58 17 view .LVU92
 383              	.LBB86:
  60:../../DaisySP/Source/Synthesis/oscillator.h ****         phase_inc_ = CalcPhaseInc(f);
 384              		.loc 6 60 9 view .LVU93
  61:../../DaisySP/Source/Synthesis/oscillator.h ****     }
 385              		.loc 6 61 9 view .LVU94
  61:../../DaisySP/Source/Synthesis/oscillator.h ****     }
 386              		.loc 6 61 34 is_stmt 0 view .LVU95
 387 0076 FFF7FEFF 		bl	_ZN7daisysp10Oscillator12CalcPhaseIncEf
 388              	.LVL19:
 389              	.LBE86:
 390              	.LBE97:
  33:clockednoise.cpp **** 
  34:clockednoise.cpp ****     hw.StartAudio(AudioCallback);
 391              		.loc 8 34 18 view .LVU96
 392 007a 0749     		ldr	r1, .L21+16
 393 007c 0248     		ldr	r0, .L21
 394              	.LBB98:
 395              	.LBB87:
  61:../../DaisySP/Source/Synthesis/oscillator.h ****     }
 396              		.loc 6 61 20 view .LVU97
 397 007e 84ED060A 		vstr.32	s0, [r4, #24]
 398              	.LVL20:
  61:../../DaisySP/Source/Synthesis/oscillator.h ****     }
 399              		.loc 6 61 20 view .LVU98
 400              	.LBE87:
 401              	.LBE98:
 402              		.loc 8 34 5 is_stmt 1 view .LVU99
 403              		.loc 8 34 18 is_stmt 0 view .LVU100
 404 0082 FFF7FEFF 		bl	_ZN5daisy9DaisySeed10StartAudioEPFvPKPKfPPfjE
 405              	.LVL21:
 406              	.L19:
  35:clockednoise.cpp ****     while(1) {}
 407              		.loc 8 35 5 is_stmt 1 discriminator 1 view .LVU101
 408              		.loc 8 35 5 discriminator 1 view .LVU102
 409              		.loc 8 35 5 discriminator 1 view .LVU103
 410              		.loc 8 35 5 discriminator 1 view .LVU104
 411 0086 FEE7     		b	.L19
 412              	.L22:
 413              		.align	2
 414              	.L21:
 415 0088 00000000 		.word	.LANCHOR2
 416 008c 00000000 		.word	.LANCHOR0
 417 0090 00000000 		.word	.LANCHOR1
 418 0094 0000C842 		.word	1120403456
 419 0098 00000000 		.word	_Z13AudioCallbackPKPKfPPfj
 420              		.cfi_endproc
 421              	.LFE4213:
 423              		.section	.text.startup._GLOBAL__sub_I_hw,"ax",%progbits
 424              		.align	1
 425              		.p2align 2,,3
 426              		.syntax unified
 427              		.thumb
 428              		.thumb_func
 429              		.fpu fpv5-d16
 431              	_GLOBAL__sub_I_hw:
 432              	.LFB4759:
ARM GAS  /tmp/cceytVzI.s 			page 16


  36:clockednoise.cpp **** }
 433              		.loc 8 36 1 view -0
 434              		.cfi_startproc
 435              		@ args = 0, pretend = 0, frame = 0
 436              		@ frame_needed = 0, uses_anonymous_args = 0
 437              	.LBB118:
 438              	.LBI118:
 439              		.loc 8 36 1 view .LVU106
 440              	.LVL22:
 441              	.LBB119:
 442              	.LBB120:
 443              	.LBI120:
  21:../../libdaisy/src/daisy_seed.h ****     ~DaisySeed() {}
 444              		.loc 1 21 5 view .LVU107
 445              	.LBB121:
 446              	.LBB122:
 447              	.LBI122:
  62:../../libdaisy/src/hid/audio.h ****     ~AudioHandle() {}
 448              		.loc 5 62 5 view .LVU108
 449              	.LBE122:
 450              	.LBE121:
 451              	.LBE120:
 452              	.LBE119:
 453              	.LBE118:
 454              		.loc 8 36 1 is_stmt 0 view .LVU109
 455 0000 08B5     		push	{r3, lr}
 456              		.cfi_def_cfa_offset 8
 457              		.cfi_offset 3, -8
 458              		.cfi_offset 14, -4
 459              	.LBB143:
 460              	.LBB141:
 461              	.LBB137:
 462              	.LBB135:
 463              	.LBB127:
 464              	.LBB123:
 465              	.LBB124:
  62:../../libdaisy/src/hid/audio.h ****     ~AudioHandle() {}
 466              		.loc 5 62 35 view .LVU110
 467 0002 0A48     		ldr	r0, .L25
 468 0004 0023     		movs	r3, #0
 469              	.LBE124:
 470              	.LBE123:
 471              	.LBE127:
 472              	.LBE135:
 473              	.LBE137:
   7:clockednoise.cpp **** ClockedNoise noise;
 474              		.loc 8 7 14 view .LVU111
 475 0006 0A4A     		ldr	r2, .L25+4
 476              	.LBB138:
 477              	.LBB136:
 478              	.LBB128:
 479              	.LBB126:
 480              	.LBB125:
  62:../../libdaisy/src/hid/audio.h ****     ~AudioHandle() {}
 481              		.loc 5 62 35 view .LVU112
 482 0008 4361     		str	r3, [r0, #20]
 483              	.LVL23:
ARM GAS  /tmp/cceytVzI.s 			page 17


  62:../../libdaisy/src/hid/audio.h ****     ~AudioHandle() {}
 484              		.loc 5 62 35 view .LVU113
 485              	.LBE125:
 486              	.LBE126:
 487              	.LBE128:
 488              	.LBB129:
 489              	.LBI129:
  84:../../libdaisy/src/per/adc.h ****     ~AdcHandle() {}
 490              		.loc 4 84 5 is_stmt 1 view .LVU114
  84:../../libdaisy/src/per/adc.h ****     ~AdcHandle() {}
 491              		.loc 4 84 5 is_stmt 0 view .LVU115
 492              	.LBE129:
 493              	.LBB130:
 494              	.LBI130:
 495              		.file 9 "../../libdaisy/src/per/dac.h"
   1:../../libdaisy/src/per/dac.h **** #pragma once
   2:../../libdaisy/src/per/dac.h **** #ifndef DSY_DAC_H
   3:../../libdaisy/src/per/dac.h **** #define DSY_DAC_H
   4:../../libdaisy/src/per/dac.h **** 
   5:../../libdaisy/src/per/dac.h **** #include "daisy_core.h"
   6:../../libdaisy/src/per/dac.h **** 
   7:../../libdaisy/src/per/dac.h **** namespace daisy
   8:../../libdaisy/src/per/dac.h **** {
   9:../../libdaisy/src/per/dac.h **** /** DAC handle for Built-in DAC Peripheral 
  10:../../libdaisy/src/per/dac.h ****  ** 
  11:../../libdaisy/src/per/dac.h ****  ** For now only Normal Mode is supported,
  12:../../libdaisy/src/per/dac.h ****  ** Sample and hold mode provides reduced power consumption, but requires a bit more setup.
  13:../../libdaisy/src/per/dac.h ****  **
  14:../../libdaisy/src/per/dac.h ****  ** For now connecting the DAC through other internal periphearls is also not supported.
  15:../../libdaisy/src/per/dac.h ****  **
  16:../../libdaisy/src/per/dac.h ****  ** Since the DAC channels have dedicated pins we don't need to pass in a pin config like with
  17:../../libdaisy/src/per/dac.h ****  ** other modules. However, it is still important to not try to use the DAC pins for anything else.
  18:../../libdaisy/src/per/dac.h ****  ** DAC Channel 1 is on PA4, and DAC Channel 2 is on PA5
  19:../../libdaisy/src/per/dac.h ****  ***/
  20:../../libdaisy/src/per/dac.h **** class DacHandle
  21:../../libdaisy/src/per/dac.h **** {
  22:../../libdaisy/src/per/dac.h ****   public:
  23:../../libdaisy/src/per/dac.h ****     /** Return Values for the DacHandle class */
  24:../../libdaisy/src/per/dac.h ****     enum class Result
  25:../../libdaisy/src/per/dac.h ****     {
  26:../../libdaisy/src/per/dac.h ****         OK,
  27:../../libdaisy/src/per/dac.h ****         ERR,
  28:../../libdaisy/src/per/dac.h ****     };
  29:../../libdaisy/src/per/dac.h **** 
  30:../../libdaisy/src/per/dac.h ****     /** Selects which channel(s) will be configured for use. */
  31:../../libdaisy/src/per/dac.h ****     enum class Channel
  32:../../libdaisy/src/per/dac.h ****     {
  33:../../libdaisy/src/per/dac.h ****         ONE,
  34:../../libdaisy/src/per/dac.h ****         TWO,
  35:../../libdaisy/src/per/dac.h ****         BOTH,
  36:../../libdaisy/src/per/dac.h ****     };
  37:../../libdaisy/src/per/dac.h **** 
  38:../../libdaisy/src/per/dac.h ****     /** Sets the Mode for the DAC channels.
  39:../../libdaisy/src/per/dac.h ****      **
  40:../../libdaisy/src/per/dac.h ****      ** Polling mode uses the blocking mode to transmit a single value at a time.
  41:../../libdaisy/src/per/dac.h ****      **
  42:../../libdaisy/src/per/dac.h ****      ** DMA mode uses a buffer, and periodically transmits it triggering a 
ARM GAS  /tmp/cceytVzI.s 			page 18


  43:../../libdaisy/src/per/dac.h ****      ** callback to fill the buffer when it is ready for more samples.
  44:../../libdaisy/src/per/dac.h ****      ***/
  45:../../libdaisy/src/per/dac.h ****     enum class Mode
  46:../../libdaisy/src/per/dac.h ****     {
  47:../../libdaisy/src/per/dac.h ****         POLLING,
  48:../../libdaisy/src/per/dac.h ****         DMA,
  49:../../libdaisy/src/per/dac.h ****     };
  50:../../libdaisy/src/per/dac.h **** 
  51:../../libdaisy/src/per/dac.h ****     /** Sets the number of bits per sample transmitted out of the DAC.
  52:../../libdaisy/src/per/dac.h ****      ** The output range will be: 0V - VDDA
  53:../../libdaisy/src/per/dac.h ****      ** The resolution will be roughly: bitdepth / (VDDA - 0V) 
  54:../../libdaisy/src/per/dac.h ****      ***/
  55:../../libdaisy/src/per/dac.h ****     enum class BitDepth
  56:../../libdaisy/src/per/dac.h ****     {
  57:../../libdaisy/src/per/dac.h ****         BITS_8,
  58:../../libdaisy/src/per/dac.h ****         BITS_12
  59:../../libdaisy/src/per/dac.h ****     };
  60:../../libdaisy/src/per/dac.h **** 
  61:../../libdaisy/src/per/dac.h ****     /** Sets whether the DAC output is buffered for higher drive ability. */
  62:../../libdaisy/src/per/dac.h ****     enum class BufferState
  63:../../libdaisy/src/per/dac.h ****     {
  64:../../libdaisy/src/per/dac.h ****         ENABLED,
  65:../../libdaisy/src/per/dac.h ****         DISABLED,
  66:../../libdaisy/src/per/dac.h ****     };
  67:../../libdaisy/src/per/dac.h **** 
  68:../../libdaisy/src/per/dac.h ****     /** Configuration structure for initializing the DAC structure. */
  69:../../libdaisy/src/per/dac.h ****     struct Config
  70:../../libdaisy/src/per/dac.h ****     {
  71:../../libdaisy/src/per/dac.h ****         /** Target Samplerate in Hz used to configure the internal 
  72:../../libdaisy/src/per/dac.h ****          ** timebase for DMA mode. Does nothing in POLLING mode.
  73:../../libdaisy/src/per/dac.h ****          ** If the value is 0 at Init time this will default to 48000Hz 
  74:../../libdaisy/src/per/dac.h ****          ** otherwise the driver will attempt meet the target.*/
  75:../../libdaisy/src/per/dac.h ****         uint32_t target_samplerate;
  76:../../libdaisy/src/per/dac.h **** 
  77:../../libdaisy/src/per/dac.h ****         Channel     chn;
  78:../../libdaisy/src/per/dac.h ****         Mode        mode;
  79:../../libdaisy/src/per/dac.h ****         BitDepth    bitdepth;
  80:../../libdaisy/src/per/dac.h ****         BufferState buff_state;
  81:../../libdaisy/src/per/dac.h ****     };
  82:../../libdaisy/src/per/dac.h **** 
  83:../../libdaisy/src/per/dac.h ****     DacHandle() : pimpl_(nullptr) {}
 496              		.loc 9 83 5 is_stmt 1 view .LVU116
 497              	.LBB131:
 498              	.LBB132:
 499              		.loc 9 83 33 is_stmt 0 view .LVU117
 500 000a 0362     		str	r3, [r0, #32]
 501              	.LVL24:
 502              		.loc 9 83 33 view .LVU118
 503              	.LBE132:
 504              	.LBE131:
 505              	.LBE130:
 506              	.LBB133:
 507              	.LBI133:
  40:../../libdaisy/src/hid/usb.h **** 
 508              		.loc 3 40 5 is_stmt 1 view .LVU119
  40:../../libdaisy/src/hid/usb.h **** 
 509              		.loc 3 40 5 is_stmt 0 view .LVU120
ARM GAS  /tmp/cceytVzI.s 			page 19


 510              	.LBE133:
 511              	.LBB134:
 512              	.LBI134:
  58:../../libdaisy/src/sys/system.h ****     ~System() {}
 513              		.loc 2 58 5 is_stmt 1 view .LVU121
  58:../../libdaisy/src/sys/system.h ****     ~System() {}
 514              		.loc 2 58 5 is_stmt 0 view .LVU122
 515              	.LBE134:
 516              	.LBE136:
 517              	.LBE138:
   7:clockednoise.cpp **** ClockedNoise noise;
 518              		.loc 8 7 14 view .LVU123
 519 000c 0949     		ldr	r1, .L25+8
 520 000e FFF7FEFF 		bl	__aeabi_atexit
 521              	.LVL25:
 522              	.LBB139:
 523              	.LBI139:
  24:../../DaisySP/Source/Noise/clockednoise.h ****     ~ClockedNoise() {}
 524              		.loc 7 24 5 is_stmt 1 view .LVU124
  24:../../DaisySP/Source/Noise/clockednoise.h ****     ~ClockedNoise() {}
 525              		.loc 7 24 5 is_stmt 0 view .LVU125
 526              	.LBE139:
   8:clockednoise.cpp **** Oscillator   lfo;
 527              		.loc 8 8 14 view .LVU126
 528 0012 074A     		ldr	r2, .L25+4
 529 0014 0849     		ldr	r1, .L25+12
 530 0016 0948     		ldr	r0, .L25+16
 531 0018 FFF7FEFF 		bl	__aeabi_atexit
 532              	.LVL26:
 533              	.LBB140:
 534              	.LBI140:
  15:../../DaisySP/Source/Synthesis/oscillator.h ****     ~Oscillator() {}
 535              		.loc 6 15 5 is_stmt 1 view .LVU127
  15:../../DaisySP/Source/Synthesis/oscillator.h ****     ~Oscillator() {}
 536              		.loc 6 15 5 is_stmt 0 view .LVU128
 537              	.LBE140:
   9:clockednoise.cpp **** 
 538              		.loc 8 9 14 view .LVU129
 539 001c 044A     		ldr	r2, .L25+4
 540 001e 0849     		ldr	r1, .L25+20
 541 0020 0848     		ldr	r0, .L25+24
 542              	.LBE141:
 543              	.LBE143:
 544              		.loc 8 36 1 view .LVU130
 545 0022 BDE80840 		pop	{r3, lr}
 546              		.cfi_restore 14
 547              		.cfi_restore 3
 548              		.cfi_def_cfa_offset 0
 549              	.LBB144:
 550              	.LBB142:
   9:clockednoise.cpp **** 
 551              		.loc 8 9 14 view .LVU131
 552 0026 FFF7FEBF 		b	__aeabi_atexit
 553              	.LVL27:
 554              	.L26:
 555 002a 00BF     		.align	2
 556              	.L25:
ARM GAS  /tmp/cceytVzI.s 			page 20


 557 002c 00000000 		.word	.LANCHOR2
 558 0030 00000000 		.word	__dso_handle
 559 0034 00000000 		.word	_ZN5daisy9DaisySeedD1Ev
 560 0038 00000000 		.word	_ZN7daisysp12ClockedNoiseD1Ev
 561 003c 00000000 		.word	.LANCHOR1
 562 0040 00000000 		.word	_ZN7daisysp10OscillatorD1Ev
 563 0044 00000000 		.word	.LANCHOR0
 564              	.LBE142:
 565              	.LBE144:
 566              		.cfi_endproc
 567              	.LFE4759:
 569              		.section	.init_array,"aw",%init_array
 570              		.align	2
 571 0000 00000000 		.word	_GLOBAL__sub_I_hw(target1)
 572              		.global	lfo
 573              		.global	noise
 574              		.global	hw
 575              		.section	.bss.hw,"aw",%nobits
 576              		.align	2
 577              		.set	.LANCHOR2,. + 0
 580              	hw:
 581 0000 00000000 		.space	60
 581      00000000 
 581      00000000 
 581      00000000 
 581      00000000 
 582              		.section	.bss.lfo,"aw",%nobits
 583              		.align	2
 584              		.set	.LANCHOR0,. + 0
 587              	lfo:
 588 0000 00000000 		.space	40
 588      00000000 
 588      00000000 
 588      00000000 
 588      00000000 
 589              		.section	.bss.noise,"aw",%nobits
 590              		.align	2
 591              		.set	.LANCHOR1,. + 0
 594              	noise:
 595 0000 00000000 		.space	20
 595      00000000 
 595      00000000 
 595      00000000 
 595      00000000 
 596              		.text
 597              	.Letext0:
 598              		.file 10 "/usr/lib/gcc/arm-none-eabi/9.2.1/include/stdint.h"
 599              		.file 11 "../../libdaisy/Drivers/CMSIS/Include/core_cm7.h"
 600              		.file 12 "../../libdaisy/Drivers/CMSIS/Device/ST/STM32H7xx/Include/system_stm32h7xx.h"
 601              		.file 13 "/usr/lib/gcc/arm-none-eabi/9.2.1/include/stddef.h"
 602              		.file 14 "/usr/include/newlib/c++/9.2.1/cmath"
 603              		.file 15 "/usr/include/newlib/c++/9.2.1/bits/std_abs.h"
 604              		.file 16 "/usr/include/newlib/c++/9.2.1/cstdlib"
 605              		.file 17 "/usr/include/newlib/c++/9.2.1/cstdint"
 606              		.file 18 "/usr/include/newlib/c++/9.2.1/type_traits"
 607              		.file 19 "/usr/include/newlib/c++/9.2.1/arm-none-eabi/thumb/v7e-m+dp/hard/bits/c++config.h"
 608              		.file 20 "/usr/include/newlib/c++/9.2.1/bits/stl_pair.h"
ARM GAS  /tmp/cceytVzI.s 			page 21


 609              		.file 21 "/usr/include/newlib/c++/9.2.1/debug/debug.h"
 610              		.file 22 "/usr/include/newlib/c++/9.2.1/bits/algorithmfwd.h"
 611              		.file 23 "/usr/include/newlib/c++/9.2.1/bits/exception_ptr.h"
 612              		.file 24 "/usr/include/newlib/c++/9.2.1/new"
 613              		.file 25 "/usr/include/newlib/c++/9.2.1/cstdarg"
 614              		.file 26 "/usr/include/newlib/c++/9.2.1/cstdio"
 615              		.file 27 "/usr/include/newlib/c++/9.2.1/cwchar"
 616              		.file 28 "/usr/include/newlib/c++/9.2.1/clocale"
 617              		.file 29 "/usr/include/newlib/c++/9.2.1/bits/basic_string.h"
 618              		.file 30 "/usr/include/newlib/c++/9.2.1/bits/uniform_int_dist.h"
 619              		.file 31 "/usr/include/newlib/c++/9.2.1/bits/random.h"
 620              		.file 32 "/usr/include/newlib/c++/9.2.1/cstring"
 621              		.file 33 "/usr/include/newlib/c++/9.2.1/bits/predefined_ops.h"
 622              		.file 34 "/usr/include/newlib/c++/9.2.1/ext/numeric_traits.h"
 623              		.file 35 "/usr/include/newlib/c++/9.2.1/ext/new_allocator.h"
 624              		.file 36 "/usr/include/newlib/sys/_types.h"
 625              		.file 37 "<built-in>"
 626              		.file 38 "/usr/include/newlib/sys/reent.h"
 627              		.file 39 "/usr/include/newlib/sys/lock.h"
 628              		.file 40 "/usr/include/newlib/math.h"
 629              		.file 41 "/usr/include/newlib/stdlib.h"
 630              		.file 42 "/usr/include/newlib/c++/9.2.1/math.h"
 631              		.file 43 "../../libdaisy/Drivers/STM32H7xx_HAL_Driver/Inc/stm32h7xx_hal_def.h"
 632              		.file 44 "../../libdaisy/Drivers/STM32H7xx_HAL_Driver/Inc/stm32h7xx_hal_flash.h"
 633              		.file 45 "/usr/include/newlib/c++/9.2.1/stdlib.h"
 634              		.file 46 "../../libdaisy/src/daisy_core.h"
 635              		.file 47 "../../libdaisy/src/per/tim.h"
 636              		.file 48 "../../libdaisy/src/per/sai.h"
 637              		.file 49 "../../libdaisy/src/util/wav_format.h"
 638              		.file 50 "../../libdaisy/src/per/qspi.h"
 639              		.file 51 "../../libdaisy/src/per/gpio.h"
 640              		.file 52 "../../libdaisy/src/dev/sdram.h"
 641              		.file 53 "/usr/lib/gcc/arm-none-eabi/9.2.1/include/stdarg.h"
 642              		.file 54 "/usr/include/newlib/stdio.h"
 643              		.file 55 "/usr/include/newlib/sys/unistd.h"
 644              		.file 56 "../../libdaisy/src/util/oled_fonts.h"
 645              		.file 57 "../../libdaisy/Middlewares/Third_Party/FatFs/src/integer.h"
 646              		.file 58 "../../libdaisy/Middlewares/Third_Party/FatFs/src/ff.h"
 647              		.file 59 "../../libdaisy/Middlewares/Third_Party/FatFs/src/diskio.h"
 648              		.file 60 "../../libdaisy/Middlewares/Third_Party/FatFs/src/ff_gen_drv.h"
 649              		.file 61 "../../libdaisy/src/util/sd_diskio.h"
 650              		.file 62 "../../libdaisy/src/sys/fatfs.h"
 651              		.file 63 "../../DaisySP/Source/Control/adenv.h"
 652              		.file 64 "../../DaisySP/Source/Utility/dsp.h"
 653              		.file 65 "/usr/include/newlib/wchar.h"
 654              		.file 66 "/usr/include/newlib/locale.h"
 655              		.file 67 "/usr/include/newlib/ctype.h"
 656              		.file 68 "/usr/include/newlib/sys/errno.h"
 657              		.file 69 "/usr/include/newlib/string.h"
 658              		.file 70 "../../libdaisy/src/dev/sr_595.h"
ARM GAS  /tmp/cceytVzI.s 			page 22

