ARM GAS  /tmp/ccjBmcCr.s 			page 1


   1              		.cpu cortex-m7
   2              		.eabi_attribute 28, 1
   3              		.eabi_attribute 20, 1
   4              		.eabi_attribute 21, 1
   5              		.eabi_attribute 23, 3
   6              		.eabi_attribute 24, 1
   7              		.eabi_attribute 25, 1
   8              		.eabi_attribute 26, 1
   9              		.eabi_attribute 30, 2
  10              		.eabi_attribute 34, 1
  11              		.eabi_attribute 18, 4
  12              		.file	"flanger.cpp"
  13              		.text
  14              	.Ltext0:
  15              		.cfi_sections	.debug_frame
  16              		.section	.text._ZN5daisy10DaisyFieldD2Ev,"axG",%progbits,_ZN5daisy10DaisyFieldD5Ev,comdat
  17              		.align	1
  18              		.p2align 2,,3
  19              		.weak	_ZN5daisy10DaisyFieldD2Ev
  20              		.arch armv7e-m
  21              		.syntax unified
  22              		.thumb
  23              		.thumb_func
  24              		.fpu fpv5-d16
  26              	_ZN5daisy10DaisyFieldD2Ev:
  27              	.LVL0:
  28              	.LFB2063:
  29              		.file 1 "../../libdaisy/src/daisy_field.h"
   1:../../libdaisy/src/daisy_field.h **** #pragma once
   2:../../libdaisy/src/daisy_field.h **** #ifndef DSY_FIELD_BSP_H
   3:../../libdaisy/src/daisy_field.h **** #define DSY_FIELD_BSP_H /**< & */
   4:../../libdaisy/src/daisy_field.h **** #include "daisy_seed.h"
   5:../../libdaisy/src/daisy_field.h **** #include "dev/oled_ssd130x.h"
   6:../../libdaisy/src/daisy_field.h **** 
   7:../../libdaisy/src/daisy_field.h **** /**
   8:../../libdaisy/src/daisy_field.h ****    @brief Hardware defines and helpers for daisy field platform.
   9:../../libdaisy/src/daisy_field.h **** */
  10:../../libdaisy/src/daisy_field.h **** namespace daisy
  11:../../libdaisy/src/daisy_field.h **** {
  12:../../libdaisy/src/daisy_field.h **** /** @addtogroup boards
  13:../../libdaisy/src/daisy_field.h ****     @{
  14:../../libdaisy/src/daisy_field.h **** */
  15:../../libdaisy/src/daisy_field.h **** class DaisyField
  16:../../libdaisy/src/daisy_field.h **** {
  17:../../libdaisy/src/daisy_field.h ****   public:
  18:../../libdaisy/src/daisy_field.h ****     /** enums for controls, etc.
  19:../../libdaisy/src/daisy_field.h **** */
  20:../../libdaisy/src/daisy_field.h ****     enum
  21:../../libdaisy/src/daisy_field.h ****     {
  22:../../libdaisy/src/daisy_field.h ****         SW_1,    /**< tactile switch */
  23:../../libdaisy/src/daisy_field.h ****         SW_2,    /**< tactile switch */
  24:../../libdaisy/src/daisy_field.h ****         SW_LAST, /**< & */
  25:../../libdaisy/src/daisy_field.h ****     };
  26:../../libdaisy/src/daisy_field.h **** 
  27:../../libdaisy/src/daisy_field.h ****     /** All knobs connect to Daisy Seed's ADC1 pin via CD4051 mux
  28:../../libdaisy/src/daisy_field.h ****         Knobs are in order that they are laid out on hardware.
  29:../../libdaisy/src/daisy_field.h ****     */
ARM GAS  /tmp/ccjBmcCr.s 			page 2


  30:../../libdaisy/src/daisy_field.h ****     enum
  31:../../libdaisy/src/daisy_field.h ****     {
  32:../../libdaisy/src/daisy_field.h ****         KNOB_1,    /**< & */
  33:../../libdaisy/src/daisy_field.h ****         KNOB_2,    /**< & */
  34:../../libdaisy/src/daisy_field.h ****         KNOB_3,    /**< & */
  35:../../libdaisy/src/daisy_field.h ****         KNOB_4,    /**< & */
  36:../../libdaisy/src/daisy_field.h ****         KNOB_5,    /**< & */
  37:../../libdaisy/src/daisy_field.h ****         KNOB_6,    /**< & */
  38:../../libdaisy/src/daisy_field.h ****         KNOB_7,    /**< & */
  39:../../libdaisy/src/daisy_field.h ****         KNOB_8,    /**< & */
  40:../../libdaisy/src/daisy_field.h ****         KNOB_LAST, /**< & */
  41:../../libdaisy/src/daisy_field.h ****     };
  42:../../libdaisy/src/daisy_field.h **** 
  43:../../libdaisy/src/daisy_field.h ****     enum
  44:../../libdaisy/src/daisy_field.h ****     {
  45:../../libdaisy/src/daisy_field.h ****         CV_1,    /** Connected to ADC1_INP17 */
  46:../../libdaisy/src/daisy_field.h ****         CV_2,    /** Connected  to ADC1_INP15 */
  47:../../libdaisy/src/daisy_field.h ****         CV_3,    /** Connected to ADC1_INP4 */
  48:../../libdaisy/src/daisy_field.h ****         CV_4,    /** Connected to ADC1_INP11 */
  49:../../libdaisy/src/daisy_field.h ****         CV_LAST, /**< & */
  50:../../libdaisy/src/daisy_field.h ****     };
  51:../../libdaisy/src/daisy_field.h **** 
  52:../../libdaisy/src/daisy_field.h ****     enum
  53:../../libdaisy/src/daisy_field.h ****     {
  54:../../libdaisy/src/daisy_field.h ****         LED_KEY_B1, /**< & */
  55:../../libdaisy/src/daisy_field.h ****         LED_KEY_B2, /**< & */
  56:../../libdaisy/src/daisy_field.h ****         LED_KEY_B3, /**< & */
  57:../../libdaisy/src/daisy_field.h ****         LED_KEY_B4, /**< & */
  58:../../libdaisy/src/daisy_field.h ****         LED_KEY_B5, /**< & */
  59:../../libdaisy/src/daisy_field.h ****         LED_KEY_B6, /**< & */
  60:../../libdaisy/src/daisy_field.h ****         LED_KEY_B7, /**< & */
  61:../../libdaisy/src/daisy_field.h ****         LED_KEY_B8, /**< & */
  62:../../libdaisy/src/daisy_field.h ****         LED_KEY_A8, /**< & */
  63:../../libdaisy/src/daisy_field.h ****         LED_KEY_A7, /**< & */
  64:../../libdaisy/src/daisy_field.h ****         LED_KEY_A6, /**< & */
  65:../../libdaisy/src/daisy_field.h ****         LED_KEY_A5, /**< & */
  66:../../libdaisy/src/daisy_field.h ****         LED_KEY_A4, /**< & */
  67:../../libdaisy/src/daisy_field.h ****         LED_KEY_A3, /**< & */
  68:../../libdaisy/src/daisy_field.h ****         LED_KEY_A2, /**< & */
  69:../../libdaisy/src/daisy_field.h ****         LED_KEY_A1, /**< & */
  70:../../libdaisy/src/daisy_field.h ****         LED_KNOB_1, /**< & */
  71:../../libdaisy/src/daisy_field.h ****         LED_KNOB_2, /**< & */
  72:../../libdaisy/src/daisy_field.h ****         LED_KNOB_3, /**< & */
  73:../../libdaisy/src/daisy_field.h ****         LED_KNOB_4, /**< & */
  74:../../libdaisy/src/daisy_field.h ****         LED_KNOB_5, /**< & */
  75:../../libdaisy/src/daisy_field.h ****         LED_KNOB_6, /**< & */
  76:../../libdaisy/src/daisy_field.h ****         LED_KNOB_7, /**< & */
  77:../../libdaisy/src/daisy_field.h ****         LED_KNOB_8, /**< & */
  78:../../libdaisy/src/daisy_field.h ****         LED_SW_1,   /**< & */
  79:../../libdaisy/src/daisy_field.h ****         LED_SW_2,   /**< & */
  80:../../libdaisy/src/daisy_field.h ****         LED_LAST    /**< & */
  81:../../libdaisy/src/daisy_field.h ****     };
  82:../../libdaisy/src/daisy_field.h **** 
  83:../../libdaisy/src/daisy_field.h ****     DaisyField() {}
  84:../../libdaisy/src/daisy_field.h ****     ~DaisyField() {}
  30              		.loc 1 84 5 view -0
  31              		.cfi_startproc
ARM GAS  /tmp/ccjBmcCr.s 			page 3


  32              		@ args = 0, pretend = 0, frame = 0
  33              		@ frame_needed = 0, uses_anonymous_args = 0
  34              		@ link register save eliminated.
  35              	.LBB415:
  36              	.LBI415:
  37              		.file 2 "../../libdaisy/src/dev/sr_4021.h"
   1:../../libdaisy/src/dev/sr_4021.h **** #pragma once
   2:../../libdaisy/src/dev/sr_4021.h **** #ifndef DEV_SR_4021_H
   3:../../libdaisy/src/dev/sr_4021.h **** #define DEV_SR_4021_H
   4:../../libdaisy/src/dev/sr_4021.h **** #include "per/gpio.h"
   5:../../libdaisy/src/dev/sr_4021.h **** #include "sys/system.h"
   6:../../libdaisy/src/dev/sr_4021.h **** 
   7:../../libdaisy/src/dev/sr_4021.h **** namespace daisy
   8:../../libdaisy/src/dev/sr_4021.h **** {
   9:../../libdaisy/src/dev/sr_4021.h **** /** @brief Device Driver for CD4021 shift register
  10:../../libdaisy/src/dev/sr_4021.h ****  ** @author shensley
  11:../../libdaisy/src/dev/sr_4021.h ****  ** @addtogroup shiftregister
  12:../../libdaisy/src/dev/sr_4021.h ****  **
  13:../../libdaisy/src/dev/sr_4021.h ****  ** CD4021B-Q1: CMOS 8-STAGE STATIC SHIFT REGISTER
  14:../../libdaisy/src/dev/sr_4021.h ****  ** 
  15:../../libdaisy/src/dev/sr_4021.h ****  ** Supply Voltage: 3V to 18V
  16:../../libdaisy/src/dev/sr_4021.h ****  ** Clock Freq: 3MHz at 5V (less at 3v3) -> 8.5MHz at 15V
  17:../../libdaisy/src/dev/sr_4021.h ****  ** Pin Descriptions:
  18:../../libdaisy/src/dev/sr_4021.h ****  ** - Parallel Data[1-8] - 7, 6, 5, 4, 13, 14, 115, 1
  19:../../libdaisy/src/dev/sr_4021.h ****  ** - Serial Data        - 11
  20:../../libdaisy/src/dev/sr_4021.h ****  ** - Clock              - 10
  21:../../libdaisy/src/dev/sr_4021.h ****  ** - P/!S               - 9
  22:../../libdaisy/src/dev/sr_4021.h ****  ** - Q[6-8]             - 2, 12, 3
  23:../../libdaisy/src/dev/sr_4021.h ****  **
  24:../../libdaisy/src/dev/sr_4021.h ****  ** Driver has support for daisy chaining and running up to 2 same-sized 
  25:../../libdaisy/src/dev/sr_4021.h ****  ** chains in parallel from a single set of clk/latch pins to reduce 
  26:../../libdaisy/src/dev/sr_4021.h ****  ** pin/code overhead when using multiple devices.
  27:../../libdaisy/src/dev/sr_4021.h ****  **
  28:../../libdaisy/src/dev/sr_4021.h ****  ** When dealing with multiple parallel/daisy-chained devices the 
  29:../../libdaisy/src/dev/sr_4021.h ****  ** states of all inputs will be filled in the following order (example uses two chained and two pa
  30:../../libdaisy/src/dev/sr_4021.h ****  ** data[chain0,parallel0], data[chain1,parallel0], data[chain0,parallel1], data[chain1,parallel1];
  31:../../libdaisy/src/dev/sr_4021.h ****  ** 
  32:../../libdaisy/src/dev/sr_4021.h ****  ** When combining multiple daisy chained and parallel devices the number of devices chained should
  33:../../libdaisy/src/dev/sr_4021.h ****  ** for each parallel device chain.
  34:../../libdaisy/src/dev/sr_4021.h ****  **
  35:../../libdaisy/src/dev/sr_4021.h ****  ***/
  36:../../libdaisy/src/dev/sr_4021.h **** template <size_t num_daisychained = 1, size_t num_parallel = 1>
  37:../../libdaisy/src/dev/sr_4021.h **** class ShiftRegister4021
  38:../../libdaisy/src/dev/sr_4021.h **** {
  39:../../libdaisy/src/dev/sr_4021.h ****   public:
  40:../../libdaisy/src/dev/sr_4021.h ****     /** Configuration Structure for handling the pin setting of the device */
  41:../../libdaisy/src/dev/sr_4021.h ****     struct Config
  42:../../libdaisy/src/dev/sr_4021.h ****     {
  43:../../libdaisy/src/dev/sr_4021.h ****         dsy_gpio_pin clk;   /**< Clock pin to attach to pin 10 of device(s) */
  44:../../libdaisy/src/dev/sr_4021.h ****         dsy_gpio_pin latch; /**< Latch pin to attach to pin 9 of device(s) */
  45:../../libdaisy/src/dev/sr_4021.h ****         dsy_gpio_pin data[num_parallel]; /**< Data Pin(s) */
  46:../../libdaisy/src/dev/sr_4021.h ****     };
  47:../../libdaisy/src/dev/sr_4021.h **** 
  48:../../libdaisy/src/dev/sr_4021.h ****     ShiftRegister4021() {}
  49:../../libdaisy/src/dev/sr_4021.h ****     ~ShiftRegister4021() {}
  38              		.loc 2 49 5 view .LVU1
  39              		.loc 2 49 5 is_stmt 0 view .LVU2
ARM GAS  /tmp/ccjBmcCr.s 			page 4


  40              	.LBE415:
  41              	.LBB416:
  42              	.LBI416:
  43              		.file 3 "../../libdaisy/src/hid/midi.h"
   1:../../libdaisy/src/hid/midi.h **** #pragma once
   2:../../libdaisy/src/hid/midi.h **** #ifndef DSY_MIDI_H
   3:../../libdaisy/src/hid/midi.h **** #define DSY_MIDI_H
   4:../../libdaisy/src/hid/midi.h **** 
   5:../../libdaisy/src/hid/midi.h **** // TODO: make this adjustable
   6:../../libdaisy/src/hid/midi.h **** #define SYSEX_BUFFER_LEN 128
   7:../../libdaisy/src/hid/midi.h **** 
   8:../../libdaisy/src/hid/midi.h **** #include <stdint.h>
   9:../../libdaisy/src/hid/midi.h **** #include <stdlib.h>
  10:../../libdaisy/src/hid/midi.h **** #include "per/uart.h"
  11:../../libdaisy/src/hid/midi.h **** #include "util/ringbuffer.h"
  12:../../libdaisy/src/hid/midi.h **** #include "hid/MidiEvent.h"
  13:../../libdaisy/src/hid/midi.h **** #include "sys/system.h"
  14:../../libdaisy/src/hid/midi.h **** 
  15:../../libdaisy/src/hid/midi.h **** namespace daisy
  16:../../libdaisy/src/hid/midi.h **** {
  17:../../libdaisy/src/hid/midi.h **** /** @addtogroup external 
  18:../../libdaisy/src/hid/midi.h ****     @{ 
  19:../../libdaisy/src/hid/midi.h **** */
  20:../../libdaisy/src/hid/midi.h **** 
  21:../../libdaisy/src/hid/midi.h **** class MidiUartTransport
  22:../../libdaisy/src/hid/midi.h **** {
  23:../../libdaisy/src/hid/midi.h ****   public:
  24:../../libdaisy/src/hid/midi.h ****     MidiUartTransport() {}
  25:../../libdaisy/src/hid/midi.h ****     ~MidiUartTransport() {}
  26:../../libdaisy/src/hid/midi.h **** 
  27:../../libdaisy/src/hid/midi.h ****     struct Config
  28:../../libdaisy/src/hid/midi.h ****     {
  29:../../libdaisy/src/hid/midi.h ****         UartHandler::Config::Peripheral periph;
  30:../../libdaisy/src/hid/midi.h ****         dsy_gpio_pin                    rx;
  31:../../libdaisy/src/hid/midi.h ****         dsy_gpio_pin                    tx;
  32:../../libdaisy/src/hid/midi.h **** 
  33:../../libdaisy/src/hid/midi.h ****         Config()
  34:../../libdaisy/src/hid/midi.h ****         {
  35:../../libdaisy/src/hid/midi.h ****             periph = UartHandler::Config::Peripheral::USART_1;
  36:../../libdaisy/src/hid/midi.h ****             rx     = {DSY_GPIOB, 7};
  37:../../libdaisy/src/hid/midi.h ****             tx     = {DSY_GPIOB, 6};
  38:../../libdaisy/src/hid/midi.h ****         }
  39:../../libdaisy/src/hid/midi.h ****     };
  40:../../libdaisy/src/hid/midi.h **** 
  41:../../libdaisy/src/hid/midi.h ****     inline void Init(Config config)
  42:../../libdaisy/src/hid/midi.h ****     {
  43:../../libdaisy/src/hid/midi.h ****         UartHandler::Config uart_config;
  44:../../libdaisy/src/hid/midi.h **** 
  45:../../libdaisy/src/hid/midi.h ****         //defaults
  46:../../libdaisy/src/hid/midi.h ****         uart_config.baudrate   = 31250;
  47:../../libdaisy/src/hid/midi.h ****         uart_config.stopbits   = UartHandler::Config::StopBits::BITS_1;
  48:../../libdaisy/src/hid/midi.h ****         uart_config.parity     = UartHandler::Config::Parity::NONE;
  49:../../libdaisy/src/hid/midi.h ****         uart_config.mode       = UartHandler::Config::Mode::TX_RX;
  50:../../libdaisy/src/hid/midi.h ****         uart_config.wordlength = UartHandler::Config::WordLength::BITS_8;
  51:../../libdaisy/src/hid/midi.h **** 
  52:../../libdaisy/src/hid/midi.h ****         //user settings
  53:../../libdaisy/src/hid/midi.h ****         uart_config.periph        = config.periph;
ARM GAS  /tmp/ccjBmcCr.s 			page 5


  54:../../libdaisy/src/hid/midi.h ****         uart_config.pin_config.rx = config.rx;
  55:../../libdaisy/src/hid/midi.h ****         uart_config.pin_config.tx = config.tx;
  56:../../libdaisy/src/hid/midi.h **** 
  57:../../libdaisy/src/hid/midi.h ****         uart_.Init(uart_config);
  58:../../libdaisy/src/hid/midi.h ****     }
  59:../../libdaisy/src/hid/midi.h **** 
  60:../../libdaisy/src/hid/midi.h ****     inline void    StartRx() { uart_.StartRx(); }
  61:../../libdaisy/src/hid/midi.h ****     inline size_t  Readable() { return uart_.Readable(); }
  62:../../libdaisy/src/hid/midi.h ****     inline uint8_t Rx() { return uart_.PopRx(); }
  63:../../libdaisy/src/hid/midi.h ****     inline bool    RxActive() { return uart_.RxActive(); }
  64:../../libdaisy/src/hid/midi.h ****     inline void    FlushRx() { uart_.FlushRx(); }
  65:../../libdaisy/src/hid/midi.h ****     inline void    Tx(uint8_t* buff, size_t size) { uart_.PollTx(buff, size); }
  66:../../libdaisy/src/hid/midi.h **** 
  67:../../libdaisy/src/hid/midi.h ****   private:
  68:../../libdaisy/src/hid/midi.h ****     UartHandler uart_;
  69:../../libdaisy/src/hid/midi.h **** };
  70:../../libdaisy/src/hid/midi.h **** 
  71:../../libdaisy/src/hid/midi.h **** /** 
  72:../../libdaisy/src/hid/midi.h ****     @brief Simple MIDI Handler \n 
  73:../../libdaisy/src/hid/midi.h ****     Parses bytes from an input into valid MidiEvents. \n 
  74:../../libdaisy/src/hid/midi.h ****     The MidiEvents fill a FIFO queue that the user can pop messages from.
  75:../../libdaisy/src/hid/midi.h ****     @author shensley
  76:../../libdaisy/src/hid/midi.h ****     @date March 2020
  77:../../libdaisy/src/hid/midi.h **** */
  78:../../libdaisy/src/hid/midi.h **** template <typename Transport>
  79:../../libdaisy/src/hid/midi.h **** class MidiHandler
  80:../../libdaisy/src/hid/midi.h **** {
  81:../../libdaisy/src/hid/midi.h ****   public:
  82:../../libdaisy/src/hid/midi.h ****     MidiHandler() {}
  83:../../libdaisy/src/hid/midi.h ****     ~MidiHandler() {}
  44              		.loc 3 83 5 is_stmt 1 view .LVU3
  45              	.LBB417:
  46              	.LBI417:
  25:../../libdaisy/src/hid/midi.h **** 
  47              		.loc 3 25 5 view .LVU4
  25:../../libdaisy/src/hid/midi.h **** 
  48              		.loc 3 25 5 is_stmt 0 view .LVU5
  49              	.LBE417:
  50              	.LBE416:
  51              	.LBB418:
  52              	.LBI418:
  53              		.file 4 "../../libdaisy/src/hid/gatein.h"
   1:../../libdaisy/src/hid/gatein.h **** #pragma once
   2:../../libdaisy/src/hid/gatein.h **** #ifndef DSY_GATEIN_H
   3:../../libdaisy/src/hid/gatein.h **** #define DSY_GATEIN_H
   4:../../libdaisy/src/hid/gatein.h **** #include "per/gpio.h"
   5:../../libdaisy/src/hid/gatein.h **** 
   6:../../libdaisy/src/hid/gatein.h **** namespace daisy
   7:../../libdaisy/src/hid/gatein.h **** {
   8:../../libdaisy/src/hid/gatein.h **** /** @file hid_gatein.h */
   9:../../libdaisy/src/hid/gatein.h **** /**
  10:../../libdaisy/src/hid/gatein.h ****    @brief Generic Class for handling gate inputs through GPIO.
  11:../../libdaisy/src/hid/gatein.h ****    @author Stephen Hensley
  12:../../libdaisy/src/hid/gatein.h ****    @date    March 2020
  13:../../libdaisy/src/hid/gatein.h ****    @ingroup controls
  14:../../libdaisy/src/hid/gatein.h **** */
  15:../../libdaisy/src/hid/gatein.h **** class GateIn
ARM GAS  /tmp/ccjBmcCr.s 			page 6


  16:../../libdaisy/src/hid/gatein.h **** {
  17:../../libdaisy/src/hid/gatein.h ****   public:
  18:../../libdaisy/src/hid/gatein.h ****     /** GateIn 
  19:../../libdaisy/src/hid/gatein.h ****     Constructor 
  20:../../libdaisy/src/hid/gatein.h ****     */
  21:../../libdaisy/src/hid/gatein.h ****     GateIn() {}
  22:../../libdaisy/src/hid/gatein.h ****     /** GateIn~
  23:../../libdaisy/src/hid/gatein.h ****     Destructor 
  24:../../libdaisy/src/hid/gatein.h ****     */
  25:../../libdaisy/src/hid/gatein.h ****     ~GateIn() {}
  54              		.loc 4 25 5 is_stmt 1 view .LVU6
  55              		.loc 4 25 5 is_stmt 0 view .LVU7
  56              	.LBE418:
  57              	.LBB419:
  58              	.LBI419:
  59              		.file 5 "../../libdaisy/src/hid/disp/oled_display.h"
   1:../../libdaisy/src/hid/disp/oled_display.h **** #pragma once
   2:../../libdaisy/src/hid/disp/oled_display.h **** #ifndef DSY_OLED_DISPLAY_H
   3:../../libdaisy/src/hid/disp/oled_display.h **** #define DSY_OLED_DISPLAY_H /**< Macro */
   4:../../libdaisy/src/hid/disp/oled_display.h **** 
   5:../../libdaisy/src/hid/disp/oled_display.h **** #include "display.h"
   6:../../libdaisy/src/hid/disp/oled_display.h **** 
   7:../../libdaisy/src/hid/disp/oled_display.h **** namespace daisy
   8:../../libdaisy/src/hid/disp/oled_display.h **** {
   9:../../libdaisy/src/hid/disp/oled_display.h **** /** 
  10:../../libdaisy/src/hid/disp/oled_display.h ****  * This class is for drawing to a monochrome OLED display. 
  11:../../libdaisy/src/hid/disp/oled_display.h **** */
  12:../../libdaisy/src/hid/disp/oled_display.h **** template <typename DisplayDriver>
  13:../../libdaisy/src/hid/disp/oled_display.h **** class OledDisplay : public OneBitGraphicsDisplayImpl<OledDisplay<DisplayDriver>>
  14:../../libdaisy/src/hid/disp/oled_display.h **** {
  15:../../libdaisy/src/hid/disp/oled_display.h ****   public:
  16:../../libdaisy/src/hid/disp/oled_display.h ****     OledDisplay() {}
  17:../../libdaisy/src/hid/disp/oled_display.h ****     virtual ~OledDisplay() {}
  60              		.loc 5 17 13 is_stmt 1 view .LVU8
  61              	.LBB420:
  62              	.LBI420:
  63              		.file 6 "../../libdaisy/src/hid/disp/display.h"
   1:../../libdaisy/src/hid/disp/display.h **** #pragma once
   2:../../libdaisy/src/hid/disp/display.h **** #ifndef DSY_DISPLAY_H
   3:../../libdaisy/src/hid/disp/display.h **** #define DSY_DISPLAY_H /**< Macro */
   4:../../libdaisy/src/hid/disp/display.h **** #include <cmath>
   5:../../libdaisy/src/hid/disp/display.h **** #include "util/oled_fonts.h"
   6:../../libdaisy/src/hid/disp/display.h **** #include "daisy_core.h"
   7:../../libdaisy/src/hid/disp/display.h **** #include "graphics_common.h"
   8:../../libdaisy/src/hid/disp/display.h **** 
   9:../../libdaisy/src/hid/disp/display.h **** #ifndef deg2rad
  10:../../libdaisy/src/hid/disp/display.h **** #define deg2rad(deg) ((deg)*3.141592 / 180.0)
  11:../../libdaisy/src/hid/disp/display.h **** #endif
  12:../../libdaisy/src/hid/disp/display.h **** 
  13:../../libdaisy/src/hid/disp/display.h **** namespace daisy
  14:../../libdaisy/src/hid/disp/display.h **** {
  15:../../libdaisy/src/hid/disp/display.h **** /** 
  16:../../libdaisy/src/hid/disp/display.h ****  * This interface is used as a base class for all types of 1bit-per-pixel
  17:../../libdaisy/src/hid/disp/display.h ****  * graphics displays.
  18:../../libdaisy/src/hid/disp/display.h **** */
  19:../../libdaisy/src/hid/disp/display.h **** class OneBitGraphicsDisplay
  20:../../libdaisy/src/hid/disp/display.h **** {
ARM GAS  /tmp/ccjBmcCr.s 			page 7


  21:../../libdaisy/src/hid/disp/display.h ****   public:
  22:../../libdaisy/src/hid/disp/display.h ****     OneBitGraphicsDisplay() {}
  23:../../libdaisy/src/hid/disp/display.h ****     virtual ~OneBitGraphicsDisplay() {}
  24:../../libdaisy/src/hid/disp/display.h **** 
  25:../../libdaisy/src/hid/disp/display.h ****     virtual uint16_t Height() const = 0;
  26:../../libdaisy/src/hid/disp/display.h ****     virtual uint16_t Width() const  = 0;
  27:../../libdaisy/src/hid/disp/display.h **** 
  28:../../libdaisy/src/hid/disp/display.h ****     Rectangle GetBounds() const
  29:../../libdaisy/src/hid/disp/display.h ****     {
  30:../../libdaisy/src/hid/disp/display.h ****         return Rectangle(int16_t(Width()), int16_t(Height()));
  31:../../libdaisy/src/hid/disp/display.h ****     }
  32:../../libdaisy/src/hid/disp/display.h **** 
  33:../../libdaisy/src/hid/disp/display.h **** 
  34:../../libdaisy/src/hid/disp/display.h ****     size_t CurrentX() { return currentX_; };
  35:../../libdaisy/src/hid/disp/display.h ****     size_t CurrentY() { return currentY_; };
  36:../../libdaisy/src/hid/disp/display.h **** 
  37:../../libdaisy/src/hid/disp/display.h ****     /** 
  38:../../libdaisy/src/hid/disp/display.h ****     Fills the entire display with either on/off.
  39:../../libdaisy/src/hid/disp/display.h ****     \param on Sets on or off.
  40:../../libdaisy/src/hid/disp/display.h ****     */
  41:../../libdaisy/src/hid/disp/display.h ****     virtual void Fill(bool on) = 0;
  42:../../libdaisy/src/hid/disp/display.h **** 
  43:../../libdaisy/src/hid/disp/display.h ****     /**
  44:../../libdaisy/src/hid/disp/display.h ****     Sets the pixel at the specified coordinate to be on/off.
  45:../../libdaisy/src/hid/disp/display.h ****     \param x   x Coordinate
  46:../../libdaisy/src/hid/disp/display.h ****     \param y   y coordinate
  47:../../libdaisy/src/hid/disp/display.h ****     \param on  on or off
  48:../../libdaisy/src/hid/disp/display.h ****     */
  49:../../libdaisy/src/hid/disp/display.h ****     virtual void DrawPixel(uint_fast8_t x, uint_fast8_t y, bool on) = 0;
  50:../../libdaisy/src/hid/disp/display.h **** 
  51:../../libdaisy/src/hid/disp/display.h ****     /**
  52:../../libdaisy/src/hid/disp/display.h ****     Draws a line from (x1, y1) to (y1, y2)
  53:../../libdaisy/src/hid/disp/display.h ****     \param x1  x Coordinate of the starting point
  54:../../libdaisy/src/hid/disp/display.h ****     \param y1  y Coordinate of the starting point
  55:../../libdaisy/src/hid/disp/display.h ****     \param x2  x Coordinate of the ending point
  56:../../libdaisy/src/hid/disp/display.h ****     \param y2  y Coordinate of the ending point
  57:../../libdaisy/src/hid/disp/display.h ****     \param on  on or off
  58:../../libdaisy/src/hid/disp/display.h ****     */
  59:../../libdaisy/src/hid/disp/display.h ****     virtual void DrawLine(uint_fast8_t x1,
  60:../../libdaisy/src/hid/disp/display.h ****                           uint_fast8_t y1,
  61:../../libdaisy/src/hid/disp/display.h ****                           uint_fast8_t x2,
  62:../../libdaisy/src/hid/disp/display.h ****                           uint_fast8_t y2,
  63:../../libdaisy/src/hid/disp/display.h ****                           bool         on)
  64:../../libdaisy/src/hid/disp/display.h ****         = 0;
  65:../../libdaisy/src/hid/disp/display.h **** 
  66:../../libdaisy/src/hid/disp/display.h ****     /**
  67:../../libdaisy/src/hid/disp/display.h ****     Draws a rectangle based on two coordinates.
  68:../../libdaisy/src/hid/disp/display.h ****     \param x1 x Coordinate of the first point
  69:../../libdaisy/src/hid/disp/display.h ****     \param y1 y Coordinate of the first point
  70:../../libdaisy/src/hid/disp/display.h ****     \param x2 x Coordinate of the second point
  71:../../libdaisy/src/hid/disp/display.h ****     \param y2 y Coordinate of the second point
  72:../../libdaisy/src/hid/disp/display.h ****     \param on on or off
  73:../../libdaisy/src/hid/disp/display.h ****     \param fill fill the rectangle or draw only the outline
  74:../../libdaisy/src/hid/disp/display.h ****     */
  75:../../libdaisy/src/hid/disp/display.h ****     virtual void DrawRect(uint_fast8_t x1,
  76:../../libdaisy/src/hid/disp/display.h ****                           uint_fast8_t y1,
  77:../../libdaisy/src/hid/disp/display.h ****                           uint_fast8_t x2,
ARM GAS  /tmp/ccjBmcCr.s 			page 8


  78:../../libdaisy/src/hid/disp/display.h ****                           uint_fast8_t y2,
  79:../../libdaisy/src/hid/disp/display.h ****                           bool         on,
  80:../../libdaisy/src/hid/disp/display.h ****                           bool         fill = false)
  81:../../libdaisy/src/hid/disp/display.h ****         = 0;
  82:../../libdaisy/src/hid/disp/display.h **** 
  83:../../libdaisy/src/hid/disp/display.h ****     /**
  84:../../libdaisy/src/hid/disp/display.h ****     Draws a rectangle.
  85:../../libdaisy/src/hid/disp/display.h ****     \param rect the rectangle
  86:../../libdaisy/src/hid/disp/display.h ****     \param on   on or off
  87:../../libdaisy/src/hid/disp/display.h ****     \param fill fill the rectangle or draw only the outline
  88:../../libdaisy/src/hid/disp/display.h ****     */
  89:../../libdaisy/src/hid/disp/display.h ****     void DrawRect(const Rectangle& rect, bool on, bool fill = false)
  90:../../libdaisy/src/hid/disp/display.h ****     {
  91:../../libdaisy/src/hid/disp/display.h ****         DrawRect(rect.GetX(),
  92:../../libdaisy/src/hid/disp/display.h ****                  rect.GetY(),
  93:../../libdaisy/src/hid/disp/display.h ****                  rect.GetRight(),
  94:../../libdaisy/src/hid/disp/display.h ****                  rect.GetBottom(),
  95:../../libdaisy/src/hid/disp/display.h ****                  on,
  96:../../libdaisy/src/hid/disp/display.h ****                  fill);
  97:../../libdaisy/src/hid/disp/display.h ****     }
  98:../../libdaisy/src/hid/disp/display.h **** 
  99:../../libdaisy/src/hid/disp/display.h ****     /**
 100:../../libdaisy/src/hid/disp/display.h ****     Draws an arc around the specified coordinate
 101:../../libdaisy/src/hid/disp/display.h ****     \param x           x Coordinate of the center of the arc
 102:../../libdaisy/src/hid/disp/display.h ****     \param y           y Coordinate of the center of the arc
 103:../../libdaisy/src/hid/disp/display.h ****     \param radius      radius of the arc
 104:../../libdaisy/src/hid/disp/display.h ****     \param start_angle angle where to start the arc
 105:../../libdaisy/src/hid/disp/display.h ****     \param sweep       total angle of the arc
 106:../../libdaisy/src/hid/disp/display.h ****     \param on  on or off
 107:../../libdaisy/src/hid/disp/display.h ****     */
 108:../../libdaisy/src/hid/disp/display.h ****     virtual void DrawArc(uint_fast8_t x,
 109:../../libdaisy/src/hid/disp/display.h ****                          uint_fast8_t y,
 110:../../libdaisy/src/hid/disp/display.h ****                          uint_fast8_t radius,
 111:../../libdaisy/src/hid/disp/display.h ****                          int_fast16_t start_angle,
 112:../../libdaisy/src/hid/disp/display.h ****                          int_fast16_t sweep,
 113:../../libdaisy/src/hid/disp/display.h ****                          bool         on)
 114:../../libdaisy/src/hid/disp/display.h ****         = 0;
 115:../../libdaisy/src/hid/disp/display.h **** 
 116:../../libdaisy/src/hid/disp/display.h ****     /**
 117:../../libdaisy/src/hid/disp/display.h ****     Draws a circle around the specified coordinate
 118:../../libdaisy/src/hid/disp/display.h ****     \param x           x Coordinate of the center of the circle
 119:../../libdaisy/src/hid/disp/display.h ****     \param y           y Coordinate of the center of the circle
 120:../../libdaisy/src/hid/disp/display.h ****     \param radius      radius of the circle
 121:../../libdaisy/src/hid/disp/display.h ****     \param on  on or off
 122:../../libdaisy/src/hid/disp/display.h ****     */
 123:../../libdaisy/src/hid/disp/display.h ****     void
 124:../../libdaisy/src/hid/disp/display.h ****     DrawCircle(uint_fast8_t x, uint_fast8_t y, uint_fast8_t radius, bool on)
 125:../../libdaisy/src/hid/disp/display.h ****     {
 126:../../libdaisy/src/hid/disp/display.h ****         DrawArc(x, y, radius, 0, 360, on);
 127:../../libdaisy/src/hid/disp/display.h ****     };
 128:../../libdaisy/src/hid/disp/display.h **** 
 129:../../libdaisy/src/hid/disp/display.h ****     /** 
 130:../../libdaisy/src/hid/disp/display.h ****     Writes the character with the specific FontDef
 131:../../libdaisy/src/hid/disp/display.h ****     to the display buffer at the current Cursor position.
 132:../../libdaisy/src/hid/disp/display.h ****     \param ch character to be written
 133:../../libdaisy/src/hid/disp/display.h ****     \param font font to be written in
 134:../../libdaisy/src/hid/disp/display.h ****     \param on    on or off
ARM GAS  /tmp/ccjBmcCr.s 			page 9


 135:../../libdaisy/src/hid/disp/display.h ****     \return &
 136:../../libdaisy/src/hid/disp/display.h ****     */
 137:../../libdaisy/src/hid/disp/display.h ****     virtual char WriteChar(char ch, FontDef font, bool on) = 0;
 138:../../libdaisy/src/hid/disp/display.h **** 
 139:../../libdaisy/src/hid/disp/display.h ****     /** 
 140:../../libdaisy/src/hid/disp/display.h ****     Similar to WriteChar, except it will handle an entire String.
 141:../../libdaisy/src/hid/disp/display.h ****     Wrapping does not happen automatically, so the width
 142:../../libdaisy/src/hid/disp/display.h ****     of the string must be kept within the dimensions of the screen.
 143:../../libdaisy/src/hid/disp/display.h ****     \param str string to be written
 144:../../libdaisy/src/hid/disp/display.h ****     \param font font to use
 145:../../libdaisy/src/hid/disp/display.h ****     \param on  on or off
 146:../../libdaisy/src/hid/disp/display.h ****     \return &
 147:../../libdaisy/src/hid/disp/display.h ****     */
 148:../../libdaisy/src/hid/disp/display.h ****     virtual char WriteString(const char* str, FontDef font, bool on) = 0;
 149:../../libdaisy/src/hid/disp/display.h **** 
 150:../../libdaisy/src/hid/disp/display.h ****     /** 
 151:../../libdaisy/src/hid/disp/display.h ****     Similar to WriteString but justified within a bounding box.
 152:../../libdaisy/src/hid/disp/display.h ****     \param str          string to be written
 153:../../libdaisy/src/hid/disp/display.h ****     \param font         font to use
 154:../../libdaisy/src/hid/disp/display.h ****     \param boundingBox  the bounding box to draw the text in
 155:../../libdaisy/src/hid/disp/display.h ****     \param alignment    the alignment to use
 156:../../libdaisy/src/hid/disp/display.h ****     \param on           on or off
 157:../../libdaisy/src/hid/disp/display.h ****     \return The rectangle that was drawn to
 158:../../libdaisy/src/hid/disp/display.h ****     */
 159:../../libdaisy/src/hid/disp/display.h ****     virtual Rectangle WriteStringAligned(const char*    str,
 160:../../libdaisy/src/hid/disp/display.h ****                                          const FontDef& font,
 161:../../libdaisy/src/hid/disp/display.h ****                                          Rectangle      boundingBox,
 162:../../libdaisy/src/hid/disp/display.h ****                                          Alignment      alignment,
 163:../../libdaisy/src/hid/disp/display.h ****                                          bool           on)
 164:../../libdaisy/src/hid/disp/display.h ****         = 0;
 165:../../libdaisy/src/hid/disp/display.h **** 
 166:../../libdaisy/src/hid/disp/display.h ****     /** 
 167:../../libdaisy/src/hid/disp/display.h ****     Moves the 'Cursor' position used for WriteChar, and WriteStr to the specified coordinate.
 168:../../libdaisy/src/hid/disp/display.h ****     \param x x pos
 169:../../libdaisy/src/hid/disp/display.h ****     \param y y pos
 170:../../libdaisy/src/hid/disp/display.h ****     */
 171:../../libdaisy/src/hid/disp/display.h ****     void SetCursor(uint16_t x, uint16_t y)
 172:../../libdaisy/src/hid/disp/display.h ****     {
 173:../../libdaisy/src/hid/disp/display.h ****         currentX_ = (x >= Width()) ? Width() - 1 : x;
 174:../../libdaisy/src/hid/disp/display.h ****         currentY_ = (y >= Height()) ? Height() - 1 : y;
 175:../../libdaisy/src/hid/disp/display.h ****     }
 176:../../libdaisy/src/hid/disp/display.h **** 
 177:../../libdaisy/src/hid/disp/display.h ****     /** 
 178:../../libdaisy/src/hid/disp/display.h ****     Writes the current display buffer to the OLED device using SPI or I2C depending on 
 179:../../libdaisy/src/hid/disp/display.h ****     how the object was initialized.
 180:../../libdaisy/src/hid/disp/display.h ****     */
 181:../../libdaisy/src/hid/disp/display.h ****     virtual void Update() = 0;
 182:../../libdaisy/src/hid/disp/display.h **** 
 183:../../libdaisy/src/hid/disp/display.h ****   protected:
 184:../../libdaisy/src/hid/disp/display.h ****     uint16_t currentX_;
 185:../../libdaisy/src/hid/disp/display.h ****     uint16_t currentY_;
 186:../../libdaisy/src/hid/disp/display.h **** };
 187:../../libdaisy/src/hid/disp/display.h **** 
 188:../../libdaisy/src/hid/disp/display.h **** /** This class is intended as a intermediary class for your actual implementation of the OneBitGrap
 189:../../libdaisy/src/hid/disp/display.h ****  *  interface. It uses the CRTP design pattern where the template argument is the child class. It p
 190:../../libdaisy/src/hid/disp/display.h ****  *  implementations for most of the functions, except DrawPixel(), Update() and Fill(), which you'l
 191:../../libdaisy/src/hid/disp/display.h ****  *  to provide in your child class.
ARM GAS  /tmp/ccjBmcCr.s 			page 10


 192:../../libdaisy/src/hid/disp/display.h ****  *  The main goal of this class is to provide common drawing functions without relying on massive a
 193:../../libdaisy/src/hid/disp/display.h ****  *  virtual function calls that would result in a performance loss. To achieve this, any drawing fu
 194:../../libdaisy/src/hid/disp/display.h ****  *  is implemented here and internally calls other drawing functions (e.g. DrawRect() which interna
 195:../../libdaisy/src/hid/disp/display.h ****  *  DrawPixel() and DrawLine()) makes these calls via the qualified name of these functions to expl
 196:../../libdaisy/src/hid/disp/display.h ****  *  suppress the virtual dispatch mechanism like this:
 197:../../libdaisy/src/hid/disp/display.h ****  * 
 198:../../libdaisy/src/hid/disp/display.h ****  *      ChildType::DrawPixel(...); // no virtual function call; direct call into the child class fu
 199:../../libdaisy/src/hid/disp/display.h ****  *  
 200:../../libdaisy/src/hid/disp/display.h ****  *  To create a custom OneBitGraphicsDisplay implementation, you can 
 201:../../libdaisy/src/hid/disp/display.h ****  *  A) inherit from OneBitGraphicsDisplay directly and provide all the drawing functions yourself
 202:../../libdaisy/src/hid/disp/display.h ****  *  B) Inherit from OneBitGraphicsDisplayImpl and only provide DrawPixel(), Fill() and Update()
 203:../../libdaisy/src/hid/disp/display.h ****  *     like this:
 204:../../libdaisy/src/hid/disp/display.h ****  *  
 205:../../libdaisy/src/hid/disp/display.h ****  *      class MyDisplayClass : public OneBitGraphicsDisplayImpl<MyDisplayClass> 
 206:../../libdaisy/src/hid/disp/display.h ****  *      {
 207:../../libdaisy/src/hid/disp/display.h ****  *      public:
 208:../../libdaisy/src/hid/disp/display.h ****  *          void Fill() override { ... };
 209:../../libdaisy/src/hid/disp/display.h ****  *          void DrawPixel(uint_fast8_t x, uint_fast8_t y, bool on) override { ... };
 210:../../libdaisy/src/hid/disp/display.h ****  *          void Update() override { ... }
 211:../../libdaisy/src/hid/disp/display.h ****  *      };
 212:../../libdaisy/src/hid/disp/display.h ****  *  
 213:../../libdaisy/src/hid/disp/display.h ****  */
 214:../../libdaisy/src/hid/disp/display.h **** template <class ChildType>
 215:../../libdaisy/src/hid/disp/display.h **** class OneBitGraphicsDisplayImpl : public OneBitGraphicsDisplay
 216:../../libdaisy/src/hid/disp/display.h **** {
 217:../../libdaisy/src/hid/disp/display.h ****   public:
 218:../../libdaisy/src/hid/disp/display.h ****     OneBitGraphicsDisplayImpl() {}
 219:../../libdaisy/src/hid/disp/display.h ****     virtual ~OneBitGraphicsDisplayImpl() {}
  64              		.loc 6 219 13 view .LVU9
  65              	.LBB421:
  66              	.LBI421:
  23:../../libdaisy/src/hid/disp/display.h **** 
  67              		.loc 6 23 13 view .LVU10
  23:../../libdaisy/src/hid/disp/display.h **** 
  68              		.loc 6 23 13 is_stmt 0 view .LVU11
  69              	.LBE421:
  70              	.LBE420:
  71              	.LBE419:
  72              	.LBB422:
  73              	.LBI422:
  74              		.file 7 "../../libdaisy/src/daisy_seed.h"
   1:../../libdaisy/src/daisy_seed.h **** #pragma once
   2:../../libdaisy/src/daisy_seed.h **** #ifndef DSY_SEED_H
   3:../../libdaisy/src/daisy_seed.h **** #define DSY_SEED_H
   4:../../libdaisy/src/daisy_seed.h **** 
   5:../../libdaisy/src/daisy_seed.h **** #include "daisy.h"
   6:../../libdaisy/src/daisy_seed.h **** 
   7:../../libdaisy/src/daisy_seed.h **** //Uncomment this out if you're still using the rev2 hardware
   8:../../libdaisy/src/daisy_seed.h **** //#define SEED_REV2
   9:../../libdaisy/src/daisy_seed.h **** 
  10:../../libdaisy/src/daisy_seed.h **** namespace daisy
  11:../../libdaisy/src/daisy_seed.h **** {
  12:../../libdaisy/src/daisy_seed.h **** /**
  13:../../libdaisy/src/daisy_seed.h ****    @brief This is the higher-level interface for the Daisy board. \n 
  14:../../libdaisy/src/daisy_seed.h ****     All basic peripheral configuration/initialization is setup here. \n
  15:../../libdaisy/src/daisy_seed.h **** 
  16:../../libdaisy/src/daisy_seed.h ****    @ingroup boards
ARM GAS  /tmp/ccjBmcCr.s 			page 11


  17:../../libdaisy/src/daisy_seed.h **** */
  18:../../libdaisy/src/daisy_seed.h **** class DaisySeed
  19:../../libdaisy/src/daisy_seed.h **** {
  20:../../libdaisy/src/daisy_seed.h ****   public:
  21:../../libdaisy/src/daisy_seed.h ****     DaisySeed() {}
  22:../../libdaisy/src/daisy_seed.h ****     ~DaisySeed() {}
  75              		.loc 7 22 5 is_stmt 1 view .LVU12
  76              	.LBB423:
  77              	.LBI423:
  78              		.file 8 "../../libdaisy/src/sys/system.h"
   1:../../libdaisy/src/sys/system.h **** #ifndef DSY_SYSTEM_H
   2:../../libdaisy/src/sys/system.h **** #define DSY_SYSTEM_H
   3:../../libdaisy/src/sys/system.h **** 
   4:../../libdaisy/src/sys/system.h **** #ifndef UNIT_TEST // for unit tests, a dummy implementation is provided below
   5:../../libdaisy/src/sys/system.h **** 
   6:../../libdaisy/src/sys/system.h **** #include <cstdint>
   7:../../libdaisy/src/sys/system.h **** #include "per/tim.h"
   8:../../libdaisy/src/sys/system.h **** 
   9:../../libdaisy/src/sys/system.h **** namespace daisy
  10:../../libdaisy/src/sys/system.h **** {
  11:../../libdaisy/src/sys/system.h **** /** A handle for interacting with the Core System. 
  12:../../libdaisy/src/sys/system.h ****  ** This includes the Clock tree, MPU, global DMA initialization,
  13:../../libdaisy/src/sys/system.h ****  ** cache handling, and any other necessary global initiailzation
  14:../../libdaisy/src/sys/system.h ****  **
  15:../../libdaisy/src/sys/system.h ****  ** @author shensley
  16:../../libdaisy/src/sys/system.h ****  ** @addtogroup system
  17:../../libdaisy/src/sys/system.h ****  */
  18:../../libdaisy/src/sys/system.h **** class System
  19:../../libdaisy/src/sys/system.h **** {
  20:../../libdaisy/src/sys/system.h ****   public:
  21:../../libdaisy/src/sys/system.h ****     /** Contains settings for initializing the System */
  22:../../libdaisy/src/sys/system.h ****     struct Config
  23:../../libdaisy/src/sys/system.h ****     {
  24:../../libdaisy/src/sys/system.h ****         /** Specifies the system clock frequency that feeds APB/AHB clocks, etc. */
  25:../../libdaisy/src/sys/system.h ****         enum class SysClkFreq
  26:../../libdaisy/src/sys/system.h ****         {
  27:../../libdaisy/src/sys/system.h ****             FREQ_400MHZ,
  28:../../libdaisy/src/sys/system.h ****             FREQ_480MHZ,
  29:../../libdaisy/src/sys/system.h ****         };
  30:../../libdaisy/src/sys/system.h **** 
  31:../../libdaisy/src/sys/system.h ****         /** Method to call on the struct to set to defaults
  32:../../libdaisy/src/sys/system.h ****          ** CPU Freq set to 400MHz
  33:../../libdaisy/src/sys/system.h ****          ** Cache Enabled 
  34:../../libdaisy/src/sys/system.h ****          ** */
  35:../../libdaisy/src/sys/system.h ****         void Defaults()
  36:../../libdaisy/src/sys/system.h ****         {
  37:../../libdaisy/src/sys/system.h ****             cpu_freq   = SysClkFreq::FREQ_400MHZ;
  38:../../libdaisy/src/sys/system.h ****             use_dcache = true;
  39:../../libdaisy/src/sys/system.h ****             use_icache = true;
  40:../../libdaisy/src/sys/system.h ****         }
  41:../../libdaisy/src/sys/system.h **** 
  42:../../libdaisy/src/sys/system.h ****         /** Method to call on the struct to set to boost mode:
  43:../../libdaisy/src/sys/system.h ****          ** CPU Freq set to 480MHz
  44:../../libdaisy/src/sys/system.h ****          ** Cache Enabled 
  45:../../libdaisy/src/sys/system.h ****          ** */
  46:../../libdaisy/src/sys/system.h ****         void Boost()
  47:../../libdaisy/src/sys/system.h ****         {
ARM GAS  /tmp/ccjBmcCr.s 			page 12


  48:../../libdaisy/src/sys/system.h ****             cpu_freq   = SysClkFreq::FREQ_480MHZ;
  49:../../libdaisy/src/sys/system.h ****             use_dcache = true;
  50:../../libdaisy/src/sys/system.h ****             use_icache = true;
  51:../../libdaisy/src/sys/system.h ****         }
  52:../../libdaisy/src/sys/system.h **** 
  53:../../libdaisy/src/sys/system.h ****         SysClkFreq cpu_freq;
  54:../../libdaisy/src/sys/system.h ****         bool       use_dcache;
  55:../../libdaisy/src/sys/system.h ****         bool       use_icache;
  56:../../libdaisy/src/sys/system.h ****     };
  57:../../libdaisy/src/sys/system.h **** 
  58:../../libdaisy/src/sys/system.h ****     System() {}
  59:../../libdaisy/src/sys/system.h ****     ~System() {}
  79              		.loc 8 59 5 view .LVU13
  80              		.loc 8 59 5 is_stmt 0 view .LVU14
  81              	.LBE423:
  82              	.LBB424:
  83              	.LBI424:
  84              		.file 9 "../../libdaisy/src/hid/usb.h"
   1:../../libdaisy/src/hid/usb.h **** #pragma once
   2:../../libdaisy/src/hid/usb.h **** #ifndef DSY_HID_USB_H
   3:../../libdaisy/src/hid/usb.h **** #define DSY_HID_USB_H
   4:../../libdaisy/src/hid/usb.h **** #include <stdint.h>
   5:../../libdaisy/src/hid/usb.h **** #include <stdlib.h>
   6:../../libdaisy/src/hid/usb.h **** 
   7:../../libdaisy/src/hid/usb.h **** namespace daisy
   8:../../libdaisy/src/hid/usb.h **** /** @addtogroup externals
   9:../../libdaisy/src/hid/usb.h ****     @{
  10:../../libdaisy/src/hid/usb.h **** */
  11:../../libdaisy/src/hid/usb.h **** 
  12:../../libdaisy/src/hid/usb.h **** {
  13:../../libdaisy/src/hid/usb.h **** /** 
  14:../../libdaisy/src/hid/usb.h ****     @brief Interface for initializing and using the USB Peripherals on the daisy
  15:../../libdaisy/src/hid/usb.h ****     @author Stephen Hensley
  16:../../libdaisy/src/hid/usb.h ****     @date December 2019
  17:../../libdaisy/src/hid/usb.h **** */
  18:../../libdaisy/src/hid/usb.h **** class UsbHandle
  19:../../libdaisy/src/hid/usb.h **** {
  20:../../libdaisy/src/hid/usb.h ****   public:
  21:../../libdaisy/src/hid/usb.h ****     /** Return values for USBHandle Functions */
  22:../../libdaisy/src/hid/usb.h ****     enum class Result
  23:../../libdaisy/src/hid/usb.h ****     {
  24:../../libdaisy/src/hid/usb.h ****         OK,
  25:../../libdaisy/src/hid/usb.h ****         ERR,
  26:../../libdaisy/src/hid/usb.h ****     };
  27:../../libdaisy/src/hid/usb.h **** 
  28:../../libdaisy/src/hid/usb.h ****     /** Specified which of the two USB Peripherals to initialize. */
  29:../../libdaisy/src/hid/usb.h ****     enum UsbPeriph
  30:../../libdaisy/src/hid/usb.h ****     {
  31:../../libdaisy/src/hid/usb.h ****         FS_INTERNAL, /**< Internal pin */
  32:../../libdaisy/src/hid/usb.h ****         FS_EXTERNAL, /**< FS External D+ pin is Pin 38 (GPIO32). FS External D- pin is Pin 37 (GPIO
  33:../../libdaisy/src/hid/usb.h ****         FS_BOTH,     /**< Both */
  34:../../libdaisy/src/hid/usb.h ****     };
  35:../../libdaisy/src/hid/usb.h **** 
  36:../../libdaisy/src/hid/usb.h **** 
  37:../../libdaisy/src/hid/usb.h ****     /** Function called upon reception of a buffer */
  38:../../libdaisy/src/hid/usb.h ****     typedef void (*ReceiveCallback)(uint8_t* buff, uint32_t* len);
  39:../../libdaisy/src/hid/usb.h **** 
ARM GAS  /tmp/ccjBmcCr.s 			page 13


  40:../../libdaisy/src/hid/usb.h ****     UsbHandle() {}
  41:../../libdaisy/src/hid/usb.h **** 
  42:../../libdaisy/src/hid/usb.h ****     ~UsbHandle() {}
  85              		.loc 9 42 5 is_stmt 1 view .LVU15
  86              		.loc 9 42 5 is_stmt 0 view .LVU16
  87              	.LBE424:
  88              	.LBB425:
  89              	.LBI425:
  90              		.file 10 "../../libdaisy/src/per/adc.h"
   1:../../libdaisy/src/per/adc.h **** #pragma once
   2:../../libdaisy/src/per/adc.h **** #ifndef DSY_ADC_H
   3:../../libdaisy/src/per/adc.h **** #define DSY_ADC_H /**< Macro */
   4:../../libdaisy/src/per/adc.h **** #include <stdint.h>
   5:../../libdaisy/src/per/adc.h **** #include <stdlib.h>
   6:../../libdaisy/src/per/adc.h **** #include "daisy_core.h"
   7:../../libdaisy/src/per/adc.h **** #include "per/gpio.h"
   8:../../libdaisy/src/per/adc.h **** 
   9:../../libdaisy/src/per/adc.h **** #define DSY_ADC_MAX_CHANNELS 14 /**< Maximum number of ADC channels */
  10:../../libdaisy/src/per/adc.h **** 
  11:../../libdaisy/src/per/adc.h **** namespace daisy
  12:../../libdaisy/src/per/adc.h **** {
  13:../../libdaisy/src/per/adc.h **** /** @addtogroup analog_digital_conversion
  14:../../libdaisy/src/per/adc.h ****     @{
  15:../../libdaisy/src/per/adc.h **** */
  16:../../libdaisy/src/per/adc.h **** 
  17:../../libdaisy/src/per/adc.h **** /* While there may not be many configuration options here,
  18:../../libdaisy/src/per/adc.h **** using a struct like this allows us to add more configuration
  19:../../libdaisy/src/per/adc.h **** later without breaking existing functionality.
  20:../../libdaisy/src/per/adc.h **** */
  21:../../libdaisy/src/per/adc.h **** 
  22:../../libdaisy/src/per/adc.h **** /** Configuration Structure for a given channel */
  23:../../libdaisy/src/per/adc.h **** struct AdcChannelConfig
  24:../../libdaisy/src/per/adc.h **** {
  25:../../libdaisy/src/per/adc.h ****     /** Which pin to use for multiplexing */
  26:../../libdaisy/src/per/adc.h ****     enum MuxPin
  27:../../libdaisy/src/per/adc.h ****     {
  28:../../libdaisy/src/per/adc.h ****         MUX_SEL_0,    /**< & */
  29:../../libdaisy/src/per/adc.h ****         MUX_SEL_1,    /**< & */
  30:../../libdaisy/src/per/adc.h ****         MUX_SEL_2,    /**< & */
  31:../../libdaisy/src/per/adc.h ****         MUX_SEL_LAST, /**< & */
  32:../../libdaisy/src/per/adc.h ****     };
  33:../../libdaisy/src/per/adc.h **** 
  34:../../libdaisy/src/per/adc.h ****     /** Initializes a single ADC pin as an ADC. 
  35:../../libdaisy/src/per/adc.h ****     \param pin Pin to init.
  36:../../libdaisy/src/per/adc.h ****      */
  37:../../libdaisy/src/per/adc.h ****     void InitSingle(dsy_gpio_pin pin);
  38:../../libdaisy/src/per/adc.h **** 
  39:../../libdaisy/src/per/adc.h ****     /** 
  40:../../libdaisy/src/per/adc.h ****     Initializes a single ADC pin as a Multiplexed ADC.
  41:../../libdaisy/src/per/adc.h ****     Requires a CD405X Multiplexer connected to the pin.
  42:../../libdaisy/src/per/adc.h ****     You only need to supply the mux pins that are required,
  43:../../libdaisy/src/per/adc.h ****     e.g. a 4052 mux would only require mux_0 and mux_1.
  44:../../libdaisy/src/per/adc.h ****     Internal Callbacks handle the pin addressing.
  45:../../libdaisy/src/per/adc.h ****     \param mux_channels must be 1-8
  46:../../libdaisy/src/per/adc.h ****     \param mux_0 First mux pin
  47:../../libdaisy/src/per/adc.h ****     \param mux_1 Second mux pin
  48:../../libdaisy/src/per/adc.h ****     \param mux_2 Third mux pin
ARM GAS  /tmp/ccjBmcCr.s 			page 14


  49:../../libdaisy/src/per/adc.h ****     \param adc_pin &
  50:../../libdaisy/src/per/adc.h ****     */
  51:../../libdaisy/src/per/adc.h ****     void InitMux(dsy_gpio_pin adc_pin,
  52:../../libdaisy/src/per/adc.h ****                  size_t       mux_channels,
  53:../../libdaisy/src/per/adc.h ****                  dsy_gpio_pin mux_0,
  54:../../libdaisy/src/per/adc.h ****                  dsy_gpio_pin mux_1 = {DSY_GPIOX, 0},
  55:../../libdaisy/src/per/adc.h ****                  dsy_gpio_pin mux_2 = {DSY_GPIOX, 0});
  56:../../libdaisy/src/per/adc.h **** 
  57:../../libdaisy/src/per/adc.h ****     dsy_gpio pin_;                   /**< & */
  58:../../libdaisy/src/per/adc.h ****     dsy_gpio mux_pin_[MUX_SEL_LAST]; /**< & */
  59:../../libdaisy/src/per/adc.h ****     uint8_t  mux_channels_;          /**< & */
  60:../../libdaisy/src/per/adc.h **** };
  61:../../libdaisy/src/per/adc.h **** 
  62:../../libdaisy/src/per/adc.h **** /**
  63:../../libdaisy/src/per/adc.h ****    Handler for analog to digital conversion
  64:../../libdaisy/src/per/adc.h **** */
  65:../../libdaisy/src/per/adc.h **** class AdcHandle
  66:../../libdaisy/src/per/adc.h **** {
  67:../../libdaisy/src/per/adc.h ****   public:
  68:../../libdaisy/src/per/adc.h ****     /** Supported oversampling amounts */
  69:../../libdaisy/src/per/adc.h ****     enum OverSampling
  70:../../libdaisy/src/per/adc.h ****     {
  71:../../libdaisy/src/per/adc.h ****         OVS_NONE, /**< & */
  72:../../libdaisy/src/per/adc.h ****         OVS_4,    /**< & */
  73:../../libdaisy/src/per/adc.h ****         OVS_8,    /**< & */
  74:../../libdaisy/src/per/adc.h ****         OVS_16,   /**< & */
  75:../../libdaisy/src/per/adc.h ****         OVS_32,   /**< & */
  76:../../libdaisy/src/per/adc.h ****         OVS_64,   /**< & */
  77:../../libdaisy/src/per/adc.h ****         OVS_128,  /**< & */
  78:../../libdaisy/src/per/adc.h ****         OVS_256,  /**< & */
  79:../../libdaisy/src/per/adc.h ****         OVS_512,  /**< & */
  80:../../libdaisy/src/per/adc.h ****         OVS_1024, /**< & */
  81:../../libdaisy/src/per/adc.h ****         OVS_LAST, /**< & */
  82:../../libdaisy/src/per/adc.h ****     };
  83:../../libdaisy/src/per/adc.h **** 
  84:../../libdaisy/src/per/adc.h ****     AdcHandle() {}
  85:../../libdaisy/src/per/adc.h ****     ~AdcHandle() {}
  91              		.loc 10 85 5 is_stmt 1 view .LVU17
  92              		.loc 10 85 5 is_stmt 0 view .LVU18
  93              	.LBE425:
  94              	.LBB426:
  95              	.LBI426:
  96              		.file 11 "../../libdaisy/src/hid/audio.h"
   1:../../libdaisy/src/hid/audio.h **** #ifndef DSY_AUDIO_H
   2:../../libdaisy/src/hid/audio.h **** #define DSY_AUDIO_H /**< & */
   3:../../libdaisy/src/hid/audio.h **** 
   4:../../libdaisy/src/hid/audio.h **** #include "per/sai.h"
   5:../../libdaisy/src/hid/audio.h **** 
   6:../../libdaisy/src/hid/audio.h **** namespace daisy
   7:../../libdaisy/src/hid/audio.h **** {
   8:../../libdaisy/src/hid/audio.h **** class AudioHandle
   9:../../libdaisy/src/hid/audio.h **** {
  10:../../libdaisy/src/hid/audio.h ****   public:
  11:../../libdaisy/src/hid/audio.h ****     /** Manually configurable details about the Audio Engine */
  12:../../libdaisy/src/hid/audio.h ****     /** TODO: Figure out how to get samplerate in here. */
  13:../../libdaisy/src/hid/audio.h ****     struct Config
  14:../../libdaisy/src/hid/audio.h ****     {
ARM GAS  /tmp/ccjBmcCr.s 			page 15


  15:../../libdaisy/src/hid/audio.h ****         size_t                        blocksize;
  16:../../libdaisy/src/hid/audio.h ****         SaiHandle::Config::SampleRate samplerate;
  17:../../libdaisy/src/hid/audio.h ****         float                         postgain;
  18:../../libdaisy/src/hid/audio.h ****     };
  19:../../libdaisy/src/hid/audio.h **** 
  20:../../libdaisy/src/hid/audio.h ****     enum class Result
  21:../../libdaisy/src/hid/audio.h ****     {
  22:../../libdaisy/src/hid/audio.h ****         OK,
  23:../../libdaisy/src/hid/audio.h ****         ERR,
  24:../../libdaisy/src/hid/audio.h ****     };
  25:../../libdaisy/src/hid/audio.h **** 
  26:../../libdaisy/src/hid/audio.h ****     /** Non-Interleaving input buffer
  27:../../libdaisy/src/hid/audio.h ****      * Buffer arranged by float[chn][sample] 
  28:../../libdaisy/src/hid/audio.h ****      * const so that the user can't modify the input
  29:../../libdaisy/src/hid/audio.h ****     */
  30:../../libdaisy/src/hid/audio.h ****     typedef const float* const* InputBuffer;
  31:../../libdaisy/src/hid/audio.h **** 
  32:../../libdaisy/src/hid/audio.h ****     /** Non-Interleaving output buffer
  33:../../libdaisy/src/hid/audio.h ****      * Arranged by float[chn][sample] 
  34:../../libdaisy/src/hid/audio.h ****     */
  35:../../libdaisy/src/hid/audio.h ****     typedef float** OutputBuffer;
  36:../../libdaisy/src/hid/audio.h **** 
  37:../../libdaisy/src/hid/audio.h ****     /** Type for a Non-Interleaving audio callback 
  38:../../libdaisy/src/hid/audio.h ****    * Non-Interleaving audio callbacks in daisy will be of this type
  39:../../libdaisy/src/hid/audio.h ****   */
  40:../../libdaisy/src/hid/audio.h ****     typedef void (*AudioCallback)(InputBuffer  in,
  41:../../libdaisy/src/hid/audio.h ****                                   OutputBuffer out,
  42:../../libdaisy/src/hid/audio.h ****                                   size_t       size);
  43:../../libdaisy/src/hid/audio.h **** 
  44:../../libdaisy/src/hid/audio.h ****     /** Interleaving Input buffer
  45:../../libdaisy/src/hid/audio.h ****      ** audio is prepared as { L0, R0, L1, R1, . . . LN, RN }]
  46:../../libdaisy/src/hid/audio.h ****      ** this is const, as the user shouldn't modify it
  47:../../libdaisy/src/hid/audio.h ****     */
  48:../../libdaisy/src/hid/audio.h ****     typedef const float* InterleavingInputBuffer;
  49:../../libdaisy/src/hid/audio.h **** 
  50:../../libdaisy/src/hid/audio.h ****     /** Interleaving Output buffer 
  51:../../libdaisy/src/hid/audio.h ****      ** audio is prepared as { L0, R0, L1, R1, . . . LN, RN }
  52:../../libdaisy/src/hid/audio.h ****     */
  53:../../libdaisy/src/hid/audio.h ****     typedef float* InterleavingOutputBuffer;
  54:../../libdaisy/src/hid/audio.h **** 
  55:../../libdaisy/src/hid/audio.h ****     /** Interleaving Audio Callback 
  56:../../libdaisy/src/hid/audio.h ****    * Interleaving audio callbacks in daisy must be of this type
  57:../../libdaisy/src/hid/audio.h ****   */
  58:../../libdaisy/src/hid/audio.h ****     typedef void (*InterleavingAudioCallback)(InterleavingInputBuffer  in,
  59:../../libdaisy/src/hid/audio.h ****                                               InterleavingOutputBuffer out,
  60:../../libdaisy/src/hid/audio.h ****                                               size_t                   size);
  61:../../libdaisy/src/hid/audio.h **** 
  62:../../libdaisy/src/hid/audio.h ****     AudioHandle() : pimpl_(nullptr) {}
  63:../../libdaisy/src/hid/audio.h ****     ~AudioHandle() {}
  97              		.loc 11 63 5 is_stmt 1 view .LVU19
  98              		.loc 11 63 5 is_stmt 0 view .LVU20
  99              	.LBE426:
 100              	.LBE422:
 101              		.loc 1 84 20 view .LVU21
 102 0000 7047     		bx	lr
 103              		.cfi_endproc
 104              	.LFE2063:
ARM GAS  /tmp/ccjBmcCr.s 			page 16


 106              		.weak	_ZN5daisy10DaisyFieldD1Ev
 107              		.thumb_set _ZN5daisy10DaisyFieldD1Ev,_ZN5daisy10DaisyFieldD2Ev
 108 0002 00BF     		.section	.text._ZN5daisy11OledDisplayINS_13SSD130xDriverILj128ELj64ENS_24SSD130x4WireSpiTransportE
 109              		.align	1
 110              		.p2align 2,,3
 111              		.weak	_ZN5daisy11OledDisplayINS_13SSD130xDriverILj128ELj64ENS_24SSD130x4WireSpiTransportEEEED2Ev
 112              		.syntax unified
 113              		.thumb
 114              		.thumb_func
 115              		.fpu fpv5-d16
 117              	_ZN5daisy11OledDisplayINS_13SSD130xDriverILj128ELj64ENS_24SSD130x4WireSpiTransportEEEED2Ev:
 118              	.LVL1:
 119              	.LFB4260:
 120              		.loc 5 17 13 is_stmt 1 view -0
 121              		.cfi_startproc
 122              		@ args = 0, pretend = 0, frame = 0
 123              		@ frame_needed = 0, uses_anonymous_args = 0
 124              		@ link register save eliminated.
 125              	.LBB427:
 126              	.LBI427:
 127              		.loc 6 219 13 view .LVU23
 128              	.LBB428:
 129              	.LBI428:
  23:../../libdaisy/src/hid/disp/display.h **** 
 130              		.loc 6 23 13 view .LVU24
  23:../../libdaisy/src/hid/disp/display.h **** 
 131              		.loc 6 23 13 is_stmt 0 view .LVU25
 132              	.LBE428:
 133              	.LBE427:
 134              		.loc 5 17 29 view .LVU26
 135 0000 7047     		bx	lr
 136              		.cfi_endproc
 137              	.LFE4260:
 139              		.weak	_ZN5daisy11OledDisplayINS_13SSD130xDriverILj128ELj64ENS_24SSD130x4WireSpiTransportEEEED1Ev
 140              		.thumb_set _ZN5daisy11OledDisplayINS_13SSD130xDriverILj128ELj64ENS_24SSD130x4WireSpiTransportEEEED
 141 0002 00BF     		.section	.text._ZN5daisy11OledDisplayINS_13SSD130xDriverILj128ELj64ENS_24SSD130x4WireSpiTransportE
 142              		.align	1
 143              		.p2align 2,,3
 144              		.weak	_ZN5daisy11OledDisplayINS_13SSD130xDriverILj128ELj64ENS_24SSD130x4WireSpiTransportEEEE4FillE
 145              		.syntax unified
 146              		.thumb
 147              		.thumb_func
 148              		.fpu fpv5-d16
 150              	_ZN5daisy11OledDisplayINS_13SSD130xDriverILj128ELj64ENS_24SSD130x4WireSpiTransportEEEE4FillEb:
 151              	.LVL2:
 152              	.LFB4570:
  18:../../libdaisy/src/hid/disp/oled_display.h **** 
  19:../../libdaisy/src/hid/disp/oled_display.h ****     struct Config
  20:../../libdaisy/src/hid/disp/oled_display.h ****     {
  21:../../libdaisy/src/hid/disp/oled_display.h ****         typename DisplayDriver::Config driver_config;
  22:../../libdaisy/src/hid/disp/oled_display.h ****     };
  23:../../libdaisy/src/hid/disp/oled_display.h **** 
  24:../../libdaisy/src/hid/disp/oled_display.h ****     void Init(Config config) { driver_.Init(config.driver_config); }
  25:../../libdaisy/src/hid/disp/oled_display.h **** 
  26:../../libdaisy/src/hid/disp/oled_display.h ****     uint16_t Height() const override { return driver_.Height(); }
  27:../../libdaisy/src/hid/disp/oled_display.h ****     uint16_t Width() const override { return driver_.Width(); }
  28:../../libdaisy/src/hid/disp/oled_display.h **** 
ARM GAS  /tmp/ccjBmcCr.s 			page 17


  29:../../libdaisy/src/hid/disp/oled_display.h ****     /** 
  30:../../libdaisy/src/hid/disp/oled_display.h ****     Fills the entire display with either on/off.
  31:../../libdaisy/src/hid/disp/oled_display.h ****     \param on Sets on or off.
  32:../../libdaisy/src/hid/disp/oled_display.h ****     */
  33:../../libdaisy/src/hid/disp/oled_display.h ****     void Fill(bool on) override { driver_.Fill(on); }
 153              		.loc 5 33 10 is_stmt 1 view -0
 154              		.cfi_startproc
 155              		@ args = 0, pretend = 0, frame = 0
 156              		@ frame_needed = 0, uses_anonymous_args = 0
 157              		@ link register save eliminated.
 158              	.LBB429:
 159              	.LBI429:
 160              		.file 12 "../../libdaisy/src/dev/oled_ssd130x.h"
   1:../../libdaisy/src/dev/oled_ssd130x.h **** #pragma once
   2:../../libdaisy/src/dev/oled_ssd130x.h **** #ifndef SA_OLED_SSD130X_H
   3:../../libdaisy/src/dev/oled_ssd130x.h **** #define SA_OLED_SSD130X_H /**< & */
   4:../../libdaisy/src/dev/oled_ssd130x.h **** 
   5:../../libdaisy/src/dev/oled_ssd130x.h **** #include "per/i2c.h"
   6:../../libdaisy/src/dev/oled_ssd130x.h **** #include "per/spi.h"
   7:../../libdaisy/src/dev/oled_ssd130x.h **** #include "per/gpio.h"
   8:../../libdaisy/src/dev/oled_ssd130x.h **** #include "sys/system.h"
   9:../../libdaisy/src/dev/oled_ssd130x.h **** 
  10:../../libdaisy/src/dev/oled_ssd130x.h **** namespace daisy
  11:../../libdaisy/src/dev/oled_ssd130x.h **** {
  12:../../libdaisy/src/dev/oled_ssd130x.h **** /**
  13:../../libdaisy/src/dev/oled_ssd130x.h ****  * I2C Transport for SSD1306 / SSD1309 OLED display devices
  14:../../libdaisy/src/dev/oled_ssd130x.h ****  */
  15:../../libdaisy/src/dev/oled_ssd130x.h **** class SSD130xI2CTransport
  16:../../libdaisy/src/dev/oled_ssd130x.h **** {
  17:../../libdaisy/src/dev/oled_ssd130x.h ****   public:
  18:../../libdaisy/src/dev/oled_ssd130x.h ****     struct Config
  19:../../libdaisy/src/dev/oled_ssd130x.h ****     {
  20:../../libdaisy/src/dev/oled_ssd130x.h ****         I2CHandle::Config i2c_config;
  21:../../libdaisy/src/dev/oled_ssd130x.h ****         uint8_t           i2c_address;
  22:../../libdaisy/src/dev/oled_ssd130x.h ****         void              Defaults()
  23:../../libdaisy/src/dev/oled_ssd130x.h ****         {
  24:../../libdaisy/src/dev/oled_ssd130x.h ****             i2c_config.periph         = I2CHandle::Config::Peripheral::I2C_1;
  25:../../libdaisy/src/dev/oled_ssd130x.h ****             i2c_config.speed          = I2CHandle::Config::Speed::I2C_1MHZ;
  26:../../libdaisy/src/dev/oled_ssd130x.h ****             i2c_config.mode           = I2CHandle::Config::Mode::I2C_MASTER;
  27:../../libdaisy/src/dev/oled_ssd130x.h ****             i2c_config.pin_config.scl = {DSY_GPIOB, 8};
  28:../../libdaisy/src/dev/oled_ssd130x.h ****             i2c_config.pin_config.sda = {DSY_GPIOB, 9};
  29:../../libdaisy/src/dev/oled_ssd130x.h ****             i2c_address               = 0x3C;
  30:../../libdaisy/src/dev/oled_ssd130x.h ****         }
  31:../../libdaisy/src/dev/oled_ssd130x.h ****     };
  32:../../libdaisy/src/dev/oled_ssd130x.h ****     void Init(const Config& config)
  33:../../libdaisy/src/dev/oled_ssd130x.h ****     {
  34:../../libdaisy/src/dev/oled_ssd130x.h ****         i2c_address_ = config.i2c_address;
  35:../../libdaisy/src/dev/oled_ssd130x.h ****         i2c_.Init(config.i2c_config);
  36:../../libdaisy/src/dev/oled_ssd130x.h ****     };
  37:../../libdaisy/src/dev/oled_ssd130x.h ****     void SendCommand(uint8_t cmd)
  38:../../libdaisy/src/dev/oled_ssd130x.h ****     {
  39:../../libdaisy/src/dev/oled_ssd130x.h ****         uint8_t buf[2] = {0X00, cmd};
  40:../../libdaisy/src/dev/oled_ssd130x.h ****         i2c_.TransmitBlocking(i2c_address_, buf, 2, 1000);
  41:../../libdaisy/src/dev/oled_ssd130x.h ****     };
  42:../../libdaisy/src/dev/oled_ssd130x.h **** 
  43:../../libdaisy/src/dev/oled_ssd130x.h ****     void SendData(uint8_t* buff, size_t size)
  44:../../libdaisy/src/dev/oled_ssd130x.h ****     {
ARM GAS  /tmp/ccjBmcCr.s 			page 18


  45:../../libdaisy/src/dev/oled_ssd130x.h ****         for(size_t i = 0; i < size; i++)
  46:../../libdaisy/src/dev/oled_ssd130x.h ****         {
  47:../../libdaisy/src/dev/oled_ssd130x.h ****             uint8_t buf[2] = {0X40, buff[i]};
  48:../../libdaisy/src/dev/oled_ssd130x.h ****             i2c_.TransmitBlocking(i2c_address_, buf, 2, 1000);
  49:../../libdaisy/src/dev/oled_ssd130x.h ****         }
  50:../../libdaisy/src/dev/oled_ssd130x.h ****     };
  51:../../libdaisy/src/dev/oled_ssd130x.h **** 
  52:../../libdaisy/src/dev/oled_ssd130x.h ****   private:
  53:../../libdaisy/src/dev/oled_ssd130x.h ****     daisy::I2CHandle i2c_;
  54:../../libdaisy/src/dev/oled_ssd130x.h ****     uint8_t          i2c_address_;
  55:../../libdaisy/src/dev/oled_ssd130x.h **** };
  56:../../libdaisy/src/dev/oled_ssd130x.h **** 
  57:../../libdaisy/src/dev/oled_ssd130x.h **** /**
  58:../../libdaisy/src/dev/oled_ssd130x.h ****  * 4 Wire SPI Transport for SSD1306 / SSD1309 OLED display devices
  59:../../libdaisy/src/dev/oled_ssd130x.h ****  */
  60:../../libdaisy/src/dev/oled_ssd130x.h **** class SSD130x4WireSpiTransport
  61:../../libdaisy/src/dev/oled_ssd130x.h **** {
  62:../../libdaisy/src/dev/oled_ssd130x.h ****   public:
  63:../../libdaisy/src/dev/oled_ssd130x.h ****     struct Config
  64:../../libdaisy/src/dev/oled_ssd130x.h ****     {
  65:../../libdaisy/src/dev/oled_ssd130x.h ****         struct
  66:../../libdaisy/src/dev/oled_ssd130x.h ****         {
  67:../../libdaisy/src/dev/oled_ssd130x.h ****             dsy_gpio_pin dc;    /**< & */
  68:../../libdaisy/src/dev/oled_ssd130x.h ****             dsy_gpio_pin reset; /**< & */
  69:../../libdaisy/src/dev/oled_ssd130x.h ****         } pin_config;
  70:../../libdaisy/src/dev/oled_ssd130x.h ****         void Defaults()
  71:../../libdaisy/src/dev/oled_ssd130x.h ****         {
  72:../../libdaisy/src/dev/oled_ssd130x.h ****             pin_config.dc    = {DSY_GPIOB, 4};
  73:../../libdaisy/src/dev/oled_ssd130x.h ****             pin_config.reset = {DSY_GPIOB, 15};
  74:../../libdaisy/src/dev/oled_ssd130x.h ****         }
  75:../../libdaisy/src/dev/oled_ssd130x.h ****     };
  76:../../libdaisy/src/dev/oled_ssd130x.h ****     void Init(const Config& config)
  77:../../libdaisy/src/dev/oled_ssd130x.h ****     {
  78:../../libdaisy/src/dev/oled_ssd130x.h ****         // Initialize both GPIO
  79:../../libdaisy/src/dev/oled_ssd130x.h ****         pin_dc_.mode = DSY_GPIO_MODE_OUTPUT_PP;
  80:../../libdaisy/src/dev/oled_ssd130x.h ****         pin_dc_.pin  = config.pin_config.dc;
  81:../../libdaisy/src/dev/oled_ssd130x.h ****         dsy_gpio_init(&pin_dc_);
  82:../../libdaisy/src/dev/oled_ssd130x.h ****         pin_reset_.mode = DSY_GPIO_MODE_OUTPUT_PP;
  83:../../libdaisy/src/dev/oled_ssd130x.h ****         pin_reset_.pin  = config.pin_config.reset;
  84:../../libdaisy/src/dev/oled_ssd130x.h ****         dsy_gpio_init(&pin_reset_);
  85:../../libdaisy/src/dev/oled_ssd130x.h ****         // Initialize SPI
  86:../../libdaisy/src/dev/oled_ssd130x.h ****         SpiHandle::Config spi_config;
  87:../../libdaisy/src/dev/oled_ssd130x.h ****         spi_config.periph    = SpiHandle::Config::Peripheral::SPI_1;
  88:../../libdaisy/src/dev/oled_ssd130x.h ****         spi_config.mode      = SpiHandle::Config::Mode::MASTER;
  89:../../libdaisy/src/dev/oled_ssd130x.h ****         spi_config.direction = SpiHandle::Config::Direction::TWO_LINES_TX_ONLY;
  90:../../libdaisy/src/dev/oled_ssd130x.h ****         spi_config.datasize  = 8;
  91:../../libdaisy/src/dev/oled_ssd130x.h ****         spi_config.clock_polarity = SpiHandle::Config::ClockPolarity::LOW;
  92:../../libdaisy/src/dev/oled_ssd130x.h ****         spi_config.clock_phase    = SpiHandle::Config::ClockPhase::ONE_EDGE;
  93:../../libdaisy/src/dev/oled_ssd130x.h ****         spi_config.nss            = SpiHandle::Config::NSS::HARD_OUTPUT;
  94:../../libdaisy/src/dev/oled_ssd130x.h ****         spi_config.baud_prescaler = SpiHandle::Config::BaudPrescaler::PS_8;
  95:../../libdaisy/src/dev/oled_ssd130x.h **** 
  96:../../libdaisy/src/dev/oled_ssd130x.h ****         spi_config.pin_config.sclk = {DSY_GPIOG, 11};
  97:../../libdaisy/src/dev/oled_ssd130x.h ****         spi_config.pin_config.miso = {DSY_GPIOX, 0};
  98:../../libdaisy/src/dev/oled_ssd130x.h ****         spi_config.pin_config.mosi = {DSY_GPIOB, 5};
  99:../../libdaisy/src/dev/oled_ssd130x.h ****         spi_config.pin_config.nss  = {DSY_GPIOG, 10};
 100:../../libdaisy/src/dev/oled_ssd130x.h **** 
 101:../../libdaisy/src/dev/oled_ssd130x.h ****         spi_.Init(spi_config);
ARM GAS  /tmp/ccjBmcCr.s 			page 19


 102:../../libdaisy/src/dev/oled_ssd130x.h **** 
 103:../../libdaisy/src/dev/oled_ssd130x.h ****         // Reset and Configure OLED.
 104:../../libdaisy/src/dev/oled_ssd130x.h ****         dsy_gpio_write(&pin_reset_, 0);
 105:../../libdaisy/src/dev/oled_ssd130x.h ****         System::Delay(10);
 106:../../libdaisy/src/dev/oled_ssd130x.h ****         dsy_gpio_write(&pin_reset_, 1);
 107:../../libdaisy/src/dev/oled_ssd130x.h ****         System::Delay(10);
 108:../../libdaisy/src/dev/oled_ssd130x.h ****     };
 109:../../libdaisy/src/dev/oled_ssd130x.h ****     void SendCommand(uint8_t cmd)
 110:../../libdaisy/src/dev/oled_ssd130x.h ****     {
 111:../../libdaisy/src/dev/oled_ssd130x.h ****         dsy_gpio_write(&pin_dc_, 0);
 112:../../libdaisy/src/dev/oled_ssd130x.h ****         spi_.BlockingTransmit(&cmd, 1);
 113:../../libdaisy/src/dev/oled_ssd130x.h ****     };
 114:../../libdaisy/src/dev/oled_ssd130x.h **** 
 115:../../libdaisy/src/dev/oled_ssd130x.h ****     void SendData(uint8_t* buff, size_t size)
 116:../../libdaisy/src/dev/oled_ssd130x.h ****     {
 117:../../libdaisy/src/dev/oled_ssd130x.h ****         dsy_gpio_write(&pin_dc_, 1);
 118:../../libdaisy/src/dev/oled_ssd130x.h ****         spi_.BlockingTransmit(buff, size);
 119:../../libdaisy/src/dev/oled_ssd130x.h ****     };
 120:../../libdaisy/src/dev/oled_ssd130x.h **** 
 121:../../libdaisy/src/dev/oled_ssd130x.h ****   private:
 122:../../libdaisy/src/dev/oled_ssd130x.h ****     SpiHandle spi_;
 123:../../libdaisy/src/dev/oled_ssd130x.h ****     dsy_gpio  pin_reset_;
 124:../../libdaisy/src/dev/oled_ssd130x.h ****     dsy_gpio  pin_dc_;
 125:../../libdaisy/src/dev/oled_ssd130x.h **** };
 126:../../libdaisy/src/dev/oled_ssd130x.h **** 
 127:../../libdaisy/src/dev/oled_ssd130x.h **** 
 128:../../libdaisy/src/dev/oled_ssd130x.h **** /**
 129:../../libdaisy/src/dev/oled_ssd130x.h ****  * A driver implementation for the SSD1306/SSD1309
 130:../../libdaisy/src/dev/oled_ssd130x.h ****  */
 131:../../libdaisy/src/dev/oled_ssd130x.h **** template <size_t width, size_t height, typename Transport>
 132:../../libdaisy/src/dev/oled_ssd130x.h **** class SSD130xDriver
 133:../../libdaisy/src/dev/oled_ssd130x.h **** {
 134:../../libdaisy/src/dev/oled_ssd130x.h ****   public:
 135:../../libdaisy/src/dev/oled_ssd130x.h ****     struct Config
 136:../../libdaisy/src/dev/oled_ssd130x.h ****     {
 137:../../libdaisy/src/dev/oled_ssd130x.h ****         typename Transport::Config transport_config;
 138:../../libdaisy/src/dev/oled_ssd130x.h ****     };
 139:../../libdaisy/src/dev/oled_ssd130x.h **** 
 140:../../libdaisy/src/dev/oled_ssd130x.h ****     void Init(Config config)
 141:../../libdaisy/src/dev/oled_ssd130x.h ****     {
 142:../../libdaisy/src/dev/oled_ssd130x.h ****         transport_.Init(config.transport_config);
 143:../../libdaisy/src/dev/oled_ssd130x.h **** 
 144:../../libdaisy/src/dev/oled_ssd130x.h ****         // Init routine...
 145:../../libdaisy/src/dev/oled_ssd130x.h **** 
 146:../../libdaisy/src/dev/oled_ssd130x.h ****         // Display Off
 147:../../libdaisy/src/dev/oled_ssd130x.h ****         transport_.SendCommand(0xaE);
 148:../../libdaisy/src/dev/oled_ssd130x.h ****         // Dimension dependent commands...
 149:../../libdaisy/src/dev/oled_ssd130x.h ****         switch(height)
 150:../../libdaisy/src/dev/oled_ssd130x.h ****         {
 151:../../libdaisy/src/dev/oled_ssd130x.h ****             case 16:
 152:../../libdaisy/src/dev/oled_ssd130x.h ****                 // Display Clock Divide Ratio
 153:../../libdaisy/src/dev/oled_ssd130x.h ****                 transport_.SendCommand(0xD5);
 154:../../libdaisy/src/dev/oled_ssd130x.h ****                 transport_.SendCommand(0x60);
 155:../../libdaisy/src/dev/oled_ssd130x.h ****                 // Multiplex Ratio
 156:../../libdaisy/src/dev/oled_ssd130x.h ****                 transport_.SendCommand(0xA8);
 157:../../libdaisy/src/dev/oled_ssd130x.h ****                 transport_.SendCommand(0x0F);
 158:../../libdaisy/src/dev/oled_ssd130x.h ****                 // COM Pins
ARM GAS  /tmp/ccjBmcCr.s 			page 20


 159:../../libdaisy/src/dev/oled_ssd130x.h ****                 transport_.SendCommand(0xDA);
 160:../../libdaisy/src/dev/oled_ssd130x.h ****                 transport_.SendCommand(0x02);
 161:../../libdaisy/src/dev/oled_ssd130x.h ****                 break;
 162:../../libdaisy/src/dev/oled_ssd130x.h ****             case 32:
 163:../../libdaisy/src/dev/oled_ssd130x.h ****                 // Display Clock Divide Ratio
 164:../../libdaisy/src/dev/oled_ssd130x.h ****                 transport_.SendCommand(0xD5);
 165:../../libdaisy/src/dev/oled_ssd130x.h ****                 transport_.SendCommand(0x80);
 166:../../libdaisy/src/dev/oled_ssd130x.h ****                 // Multiplex Ratio
 167:../../libdaisy/src/dev/oled_ssd130x.h ****                 transport_.SendCommand(0xA8);
 168:../../libdaisy/src/dev/oled_ssd130x.h ****                 transport_.SendCommand(0x1F);
 169:../../libdaisy/src/dev/oled_ssd130x.h ****                 // COM Pins
 170:../../libdaisy/src/dev/oled_ssd130x.h ****                 transport_.SendCommand(0xDA);
 171:../../libdaisy/src/dev/oled_ssd130x.h ****                 if(width == 64)
 172:../../libdaisy/src/dev/oled_ssd130x.h ****                 {
 173:../../libdaisy/src/dev/oled_ssd130x.h ****                     transport_.SendCommand(0x12);
 174:../../libdaisy/src/dev/oled_ssd130x.h ****                 }
 175:../../libdaisy/src/dev/oled_ssd130x.h ****                 else
 176:../../libdaisy/src/dev/oled_ssd130x.h ****                 {
 177:../../libdaisy/src/dev/oled_ssd130x.h ****                     transport_.SendCommand(0x02);
 178:../../libdaisy/src/dev/oled_ssd130x.h ****                 }
 179:../../libdaisy/src/dev/oled_ssd130x.h **** 
 180:../../libdaisy/src/dev/oled_ssd130x.h ****                 break;
 181:../../libdaisy/src/dev/oled_ssd130x.h ****             case 48:
 182:../../libdaisy/src/dev/oled_ssd130x.h ****                 // Display Clock Divide Ratio
 183:../../libdaisy/src/dev/oled_ssd130x.h ****                 transport_.SendCommand(0xD5);
 184:../../libdaisy/src/dev/oled_ssd130x.h ****                 transport_.SendCommand(0x80);
 185:../../libdaisy/src/dev/oled_ssd130x.h ****                 // Multiplex Ratio
 186:../../libdaisy/src/dev/oled_ssd130x.h ****                 transport_.SendCommand(0xA8);
 187:../../libdaisy/src/dev/oled_ssd130x.h ****                 transport_.SendCommand(0x2F);
 188:../../libdaisy/src/dev/oled_ssd130x.h ****                 // COM Pins
 189:../../libdaisy/src/dev/oled_ssd130x.h ****                 transport_.SendCommand(0xDA);
 190:../../libdaisy/src/dev/oled_ssd130x.h ****                 transport_.SendCommand(0x12);
 191:../../libdaisy/src/dev/oled_ssd130x.h ****                 break;
 192:../../libdaisy/src/dev/oled_ssd130x.h ****             default: // 128
 193:../../libdaisy/src/dev/oled_ssd130x.h ****                 // Display Clock Divide Ratio
 194:../../libdaisy/src/dev/oled_ssd130x.h ****                 transport_.SendCommand(0xD5);
 195:../../libdaisy/src/dev/oled_ssd130x.h ****                 transport_.SendCommand(0x80);
 196:../../libdaisy/src/dev/oled_ssd130x.h ****                 // Multiplex Ratio
 197:../../libdaisy/src/dev/oled_ssd130x.h ****                 transport_.SendCommand(0xA8);
 198:../../libdaisy/src/dev/oled_ssd130x.h ****                 transport_.SendCommand(0x3F);
 199:../../libdaisy/src/dev/oled_ssd130x.h ****                 // COM Pins
 200:../../libdaisy/src/dev/oled_ssd130x.h ****                 transport_.SendCommand(0xDA);
 201:../../libdaisy/src/dev/oled_ssd130x.h ****                 transport_.SendCommand(0x12);
 202:../../libdaisy/src/dev/oled_ssd130x.h ****                 break;
 203:../../libdaisy/src/dev/oled_ssd130x.h ****         }
 204:../../libdaisy/src/dev/oled_ssd130x.h **** 
 205:../../libdaisy/src/dev/oled_ssd130x.h ****         // Display Offset
 206:../../libdaisy/src/dev/oled_ssd130x.h ****         transport_.SendCommand(0xD3);
 207:../../libdaisy/src/dev/oled_ssd130x.h ****         transport_.SendCommand(0x00);
 208:../../libdaisy/src/dev/oled_ssd130x.h ****         // Start Line Address
 209:../../libdaisy/src/dev/oled_ssd130x.h ****         transport_.SendCommand(0x40);
 210:../../libdaisy/src/dev/oled_ssd130x.h ****         // Normal Display
 211:../../libdaisy/src/dev/oled_ssd130x.h ****         transport_.SendCommand(0xA6);
 212:../../libdaisy/src/dev/oled_ssd130x.h ****         // All On Resume
 213:../../libdaisy/src/dev/oled_ssd130x.h ****         transport_.SendCommand(0xA4);
 214:../../libdaisy/src/dev/oled_ssd130x.h ****         // Charge Pump
 215:../../libdaisy/src/dev/oled_ssd130x.h ****         transport_.SendCommand(0x8D);
ARM GAS  /tmp/ccjBmcCr.s 			page 21


 216:../../libdaisy/src/dev/oled_ssd130x.h ****         transport_.SendCommand(0x14);
 217:../../libdaisy/src/dev/oled_ssd130x.h ****         // Set Segment Remap
 218:../../libdaisy/src/dev/oled_ssd130x.h ****         transport_.SendCommand(0xA1);
 219:../../libdaisy/src/dev/oled_ssd130x.h ****         // COM Output Scan Direction
 220:../../libdaisy/src/dev/oled_ssd130x.h ****         transport_.SendCommand(0xC8);
 221:../../libdaisy/src/dev/oled_ssd130x.h ****         // Contrast Control
 222:../../libdaisy/src/dev/oled_ssd130x.h ****         transport_.SendCommand(0x81);
 223:../../libdaisy/src/dev/oled_ssd130x.h ****         transport_.SendCommand(0x8F);
 224:../../libdaisy/src/dev/oled_ssd130x.h ****         // Pre Charge
 225:../../libdaisy/src/dev/oled_ssd130x.h ****         transport_.SendCommand(0xD9);
 226:../../libdaisy/src/dev/oled_ssd130x.h ****         transport_.SendCommand(0x25);
 227:../../libdaisy/src/dev/oled_ssd130x.h ****         // VCOM Detect
 228:../../libdaisy/src/dev/oled_ssd130x.h ****         transport_.SendCommand(0xDB);
 229:../../libdaisy/src/dev/oled_ssd130x.h ****         transport_.SendCommand(0x34);
 230:../../libdaisy/src/dev/oled_ssd130x.h **** 
 231:../../libdaisy/src/dev/oled_ssd130x.h **** 
 232:../../libdaisy/src/dev/oled_ssd130x.h ****         // Display On
 233:../../libdaisy/src/dev/oled_ssd130x.h ****         transport_.SendCommand(0xAF); //--turn on oled panel
 234:../../libdaisy/src/dev/oled_ssd130x.h ****     };
 235:../../libdaisy/src/dev/oled_ssd130x.h **** 
 236:../../libdaisy/src/dev/oled_ssd130x.h ****     size_t Width() const { return width; };
 237:../../libdaisy/src/dev/oled_ssd130x.h ****     size_t Height() const { return height; };
 238:../../libdaisy/src/dev/oled_ssd130x.h **** 
 239:../../libdaisy/src/dev/oled_ssd130x.h ****     void DrawPixel(uint_fast8_t x, uint_fast8_t y, bool on)
 240:../../libdaisy/src/dev/oled_ssd130x.h ****     {
 241:../../libdaisy/src/dev/oled_ssd130x.h ****         if(x >= width || y >= height)
 242:../../libdaisy/src/dev/oled_ssd130x.h ****             return;
 243:../../libdaisy/src/dev/oled_ssd130x.h ****         if(on)
 244:../../libdaisy/src/dev/oled_ssd130x.h ****             buffer_[x + (y / 8) * width] |= (1 << (y % 8));
 245:../../libdaisy/src/dev/oled_ssd130x.h ****         else
 246:../../libdaisy/src/dev/oled_ssd130x.h ****             buffer_[x + (y / 8) * width] &= ~(1 << (y % 8));
 247:../../libdaisy/src/dev/oled_ssd130x.h ****     }
 248:../../libdaisy/src/dev/oled_ssd130x.h **** 
 249:../../libdaisy/src/dev/oled_ssd130x.h ****     void Fill(bool on)
 161              		.loc 12 249 10 view .LVU28
 162              	.LBB430:
 250:../../libdaisy/src/dev/oled_ssd130x.h ****     {
 251:../../libdaisy/src/dev/oled_ssd130x.h ****         for(size_t i = 0; i < sizeof(buffer_); i++)
 163              		.loc 12 251 29 view .LVU29
 164 0000 4942     		rsbs	r1, r1, #0
 165              	.LVL3:
 166              		.loc 12 251 29 is_stmt 0 view .LVU30
 167 0002 00F11303 		add	r3, r0, #19
 168 0006 00F21342 		addw	r2, r0, #1043
 169 000a C9B2     		uxtb	r1, r1
 170              	.LVL4:
 171              	.L5:
 252:../../libdaisy/src/dev/oled_ssd130x.h ****         {
 253:../../libdaisy/src/dev/oled_ssd130x.h ****             buffer_[i] = on ? 0xff : 0x00;
 172              		.loc 12 253 13 view .LVU31
 173 000c 03F8011F 		strb	r1, [r3, #1]!
 174              	.LVL5:
 251:../../libdaisy/src/dev/oled_ssd130x.h ****         {
 175              		.loc 12 251 9 is_stmt 1 view .LVU32
 251:../../libdaisy/src/dev/oled_ssd130x.h ****         {
 176              		.loc 12 251 29 view .LVU33
 177 0010 9342     		cmp	r3, r2
ARM GAS  /tmp/ccjBmcCr.s 			page 22


 178 0012 FBD1     		bne	.L5
 179              	.LBE430:
 180              	.LBE429:
 181              		.loc 5 33 53 is_stmt 0 view .LVU34
 182 0014 7047     		bx	lr
 183              		.cfi_endproc
 184              	.LFE4570:
 186 0016 00BF     		.section	.text._ZN7daisysp7FlangerD2Ev,"axG",%progbits,_ZN7daisysp7FlangerD5Ev,comdat
 187              		.align	1
 188              		.p2align 2,,3
 189              		.weak	_ZN7daisysp7FlangerD2Ev
 190              		.syntax unified
 191              		.thumb
 192              		.thumb_func
 193              		.fpu fpv5-d16
 195              	_ZN7daisysp7FlangerD2Ev:
 196              	.LVL6:
 197              	.LFB4848:
 198              		.file 13 "../../DaisySP/Source/Effects/flanger.h"
   1:../../DaisySP/Source/Effects/flanger.h **** #pragma once
   2:../../DaisySP/Source/Effects/flanger.h **** #ifndef DSY_FLANGER_H
   3:../../DaisySP/Source/Effects/flanger.h **** #define DSY_FLANGER_H
   4:../../DaisySP/Source/Effects/flanger.h **** #ifdef __cplusplus
   5:../../DaisySP/Source/Effects/flanger.h **** 
   6:../../DaisySP/Source/Effects/flanger.h **** #include <stdint.h>
   7:../../DaisySP/Source/Effects/flanger.h **** #include "Utility/delayline.h"
   8:../../DaisySP/Source/Effects/flanger.h **** 
   9:../../DaisySP/Source/Effects/flanger.h **** /** @file flanger.h */
  10:../../DaisySP/Source/Effects/flanger.h **** 
  11:../../DaisySP/Source/Effects/flanger.h **** namespace daisysp
  12:../../DaisySP/Source/Effects/flanger.h **** {
  13:../../DaisySP/Source/Effects/flanger.h **** /** @brief Flanging Audio Effect 
  14:../../DaisySP/Source/Effects/flanger.h ****  *
  15:../../DaisySP/Source/Effects/flanger.h ****  * Generates a modulating phase shifted copy of a signal, and recombines
  16:../../DaisySP/Source/Effects/flanger.h ****  * with the original to create a 'flanging' sound effect.
  17:../../DaisySP/Source/Effects/flanger.h ****  */
  18:../../DaisySP/Source/Effects/flanger.h **** class Flanger
 199              		.loc 13 18 7 is_stmt 1 view -0
 200              		.cfi_startproc
 201              		@ args = 0, pretend = 0, frame = 0
 202              		@ frame_needed = 0, uses_anonymous_args = 0
 203              		@ link register save eliminated.
 204              	.LBB431:
 205              	.LBI431:
 206              		.file 14 "../../DaisySP/Source/Utility/delayline.h"
   1:../../DaisySP/Source/Utility/delayline.h **** #pragma once
   2:../../DaisySP/Source/Utility/delayline.h **** #ifndef DSY_DELAY_H
   3:../../DaisySP/Source/Utility/delayline.h **** #define DSY_DELAY_H
   4:../../DaisySP/Source/Utility/delayline.h **** #include <stdlib.h>
   5:../../DaisySP/Source/Utility/delayline.h **** #include <stdint.h>
   6:../../DaisySP/Source/Utility/delayline.h **** namespace daisysp
   7:../../DaisySP/Source/Utility/delayline.h **** {
   8:../../DaisySP/Source/Utility/delayline.h **** /** Simple Delay line.
   9:../../DaisySP/Source/Utility/delayline.h **** November 2019
  10:../../DaisySP/Source/Utility/delayline.h **** 
  11:../../DaisySP/Source/Utility/delayline.h **** Converted to Template December 2019
  12:../../DaisySP/Source/Utility/delayline.h **** 
ARM GAS  /tmp/ccjBmcCr.s 			page 23


  13:../../DaisySP/Source/Utility/delayline.h **** declaration example: (1 second of floats)
  14:../../DaisySP/Source/Utility/delayline.h **** 
  15:../../DaisySP/Source/Utility/delayline.h **** DelayLine<float, SAMPLE_RATE> del;
  16:../../DaisySP/Source/Utility/delayline.h **** 
  17:../../DaisySP/Source/Utility/delayline.h **** By: shensley
  18:../../DaisySP/Source/Utility/delayline.h **** */
  19:../../DaisySP/Source/Utility/delayline.h **** template <typename T, size_t max_size>
  20:../../DaisySP/Source/Utility/delayline.h **** class DelayLine
  21:../../DaisySP/Source/Utility/delayline.h **** {
  22:../../DaisySP/Source/Utility/delayline.h ****   public:
  23:../../DaisySP/Source/Utility/delayline.h ****     DelayLine() {}
  24:../../DaisySP/Source/Utility/delayline.h ****     ~DelayLine() {}
 207              		.loc 14 24 5 view .LVU36
 208              		.loc 14 24 5 is_stmt 0 view .LVU37
 209              	.LBE431:
 210              		.loc 13 18 7 view .LVU38
 211 0000 7047     		bx	lr
 212              		.cfi_endproc
 213              	.LFE4848:
 215              		.weak	_ZN7daisysp7FlangerD1Ev
 216              		.thumb_set _ZN7daisysp7FlangerD1Ev,_ZN7daisysp7FlangerD2Ev
 217 0002 00BF     		.section	.text._ZNK5daisy11OledDisplayINS_13SSD130xDriverILj128ELj64ENS_24SSD130x4WireSpiTransport
 218              		.align	1
 219              		.p2align 2,,3
 220              		.weak	_ZNK5daisy11OledDisplayINS_13SSD130xDriverILj128ELj64ENS_24SSD130x4WireSpiTransportEEEE6Heig
 221              		.syntax unified
 222              		.thumb
 223              		.thumb_func
 224              		.fpu fpv5-d16
 226              	_ZNK5daisy11OledDisplayINS_13SSD130xDriverILj128ELj64ENS_24SSD130x4WireSpiTransportEEEE6HeightEv:
 227              	.LVL7:
 228              	.LFB4850:
  26:../../libdaisy/src/hid/disp/oled_display.h ****     uint16_t Width() const override { return driver_.Width(); }
 229              		.loc 5 26 14 is_stmt 1 view -0
 230              		.cfi_startproc
 231              		@ args = 0, pretend = 0, frame = 0
 232              		@ frame_needed = 0, uses_anonymous_args = 0
 233              		@ link register save eliminated.
  26:../../libdaisy/src/hid/disp/oled_display.h ****     uint16_t Width() const override { return driver_.Width(); }
 234              		.loc 5 26 65 is_stmt 0 view .LVU40
 235 0000 4020     		movs	r0, #64
 236              	.LVL8:
  26:../../libdaisy/src/hid/disp/oled_display.h ****     uint16_t Width() const override { return driver_.Width(); }
 237              		.loc 5 26 65 view .LVU41
 238 0002 7047     		bx	lr
 239              		.cfi_endproc
 240              	.LFE4850:
 242              		.section	.text._ZNK5daisy11OledDisplayINS_13SSD130xDriverILj128ELj64ENS_24SSD130x4WireSpiTransport
 243              		.align	1
 244              		.p2align 2,,3
 245              		.weak	_ZNK5daisy11OledDisplayINS_13SSD130xDriverILj128ELj64ENS_24SSD130x4WireSpiTransportEEEE5Widt
 246              		.syntax unified
 247              		.thumb
 248              		.thumb_func
 249              		.fpu fpv5-d16
 251              	_ZNK5daisy11OledDisplayINS_13SSD130xDriverILj128ELj64ENS_24SSD130x4WireSpiTransportEEEE5WidthEv:
 252              	.LVL9:
ARM GAS  /tmp/ccjBmcCr.s 			page 24


 253              	.LFB4851:
  27:../../libdaisy/src/hid/disp/oled_display.h **** 
 254              		.loc 5 27 14 is_stmt 1 view -0
 255              		.cfi_startproc
 256              		@ args = 0, pretend = 0, frame = 0
 257              		@ frame_needed = 0, uses_anonymous_args = 0
 258              		@ link register save eliminated.
  27:../../libdaisy/src/hid/disp/oled_display.h **** 
 259              		.loc 5 27 63 is_stmt 0 view .LVU43
 260 0000 8020     		movs	r0, #128
 261              	.LVL10:
  27:../../libdaisy/src/hid/disp/oled_display.h **** 
 262              		.loc 5 27 63 view .LVU44
 263 0002 7047     		bx	lr
 264              		.cfi_endproc
 265              	.LFE4851:
 267              		.section	.text._Z13AudioCallbackPKPKfPPfj,"ax",%progbits
 268              		.align	1
 269              		.p2align 2,,3
 270              		.global	_Z13AudioCallbackPKPKfPPfj
 271              		.syntax unified
 272              		.thumb
 273              		.thumb_func
 274              		.fpu fpv5-d16
 276              	_Z13AudioCallbackPKPKfPPfj:
 277              	.LVL11:
 278              	.LFB4239:
 279              		.file 15 "flanger.cpp"
   1:flanger.cpp   **** #include "daisy_field.h"
   2:flanger.cpp   **** #include "daisysp.h"
   3:flanger.cpp   **** 
   4:flanger.cpp   **** using namespace daisy;
   5:flanger.cpp   **** using namespace daisysp;
   6:flanger.cpp   **** 
   7:flanger.cpp   **** Flanger    flanger;
   8:flanger.cpp   **** DaisyField hw;
   9:flanger.cpp   **** 
  10:flanger.cpp   **** bool effectOn = true;
  11:flanger.cpp   **** 
  12:flanger.cpp   **** float del, deltarget;
  13:flanger.cpp   **** float lfo, lfotarget;
  14:flanger.cpp   **** 
  15:flanger.cpp   **** float knob_vals[4];
  16:flanger.cpp   **** void  AudioCallback(AudioHandle::InputBuffer  in,
  17:flanger.cpp   ****                     AudioHandle::OutputBuffer out,
  18:flanger.cpp   ****                     size_t                    size)
  19:flanger.cpp   **** {
 280              		.loc 15 19 1 is_stmt 1 view -0
 281              		.cfi_startproc
 282              		@ args = 0, pretend = 0, frame = 8
 283              		@ frame_needed = 0, uses_anonymous_args = 0
  20:flanger.cpp   ****     hw.ProcessAllControls();
 284              		.loc 15 20 5 view .LVU46
 285              	.LBB432:
 286              	.LBI432:
  85:../../libdaisy/src/daisy_field.h **** 
  86:../../libdaisy/src/daisy_field.h ****     /**Initializes the Daisy Field, and all of its hardware.*/
ARM GAS  /tmp/ccjBmcCr.s 			page 25


  87:../../libdaisy/src/daisy_field.h ****     void Init(bool boost = false);
  88:../../libdaisy/src/daisy_field.h **** 
  89:../../libdaisy/src/daisy_field.h ****     /** 
  90:../../libdaisy/src/daisy_field.h ****     Wait some ms before going on.
  91:../../libdaisy/src/daisy_field.h ****     \param del Delay time in ms.
  92:../../libdaisy/src/daisy_field.h ****     */
  93:../../libdaisy/src/daisy_field.h ****     void DelayMs(size_t del);
  94:../../libdaisy/src/daisy_field.h **** 
  95:../../libdaisy/src/daisy_field.h ****     /** Starts the callback
  96:../../libdaisy/src/daisy_field.h ****     \cb Interleaved callback function
  97:../../libdaisy/src/daisy_field.h ****     */
  98:../../libdaisy/src/daisy_field.h ****     void StartAudio(AudioHandle::InterleavingAudioCallback cb);
  99:../../libdaisy/src/daisy_field.h **** 
 100:../../libdaisy/src/daisy_field.h ****     /** Starts the callback
 101:../../libdaisy/src/daisy_field.h ****     \cb multichannel callback function
 102:../../libdaisy/src/daisy_field.h ****     */
 103:../../libdaisy/src/daisy_field.h ****     void StartAudio(AudioHandle::AudioCallback cb);
 104:../../libdaisy/src/daisy_field.h **** 
 105:../../libdaisy/src/daisy_field.h ****     /** Stops the audio if it is running. */
 106:../../libdaisy/src/daisy_field.h ****     void StopAudio();
 107:../../libdaisy/src/daisy_field.h **** 
 108:../../libdaisy/src/daisy_field.h ****     /**
 109:../../libdaisy/src/daisy_field.h ****        Switch callback functions
 110:../../libdaisy/src/daisy_field.h ****        \param cb New interleaved callback function.
 111:../../libdaisy/src/daisy_field.h ****     */
 112:../../libdaisy/src/daisy_field.h ****     void ChangeAudioCallback(AudioHandle::InterleavingAudioCallback cb);
 113:../../libdaisy/src/daisy_field.h **** 
 114:../../libdaisy/src/daisy_field.h ****     /**
 115:../../libdaisy/src/daisy_field.h ****        Switch callback functions
 116:../../libdaisy/src/daisy_field.h ****        \param cb New multichannel callback function.
 117:../../libdaisy/src/daisy_field.h ****     */
 118:../../libdaisy/src/daisy_field.h ****     void ChangeAudioCallback(AudioHandle::AudioCallback cb);
 119:../../libdaisy/src/daisy_field.h **** 
 120:../../libdaisy/src/daisy_field.h ****     /** Updates the Audio Sample Rate, and reinitializes.
 121:../../libdaisy/src/daisy_field.h ****      ** Audio must be stopped for this to work.
 122:../../libdaisy/src/daisy_field.h ****      */
 123:../../libdaisy/src/daisy_field.h ****     void SetAudioSampleRate(SaiHandle::Config::SampleRate samplerate);
 124:../../libdaisy/src/daisy_field.h **** 
 125:../../libdaisy/src/daisy_field.h ****     /** Returns the audio sample rate in Hz as a floating point number.
 126:../../libdaisy/src/daisy_field.h ****      */
 127:../../libdaisy/src/daisy_field.h ****     float AudioSampleRate();
 128:../../libdaisy/src/daisy_field.h **** 
 129:../../libdaisy/src/daisy_field.h ****     /** Sets the number of samples processed per channel by the audio callback.
 130:../../libdaisy/src/daisy_field.h ****      */
 131:../../libdaisy/src/daisy_field.h ****     void SetAudioBlockSize(size_t blocksize);
 132:../../libdaisy/src/daisy_field.h **** 
 133:../../libdaisy/src/daisy_field.h ****     /** Returns the number of samples per channel in a block of audio. */
 134:../../libdaisy/src/daisy_field.h ****     size_t AudioBlockSize();
 135:../../libdaisy/src/daisy_field.h **** 
 136:../../libdaisy/src/daisy_field.h ****     /** Returns the rate in Hz that the Audio callback is called */
 137:../../libdaisy/src/daisy_field.h ****     float AudioCallbackRate();
 138:../../libdaisy/src/daisy_field.h **** 
 139:../../libdaisy/src/daisy_field.h ****     /** Starts Transfering data from the ADC */
 140:../../libdaisy/src/daisy_field.h ****     void StartAdc();
 141:../../libdaisy/src/daisy_field.h **** 
 142:../../libdaisy/src/daisy_field.h ****     /** Stops Transfering data from the ADC */
 143:../../libdaisy/src/daisy_field.h ****     void StopAdc();
ARM GAS  /tmp/ccjBmcCr.s 			page 26


 144:../../libdaisy/src/daisy_field.h **** 
 145:../../libdaisy/src/daisy_field.h ****     /** Turns on the built-in 12-bit DAC on the Daisy Seed */
 146:../../libdaisy/src/daisy_field.h ****     /** **This is now deprecated and does nothing.** 
 147:../../libdaisy/src/daisy_field.h ****      ** The polling use of the DACs now handles starting the tranmission.  */
 148:../../libdaisy/src/daisy_field.h ****     void StartDac();
 149:../../libdaisy/src/daisy_field.h **** 
 150:../../libdaisy/src/daisy_field.h ****     /** Processes the ADC inputs, updating their values */
 151:../../libdaisy/src/daisy_field.h ****     void ProcessAnalogControls();
 152:../../libdaisy/src/daisy_field.h **** 
 153:../../libdaisy/src/daisy_field.h ****     /** Process tactile switches and keyboard states */
 154:../../libdaisy/src/daisy_field.h ****     void ProcessDigitalControls();
 155:../../libdaisy/src/daisy_field.h **** 
 156:../../libdaisy/src/daisy_field.h ****     /** Process Analog and Digital Controls */
 157:../../libdaisy/src/daisy_field.h ****     inline void ProcessAllControls()
 287              		.loc 1 157 17 view .LVU47
 288              	.LBB433:
 158:../../libdaisy/src/daisy_field.h ****     {
 159:../../libdaisy/src/daisy_field.h ****         ProcessAnalogControls();
 289              		.loc 1 159 9 view .LVU48
 290              	.LBE433:
 291              	.LBE432:
  19:flanger.cpp   ****     hw.ProcessAllControls();
 292              		.loc 15 19 1 is_stmt 0 view .LVU49
 293 0000 2DE9F04F 		push	{r4, r5, r6, r7, r8, r9, r10, fp, lr}
 294              		.cfi_def_cfa_offset 36
 295              		.cfi_offset 4, -36
 296              		.cfi_offset 5, -32
 297              		.cfi_offset 6, -28
 298              		.cfi_offset 7, -24
 299              		.cfi_offset 8, -20
 300              		.cfi_offset 9, -16
 301              		.cfi_offset 10, -12
 302              		.cfi_offset 11, -8
 303              		.cfi_offset 14, -4
 304              	.LBB437:
 305              	.LBB434:
 306              		.loc 1 159 30 view .LVU50
 307 0004 4E4C     		ldr	r4, .L17
 308              	.LBE434:
 309              	.LBE437:
  19:flanger.cpp   ****     hw.ProcessAllControls();
 310              		.loc 15 19 1 view .LVU51
 311 0006 0746     		mov	r7, r0
 312 0008 8A46     		mov	r10, r1
 313 000a 1646     		mov	r6, r2
 314              	.LBB438:
 315              	.LBB435:
 316              		.loc 1 159 30 view .LVU52
 317 000c 2046     		mov	r0, r4
 318              	.LVL12:
 319              		.loc 1 159 30 view .LVU53
 320              	.LBE435:
 321              	.LBE438:
 322              	.LBB439:
  21:flanger.cpp   **** 
  22:flanger.cpp   ****     for(int i = 0; i < 4; i++)
  23:flanger.cpp   ****     {
ARM GAS  /tmp/ccjBmcCr.s 			page 27


  24:flanger.cpp   ****         knob_vals[i] = hw.knob[i].Process();
 323              		.loc 15 24 22 view .LVU54
 324 000e 4D4D     		ldr	r5, .L17+4
 325              	.LBE439:
  25:flanger.cpp   ****     }
  26:flanger.cpp   **** 
  27:flanger.cpp   ****     deltarget = hw.knob[0].Process();
 326              		.loc 15 27 15 view .LVU55
 327 0010 DFF84481 		ldr	r8, .L17+24
  28:flanger.cpp   ****     flanger.SetFeedback(hw.knob[1].Process());
  29:flanger.cpp   ****     float val = hw.knob[2].Process();
  30:flanger.cpp   ****     flanger.SetLfoFreq(val * val * 10.f);
  31:flanger.cpp   ****     lfotarget = hw.knob[3].Process();
 328              		.loc 15 31 15 view .LVU56
 329 0014 DFF84491 		ldr	r9, .L17+28
  19:flanger.cpp   ****     hw.ProcessAllControls();
 330              		.loc 15 19 1 view .LVU57
 331 0018 2DED028B 		vpush.64	{d8}
 332              		.cfi_def_cfa_offset 44
 333              		.cfi_offset 80, -44
 334              		.cfi_offset 81, -40
 335 001c 83B0     		sub	sp, sp, #12
 336              		.cfi_def_cfa_offset 56
  19:flanger.cpp   ****     hw.ProcessAllControls();
 337              		.loc 15 19 1 view .LVU58
 338 001e 0192     		str	r2, [sp, #4]
 339              	.LBB440:
 340              	.LBB436:
 341              		.loc 1 159 30 view .LVU59
 342 0020 FFF7FEFF 		bl	_ZN5daisy10DaisyField21ProcessAnalogControlsEv
 343              	.LVL13:
 160:../../libdaisy/src/daisy_field.h ****         ProcessDigitalControls();
 344              		.loc 1 160 9 is_stmt 1 view .LVU60
 345              		.loc 1 160 31 is_stmt 0 view .LVU61
 346 0024 2046     		mov	r0, r4
 347 0026 FFF7FEFF 		bl	_ZN5daisy10DaisyField22ProcessDigitalControlsEv
 348              	.LVL14:
 349              		.loc 1 160 31 view .LVU62
 350              	.LBE436:
 351              	.LBE440:
  22:flanger.cpp   ****     {
 352              		.loc 15 22 5 is_stmt 1 view .LVU63
 353              	.LBB441:
  22:flanger.cpp   ****     {
 354              		.loc 15 22 22 view .LVU64
  24:flanger.cpp   ****     }
 355              		.loc 15 24 9 view .LVU65
  24:flanger.cpp   ****     }
 356              		.loc 15 24 42 is_stmt 0 view .LVU66
 357 002a 04F29460 		addw	r0, r4, #1684
 358 002e FFF7FEFF 		bl	_ZN5daisy13AnalogControl7ProcessEv
 359              	.LVL15:
 360 0032 04F2B460 		addw	r0, r4, #1716
  24:flanger.cpp   ****     }
 361              		.loc 15 24 22 view .LVU67
 362 0036 85ED000A 		vstr.32	s0, [r5]
  22:flanger.cpp   ****     {
ARM GAS  /tmp/ccjBmcCr.s 			page 28


 363              		.loc 15 22 5 is_stmt 1 view .LVU68
 364              	.LVL16:
  22:flanger.cpp   ****     {
 365              		.loc 15 22 22 view .LVU69
  24:flanger.cpp   ****     }
 366              		.loc 15 24 9 view .LVU70
  24:flanger.cpp   ****     }
 367              		.loc 15 24 42 is_stmt 0 view .LVU71
 368 003a FFF7FEFF 		bl	_ZN5daisy13AnalogControl7ProcessEv
 369              	.LVL17:
 370 003e 04F2D460 		addw	r0, r4, #1748
  24:flanger.cpp   ****     }
 371              		.loc 15 24 22 view .LVU72
 372 0042 85ED010A 		vstr.32	s0, [r5, #4]
  22:flanger.cpp   ****     {
 373              		.loc 15 22 5 is_stmt 1 view .LVU73
 374              	.LVL18:
  22:flanger.cpp   ****     {
 375              		.loc 15 22 22 view .LVU74
  24:flanger.cpp   ****     }
 376              		.loc 15 24 9 view .LVU75
  24:flanger.cpp   ****     }
 377              		.loc 15 24 42 is_stmt 0 view .LVU76
 378 0046 FFF7FEFF 		bl	_ZN5daisy13AnalogControl7ProcessEv
 379              	.LVL19:
 380 004a 04F2F460 		addw	r0, r4, #1780
  24:flanger.cpp   ****     }
 381              		.loc 15 24 22 view .LVU77
 382 004e 85ED020A 		vstr.32	s0, [r5, #8]
  22:flanger.cpp   ****     {
 383              		.loc 15 22 5 is_stmt 1 view .LVU78
 384              	.LVL20:
  22:flanger.cpp   ****     {
 385              		.loc 15 22 22 view .LVU79
  24:flanger.cpp   ****     }
 386              		.loc 15 24 9 view .LVU80
  24:flanger.cpp   ****     }
 387              		.loc 15 24 42 is_stmt 0 view .LVU81
 388 0052 FFF7FEFF 		bl	_ZN5daisy13AnalogControl7ProcessEv
 389              	.LVL21:
 390              	.LBE441:
  27:flanger.cpp   ****     flanger.SetFeedback(hw.knob[1].Process());
 391              		.loc 15 27 35 view .LVU82
 392 0056 04F29460 		addw	r0, r4, #1684
 393              	.LBB442:
  24:flanger.cpp   ****     }
 394              		.loc 15 24 22 view .LVU83
 395 005a 85ED030A 		vstr.32	s0, [r5, #12]
  22:flanger.cpp   ****     {
 396              		.loc 15 22 5 is_stmt 1 view .LVU84
 397              	.LVL22:
  22:flanger.cpp   ****     {
 398              		.loc 15 22 22 view .LVU85
 399              	.LBE442:
  27:flanger.cpp   ****     flanger.SetFeedback(hw.knob[1].Process());
 400              		.loc 15 27 5 view .LVU86
  27:flanger.cpp   ****     flanger.SetFeedback(hw.knob[1].Process());
ARM GAS  /tmp/ccjBmcCr.s 			page 29


 401              		.loc 15 27 35 is_stmt 0 view .LVU87
 402 005e FFF7FEFF 		bl	_ZN5daisy13AnalogControl7ProcessEv
 403              	.LVL23:
  28:flanger.cpp   ****     float val = hw.knob[2].Process();
 404              		.loc 15 28 24 view .LVU88
 405 0062 04F2B460 		addw	r0, r4, #1716
  27:flanger.cpp   ****     flanger.SetFeedback(hw.knob[1].Process());
 406              		.loc 15 27 15 view .LVU89
 407 0066 88ED000A 		vstr.32	s0, [r8]
  28:flanger.cpp   ****     float val = hw.knob[2].Process();
 408              		.loc 15 28 5 is_stmt 1 view .LVU90
  28:flanger.cpp   ****     float val = hw.knob[2].Process();
 409              		.loc 15 28 24 is_stmt 0 view .LVU91
 410 006a FFF7FEFF 		bl	_ZN5daisy13AnalogControl7ProcessEv
 411              	.LVL24:
 412 006e 3648     		ldr	r0, .L17+8
 413 0070 FFF7FEFF 		bl	_ZN7daisysp7Flanger11SetFeedbackEf
 414              	.LVL25:
  29:flanger.cpp   ****     flanger.SetLfoFreq(val * val * 10.f);
 415              		.loc 15 29 5 is_stmt 1 view .LVU92
  29:flanger.cpp   ****     flanger.SetLfoFreq(val * val * 10.f);
 416              		.loc 15 29 35 is_stmt 0 view .LVU93
 417 0074 04F2D460 		addw	r0, r4, #1748
 418 0078 FFF7FEFF 		bl	_ZN5daisy13AnalogControl7ProcessEv
 419              	.LVL26:
  30:flanger.cpp   ****     lfotarget = hw.knob[3].Process();
 420              		.loc 15 30 5 is_stmt 1 view .LVU94
  30:flanger.cpp   ****     lfotarget = hw.knob[3].Process();
 421              		.loc 15 30 23 is_stmt 0 view .LVU95
 422 007c F2EE047A 		vmov.f32	s15, #1.0e+1
  30:flanger.cpp   ****     lfotarget = hw.knob[3].Process();
 423              		.loc 15 30 28 view .LVU96
 424 0080 20EE000A 		vmul.f32	s0, s0, s0
 425              	.LVL27:
  30:flanger.cpp   ****     lfotarget = hw.knob[3].Process();
 426              		.loc 15 30 23 view .LVU97
 427 0084 3048     		ldr	r0, .L17+8
 428 0086 20EE270A 		vmul.f32	s0, s0, s15
 429 008a FFF7FEFF 		bl	_ZN7daisysp7Flanger10SetLfoFreqEf
 430              	.LVL28:
 431              		.loc 15 31 5 is_stmt 1 view .LVU98
 432              		.loc 15 31 35 is_stmt 0 view .LVU99
 433 008e 04F2F460 		addw	r0, r4, #1780
 434 0092 FFF7FEFF 		bl	_ZN5daisy13AnalogControl7ProcessEv
 435              	.LVL29:
  32:flanger.cpp   **** 
  33:flanger.cpp   ****     effectOn ^= hw.sw[0].RisingEdge();
 436              		.loc 15 33 37 view .LVU100
 437 0096 2D49     		ldr	r1, .L17+12
 438              	.LBB443:
 439              	.LBB444:
 440              		.file 16 "../../libdaisy/src/hid/switch.h"
   1:../../libdaisy/src/hid/switch.h **** #pragma once
   2:../../libdaisy/src/hid/switch.h **** #ifndef DSY_SWITCH_H
   3:../../libdaisy/src/hid/switch.h **** #define DSY_SWITCH_H
   4:../../libdaisy/src/hid/switch.h **** #include "daisy_core.h"
   5:../../libdaisy/src/hid/switch.h **** #include "per/gpio.h"
ARM GAS  /tmp/ccjBmcCr.s 			page 30


   6:../../libdaisy/src/hid/switch.h **** 
   7:../../libdaisy/src/hid/switch.h **** namespace daisy
   8:../../libdaisy/src/hid/switch.h **** {
   9:../../libdaisy/src/hid/switch.h **** /** 
  10:../../libdaisy/src/hid/switch.h ****     Generic Class for handling momentary/latching switches \n 
  11:../../libdaisy/src/hid/switch.h ****     Inspired/influenced by Mutable Instruments (pichenettes) Switch classes
  12:../../libdaisy/src/hid/switch.h ****     @author Stephen Hensley
  13:../../libdaisy/src/hid/switch.h ****     @date December 2019
  14:../../libdaisy/src/hid/switch.h ****     @ingroup controls
  15:../../libdaisy/src/hid/switch.h **** */
  16:../../libdaisy/src/hid/switch.h **** class Switch
  17:../../libdaisy/src/hid/switch.h **** {
  18:../../libdaisy/src/hid/switch.h ****   public:
  19:../../libdaisy/src/hid/switch.h ****     /** Specifies the expected behavior of the switch */
  20:../../libdaisy/src/hid/switch.h ****     enum Type
  21:../../libdaisy/src/hid/switch.h ****     {
  22:../../libdaisy/src/hid/switch.h ****         TYPE_TOGGLE,    /**< & */
  23:../../libdaisy/src/hid/switch.h ****         TYPE_MOMENTARY, /**< & */
  24:../../libdaisy/src/hid/switch.h ****     };
  25:../../libdaisy/src/hid/switch.h ****     /** Specifies whether the pressed is HIGH or LOW. */
  26:../../libdaisy/src/hid/switch.h ****     enum Polarity
  27:../../libdaisy/src/hid/switch.h ****     {
  28:../../libdaisy/src/hid/switch.h ****         POLARITY_NORMAL,   /**< & */
  29:../../libdaisy/src/hid/switch.h ****         POLARITY_INVERTED, /**< & */
  30:../../libdaisy/src/hid/switch.h ****     };
  31:../../libdaisy/src/hid/switch.h **** 
  32:../../libdaisy/src/hid/switch.h ****     /** Specifies whether to use built-in Pull Up/Down resistors to hold button at a given state wh
  33:../../libdaisy/src/hid/switch.h ****     enum Pull
  34:../../libdaisy/src/hid/switch.h ****     {
  35:../../libdaisy/src/hid/switch.h ****         PULL_UP,   /**< & */
  36:../../libdaisy/src/hid/switch.h ****         PULL_DOWN, /**< & */
  37:../../libdaisy/src/hid/switch.h ****         PULL_NONE, /**< & */
  38:../../libdaisy/src/hid/switch.h ****     };
  39:../../libdaisy/src/hid/switch.h **** 
  40:../../libdaisy/src/hid/switch.h ****     Switch() {}
  41:../../libdaisy/src/hid/switch.h ****     ~Switch() {}
  42:../../libdaisy/src/hid/switch.h **** 
  43:../../libdaisy/src/hid/switch.h ****     /** 
  44:../../libdaisy/src/hid/switch.h ****     Initializes the switch object with a given port/pin combo.
  45:../../libdaisy/src/hid/switch.h ****     \param pin port/pin object to tell the switch which hardware pin to use.
  46:../../libdaisy/src/hid/switch.h ****     \param update_rate the rate at which the Debounce() function will be called. (used for timing).
  47:../../libdaisy/src/hid/switch.h ****     \param t switch type -- Default: TYPE_MOMENTARY
  48:../../libdaisy/src/hid/switch.h ****     \param pol switch polarity -- Default: POLARITY_INVERTED
  49:../../libdaisy/src/hid/switch.h ****     \param pu switch pull up/down -- Default: PULL_UP
  50:../../libdaisy/src/hid/switch.h ****     */
  51:../../libdaisy/src/hid/switch.h ****     void
  52:../../libdaisy/src/hid/switch.h ****     Init(dsy_gpio_pin pin, float update_rate, Type t, Polarity pol, Pull pu);
  53:../../libdaisy/src/hid/switch.h **** 
  54:../../libdaisy/src/hid/switch.h ****     /**
  55:../../libdaisy/src/hid/switch.h ****        Simplified Init.
  56:../../libdaisy/src/hid/switch.h ****        \param pin port/pin object to tell the switch which hardware pin to use.
  57:../../libdaisy/src/hid/switch.h ****        \param update_rate the rate at which the Debounce() function will be called. (used for timin
  58:../../libdaisy/src/hid/switch.h ****     */
  59:../../libdaisy/src/hid/switch.h ****     void Init(dsy_gpio_pin pin, float update_rate);
  60:../../libdaisy/src/hid/switch.h **** 
  61:../../libdaisy/src/hid/switch.h ****     /** 
  62:../../libdaisy/src/hid/switch.h ****     Called at update_rate to debounce and handle timing for the switch.
ARM GAS  /tmp/ccjBmcCr.s 			page 31


  63:../../libdaisy/src/hid/switch.h ****     In order for events not to be missed, its important that the Edge/Pressed checks
  64:../../libdaisy/src/hid/switch.h ****     be made at the same rate as the debounce function is being called.
  65:../../libdaisy/src/hid/switch.h ****     */
  66:../../libdaisy/src/hid/switch.h ****     void Debounce();
  67:../../libdaisy/src/hid/switch.h **** 
  68:../../libdaisy/src/hid/switch.h ****     /** \return true if a button was just pressed. */
  69:../../libdaisy/src/hid/switch.h ****     inline bool RisingEdge() const { return state_ == 0x7f; }
 441              		.loc 16 69 55 view .LVU101
 442 0098 94F87926 		ldrb	r2, [r4, #1657]	@ zero_extendqisi2
 443              	.LBE444:
 444              	.LBE443:
 445              		.loc 15 33 37 view .LVU102
 446 009c 0B78     		ldrb	r3, [r1]	@ zero_extendqisi2
  31:flanger.cpp   **** 
 447              		.loc 15 31 15 view .LVU103
 448 009e 89ED000A 		vstr.32	s0, [r9]
 449              		.loc 15 33 5 is_stmt 1 view .LVU104
 450              	.LBB446:
 451              	.LBI443:
 452              		.loc 16 69 17 view .LVU105
 453              	.LVL30:
 454              	.LBB445:
 455              		.loc 16 69 38 view .LVU106
 456              	.LBE445:
 457              	.LBE446:
 458              		.loc 15 33 37 is_stmt 0 view .LVU107
 459 00a2 7F2A     		cmp	r2, #127
 460 00a4 08BF     		it	eq
 461 00a6 83F00103 		eoreq	r3, r3, #1
 462              		.loc 15 33 14 view .LVU108
 463 00aa 0B70     		strb	r3, [r1]
  34:flanger.cpp   **** 
  35:flanger.cpp   ****     for(size_t i = 0; i < size; i++)
 464              		.loc 15 35 5 is_stmt 1 view .LVU109
 465              	.LVL31:
 466              	.LBB447:
 467              		.loc 15 35 25 view .LVU110
 468 00ac 002E     		cmp	r6, #0
 469 00ae 41D0     		beq	.L10
 470              		.loc 15 35 16 is_stmt 0 view .LVU111
 471 00b0 0024     		movs	r4, #0
 472 00b2 DFF8ACB0 		ldr	fp, .L17+32
 473 00b6 264E     		ldr	r6, .L17+16
 474              	.LVL32:
 475              		.loc 15 35 16 view .LVU112
 476 00b8 12E0     		b	.L11
 477              	.LVL33:
 478              	.L12:
  36:flanger.cpp   ****     {
  37:flanger.cpp   ****         fonepole(del, deltarget, .0001f); //smooth at audio rate
  38:flanger.cpp   ****         flanger.SetDelay(del);
  39:flanger.cpp   **** 
  40:flanger.cpp   ****         fonepole(lfo, lfotarget, .0001f); //smooth at audio rate
  41:flanger.cpp   ****         flanger.SetLfoDepth(lfo);
  42:flanger.cpp   **** 
  43:flanger.cpp   ****         out[0][i] = out[1][i] = effectOn ? flanger.Process(in[0][i]) : in[0][i];
 479              		.loc 15 43 42 discriminator 2 view .LVU113
ARM GAS  /tmp/ccjBmcCr.s 			page 32


 480 00ba 3B68     		ldr	r3, [r7]
 481 00bc 03EB8403 		add	r3, r3, r4, lsl #2
 482 00c0 93ED000A 		vldr.32	s0, [r3]
 483              	.L13:
 484              		.loc 15 43 31 discriminator 4 view .LVU114
 485 00c4 DAF80420 		ldr	r2, [r10, #4]
  35:flanger.cpp   ****     {
 486              		.loc 15 35 5 discriminator 4 view .LVU115
 487 00c8 0134     		adds	r4, r4, #1
 488              	.LVL34:
 489              		.loc 15 43 19 discriminator 4 view .LVU116
 490 00ca DAF80030 		ldr	r3, [r10]
 491              		.loc 15 43 31 discriminator 4 view .LVU117
 492 00ce 2A44     		add	r2, r2, r5
 493              		.loc 15 43 19 discriminator 4 view .LVU118
 494 00d0 2B44     		add	r3, r3, r5
 495              		.loc 15 43 31 discriminator 4 view .LVU119
 496 00d2 82ED000A 		vstr.32	s0, [r2]
 497              		.loc 15 43 19 discriminator 4 view .LVU120
 498 00d6 83ED000A 		vstr.32	s0, [r3]
  35:flanger.cpp   ****     {
 499              		.loc 15 35 5 is_stmt 1 discriminator 4 view .LVU121
 500              	.LVL35:
  35:flanger.cpp   ****     {
 501              		.loc 15 35 25 discriminator 4 view .LVU122
 502 00da 019B     		ldr	r3, [sp, #4]
 503 00dc A342     		cmp	r3, r4
 504 00de 29D0     		beq	.L10
 505              	.LVL36:
 506              	.L11:
  37:flanger.cpp   ****         flanger.SetDelay(del);
 507              		.loc 15 37 9 view .LVU123
 508              	.LBB448:
 509              	.LBI448:
 510              		.file 17 "../../DaisySP/Source/Utility/dsp.h"
   1:../../DaisySP/Source/Utility/dsp.h **** /** Helpful defines, functions, and other utilities for use in/with daisysp modules.
   2:../../DaisySP/Source/Utility/dsp.h **** */
   3:../../DaisySP/Source/Utility/dsp.h **** #pragma once
   4:../../DaisySP/Source/Utility/dsp.h **** #ifndef DSY_CORE_DSP
   5:../../DaisySP/Source/Utility/dsp.h **** #define DSY_CORE_DSP
   6:../../DaisySP/Source/Utility/dsp.h **** #include <cassert>
   7:../../DaisySP/Source/Utility/dsp.h **** #include <cstdint>
   8:../../DaisySP/Source/Utility/dsp.h **** #include <random>
   9:../../DaisySP/Source/Utility/dsp.h **** #include <cmath>
  10:../../DaisySP/Source/Utility/dsp.h **** 
  11:../../DaisySP/Source/Utility/dsp.h **** /** PIs
  12:../../DaisySP/Source/Utility/dsp.h **** */
  13:../../DaisySP/Source/Utility/dsp.h **** #define PI_F 3.1415927410125732421875f
  14:../../DaisySP/Source/Utility/dsp.h **** #define TWOPI_F (2.0f * PI_F)
  15:../../DaisySP/Source/Utility/dsp.h **** #define HALFPI_F (PI_F * 0.5f)
  16:../../DaisySP/Source/Utility/dsp.h **** #define DSY_MIN(in, mn) (in < mn ? in : mn)
  17:../../DaisySP/Source/Utility/dsp.h **** #define DSY_MAX(in, mx) (in > mx ? in : mx)
  18:../../DaisySP/Source/Utility/dsp.h **** #define DSY_CLAMP(in, mn, mx) (DSY_MIN(DSY_MAX(in, mn), mx))
  19:../../DaisySP/Source/Utility/dsp.h **** #define DSY_COUNTOF(_arr) (sizeof(_arr) / sizeof(_arr[0]))
  20:../../DaisySP/Source/Utility/dsp.h **** 
  21:../../DaisySP/Source/Utility/dsp.h **** namespace daisysp
  22:../../DaisySP/Source/Utility/dsp.h **** {
ARM GAS  /tmp/ccjBmcCr.s 			page 33


  23:../../DaisySP/Source/Utility/dsp.h **** //Avoids division for random floats. e.g. rand() * kRandFrac
  24:../../DaisySP/Source/Utility/dsp.h **** static constexpr float kRandFrac = 1.f / (float)RAND_MAX;
  25:../../DaisySP/Source/Utility/dsp.h **** 
  26:../../DaisySP/Source/Utility/dsp.h **** //Convert from semitones to other units. e.g. 2 ^ (kOneTwelfth * x)
  27:../../DaisySP/Source/Utility/dsp.h **** static constexpr float kOneTwelfth = 1.f / 12.f;
  28:../../DaisySP/Source/Utility/dsp.h **** 
  29:../../DaisySP/Source/Utility/dsp.h **** /** efficient floating point min/max
  30:../../DaisySP/Source/Utility/dsp.h **** c/o stephen mccaul
  31:../../DaisySP/Source/Utility/dsp.h **** */
  32:../../DaisySP/Source/Utility/dsp.h **** inline float fmax(float a, float b)
  33:../../DaisySP/Source/Utility/dsp.h **** {
  34:../../DaisySP/Source/Utility/dsp.h ****     float r;
  35:../../DaisySP/Source/Utility/dsp.h **** #ifdef __arm__
  36:../../DaisySP/Source/Utility/dsp.h ****     asm("vmaxnm.f32 %[d], %[n], %[m]" : [d] "=t"(r) : [n] "t"(a), [m] "t"(b) :);
  37:../../DaisySP/Source/Utility/dsp.h **** #else
  38:../../DaisySP/Source/Utility/dsp.h ****     r = (a > b) ? a : b;
  39:../../DaisySP/Source/Utility/dsp.h **** #endif // __arm__
  40:../../DaisySP/Source/Utility/dsp.h ****     return r;
  41:../../DaisySP/Source/Utility/dsp.h **** }
  42:../../DaisySP/Source/Utility/dsp.h **** 
  43:../../DaisySP/Source/Utility/dsp.h **** inline float fmin(float a, float b)
  44:../../DaisySP/Source/Utility/dsp.h **** {
  45:../../DaisySP/Source/Utility/dsp.h ****     float r;
  46:../../DaisySP/Source/Utility/dsp.h **** #ifdef __arm__
  47:../../DaisySP/Source/Utility/dsp.h ****     asm("vminnm.f32 %[d], %[n], %[m]" : [d] "=t"(r) : [n] "t"(a), [m] "t"(b) :);
  48:../../DaisySP/Source/Utility/dsp.h **** #else
  49:../../DaisySP/Source/Utility/dsp.h ****     r = (a < b) ? a : b;
  50:../../DaisySP/Source/Utility/dsp.h **** #endif // __arm__
  51:../../DaisySP/Source/Utility/dsp.h ****     return r;
  52:../../DaisySP/Source/Utility/dsp.h **** }
  53:../../DaisySP/Source/Utility/dsp.h **** 
  54:../../DaisySP/Source/Utility/dsp.h **** /** quick fp clamp
  55:../../DaisySP/Source/Utility/dsp.h **** */
  56:../../DaisySP/Source/Utility/dsp.h **** inline float fclamp(float in, float min, float max)
  57:../../DaisySP/Source/Utility/dsp.h **** {
  58:../../DaisySP/Source/Utility/dsp.h ****     return fmin(fmax(in, min), max);
  59:../../DaisySP/Source/Utility/dsp.h **** }
  60:../../DaisySP/Source/Utility/dsp.h **** 
  61:../../DaisySP/Source/Utility/dsp.h **** /** From Musicdsp.org "Fast power and root estimates for 32bit floats)
  62:../../DaisySP/Source/Utility/dsp.h **** Original code by Stefan Stenzel
  63:../../DaisySP/Source/Utility/dsp.h **** These are approximations
  64:../../DaisySP/Source/Utility/dsp.h **** */
  65:../../DaisySP/Source/Utility/dsp.h **** inline float fastpower(float f, int n)
  66:../../DaisySP/Source/Utility/dsp.h **** {
  67:../../DaisySP/Source/Utility/dsp.h ****     long *lp, l;
  68:../../DaisySP/Source/Utility/dsp.h ****     lp = (long *)(&f);
  69:../../DaisySP/Source/Utility/dsp.h ****     l  = *lp;
  70:../../DaisySP/Source/Utility/dsp.h ****     l -= 0x3F800000;
  71:../../DaisySP/Source/Utility/dsp.h ****     l <<= (n - 1);
  72:../../DaisySP/Source/Utility/dsp.h ****     l += 0x3F800000;
  73:../../DaisySP/Source/Utility/dsp.h ****     *lp = l;
  74:../../DaisySP/Source/Utility/dsp.h ****     return f;
  75:../../DaisySP/Source/Utility/dsp.h **** }
  76:../../DaisySP/Source/Utility/dsp.h **** 
  77:../../DaisySP/Source/Utility/dsp.h **** inline float fastroot(float f, int n)
  78:../../DaisySP/Source/Utility/dsp.h **** {
  79:../../DaisySP/Source/Utility/dsp.h ****     long *lp, l;
ARM GAS  /tmp/ccjBmcCr.s 			page 34


  80:../../DaisySP/Source/Utility/dsp.h ****     lp = (long *)(&f);
  81:../../DaisySP/Source/Utility/dsp.h ****     l  = *lp;
  82:../../DaisySP/Source/Utility/dsp.h ****     l -= 0x3F800000;
  83:../../DaisySP/Source/Utility/dsp.h ****     l >>= (n = 1);
  84:../../DaisySP/Source/Utility/dsp.h ****     l += 0x3F800000;
  85:../../DaisySP/Source/Utility/dsp.h ****     *lp = l;
  86:../../DaisySP/Source/Utility/dsp.h ****     return f;
  87:../../DaisySP/Source/Utility/dsp.h **** }
  88:../../DaisySP/Source/Utility/dsp.h **** 
  89:../../DaisySP/Source/Utility/dsp.h **** /** From http://openaudio.blogspot.com/2017/02/faster-log10-and-pow.html
  90:../../DaisySP/Source/Utility/dsp.h **** No approximation, pow10f(x) gives a 90% speed increase over powf(10.f, x)
  91:../../DaisySP/Source/Utility/dsp.h **** */
  92:../../DaisySP/Source/Utility/dsp.h **** inline float pow10f(float f)
  93:../../DaisySP/Source/Utility/dsp.h **** {
  94:../../DaisySP/Source/Utility/dsp.h ****     return expf(2.302585092994046f * f);
  95:../../DaisySP/Source/Utility/dsp.h **** }
  96:../../DaisySP/Source/Utility/dsp.h **** 
  97:../../DaisySP/Source/Utility/dsp.h **** /* Original code for fastlog2f by Dr. Paul Beckmann from the ARM community forum, adapted from the 
  98:../../DaisySP/Source/Utility/dsp.h **** About 25% performance increase over std::log10f
  99:../../DaisySP/Source/Utility/dsp.h **** */
 100:../../DaisySP/Source/Utility/dsp.h **** inline float fastlog2f(float f)
 101:../../DaisySP/Source/Utility/dsp.h **** {
 102:../../DaisySP/Source/Utility/dsp.h ****     float frac;
 103:../../DaisySP/Source/Utility/dsp.h ****     int   exp;
 104:../../DaisySP/Source/Utility/dsp.h ****     frac = frexpf(fabsf(f), &exp);
 105:../../DaisySP/Source/Utility/dsp.h ****     f    = 1.23149591368684f;
 106:../../DaisySP/Source/Utility/dsp.h ****     f *= frac;
 107:../../DaisySP/Source/Utility/dsp.h ****     f += -4.11852516267426f;
 108:../../DaisySP/Source/Utility/dsp.h ****     f *= frac;
 109:../../DaisySP/Source/Utility/dsp.h ****     f += 6.02197014179219f;
 110:../../DaisySP/Source/Utility/dsp.h ****     f *= frac;
 111:../../DaisySP/Source/Utility/dsp.h ****     f += -3.13396450166353f;
 112:../../DaisySP/Source/Utility/dsp.h ****     f += exp;
 113:../../DaisySP/Source/Utility/dsp.h ****     return (f);
 114:../../DaisySP/Source/Utility/dsp.h **** }
 115:../../DaisySP/Source/Utility/dsp.h **** 
 116:../../DaisySP/Source/Utility/dsp.h **** inline float fastlog10f(float f)
 117:../../DaisySP/Source/Utility/dsp.h **** {
 118:../../DaisySP/Source/Utility/dsp.h ****     return fastlog2f(f) * 0.3010299956639812f;
 119:../../DaisySP/Source/Utility/dsp.h **** }
 120:../../DaisySP/Source/Utility/dsp.h **** 
 121:../../DaisySP/Source/Utility/dsp.h **** /** Midi to frequency helper
 122:../../DaisySP/Source/Utility/dsp.h **** */
 123:../../DaisySP/Source/Utility/dsp.h **** inline float mtof(float m)
 124:../../DaisySP/Source/Utility/dsp.h **** {
 125:../../DaisySP/Source/Utility/dsp.h ****     return powf(2, (m - 69.0f) / 12.0f) * 440.0f;
 126:../../DaisySP/Source/Utility/dsp.h **** }
 127:../../DaisySP/Source/Utility/dsp.h **** 
 128:../../DaisySP/Source/Utility/dsp.h **** 
 129:../../DaisySP/Source/Utility/dsp.h **** /** one pole lpf
 130:../../DaisySP/Source/Utility/dsp.h **** out is passed by reference, and must be retained between
 131:../../DaisySP/Source/Utility/dsp.h **** calls to properly filter the signal
 132:../../DaisySP/Source/Utility/dsp.h **** coeff can be calculated:
 133:../../DaisySP/Source/Utility/dsp.h **** coeff = 1.0 / (time * sample_rate) ; where time is in seconds
 134:../../DaisySP/Source/Utility/dsp.h **** */
 135:../../DaisySP/Source/Utility/dsp.h **** inline void fonepole(float &out, float in, float coeff)
 511              		.loc 17 135 13 view .LVU124
ARM GAS  /tmp/ccjBmcCr.s 			page 35


 512              	.LBB449:
 136:../../DaisySP/Source/Utility/dsp.h **** {
 137:../../DaisySP/Source/Utility/dsp.h ****     out += coeff * (in - out);
 513              		.loc 17 137 5 view .LVU125
 514              		.loc 17 137 9 is_stmt 0 view .LVU126
 515 00e0 9BED000A 		vldr.32	s0, [fp]
 516 00e4 A500     		lsls	r5, r4, #2
 517              		.loc 17 137 24 view .LVU127
 518 00e6 D8ED007A 		vldr.32	s15, [r8]
 519              		.loc 17 137 9 view .LVU128
 520 00ea 9FED1A8A 		vldr.32	s16, .L17+20
 521              		.loc 17 137 24 view .LVU129
 522 00ee 77EEC07A 		vsub.f32	s15, s15, s0
 523              	.LBE449:
 524              	.LBE448:
  38:flanger.cpp   **** 
 525              		.loc 15 38 25 view .LVU130
 526 00f2 1548     		ldr	r0, .L17+8
 527              	.LBB451:
 528              	.LBB450:
 529              		.loc 17 137 9 view .LVU131
 530 00f4 A7EE880A 		vfma.f32	s0, s15, s16
 531 00f8 8BED000A 		vstr.32	s0, [fp]
 532              	.LVL37:
 533              		.loc 17 137 9 view .LVU132
 534              	.LBE450:
 535              	.LBE451:
  38:flanger.cpp   **** 
 536              		.loc 15 38 9 is_stmt 1 view .LVU133
  38:flanger.cpp   **** 
 537              		.loc 15 38 25 is_stmt 0 view .LVU134
 538 00fc FFF7FEFF 		bl	_ZN7daisysp7Flanger8SetDelayEf
 539              	.LVL38:
  40:flanger.cpp   ****         flanger.SetLfoDepth(lfo);
 540              		.loc 15 40 9 is_stmt 1 view .LVU135
 541              	.LBB452:
 542              	.LBI452:
 135:../../DaisySP/Source/Utility/dsp.h **** {
 543              		.loc 17 135 13 view .LVU136
 544              	.LBB453:
 545              		.loc 17 137 5 view .LVU137
 546              		.loc 17 137 9 is_stmt 0 view .LVU138
 547 0100 96ED000A 		vldr.32	s0, [r6]
 548              		.loc 17 137 24 view .LVU139
 549 0104 D9ED007A 		vldr.32	s15, [r9]
 550              	.LBE453:
 551              	.LBE452:
  41:flanger.cpp   **** 
 552              		.loc 15 41 28 view .LVU140
 553 0108 0F48     		ldr	r0, .L17+8
 554              	.LBB455:
 555              	.LBB454:
 556              		.loc 17 137 24 view .LVU141
 557 010a 77EEC07A 		vsub.f32	s15, s15, s0
 558              		.loc 17 137 9 view .LVU142
 559 010e A7EE880A 		vfma.f32	s0, s15, s16
 560 0112 86ED000A 		vstr.32	s0, [r6]
ARM GAS  /tmp/ccjBmcCr.s 			page 36


 561              	.LVL39:
 562              		.loc 17 137 9 view .LVU143
 563              	.LBE454:
 564              	.LBE455:
  41:flanger.cpp   **** 
 565              		.loc 15 41 9 is_stmt 1 view .LVU144
  41:flanger.cpp   **** 
 566              		.loc 15 41 28 is_stmt 0 view .LVU145
 567 0116 FFF7FEFF 		bl	_ZN7daisysp7Flanger11SetLfoDepthEf
 568              	.LVL40:
 569              		.loc 15 43 9 is_stmt 1 view .LVU146
 570              		.loc 15 43 42 is_stmt 0 view .LVU147
 571 011a 0C4B     		ldr	r3, .L17+12
 572 011c 1B78     		ldrb	r3, [r3]	@ zero_extendqisi2
 573 011e 002B     		cmp	r3, #0
 574 0120 CBD0     		beq	.L12
 575              		.loc 15 43 59 discriminator 1 view .LVU148
 576 0122 3B68     		ldr	r3, [r7]
 577 0124 0848     		ldr	r0, .L17+8
 578 0126 03EB8403 		add	r3, r3, r4, lsl #2
 579 012a 93ED000A 		vldr.32	s0, [r3]
 580 012e FFF7FEFF 		bl	_ZN7daisysp7Flanger7ProcessEf
 581              	.LVL41:
 582 0132 C7E7     		b	.L13
 583              	.LVL42:
 584              	.L10:
 585              		.loc 15 43 59 discriminator 1 view .LVU149
 586              	.LBE447:
  44:flanger.cpp   ****     }
  45:flanger.cpp   **** }
 587              		.loc 15 45 1 view .LVU150
 588 0134 03B0     		add	sp, sp, #12
 589              		.cfi_def_cfa_offset 44
 590              		@ sp needed
 591 0136 BDEC028B 		vldm	sp!, {d8}
 592              		.cfi_restore 80
 593              		.cfi_restore 81
 594              		.cfi_def_cfa_offset 36
 595 013a BDE8F08F 		pop	{r4, r5, r6, r7, r8, r9, r10, fp, pc}
 596              	.LVL43:
 597              	.L18:
 598              		.loc 15 45 1 view .LVU151
 599 013e 00BF     		.align	2
 600              	.L17:
 601 0140 00000000 		.word	hw
 602 0144 00000000 		.word	.LANCHOR0
 603 0148 00000000 		.word	.LANCHOR2
 604 014c 00000000 		.word	.LANCHOR4
 605 0150 00000000 		.word	.LANCHOR6
 606 0154 17B7D138 		.word	953267991
 607 0158 00000000 		.word	.LANCHOR1
 608 015c 00000000 		.word	.LANCHOR3
 609 0160 00000000 		.word	.LANCHOR5
 610              		.cfi_endproc
 611              	.LFE4239:
 613              		.section	.text._ZN5daisy11OledDisplayINS_13SSD130xDriverILj128ELj64ENS_24SSD130x4WireSpiTransportE
 614              		.align	1
ARM GAS  /tmp/ccjBmcCr.s 			page 37


 615              		.p2align 2,,3
 616              		.weak	_ZN5daisy11OledDisplayINS_13SSD130xDriverILj128ELj64ENS_24SSD130x4WireSpiTransportEEEED0Ev
 617              		.syntax unified
 618              		.thumb
 619              		.thumb_func
 620              		.fpu fpv5-d16
 622              	_ZN5daisy11OledDisplayINS_13SSD130xDriverILj128ELj64ENS_24SSD130x4WireSpiTransportEEEED0Ev:
 623              	.LVL44:
 624              	.LFB4262:
  17:../../libdaisy/src/hid/disp/oled_display.h **** 
 625              		.loc 5 17 13 is_stmt 1 view -0
 626              		.cfi_startproc
 627              		@ args = 0, pretend = 0, frame = 0
 628              		@ frame_needed = 0, uses_anonymous_args = 0
  17:../../libdaisy/src/hid/disp/oled_display.h **** 
 629              		.loc 5 17 13 is_stmt 0 view .LVU153
 630 0000 10B5     		push	{r4, lr}
 631              		.cfi_def_cfa_offset 8
 632              		.cfi_offset 4, -8
 633              		.cfi_offset 14, -4
  17:../../libdaisy/src/hid/disp/oled_display.h **** 
 634              		.loc 5 17 13 view .LVU154
 635 0002 0446     		mov	r4, r0
 636              	.LVL45:
 637              	.LBB456:
 638              	.LBI456:
  17:../../libdaisy/src/hid/disp/oled_display.h **** 
 639              		.loc 5 17 13 is_stmt 1 view .LVU155
 640              	.LBB457:
 641              	.LBI457:
 642              		.loc 6 219 13 view .LVU156
 643              	.LBB458:
 644              	.LBI458:
  23:../../libdaisy/src/hid/disp/display.h **** 
 645              		.loc 6 23 13 view .LVU157
  23:../../libdaisy/src/hid/disp/display.h **** 
 646              		.loc 6 23 13 is_stmt 0 view .LVU158
 647              	.LBE458:
 648              	.LBE457:
 649              	.LBE456:
  17:../../libdaisy/src/hid/disp/oled_display.h **** 
 650              		.loc 5 17 29 view .LVU159
 651 0004 40F21441 		movw	r1, #1044
 652 0008 FFF7FEFF 		bl	_ZdlPvj
 653              	.LVL46:
  17:../../libdaisy/src/hid/disp/oled_display.h **** 
 654              		.loc 5 17 29 view .LVU160
 655 000c 2046     		mov	r0, r4
 656 000e 10BD     		pop	{r4, pc}
  17:../../libdaisy/src/hid/disp/oled_display.h **** 
 657              		.loc 5 17 29 view .LVU161
 658              		.cfi_endproc
 659              	.LFE4262:
 661              		.section	.text._ZN5daisy16LedDriverPca9685ILi2ELb1EE14TxCpltCallbackEPvNS_9I2CHandle6ResultE,"axG"
 662              		.align	1
 663              		.p2align 2,,3
 664              		.weak	_ZN5daisy16LedDriverPca9685ILi2ELb1EE14TxCpltCallbackEPvNS_9I2CHandle6ResultE
ARM GAS  /tmp/ccjBmcCr.s 			page 38


 665              		.syntax unified
 666              		.thumb
 667              		.thumb_func
 668              		.fpu fpv5-d16
 670              	_ZN5daisy16LedDriverPca9685ILi2ELb1EE14TxCpltCallbackEPvNS_9I2CHandle6ResultE:
 671              	.LVL47:
 672              	.LFB4744:
 673              		.file 18 "../../libdaisy/src/dev/leddriver.h"
   1:../../libdaisy/src/dev/leddriver.h **** #pragma once
   2:../../libdaisy/src/dev/leddriver.h **** #ifndef SA_LED_DRIVER_H
   3:../../libdaisy/src/dev/leddriver.h **** #define SA_LED_DRIVER_H /**< & */
   4:../../libdaisy/src/dev/leddriver.h **** 
   5:../../libdaisy/src/dev/leddriver.h **** #ifdef __cplusplus
   6:../../libdaisy/src/dev/leddriver.h **** 
   7:../../libdaisy/src/dev/leddriver.h **** #include <stdint.h>
   8:../../libdaisy/src/dev/leddriver.h **** #include "per/i2c.h"
   9:../../libdaisy/src/dev/leddriver.h **** #include "per/gpio.h"
  10:../../libdaisy/src/dev/leddriver.h **** 
  11:../../libdaisy/src/dev/leddriver.h **** namespace daisy
  12:../../libdaisy/src/dev/leddriver.h **** {
  13:../../libdaisy/src/dev/leddriver.h **** /** LED driver for one or multiple PCA9685 12bit PWM chips connected to
  14:../../libdaisy/src/dev/leddriver.h ****  * a single I2C peripheral.
  15:../../libdaisy/src/dev/leddriver.h ****  * It includes gamma correction from 8bit brightness values but it 
  16:../../libdaisy/src/dev/leddriver.h ****  * can also be supplied with raw 12bit values.
  17:../../libdaisy/src/dev/leddriver.h ****  * This driver uses two buffers - one for drawing, one for transmitting.
  18:../../libdaisy/src/dev/leddriver.h ****  * Multiple LedDriverPca9685 instances can be used at the same time.
  19:../../libdaisy/src/dev/leddriver.h ****  * \param numDrivers    The number of PCA9685 driver attached to the I2C
  20:../../libdaisy/src/dev/leddriver.h ****  *                      peripheral.
  21:../../libdaisy/src/dev/leddriver.h ****  * \param persistentBufferContents If set to true, the current draw buffer 
  22:../../libdaisy/src/dev/leddriver.h ****  *                      contents will be copied to the next draw buffer 
  23:../../libdaisy/src/dev/leddriver.h ****  *                      during SwapBuffersAndTransmit(). Use this, if you plan
  24:../../libdaisy/src/dev/leddriver.h ****  *                      to write single leds at a time. 
  25:../../libdaisy/src/dev/leddriver.h ****  *                      If you will alway update all leds before calling 
  26:../../libdaisy/src/dev/leddriver.h ****  *                      SwapBuffersAndTransmit(), you can set this to false
  27:../../libdaisy/src/dev/leddriver.h ****  *                      and safe some cycles.
  28:../../libdaisy/src/dev/leddriver.h ****  */
  29:../../libdaisy/src/dev/leddriver.h **** template <int numDrivers, bool persistentBufferContents = true>
  30:../../libdaisy/src/dev/leddriver.h **** class LedDriverPca9685
  31:../../libdaisy/src/dev/leddriver.h **** {
  32:../../libdaisy/src/dev/leddriver.h ****   public:
  33:../../libdaisy/src/dev/leddriver.h ****     /** Buffer Type for a single PCA9685 driver chip. */
  34:../../libdaisy/src/dev/leddriver.h ****     struct __attribute__((packed)) PCA9685TransmitBuffer
  35:../../libdaisy/src/dev/leddriver.h ****     {
  36:../../libdaisy/src/dev/leddriver.h ****         /** register address */
  37:../../libdaisy/src/dev/leddriver.h ****         uint8_t registerAddr = PCA9685_LED0;
  38:../../libdaisy/src/dev/leddriver.h ****         struct __attribute__((packed))
  39:../../libdaisy/src/dev/leddriver.h ****         {
  40:../../libdaisy/src/dev/leddriver.h ****             /** cycle at which to switch on the led */
  41:../../libdaisy/src/dev/leddriver.h ****             uint16_t on;
  42:../../libdaisy/src/dev/leddriver.h ****             /** cycle at which to switch off the led */
  43:../../libdaisy/src/dev/leddriver.h ****             uint16_t off;
  44:../../libdaisy/src/dev/leddriver.h ****         } leds[16];
  45:../../libdaisy/src/dev/leddriver.h ****         /** full size in bytes */
  46:../../libdaisy/src/dev/leddriver.h ****         static constexpr uint16_t size = 16 * 4 + 1;
  47:../../libdaisy/src/dev/leddriver.h ****     };
  48:../../libdaisy/src/dev/leddriver.h ****     /** Buffer type for the entire DMA buffer. */
  49:../../libdaisy/src/dev/leddriver.h ****     using DmaBuffer = PCA9685TransmitBuffer[numDrivers];
ARM GAS  /tmp/ccjBmcCr.s 			page 39


  50:../../libdaisy/src/dev/leddriver.h **** 
  51:../../libdaisy/src/dev/leddriver.h ****     /** Initialises the driver. 
  52:../../libdaisy/src/dev/leddriver.h ****      * \param i2c           The I2C peripheral to use.
  53:../../libdaisy/src/dev/leddriver.h ****      * \param addresses     An array of addresses for each of the driver chips.
  54:../../libdaisy/src/dev/leddriver.h ****      * \param dma_buffer_a  The first buffer for the DMA. This must be placed in 
  55:../../libdaisy/src/dev/leddriver.h ****      *                      D2 memory by adding the DMA_BUFFER_MEM_SECTION attribute
  56:../../libdaisy/src/dev/leddriver.h ****      *                      like this: `LedDriverPca9685<2>::DmaBuffer DMA_BUFFER_MEM_SECTION buffe
  57:../../libdaisy/src/dev/leddriver.h ****      * \param dma_buffer_b  The second buffer for the DMA. This must be placed in 
  58:../../libdaisy/src/dev/leddriver.h ****      *                      D2 memory by adding the DMA_BUFFER_MEM_SECTION attribute
  59:../../libdaisy/src/dev/leddriver.h ****      *                      like this: `LedDriverPca9685<2>::DmaBuffer DMA_BUFFER_MEM_SECTION buffe
  60:../../libdaisy/src/dev/leddriver.h ****      * \param oe_pin        If the output enable pin is used, supply its configuration here.
  61:../../libdaisy/src/dev/leddriver.h ****      *                      It will automatically be pulled low by the driver.
  62:../../libdaisy/src/dev/leddriver.h ****     */
  63:../../libdaisy/src/dev/leddriver.h ****     void Init(I2CHandle i2c,
  64:../../libdaisy/src/dev/leddriver.h ****               const uint8_t (&addresses)[numDrivers],
  65:../../libdaisy/src/dev/leddriver.h ****               DmaBuffer    dma_buffer_a,
  66:../../libdaisy/src/dev/leddriver.h ****               DmaBuffer    dma_buffer_b,
  67:../../libdaisy/src/dev/leddriver.h ****               dsy_gpio_pin oe_pin = {DSY_GPIOX, 0})
  68:../../libdaisy/src/dev/leddriver.h ****     {
  69:../../libdaisy/src/dev/leddriver.h ****         i2c_             = i2c;
  70:../../libdaisy/src/dev/leddriver.h ****         draw_buffer_     = dma_buffer_a;
  71:../../libdaisy/src/dev/leddriver.h ****         transmit_buffer_ = dma_buffer_b;
  72:../../libdaisy/src/dev/leddriver.h ****         oe_pin_          = oe_pin;
  73:../../libdaisy/src/dev/leddriver.h ****         for(int d = 0; d < numDrivers; d++)
  74:../../libdaisy/src/dev/leddriver.h ****             addresses_[d] = addresses[d];
  75:../../libdaisy/src/dev/leddriver.h ****         current_driver_idx_ = -1;
  76:../../libdaisy/src/dev/leddriver.h **** 
  77:../../libdaisy/src/dev/leddriver.h ****         InitializeBuffers();
  78:../../libdaisy/src/dev/leddriver.h ****         InitializeDrivers();
  79:../../libdaisy/src/dev/leddriver.h ****     }
  80:../../libdaisy/src/dev/leddriver.h **** 
  81:../../libdaisy/src/dev/leddriver.h ****     /** Returns the number of leds available from this driver. */
  82:../../libdaisy/src/dev/leddriver.h ****     constexpr int GetNumLeds() const { return numDrivers * 16; }
  83:../../libdaisy/src/dev/leddriver.h **** 
  84:../../libdaisy/src/dev/leddriver.h ****     /** Sets all leds to a gamma corrected brightness between 0.0f and 1.0f. */
  85:../../libdaisy/src/dev/leddriver.h ****     void SetAllTo(float brightness)
  86:../../libdaisy/src/dev/leddriver.h ****     {
  87:../../libdaisy/src/dev/leddriver.h ****         const uint8_t intBrightness
  88:../../libdaisy/src/dev/leddriver.h ****             = (uint8_t)(clamp(brightness * 255.0f, 0.0f, 255.0f));
  89:../../libdaisy/src/dev/leddriver.h ****         SetAllTo(intBrightness);
  90:../../libdaisy/src/dev/leddriver.h ****     }
  91:../../libdaisy/src/dev/leddriver.h **** 
  92:../../libdaisy/src/dev/leddriver.h ****     /** Sets all leds to a gamma corrected brightness between 0 and 255. */
  93:../../libdaisy/src/dev/leddriver.h ****     void SetAllTo(uint8_t brightness)
  94:../../libdaisy/src/dev/leddriver.h ****     {
  95:../../libdaisy/src/dev/leddriver.h ****         const uint16_t cycles = gamma_table_[brightness];
  96:../../libdaisy/src/dev/leddriver.h ****         SetAllToRaw(cycles);
  97:../../libdaisy/src/dev/leddriver.h ****     }
  98:../../libdaisy/src/dev/leddriver.h **** 
  99:../../libdaisy/src/dev/leddriver.h ****     /** Sets all leds to a raw 12bit brightness between 0 and 4095. */
 100:../../libdaisy/src/dev/leddriver.h ****     void SetAllToRaw(uint16_t rawBrightness)
 101:../../libdaisy/src/dev/leddriver.h ****     {
 102:../../libdaisy/src/dev/leddriver.h ****         for(int led = 0; led < GetNumLeds(); led++)
 103:../../libdaisy/src/dev/leddriver.h ****             SetLedRaw(led, rawBrightness);
 104:../../libdaisy/src/dev/leddriver.h ****     }
 105:../../libdaisy/src/dev/leddriver.h **** 
 106:../../libdaisy/src/dev/leddriver.h ****     /** Sets a single led to a gamma corrected brightness between 0.0f and 1.0f. */
ARM GAS  /tmp/ccjBmcCr.s 			page 40


 107:../../libdaisy/src/dev/leddriver.h ****     void SetLed(int ledIndex, float brightness)
 108:../../libdaisy/src/dev/leddriver.h ****     {
 109:../../libdaisy/src/dev/leddriver.h ****         const uint8_t intBrightness
 110:../../libdaisy/src/dev/leddriver.h ****             = (uint8_t)(clamp(brightness * 255.0f, 0.0f, 255.0f));
 111:../../libdaisy/src/dev/leddriver.h ****         SetLed(ledIndex, intBrightness);
 112:../../libdaisy/src/dev/leddriver.h ****     }
 113:../../libdaisy/src/dev/leddriver.h **** 
 114:../../libdaisy/src/dev/leddriver.h ****     /** Sets a single led to a gamma corrected brightness between 0 and 255. */
 115:../../libdaisy/src/dev/leddriver.h ****     void SetLed(int ledIndex, uint8_t brightness)
 116:../../libdaisy/src/dev/leddriver.h ****     {
 117:../../libdaisy/src/dev/leddriver.h ****         const uint16_t cycles = gamma_table_[brightness];
 118:../../libdaisy/src/dev/leddriver.h ****         SetLedRaw(ledIndex, cycles);
 119:../../libdaisy/src/dev/leddriver.h ****     }
 120:../../libdaisy/src/dev/leddriver.h **** 
 121:../../libdaisy/src/dev/leddriver.h ****     /** Sets a single led to a raw 12bit brightness between 0 and 4095. */
 122:../../libdaisy/src/dev/leddriver.h ****     void SetLedRaw(int ledIndex, uint16_t rawBrightness)
 123:../../libdaisy/src/dev/leddriver.h ****     {
 124:../../libdaisy/src/dev/leddriver.h ****         const auto d  = GetDriverForLed(ledIndex);
 125:../../libdaisy/src/dev/leddriver.h ****         const auto ch = GetDriverChannelForLed(ledIndex);
 126:../../libdaisy/src/dev/leddriver.h ****         // mask away the "full on" bit
 127:../../libdaisy/src/dev/leddriver.h ****         const auto on                = draw_buffer_[d].leds[ch].on & (0x0FFF);
 128:../../libdaisy/src/dev/leddriver.h ****         draw_buffer_[d].leds[ch].off = (on + rawBrightness) & (0x0FFF);
 129:../../libdaisy/src/dev/leddriver.h ****         // full on condition
 130:../../libdaisy/src/dev/leddriver.h ****         if(rawBrightness >= 0x0FFF)
 131:../../libdaisy/src/dev/leddriver.h ****             draw_buffer_[d].leds[ch].on = 0x1000 | on; // set "full on" bit
 132:../../libdaisy/src/dev/leddriver.h ****         else
 133:../../libdaisy/src/dev/leddriver.h ****             draw_buffer_[d].leds[ch].on = on; // clear "full on" bit
 134:../../libdaisy/src/dev/leddriver.h ****     }
 135:../../libdaisy/src/dev/leddriver.h **** 
 136:../../libdaisy/src/dev/leddriver.h ****     /** Swaps the current draw buffer and the current transmit buffer and
 137:../../libdaisy/src/dev/leddriver.h ****      *  starts transmitting the values to all chips.
 138:../../libdaisy/src/dev/leddriver.h ****      */
 139:../../libdaisy/src/dev/leddriver.h ****     void SwapBuffersAndTransmit()
 140:../../libdaisy/src/dev/leddriver.h ****     {
 141:../../libdaisy/src/dev/leddriver.h ****         // wait for current transmission to complete
 142:../../libdaisy/src/dev/leddriver.h ****         while(current_driver_idx_ >= 0) {};
 143:../../libdaisy/src/dev/leddriver.h **** 
 144:../../libdaisy/src/dev/leddriver.h ****         // swap buffers
 145:../../libdaisy/src/dev/leddriver.h ****         auto tmp         = transmit_buffer_;
 146:../../libdaisy/src/dev/leddriver.h ****         transmit_buffer_ = draw_buffer_;
 147:../../libdaisy/src/dev/leddriver.h ****         draw_buffer_     = tmp;
 148:../../libdaisy/src/dev/leddriver.h **** 
 149:../../libdaisy/src/dev/leddriver.h ****         // copy current transmit buffer contents to the new draw buffer
 150:../../libdaisy/src/dev/leddriver.h ****         // to keep the led settings (if required)
 151:../../libdaisy/src/dev/leddriver.h ****         if(persistentBufferContents)
 152:../../libdaisy/src/dev/leddriver.h ****         {
 153:../../libdaisy/src/dev/leddriver.h ****             for(int d = 0; d < numDrivers; d++)
 154:../../libdaisy/src/dev/leddriver.h ****                 for(int ch = 0; ch < 16; ch++)
 155:../../libdaisy/src/dev/leddriver.h ****                     draw_buffer_[d].leds[ch].off
 156:../../libdaisy/src/dev/leddriver.h ****                         = transmit_buffer_[d].leds[ch].off;
 157:../../libdaisy/src/dev/leddriver.h ****         }
 158:../../libdaisy/src/dev/leddriver.h **** 
 159:../../libdaisy/src/dev/leddriver.h ****         // start transmission
 160:../../libdaisy/src/dev/leddriver.h ****         current_driver_idx_ = -1;
 161:../../libdaisy/src/dev/leddriver.h ****         ContinueTransmission();
 162:../../libdaisy/src/dev/leddriver.h ****     }
 163:../../libdaisy/src/dev/leddriver.h **** 
ARM GAS  /tmp/ccjBmcCr.s 			page 41


 164:../../libdaisy/src/dev/leddriver.h ****   private:
 165:../../libdaisy/src/dev/leddriver.h ****     void ContinueTransmission()
 166:../../libdaisy/src/dev/leddriver.h ****     {
 167:../../libdaisy/src/dev/leddriver.h ****         current_driver_idx_++;
 168:../../libdaisy/src/dev/leddriver.h ****         if(current_driver_idx_ >= numDrivers)
 169:../../libdaisy/src/dev/leddriver.h ****         {
 170:../../libdaisy/src/dev/leddriver.h ****             current_driver_idx_ = -1;
 171:../../libdaisy/src/dev/leddriver.h ****             return;
 172:../../libdaisy/src/dev/leddriver.h ****         }
 173:../../libdaisy/src/dev/leddriver.h **** 
 174:../../libdaisy/src/dev/leddriver.h ****         const auto    d       = current_driver_idx_;
 175:../../libdaisy/src/dev/leddriver.h ****         const uint8_t address = PCA9685_I2C_BASE_ADDRESS | addresses_[d];
 176:../../libdaisy/src/dev/leddriver.h ****         const auto    status  = i2c_.TransmitDma(address,
 177:../../libdaisy/src/dev/leddriver.h ****                                              (uint8_t*)&transmit_buffer_[d],
 178:../../libdaisy/src/dev/leddriver.h ****                                              PCA9685TransmitBuffer::size,
 179:../../libdaisy/src/dev/leddriver.h ****                                              &TxCpltCallback,
 180:../../libdaisy/src/dev/leddriver.h ****                                              this);
 181:../../libdaisy/src/dev/leddriver.h ****         if(status != I2CHandle::Result::OK)
 182:../../libdaisy/src/dev/leddriver.h ****         {
 183:../../libdaisy/src/dev/leddriver.h ****             // TODO: fix this :-)
 184:../../libdaisy/src/dev/leddriver.h ****             // Reinit I2C (probably a flag to kill, but hey this works fairly well for now.)
 185:../../libdaisy/src/dev/leddriver.h ****             i2c_.Init(i2c_.GetConfig());
 186:../../libdaisy/src/dev/leddriver.h ****         }
 187:../../libdaisy/src/dev/leddriver.h ****     }
 188:../../libdaisy/src/dev/leddriver.h ****     uint16_t GetStartCycleForLed(int ledIndex) const
 189:../../libdaisy/src/dev/leddriver.h ****     {
 190:../../libdaisy/src/dev/leddriver.h ****         return (ledIndex << 2) & 0x0FFF; // shift each led by 4 cycles
 191:../../libdaisy/src/dev/leddriver.h ****     }
 192:../../libdaisy/src/dev/leddriver.h **** 
 193:../../libdaisy/src/dev/leddriver.h ****     uint8_t GetDriverForLed(int ledIndex) const { return ledIndex >> 4; }
 194:../../libdaisy/src/dev/leddriver.h **** 
 195:../../libdaisy/src/dev/leddriver.h ****     uint8_t GetDriverChannelForLed(int ledIndex) const
 196:../../libdaisy/src/dev/leddriver.h ****     {
 197:../../libdaisy/src/dev/leddriver.h ****         return ledIndex & 0x0F;
 198:../../libdaisy/src/dev/leddriver.h ****     }
 199:../../libdaisy/src/dev/leddriver.h **** 
 200:../../libdaisy/src/dev/leddriver.h ****     void InitializeBuffers()
 201:../../libdaisy/src/dev/leddriver.h ****     {
 202:../../libdaisy/src/dev/leddriver.h ****         for(int led = 0; led < GetNumLeds(); led++)
 203:../../libdaisy/src/dev/leddriver.h ****         {
 204:../../libdaisy/src/dev/leddriver.h ****             const auto d                     = GetDriverForLed(led);
 205:../../libdaisy/src/dev/leddriver.h ****             const auto ch                    = GetDriverChannelForLed(led);
 206:../../libdaisy/src/dev/leddriver.h ****             const auto startCycle            = GetStartCycleForLed(led);
 207:../../libdaisy/src/dev/leddriver.h ****             draw_buffer_[d].registerAddr     = PCA9685_LED0;
 208:../../libdaisy/src/dev/leddriver.h ****             draw_buffer_[d].leds[ch].on      = startCycle;
 209:../../libdaisy/src/dev/leddriver.h ****             draw_buffer_[d].leds[ch].off     = startCycle;
 210:../../libdaisy/src/dev/leddriver.h ****             transmit_buffer_[d].registerAddr = PCA9685_LED0;
 211:../../libdaisy/src/dev/leddriver.h ****             transmit_buffer_[d].leds[ch].on  = startCycle;
 212:../../libdaisy/src/dev/leddriver.h ****             transmit_buffer_[d].leds[ch].off = startCycle;
 213:../../libdaisy/src/dev/leddriver.h ****         }
 214:../../libdaisy/src/dev/leddriver.h ****     }
 215:../../libdaisy/src/dev/leddriver.h **** 
 216:../../libdaisy/src/dev/leddriver.h ****     void InitializeDrivers()
 217:../../libdaisy/src/dev/leddriver.h ****     {
 218:../../libdaisy/src/dev/leddriver.h ****         // init OE pin and pull low to enable outputs
 219:../../libdaisy/src/dev/leddriver.h ****         if(oe_pin_.port != DSY_GPIOX)
 220:../../libdaisy/src/dev/leddriver.h ****         {
ARM GAS  /tmp/ccjBmcCr.s 			page 42


 221:../../libdaisy/src/dev/leddriver.h ****             oe_pin_gpio_.pin  = oe_pin_;
 222:../../libdaisy/src/dev/leddriver.h ****             oe_pin_gpio_.mode = DSY_GPIO_MODE_OUTPUT_PP;
 223:../../libdaisy/src/dev/leddriver.h ****             oe_pin_gpio_.pull = DSY_GPIO_NOPULL;
 224:../../libdaisy/src/dev/leddriver.h ****             dsy_gpio_init(&oe_pin_gpio_);
 225:../../libdaisy/src/dev/leddriver.h ****             dsy_gpio_write(&oe_pin_gpio_, 0);
 226:../../libdaisy/src/dev/leddriver.h ****         }
 227:../../libdaisy/src/dev/leddriver.h **** 
 228:../../libdaisy/src/dev/leddriver.h ****         // init the individual drivers
 229:../../libdaisy/src/dev/leddriver.h ****         for(int d = 0; d < numDrivers; d++)
 230:../../libdaisy/src/dev/leddriver.h ****         {
 231:../../libdaisy/src/dev/leddriver.h ****             const uint8_t address = PCA9685_I2C_BASE_ADDRESS | addresses_[d];
 232:../../libdaisy/src/dev/leddriver.h ****             uint8_t       buffer[2];
 233:../../libdaisy/src/dev/leddriver.h ****             buffer[0] = PCA9685_MODE1;
 234:../../libdaisy/src/dev/leddriver.h ****             buffer[1] = 0x00;
 235:../../libdaisy/src/dev/leddriver.h ****             i2c_.TransmitBlocking(address, buffer, 2, 1);
 236:../../libdaisy/src/dev/leddriver.h ****             System::Delay(20);
 237:../../libdaisy/src/dev/leddriver.h ****             buffer[0] = PCA9685_MODE1;
 238:../../libdaisy/src/dev/leddriver.h ****             buffer[1] = 0x00;
 239:../../libdaisy/src/dev/leddriver.h ****             i2c_.TransmitBlocking(address, buffer, 2, 1);
 240:../../libdaisy/src/dev/leddriver.h ****             System::Delay(20);
 241:../../libdaisy/src/dev/leddriver.h ****             buffer[0] = PCA9685_MODE1;
 242:../../libdaisy/src/dev/leddriver.h ****             // auto increment on
 243:../../libdaisy/src/dev/leddriver.h ****             buffer[1] = 0b00100000;
 244:../../libdaisy/src/dev/leddriver.h ****             i2c_.TransmitBlocking(address, buffer, 2, 1);
 245:../../libdaisy/src/dev/leddriver.h ****             System::Delay(20);
 246:../../libdaisy/src/dev/leddriver.h ****             buffer[0] = PCA9685_MODE2;
 247:../../libdaisy/src/dev/leddriver.h ****             // OE-high = high Impedance
 248:../../libdaisy/src/dev/leddriver.h ****             // Push-Pull outputs
 249:../../libdaisy/src/dev/leddriver.h ****             // outputs change on STOP
 250:../../libdaisy/src/dev/leddriver.h ****             // outputs inverted
 251:../../libdaisy/src/dev/leddriver.h ****             buffer[1] = 0b000110110;
 252:../../libdaisy/src/dev/leddriver.h ****             i2c_.TransmitBlocking(address, buffer, 2, 5);
 253:../../libdaisy/src/dev/leddriver.h ****         }
 254:../../libdaisy/src/dev/leddriver.h ****     }
 255:../../libdaisy/src/dev/leddriver.h **** 
 256:../../libdaisy/src/dev/leddriver.h ****     // no std::clamp available in C++14.... remove this when C++17 is available
 257:../../libdaisy/src/dev/leddriver.h ****     template <typename T>
 258:../../libdaisy/src/dev/leddriver.h ****     T clamp(T in, T low, T high)
 259:../../libdaisy/src/dev/leddriver.h ****     {
 260:../../libdaisy/src/dev/leddriver.h ****         return (in < low) ? low : (high < in) ? high : in;
 261:../../libdaisy/src/dev/leddriver.h ****     }
 262:../../libdaisy/src/dev/leddriver.h **** 
 263:../../libdaisy/src/dev/leddriver.h ****     // an internal function to handle i2c callbacks
 264:../../libdaisy/src/dev/leddriver.h ****     // called when an I2C transmission completes and the next driver must be updated
 265:../../libdaisy/src/dev/leddriver.h ****     static void TxCpltCallback(void* context, I2CHandle::Result result)
 674              		.loc 18 265 17 is_stmt 1 view -0
 675              		.cfi_startproc
 676              		@ args = 0, pretend = 0, frame = 0
 677              		@ frame_needed = 0, uses_anonymous_args = 0
 678              		.loc 18 265 17 is_stmt 0 view .LVU163
 679 0000 70B5     		push	{r4, r5, r6, lr}
 680              		.cfi_def_cfa_offset 16
 681              		.cfi_offset 4, -16
 682              		.cfi_offset 5, -12
 683              		.cfi_offset 6, -8
 684              		.cfi_offset 14, -4
 685              	.LBB463:
ARM GAS  /tmp/ccjBmcCr.s 			page 43


 686              	.LBB464:
 167:../../libdaisy/src/dev/leddriver.h ****         if(current_driver_idx_ >= numDrivers)
 687              		.loc 18 167 9 view .LVU164
 688 0002 037D     		ldrb	r3, [r0, #20]	@ zero_extendqisi2
 689              	.LBE464:
 690              	.LBE463:
 691              		.loc 18 265 17 view .LVU165
 692 0004 82B0     		sub	sp, sp, #8
 693              		.cfi_def_cfa_offset 24
 694              		.loc 18 265 17 view .LVU166
 695 0006 0446     		mov	r4, r0
 696              	.LVL48:
 697              	.LBB472:
 698              	.LBI463:
 165:../../libdaisy/src/dev/leddriver.h ****     {
 699              		.loc 18 165 10 is_stmt 1 view .LVU167
 700              	.LBB469:
 167:../../libdaisy/src/dev/leddriver.h ****         if(current_driver_idx_ >= numDrivers)
 701              		.loc 18 167 9 is_stmt 0 view .LVU168
 702 0008 0133     		adds	r3, r3, #1
 703 000a 5BB2     		sxtb	r3, r3
 704 000c 0375     		strb	r3, [r0, #20]
 168:../../libdaisy/src/dev/leddriver.h ****         {
 705              		.loc 18 168 12 view .LVU169
 706 000e 037D     		ldrb	r3, [r0, #20]	@ zero_extendqisi2
 707 0010 5BB2     		sxtb	r3, r3
 168:../../libdaisy/src/dev/leddriver.h ****         {
 708              		.loc 18 168 9 view .LVU170
 709 0012 012B     		cmp	r3, #1
 710 0014 03DD     		ble	.L22
 170:../../libdaisy/src/dev/leddriver.h ****             return;
 711              		.loc 18 170 13 view .LVU171
 712 0016 FF23     		movs	r3, #255
 713 0018 0375     		strb	r3, [r0, #20]
 714              	.LVL49:
 715              	.L21:
 170:../../libdaisy/src/dev/leddriver.h ****             return;
 716              		.loc 18 170 13 view .LVU172
 717              	.LBE469:
 718              	.LBE472:
 266:../../libdaisy/src/dev/leddriver.h ****     {
 267:../../libdaisy/src/dev/leddriver.h ****         auto drv_ptr = reinterpret_cast<
 268:../../libdaisy/src/dev/leddriver.h ****             LedDriverPca9685<numDrivers, persistentBufferContents>*>(context);
 269:../../libdaisy/src/dev/leddriver.h ****         drv_ptr->ContinueTransmission();
 270:../../libdaisy/src/dev/leddriver.h ****     }
 719              		.loc 18 270 5 view .LVU173
 720 001a 02B0     		add	sp, sp, #8
 721              		.cfi_remember_state
 722              		.cfi_def_cfa_offset 16
 723              		@ sp needed
 724 001c 70BD     		pop	{r4, r5, r6, pc}
 725              	.LVL50:
 726              	.L22:
 727              		.cfi_restore_state
 728              	.LBB473:
 729              	.LBB470:
 730              	.LBB465:
ARM GAS  /tmp/ccjBmcCr.s 			page 44


 731              	.LBI465:
 165:../../libdaisy/src/dev/leddriver.h ****     {
 732              		.loc 18 165 10 is_stmt 1 view .LVU174
 733              	.LBB466:
 174:../../libdaisy/src/dev/leddriver.h ****         const uint8_t address = PCA9685_I2C_BASE_ADDRESS | addresses_[d];
 734              		.loc 18 174 23 is_stmt 0 view .LVU175
 735 001e 057D     		ldrb	r5, [r0, #20]	@ zero_extendqisi2
 736              	.LVL51:
 176:../../libdaisy/src/dev/leddriver.h ****                                              (uint8_t*)&transmit_buffer_[d],
 737              		.loc 18 176 23 view .LVU176
 738 0020 4123     		movs	r3, #65
 177:../../libdaisy/src/dev/leddriver.h ****                                              PCA9685TransmitBuffer::size,
 739              		.loc 18 177 73 view .LVU177
 740 0022 8668     		ldr	r6, [r0, #8]
 741 0024 69B2     		sxtb	r1, r5
 742              	.LVL52:
 175:../../libdaisy/src/dev/leddriver.h ****         const auto    status  = i2c_.TransmitDma(address,
 743              		.loc 18 175 70 view .LVU178
 744 0026 40FA85F5 		sxtab	r5, r0, r5
 745              	.LVL53:
 176:../../libdaisy/src/dev/leddriver.h ****                                              (uint8_t*)&transmit_buffer_[d],
 746              		.loc 18 176 23 view .LVU179
 747 002a 0190     		str	r0, [sp, #4]
 748              	.LVL54:
 177:../../libdaisy/src/dev/leddriver.h ****                                              PCA9685TransmitBuffer::size,
 749              		.loc 18 177 73 view .LVU180
 750 002c 01EB8112 		add	r2, r1, r1, lsl #6
 175:../../libdaisy/src/dev/leddriver.h ****         const auto    status  = i2c_.TransmitDma(address,
 751              		.loc 18 175 23 view .LVU181
 752 0030 297B     		ldrb	r1, [r5, #12]	@ zero_extendqisi2
 753              	.LVL55:
 176:../../libdaisy/src/dev/leddriver.h ****                                              (uint8_t*)&transmit_buffer_[d],
 754              		.loc 18 176 23 view .LVU182
 755 0032 094D     		ldr	r5, .L28
 756 0034 41F04001 		orr	r1, r1, #64
 757 0038 3244     		add	r2, r2, r6
 758 003a 0095     		str	r5, [sp]
 759 003c FFF7FEFF 		bl	_ZN5daisy9I2CHandle11TransmitDmaEtPhtPFvPvNS0_6ResultEES2_
 760              	.LVL56:
 181:../../libdaisy/src/dev/leddriver.h ****         {
 761              		.loc 18 181 9 view .LVU183
 762 0040 0028     		cmp	r0, #0
 763 0042 EAD0     		beq	.L21
 185:../../libdaisy/src/dev/leddriver.h ****         }
 764              		.loc 18 185 22 view .LVU184
 765 0044 2046     		mov	r0, r4
 766              	.LVL57:
 185:../../libdaisy/src/dev/leddriver.h ****         }
 767              		.loc 18 185 22 view .LVU185
 768 0046 FFF7FEFF 		bl	_ZNK5daisy9I2CHandle9GetConfigEv
 769              	.LVL58:
 770 004a 0146     		mov	r1, r0
 771 004c 2046     		mov	r0, r4
 772              	.LBE466:
 773              	.LBE465:
 774              	.LBE470:
 775              	.LBE473:
ARM GAS  /tmp/ccjBmcCr.s 			page 45


 776              		.loc 18 270 5 view .LVU186
 777 004e 02B0     		add	sp, sp, #8
 778              		.cfi_def_cfa_offset 16
 779              		@ sp needed
 780 0050 BDE87040 		pop	{r4, r5, r6, lr}
 781              		.cfi_restore 14
 782              		.cfi_restore 6
 783              		.cfi_restore 5
 784              		.cfi_restore 4
 785              		.cfi_def_cfa_offset 0
 786              	.LVL59:
 787              	.LBB474:
 788              	.LBB471:
 789              	.LBB468:
 790              	.LBB467:
 185:../../libdaisy/src/dev/leddriver.h ****         }
 791              		.loc 18 185 22 view .LVU187
 792 0054 FFF7FEBF 		b	_ZN5daisy9I2CHandle4InitERKNS0_6ConfigE
 793              	.LVL60:
 794              	.L29:
 185:../../libdaisy/src/dev/leddriver.h ****         }
 795              		.loc 18 185 22 view .LVU188
 796              		.align	2
 797              	.L28:
 798 0058 00000000 		.word	_ZN5daisy16LedDriverPca9685ILi2ELb1EE14TxCpltCallbackEPvNS_9I2CHandle6ResultE
 799              	.LBE467:
 800              	.LBE468:
 801              	.LBE471:
 802              	.LBE474:
 803              		.cfi_endproc
 804              	.LFE4744:
 806              		.section	.text._ZN5daisy11OledDisplayINS_13SSD130xDriverILj128ELj64ENS_24SSD130x4WireSpiTransportE
 807              		.align	1
 808              		.p2align 2,,3
 809              		.weak	_ZN5daisy11OledDisplayINS_13SSD130xDriverILj128ELj64ENS_24SSD130x4WireSpiTransportEEEE6Updat
 810              		.syntax unified
 811              		.thumb
 812              		.thumb_func
 813              		.fpu fpv5-d16
 815              	_ZN5daisy11OledDisplayINS_13SSD130xDriverILj128ELj64ENS_24SSD130x4WireSpiTransportEEEE6UpdateEv:
 816              	.LVL61:
 817              	.LFB4572:
  34:../../libdaisy/src/hid/disp/oled_display.h **** 
  35:../../libdaisy/src/hid/disp/oled_display.h ****     /**
  36:../../libdaisy/src/hid/disp/oled_display.h ****     Sets the pixel at the specified coordinate to be on/off.
  37:../../libdaisy/src/hid/disp/oled_display.h ****     \param x   x Coordinate
  38:../../libdaisy/src/hid/disp/oled_display.h ****     \param y   y coordinate
  39:../../libdaisy/src/hid/disp/oled_display.h ****     \param on  on or off
  40:../../libdaisy/src/hid/disp/oled_display.h ****     */
  41:../../libdaisy/src/hid/disp/oled_display.h ****     void DrawPixel(uint_fast8_t x, uint_fast8_t y, bool on) override
  42:../../libdaisy/src/hid/disp/oled_display.h ****     {
  43:../../libdaisy/src/hid/disp/oled_display.h ****         driver_.DrawPixel(x, y, on);
  44:../../libdaisy/src/hid/disp/oled_display.h ****     }
  45:../../libdaisy/src/hid/disp/oled_display.h **** 
  46:../../libdaisy/src/hid/disp/oled_display.h ****     /** 
  47:../../libdaisy/src/hid/disp/oled_display.h ****     Writes the current display buffer to the OLED device using SPI or I2C depending on 
  48:../../libdaisy/src/hid/disp/oled_display.h ****     how the object was initialized.
ARM GAS  /tmp/ccjBmcCr.s 			page 46


  49:../../libdaisy/src/hid/disp/oled_display.h ****     */
  50:../../libdaisy/src/hid/disp/oled_display.h ****     void Update() override { driver_.Update(); }
 818              		.loc 5 50 10 is_stmt 1 view -0
 819              		.cfi_startproc
 820              		@ args = 0, pretend = 0, frame = 8
 821              		@ frame_needed = 0, uses_anonymous_args = 0
 822              	.LBB485:
 823              	.LBI485:
 254:../../libdaisy/src/dev/oled_ssd130x.h ****         }
 255:../../libdaisy/src/dev/oled_ssd130x.h ****     };
 256:../../libdaisy/src/dev/oled_ssd130x.h **** 
 257:../../libdaisy/src/dev/oled_ssd130x.h ****     /**
 258:../../libdaisy/src/dev/oled_ssd130x.h ****      * Update the display 
 259:../../libdaisy/src/dev/oled_ssd130x.h ****     */
 260:../../libdaisy/src/dev/oled_ssd130x.h ****     void Update()
 824              		.loc 12 260 10 view .LVU190
 825              	.LBB486:
 261:../../libdaisy/src/dev/oled_ssd130x.h ****     {
 262:../../libdaisy/src/dev/oled_ssd130x.h ****         uint8_t i;
 263:../../libdaisy/src/dev/oled_ssd130x.h ****         uint8_t high_column_addr;
 264:../../libdaisy/src/dev/oled_ssd130x.h ****         switch(height)
 265:../../libdaisy/src/dev/oled_ssd130x.h ****         {
 266:../../libdaisy/src/dev/oled_ssd130x.h ****             case 32: high_column_addr = 0x12; break;
 267:../../libdaisy/src/dev/oled_ssd130x.h **** 
 268:../../libdaisy/src/dev/oled_ssd130x.h ****             default: high_column_addr = 0x10; break;
 269:../../libdaisy/src/dev/oled_ssd130x.h ****         }
 270:../../libdaisy/src/dev/oled_ssd130x.h ****         for(i = 0; i < (height / 8); i++)
 826              		.loc 12 270 22 view .LVU191
 827              	.LBE486:
 828              	.LBE485:
 829              		.loc 5 50 10 is_stmt 0 view .LVU192
 830 0000 2DE9F041 		push	{r4, r5, r6, r7, r8, lr}
 831              		.cfi_def_cfa_offset 24
 832              		.cfi_offset 4, -24
 833              		.cfi_offset 5, -20
 834              		.cfi_offset 6, -16
 835              		.cfi_offset 7, -12
 836              		.cfi_offset 8, -8
 837              		.cfi_offset 14, -4
 838 0004 B025     		movs	r5, #176
 839 0006 82B0     		sub	sp, sp, #8
 840              		.cfi_def_cfa_offset 32
 841 0008 00F10807 		add	r7, r0, #8
 842 000c 00F11006 		add	r6, r0, #16
 843 0010 00F11404 		add	r4, r0, #20
 844              	.LVL62:
 845              	.L31:
 846              	.LBB499:
 847              	.LBB498:
 848              	.LBB487:
 849              	.LBB488:
 111:../../libdaisy/src/dev/oled_ssd130x.h ****         spi_.BlockingTransmit(&cmd, 1);
 850              		.loc 12 111 23 view .LVU193
 851 0014 0021     		movs	r1, #0
 852 0016 3046     		mov	r0, r6
 853 0018 8DF80750 		strb	r5, [sp, #7]
 854              	.LVL63:
ARM GAS  /tmp/ccjBmcCr.s 			page 47


 111:../../libdaisy/src/dev/oled_ssd130x.h ****         spi_.BlockingTransmit(&cmd, 1);
 855              		.loc 12 111 23 view .LVU194
 856              	.LBE488:
 857              	.LBI487:
 109:../../libdaisy/src/dev/oled_ssd130x.h ****     {
 858              		.loc 12 109 10 is_stmt 1 view .LVU195
 859              	.LBB489:
 111:../../libdaisy/src/dev/oled_ssd130x.h ****         spi_.BlockingTransmit(&cmd, 1);
 860              		.loc 12 111 9 view .LVU196
 861 001c 0135     		adds	r5, r5, #1
 862              	.LVL64:
 111:../../libdaisy/src/dev/oled_ssd130x.h ****         spi_.BlockingTransmit(&cmd, 1);
 863              		.loc 12 111 9 is_stmt 0 view .LVU197
 864 001e 8846     		mov	r8, r1
 111:../../libdaisy/src/dev/oled_ssd130x.h ****         spi_.BlockingTransmit(&cmd, 1);
 865              		.loc 12 111 23 view .LVU198
 866 0020 FFF7FEFF 		bl	dsy_gpio_write
 867              	.LVL65:
 112:../../libdaisy/src/dev/oled_ssd130x.h ****     };
 868              		.loc 12 112 9 is_stmt 1 view .LVU199
 112:../../libdaisy/src/dev/oled_ssd130x.h ****     };
 869              		.loc 12 112 30 is_stmt 0 view .LVU200
 870 0024 6423     		movs	r3, #100
 871 0026 0122     		movs	r2, #1
 872 0028 0DF10701 		add	r1, sp, #7
 873 002c 3846     		mov	r0, r7
 874 002e FFF7FEFF 		bl	_ZN5daisy9SpiHandle16BlockingTransmitEPhjm
 875              	.LVL66:
 112:../../libdaisy/src/dev/oled_ssd130x.h ****     };
 876              		.loc 12 112 30 view .LVU201
 877              	.LBE489:
 878              	.LBE487:
 879              	.LBB490:
 880              	.LBB491:
 111:../../libdaisy/src/dev/oled_ssd130x.h ****         spi_.BlockingTransmit(&cmd, 1);
 881              		.loc 12 111 23 view .LVU202
 882 0032 4146     		mov	r1, r8
 883 0034 3046     		mov	r0, r6
 884 0036 8DF80780 		strb	r8, [sp, #7]
 885              	.LVL67:
 111:../../libdaisy/src/dev/oled_ssd130x.h ****         spi_.BlockingTransmit(&cmd, 1);
 886              		.loc 12 111 23 view .LVU203
 887              	.LBE491:
 888              	.LBI490:
 109:../../libdaisy/src/dev/oled_ssd130x.h ****     {
 889              		.loc 12 109 10 is_stmt 1 view .LVU204
 890              	.LBB492:
 111:../../libdaisy/src/dev/oled_ssd130x.h ****         spi_.BlockingTransmit(&cmd, 1);
 891              		.loc 12 111 9 view .LVU205
 111:../../libdaisy/src/dev/oled_ssd130x.h ****         spi_.BlockingTransmit(&cmd, 1);
 892              		.loc 12 111 23 is_stmt 0 view .LVU206
 893 003a FFF7FEFF 		bl	dsy_gpio_write
 894              	.LVL68:
 112:../../libdaisy/src/dev/oled_ssd130x.h ****     };
 895              		.loc 12 112 9 is_stmt 1 view .LVU207
 112:../../libdaisy/src/dev/oled_ssd130x.h ****     };
 896              		.loc 12 112 30 is_stmt 0 view .LVU208
ARM GAS  /tmp/ccjBmcCr.s 			page 48


 897 003e 0122     		movs	r2, #1
 898 0040 6423     		movs	r3, #100
 899 0042 0DF10701 		add	r1, sp, #7
 900 0046 3846     		mov	r0, r7
 901 0048 EDB2     		uxtb	r5, r5
 902 004a FFF7FEFF 		bl	_ZN5daisy9SpiHandle16BlockingTransmitEPhjm
 903              	.LVL69:
 112:../../libdaisy/src/dev/oled_ssd130x.h ****     };
 904              		.loc 12 112 30 view .LVU209
 905 004e 1023     		movs	r3, #16
 906              	.LBE492:
 907              	.LBE490:
 908              	.LBB493:
 909              	.LBB494:
 111:../../libdaisy/src/dev/oled_ssd130x.h ****         spi_.BlockingTransmit(&cmd, 1);
 910              		.loc 12 111 23 view .LVU210
 911 0050 4146     		mov	r1, r8
 912 0052 3046     		mov	r0, r6
 913 0054 8DF80730 		strb	r3, [sp, #7]
 914              	.LVL70:
 111:../../libdaisy/src/dev/oled_ssd130x.h ****         spi_.BlockingTransmit(&cmd, 1);
 915              		.loc 12 111 23 view .LVU211
 916              	.LBE494:
 917              	.LBI493:
 109:../../libdaisy/src/dev/oled_ssd130x.h ****     {
 918              		.loc 12 109 10 is_stmt 1 view .LVU212
 919              	.LBB495:
 111:../../libdaisy/src/dev/oled_ssd130x.h ****         spi_.BlockingTransmit(&cmd, 1);
 920              		.loc 12 111 9 view .LVU213
 111:../../libdaisy/src/dev/oled_ssd130x.h ****         spi_.BlockingTransmit(&cmd, 1);
 921              		.loc 12 111 23 is_stmt 0 view .LVU214
 922 0058 FFF7FEFF 		bl	dsy_gpio_write
 923              	.LVL71:
 112:../../libdaisy/src/dev/oled_ssd130x.h ****     };
 924              		.loc 12 112 9 is_stmt 1 view .LVU215
 112:../../libdaisy/src/dev/oled_ssd130x.h ****     };
 925              		.loc 12 112 30 is_stmt 0 view .LVU216
 926 005c 6423     		movs	r3, #100
 927 005e 0122     		movs	r2, #1
 928 0060 0DF10701 		add	r1, sp, #7
 929 0064 3846     		mov	r0, r7
 930 0066 FFF7FEFF 		bl	_ZN5daisy9SpiHandle16BlockingTransmitEPhjm
 931              	.LVL72:
 112:../../libdaisy/src/dev/oled_ssd130x.h ****     };
 932              		.loc 12 112 30 view .LVU217
 933              	.LBE495:
 934              	.LBE493:
 935              	.LBB496:
 936              	.LBI496:
 115:../../libdaisy/src/dev/oled_ssd130x.h ****     {
 937              		.loc 12 115 10 is_stmt 1 view .LVU218
 938              	.LBB497:
 117:../../libdaisy/src/dev/oled_ssd130x.h ****         spi_.BlockingTransmit(buff, size);
 939              		.loc 12 117 9 view .LVU219
 117:../../libdaisy/src/dev/oled_ssd130x.h ****         spi_.BlockingTransmit(buff, size);
 940              		.loc 12 117 23 is_stmt 0 view .LVU220
 941 006a 0121     		movs	r1, #1
ARM GAS  /tmp/ccjBmcCr.s 			page 49


 942 006c 3046     		mov	r0, r6
 943 006e FFF7FEFF 		bl	dsy_gpio_write
 944              	.LVL73:
 118:../../libdaisy/src/dev/oled_ssd130x.h ****     };
 945              		.loc 12 118 9 is_stmt 1 view .LVU221
 118:../../libdaisy/src/dev/oled_ssd130x.h ****     };
 946              		.loc 12 118 30 is_stmt 0 view .LVU222
 947 0072 8022     		movs	r2, #128
 948 0074 2146     		mov	r1, r4
 949 0076 6423     		movs	r3, #100
 950 0078 3846     		mov	r0, r7
 951 007a 1444     		add	r4, r4, r2
 952              	.LVL74:
 118:../../libdaisy/src/dev/oled_ssd130x.h ****     };
 953              		.loc 12 118 30 view .LVU223
 954 007c FFF7FEFF 		bl	_ZN5daisy9SpiHandle16BlockingTransmitEPhjm
 955              	.LVL75:
 118:../../libdaisy/src/dev/oled_ssd130x.h ****     };
 956              		.loc 12 118 30 view .LVU224
 957              	.LBE497:
 958              	.LBE496:
 959              		.loc 12 270 9 is_stmt 1 view .LVU225
 960              		.loc 12 270 22 view .LVU226
 961 0080 B82D     		cmp	r5, #184
 962 0082 C7D1     		bne	.L31
 963              	.LBE498:
 964              	.LBE499:
 965              		.loc 5 50 48 is_stmt 0 view .LVU227
 966 0084 02B0     		add	sp, sp, #8
 967              		.cfi_def_cfa_offset 24
 968              		@ sp needed
 969 0086 BDE8F081 		pop	{r4, r5, r6, r7, r8, pc}
 970              		.loc 5 50 48 view .LVU228
 971              		.cfi_endproc
 972              	.LFE4572:
 974 008a 00BF     		.section	.text._ZN5daisy25OneBitGraphicsDisplayImplINS_11OledDisplayINS_13SSD130xDriverILj128ELj64
 975              		.align	1
 976              		.p2align 2,,3
 977              		.weak	_ZN5daisy25OneBitGraphicsDisplayImplINS_11OledDisplayINS_13SSD130xDriverILj128ELj64ENS_24SSD
 978              		.syntax unified
 979              		.thumb
 980              		.thumb_func
 981              		.fpu fpv5-d16
 983              	_ZN5daisy25OneBitGraphicsDisplayImplINS_11OledDisplayINS_13SSD130xDriverILj128ELj64ENS_24SSD130x4Wi
 984              	.LVL76:
 985              	.LFB4701:
 220:../../libdaisy/src/hid/disp/display.h **** 
 221:../../libdaisy/src/hid/disp/display.h ****     void DrawLine(uint_fast8_t x1,
 222:../../libdaisy/src/hid/disp/display.h ****                   uint_fast8_t y1,
 223:../../libdaisy/src/hid/disp/display.h ****                   uint_fast8_t x2,
 224:../../libdaisy/src/hid/disp/display.h ****                   uint_fast8_t y2,
 225:../../libdaisy/src/hid/disp/display.h ****                   bool         on) override
 226:../../libdaisy/src/hid/disp/display.h ****     {
 227:../../libdaisy/src/hid/disp/display.h ****         int_fast16_t deltaX = abs((int_fast16_t)x2 - (int_fast16_t)x1);
 228:../../libdaisy/src/hid/disp/display.h ****         int_fast16_t deltaY = abs((int_fast16_t)y2 - (int_fast16_t)y1);
 229:../../libdaisy/src/hid/disp/display.h ****         int_fast16_t signX  = ((x1 < x2) ? 1 : -1);
 230:../../libdaisy/src/hid/disp/display.h ****         int_fast16_t signY  = ((y1 < y2) ? 1 : -1);
ARM GAS  /tmp/ccjBmcCr.s 			page 50


 231:../../libdaisy/src/hid/disp/display.h ****         int_fast16_t error  = deltaX - deltaY;
 232:../../libdaisy/src/hid/disp/display.h ****         int_fast16_t error2;
 233:../../libdaisy/src/hid/disp/display.h **** 
 234:../../libdaisy/src/hid/disp/display.h ****         // If we write "ChildType::DrawPixel(x2, y2, on);", we end up with
 235:../../libdaisy/src/hid/disp/display.h ****         // all sorts of weird compiler errors when the Child class is a template
 236:../../libdaisy/src/hid/disp/display.h ****         // class. The only way around this is to use this very verbose syntax:
 237:../../libdaisy/src/hid/disp/display.h ****         ((ChildType*)(this))->ChildType::DrawPixel(x2, y2, on);
 238:../../libdaisy/src/hid/disp/display.h **** 
 239:../../libdaisy/src/hid/disp/display.h ****         while((x1 != x2) || (y1 != y2))
 240:../../libdaisy/src/hid/disp/display.h ****         {
 241:../../libdaisy/src/hid/disp/display.h ****             ((ChildType*)(this))->ChildType::DrawPixel(x1, y1, on);
 242:../../libdaisy/src/hid/disp/display.h ****             error2 = error * 2;
 243:../../libdaisy/src/hid/disp/display.h ****             if(error2 > -deltaY)
 244:../../libdaisy/src/hid/disp/display.h ****             {
 245:../../libdaisy/src/hid/disp/display.h ****                 error -= deltaY;
 246:../../libdaisy/src/hid/disp/display.h ****                 x1 += signX;
 247:../../libdaisy/src/hid/disp/display.h ****             }
 248:../../libdaisy/src/hid/disp/display.h **** 
 249:../../libdaisy/src/hid/disp/display.h ****             if(error2 < deltaX)
 250:../../libdaisy/src/hid/disp/display.h ****             {
 251:../../libdaisy/src/hid/disp/display.h ****                 error += deltaX;
 252:../../libdaisy/src/hid/disp/display.h ****                 y1 += signY;
 253:../../libdaisy/src/hid/disp/display.h ****             }
 254:../../libdaisy/src/hid/disp/display.h ****         }
 255:../../libdaisy/src/hid/disp/display.h ****     }
 256:../../libdaisy/src/hid/disp/display.h **** 
 257:../../libdaisy/src/hid/disp/display.h ****     void DrawRect(uint_fast8_t x1,
 258:../../libdaisy/src/hid/disp/display.h ****                   uint_fast8_t y1,
 259:../../libdaisy/src/hid/disp/display.h ****                   uint_fast8_t x2,
 260:../../libdaisy/src/hid/disp/display.h ****                   uint_fast8_t y2,
 261:../../libdaisy/src/hid/disp/display.h ****                   bool         on,
 262:../../libdaisy/src/hid/disp/display.h ****                   bool         fill = false) override
 263:../../libdaisy/src/hid/disp/display.h ****     {
 264:../../libdaisy/src/hid/disp/display.h ****         if(fill)
 265:../../libdaisy/src/hid/disp/display.h ****         {
 266:../../libdaisy/src/hid/disp/display.h ****             for(uint_fast8_t x = x1; x <= x2; x++)
 267:../../libdaisy/src/hid/disp/display.h ****             {
 268:../../libdaisy/src/hid/disp/display.h ****                 for(uint_fast8_t y = y1; y <= y2; y++)
 269:../../libdaisy/src/hid/disp/display.h ****                 {
 270:../../libdaisy/src/hid/disp/display.h ****                     ((ChildType*)(this))->ChildType::DrawPixel(x, y, on);
 271:../../libdaisy/src/hid/disp/display.h ****                 }
 272:../../libdaisy/src/hid/disp/display.h ****             }
 273:../../libdaisy/src/hid/disp/display.h ****         }
 274:../../libdaisy/src/hid/disp/display.h ****         else
 275:../../libdaisy/src/hid/disp/display.h ****         {
 276:../../libdaisy/src/hid/disp/display.h ****             ((ChildType*)(this))->ChildType::DrawLine(x1, y1, x2, y1, on);
 277:../../libdaisy/src/hid/disp/display.h ****             ((ChildType*)(this))->ChildType::DrawLine(x2, y1, x2, y2, on);
 278:../../libdaisy/src/hid/disp/display.h ****             ((ChildType*)(this))->ChildType::DrawLine(x2, y2, x1, y2, on);
 279:../../libdaisy/src/hid/disp/display.h ****             ((ChildType*)(this))->ChildType::DrawLine(x1, y2, x1, y1, on);
 280:../../libdaisy/src/hid/disp/display.h ****         }
 281:../../libdaisy/src/hid/disp/display.h ****     }
 282:../../libdaisy/src/hid/disp/display.h **** 
 283:../../libdaisy/src/hid/disp/display.h ****     void DrawArc(uint_fast8_t x,
 284:../../libdaisy/src/hid/disp/display.h ****                  uint_fast8_t y,
 285:../../libdaisy/src/hid/disp/display.h ****                  uint_fast8_t radius,
 286:../../libdaisy/src/hid/disp/display.h ****                  int_fast16_t start_angle,
 287:../../libdaisy/src/hid/disp/display.h ****                  int_fast16_t sweep,
ARM GAS  /tmp/ccjBmcCr.s 			page 51


 288:../../libdaisy/src/hid/disp/display.h ****                  bool         on) override
 289:../../libdaisy/src/hid/disp/display.h ****     {
 290:../../libdaisy/src/hid/disp/display.h ****         // Values to calculate the circle
 291:../../libdaisy/src/hid/disp/display.h ****         int_fast16_t t_x, t_y, err, e2;
 292:../../libdaisy/src/hid/disp/display.h **** 
 293:../../libdaisy/src/hid/disp/display.h ****         // Temporary values to speed up comparisons
 294:../../libdaisy/src/hid/disp/display.h ****         float t_sxy, t_syx, t_sxny, t_synx;
 295:../../libdaisy/src/hid/disp/display.h ****         float t_exy, t_eyx, t_exny, t_eynx;
 296:../../libdaisy/src/hid/disp/display.h **** 
 297:../../libdaisy/src/hid/disp/display.h ****         float start_angle_rad, end_angle_rad;
 298:../../libdaisy/src/hid/disp/display.h ****         float start_x, start_y, end_x, end_y;
 299:../../libdaisy/src/hid/disp/display.h **** 
 300:../../libdaisy/src/hid/disp/display.h ****         bool d1, d2, d3, d4;
 301:../../libdaisy/src/hid/disp/display.h **** 
 302:../../libdaisy/src/hid/disp/display.h ****         d1 = d2 = d3 = d4 = true;
 303:../../libdaisy/src/hid/disp/display.h **** 
 304:../../libdaisy/src/hid/disp/display.h ****         bool circle = false;
 305:../../libdaisy/src/hid/disp/display.h **** 
 306:../../libdaisy/src/hid/disp/display.h ****         if(sweep < 0)
 307:../../libdaisy/src/hid/disp/display.h ****         {
 308:../../libdaisy/src/hid/disp/display.h ****             start_angle += sweep;
 309:../../libdaisy/src/hid/disp/display.h ****             sweep = -sweep;
 310:../../libdaisy/src/hid/disp/display.h ****         }
 311:../../libdaisy/src/hid/disp/display.h **** 
 312:../../libdaisy/src/hid/disp/display.h ****         start_angle_rad = deg2rad(start_angle);
 313:../../libdaisy/src/hid/disp/display.h ****         end_angle_rad   = deg2rad(start_angle + sweep);
 314:../../libdaisy/src/hid/disp/display.h **** 
 315:../../libdaisy/src/hid/disp/display.h ****         start_x = cos(start_angle_rad) * radius;
 316:../../libdaisy/src/hid/disp/display.h ****         start_y = -sin(start_angle_rad) * radius;
 317:../../libdaisy/src/hid/disp/display.h ****         end_x   = cos(end_angle_rad) * radius;
 318:../../libdaisy/src/hid/disp/display.h ****         end_y   = -sin(end_angle_rad) * radius;
 319:../../libdaisy/src/hid/disp/display.h **** 
 320:../../libdaisy/src/hid/disp/display.h ****         // Check if start and endpoint are very near
 321:../../libdaisy/src/hid/disp/display.h ****         if((end_x - start_x) * (end_x - start_x)
 322:../../libdaisy/src/hid/disp/display.h ****                + (end_y - start_y) * (end_y - start_y)
 323:../../libdaisy/src/hid/disp/display.h ****            < 2.0f)
 324:../../libdaisy/src/hid/disp/display.h ****         {
 325:../../libdaisy/src/hid/disp/display.h ****             if(sweep > 180)
 326:../../libdaisy/src/hid/disp/display.h ****                 circle = true;
 327:../../libdaisy/src/hid/disp/display.h ****             else
 328:../../libdaisy/src/hid/disp/display.h ****                 // Nothing to draw
 329:../../libdaisy/src/hid/disp/display.h ****                 return;
 330:../../libdaisy/src/hid/disp/display.h ****         }
 331:../../libdaisy/src/hid/disp/display.h **** 
 332:../../libdaisy/src/hid/disp/display.h ****         t_x = -radius;
 333:../../libdaisy/src/hid/disp/display.h ****         t_y = 0;
 334:../../libdaisy/src/hid/disp/display.h ****         err = 2 - 2 * radius;
 335:../../libdaisy/src/hid/disp/display.h **** 
 336:../../libdaisy/src/hid/disp/display.h ****         do
 337:../../libdaisy/src/hid/disp/display.h ****         {
 338:../../libdaisy/src/hid/disp/display.h ****             if(!circle)
 339:../../libdaisy/src/hid/disp/display.h ****             {
 340:../../libdaisy/src/hid/disp/display.h ****                 t_sxy  = start_x * t_y;
 341:../../libdaisy/src/hid/disp/display.h ****                 t_syx  = start_y * t_x;
 342:../../libdaisy/src/hid/disp/display.h ****                 t_sxny = start_x * -t_y;
 343:../../libdaisy/src/hid/disp/display.h ****                 t_synx = start_y * -t_x;
 344:../../libdaisy/src/hid/disp/display.h ****                 t_exy  = end_x * t_y;
ARM GAS  /tmp/ccjBmcCr.s 			page 52


 345:../../libdaisy/src/hid/disp/display.h ****                 t_eyx  = end_y * t_x;
 346:../../libdaisy/src/hid/disp/display.h ****                 t_exny = end_x * -t_y;
 347:../../libdaisy/src/hid/disp/display.h ****                 t_eynx = end_y * -t_x;
 348:../../libdaisy/src/hid/disp/display.h **** 
 349:../../libdaisy/src/hid/disp/display.h ****                 if(sweep > 180)
 350:../../libdaisy/src/hid/disp/display.h ****                 {
 351:../../libdaisy/src/hid/disp/display.h ****                     d1 = (t_sxy - t_synx < 0 || t_exy - t_eynx > 0);
 352:../../libdaisy/src/hid/disp/display.h ****                     d2 = (t_sxy - t_syx < 0 || t_exy - t_eyx > 0);
 353:../../libdaisy/src/hid/disp/display.h ****                     d3 = (t_sxny - t_syx < 0 || t_exny - t_eyx > 0);
 354:../../libdaisy/src/hid/disp/display.h ****                     d4 = (t_sxny - t_synx < 0 || t_exny - t_eynx > 0);
 355:../../libdaisy/src/hid/disp/display.h ****                 }
 356:../../libdaisy/src/hid/disp/display.h ****                 else
 357:../../libdaisy/src/hid/disp/display.h ****                 {
 358:../../libdaisy/src/hid/disp/display.h ****                     d1 = (t_sxy - t_synx < 0 && t_exy - t_eynx > 0);
 359:../../libdaisy/src/hid/disp/display.h ****                     d2 = (t_sxy - t_syx < 0 && t_exy - t_eyx > 0);
 360:../../libdaisy/src/hid/disp/display.h ****                     d3 = (t_sxny - t_syx < 0 && t_exny - t_eyx > 0);
 361:../../libdaisy/src/hid/disp/display.h ****                     d4 = (t_sxny - t_synx < 0 && t_exny - t_eynx > 0);
 362:../../libdaisy/src/hid/disp/display.h ****                 }
 363:../../libdaisy/src/hid/disp/display.h ****             }
 364:../../libdaisy/src/hid/disp/display.h **** 
 365:../../libdaisy/src/hid/disp/display.h ****             if(d1)
 366:../../libdaisy/src/hid/disp/display.h ****                 ((ChildType*)(this))
 367:../../libdaisy/src/hid/disp/display.h ****                     ->ChildType::DrawPixel(x - t_x, y + t_y, on);
 368:../../libdaisy/src/hid/disp/display.h ****             if(d2)
 369:../../libdaisy/src/hid/disp/display.h ****                 ((ChildType*)(this))
 370:../../libdaisy/src/hid/disp/display.h ****                     ->ChildType::DrawPixel(x + t_x, y + t_y, on);
 371:../../libdaisy/src/hid/disp/display.h ****             if(d3)
 372:../../libdaisy/src/hid/disp/display.h ****                 ((ChildType*)(this))
 373:../../libdaisy/src/hid/disp/display.h ****                     ->ChildType::DrawPixel(x + t_x, y - t_y, on);
 374:../../libdaisy/src/hid/disp/display.h ****             if(d4)
 375:../../libdaisy/src/hid/disp/display.h ****                 ((ChildType*)(this))
 376:../../libdaisy/src/hid/disp/display.h ****                     ->ChildType::DrawPixel(x - t_x, y - t_y, on);
 377:../../libdaisy/src/hid/disp/display.h **** 
 378:../../libdaisy/src/hid/disp/display.h ****             e2 = err;
 379:../../libdaisy/src/hid/disp/display.h ****             if(e2 <= t_y)
 380:../../libdaisy/src/hid/disp/display.h ****             {
 381:../../libdaisy/src/hid/disp/display.h ****                 t_y++;
 382:../../libdaisy/src/hid/disp/display.h ****                 err = err + (t_y * 2 + 1);
 383:../../libdaisy/src/hid/disp/display.h ****                 if(-t_x == t_y && e2 <= t_x)
 384:../../libdaisy/src/hid/disp/display.h ****                 {
 385:../../libdaisy/src/hid/disp/display.h ****                     e2 = 0;
 386:../../libdaisy/src/hid/disp/display.h ****                 }
 387:../../libdaisy/src/hid/disp/display.h ****             }
 388:../../libdaisy/src/hid/disp/display.h ****             if(e2 > t_x)
 389:../../libdaisy/src/hid/disp/display.h ****             {
 390:../../libdaisy/src/hid/disp/display.h ****                 t_x++;
 391:../../libdaisy/src/hid/disp/display.h ****                 err = err + (t_x * 2 + 1);
 392:../../libdaisy/src/hid/disp/display.h ****             }
 393:../../libdaisy/src/hid/disp/display.h ****         } while(t_x <= 0);
 394:../../libdaisy/src/hid/disp/display.h ****     }
 395:../../libdaisy/src/hid/disp/display.h **** 
 396:../../libdaisy/src/hid/disp/display.h ****     char WriteChar(char ch, FontDef font, bool on) override
 986              		.loc 6 396 10 is_stmt 1 view -0
 987              		.cfi_startproc
 988              		@ args = 4, pretend = 0, frame = 16
 989              		@ frame_needed = 0, uses_anonymous_args = 0
 990              		.loc 6 396 10 is_stmt 0 view .LVU230
ARM GAS  /tmp/ccjBmcCr.s 			page 53


 991 0000 2DE9F04F 		push	{r4, r5, r6, r7, r8, r9, r10, fp, lr}
 992              		.cfi_def_cfa_offset 36
 993              		.cfi_offset 4, -36
 994              		.cfi_offset 5, -32
 995              		.cfi_offset 6, -28
 996              		.cfi_offset 7, -24
 997              		.cfi_offset 8, -20
 998              		.cfi_offset 9, -16
 999              		.cfi_offset 10, -12
 1000              		.cfi_offset 11, -8
 1001              		.cfi_offset 14, -4
 1002 0004 85B0     		sub	sp, sp, #20
 1003              		.cfi_def_cfa_offset 56
 1004              	.LVL77:
 397:../../libdaisy/src/hid/disp/display.h ****     {
 398:../../libdaisy/src/hid/disp/display.h ****         uint32_t i, b, j;
 399:../../libdaisy/src/hid/disp/display.h **** 
 400:../../libdaisy/src/hid/disp/display.h ****         // Check if character is valid
 401:../../libdaisy/src/hid/disp/display.h ****         if(ch < 32 || ch > 126)
 1005              		.loc 6 401 20 view .LVU231
 1006 0006 A1F12004 		sub	r4, r1, #32
 396:../../libdaisy/src/hid/disp/display.h ****     {
 1007              		.loc 6 396 10 view .LVU232
 1008 000a 0091     		str	r1, [sp]
 1009 000c 04A9     		add	r1, sp, #16
 1010              	.LVL78:
 396:../../libdaisy/src/hid/disp/display.h ****     {
 1011              		.loc 6 396 10 view .LVU233
 1012 000e 9DF83880 		ldrb	r8, [sp, #56]	@ zero_extendqisi2
 1013 0012 01E90C00 		stmdb	r1, {r2, r3}
 1014              	.LVL79:
 1015              		.loc 6 401 9 view .LVU234
 1016 0016 E3B2     		uxtb	r3, r4
 1017 0018 5E2B     		cmp	r3, #94
 1018 001a 00F29480 		bhi	.L38
 402:../../libdaisy/src/hid/disp/display.h ****             return 0;
 403:../../libdaisy/src/hid/disp/display.h **** 
 404:../../libdaisy/src/hid/disp/display.h ****         // Check remaining space on current line
 405:../../libdaisy/src/hid/disp/display.h ****         if(Width() < (currentX_ + font.FontWidth)
 1019              		.loc 6 405 17 view .LVU235
 1020 001e 0368     		ldr	r3, [r0]
 1021 0020 8146     		mov	r9, r0
 1022 0022 5C4A     		ldr	r2, .L74
 1023 0024 DB68     		ldr	r3, [r3, #12]
 1024 0026 9DF80860 		ldrb	r6, [sp, #8]	@ zero_extendqisi2
 1025 002a 9342     		cmp	r3, r2
 1026 002c 9DF80950 		ldrb	r5, [sp, #9]	@ zero_extendqisi2
 1027 0030 40F09380 		bne	.L65
 1028 0034 8020     		movs	r0, #128
 1029              	.LVL80:
 1030              	.L37:
 1031              		.loc 6 405 23 view .LVU236
 1032 0036 B9F80430 		ldrh	r3, [r9, #4]
 1033              		.loc 6 405 33 view .LVU237
 1034 003a 3344     		add	r3, r3, r6
 406:../../libdaisy/src/hid/disp/display.h ****            || Height() < (currentY_ + font.FontHeight))
 1035              		.loc 6 406 12 view .LVU238
ARM GAS  /tmp/ccjBmcCr.s 			page 54


 1036 003c 8342     		cmp	r3, r0
 1037 003e 00F38280 		bgt	.L38
 1038              		.loc 6 406 21 discriminator 2 view .LVU239
 1039 0042 D9F80030 		ldr	r3, [r9]
 1040 0046 544A     		ldr	r2, .L74+4
 1041 0048 9B68     		ldr	r3, [r3, #8]
 1042 004a 9342     		cmp	r3, r2
 1043 004c 40F08780 		bne	.L66
 1044              		.loc 6 406 21 view .LVU240
 1045 0050 4020     		movs	r0, #64
 1046              	.L39:
 1047              		.loc 6 406 27 discriminator 2 view .LVU241
 1048 0052 B9F80610 		ldrh	r1, [r9, #6]
 1049              		.loc 6 406 37 discriminator 2 view .LVU242
 1050 0056 4B19     		adds	r3, r1, r5
 1051              		.loc 6 406 27 discriminator 2 view .LVU243
 1052 0058 0191     		str	r1, [sp, #4]
 1053              		.loc 6 406 12 discriminator 2 view .LVU244
 1054 005a 8342     		cmp	r3, r0
 1055 005c 73DC     		bgt	.L38
 1056              	.LVL81:
 407:../../libdaisy/src/hid/disp/display.h ****         {
 408:../../libdaisy/src/hid/disp/display.h ****             // Not enough space on current line
 409:../../libdaisy/src/hid/disp/display.h ****             return 0;
 410:../../libdaisy/src/hid/disp/display.h ****         }
 411:../../libdaisy/src/hid/disp/display.h **** 
 412:../../libdaisy/src/hid/disp/display.h ****         // Use the font to write
 413:../../libdaisy/src/hid/disp/display.h ****         for(i = 0; i < font.FontHeight; i++)
 1057              		.loc 6 413 22 is_stmt 1 view .LVU245
 1058 005e 002D     		cmp	r5, #0
 1059 0060 00F08880 		beq	.L40
 414:../../libdaisy/src/hid/disp/display.h ****         {
 415:../../libdaisy/src/hid/disp/display.h ****             b = font.data[(ch - 32) * font.FontHeight + i];
 1060              		.loc 6 415 37 is_stmt 0 view .LVU246
 1061 0064 05FB04F4 		mul	r4, r5, r4
 1062              		.loc 6 415 22 view .LVU247
 1063 0068 039A     		ldr	r2, [sp, #12]
 1064 006a 6FF00043 		mvn	r3, #-2147483648
 1065 006e B9F804A0 		ldrh	r10, [r9, #4]
 1066 0072 2544     		add	r5, r5, r4
 1067 0074 A2F1020B 		sub	fp, r2, #2
 1068 0078 2344     		add	r3, r3, r4
 1069 007a 0BEB450B 		add	fp, fp, r5, lsl #1
 1070 007e 0D46     		mov	r5, r1
 1071 0080 02EB430E 		add	lr, r2, r3, lsl #1
 1072              	.LVL82:
 1073              	.L43:
 1074              		.loc 6 415 13 view .LVU248
 1075 0084 3EF8024F 		ldrh	r4, [lr, #2]!
 1076              	.LVL83:
 416:../../libdaisy/src/hid/disp/display.h ****             for(j = 0; j < font.FontWidth; j++)
 1077              		.loc 6 416 26 is_stmt 1 view .LVU249
 1078 0088 A6B3     		cbz	r6, .L48
 1079              	.LBB530:
 1080              	.LBB531:
 1081              	.LBB532:
 1082              	.LBB533:
ARM GAS  /tmp/ccjBmcCr.s 			page 55


 1083              	.LBB534:
 246:../../libdaisy/src/dev/oled_ssd130x.h ****     }
 1084              		.loc 12 246 55 is_stmt 0 view .LVU250
 1085 008a 05F00703 		and	r3, r5, #7
 246:../../libdaisy/src/dev/oled_ssd130x.h ****     }
 1086              		.loc 12 246 49 view .LVU251
 1087 008e 0127     		movs	r7, #1
 246:../../libdaisy/src/dev/oled_ssd130x.h ****     }
 1088              		.loc 12 246 28 view .LVU252
 1089 0090 E808     		lsrs	r0, r5, #3
 246:../../libdaisy/src/dev/oled_ssd130x.h ****     }
 1090              		.loc 12 246 42 view .LVU253
 1091 0092 4146     		mov	r1, r8
 246:../../libdaisy/src/dev/oled_ssd130x.h ****     }
 1092              		.loc 12 246 49 view .LVU254
 1093 0094 9F40     		lsls	r7, r7, r3
 1094              	.LBE534:
 1095              	.LBE533:
 1096              	.LBE532:
 1097              	.LBE531:
 1098              	.LBE530:
 1099              		.loc 6 416 19 view .LVU255
 1100 0096 0022     		movs	r2, #0
 1101 0098 0AEBC013 		add	r3, r10, r0, lsl #7
 1102              	.LBB552:
 1103              	.LBB547:
 1104              	.LBB542:
 1105              	.LBB538:
 1106              	.LBB535:
 246:../../libdaisy/src/dev/oled_ssd130x.h ****     }
 1107              		.loc 12 246 42 view .LVU256
 1108 009c 7FB2     		sxtb	r7, r7
 1109 009e 4B44     		add	r3, r3, r9
 1110 00a0 09EBC010 		add	r0, r9, r0, lsl #7
 1111 00a4 6FEA070C 		mvn	ip, r7
 1112 00a8 B846     		mov	r8, r7
 1113 00aa 0F46     		mov	r7, r1
 1114 00ac 0CE0     		b	.L49
 1115              	.LVL84:
 1116              	.L68:
 246:../../libdaisy/src/dev/oled_ssd130x.h ****     }
 1117              		.loc 12 246 42 view .LVU257
 1118              	.LBE535:
 1119              	.LBE538:
 1120              	.LBE542:
 1121              	.LBE547:
 1122              	.LBE552:
 1123              	.LBB553:
 1124              	.LBI553:
  41:../../libdaisy/src/hid/disp/oled_display.h ****     {
 1125              		.loc 5 41 10 is_stmt 1 view .LVU258
 1126              	.LBB554:
 1127              	.LBI554:
 239:../../libdaisy/src/dev/oled_ssd130x.h ****     {
 1128              		.loc 12 239 10 view .LVU259
 1129              	.LBB555:
 241:../../libdaisy/src/dev/oled_ssd130x.h ****             return;
ARM GAS  /tmp/ccjBmcCr.s 			page 56


 1130              		.loc 12 241 9 is_stmt 0 view .LVU260
 1131 00ae 7F29     		cmp	r1, #127
 1132 00b0 06D8     		bhi	.L45
 1133 00b2 3F2D     		cmp	r5, #63
 1134 00b4 04D8     		bhi	.L45
 244:../../libdaisy/src/dev/oled_ssd130x.h ****         else
 1135              		.loc 12 244 42 view .LVU261
 1136 00b6 197D     		ldrb	r1, [r3, #20]	@ zero_extendqisi2
 243:../../libdaisy/src/dev/oled_ssd130x.h ****             buffer_[x + (y / 8) * width] |= (1 << (y % 8));
 1137              		.loc 12 243 9 view .LVU262
 1138 00b8 A7B1     		cbz	r7, .L47
 1139              	.L64:
 243:../../libdaisy/src/dev/oled_ssd130x.h ****             buffer_[x + (y / 8) * width] |= (1 << (y % 8));
 1140              		.loc 12 243 9 view .LVU263
 1141              	.LBE555:
 1142              	.LBE554:
 1143              	.LBE553:
 1144              	.LBB558:
 1145              	.LBB548:
 1146              	.LBB543:
 244:../../libdaisy/src/dev/oled_ssd130x.h ****         else
 1147              		.loc 12 244 42 view .LVU264
 1148 00ba 48EA0101 		orr	r1, r8, r1
 244:../../libdaisy/src/dev/oled_ssd130x.h ****         else
 1149              		.loc 12 244 13 view .LVU265
 1150 00be 1975     		strb	r1, [r3, #20]
 1151              	.L45:
 1152              	.LBE543:
 1153              	.LBE548:
 1154              	.LBE558:
 1155              		.loc 6 416 13 is_stmt 1 discriminator 2 view .LVU266
 1156 00c0 0132     		adds	r2, r2, #1
 1157              	.LVL85:
 1158              		.loc 6 416 26 discriminator 2 view .LVU267
 1159 00c2 0133     		adds	r3, r3, #1
 1160 00c4 9642     		cmp	r6, r2
 1161 00c6 14D0     		beq	.L67
 1162              	.LVL86:
 1163              	.L49:
 417:../../libdaisy/src/hid/disp/display.h ****             {
 418:../../libdaisy/src/hid/disp/display.h ****                 if((b << j) & 0x8000)
 1164              		.loc 6 418 23 is_stmt 0 view .LVU268
 1165 00c8 04FA02F1 		lsl	r1, r4, r2
 1166              		.loc 6 418 17 view .LVU269
 1167 00cc 11F4004F 		tst	r1, #32768
 1168              	.LBB559:
 1169              	.LBB557:
 1170              	.LBB556:
 241:../../libdaisy/src/dev/oled_ssd130x.h ****             return;
 1171              		.loc 12 241 14 view .LVU270
 1172 00d0 A3EB0001 		sub	r1, r3, r0
 1173              	.LBE556:
 1174              	.LBE557:
 1175              	.LBE559:
 1176              		.loc 6 418 17 view .LVU271
 1177 00d4 EBD1     		bne	.L68
 1178              	.LVL87:
ARM GAS  /tmp/ccjBmcCr.s 			page 57


 1179              	.LBB560:
 1180              	.LBI530:
  41:../../libdaisy/src/hid/disp/oled_display.h ****     {
 1181              		.loc 5 41 10 is_stmt 1 view .LVU272
 1182              	.LBB549:
 1183              	.LBI531:
 239:../../libdaisy/src/dev/oled_ssd130x.h ****     {
 1184              		.loc 12 239 10 view .LVU273
 1185              	.LBB544:
 241:../../libdaisy/src/dev/oled_ssd130x.h ****             return;
 1186              		.loc 12 241 9 is_stmt 0 view .LVU274
 1187 00d6 7F29     		cmp	r1, #127
 1188 00d8 F2D8     		bhi	.L45
 1189 00da 3F2D     		cmp	r5, #63
 1190 00dc F0D8     		bhi	.L45
 244:../../libdaisy/src/dev/oled_ssd130x.h ****         else
 1191              		.loc 12 244 42 view .LVU275
 1192 00de 197D     		ldrb	r1, [r3, #20]	@ zero_extendqisi2
 243:../../libdaisy/src/dev/oled_ssd130x.h ****             buffer_[x + (y / 8) * width] |= (1 << (y % 8));
 1193              		.loc 12 243 9 view .LVU276
 1194 00e0 002F     		cmp	r7, #0
 1195 00e2 EAD0     		beq	.L64
 1196              	.L47:
 1197              	.LVL88:
 1198              	.LBB539:
 1199              	.LBI533:
 239:../../libdaisy/src/dev/oled_ssd130x.h ****     {
 1200              		.loc 12 239 10 is_stmt 1 view .LVU277
 239:../../libdaisy/src/dev/oled_ssd130x.h ****     {
 1201              		.loc 12 239 10 is_stmt 0 view .LVU278
 1202              	.LBE539:
 1203              	.LBE544:
 1204              	.LBE549:
 1205              	.LBE560:
 416:../../libdaisy/src/hid/disp/display.h ****             {
 1206              		.loc 6 416 13 view .LVU279
 1207 00e4 0132     		adds	r2, r2, #1
 1208              	.LVL89:
 1209              	.LBB561:
 1210              	.LBB550:
 1211              	.LBB545:
 1212              	.LBB540:
 1213              	.LBB536:
 246:../../libdaisy/src/dev/oled_ssd130x.h ****     }
 1214              		.loc 12 246 42 view .LVU280
 1215 00e6 0CEA0101 		and	r1, ip, r1
 1216 00ea 0133     		adds	r3, r3, #1
 1217              	.LBE536:
 1218              	.LBE540:
 1219              	.LBE545:
 1220              	.LBE550:
 1221              	.LBE561:
 416:../../libdaisy/src/hid/disp/display.h ****             {
 1222              		.loc 6 416 26 view .LVU281
 1223 00ec 9642     		cmp	r6, r2
 1224              	.LBB562:
 1225              	.LBB551:
ARM GAS  /tmp/ccjBmcCr.s 			page 58


 1226              	.LBB546:
 1227              	.LBB541:
 1228              	.LBB537:
 246:../../libdaisy/src/dev/oled_ssd130x.h ****     }
 1229              		.loc 12 246 13 view .LVU282
 1230 00ee D974     		strb	r1, [r3, #19]
 246:../../libdaisy/src/dev/oled_ssd130x.h ****     }
 1231              		.loc 12 246 13 view .LVU283
 1232              	.LBE537:
 1233              	.LBE541:
 1234              	.LBE546:
 1235              	.LBE551:
 1236              	.LBE562:
 416:../../libdaisy/src/hid/disp/display.h ****             {
 1237              		.loc 6 416 13 is_stmt 1 view .LVU284
 1238              	.LVL90:
 416:../../libdaisy/src/hid/disp/display.h ****             {
 1239              		.loc 6 416 26 view .LVU285
 1240 00f0 EAD1     		bne	.L49
 1241              	.L67:
 416:../../libdaisy/src/hid/disp/display.h ****             {
 1242              		.loc 6 416 26 is_stmt 0 view .LVU286
 1243 00f2 B846     		mov	r8, r7
 1244              	.LVL91:
 1245              	.L48:
 413:../../libdaisy/src/hid/disp/display.h ****         {
 1246              		.loc 6 413 9 is_stmt 1 view .LVU287
 413:../../libdaisy/src/hid/disp/display.h ****         {
 1247              		.loc 6 413 22 view .LVU288
 1248 00f4 F345     		cmp	fp, lr
 1249 00f6 05F10105 		add	r5, r5, #1
 1250 00fa C3D1     		bne	.L43
 1251              	.LVL92:
 1252              	.L42:
 1253              	.LBB563:
 1254              	.LBB564:
 173:../../libdaisy/src/hid/disp/display.h ****         currentY_ = (y >= Height()) ? Height() - 1 : y;
 1255              		.loc 6 173 33 is_stmt 0 view .LVU289
 1256 00fc D9F80030 		ldr	r3, [r9]
 1257              	.LBE564:
 1258              	.LBE563:
 419:../../libdaisy/src/hid/disp/display.h ****                 {
 420:../../libdaisy/src/hid/disp/display.h ****                     ((ChildType*)(this))
 421:../../libdaisy/src/hid/disp/display.h ****                         ->ChildType::DrawPixel(
 422:../../libdaisy/src/hid/disp/display.h ****                             currentX_ + j, (currentY_ + i), on);
 423:../../libdaisy/src/hid/disp/display.h ****                 }
 424:../../libdaisy/src/hid/disp/display.h ****                 else
 425:../../libdaisy/src/hid/disp/display.h ****                 {
 426:../../libdaisy/src/hid/disp/display.h ****                     ((ChildType*)(this))
 427:../../libdaisy/src/hid/disp/display.h ****                         ->ChildType::DrawPixel(
 428:../../libdaisy/src/hid/disp/display.h ****                             currentX_ + j, (currentY_ + i), !on);
 429:../../libdaisy/src/hid/disp/display.h ****                 }
 430:../../libdaisy/src/hid/disp/display.h ****             }
 431:../../libdaisy/src/hid/disp/display.h ****         }
 432:../../libdaisy/src/hid/disp/display.h **** 
 433:../../libdaisy/src/hid/disp/display.h ****         // The current space is now taken
 434:../../libdaisy/src/hid/disp/display.h ****         SetCursor(currentX_ + font.FontWidth, currentY_);
ARM GAS  /tmp/ccjBmcCr.s 			page 59


 1259              		.loc 6 434 18 view .LVU290
 1260 0100 0AEB0604 		add	r4, r10, r6
 1261 0104 2349     		ldr	r1, .L74
 1262              	.LBB569:
 1263              	.LBB565:
 173:../../libdaisy/src/hid/disp/display.h ****         currentY_ = (y >= Height()) ? Height() - 1 : y;
 1264              		.loc 6 173 33 view .LVU291
 1265 0106 DA68     		ldr	r2, [r3, #12]
 1266              	.LBE565:
 1267              	.LBE569:
 1268              		.loc 6 434 18 view .LVU292
 1269 0108 A4B2     		uxth	r4, r4
 1270              	.LVL93:
 1271              	.LBB570:
 1272              	.LBI563:
 171:../../libdaisy/src/hid/disp/display.h ****     {
 1273              		.loc 6 171 10 is_stmt 1 view .LVU293
 1274              	.LBB566:
 173:../../libdaisy/src/hid/disp/display.h ****         currentY_ = (y >= Height()) ? Height() - 1 : y;
 1275              		.loc 6 173 9 view .LVU294
 1276 010a 8A42     		cmp	r2, r1
 1277 010c 2DD1     		bne	.L69
 173:../../libdaisy/src/hid/disp/display.h ****         currentY_ = (y >= Height()) ? Height() - 1 : y;
 1278              		.loc 6 173 33 is_stmt 0 view .LVU295
 1279 010e 8020     		movs	r0, #128
 1280              	.L50:
 173:../../libdaisy/src/hid/disp/display.h ****         currentY_ = (y >= Height()) ? Height() - 1 : y;
 1281              		.loc 6 173 19 view .LVU296
 1282 0110 8442     		cmp	r4, r0
 1283 0112 1CD2     		bcs	.L70
 1284              	.LVL94:
 1285              	.L51:
 174:../../libdaisy/src/hid/disp/display.h ****     }
 1286              		.loc 6 174 34 view .LVU297
 1287 0114 9B68     		ldr	r3, [r3, #8]
 1288 0116 204A     		ldr	r2, .L74+4
 173:../../libdaisy/src/hid/disp/display.h ****         currentY_ = (y >= Height()) ? Height() - 1 : y;
 1289              		.loc 6 173 19 view .LVU298
 1290 0118 A9F80440 		strh	r4, [r9, #4]	@ movhi
 174:../../libdaisy/src/hid/disp/display.h ****     }
 1291              		.loc 6 174 9 is_stmt 1 view .LVU299
 1292 011c 9342     		cmp	r3, r2
 1293 011e 21D1     		bne	.L71
 174:../../libdaisy/src/hid/disp/display.h ****     }
 1294              		.loc 6 174 34 is_stmt 0 view .LVU300
 1295 0120 4020     		movs	r0, #64
 1296              	.L53:
 174:../../libdaisy/src/hid/disp/display.h ****     }
 1297              		.loc 6 174 19 view .LVU301
 1298 0122 019B     		ldr	r3, [sp, #4]
 1299 0124 8342     		cmp	r3, r0
 1300 0126 07D3     		bcc	.L54
 174:../../libdaisy/src/hid/disp/display.h ****     }
 1301              		.loc 6 174 46 view .LVU302
 1302 0128 D9F80030 		ldr	r3, [r9]
 1303 012c 1A4A     		ldr	r2, .L74+4
 1304 012e 9B68     		ldr	r3, [r3, #8]
ARM GAS  /tmp/ccjBmcCr.s 			page 60


 1305 0130 9342     		cmp	r3, r2
 1306 0132 29D1     		bne	.L72
 1307 0134 3F23     		movs	r3, #63
 1308 0136 0193     		str	r3, [sp, #4]
 1309              	.LVL95:
 1310              	.L54:
 174:../../libdaisy/src/hid/disp/display.h ****     }
 1311              		.loc 6 174 19 view .LVU303
 1312 0138 DDE90003 		ldrd	r0, r3, [sp]
 1313 013c A9F80630 		strh	r3, [r9, #6]	@ movhi
 1314              	.LVL96:
 174:../../libdaisy/src/hid/disp/display.h ****     }
 1315              		.loc 6 174 19 view .LVU304
 1316              	.LBE566:
 1317              	.LBE570:
 435:../../libdaisy/src/hid/disp/display.h **** 
 436:../../libdaisy/src/hid/disp/display.h ****         // Return written char for validation
 437:../../libdaisy/src/hid/disp/display.h ****         return ch;
 438:../../libdaisy/src/hid/disp/display.h ****     }
 1318              		.loc 6 438 5 view .LVU305
 1319 0140 05B0     		add	sp, sp, #20
 1320              		.cfi_remember_state
 1321              		.cfi_def_cfa_offset 36
 1322              		@ sp needed
 1323 0142 BDE8F08F 		pop	{r4, r5, r6, r7, r8, r9, r10, fp, pc}
 1324              	.LVL97:
 1325              	.L38:
 1326              		.cfi_restore_state
 402:../../libdaisy/src/hid/disp/display.h **** 
 1327              		.loc 6 402 20 view .LVU306
 1328 0146 0020     		movs	r0, #0
 1329              		.loc 6 438 5 view .LVU307
 1330 0148 05B0     		add	sp, sp, #20
 1331              		.cfi_remember_state
 1332              		.cfi_def_cfa_offset 36
 1333              		@ sp needed
 1334 014a BDE8F08F 		pop	{r4, r5, r6, r7, r8, r9, r10, fp, pc}
 1335              	.LVL98:
 1336              	.L70:
 1337              		.cfi_restore_state
 1338              	.LBB571:
 1339              	.LBB567:
 173:../../libdaisy/src/hid/disp/display.h ****         currentY_ = (y >= Height()) ? Height() - 1 : y;
 1340              		.loc 6 173 44 view .LVU308
 1341 014e DA68     		ldr	r2, [r3, #12]
 1342 0150 1049     		ldr	r1, .L74
 1343 0152 8A42     		cmp	r2, r1
 1344 0154 11D1     		bne	.L73
 1345 0156 7F24     		movs	r4, #127
 1346              	.LVL99:
 173:../../libdaisy/src/hid/disp/display.h ****         currentY_ = (y >= Height()) ? Height() - 1 : y;
 1347              		.loc 6 173 44 view .LVU309
 1348 0158 DCE7     		b	.L51
 1349              	.LVL100:
 1350              	.L65:
 173:../../libdaisy/src/hid/disp/display.h ****         currentY_ = (y >= Height()) ? Height() - 1 : y;
 1351              		.loc 6 173 44 view .LVU310
ARM GAS  /tmp/ccjBmcCr.s 			page 61


 1352              	.LBE567:
 1353              	.LBE571:
 405:../../libdaisy/src/hid/disp/display.h ****            || Height() < (currentY_ + font.FontHeight))
 1354              		.loc 6 405 17 view .LVU311
 1355 015a 9847     		blx	r3
 1356              	.LVL101:
 405:../../libdaisy/src/hid/disp/display.h ****            || Height() < (currentY_ + font.FontHeight))
 1357              		.loc 6 405 17 view .LVU312
 1358 015c 6BE7     		b	.L37
 1359              	.L66:
 406:../../libdaisy/src/hid/disp/display.h ****         {
 1360              		.loc 6 406 21 discriminator 2 view .LVU313
 1361 015e 4846     		mov	r0, r9
 1362 0160 9847     		blx	r3
 1363              	.LVL102:
 1364 0162 76E7     		b	.L39
 1365              	.LVL103:
 1366              	.L71:
 1367              	.LBB572:
 1368              	.LBB568:
 174:../../libdaisy/src/hid/disp/display.h ****     }
 1369              		.loc 6 174 33 view .LVU314
 1370 0164 4846     		mov	r0, r9
 1371 0166 9847     		blx	r3
 1372              	.LVL104:
 1373 0168 DBE7     		b	.L53
 1374              	.LVL105:
 1375              	.L69:
 173:../../libdaisy/src/hid/disp/display.h ****         currentY_ = (y >= Height()) ? Height() - 1 : y;
 1376              		.loc 6 173 32 view .LVU315
 1377 016a 4846     		mov	r0, r9
 1378 016c 9047     		blx	r2
 1379              	.LVL106:
 1380 016e D9F80030 		ldr	r3, [r9]
 1381 0172 CDE7     		b	.L50
 1382              	.LVL107:
 1383              	.L40:
 173:../../libdaisy/src/hid/disp/display.h ****         currentY_ = (y >= Height()) ? Height() - 1 : y;
 1384              		.loc 6 173 32 view .LVU316
 1385 0174 B9F804A0 		ldrh	r10, [r9, #4]
 1386 0178 C0E7     		b	.L42
 1387              	.LVL108:
 1388              	.L73:
 173:../../libdaisy/src/hid/disp/display.h ****         currentY_ = (y >= Height()) ? Height() - 1 : y;
 1389              		.loc 6 173 43 view .LVU317
 1390 017a 4846     		mov	r0, r9
 1391 017c 9047     		blx	r2
 1392              	.LVL109:
 1393 017e 0138     		subs	r0, r0, #1
 1394 0180 D9F80030 		ldr	r3, [r9]
 1395 0184 84B2     		uxth	r4, r0
 1396              	.LVL110:
 173:../../libdaisy/src/hid/disp/display.h ****         currentY_ = (y >= Height()) ? Height() - 1 : y;
 1397              		.loc 6 173 43 view .LVU318
 1398 0186 C5E7     		b	.L51
 1399              	.L72:
 174:../../libdaisy/src/hid/disp/display.h ****     }
ARM GAS  /tmp/ccjBmcCr.s 			page 62


 1400              		.loc 6 174 45 view .LVU319
 1401 0188 4846     		mov	r0, r9
 1402 018a 9847     		blx	r3
 1403              	.LVL111:
 1404 018c 0138     		subs	r0, r0, #1
 1405 018e 83B2     		uxth	r3, r0
 1406 0190 0193     		str	r3, [sp, #4]
 1407              	.LVL112:
 174:../../libdaisy/src/hid/disp/display.h ****     }
 1408              		.loc 6 174 45 view .LVU320
 1409 0192 D1E7     		b	.L54
 1410              	.L75:
 1411              		.align	2
 1412              	.L74:
 1413 0194 00000000 		.word	_ZNK5daisy11OledDisplayINS_13SSD130xDriverILj128ELj64ENS_24SSD130x4WireSpiTransportEEEE5Widt
 1414 0198 00000000 		.word	_ZNK5daisy11OledDisplayINS_13SSD130xDriverILj128ELj64ENS_24SSD130x4WireSpiTransportEEEE6Heig
 1415              	.LBE568:
 1416              	.LBE572:
 1417              		.cfi_endproc
 1418              	.LFE4701:
 1420              		.section	.text._ZN5daisy25OneBitGraphicsDisplayImplINS_11OledDisplayINS_13SSD130xDriverILj128ELj64
 1421              		.align	1
 1422              		.p2align 2,,3
 1423              		.weak	_ZN5daisy25OneBitGraphicsDisplayImplINS_11OledDisplayINS_13SSD130xDriverILj128ELj64ENS_24SSD
 1424              		.syntax unified
 1425              		.thumb
 1426              		.thumb_func
 1427              		.fpu fpv5-d16
 1429              	_ZN5daisy25OneBitGraphicsDisplayImplINS_11OledDisplayINS_13SSD130xDriverILj128ELj64ENS_24SSD130x4Wi
 1430              	.LVL113:
 1431              	.LFB4571:
 439:../../libdaisy/src/hid/disp/display.h **** 
 440:../../libdaisy/src/hid/disp/display.h ****     char WriteString(const char* str, FontDef font, bool on) override
 1432              		.loc 6 440 10 is_stmt 1 view -0
 1433              		.cfi_startproc
 1434              		@ args = 4, pretend = 0, frame = 32
 1435              		@ frame_needed = 0, uses_anonymous_args = 0
 1436              		.loc 6 440 10 is_stmt 0 view .LVU322
 1437 0000 2DE9F04F 		push	{r4, r5, r6, r7, r8, r9, r10, fp, lr}
 1438              		.cfi_def_cfa_offset 36
 1439              		.cfi_offset 4, -36
 1440              		.cfi_offset 5, -32
 1441              		.cfi_offset 6, -28
 1442              		.cfi_offset 7, -24
 1443              		.cfi_offset 8, -20
 1444              		.cfi_offset 9, -16
 1445              		.cfi_offset 10, -12
 1446              		.cfi_offset 11, -8
 1447              		.cfi_offset 14, -4
 1448 0004 89B0     		sub	sp, sp, #36
 1449              		.cfi_def_cfa_offset 72
 1450              		.loc 6 440 10 view .LVU323
 1451 0006 8B46     		mov	fp, r1
 441:../../libdaisy/src/hid/disp/display.h ****     {
 442:../../libdaisy/src/hid/disp/display.h ****         // Write until null-byte
 443:../../libdaisy/src/hid/disp/display.h ****         while(*str)
 1452              		.loc 6 443 9 is_stmt 1 view .LVU324
ARM GAS  /tmp/ccjBmcCr.s 			page 63


 1453 0008 91F80090 		ldrb	r9, [r1]	@ zero_extendqisi2
 440:../../libdaisy/src/hid/disp/display.h ****     {
 1454              		.loc 6 440 10 is_stmt 0 view .LVU325
 1455 000c 9DF84840 		ldrb	r4, [sp, #72]	@ zero_extendqisi2
 1456 0010 08A9     		add	r1, sp, #32
 1457              	.LVL114:
 440:../../libdaisy/src/hid/disp/display.h ****     {
 1458              		.loc 6 440 10 view .LVU326
 1459 0012 0494     		str	r4, [sp, #16]
 1460 0014 01E90C00 		stmdb	r1, {r2, r3}
 1461              		.loc 6 443 9 view .LVU327
 1462 0018 B9F1000F 		cmp	r9, #0
 1463 001c 00F0B780 		beq	.L100
 1464 0020 9DF81930 		ldrb	r3, [sp, #25]	@ zero_extendqisi2
 1465 0024 8046     		mov	r8, r0
 1466 0026 9DF818A0 		ldrb	r10, [sp, #24]	@ zero_extendqisi2
 1467 002a 4D46     		mov	r5, r9
 1468 002c 0193     		str	r3, [sp, #4]
 1469 002e 079B     		ldr	r3, [sp, #28]
 1470 0030 0593     		str	r3, [sp, #20]
 1471              	.LVL115:
 1472              	.L101:
 1473              	.LBB601:
 1474              	.LBI601:
 396:../../libdaisy/src/hid/disp/display.h ****     {
 1475              		.loc 6 396 10 is_stmt 1 view .LVU328
 1476              	.LBB602:
 401:../../libdaisy/src/hid/disp/display.h ****             return 0;
 1477              		.loc 6 401 20 is_stmt 0 view .LVU329
 1478 0032 A5F12004 		sub	r4, r5, #32
 401:../../libdaisy/src/hid/disp/display.h ****             return 0;
 1479              		.loc 6 401 9 view .LVU330
 1480 0036 E3B2     		uxtb	r3, r4
 1481 0038 5E2B     		cmp	r3, #94
 1482 003a 00F2AC80 		bhi	.L82
 405:../../libdaisy/src/hid/disp/display.h ****            || Height() < (currentY_ + font.FontHeight))
 1483              		.loc 6 405 17 view .LVU331
 1484 003e D8F80030 		ldr	r3, [r8]
 1485 0042 654A     		ldr	r2, .L122
 1486 0044 DB68     		ldr	r3, [r3, #12]
 1487 0046 9342     		cmp	r3, r2
 1488 0048 40F0A780 		bne	.L115
 1489 004c 8020     		movs	r0, #128
 1490              	.L81:
 405:../../libdaisy/src/hid/disp/display.h ****            || Height() < (currentY_ + font.FontHeight))
 1491              		.loc 6 405 23 view .LVU332
 1492 004e B8F80430 		ldrh	r3, [r8, #4]
 405:../../libdaisy/src/hid/disp/display.h ****            || Height() < (currentY_ + font.FontHeight))
 1493              		.loc 6 405 33 view .LVU333
 1494 0052 5344     		add	r3, r3, r10
 406:../../libdaisy/src/hid/disp/display.h ****         {
 1495              		.loc 6 406 12 view .LVU334
 1496 0054 8342     		cmp	r3, r0
 1497 0056 00F39E80 		bgt	.L82
 406:../../libdaisy/src/hid/disp/display.h ****         {
 1498              		.loc 6 406 21 view .LVU335
 1499 005a D8F80030 		ldr	r3, [r8]
ARM GAS  /tmp/ccjBmcCr.s 			page 64


 1500 005e 5F4A     		ldr	r2, .L122+4
 1501 0060 9B68     		ldr	r3, [r3, #8]
 1502 0062 9342     		cmp	r3, r2
 1503 0064 40F09C80 		bne	.L116
 1504 0068 4020     		movs	r0, #64
 1505              	.L83:
 406:../../libdaisy/src/hid/disp/display.h ****         {
 1506              		.loc 6 406 27 view .LVU336
 1507 006a B8F80610 		ldrh	r1, [r8, #6]
 406:../../libdaisy/src/hid/disp/display.h ****         {
 1508              		.loc 6 406 37 view .LVU337
 1509 006e 019A     		ldr	r2, [sp, #4]
 406:../../libdaisy/src/hid/disp/display.h ****         {
 1510              		.loc 6 406 27 view .LVU338
 1511 0070 0091     		str	r1, [sp]
 406:../../libdaisy/src/hid/disp/display.h ****         {
 1512              		.loc 6 406 37 view .LVU339
 1513 0072 8B18     		adds	r3, r1, r2
 406:../../libdaisy/src/hid/disp/display.h ****         {
 1514              		.loc 6 406 12 view .LVU340
 1515 0074 8342     		cmp	r3, r0
 1516 0076 00F38E80 		bgt	.L82
 1517              	.LVL116:
 413:../../libdaisy/src/hid/disp/display.h ****         {
 1518              		.loc 6 413 22 is_stmt 1 view .LVU341
 1519 007a 1046     		mov	r0, r2
 1520 007c 002A     		cmp	r2, #0
 1521 007e 00F09A80 		beq	.L84
 415:../../libdaisy/src/hid/disp/display.h ****             for(j = 0; j < font.FontWidth; j++)
 1522              		.loc 6 415 37 is_stmt 0 view .LVU342
 1523 0082 1346     		mov	r3, r2
 1524 0084 6FF00046 		mvn	r6, #-2147483648
 1525 0088 B8F80470 		ldrh	r7, [r8, #4]
 1526 008c 03FB04F3 		mul	r3, r3, r4
 1527 0090 059C     		ldr	r4, [sp, #20]
 1528 0092 BE46     		mov	lr, r7
 1529 0094 CDF80CB0 		str	fp, [sp, #12]
 1530 0098 1E44     		add	r6, r6, r3
 1531 009a A21E     		subs	r2, r4, #2
 1532 009c 0344     		add	r3, r3, r0
 1533 009e 5746     		mov	r7, r10
 1534 00a0 04EB4606 		add	r6, r4, r6, lsl #1
 1535 00a4 DDF81090 		ldr	r9, [sp, #16]
 1536 00a8 02EB4303 		add	r3, r2, r3, lsl #1
 1537 00ac 0295     		str	r5, [sp, #8]
 1538 00ae 9B46     		mov	fp, r3
 1539              	.LVL117:
 1540              	.L87:
 415:../../libdaisy/src/hid/disp/display.h ****             for(j = 0; j < font.FontWidth; j++)
 1541              		.loc 6 415 13 view .LVU343
 1542 00b0 36F802AF 		ldrh	r10, [r6, #2]!
 1543              	.LVL118:
 416:../../libdaisy/src/hid/disp/display.h ****             {
 1544              		.loc 6 416 26 is_stmt 1 view .LVU344
 1545 00b4 A7B3     		cbz	r7, .L92
 1546              	.LBB603:
 1547              	.LBB604:
ARM GAS  /tmp/ccjBmcCr.s 			page 65


 1548              	.LBB605:
 1549              	.LBB606:
 1550              	.LBB607:
 246:../../libdaisy/src/dev/oled_ssd130x.h ****     }
 1551              		.loc 12 246 49 is_stmt 0 view .LVU345
 1552 00b6 0124     		movs	r4, #1
 246:../../libdaisy/src/dev/oled_ssd130x.h ****     }
 1553              		.loc 12 246 55 view .LVU346
 1554 00b8 01F00702 		and	r2, r1, #7
 246:../../libdaisy/src/dev/oled_ssd130x.h ****     }
 1555              		.loc 12 246 28 view .LVU347
 1556 00bc C808     		lsrs	r0, r1, #3
 1557 00be 0EF11403 		add	r3, lr, #20
 246:../../libdaisy/src/dev/oled_ssd130x.h ****     }
 1558              		.loc 12 246 49 view .LVU348
 1559 00c2 04FA02F2 		lsl	r2, r4, r2
 1560 00c6 7446     		mov	r4, lr
 1561 00c8 03EBC013 		add	r3, r3, r0, lsl #7
 1562              	.LBE607:
 1563              	.LBE606:
 1564              	.LBE605:
 1565              	.LBE604:
 1566              	.LBE603:
 416:../../libdaisy/src/hid/disp/display.h ****             {
 1567              		.loc 6 416 19 view .LVU349
 1568 00cc 0020     		movs	r0, #0
 1569              	.LBB625:
 1570              	.LBB620:
 1571              	.LBB615:
 1572              	.LBB611:
 1573              	.LBB608:
 246:../../libdaisy/src/dev/oled_ssd130x.h ****     }
 1574              		.loc 12 246 42 view .LVU350
 1575 00ce 52B2     		sxtb	r2, r2
 1576 00d0 4344     		add	r3, r3, r8
 1577 00d2 6FEA020C 		mvn	ip, r2
 1578 00d6 0EE0     		b	.L93
 1579              	.LVL119:
 1580              	.L117:
 246:../../libdaisy/src/dev/oled_ssd130x.h ****     }
 1581              		.loc 12 246 42 view .LVU351
 1582              	.LBE608:
 1583              	.LBE611:
 1584              	.LBE615:
 1585              	.LBE620:
 1586              	.LBE625:
 1587              	.LBB626:
 1588              	.LBI626:
  41:../../libdaisy/src/hid/disp/oled_display.h ****     {
 1589              		.loc 5 41 10 is_stmt 1 view .LVU352
 1590              	.LBB627:
 1591              	.LBI627:
 239:../../libdaisy/src/dev/oled_ssd130x.h ****     {
 1592              		.loc 12 239 10 view .LVU353
 1593              	.LBB628:
 241:../../libdaisy/src/dev/oled_ssd130x.h ****             return;
 1594              		.loc 12 241 9 is_stmt 0 view .LVU354
ARM GAS  /tmp/ccjBmcCr.s 			page 66


 1595 00d8 7F2C     		cmp	r4, #127
 1596 00da 07D8     		bhi	.L89
 1597 00dc 3F29     		cmp	r1, #63
 1598 00de 05D8     		bhi	.L89
 244:../../libdaisy/src/dev/oled_ssd130x.h ****         else
 1599              		.loc 12 244 42 view .LVU355
 1600 00e0 1D78     		ldrb	r5, [r3]	@ zero_extendqisi2
 243:../../libdaisy/src/dev/oled_ssd130x.h ****             buffer_[x + (y / 8) * width] |= (1 << (y % 8));
 1601              		.loc 12 243 9 view .LVU356
 1602 00e2 B9F1000F 		cmp	r9, #0
 1603 00e6 12D0     		beq	.L91
 1604              	.L114:
 243:../../libdaisy/src/dev/oled_ssd130x.h ****             buffer_[x + (y / 8) * width] |= (1 << (y % 8));
 1605              		.loc 12 243 9 view .LVU357
 1606              	.LBE628:
 1607              	.LBE627:
 1608              	.LBE626:
 1609              	.LBB629:
 1610              	.LBB621:
 1611              	.LBB616:
 244:../../libdaisy/src/dev/oled_ssd130x.h ****         else
 1612              		.loc 12 244 42 view .LVU358
 1613 00e8 1543     		orrs	r5, r5, r2
 244:../../libdaisy/src/dev/oled_ssd130x.h ****         else
 1614              		.loc 12 244 13 view .LVU359
 1615 00ea 1D70     		strb	r5, [r3]
 1616              	.L89:
 1617              	.LBE616:
 1618              	.LBE621:
 1619              	.LBE629:
 416:../../libdaisy/src/hid/disp/display.h ****             {
 1620              		.loc 6 416 13 is_stmt 1 view .LVU360
 1621 00ec 0130     		adds	r0, r0, #1
 1622              	.LVL120:
 416:../../libdaisy/src/hid/disp/display.h ****             {
 1623              		.loc 6 416 26 view .LVU361
 1624 00ee 0133     		adds	r3, r3, #1
 1625 00f0 0134     		adds	r4, r4, #1
 1626 00f2 B842     		cmp	r0, r7
 1627 00f4 14D0     		beq	.L92
 1628              	.LVL121:
 1629              	.L93:
 418:../../libdaisy/src/hid/disp/display.h ****                 {
 1630              		.loc 6 418 23 is_stmt 0 view .LVU362
 1631 00f6 0AFA00F5 		lsl	r5, r10, r0
 418:../../libdaisy/src/hid/disp/display.h ****                 {
 1632              		.loc 6 418 17 view .LVU363
 1633 00fa 2D04     		lsls	r5, r5, #16
 1634 00fc ECD4     		bmi	.L117
 1635              	.LVL122:
 1636              	.LBB630:
 1637              	.LBI603:
  41:../../libdaisy/src/hid/disp/oled_display.h ****     {
 1638              		.loc 5 41 10 is_stmt 1 view .LVU364
 1639              	.LBB622:
 1640              	.LBI604:
 239:../../libdaisy/src/dev/oled_ssd130x.h ****     {
ARM GAS  /tmp/ccjBmcCr.s 			page 67


 1641              		.loc 12 239 10 view .LVU365
 1642              	.LBB617:
 241:../../libdaisy/src/dev/oled_ssd130x.h ****             return;
 1643              		.loc 12 241 9 is_stmt 0 view .LVU366
 1644 00fe 7F2C     		cmp	r4, #127
 1645 0100 F4D8     		bhi	.L89
 1646 0102 3F29     		cmp	r1, #63
 1647 0104 F2D8     		bhi	.L89
 244:../../libdaisy/src/dev/oled_ssd130x.h ****         else
 1648              		.loc 12 244 42 view .LVU367
 1649 0106 1D78     		ldrb	r5, [r3]	@ zero_extendqisi2
 243:../../libdaisy/src/dev/oled_ssd130x.h ****             buffer_[x + (y / 8) * width] |= (1 << (y % 8));
 1650              		.loc 12 243 9 view .LVU368
 1651 0108 B9F1000F 		cmp	r9, #0
 1652 010c ECD0     		beq	.L114
 1653              	.L91:
 1654              	.LVL123:
 1655              	.LBB612:
 1656              	.LBI606:
 239:../../libdaisy/src/dev/oled_ssd130x.h ****     {
 1657              		.loc 12 239 10 is_stmt 1 view .LVU369
 239:../../libdaisy/src/dev/oled_ssd130x.h ****     {
 1658              		.loc 12 239 10 is_stmt 0 view .LVU370
 1659              	.LBE612:
 1660              	.LBE617:
 1661              	.LBE622:
 1662              	.LBE630:
 416:../../libdaisy/src/hid/disp/display.h ****             {
 1663              		.loc 6 416 13 view .LVU371
 1664 010e 0130     		adds	r0, r0, #1
 1665              	.LVL124:
 1666              	.LBB631:
 1667              	.LBB623:
 1668              	.LBB618:
 1669              	.LBB613:
 1670              	.LBB609:
 246:../../libdaisy/src/dev/oled_ssd130x.h ****     }
 1671              		.loc 12 246 42 view .LVU372
 1672 0110 0CEA0505 		and	r5, ip, r5
 1673 0114 0133     		adds	r3, r3, #1
 1674 0116 0134     		adds	r4, r4, #1
 1675              	.LBE609:
 1676              	.LBE613:
 1677              	.LBE618:
 1678              	.LBE623:
 1679              	.LBE631:
 416:../../libdaisy/src/hid/disp/display.h ****             {
 1680              		.loc 6 416 26 view .LVU373
 1681 0118 B842     		cmp	r0, r7
 1682              	.LBB632:
 1683              	.LBB624:
 1684              	.LBB619:
 1685              	.LBB614:
 1686              	.LBB610:
 246:../../libdaisy/src/dev/oled_ssd130x.h ****     }
 1687              		.loc 12 246 13 view .LVU374
 1688 011a 03F8015C 		strb	r5, [r3, #-1]
ARM GAS  /tmp/ccjBmcCr.s 			page 68


 246:../../libdaisy/src/dev/oled_ssd130x.h ****     }
 1689              		.loc 12 246 13 view .LVU375
 1690              	.LBE610:
 1691              	.LBE614:
 1692              	.LBE619:
 1693              	.LBE624:
 1694              	.LBE632:
 416:../../libdaisy/src/hid/disp/display.h ****             {
 1695              		.loc 6 416 13 is_stmt 1 view .LVU376
 1696              	.LVL125:
 416:../../libdaisy/src/hid/disp/display.h ****             {
 1697              		.loc 6 416 26 view .LVU377
 1698 011e EAD1     		bne	.L93
 1699              	.LVL126:
 1700              	.L92:
 413:../../libdaisy/src/hid/disp/display.h ****         {
 1701              		.loc 6 413 9 view .LVU378
 413:../../libdaisy/src/hid/disp/display.h ****         {
 1702              		.loc 6 413 22 view .LVU379
 1703 0120 5E45     		cmp	r6, fp
 1704 0122 01F10101 		add	r1, r1, #1
 1705 0126 C3D1     		bne	.L87
 1706 0128 BA46     		mov	r10, r7
 1707              	.LVL127:
 413:../../libdaisy/src/hid/disp/display.h ****         {
 1708              		.loc 6 413 22 is_stmt 0 view .LVU380
 1709 012a 029D     		ldr	r5, [sp, #8]
 1710 012c 7746     		mov	r7, lr
 1711 012e DDF80CB0 		ldr	fp, [sp, #12]
 1712              	.L86:
 1713              	.LBB633:
 1714              	.LBB634:
 173:../../libdaisy/src/hid/disp/display.h ****         currentY_ = (y >= Height()) ? Height() - 1 : y;
 1715              		.loc 6 173 33 view .LVU381
 1716 0132 D8F80020 		ldr	r2, [r8]
 1717              	.LBE634:
 1718              	.LBE633:
 434:../../libdaisy/src/hid/disp/display.h **** 
 1719              		.loc 6 434 18 view .LVU382
 1720 0136 5744     		add	r7, r7, r10
 1721 0138 2749     		ldr	r1, .L122
 1722              	.LBB638:
 1723              	.LBB635:
 173:../../libdaisy/src/hid/disp/display.h ****         currentY_ = (y >= Height()) ? Height() - 1 : y;
 1724              		.loc 6 173 33 view .LVU383
 1725 013a D368     		ldr	r3, [r2, #12]
 1726              	.LBE635:
 1727              	.LBE638:
 434:../../libdaisy/src/hid/disp/display.h **** 
 1728              		.loc 6 434 18 view .LVU384
 1729 013c BFB2     		uxth	r7, r7
 1730              	.LVL128:
 1731              	.LBB639:
 1732              	.LBI633:
 171:../../libdaisy/src/hid/disp/display.h ****     {
 1733              		.loc 6 171 10 is_stmt 1 view .LVU385
 1734              	.LBB636:
ARM GAS  /tmp/ccjBmcCr.s 			page 69


 173:../../libdaisy/src/hid/disp/display.h ****         currentY_ = (y >= Height()) ? Height() - 1 : y;
 1735              		.loc 6 173 9 view .LVU386
 1736 013e 8B42     		cmp	r3, r1
 1737 0140 34D1     		bne	.L118
 173:../../libdaisy/src/hid/disp/display.h ****         currentY_ = (y >= Height()) ? Height() - 1 : y;
 1738              		.loc 6 173 33 is_stmt 0 view .LVU387
 1739 0142 8020     		movs	r0, #128
 1740              	.L94:
 173:../../libdaisy/src/hid/disp/display.h ****         currentY_ = (y >= Height()) ? Height() - 1 : y;
 1741              		.loc 6 173 19 view .LVU388
 1742 0144 8742     		cmp	r7, r0
 1743 0146 04D3     		bcc	.L95
 173:../../libdaisy/src/hid/disp/display.h ****         currentY_ = (y >= Height()) ? Height() - 1 : y;
 1744              		.loc 6 173 44 view .LVU389
 1745 0148 D368     		ldr	r3, [r2, #12]
 1746 014a 2349     		ldr	r1, .L122
 1747 014c 8B42     		cmp	r3, r1
 1748 014e 3BD1     		bne	.L119
 1749 0150 7F27     		movs	r7, #127
 1750              	.LVL129:
 1751              	.L95:
 174:../../libdaisy/src/hid/disp/display.h ****     }
 1752              		.loc 6 174 34 view .LVU390
 1753 0152 9368     		ldr	r3, [r2, #8]
 1754 0154 214A     		ldr	r2, .L122+4
 173:../../libdaisy/src/hid/disp/display.h ****         currentY_ = (y >= Height()) ? Height() - 1 : y;
 1755              		.loc 6 173 19 view .LVU391
 1756 0156 A8F80470 		strh	r7, [r8, #4]	@ movhi
 174:../../libdaisy/src/hid/disp/display.h ****     }
 1757              		.loc 6 174 9 is_stmt 1 view .LVU392
 1758 015a 9342     		cmp	r3, r2
 1759 015c 23D1     		bne	.L120
 174:../../libdaisy/src/hid/disp/display.h ****     }
 1760              		.loc 6 174 34 is_stmt 0 view .LVU393
 1761 015e 4020     		movs	r0, #64
 1762              	.L97:
 174:../../libdaisy/src/hid/disp/display.h ****     }
 1763              		.loc 6 174 19 view .LVU394
 1764 0160 009B     		ldr	r3, [sp]
 1765 0162 8342     		cmp	r3, r0
 1766 0164 07D3     		bcc	.L98
 174:../../libdaisy/src/hid/disp/display.h ****     }
 1767              		.loc 6 174 46 view .LVU395
 1768 0166 D8F80030 		ldr	r3, [r8]
 1769 016a 1C4A     		ldr	r2, .L122+4
 1770 016c 9B68     		ldr	r3, [r3, #8]
 1771 016e 9342     		cmp	r3, r2
 1772 0170 24D1     		bne	.L121
 1773 0172 3F23     		movs	r3, #63
 1774 0174 0093     		str	r3, [sp]
 1775              	.LVL130:
 1776              	.L98:
 174:../../libdaisy/src/hid/disp/display.h ****     }
 1777              		.loc 6 174 19 view .LVU396
 1778 0176 009B     		ldr	r3, [sp]
 1779 0178 A8F80630 		strh	r3, [r8, #6]	@ movhi
 1780              	.LVL131:
ARM GAS  /tmp/ccjBmcCr.s 			page 70


 1781              	.L80:
 174:../../libdaisy/src/hid/disp/display.h ****     }
 1782              		.loc 6 174 19 view .LVU397
 1783              	.LBE636:
 1784              	.LBE639:
 1785              	.LBE602:
 1786              	.LBE601:
 444:../../libdaisy/src/hid/disp/display.h ****         {
 445:../../libdaisy/src/hid/disp/display.h ****             if(((ChildType*)(this))->ChildType::WriteChar(*str, font, on)
 446:../../libdaisy/src/hid/disp/display.h ****                != *str)
 1787              		.loc 6 446 16 view .LVU398
 1788 017c 9BF80000 		ldrb	r0, [fp]	@ zero_extendqisi2
 445:../../libdaisy/src/hid/disp/display.h ****                != *str)
 1789              		.loc 6 445 13 view .LVU399
 1790 0180 A842     		cmp	r0, r5
 1791 0182 05D1     		bne	.L78
 1792              	.LVL132:
 443:../../libdaisy/src/hid/disp/display.h ****         {
 1793              		.loc 6 443 9 is_stmt 1 view .LVU400
 1794 0184 1BF8015F 		ldrb	r5, [fp, #1]!	@ zero_extendqisi2
 1795              	.LVL133:
 443:../../libdaisy/src/hid/disp/display.h ****         {
 1796              		.loc 6 443 9 is_stmt 0 view .LVU401
 1797 0188 002D     		cmp	r5, #0
 1798 018a 7FF452AF 		bne	.L101
 1799              	.LVL134:
 1800              	.L100:
 1801              	.LBB643:
 1802              	.LBB641:
 402:../../libdaisy/src/hid/disp/display.h **** 
 1803              		.loc 6 402 20 view .LVU402
 1804 018e 0020     		movs	r0, #0
 1805              	.LVL135:
 1806              	.L78:
 402:../../libdaisy/src/hid/disp/display.h **** 
 1807              		.loc 6 402 20 view .LVU403
 1808              	.LBE641:
 1809              	.LBE643:
 447:../../libdaisy/src/hid/disp/display.h ****             {
 448:../../libdaisy/src/hid/disp/display.h ****                 // Char could not be written
 449:../../libdaisy/src/hid/disp/display.h ****                 return *str;
 450:../../libdaisy/src/hid/disp/display.h ****             }
 451:../../libdaisy/src/hid/disp/display.h **** 
 452:../../libdaisy/src/hid/disp/display.h ****             // Next char
 453:../../libdaisy/src/hid/disp/display.h ****             str++;
 454:../../libdaisy/src/hid/disp/display.h ****         }
 455:../../libdaisy/src/hid/disp/display.h **** 
 456:../../libdaisy/src/hid/disp/display.h ****         // Everything ok
 457:../../libdaisy/src/hid/disp/display.h ****         return *str;
 458:../../libdaisy/src/hid/disp/display.h ****     }
 1810              		.loc 6 458 5 view .LVU404
 1811 0190 09B0     		add	sp, sp, #36
 1812              		.cfi_remember_state
 1813              		.cfi_def_cfa_offset 36
 1814              		@ sp needed
 1815 0192 BDE8F08F 		pop	{r4, r5, r6, r7, r8, r9, r10, fp, pc}
 1816              	.LVL136:
ARM GAS  /tmp/ccjBmcCr.s 			page 71


 1817              	.L82:
 1818              		.cfi_restore_state
 1819              	.LBB644:
 1820              	.LBB642:
 402:../../libdaisy/src/hid/disp/display.h **** 
 1821              		.loc 6 402 20 view .LVU405
 1822 0196 0025     		movs	r5, #0
 1823              	.LVL137:
 402:../../libdaisy/src/hid/disp/display.h **** 
 1824              		.loc 6 402 20 view .LVU406
 1825 0198 F0E7     		b	.L80
 1826              	.LVL138:
 1827              	.L115:
 405:../../libdaisy/src/hid/disp/display.h ****            || Height() < (currentY_ + font.FontHeight))
 1828              		.loc 6 405 17 view .LVU407
 1829 019a 4046     		mov	r0, r8
 1830 019c 9847     		blx	r3
 1831              	.LVL139:
 1832 019e 56E7     		b	.L81
 1833              	.L116:
 406:../../libdaisy/src/hid/disp/display.h ****         {
 1834              		.loc 6 406 21 view .LVU408
 1835 01a0 4046     		mov	r0, r8
 1836 01a2 9847     		blx	r3
 1837              	.LVL140:
 1838 01a4 61E7     		b	.L83
 1839              	.LVL141:
 1840              	.L120:
 1841              	.LBB640:
 1842              	.LBB637:
 174:../../libdaisy/src/hid/disp/display.h ****     }
 1843              		.loc 6 174 33 view .LVU409
 1844 01a6 4046     		mov	r0, r8
 1845 01a8 9847     		blx	r3
 1846              	.LVL142:
 1847 01aa D9E7     		b	.L97
 1848              	.LVL143:
 1849              	.L118:
 173:../../libdaisy/src/hid/disp/display.h ****         currentY_ = (y >= Height()) ? Height() - 1 : y;
 1850              		.loc 6 173 32 view .LVU410
 1851 01ac 4046     		mov	r0, r8
 1852 01ae 9847     		blx	r3
 1853              	.LVL144:
 1854 01b0 D8F80020 		ldr	r2, [r8]
 1855 01b4 C6E7     		b	.L94
 1856              	.LVL145:
 1857              	.L84:
 173:../../libdaisy/src/hid/disp/display.h ****         currentY_ = (y >= Height()) ? Height() - 1 : y;
 1858              		.loc 6 173 32 view .LVU411
 1859 01b6 B8F80470 		ldrh	r7, [r8, #4]
 1860 01ba BAE7     		b	.L86
 1861              	.LVL146:
 1862              	.L121:
 174:../../libdaisy/src/hid/disp/display.h ****     }
 1863              		.loc 6 174 45 view .LVU412
 1864 01bc 4046     		mov	r0, r8
 1865 01be 9847     		blx	r3
ARM GAS  /tmp/ccjBmcCr.s 			page 72


 1866              	.LVL147:
 1867 01c0 0138     		subs	r0, r0, #1
 1868 01c2 83B2     		uxth	r3, r0
 1869 01c4 0093     		str	r3, [sp]
 1870              	.LVL148:
 174:../../libdaisy/src/hid/disp/display.h ****     }
 1871              		.loc 6 174 45 view .LVU413
 1872 01c6 D6E7     		b	.L98
 1873              	.LVL149:
 1874              	.L119:
 173:../../libdaisy/src/hid/disp/display.h ****         currentY_ = (y >= Height()) ? Height() - 1 : y;
 1875              		.loc 6 173 43 view .LVU414
 1876 01c8 4046     		mov	r0, r8
 1877 01ca 9847     		blx	r3
 1878              	.LVL150:
 1879 01cc 0138     		subs	r0, r0, #1
 1880 01ce D8F80020 		ldr	r2, [r8]
 1881 01d2 87B2     		uxth	r7, r0
 1882              	.LVL151:
 173:../../libdaisy/src/hid/disp/display.h ****         currentY_ = (y >= Height()) ? Height() - 1 : y;
 1883              		.loc 6 173 43 view .LVU415
 1884 01d4 BDE7     		b	.L95
 1885              	.L123:
 1886 01d6 00BF     		.align	2
 1887              	.L122:
 1888 01d8 00000000 		.word	_ZNK5daisy11OledDisplayINS_13SSD130xDriverILj128ELj64ENS_24SSD130x4WireSpiTransportEEEE5Widt
 1889 01dc 00000000 		.word	_ZNK5daisy11OledDisplayINS_13SSD130xDriverILj128ELj64ENS_24SSD130x4WireSpiTransportEEEE6Heig
 1890              	.LBE637:
 1891              	.LBE640:
 1892              	.LBE642:
 1893              	.LBE644:
 1894              		.cfi_endproc
 1895              	.LFE4571:
 1897              		.section	.text._ZN5daisy11OledDisplayINS_13SSD130xDriverILj128ELj64ENS_24SSD130x4WireSpiTransportE
 1898              		.align	1
 1899              		.p2align 2,,3
 1900              		.weak	_ZN5daisy11OledDisplayINS_13SSD130xDriverILj128ELj64ENS_24SSD130x4WireSpiTransportEEEE9DrawP
 1901              		.syntax unified
 1902              		.thumb
 1903              		.thumb_func
 1904              		.fpu fpv5-d16
 1906              	_ZN5daisy11OledDisplayINS_13SSD130xDriverILj128ELj64ENS_24SSD130x4WireSpiTransportEEEE9DrawPixelEjj
 1907              	.LVL152:
 1908              	.LFB4742:
  41:../../libdaisy/src/hid/disp/oled_display.h ****     {
 1909              		.loc 5 41 10 is_stmt 1 view -0
 1910              		.cfi_startproc
 1911              		@ args = 0, pretend = 0, frame = 0
 1912              		@ frame_needed = 0, uses_anonymous_args = 0
 1913              		@ link register save eliminated.
 1914              	.LBB649:
 1915              	.LBI649:
 239:../../libdaisy/src/dev/oled_ssd130x.h ****     {
 1916              		.loc 12 239 10 view .LVU417
 1917              	.LBB650:
 241:../../libdaisy/src/dev/oled_ssd130x.h ****             return;
 1918              		.loc 12 241 9 is_stmt 0 view .LVU418
ARM GAS  /tmp/ccjBmcCr.s 			page 73


 1919 0000 7F29     		cmp	r1, #127
 1920 0002 21D8     		bhi	.L128
 1921 0004 3F2A     		cmp	r2, #63
 1922 0006 1FD8     		bhi	.L128
 1923              	.LBE650:
 1924              	.LBE649:
  41:../../libdaisy/src/hid/disp/oled_display.h ****     {
 1925              		.loc 5 41 10 view .LVU419
 1926 0008 10B4     		push	{r4}
 1927              		.cfi_def_cfa_offset 4
 1928              		.cfi_offset 4, -4
 1929              	.LBB655:
 1930              	.LBB653:
 243:../../libdaisy/src/dev/oled_ssd130x.h ****             buffer_[x + (y / 8) * width] |= (1 << (y % 8));
 1931              		.loc 12 243 9 view .LVU420
 1932 000a 73B9     		cbnz	r3, .L131
 1933              	.LVL153:
 1934              	.LBB651:
 1935              	.LBI651:
 239:../../libdaisy/src/dev/oled_ssd130x.h ****     {
 1936              		.loc 12 239 10 is_stmt 1 view .LVU421
 1937              	.LBB652:
 246:../../libdaisy/src/dev/oled_ssd130x.h ****     }
 1938              		.loc 12 246 28 is_stmt 0 view .LVU422
 1939 000c D308     		lsrs	r3, r2, #3
 1940              	.LVL154:
 246:../../libdaisy/src/dev/oled_ssd130x.h ****     }
 1941              		.loc 12 246 49 view .LVU423
 1942 000e 0124     		movs	r4, #1
 246:../../libdaisy/src/dev/oled_ssd130x.h ****     }
 1943              		.loc 12 246 55 view .LVU424
 1944 0010 02F00702 		and	r2, r2, #7
 1945              	.LVL155:
 246:../../libdaisy/src/dev/oled_ssd130x.h ****     }
 1946              		.loc 12 246 42 view .LVU425
 1947 0014 01EBC313 		add	r3, r1, r3, lsl #7
 246:../../libdaisy/src/dev/oled_ssd130x.h ****     }
 1948              		.loc 12 246 49 view .LVU426
 1949 0018 9440     		lsls	r4, r4, r2
 246:../../libdaisy/src/dev/oled_ssd130x.h ****     }
 1950              		.loc 12 246 13 view .LVU427
 1951 001a C118     		adds	r1, r0, r3
 1952              	.LVL156:
 246:../../libdaisy/src/dev/oled_ssd130x.h ****     }
 1953              		.loc 12 246 42 view .LVU428
 1954 001c 0A7D     		ldrb	r2, [r1, #20]	@ zero_extendqisi2
 1955 001e 22EA0402 		bic	r2, r2, r4
 246:../../libdaisy/src/dev/oled_ssd130x.h ****     }
 1956              		.loc 12 246 13 view .LVU429
 1957 0022 0A75     		strb	r2, [r1, #20]
 1958              	.LVL157:
 246:../../libdaisy/src/dev/oled_ssd130x.h ****     }
 1959              		.loc 12 246 13 view .LVU430
 1960              	.LBE652:
 1961              	.LBE651:
 1962              	.LBE653:
 1963              	.LBE655:
ARM GAS  /tmp/ccjBmcCr.s 			page 74


  44:../../libdaisy/src/hid/disp/oled_display.h **** 
 1964              		.loc 5 44 5 view .LVU431
 1965 0024 5DF8044B 		ldr	r4, [sp], #4
 1966              		.cfi_remember_state
 1967              		.cfi_restore 4
 1968              		.cfi_def_cfa_offset 0
 1969 0028 7047     		bx	lr
 1970              	.LVL158:
 1971              	.L131:
 1972              		.cfi_restore_state
 1973              	.LBB656:
 1974              	.LBB654:
 244:../../libdaisy/src/dev/oled_ssd130x.h ****         else
 1975              		.loc 12 244 28 view .LVU432
 1976 002a D408     		lsrs	r4, r2, #3
 244:../../libdaisy/src/dev/oled_ssd130x.h ****         else
 1977              		.loc 12 244 48 view .LVU433
 1978 002c 0123     		movs	r3, #1
 1979              	.LVL159:
 244:../../libdaisy/src/dev/oled_ssd130x.h ****         else
 1980              		.loc 12 244 54 view .LVU434
 1981 002e 02F00702 		and	r2, r2, #7
 1982              	.LVL160:
 244:../../libdaisy/src/dev/oled_ssd130x.h ****         else
 1983              		.loc 12 244 42 view .LVU435
 1984 0032 01EBC414 		add	r4, r1, r4, lsl #7
 244:../../libdaisy/src/dev/oled_ssd130x.h ****         else
 1985              		.loc 12 244 48 view .LVU436
 1986 0036 03FA02F2 		lsl	r2, r3, r2
 244:../../libdaisy/src/dev/oled_ssd130x.h ****         else
 1987              		.loc 12 244 13 view .LVU437
 1988 003a 0119     		adds	r1, r0, r4
 1989              	.LVL161:
 244:../../libdaisy/src/dev/oled_ssd130x.h ****         else
 1990              		.loc 12 244 42 view .LVU438
 1991 003c 0B7D     		ldrb	r3, [r1, #20]	@ zero_extendqisi2
 1992 003e 1A43     		orrs	r2, r2, r3
 244:../../libdaisy/src/dev/oled_ssd130x.h ****         else
 1993              		.loc 12 244 13 view .LVU439
 1994 0040 0A75     		strb	r2, [r1, #20]
 1995              	.LBE654:
 1996              	.LBE656:
  44:../../libdaisy/src/hid/disp/oled_display.h **** 
 1997              		.loc 5 44 5 view .LVU440
 1998 0042 5DF8044B 		ldr	r4, [sp], #4
 1999              		.cfi_restore 4
 2000              		.cfi_def_cfa_offset 0
 2001 0046 7047     		bx	lr
 2002              	.LVL162:
 2003              	.L128:
  44:../../libdaisy/src/hid/disp/oled_display.h **** 
 2004              		.loc 5 44 5 view .LVU441
 2005 0048 7047     		bx	lr
 2006              		.cfi_endproc
 2007              	.LFE4742:
 2009 004a 00BF     		.section	.text._ZN5daisy25OneBitGraphicsDisplayImplINS_11OledDisplayINS_13SSD130xDriverILj128ELj64
 2010              		.align	1
ARM GAS  /tmp/ccjBmcCr.s 			page 75


 2011              		.p2align 2,,3
 2012              		.weak	_ZN5daisy25OneBitGraphicsDisplayImplINS_11OledDisplayINS_13SSD130xDriverILj128ELj64ENS_24SSD
 2013              		.syntax unified
 2014              		.thumb
 2015              		.thumb_func
 2016              		.fpu fpv5-d16
 2018              	_ZN5daisy25OneBitGraphicsDisplayImplINS_11OledDisplayINS_13SSD130xDriverILj128ELj64ENS_24SSD130x4Wi
 2019              	.LVL163:
 2020              	.LFB4855:
 459:../../libdaisy/src/hid/disp/display.h **** 
 460:../../libdaisy/src/hid/disp/display.h ****     Rectangle WriteStringAligned(const char*    str,
 2021              		.loc 6 460 15 is_stmt 1 view -0
 2022              		.cfi_startproc
 2023              		@ args = 12, pretend = 0, frame = 40
 2024              		@ frame_needed = 0, uses_anonymous_args = 0
 2025              		.loc 6 460 15 is_stmt 0 view .LVU443
 2026 0000 2DE9F04F 		push	{r4, r5, r6, r7, r8, r9, r10, fp, lr}
 2027              		.cfi_def_cfa_offset 36
 2028              		.cfi_offset 4, -36
 2029              		.cfi_offset 5, -32
 2030              		.cfi_offset 6, -28
 2031              		.cfi_offset 7, -24
 2032              		.cfi_offset 8, -20
 2033              		.cfi_offset 9, -16
 2034              		.cfi_offset 10, -12
 2035              		.cfi_offset 11, -8
 2036              		.cfi_offset 14, -4
 2037 0004 0C46     		mov	r4, r1
 2038 0006 8BB0     		sub	sp, sp, #44
 2039              		.cfi_def_cfa_offset 80
 2040              	.LBB791:
 2041              	.LBB792:
 2042              	.LBB793:
 2043              	.LBB794:
 461:../../libdaisy/src/hid/disp/display.h ****                                  const FontDef& font,
 462:../../libdaisy/src/hid/disp/display.h ****                                  Rectangle      boundingBox,
 463:../../libdaisy/src/hid/disp/display.h ****                                  Alignment      alignment,
 464:../../libdaisy/src/hid/disp/display.h ****                                  bool           on) override
 465:../../libdaisy/src/hid/disp/display.h ****     {
 466:../../libdaisy/src/hid/disp/display.h ****         const auto alignedRect
 467:../../libdaisy/src/hid/disp/display.h ****             = GetTextRect(str, font).AlignedWithin(boundingBox, alignment);
 468:../../libdaisy/src/hid/disp/display.h ****         SetCursor(alignedRect.GetX(), alignedRect.GetY());
 469:../../libdaisy/src/hid/disp/display.h ****         ((ChildType*)(this))->ChildType::WriteString(str, font, on);
 470:../../libdaisy/src/hid/disp/display.h ****         return alignedRect;
 471:../../libdaisy/src/hid/disp/display.h ****     }
 472:../../libdaisy/src/hid/disp/display.h **** 
 473:../../libdaisy/src/hid/disp/display.h ****   private:
 474:../../libdaisy/src/hid/disp/display.h ****     uint32_t strlen(const char* string)
 475:../../libdaisy/src/hid/disp/display.h ****     {
 476:../../libdaisy/src/hid/disp/display.h ****         uint32_t result = 0;
 477:../../libdaisy/src/hid/disp/display.h ****         while(*string++ != '\0')
 2044              		.loc 6 477 25 view .LVU444
 2045 0008 1146     		mov	r1, r2
 2046              	.LVL164:
 2047              		.loc 6 477 25 view .LVU445
 2048              	.LBE794:
 2049              	.LBE793:
ARM GAS  /tmp/ccjBmcCr.s 			page 76


 2050              	.LBE792:
 2051              	.LBE791:
 460:../../libdaisy/src/hid/disp/display.h ****                                  const FontDef& font,
 2052              		.loc 6 460 15 view .LVU446
 2053 000a 9046     		mov	r8, r2
 2054 000c 0990     		str	r0, [sp, #36]
 2055 000e 1D46     		mov	r5, r3
 2056              	.LVL165:
 2057              	.LBB809:
 2058              	.LBI791:
 478:../../libdaisy/src/hid/disp/display.h ****             result++;
 479:../../libdaisy/src/hid/disp/display.h ****         return result;
 480:../../libdaisy/src/hid/disp/display.h ****     }
 481:../../libdaisy/src/hid/disp/display.h **** 
 482:../../libdaisy/src/hid/disp/display.h ****     Rectangle GetTextRect(const char* text, const FontDef& font)
 2059              		.loc 6 482 15 is_stmt 1 view .LVU447
 2060              	.LBB805:
 2061              	.LBB798:
 2062              	.LBB795:
 477:../../libdaisy/src/hid/disp/display.h ****             result++;
 2063              		.loc 6 477 25 view .LVU448
 477:../../libdaisy/src/hid/disp/display.h ****             result++;
 2064              		.loc 6 477 25 is_stmt 0 view .LVU449
 2065              	.LBE795:
 2066              	.LBE798:
 2067              	.LBE805:
 2068              	.LBE809:
 460:../../libdaisy/src/hid/disp/display.h ****                                  const FontDef& font,
 2069              		.loc 6 460 15 view .LVU450
 2070 0010 9DF85800 		ldrb	r0, [sp, #88]	@ zero_extendqisi2
 2071              	.LVL166:
 2072              	.LBB810:
 2073              	.LBB806:
 2074              	.LBB799:
 2075              	.LBB796:
 477:../../libdaisy/src/hid/disp/display.h ****             result++;
 2076              		.loc 6 477 25 view .LVU451
 2077 0014 11F8012B 		ldrb	r2, [r1], #1	@ zero_extendqisi2
 2078              	.LVL167:
 477:../../libdaisy/src/hid/disp/display.h ****             result++;
 2079              		.loc 6 477 25 view .LVU452
 2080              	.LBE796:
 2081              	.LBE799:
 2082              	.LBE806:
 2083              	.LBE810:
 460:../../libdaisy/src/hid/disp/display.h ****                                  const FontDef& font,
 2084              		.loc 6 460 15 view .LVU453
 2085 0018 0890     		str	r0, [sp, #32]
 2086 001a DDE91463 		ldrd	r6, r3, [sp, #80]
 2087              	.LVL168:
 2088              	.LBB811:
 2089              	.LBB807:
 2090              	.LBB800:
 2091              	.LBB797:
 477:../../libdaisy/src/hid/disp/display.h ****             result++;
 2092              		.loc 6 477 25 view .LVU454
 2093 001e 32B1     		cbz	r2, .L133
ARM GAS  /tmp/ccjBmcCr.s 			page 77


 476:../../libdaisy/src/hid/disp/display.h ****         while(*string++ != '\0')
 2094              		.loc 6 476 18 view .LVU455
 2095 0020 0022     		movs	r2, #0
 2096              	.LVL169:
 2097              	.L134:
 477:../../libdaisy/src/hid/disp/display.h ****             result++;
 2098              		.loc 6 477 25 view .LVU456
 2099 0022 11F8010B 		ldrb	r0, [r1], #1	@ zero_extendqisi2
 2100              	.LVL170:
 478:../../libdaisy/src/hid/disp/display.h ****             result++;
 2101              		.loc 6 478 13 view .LVU457
 2102 0026 0132     		adds	r2, r2, #1
 2103              	.LVL171:
 477:../../libdaisy/src/hid/disp/display.h ****             result++;
 2104              		.loc 6 477 25 is_stmt 1 view .LVU458
 2105 0028 0028     		cmp	r0, #0
 2106 002a FAD1     		bne	.L134
 2107 002c 92B2     		uxth	r2, r2
 2108              	.LVL172:
 2109              	.L133:
 477:../../libdaisy/src/hid/disp/display.h ****             result++;
