ARM GAS  /tmp/ccIu4BI8.s 			page 1


   1              		.cpu cortex-m7
   2              		.eabi_attribute 28, 1
   3              		.eabi_attribute 20, 1
   4              		.eabi_attribute 21, 1
   5              		.eabi_attribute 23, 3
   6              		.eabi_attribute 24, 1
   7              		.eabi_attribute 25, 1
   8              		.eabi_attribute 26, 1
   9              		.eabi_attribute 30, 2
  10              		.eabi_attribute 34, 1
  11              		.eabi_attribute 18, 4
  12              		.file	"Logger.cpp"
  13              		.text
  14              	.Ltext0:
  15              		.cfi_sections	.debug_frame
  16              		.section	.text._ZN5daisy9DaisySeedD2Ev,"axG",%progbits,_ZN5daisy9DaisySeedD5Ev,comdat
  17              		.align	1
  18              		.p2align 2,,3
  19              		.weak	_ZN5daisy9DaisySeedD2Ev
  20              		.arch armv7e-m
  21              		.syntax unified
  22              		.thumb
  23              		.thumb_func
  24              		.fpu fpv5-d16
  26              	_ZN5daisy9DaisySeedD2Ev:
  27              	.LVL0:
  28              	.LFB2042:
  29              		.file 1 "../../libdaisy/src/daisy_seed.h"
   1:../../libdaisy/src/daisy_seed.h **** #pragma once
   2:../../libdaisy/src/daisy_seed.h **** #ifndef DSY_SEED_H
   3:../../libdaisy/src/daisy_seed.h **** #define DSY_SEED_H
   4:../../libdaisy/src/daisy_seed.h **** 
   5:../../libdaisy/src/daisy_seed.h **** #include "daisy.h"
   6:../../libdaisy/src/daisy_seed.h **** 
   7:../../libdaisy/src/daisy_seed.h **** //Uncomment this out if you're still using the rev2 hardware
   8:../../libdaisy/src/daisy_seed.h **** //#define SEED_REV2
   9:../../libdaisy/src/daisy_seed.h **** 
  10:../../libdaisy/src/daisy_seed.h **** namespace daisy
  11:../../libdaisy/src/daisy_seed.h **** {
  12:../../libdaisy/src/daisy_seed.h **** /**
  13:../../libdaisy/src/daisy_seed.h ****    @brief This is the higher-level interface for the Daisy board. \n 
  14:../../libdaisy/src/daisy_seed.h ****     All basic peripheral configuration/initialization is setup here. \n
  15:../../libdaisy/src/daisy_seed.h **** 
  16:../../libdaisy/src/daisy_seed.h ****    @ingroup boards
  17:../../libdaisy/src/daisy_seed.h **** */
  18:../../libdaisy/src/daisy_seed.h **** class DaisySeed
  19:../../libdaisy/src/daisy_seed.h **** {
  20:../../libdaisy/src/daisy_seed.h ****   public:
  21:../../libdaisy/src/daisy_seed.h ****     DaisySeed() {}
  22:../../libdaisy/src/daisy_seed.h ****     ~DaisySeed() {}
  30              		.loc 1 22 5 view -0
  31              		.cfi_startproc
  32              		@ args = 0, pretend = 0, frame = 0
  33              		@ frame_needed = 0, uses_anonymous_args = 0
  34              		@ link register save eliminated.
  35              	.LBB687:
  36              	.LBI687:
ARM GAS  /tmp/ccIu4BI8.s 			page 2


  37              		.file 2 "../../libdaisy/src/sys/system.h"
   1:../../libdaisy/src/sys/system.h **** #ifndef DSY_SYSTEM_H
   2:../../libdaisy/src/sys/system.h **** #define DSY_SYSTEM_H
   3:../../libdaisy/src/sys/system.h **** 
   4:../../libdaisy/src/sys/system.h **** #ifndef UNIT_TEST // for unit tests, a dummy implementation is provided below
   5:../../libdaisy/src/sys/system.h **** 
   6:../../libdaisy/src/sys/system.h **** #include <cstdint>
   7:../../libdaisy/src/sys/system.h **** #include "per/tim.h"
   8:../../libdaisy/src/sys/system.h **** 
   9:../../libdaisy/src/sys/system.h **** namespace daisy
  10:../../libdaisy/src/sys/system.h **** {
  11:../../libdaisy/src/sys/system.h **** /** A handle for interacting with the Core System. 
  12:../../libdaisy/src/sys/system.h ****  ** This includes the Clock tree, MPU, global DMA initialization,
  13:../../libdaisy/src/sys/system.h ****  ** cache handling, and any other necessary global initiailzation
  14:../../libdaisy/src/sys/system.h ****  **
  15:../../libdaisy/src/sys/system.h ****  ** @author shensley
  16:../../libdaisy/src/sys/system.h ****  ** @addtogroup system
  17:../../libdaisy/src/sys/system.h ****  */
  18:../../libdaisy/src/sys/system.h **** class System
  19:../../libdaisy/src/sys/system.h **** {
  20:../../libdaisy/src/sys/system.h ****   public:
  21:../../libdaisy/src/sys/system.h ****     /** Contains settings for initializing the System */
  22:../../libdaisy/src/sys/system.h ****     struct Config
  23:../../libdaisy/src/sys/system.h ****     {
  24:../../libdaisy/src/sys/system.h ****         /** Specifies the system clock frequency that feeds APB/AHB clocks, etc. */
  25:../../libdaisy/src/sys/system.h ****         enum class SysClkFreq
  26:../../libdaisy/src/sys/system.h ****         {
  27:../../libdaisy/src/sys/system.h ****             FREQ_400MHZ,
  28:../../libdaisy/src/sys/system.h ****             FREQ_480MHZ,
  29:../../libdaisy/src/sys/system.h ****         };
  30:../../libdaisy/src/sys/system.h **** 
  31:../../libdaisy/src/sys/system.h ****         /** Method to call on the struct to set to defaults
  32:../../libdaisy/src/sys/system.h ****          ** CPU Freq set to 400MHz
  33:../../libdaisy/src/sys/system.h ****          ** Cache Enabled 
  34:../../libdaisy/src/sys/system.h ****          ** */
  35:../../libdaisy/src/sys/system.h ****         void Defaults()
  36:../../libdaisy/src/sys/system.h ****         {
  37:../../libdaisy/src/sys/system.h ****             cpu_freq   = SysClkFreq::FREQ_400MHZ;
  38:../../libdaisy/src/sys/system.h ****             use_dcache = true;
  39:../../libdaisy/src/sys/system.h ****             use_icache = true;
  40:../../libdaisy/src/sys/system.h ****         }
  41:../../libdaisy/src/sys/system.h **** 
  42:../../libdaisy/src/sys/system.h ****         /** Method to call on the struct to set to boost mode:
  43:../../libdaisy/src/sys/system.h ****          ** CPU Freq set to 480MHz
  44:../../libdaisy/src/sys/system.h ****          ** Cache Enabled 
  45:../../libdaisy/src/sys/system.h ****          ** */
  46:../../libdaisy/src/sys/system.h ****         void Boost()
  47:../../libdaisy/src/sys/system.h ****         {
  48:../../libdaisy/src/sys/system.h ****             cpu_freq   = SysClkFreq::FREQ_480MHZ;
  49:../../libdaisy/src/sys/system.h ****             use_dcache = true;
  50:../../libdaisy/src/sys/system.h ****             use_icache = true;
  51:../../libdaisy/src/sys/system.h ****         }
  52:../../libdaisy/src/sys/system.h **** 
  53:../../libdaisy/src/sys/system.h ****         SysClkFreq cpu_freq;
  54:../../libdaisy/src/sys/system.h ****         bool       use_dcache;
  55:../../libdaisy/src/sys/system.h ****         bool       use_icache;
  56:../../libdaisy/src/sys/system.h ****     };
ARM GAS  /tmp/ccIu4BI8.s 			page 3


  57:../../libdaisy/src/sys/system.h **** 
  58:../../libdaisy/src/sys/system.h ****     System() {}
  59:../../libdaisy/src/sys/system.h ****     ~System() {}
  38              		.loc 2 59 5 view .LVU1
  39              		.loc 2 59 5 is_stmt 0 view .LVU2
  40              	.LBE687:
  41              	.LBB688:
  42              	.LBI688:
  43              		.file 3 "../../libdaisy/src/hid/usb.h"
   1:../../libdaisy/src/hid/usb.h **** #pragma once
   2:../../libdaisy/src/hid/usb.h **** #ifndef DSY_HID_USB_H
   3:../../libdaisy/src/hid/usb.h **** #define DSY_HID_USB_H
   4:../../libdaisy/src/hid/usb.h **** #include <stdint.h>
   5:../../libdaisy/src/hid/usb.h **** #include <stdlib.h>
   6:../../libdaisy/src/hid/usb.h **** 
   7:../../libdaisy/src/hid/usb.h **** namespace daisy
   8:../../libdaisy/src/hid/usb.h **** /** @addtogroup externals
   9:../../libdaisy/src/hid/usb.h ****     @{
  10:../../libdaisy/src/hid/usb.h **** */
  11:../../libdaisy/src/hid/usb.h **** 
  12:../../libdaisy/src/hid/usb.h **** {
  13:../../libdaisy/src/hid/usb.h **** /** 
  14:../../libdaisy/src/hid/usb.h ****     @brief Interface for initializing and using the USB Peripherals on the daisy
  15:../../libdaisy/src/hid/usb.h ****     @author Stephen Hensley
  16:../../libdaisy/src/hid/usb.h ****     @date December 2019
  17:../../libdaisy/src/hid/usb.h **** */
  18:../../libdaisy/src/hid/usb.h **** class UsbHandle
  19:../../libdaisy/src/hid/usb.h **** {
  20:../../libdaisy/src/hid/usb.h ****   public:
  21:../../libdaisy/src/hid/usb.h ****     /** Return values for USBHandle Functions */
  22:../../libdaisy/src/hid/usb.h ****     enum class Result
  23:../../libdaisy/src/hid/usb.h ****     {
  24:../../libdaisy/src/hid/usb.h ****         OK,
  25:../../libdaisy/src/hid/usb.h ****         ERR,
  26:../../libdaisy/src/hid/usb.h ****     };
  27:../../libdaisy/src/hid/usb.h **** 
  28:../../libdaisy/src/hid/usb.h ****     /** Specified which of the two USB Peripherals to initialize. */
  29:../../libdaisy/src/hid/usb.h ****     enum UsbPeriph
  30:../../libdaisy/src/hid/usb.h ****     {
  31:../../libdaisy/src/hid/usb.h ****         FS_INTERNAL, /**< Internal pin */
  32:../../libdaisy/src/hid/usb.h ****         FS_EXTERNAL, /**< FS External D+ pin is Pin 38 (GPIO32). FS External D- pin is Pin 37 (GPIO
  33:../../libdaisy/src/hid/usb.h ****         FS_BOTH,     /**< Both */
  34:../../libdaisy/src/hid/usb.h ****     };
  35:../../libdaisy/src/hid/usb.h **** 
  36:../../libdaisy/src/hid/usb.h **** 
  37:../../libdaisy/src/hid/usb.h ****     /** Function called upon reception of a buffer */
  38:../../libdaisy/src/hid/usb.h ****     typedef void (*ReceiveCallback)(uint8_t* buff, uint32_t* len);
  39:../../libdaisy/src/hid/usb.h **** 
  40:../../libdaisy/src/hid/usb.h ****     UsbHandle() {}
  41:../../libdaisy/src/hid/usb.h **** 
  42:../../libdaisy/src/hid/usb.h ****     ~UsbHandle() {}
  44              		.loc 3 42 5 is_stmt 1 view .LVU3
  45              		.loc 3 42 5 is_stmt 0 view .LVU4
  46              	.LBE688:
  47              	.LBB689:
  48              	.LBI689:
  49              		.file 4 "../../libdaisy/src/per/adc.h"
ARM GAS  /tmp/ccIu4BI8.s 			page 4


   1:../../libdaisy/src/per/adc.h **** #pragma once
   2:../../libdaisy/src/per/adc.h **** #ifndef DSY_ADC_H
   3:../../libdaisy/src/per/adc.h **** #define DSY_ADC_H /**< Macro */
   4:../../libdaisy/src/per/adc.h **** #include <stdint.h>
   5:../../libdaisy/src/per/adc.h **** #include <stdlib.h>
   6:../../libdaisy/src/per/adc.h **** #include "daisy_core.h"
   7:../../libdaisy/src/per/adc.h **** #include "per/gpio.h"
   8:../../libdaisy/src/per/adc.h **** 
   9:../../libdaisy/src/per/adc.h **** #define DSY_ADC_MAX_CHANNELS 14 /**< Maximum number of ADC channels */
  10:../../libdaisy/src/per/adc.h **** 
  11:../../libdaisy/src/per/adc.h **** namespace daisy
  12:../../libdaisy/src/per/adc.h **** {
  13:../../libdaisy/src/per/adc.h **** /** @addtogroup analog_digital_conversion
  14:../../libdaisy/src/per/adc.h ****     @{
  15:../../libdaisy/src/per/adc.h **** */
  16:../../libdaisy/src/per/adc.h **** 
  17:../../libdaisy/src/per/adc.h **** /* While there may not be many configuration options here,
  18:../../libdaisy/src/per/adc.h **** using a struct like this allows us to add more configuration
  19:../../libdaisy/src/per/adc.h **** later without breaking existing functionality.
  20:../../libdaisy/src/per/adc.h **** */
  21:../../libdaisy/src/per/adc.h **** 
  22:../../libdaisy/src/per/adc.h **** /** Configuration Structure for a given channel */
  23:../../libdaisy/src/per/adc.h **** struct AdcChannelConfig
  24:../../libdaisy/src/per/adc.h **** {
  25:../../libdaisy/src/per/adc.h ****     /** Which pin to use for multiplexing */
  26:../../libdaisy/src/per/adc.h ****     enum MuxPin
  27:../../libdaisy/src/per/adc.h ****     {
  28:../../libdaisy/src/per/adc.h ****         MUX_SEL_0,    /**< & */
  29:../../libdaisy/src/per/adc.h ****         MUX_SEL_1,    /**< & */
  30:../../libdaisy/src/per/adc.h ****         MUX_SEL_2,    /**< & */
  31:../../libdaisy/src/per/adc.h ****         MUX_SEL_LAST, /**< & */
  32:../../libdaisy/src/per/adc.h ****     };
  33:../../libdaisy/src/per/adc.h **** 
  34:../../libdaisy/src/per/adc.h ****     /** Initializes a single ADC pin as an ADC. 
  35:../../libdaisy/src/per/adc.h ****     \param pin Pin to init.
  36:../../libdaisy/src/per/adc.h ****      */
  37:../../libdaisy/src/per/adc.h ****     void InitSingle(dsy_gpio_pin pin);
  38:../../libdaisy/src/per/adc.h **** 
  39:../../libdaisy/src/per/adc.h ****     /** 
  40:../../libdaisy/src/per/adc.h ****     Initializes a single ADC pin as a Multiplexed ADC.
  41:../../libdaisy/src/per/adc.h ****     Requires a CD405X Multiplexer connected to the pin.
  42:../../libdaisy/src/per/adc.h ****     You only need to supply the mux pins that are required,
  43:../../libdaisy/src/per/adc.h ****     e.g. a 4052 mux would only require mux_0 and mux_1.
  44:../../libdaisy/src/per/adc.h ****     Internal Callbacks handle the pin addressing.
  45:../../libdaisy/src/per/adc.h ****     \param mux_channels must be 1-8
  46:../../libdaisy/src/per/adc.h ****     \param mux_0 First mux pin
  47:../../libdaisy/src/per/adc.h ****     \param mux_1 Second mux pin
  48:../../libdaisy/src/per/adc.h ****     \param mux_2 Third mux pin
  49:../../libdaisy/src/per/adc.h ****     \param adc_pin &
  50:../../libdaisy/src/per/adc.h ****     */
  51:../../libdaisy/src/per/adc.h ****     void InitMux(dsy_gpio_pin adc_pin,
  52:../../libdaisy/src/per/adc.h ****                  size_t       mux_channels,
  53:../../libdaisy/src/per/adc.h ****                  dsy_gpio_pin mux_0,
  54:../../libdaisy/src/per/adc.h ****                  dsy_gpio_pin mux_1 = {DSY_GPIOX, 0},
  55:../../libdaisy/src/per/adc.h ****                  dsy_gpio_pin mux_2 = {DSY_GPIOX, 0});
  56:../../libdaisy/src/per/adc.h **** 
  57:../../libdaisy/src/per/adc.h ****     dsy_gpio pin_;                   /**< & */
ARM GAS  /tmp/ccIu4BI8.s 			page 5


  58:../../libdaisy/src/per/adc.h ****     dsy_gpio mux_pin_[MUX_SEL_LAST]; /**< & */
  59:../../libdaisy/src/per/adc.h ****     uint8_t  mux_channels_;          /**< & */
  60:../../libdaisy/src/per/adc.h **** };
  61:../../libdaisy/src/per/adc.h **** 
  62:../../libdaisy/src/per/adc.h **** /**
  63:../../libdaisy/src/per/adc.h ****    Handler for analog to digital conversion
  64:../../libdaisy/src/per/adc.h **** */
  65:../../libdaisy/src/per/adc.h **** class AdcHandle
  66:../../libdaisy/src/per/adc.h **** {
  67:../../libdaisy/src/per/adc.h ****   public:
  68:../../libdaisy/src/per/adc.h ****     /** Supported oversampling amounts */
  69:../../libdaisy/src/per/adc.h ****     enum OverSampling
  70:../../libdaisy/src/per/adc.h ****     {
  71:../../libdaisy/src/per/adc.h ****         OVS_NONE, /**< & */
  72:../../libdaisy/src/per/adc.h ****         OVS_4,    /**< & */
  73:../../libdaisy/src/per/adc.h ****         OVS_8,    /**< & */
  74:../../libdaisy/src/per/adc.h ****         OVS_16,   /**< & */
  75:../../libdaisy/src/per/adc.h ****         OVS_32,   /**< & */
  76:../../libdaisy/src/per/adc.h ****         OVS_64,   /**< & */
  77:../../libdaisy/src/per/adc.h ****         OVS_128,  /**< & */
  78:../../libdaisy/src/per/adc.h ****         OVS_256,  /**< & */
  79:../../libdaisy/src/per/adc.h ****         OVS_512,  /**< & */
  80:../../libdaisy/src/per/adc.h ****         OVS_1024, /**< & */
  81:../../libdaisy/src/per/adc.h ****         OVS_LAST, /**< & */
  82:../../libdaisy/src/per/adc.h ****     };
  83:../../libdaisy/src/per/adc.h **** 
  84:../../libdaisy/src/per/adc.h ****     AdcHandle() {}
  85:../../libdaisy/src/per/adc.h ****     ~AdcHandle() {}
  50              		.loc 4 85 5 is_stmt 1 view .LVU5
  51              		.loc 4 85 5 is_stmt 0 view .LVU6
  52              	.LBE689:
  53              	.LBB690:
  54              	.LBI690:
  55              		.file 5 "../../libdaisy/src/hid/audio.h"
   1:../../libdaisy/src/hid/audio.h **** #ifndef DSY_AUDIO_H
   2:../../libdaisy/src/hid/audio.h **** #define DSY_AUDIO_H /**< & */
   3:../../libdaisy/src/hid/audio.h **** 
   4:../../libdaisy/src/hid/audio.h **** #include "per/sai.h"
   5:../../libdaisy/src/hid/audio.h **** 
   6:../../libdaisy/src/hid/audio.h **** namespace daisy
   7:../../libdaisy/src/hid/audio.h **** {
   8:../../libdaisy/src/hid/audio.h **** class AudioHandle
   9:../../libdaisy/src/hid/audio.h **** {
  10:../../libdaisy/src/hid/audio.h ****   public:
  11:../../libdaisy/src/hid/audio.h ****     /** Manually configurable details about the Audio Engine */
  12:../../libdaisy/src/hid/audio.h ****     /** TODO: Figure out how to get samplerate in here. */
  13:../../libdaisy/src/hid/audio.h ****     struct Config
  14:../../libdaisy/src/hid/audio.h ****     {
  15:../../libdaisy/src/hid/audio.h ****         size_t                        blocksize;
  16:../../libdaisy/src/hid/audio.h ****         SaiHandle::Config::SampleRate samplerate;
  17:../../libdaisy/src/hid/audio.h ****         float                         postgain;
  18:../../libdaisy/src/hid/audio.h ****     };
  19:../../libdaisy/src/hid/audio.h **** 
  20:../../libdaisy/src/hid/audio.h ****     enum class Result
  21:../../libdaisy/src/hid/audio.h ****     {
  22:../../libdaisy/src/hid/audio.h ****         OK,
  23:../../libdaisy/src/hid/audio.h ****         ERR,
ARM GAS  /tmp/ccIu4BI8.s 			page 6


  24:../../libdaisy/src/hid/audio.h ****     };
  25:../../libdaisy/src/hid/audio.h **** 
  26:../../libdaisy/src/hid/audio.h ****     /** Non-Interleaving input buffer
  27:../../libdaisy/src/hid/audio.h ****      * Buffer arranged by float[chn][sample] 
  28:../../libdaisy/src/hid/audio.h ****      * const so that the user can't modify the input
  29:../../libdaisy/src/hid/audio.h ****     */
  30:../../libdaisy/src/hid/audio.h ****     typedef const float* const* InputBuffer;
  31:../../libdaisy/src/hid/audio.h **** 
  32:../../libdaisy/src/hid/audio.h ****     /** Non-Interleaving output buffer
  33:../../libdaisy/src/hid/audio.h ****      * Arranged by float[chn][sample] 
  34:../../libdaisy/src/hid/audio.h ****     */
  35:../../libdaisy/src/hid/audio.h ****     typedef float** OutputBuffer;
  36:../../libdaisy/src/hid/audio.h **** 
  37:../../libdaisy/src/hid/audio.h ****     /** Type for a Non-Interleaving audio callback 
  38:../../libdaisy/src/hid/audio.h ****    * Non-Interleaving audio callbacks in daisy will be of this type
  39:../../libdaisy/src/hid/audio.h ****   */
  40:../../libdaisy/src/hid/audio.h ****     typedef void (*AudioCallback)(InputBuffer  in,
  41:../../libdaisy/src/hid/audio.h ****                                   OutputBuffer out,
  42:../../libdaisy/src/hid/audio.h ****                                   size_t       size);
  43:../../libdaisy/src/hid/audio.h **** 
  44:../../libdaisy/src/hid/audio.h ****     /** Interleaving Input buffer
  45:../../libdaisy/src/hid/audio.h ****      ** audio is prepared as { L0, R0, L1, R1, . . . LN, RN }]
  46:../../libdaisy/src/hid/audio.h ****      ** this is const, as the user shouldn't modify it
  47:../../libdaisy/src/hid/audio.h ****     */
  48:../../libdaisy/src/hid/audio.h ****     typedef const float* InterleavingInputBuffer;
  49:../../libdaisy/src/hid/audio.h **** 
  50:../../libdaisy/src/hid/audio.h ****     /** Interleaving Output buffer 
  51:../../libdaisy/src/hid/audio.h ****      ** audio is prepared as { L0, R0, L1, R1, . . . LN, RN }
  52:../../libdaisy/src/hid/audio.h ****     */
  53:../../libdaisy/src/hid/audio.h ****     typedef float* InterleavingOutputBuffer;
  54:../../libdaisy/src/hid/audio.h **** 
  55:../../libdaisy/src/hid/audio.h ****     /** Interleaving Audio Callback 
  56:../../libdaisy/src/hid/audio.h ****    * Interleaving audio callbacks in daisy must be of this type
  57:../../libdaisy/src/hid/audio.h ****   */
  58:../../libdaisy/src/hid/audio.h ****     typedef void (*InterleavingAudioCallback)(InterleavingInputBuffer  in,
  59:../../libdaisy/src/hid/audio.h ****                                               InterleavingOutputBuffer out,
  60:../../libdaisy/src/hid/audio.h ****                                               size_t                   size);
  61:../../libdaisy/src/hid/audio.h **** 
  62:../../libdaisy/src/hid/audio.h ****     AudioHandle() : pimpl_(nullptr) {}
  63:../../libdaisy/src/hid/audio.h ****     ~AudioHandle() {}
  56              		.loc 5 63 5 is_stmt 1 view .LVU7
  57              		.loc 5 63 5 is_stmt 0 view .LVU8
  58              	.LBE690:
  59              		.loc 1 22 19 view .LVU9
  60 0000 7047     		bx	lr
  61              		.cfi_endproc
  62              	.LFE2042:
  64              		.weak	_ZN5daisy9DaisySeedD1Ev
  65              		.thumb_set _ZN5daisy9DaisySeedD1Ev,_ZN5daisy9DaisySeedD2Ev
  66 0002 00BF     		.section	.text._Z15ProfileFunctionIXadL_ZN5daisy6LoggerILNS0_17LoggerDestinationE0EE5PrintEPKczEEJ
  67              		.align	1
  68              		.p2align 2,,3
  69              		.syntax unified
  70              		.thumb
  71              		.thumb_func
  72              		.fpu fpv5-d16
  74              	_Z15ProfileFunctionIXadL_ZN5daisy6LoggerILNS0_17LoggerDestinationE0EE5PrintEPKczEEJEEfS5_DpT0_.isra
ARM GAS  /tmp/ccIu4BI8.s 			page 7


  75              	.LFB2118:
  76              		.file 6 "Logger.cpp"
   1:Logger.cpp    **** #include <cstring>
   2:Logger.cpp    **** #include <cstdio>
   3:Logger.cpp    **** #include <cmath>
   4:Logger.cpp    **** #include "daisy_seed.h"
   5:Logger.cpp    **** 
   6:Logger.cpp    **** using namespace daisy;
   7:Logger.cpp    **** 
   8:Logger.cpp    **** static DaisySeed hw;
   9:Logger.cpp    **** 
  10:Logger.cpp    **** /** grab the internal logger configuration value LOGGER_BUFFER for verification
  11:Logger.cpp    ****  * note that the last character is the null terminator
  12:Logger.cpp    ****  * so [1 + LOGGER_BUFFER] buffer would contain LOGGER_BUFFER meaningful characters
  13:Logger.cpp    ****  */
  14:Logger.cpp    **** char test_msg1[1 + LOGGER_BUFFER + 1] = "This should really overflow";
  15:Logger.cpp    **** char test_msg2[1 + LOGGER_BUFFER]     = "This should be treated as overflow";
  16:Logger.cpp    **** char test_msg3[1 + LOGGER_BUFFER - 1] = "This should be safe for Print()";
  17:Logger.cpp    **** char test_msg4[1 + LOGGER_BUFFER - 2] = "This should be safe for Print()";
  18:Logger.cpp    **** char test_msg5[1 + LOGGER_BUFFER - 3]
  19:Logger.cpp    ****     = "This should be safe for Print() and PrintLine()";
  20:Logger.cpp    **** 
  21:Logger.cpp    **** /** append dots (.) till the end of the buffer as a visual cue
  22:Logger.cpp    ****  */
  23:Logger.cpp    **** template <size_t N>
  24:Logger.cpp    **** void fillup_msg(char (&buf)[N])
  25:Logger.cpp    **** {
  26:Logger.cpp    ****     for(size_t i = strlen(buf); i < N - 1; i++)
  27:Logger.cpp    ****     {
  28:Logger.cpp    ****         buf[i] = '.';
  29:Logger.cpp    ****     }
  30:Logger.cpp    ****     buf[N - 1] = '\0';
  31:Logger.cpp    **** }
  32:Logger.cpp    **** 
  33:Logger.cpp    **** /** fill up message for buffer overflow testing
  34:Logger.cpp    ****  */
  35:Logger.cpp    **** void prepare_messages()
  36:Logger.cpp    **** {
  37:Logger.cpp    ****     fillup_msg(test_msg1);
  38:Logger.cpp    ****     fillup_msg(test_msg2);
  39:Logger.cpp    ****     fillup_msg(test_msg3);
  40:Logger.cpp    ****     fillup_msg(test_msg4);
  41:Logger.cpp    ****     fillup_msg(test_msg5);
  42:Logger.cpp    **** }
  43:Logger.cpp    **** 
  44:Logger.cpp    **** typedef void(PrintFunc)(const char*, ...);
  45:Logger.cpp    **** 
  46:Logger.cpp    **** /** profile a single printout function
  47:Logger.cpp    ****  */
  48:Logger.cpp    **** template <PrintFunc function, typename... Va>
  49:Logger.cpp    **** float ProfileFunction(const char* format, Va... va)
  77              		.loc 6 49 7 is_stmt 1 view -0
  78              		.cfi_startproc
  79              		@ args = 0, pretend = 0, frame = 0
  80              		@ frame_needed = 0, uses_anonymous_args = 0
  81              	.LVL1:
  82              		.loc 6 49 7 is_stmt 0 view .LVU11
ARM GAS  /tmp/ccIu4BI8.s 			page 8


  83 0000 10B5     		push	{r4, lr}
  84              		.cfi_def_cfa_offset 8
  85              		.cfi_offset 4, -8
  86              		.cfi_offset 14, -4
  50:Logger.cpp    **** {
  51:Logger.cpp    ****     constexpr int32_t count = 100000;
  52:Logger.cpp    ****     uint32_t          t0    = System::GetTick();
  87              		.loc 6 52 46 view .LVU12
  88 0002 FFF7FEFF 		bl	_ZN5daisy6System7GetTickEv
  89              	.LVL2:
  90 0006 0446     		mov	r4, r0
  91              	.LVL3:
  53:Logger.cpp    ****     for(int i = 0; i < count; i++)
  92              		.loc 6 53 22 is_stmt 1 view .LVU13
  54:Logger.cpp    ****     {
  55:Logger.cpp    ****         function(format, va...);
  56:Logger.cpp    ****     }
  57:Logger.cpp    ****     uint32_t    dt = System::GetTick() - t0;
  93              		.loc 6 57 37 is_stmt 0 view .LVU14
  94 0008 FFF7FEFF 		bl	_ZN5daisy6System7GetTickEv
  95              	.LVL4:
  58:Logger.cpp    ****     const float perf
  96              		.loc 6 58 17 view .LVU15
  97 000c DFED047A 		vldr.32	s15, .L5
  57:Logger.cpp    ****     const float perf
  98              		.loc 6 57 17 view .LVU16
  99 0010 001B     		subs	r0, r0, r4
 100              	.LVL5:
  59:Logger.cpp    ****         = (float)dt
  60:Logger.cpp    ****           / (200 * count); // using secret knowledge about timer frequency...
 101              		.loc 6 60 11 view .LVU17
 102 0012 07EE100A 		vmov	s14, r0	@ int
 103 0016 B8EE470A 		vcvt.f32.u32	s0, s14
  61:Logger.cpp    ****     return perf;
  62:Logger.cpp    **** }
 104              		.loc 6 62 1 view .LVU18
 105 001a 80EE270A 		vdiv.f32	s0, s0, s15
 106              	.LVL6:
 107              		.loc 6 62 1 view .LVU19
 108 001e 10BD     		pop	{r4, pc}
 109              	.LVL7:
 110              	.L6:
 111              		.loc 6 62 1 view .LVU20
 112              		.align	2
 113              	.L5:
 114 0020 8096984B 		.word	1268291200
 115              		.cfi_endproc
 116              	.LFE2118:
 118              		.thumb_set _Z15ProfileFunctionIXadL_ZN5daisy6LoggerILNS0_17LoggerDestinationE0EE9PrintLineEPKczEEJ
 119              		.thumb_set _Z15ProfileFunctionIXadL_ZN5daisy6LoggerILNS0_17LoggerDestinationE0EE9PrintLineEPKczEEJ
 120              		.thumb_set _Z15ProfileFunctionIXadL_ZN5daisy6LoggerILNS0_17LoggerDestinationE0EE9PrintLineEPKczEEJ
 121              		.thumb_set _Z15ProfileFunctionIXadL_ZN5daisy6LoggerILNS0_17LoggerDestinationE0EE9PrintLineEPKczEEJ
 122              		.thumb_set _Z15ProfileFunctionIXadL_ZN5daisy6LoggerILNS0_17LoggerDestinationE0EE5PrintEPKczEEJciiE
 123              		.thumb_set _Z15ProfileFunctionIXadL_ZN5daisy6LoggerILNS0_17LoggerDestinationE0EE5PrintEPKczEEJfEEf
 124              		.thumb_set _Z15ProfileFunctionIXadL_ZN5daisy6LoggerILNS0_17LoggerDestinationE0EE5PrintEPKczEEJiEEf
 125              		.section	.text._Z16prepare_messagesv,"ax",%progbits
 126              		.align	1
ARM GAS  /tmp/ccIu4BI8.s 			page 9


 127              		.p2align 2,,3
 128              		.global	_Z16prepare_messagesv
 129              		.syntax unified
 130              		.thumb
 131              		.thumb_func
 132              		.fpu fpv5-d16
 134              	_Z16prepare_messagesv:
 135              	.LFB2048:
  36:Logger.cpp    ****     fillup_msg(test_msg1);
 136              		.loc 6 36 1 is_stmt 1 view -0
 137              		.cfi_startproc
 138              		@ args = 0, pretend = 0, frame = 0
 139              		@ frame_needed = 0, uses_anonymous_args = 0
  37:Logger.cpp    ****     fillup_msg(test_msg2);
 140              		.loc 6 37 5 view .LVU22
 141              	.LVL8:
 142              	.LBB691:
 143              	.LBI691:
  24:Logger.cpp    **** {
 144              		.loc 6 24 6 view .LVU23
 145              	.LBE691:
  36:Logger.cpp    ****     fillup_msg(test_msg1);
 146              		.loc 6 36 1 is_stmt 0 view .LVU24
 147 0000 38B5     		push	{r3, r4, r5, lr}
 148              		.cfi_def_cfa_offset 16
 149              		.cfi_offset 3, -16
 150              		.cfi_offset 4, -12
 151              		.cfi_offset 5, -8
 152              		.cfi_offset 14, -4
 153              	.LBB696:
 154              	.LBB692:
 155              	.LBB693:
  26:Logger.cpp    ****     {
 156              		.loc 6 26 26 view .LVU25
 157 0002 2D4C     		ldr	r4, .L39
 158 0004 2046     		mov	r0, r4
 159 0006 FFF7FEFF 		bl	strlen
 160              	.LVL9:
  26:Logger.cpp    ****     {
 161              		.loc 6 26 35 is_stmt 1 view .LVU26
 162 000a 8128     		cmp	r0, #129
 163 000c 08D0     		beq	.L8
 164 000e 0138     		subs	r0, r0, #1
 165              	.LVL10:
  26:Logger.cpp    ****     {
 166              		.loc 6 26 35 is_stmt 0 view .LVU27
 167 0010 04F18001 		add	r1, r4, #128
 168 0014 2318     		adds	r3, r4, r0
 169              	.LVL11:
 170              	.L9:
  28:Logger.cpp    ****     }
 171              		.loc 6 28 9 view .LVU28
 172 0016 2E22     		movs	r2, #46
 173 0018 03F8012F 		strb	r2, [r3, #1]!
 174              	.LVL12:
  26:Logger.cpp    ****     {
 175              		.loc 6 26 5 is_stmt 1 view .LVU29
ARM GAS  /tmp/ccIu4BI8.s 			page 10


  26:Logger.cpp    ****     {
 176              		.loc 6 26 35 view .LVU30
 177 001c 8B42     		cmp	r3, r1
 178 001e FAD1     		bne	.L9
 179              	.LVL13:
 180              	.L8:
  26:Logger.cpp    ****     {
 181              		.loc 6 26 35 is_stmt 0 view .LVU31
 182              	.LBE693:
 183              	.LBE692:
 184              	.LBE696:
 185              	.LBB697:
 186              	.LBB698:
 187              	.LBB699:
  26:Logger.cpp    ****     {
 188              		.loc 6 26 26 view .LVU32
 189 0020 264D     		ldr	r5, .L39+4
 190              	.LBE699:
 191              	.LBE698:
 192              	.LBE697:
 193              	.LBB706:
 194              	.LBB694:
  30:Logger.cpp    **** }
 195              		.loc 6 30 5 view .LVU33
 196 0022 0023     		movs	r3, #0
 197              	.LBE694:
 198              	.LBE706:
 199              	.LBB707:
 200              	.LBB702:
 201              	.LBB700:
  26:Logger.cpp    ****     {
 202              		.loc 6 26 26 view .LVU34
 203 0024 2846     		mov	r0, r5
 204              	.LBE700:
 205              	.LBE702:
 206              	.LBE707:
 207              	.LBB708:
 208              	.LBB695:
  30:Logger.cpp    **** }
 209              		.loc 6 30 5 view .LVU35
 210 0026 84F88130 		strb	r3, [r4, #129]
 211              	.LVL14:
  30:Logger.cpp    **** }
 212              		.loc 6 30 5 view .LVU36
 213              	.LBE695:
 214              	.LBE708:
  38:Logger.cpp    ****     fillup_msg(test_msg3);
 215              		.loc 6 38 5 is_stmt 1 view .LVU37
 216              	.LBB709:
 217              	.LBI697:
  24:Logger.cpp    **** {
 218              		.loc 6 24 6 view .LVU38
 219              	.LBB703:
 220              	.LBB701:
  26:Logger.cpp    ****     {
 221              		.loc 6 26 26 is_stmt 0 view .LVU39
 222 002a FFF7FEFF 		bl	strlen
ARM GAS  /tmp/ccIu4BI8.s 			page 11


 223              	.LVL15:
  26:Logger.cpp    ****     {
 224              		.loc 6 26 35 is_stmt 1 view .LVU40
 225 002e 8028     		cmp	r0, #128
 226 0030 08D0     		beq	.L10
 227 0032 0138     		subs	r0, r0, #1
 228              	.LVL16:
  26:Logger.cpp    ****     {
 229              		.loc 6 26 35 is_stmt 0 view .LVU41
 230 0034 05F17F01 		add	r1, r5, #127
 231 0038 2B18     		adds	r3, r5, r0
 232              	.LVL17:
 233              	.L11:
  28:Logger.cpp    ****     }
 234              		.loc 6 28 9 view .LVU42
 235 003a 2E22     		movs	r2, #46
 236 003c 03F8012F 		strb	r2, [r3, #1]!
 237              	.LVL18:
  26:Logger.cpp    ****     {
 238              		.loc 6 26 5 is_stmt 1 view .LVU43
  26:Logger.cpp    ****     {
 239              		.loc 6 26 35 view .LVU44
 240 0040 8B42     		cmp	r3, r1
 241 0042 FAD1     		bne	.L11
 242              	.LVL19:
 243              	.L10:
  26:Logger.cpp    ****     {
 244              		.loc 6 26 35 is_stmt 0 view .LVU45
 245              	.LBE701:
 246              	.LBE703:
 247              	.LBE709:
 248              	.LBB710:
 249              	.LBB711:
 250              	.LBB712:
  26:Logger.cpp    ****     {
 251              		.loc 6 26 26 view .LVU46
 252 0044 1E4C     		ldr	r4, .L39+8
 253              	.LBE712:
 254              	.LBE711:
 255              	.LBE710:
 256              	.LBB719:
 257              	.LBB704:
  30:Logger.cpp    **** }
 258              		.loc 6 30 5 view .LVU47
 259 0046 0023     		movs	r3, #0
 260              	.LBE704:
 261              	.LBE719:
 262              	.LBB720:
 263              	.LBB715:
 264              	.LBB713:
  26:Logger.cpp    ****     {
 265              		.loc 6 26 26 view .LVU48
 266 0048 2046     		mov	r0, r4
 267              	.LBE713:
 268              	.LBE715:
 269              	.LBE720:
 270              	.LBB721:
ARM GAS  /tmp/ccIu4BI8.s 			page 12


 271              	.LBB705:
  30:Logger.cpp    **** }
 272              		.loc 6 30 5 view .LVU49
 273 004a 85F88030 		strb	r3, [r5, #128]
 274              	.LVL20:
  30:Logger.cpp    **** }
 275              		.loc 6 30 5 view .LVU50
 276              	.LBE705:
 277              	.LBE721:
  39:Logger.cpp    ****     fillup_msg(test_msg4);
 278              		.loc 6 39 5 is_stmt 1 view .LVU51
 279              	.LBB722:
 280              	.LBI710:
  24:Logger.cpp    **** {
 281              		.loc 6 24 6 view .LVU52
 282              	.LBB716:
 283              	.LBB714:
  26:Logger.cpp    ****     {
 284              		.loc 6 26 26 is_stmt 0 view .LVU53
 285 004e FFF7FEFF 		bl	strlen
 286              	.LVL21:
  26:Logger.cpp    ****     {
 287              		.loc 6 26 35 is_stmt 1 view .LVU54
 288 0052 7F28     		cmp	r0, #127
 289 0054 08D0     		beq	.L12
 290 0056 0138     		subs	r0, r0, #1
 291              	.LVL22:
  26:Logger.cpp    ****     {
 292              		.loc 6 26 35 is_stmt 0 view .LVU55
 293 0058 04F17E01 		add	r1, r4, #126
 294 005c 2318     		adds	r3, r4, r0
 295              	.LVL23:
 296              	.L13:
  28:Logger.cpp    ****     }
 297              		.loc 6 28 9 view .LVU56
 298 005e 2E22     		movs	r2, #46
 299 0060 03F8012F 		strb	r2, [r3, #1]!
 300              	.LVL24:
  26:Logger.cpp    ****     {
 301              		.loc 6 26 5 is_stmt 1 view .LVU57
  26:Logger.cpp    ****     {
 302              		.loc 6 26 35 view .LVU58
 303 0064 8B42     		cmp	r3, r1
 304 0066 FAD1     		bne	.L13
 305              	.LVL25:
 306              	.L12:
  26:Logger.cpp    ****     {
 307              		.loc 6 26 35 is_stmt 0 view .LVU59
 308              	.LBE714:
 309              	.LBE716:
 310              	.LBE722:
 311              	.LBB723:
 312              	.LBB724:
 313              	.LBB725:
  26:Logger.cpp    ****     {
 314              		.loc 6 26 26 view .LVU60
 315 0068 164D     		ldr	r5, .L39+12
ARM GAS  /tmp/ccIu4BI8.s 			page 13


 316              	.LBE725:
 317              	.LBE724:
 318              	.LBE723:
 319              	.LBB732:
 320              	.LBB717:
  30:Logger.cpp    **** }
 321              		.loc 6 30 5 view .LVU61
 322 006a 0023     		movs	r3, #0
 323              	.LBE717:
 324              	.LBE732:
 325              	.LBB733:
 326              	.LBB728:
 327              	.LBB726:
  26:Logger.cpp    ****     {
 328              		.loc 6 26 26 view .LVU62
 329 006c 2846     		mov	r0, r5
 330              	.LBE726:
 331              	.LBE728:
 332              	.LBE733:
 333              	.LBB734:
 334              	.LBB718:
  30:Logger.cpp    **** }
 335              		.loc 6 30 5 view .LVU63
 336 006e 84F87F30 		strb	r3, [r4, #127]
 337              	.LVL26:
  30:Logger.cpp    **** }
 338              		.loc 6 30 5 view .LVU64
 339              	.LBE718:
 340              	.LBE734:
  40:Logger.cpp    ****     fillup_msg(test_msg5);
 341              		.loc 6 40 5 is_stmt 1 view .LVU65
 342              	.LBB735:
 343              	.LBI723:
  24:Logger.cpp    **** {
 344              		.loc 6 24 6 view .LVU66
 345              	.LBB729:
 346              	.LBB727:
  26:Logger.cpp    ****     {
 347              		.loc 6 26 26 is_stmt 0 view .LVU67
 348 0072 FFF7FEFF 		bl	strlen
 349              	.LVL27:
  26:Logger.cpp    ****     {
 350              		.loc 6 26 35 is_stmt 1 view .LVU68
 351 0076 7E28     		cmp	r0, #126
 352 0078 08D0     		beq	.L14
 353 007a 0138     		subs	r0, r0, #1
 354              	.LVL28:
  26:Logger.cpp    ****     {
 355              		.loc 6 26 35 is_stmt 0 view .LVU69
 356 007c 05F17D01 		add	r1, r5, #125
 357 0080 2B18     		adds	r3, r5, r0
 358              	.LVL29:
 359              	.L15:
  28:Logger.cpp    ****     }
 360              		.loc 6 28 9 view .LVU70
 361 0082 2E22     		movs	r2, #46
 362 0084 03F8012F 		strb	r2, [r3, #1]!
ARM GAS  /tmp/ccIu4BI8.s 			page 14


 363              	.LVL30:
  26:Logger.cpp    ****     {
 364              		.loc 6 26 5 is_stmt 1 view .LVU71
  26:Logger.cpp    ****     {
 365              		.loc 6 26 35 view .LVU72
 366 0088 8B42     		cmp	r3, r1
 367 008a FAD1     		bne	.L15
 368              	.LVL31:
 369              	.L14:
  26:Logger.cpp    ****     {
 370              		.loc 6 26 35 is_stmt 0 view .LVU73
 371              	.LBE727:
 372              	.LBE729:
 373              	.LBE735:
 374              	.LBB736:
 375              	.LBB737:
 376              	.LBB738:
  26:Logger.cpp    ****     {
 377              		.loc 6 26 26 view .LVU74
 378 008c 0E4C     		ldr	r4, .L39+16
 379              	.LBE738:
 380              	.LBE737:
 381              	.LBE736:
 382              	.LBB743:
 383              	.LBB730:
  30:Logger.cpp    **** }
 384              		.loc 6 30 5 view .LVU75
 385 008e 0023     		movs	r3, #0
 386              	.LBE730:
 387              	.LBE743:
 388              	.LBB744:
 389              	.LBB741:
 390              	.LBB739:
  26:Logger.cpp    ****     {
 391              		.loc 6 26 26 view .LVU76
 392 0090 2046     		mov	r0, r4
 393              	.LBE739:
 394              	.LBE741:
 395              	.LBE744:
 396              	.LBB745:
 397              	.LBB731:
  30:Logger.cpp    **** }
 398              		.loc 6 30 5 view .LVU77
 399 0092 85F87E30 		strb	r3, [r5, #126]
 400              	.LVL32:
  30:Logger.cpp    **** }
 401              		.loc 6 30 5 view .LVU78
 402              	.LBE731:
 403              	.LBE745:
  41:Logger.cpp    **** }
 404              		.loc 6 41 5 is_stmt 1 view .LVU79
 405              	.LBB746:
 406              	.LBI736:
  24:Logger.cpp    **** {
 407              		.loc 6 24 6 view .LVU80
 408              	.LBB742:
 409              	.LBB740:
ARM GAS  /tmp/ccIu4BI8.s 			page 15


  26:Logger.cpp    ****     {
 410              		.loc 6 26 26 is_stmt 0 view .LVU81
 411 0096 FFF7FEFF 		bl	strlen
 412              	.LVL33:
  26:Logger.cpp    ****     {
 413              		.loc 6 26 35 is_stmt 1 view .LVU82
 414 009a 7D28     		cmp	r0, #125
 415 009c 08D0     		beq	.L16
 416 009e 0138     		subs	r0, r0, #1
 417              	.LVL34:
  26:Logger.cpp    ****     {
 418              		.loc 6 26 35 is_stmt 0 view .LVU83
 419 00a0 04F17C01 		add	r1, r4, #124
 420 00a4 2318     		adds	r3, r4, r0
 421              	.LVL35:
 422              	.L17:
  28:Logger.cpp    ****     }
 423              		.loc 6 28 9 view .LVU84
 424 00a6 2E22     		movs	r2, #46
 425 00a8 03F8012F 		strb	r2, [r3, #1]!
 426              	.LVL36:
  26:Logger.cpp    ****     {
 427              		.loc 6 26 5 is_stmt 1 view .LVU85
  26:Logger.cpp    ****     {
 428              		.loc 6 26 35 view .LVU86
 429 00ac 9942     		cmp	r1, r3
 430 00ae FAD1     		bne	.L17
 431              	.LVL37:
 432              	.L16:
  26:Logger.cpp    ****     {
 433              		.loc 6 26 35 is_stmt 0 view .LVU87
 434              	.LBE740:
  30:Logger.cpp    **** }
 435              		.loc 6 30 5 view .LVU88
 436 00b0 0023     		movs	r3, #0
 437 00b2 84F87D30 		strb	r3, [r4, #125]
 438              	.LVL38:
  30:Logger.cpp    **** }
 439              		.loc 6 30 5 view .LVU89
 440              	.LBE742:
 441              	.LBE746:
  42:Logger.cpp    **** 
 442              		.loc 6 42 1 view .LVU90
 443 00b6 38BD     		pop	{r3, r4, r5, pc}
 444              	.L40:
 445              		.align	2
 446              	.L39:
 447 00b8 00000000 		.word	.LANCHOR0
 448 00bc 00000000 		.word	.LANCHOR1
 449 00c0 00000000 		.word	.LANCHOR2
 450 00c4 00000000 		.word	.LANCHOR3
 451 00c8 00000000 		.word	.LANCHOR4
 452              		.cfi_endproc
 453              	.LFE2048:
 455              		.section	.rodata._Z12VerifyFloatsv.str1.4,"aMS",%progbits,1
 456              		.align	2
 457              	.LC0:
ARM GAS  /tmp/ccIu4BI8.s 			page 16


 458 0000 50415353 		.ascii	"PASS\000"
 458      00
 459 0005 000000   		.align	2
 460              	.LC1:
 461 0008 4641494C 		.ascii	"FAIL\000"
 461      00
 462 000d 000000   		.align	2
 463              	.LC2:
 464 0010 25632564 		.ascii	"%c%d.%03d\000"
 464      2E253033 
 464      6400
 465 001a 0000     		.align	2
 466              	.LC3:
 467 001c 252E3366 		.ascii	"%.3f\000"
 467      00
 468 0021 000000   		.align	2
 469              	.LC4:
 470 0024 6D69736D 		.ascii	"mismatch: ref = %s, dsy = %s, float = %.6f\000"
 470      61746368 
 470      3A207265 
 470      66203D20 
 470      25732C20 
 471 004f 00       		.align	2
 472              	.LC5:
 473 0050 464C545F 		.ascii	"FLT_FMT(3)/FLT_VAR(3) verification: %s\000"
 473      464D5428 
 473      33292F46 
 473      4C545F56 
 473      41522833 
 474              		.section	.text._Z12VerifyFloatsv,"ax",%progbits
 475              		.align	1
 476              		.p2align 2,,3
 477              		.global	_Z12VerifyFloatsv
 478              		.syntax unified
 479              		.thumb
 480              		.thumb_func
 481              		.fpu fpv5-d16
 483              	_Z12VerifyFloatsv:
 484              	.LFB2052:
  63:Logger.cpp    **** 
  64:Logger.cpp    **** /** Run all profiling tests for a function 
  65:Logger.cpp    ****  */
  66:Logger.cpp    **** template <PrintFunc function>
  67:Logger.cpp    **** void ProfilePrint(const char* class_caption, const char* func_caption)
  68:Logger.cpp    **** {
  69:Logger.cpp    ****     const float print_0 = ProfileFunction<function>("");
  70:Logger.cpp    ****     const float print_1 = ProfileFunction<function>("a");
  71:Logger.cpp    ****     const float print_36
  72:Logger.cpp    ****         = ProfileFunction<function>("abcdefghijklmnopqrstuvwxyz0123456789");
  73:Logger.cpp    ****     const float print_d = ProfileFunction<function>("%d", 123);
  74:Logger.cpp    ****     const float print_u = ProfileFunction<function>("%u", 123);
  75:Logger.cpp    ****     const float print_f = ProfileFunction<function>("%.3f", 123.0f);
  76:Logger.cpp    ****     const float print_F1
  77:Logger.cpp    ****         = ProfileFunction<function>(FLT_FMT(1), FLT_VAR(1, 123.0f));
  78:Logger.cpp    ****     const float print_F2
  79:Logger.cpp    ****         = ProfileFunction<function>(FLT_FMT(2), FLT_VAR(2, 123.0f));
  80:Logger.cpp    ****     const float print_F3
ARM GAS  /tmp/ccIu4BI8.s 			page 17


  81:Logger.cpp    ****         = ProfileFunction<function>(FLT_FMT3, FLT_VAR3(123.0f));
  82:Logger.cpp    ****     const float print_F4
  83:Logger.cpp    ****         = ProfileFunction<function>(FLT_FMT(4), FLT_VAR(4, 123.0f));
  84:Logger.cpp    **** 
  85:Logger.cpp    ****     /* linear fit */
  86:Logger.cpp    ****     const float slope     = (print_36 - print_1) / (36 - 1);
  87:Logger.cpp    ****     const float intercept = print_1 - slope;
  88:Logger.cpp    **** 
  89:Logger.cpp    ****     hw.PrintLine("%s - %s (  empty string):" FLT_FMT3 " us/call",
  90:Logger.cpp    ****                  class_caption,
  91:Logger.cpp    ****                  func_caption,
  92:Logger.cpp    ****                  FLT_VAR3(print_0));
  93:Logger.cpp    ****     hw.PrintLine("%s - %s (   text string):" FLT_FMT3 " us/call +" FLT_FMT3
  94:Logger.cpp    ****                  " us/char",
  95:Logger.cpp    ****                  class_caption,
  96:Logger.cpp    ****                  func_caption,
  97:Logger.cpp    ****                  FLT_VAR3(intercept),
  98:Logger.cpp    ****                  FLT_VAR3(slope));
  99:Logger.cpp    ****     hw.PrintLine("%s - %s ( integer value):" FLT_FMT3 " us/call",
 100:Logger.cpp    ****                  class_caption,
 101:Logger.cpp    ****                  func_caption,
 102:Logger.cpp    ****                  FLT_VAR3(print_d));
 103:Logger.cpp    ****     hw.PrintLine("%s - %s (unsigned value):" FLT_FMT3 " us/call",
 104:Logger.cpp    ****                  class_caption,
 105:Logger.cpp    ****                  func_caption,
 106:Logger.cpp    ****                  FLT_VAR3(print_u));
 107:Logger.cpp    ****     hw.PrintLine("%s - %s ( float.3 value):" FLT_FMT3 " us/call",
 108:Logger.cpp    ****                  class_caption,
 109:Logger.cpp    ****                  func_caption,
 110:Logger.cpp    ****                  FLT_VAR3(print_f));
 111:Logger.cpp    ****     hw.PrintLine("%s - %s (FLT_VAR1 value):" FLT_FMT3 " us/call",
 112:Logger.cpp    ****                  class_caption,
 113:Logger.cpp    ****                  func_caption,
 114:Logger.cpp    ****                  FLT_VAR3(print_F1));
 115:Logger.cpp    ****     hw.PrintLine("%s - %s (FLT_VAR2 value):" FLT_FMT3 " us/call",
 116:Logger.cpp    ****                  class_caption,
 117:Logger.cpp    ****                  func_caption,
 118:Logger.cpp    ****                  FLT_VAR3(print_F2));
 119:Logger.cpp    ****     hw.PrintLine("%s - %s (FLT_VAR3 value):" FLT_FMT3 " us/call",
 120:Logger.cpp    ****                  class_caption,
 121:Logger.cpp    ****                  func_caption,
 122:Logger.cpp    ****                  FLT_VAR3(print_F3));
 123:Logger.cpp    ****     hw.PrintLine("%s - %s (FLT_VAR4 value):" FLT_FMT3 " us/call",
 124:Logger.cpp    ****                  class_caption,
 125:Logger.cpp    ****                  func_caption,
 126:Logger.cpp    ****                  FLT_VAR3(print_F4));
 127:Logger.cpp    **** }
 128:Logger.cpp    **** 
 129:Logger.cpp    **** /** Profile the whole destination
 130:Logger.cpp    ****  */
 131:Logger.cpp    **** template <LoggerDestination dest>
 132:Logger.cpp    **** void ProfileDest(const char* class_caption)
 133:Logger.cpp    **** {
 134:Logger.cpp    ****     Logger<dest>::StartLog(false);
 135:Logger.cpp    ****     ProfilePrint<Logger<dest>::Print>(class_caption, "Print     ");
 136:Logger.cpp    ****     ProfilePrint<Logger<dest>::PrintLine>(class_caption, "PrintLine ");
 137:Logger.cpp    **** }
ARM GAS  /tmp/ccIu4BI8.s 			page 18


 138:Logger.cpp    **** /** Verify FLT_FMT/FLT_VAR accuracy
 139:Logger.cpp    ****  */
 140:Logger.cpp    **** void VerifyFloats()
 141:Logger.cpp    **** {
 485              		.loc 6 141 1 is_stmt 1 view -0
 486              		.cfi_startproc
 487              		@ args = 0, pretend = 0, frame = 64
 488              		@ frame_needed = 0, uses_anonymous_args = 0
 142:Logger.cpp    ****     char ref[32];
 489              		.loc 6 142 5 view .LVU92
 143:Logger.cpp    ****     char tst[32];
 490              		.loc 6 143 5 view .LVU93
 144:Logger.cpp    ****     bool result = true;
 491              		.loc 6 144 5 view .LVU94
 492              	.LVL39:
 145:Logger.cpp    ****     for(float f = -100.0; f < 100.0; f += 0.001)
 493              		.loc 6 145 5 view .LVU95
 494              	.LBB747:
 495              		.loc 6 145 29 view .LVU96
 496              	.LBE747:
 141:Logger.cpp    ****     char ref[32];
 497              		.loc 6 141 1 is_stmt 0 view .LVU97
 498 0000 10B5     		push	{r4, lr}
 499              		.cfi_def_cfa_offset 8
 500              		.cfi_offset 4, -8
 501              		.cfi_offset 14, -4
 502              	.LBB760:
 503              	.LBB748:
 146:Logger.cpp    ****     {
 147:Logger.cpp    ****         sprintf(tst, FLT_FMT(3), FLT_VAR(3, f));
 504              		.loc 6 147 16 view .LVU98
 505 0002 2D22     		movs	r2, #45
 506              	.LBE748:
 507              	.LBE760:
 144:Logger.cpp    ****     for(float f = -100.0; f < 100.0; f += 0.001)
 508              		.loc 6 144 10 view .LVU99
 509 0004 0124     		movs	r4, #1
 141:Logger.cpp    ****     char ref[32];
 510              		.loc 6 141 1 view .LVU100
 511 0006 2DED028B 		vpush.64	{d8}
 512              		.cfi_def_cfa_offset 16
 513              		.cfi_offset 80, -16
 514              		.cfi_offset 81, -12
 515              	.LBB761:
 145:Logger.cpp    ****     {
 516              		.loc 6 145 15 view .LVU101
 517 000a 9FED338A 		vldr.32	s16, .L53+16
 518              	.LBE761:
 141:Logger.cpp    ****     char ref[32];
 519              		.loc 6 141 1 view .LVU102
 520 000e 92B0     		sub	sp, sp, #72
 521              		.cfi_def_cfa_offset 88
 522 0010 13E0     		b	.L42
 523              	.LVL40:
 524              	.L44:
 525              	.LBB762:
 526              	.LBB757:
ARM GAS  /tmp/ccIu4BI8.s 			page 19


 527              		.loc 6 147 9 is_stmt 1 discriminator 2 view .LVU103
 528              	.LBE757:
 145:Logger.cpp    ****     {
 529              		.loc 6 145 5 discriminator 2 view .LVU104
 145:Logger.cpp    ****     {
 530              		.loc 6 145 40 is_stmt 0 discriminator 2 view .LVU105
 531 0012 9FED2D6B 		vldr.64	d6, .L53
 145:Logger.cpp    ****     {
 532              		.loc 6 145 29 discriminator 2 view .LVU106
 533 0016 DFED317A 		vldr.32	s15, .L53+20
 145:Logger.cpp    ****     {
 534              		.loc 6 145 40 discriminator 2 view .LVU107
 535 001a 38EE068B 		vadd.f64	d8, d8, d6
 536 001e B7EEC88B 		vcvt.f32.f64	s16, d8
 537              	.LVL41:
 145:Logger.cpp    ****     {
 538              		.loc 6 145 29 is_stmt 1 discriminator 2 view .LVU108
 539 0022 B4EEE78A 		vcmpe.f32	s16, s15
 540 0026 F1EE10FA 		vmrs	APSR_nzcv, FPSCR
 541 002a 3ED5     		bpl	.L52
 542              	.LBB758:
 543              		.loc 6 147 16 is_stmt 0 view .LVU109
 544 002c B5EEC08A 		vcmpe.f32	s16, #0
 545 0030 F1EE10FA 		vmrs	APSR_nzcv, FPSCR
 546 0034 4CBF     		ite	mi
 547 0036 2D22     		movmi	r2, #45
 548 0038 2022     		movpl	r2, #32
 549              	.LVL42:
 550              	.L42:
 551              	.LBB749:
 552              	.LBI749:
 553              		.file 7 "/usr/include/newlib/c++/9.2.1/bits/std_abs.h"
   1:/usr/include/newlib/c++/9.2.1/bits/std_abs.h **** // -*- C++ -*- C library enhancements header.
   2:/usr/include/newlib/c++/9.2.1/bits/std_abs.h **** 
   3:/usr/include/newlib/c++/9.2.1/bits/std_abs.h **** // Copyright (C) 2016-2019 Free Software Foundation, Inc.
   4:/usr/include/newlib/c++/9.2.1/bits/std_abs.h **** //
   5:/usr/include/newlib/c++/9.2.1/bits/std_abs.h **** // This file is part of the GNU ISO C++ Library.  This library is free
   6:/usr/include/newlib/c++/9.2.1/bits/std_abs.h **** // software; you can redistribute it and/or modify it under the
   7:/usr/include/newlib/c++/9.2.1/bits/std_abs.h **** // terms of the GNU General Public License as published by the
   8:/usr/include/newlib/c++/9.2.1/bits/std_abs.h **** // Free Software Foundation; either version 3, or (at your option)
   9:/usr/include/newlib/c++/9.2.1/bits/std_abs.h **** // any later version.
  10:/usr/include/newlib/c++/9.2.1/bits/std_abs.h **** 
  11:/usr/include/newlib/c++/9.2.1/bits/std_abs.h **** // This library is distributed in the hope that it will be useful,
  12:/usr/include/newlib/c++/9.2.1/bits/std_abs.h **** // but WITHOUT ANY WARRANTY; without even the implied warranty of
  13:/usr/include/newlib/c++/9.2.1/bits/std_abs.h **** // MERCHANTABILITY or FITNESS FOR A PARTICULAR PURPOSE.  See the
  14:/usr/include/newlib/c++/9.2.1/bits/std_abs.h **** // GNU General Public License for more details.
  15:/usr/include/newlib/c++/9.2.1/bits/std_abs.h **** 
  16:/usr/include/newlib/c++/9.2.1/bits/std_abs.h **** // Under Section 7 of GPL version 3, you are granted additional
  17:/usr/include/newlib/c++/9.2.1/bits/std_abs.h **** // permissions described in the GCC Runtime Library Exception, version
  18:/usr/include/newlib/c++/9.2.1/bits/std_abs.h **** // 3.1, as published by the Free Software Foundation.
  19:/usr/include/newlib/c++/9.2.1/bits/std_abs.h **** 
  20:/usr/include/newlib/c++/9.2.1/bits/std_abs.h **** // You should have received a copy of the GNU General Public License and
  21:/usr/include/newlib/c++/9.2.1/bits/std_abs.h **** // a copy of the GCC Runtime Library Exception along with this program;
  22:/usr/include/newlib/c++/9.2.1/bits/std_abs.h **** // see the files COPYING3 and COPYING.RUNTIME respectively.  If not, see
  23:/usr/include/newlib/c++/9.2.1/bits/std_abs.h **** // <http://www.gnu.org/licenses/>.
  24:/usr/include/newlib/c++/9.2.1/bits/std_abs.h **** 
  25:/usr/include/newlib/c++/9.2.1/bits/std_abs.h **** /** @file include/bits/std_abs.h
ARM GAS  /tmp/ccIu4BI8.s 			page 20


  26:/usr/include/newlib/c++/9.2.1/bits/std_abs.h ****  *  This is an internal header file, included by other library headers.
  27:/usr/include/newlib/c++/9.2.1/bits/std_abs.h ****  *  Do not attempt to use it directly. @headername{cmath, cstdlib}
  28:/usr/include/newlib/c++/9.2.1/bits/std_abs.h ****  */
  29:/usr/include/newlib/c++/9.2.1/bits/std_abs.h **** 
  30:/usr/include/newlib/c++/9.2.1/bits/std_abs.h **** #ifndef _GLIBCXX_BITS_STD_ABS_H
  31:/usr/include/newlib/c++/9.2.1/bits/std_abs.h **** #define _GLIBCXX_BITS_STD_ABS_H
  32:/usr/include/newlib/c++/9.2.1/bits/std_abs.h **** 
  33:/usr/include/newlib/c++/9.2.1/bits/std_abs.h **** #pragma GCC system_header
  34:/usr/include/newlib/c++/9.2.1/bits/std_abs.h **** 
  35:/usr/include/newlib/c++/9.2.1/bits/std_abs.h **** #include <bits/c++config.h>
  36:/usr/include/newlib/c++/9.2.1/bits/std_abs.h **** 
  37:/usr/include/newlib/c++/9.2.1/bits/std_abs.h **** #define _GLIBCXX_INCLUDE_NEXT_C_HEADERS
  38:/usr/include/newlib/c++/9.2.1/bits/std_abs.h **** #include_next <stdlib.h>
  39:/usr/include/newlib/c++/9.2.1/bits/std_abs.h **** #ifdef __CORRECT_ISO_CPP_MATH_H_PROTO
  40:/usr/include/newlib/c++/9.2.1/bits/std_abs.h **** # include_next <math.h>
  41:/usr/include/newlib/c++/9.2.1/bits/std_abs.h **** #endif
  42:/usr/include/newlib/c++/9.2.1/bits/std_abs.h **** #undef _GLIBCXX_INCLUDE_NEXT_C_HEADERS
  43:/usr/include/newlib/c++/9.2.1/bits/std_abs.h **** 
  44:/usr/include/newlib/c++/9.2.1/bits/std_abs.h **** #undef abs
  45:/usr/include/newlib/c++/9.2.1/bits/std_abs.h **** 
  46:/usr/include/newlib/c++/9.2.1/bits/std_abs.h **** extern "C++"
  47:/usr/include/newlib/c++/9.2.1/bits/std_abs.h **** {
  48:/usr/include/newlib/c++/9.2.1/bits/std_abs.h **** namespace std _GLIBCXX_VISIBILITY(default)
  49:/usr/include/newlib/c++/9.2.1/bits/std_abs.h **** {
  50:/usr/include/newlib/c++/9.2.1/bits/std_abs.h **** _GLIBCXX_BEGIN_NAMESPACE_VERSION
  51:/usr/include/newlib/c++/9.2.1/bits/std_abs.h **** 
  52:/usr/include/newlib/c++/9.2.1/bits/std_abs.h ****   using ::abs;
  53:/usr/include/newlib/c++/9.2.1/bits/std_abs.h **** 
  54:/usr/include/newlib/c++/9.2.1/bits/std_abs.h **** #ifndef __CORRECT_ISO_CPP_STDLIB_H_PROTO
  55:/usr/include/newlib/c++/9.2.1/bits/std_abs.h ****   inline long
  56:/usr/include/newlib/c++/9.2.1/bits/std_abs.h ****   abs(long __i) { return __builtin_labs(__i); }
  57:/usr/include/newlib/c++/9.2.1/bits/std_abs.h **** #endif
  58:/usr/include/newlib/c++/9.2.1/bits/std_abs.h **** 
  59:/usr/include/newlib/c++/9.2.1/bits/std_abs.h **** #ifdef _GLIBCXX_USE_LONG_LONG
  60:/usr/include/newlib/c++/9.2.1/bits/std_abs.h ****   inline long long
  61:/usr/include/newlib/c++/9.2.1/bits/std_abs.h ****   abs(long long __x) { return __builtin_llabs (__x); }
  62:/usr/include/newlib/c++/9.2.1/bits/std_abs.h **** #endif
  63:/usr/include/newlib/c++/9.2.1/bits/std_abs.h **** 
  64:/usr/include/newlib/c++/9.2.1/bits/std_abs.h **** // _GLIBCXX_RESOLVE_LIB_DEFECTS
  65:/usr/include/newlib/c++/9.2.1/bits/std_abs.h **** // 2192. Validity and return type of std::abs(0u) is unclear
  66:/usr/include/newlib/c++/9.2.1/bits/std_abs.h **** // 2294. <cstdlib> should declare abs(double)
  67:/usr/include/newlib/c++/9.2.1/bits/std_abs.h **** // 2735. std::abs(short), std::abs(signed char) and others should return int
  68:/usr/include/newlib/c++/9.2.1/bits/std_abs.h **** 
  69:/usr/include/newlib/c++/9.2.1/bits/std_abs.h **** #ifndef __CORRECT_ISO_CPP_MATH_H_PROTO
  70:/usr/include/newlib/c++/9.2.1/bits/std_abs.h ****   inline _GLIBCXX_CONSTEXPR double
  71:/usr/include/newlib/c++/9.2.1/bits/std_abs.h ****   abs(double __x)
  72:/usr/include/newlib/c++/9.2.1/bits/std_abs.h ****   { return __builtin_fabs(__x); }
  73:/usr/include/newlib/c++/9.2.1/bits/std_abs.h **** 
  74:/usr/include/newlib/c++/9.2.1/bits/std_abs.h ****   inline _GLIBCXX_CONSTEXPR float
  75:/usr/include/newlib/c++/9.2.1/bits/std_abs.h ****   abs(float __x)
 554              		.loc 7 75 3 is_stmt 1 discriminator 4 view .LVU110
 555              	.LBB750:
  76:/usr/include/newlib/c++/9.2.1/bits/std_abs.h ****   { return __builtin_fabsf(__x); }
 556              		.loc 7 76 5 discriminator 4 view .LVU111
 557              		.loc 7 76 31 is_stmt 0 discriminator 4 view .LVU112
 558 003a B0EEC87A 		vabs.f32	s14, s16
 559              		.loc 7 76 31 discriminator 4 view .LVU113
ARM GAS  /tmp/ccIu4BI8.s 			page 21


 560              	.LBE750:
 561              	.LBE749:
 562              		.loc 6 147 16 discriminator 4 view .LVU114
 563 003e 2849     		ldr	r1, .L53+24
 564 0040 0AA8     		add	r0, sp, #40
 565 0042 FDEEC77A 		vcvt.s32.f32	s15, s14
 566              	.LVL43:
 567              		.loc 6 147 16 discriminator 4 view .LVU115
 568              	.LBE758:
 569              	.LBE762:
 570              		.loc 7 76 5 is_stmt 1 discriminator 4 view .LVU116
 571              		.loc 7 76 5 discriminator 4 view .LVU117
 572              	.LBB763:
 573              	.LBB759:
 574              		.loc 6 147 34 is_stmt 0 discriminator 4 view .LVU118
 575 0046 9FED226B 		vldr.64	d6, .L53+8
 576 004a F8EEE75A 		vcvt.f32.s32	s11, s15
 577              		.loc 6 147 16 discriminator 4 view .LVU119
 578 004e 17EE903A 		vmov	r3, s15	@ int
 579              		.loc 6 147 34 discriminator 4 view .LVU120
 580 0052 37EE657A 		vsub.f32	s14, s14, s11
 581 0056 B7EEC77A 		vcvt.f64.f32	d7, s14
 582 005a 27EE067B 		vmul.f64	d7, d7, d6
 583              		.loc 6 147 16 discriminator 4 view .LVU121
 584 005e BDEEC77B 		vcvt.s32.f64	s14, d7
 585 0062 8DED007A 		vstr.32	s14, [sp]	@ int
 586 0066 FFF7FEFF 		bl	sprintf
 587              	.LVL44:
 148:Logger.cpp    **** 
 149:Logger.cpp    ****         const double f_tst = strtod(tst, nullptr);
 588              		.loc 6 149 9 is_stmt 1 discriminator 4 view .LVU122
 589              		.loc 6 149 36 is_stmt 0 discriminator 4 view .LVU123
 590 006a 0021     		movs	r1, #0
 591 006c 0AA8     		add	r0, sp, #40
 592 006e FFF7FEFF 		bl	strtod
 593              	.LVL45:
 150:Logger.cpp    **** 
 151:Logger.cpp    ****         /* verify down to the least significant digit, which is off because of truncation */
 152:Logger.cpp    ****         if(abs((double)f - f_tst) > 1.0e-3)
 594              		.loc 6 152 9 is_stmt 1 discriminator 4 view .LVU124
 595              		.loc 6 152 16 is_stmt 0 discriminator 4 view .LVU125
 596 0072 B7EEC88A 		vcvt.f64.f32	d8, s16
 597              	.LVL46:
 598              	.LBB751:
 599              	.LBI751:
  71:/usr/include/newlib/c++/9.2.1/bits/std_abs.h ****   { return __builtin_fabs(__x); }
 600              		.loc 7 71 3 is_stmt 1 discriminator 4 view .LVU126
 601              	.LBB752:
  72:/usr/include/newlib/c++/9.2.1/bits/std_abs.h **** 
 602              		.loc 7 72 5 discriminator 4 view .LVU127
  72:/usr/include/newlib/c++/9.2.1/bits/std_abs.h **** 
 603              		.loc 7 72 5 is_stmt 0 discriminator 4 view .LVU128
 604              	.LBE752:
 605              	.LBE751:
 606              		.loc 6 152 9 discriminator 4 view .LVU129
 607 0076 9FED147B 		vldr.64	d7, .L53
 608              		.loc 6 152 15 discriminator 4 view .LVU130
ARM GAS  /tmp/ccIu4BI8.s 			page 22


 609 007a 38EE400B 		vsub.f64	d0, d8, d0
 610              	.LVL47:
 611              	.LBB754:
 612              	.LBB753:
  72:/usr/include/newlib/c++/9.2.1/bits/std_abs.h **** 
 613              		.loc 7 72 30 discriminator 4 view .LVU131
 614 007e B0EEC00B 		vabs.f64	d0, d0
 615              	.LBE753:
 616              	.LBE754:
 617              		.loc 6 152 9 discriminator 4 view .LVU132
 618 0082 B4EEC70B 		vcmpe.f64	d0, d7
 619 0086 F1EE10FA 		vmrs	APSR_nzcv, FPSCR
 620 008a C2DD     		ble	.L44
 153:Logger.cpp    ****         {
 154:Logger.cpp    ****             sprintf(ref, "%.3f", f);
 621              		.loc 6 154 13 is_stmt 1 view .LVU133
 622              		.loc 6 154 20 is_stmt 0 view .LVU134
 623 008c 1549     		ldr	r1, .L53+28
 624 008e 02A8     		add	r0, sp, #8
 155:Logger.cpp    ****             hw.PrintLine(
 156:Logger.cpp    ****                 "mismatch: ref = %s, dsy = %s, float = %.6f", ref, tst, f);
 157:Logger.cpp    ****             result = false;
 625              		.loc 6 157 20 view .LVU135
 626 0090 0024     		movs	r4, #0
 154:Logger.cpp    ****             hw.PrintLine(
 627              		.loc 6 154 20 view .LVU136
 628 0092 53EC182B 		vmov	r2, r3, d8
 629 0096 FFF7FEFF 		bl	sprintf
 630              	.LVL48:
 155:Logger.cpp    ****             hw.PrintLine(
 631              		.loc 6 155 13 is_stmt 1 view .LVU137
 632              	.LBB755:
 633              	.LBI755:
  23:../../libdaisy/src/daisy_seed.h **** 
  24:../../libdaisy/src/daisy_seed.h ****     /** 
  25:../../libdaisy/src/daisy_seed.h ****     Configures the settings for all internal peripherals,
  26:../../libdaisy/src/daisy_seed.h ****     but does not initialize them.
  27:../../libdaisy/src/daisy_seed.h ****     This allows for modification of the configuration
  28:../../libdaisy/src/daisy_seed.h ****     handles prior to initialization.
  29:../../libdaisy/src/daisy_seed.h ****     */
  30:../../libdaisy/src/daisy_seed.h **** 
  31:../../libdaisy/src/daisy_seed.h ****     //Defaults listed below:
  32:../../libdaisy/src/daisy_seed.h ****     //TODO: Add defaults
  33:../../libdaisy/src/daisy_seed.h **** 
  34:../../libdaisy/src/daisy_seed.h ****     /** & */
  35:../../libdaisy/src/daisy_seed.h ****     void Configure();
  36:../../libdaisy/src/daisy_seed.h **** 
  37:../../libdaisy/src/daisy_seed.h ****     /** 
  38:../../libdaisy/src/daisy_seed.h ****     Initializes the Daisy Seed and the following peripherals:
  39:../../libdaisy/src/daisy_seed.h ****     SDRAM, QSPI, 24-bit 48kHz Audio via AK4556, Internal USB,
  40:../../libdaisy/src/daisy_seed.h ****     as well as the built-in LED and Testpoint.
  41:../../libdaisy/src/daisy_seed.h **** 
  42:../../libdaisy/src/daisy_seed.h ****     ADCs, DACs, and other special peripherals (such as I2C, SPI, etc.)
  43:../../libdaisy/src/daisy_seed.h ****     can be initialized using their specific initializers within libdaisy
  44:../../libdaisy/src/daisy_seed.h ****     for a specific application.
  45:../../libdaisy/src/daisy_seed.h ****     */
  46:../../libdaisy/src/daisy_seed.h ****     void Init(bool boost = false);
ARM GAS  /tmp/ccIu4BI8.s 			page 23


  47:../../libdaisy/src/daisy_seed.h **** 
  48:../../libdaisy/src/daisy_seed.h ****     /** 
  49:../../libdaisy/src/daisy_seed.h ****     Wait some ms before going on.
  50:../../libdaisy/src/daisy_seed.h ****     \param del Delay time in ms.
  51:../../libdaisy/src/daisy_seed.h ****     */
  52:../../libdaisy/src/daisy_seed.h ****     void DelayMs(size_t del);
  53:../../libdaisy/src/daisy_seed.h **** 
  54:../../libdaisy/src/daisy_seed.h ****     /** 
  55:../../libdaisy/src/daisy_seed.h ****     Returns the gpio_pin corresponding to the index 0-31.
  56:../../libdaisy/src/daisy_seed.h ****     For the given GPIO on the Daisy Seed (labeled 1-32 in docs).
  57:../../libdaisy/src/daisy_seed.h ****     */
  58:../../libdaisy/src/daisy_seed.h ****     static dsy_gpio_pin GetPin(uint8_t pin_idx);
  59:../../libdaisy/src/daisy_seed.h **** 
  60:../../libdaisy/src/daisy_seed.h ****     /** Begins the audio for the seeds builtin audio.
  61:../../libdaisy/src/daisy_seed.h ****     the specified callback will get called whenever
  62:../../libdaisy/src/daisy_seed.h ****     new data is ready to be prepared.
  63:../../libdaisy/src/daisy_seed.h ****     */
  64:../../libdaisy/src/daisy_seed.h ****     void StartAudio(AudioHandle::InterleavingAudioCallback cb);
  65:../../libdaisy/src/daisy_seed.h **** 
  66:../../libdaisy/src/daisy_seed.h ****     /** Begins the audio for the seeds builtin audio.
  67:../../libdaisy/src/daisy_seed.h ****     the specified callback will get called whenever
  68:../../libdaisy/src/daisy_seed.h ****     new data is ready to be prepared.
  69:../../libdaisy/src/daisy_seed.h ****     This will use the newer non-interleaved callback.
  70:../../libdaisy/src/daisy_seed.h ****     */
  71:../../libdaisy/src/daisy_seed.h ****     void StartAudio(AudioHandle::AudioCallback cb);
  72:../../libdaisy/src/daisy_seed.h **** 
  73:../../libdaisy/src/daisy_seed.h ****     /** Changes to a new interleaved callback
  74:../../libdaisy/src/daisy_seed.h ****      */
  75:../../libdaisy/src/daisy_seed.h ****     void ChangeAudioCallback(AudioHandle::InterleavingAudioCallback cb);
  76:../../libdaisy/src/daisy_seed.h **** 
  77:../../libdaisy/src/daisy_seed.h ****     /** Changes to a new multichannel callback
  78:../../libdaisy/src/daisy_seed.h ****      */
  79:../../libdaisy/src/daisy_seed.h ****     void ChangeAudioCallback(AudioHandle::AudioCallback cb);
  80:../../libdaisy/src/daisy_seed.h **** 
  81:../../libdaisy/src/daisy_seed.h ****     /** Stops the audio if it is running. */
  82:../../libdaisy/src/daisy_seed.h ****     void StopAudio();
  83:../../libdaisy/src/daisy_seed.h **** 
  84:../../libdaisy/src/daisy_seed.h ****     /** Updates the Audio Sample Rate, and reinitializes.
  85:../../libdaisy/src/daisy_seed.h ****      ** Audio must be stopped for this to work.
  86:../../libdaisy/src/daisy_seed.h ****      */
  87:../../libdaisy/src/daisy_seed.h ****     void SetAudioSampleRate(SaiHandle::Config::SampleRate samplerate);
  88:../../libdaisy/src/daisy_seed.h **** 
  89:../../libdaisy/src/daisy_seed.h ****     /** Returns the audio sample rate in Hz as a floating point number.
  90:../../libdaisy/src/daisy_seed.h ****      */
  91:../../libdaisy/src/daisy_seed.h ****     float AudioSampleRate();
  92:../../libdaisy/src/daisy_seed.h **** 
  93:../../libdaisy/src/daisy_seed.h ****     /** Sets the number of samples processed per channel by the audio callback.
  94:../../libdaisy/src/daisy_seed.h ****      */
  95:../../libdaisy/src/daisy_seed.h ****     void SetAudioBlockSize(size_t blocksize);
  96:../../libdaisy/src/daisy_seed.h **** 
  97:../../libdaisy/src/daisy_seed.h ****     /** Returns the number of samples per channel in a block of audio. */
  98:../../libdaisy/src/daisy_seed.h ****     size_t AudioBlockSize();
  99:../../libdaisy/src/daisy_seed.h **** 
 100:../../libdaisy/src/daisy_seed.h ****     /** Returns the rate in Hz that the Audio callback is called */
 101:../../libdaisy/src/daisy_seed.h ****     float AudioCallbackRate() const;
 102:../../libdaisy/src/daisy_seed.h **** 
 103:../../libdaisy/src/daisy_seed.h ****     /** Sets the state of the built in LED
ARM GAS  /tmp/ccIu4BI8.s 			page 24


 104:../../libdaisy/src/daisy_seed.h ****      */
 105:../../libdaisy/src/daisy_seed.h ****     void SetLed(bool state);
 106:../../libdaisy/src/daisy_seed.h **** 
 107:../../libdaisy/src/daisy_seed.h ****     /** Sets the state of the test point near pin 10
 108:../../libdaisy/src/daisy_seed.h ****      */
 109:../../libdaisy/src/daisy_seed.h ****     void SetTestPoint(bool state);
 110:../../libdaisy/src/daisy_seed.h **** 
 111:../../libdaisy/src/daisy_seed.h ****     /** Print formatted debug log message
 112:../../libdaisy/src/daisy_seed.h ****      */
 113:../../libdaisy/src/daisy_seed.h ****     template <typename... VA>
 114:../../libdaisy/src/daisy_seed.h ****     static void Print(const char* format, VA... va)
 115:../../libdaisy/src/daisy_seed.h ****     {
 116:../../libdaisy/src/daisy_seed.h ****         Log::Print(format, va...);
 117:../../libdaisy/src/daisy_seed.h ****     }
 118:../../libdaisy/src/daisy_seed.h **** 
 119:../../libdaisy/src/daisy_seed.h ****     /** Print formatted debug log message with automatic line termination
 120:../../libdaisy/src/daisy_seed.h ****     */
 121:../../libdaisy/src/daisy_seed.h ****     template <typename... VA>
 122:../../libdaisy/src/daisy_seed.h ****     static void PrintLine(const char* format, VA... va)
 634              		.loc 1 122 17 view .LVU138
 635              	.LBB756:
 123:../../libdaisy/src/daisy_seed.h ****     {
 124:../../libdaisy/src/daisy_seed.h ****         Log::PrintLine(format, va...);
 636              		.loc 1 124 23 is_stmt 0 view .LVU139
 637 009a 02A9     		add	r1, sp, #8
 638              	.LVL49:
 639              		.loc 1 124 23 view .LVU140
 640 009c 0AAA     		add	r2, sp, #40
 641              	.LVL50:
 642              		.loc 1 124 23 view .LVU141
 643 009e 1248     		ldr	r0, .L53+32
 644 00a0 8DED008B 		vstr.64	d8, [sp]
 645 00a4 FFF7FEFF 		bl	_ZN5daisy6LoggerILNS_17LoggerDestinationE1EE9PrintLineEPKcz
 646              	.LVL51:
 647              		.loc 1 124 23 view .LVU142
 648              	.LBE756:
 649              	.LBE755:
 650              		.loc 6 157 13 is_stmt 1 view .LVU143
 651              		.loc 6 157 13 is_stmt 0 view .LVU144
 652 00a8 B3E7     		b	.L44
 653              	.LVL52:
 654              	.L52:
 655              		.loc 6 157 13 view .LVU145
 656              	.LBE759:
 657              	.LBE763:
 158:Logger.cpp    ****         }
 159:Logger.cpp    ****     }
 160:Logger.cpp    ****     hw.PrintLine("FLT_FMT(3)/FLT_VAR(3) verification: %s",
 658              		.loc 6 160 5 is_stmt 1 view .LVU146
 659              		.loc 6 160 17 is_stmt 0 view .LVU147
 660 00aa 104B     		ldr	r3, .L53+36
 661 00ac 1049     		ldr	r1, .L53+40
 662              	.LVL53:
 663              	.LBB764:
 664              	.LBI764:
 122:../../libdaisy/src/daisy_seed.h ****     {
 665              		.loc 1 122 17 is_stmt 1 view .LVU148
ARM GAS  /tmp/ccIu4BI8.s 			page 25


 666              	.LBB765:
 667              		.loc 1 124 23 is_stmt 0 view .LVU149
 668 00ae 1148     		ldr	r0, .L53+44
 669 00b0 002C     		cmp	r4, #0
 670 00b2 08BF     		it	eq
 671 00b4 1946     		moveq	r1, r3
 672              	.LVL54:
 673              		.loc 1 124 23 view .LVU150
 674 00b6 FFF7FEFF 		bl	_ZN5daisy6LoggerILNS_17LoggerDestinationE1EE9PrintLineEPKcz
 675              	.LVL55:
 676              		.loc 1 124 23 view .LVU151
 677              	.LBE765:
 678              	.LBE764:
 161:Logger.cpp    ****                  result ? "PASS" : "FAIL");
 162:Logger.cpp    **** }
 679              		.loc 6 162 1 view .LVU152
 680 00ba 12B0     		add	sp, sp, #72
 681              		.cfi_def_cfa_offset 16
 682              		@ sp needed
 683 00bc BDEC028B 		vldm	sp!, {d8}
 684              		.cfi_restore 80
 685              		.cfi_restore 81
 686              		.cfi_def_cfa_offset 8
 687              	.LVL56:
 688              		.loc 6 162 1 view .LVU153
 689 00c0 10BD     		pop	{r4, pc}
 690              	.L54:
 691 00c2 00BFAFF3 		.align	3
 691      0080
 692              	.L53:
 693 00c8 FCA9F1D2 		.word	3539053052
 694 00cc 4D62503F 		.word	1062232653
 695 00d0 00000000 		.word	0
 696 00d4 00408F40 		.word	1083129856
 697 00d8 0000C8C2 		.word	3267887104
 698 00dc 0000C842 		.word	1120403456
 699 00e0 10000000 		.word	.LC2
 700 00e4 1C000000 		.word	.LC3
 701 00e8 24000000 		.word	.LC4
 702 00ec 08000000 		.word	.LC1
 703 00f0 00000000 		.word	.LC0
 704 00f4 50000000 		.word	.LC5
 705              		.cfi_endproc
 706              	.LFE2052:
 708              		.section	.rodata._Z12ProfilePrintIXadL_ZN5daisy6LoggerILNS0_17LoggerDestinationE0EE5PrintEPKczEEEv
 709              		.align	2
 710              	.LC6:
 711 0000 2573202D 		.ascii	"%s - %s (  empty string):%c%d.%03d us/call\000"
 711      20257320 
 711      28202065 
 711      6D707479 
 711      20737472 
 712 002b 00       		.align	2
 713              	.LC7:
 714 002c 2573202D 		.ascii	"%s - %s (   text string):%c%d.%03d us/call +%c%d.%0"
 714      20257320 
 714      28202020 
ARM GAS  /tmp/ccIu4BI8.s 			page 26


 714      74657874 
 714      20737472 
 715 005f 33642075 		.ascii	"3d us/char\000"
 715      732F6368 
 715      617200
 716 006a 0000     		.align	2
 717              	.LC8:
 718 006c 2573202D 		.ascii	"%s - %s ( integer value):%c%d.%03d us/call\000"
 718      20257320 
 718      2820696E 
 718      74656765 
 718      72207661 
 719 0097 00       		.align	2
 720              	.LC9:
 721 0098 2573202D 		.ascii	"%s - %s (unsigned value):%c%d.%03d us/call\000"
 721      20257320 
 721      28756E73 
 721      69676E65 
 721      64207661 
 722 00c3 00       		.align	2
 723              	.LC10:
 724 00c4 2573202D 		.ascii	"%s - %s ( float.3 value):%c%d.%03d us/call\000"
 724      20257320 
 724      2820666C 
 724      6F61742E 
 724      33207661 
 725 00ef 00       		.align	2
 726              	.LC11:
 727 00f0 2573202D 		.ascii	"%s - %s (FLT_VAR1 value):%c%d.%03d us/call\000"
 727      20257320 
 727      28464C54 
 727      5F564152 
 727      31207661 
 728 011b 00       		.align	2
 729              	.LC12:
 730 011c 2573202D 		.ascii	"%s - %s (FLT_VAR2 value):%c%d.%03d us/call\000"
 730      20257320 
 730      28464C54 
 730      5F564152 
 730      32207661 
 731 0147 00       		.align	2
 732              	.LC13:
 733 0148 2573202D 		.ascii	"%s - %s (FLT_VAR3 value):%c%d.%03d us/call\000"
 733      20257320 
 733      28464C54 
 733      5F564152 
 733      33207661 
 734 0173 00       		.align	2
 735              	.LC14:
 736 0174 2573202D 		.ascii	"%s - %s (FLT_VAR4 value):%c%d.%03d us/call\000"
 736      20257320 
 736      28464C54 
 736      5F564152 
 736      34207661 
 737              		.section	.text._Z12ProfilePrintIXadL_ZN5daisy6LoggerILNS0_17LoggerDestinationE0EE5PrintEPKczEEEvS5
 738              		.align	1
 739              		.p2align 2,,3
ARM GAS  /tmp/ccIu4BI8.s 			page 27


 740              		.weak	_Z12ProfilePrintIXadL_ZN5daisy6LoggerILNS0_17LoggerDestinationE0EE5PrintEPKczEEEvS5_S5_
 741              		.syntax unified
 742              		.thumb
 743              		.thumb_func
 744              		.fpu fpv5-d16
 746              	_Z12ProfilePrintIXadL_ZN5daisy6LoggerILNS0_17LoggerDestinationE0EE5PrintEPKczEEEvS5_S5_:
 747              	.LVL57:
 748              	.LFB2086:
  67:Logger.cpp    **** {
 749              		.loc 6 67 6 is_stmt 1 view -0
 750              		.cfi_startproc
 751              		@ args = 0, pretend = 0, frame = 0
 752              		@ frame_needed = 0, uses_anonymous_args = 0
  67:Logger.cpp    **** {
 753              		.loc 6 67 6 is_stmt 0 view .LVU155
 754 0000 70B5     		push	{r4, r5, r6, lr}
 755              		.cfi_def_cfa_offset 16
 756              		.cfi_offset 4, -16
 757              		.cfi_offset 5, -12
 758              		.cfi_offset 6, -8
 759              		.cfi_offset 14, -4
 760 0002 2DED0C8B 		vpush.64	{d8, d9, d10, d11, d12, d13}
 761              		.cfi_def_cfa_offset 64
 762              		.cfi_offset 80, -64
 763              		.cfi_offset 81, -60
 764              		.cfi_offset 82, -56
 765              		.cfi_offset 83, -52
 766              		.cfi_offset 84, -48
 767              		.cfi_offset 85, -44
 768              		.cfi_offset 86, -40
 769              		.cfi_offset 87, -36
 770              		.cfi_offset 88, -32
 771              		.cfi_offset 89, -28
 772              		.cfi_offset 90, -24
 773              		.cfi_offset 91, -20
 774 0006 86B0     		sub	sp, sp, #24
 775              		.cfi_def_cfa_offset 88
  67:Logger.cpp    **** {
 776              		.loc 6 67 6 view .LVU156
 777 0008 0446     		mov	r4, r0
 778 000a 0D46     		mov	r5, r1
  69:Logger.cpp    ****     const float print_1 = ProfileFunction<function>("a");
 779              		.loc 6 69 52 view .LVU157
 780 000c FFF7FEFF 		bl	_Z15ProfileFunctionIXadL_ZN5daisy6LoggerILNS0_17LoggerDestinationE0EE5PrintEPKczEEJEEfS5_DpT0_.
 781              	.LVL58:
  69:Logger.cpp    ****     const float print_1 = ProfileFunction<function>("a");
 782              		.loc 6 69 52 view .LVU158
 783 0010 F0EE408A 		vmov.f32	s17, s0
 784              	.LVL59:
  70:Logger.cpp    ****     const float print_36
 785              		.loc 6 70 52 view .LVU159
 786 0014 FFF7FEFF 		bl	_Z15ProfileFunctionIXadL_ZN5daisy6LoggerILNS0_17LoggerDestinationE0EE5PrintEPKczEEJEEfS5_DpT0_.
 787              	.LVL60:
  70:Logger.cpp    ****     const float print_36
 788              		.loc 6 70 52 view .LVU160
 789 0018 B0EE40DA 		vmov.f32	s26, s0
 790              	.LVL61:
ARM GAS  /tmp/ccIu4BI8.s 			page 28


  72:Logger.cpp    ****     const float print_d = ProfileFunction<function>("%d", 123);
 791              		.loc 6 72 36 view .LVU161
 792 001c FFF7FEFF 		bl	_Z15ProfileFunctionIXadL_ZN5daisy6LoggerILNS0_17LoggerDestinationE0EE5PrintEPKczEEJEEfS5_DpT0_.
 793              	.LVL62:
  72:Logger.cpp    ****     const float print_d = ProfileFunction<function>("%d", 123);
 794              		.loc 6 72 36 view .LVU162
 795 0020 B0EE408A 		vmov.f32	s16, s0
 796              	.LVL63:
  73:Logger.cpp    ****     const float print_u = ProfileFunction<function>("%u", 123);
 797              		.loc 6 73 52 view .LVU163
 798 0024 FFF7FEFF 		bl	_Z15ProfileFunctionIXadL_ZN5daisy6LoggerILNS0_17LoggerDestinationE0EE5PrintEPKczEEJiEEfS5_DpT0_
 799              	.LVL64:
  73:Logger.cpp    ****     const float print_u = ProfileFunction<function>("%u", 123);
 800              		.loc 6 73 52 view .LVU164
 801 0028 F0EE40CA 		vmov.f32	s25, s0
 802              	.LVL65:
  74:Logger.cpp    ****     const float print_f = ProfileFunction<function>("%.3f", 123.0f);
 803              		.loc 6 74 52 view .LVU165
 804 002c FFF7FEFF 		bl	_Z15ProfileFunctionIXadL_ZN5daisy6LoggerILNS0_17LoggerDestinationE0EE5PrintEPKczEEJiEEfS5_DpT0_
 805              	.LVL66:
  74:Logger.cpp    ****     const float print_f = ProfileFunction<function>("%.3f", 123.0f);
 806              		.loc 6 74 52 view .LVU166
 807 0030 B0EE40CA 		vmov.f32	s24, s0
 808              	.LVL67:
  75:Logger.cpp    ****     const float print_F1
 809              		.loc 6 75 52 view .LVU167
 810 0034 FFF7FEFF 		bl	_Z15ProfileFunctionIXadL_ZN5daisy6LoggerILNS0_17LoggerDestinationE0EE5PrintEPKczEEJfEEfS5_DpT0_
 811              	.LVL68:
  75:Logger.cpp    ****     const float print_F1
 812              		.loc 6 75 52 view .LVU168
 813 0038 F0EE40BA 		vmov.f32	s23, s0
 814              	.LVL69:
  77:Logger.cpp    ****     const float print_F2
 815              		.loc 6 77 36 view .LVU169
 816 003c FFF7FEFF 		bl	_Z15ProfileFunctionIXadL_ZN5daisy6LoggerILNS0_17LoggerDestinationE0EE5PrintEPKczEEJciiEEfS5_DpT
 817              	.LVL70:
  77:Logger.cpp    ****     const float print_F2
 818              		.loc 6 77 36 view .LVU170
 819 0040 B0EE40BA 		vmov.f32	s22, s0
 820              	.LVL71:
  79:Logger.cpp    ****     const float print_F3
 821              		.loc 6 79 36 view .LVU171
 822 0044 FFF7FEFF 		bl	_Z15ProfileFunctionIXadL_ZN5daisy6LoggerILNS0_17LoggerDestinationE0EE5PrintEPKczEEJciiEEfS5_DpT
 823              	.LVL72:
  79:Logger.cpp    ****     const float print_F3
 824              		.loc 6 79 36 view .LVU172
 825 0048 F0EE40AA 		vmov.f32	s21, s0
 826              	.LVL73:
  81:Logger.cpp    ****     const float print_F4
 827              		.loc 6 81 36 view .LVU173
 828 004c FFF7FEFF 		bl	_Z15ProfileFunctionIXadL_ZN5daisy6LoggerILNS0_17LoggerDestinationE0EE5PrintEPKczEEJciiEEfS5_DpT
 829              	.LVL74:
  81:Logger.cpp    ****     const float print_F4
 830              		.loc 6 81 36 view .LVU174
 831 0050 B0EE40AA 		vmov.f32	s20, s0
 832              	.LVL75:
  83:Logger.cpp    **** 
ARM GAS  /tmp/ccIu4BI8.s 			page 29


 833              		.loc 6 83 36 view .LVU175
 834 0054 FFF7FEFF 		bl	_Z15ProfileFunctionIXadL_ZN5daisy6LoggerILNS0_17LoggerDestinationE0EE5PrintEPKczEEJciiEEfS5_DpT
 835              	.LVL76:
 836              	.LBB766:
 837              	.LBB767:
 838              		.loc 7 76 31 view .LVU176
 839 0058 B0EEE87A 		vabs.f32	s14, s17
 840              	.LBE767:
 841              	.LBE766:
  86:Logger.cpp    ****     const float intercept = print_1 - slope;
 842              		.loc 6 86 17 view .LVU177
 843 005c DFED9E6A 		vldr.32	s13, .L77+8
  86:Logger.cpp    ****     const float intercept = print_1 - slope;
 844              		.loc 6 86 39 view .LVU178
 845 0060 38EE4D8A 		vsub.f32	s16, s16, s26
 846              	.LVL77:
  89:Logger.cpp    ****                  class_caption,
 847              		.loc 6 89 17 view .LVU179
 848 0064 9FED9D9A 		vldr.32	s18, .L77+12
 849              	.LBB769:
 850              	.LBB770:
 851              		.loc 1 124 23 view .LVU180
 852 0068 2A46     		mov	r2, r5
 853 006a 2146     		mov	r1, r4
 854              	.LBE770:
 855              	.LBE769:
  89:Logger.cpp    ****                  class_caption,
 856              		.loc 6 89 17 view .LVU181
 857 006c FDEEC77A 		vcvt.s32.f32	s15, s14
 858              	.LBB775:
 859              	.LBB771:
 860              		.loc 1 124 23 view .LVU182
 861 0070 9B48     		ldr	r0, .L77+16
 862              	.LBE771:
 863              	.LBE775:
  86:Logger.cpp    ****     const float intercept = print_1 - slope;
 864              		.loc 6 86 17 view .LVU183
 865 0072 C8EE26DA 		vdiv.f32	s27, s16, s13
 866              	.LBB776:
 867              	.LBB772:
 868              		.loc 1 124 23 view .LVU184
 869 0076 CDED007A 		vstr.32	s15, [sp]	@ int
 870              	.LBE772:
 871              	.LBE776:
  92:Logger.cpp    ****     hw.PrintLine("%s - %s (   text string):" FLT_FMT3 " us/call +" FLT_FMT3
 872              		.loc 6 92 18 view .LVU185
 873 007a F8EEE77A 		vcvt.f32.s32	s15, s15
  89:Logger.cpp    ****                  class_caption,
 874              		.loc 6 89 17 view .LVU186
 875 007e F4EEC98A 		vcmpe.f32	s17, s18
  83:Logger.cpp    **** 
 876              		.loc 6 83 36 view .LVU187
 877 0082 F0EE409A 		vmov.f32	s19, s0
 878              	.LVL78:
  92:Logger.cpp    ****     hw.PrintLine("%s - %s (   text string):" FLT_FMT3 " us/call +" FLT_FMT3
 879              		.loc 6 92 18 view .LVU188
 880 0086 37EE677A 		vsub.f32	s14, s14, s15
ARM GAS  /tmp/ccIu4BI8.s 			page 30


  89:Logger.cpp    ****                  class_caption,
 881              		.loc 6 89 17 view .LVU189
 882 008a F1EE10FA 		vmrs	APSR_nzcv, FPSCR
  92:Logger.cpp    ****     hw.PrintLine("%s - %s (   text string):" FLT_FMT3 " us/call +" FLT_FMT3
 883              		.loc 6 92 18 view .LVU190
 884 008e 9FED908B 		vldr.64	d8, .L77
 885              	.LVL79:
  92:Logger.cpp    ****     hw.PrintLine("%s - %s (   text string):" FLT_FMT3 " us/call +" FLT_FMT3
 886              		.loc 6 92 18 view .LVU191
 887 0092 B7EEC77A 		vcvt.f64.f32	d7, s14
 888              	.LBB777:
 889              	.LBB773:
 890              		.loc 1 124 23 view .LVU192
 891 0096 4CBF     		ite	mi
 892 0098 2D23     		movmi	r3, #45
 893 009a 2023     		movpl	r3, #32
 894              	.LBE773:
 895              	.LBE777:
  92:Logger.cpp    ****     hw.PrintLine("%s - %s (   text string):" FLT_FMT3 " us/call +" FLT_FMT3
 896              		.loc 6 92 18 view .LVU193
 897 009c 27EE087B 		vmul.f64	d7, d7, d8
  87:Logger.cpp    **** 
 898              		.loc 6 87 17 view .LVU194
 899 00a0 3DEE6DDA 		vsub.f32	s26, s26, s27
 900              	.LVL80:
 901              	.LBB778:
 902              	.LBI766:
  75:/usr/include/newlib/c++/9.2.1/bits/std_abs.h ****   { return __builtin_fabsf(__x); }
 903              		.loc 7 75 3 is_stmt 1 view .LVU195
 904              	.LBB768:
 905              		.loc 7 76 5 view .LVU196
 906              		.loc 7 76 5 is_stmt 0 view .LVU197
 907              	.LBE768:
 908              	.LBE778:
 909              		.loc 7 76 5 is_stmt 1 view .LVU198
 910              		.loc 7 76 5 view .LVU199
 911              	.LBB779:
 912              	.LBI769:
 122:../../libdaisy/src/daisy_seed.h ****     {
 913              		.loc 1 122 17 view .LVU200
 914              	.LBE779:
  89:Logger.cpp    ****                  class_caption,
 915              		.loc 6 89 17 is_stmt 0 view .LVU201
 916 00a4 BDEEC77B 		vcvt.s32.f64	s14, d7
 917              	.LBB780:
 918              	.LBB774:
 919              		.loc 1 124 23 view .LVU202
 920 00a8 8DED017A 		vstr.32	s14, [sp, #4]	@ int
 921 00ac FFF7FEFF 		bl	_ZN5daisy6LoggerILNS_17LoggerDestinationE1EE9PrintLineEPKcz
 922              	.LVL81:
 923              		.loc 1 124 23 view .LVU203
 924              	.LBE774:
 925              	.LBE780:
 926              	.LBB781:
 927              	.LBB782:
 928              		.loc 7 76 31 view .LVU204
 929 00b0 B0EECD6A 		vabs.f32	s12, s26
ARM GAS  /tmp/ccIu4BI8.s 			page 31


 930              	.LBE782:
 931              	.LBE781:
 932              	.LBB784:
 933              	.LBB785:
 934 00b4 B0EEED7A 		vabs.f32	s14, s27
 935              	.LBE785:
 936              	.LBE784:
 937              	.LBB787:
 938              	.LBB788:
 939              		.loc 1 124 23 view .LVU205
 940 00b8 2A46     		mov	r2, r5
 941              	.LBE788:
 942              	.LBE787:
  93:Logger.cpp    ****                  " us/char",
 943              		.loc 6 93 17 view .LVU206
 944 00ba B4EEC9DA 		vcmpe.f32	s26, s18
 945              	.LBB795:
 946              	.LBB789:
 947              		.loc 1 124 23 view .LVU207
 948 00be 2146     		mov	r1, r4
 949              	.LBE789:
 950              	.LBE795:
  93:Logger.cpp    ****                  " us/char",
 951              		.loc 6 93 17 view .LVU208
 952 00c0 FDEEC66A 		vcvt.s32.f32	s13, s12
 953              	.LBB796:
 954              	.LBB790:
 955              		.loc 1 124 23 view .LVU209
 956 00c4 8748     		ldr	r0, .L77+20
 957              	.LBE790:
 958              	.LBE796:
  93:Logger.cpp    ****                  " us/char",
 959              		.loc 6 93 17 view .LVU210
 960 00c6 FDEEC77A 		vcvt.s32.f32	s15, s14
 961 00ca F1EE10FA 		vmrs	APSR_nzcv, FPSCR
  97:Logger.cpp    ****                  FLT_VAR3(slope));
 962              		.loc 6 97 18 view .LVU211
 963 00ce F8EEE65A 		vcvt.f32.s32	s11, s13
 964              	.LBB797:
 965              	.LBB791:
 966              		.loc 1 124 23 view .LVU212
 967 00d2 CDED006A 		vstr.32	s13, [sp]	@ int
 968              	.LBE791:
 969              	.LBE797:
  98:Logger.cpp    ****     hw.PrintLine("%s - %s ( integer value):" FLT_FMT3 " us/call",
 970              		.loc 6 98 18 view .LVU213
 971 00d6 F8EEE76A 		vcvt.f32.s32	s13, s15
 972              	.LBB798:
 973              	.LBB792:
 974              		.loc 1 124 23 view .LVU214
 975 00da CDED037A 		vstr.32	s15, [sp, #12]	@ int
 976              	.LBE792:
 977              	.LBE798:
  93:Logger.cpp    ****                  " us/char",
 978              		.loc 6 93 17 view .LVU215
 979 00de F4EEC9DA 		vcmpe.f32	s27, s18
 980 00e2 48BF     		it	mi
ARM GAS  /tmp/ccIu4BI8.s 			page 32


 981 00e4 2D23     		movmi	r3, #45
  97:Logger.cpp    ****                  FLT_VAR3(slope));
 982              		.loc 6 97 18 view .LVU216
 983 00e6 36EE656A 		vsub.f32	s12, s12, s11
  93:Logger.cpp    ****                  " us/char",
 984              		.loc 6 93 17 view .LVU217
 985 00ea 58BF     		it	pl
 986 00ec 2023     		movpl	r3, #32
 987              	.LVL82:
 988              	.LBB799:
 989              	.LBI781:
  75:/usr/include/newlib/c++/9.2.1/bits/std_abs.h ****   { return __builtin_fabsf(__x); }
 990              		.loc 7 75 3 is_stmt 1 view .LVU218
 991              	.LBB783:
 992              		.loc 7 76 5 view .LVU219
 993              		.loc 7 76 5 is_stmt 0 view .LVU220
 994              	.LBE783:
 995              	.LBE799:
 996              		.loc 7 76 5 is_stmt 1 view .LVU221
 997              		.loc 7 76 5 view .LVU222
  98:Logger.cpp    ****     hw.PrintLine("%s - %s ( integer value):" FLT_FMT3 " us/call",
 998              		.loc 6 98 18 is_stmt 0 view .LVU223
 999 00ee 37EE667A 		vsub.f32	s14, s14, s13
  93:Logger.cpp    ****                  " us/char",
 1000              		.loc 6 93 17 view .LVU224
 1001 00f2 F1EE10FA 		vmrs	APSR_nzcv, FPSCR
  97:Logger.cpp    ****                  FLT_VAR3(slope));
 1002              		.loc 6 97 18 view .LVU225
 1003 00f6 B7EEC66A 		vcvt.f64.f32	d6, s12
  98:Logger.cpp    ****     hw.PrintLine("%s - %s ( integer value):" FLT_FMT3 " us/call",
 1004              		.loc 6 98 18 view .LVU226
 1005 00fa B7EEC77A 		vcvt.f64.f32	d7, s14
  93:Logger.cpp    ****                  " us/char",
 1006              		.loc 6 93 17 view .LVU227
 1007 00fe 4CBF     		ite	mi
 1008 0100 2D26     		movmi	r6, #45
 1009 0102 2026     		movpl	r6, #32
 1010              	.LVL83:
 1011              	.LBB800:
 1012              	.LBI784:
  75:/usr/include/newlib/c++/9.2.1/bits/std_abs.h ****   { return __builtin_fabsf(__x); }
 1013              		.loc 7 75 3 is_stmt 1 view .LVU228
 1014              	.LBB786:
 1015              		.loc 7 76 5 view .LVU229
 1016              		.loc 7 76 5 is_stmt 0 view .LVU230
 1017              	.LBE786:
 1018              	.LBE800:
 1019              		.loc 7 76 5 is_stmt 1 view .LVU231
 1020              		.loc 7 76 5 view .LVU232
  97:Logger.cpp    ****                  FLT_VAR3(slope));
 1021              		.loc 6 97 18 is_stmt 0 view .LVU233
 1022 0104 26EE086B 		vmul.f64	d6, d6, d8
 1023              	.LBB801:
 1024              	.LBB793:
 1025              		.loc 1 124 23 view .LVU234
 1026 0108 0296     		str	r6, [sp, #8]
 1027              	.LBE793:
ARM GAS  /tmp/ccIu4BI8.s 			page 33


 1028              	.LBE801:
  98:Logger.cpp    ****     hw.PrintLine("%s - %s ( integer value):" FLT_FMT3 " us/call",
 1029              		.loc 6 98 18 view .LVU235
 1030 010a 27EE087B 		vmul.f64	d7, d7, d8
  93:Logger.cpp    ****                  " us/char",
 1031              		.loc 6 93 17 view .LVU236
 1032 010e BDEEC66B 		vcvt.s32.f64	s12, d6
 1033              	.LVL84:
 1034              	.LBB802:
 1035              	.LBI787:
 122:../../libdaisy/src/daisy_seed.h ****     {
 1036              		.loc 1 122 17 is_stmt 1 view .LVU237
 1037              	.LBE802:
  93:Logger.cpp    ****                  " us/char",
 1038              		.loc 6 93 17 is_stmt 0 view .LVU238
 1039 0112 BDEEC77B 		vcvt.s32.f64	s14, d7
 1040              	.LBB803:
 1041              	.LBB794:
 1042              		.loc 1 124 23 view .LVU239
 1043 0116 8DED016A 		vstr.32	s12, [sp, #4]	@ int
 1044 011a 8DED047A 		vstr.32	s14, [sp, #16]	@ int
 1045 011e FFF7FEFF 		bl	_ZN5daisy6LoggerILNS_17LoggerDestinationE1EE9PrintLineEPKcz
 1046              	.LVL85:
 1047              		.loc 1 124 23 view .LVU240
 1048              	.LBE794:
 1049              	.LBE803:
 1050              	.LBB804:
 1051              	.LBI804:
  75:/usr/include/newlib/c++/9.2.1/bits/std_abs.h ****   { return __builtin_fabsf(__x); }
 1052              		.loc 7 75 3 is_stmt 1 view .LVU241
 1053              	.LBB805:
 1054              		.loc 7 76 5 view .LVU242
 1055              		.loc 7 76 31 is_stmt 0 view .LVU243
 1056 0122 B0EEEC7A 		vabs.f32	s14, s25
 1057              	.LVL86:
 1058              		.loc 7 76 31 view .LVU244
 1059              	.LBE805:
 1060              	.LBE804:
  99:Logger.cpp    ****                  class_caption,
 1061              		.loc 6 99 17 view .LVU245
 1062 0126 F4EEC9CA 		vcmpe.f32	s25, s18
 1063              	.LBB806:
 1064              	.LBB807:
 1065              		.loc 1 124 23 view .LVU246
 1066 012a 2A46     		mov	r2, r5
 1067 012c 2146     		mov	r1, r4
 1068 012e 6E48     		ldr	r0, .L77+24
 1069              	.LBE807:
 1070              	.LBE806:
  99:Logger.cpp    ****                  class_caption,
 1071              		.loc 6 99 17 view .LVU247
 1072 0130 FDEEC77A 		vcvt.s32.f32	s15, s14
 1073              	.LVL87:
 1074              		.loc 7 76 5 is_stmt 1 view .LVU248
 1075              		.loc 7 76 5 view .LVU249
 1076              	.LBB810:
 1077              	.LBI806:
ARM GAS  /tmp/ccIu4BI8.s 			page 34


 122:../../libdaisy/src/daisy_seed.h ****     {
 1078              		.loc 1 122 17 view .LVU250
 1079              	.LBE810:
  99:Logger.cpp    ****                  class_caption,
 1080              		.loc 6 99 17 is_stmt 0 view .LVU251
 1081 0134 F1EE10FA 		vmrs	APSR_nzcv, FPSCR
 102:Logger.cpp    ****     hw.PrintLine("%s - %s (unsigned value):" FLT_FMT3 " us/call",
 1082              		.loc 6 102 18 view .LVU252
 1083 0138 F8EEE76A 		vcvt.f32.s32	s13, s15
 1084              	.LVL88:
 1085              	.LBB811:
 1086              	.LBB808:
 1087              		.loc 1 124 23 view .LVU253
 1088 013c CDED007A 		vstr.32	s15, [sp]	@ int
 1089 0140 4CBF     		ite	mi
 1090 0142 2D23     		movmi	r3, #45
 1091 0144 2023     		movpl	r3, #32
 1092              	.LBE808:
 1093              	.LBE811:
 102:Logger.cpp    ****     hw.PrintLine("%s - %s (unsigned value):" FLT_FMT3 " us/call",
 1094              		.loc 6 102 18 view .LVU254
 1095 0146 37EE667A 		vsub.f32	s14, s14, s13
 1096              	.LVL89:
 102:Logger.cpp    ****     hw.PrintLine("%s - %s (unsigned value):" FLT_FMT3 " us/call",
 1097              		.loc 6 102 18 view .LVU255
 1098 014a B7EEC77A 		vcvt.f64.f32	d7, s14
 1099 014e 27EE087B 		vmul.f64	d7, d7, d8
  99:Logger.cpp    ****                  class_caption,
 1100              		.loc 6 99 17 view .LVU256
 1101 0152 BDEEC77B 		vcvt.s32.f64	s14, d7
 1102              	.LBB812:
 1103              	.LBB809:
 1104              		.loc 1 124 23 view .LVU257
 1105 0156 8DED017A 		vstr.32	s14, [sp, #4]	@ int
 1106 015a FFF7FEFF 		bl	_ZN5daisy6LoggerILNS_17LoggerDestinationE1EE9PrintLineEPKcz
 1107              	.LVL90:
 1108              		.loc 1 124 23 view .LVU258
 1109              	.LBE809:
 1110              	.LBE812:
 1111              	.LBB813:
 1112              	.LBI813:
  75:/usr/include/newlib/c++/9.2.1/bits/std_abs.h ****   { return __builtin_fabsf(__x); }
 1113              		.loc 7 75 3 is_stmt 1 view .LVU259
 1114              	.LBB814:
 1115              		.loc 7 76 5 view .LVU260
 1116              		.loc 7 76 31 is_stmt 0 view .LVU261
 1117 015e B0EECC7A 		vabs.f32	s14, s24
 1118              	.LVL91:
 1119              		.loc 7 76 31 view .LVU262
 1120              	.LBE814:
 1121              	.LBE813:
 103:Logger.cpp    ****                  class_caption,
 1122              		.loc 6 103 17 view .LVU263
 1123 0162 B4EEC9CA 		vcmpe.f32	s24, s18
 1124              	.LBB815:
 1125              	.LBB816:
 1126              		.loc 1 124 23 view .LVU264
ARM GAS  /tmp/ccIu4BI8.s 			page 35


 1127 0166 2A46     		mov	r2, r5
 1128 0168 2146     		mov	r1, r4
 1129 016a 6048     		ldr	r0, .L77+28
 1130              	.LBE816:
 1131              	.LBE815:
 103:Logger.cpp    ****                  class_caption,
 1132              		.loc 6 103 17 view .LVU265
 1133 016c FDEEC77A 		vcvt.s32.f32	s15, s14
 1134              	.LVL92:
 1135              		.loc 7 76 5 is_stmt 1 view .LVU266
 1136              		.loc 7 76 5 view .LVU267
 1137              	.LBB819:
 1138              	.LBI815:
 122:../../libdaisy/src/daisy_seed.h ****     {
 1139              		.loc 1 122 17 view .LVU268
 1140              	.LBE819:
 103:Logger.cpp    ****                  class_caption,
 1141              		.loc 6 103 17 is_stmt 0 view .LVU269
 1142 0170 F1EE10FA 		vmrs	APSR_nzcv, FPSCR
 106:Logger.cpp    ****     hw.PrintLine("%s - %s ( float.3 value):" FLT_FMT3 " us/call",
 1143              		.loc 6 106 18 view .LVU270
 1144 0174 F8EEE76A 		vcvt.f32.s32	s13, s15
 1145              	.LVL93:
 1146              	.LBB820:
 1147              	.LBB817:
 1148              		.loc 1 124 23 view .LVU271
 1149 0178 CDED007A 		vstr.32	s15, [sp]	@ int
 1150 017c 4CBF     		ite	mi
 1151 017e 2D23     		movmi	r3, #45
 1152 0180 2023     		movpl	r3, #32
 1153              	.LBE817:
 1154              	.LBE820:
 106:Logger.cpp    ****     hw.PrintLine("%s - %s ( float.3 value):" FLT_FMT3 " us/call",
 1155              		.loc 6 106 18 view .LVU272
 1156 0182 37EE667A 		vsub.f32	s14, s14, s13
 1157              	.LVL94:
 106:Logger.cpp    ****     hw.PrintLine("%s - %s ( float.3 value):" FLT_FMT3 " us/call",
 1158              		.loc 6 106 18 view .LVU273
 1159 0186 B7EEC77A 		vcvt.f64.f32	d7, s14
 1160 018a 27EE087B 		vmul.f64	d7, d7, d8
 103:Logger.cpp    ****                  class_caption,
 1161              		.loc 6 103 17 view .LVU274
 1162 018e BDEEC77B 		vcvt.s32.f64	s14, d7
 1163              	.LBB821:
 1164              	.LBB818:
 1165              		.loc 1 124 23 view .LVU275
 1166 0192 8DED017A 		vstr.32	s14, [sp, #4]	@ int
 1167 0196 FFF7FEFF 		bl	_ZN5daisy6LoggerILNS_17LoggerDestinationE1EE9PrintLineEPKcz
 1168              	.LVL95:
 1169              		.loc 1 124 23 view .LVU276
 1170              	.LBE818:
 1171              	.LBE821:
 1172              	.LBB822:
 1173              	.LBI822:
  75:/usr/include/newlib/c++/9.2.1/bits/std_abs.h ****   { return __builtin_fabsf(__x); }
 1174              		.loc 7 75 3 is_stmt 1 view .LVU277
 1175              	.LBB823:
ARM GAS  /tmp/ccIu4BI8.s 			page 36


 1176              		.loc 7 76 5 view .LVU278
 1177              		.loc 7 76 31 is_stmt 0 view .LVU279
 1178 019a B0EEEB7A 		vabs.f32	s14, s23
 1179              	.LVL96:
 1180              		.loc 7 76 31 view .LVU280
 1181              	.LBE823:
 1182              	.LBE822:
 107:Logger.cpp    ****                  class_caption,
 1183              		.loc 6 107 17 view .LVU281
 1184 019e F4EEC9BA 		vcmpe.f32	s23, s18
 1185              	.LBB824:
 1186              	.LBB825:
 1187              		.loc 1 124 23 view .LVU282
 1188 01a2 2A46     		mov	r2, r5
 1189 01a4 2146     		mov	r1, r4
 1190 01a6 5248     		ldr	r0, .L77+32
 1191              	.LBE825:
 1192              	.LBE824:
 107:Logger.cpp    ****                  class_caption,
 1193              		.loc 6 107 17 view .LVU283
 1194 01a8 FDEEC77A 		vcvt.s32.f32	s15, s14
 1195              	.LVL97:
 1196              		.loc 7 76 5 is_stmt 1 view .LVU284
 1197              		.loc 7 76 5 view .LVU285
 1198              	.LBB828:
 1199              	.LBI824:
 122:../../libdaisy/src/daisy_seed.h ****     {
 1200              		.loc 1 122 17 view .LVU286
 1201              	.LBE828:
 107:Logger.cpp    ****                  class_caption,
 1202              		.loc 6 107 17 is_stmt 0 view .LVU287
 1203 01ac F1EE10FA 		vmrs	APSR_nzcv, FPSCR
 110:Logger.cpp    ****     hw.PrintLine("%s - %s (FLT_VAR1 value):" FLT_FMT3 " us/call",
 1204              		.loc 6 110 18 view .LVU288
 1205 01b0 F8EEE76A 		vcvt.f32.s32	s13, s15
 1206              	.LVL98:
 1207              	.LBB829:
 1208              	.LBB826:
 1209              		.loc 1 124 23 view .LVU289
 1210 01b4 CDED007A 		vstr.32	s15, [sp]	@ int
 1211 01b8 4CBF     		ite	mi
 1212 01ba 2D23     		movmi	r3, #45
 1213 01bc 2023     		movpl	r3, #32
 1214              	.LBE826:
 1215              	.LBE829:
 110:Logger.cpp    ****     hw.PrintLine("%s - %s (FLT_VAR1 value):" FLT_FMT3 " us/call",
 1216              		.loc 6 110 18 view .LVU290
 1217 01be 37EE667A 		vsub.f32	s14, s14, s13
 1218              	.LVL99:
 110:Logger.cpp    ****     hw.PrintLine("%s - %s (FLT_VAR1 value):" FLT_FMT3 " us/call",
 1219              		.loc 6 110 18 view .LVU291
 1220 01c2 B7EEC77A 		vcvt.f64.f32	d7, s14
 1221 01c6 27EE087B 		vmul.f64	d7, d7, d8
 107:Logger.cpp    ****                  class_caption,
 1222              		.loc 6 107 17 view .LVU292
 1223 01ca BDEEC77B 		vcvt.s32.f64	s14, d7
 1224              	.LBB830:
ARM GAS  /tmp/ccIu4BI8.s 			page 37


 1225              	.LBB827:
 1226              		.loc 1 124 23 view .LVU293
 1227 01ce 8DED017A 		vstr.32	s14, [sp, #4]	@ int
 1228 01d2 FFF7FEFF 		bl	_ZN5daisy6LoggerILNS_17LoggerDestinationE1EE9PrintLineEPKcz
 1229              	.LVL100:
 1230              		.loc 1 124 23 view .LVU294
 1231              	.LBE827:
 1232              	.LBE830:
 1233              	.LBB831:
 1234              	.LBI831:
  75:/usr/include/newlib/c++/9.2.1/bits/std_abs.h ****   { return __builtin_fabsf(__x); }
 1235              		.loc 7 75 3 is_stmt 1 view .LVU295
 1236              	.LBB832:
 1237              		.loc 7 76 5 view .LVU296
 1238              		.loc 7 76 31 is_stmt 0 view .LVU297
 1239 01d6 B0EECB7A 		vabs.f32	s14, s22
 1240              	.LVL101:
 1241              		.loc 7 76 31 view .LVU298
 1242              	.LBE832:
 1243              	.LBE831:
 111:Logger.cpp    ****                  class_caption,
 1244              		.loc 6 111 17 view .LVU299
 1245 01da B4EEC9BA 		vcmpe.f32	s22, s18
 1246              	.LBB833:
 1247              	.LBB834:
 1248              		.loc 1 124 23 view .LVU300
 1249 01de 2A46     		mov	r2, r5
 1250 01e0 2146     		mov	r1, r4
 1251 01e2 4448     		ldr	r0, .L77+36
 1252              	.LBE834:
 1253              	.LBE833:
 111:Logger.cpp    ****                  class_caption,
 1254              		.loc 6 111 17 view .LVU301
 1255 01e4 FDEEC77A 		vcvt.s32.f32	s15, s14
 1256              	.LVL102:
 1257              		.loc 7 76 5 is_stmt 1 view .LVU302
 1258              		.loc 7 76 5 view .LVU303
 1259              	.LBB837:
 1260              	.LBI833:
 122:../../libdaisy/src/daisy_seed.h ****     {
 1261              		.loc 1 122 17 view .LVU304
 1262              	.LBE837:
 111:Logger.cpp    ****                  class_caption,
 1263              		.loc 6 111 17 is_stmt 0 view .LVU305
 1264 01e8 F1EE10FA 		vmrs	APSR_nzcv, FPSCR
 114:Logger.cpp    ****     hw.PrintLine("%s - %s (FLT_VAR2 value):" FLT_FMT3 " us/call",
 1265              		.loc 6 114 18 view .LVU306
 1266 01ec F8EEE76A 		vcvt.f32.s32	s13, s15
 1267              	.LVL103:
 1268              	.LBB838:
 1269              	.LBB835:
 1270              		.loc 1 124 23 view .LVU307
 1271 01f0 CDED007A 		vstr.32	s15, [sp]	@ int
 1272 01f4 4CBF     		ite	mi
 1273 01f6 2D23     		movmi	r3, #45
 1274 01f8 2023     		movpl	r3, #32
 1275              	.LBE835:
ARM GAS  /tmp/ccIu4BI8.s 			page 38


 1276              	.LBE838:
 114:Logger.cpp    ****     hw.PrintLine("%s - %s (FLT_VAR2 value):" FLT_FMT3 " us/call",
 1277              		.loc 6 114 18 view .LVU308
 1278 01fa 37EE667A 		vsub.f32	s14, s14, s13
 1279              	.LVL104:
 114:Logger.cpp    ****     hw.PrintLine("%s - %s (FLT_VAR2 value):" FLT_FMT3 " us/call",
 1280              		.loc 6 114 18 view .LVU309
 1281 01fe B7EEC77A 		vcvt.f64.f32	d7, s14
 1282 0202 27EE087B 		vmul.f64	d7, d7, d8
 111:Logger.cpp    ****                  class_caption,
 1283              		.loc 6 111 17 view .LVU310
 1284 0206 BDEEC77B 		vcvt.s32.f64	s14, d7
 1285              	.LBB839:
 1286              	.LBB836:
 1287              		.loc 1 124 23 view .LVU311
 1288 020a 8DED017A 		vstr.32	s14, [sp, #4]	@ int
 1289 020e FFF7FEFF 		bl	_ZN5daisy6LoggerILNS_17LoggerDestinationE1EE9PrintLineEPKcz
 1290              	.LVL105:
 1291              		.loc 1 124 23 view .LVU312
 1292              	.LBE836:
 1293              	.LBE839:
 1294              	.LBB840:
 1295              	.LBI840:
  75:/usr/include/newlib/c++/9.2.1/bits/std_abs.h ****   { return __builtin_fabsf(__x); }
 1296              		.loc 7 75 3 is_stmt 1 view .LVU313
 1297              	.LBB841:
 1298              		.loc 7 76 5 view .LVU314
 1299              		.loc 7 76 31 is_stmt 0 view .LVU315
 1300 0212 B0EEEA7A 		vabs.f32	s14, s21
 1301              	.LVL106:
 1302              		.loc 7 76 31 view .LVU316
 1303              	.LBE841:
 1304              	.LBE840:
 115:Logger.cpp    ****                  class_caption,
 1305              		.loc 6 115 17 view .LVU317
 1306 0216 F4EEC9AA 		vcmpe.f32	s21, s18
 1307              	.LBB842:
 1308              	.LBB843:
 1309              		.loc 1 124 23 view .LVU318
 1310 021a 2A46     		mov	r2, r5
 1311 021c 2146     		mov	r1, r4
 1312 021e 3648     		ldr	r0, .L77+40
 1313              	.LBE843:
 1314              	.LBE842:
 115:Logger.cpp    ****                  class_caption,
 1315              		.loc 6 115 17 view .LVU319
 1316 0220 FDEEC77A 		vcvt.s32.f32	s15, s14
 1317              	.LVL107:
 1318              		.loc 7 76 5 is_stmt 1 view .LVU320
 1319              		.loc 7 76 5 view .LVU321
 1320              	.LBB846:
 1321              	.LBI842:
 122:../../libdaisy/src/daisy_seed.h ****     {
 1322              		.loc 1 122 17 view .LVU322
 1323              	.LBE846:
 115:Logger.cpp    ****                  class_caption,
 1324              		.loc 6 115 17 is_stmt 0 view .LVU323
ARM GAS  /tmp/ccIu4BI8.s 			page 39


 1325 0224 F1EE10FA 		vmrs	APSR_nzcv, FPSCR
 118:Logger.cpp    ****     hw.PrintLine("%s - %s (FLT_VAR3 value):" FLT_FMT3 " us/call",
 1326              		.loc 6 118 18 view .LVU324
 1327 0228 F8EEE76A 		vcvt.f32.s32	s13, s15
 1328              	.LVL108:
 1329              	.LBB847:
 1330              	.LBB844:
 1331              		.loc 1 124 23 view .LVU325
 1332 022c CDED007A 		vstr.32	s15, [sp]	@ int
 1333 0230 4CBF     		ite	mi
 1334 0232 2D23     		movmi	r3, #45
 1335 0234 2023     		movpl	r3, #32
 1336              	.LBE844:
 1337              	.LBE847:
 118:Logger.cpp    ****     hw.PrintLine("%s - %s (FLT_VAR3 value):" FLT_FMT3 " us/call",
 1338              		.loc 6 118 18 view .LVU326
 1339 0236 37EE667A 		vsub.f32	s14, s14, s13
 1340              	.LVL109:
 118:Logger.cpp    ****     hw.PrintLine("%s - %s (FLT_VAR3 value):" FLT_FMT3 " us/call",
 1341              		.loc 6 118 18 view .LVU327
 1342 023a B7EEC77A 		vcvt.f64.f32	d7, s14
 1343 023e 27EE087B 		vmul.f64	d7, d7, d8
 115:Logger.cpp    ****                  class_caption,
 1344              		.loc 6 115 17 view .LVU328
 1345 0242 BDEEC77B 		vcvt.s32.f64	s14, d7
 1346              	.LBB848:
 1347              	.LBB845:
 1348              		.loc 1 124 23 view .LVU329
 1349 0246 8DED017A 		vstr.32	s14, [sp, #4]	@ int
 1350 024a FFF7FEFF 		bl	_ZN5daisy6LoggerILNS_17LoggerDestinationE1EE9PrintLineEPKcz
 1351              	.LVL110:
 1352              		.loc 1 124 23 view .LVU330
 1353              	.LBE845:
 1354              	.LBE848:
 1355              	.LBB849:
 1356              	.LBI849:
  75:/usr/include/newlib/c++/9.2.1/bits/std_abs.h ****   { return __builtin_fabsf(__x); }
 1357              		.loc 7 75 3 is_stmt 1 view .LVU331
 1358              	.LBB850:
 1359              		.loc 7 76 5 view .LVU332
 1360              		.loc 7 76 31 is_stmt 0 view .LVU333
 1361 024e B0EECA7A 		vabs.f32	s14, s20
 1362              	.LVL111:
 1363              		.loc 7 76 31 view .LVU334
 1364              	.LBE850:
 1365              	.LBE849:
 119:Logger.cpp    ****                  class_caption,
 1366              		.loc 6 119 17 view .LVU335
 1367 0252 B4EEC9AA 		vcmpe.f32	s20, s18
 1368              	.LBB851:
 1369              	.LBB852:
 1370              		.loc 1 124 23 view .LVU336
 1371 0256 2A46     		mov	r2, r5
 1372 0258 2146     		mov	r1, r4
 1373 025a 2848     		ldr	r0, .L77+44
 1374              	.LBE852:
 1375              	.LBE851:
ARM GAS  /tmp/ccIu4BI8.s 			page 40


 119:Logger.cpp    ****                  class_caption,
 1376              		.loc 6 119 17 view .LVU337
 1377 025c FDEEC77A 		vcvt.s32.f32	s15, s14
 1378              	.LVL112:
 1379              		.loc 7 76 5 is_stmt 1 view .LVU338
 1380              		.loc 7 76 5 view .LVU339
 1381              	.LBB855:
 1382              	.LBI851:
 122:../../libdaisy/src/daisy_seed.h ****     {
 1383              		.loc 1 122 17 view .LVU340
 1384              	.LBE855:
 119:Logger.cpp    ****                  class_caption,
 1385              		.loc 6 119 17 is_stmt 0 view .LVU341
 1386 0260 F1EE10FA 		vmrs	APSR_nzcv, FPSCR
 122:Logger.cpp    ****     hw.PrintLine("%s - %s (FLT_VAR4 value):" FLT_FMT3 " us/call",
 1387              		.loc 6 122 18 view .LVU342
 1388 0264 F8EEE76A 		vcvt.f32.s32	s13, s15
 1389              	.LVL113:
 1390              	.LBB856:
 1391              	.LBB853:
 1392              		.loc 1 124 23 view .LVU343
 1393 0268 CDED007A 		vstr.32	s15, [sp]	@ int
 1394 026c 4CBF     		ite	mi
 1395 026e 2D23     		movmi	r3, #45
 1396 0270 2023     		movpl	r3, #32
 1397              	.LBE853:
 1398              	.LBE856:
 122:Logger.cpp    ****     hw.PrintLine("%s - %s (FLT_VAR4 value):" FLT_FMT3 " us/call",
 1399              		.loc 6 122 18 view .LVU344
 1400 0272 37EE667A 		vsub.f32	s14, s14, s13
 1401              	.LVL114:
 122:Logger.cpp    ****     hw.PrintLine("%s - %s (FLT_VAR4 value):" FLT_FMT3 " us/call",
 1402              		.loc 6 122 18 view .LVU345
 1403 0276 B7EEC77A 		vcvt.f64.f32	d7, s14
 1404 027a 27EE087B 		vmul.f64	d7, d7, d8
 119:Logger.cpp    ****                  class_caption,
 1405              		.loc 6 119 17 view .LVU346
 1406 027e BDEEC77B 		vcvt.s32.f64	s14, d7
 1407              	.LBB857:
 1408              	.LBB854:
 1409              		.loc 1 124 23 view .LVU347
 1410 0282 8DED017A 		vstr.32	s14, [sp, #4]	@ int
 1411 0286 FFF7FEFF 		bl	_ZN5daisy6LoggerILNS_17LoggerDestinationE1EE9PrintLineEPKcz
 1412              	.LVL115:
 1413              		.loc 1 124 23 view .LVU348
 1414              	.LBE854:
 1415              	.LBE857:
 1416              	.LBB858:
 1417              	.LBI858:
  75:/usr/include/newlib/c++/9.2.1/bits/std_abs.h ****   { return __builtin_fabsf(__x); }
 1418              		.loc 7 75 3 is_stmt 1 view .LVU349
 1419              	.LBB859:
 1420              		.loc 7 76 5 view .LVU350
 1421              		.loc 7 76 31 is_stmt 0 view .LVU351
 1422 028a B0EEE97A 		vabs.f32	s14, s19
 1423              	.LVL116:
 1424              		.loc 7 76 31 view .LVU352
ARM GAS  /tmp/ccIu4BI8.s 			page 41


 1425              	.LBE859:
 1426              	.LBE858:
 123:Logger.cpp    ****                  class_caption,
 1427              		.loc 6 123 17 view .LVU353
 1428 028e F4EEC99A 		vcmpe.f32	s19, s18
 1429              	.LBB860:
 1430              	.LBB861:
 1431              		.loc 1 124 23 view .LVU354
 1432 0292 2A46     		mov	r2, r5
 1433 0294 2146     		mov	r1, r4
 1434 0296 1A48     		ldr	r0, .L77+48
 1435              	.LBE861:
 1436              	.LBE860:
 123:Logger.cpp    ****                  class_caption,
 1437              		.loc 6 123 17 view .LVU355
 1438 0298 FDEEC77A 		vcvt.s32.f32	s15, s14
 1439              	.LVL117:
 1440              		.loc 7 76 5 is_stmt 1 view .LVU356
 1441              		.loc 7 76 5 view .LVU357
 1442              	.LBB864:
 1443              	.LBI860:
 122:../../libdaisy/src/daisy_seed.h ****     {
 1444              		.loc 1 122 17 view .LVU358
 1445              	.LBE864:
 123:Logger.cpp    ****                  class_caption,
 1446              		.loc 6 123 17 is_stmt 0 view .LVU359
 1447 029c F1EE10FA 		vmrs	APSR_nzcv, FPSCR
 126:Logger.cpp    **** }
 1448              		.loc 6 126 18 view .LVU360
 1449 02a0 F8EEE76A 		vcvt.f32.s32	s13, s15
 1450              	.LVL118:
 1451              	.LBB865:
 1452              	.LBB862:
 1453              		.loc 1 124 23 view .LVU361
 1454 02a4 CDED007A 		vstr.32	s15, [sp]	@ int
 1455 02a8 4CBF     		ite	mi
 1456 02aa 2D23     		movmi	r3, #45
 1457 02ac 2023     		movpl	r3, #32
 1458              	.LBE862:
 1459              	.LBE865:
 126:Logger.cpp    **** }
 1460              		.loc 6 126 18 view .LVU362
 1461 02ae 37EE667A 		vsub.f32	s14, s14, s13
 1462              	.LVL119:
 126:Logger.cpp    **** }
 1463              		.loc 6 126 18 view .LVU363
 1464 02b2 B7EEC77A 		vcvt.f64.f32	d7, s14
 1465 02b6 27EE087B 		vmul.f64	d7, d7, d8
 123:Logger.cpp    ****                  class_caption,
 1466              		.loc 6 123 17 view .LVU364
 1467 02ba BDEEC77B 		vcvt.s32.f64	s14, d7
 1468              	.LBB866:
 1469              	.LBB863:
 1470              		.loc 1 124 23 view .LVU365
 1471 02be 8DED017A 		vstr.32	s14, [sp, #4]	@ int
 1472 02c2 FFF7FEFF 		bl	_ZN5daisy6LoggerILNS_17LoggerDestinationE1EE9PrintLineEPKcz
 1473              	.LVL120:
ARM GAS  /tmp/ccIu4BI8.s 			page 42


 1474              		.loc 1 124 23 view .LVU366
 1475              	.LBE863:
 1476              	.LBE866:
 127:Logger.cpp    **** 
 1477              		.loc 6 127 1 view .LVU367
 1478 02c6 06B0     		add	sp, sp, #24
 1479              		.cfi_def_cfa_offset 64
 1480              		@ sp needed
 1481 02c8 BDEC0C8B 		vldm	sp!, {d8-d13}
 1482              		.cfi_restore 90
 1483              		.cfi_restore 91
 1484              		.cfi_restore 88
 1485              		.cfi_restore 89
 1486              		.cfi_restore 86
 1487              		.cfi_restore 87
 1488              		.cfi_restore 84
 1489              		.cfi_restore 85
 1490              		.cfi_restore 82
 1491              		.cfi_restore 83
 1492              		.cfi_restore 80
 1493              		.cfi_restore 81
 1494              		.cfi_def_cfa_offset 16
 1495              	.LVL121:
 127:Logger.cpp    **** 
 1496              		.loc 6 127 1 view .LVU368
 1497 02cc 70BD     		pop	{r4, r5, r6, pc}
 1498              	.LVL122:
 1499              	.L78:
 127:Logger.cpp    **** 
 1500              		.loc 6 127 1 view .LVU369
 1501 02ce 00BF     		.align	3
 1502              	.L77:
 1503 02d0 00000000 		.word	0
 1504 02d4 00408F40 		.word	1083129856
 1505 02d8 00000C42 		.word	1108082688
 1506 02dc 00000000 		.word	0
 1507 02e0 00000000 		.word	.LC6
 1508 02e4 2C000000 		.word	.LC7
 1509 02e8 6C000000 		.word	.LC8
 1510 02ec 98000000 		.word	.LC9
 1511 02f0 C4000000 		.word	.LC10
 1512 02f4 F0000000 		.word	.LC11
 1513 02f8 1C010000 		.word	.LC12
 1514 02fc 48010000 		.word	.LC13
 1515 0300 74010000 		.word	.LC14
 1516              		.cfi_endproc
 1517              	.LFE2086:
 1519              		.section	.text._Z12ProfilePrintIXadL_ZN5daisy6LoggerILNS0_17LoggerDestinationE0EE9PrintLineEPKczEE
 1520              		.align	1
 1521              		.p2align 2,,3
 1522              		.weak	_Z12ProfilePrintIXadL_ZN5daisy6LoggerILNS0_17LoggerDestinationE0EE9PrintLineEPKczEEEvS5_S5_
 1523              		.syntax unified
 1524              		.thumb
 1525              		.thumb_func
 1526              		.fpu fpv5-d16
 1528              	_Z12ProfilePrintIXadL_ZN5daisy6LoggerILNS0_17LoggerDestinationE0EE9PrintLineEPKczEEEvS5_S5_:
 1529              	.LVL123:
ARM GAS  /tmp/ccIu4BI8.s 			page 43


 1530              	.LFB2087:
  67:Logger.cpp    **** {
 1531              		.loc 6 67 6 is_stmt 1 view -0
 1532              		.cfi_startproc
 1533              		@ args = 0, pretend = 0, frame = 0
 1534              		@ frame_needed = 0, uses_anonymous_args = 0
  67:Logger.cpp    **** {
 1535              		.loc 6 67 6 is_stmt 0 view .LVU371
 1536 0000 70B5     		push	{r4, r5, r6, lr}
 1537              		.cfi_def_cfa_offset 16
 1538              		.cfi_offset 4, -16
 1539              		.cfi_offset 5, -12
 1540              		.cfi_offset 6, -8
 1541              		.cfi_offset 14, -4
 1542 0002 2DED0C8B 		vpush.64	{d8, d9, d10, d11, d12, d13}
 1543              		.cfi_def_cfa_offset 64
 1544              		.cfi_offset 80, -64
 1545              		.cfi_offset 81, -60
 1546              		.cfi_offset 82, -56
 1547              		.cfi_offset 83, -52
 1548              		.cfi_offset 84, -48
 1549              		.cfi_offset 85, -44
 1550              		.cfi_offset 86, -40
 1551              		.cfi_offset 87, -36
 1552              		.cfi_offset 88, -32
 1553              		.cfi_offset 89, -28
 1554              		.cfi_offset 90, -24
 1555              		.cfi_offset 91, -20
 1556 0006 86B0     		sub	sp, sp, #24
 1557              		.cfi_def_cfa_offset 88
  67:Logger.cpp    **** {
 1558              		.loc 6 67 6 view .LVU372
 1559 0008 0446     		mov	r4, r0
 1560 000a 0D46     		mov	r5, r1
  69:Logger.cpp    ****     const float print_1 = ProfileFunction<function>("a");
 1561              		.loc 6 69 52 view .LVU373
 1562 000c FFF7FEFF 		bl	_Z15ProfileFunctionIXadL_ZN5daisy6LoggerILNS0_17LoggerDestinationE0EE9PrintLineEPKczEEJEEfS5_Dp
 1563              	.LVL124:
  69:Logger.cpp    ****     const float print_1 = ProfileFunction<function>("a");
 1564              		.loc 6 69 52 view .LVU374
 1565 0010 F0EE408A 		vmov.f32	s17, s0
 1566              	.LVL125:
  70:Logger.cpp    ****     const float print_36
 1567              		.loc 6 70 52 view .LVU375
 1568 0014 FFF7FEFF 		bl	_Z15ProfileFunctionIXadL_ZN5daisy6LoggerILNS0_17LoggerDestinationE0EE9PrintLineEPKczEEJEEfS5_Dp
 1569              	.LVL126:
  70:Logger.cpp    ****     const float print_36
 1570              		.loc 6 70 52 view .LVU376
 1571 0018 B0EE40DA 		vmov.f32	s26, s0
 1572              	.LVL127:
  72:Logger.cpp    ****     const float print_d = ProfileFunction<function>("%d", 123);
 1573              		.loc 6 72 36 view .LVU377
 1574 001c FFF7FEFF 		bl	_Z15ProfileFunctionIXadL_ZN5daisy6LoggerILNS0_17LoggerDestinationE0EE9PrintLineEPKczEEJEEfS5_Dp
 1575              	.LVL128:
  72:Logger.cpp    ****     const float print_d = ProfileFunction<function>("%d", 123);
 1576              		.loc 6 72 36 view .LVU378
 1577 0020 B0EE408A 		vmov.f32	s16, s0
ARM GAS  /tmp/ccIu4BI8.s 			page 44


 1578              	.LVL129:
  73:Logger.cpp    ****     const float print_u = ProfileFunction<function>("%u", 123);
 1579              		.loc 6 73 52 view .LVU379
 1580 0024 FFF7FEFF 		bl	_Z15ProfileFunctionIXadL_ZN5daisy6LoggerILNS0_17LoggerDestinationE0EE9PrintLineEPKczEEJiEEfS5_D
 1581              	.LVL130:
  73:Logger.cpp    ****     const float print_u = ProfileFunction<function>("%u", 123);
 1582              		.loc 6 73 52 view .LVU380
 1583 0028 F0EE40CA 		vmov.f32	s25, s0
 1584              	.LVL131:
  74:Logger.cpp    ****     const float print_f = ProfileFunction<function>("%.3f", 123.0f);
 1585              		.loc 6 74 52 view .LVU381
 1586 002c FFF7FEFF 		bl	_Z15ProfileFunctionIXadL_ZN5daisy6LoggerILNS0_17LoggerDestinationE0EE9PrintLineEPKczEEJiEEfS5_D
 1587              	.LVL132:
  74:Logger.cpp    ****     const float print_f = ProfileFunction<function>("%.3f", 123.0f);
 1588              		.loc 6 74 52 view .LVU382
 1589 0030 B0EE40CA 		vmov.f32	s24, s0
 1590              	.LVL133:
  75:Logger.cpp    ****     const float print_F1
 1591              		.loc 6 75 52 view .LVU383
 1592 0034 FFF7FEFF 		bl	_Z15ProfileFunctionIXadL_ZN5daisy6LoggerILNS0_17LoggerDestinationE0EE9PrintLineEPKczEEJfEEfS5_D
 1593              	.LVL134:
  75:Logger.cpp    ****     const float print_F1
 1594              		.loc 6 75 52 view .LVU384
 1595 0038 F0EE40BA 		vmov.f32	s23, s0
 1596              	.LVL135:
  77:Logger.cpp    ****     const float print_F2
 1597              		.loc 6 77 36 view .LVU385
 1598 003c FFF7FEFF 		bl	_Z15ProfileFunctionIXadL_ZN5daisy6LoggerILNS0_17LoggerDestinationE0EE9PrintLineEPKczEEJciiEEfS5
 1599              	.LVL136:
  77:Logger.cpp    ****     const float print_F2
 1600              		.loc 6 77 36 view .LVU386
 1601 0040 B0EE40BA 		vmov.f32	s22, s0
 1602              	.LVL137:
  79:Logger.cpp    ****     const float print_F3
 1603              		.loc 6 79 36 view .LVU387
 1604 0044 FFF7FEFF 		bl	_Z15ProfileFunctionIXadL_ZN5daisy6LoggerILNS0_17LoggerDestinationE0EE9PrintLineEPKczEEJciiEEfS5
 1605              	.LVL138:
  79:Logger.cpp    ****     const float print_F3
 1606              		.loc 6 79 36 view .LVU388
 1607 0048 F0EE40AA 		vmov.f32	s21, s0
 1608              	.LVL139:
  81:Logger.cpp    ****     const float print_F4
 1609              		.loc 6 81 36 view .LVU389
 1610 004c FFF7FEFF 		bl	_Z15ProfileFunctionIXadL_ZN5daisy6LoggerILNS0_17LoggerDestinationE0EE9PrintLineEPKczEEJciiEEfS5
 1611              	.LVL140:
  81:Logger.cpp    ****     const float print_F4
 1612              		.loc 6 81 36 view .LVU390
 1613 0050 B0EE40AA 		vmov.f32	s20, s0
 1614              	.LVL141:
  83:Logger.cpp    **** 
 1615              		.loc 6 83 36 view .LVU391
 1616 0054 FFF7FEFF 		bl	_Z15ProfileFunctionIXadL_ZN5daisy6LoggerILNS0_17LoggerDestinationE0EE9PrintLineEPKczEEJciiEEfS5
 1617              	.LVL142:
 1618              	.LBB867:
 1619              	.LBB868:
 1620              		.loc 7 76 31 view .LVU392
 1621 0058 B0EEE87A 		vabs.f32	s14, s17
ARM GAS  /tmp/ccIu4BI8.s 			page 45


 1622              	.LBE868:
 1623              	.LBE867:
  86:Logger.cpp    ****     const float intercept = print_1 - slope;
 1624              		.loc 6 86 17 view .LVU393
 1625 005c DFED9E6A 		vldr.32	s13, .L101+8
  86:Logger.cpp    ****     const float intercept = print_1 - slope;
 1626              		.loc 6 86 39 view .LVU394
 1627 0060 38EE4D8A 		vsub.f32	s16, s16, s26
 1628              	.LVL143:
  89:Logger.cpp    ****                  class_caption,
 1629              		.loc 6 89 17 view .LVU395
 1630 0064 9FED9D9A 		vldr.32	s18, .L101+12
 1631              	.LBB870:
 1632              	.LBB871:
 1633              		.loc 1 124 23 view .LVU396
 1634 0068 2A46     		mov	r2, r5
 1635 006a 2146     		mov	r1, r4
 1636              	.LBE871:
 1637              	.LBE870:
  89:Logger.cpp    ****                  class_caption,
 1638              		.loc 6 89 17 view .LVU397
 1639 006c FDEEC77A 		vcvt.s32.f32	s15, s14
 1640              	.LBB876:
 1641              	.LBB872:
 1642              		.loc 1 124 23 view .LVU398
 1643 0070 9B48     		ldr	r0, .L101+16
 1644              	.LBE872:
 1645              	.LBE876:
  86:Logger.cpp    ****     const float intercept = print_1 - slope;
 1646              		.loc 6 86 17 view .LVU399
 1647 0072 C8EE26DA 		vdiv.f32	s27, s16, s13
 1648              	.LBB877:
 1649              	.LBB873:
 1650              		.loc 1 124 23 view .LVU400
 1651 0076 CDED007A 		vstr.32	s15, [sp]	@ int
 1652              	.LBE873:
 1653              	.LBE877:
  92:Logger.cpp    ****     hw.PrintLine("%s - %s (   text string):" FLT_FMT3 " us/call +" FLT_FMT3
 1654              		.loc 6 92 18 view .LVU401
 1655 007a F8EEE77A 		vcvt.f32.s32	s15, s15
  89:Logger.cpp    ****                  class_caption,
 1656              		.loc 6 89 17 view .LVU402
 1657 007e F4EEC98A 		vcmpe.f32	s17, s18
  83:Logger.cpp    **** 
 1658              		.loc 6 83 36 view .LVU403
 1659 0082 F0EE409A 		vmov.f32	s19, s0
 1660              	.LVL144:
  92:Logger.cpp    ****     hw.PrintLine("%s - %s (   text string):" FLT_FMT3 " us/call +" FLT_FMT3
 1661              		.loc 6 92 18 view .LVU404
 1662 0086 37EE677A 		vsub.f32	s14, s14, s15
  89:Logger.cpp    ****                  class_caption,
 1663              		.loc 6 89 17 view .LVU405
 1664 008a F1EE10FA 		vmrs	APSR_nzcv, FPSCR
  92:Logger.cpp    ****     hw.PrintLine("%s - %s (   text string):" FLT_FMT3 " us/call +" FLT_FMT3
 1665              		.loc 6 92 18 view .LVU406
 1666 008e 9FED908B 		vldr.64	d8, .L101
 1667              	.LVL145:
ARM GAS  /tmp/ccIu4BI8.s 			page 46


  92:Logger.cpp    ****     hw.PrintLine("%s - %s (   text string):" FLT_FMT3 " us/call +" FLT_FMT3
 1668              		.loc 6 92 18 view .LVU407
 1669 0092 B7EEC77A 		vcvt.f64.f32	d7, s14
 1670              	.LBB878:
 1671              	.LBB874:
 1672              		.loc 1 124 23 view .LVU408
 1673 0096 4CBF     		ite	mi
 1674 0098 2D23     		movmi	r3, #45
 1675 009a 2023     		movpl	r3, #32
 1676              	.LBE874:
 1677              	.LBE878:
  92:Logger.cpp    ****     hw.PrintLine("%s - %s (   text string):" FLT_FMT3 " us/call +" FLT_FMT3
 1678              		.loc 6 92 18 view .LVU409
 1679 009c 27EE087B 		vmul.f64	d7, d7, d8
  87:Logger.cpp    **** 
 1680              		.loc 6 87 17 view .LVU410
 1681 00a0 3DEE6DDA 		vsub.f32	s26, s26, s27
 1682              	.LVL146:
 1683              	.LBB879:
 1684              	.LBI867:
  75:/usr/include/newlib/c++/9.2.1/bits/std_abs.h ****   { return __builtin_fabsf(__x); }
 1685              		.loc 7 75 3 is_stmt 1 view .LVU411
 1686              	.LBB869:
 1687              		.loc 7 76 5 view .LVU412
 1688              		.loc 7 76 5 is_stmt 0 view .LVU413
 1689              	.LBE869:
 1690              	.LBE879:
 1691              		.loc 7 76 5 is_stmt 1 view .LVU414
 1692              		.loc 7 76 5 view .LVU415
 1693              	.LBB880:
 1694              	.LBI870:
 122:../../libdaisy/src/daisy_seed.h ****     {
 1695              		.loc 1 122 17 view .LVU416
 1696              	.LBE880:
  89:Logger.cpp    ****                  class_caption,
 1697              		.loc 6 89 17 is_stmt 0 view .LVU417
 1698 00a4 BDEEC77B 		vcvt.s32.f64	s14, d7
 1699              	.LBB881:
 1700              	.LBB875:
 1701              		.loc 1 124 23 view .LVU418
 1702 00a8 8DED017A 		vstr.32	s14, [sp, #4]	@ int
 1703 00ac FFF7FEFF 		bl	_ZN5daisy6LoggerILNS_17LoggerDestinationE1EE9PrintLineEPKcz
 1704              	.LVL147:
 1705              		.loc 1 124 23 view .LVU419
 1706              	.LBE875:
 1707              	.LBE881:
 1708              	.LBB882:
 1709              	.LBB883:
 1710              		.loc 7 76 31 view .LVU420
 1711 00b0 B0EECD6A 		vabs.f32	s12, s26
 1712              	.LBE883:
 1713              	.LBE882:
 1714              	.LBB885:
 1715              	.LBB886:
 1716 00b4 B0EEED7A 		vabs.f32	s14, s27
 1717              	.LBE886:
 1718              	.LBE885:
ARM GAS  /tmp/ccIu4BI8.s 			page 47


 1719              	.LBB888:
 1720              	.LBB889:
 1721              		.loc 1 124 23 view .LVU421
 1722 00b8 2A46     		mov	r2, r5
 1723              	.LBE889:
 1724              	.LBE888:
  93:Logger.cpp    ****                  " us/char",
 1725              		.loc 6 93 17 view .LVU422
 1726 00ba B4EEC9DA 		vcmpe.f32	s26, s18
 1727              	.LBB896:
 1728              	.LBB890:
 1729              		.loc 1 124 23 view .LVU423
 1730 00be 2146     		mov	r1, r4
 1731              	.LBE890:
 1732              	.LBE896:
  93:Logger.cpp    ****                  " us/char",
 1733              		.loc 6 93 17 view .LVU424
 1734 00c0 FDEEC66A 		vcvt.s32.f32	s13, s12
 1735              	.LBB897:
 1736              	.LBB891:
 1737              		.loc 1 124 23 view .LVU425
 1738 00c4 8748     		ldr	r0, .L101+20
 1739              	.LBE891:
 1740              	.LBE897:
  93:Logger.cpp    ****                  " us/char",
 1741              		.loc 6 93 17 view .LVU426
 1742 00c6 FDEEC77A 		vcvt.s32.f32	s15, s14
 1743 00ca F1EE10FA 		vmrs	APSR_nzcv, FPSCR
  97:Logger.cpp    ****                  FLT_VAR3(slope));
 1744              		.loc 6 97 18 view .LVU427
 1745 00ce F8EEE65A 		vcvt.f32.s32	s11, s13
 1746              	.LBB898:
 1747              	.LBB892:
 1748              		.loc 1 124 23 view .LVU428
 1749 00d2 CDED006A 		vstr.32	s13, [sp]	@ int
 1750              	.LBE892:
 1751              	.LBE898:
  98:Logger.cpp    ****     hw.PrintLine("%s - %s ( integer value):" FLT_FMT3 " us/call",
 1752              		.loc 6 98 18 view .LVU429
 1753 00d6 F8EEE76A 		vcvt.f32.s32	s13, s15
 1754              	.LBB899:
 1755              	.LBB893:
 1756              		.loc 1 124 23 view .LVU430
 1757 00da CDED037A 		vstr.32	s15, [sp, #12]	@ int
 1758              	.LBE893:
 1759              	.LBE899:
  93:Logger.cpp    ****                  " us/char",
 1760              		.loc 6 93 17 view .LVU431
 1761 00de F4EEC9DA 		vcmpe.f32	s27, s18
 1762 00e2 48BF     		it	mi
 1763 00e4 2D23     		movmi	r3, #45
  97:Logger.cpp    ****                  FLT_VAR3(slope));
 1764              		.loc 6 97 18 view .LVU432
 1765 00e6 36EE656A 		vsub.f32	s12, s12, s11
  93:Logger.cpp    ****                  " us/char",
 1766              		.loc 6 93 17 view .LVU433
 1767 00ea 58BF     		it	pl
ARM GAS  /tmp/ccIu4BI8.s 			page 48


 1768 00ec 2023     		movpl	r3, #32
 1769              	.LVL148:
 1770              	.LBB900:
 1771              	.LBI882:
  75:/usr/include/newlib/c++/9.2.1/bits/std_abs.h ****   { return __builtin_fabsf(__x); }
 1772              		.loc 7 75 3 is_stmt 1 view .LVU434
 1773              	.LBB884:
 1774              		.loc 7 76 5 view .LVU435
 1775              		.loc 7 76 5 is_stmt 0 view .LVU436
 1776              	.LBE884:
 1777              	.LBE900:
 1778              		.loc 7 76 5 is_stmt 1 view .LVU437
 1779              		.loc 7 76 5 view .LVU438
  98:Logger.cpp    ****     hw.PrintLine("%s - %s ( integer value):" FLT_FMT3 " us/call",
 1780              		.loc 6 98 18 is_stmt 0 view .LVU439
 1781 00ee 37EE667A 		vsub.f32	s14, s14, s13
  93:Logger.cpp    ****                  " us/char",
 1782              		.loc 6 93 17 view .LVU440
 1783 00f2 F1EE10FA 		vmrs	APSR_nzcv, FPSCR
  97:Logger.cpp    ****                  FLT_VAR3(slope));
 1784              		.loc 6 97 18 view .LVU441
 1785 00f6 B7EEC66A 		vcvt.f64.f32	d6, s12
  98:Logger.cpp    ****     hw.PrintLine("%s - %s ( integer value):" FLT_FMT3 " us/call",
 1786              		.loc 6 98 18 view .LVU442
 1787 00fa B7EEC77A 		vcvt.f64.f32	d7, s14
  93:Logger.cpp    ****                  " us/char",
 1788              		.loc 6 93 17 view .LVU443
 1789 00fe 4CBF     		ite	mi
 1790 0100 2D26     		movmi	r6, #45
 1791 0102 2026     		movpl	r6, #32
 1792              	.LVL149:
 1793              	.LBB901:
 1794              	.LBI885:
  75:/usr/include/newlib/c++/9.2.1/bits/std_abs.h ****   { return __builtin_fabsf(__x); }
 1795              		.loc 7 75 3 is_stmt 1 view .LVU444
 1796              	.LBB887:
 1797              		.loc 7 76 5 view .LVU445
 1798              		.loc 7 76 5 is_stmt 0 view .LVU446
 1799              	.LBE887:
 1800              	.LBE901:
 1801              		.loc 7 76 5 is_stmt 1 view .LVU447
 1802              		.loc 7 76 5 view .LVU448
  97:Logger.cpp    ****                  FLT_VAR3(slope));
 1803              		.loc 6 97 18 is_stmt 0 view .LVU449
 1804 0104 26EE086B 		vmul.f64	d6, d6, d8
 1805              	.LBB902:
 1806              	.LBB894:
 1807              		.loc 1 124 23 view .LVU450
 1808 0108 0296     		str	r6, [sp, #8]
 1809              	.LBE894:
 1810              	.LBE902:
  98:Logger.cpp    ****     hw.PrintLine("%s - %s ( integer value):" FLT_FMT3 " us/call",
 1811              		.loc 6 98 18 view .LVU451
 1812 010a 27EE087B 		vmul.f64	d7, d7, d8
  93:Logger.cpp    ****                  " us/char",
 1813              		.loc 6 93 17 view .LVU452
 1814 010e BDEEC66B 		vcvt.s32.f64	s12, d6
ARM GAS  /tmp/ccIu4BI8.s 			page 49


 1815              	.LVL150:
 1816              	.LBB903:
 1817              	.LBI888:
 122:../../libdaisy/src/daisy_seed.h ****     {
 1818              		.loc 1 122 17 is_stmt 1 view .LVU453
 1819              	.LBE903:
  93:Logger.cpp    ****                  " us/char",
 1820              		.loc 6 93 17 is_stmt 0 view .LVU454
 1821 0112 BDEEC77B 		vcvt.s32.f64	s14, d7
 1822              	.LBB904:
 1823              	.LBB895:
 1824              		.loc 1 124 23 view .LVU455
 1825 0116 8DED016A 		vstr.32	s12, [sp, #4]	@ int
 1826 011a 8DED047A 		vstr.32	s14, [sp, #16]	@ int
 1827 011e FFF7FEFF 		bl	_ZN5daisy6LoggerILNS_17LoggerDestinationE1EE9PrintLineEPKcz
 1828              	.LVL151:
 1829              		.loc 1 124 23 view .LVU456
 1830              	.LBE895:
 1831              	.LBE904:
 1832              	.LBB905:
 1833              	.LBI905:
  75:/usr/include/newlib/c++/9.2.1/bits/std_abs.h ****   { return __builtin_fabsf(__x); }
 1834              		.loc 7 75 3 is_stmt 1 view .LVU457
 1835              	.LBB906:
 1836              		.loc 7 76 5 view .LVU458
 1837              		.loc 7 76 31 is_stmt 0 view .LVU459
 1838 0122 B0EEEC7A 		vabs.f32	s14, s25
 1839              	.LVL152:
 1840              		.loc 7 76 31 view .LVU460
 1841              	.LBE906:
 1842              	.LBE905:
  99:Logger.cpp    ****                  class_caption,
 1843              		.loc 6 99 17 view .LVU461
 1844 0126 F4EEC9CA 		vcmpe.f32	s25, s18
 1845              	.LBB907:
 1846              	.LBB908:
 1847              		.loc 1 124 23 view .LVU462
 1848 012a 2A46     		mov	r2, r5
 1849 012c 2146     		mov	r1, r4
 1850 012e 6E48     		ldr	r0, .L101+24
 1851              	.LBE908:
 1852              	.LBE907:
  99:Logger.cpp    ****                  class_caption,
 1853              		.loc 6 99 17 view .LVU463
 1854 0130 FDEEC77A 		vcvt.s32.f32	s15, s14
 1855              	.LVL153:
 1856              		.loc 7 76 5 is_stmt 1 view .LVU464
 1857              		.loc 7 76 5 view .LVU465
 1858              	.LBB911:
 1859              	.LBI907:
 122:../../libdaisy/src/daisy_seed.h ****     {
 1860              		.loc 1 122 17 view .LVU466
 1861              	.LBE911:
  99:Logger.cpp    ****                  class_caption,
 1862              		.loc 6 99 17 is_stmt 0 view .LVU467
 1863 0134 F1EE10FA 		vmrs	APSR_nzcv, FPSCR
 102:Logger.cpp    ****     hw.PrintLine("%s - %s (unsigned value):" FLT_FMT3 " us/call",
ARM GAS  /tmp/ccIu4BI8.s 			page 50


 1864              		.loc 6 102 18 view .LVU468
 1865 0138 F8EEE76A 		vcvt.f32.s32	s13, s15
 1866              	.LVL154:
 1867              	.LBB912:
 1868              	.LBB909:
 1869              		.loc 1 124 23 view .LVU469
 1870 013c CDED007A 		vstr.32	s15, [sp]	@ int
 1871 0140 4CBF     		ite	mi
 1872 0142 2D23     		movmi	r3, #45
 1873 0144 2023     		movpl	r3, #32
 1874              	.LBE909:
 1875              	.LBE912:
 102:Logger.cpp    ****     hw.PrintLine("%s - %s (unsigned value):" FLT_FMT3 " us/call",
 1876              		.loc 6 102 18 view .LVU470
 1877 0146 37EE667A 		vsub.f32	s14, s14, s13
 1878              	.LVL155:
 102:Logger.cpp    ****     hw.PrintLine("%s - %s (unsigned value):" FLT_FMT3 " us/call",
 1879              		.loc 6 102 18 view .LVU471
 1880 014a B7EEC77A 		vcvt.f64.f32	d7, s14
 1881 014e 27EE087B 		vmul.f64	d7, d7, d8
  99:Logger.cpp    ****                  class_caption,
 1882              		.loc 6 99 17 view .LVU472
 1883 0152 BDEEC77B 		vcvt.s32.f64	s14, d7
 1884              	.LBB913:
 1885              	.LBB910:
 1886              		.loc 1 124 23 view .LVU473
 1887 0156 8DED017A 		vstr.32	s14, [sp, #4]	@ int
 1888 015a FFF7FEFF 		bl	_ZN5daisy6LoggerILNS_17LoggerDestinationE1EE9PrintLineEPKcz
 1889              	.LVL156:
 1890              		.loc 1 124 23 view .LVU474
 1891              	.LBE910:
 1892              	.LBE913:
 1893              	.LBB914:
 1894              	.LBI914:
  75:/usr/include/newlib/c++/9.2.1/bits/std_abs.h ****   { return __builtin_fabsf(__x); }
 1895              		.loc 7 75 3 is_stmt 1 view .LVU475
 1896              	.LBB915:
 1897              		.loc 7 76 5 view .LVU476
 1898              		.loc 7 76 31 is_stmt 0 view .LVU477
 1899 015e B0EECC7A 		vabs.f32	s14, s24
 1900              	.LVL157:
 1901              		.loc 7 76 31 view .LVU478
 1902              	.LBE915:
 1903              	.LBE914:
 103:Logger.cpp    ****                  class_caption,
 1904              		.loc 6 103 17 view .LVU479
 1905 0162 B4EEC9CA 		vcmpe.f32	s24, s18
 1906              	.LBB916:
 1907              	.LBB917:
 1908              		.loc 1 124 23 view .LVU480
 1909 0166 2A46     		mov	r2, r5
 1910 0168 2146     		mov	r1, r4
 1911 016a 6048     		ldr	r0, .L101+28
 1912              	.LBE917:
 1913              	.LBE916:
 103:Logger.cpp    ****                  class_caption,
 1914              		.loc 6 103 17 view .LVU481
ARM GAS  /tmp/ccIu4BI8.s 			page 51


 1915 016c FDEEC77A 		vcvt.s32.f32	s15, s14
 1916              	.LVL158:
 1917              		.loc 7 76 5 is_stmt 1 view .LVU482
 1918              		.loc 7 76 5 view .LVU483
 1919              	.LBB920:
 1920              	.LBI916:
 122:../../libdaisy/src/daisy_seed.h ****     {
 1921              		.loc 1 122 17 view .LVU484
 1922              	.LBE920:
 103:Logger.cpp    ****                  class_caption,
 1923              		.loc 6 103 17 is_stmt 0 view .LVU485
 1924 0170 F1EE10FA 		vmrs	APSR_nzcv, FPSCR
 106:Logger.cpp    ****     hw.PrintLine("%s - %s ( float.3 value):" FLT_FMT3 " us/call",
 1925              		.loc 6 106 18 view .LVU486
 1926 0174 F8EEE76A 		vcvt.f32.s32	s13, s15
 1927              	.LVL159:
 1928              	.LBB921:
 1929              	.LBB918:
 1930              		.loc 1 124 23 view .LVU487
 1931 0178 CDED007A 		vstr.32	s15, [sp]	@ int
 1932 017c 4CBF     		ite	mi
 1933 017e 2D23     		movmi	r3, #45
 1934 0180 2023     		movpl	r3, #32
 1935              	.LBE918:
 1936              	.LBE921:
 106:Logger.cpp    ****     hw.PrintLine("%s - %s ( float.3 value):" FLT_FMT3 " us/call",
 1937              		.loc 6 106 18 view .LVU488
 1938 0182 37EE667A 		vsub.f32	s14, s14, s13
 1939              	.LVL160:
 106:Logger.cpp    ****     hw.PrintLine("%s - %s ( float.3 value):" FLT_FMT3 " us/call",
 1940              		.loc 6 106 18 view .LVU489
 1941 0186 B7EEC77A 		vcvt.f64.f32	d7, s14
 1942 018a 27EE087B 		vmul.f64	d7, d7, d8
 103:Logger.cpp    ****                  class_caption,
 1943              		.loc 6 103 17 view .LVU490
 1944 018e BDEEC77B 		vcvt.s32.f64	s14, d7
 1945              	.LBB922:
 1946              	.LBB919:
 1947              		.loc 1 124 23 view .LVU491
 1948 0192 8DED017A 		vstr.32	s14, [sp, #4]	@ int
 1949 0196 FFF7FEFF 		bl	_ZN5daisy6LoggerILNS_17LoggerDestinationE1EE9PrintLineEPKcz
 1950              	.LVL161:
 1951              		.loc 1 124 23 view .LVU492
 1952              	.LBE919:
 1953              	.LBE922:
 1954              	.LBB923:
 1955              	.LBI923:
  75:/usr/include/newlib/c++/9.2.1/bits/std_abs.h ****   { return __builtin_fabsf(__x); }
 1956              		.loc 7 75 3 is_stmt 1 view .LVU493
 1957              	.LBB924:
 1958              		.loc 7 76 5 view .LVU494
 1959              		.loc 7 76 31 is_stmt 0 view .LVU495
 1960 019a B0EEEB7A 		vabs.f32	s14, s23
 1961              	.LVL162:
 1962              		.loc 7 76 31 view .LVU496
 1963              	.LBE924:
 1964              	.LBE923:
ARM GAS  /tmp/ccIu4BI8.s 			page 52


 107:Logger.cpp    ****                  class_caption,
 1965              		.loc 6 107 17 view .LVU497
 1966 019e F4EEC9BA 		vcmpe.f32	s23, s18
 1967              	.LBB925:
 1968              	.LBB926:
 1969              		.loc 1 124 23 view .LVU498
 1970 01a2 2A46     		mov	r2, r5
 1971 01a4 2146     		mov	r1, r4
 1972 01a6 5248     		ldr	r0, .L101+32
 1973              	.LBE926:
 1974              	.LBE925:
 107:Logger.cpp    ****                  class_caption,
 1975              		.loc 6 107 17 view .LVU499
 1976 01a8 FDEEC77A 		vcvt.s32.f32	s15, s14
 1977              	.LVL163:
 1978              		.loc 7 76 5 is_stmt 1 view .LVU500
 1979              		.loc 7 76 5 view .LVU501
 1980              	.LBB929:
 1981              	.LBI925:
 122:../../libdaisy/src/daisy_seed.h ****     {
 1982              		.loc 1 122 17 view .LVU502
 1983              	.LBE929:
 107:Logger.cpp    ****                  class_caption,
 1984              		.loc 6 107 17 is_stmt 0 view .LVU503
 1985 01ac F1EE10FA 		vmrs	APSR_nzcv, FPSCR
 110:Logger.cpp    ****     hw.PrintLine("%s - %s (FLT_VAR1 value):" FLT_FMT3 " us/call",
 1986              		.loc 6 110 18 view .LVU504
 1987 01b0 F8EEE76A 		vcvt.f32.s32	s13, s15
 1988              	.LVL164:
 1989              	.LBB930:
 1990              	.LBB927:
 1991              		.loc 1 124 23 view .LVU505
 1992 01b4 CDED007A 		vstr.32	s15, [sp]	@ int
 1993 01b8 4CBF     		ite	mi
 1994 01ba 2D23     		movmi	r3, #45
 1995 01bc 2023     		movpl	r3, #32
 1996              	.LBE927:
 1997              	.LBE930:
 110:Logger.cpp    ****     hw.PrintLine("%s - %s (FLT_VAR1 value):" FLT_FMT3 " us/call",
 1998              		.loc 6 110 18 view .LVU506
 1999 01be 37EE667A 		vsub.f32	s14, s14, s13
 2000              	.LVL165:
 110:Logger.cpp    ****     hw.PrintLine("%s - %s (FLT_VAR1 value):" FLT_FMT3 " us/call",
 2001              		.loc 6 110 18 view .LVU507
 2002 01c2 B7EEC77A 		vcvt.f64.f32	d7, s14
 2003 01c6 27EE087B 		vmul.f64	d7, d7, d8
 107:Logger.cpp    ****                  class_caption,
 2004              		.loc 6 107 17 view .LVU508
 2005 01ca BDEEC77B 		vcvt.s32.f64	s14, d7
 2006              	.LBB931:
 2007              	.LBB928:
 2008              		.loc 1 124 23 view .LVU509
 2009 01ce 8DED017A 		vstr.32	s14, [sp, #4]	@ int
 2010 01d2 FFF7FEFF 		bl	_ZN5daisy6LoggerILNS_17LoggerDestinationE1EE9PrintLineEPKcz
 2011              	.LVL166:
 2012              		.loc 1 124 23 view .LVU510
 2013              	.LBE928:
ARM GAS  /tmp/ccIu4BI8.s 			page 53


 2014              	.LBE931:
 2015              	.LBB932:
 2016              	.LBI932:
  75:/usr/include/newlib/c++/9.2.1/bits/std_abs.h ****   { return __builtin_fabsf(__x); }
 2017              		.loc 7 75 3 is_stmt 1 view .LVU511
 2018              	.LBB933:
 2019              		.loc 7 76 5 view .LVU512
 2020              		.loc 7 76 31 is_stmt 0 view .LVU513
 2021 01d6 B0EECB7A 		vabs.f32	s14, s22
 2022              	.LVL167:
 2023              		.loc 7 76 31 view .LVU514
 2024              	.LBE933:
 2025              	.LBE932:
 111:Logger.cpp    ****                  class_caption,
 2026              		.loc 6 111 17 view .LVU515
 2027 01da B4EEC9BA 		vcmpe.f32	s22, s18
 2028              	.LBB934:
 2029              	.LBB935:
 2030              		.loc 1 124 23 view .LVU516
 2031 01de 2A46     		mov	r2, r5
 2032 01e0 2146     		mov	r1, r4
 2033 01e2 4448     		ldr	r0, .L101+36
 2034              	.LBE935:
 2035              	.LBE934:
 111:Logger.cpp    ****                  class_caption,
 2036              		.loc 6 111 17 view .LVU517
 2037 01e4 FDEEC77A 		vcvt.s32.f32	s15, s14
 2038              	.LVL168:
 2039              		.loc 7 76 5 is_stmt 1 view .LVU518
 2040              		.loc 7 76 5 view .LVU519
 2041              	.LBB938:
 2042              	.LBI934:
 122:../../libdaisy/src/daisy_seed.h ****     {
 2043              		.loc 1 122 17 view .LVU520
 2044              	.LBE938:
 111:Logger.cpp    ****                  class_caption,
 2045              		.loc 6 111 17 is_stmt 0 view .LVU521
 2046 01e8 F1EE10FA 		vmrs	APSR_nzcv, FPSCR
 114:Logger.cpp    ****     hw.PrintLine("%s - %s (FLT_VAR2 value):" FLT_FMT3 " us/call",
 2047              		.loc 6 114 18 view .LVU522
 2048 01ec F8EEE76A 		vcvt.f32.s32	s13, s15
 2049              	.LVL169:
 2050              	.LBB939:
 2051              	.LBB936:
 2052              		.loc 1 124 23 view .LVU523
 2053 01f0 CDED007A 		vstr.32	s15, [sp]	@ int
 2054 01f4 4CBF     		ite	mi
 2055 01f6 2D23     		movmi	r3, #45
 2056 01f8 2023     		movpl	r3, #32
 2057              	.LBE936:
 2058              	.LBE939:
 114:Logger.cpp    ****     hw.PrintLine("%s - %s (FLT_VAR2 value):" FLT_FMT3 " us/call",
 2059              		.loc 6 114 18 view .LVU524
 2060 01fa 37EE667A 		vsub.f32	s14, s14, s13
 2061              	.LVL170:
 114:Logger.cpp    ****     hw.PrintLine("%s - %s (FLT_VAR2 value):" FLT_FMT3 " us/call",
 2062              		.loc 6 114 18 view .LVU525
ARM GAS  /tmp/ccIu4BI8.s 			page 54


 2063 01fe B7EEC77A 		vcvt.f64.f32	d7, s14
 2064 0202 27EE087B 		vmul.f64	d7, d7, d8
 111:Logger.cpp    ****                  class_caption,
 2065              		.loc 6 111 17 view .LVU526
 2066 0206 BDEEC77B 		vcvt.s32.f64	s14, d7
 2067              	.LBB940:
 2068              	.LBB937:
 2069              		.loc 1 124 23 view .LVU527
 2070 020a 8DED017A 		vstr.32	s14, [sp, #4]	@ int
 2071 020e FFF7FEFF 		bl	_ZN5daisy6LoggerILNS_17LoggerDestinationE1EE9PrintLineEPKcz
 2072              	.LVL171:
 2073              		.loc 1 124 23 view .LVU528
 2074              	.LBE937:
 2075              	.LBE940:
 2076              	.LBB941:
 2077              	.LBI941:
  75:/usr/include/newlib/c++/9.2.1/bits/std_abs.h ****   { return __builtin_fabsf(__x); }
 2078              		.loc 7 75 3 is_stmt 1 view .LVU529
 2079              	.LBB942:
 2080              		.loc 7 76 5 view .LVU530
 2081              		.loc 7 76 31 is_stmt 0 view .LVU531
 2082 0212 B0EEEA7A 		vabs.f32	s14, s21
 2083              	.LVL172:
 2084              		.loc 7 76 31 view .LVU532
 2085              	.LBE942:
 2086              	.LBE941:
 115:Logger.cpp    ****                  class_caption,
 2087              		.loc 6 115 17 view .LVU533
 2088 0216 F4EEC9AA 		vcmpe.f32	s21, s18
 2089              	.LBB943:
 2090              	.LBB944:
 2091              		.loc 1 124 23 view .LVU534
 2092 021a 2A46     		mov	r2, r5
 2093 021c 2146     		mov	r1, r4
 2094 021e 3648     		ldr	r0, .L101+40
 2095              	.LBE944:
 2096              	.LBE943:
 115:Logger.cpp    ****                  class_caption,
 2097              		.loc 6 115 17 view .LVU535
 2098 0220 FDEEC77A 		vcvt.s32.f32	s15, s14
 2099              	.LVL173:
 2100              		.loc 7 76 5 is_stmt 1 view .LVU536
 2101              		.loc 7 76 5 view .LVU537
 2102              	.LBB947:
 2103              	.LBI943:
 122:../../libdaisy/src/daisy_seed.h ****     {
 2104              		.loc 1 122 17 view .LVU538
 2105              	.LBE947:
 115:Logger.cpp    ****                  class_caption,
 2106              		.loc 6 115 17 is_stmt 0 view .LVU539
 2107 0224 F1EE10FA 		vmrs	APSR_nzcv, FPSCR
 118:Logger.cpp    ****     hw.PrintLine("%s - %s (FLT_VAR3 value):" FLT_FMT3 " us/call",
 2108              		.loc 6 118 18 view .LVU540
 2109 0228 F8EEE76A 		vcvt.f32.s32	s13, s15
 2110              	.LVL174:
 2111              	.LBB948:
 2112              	.LBB945:
ARM GAS  /tmp/ccIu4BI8.s 			page 55


 2113              		.loc 1 124 23 view .LVU541
 2114 022c CDED007A 		vstr.32	s15, [sp]	@ int
 2115 0230 4CBF     		ite	mi
 2116 0232 2D23     		movmi	r3, #45
 2117 0234 2023     		movpl	r3, #32
 2118              	.LBE945:
 2119              	.LBE948:
 118:Logger.cpp    ****     hw.PrintLine("%s - %s (FLT_VAR3 value):" FLT_FMT3 " us/call",
 2120              		.loc 6 118 18 view .LVU542
 2121 0236 37EE667A 		vsub.f32	s14, s14, s13
 2122              	.LVL175:
 118:Logger.cpp    ****     hw.PrintLine("%s - %s (FLT_VAR3 value):" FLT_FMT3 " us/call",
 2123              		.loc 6 118 18 view .LVU543
 2124 023a B7EEC77A 		vcvt.f64.f32	d7, s14
 2125 023e 27EE087B 		vmul.f64	d7, d7, d8
 115:Logger.cpp    ****                  class_caption,
 2126              		.loc 6 115 17 view .LVU544
 2127 0242 BDEEC77B 		vcvt.s32.f64	s14, d7
 2128              	.LBB949:
 2129              	.LBB946:
 2130              		.loc 1 124 23 view .LVU545
 2131 0246 8DED017A 		vstr.32	s14, [sp, #4]	@ int
 2132 024a FFF7FEFF 		bl	_ZN5daisy6LoggerILNS_17LoggerDestinationE1EE9PrintLineEPKcz
 2133              	.LVL176:
 2134              		.loc 1 124 23 view .LVU546
 2135              	.LBE946:
 2136              	.LBE949:
 2137              	.LBB950:
 2138              	.LBI950:
  75:/usr/include/newlib/c++/9.2.1/bits/std_abs.h ****   { return __builtin_fabsf(__x); }
 2139              		.loc 7 75 3 is_stmt 1 view .LVU547
 2140              	.LBB951:
 2141              		.loc 7 76 5 view .LVU548
 2142              		.loc 7 76 31 is_stmt 0 view .LVU549
 2143 024e B0EECA7A 		vabs.f32	s14, s20
 2144              	.LVL177:
 2145              		.loc 7 76 31 view .LVU550
 2146              	.LBE951:
 2147              	.LBE950:
 119:Logger.cpp    ****                  class_caption,
 2148              		.loc 6 119 17 view .LVU551
 2149 0252 B4EEC9AA 		vcmpe.f32	s20, s18
 2150              	.LBB952:
 2151              	.LBB953:
 2152              		.loc 1 124 23 view .LVU552
 2153 0256 2A46     		mov	r2, r5
 2154 0258 2146     		mov	r1, r4
 2155 025a 2848     		ldr	r0, .L101+44
 2156              	.LBE953:
 2157              	.LBE952:
 119:Logger.cpp    ****                  class_caption,
 2158              		.loc 6 119 17 view .LVU553
 2159 025c FDEEC77A 		vcvt.s32.f32	s15, s14
 2160              	.LVL178:
 2161              		.loc 7 76 5 is_stmt 1 view .LVU554
 2162              		.loc 7 76 5 view .LVU555
 2163              	.LBB956:
ARM GAS  /tmp/ccIu4BI8.s 			page 56


 2164              	.LBI952:
 122:../../libdaisy/src/daisy_seed.h ****     {
 2165              		.loc 1 122 17 view .LVU556
 2166              	.LBE956:
 119:Logger.cpp    ****                  class_caption,
 2167              		.loc 6 119 17 is_stmt 0 view .LVU557
 2168 0260 F1EE10FA 		vmrs	APSR_nzcv, FPSCR
 122:Logger.cpp    ****     hw.PrintLine("%s - %s (FLT_VAR4 value):" FLT_FMT3 " us/call",
 2169              		.loc 6 122 18 view .LVU558
 2170 0264 F8EEE76A 		vcvt.f32.s32	s13, s15
 2171              	.LVL179:
 2172              	.LBB957:
 2173              	.LBB954:
 2174              		.loc 1 124 23 view .LVU559
 2175 0268 CDED007A 		vstr.32	s15, [sp]	@ int
 2176 026c 4CBF     		ite	mi
 2177 026e 2D23     		movmi	r3, #45
 2178 0270 2023     		movpl	r3, #32
 2179              	.LBE954:
 2180              	.LBE957:
 122:Logger.cpp    ****     hw.PrintLine("%s - %s (FLT_VAR4 value):" FLT_FMT3 " us/call",
 2181              		.loc 6 122 18 view .LVU560
 2182 0272 37EE667A 		vsub.f32	s14, s14, s13
 2183              	.LVL180:
 122:Logger.cpp    ****     hw.PrintLine("%s - %s (FLT_VAR4 value):" FLT_FMT3 " us/call",
 2184              		.loc 6 122 18 view .LVU561
 2185 0276 B7EEC77A 		vcvt.f64.f32	d7, s14
 2186 027a 27EE087B 		vmul.f64	d7, d7, d8
 119:Logger.cpp    ****                  class_caption,
 2187              		.loc 6 119 17 view .LVU562
 2188 027e BDEEC77B 		vcvt.s32.f64	s14, d7
 2189              	.LBB958:
 2190              	.LBB955:
 2191              		.loc 1 124 23 view .LVU563
 2192 0282 8DED017A 		vstr.32	s14, [sp, #4]	@ int
 2193 0286 FFF7FEFF 		bl	_ZN5daisy6LoggerILNS_17LoggerDestinationE1EE9PrintLineEPKcz
 2194              	.LVL181:
 2195              		.loc 1 124 23 view .LVU564
 2196              	.LBE955:
 2197              	.LBE958:
 2198              	.LBB959:
 2199              	.LBI959:
  75:/usr/include/newlib/c++/9.2.1/bits/std_abs.h ****   { return __builtin_fabsf(__x); }
 2200              		.loc 7 75 3 is_stmt 1 view .LVU565
 2201              	.LBB960:
 2202              		.loc 7 76 5 view .LVU566
 2203              		.loc 7 76 31 is_stmt 0 view .LVU567
 2204 028a B0EEE97A 		vabs.f32	s14, s19
 2205              	.LVL182:
 2206              		.loc 7 76 31 view .LVU568
 2207              	.LBE960:
 2208              	.LBE959:
 123:Logger.cpp    ****                  class_caption,
 2209              		.loc 6 123 17 view .LVU569
 2210 028e F4EEC99A 		vcmpe.f32	s19, s18
 2211              	.LBB961:
 2212              	.LBB962:
ARM GAS  /tmp/ccIu4BI8.s 			page 57


 2213              		.loc 1 124 23 view .LVU570
 2214 0292 2A46     		mov	r2, r5
 2215 0294 2146     		mov	r1, r4
 2216 0296 1A48     		ldr	r0, .L101+48
 2217              	.LBE962:
 2218              	.LBE961:
 123:Logger.cpp    ****                  class_caption,
 2219              		.loc 6 123 17 view .LVU571
 2220 0298 FDEEC77A 		vcvt.s32.f32	s15, s14
 2221              	.LVL183:
 2222              		.loc 7 76 5 is_stmt 1 view .LVU572
 2223              		.loc 7 76 5 view .LVU573
 2224              	.LBB965:
 2225              	.LBI961:
 122:../../libdaisy/src/daisy_seed.h ****     {
 2226              		.loc 1 122 17 view .LVU574
 2227              	.LBE965:
 123:Logger.cpp    ****                  class_caption,
 2228              		.loc 6 123 17 is_stmt 0 view .LVU575
 2229 029c F1EE10FA 		vmrs	APSR_nzcv, FPSCR
 126:Logger.cpp    **** }
 2230              		.loc 6 126 18 view .LVU576
 2231 02a0 F8EEE76A 		vcvt.f32.s32	s13, s15
 2232              	.LVL184:
 2233              	.LBB966:
 2234              	.LBB963:
 2235              		.loc 1 124 23 view .LVU577
 2236 02a4 CDED007A 		vstr.32	s15, [sp]	@ int
 2237 02a8 4CBF     		ite	mi
 2238 02aa 2D23     		movmi	r3, #45
 2239 02ac 2023     		movpl	r3, #32
 2240              	.LBE963:
 2241              	.LBE966:
 126:Logger.cpp    **** }
 2242              		.loc 6 126 18 view .LVU578
 2243 02ae 37EE667A 		vsub.f32	s14, s14, s13
 2244              	.LVL185:
 126:Logger.cpp    **** }
 2245              		.loc 6 126 18 view .LVU579
 2246 02b2 B7EEC77A 		vcvt.f64.f32	d7, s14
 2247 02b6 27EE087B 		vmul.f64	d7, d7, d8
 123:Logger.cpp    ****                  class_caption,
 2248              		.loc 6 123 17 view .LVU580
 2249 02ba BDEEC77B 		vcvt.s32.f64	s14, d7
 2250              	.LBB967:
 2251              	.LBB964:
 2252              		.loc 1 124 23 view .LVU581
 2253 02be 8DED017A 		vstr.32	s14, [sp, #4]	@ int
 2254 02c2 FFF7FEFF 		bl	_ZN5daisy6LoggerILNS_17LoggerDestinationE1EE9PrintLineEPKcz
 2255              	.LVL186:
 2256              		.loc 1 124 23 view .LVU582
 2257              	.LBE964:
 2258              	.LBE967:
 127:Logger.cpp    **** 
 2259              		.loc 6 127 1 view .LVU583
 2260 02c6 06B0     		add	sp, sp, #24
 2261              		.cfi_def_cfa_offset 64
ARM GAS  /tmp/ccIu4BI8.s 			page 58


 2262              		@ sp needed
 2263 02c8 BDEC0C8B 		vldm	sp!, {d8-d13}
 2264              		.cfi_restore 90
 2265              		.cfi_restore 91
 2266              		.cfi_restore 88
 2267              		.cfi_restore 89
 2268              		.cfi_restore 86
 2269              		.cfi_restore 87
 2270              		.cfi_restore 84
 2271              		.cfi_restore 85
 2272              		.cfi_restore 82
 2273              		.cfi_restore 83
 2274              		.cfi_restore 80
 2275              		.cfi_restore 81
 2276              		.cfi_def_cfa_offset 16
 2277              	.LVL187:
 127:Logger.cpp    **** 
 2278              		.loc 6 127 1 view .LVU584
 2279 02cc 70BD     		pop	{r4, r5, r6, pc}
 2280              	.LVL188:
 2281              	.L102:
 127:Logger.cpp    **** 
 2282              		.loc 6 127 1 view .LVU585
 2283 02ce 00BF     		.align	3
 2284              	.L101:
 2285 02d0 00000000 		.word	0
 2286 02d4 00408F40 		.word	1083129856
 2287 02d8 00000C42 		.word	1108082688
 2288 02dc 00000000 		.word	0
 2289 02e0 00000000 		.word	.LC6
 2290 02e4 2C000000 		.word	.LC7
 2291 02e8 6C000000 		.word	.LC8
 2292 02ec 98000000 		.word	.LC9
 2293 02f0 C4000000 		.word	.LC10
 2294 02f4 F0000000 		.word	.LC11
 2295 02f8 1C010000 		.word	.LC12
 2296 02fc 48010000 		.word	.LC13
 2297 0300 74010000 		.word	.LC14
 2298              		.cfi_endproc
 2299              	.LFE2087:
 2301              		.section	.text._Z15ProfileFunctionIXadL_ZN5daisy6LoggerILNS0_17LoggerDestinationE2EE5PrintEPKczEEJ
 2302              		.align	1
 2303              		.p2align 2,,3
 2304              		.weak	_Z15ProfileFunctionIXadL_ZN5daisy6LoggerILNS0_17LoggerDestinationE2EE5PrintEPKczEEJEEfS5_DpT
 2305              		.syntax unified
 2306              		.thumb
 2307              		.thumb_func
 2308              		.fpu fpv5-d16
 2310              	_Z15ProfileFunctionIXadL_ZN5daisy6LoggerILNS0_17LoggerDestinationE2EE5PrintEPKczEEJEEfS5_DpT0_:
 2311              	.LVL189:
 2312              	.LFB2089:
  49:Logger.cpp    **** {
 2313              		.loc 6 49 7 is_stmt 1 view -0
 2314              		.cfi_startproc
 2315              		@ args = 0, pretend = 0, frame = 0
 2316              		@ frame_needed = 0, uses_anonymous_args = 0
  49:Logger.cpp    **** {
ARM GAS  /tmp/ccIu4BI8.s 			page 59


 2317              		.loc 6 49 7 is_stmt 0 view .LVU587
 2318 0000 70B5     		push	{r4, r5, r6, lr}
 2319              		.cfi_def_cfa_offset 16
 2320              		.cfi_offset 4, -16
 2321              		.cfi_offset 5, -12
 2322              		.cfi_offset 6, -8
 2323              		.cfi_offset 14, -4
  49:Logger.cpp    **** {
 2324              		.loc 6 49 7 view .LVU588
 2325 0002 0546     		mov	r5, r0
  52:Logger.cpp    ****     for(int i = 0; i < count; i++)
 2326              		.loc 6 52 46 view .LVU589
 2327 0004 0A4C     		ldr	r4, .L107
 2328 0006 FFF7FEFF 		bl	_ZN5daisy6System7GetTickEv
 2329              	.LVL190:
  52:Logger.cpp    ****     for(int i = 0; i < count; i++)
 2330              		.loc 6 52 46 view .LVU590
 2331 000a 0646     		mov	r6, r0
 2332              	.LVL191:
 2333              	.LBB968:
  53:Logger.cpp    ****     {
 2334              		.loc 6 53 22 is_stmt 1 view .LVU591
 2335              	.L104:
  55:Logger.cpp    ****     }
 2336              		.loc 6 55 17 is_stmt 0 discriminator 2 view .LVU592
 2337 000c 2846     		mov	r0, r5
 2338 000e FFF7FEFF 		bl	_ZN5daisy6LoggerILNS_17LoggerDestinationE2EE5PrintEPKcz
 2339              	.LVL192:
  53:Logger.cpp    ****     {
 2340              		.loc 6 53 5 is_stmt 1 discriminator 2 view .LVU593
  53:Logger.cpp    ****     {
 2341              		.loc 6 53 22 discriminator 2 view .LVU594
 2342 0012 013C     		subs	r4, r4, #1
 2343              	.LVL193:
  53:Logger.cpp    ****     {
 2344              		.loc 6 53 22 is_stmt 0 discriminator 2 view .LVU595
 2345 0014 FAD1     		bne	.L104
 2346              	.LBE968:
  57:Logger.cpp    ****     const float perf
 2347              		.loc 6 57 37 view .LVU596
 2348 0016 FFF7FEFF 		bl	_ZN5daisy6System7GetTickEv
 2349              	.LVL194:
  57:Logger.cpp    ****     const float perf
 2350              		.loc 6 57 17 view .LVU597
 2351 001a 801B     		subs	r0, r0, r6
 2352              	.LVL195:
  58:Logger.cpp    ****         = (float)dt
 2353              		.loc 6 58 17 view .LVU598
 2354 001c 9FED050A 		vldr.32	s0, .L107+4
  60:Logger.cpp    ****     return perf;
 2355              		.loc 6 60 11 view .LVU599
 2356 0020 07EE900A 		vmov	s15, r0	@ int
 2357 0024 F8EE677A 		vcvt.f32.u32	s15, s15
  62:Logger.cpp    **** 
 2358              		.loc 6 62 1 view .LVU600
 2359 0028 87EE800A 		vdiv.f32	s0, s15, s0
 2360              	.LVL196:
ARM GAS  /tmp/ccIu4BI8.s 			page 60


  62:Logger.cpp    **** 
 2361              		.loc 6 62 1 view .LVU601
 2362 002c 70BD     		pop	{r4, r5, r6, pc}
 2363              	.LVL197:
 2364              	.L108:
  62:Logger.cpp    **** 
 2365              		.loc 6 62 1 view .LVU602
 2366 002e 00BF     		.align	2
 2367              	.L107:
 2368 0030 A0860100 		.word	100000
 2369 0034 8096984B 		.word	1268291200
 2370              		.cfi_endproc
 2371              	.LFE2089:
 2373              		.section	.text._Z15ProfileFunctionIXadL_ZN5daisy6LoggerILNS0_17LoggerDestinationE2EE5PrintEPKczEEJ
 2374              		.align	1
 2375              		.p2align 2,,3
 2376              		.weak	_Z15ProfileFunctionIXadL_ZN5daisy6LoggerILNS0_17LoggerDestinationE2EE5PrintEPKczEEJiEEfS5_Dp
 2377              		.syntax unified
 2378              		.thumb
 2379              		.thumb_func
 2380              		.fpu fpv5-d16
 2382              	_Z15ProfileFunctionIXadL_ZN5daisy6LoggerILNS0_17LoggerDestinationE2EE5PrintEPKczEEJiEEfS5_DpT0_:
 2383              	.LVL198:
 2384              	.LFB2090:
  49:Logger.cpp    **** {
 2385              		.loc 6 49 7 is_stmt 1 view -0
 2386              		.cfi_startproc
 2387              		@ args = 0, pretend = 0, frame = 0
 2388              		@ frame_needed = 0, uses_anonymous_args = 0
  49:Logger.cpp    **** {
 2389              		.loc 6 49 7 is_stmt 0 view .LVU604
 2390 0000 F8B5     		push	{r3, r4, r5, r6, r7, lr}
 2391              		.cfi_def_cfa_offset 24
 2392              		.cfi_offset 3, -24
 2393              		.cfi_offset 4, -20
 2394              		.cfi_offset 5, -16
 2395              		.cfi_offset 6, -12
 2396              		.cfi_offset 7, -8
 2397              		.cfi_offset 14, -4
  49:Logger.cpp    **** {
 2398              		.loc 6 49 7 view .LVU605
 2399 0002 0646     		mov	r6, r0
 2400 0004 0D46     		mov	r5, r1
  52:Logger.cpp    ****     for(int i = 0; i < count; i++)
 2401              		.loc 6 52 46 view .LVU606
 2402 0006 0B4C     		ldr	r4, .L113
 2403 0008 FFF7FEFF 		bl	_ZN5daisy6System7GetTickEv
 2404              	.LVL199:
  52:Logger.cpp    ****     for(int i = 0; i < count; i++)
 2405              		.loc 6 52 46 view .LVU607
 2406 000c 0746     		mov	r7, r0
 2407              	.LVL200:
 2408              	.LBB969:
  53:Logger.cpp    ****     {
 2409              		.loc 6 53 22 is_stmt 1 view .LVU608
 2410              	.L110:
  55:Logger.cpp    ****     }
ARM GAS  /tmp/ccIu4BI8.s 			page 61


 2411              		.loc 6 55 17 is_stmt 0 discriminator 2 view .LVU609
 2412 000e 2946     		mov	r1, r5
 2413 0010 3046     		mov	r0, r6
 2414 0012 FFF7FEFF 		bl	_ZN5daisy6LoggerILNS_17LoggerDestinationE2EE5PrintEPKcz
 2415              	.LVL201:
  53:Logger.cpp    ****     {
 2416              		.loc 6 53 5 is_stmt 1 discriminator 2 view .LVU610
  53:Logger.cpp    ****     {
 2417              		.loc 6 53 22 discriminator 2 view .LVU611
 2418 0016 013C     		subs	r4, r4, #1
 2419              	.LVL202:
  53:Logger.cpp    ****     {
 2420              		.loc 6 53 22 is_stmt 0 discriminator 2 view .LVU612
 2421 0018 F9D1     		bne	.L110
 2422              	.LBE969:
  57:Logger.cpp    ****     const float perf
 2423              		.loc 6 57 37 view .LVU613
 2424 001a FFF7FEFF 		bl	_ZN5daisy6System7GetTickEv
 2425              	.LVL203:
  57:Logger.cpp    ****     const float perf
 2426              		.loc 6 57 17 view .LVU614
 2427 001e C01B     		subs	r0, r0, r7
 2428              	.LVL204:
  58:Logger.cpp    ****         = (float)dt
 2429              		.loc 6 58 17 view .LVU615
 2430 0020 9FED050A 		vldr.32	s0, .L113+4
  60:Logger.cpp    ****     return perf;
 2431              		.loc 6 60 11 view .LVU616
 2432 0024 07EE900A 		vmov	s15, r0	@ int
 2433 0028 F8EE677A 		vcvt.f32.u32	s15, s15
  62:Logger.cpp    **** 
 2434              		.loc 6 62 1 view .LVU617
 2435 002c 87EE800A 		vdiv.f32	s0, s15, s0
 2436              	.LVL205:
  62:Logger.cpp    **** 
 2437              		.loc 6 62 1 view .LVU618
 2438 0030 F8BD     		pop	{r3, r4, r5, r6, r7, pc}
 2439              	.LVL206:
 2440              	.L114:
  62:Logger.cpp    **** 
 2441              		.loc 6 62 1 view .LVU619
 2442 0032 00BF     		.align	2
 2443              	.L113:
 2444 0034 A0860100 		.word	100000
 2445 0038 8096984B 		.word	1268291200
 2446              		.cfi_endproc
 2447              	.LFE2090:
 2449              		.section	.text._Z15ProfileFunctionIXadL_ZN5daisy6LoggerILNS0_17LoggerDestinationE2EE5PrintEPKczEEJ
 2450              		.align	1
 2451              		.p2align 2,,3
 2452              		.weak	_Z15ProfileFunctionIXadL_ZN5daisy6LoggerILNS0_17LoggerDestinationE2EE5PrintEPKczEEJciiEEfS5_
 2453              		.syntax unified
 2454              		.thumb
 2455              		.thumb_func
 2456              		.fpu fpv5-d16
 2458              	_Z15ProfileFunctionIXadL_ZN5daisy6LoggerILNS0_17LoggerDestinationE2EE5PrintEPKczEEJciiEEfS5_DpT0_:
 2459              	.LVL207:
ARM GAS  /tmp/ccIu4BI8.s 			page 62


 2460              	.LFB2092:
  49:Logger.cpp    **** {
 2461              		.loc 6 49 7 is_stmt 1 view -0
 2462              		.cfi_startproc
 2463              		@ args = 0, pretend = 0, frame = 0
 2464              		@ frame_needed = 0, uses_anonymous_args = 0
  49:Logger.cpp    **** {
 2465              		.loc 6 49 7 is_stmt 0 view .LVU621
 2466 0000 2DE9F843 		push	{r3, r4, r5, r6, r7, r8, r9, lr}
 2467              		.cfi_def_cfa_offset 32
 2468              		.cfi_offset 3, -32
 2469              		.cfi_offset 4, -28
 2470              		.cfi_offset 5, -24
 2471              		.cfi_offset 6, -20
 2472              		.cfi_offset 7, -16
 2473              		.cfi_offset 8, -12
 2474              		.cfi_offset 9, -8
 2475              		.cfi_offset 14, -4
  49:Logger.cpp    **** {
 2476              		.loc 6 49 7 view .LVU622
 2477 0004 8046     		mov	r8, r0
 2478 0006 0F46     		mov	r7, r1
 2479 0008 1646     		mov	r6, r2
 2480 000a 1D46     		mov	r5, r3
  52:Logger.cpp    ****     for(int i = 0; i < count; i++)
 2481              		.loc 6 52 46 view .LVU623
 2482 000c 0C4C     		ldr	r4, .L119
 2483 000e FFF7FEFF 		bl	_ZN5daisy6System7GetTickEv
 2484              	.LVL208:
  52:Logger.cpp    ****     for(int i = 0; i < count; i++)
 2485              		.loc 6 52 46 view .LVU624
 2486 0012 8146     		mov	r9, r0
 2487              	.LVL209:
 2488              	.LBB970:
  53:Logger.cpp    ****     {
 2489              		.loc 6 53 22 is_stmt 1 view .LVU625
 2490              	.L116:
  55:Logger.cpp    ****     }
 2491              		.loc 6 55 17 is_stmt 0 discriminator 2 view .LVU626
 2492 0014 2B46     		mov	r3, r5
 2493 0016 3246     		mov	r2, r6
 2494 0018 3946     		mov	r1, r7
 2495 001a 4046     		mov	r0, r8
 2496 001c FFF7FEFF 		bl	_ZN5daisy6LoggerILNS_17LoggerDestinationE2EE5PrintEPKcz
 2497              	.LVL210:
  53:Logger.cpp    ****     {
 2498              		.loc 6 53 5 is_stmt 1 discriminator 2 view .LVU627
  53:Logger.cpp    ****     {
 2499              		.loc 6 53 22 discriminator 2 view .LVU628
 2500 0020 013C     		subs	r4, r4, #1
 2501              	.LVL211:
  53:Logger.cpp    ****     {
 2502              		.loc 6 53 22 is_stmt 0 discriminator 2 view .LVU629
 2503 0022 F7D1     		bne	.L116
 2504              	.LBE970:
  57:Logger.cpp    ****     const float perf
 2505              		.loc 6 57 37 view .LVU630
ARM GAS  /tmp/ccIu4BI8.s 			page 63


 2506 0024 FFF7FEFF 		bl	_ZN5daisy6System7GetTickEv
 2507              	.LVL212:
  57:Logger.cpp    ****     const float perf
 2508              		.loc 6 57 17 view .LVU631
 2509 0028 A0EB0900 		sub	r0, r0, r9
 2510              	.LVL213:
  58:Logger.cpp    ****         = (float)dt
 2511              		.loc 6 58 17 view .LVU632
 2512 002c 9FED050A 		vldr.32	s0, .L119+4
  60:Logger.cpp    ****     return perf;
 2513              		.loc 6 60 11 view .LVU633
 2514 0030 07EE900A 		vmov	s15, r0	@ int
 2515 0034 F8EE677A 		vcvt.f32.u32	s15, s15
  62:Logger.cpp    **** 
 2516              		.loc 6 62 1 view .LVU634
 2517 0038 87EE800A 		vdiv.f32	s0, s15, s0
 2518              	.LVL214:
  62:Logger.cpp    **** 
 2519              		.loc 6 62 1 view .LVU635
 2520 003c BDE8F883 		pop	{r3, r4, r5, r6, r7, r8, r9, pc}
 2521              	.LVL215:
 2522              	.L120:
  62:Logger.cpp    **** 
 2523              		.loc 6 62 1 view .LVU636
 2524              		.align	2
 2525              	.L119:
 2526 0040 A0860100 		.word	100000
 2527 0044 8096984B 		.word	1268291200
 2528              		.cfi_endproc
 2529              	.LFE2092:
 2531              		.section	.rodata._Z12ProfilePrintIXadL_ZN5daisy6LoggerILNS0_17LoggerDestinationE2EE5PrintEPKczEEEv
 2532              		.align	2
 2533              	.LC15:
 2534 0000 00       		.ascii	"\000"
 2535 0001 000000   		.align	2
 2536              	.LC16:
 2537 0004 6100     		.ascii	"a\000"
 2538 0006 0000     		.align	2
 2539              	.LC17:
 2540 0008 61626364 		.ascii	"abcdefghijklmnopqrstuvwxyz0123456789\000"
 2540      65666768 
 2540      696A6B6C 
 2540      6D6E6F70 
 2540      71727374 
 2541 002d 000000   		.align	2
 2542              	.LC18:
 2543 0030 256400   		.ascii	"%d\000"
 2544 0033 00       		.align	2
 2545              	.LC19:
 2546 0034 257500   		.ascii	"%u\000"
 2547 0037 00       		.align	2
 2548              	.LC20:
 2549 0038 25632564 		.ascii	"%c%d.%01d\000"
 2549      2E253031 
 2549      6400
 2550 0042 0000     		.align	2
 2551              	.LC21:
ARM GAS  /tmp/ccIu4BI8.s 			page 64


 2552 0044 25632564 		.ascii	"%c%d.%02d\000"
 2552      2E253032 
 2552      6400
 2553 004e 0000     		.align	2
 2554              	.LC22:
 2555 0050 25632564 		.ascii	"%c%d.%04d\000"
 2555      2E253034 
 2555      6400
 2556              		.section	.text._Z12ProfilePrintIXadL_ZN5daisy6LoggerILNS0_17LoggerDestinationE2EE5PrintEPKczEEEvS5
 2557              		.align	1
 2558              		.p2align 2,,3
 2559              		.weak	_Z12ProfilePrintIXadL_ZN5daisy6LoggerILNS0_17LoggerDestinationE2EE5PrintEPKczEEEvS5_S5_
 2560              		.syntax unified
 2561              		.thumb
 2562              		.thumb_func
 2563              		.fpu fpv5-d16
 2565              	_Z12ProfilePrintIXadL_ZN5daisy6LoggerILNS0_17LoggerDestinationE2EE5PrintEPKczEEEvS5_S5_:
 2566              	.LVL216:
 2567              	.LFB2082:
  67:Logger.cpp    **** {
 2568              		.loc 6 67 6 is_stmt 1 view -0
 2569              		.cfi_startproc
 2570              		@ args = 0, pretend = 0, frame = 0
 2571              		@ frame_needed = 0, uses_anonymous_args = 0
  67:Logger.cpp    **** {
 2572              		.loc 6 67 6 is_stmt 0 view .LVU638
 2573 0000 F0B5     		push	{r4, r5, r6, r7, lr}
 2574              		.cfi_def_cfa_offset 20
 2575              		.cfi_offset 4, -20
 2576              		.cfi_offset 5, -16
 2577              		.cfi_offset 6, -12
 2578              		.cfi_offset 7, -8
 2579              		.cfi_offset 14, -4
 2580 0002 0446     		mov	r4, r0
  69:Logger.cpp    ****     const float print_1 = ProfileFunction<function>("a");
 2581              		.loc 6 69 52 view .LVU639
 2582 0004 C648     		ldr	r0, .L143+16
 2583              	.LVL217:
  67:Logger.cpp    **** {
 2584              		.loc 6 67 6 view .LVU640
 2585 0006 0D46     		mov	r5, r1
 2586              	.LBB1012:
 2587              	.LBB1013:
  52:Logger.cpp    ****     for(int i = 0; i < count; i++)
 2588              		.loc 6 52 46 view .LVU641
 2589 0008 C64E     		ldr	r6, .L143+20
 2590              	.LBE1013:
 2591              	.LBE1012:
  67:Logger.cpp    **** {
 2592              		.loc 6 67 6 view .LVU642
 2593 000a 2DED0C8B 		vpush.64	{d8, d9, d10, d11, d12, d13}
 2594              		.cfi_def_cfa_offset 68
 2595              		.cfi_offset 80, -68
 2596              		.cfi_offset 81, -64
 2597              		.cfi_offset 82, -60
 2598              		.cfi_offset 83, -56
 2599              		.cfi_offset 84, -52
ARM GAS  /tmp/ccIu4BI8.s 			page 65


 2600              		.cfi_offset 85, -48
 2601              		.cfi_offset 86, -44
 2602              		.cfi_offset 87, -40
 2603              		.cfi_offset 88, -36
 2604              		.cfi_offset 89, -32
 2605              		.cfi_offset 90, -28
 2606              		.cfi_offset 91, -24
 2607 000e 87B0     		sub	sp, sp, #28
 2608              		.cfi_def_cfa_offset 96
  69:Logger.cpp    ****     const float print_1 = ProfileFunction<function>("a");
 2609              		.loc 6 69 52 view .LVU643
 2610 0010 FFF7FEFF 		bl	_Z15ProfileFunctionIXadL_ZN5daisy6LoggerILNS0_17LoggerDestinationE2EE5PrintEPKczEEJEEfS5_DpT0_
 2611              	.LVL218:
  70:Logger.cpp    ****     const float print_36
 2612              		.loc 6 70 52 view .LVU644
 2613 0014 C448     		ldr	r0, .L143+24
  69:Logger.cpp    ****     const float print_1 = ProfileFunction<function>("a");
 2614              		.loc 6 69 52 view .LVU645
 2615 0016 F0EE40DA 		vmov.f32	s27, s0
 2616              	.LVL219:
  70:Logger.cpp    ****     const float print_36
 2617              		.loc 6 70 52 view .LVU646
 2618 001a FFF7FEFF 		bl	_Z15ProfileFunctionIXadL_ZN5daisy6LoggerILNS0_17LoggerDestinationE2EE5PrintEPKczEEJEEfS5_DpT0_
 2619              	.LVL220:
  72:Logger.cpp    ****     const float print_d = ProfileFunction<function>("%d", 123);
 2620              		.loc 6 72 36 view .LVU647
 2621 001e C348     		ldr	r0, .L143+28
  70:Logger.cpp    ****     const float print_36
 2622              		.loc 6 70 52 view .LVU648
 2623 0020 F0EE40CA 		vmov.f32	s25, s0
 2624              	.LVL221:
  72:Logger.cpp    ****     const float print_d = ProfileFunction<function>("%d", 123);
 2625              		.loc 6 72 36 view .LVU649
 2626 0024 FFF7FEFF 		bl	_Z15ProfileFunctionIXadL_ZN5daisy6LoggerILNS0_17LoggerDestinationE2EE5PrintEPKczEEJEEfS5_DpT0_
 2627              	.LVL222:
  73:Logger.cpp    ****     const float print_u = ProfileFunction<function>("%u", 123);
 2628              		.loc 6 73 52 view .LVU650
 2629 0028 7B21     		movs	r1, #123
 2630 002a C148     		ldr	r0, .L143+32
  72:Logger.cpp    ****     const float print_d = ProfileFunction<function>("%d", 123);
 2631              		.loc 6 72 36 view .LVU651
 2632 002c B0EE40DA 		vmov.f32	s26, s0
 2633              	.LVL223:
  73:Logger.cpp    ****     const float print_u = ProfileFunction<function>("%u", 123);
 2634              		.loc 6 73 52 view .LVU652
 2635 0030 FFF7FEFF 		bl	_Z15ProfileFunctionIXadL_ZN5daisy6LoggerILNS0_17LoggerDestinationE2EE5PrintEPKczEEJiEEfS5_DpT0_
 2636              	.LVL224:
  74:Logger.cpp    ****     const float print_f = ProfileFunction<function>("%.3f", 123.0f);
 2637              		.loc 6 74 52 view .LVU653
 2638 0034 7B21     		movs	r1, #123
 2639 0036 BF48     		ldr	r0, .L143+36
  73:Logger.cpp    ****     const float print_u = ProfileFunction<function>("%u", 123);
 2640              		.loc 6 73 52 view .LVU654
 2641 0038 B0EE40CA 		vmov.f32	s24, s0
 2642              	.LVL225:
  74:Logger.cpp    ****     const float print_f = ProfileFunction<function>("%.3f", 123.0f);
 2643              		.loc 6 74 52 view .LVU655
ARM GAS  /tmp/ccIu4BI8.s 			page 66


 2644 003c FFF7FEFF 		bl	_Z15ProfileFunctionIXadL_ZN5daisy6LoggerILNS0_17LoggerDestinationE2EE5PrintEPKczEEJiEEfS5_DpT0_
 2645              	.LVL226:
  74:Logger.cpp    ****     const float print_f = ProfileFunction<function>("%.3f", 123.0f);
 2646              		.loc 6 74 52 view .LVU656
 2647 0040 B0EE40BA 		vmov.f32	s22, s0
 2648              	.LVL227:
 2649              	.LBB1019:
 2650              	.LBI1012:
  49:Logger.cpp    **** {
 2651              		.loc 6 49 7 is_stmt 1 view .LVU657
 2652              	.LBB1015:
  52:Logger.cpp    ****     for(int i = 0; i < count; i++)
 2653              		.loc 6 52 46 is_stmt 0 view .LVU658
 2654 0044 FFF7FEFF 		bl	_ZN5daisy6System7GetTickEv
 2655              	.LVL228:
  52:Logger.cpp    ****     for(int i = 0; i < count; i++)
 2656              		.loc 6 52 46 view .LVU659
 2657 0048 0746     		mov	r7, r0
 2658              	.LVL229:
 2659              	.LBB1014:
  53:Logger.cpp    ****     {
 2660              		.loc 6 53 22 is_stmt 1 view .LVU660
 2661              	.L122:
  55:Logger.cpp    ****     }
 2662              		.loc 6 55 17 is_stmt 0 view .LVU661
 2663 004a BB48     		ldr	r0, .L143+40
 2664 004c B0A3     		adr	r3, .L143
 2665 004e D3E90023 		ldrd	r2, [r3]
 2666 0052 FFF7FEFF 		bl	_ZN5daisy6LoggerILNS_17LoggerDestinationE2EE5PrintEPKcz
 2667              	.LVL230:
  53:Logger.cpp    ****     {
 2668              		.loc 6 53 5 is_stmt 1 view .LVU662
  53:Logger.cpp    ****     {
 2669              		.loc 6 53 22 view .LVU663
 2670 0056 013E     		subs	r6, r6, #1
 2671              	.LVL231:
  53:Logger.cpp    ****     {
 2672              		.loc 6 53 22 is_stmt 0 view .LVU664
 2673 0058 F7D1     		bne	.L122
 2674              	.LBE1014:
  57:Logger.cpp    ****     const float perf
 2675              		.loc 6 57 37 view .LVU665
 2676 005a FFF7FEFF 		bl	_ZN5daisy6System7GetTickEv
 2677              	.LVL232:
  57:Logger.cpp    ****     const float perf
 2678              		.loc 6 57 17 view .LVU666
 2679 005e C21B     		subs	r2, r0, r7
 2680              	.LVL233:
  58:Logger.cpp    ****         = (float)dt
 2681              		.loc 6 58 17 view .LVU667
 2682 0060 9FEDB67A 		vldr.32	s14, .L143+44
 2683              	.LBE1015:
 2684              	.LBE1019:
  77:Logger.cpp    ****     const float print_F2
 2685              		.loc 6 77 36 view .LVU668
 2686 0064 3346     		mov	r3, r6
 2687              	.LBB1020:
ARM GAS  /tmp/ccIu4BI8.s 			page 67


 2688              	.LBB1016:
  57:Logger.cpp    ****     const float perf
 2689              		.loc 6 57 17 view .LVU669
 2690 0066 07EE902A 		vmov	s15, r2	@ int
 2691              	.LBE1016:
 2692              	.LBE1020:
  77:Logger.cpp    ****     const float print_F2
 2693              		.loc 6 77 36 view .LVU670
 2694 006a 2021     		movs	r1, #32
 2695 006c 7B22     		movs	r2, #123
 2696              	.LVL234:
  77:Logger.cpp    ****     const float print_F2
 2697              		.loc 6 77 36 view .LVU671
 2698 006e B448     		ldr	r0, .L143+48
 2699              	.LBB1021:
 2700              	.LBB1017:
  60:Logger.cpp    ****     return perf;
 2701              		.loc 6 60 11 view .LVU672
 2702 0070 F8EE677A 		vcvt.f32.u32	s15, s15
 2703              	.LVL235:
  60:Logger.cpp    ****     return perf;
 2704              		.loc 6 60 11 view .LVU673
 2705              	.LBE1017:
 2706              	.LBE1021:
  92:Logger.cpp    ****     hw.PrintLine("%s - %s (   text string):" FLT_FMT3 " us/call +" FLT_FMT3
 2707              		.loc 6 92 18 view .LVU674
 2708 0074 9FEDA88B 		vldr.64	d8, .L143+8
 2709              	.LBB1022:
 2710              	.LBB1018:
  58:Logger.cpp    ****         = (float)dt
 2711              		.loc 6 58 17 view .LVU675
 2712 0078 87EE879A 		vdiv.f32	s18, s15, s14
 2713              	.LVL236:
  58:Logger.cpp    ****         = (float)dt
 2714              		.loc 6 58 17 view .LVU676
 2715              	.LBE1018:
 2716              	.LBE1022:
  77:Logger.cpp    ****     const float print_F2
 2717              		.loc 6 77 36 view .LVU677
 2718 007c FFF7FEFF 		bl	_Z15ProfileFunctionIXadL_ZN5daisy6LoggerILNS0_17LoggerDestinationE2EE5PrintEPKczEEJciiEEfS5_DpT
 2719              	.LVL237:
  79:Logger.cpp    ****     const float print_F3
 2720              		.loc 6 79 36 view .LVU678
 2721 0080 3346     		mov	r3, r6
 2722 0082 7B22     		movs	r2, #123
 2723 0084 2021     		movs	r1, #32
 2724 0086 AF48     		ldr	r0, .L143+52
  77:Logger.cpp    ****     const float print_F2
 2725              		.loc 6 77 36 view .LVU679
 2726 0088 F0EE40BA 		vmov.f32	s23, s0
 2727              	.LVL238:
  79:Logger.cpp    ****     const float print_F3
 2728              		.loc 6 79 36 view .LVU680
 2729 008c FFF7FEFF 		bl	_Z15ProfileFunctionIXadL_ZN5daisy6LoggerILNS0_17LoggerDestinationE2EE5PrintEPKczEEJciiEEfS5_DpT
 2730              	.LVL239:
  81:Logger.cpp    ****     const float print_F4
 2731              		.loc 6 81 36 view .LVU681
ARM GAS  /tmp/ccIu4BI8.s 			page 68


 2732 0090 3346     		mov	r3, r6
 2733 0092 7B22     		movs	r2, #123
 2734 0094 2021     		movs	r1, #32
 2735 0096 AC48     		ldr	r0, .L143+56
  79:Logger.cpp    ****     const float print_F3
 2736              		.loc 6 79 36 view .LVU682
 2737 0098 F0EE40AA 		vmov.f32	s21, s0
 2738              	.LVL240:
  81:Logger.cpp    ****     const float print_F4
 2739              		.loc 6 81 36 view .LVU683
 2740 009c FFF7FEFF 		bl	_Z15ProfileFunctionIXadL_ZN5daisy6LoggerILNS0_17LoggerDestinationE2EE5PrintEPKczEEJciiEEfS5_DpT
 2741              	.LVL241:
  83:Logger.cpp    **** 
 2742              		.loc 6 83 36 view .LVU684
 2743 00a0 3346     		mov	r3, r6
 2744 00a2 7B22     		movs	r2, #123
 2745 00a4 2021     		movs	r1, #32
 2746 00a6 A948     		ldr	r0, .L143+60
  81:Logger.cpp    ****     const float print_F4
 2747              		.loc 6 81 36 view .LVU685
 2748 00a8 B0EE40AA 		vmov.f32	s20, s0
 2749              	.LVL242:
  83:Logger.cpp    **** 
 2750              		.loc 6 83 36 view .LVU686
 2751 00ac FFF7FEFF 		bl	_Z15ProfileFunctionIXadL_ZN5daisy6LoggerILNS0_17LoggerDestinationE2EE5PrintEPKczEEJciiEEfS5_DpT
 2752              	.LVL243:
 2753              	.LBB1023:
 2754              	.LBB1024:
 2755              		.loc 7 76 31 view .LVU687
 2756 00b0 B0EEED7A 		vabs.f32	s14, s27
 2757              	.LBE1024:
 2758              	.LBE1023:
  86:Logger.cpp    ****     const float intercept = print_1 - slope;
 2759              		.loc 6 86 17 view .LVU688
 2760 00b4 DFEDA66A 		vldr.32	s13, .L143+64
  86:Logger.cpp    ****     const float intercept = print_1 - slope;
 2761              		.loc 6 86 39 view .LVU689
 2762 00b8 3DEE6CDA 		vsub.f32	s26, s26, s25
 2763              	.LVL244:
 2764              	.LBB1026:
 2765              	.LBB1027:
 2766              		.loc 1 124 23 view .LVU690
 2767 00bc 2A46     		mov	r2, r5
 2768              	.LBE1027:
 2769              	.LBE1026:
  89:Logger.cpp    ****                  class_caption,
 2770              		.loc 6 89 17 view .LVU691
 2771 00be F5EEC0DA 		vcmpe.f32	s27, #0
 2772              	.LBB1033:
 2773              	.LBB1028:
 2774              		.loc 1 124 23 view .LVU692
 2775 00c2 2146     		mov	r1, r4
 2776              	.LBE1028:
 2777              	.LBE1033:
  89:Logger.cpp    ****                  class_caption,
 2778              		.loc 6 89 17 view .LVU693
 2779 00c4 FDEEC77A 		vcvt.s32.f32	s15, s14
ARM GAS  /tmp/ccIu4BI8.s 			page 69


 2780              	.LBB1034:
 2781              	.LBB1029:
 2782              		.loc 1 124 23 view .LVU694
 2783 00c8 A248     		ldr	r0, .L143+68
 2784              	.LBE1029:
 2785              	.LBE1034:
  86:Logger.cpp    ****     const float intercept = print_1 - slope;
 2786              		.loc 6 86 17 view .LVU695
 2787 00ca CDEE26DA 		vdiv.f32	s27, s26, s13
 2788              	.LVL245:
 2789              	.LBB1035:
 2790              	.LBB1030:
 2791              		.loc 1 124 23 view .LVU696
 2792 00ce CDED007A 		vstr.32	s15, [sp]	@ int
 2793              	.LBE1030:
 2794              	.LBE1035:
  92:Logger.cpp    ****     hw.PrintLine("%s - %s (   text string):" FLT_FMT3 " us/call +" FLT_FMT3
 2795              		.loc 6 92 18 view .LVU697
 2796 00d2 F8EEE77A 		vcvt.f32.s32	s15, s15
  89:Logger.cpp    ****                  class_caption,
 2797              		.loc 6 89 17 view .LVU698
 2798 00d6 F1EE10FA 		vmrs	APSR_nzcv, FPSCR
  83:Logger.cpp    **** 
 2799              		.loc 6 83 36 view .LVU699
 2800 00da F0EE409A 		vmov.f32	s19, s0
 2801              	.LVL246:
  92:Logger.cpp    ****     hw.PrintLine("%s - %s (   text string):" FLT_FMT3 " us/call +" FLT_FMT3
 2802              		.loc 6 92 18 view .LVU700
 2803 00de 37EE677A 		vsub.f32	s14, s14, s15
 2804              	.LBB1036:
 2805              	.LBB1031:
 2806              		.loc 1 124 23 view .LVU701
 2807 00e2 4CBF     		ite	mi
 2808 00e4 2D23     		movmi	r3, #45
 2809 00e6 2023     		movpl	r3, #32
 2810              	.LBE1031:
 2811              	.LBE1036:
  92:Logger.cpp    ****     hw.PrintLine("%s - %s (   text string):" FLT_FMT3 " us/call +" FLT_FMT3
 2812              		.loc 6 92 18 view .LVU702
 2813 00e8 B7EEC77A 		vcvt.f64.f32	d7, s14
 2814 00ec 27EE087B 		vmul.f64	d7, d7, d8
  87:Logger.cpp    **** 
 2815              		.loc 6 87 17 view .LVU703
 2816 00f0 7CEEEDCA 		vsub.f32	s25, s25, s27
 2817              	.LVL247:
 2818              	.LBB1037:
 2819              	.LBI1023:
  75:/usr/include/newlib/c++/9.2.1/bits/std_abs.h ****   { return __builtin_fabsf(__x); }
 2820              		.loc 7 75 3 is_stmt 1 view .LVU704
 2821              	.LBB1025:
 2822              		.loc 7 76 5 view .LVU705
 2823              		.loc 7 76 5 is_stmt 0 view .LVU706
 2824              	.LBE1025:
 2825              	.LBE1037:
 2826              		.loc 7 76 5 is_stmt 1 view .LVU707
 2827              		.loc 7 76 5 view .LVU708
 2828              	.LBB1038:
ARM GAS  /tmp/ccIu4BI8.s 			page 70


 2829              	.LBI1026:
 122:../../libdaisy/src/daisy_seed.h ****     {
 2830              		.loc 1 122 17 view .LVU709
 2831              	.LBE1038:
  89:Logger.cpp    ****                  class_caption,
 2832              		.loc 6 89 17 is_stmt 0 view .LVU710
 2833 00f4 BDEEC77B 		vcvt.s32.f64	s14, d7
 2834              	.LBB1039:
 2835              	.LBB1032:
 2836              		.loc 1 124 23 view .LVU711
 2837 00f8 8DED017A 		vstr.32	s14, [sp, #4]	@ int
 2838 00fc FFF7FEFF 		bl	_ZN5daisy6LoggerILNS_17LoggerDestinationE1EE9PrintLineEPKcz
 2839              	.LVL248:
 2840              		.loc 1 124 23 view .LVU712
 2841              	.LBE1032:
 2842              	.LBE1039:
 2843              	.LBB1040:
 2844              	.LBB1041:
 2845              		.loc 7 76 31 view .LVU713
 2846 0100 B0EEEC6A 		vabs.f32	s12, s25
 2847              	.LBE1041:
 2848              	.LBE1040:
 2849              	.LBB1043:
 2850              	.LBB1044:
 2851 0104 B0EEED7A 		vabs.f32	s14, s27
 2852              	.LBE1044:
 2853              	.LBE1043:
 2854              	.LBB1046:
 2855              	.LBB1047:
 2856              		.loc 1 124 23 view .LVU714
 2857 0108 2A46     		mov	r2, r5
 2858              	.LBE1047:
 2859              	.LBE1046:
  93:Logger.cpp    ****                  " us/char",
 2860              		.loc 6 93 17 view .LVU715
 2861 010a F5EEC0CA 		vcmpe.f32	s25, #0
 2862              	.LBB1054:
 2863              	.LBB1048:
 2864              		.loc 1 124 23 view .LVU716
 2865 010e 2146     		mov	r1, r4
 2866              	.LBE1048:
 2867              	.LBE1054:
  93:Logger.cpp    ****                  " us/char",
 2868              		.loc 6 93 17 view .LVU717
 2869 0110 FDEEC66A 		vcvt.s32.f32	s13, s12
 2870              	.LBB1055:
 2871              	.LBB1049:
 2872              		.loc 1 124 23 view .LVU718
 2873 0114 9048     		ldr	r0, .L143+72
 2874              	.LBE1049:
 2875              	.LBE1055:
  93:Logger.cpp    ****                  " us/char",
 2876              		.loc 6 93 17 view .LVU719
 2877 0116 FDEEC77A 		vcvt.s32.f32	s15, s14
 2878 011a F1EE10FA 		vmrs	APSR_nzcv, FPSCR
  97:Logger.cpp    ****                  FLT_VAR3(slope));
 2879              		.loc 6 97 18 view .LVU720
ARM GAS  /tmp/ccIu4BI8.s 			page 71


 2880 011e F8EEE65A 		vcvt.f32.s32	s11, s13
 2881              	.LBB1056:
 2882              	.LBB1050:
 2883              		.loc 1 124 23 view .LVU721
 2884 0122 CDED006A 		vstr.32	s13, [sp]	@ int
 2885              	.LBE1050:
 2886              	.LBE1056:
  98:Logger.cpp    ****     hw.PrintLine("%s - %s ( integer value):" FLT_FMT3 " us/call",
 2887              		.loc 6 98 18 view .LVU722
 2888 0126 F8EEE76A 		vcvt.f32.s32	s13, s15
 2889              	.LBB1057:
 2890              	.LBB1051:
 2891              		.loc 1 124 23 view .LVU723
 2892 012a CDED037A 		vstr.32	s15, [sp, #12]	@ int
 2893              	.LBE1051:
 2894              	.LBE1057:
  93:Logger.cpp    ****                  " us/char",
 2895              		.loc 6 93 17 view .LVU724
 2896 012e F5EEC0DA 		vcmpe.f32	s27, #0
 2897 0132 48BF     		it	mi
 2898 0134 2D23     		movmi	r3, #45
  97:Logger.cpp    ****                  FLT_VAR3(slope));
 2899              		.loc 6 97 18 view .LVU725
 2900 0136 36EE656A 		vsub.f32	s12, s12, s11
  93:Logger.cpp    ****                  " us/char",
 2901              		.loc 6 93 17 view .LVU726
 2902 013a 58BF     		it	pl
 2903 013c 2023     		movpl	r3, #32
 2904              	.LVL249:
 2905              	.LBB1058:
 2906              	.LBI1040:
  75:/usr/include/newlib/c++/9.2.1/bits/std_abs.h ****   { return __builtin_fabsf(__x); }
 2907              		.loc 7 75 3 is_stmt 1 view .LVU727
 2908              	.LBB1042:
 2909              		.loc 7 76 5 view .LVU728
 2910              		.loc 7 76 5 is_stmt 0 view .LVU729
 2911              	.LBE1042:
 2912              	.LBE1058:
 2913              		.loc 7 76 5 is_stmt 1 view .LVU730
 2914              		.loc 7 76 5 view .LVU731
  98:Logger.cpp    ****     hw.PrintLine("%s - %s ( integer value):" FLT_FMT3 " us/call",
 2915              		.loc 6 98 18 is_stmt 0 view .LVU732
 2916 013e 37EE667A 		vsub.f32	s14, s14, s13
  93:Logger.cpp    ****                  " us/char",
 2917              		.loc 6 93 17 view .LVU733
 2918 0142 F1EE10FA 		vmrs	APSR_nzcv, FPSCR
  97:Logger.cpp    ****                  FLT_VAR3(slope));
 2919              		.loc 6 97 18 view .LVU734
 2920 0146 B7EEC66A 		vcvt.f64.f32	d6, s12
  98:Logger.cpp    ****     hw.PrintLine("%s - %s ( integer value):" FLT_FMT3 " us/call",
 2921              		.loc 6 98 18 view .LVU735
 2922 014a B7EEC77A 		vcvt.f64.f32	d7, s14
  93:Logger.cpp    ****                  " us/char",
 2923              		.loc 6 93 17 view .LVU736
 2924 014e 4CBF     		ite	mi
 2925 0150 2D26     		movmi	r6, #45
 2926 0152 2026     		movpl	r6, #32
ARM GAS  /tmp/ccIu4BI8.s 			page 72


 2927              	.LVL250:
 2928              	.LBB1059:
 2929              	.LBI1043:
  75:/usr/include/newlib/c++/9.2.1/bits/std_abs.h ****   { return __builtin_fabsf(__x); }
 2930              		.loc 7 75 3 is_stmt 1 view .LVU737
 2931              	.LBB1045:
 2932              		.loc 7 76 5 view .LVU738
 2933              		.loc 7 76 5 is_stmt 0 view .LVU739
 2934              	.LBE1045:
 2935              	.LBE1059:
 2936              		.loc 7 76 5 is_stmt 1 view .LVU740
 2937              		.loc 7 76 5 view .LVU741
  97:Logger.cpp    ****                  FLT_VAR3(slope));
 2938              		.loc 6 97 18 is_stmt 0 view .LVU742
 2939 0154 26EE086B 		vmul.f64	d6, d6, d8
 2940              	.LBB1060:
 2941              	.LBB1052:
 2942              		.loc 1 124 23 view .LVU743
 2943 0158 0296     		str	r6, [sp, #8]
 2944              	.LBE1052:
 2945              	.LBE1060:
  98:Logger.cpp    ****     hw.PrintLine("%s - %s ( integer value):" FLT_FMT3 " us/call",
 2946              		.loc 6 98 18 view .LVU744
 2947 015a 27EE087B 		vmul.f64	d7, d7, d8
  93:Logger.cpp    ****                  " us/char",
 2948              		.loc 6 93 17 view .LVU745
 2949 015e BDEEC66B 		vcvt.s32.f64	s12, d6
 2950              	.LVL251:
 2951              	.LBB1061:
 2952              	.LBI1046:
 122:../../libdaisy/src/daisy_seed.h ****     {
 2953              		.loc 1 122 17 is_stmt 1 view .LVU746
 2954              	.LBE1061:
  93:Logger.cpp    ****                  " us/char",
 2955              		.loc 6 93 17 is_stmt 0 view .LVU747
 2956 0162 BDEEC77B 		vcvt.s32.f64	s14, d7
 2957              	.LBB1062:
 2958              	.LBB1053:
 2959              		.loc 1 124 23 view .LVU748
 2960 0166 8DED016A 		vstr.32	s12, [sp, #4]	@ int
 2961 016a 8DED047A 		vstr.32	s14, [sp, #16]	@ int
 2962 016e FFF7FEFF 		bl	_ZN5daisy6LoggerILNS_17LoggerDestinationE1EE9PrintLineEPKcz
 2963              	.LVL252:
 2964              		.loc 1 124 23 view .LVU749
 2965              	.LBE1053:
 2966              	.LBE1062:
 2967              	.LBB1063:
 2968              	.LBI1063:
  75:/usr/include/newlib/c++/9.2.1/bits/std_abs.h ****   { return __builtin_fabsf(__x); }
 2969              		.loc 7 75 3 is_stmt 1 view .LVU750
 2970              	.LBB1064:
 2971              		.loc 7 76 5 view .LVU751
 2972              		.loc 7 76 31 is_stmt 0 view .LVU752
 2973 0172 B0EECC7A 		vabs.f32	s14, s24
 2974              	.LVL253:
 2975              		.loc 7 76 31 view .LVU753
 2976              	.LBE1064:
ARM GAS  /tmp/ccIu4BI8.s 			page 73


 2977              	.LBE1063:
  99:Logger.cpp    ****                  class_caption,
 2978              		.loc 6 99 17 view .LVU754
 2979 0176 B5EEC0CA 		vcmpe.f32	s24, #0
 2980              	.LBB1065:
 2981              	.LBB1066:
 2982              		.loc 1 124 23 view .LVU755
 2983 017a 2A46     		mov	r2, r5
 2984 017c 2146     		mov	r1, r4
 2985 017e 7748     		ldr	r0, .L143+76
 2986              	.LBE1066:
 2987              	.LBE1065:
  99:Logger.cpp    ****                  class_caption,
 2988              		.loc 6 99 17 view .LVU756
 2989 0180 FDEEC77A 		vcvt.s32.f32	s15, s14
 2990              	.LVL254:
 2991              		.loc 7 76 5 is_stmt 1 view .LVU757
 2992              		.loc 7 76 5 view .LVU758
 2993              	.LBB1069:
 2994              	.LBI1065:
 122:../../libdaisy/src/daisy_seed.h ****     {
 2995              		.loc 1 122 17 view .LVU759
 2996              	.LBE1069:
  99:Logger.cpp    ****                  class_caption,
 2997              		.loc 6 99 17 is_stmt 0 view .LVU760
 2998 0184 F1EE10FA 		vmrs	APSR_nzcv, FPSCR
 102:Logger.cpp    ****     hw.PrintLine("%s - %s (unsigned value):" FLT_FMT3 " us/call",
 2999              		.loc 6 102 18 view .LVU761
 3000 0188 F8EEE76A 		vcvt.f32.s32	s13, s15
 3001              	.LVL255:
 3002              	.LBB1070:
 3003              	.LBB1067:
 3004              		.loc 1 124 23 view .LVU762
 3005 018c CDED007A 		vstr.32	s15, [sp]	@ int
 3006 0190 4CBF     		ite	mi
 3007 0192 2D23     		movmi	r3, #45
 3008 0194 2023     		movpl	r3, #32
 3009              	.LBE1067:
 3010              	.LBE1070:
 102:Logger.cpp    ****     hw.PrintLine("%s - %s (unsigned value):" FLT_FMT3 " us/call",
 3011              		.loc 6 102 18 view .LVU763
 3012 0196 37EE667A 		vsub.f32	s14, s14, s13
 3013              	.LVL256:
 102:Logger.cpp    ****     hw.PrintLine("%s - %s (unsigned value):" FLT_FMT3 " us/call",
 3014              		.loc 6 102 18 view .LVU764
 3015 019a B7EEC77A 		vcvt.f64.f32	d7, s14
 3016 019e 27EE087B 		vmul.f64	d7, d7, d8
  99:Logger.cpp    ****                  class_caption,
 3017              		.loc 6 99 17 view .LVU765
 3018 01a2 BDEEC77B 		vcvt.s32.f64	s14, d7
 3019              	.LBB1071:
 3020              	.LBB1068:
 3021              		.loc 1 124 23 view .LVU766
 3022 01a6 8DED017A 		vstr.32	s14, [sp, #4]	@ int
 3023 01aa FFF7FEFF 		bl	_ZN5daisy6LoggerILNS_17LoggerDestinationE1EE9PrintLineEPKcz
 3024              	.LVL257:
 3025              		.loc 1 124 23 view .LVU767
ARM GAS  /tmp/ccIu4BI8.s 			page 74


 3026              	.LBE1068:
 3027              	.LBE1071:
 3028              	.LBB1072:
 3029              	.LBI1072:
  75:/usr/include/newlib/c++/9.2.1/bits/std_abs.h ****   { return __builtin_fabsf(__x); }
 3030              		.loc 7 75 3 is_stmt 1 view .LVU768
 3031              	.LBB1073:
 3032              		.loc 7 76 5 view .LVU769
 3033              		.loc 7 76 31 is_stmt 0 view .LVU770
 3034 01ae B0EECB7A 		vabs.f32	s14, s22
 3035              	.LVL258:
 3036              		.loc 7 76 31 view .LVU771
 3037              	.LBE1073:
 3038              	.LBE1072:
 103:Logger.cpp    ****                  class_caption,
 3039              		.loc 6 103 17 view .LVU772
 3040 01b2 B5EEC0BA 		vcmpe.f32	s22, #0
 3041              	.LBB1074:
 3042              	.LBB1075:
 3043              		.loc 1 124 23 view .LVU773
 3044 01b6 2A46     		mov	r2, r5
 3045 01b8 2146     		mov	r1, r4
 3046 01ba 6948     		ldr	r0, .L143+80
 3047              	.LBE1075:
 3048              	.LBE1074:
 103:Logger.cpp    ****                  class_caption,
 3049              		.loc 6 103 17 view .LVU774
 3050 01bc FDEEC77A 		vcvt.s32.f32	s15, s14
 3051              	.LVL259:
 3052              		.loc 7 76 5 is_stmt 1 view .LVU775
 3053              		.loc 7 76 5 view .LVU776
 3054              	.LBB1078:
 3055              	.LBI1074:
 122:../../libdaisy/src/daisy_seed.h ****     {
 3056              		.loc 1 122 17 view .LVU777
 3057              	.LBE1078:
 103:Logger.cpp    ****                  class_caption,
 3058              		.loc 6 103 17 is_stmt 0 view .LVU778
 3059 01c0 F1EE10FA 		vmrs	APSR_nzcv, FPSCR
 106:Logger.cpp    ****     hw.PrintLine("%s - %s ( float.3 value):" FLT_FMT3 " us/call",
 3060              		.loc 6 106 18 view .LVU779
 3061 01c4 F8EEE76A 		vcvt.f32.s32	s13, s15
 3062              	.LVL260:
 3063              	.LBB1079:
 3064              	.LBB1076:
 3065              		.loc 1 124 23 view .LVU780
 3066 01c8 CDED007A 		vstr.32	s15, [sp]	@ int
 3067 01cc 4CBF     		ite	mi
 3068 01ce 2D23     		movmi	r3, #45
 3069 01d0 2023     		movpl	r3, #32
 3070              	.LBE1076:
 3071              	.LBE1079:
 106:Logger.cpp    ****     hw.PrintLine("%s - %s ( float.3 value):" FLT_FMT3 " us/call",
 3072              		.loc 6 106 18 view .LVU781
 3073 01d2 37EE667A 		vsub.f32	s14, s14, s13
 3074              	.LVL261:
 106:Logger.cpp    ****     hw.PrintLine("%s - %s ( float.3 value):" FLT_FMT3 " us/call",
ARM GAS  /tmp/ccIu4BI8.s 			page 75


 3075              		.loc 6 106 18 view .LVU782
 3076 01d6 B7EEC77A 		vcvt.f64.f32	d7, s14
 3077 01da 27EE087B 		vmul.f64	d7, d7, d8
 103:Logger.cpp    ****                  class_caption,
 3078              		.loc 6 103 17 view .LVU783
 3079 01de BDEEC77B 		vcvt.s32.f64	s14, d7
 3080              	.LBB1080:
 3081              	.LBB1077:
 3082              		.loc 1 124 23 view .LVU784
 3083 01e2 8DED017A 		vstr.32	s14, [sp, #4]	@ int
 3084 01e6 FFF7FEFF 		bl	_ZN5daisy6LoggerILNS_17LoggerDestinationE1EE9PrintLineEPKcz
 3085              	.LVL262:
 3086              		.loc 1 124 23 view .LVU785
 3087              	.LBE1077:
 3088              	.LBE1080:
 3089              		.loc 7 76 5 is_stmt 1 view .LVU786
 107:Logger.cpp    ****                  class_caption,
 3090              		.loc 6 107 17 is_stmt 0 view .LVU787
 3091 01ea FDEEC97A 		vcvt.s32.f32	s15, s18
 3092              	.LVL263:
 3093              		.loc 7 76 5 is_stmt 1 view .LVU788
 3094              		.loc 7 76 5 view .LVU789
 3095              	.LBB1081:
 3096              	.LBI1081:
 122:../../libdaisy/src/daisy_seed.h ****     {
 3097              		.loc 1 122 17 view .LVU790
 3098              	.LBB1082:
 3099              		.loc 1 124 23 is_stmt 0 view .LVU791
 3100 01ee 2023     		movs	r3, #32
 3101 01f0 2A46     		mov	r2, r5
 3102 01f2 2146     		mov	r1, r4
 3103 01f4 5B48     		ldr	r0, .L143+84
 3104              	.LBE1082:
 3105              	.LBE1081:
 110:Logger.cpp    ****     hw.PrintLine("%s - %s (FLT_VAR1 value):" FLT_FMT3 " us/call",
 3106              		.loc 6 110 18 view .LVU792
 3107 01f6 B8EEE77A 		vcvt.f32.s32	s14, s15
 3108              	.LVL264:
 3109              	.LBB1085:
 3110              	.LBB1083:
 3111              		.loc 1 124 23 view .LVU793
 3112 01fa CDED007A 		vstr.32	s15, [sp]	@ int
 3113              	.LBE1083:
 3114              	.LBE1085:
 110:Logger.cpp    ****     hw.PrintLine("%s - %s (FLT_VAR1 value):" FLT_FMT3 " us/call",
 3115              		.loc 6 110 18 view .LVU794
 3116 01fe 39EE477A 		vsub.f32	s14, s18, s14
 3117              	.LVL265:
 110:Logger.cpp    ****     hw.PrintLine("%s - %s (FLT_VAR1 value):" FLT_FMT3 " us/call",
 3118              		.loc 6 110 18 view .LVU795
 3119 0202 B7EEC77A 		vcvt.f64.f32	d7, s14
 3120 0206 27EE087B 		vmul.f64	d7, d7, d8
 107:Logger.cpp    ****                  class_caption,
 3121              		.loc 6 107 17 view .LVU796
 3122 020a BDEEC77B 		vcvt.s32.f64	s14, d7
 3123              	.LBB1086:
 3124              	.LBB1084:
ARM GAS  /tmp/ccIu4BI8.s 			page 76


 3125              		.loc 1 124 23 view .LVU797
 3126 020e 8DED017A 		vstr.32	s14, [sp, #4]	@ int
 3127 0212 FFF7FEFF 		bl	_ZN5daisy6LoggerILNS_17LoggerDestinationE1EE9PrintLineEPKcz
 3128              	.LVL266:
 3129              		.loc 1 124 23 view .LVU798
 3130              	.LBE1084:
 3131              	.LBE1086:
 3132              	.LBB1087:
 3133              	.LBI1087:
  75:/usr/include/newlib/c++/9.2.1/bits/std_abs.h ****   { return __builtin_fabsf(__x); }
 3134              		.loc 7 75 3 is_stmt 1 view .LVU799
 3135              	.LBB1088:
 3136              		.loc 7 76 5 view .LVU800
 3137              		.loc 7 76 31 is_stmt 0 view .LVU801
 3138 0216 B0EEEB7A 		vabs.f32	s14, s23
 3139              	.LVL267:
 3140              		.loc 7 76 31 view .LVU802
 3141              	.LBE1088:
 3142              	.LBE1087:
 111:Logger.cpp    ****                  class_caption,
 3143              		.loc 6 111 17 view .LVU803
 3144 021a F5EEC0BA 		vcmpe.f32	s23, #0
 3145              	.LBB1089:
 3146              	.LBB1090:
 3147              		.loc 1 124 23 view .LVU804
 3148 021e 2A46     		mov	r2, r5
 3149 0220 2146     		mov	r1, r4
 3150 0222 5148     		ldr	r0, .L143+88
 3151              	.LBE1090:
 3152              	.LBE1089:
 111:Logger.cpp    ****                  class_caption,
 3153              		.loc 6 111 17 view .LVU805
 3154 0224 FDEEC77A 		vcvt.s32.f32	s15, s14
 3155              	.LVL268:
 3156              		.loc 7 76 5 is_stmt 1 view .LVU806
 3157              		.loc 7 76 5 view .LVU807
 3158              	.LBB1093:
 3159              	.LBI1089:
 122:../../libdaisy/src/daisy_seed.h ****     {
 3160              		.loc 1 122 17 view .LVU808
 3161              	.LBE1093:
 111:Logger.cpp    ****                  class_caption,
 3162              		.loc 6 111 17 is_stmt 0 view .LVU809
 3163 0228 F1EE10FA 		vmrs	APSR_nzcv, FPSCR
 114:Logger.cpp    ****     hw.PrintLine("%s - %s (FLT_VAR2 value):" FLT_FMT3 " us/call",
 3164              		.loc 6 114 18 view .LVU810
 3165 022c F8EEE76A 		vcvt.f32.s32	s13, s15
 3166              	.LVL269:
 3167              	.LBB1094:
 3168              	.LBB1091:
 3169              		.loc 1 124 23 view .LVU811
 3170 0230 CDED007A 		vstr.32	s15, [sp]	@ int
 3171 0234 4CBF     		ite	mi
 3172 0236 2D23     		movmi	r3, #45
 3173 0238 2023     		movpl	r3, #32
 3174              	.LBE1091:
 3175              	.LBE1094:
ARM GAS  /tmp/ccIu4BI8.s 			page 77


 114:Logger.cpp    ****     hw.PrintLine("%s - %s (FLT_VAR2 value):" FLT_FMT3 " us/call",
 3176              		.loc 6 114 18 view .LVU812
 3177 023a 37EE667A 		vsub.f32	s14, s14, s13
 3178              	.LVL270:
 114:Logger.cpp    ****     hw.PrintLine("%s - %s (FLT_VAR2 value):" FLT_FMT3 " us/call",
 3179              		.loc 6 114 18 view .LVU813
 3180 023e B7EEC77A 		vcvt.f64.f32	d7, s14
 3181 0242 27EE087B 		vmul.f64	d7, d7, d8
 111:Logger.cpp    ****                  class_caption,
 3182              		.loc 6 111 17 view .LVU814
 3183 0246 BDEEC77B 		vcvt.s32.f64	s14, d7
 3184              	.LBB1095:
 3185              	.LBB1092:
 3186              		.loc 1 124 23 view .LVU815
 3187 024a 8DED017A 		vstr.32	s14, [sp, #4]	@ int
 3188 024e FFF7FEFF 		bl	_ZN5daisy6LoggerILNS_17LoggerDestinationE1EE9PrintLineEPKcz
 3189              	.LVL271:
 3190              		.loc 1 124 23 view .LVU816
 3191              	.LBE1092:
 3192              	.LBE1095:
 3193              	.LBB1096:
 3194              	.LBI1096:
  75:/usr/include/newlib/c++/9.2.1/bits/std_abs.h ****   { return __builtin_fabsf(__x); }
 3195              		.loc 7 75 3 is_stmt 1 view .LVU817
 3196              	.LBB1097:
 3197              		.loc 7 76 5 view .LVU818
 3198              		.loc 7 76 31 is_stmt 0 view .LVU819
 3199 0252 B0EEEA7A 		vabs.f32	s14, s21
 3200              	.LVL272:
 3201              		.loc 7 76 31 view .LVU820
 3202              	.LBE1097:
 3203              	.LBE1096:
 115:Logger.cpp    ****                  class_caption,
 3204              		.loc 6 115 17 view .LVU821
 3205 0256 F5EEC0AA 		vcmpe.f32	s21, #0
 3206              	.LBB1098:
 3207              	.LBB1099:
 3208              		.loc 1 124 23 view .LVU822
 3209 025a 2A46     		mov	r2, r5
 3210 025c 2146     		mov	r1, r4
 3211 025e 4348     		ldr	r0, .L143+92
 3212              	.LBE1099:
 3213              	.LBE1098:
 115:Logger.cpp    ****                  class_caption,
 3214              		.loc 6 115 17 view .LVU823
 3215 0260 FDEEC77A 		vcvt.s32.f32	s15, s14
 3216              	.LVL273:
 3217              		.loc 7 76 5 is_stmt 1 view .LVU824
 3218              		.loc 7 76 5 view .LVU825
 3219              	.LBB1102:
 3220              	.LBI1098:
 122:../../libdaisy/src/daisy_seed.h ****     {
 3221              		.loc 1 122 17 view .LVU826
 3222              	.LBE1102:
 115:Logger.cpp    ****                  class_caption,
 3223              		.loc 6 115 17 is_stmt 0 view .LVU827
 3224 0264 F1EE10FA 		vmrs	APSR_nzcv, FPSCR
ARM GAS  /tmp/ccIu4BI8.s 			page 78


 118:Logger.cpp    ****     hw.PrintLine("%s - %s (FLT_VAR3 value):" FLT_FMT3 " us/call",
 3225              		.loc 6 118 18 view .LVU828
 3226 0268 F8EEE76A 		vcvt.f32.s32	s13, s15
 3227              	.LVL274:
 3228              	.LBB1103:
 3229              	.LBB1100:
 3230              		.loc 1 124 23 view .LVU829
 3231 026c CDED007A 		vstr.32	s15, [sp]	@ int
 3232 0270 4CBF     		ite	mi
 3233 0272 2D23     		movmi	r3, #45
 3234 0274 2023     		movpl	r3, #32
 3235              	.LBE1100:
 3236              	.LBE1103:
 118:Logger.cpp    ****     hw.PrintLine("%s - %s (FLT_VAR3 value):" FLT_FMT3 " us/call",
 3237              		.loc 6 118 18 view .LVU830
 3238 0276 37EE667A 		vsub.f32	s14, s14, s13
 3239              	.LVL275:
 118:Logger.cpp    ****     hw.PrintLine("%s - %s (FLT_VAR3 value):" FLT_FMT3 " us/call",
 3240              		.loc 6 118 18 view .LVU831
 3241 027a B7EEC77A 		vcvt.f64.f32	d7, s14
 3242 027e 27EE087B 		vmul.f64	d7, d7, d8
 115:Logger.cpp    ****                  class_caption,
 3243              		.loc 6 115 17 view .LVU832
 3244 0282 BDEEC77B 		vcvt.s32.f64	s14, d7
 3245              	.LBB1104:
 3246              	.LBB1101:
 3247              		.loc 1 124 23 view .LVU833
 3248 0286 8DED017A 		vstr.32	s14, [sp, #4]	@ int
 3249 028a FFF7FEFF 		bl	_ZN5daisy6LoggerILNS_17LoggerDestinationE1EE9PrintLineEPKcz
 3250              	.LVL276:
 3251              		.loc 1 124 23 view .LVU834
 3252              	.LBE1101:
 3253              	.LBE1104:
 3254              	.LBB1105:
 3255              	.LBI1105:
  75:/usr/include/newlib/c++/9.2.1/bits/std_abs.h ****   { return __builtin_fabsf(__x); }
 3256              		.loc 7 75 3 is_stmt 1 view .LVU835
 3257              	.LBB1106:
 3258              		.loc 7 76 5 view .LVU836
 3259              		.loc 7 76 31 is_stmt 0 view .LVU837
 3260 028e B0EECA7A 		vabs.f32	s14, s20
 3261              	.LVL277:
 3262              		.loc 7 76 31 view .LVU838
 3263              	.LBE1106:
 3264              	.LBE1105:
 119:Logger.cpp    ****                  class_caption,
 3265              		.loc 6 119 17 view .LVU839
 3266 0292 B5EEC0AA 		vcmpe.f32	s20, #0
 3267              	.LBB1107:
 3268              	.LBB1108:
 3269              		.loc 1 124 23 view .LVU840
 3270 0296 2A46     		mov	r2, r5
 3271 0298 2146     		mov	r1, r4
 3272 029a 3548     		ldr	r0, .L143+96
 3273              	.LBE1108:
 3274              	.LBE1107:
 119:Logger.cpp    ****                  class_caption,
ARM GAS  /tmp/ccIu4BI8.s 			page 79


 3275              		.loc 6 119 17 view .LVU841
 3276 029c FDEEC77A 		vcvt.s32.f32	s15, s14
 3277              	.LVL278:
 3278              		.loc 7 76 5 is_stmt 1 view .LVU842
 3279              		.loc 7 76 5 view .LVU843
 3280              	.LBB1111:
 3281              	.LBI1107:
 122:../../libdaisy/src/daisy_seed.h ****     {
 3282              		.loc 1 122 17 view .LVU844
 3283              	.LBE1111:
 119:Logger.cpp    ****                  class_caption,
 3284              		.loc 6 119 17 is_stmt 0 view .LVU845
 3285 02a0 F1EE10FA 		vmrs	APSR_nzcv, FPSCR
 122:Logger.cpp    ****     hw.PrintLine("%s - %s (FLT_VAR4 value):" FLT_FMT3 " us/call",
 3286              		.loc 6 122 18 view .LVU846
 3287 02a4 F8EEE76A 		vcvt.f32.s32	s13, s15
 3288              	.LVL279:
 3289              	.LBB1112:
 3290              	.LBB1109:
 3291              		.loc 1 124 23 view .LVU847
 3292 02a8 CDED007A 		vstr.32	s15, [sp]	@ int
 3293 02ac 4CBF     		ite	mi
 3294 02ae 2D23     		movmi	r3, #45
 3295 02b0 2023     		movpl	r3, #32
 3296              	.LBE1109:
 3297              	.LBE1112:
 122:Logger.cpp    ****     hw.PrintLine("%s - %s (FLT_VAR4 value):" FLT_FMT3 " us/call",
 3298              		.loc 6 122 18 view .LVU848
 3299 02b2 37EE667A 		vsub.f32	s14, s14, s13
 3300              	.LVL280:
 122:Logger.cpp    ****     hw.PrintLine("%s - %s (FLT_VAR4 value):" FLT_FMT3 " us/call",
 3301              		.loc 6 122 18 view .LVU849
 3302 02b6 B7EEC77A 		vcvt.f64.f32	d7, s14
 3303 02ba 27EE087B 		vmul.f64	d7, d7, d8
 119:Logger.cpp    ****                  class_caption,
 3304              		.loc 6 119 17 view .LVU850
 3305 02be BDEEC77B 		vcvt.s32.f64	s14, d7
 3306              	.LBB1113:
 3307              	.LBB1110:
 3308              		.loc 1 124 23 view .LVU851
 3309 02c2 8DED017A 		vstr.32	s14, [sp, #4]	@ int
 3310 02c6 FFF7FEFF 		bl	_ZN5daisy6LoggerILNS_17LoggerDestinationE1EE9PrintLineEPKcz
 3311              	.LVL281:
 3312              		.loc 1 124 23 view .LVU852
 3313              	.LBE1110:
 3314              	.LBE1113:
 3315              	.LBB1114:
 3316              	.LBI1114:
  75:/usr/include/newlib/c++/9.2.1/bits/std_abs.h ****   { return __builtin_fabsf(__x); }
 3317              		.loc 7 75 3 is_stmt 1 view .LVU853
 3318              	.LBB1115:
 3319              		.loc 7 76 5 view .LVU854
 3320              		.loc 7 76 31 is_stmt 0 view .LVU855
 3321 02ca B0EEE97A 		vabs.f32	s14, s19
 3322              	.LVL282:
 3323              		.loc 7 76 31 view .LVU856
 3324              	.LBE1115:
ARM GAS  /tmp/ccIu4BI8.s 			page 80


 3325              	.LBE1114:
 123:Logger.cpp    ****                  class_caption,
 3326              		.loc 6 123 17 view .LVU857
 3327 02ce F5EEC09A 		vcmpe.f32	s19, #0
 3328              	.LBB1116:
 3329              	.LBB1117:
 3330              		.loc 1 124 23 view .LVU858
 3331 02d2 2A46     		mov	r2, r5
 3332 02d4 2146     		mov	r1, r4
 3333 02d6 2748     		ldr	r0, .L143+100
 3334              	.LBE1117:
 3335              	.LBE1116:
 123:Logger.cpp    ****                  class_caption,
 3336              		.loc 6 123 17 view .LVU859
 3337 02d8 FDEEC77A 		vcvt.s32.f32	s15, s14
 3338              	.LVL283:
 3339              		.loc 7 76 5 is_stmt 1 view .LVU860
 3340              		.loc 7 76 5 view .LVU861
 3341              	.LBB1120:
 3342              	.LBI1116:
 122:../../libdaisy/src/daisy_seed.h ****     {
 3343              		.loc 1 122 17 view .LVU862
 3344              	.LBE1120:
 123:Logger.cpp    ****                  class_caption,
 3345              		.loc 6 123 17 is_stmt 0 view .LVU863
 3346 02dc F1EE10FA 		vmrs	APSR_nzcv, FPSCR
 126:Logger.cpp    **** }
 3347              		.loc 6 126 18 view .LVU864
 3348 02e0 F8EEE76A 		vcvt.f32.s32	s13, s15
 3349              	.LVL284:
 3350              	.LBB1121:
 3351              	.LBB1118:
 3352              		.loc 1 124 23 view .LVU865
 3353 02e4 CDED007A 		vstr.32	s15, [sp]	@ int
 3354 02e8 4CBF     		ite	mi
 3355 02ea 2D23     		movmi	r3, #45
 3356 02ec 2023     		movpl	r3, #32
 3357              	.LBE1118:
 3358              	.LBE1121:
 126:Logger.cpp    **** }
 3359              		.loc 6 126 18 view .LVU866
 3360 02ee 37EE667A 		vsub.f32	s14, s14, s13
 3361              	.LVL285:
 126:Logger.cpp    **** }
 3362              		.loc 6 126 18 view .LVU867
 3363 02f2 B7EEC77A 		vcvt.f64.f32	d7, s14
 3364 02f6 27EE087B 		vmul.f64	d7, d7, d8
 123:Logger.cpp    ****                  class_caption,
 3365              		.loc 6 123 17 view .LVU868
 3366 02fa BDEEC77B 		vcvt.s32.f64	s14, d7
 3367              	.LBB1122:
 3368              	.LBB1119:
 3369              		.loc 1 124 23 view .LVU869
 3370 02fe 8DED017A 		vstr.32	s14, [sp, #4]	@ int
 3371 0302 FFF7FEFF 		bl	_ZN5daisy6LoggerILNS_17LoggerDestinationE1EE9PrintLineEPKcz
 3372              	.LVL286:
 3373              		.loc 1 124 23 view .LVU870
ARM GAS  /tmp/ccIu4BI8.s 			page 81


 3374              	.LBE1119:
 3375              	.LBE1122:
 127:Logger.cpp    **** 
 3376              		.loc 6 127 1 view .LVU871
 3377 0306 07B0     		add	sp, sp, #28
 3378              		.cfi_def_cfa_offset 68
 3379              		@ sp needed
 3380 0308 BDEC0C8B 		vldm	sp!, {d8-d13}
 3381              		.cfi_restore 90
 3382              		.cfi_restore 91
 3383              		.cfi_restore 88
 3384              		.cfi_restore 89
 3385              		.cfi_restore 86
 3386              		.cfi_restore 87
 3387              		.cfi_restore 84
 3388              		.cfi_restore 85
 3389              		.cfi_restore 82
 3390              		.cfi_restore 83
 3391              		.cfi_restore 80
 3392              		.cfi_restore 81
 3393              		.cfi_def_cfa_offset 20
 3394              	.LVL287:
 127:Logger.cpp    **** 
 3395              		.loc 6 127 1 view .LVU872
 3396 030c F0BD     		pop	{r4, r5, r6, r7, pc}
 3397              	.LVL288:
 3398              	.L144:
 127:Logger.cpp    **** 
 3399              		.loc 6 127 1 view .LVU873
 3400 030e 00BF     		.align	3
 3401              	.L143:
 3402 0310 00000000 		.word	0
 3403 0314 00C05E40 		.word	1079951360
 3404 0318 00000000 		.word	0
 3405 031c 00408F40 		.word	1083129856
 3406 0320 00000000 		.word	.LC15
 3407 0324 A0860100 		.word	100000
 3408 0328 04000000 		.word	.LC16
 3409 032c 08000000 		.word	.LC17
 3410 0330 30000000 		.word	.LC18
 3411 0334 34000000 		.word	.LC19
 3412 0338 1C000000 		.word	.LC3
 3413 033c 8096984B 		.word	1268291200
 3414 0340 38000000 		.word	.LC20
 3415 0344 44000000 		.word	.LC21
 3416 0348 10000000 		.word	.LC2
 3417 034c 50000000 		.word	.LC22
 3418 0350 00000C42 		.word	1108082688
 3419 0354 00000000 		.word	.LC6
 3420 0358 2C000000 		.word	.LC7
 3421 035c 6C000000 		.word	.LC8
 3422 0360 98000000 		.word	.LC9
 3423 0364 C4000000 		.word	.LC10
 3424 0368 F0000000 		.word	.LC11
 3425 036c 1C010000 		.word	.LC12
 3426 0370 48010000 		.word	.LC13
 3427 0374 74010000 		.word	.LC14
ARM GAS  /tmp/ccIu4BI8.s 			page 82


 3428              		.cfi_endproc
 3429              	.LFE2082:
 3431              		.section	.text._Z15ProfileFunctionIXadL_ZN5daisy6LoggerILNS0_17LoggerDestinationE2EE9PrintLineEPKc
 3432              		.align	1
 3433              		.p2align 2,,3
 3434              		.weak	_Z15ProfileFunctionIXadL_ZN5daisy6LoggerILNS0_17LoggerDestinationE2EE9PrintLineEPKczEEJEEfS5
 3435              		.syntax unified
 3436              		.thumb
 3437              		.thumb_func
 3438              		.fpu fpv5-d16
 3440              	_Z15ProfileFunctionIXadL_ZN5daisy6LoggerILNS0_17LoggerDestinationE2EE9PrintLineEPKczEEJEEfS5_DpT0_:
 3441              	.LVL289:
 3442              	.LFB2095:
  49:Logger.cpp    **** {
 3443              		.loc 6 49 7 is_stmt 1 view -0
 3444              		.cfi_startproc
 3445              		@ args = 0, pretend = 0, frame = 0
 3446              		@ frame_needed = 0, uses_anonymous_args = 0
  49:Logger.cpp    **** {
 3447              		.loc 6 49 7 is_stmt 0 view .LVU875
 3448 0000 70B5     		push	{r4, r5, r6, lr}
 3449              		.cfi_def_cfa_offset 16
 3450              		.cfi_offset 4, -16
 3451              		.cfi_offset 5, -12
 3452              		.cfi_offset 6, -8
 3453              		.cfi_offset 14, -4
  49:Logger.cpp    **** {
 3454              		.loc 6 49 7 view .LVU876
 3455 0002 0546     		mov	r5, r0
  52:Logger.cpp    ****     for(int i = 0; i < count; i++)
 3456              		.loc 6 52 46 view .LVU877
 3457 0004 0A4C     		ldr	r4, .L149
 3458 0006 FFF7FEFF 		bl	_ZN5daisy6System7GetTickEv
 3459              	.LVL290:
  52:Logger.cpp    ****     for(int i = 0; i < count; i++)
 3460              		.loc 6 52 46 view .LVU878
 3461 000a 0646     		mov	r6, r0
 3462              	.LVL291:
 3463              	.LBB1123:
  53:Logger.cpp    ****     {
 3464              		.loc 6 53 22 is_stmt 1 view .LVU879
 3465              	.L146:
  55:Logger.cpp    ****     }
 3466              		.loc 6 55 17 is_stmt 0 discriminator 2 view .LVU880
 3467 000c 2846     		mov	r0, r5
 3468 000e FFF7FEFF 		bl	_ZN5daisy6LoggerILNS_17LoggerDestinationE2EE9PrintLineEPKcz
 3469              	.LVL292:
  53:Logger.cpp    ****     {
 3470              		.loc 6 53 5 is_stmt 1 discriminator 2 view .LVU881
  53:Logger.cpp    ****     {
 3471              		.loc 6 53 22 discriminator 2 view .LVU882
 3472 0012 013C     		subs	r4, r4, #1
 3473              	.LVL293:
  53:Logger.cpp    ****     {
 3474              		.loc 6 53 22 is_stmt 0 discriminator 2 view .LVU883
 3475 0014 FAD1     		bne	.L146
 3476              	.LBE1123:
ARM GAS  /tmp/ccIu4BI8.s 			page 83


  57:Logger.cpp    ****     const float perf
 3477              		.loc 6 57 37 view .LVU884
 3478 0016 FFF7FEFF 		bl	_ZN5daisy6System7GetTickEv
 3479              	.LVL294:
  57:Logger.cpp    ****     const float perf
 3480              		.loc 6 57 17 view .LVU885
 3481 001a 801B     		subs	r0, r0, r6
 3482              	.LVL295:
  58:Logger.cpp    ****         = (float)dt
 3483              		.loc 6 58 17 view .LVU886
 3484 001c 9FED050A 		vldr.32	s0, .L149+4
  60:Logger.cpp    ****     return perf;
 3485              		.loc 6 60 11 view .LVU887
 3486 0020 07EE900A 		vmov	s15, r0	@ int
 3487 0024 F8EE677A 		vcvt.f32.u32	s15, s15
  62:Logger.cpp    **** 
 3488              		.loc 6 62 1 view .LVU888
 3489 0028 87EE800A 		vdiv.f32	s0, s15, s0
 3490              	.LVL296:
  62:Logger.cpp    **** 
 3491              		.loc 6 62 1 view .LVU889
 3492 002c 70BD     		pop	{r4, r5, r6, pc}
 3493              	.LVL297:
 3494              	.L150:
  62:Logger.cpp    **** 
 3495              		.loc 6 62 1 view .LVU890
 3496 002e 00BF     		.align	2
 3497              	.L149:
 3498 0030 A0860100 		.word	100000
 3499 0034 8096984B 		.word	1268291200
 3500              		.cfi_endproc
 3501              	.LFE2095:
 3503              		.section	.text._Z15ProfileFunctionIXadL_ZN5daisy6LoggerILNS0_17LoggerDestinationE2EE9PrintLineEPKc
 3504              		.align	1
 3505              		.p2align 2,,3
 3506              		.weak	_Z15ProfileFunctionIXadL_ZN5daisy6LoggerILNS0_17LoggerDestinationE2EE9PrintLineEPKczEEJiEEfS
 3507              		.syntax unified
 3508              		.thumb
 3509              		.thumb_func
 3510              		.fpu fpv5-d16
 3512              	_Z15ProfileFunctionIXadL_ZN5daisy6LoggerILNS0_17LoggerDestinationE2EE9PrintLineEPKczEEJiEEfS5_DpT0_
 3513              	.LVL298:
 3514              	.LFB2096:
  49:Logger.cpp    **** {
 3515              		.loc 6 49 7 is_stmt 1 view -0
 3516              		.cfi_startproc
 3517              		@ args = 0, pretend = 0, frame = 0
 3518              		@ frame_needed = 0, uses_anonymous_args = 0
  49:Logger.cpp    **** {
 3519              		.loc 6 49 7 is_stmt 0 view .LVU892
 3520 0000 F8B5     		push	{r3, r4, r5, r6, r7, lr}
 3521              		.cfi_def_cfa_offset 24
 3522              		.cfi_offset 3, -24
 3523              		.cfi_offset 4, -20
 3524              		.cfi_offset 5, -16
 3525              		.cfi_offset 6, -12
 3526              		.cfi_offset 7, -8
ARM GAS  /tmp/ccIu4BI8.s 			page 84


 3527              		.cfi_offset 14, -4
  49:Logger.cpp    **** {
 3528              		.loc 6 49 7 view .LVU893
 3529 0002 0646     		mov	r6, r0
 3530 0004 0D46     		mov	r5, r1
  52:Logger.cpp    ****     for(int i = 0; i < count; i++)
 3531              		.loc 6 52 46 view .LVU894
 3532 0006 0B4C     		ldr	r4, .L155
 3533 0008 FFF7FEFF 		bl	_ZN5daisy6System7GetTickEv
 3534              	.LVL299:
  52:Logger.cpp    ****     for(int i = 0; i < count; i++)
 3535              		.loc 6 52 46 view .LVU895
 3536 000c 0746     		mov	r7, r0
 3537              	.LVL300:
 3538              	.LBB1124:
  53:Logger.cpp    ****     {
 3539              		.loc 6 53 22 is_stmt 1 view .LVU896
 3540              	.L152:
  55:Logger.cpp    ****     }
 3541              		.loc 6 55 17 is_stmt 0 discriminator 2 view .LVU897
 3542 000e 2946     		mov	r1, r5
 3543 0010 3046     		mov	r0, r6
 3544 0012 FFF7FEFF 		bl	_ZN5daisy6LoggerILNS_17LoggerDestinationE2EE9PrintLineEPKcz
 3545              	.LVL301:
  53:Logger.cpp    ****     {
 3546              		.loc 6 53 5 is_stmt 1 discriminator 2 view .LVU898
  53:Logger.cpp    ****     {
 3547              		.loc 6 53 22 discriminator 2 view .LVU899
 3548 0016 013C     		subs	r4, r4, #1
 3549              	.LVL302:
  53:Logger.cpp    ****     {
 3550              		.loc 6 53 22 is_stmt 0 discriminator 2 view .LVU900
 3551 0018 F9D1     		bne	.L152
 3552              	.LBE1124:
  57:Logger.cpp    ****     const float perf
 3553              		.loc 6 57 37 view .LVU901
 3554 001a FFF7FEFF 		bl	_ZN5daisy6System7GetTickEv
 3555              	.LVL303:
  57:Logger.cpp    ****     const float perf
 3556              		.loc 6 57 17 view .LVU902
 3557 001e C01B     		subs	r0, r0, r7
 3558              	.LVL304:
  58:Logger.cpp    ****         = (float)dt
 3559              		.loc 6 58 17 view .LVU903
 3560 0020 9FED050A 		vldr.32	s0, .L155+4
  60:Logger.cpp    ****     return perf;
 3561              		.loc 6 60 11 view .LVU904
 3562 0024 07EE900A 		vmov	s15, r0	@ int
 3563 0028 F8EE677A 		vcvt.f32.u32	s15, s15
  62:Logger.cpp    **** 
 3564              		.loc 6 62 1 view .LVU905
 3565 002c 87EE800A 		vdiv.f32	s0, s15, s0
 3566              	.LVL305:
  62:Logger.cpp    **** 
 3567              		.loc 6 62 1 view .LVU906
 3568 0030 F8BD     		pop	{r3, r4, r5, r6, r7, pc}
 3569              	.LVL306:
ARM GAS  /tmp/ccIu4BI8.s 			page 85


 3570              	.L156:
  62:Logger.cpp    **** 
 3571              		.loc 6 62 1 view .LVU907
 3572 0032 00BF     		.align	2
 3573              	.L155:
 3574 0034 A0860100 		.word	100000
 3575 0038 8096984B 		.word	1268291200
 3576              		.cfi_endproc
 3577              	.LFE2096:
 3579              		.section	.text._Z15ProfileFunctionIXadL_ZN5daisy6LoggerILNS0_17LoggerDestinationE2EE9PrintLineEPKc
 3580              		.align	1
 3581              		.p2align 2,,3
 3582              		.weak	_Z15ProfileFunctionIXadL_ZN5daisy6LoggerILNS0_17LoggerDestinationE2EE9PrintLineEPKczEEJciiEE
 3583              		.syntax unified
 3584              		.thumb
 3585              		.thumb_func
 3586              		.fpu fpv5-d16
 3588              	_Z15ProfileFunctionIXadL_ZN5daisy6LoggerILNS0_17LoggerDestinationE2EE9PrintLineEPKczEEJciiEEfS5_DpT
 3589              	.LVL307:
 3590              	.LFB2098:
  49:Logger.cpp    **** {
 3591              		.loc 6 49 7 is_stmt 1 view -0
 3592              		.cfi_startproc
 3593              		@ args = 0, pretend = 0, frame = 0
 3594              		@ frame_needed = 0, uses_anonymous_args = 0
  49:Logger.cpp    **** {
 3595              		.loc 6 49 7 is_stmt 0 view .LVU909
 3596 0000 2DE9F843 		push	{r3, r4, r5, r6, r7, r8, r9, lr}
 3597              		.cfi_def_cfa_offset 32
 3598              		.cfi_offset 3, -32
 3599              		.cfi_offset 4, -28
 3600              		.cfi_offset 5, -24
 3601              		.cfi_offset 6, -20
 3602              		.cfi_offset 7, -16
 3603              		.cfi_offset 8, -12
 3604              		.cfi_offset 9, -8
 3605              		.cfi_offset 14, -4
  49:Logger.cpp    **** {
 3606              		.loc 6 49 7 view .LVU910
 3607 0004 8046     		mov	r8, r0
 3608 0006 0F46     		mov	r7, r1
 3609 0008 1646     		mov	r6, r2
 3610 000a 1D46     		mov	r5, r3
  52:Logger.cpp    ****     for(int i = 0; i < count; i++)
 3611              		.loc 6 52 46 view .LVU911
 3612 000c 0C4C     		ldr	r4, .L161
 3613 000e FFF7FEFF 		bl	_ZN5daisy6System7GetTickEv
 3614              	.LVL308:
  52:Logger.cpp    ****     for(int i = 0; i < count; i++)
 3615              		.loc 6 52 46 view .LVU912
 3616 0012 8146     		mov	r9, r0
 3617              	.LVL309:
 3618              	.LBB1125:
  53:Logger.cpp    ****     {
 3619              		.loc 6 53 22 is_stmt 1 view .LVU913
 3620              	.L158:
  55:Logger.cpp    ****     }
ARM GAS  /tmp/ccIu4BI8.s 			page 86


 3621              		.loc 6 55 17 is_stmt 0 discriminator 2 view .LVU914
 3622 0014 2B46     		mov	r3, r5
 3623 0016 3246     		mov	r2, r6
 3624 0018 3946     		mov	r1, r7
 3625 001a 4046     		mov	r0, r8
 3626 001c FFF7FEFF 		bl	_ZN5daisy6LoggerILNS_17LoggerDestinationE2EE9PrintLineEPKcz
 3627              	.LVL310:
  53:Logger.cpp    ****     {
 3628              		.loc 6 53 5 is_stmt 1 discriminator 2 view .LVU915
  53:Logger.cpp    ****     {
 3629              		.loc 6 53 22 discriminator 2 view .LVU916
 3630 0020 013C     		subs	r4, r4, #1
 3631              	.LVL311:
  53:Logger.cpp    ****     {
 3632              		.loc 6 53 22 is_stmt 0 discriminator 2 view .LVU917
 3633 0022 F7D1     		bne	.L158
 3634              	.LBE1125:
  57:Logger.cpp    ****     const float perf
 3635              		.loc 6 57 37 view .LVU918
 3636 0024 FFF7FEFF 		bl	_ZN5daisy6System7GetTickEv
 3637              	.LVL312:
  57:Logger.cpp    ****     const float perf
 3638              		.loc 6 57 17 view .LVU919
 3639 0028 A0EB0900 		sub	r0, r0, r9
 3640              	.LVL313:
  58:Logger.cpp    ****         = (float)dt
 3641              		.loc 6 58 17 view .LVU920
 3642 002c 9FED050A 		vldr.32	s0, .L161+4
  60:Logger.cpp    ****     return perf;
 3643              		.loc 6 60 11 view .LVU921
 3644 0030 07EE900A 		vmov	s15, r0	@ int
 3645 0034 F8EE677A 		vcvt.f32.u32	s15, s15
  62:Logger.cpp    **** 
 3646              		.loc 6 62 1 view .LVU922
 3647 0038 87EE800A 		vdiv.f32	s0, s15, s0
 3648              	.LVL314:
  62:Logger.cpp    **** 
 3649              		.loc 6 62 1 view .LVU923
 3650 003c BDE8F883 		pop	{r3, r4, r5, r6, r7, r8, r9, pc}
 3651              	.LVL315:
 3652              	.L162:
  62:Logger.cpp    **** 
 3653              		.loc 6 62 1 view .LVU924
 3654              		.align	2
 3655              	.L161:
 3656 0040 A0860100 		.word	100000
 3657 0044 8096984B 		.word	1268291200
 3658              		.cfi_endproc
 3659              	.LFE2098:
 3661              		.section	.text._Z12ProfilePrintIXadL_ZN5daisy6LoggerILNS0_17LoggerDestinationE2EE9PrintLineEPKczEE
 3662              		.align	1
 3663              		.p2align 2,,3
 3664              		.weak	_Z12ProfilePrintIXadL_ZN5daisy6LoggerILNS0_17LoggerDestinationE2EE9PrintLineEPKczEEEvS5_S5_
 3665              		.syntax unified
 3666              		.thumb
 3667              		.thumb_func
 3668              		.fpu fpv5-d16
ARM GAS  /tmp/ccIu4BI8.s 			page 87


 3670              	_Z12ProfilePrintIXadL_ZN5daisy6LoggerILNS0_17LoggerDestinationE2EE9PrintLineEPKczEEEvS5_S5_:
 3671              	.LVL316:
 3672              	.LFB2083:
  67:Logger.cpp    **** {
 3673              		.loc 6 67 6 is_stmt 1 view -0
 3674              		.cfi_startproc
 3675              		@ args = 0, pretend = 0, frame = 0
 3676              		@ frame_needed = 0, uses_anonymous_args = 0
  67:Logger.cpp    **** {
 3677              		.loc 6 67 6 is_stmt 0 view .LVU926
 3678 0000 F0B5     		push	{r4, r5, r6, r7, lr}
 3679              		.cfi_def_cfa_offset 20
 3680              		.cfi_offset 4, -20
 3681              		.cfi_offset 5, -16
 3682              		.cfi_offset 6, -12
 3683              		.cfi_offset 7, -8
 3684              		.cfi_offset 14, -4
 3685 0002 0446     		mov	r4, r0
  69:Logger.cpp    ****     const float print_1 = ProfileFunction<function>("a");
 3686              		.loc 6 69 52 view .LVU927
 3687 0004 C648     		ldr	r0, .L185+16
 3688              	.LVL317:
  67:Logger.cpp    **** {
 3689              		.loc 6 67 6 view .LVU928
 3690 0006 0D46     		mov	r5, r1
 3691              	.LBB1167:
 3692              	.LBB1168:
  52:Logger.cpp    ****     for(int i = 0; i < count; i++)
 3693              		.loc 6 52 46 view .LVU929
 3694 0008 C64E     		ldr	r6, .L185+20
 3695              	.LBE1168:
 3696              	.LBE1167:
  67:Logger.cpp    **** {
 3697              		.loc 6 67 6 view .LVU930
 3698 000a 2DED0C8B 		vpush.64	{d8, d9, d10, d11, d12, d13}
 3699              		.cfi_def_cfa_offset 68
 3700              		.cfi_offset 80, -68
 3701              		.cfi_offset 81, -64
 3702              		.cfi_offset 82, -60
 3703              		.cfi_offset 83, -56
 3704              		.cfi_offset 84, -52
 3705              		.cfi_offset 85, -48
 3706              		.cfi_offset 86, -44
 3707              		.cfi_offset 87, -40
 3708              		.cfi_offset 88, -36
 3709              		.cfi_offset 89, -32
 3710              		.cfi_offset 90, -28
 3711              		.cfi_offset 91, -24
 3712 000e 87B0     		sub	sp, sp, #28
 3713              		.cfi_def_cfa_offset 96
  69:Logger.cpp    ****     const float print_1 = ProfileFunction<function>("a");
 3714              		.loc 6 69 52 view .LVU931
 3715 0010 FFF7FEFF 		bl	_Z15ProfileFunctionIXadL_ZN5daisy6LoggerILNS0_17LoggerDestinationE2EE9PrintLineEPKczEEJEEfS5_Dp
 3716              	.LVL318:
  70:Logger.cpp    ****     const float print_36
 3717              		.loc 6 70 52 view .LVU932
 3718 0014 C448     		ldr	r0, .L185+24
ARM GAS  /tmp/ccIu4BI8.s 			page 88


  69:Logger.cpp    ****     const float print_1 = ProfileFunction<function>("a");
 3719              		.loc 6 69 52 view .LVU933
 3720 0016 F0EE40DA 		vmov.f32	s27, s0
 3721              	.LVL319:
  70:Logger.cpp    ****     const float print_36
 3722              		.loc 6 70 52 view .LVU934
 3723 001a FFF7FEFF 		bl	_Z15ProfileFunctionIXadL_ZN5daisy6LoggerILNS0_17LoggerDestinationE2EE9PrintLineEPKczEEJEEfS5_Dp
 3724              	.LVL320:
  72:Logger.cpp    ****     const float print_d = ProfileFunction<function>("%d", 123);
 3725              		.loc 6 72 36 view .LVU935
 3726 001e C348     		ldr	r0, .L185+28
  70:Logger.cpp    ****     const float print_36
 3727              		.loc 6 70 52 view .LVU936
 3728 0020 F0EE40CA 		vmov.f32	s25, s0
 3729              	.LVL321:
  72:Logger.cpp    ****     const float print_d = ProfileFunction<function>("%d", 123);
 3730              		.loc 6 72 36 view .LVU937
 3731 0024 FFF7FEFF 		bl	_Z15ProfileFunctionIXadL_ZN5daisy6LoggerILNS0_17LoggerDestinationE2EE9PrintLineEPKczEEJEEfS5_Dp
 3732              	.LVL322:
  73:Logger.cpp    ****     const float print_u = ProfileFunction<function>("%u", 123);
 3733              		.loc 6 73 52 view .LVU938
 3734 0028 7B21     		movs	r1, #123
 3735 002a C148     		ldr	r0, .L185+32
  72:Logger.cpp    ****     const float print_d = ProfileFunction<function>("%d", 123);
 3736              		.loc 6 72 36 view .LVU939
 3737 002c B0EE40DA 		vmov.f32	s26, s0
 3738              	.LVL323:
  73:Logger.cpp    ****     const float print_u = ProfileFunction<function>("%u", 123);
 3739              		.loc 6 73 52 view .LVU940
 3740 0030 FFF7FEFF 		bl	_Z15ProfileFunctionIXadL_ZN5daisy6LoggerILNS0_17LoggerDestinationE2EE9PrintLineEPKczEEJiEEfS5_D
 3741              	.LVL324:
  74:Logger.cpp    ****     const float print_f = ProfileFunction<function>("%.3f", 123.0f);
 3742              		.loc 6 74 52 view .LVU941
 3743 0034 7B21     		movs	r1, #123
 3744 0036 BF48     		ldr	r0, .L185+36
  73:Logger.cpp    ****     const float print_u = ProfileFunction<function>("%u", 123);
 3745              		.loc 6 73 52 view .LVU942
 3746 0038 B0EE40CA 		vmov.f32	s24, s0
 3747              	.LVL325:
  74:Logger.cpp    ****     const float print_f = ProfileFunction<function>("%.3f", 123.0f);
 3748              		.loc 6 74 52 view .LVU943
 3749 003c FFF7FEFF 		bl	_Z15ProfileFunctionIXadL_ZN5daisy6LoggerILNS0_17LoggerDestinationE2EE9PrintLineEPKczEEJiEEfS5_D
 3750              	.LVL326:
  74:Logger.cpp    ****     const float print_f = ProfileFunction<function>("%.3f", 123.0f);
 3751              		.loc 6 74 52 view .LVU944
 3752 0040 B0EE40BA 		vmov.f32	s22, s0
 3753              	.LVL327:
 3754              	.LBB1174:
 3755              	.LBI1167:
  49:Logger.cpp    **** {
 3756              		.loc 6 49 7 is_stmt 1 view .LVU945
 3757              	.LBB1170:
  52:Logger.cpp    ****     for(int i = 0; i < count; i++)
 3758              		.loc 6 52 46 is_stmt 0 view .LVU946
 3759 0044 FFF7FEFF 		bl	_ZN5daisy6System7GetTickEv
 3760              	.LVL328:
  52:Logger.cpp    ****     for(int i = 0; i < count; i++)
ARM GAS  /tmp/ccIu4BI8.s 			page 89


 3761              		.loc 6 52 46 view .LVU947
 3762 0048 0746     		mov	r7, r0
 3763              	.LVL329:
 3764              	.LBB1169:
  53:Logger.cpp    ****     {
 3765              		.loc 6 53 22 is_stmt 1 view .LVU948
 3766              	.L164:
  55:Logger.cpp    ****     }
 3767              		.loc 6 55 17 is_stmt 0 view .LVU949
 3768 004a BB48     		ldr	r0, .L185+40
 3769 004c B0A3     		adr	r3, .L185
 3770 004e D3E90023 		ldrd	r2, [r3]
 3771 0052 FFF7FEFF 		bl	_ZN5daisy6LoggerILNS_17LoggerDestinationE2EE9PrintLineEPKcz
 3772              	.LVL330:
  53:Logger.cpp    ****     {
 3773              		.loc 6 53 5 is_stmt 1 view .LVU950
  53:Logger.cpp    ****     {
 3774              		.loc 6 53 22 view .LVU951
 3775 0056 013E     		subs	r6, r6, #1
 3776              	.LVL331:
  53:Logger.cpp    ****     {
 3777              		.loc 6 53 22 is_stmt 0 view .LVU952
 3778 0058 F7D1     		bne	.L164
 3779              	.LBE1169:
  57:Logger.cpp    ****     const float perf
 3780              		.loc 6 57 37 view .LVU953
 3781 005a FFF7FEFF 		bl	_ZN5daisy6System7GetTickEv
 3782              	.LVL332:
  57:Logger.cpp    ****     const float perf
 3783              		.loc 6 57 17 view .LVU954
 3784 005e C21B     		subs	r2, r0, r7
 3785              	.LVL333:
  58:Logger.cpp    ****         = (float)dt
 3786              		.loc 6 58 17 view .LVU955
 3787 0060 9FEDB67A 		vldr.32	s14, .L185+44
 3788              	.LBE1170:
 3789              	.LBE1174:
  77:Logger.cpp    ****     const float print_F2
 3790              		.loc 6 77 36 view .LVU956
 3791 0064 3346     		mov	r3, r6
 3792              	.LBB1175:
 3793              	.LBB1171:
  57:Logger.cpp    ****     const float perf
 3794              		.loc 6 57 17 view .LVU957
 3795 0066 07EE902A 		vmov	s15, r2	@ int
 3796              	.LBE1171:
 3797              	.LBE1175:
  77:Logger.cpp    ****     const float print_F2
 3798              		.loc 6 77 36 view .LVU958
 3799 006a 2021     		movs	r1, #32
 3800 006c 7B22     		movs	r2, #123
 3801              	.LVL334:
  77:Logger.cpp    ****     const float print_F2
 3802              		.loc 6 77 36 view .LVU959
 3803 006e B448     		ldr	r0, .L185+48
 3804              	.LBB1176:
 3805              	.LBB1172:
ARM GAS  /tmp/ccIu4BI8.s 			page 90


  60:Logger.cpp    ****     return perf;
 3806              		.loc 6 60 11 view .LVU960
 3807 0070 F8EE677A 		vcvt.f32.u32	s15, s15
 3808              	.LVL335:
  60:Logger.cpp    ****     return perf;
 3809              		.loc 6 60 11 view .LVU961
 3810              	.LBE1172:
 3811              	.LBE1176:
  92:Logger.cpp    ****     hw.PrintLine("%s - %s (   text string):" FLT_FMT3 " us/call +" FLT_FMT3
 3812              		.loc 6 92 18 view .LVU962
 3813 0074 9FEDA88B 		vldr.64	d8, .L185+8
 3814              	.LBB1177:
 3815              	.LBB1173:
  58:Logger.cpp    ****         = (float)dt
 3816              		.loc 6 58 17 view .LVU963
 3817 0078 87EE879A 		vdiv.f32	s18, s15, s14
 3818              	.LVL336:
  58:Logger.cpp    ****         = (float)dt
 3819              		.loc 6 58 17 view .LVU964
 3820              	.LBE1173:
 3821              	.LBE1177:
  77:Logger.cpp    ****     const float print_F2
 3822              		.loc 6 77 36 view .LVU965
 3823 007c FFF7FEFF 		bl	_Z15ProfileFunctionIXadL_ZN5daisy6LoggerILNS0_17LoggerDestinationE2EE9PrintLineEPKczEEJciiEEfS5
 3824              	.LVL337:
  79:Logger.cpp    ****     const float print_F3
 3825              		.loc 6 79 36 view .LVU966
 3826 0080 3346     		mov	r3, r6
 3827 0082 7B22     		movs	r2, #123
 3828 0084 2021     		movs	r1, #32
 3829 0086 AF48     		ldr	r0, .L185+52
  77:Logger.cpp    ****     const float print_F2
 3830              		.loc 6 77 36 view .LVU967
 3831 0088 F0EE40BA 		vmov.f32	s23, s0
 3832              	.LVL338:
  79:Logger.cpp    ****     const float print_F3
 3833              		.loc 6 79 36 view .LVU968
 3834 008c FFF7FEFF 		bl	_Z15ProfileFunctionIXadL_ZN5daisy6LoggerILNS0_17LoggerDestinationE2EE9PrintLineEPKczEEJciiEEfS5
 3835              	.LVL339:
  81:Logger.cpp    ****     const float print_F4
 3836              		.loc 6 81 36 view .LVU969
 3837 0090 3346     		mov	r3, r6
 3838 0092 7B22     		movs	r2, #123
 3839 0094 2021     		movs	r1, #32
 3840 0096 AC48     		ldr	r0, .L185+56
  79:Logger.cpp    ****     const float print_F3
 3841              		.loc 6 79 36 view .LVU970
 3842 0098 F0EE40AA 		vmov.f32	s21, s0
 3843              	.LVL340:
  81:Logger.cpp    ****     const float print_F4
 3844              		.loc 6 81 36 view .LVU971
 3845 009c FFF7FEFF 		bl	_Z15ProfileFunctionIXadL_ZN5daisy6LoggerILNS0_17LoggerDestinationE2EE9PrintLineEPKczEEJciiEEfS5
 3846              	.LVL341:
  83:Logger.cpp    **** 
 3847              		.loc 6 83 36 view .LVU972
 3848 00a0 3346     		mov	r3, r6
 3849 00a2 7B22     		movs	r2, #123
ARM GAS  /tmp/ccIu4BI8.s 			page 91


 3850 00a4 2021     		movs	r1, #32
 3851 00a6 A948     		ldr	r0, .L185+60
  81:Logger.cpp    ****     const float print_F4
 3852              		.loc 6 81 36 view .LVU973
 3853 00a8 B0EE40AA 		vmov.f32	s20, s0
 3854              	.LVL342:
  83:Logger.cpp    **** 
 3855              		.loc 6 83 36 view .LVU974
 3856 00ac FFF7FEFF 		bl	_Z15ProfileFunctionIXadL_ZN5daisy6LoggerILNS0_17LoggerDestinationE2EE9PrintLineEPKczEEJciiEEfS5
 3857              	.LVL343:
 3858              	.LBB1178:
 3859              	.LBB1179:
 3860              		.loc 7 76 31 view .LVU975
 3861 00b0 B0EEED7A 		vabs.f32	s14, s27
 3862              	.LBE1179:
 3863              	.LBE1178:
  86:Logger.cpp    ****     const float intercept = print_1 - slope;
 3864              		.loc 6 86 17 view .LVU976
 3865 00b4 DFEDA66A 		vldr.32	s13, .L185+64
  86:Logger.cpp    ****     const float intercept = print_1 - slope;
 3866              		.loc 6 86 39 view .LVU977
 3867 00b8 3DEE6CDA 		vsub.f32	s26, s26, s25
 3868              	.LVL344:
 3869              	.LBB1181:
 3870              	.LBB1182:
 3871              		.loc 1 124 23 view .LVU978
 3872 00bc 2A46     		mov	r2, r5
 3873              	.LBE1182:
 3874              	.LBE1181:
  89:Logger.cpp    ****                  class_caption,
 3875              		.loc 6 89 17 view .LVU979
 3876 00be F5EEC0DA 		vcmpe.f32	s27, #0
 3877              	.LBB1188:
 3878              	.LBB1183:
 3879              		.loc 1 124 23 view .LVU980
 3880 00c2 2146     		mov	r1, r4
 3881              	.LBE1183:
 3882              	.LBE1188:
  89:Logger.cpp    ****                  class_caption,
 3883              		.loc 6 89 17 view .LVU981
 3884 00c4 FDEEC77A 		vcvt.s32.f32	s15, s14
 3885              	.LBB1189:
 3886              	.LBB1184:
 3887              		.loc 1 124 23 view .LVU982
 3888 00c8 A248     		ldr	r0, .L185+68
 3889              	.LBE1184:
 3890              	.LBE1189:
  86:Logger.cpp    ****     const float intercept = print_1 - slope;
 3891              		.loc 6 86 17 view .LVU983
 3892 00ca CDEE26DA 		vdiv.f32	s27, s26, s13
 3893              	.LVL345:
 3894              	.LBB1190:
 3895              	.LBB1185:
 3896              		.loc 1 124 23 view .LVU984
 3897 00ce CDED007A 		vstr.32	s15, [sp]	@ int
 3898              	.LBE1185:
 3899              	.LBE1190:
ARM GAS  /tmp/ccIu4BI8.s 			page 92


  92:Logger.cpp    ****     hw.PrintLine("%s - %s (   text string):" FLT_FMT3 " us/call +" FLT_FMT3
 3900              		.loc 6 92 18 view .LVU985
 3901 00d2 F8EEE77A 		vcvt.f32.s32	s15, s15
  89:Logger.cpp    ****                  class_caption,
 3902              		.loc 6 89 17 view .LVU986
 3903 00d6 F1EE10FA 		vmrs	APSR_nzcv, FPSCR
  83:Logger.cpp    **** 
 3904              		.loc 6 83 36 view .LVU987
 3905 00da F0EE409A 		vmov.f32	s19, s0
 3906              	.LVL346:
  92:Logger.cpp    ****     hw.PrintLine("%s - %s (   text string):" FLT_FMT3 " us/call +" FLT_FMT3
 3907              		.loc 6 92 18 view .LVU988
 3908 00de 37EE677A 		vsub.f32	s14, s14, s15
 3909              	.LBB1191:
 3910              	.LBB1186:
 3911              		.loc 1 124 23 view .LVU989
 3912 00e2 4CBF     		ite	mi
 3913 00e4 2D23     		movmi	r3, #45
 3914 00e6 2023     		movpl	r3, #32
 3915              	.LBE1186:
 3916              	.LBE1191:
  92:Logger.cpp    ****     hw.PrintLine("%s - %s (   text string):" FLT_FMT3 " us/call +" FLT_FMT3
 3917              		.loc 6 92 18 view .LVU990
 3918 00e8 B7EEC77A 		vcvt.f64.f32	d7, s14
 3919 00ec 27EE087B 		vmul.f64	d7, d7, d8
  87:Logger.cpp    **** 
 3920              		.loc 6 87 17 view .LVU991
 3921 00f0 7CEEEDCA 		vsub.f32	s25, s25, s27
 3922              	.LVL347:
 3923              	.LBB1192:
 3924              	.LBI1178:
  75:/usr/include/newlib/c++/9.2.1/bits/std_abs.h ****   { return __builtin_fabsf(__x); }
 3925              		.loc 7 75 3 is_stmt 1 view .LVU992
 3926              	.LBB1180:
 3927              		.loc 7 76 5 view .LVU993
 3928              		.loc 7 76 5 is_stmt 0 view .LVU994
 3929              	.LBE1180:
 3930              	.LBE1192:
 3931              		.loc 7 76 5 is_stmt 1 view .LVU995
 3932              		.loc 7 76 5 view .LVU996
 3933              	.LBB1193:
 3934              	.LBI1181:
 122:../../libdaisy/src/daisy_seed.h ****     {
 3935              		.loc 1 122 17 view .LVU997
 3936              	.LBE1193:
  89:Logger.cpp    ****                  class_caption,
 3937              		.loc 6 89 17 is_stmt 0 view .LVU998
 3938 00f4 BDEEC77B 		vcvt.s32.f64	s14, d7
 3939              	.LBB1194:
 3940              	.LBB1187:
 3941              		.loc 1 124 23 view .LVU999
 3942 00f8 8DED017A 		vstr.32	s14, [sp, #4]	@ int
 3943 00fc FFF7FEFF 		bl	_ZN5daisy6LoggerILNS_17LoggerDestinationE1EE9PrintLineEPKcz
 3944              	.LVL348:
 3945              		.loc 1 124 23 view .LVU1000
 3946              	.LBE1187:
 3947              	.LBE1194:
ARM GAS  /tmp/ccIu4BI8.s 			page 93


 3948              	.LBB1195:
 3949              	.LBB1196:
 3950              		.loc 7 76 31 view .LVU1001
 3951 0100 B0EEEC6A 		vabs.f32	s12, s25
 3952              	.LBE1196:
 3953              	.LBE1195:
 3954              	.LBB1198:
 3955              	.LBB1199:
 3956 0104 B0EEED7A 		vabs.f32	s14, s27
 3957              	.LBE1199:
 3958              	.LBE1198:
 3959              	.LBB1201:
 3960              	.LBB1202:
 3961              		.loc 1 124 23 view .LVU1002
 3962 0108 2A46     		mov	r2, r5
 3963              	.LBE1202:
 3964              	.LBE1201:
  93:Logger.cpp    ****                  " us/char",
 3965              		.loc 6 93 17 view .LVU1003
 3966 010a F5EEC0CA 		vcmpe.f32	s25, #0
 3967              	.LBB1209:
 3968              	.LBB1203:
 3969              		.loc 1 124 23 view .LVU1004
 3970 010e 2146     		mov	r1, r4
 3971              	.LBE1203:
 3972              	.LBE1209:
  93:Logger.cpp    ****                  " us/char",
 3973              		.loc 6 93 17 view .LVU1005
 3974 0110 FDEEC66A 		vcvt.s32.f32	s13, s12
 3975              	.LBB1210:
 3976              	.LBB1204:
 3977              		.loc 1 124 23 view .LVU1006
 3978 0114 9048     		ldr	r0, .L185+72
 3979              	.LBE1204:
 3980              	.LBE1210:
  93:Logger.cpp    ****                  " us/char",
 3981              		.loc 6 93 17 view .LVU1007
 3982 0116 FDEEC77A 		vcvt.s32.f32	s15, s14
 3983 011a F1EE10FA 		vmrs	APSR_nzcv, FPSCR
  97:Logger.cpp    ****                  FLT_VAR3(slope));
 3984              		.loc 6 97 18 view .LVU1008
 3985 011e F8EEE65A 		vcvt.f32.s32	s11, s13
 3986              	.LBB1211:
 3987              	.LBB1205:
 3988              		.loc 1 124 23 view .LVU1009
 3989 0122 CDED006A 		vstr.32	s13, [sp]	@ int
 3990              	.LBE1205:
 3991              	.LBE1211:
  98:Logger.cpp    ****     hw.PrintLine("%s - %s ( integer value):" FLT_FMT3 " us/call",
 3992              		.loc 6 98 18 view .LVU1010
 3993 0126 F8EEE76A 		vcvt.f32.s32	s13, s15
 3994              	.LBB1212:
 3995              	.LBB1206:
 3996              		.loc 1 124 23 view .LVU1011
 3997 012a CDED037A 		vstr.32	s15, [sp, #12]	@ int
 3998              	.LBE1206:
 3999              	.LBE1212:
ARM GAS  /tmp/ccIu4BI8.s 			page 94


  93:Logger.cpp    ****                  " us/char",
 4000              		.loc 6 93 17 view .LVU1012
 4001 012e F5EEC0DA 		vcmpe.f32	s27, #0
 4002 0132 48BF     		it	mi
 4003 0134 2D23     		movmi	r3, #45
  97:Logger.cpp    ****                  FLT_VAR3(slope));
 4004              		.loc 6 97 18 view .LVU1013
 4005 0136 36EE656A 		vsub.f32	s12, s12, s11
  93:Logger.cpp    ****                  " us/char",
 4006              		.loc 6 93 17 view .LVU1014
 4007 013a 58BF     		it	pl
 4008 013c 2023     		movpl	r3, #32
 4009              	.LVL349:
 4010              	.LBB1213:
 4011              	.LBI1195:
  75:/usr/include/newlib/c++/9.2.1/bits/std_abs.h ****   { return __builtin_fabsf(__x); }
 4012              		.loc 7 75 3 is_stmt 1 view .LVU1015
 4013              	.LBB1197:
 4014              		.loc 7 76 5 view .LVU1016
 4015              		.loc 7 76 5 is_stmt 0 view .LVU1017
 4016              	.LBE1197:
 4017              	.LBE1213:
 4018              		.loc 7 76 5 is_stmt 1 view .LVU1018
 4019              		.loc 7 76 5 view .LVU1019
  98:Logger.cpp    ****     hw.PrintLine("%s - %s ( integer value):" FLT_FMT3 " us/call",
 4020              		.loc 6 98 18 is_stmt 0 view .LVU1020
 4021 013e 37EE667A 		vsub.f32	s14, s14, s13
  93:Logger.cpp    ****                  " us/char",
 4022              		.loc 6 93 17 view .LVU1021
 4023 0142 F1EE10FA 		vmrs	APSR_nzcv, FPSCR
  97:Logger.cpp    ****                  FLT_VAR3(slope));
 4024              		.loc 6 97 18 view .LVU1022
 4025 0146 B7EEC66A 		vcvt.f64.f32	d6, s12
  98:Logger.cpp    ****     hw.PrintLine("%s - %s ( integer value):" FLT_FMT3 " us/call",
 4026              		.loc 6 98 18 view .LVU1023
 4027 014a B7EEC77A 		vcvt.f64.f32	d7, s14
  93:Logger.cpp    ****                  " us/char",
 4028              		.loc 6 93 17 view .LVU1024
 4029 014e 4CBF     		ite	mi
 4030 0150 2D26     		movmi	r6, #45
 4031 0152 2026     		movpl	r6, #32
 4032              	.LVL350:
 4033              	.LBB1214:
 4034              	.LBI1198:
  75:/usr/include/newlib/c++/9.2.1/bits/std_abs.h ****   { return __builtin_fabsf(__x); }
 4035              		.loc 7 75 3 is_stmt 1 view .LVU1025
 4036              	.LBB1200:
 4037              		.loc 7 76 5 view .LVU1026
 4038              		.loc 7 76 5 is_stmt 0 view .LVU1027
 4039              	.LBE1200:
 4040              	.LBE1214:
 4041              		.loc 7 76 5 is_stmt 1 view .LVU1028
 4042              		.loc 7 76 5 view .LVU1029
  97:Logger.cpp    ****                  FLT_VAR3(slope));
 4043              		.loc 6 97 18 is_stmt 0 view .LVU1030
 4044 0154 26EE086B 		vmul.f64	d6, d6, d8
 4045              	.LBB1215:
ARM GAS  /tmp/ccIu4BI8.s 			page 95


 4046              	.LBB1207:
 4047              		.loc 1 124 23 view .LVU1031
 4048 0158 0296     		str	r6, [sp, #8]
 4049              	.LBE1207:
 4050              	.LBE1215:
  98:Logger.cpp    ****     hw.PrintLine("%s - %s ( integer value):" FLT_FMT3 " us/call",
 4051              		.loc 6 98 18 view .LVU1032
 4052 015a 27EE087B 		vmul.f64	d7, d7, d8
  93:Logger.cpp    ****                  " us/char",
 4053              		.loc 6 93 17 view .LVU1033
 4054 015e BDEEC66B 		vcvt.s32.f64	s12, d6
 4055              	.LVL351:
 4056              	.LBB1216:
 4057              	.LBI1201:
 122:../../libdaisy/src/daisy_seed.h ****     {
 4058              		.loc 1 122 17 is_stmt 1 view .LVU1034
 4059              	.LBE1216:
  93:Logger.cpp    ****                  " us/char",
 4060              		.loc 6 93 17 is_stmt 0 view .LVU1035
 4061 0162 BDEEC77B 		vcvt.s32.f64	s14, d7
 4062              	.LBB1217:
 4063              	.LBB1208:
 4064              		.loc 1 124 23 view .LVU1036
 4065 0166 8DED016A 		vstr.32	s12, [sp, #4]	@ int
 4066 016a 8DED047A 		vstr.32	s14, [sp, #16]	@ int
 4067 016e FFF7FEFF 		bl	_ZN5daisy6LoggerILNS_17LoggerDestinationE1EE9PrintLineEPKcz
 4068              	.LVL352:
 4069              		.loc 1 124 23 view .LVU1037
 4070              	.LBE1208:
 4071              	.LBE1217:
 4072              	.LBB1218:
 4073              	.LBI1218:
  75:/usr/include/newlib/c++/9.2.1/bits/std_abs.h ****   { return __builtin_fabsf(__x); }
 4074              		.loc 7 75 3 is_stmt 1 view .LVU1038
 4075              	.LBB1219:
 4076              		.loc 7 76 5 view .LVU1039
 4077              		.loc 7 76 31 is_stmt 0 view .LVU1040
 4078 0172 B0EECC7A 		vabs.f32	s14, s24
 4079              	.LVL353:
 4080              		.loc 7 76 31 view .LVU1041
 4081              	.LBE1219:
 4082              	.LBE1218:
  99:Logger.cpp    ****                  class_caption,
 4083              		.loc 6 99 17 view .LVU1042
 4084 0176 B5EEC0CA 		vcmpe.f32	s24, #0
 4085              	.LBB1220:
 4086              	.LBB1221:
 4087              		.loc 1 124 23 view .LVU1043
 4088 017a 2A46     		mov	r2, r5
 4089 017c 2146     		mov	r1, r4
 4090 017e 7748     		ldr	r0, .L185+76
 4091              	.LBE1221:
 4092              	.LBE1220:
  99:Logger.cpp    ****                  class_caption,
 4093              		.loc 6 99 17 view .LVU1044
 4094 0180 FDEEC77A 		vcvt.s32.f32	s15, s14
 4095              	.LVL354:
ARM GAS  /tmp/ccIu4BI8.s 			page 96


 4096              		.loc 7 76 5 is_stmt 1 view .LVU1045
 4097              		.loc 7 76 5 view .LVU1046
 4098              	.LBB1224:
 4099              	.LBI1220:
 122:../../libdaisy/src/daisy_seed.h ****     {
 4100              		.loc 1 122 17 view .LVU1047
 4101              	.LBE1224:
  99:Logger.cpp    ****                  class_caption,
 4102              		.loc 6 99 17 is_stmt 0 view .LVU1048
 4103 0184 F1EE10FA 		vmrs	APSR_nzcv, FPSCR
 102:Logger.cpp    ****     hw.PrintLine("%s - %s (unsigned value):" FLT_FMT3 " us/call",
 4104              		.loc 6 102 18 view .LVU1049
 4105 0188 F8EEE76A 		vcvt.f32.s32	s13, s15
 4106              	.LVL355:
 4107              	.LBB1225:
 4108              	.LBB1222:
 4109              		.loc 1 124 23 view .LVU1050
 4110 018c CDED007A 		vstr.32	s15, [sp]	@ int
 4111 0190 4CBF     		ite	mi
 4112 0192 2D23     		movmi	r3, #45
 4113 0194 2023     		movpl	r3, #32
 4114              	.LBE1222:
 4115              	.LBE1225:
 102:Logger.cpp    ****     hw.PrintLine("%s - %s (unsigned value):" FLT_FMT3 " us/call",
 4116              		.loc 6 102 18 view .LVU1051
 4117 0196 37EE667A 		vsub.f32	s14, s14, s13
 4118              	.LVL356:
 102:Logger.cpp    ****     hw.PrintLine("%s - %s (unsigned value):" FLT_FMT3 " us/call",
 4119              		.loc 6 102 18 view .LVU1052
 4120 019a B7EEC77A 		vcvt.f64.f32	d7, s14
 4121 019e 27EE087B 		vmul.f64	d7, d7, d8
  99:Logger.cpp    ****                  class_caption,
 4122              		.loc 6 99 17 view .LVU1053
 4123 01a2 BDEEC77B 		vcvt.s32.f64	s14, d7
 4124              	.LBB1226:
 4125              	.LBB1223:
 4126              		.loc 1 124 23 view .LVU1054
 4127 01a6 8DED017A 		vstr.32	s14, [sp, #4]	@ int
 4128 01aa FFF7FEFF 		bl	_ZN5daisy6LoggerILNS_17LoggerDestinationE1EE9PrintLineEPKcz
 4129              	.LVL357:
 4130              		.loc 1 124 23 view .LVU1055
 4131              	.LBE1223:
 4132              	.LBE1226:
 4133              	.LBB1227:
 4134              	.LBI1227:
  75:/usr/include/newlib/c++/9.2.1/bits/std_abs.h ****   { return __builtin_fabsf(__x); }
 4135              		.loc 7 75 3 is_stmt 1 view .LVU1056
 4136              	.LBB1228:
 4137              		.loc 7 76 5 view .LVU1057
 4138              		.loc 7 76 31 is_stmt 0 view .LVU1058
 4139 01ae B0EECB7A 		vabs.f32	s14, s22
 4140              	.LVL358:
 4141              		.loc 7 76 31 view .LVU1059
 4142              	.LBE1228:
 4143              	.LBE1227:
 103:Logger.cpp    ****                  class_caption,
 4144              		.loc 6 103 17 view .LVU1060
ARM GAS  /tmp/ccIu4BI8.s 			page 97


 4145 01b2 B5EEC0BA 		vcmpe.f32	s22, #0
 4146              	.LBB1229:
 4147              	.LBB1230:
 4148              		.loc 1 124 23 view .LVU1061
 4149 01b6 2A46     		mov	r2, r5
 4150 01b8 2146     		mov	r1, r4
 4151 01ba 6948     		ldr	r0, .L185+80
 4152              	.LBE1230:
 4153              	.LBE1229:
 103:Logger.cpp    ****                  class_caption,
 4154              		.loc 6 103 17 view .LVU1062
 4155 01bc FDEEC77A 		vcvt.s32.f32	s15, s14
 4156              	.LVL359:
 4157              		.loc 7 76 5 is_stmt 1 view .LVU1063
 4158              		.loc 7 76 5 view .LVU1064
 4159              	.LBB1233:
 4160              	.LBI1229:
 122:../../libdaisy/src/daisy_seed.h ****     {
 4161              		.loc 1 122 17 view .LVU1065
 4162              	.LBE1233:
 103:Logger.cpp    ****                  class_caption,
 4163              		.loc 6 103 17 is_stmt 0 view .LVU1066
 4164 01c0 F1EE10FA 		vmrs	APSR_nzcv, FPSCR
 106:Logger.cpp    ****     hw.PrintLine("%s - %s ( float.3 value):" FLT_FMT3 " us/call",
 4165              		.loc 6 106 18 view .LVU1067
 4166 01c4 F8EEE76A 		vcvt.f32.s32	s13, s15
 4167              	.LVL360:
 4168              	.LBB1234:
 4169              	.LBB1231:
 4170              		.loc 1 124 23 view .LVU1068
 4171 01c8 CDED007A 		vstr.32	s15, [sp]	@ int
 4172 01cc 4CBF     		ite	mi
 4173 01ce 2D23     		movmi	r3, #45
 4174 01d0 2023     		movpl	r3, #32
 4175              	.LBE1231:
 4176              	.LBE1234:
 106:Logger.cpp    ****     hw.PrintLine("%s - %s ( float.3 value):" FLT_FMT3 " us/call",
 4177              		.loc 6 106 18 view .LVU1069
 4178 01d2 37EE667A 		vsub.f32	s14, s14, s13
 4179              	.LVL361:
 106:Logger.cpp    ****     hw.PrintLine("%s - %s ( float.3 value):" FLT_FMT3 " us/call",
 4180              		.loc 6 106 18 view .LVU1070
 4181 01d6 B7EEC77A 		vcvt.f64.f32	d7, s14
 4182 01da 27EE087B 		vmul.f64	d7, d7, d8
 103:Logger.cpp    ****                  class_caption,
 4183              		.loc 6 103 17 view .LVU1071
 4184 01de BDEEC77B 		vcvt.s32.f64	s14, d7
 4185              	.LBB1235:
 4186              	.LBB1232:
 4187              		.loc 1 124 23 view .LVU1072
 4188 01e2 8DED017A 		vstr.32	s14, [sp, #4]	@ int
 4189 01e6 FFF7FEFF 		bl	_ZN5daisy6LoggerILNS_17LoggerDestinationE1EE9PrintLineEPKcz
 4190              	.LVL362:
 4191              		.loc 1 124 23 view .LVU1073
 4192              	.LBE1232:
 4193              	.LBE1235:
 4194              		.loc 7 76 5 is_stmt 1 view .LVU1074
ARM GAS  /tmp/ccIu4BI8.s 			page 98


 107:Logger.cpp    ****                  class_caption,
 4195              		.loc 6 107 17 is_stmt 0 view .LVU1075
 4196 01ea FDEEC97A 		vcvt.s32.f32	s15, s18
 4197              	.LVL363:
 4198              		.loc 7 76 5 is_stmt 1 view .LVU1076
 4199              		.loc 7 76 5 view .LVU1077
 4200              	.LBB1236:
 4201              	.LBI1236:
 122:../../libdaisy/src/daisy_seed.h ****     {
 4202              		.loc 1 122 17 view .LVU1078
 4203              	.LBB1237:
 4204              		.loc 1 124 23 is_stmt 0 view .LVU1079
 4205 01ee 2023     		movs	r3, #32
 4206 01f0 2A46     		mov	r2, r5
 4207 01f2 2146     		mov	r1, r4
 4208 01f4 5B48     		ldr	r0, .L185+84
 4209              	.LBE1237:
 4210              	.LBE1236:
 110:Logger.cpp    ****     hw.PrintLine("%s - %s (FLT_VAR1 value):" FLT_FMT3 " us/call",
 4211              		.loc 6 110 18 view .LVU1080
 4212 01f6 B8EEE77A 		vcvt.f32.s32	s14, s15
 4213              	.LVL364:
 4214              	.LBB1240:
 4215              	.LBB1238:
 4216              		.loc 1 124 23 view .LVU1081
 4217 01fa CDED007A 		vstr.32	s15, [sp]	@ int
 4218              	.LBE1238:
 4219              	.LBE1240:
 110:Logger.cpp    ****     hw.PrintLine("%s - %s (FLT_VAR1 value):" FLT_FMT3 " us/call",
 4220              		.loc 6 110 18 view .LVU1082
 4221 01fe 39EE477A 		vsub.f32	s14, s18, s14
 4222              	.LVL365:
 110:Logger.cpp    ****     hw.PrintLine("%s - %s (FLT_VAR1 value):" FLT_FMT3 " us/call",
 4223              		.loc 6 110 18 view .LVU1083
 4224 0202 B7EEC77A 		vcvt.f64.f32	d7, s14
 4225 0206 27EE087B 		vmul.f64	d7, d7, d8
 107:Logger.cpp    ****                  class_caption,
 4226              		.loc 6 107 17 view .LVU1084
 4227 020a BDEEC77B 		vcvt.s32.f64	s14, d7
 4228              	.LBB1241:
 4229              	.LBB1239:
 4230              		.loc 1 124 23 view .LVU1085
 4231 020e 8DED017A 		vstr.32	s14, [sp, #4]	@ int
 4232 0212 FFF7FEFF 		bl	_ZN5daisy6LoggerILNS_17LoggerDestinationE1EE9PrintLineEPKcz
 4233              	.LVL366:
 4234              		.loc 1 124 23 view .LVU1086
 4235              	.LBE1239:
 4236              	.LBE1241:
 4237              	.LBB1242:
 4238              	.LBI1242:
  75:/usr/include/newlib/c++/9.2.1/bits/std_abs.h ****   { return __builtin_fabsf(__x); }
 4239              		.loc 7 75 3 is_stmt 1 view .LVU1087
 4240              	.LBB1243:
 4241              		.loc 7 76 5 view .LVU1088
 4242              		.loc 7 76 31 is_stmt 0 view .LVU1089
 4243 0216 B0EEEB7A 		vabs.f32	s14, s23
 4244              	.LVL367:
ARM GAS  /tmp/ccIu4BI8.s 			page 99


 4245              		.loc 7 76 31 view .LVU1090
 4246              	.LBE1243:
 4247              	.LBE1242:
 111:Logger.cpp    ****                  class_caption,
 4248              		.loc 6 111 17 view .LVU1091
 4249 021a F5EEC0BA 		vcmpe.f32	s23, #0
 4250              	.LBB1244:
 4251              	.LBB1245:
 4252              		.loc 1 124 23 view .LVU1092
 4253 021e 2A46     		mov	r2, r5
 4254 0220 2146     		mov	r1, r4
 4255 0222 5148     		ldr	r0, .L185+88
 4256              	.LBE1245:
 4257              	.LBE1244:
 111:Logger.cpp    ****                  class_caption,
 4258              		.loc 6 111 17 view .LVU1093
 4259 0224 FDEEC77A 		vcvt.s32.f32	s15, s14
 4260              	.LVL368:
 4261              		.loc 7 76 5 is_stmt 1 view .LVU1094
 4262              		.loc 7 76 5 view .LVU1095
 4263              	.LBB1248:
 4264              	.LBI1244:
 122:../../libdaisy/src/daisy_seed.h ****     {
 4265              		.loc 1 122 17 view .LVU1096
 4266              	.LBE1248:
 111:Logger.cpp    ****                  class_caption,
 4267              		.loc 6 111 17 is_stmt 0 view .LVU1097
 4268 0228 F1EE10FA 		vmrs	APSR_nzcv, FPSCR
 114:Logger.cpp    ****     hw.PrintLine("%s - %s (FLT_VAR2 value):" FLT_FMT3 " us/call",
 4269              		.loc 6 114 18 view .LVU1098
 4270 022c F8EEE76A 		vcvt.f32.s32	s13, s15
 4271              	.LVL369:
 4272              	.LBB1249:
 4273              	.LBB1246:
 4274              		.loc 1 124 23 view .LVU1099
 4275 0230 CDED007A 		vstr.32	s15, [sp]	@ int
 4276 0234 4CBF     		ite	mi
 4277 0236 2D23     		movmi	r3, #45
 4278 0238 2023     		movpl	r3, #32
 4279              	.LBE1246:
 4280              	.LBE1249:
 114:Logger.cpp    ****     hw.PrintLine("%s - %s (FLT_VAR2 value):" FLT_FMT3 " us/call",
 4281              		.loc 6 114 18 view .LVU1100
 4282 023a 37EE667A 		vsub.f32	s14, s14, s13
 4283              	.LVL370:
 114:Logger.cpp    ****     hw.PrintLine("%s - %s (FLT_VAR2 value):" FLT_FMT3 " us/call",
 4284              		.loc 6 114 18 view .LVU1101
 4285 023e B7EEC77A 		vcvt.f64.f32	d7, s14
 4286 0242 27EE087B 		vmul.f64	d7, d7, d8
 111:Logger.cpp    ****                  class_caption,
 4287              		.loc 6 111 17 view .LVU1102
 4288 0246 BDEEC77B 		vcvt.s32.f64	s14, d7
 4289              	.LBB1250:
 4290              	.LBB1247:
 4291              		.loc 1 124 23 view .LVU1103
 4292 024a 8DED017A 		vstr.32	s14, [sp, #4]	@ int
 4293 024e FFF7FEFF 		bl	_ZN5daisy6LoggerILNS_17LoggerDestinationE1EE9PrintLineEPKcz
ARM GAS  /tmp/ccIu4BI8.s 			page 100


 4294              	.LVL371:
 4295              		.loc 1 124 23 view .LVU1104
 4296              	.LBE1247:
 4297              	.LBE1250:
 4298              	.LBB1251:
 4299              	.LBI1251:
  75:/usr/include/newlib/c++/9.2.1/bits/std_abs.h ****   { return __builtin_fabsf(__x); }
 4300              		.loc 7 75 3 is_stmt 1 view .LVU1105
 4301              	.LBB1252:
 4302              		.loc 7 76 5 view .LVU1106
 4303              		.loc 7 76 31 is_stmt 0 view .LVU1107
 4304 0252 B0EEEA7A 		vabs.f32	s14, s21
 4305              	.LVL372:
 4306              		.loc 7 76 31 view .LVU1108
 4307              	.LBE1252:
 4308              	.LBE1251:
 115:Logger.cpp    ****                  class_caption,
 4309              		.loc 6 115 17 view .LVU1109
 4310 0256 F5EEC0AA 		vcmpe.f32	s21, #0
 4311              	.LBB1253:
 4312              	.LBB1254:
 4313              		.loc 1 124 23 view .LVU1110
 4314 025a 2A46     		mov	r2, r5
 4315 025c 2146     		mov	r1, r4
 4316 025e 4348     		ldr	r0, .L185+92
 4317              	.LBE1254:
 4318              	.LBE1253:
 115:Logger.cpp    ****                  class_caption,
 4319              		.loc 6 115 17 view .LVU1111
 4320 0260 FDEEC77A 		vcvt.s32.f32	s15, s14
 4321              	.LVL373:
 4322              		.loc 7 76 5 is_stmt 1 view .LVU1112
 4323              		.loc 7 76 5 view .LVU1113
 4324              	.LBB1257:
 4325              	.LBI1253:
 122:../../libdaisy/src/daisy_seed.h ****     {
 4326              		.loc 1 122 17 view .LVU1114
 4327              	.LBE1257:
 115:Logger.cpp    ****                  class_caption,
 4328              		.loc 6 115 17 is_stmt 0 view .LVU1115
 4329 0264 F1EE10FA 		vmrs	APSR_nzcv, FPSCR
 118:Logger.cpp    ****     hw.PrintLine("%s - %s (FLT_VAR3 value):" FLT_FMT3 " us/call",
 4330              		.loc 6 118 18 view .LVU1116
 4331 0268 F8EEE76A 		vcvt.f32.s32	s13, s15
 4332              	.LVL374:
 4333              	.LBB1258:
 4334              	.LBB1255:
 4335              		.loc 1 124 23 view .LVU1117
 4336 026c CDED007A 		vstr.32	s15, [sp]	@ int
 4337 0270 4CBF     		ite	mi
 4338 0272 2D23     		movmi	r3, #45
 4339 0274 2023     		movpl	r3, #32
 4340              	.LBE1255:
 4341              	.LBE1258:
 118:Logger.cpp    ****     hw.PrintLine("%s - %s (FLT_VAR3 value):" FLT_FMT3 " us/call",
 4342              		.loc 6 118 18 view .LVU1118
 4343 0276 37EE667A 		vsub.f32	s14, s14, s13
ARM GAS  /tmp/ccIu4BI8.s 			page 101


 4344              	.LVL375:
 118:Logger.cpp    ****     hw.PrintLine("%s - %s (FLT_VAR3 value):" FLT_FMT3 " us/call",
 4345              		.loc 6 118 18 view .LVU1119
 4346 027a B7EEC77A 		vcvt.f64.f32	d7, s14
 4347 027e 27EE087B 		vmul.f64	d7, d7, d8
 115:Logger.cpp    ****                  class_caption,
 4348              		.loc 6 115 17 view .LVU1120
 4349 0282 BDEEC77B 		vcvt.s32.f64	s14, d7
 4350              	.LBB1259:
 4351              	.LBB1256:
 4352              		.loc 1 124 23 view .LVU1121
 4353 0286 8DED017A 		vstr.32	s14, [sp, #4]	@ int
 4354 028a FFF7FEFF 		bl	_ZN5daisy6LoggerILNS_17LoggerDestinationE1EE9PrintLineEPKcz
 4355              	.LVL376:
 4356              		.loc 1 124 23 view .LVU1122
 4357              	.LBE1256:
 4358              	.LBE1259:
 4359              	.LBB1260:
 4360              	.LBI1260:
  75:/usr/include/newlib/c++/9.2.1/bits/std_abs.h ****   { return __builtin_fabsf(__x); }
 4361              		.loc 7 75 3 is_stmt 1 view .LVU1123
 4362              	.LBB1261:
 4363              		.loc 7 76 5 view .LVU1124
 4364              		.loc 7 76 31 is_stmt 0 view .LVU1125
 4365 028e B0EECA7A 		vabs.f32	s14, s20
 4366              	.LVL377:
 4367              		.loc 7 76 31 view .LVU1126
 4368              	.LBE1261:
 4369              	.LBE1260:
 119:Logger.cpp    ****                  class_caption,
 4370              		.loc 6 119 17 view .LVU1127
 4371 0292 B5EEC0AA 		vcmpe.f32	s20, #0
 4372              	.LBB1262:
 4373              	.LBB1263:
 4374              		.loc 1 124 23 view .LVU1128
 4375 0296 2A46     		mov	r2, r5
 4376 0298 2146     		mov	r1, r4
 4377 029a 3548     		ldr	r0, .L185+96
 4378              	.LBE1263:
 4379              	.LBE1262:
 119:Logger.cpp    ****                  class_caption,
 4380              		.loc 6 119 17 view .LVU1129
 4381 029c FDEEC77A 		vcvt.s32.f32	s15, s14
 4382              	.LVL378:
 4383              		.loc 7 76 5 is_stmt 1 view .LVU1130
 4384              		.loc 7 76 5 view .LVU1131
 4385              	.LBB1266:
 4386              	.LBI1262:
 122:../../libdaisy/src/daisy_seed.h ****     {
 4387              		.loc 1 122 17 view .LVU1132
 4388              	.LBE1266:
 119:Logger.cpp    ****                  class_caption,
 4389              		.loc 6 119 17 is_stmt 0 view .LVU1133
 4390 02a0 F1EE10FA 		vmrs	APSR_nzcv, FPSCR
 122:Logger.cpp    ****     hw.PrintLine("%s - %s (FLT_VAR4 value):" FLT_FMT3 " us/call",
 4391              		.loc 6 122 18 view .LVU1134
 4392 02a4 F8EEE76A 		vcvt.f32.s32	s13, s15
ARM GAS  /tmp/ccIu4BI8.s 			page 102


 4393              	.LVL379:
 4394              	.LBB1267:
 4395              	.LBB1264:
 4396              		.loc 1 124 23 view .LVU1135
 4397 02a8 CDED007A 		vstr.32	s15, [sp]	@ int
 4398 02ac 4CBF     		ite	mi
 4399 02ae 2D23     		movmi	r3, #45
 4400 02b0 2023     		movpl	r3, #32
 4401              	.LBE1264:
 4402              	.LBE1267:
 122:Logger.cpp    ****     hw.PrintLine("%s - %s (FLT_VAR4 value):" FLT_FMT3 " us/call",
 4403              		.loc 6 122 18 view .LVU1136
 4404 02b2 37EE667A 		vsub.f32	s14, s14, s13
 4405              	.LVL380:
 122:Logger.cpp    ****     hw.PrintLine("%s - %s (FLT_VAR4 value):" FLT_FMT3 " us/call",
 4406              		.loc 6 122 18 view .LVU1137
 4407 02b6 B7EEC77A 		vcvt.f64.f32	d7, s14
 4408 02ba 27EE087B 		vmul.f64	d7, d7, d8
 119:Logger.cpp    ****                  class_caption,
 4409              		.loc 6 119 17 view .LVU1138
 4410 02be BDEEC77B 		vcvt.s32.f64	s14, d7
 4411              	.LBB1268:
 4412              	.LBB1265:
 4413              		.loc 1 124 23 view .LVU1139
 4414 02c2 8DED017A 		vstr.32	s14, [sp, #4]	@ int
 4415 02c6 FFF7FEFF 		bl	_ZN5daisy6LoggerILNS_17LoggerDestinationE1EE9PrintLineEPKcz
 4416              	.LVL381:
 4417              		.loc 1 124 23 view .LVU1140
 4418              	.LBE1265:
 4419              	.LBE1268:
 4420              	.LBB1269:
 4421              	.LBI1269:
  75:/usr/include/newlib/c++/9.2.1/bits/std_abs.h ****   { return __builtin_fabsf(__x); }
 4422              		.loc 7 75 3 is_stmt 1 view .LVU1141
 4423              	.LBB1270:
 4424              		.loc 7 76 5 view .LVU1142
 4425              		.loc 7 76 31 is_stmt 0 view .LVU1143
 4426 02ca B0EEE97A 		vabs.f32	s14, s19
 4427              	.LVL382:
 4428              		.loc 7 76 31 view .LVU1144
 4429              	.LBE1270:
 4430              	.LBE1269:
 123:Logger.cpp    ****                  class_caption,
 4431              		.loc 6 123 17 view .LVU1145
 4432 02ce F5EEC09A 		vcmpe.f32	s19, #0
 4433              	.LBB1271:
 4434              	.LBB1272:
 4435              		.loc 1 124 23 view .LVU1146
 4436 02d2 2A46     		mov	r2, r5
 4437 02d4 2146     		mov	r1, r4
 4438 02d6 2748     		ldr	r0, .L185+100
 4439              	.LBE1272:
 4440              	.LBE1271:
 123:Logger.cpp    ****                  class_caption,
 4441              		.loc 6 123 17 view .LVU1147
 4442 02d8 FDEEC77A 		vcvt.s32.f32	s15, s14
 4443              	.LVL383:
ARM GAS  /tmp/ccIu4BI8.s 			page 103


 4444              		.loc 7 76 5 is_stmt 1 view .LVU1148
 4445              		.loc 7 76 5 view .LVU1149
 4446              	.LBB1275:
 4447              	.LBI1271:
 122:../../libdaisy/src/daisy_seed.h ****     {
 4448              		.loc 1 122 17 view .LVU1150
 4449              	.LBE1275:
 123:Logger.cpp    ****                  class_caption,
 4450              		.loc 6 123 17 is_stmt 0 view .LVU1151
 4451 02dc F1EE10FA 		vmrs	APSR_nzcv, FPSCR
 126:Logger.cpp    **** }
 4452              		.loc 6 126 18 view .LVU1152
 4453 02e0 F8EEE76A 		vcvt.f32.s32	s13, s15
 4454              	.LVL384:
 4455              	.LBB1276:
 4456              	.LBB1273:
 4457              		.loc 1 124 23 view .LVU1153
 4458 02e4 CDED007A 		vstr.32	s15, [sp]	@ int
 4459 02e8 4CBF     		ite	mi
 4460 02ea 2D23     		movmi	r3, #45
 4461 02ec 2023     		movpl	r3, #32
 4462              	.LBE1273:
 4463              	.LBE1276:
 126:Logger.cpp    **** }
 4464              		.loc 6 126 18 view .LVU1154
 4465 02ee 37EE667A 		vsub.f32	s14, s14, s13
 4466              	.LVL385:
 126:Logger.cpp    **** }
 4467              		.loc 6 126 18 view .LVU1155
 4468 02f2 B7EEC77A 		vcvt.f64.f32	d7, s14
 4469 02f6 27EE087B 		vmul.f64	d7, d7, d8
 123:Logger.cpp    ****                  class_caption,
 4470              		.loc 6 123 17 view .LVU1156
 4471 02fa BDEEC77B 		vcvt.s32.f64	s14, d7
 4472              	.LBB1277:
 4473              	.LBB1274:
 4474              		.loc 1 124 23 view .LVU1157
 4475 02fe 8DED017A 		vstr.32	s14, [sp, #4]	@ int
 4476 0302 FFF7FEFF 		bl	_ZN5daisy6LoggerILNS_17LoggerDestinationE1EE9PrintLineEPKcz
 4477              	.LVL386:
 4478              		.loc 1 124 23 view .LVU1158
 4479              	.LBE1274:
 4480              	.LBE1277:
 127:Logger.cpp    **** 
 4481              		.loc 6 127 1 view .LVU1159
 4482 0306 07B0     		add	sp, sp, #28
 4483              		.cfi_def_cfa_offset 68
 4484              		@ sp needed
 4485 0308 BDEC0C8B 		vldm	sp!, {d8-d13}
 4486              		.cfi_restore 90
 4487              		.cfi_restore 91
 4488              		.cfi_restore 88
 4489              		.cfi_restore 89
 4490              		.cfi_restore 86
 4491              		.cfi_restore 87
 4492              		.cfi_restore 84
 4493              		.cfi_restore 85
ARM GAS  /tmp/ccIu4BI8.s 			page 104


 4494              		.cfi_restore 82
 4495              		.cfi_restore 83
 4496              		.cfi_restore 80
 4497              		.cfi_restore 81
 4498              		.cfi_def_cfa_offset 20
 4499              	.LVL387:
 127:Logger.cpp    **** 
 4500              		.loc 6 127 1 view .LVU1160
 4501 030c F0BD     		pop	{r4, r5, r6, r7, pc}
 4502              	.LVL388:
 4503              	.L186:
 127:Logger.cpp    **** 
 4504              		.loc 6 127 1 view .LVU1161
 4505 030e 00BF     		.align	3
 4506              	.L185:
 4507 0310 00000000 		.word	0
 4508 0314 00C05E40 		.word	1079951360
 4509 0318 00000000 		.word	0
 4510 031c 00408F40 		.word	1083129856
 4511 0320 00000000 		.word	.LC15
 4512 0324 A0860100 		.word	100000
 4513 0328 04000000 		.word	.LC16
 4514 032c 08000000 		.word	.LC17
 4515 0330 30000000 		.word	.LC18
 4516 0334 34000000 		.word	.LC19
 4517 0338 1C000000 		.word	.LC3
 4518 033c 8096984B 		.word	1268291200
 4519 0340 38000000 		.word	.LC20
 4520 0344 44000000 		.word	.LC21
 4521 0348 10000000 		.word	.LC2
 4522 034c 50000000 		.word	.LC22
 4523 0350 00000C42 		.word	1108082688
 4524 0354 00000000 		.word	.LC6
 4525 0358 2C000000 		.word	.LC7
 4526 035c 6C000000 		.word	.LC8
 4527 0360 98000000 		.word	.LC9
 4528 0364 C4000000 		.word	.LC10
 4529 0368 F0000000 		.word	.LC11
 4530 036c 1C010000 		.word	.LC12
 4531 0370 48010000 		.word	.LC13
 4532 0374 74010000 		.word	.LC14
 4533              		.cfi_endproc
 4534              	.LFE2083:
 4536              		.section	.text._Z15ProfileFunctionIXadL_ZN5daisy6LoggerILNS0_17LoggerDestinationE3EE5PrintEPKczEEJ
 4537              		.align	1
 4538              		.p2align 2,,3
 4539              		.weak	_Z15ProfileFunctionIXadL_ZN5daisy6LoggerILNS0_17LoggerDestinationE3EE5PrintEPKczEEJEEfS5_DpT
 4540              		.syntax unified
 4541              		.thumb
 4542              		.thumb_func
 4543              		.fpu fpv5-d16
 4545              	_Z15ProfileFunctionIXadL_ZN5daisy6LoggerILNS0_17LoggerDestinationE3EE5PrintEPKczEEJEEfS5_DpT0_:
 4546              	.LVL389:
 4547              	.LFB2099:
  49:Logger.cpp    **** {
 4548              		.loc 6 49 7 is_stmt 1 view -0
 4549              		.cfi_startproc
ARM GAS  /tmp/ccIu4BI8.s 			page 105


 4550              		@ args = 0, pretend = 0, frame = 0
 4551              		@ frame_needed = 0, uses_anonymous_args = 0
  49:Logger.cpp    **** {
 4552              		.loc 6 49 7 is_stmt 0 view .LVU1163
 4553 0000 70B5     		push	{r4, r5, r6, lr}
 4554              		.cfi_def_cfa_offset 16
 4555              		.cfi_offset 4, -16
 4556              		.cfi_offset 5, -12
 4557              		.cfi_offset 6, -8
 4558              		.cfi_offset 14, -4
  49:Logger.cpp    **** {
 4559              		.loc 6 49 7 view .LVU1164
 4560 0002 0546     		mov	r5, r0
  52:Logger.cpp    ****     for(int i = 0; i < count; i++)
 4561              		.loc 6 52 46 view .LVU1165
 4562 0004 0A4C     		ldr	r4, .L191
 4563 0006 FFF7FEFF 		bl	_ZN5daisy6System7GetTickEv
 4564              	.LVL390:
  52:Logger.cpp    ****     for(int i = 0; i < count; i++)
 4565              		.loc 6 52 46 view .LVU1166
 4566 000a 0646     		mov	r6, r0
 4567              	.LVL391:
 4568              	.LBB1278:
  53:Logger.cpp    ****     {
 4569              		.loc 6 53 22 is_stmt 1 view .LVU1167
 4570              	.L188:
  55:Logger.cpp    ****     }
 4571              		.loc 6 55 17 is_stmt 0 discriminator 2 view .LVU1168
 4572 000c 2846     		mov	r0, r5
 4573 000e FFF7FEFF 		bl	_ZN5daisy6LoggerILNS_17LoggerDestinationE3EE5PrintEPKcz
 4574              	.LVL392:
  53:Logger.cpp    ****     {
 4575              		.loc 6 53 5 is_stmt 1 discriminator 2 view .LVU1169
  53:Logger.cpp    ****     {
 4576              		.loc 6 53 22 discriminator 2 view .LVU1170
 4577 0012 013C     		subs	r4, r4, #1
 4578              	.LVL393:
  53:Logger.cpp    ****     {
 4579              		.loc 6 53 22 is_stmt 0 discriminator 2 view .LVU1171
 4580 0014 FAD1     		bne	.L188
 4581              	.LBE1278:
  57:Logger.cpp    ****     const float perf
 4582              		.loc 6 57 37 view .LVU1172
 4583 0016 FFF7FEFF 		bl	_ZN5daisy6System7GetTickEv
 4584              	.LVL394:
  57:Logger.cpp    ****     const float perf
 4585              		.loc 6 57 17 view .LVU1173
 4586 001a 801B     		subs	r0, r0, r6
 4587              	.LVL395:
  58:Logger.cpp    ****         = (float)dt
 4588              		.loc 6 58 17 view .LVU1174
 4589 001c 9FED050A 		vldr.32	s0, .L191+4
  60:Logger.cpp    ****     return perf;
 4590              		.loc 6 60 11 view .LVU1175
 4591 0020 07EE900A 		vmov	s15, r0	@ int
 4592 0024 F8EE677A 		vcvt.f32.u32	s15, s15
  62:Logger.cpp    **** 
ARM GAS  /tmp/ccIu4BI8.s 			page 106


 4593              		.loc 6 62 1 view .LVU1176
 4594 0028 87EE800A 		vdiv.f32	s0, s15, s0
 4595              	.LVL396:
  62:Logger.cpp    **** 
 4596              		.loc 6 62 1 view .LVU1177
 4597 002c 70BD     		pop	{r4, r5, r6, pc}
 4598              	.LVL397:
 4599              	.L192:
  62:Logger.cpp    **** 
 4600              		.loc 6 62 1 view .LVU1178
 4601 002e 00BF     		.align	2
 4602              	.L191:
 4603 0030 A0860100 		.word	100000
 4604 0034 8096984B 		.word	1268291200
 4605              		.cfi_endproc
 4606              	.LFE2099:
 4608              		.section	.text._Z15ProfileFunctionIXadL_ZN5daisy6LoggerILNS0_17LoggerDestinationE3EE5PrintEPKczEEJ
 4609              		.align	1
 4610              		.p2align 2,,3
 4611              		.weak	_Z15ProfileFunctionIXadL_ZN5daisy6LoggerILNS0_17LoggerDestinationE3EE5PrintEPKczEEJiEEfS5_Dp
 4612              		.syntax unified
 4613              		.thumb
 4614              		.thumb_func
 4615              		.fpu fpv5-d16
 4617              	_Z15ProfileFunctionIXadL_ZN5daisy6LoggerILNS0_17LoggerDestinationE3EE5PrintEPKczEEJiEEfS5_DpT0_:
 4618              	.LVL398:
 4619              	.LFB2100:
  49:Logger.cpp    **** {
 4620              		.loc 6 49 7 is_stmt 1 view -0
 4621              		.cfi_startproc
 4622              		@ args = 0, pretend = 0, frame = 0
 4623              		@ frame_needed = 0, uses_anonymous_args = 0
  49:Logger.cpp    **** {
 4624              		.loc 6 49 7 is_stmt 0 view .LVU1180
 4625 0000 F8B5     		push	{r3, r4, r5, r6, r7, lr}
 4626              		.cfi_def_cfa_offset 24
 4627              		.cfi_offset 3, -24
 4628              		.cfi_offset 4, -20
 4629              		.cfi_offset 5, -16
 4630              		.cfi_offset 6, -12
 4631              		.cfi_offset 7, -8
 4632              		.cfi_offset 14, -4
  49:Logger.cpp    **** {
 4633              		.loc 6 49 7 view .LVU1181
 4634 0002 0646     		mov	r6, r0
 4635 0004 0D46     		mov	r5, r1
  52:Logger.cpp    ****     for(int i = 0; i < count; i++)
 4636              		.loc 6 52 46 view .LVU1182
 4637 0006 0B4C     		ldr	r4, .L197
 4638 0008 FFF7FEFF 		bl	_ZN5daisy6System7GetTickEv
 4639              	.LVL399:
  52:Logger.cpp    ****     for(int i = 0; i < count; i++)
 4640              		.loc 6 52 46 view .LVU1183
 4641 000c 0746     		mov	r7, r0
 4642              	.LVL400:
 4643              	.LBB1279:
  53:Logger.cpp    ****     {
ARM GAS  /tmp/ccIu4BI8.s 			page 107


 4644              		.loc 6 53 22 is_stmt 1 view .LVU1184
 4645              	.L194:
  55:Logger.cpp    ****     }
 4646              		.loc 6 55 17 is_stmt 0 discriminator 2 view .LVU1185
 4647 000e 2946     		mov	r1, r5
 4648 0010 3046     		mov	r0, r6
 4649 0012 FFF7FEFF 		bl	_ZN5daisy6LoggerILNS_17LoggerDestinationE3EE5PrintEPKcz
 4650              	.LVL401:
  53:Logger.cpp    ****     {
 4651              		.loc 6 53 5 is_stmt 1 discriminator 2 view .LVU1186
  53:Logger.cpp    ****     {
 4652              		.loc 6 53 22 discriminator 2 view .LVU1187
 4653 0016 013C     		subs	r4, r4, #1
 4654              	.LVL402:
  53:Logger.cpp    ****     {
 4655              		.loc 6 53 22 is_stmt 0 discriminator 2 view .LVU1188
 4656 0018 F9D1     		bne	.L194
 4657              	.LBE1279:
  57:Logger.cpp    ****     const float perf
 4658              		.loc 6 57 37 view .LVU1189
 4659 001a FFF7FEFF 		bl	_ZN5daisy6System7GetTickEv
 4660              	.LVL403:
  57:Logger.cpp    ****     const float perf
 4661              		.loc 6 57 17 view .LVU1190
 4662 001e C01B     		subs	r0, r0, r7
 4663              	.LVL404:
  58:Logger.cpp    ****         = (float)dt
 4664              		.loc 6 58 17 view .LVU1191
 4665 0020 9FED050A 		vldr.32	s0, .L197+4
  60:Logger.cpp    ****     return perf;
 4666              		.loc 6 60 11 view .LVU1192
 4667 0024 07EE900A 		vmov	s15, r0	@ int
 4668 0028 F8EE677A 		vcvt.f32.u32	s15, s15
  62:Logger.cpp    **** 
 4669              		.loc 6 62 1 view .LVU1193
 4670 002c 87EE800A 		vdiv.f32	s0, s15, s0
 4671              	.LVL405:
  62:Logger.cpp    **** 
 4672              		.loc 6 62 1 view .LVU1194
 4673 0030 F8BD     		pop	{r3, r4, r5, r6, r7, pc}
 4674              	.LVL406:
 4675              	.L198:
  62:Logger.cpp    **** 
 4676              		.loc 6 62 1 view .LVU1195
 4677 0032 00BF     		.align	2
 4678              	.L197:
 4679 0034 A0860100 		.word	100000
 4680 0038 8096984B 		.word	1268291200
 4681              		.cfi_endproc
 4682              	.LFE2100:
 4684              		.section	.text._Z15ProfileFunctionIXadL_ZN5daisy6LoggerILNS0_17LoggerDestinationE3EE5PrintEPKczEEJ
 4685              		.align	1
 4686              		.p2align 2,,3
 4687              		.weak	_Z15ProfileFunctionIXadL_ZN5daisy6LoggerILNS0_17LoggerDestinationE3EE5PrintEPKczEEJciiEEfS5_
 4688              		.syntax unified
 4689              		.thumb
 4690              		.thumb_func
ARM GAS  /tmp/ccIu4BI8.s 			page 108


 4691              		.fpu fpv5-d16
 4693              	_Z15ProfileFunctionIXadL_ZN5daisy6LoggerILNS0_17LoggerDestinationE3EE5PrintEPKczEEJciiEEfS5_DpT0_:
 4694              	.LVL407:
 4695              	.LFB2102:
  49:Logger.cpp    **** {
 4696              		.loc 6 49 7 is_stmt 1 view -0
 4697              		.cfi_startproc
 4698              		@ args = 0, pretend = 0, frame = 0
 4699              		@ frame_needed = 0, uses_anonymous_args = 0
  49:Logger.cpp    **** {
 4700              		.loc 6 49 7 is_stmt 0 view .LVU1197
 4701 0000 2DE9F843 		push	{r3, r4, r5, r6, r7, r8, r9, lr}
 4702              		.cfi_def_cfa_offset 32
 4703              		.cfi_offset 3, -32
 4704              		.cfi_offset 4, -28
 4705              		.cfi_offset 5, -24
 4706              		.cfi_offset 6, -20
 4707              		.cfi_offset 7, -16
 4708              		.cfi_offset 8, -12
 4709              		.cfi_offset 9, -8
 4710              		.cfi_offset 14, -4
  49:Logger.cpp    **** {
 4711              		.loc 6 49 7 view .LVU1198
 4712 0004 8046     		mov	r8, r0
 4713 0006 0F46     		mov	r7, r1
 4714 0008 1646     		mov	r6, r2
 4715 000a 1D46     		mov	r5, r3
  52:Logger.cpp    ****     for(int i = 0; i < count; i++)
 4716              		.loc 6 52 46 view .LVU1199
 4717 000c 0C4C     		ldr	r4, .L203
 4718 000e FFF7FEFF 		bl	_ZN5daisy6System7GetTickEv
 4719              	.LVL408:
  52:Logger.cpp    ****     for(int i = 0; i < count; i++)
 4720              		.loc 6 52 46 view .LVU1200
 4721 0012 8146     		mov	r9, r0
 4722              	.LVL409:
 4723              	.LBB1280:
  53:Logger.cpp    ****     {
 4724              		.loc 6 53 22 is_stmt 1 view .LVU1201
 4725              	.L200:
  55:Logger.cpp    ****     }
 4726              		.loc 6 55 17 is_stmt 0 discriminator 2 view .LVU1202
 4727 0014 2B46     		mov	r3, r5
 4728 0016 3246     		mov	r2, r6
 4729 0018 3946     		mov	r1, r7
 4730 001a 4046     		mov	r0, r8
 4731 001c FFF7FEFF 		bl	_ZN5daisy6LoggerILNS_17LoggerDestinationE3EE5PrintEPKcz
 4732              	.LVL410:
  53:Logger.cpp    ****     {
 4733              		.loc 6 53 5 is_stmt 1 discriminator 2 view .LVU1203
  53:Logger.cpp    ****     {
 4734              		.loc 6 53 22 discriminator 2 view .LVU1204
 4735 0020 013C     		subs	r4, r4, #1
 4736              	.LVL411:
  53:Logger.cpp    ****     {
 4737              		.loc 6 53 22 is_stmt 0 discriminator 2 view .LVU1205
 4738 0022 F7D1     		bne	.L200
ARM GAS  /tmp/ccIu4BI8.s 			page 109


 4739              	.LBE1280:
  57:Logger.cpp    ****     const float perf
 4740              		.loc 6 57 37 view .LVU1206
 4741 0024 FFF7FEFF 		bl	_ZN5daisy6System7GetTickEv
 4742              	.LVL412:
  57:Logger.cpp    ****     const float perf
 4743              		.loc 6 57 17 view .LVU1207
 4744 0028 A0EB0900 		sub	r0, r0, r9
 4745              	.LVL413:
  58:Logger.cpp    ****         = (float)dt
 4746              		.loc 6 58 17 view .LVU1208
 4747 002c 9FED050A 		vldr.32	s0, .L203+4
  60:Logger.cpp    ****     return perf;
 4748              		.loc 6 60 11 view .LVU1209
 4749 0030 07EE900A 		vmov	s15, r0	@ int
 4750 0034 F8EE677A 		vcvt.f32.u32	s15, s15
  62:Logger.cpp    **** 
 4751              		.loc 6 62 1 view .LVU1210
 4752 0038 87EE800A 		vdiv.f32	s0, s15, s0
 4753              	.LVL414:
  62:Logger.cpp    **** 
 4754              		.loc 6 62 1 view .LVU1211
 4755 003c BDE8F883 		pop	{r3, r4, r5, r6, r7, r8, r9, pc}
 4756              	.LVL415:
 4757              	.L204:
  62:Logger.cpp    **** 
 4758              		.loc 6 62 1 view .LVU1212
 4759              		.align	2
 4760              	.L203:
 4761 0040 A0860100 		.word	100000
 4762 0044 8096984B 		.word	1268291200
 4763              		.cfi_endproc
 4764              	.LFE2102:
 4766              		.section	.text._Z12ProfilePrintIXadL_ZN5daisy6LoggerILNS0_17LoggerDestinationE3EE5PrintEPKczEEEvS5
 4767              		.align	1
 4768              		.p2align 2,,3
 4769              		.weak	_Z12ProfilePrintIXadL_ZN5daisy6LoggerILNS0_17LoggerDestinationE3EE5PrintEPKczEEEvS5_S5_
 4770              		.syntax unified
 4771              		.thumb
 4772              		.thumb_func
 4773              		.fpu fpv5-d16
 4775              	_Z12ProfilePrintIXadL_ZN5daisy6LoggerILNS0_17LoggerDestinationE3EE5PrintEPKczEEEvS5_S5_:
 4776              	.LVL416:
 4777              	.LFB2084:
  67:Logger.cpp    **** {
 4778              		.loc 6 67 6 is_stmt 1 view -0
 4779              		.cfi_startproc
 4780              		@ args = 0, pretend = 0, frame = 0
 4781              		@ frame_needed = 0, uses_anonymous_args = 0
  67:Logger.cpp    **** {
 4782              		.loc 6 67 6 is_stmt 0 view .LVU1214
 4783 0000 F0B5     		push	{r4, r5, r6, r7, lr}
 4784              		.cfi_def_cfa_offset 20
 4785              		.cfi_offset 4, -20
 4786              		.cfi_offset 5, -16
 4787              		.cfi_offset 6, -12
 4788              		.cfi_offset 7, -8
ARM GAS  /tmp/ccIu4BI8.s 			page 110


 4789              		.cfi_offset 14, -4
 4790 0002 0446     		mov	r4, r0
  69:Logger.cpp    ****     const float print_1 = ProfileFunction<function>("a");
 4791              		.loc 6 69 52 view .LVU1215
 4792 0004 C648     		ldr	r0, .L227+16
 4793              	.LVL417:
  67:Logger.cpp    **** {
 4794              		.loc 6 67 6 view .LVU1216
 4795 0006 0D46     		mov	r5, r1
 4796              	.LBB1322:
 4797              	.LBB1323:
  52:Logger.cpp    ****     for(int i = 0; i < count; i++)
 4798              		.loc 6 52 46 view .LVU1217
 4799 0008 C64E     		ldr	r6, .L227+20
 4800              	.LBE1323:
 4801              	.LBE1322:
  67:Logger.cpp    **** {
 4802              		.loc 6 67 6 view .LVU1218
 4803 000a 2DED0C8B 		vpush.64	{d8, d9, d10, d11, d12, d13}
 4804              		.cfi_def_cfa_offset 68
 4805              		.cfi_offset 80, -68
 4806              		.cfi_offset 81, -64
 4807              		.cfi_offset 82, -60
 4808              		.cfi_offset 83, -56
 4809              		.cfi_offset 84, -52
 4810              		.cfi_offset 85, -48
 4811              		.cfi_offset 86, -44
 4812              		.cfi_offset 87, -40
 4813              		.cfi_offset 88, -36
 4814              		.cfi_offset 89, -32
 4815              		.cfi_offset 90, -28
 4816              		.cfi_offset 91, -24
 4817 000e 87B0     		sub	sp, sp, #28
 4818              		.cfi_def_cfa_offset 96
  69:Logger.cpp    ****     const float print_1 = ProfileFunction<function>("a");
 4819              		.loc 6 69 52 view .LVU1219
 4820 0010 FFF7FEFF 		bl	_Z15ProfileFunctionIXadL_ZN5daisy6LoggerILNS0_17LoggerDestinationE3EE5PrintEPKczEEJEEfS5_DpT0_
 4821              	.LVL418:
  70:Logger.cpp    ****     const float print_36
 4822              		.loc 6 70 52 view .LVU1220
 4823 0014 C448     		ldr	r0, .L227+24
  69:Logger.cpp    ****     const float print_1 = ProfileFunction<function>("a");
 4824              		.loc 6 69 52 view .LVU1221
 4825 0016 F0EE40DA 		vmov.f32	s27, s0
 4826              	.LVL419:
  70:Logger.cpp    ****     const float print_36
 4827              		.loc 6 70 52 view .LVU1222
 4828 001a FFF7FEFF 		bl	_Z15ProfileFunctionIXadL_ZN5daisy6LoggerILNS0_17LoggerDestinationE3EE5PrintEPKczEEJEEfS5_DpT0_
 4829              	.LVL420:
  72:Logger.cpp    ****     const float print_d = ProfileFunction<function>("%d", 123);
 4830              		.loc 6 72 36 view .LVU1223
 4831 001e C348     		ldr	r0, .L227+28
  70:Logger.cpp    ****     const float print_36
 4832              		.loc 6 70 52 view .LVU1224
 4833 0020 F0EE40CA 		vmov.f32	s25, s0
 4834              	.LVL421:
  72:Logger.cpp    ****     const float print_d = ProfileFunction<function>("%d", 123);
ARM GAS  /tmp/ccIu4BI8.s 			page 111


 4835              		.loc 6 72 36 view .LVU1225
 4836 0024 FFF7FEFF 		bl	_Z15ProfileFunctionIXadL_ZN5daisy6LoggerILNS0_17LoggerDestinationE3EE5PrintEPKczEEJEEfS5_DpT0_
 4837              	.LVL422:
  73:Logger.cpp    ****     const float print_u = ProfileFunction<function>("%u", 123);
 4838              		.loc 6 73 52 view .LVU1226
 4839 0028 7B21     		movs	r1, #123
 4840 002a C148     		ldr	r0, .L227+32
  72:Logger.cpp    ****     const float print_d = ProfileFunction<function>("%d", 123);
 4841              		.loc 6 72 36 view .LVU1227
 4842 002c B0EE40DA 		vmov.f32	s26, s0
 4843              	.LVL423:
  73:Logger.cpp    ****     const float print_u = ProfileFunction<function>("%u", 123);
 4844              		.loc 6 73 52 view .LVU1228
 4845 0030 FFF7FEFF 		bl	_Z15ProfileFunctionIXadL_ZN5daisy6LoggerILNS0_17LoggerDestinationE3EE5PrintEPKczEEJiEEfS5_DpT0_
 4846              	.LVL424:
  74:Logger.cpp    ****     const float print_f = ProfileFunction<function>("%.3f", 123.0f);
 4847              		.loc 6 74 52 view .LVU1229
 4848 0034 7B21     		movs	r1, #123
 4849 0036 BF48     		ldr	r0, .L227+36
  73:Logger.cpp    ****     const float print_u = ProfileFunction<function>("%u", 123);
 4850              		.loc 6 73 52 view .LVU1230
 4851 0038 B0EE40CA 		vmov.f32	s24, s0
 4852              	.LVL425:
  74:Logger.cpp    ****     const float print_f = ProfileFunction<function>("%.3f", 123.0f);
 4853              		.loc 6 74 52 view .LVU1231
 4854 003c FFF7FEFF 		bl	_Z15ProfileFunctionIXadL_ZN5daisy6LoggerILNS0_17LoggerDestinationE3EE5PrintEPKczEEJiEEfS5_DpT0_
 4855              	.LVL426:
  74:Logger.cpp    ****     const float print_f = ProfileFunction<function>("%.3f", 123.0f);
 4856              		.loc 6 74 52 view .LVU1232
 4857 0040 B0EE40BA 		vmov.f32	s22, s0
 4858              	.LVL427:
 4859              	.LBB1329:
 4860              	.LBI1322:
  49:Logger.cpp    **** {
 4861              		.loc 6 49 7 is_stmt 1 view .LVU1233
 4862              	.LBB1325:
  52:Logger.cpp    ****     for(int i = 0; i < count; i++)
 4863              		.loc 6 52 46 is_stmt 0 view .LVU1234
 4864 0044 FFF7FEFF 		bl	_ZN5daisy6System7GetTickEv
 4865              	.LVL428:
  52:Logger.cpp    ****     for(int i = 0; i < count; i++)
 4866              		.loc 6 52 46 view .LVU1235
 4867 0048 0746     		mov	r7, r0
 4868              	.LVL429:
 4869              	.LBB1324:
  53:Logger.cpp    ****     {
 4870              		.loc 6 53 22 is_stmt 1 view .LVU1236
 4871              	.L206:
  55:Logger.cpp    ****     }
 4872              		.loc 6 55 17 is_stmt 0 view .LVU1237
 4873 004a BB48     		ldr	r0, .L227+40
 4874 004c B0A3     		adr	r3, .L227
 4875 004e D3E90023 		ldrd	r2, [r3]
 4876 0052 FFF7FEFF 		bl	_ZN5daisy6LoggerILNS_17LoggerDestinationE3EE5PrintEPKcz
 4877              	.LVL430:
  53:Logger.cpp    ****     {
 4878              		.loc 6 53 5 is_stmt 1 view .LVU1238
ARM GAS  /tmp/ccIu4BI8.s 			page 112


  53:Logger.cpp    ****     {
 4879              		.loc 6 53 22 view .LVU1239
 4880 0056 013E     		subs	r6, r6, #1
 4881              	.LVL431:
  53:Logger.cpp    ****     {
 4882              		.loc 6 53 22 is_stmt 0 view .LVU1240
 4883 0058 F7D1     		bne	.L206
 4884              	.LBE1324:
  57:Logger.cpp    ****     const float perf
 4885              		.loc 6 57 37 view .LVU1241
 4886 005a FFF7FEFF 		bl	_ZN5daisy6System7GetTickEv
 4887              	.LVL432:
  57:Logger.cpp    ****     const float perf
 4888              		.loc 6 57 17 view .LVU1242
 4889 005e C21B     		subs	r2, r0, r7
 4890              	.LVL433:
  58:Logger.cpp    ****         = (float)dt
 4891              		.loc 6 58 17 view .LVU1243
 4892 0060 9FEDB67A 		vldr.32	s14, .L227+44
 4893              	.LBE1325:
 4894              	.LBE1329:
  77:Logger.cpp    ****     const float print_F2
 4895              		.loc 6 77 36 view .LVU1244
 4896 0064 3346     		mov	r3, r6
 4897              	.LBB1330:
 4898              	.LBB1326:
  57:Logger.cpp    ****     const float perf
 4899              		.loc 6 57 17 view .LVU1245
 4900 0066 07EE902A 		vmov	s15, r2	@ int
 4901              	.LBE1326:
 4902              	.LBE1330:
  77:Logger.cpp    ****     const float print_F2
 4903              		.loc 6 77 36 view .LVU1246
 4904 006a 2021     		movs	r1, #32
 4905 006c 7B22     		movs	r2, #123
 4906              	.LVL434:
  77:Logger.cpp    ****     const float print_F2
 4907              		.loc 6 77 36 view .LVU1247
 4908 006e B448     		ldr	r0, .L227+48
 4909              	.LBB1331:
 4910              	.LBB1327:
  60:Logger.cpp    ****     return perf;
 4911              		.loc 6 60 11 view .LVU1248
 4912 0070 F8EE677A 		vcvt.f32.u32	s15, s15
 4913              	.LVL435:
  60:Logger.cpp    ****     return perf;
 4914              		.loc 6 60 11 view .LVU1249
 4915              	.LBE1327:
 4916              	.LBE1331:
  92:Logger.cpp    ****     hw.PrintLine("%s - %s (   text string):" FLT_FMT3 " us/call +" FLT_FMT3
 4917              		.loc 6 92 18 view .LVU1250
 4918 0074 9FEDA88B 		vldr.64	d8, .L227+8
 4919              	.LBB1332:
 4920              	.LBB1328:
  58:Logger.cpp    ****         = (float)dt
 4921              		.loc 6 58 17 view .LVU1251
 4922 0078 87EE879A 		vdiv.f32	s18, s15, s14
ARM GAS  /tmp/ccIu4BI8.s 			page 113


 4923              	.LVL436:
  58:Logger.cpp    ****         = (float)dt
 4924              		.loc 6 58 17 view .LVU1252
 4925              	.LBE1328:
 4926              	.LBE1332:
  77:Logger.cpp    ****     const float print_F2
 4927              		.loc 6 77 36 view .LVU1253
 4928 007c FFF7FEFF 		bl	_Z15ProfileFunctionIXadL_ZN5daisy6LoggerILNS0_17LoggerDestinationE3EE5PrintEPKczEEJciiEEfS5_DpT
 4929              	.LVL437:
  79:Logger.cpp    ****     const float print_F3
 4930              		.loc 6 79 36 view .LVU1254
 4931 0080 3346     		mov	r3, r6
 4932 0082 7B22     		movs	r2, #123
 4933 0084 2021     		movs	r1, #32
 4934 0086 AF48     		ldr	r0, .L227+52
  77:Logger.cpp    ****     const float print_F2
 4935              		.loc 6 77 36 view .LVU1255
 4936 0088 F0EE40BA 		vmov.f32	s23, s0
 4937              	.LVL438:
  79:Logger.cpp    ****     const float print_F3
 4938              		.loc 6 79 36 view .LVU1256
 4939 008c FFF7FEFF 		bl	_Z15ProfileFunctionIXadL_ZN5daisy6LoggerILNS0_17LoggerDestinationE3EE5PrintEPKczEEJciiEEfS5_DpT
 4940              	.LVL439:
  81:Logger.cpp    ****     const float print_F4
 4941              		.loc 6 81 36 view .LVU1257
 4942 0090 3346     		mov	r3, r6
 4943 0092 7B22     		movs	r2, #123
 4944 0094 2021     		movs	r1, #32
 4945 0096 AC48     		ldr	r0, .L227+56
  79:Logger.cpp    ****     const float print_F3
 4946              		.loc 6 79 36 view .LVU1258
 4947 0098 F0EE40AA 		vmov.f32	s21, s0
 4948              	.LVL440:
  81:Logger.cpp    ****     const float print_F4
 4949              		.loc 6 81 36 view .LVU1259
 4950 009c FFF7FEFF 		bl	_Z15ProfileFunctionIXadL_ZN5daisy6LoggerILNS0_17LoggerDestinationE3EE5PrintEPKczEEJciiEEfS5_DpT
 4951              	.LVL441:
  83:Logger.cpp    **** 
 4952              		.loc 6 83 36 view .LVU1260
 4953 00a0 3346     		mov	r3, r6
 4954 00a2 7B22     		movs	r2, #123
 4955 00a4 2021     		movs	r1, #32
 4956 00a6 A948     		ldr	r0, .L227+60
  81:Logger.cpp    ****     const float print_F4
 4957              		.loc 6 81 36 view .LVU1261
 4958 00a8 B0EE40AA 		vmov.f32	s20, s0
 4959              	.LVL442:
  83:Logger.cpp    **** 
 4960              		.loc 6 83 36 view .LVU1262
 4961 00ac FFF7FEFF 		bl	_Z15ProfileFunctionIXadL_ZN5daisy6LoggerILNS0_17LoggerDestinationE3EE5PrintEPKczEEJciiEEfS5_DpT
 4962              	.LVL443:
 4963              	.LBB1333:
 4964              	.LBB1334:
 4965              		.loc 7 76 31 view .LVU1263
 4966 00b0 B0EEED7A 		vabs.f32	s14, s27
 4967              	.LBE1334:
 4968              	.LBE1333:
ARM GAS  /tmp/ccIu4BI8.s 			page 114


  86:Logger.cpp    ****     const float intercept = print_1 - slope;
 4969              		.loc 6 86 17 view .LVU1264
 4970 00b4 DFEDA66A 		vldr.32	s13, .L227+64
  86:Logger.cpp    ****     const float intercept = print_1 - slope;
 4971              		.loc 6 86 39 view .LVU1265
 4972 00b8 3DEE6CDA 		vsub.f32	s26, s26, s25
 4973              	.LVL444:
 4974              	.LBB1336:
 4975              	.LBB1337:
 4976              		.loc 1 124 23 view .LVU1266
 4977 00bc 2A46     		mov	r2, r5
 4978              	.LBE1337:
 4979              	.LBE1336:
  89:Logger.cpp    ****                  class_caption,
 4980              		.loc 6 89 17 view .LVU1267
 4981 00be F5EEC0DA 		vcmpe.f32	s27, #0
 4982              	.LBB1343:
 4983              	.LBB1338:
 4984              		.loc 1 124 23 view .LVU1268
 4985 00c2 2146     		mov	r1, r4
 4986              	.LBE1338:
 4987              	.LBE1343:
  89:Logger.cpp    ****                  class_caption,
 4988              		.loc 6 89 17 view .LVU1269
 4989 00c4 FDEEC77A 		vcvt.s32.f32	s15, s14
 4990              	.LBB1344:
 4991              	.LBB1339:
 4992              		.loc 1 124 23 view .LVU1270
 4993 00c8 A248     		ldr	r0, .L227+68
 4994              	.LBE1339:
 4995              	.LBE1344:
  86:Logger.cpp    ****     const float intercept = print_1 - slope;
 4996              		.loc 6 86 17 view .LVU1271
 4997 00ca CDEE26DA 		vdiv.f32	s27, s26, s13
 4998              	.LVL445:
 4999              	.LBB1345:
 5000              	.LBB1340:
 5001              		.loc 1 124 23 view .LVU1272
 5002 00ce CDED007A 		vstr.32	s15, [sp]	@ int
 5003              	.LBE1340:
 5004              	.LBE1345:
  92:Logger.cpp    ****     hw.PrintLine("%s - %s (   text string):" FLT_FMT3 " us/call +" FLT_FMT3
 5005              		.loc 6 92 18 view .LVU1273
 5006 00d2 F8EEE77A 		vcvt.f32.s32	s15, s15
  89:Logger.cpp    ****                  class_caption,
 5007              		.loc 6 89 17 view .LVU1274
 5008 00d6 F1EE10FA 		vmrs	APSR_nzcv, FPSCR
  83:Logger.cpp    **** 
 5009              		.loc 6 83 36 view .LVU1275
 5010 00da F0EE409A 		vmov.f32	s19, s0
 5011              	.LVL446:
  92:Logger.cpp    ****     hw.PrintLine("%s - %s (   text string):" FLT_FMT3 " us/call +" FLT_FMT3
 5012              		.loc 6 92 18 view .LVU1276
 5013 00de 37EE677A 		vsub.f32	s14, s14, s15
 5014              	.LBB1346:
 5015              	.LBB1341:
 5016              		.loc 1 124 23 view .LVU1277
ARM GAS  /tmp/ccIu4BI8.s 			page 115


 5017 00e2 4CBF     		ite	mi
 5018 00e4 2D23     		movmi	r3, #45
 5019 00e6 2023     		movpl	r3, #32
 5020              	.LBE1341:
 5021              	.LBE1346:
  92:Logger.cpp    ****     hw.PrintLine("%s - %s (   text string):" FLT_FMT3 " us/call +" FLT_FMT3
 5022              		.loc 6 92 18 view .LVU1278
 5023 00e8 B7EEC77A 		vcvt.f64.f32	d7, s14
 5024 00ec 27EE087B 		vmul.f64	d7, d7, d8
  87:Logger.cpp    **** 
 5025              		.loc 6 87 17 view .LVU1279
 5026 00f0 7CEEEDCA 		vsub.f32	s25, s25, s27
 5027              	.LVL447:
 5028              	.LBB1347:
 5029              	.LBI1333:
  75:/usr/include/newlib/c++/9.2.1/bits/std_abs.h ****   { return __builtin_fabsf(__x); }
 5030              		.loc 7 75 3 is_stmt 1 view .LVU1280
 5031              	.LBB1335:
 5032              		.loc 7 76 5 view .LVU1281
 5033              		.loc 7 76 5 is_stmt 0 view .LVU1282
 5034              	.LBE1335:
 5035              	.LBE1347:
 5036              		.loc 7 76 5 is_stmt 1 view .LVU1283
 5037              		.loc 7 76 5 view .LVU1284
 5038              	.LBB1348:
 5039              	.LBI1336:
 122:../../libdaisy/src/daisy_seed.h ****     {
 5040              		.loc 1 122 17 view .LVU1285
 5041              	.LBE1348:
  89:Logger.cpp    ****                  class_caption,
 5042              		.loc 6 89 17 is_stmt 0 view .LVU1286
 5043 00f4 BDEEC77B 		vcvt.s32.f64	s14, d7
 5044              	.LBB1349:
 5045              	.LBB1342:
 5046              		.loc 1 124 23 view .LVU1287
 5047 00f8 8DED017A 		vstr.32	s14, [sp, #4]	@ int
 5048 00fc FFF7FEFF 		bl	_ZN5daisy6LoggerILNS_17LoggerDestinationE1EE9PrintLineEPKcz
 5049              	.LVL448:
 5050              		.loc 1 124 23 view .LVU1288
 5051              	.LBE1342:
 5052              	.LBE1349:
 5053              	.LBB1350:
 5054              	.LBB1351:
 5055              		.loc 7 76 31 view .LVU1289
 5056 0100 B0EEEC6A 		vabs.f32	s12, s25
 5057              	.LBE1351:
 5058              	.LBE1350:
 5059              	.LBB1353:
 5060              	.LBB1354:
 5061 0104 B0EEED7A 		vabs.f32	s14, s27
 5062              	.LBE1354:
 5063              	.LBE1353:
 5064              	.LBB1356:
 5065              	.LBB1357:
 5066              		.loc 1 124 23 view .LVU1290
 5067 0108 2A46     		mov	r2, r5
 5068              	.LBE1357:
ARM GAS  /tmp/ccIu4BI8.s 			page 116


 5069              	.LBE1356:
  93:Logger.cpp    ****                  " us/char",
 5070              		.loc 6 93 17 view .LVU1291
 5071 010a F5EEC0CA 		vcmpe.f32	s25, #0
 5072              	.LBB1364:
 5073              	.LBB1358:
 5074              		.loc 1 124 23 view .LVU1292
 5075 010e 2146     		mov	r1, r4
 5076              	.LBE1358:
 5077              	.LBE1364:
  93:Logger.cpp    ****                  " us/char",
 5078              		.loc 6 93 17 view .LVU1293
 5079 0110 FDEEC66A 		vcvt.s32.f32	s13, s12
 5080              	.LBB1365:
 5081              	.LBB1359:
 5082              		.loc 1 124 23 view .LVU1294
 5083 0114 9048     		ldr	r0, .L227+72
 5084              	.LBE1359:
 5085              	.LBE1365:
  93:Logger.cpp    ****                  " us/char",
 5086              		.loc 6 93 17 view .LVU1295
 5087 0116 FDEEC77A 		vcvt.s32.f32	s15, s14
 5088 011a F1EE10FA 		vmrs	APSR_nzcv, FPSCR
  97:Logger.cpp    ****                  FLT_VAR3(slope));
 5089              		.loc 6 97 18 view .LVU1296
 5090 011e F8EEE65A 		vcvt.f32.s32	s11, s13
 5091              	.LBB1366:
 5092              	.LBB1360:
 5093              		.loc 1 124 23 view .LVU1297
 5094 0122 CDED006A 		vstr.32	s13, [sp]	@ int
 5095              	.LBE1360:
 5096              	.LBE1366:
  98:Logger.cpp    ****     hw.PrintLine("%s - %s ( integer value):" FLT_FMT3 " us/call",
 5097              		.loc 6 98 18 view .LVU1298
 5098 0126 F8EEE76A 		vcvt.f32.s32	s13, s15
 5099              	.LBB1367:
 5100              	.LBB1361:
 5101              		.loc 1 124 23 view .LVU1299
 5102 012a CDED037A 		vstr.32	s15, [sp, #12]	@ int
 5103              	.LBE1361:
 5104              	.LBE1367:
  93:Logger.cpp    ****                  " us/char",
 5105              		.loc 6 93 17 view .LVU1300
 5106 012e F5EEC0DA 		vcmpe.f32	s27, #0
 5107 0132 48BF     		it	mi
 5108 0134 2D23     		movmi	r3, #45
  97:Logger.cpp    ****                  FLT_VAR3(slope));
 5109              		.loc 6 97 18 view .LVU1301
 5110 0136 36EE656A 		vsub.f32	s12, s12, s11
  93:Logger.cpp    ****                  " us/char",
 5111              		.loc 6 93 17 view .LVU1302
 5112 013a 58BF     		it	pl
 5113 013c 2023     		movpl	r3, #32
 5114              	.LVL449:
 5115              	.LBB1368:
 5116              	.LBI1350:
  75:/usr/include/newlib/c++/9.2.1/bits/std_abs.h ****   { return __builtin_fabsf(__x); }
ARM GAS  /tmp/ccIu4BI8.s 			page 117


 5117              		.loc 7 75 3 is_stmt 1 view .LVU1303
 5118              	.LBB1352:
 5119              		.loc 7 76 5 view .LVU1304
 5120              		.loc 7 76 5 is_stmt 0 view .LVU1305
 5121              	.LBE1352:
 5122              	.LBE1368:
 5123              		.loc 7 76 5 is_stmt 1 view .LVU1306
 5124              		.loc 7 76 5 view .LVU1307
  98:Logger.cpp    ****     hw.PrintLine("%s - %s ( integer value):" FLT_FMT3 " us/call",
 5125              		.loc 6 98 18 is_stmt 0 view .LVU1308
 5126 013e 37EE667A 		vsub.f32	s14, s14, s13
  93:Logger.cpp    ****                  " us/char",
 5127              		.loc 6 93 17 view .LVU1309
 5128 0142 F1EE10FA 		vmrs	APSR_nzcv, FPSCR
  97:Logger.cpp    ****                  FLT_VAR3(slope));
 5129              		.loc 6 97 18 view .LVU1310
 5130 0146 B7EEC66A 		vcvt.f64.f32	d6, s12
  98:Logger.cpp    ****     hw.PrintLine("%s - %s ( integer value):" FLT_FMT3 " us/call",
 5131              		.loc 6 98 18 view .LVU1311
 5132 014a B7EEC77A 		vcvt.f64.f32	d7, s14
  93:Logger.cpp    ****                  " us/char",
 5133              		.loc 6 93 17 view .LVU1312
 5134 014e 4CBF     		ite	mi
 5135 0150 2D26     		movmi	r6, #45
 5136 0152 2026     		movpl	r6, #32
 5137              	.LVL450:
 5138              	.LBB1369:
 5139              	.LBI1353:
  75:/usr/include/newlib/c++/9.2.1/bits/std_abs.h ****   { return __builtin_fabsf(__x); }
 5140              		.loc 7 75 3 is_stmt 1 view .LVU1313
 5141              	.LBB1355:
 5142              		.loc 7 76 5 view .LVU1314
 5143              		.loc 7 76 5 is_stmt 0 view .LVU1315
 5144              	.LBE1355:
 5145              	.LBE1369:
 5146              		.loc 7 76 5 is_stmt 1 view .LVU1316
 5147              		.loc 7 76 5 view .LVU1317
  97:Logger.cpp    ****                  FLT_VAR3(slope));
 5148              		.loc 6 97 18 is_stmt 0 view .LVU1318
 5149 0154 26EE086B 		vmul.f64	d6, d6, d8
 5150              	.LBB1370:
 5151              	.LBB1362:
 5152              		.loc 1 124 23 view .LVU1319
 5153 0158 0296     		str	r6, [sp, #8]
 5154              	.LBE1362:
 5155              	.LBE1370:
  98:Logger.cpp    ****     hw.PrintLine("%s - %s ( integer value):" FLT_FMT3 " us/call",
 5156              		.loc 6 98 18 view .LVU1320
 5157 015a 27EE087B 		vmul.f64	d7, d7, d8
  93:Logger.cpp    ****                  " us/char",
 5158              		.loc 6 93 17 view .LVU1321
 5159 015e BDEEC66B 		vcvt.s32.f64	s12, d6
 5160              	.LVL451:
 5161              	.LBB1371:
 5162              	.LBI1356:
 122:../../libdaisy/src/daisy_seed.h ****     {
 5163              		.loc 1 122 17 is_stmt 1 view .LVU1322
ARM GAS  /tmp/ccIu4BI8.s 			page 118


 5164              	.LBE1371:
  93:Logger.cpp    ****                  " us/char",
 5165              		.loc 6 93 17 is_stmt 0 view .LVU1323
 5166 0162 BDEEC77B 		vcvt.s32.f64	s14, d7
 5167              	.LBB1372:
 5168              	.LBB1363:
 5169              		.loc 1 124 23 view .LVU1324
 5170 0166 8DED016A 		vstr.32	s12, [sp, #4]	@ int
 5171 016a 8DED047A 		vstr.32	s14, [sp, #16]	@ int
 5172 016e FFF7FEFF 		bl	_ZN5daisy6LoggerILNS_17LoggerDestinationE1EE9PrintLineEPKcz
 5173              	.LVL452:
 5174              		.loc 1 124 23 view .LVU1325
 5175              	.LBE1363:
 5176              	.LBE1372:
 5177              	.LBB1373:
 5178              	.LBI1373:
  75:/usr/include/newlib/c++/9.2.1/bits/std_abs.h ****   { return __builtin_fabsf(__x); }
 5179              		.loc 7 75 3 is_stmt 1 view .LVU1326
 5180              	.LBB1374:
 5181              		.loc 7 76 5 view .LVU1327
 5182              		.loc 7 76 31 is_stmt 0 view .LVU1328
 5183 0172 B0EECC7A 		vabs.f32	s14, s24
 5184              	.LVL453:
 5185              		.loc 7 76 31 view .LVU1329
 5186              	.LBE1374:
 5187              	.LBE1373:
  99:Logger.cpp    ****                  class_caption,
 5188              		.loc 6 99 17 view .LVU1330
 5189 0176 B5EEC0CA 		vcmpe.f32	s24, #0
 5190              	.LBB1375:
 5191              	.LBB1376:
 5192              		.loc 1 124 23 view .LVU1331
 5193 017a 2A46     		mov	r2, r5
 5194 017c 2146     		mov	r1, r4
 5195 017e 7748     		ldr	r0, .L227+76
 5196              	.LBE1376:
 5197              	.LBE1375:
  99:Logger.cpp    ****                  class_caption,
 5198              		.loc 6 99 17 view .LVU1332
 5199 0180 FDEEC77A 		vcvt.s32.f32	s15, s14
 5200              	.LVL454:
 5201              		.loc 7 76 5 is_stmt 1 view .LVU1333
 5202              		.loc 7 76 5 view .LVU1334
 5203              	.LBB1379:
 5204              	.LBI1375:
 122:../../libdaisy/src/daisy_seed.h ****     {
 5205              		.loc 1 122 17 view .LVU1335
 5206              	.LBE1379:
  99:Logger.cpp    ****                  class_caption,
 5207              		.loc 6 99 17 is_stmt 0 view .LVU1336
 5208 0184 F1EE10FA 		vmrs	APSR_nzcv, FPSCR
 102:Logger.cpp    ****     hw.PrintLine("%s - %s (unsigned value):" FLT_FMT3 " us/call",
 5209              		.loc 6 102 18 view .LVU1337
 5210 0188 F8EEE76A 		vcvt.f32.s32	s13, s15
 5211              	.LVL455:
 5212              	.LBB1380:
 5213              	.LBB1377:
ARM GAS  /tmp/ccIu4BI8.s 			page 119


 5214              		.loc 1 124 23 view .LVU1338
 5215 018c CDED007A 		vstr.32	s15, [sp]	@ int
 5216 0190 4CBF     		ite	mi
 5217 0192 2D23     		movmi	r3, #45
 5218 0194 2023     		movpl	r3, #32
 5219              	.LBE1377:
 5220              	.LBE1380:
 102:Logger.cpp    ****     hw.PrintLine("%s - %s (unsigned value):" FLT_FMT3 " us/call",
 5221              		.loc 6 102 18 view .LVU1339
 5222 0196 37EE667A 		vsub.f32	s14, s14, s13
 5223              	.LVL456:
 102:Logger.cpp    ****     hw.PrintLine("%s - %s (unsigned value):" FLT_FMT3 " us/call",
 5224              		.loc 6 102 18 view .LVU1340
 5225 019a B7EEC77A 		vcvt.f64.f32	d7, s14
 5226 019e 27EE087B 		vmul.f64	d7, d7, d8
  99:Logger.cpp    ****                  class_caption,
 5227              		.loc 6 99 17 view .LVU1341
 5228 01a2 BDEEC77B 		vcvt.s32.f64	s14, d7
 5229              	.LBB1381:
 5230              	.LBB1378:
 5231              		.loc 1 124 23 view .LVU1342
 5232 01a6 8DED017A 		vstr.32	s14, [sp, #4]	@ int
 5233 01aa FFF7FEFF 		bl	_ZN5daisy6LoggerILNS_17LoggerDestinationE1EE9PrintLineEPKcz
 5234              	.LVL457:
 5235              		.loc 1 124 23 view .LVU1343
 5236              	.LBE1378:
 5237              	.LBE1381:
 5238              	.LBB1382:
 5239              	.LBI1382:
  75:/usr/include/newlib/c++/9.2.1/bits/std_abs.h ****   { return __builtin_fabsf(__x); }
 5240              		.loc 7 75 3 is_stmt 1 view .LVU1344
 5241              	.LBB1383:
 5242              		.loc 7 76 5 view .LVU1345
 5243              		.loc 7 76 31 is_stmt 0 view .LVU1346
 5244 01ae B0EECB7A 		vabs.f32	s14, s22
 5245              	.LVL458:
 5246              		.loc 7 76 31 view .LVU1347
 5247              	.LBE1383:
 5248              	.LBE1382:
 103:Logger.cpp    ****                  class_caption,
 5249              		.loc 6 103 17 view .LVU1348
 5250 01b2 B5EEC0BA 		vcmpe.f32	s22, #0
 5251              	.LBB1384:
 5252              	.LBB1385:
 5253              		.loc 1 124 23 view .LVU1349
 5254 01b6 2A46     		mov	r2, r5
 5255 01b8 2146     		mov	r1, r4
 5256 01ba 6948     		ldr	r0, .L227+80
 5257              	.LBE1385:
 5258              	.LBE1384:
 103:Logger.cpp    ****                  class_caption,
 5259              		.loc 6 103 17 view .LVU1350
 5260 01bc FDEEC77A 		vcvt.s32.f32	s15, s14
 5261              	.LVL459:
 5262              		.loc 7 76 5 is_stmt 1 view .LVU1351
 5263              		.loc 7 76 5 view .LVU1352
 5264              	.LBB1388:
ARM GAS  /tmp/ccIu4BI8.s 			page 120


 5265              	.LBI1384:
 122:../../libdaisy/src/daisy_seed.h ****     {
 5266              		.loc 1 122 17 view .LVU1353
 5267              	.LBE1388:
 103:Logger.cpp    ****                  class_caption,
 5268              		.loc 6 103 17 is_stmt 0 view .LVU1354
 5269 01c0 F1EE10FA 		vmrs	APSR_nzcv, FPSCR
 106:Logger.cpp    ****     hw.PrintLine("%s - %s ( float.3 value):" FLT_FMT3 " us/call",
 5270              		.loc 6 106 18 view .LVU1355
 5271 01c4 F8EEE76A 		vcvt.f32.s32	s13, s15
 5272              	.LVL460:
 5273              	.LBB1389:
 5274              	.LBB1386:
 5275              		.loc 1 124 23 view .LVU1356
 5276 01c8 CDED007A 		vstr.32	s15, [sp]	@ int
 5277 01cc 4CBF     		ite	mi
 5278 01ce 2D23     		movmi	r3, #45
 5279 01d0 2023     		movpl	r3, #32
 5280              	.LBE1386:
 5281              	.LBE1389:
 106:Logger.cpp    ****     hw.PrintLine("%s - %s ( float.3 value):" FLT_FMT3 " us/call",
 5282              		.loc 6 106 18 view .LVU1357
 5283 01d2 37EE667A 		vsub.f32	s14, s14, s13
 5284              	.LVL461:
 106:Logger.cpp    ****     hw.PrintLine("%s - %s ( float.3 value):" FLT_FMT3 " us/call",
 5285              		.loc 6 106 18 view .LVU1358
 5286 01d6 B7EEC77A 		vcvt.f64.f32	d7, s14
 5287 01da 27EE087B 		vmul.f64	d7, d7, d8
 103:Logger.cpp    ****                  class_caption,
 5288              		.loc 6 103 17 view .LVU1359
 5289 01de BDEEC77B 		vcvt.s32.f64	s14, d7
 5290              	.LBB1390:
 5291              	.LBB1387:
 5292              		.loc 1 124 23 view .LVU1360
 5293 01e2 8DED017A 		vstr.32	s14, [sp, #4]	@ int
 5294 01e6 FFF7FEFF 		bl	_ZN5daisy6LoggerILNS_17LoggerDestinationE1EE9PrintLineEPKcz
 5295              	.LVL462:
 5296              		.loc 1 124 23 view .LVU1361
 5297              	.LBE1387:
 5298              	.LBE1390:
 5299              		.loc 7 76 5 is_stmt 1 view .LVU1362
 107:Logger.cpp    ****                  class_caption,
 5300              		.loc 6 107 17 is_stmt 0 view .LVU1363
 5301 01ea FDEEC97A 		vcvt.s32.f32	s15, s18
 5302              	.LVL463:
 5303              		.loc 7 76 5 is_stmt 1 view .LVU1364
 5304              		.loc 7 76 5 view .LVU1365
 5305              	.LBB1391:
 5306              	.LBI1391:
 122:../../libdaisy/src/daisy_seed.h ****     {
 5307              		.loc 1 122 17 view .LVU1366
 5308              	.LBB1392:
 5309              		.loc 1 124 23 is_stmt 0 view .LVU1367
 5310 01ee 2023     		movs	r3, #32
 5311 01f0 2A46     		mov	r2, r5
 5312 01f2 2146     		mov	r1, r4
 5313 01f4 5B48     		ldr	r0, .L227+84
ARM GAS  /tmp/ccIu4BI8.s 			page 121


 5314              	.LBE1392:
 5315              	.LBE1391:
 110:Logger.cpp    ****     hw.PrintLine("%s - %s (FLT_VAR1 value):" FLT_FMT3 " us/call",
 5316              		.loc 6 110 18 view .LVU1368
 5317 01f6 B8EEE77A 		vcvt.f32.s32	s14, s15
 5318              	.LVL464:
 5319              	.LBB1395:
 5320              	.LBB1393:
 5321              		.loc 1 124 23 view .LVU1369
 5322 01fa CDED007A 		vstr.32	s15, [sp]	@ int
 5323              	.LBE1393:
 5324              	.LBE1395:
 110:Logger.cpp    ****     hw.PrintLine("%s - %s (FLT_VAR1 value):" FLT_FMT3 " us/call",
 5325              		.loc 6 110 18 view .LVU1370
 5326 01fe 39EE477A 		vsub.f32	s14, s18, s14
 5327              	.LVL465:
 110:Logger.cpp    ****     hw.PrintLine("%s - %s (FLT_VAR1 value):" FLT_FMT3 " us/call",
 5328              		.loc 6 110 18 view .LVU1371
 5329 0202 B7EEC77A 		vcvt.f64.f32	d7, s14
 5330 0206 27EE087B 		vmul.f64	d7, d7, d8
 107:Logger.cpp    ****                  class_caption,
 5331              		.loc 6 107 17 view .LVU1372
 5332 020a BDEEC77B 		vcvt.s32.f64	s14, d7
 5333              	.LBB1396:
 5334              	.LBB1394:
 5335              		.loc 1 124 23 view .LVU1373
 5336 020e 8DED017A 		vstr.32	s14, [sp, #4]	@ int
 5337 0212 FFF7FEFF 		bl	_ZN5daisy6LoggerILNS_17LoggerDestinationE1EE9PrintLineEPKcz
 5338              	.LVL466:
 5339              		.loc 1 124 23 view .LVU1374
 5340              	.LBE1394:
 5341              	.LBE1396:
 5342              	.LBB1397:
 5343              	.LBI1397:
  75:/usr/include/newlib/c++/9.2.1/bits/std_abs.h ****   { return __builtin_fabsf(__x); }
 5344              		.loc 7 75 3 is_stmt 1 view .LVU1375
 5345              	.LBB1398:
 5346              		.loc 7 76 5 view .LVU1376
 5347              		.loc 7 76 31 is_stmt 0 view .LVU1377
 5348 0216 B0EEEB7A 		vabs.f32	s14, s23
 5349              	.LVL467:
 5350              		.loc 7 76 31 view .LVU1378
 5351              	.LBE1398:
 5352              	.LBE1397:
 111:Logger.cpp    ****                  class_caption,
 5353              		.loc 6 111 17 view .LVU1379
 5354 021a F5EEC0BA 		vcmpe.f32	s23, #0
 5355              	.LBB1399:
 5356              	.LBB1400:
 5357              		.loc 1 124 23 view .LVU1380
 5358 021e 2A46     		mov	r2, r5
 5359 0220 2146     		mov	r1, r4
 5360 0222 5148     		ldr	r0, .L227+88
 5361              	.LBE1400:
 5362              	.LBE1399:
 111:Logger.cpp    ****                  class_caption,
 5363              		.loc 6 111 17 view .LVU1381
ARM GAS  /tmp/ccIu4BI8.s 			page 122


 5364 0224 FDEEC77A 		vcvt.s32.f32	s15, s14
 5365              	.LVL468:
 5366              		.loc 7 76 5 is_stmt 1 view .LVU1382
 5367              		.loc 7 76 5 view .LVU1383
 5368              	.LBB1403:
 5369              	.LBI1399:
 122:../../libdaisy/src/daisy_seed.h ****     {
 5370              		.loc 1 122 17 view .LVU1384
 5371              	.LBE1403:
 111:Logger.cpp    ****                  class_caption,
 5372              		.loc 6 111 17 is_stmt 0 view .LVU1385
 5373 0228 F1EE10FA 		vmrs	APSR_nzcv, FPSCR
 114:Logger.cpp    ****     hw.PrintLine("%s - %s (FLT_VAR2 value):" FLT_FMT3 " us/call",
 5374              		.loc 6 114 18 view .LVU1386
 5375 022c F8EEE76A 		vcvt.f32.s32	s13, s15
 5376              	.LVL469:
 5377              	.LBB1404:
 5378              	.LBB1401:
 5379              		.loc 1 124 23 view .LVU1387
 5380 0230 CDED007A 		vstr.32	s15, [sp]	@ int
 5381 0234 4CBF     		ite	mi
 5382 0236 2D23     		movmi	r3, #45
 5383 0238 2023     		movpl	r3, #32
 5384              	.LBE1401:
 5385              	.LBE1404:
 114:Logger.cpp    ****     hw.PrintLine("%s - %s (FLT_VAR2 value):" FLT_FMT3 " us/call",
 5386              		.loc 6 114 18 view .LVU1388
 5387 023a 37EE667A 		vsub.f32	s14, s14, s13
 5388              	.LVL470:
 114:Logger.cpp    ****     hw.PrintLine("%s - %s (FLT_VAR2 value):" FLT_FMT3 " us/call",
 5389              		.loc 6 114 18 view .LVU1389
 5390 023e B7EEC77A 		vcvt.f64.f32	d7, s14
 5391 0242 27EE087B 		vmul.f64	d7, d7, d8
 111:Logger.cpp    ****                  class_caption,
 5392              		.loc 6 111 17 view .LVU1390
 5393 0246 BDEEC77B 		vcvt.s32.f64	s14, d7
 5394              	.LBB1405:
 5395              	.LBB1402:
 5396              		.loc 1 124 23 view .LVU1391
 5397 024a 8DED017A 		vstr.32	s14, [sp, #4]	@ int
 5398 024e FFF7FEFF 		bl	_ZN5daisy6LoggerILNS_17LoggerDestinationE1EE9PrintLineEPKcz
 5399              	.LVL471:
 5400              		.loc 1 124 23 view .LVU1392
 5401              	.LBE1402:
 5402              	.LBE1405:
 5403              	.LBB1406:
 5404              	.LBI1406:
  75:/usr/include/newlib/c++/9.2.1/bits/std_abs.h ****   { return __builtin_fabsf(__x); }
 5405              		.loc 7 75 3 is_stmt 1 view .LVU1393
 5406              	.LBB1407:
 5407              		.loc 7 76 5 view .LVU1394
 5408              		.loc 7 76 31 is_stmt 0 view .LVU1395
 5409 0252 B0EEEA7A 		vabs.f32	s14, s21
 5410              	.LVL472:
 5411              		.loc 7 76 31 view .LVU1396
 5412              	.LBE1407:
 5413              	.LBE1406:
ARM GAS  /tmp/ccIu4BI8.s 			page 123


 115:Logger.cpp    ****                  class_caption,
 5414              		.loc 6 115 17 view .LVU1397
 5415 0256 F5EEC0AA 		vcmpe.f32	s21, #0
 5416              	.LBB1408:
 5417              	.LBB1409:
 5418              		.loc 1 124 23 view .LVU1398
 5419 025a 2A46     		mov	r2, r5
 5420 025c 2146     		mov	r1, r4
 5421 025e 4348     		ldr	r0, .L227+92
 5422              	.LBE1409:
 5423              	.LBE1408:
 115:Logger.cpp    ****                  class_caption,
 5424              		.loc 6 115 17 view .LVU1399
 5425 0260 FDEEC77A 		vcvt.s32.f32	s15, s14
 5426              	.LVL473:
 5427              		.loc 7 76 5 is_stmt 1 view .LVU1400
 5428              		.loc 7 76 5 view .LVU1401
 5429              	.LBB1412:
 5430              	.LBI1408:
 122:../../libdaisy/src/daisy_seed.h ****     {
 5431              		.loc 1 122 17 view .LVU1402
 5432              	.LBE1412:
 115:Logger.cpp    ****                  class_caption,
 5433              		.loc 6 115 17 is_stmt 0 view .LVU1403
 5434 0264 F1EE10FA 		vmrs	APSR_nzcv, FPSCR
 118:Logger.cpp    ****     hw.PrintLine("%s - %s (FLT_VAR3 value):" FLT_FMT3 " us/call",
 5435              		.loc 6 118 18 view .LVU1404
 5436 0268 F8EEE76A 		vcvt.f32.s32	s13, s15
 5437              	.LVL474:
 5438              	.LBB1413:
 5439              	.LBB1410:
 5440              		.loc 1 124 23 view .LVU1405
 5441 026c CDED007A 		vstr.32	s15, [sp]	@ int
 5442 0270 4CBF     		ite	mi
 5443 0272 2D23     		movmi	r3, #45
 5444 0274 2023     		movpl	r3, #32
 5445              	.LBE1410:
 5446              	.LBE1413:
 118:Logger.cpp    ****     hw.PrintLine("%s - %s (FLT_VAR3 value):" FLT_FMT3 " us/call",
 5447              		.loc 6 118 18 view .LVU1406
 5448 0276 37EE667A 		vsub.f32	s14, s14, s13
 5449              	.LVL475:
 118:Logger.cpp    ****     hw.PrintLine("%s - %s (FLT_VAR3 value):" FLT_FMT3 " us/call",
 5450              		.loc 6 118 18 view .LVU1407
 5451 027a B7EEC77A 		vcvt.f64.f32	d7, s14
 5452 027e 27EE087B 		vmul.f64	d7, d7, d8
 115:Logger.cpp    ****                  class_caption,
 5453              		.loc 6 115 17 view .LVU1408
 5454 0282 BDEEC77B 		vcvt.s32.f64	s14, d7
 5455              	.LBB1414:
 5456              	.LBB1411:
 5457              		.loc 1 124 23 view .LVU1409
 5458 0286 8DED017A 		vstr.32	s14, [sp, #4]	@ int
 5459 028a FFF7FEFF 		bl	_ZN5daisy6LoggerILNS_17LoggerDestinationE1EE9PrintLineEPKcz
 5460              	.LVL476:
 5461              		.loc 1 124 23 view .LVU1410
 5462              	.LBE1411:
ARM GAS  /tmp/ccIu4BI8.s 			page 124


 5463              	.LBE1414:
 5464              	.LBB1415:
 5465              	.LBI1415:
  75:/usr/include/newlib/c++/9.2.1/bits/std_abs.h ****   { return __builtin_fabsf(__x); }
 5466              		.loc 7 75 3 is_stmt 1 view .LVU1411
 5467              	.LBB1416:
 5468              		.loc 7 76 5 view .LVU1412
 5469              		.loc 7 76 31 is_stmt 0 view .LVU1413
 5470 028e B0EECA7A 		vabs.f32	s14, s20
 5471              	.LVL477:
 5472              		.loc 7 76 31 view .LVU1414
 5473              	.LBE1416:
 5474              	.LBE1415:
 119:Logger.cpp    ****                  class_caption,
 5475              		.loc 6 119 17 view .LVU1415
 5476 0292 B5EEC0AA 		vcmpe.f32	s20, #0
 5477              	.LBB1417:
 5478              	.LBB1418:
 5479              		.loc 1 124 23 view .LVU1416
 5480 0296 2A46     		mov	r2, r5
 5481 0298 2146     		mov	r1, r4
 5482 029a 3548     		ldr	r0, .L227+96
 5483              	.LBE1418:
 5484              	.LBE1417:
 119:Logger.cpp    ****                  class_caption,
 5485              		.loc 6 119 17 view .LVU1417
 5486 029c FDEEC77A 		vcvt.s32.f32	s15, s14
 5487              	.LVL478:
 5488              		.loc 7 76 5 is_stmt 1 view .LVU1418
 5489              		.loc 7 76 5 view .LVU1419
 5490              	.LBB1421:
 5491              	.LBI1417:
 122:../../libdaisy/src/daisy_seed.h ****     {
 5492              		.loc 1 122 17 view .LVU1420
 5493              	.LBE1421:
 119:Logger.cpp    ****                  class_caption,
 5494              		.loc 6 119 17 is_stmt 0 view .LVU1421
 5495 02a0 F1EE10FA 		vmrs	APSR_nzcv, FPSCR
 122:Logger.cpp    ****     hw.PrintLine("%s - %s (FLT_VAR4 value):" FLT_FMT3 " us/call",
 5496              		.loc 6 122 18 view .LVU1422
 5497 02a4 F8EEE76A 		vcvt.f32.s32	s13, s15
 5498              	.LVL479:
 5499              	.LBB1422:
 5500              	.LBB1419:
 5501              		.loc 1 124 23 view .LVU1423
 5502 02a8 CDED007A 		vstr.32	s15, [sp]	@ int
 5503 02ac 4CBF     		ite	mi
 5504 02ae 2D23     		movmi	r3, #45
 5505 02b0 2023     		movpl	r3, #32
 5506              	.LBE1419:
 5507              	.LBE1422:
 122:Logger.cpp    ****     hw.PrintLine("%s - %s (FLT_VAR4 value):" FLT_FMT3 " us/call",
 5508              		.loc 6 122 18 view .LVU1424
 5509 02b2 37EE667A 		vsub.f32	s14, s14, s13
 5510              	.LVL480:
 122:Logger.cpp    ****     hw.PrintLine("%s - %s (FLT_VAR4 value):" FLT_FMT3 " us/call",
 5511              		.loc 6 122 18 view .LVU1425
ARM GAS  /tmp/ccIu4BI8.s 			page 125


 5512 02b6 B7EEC77A 		vcvt.f64.f32	d7, s14
 5513 02ba 27EE087B 		vmul.f64	d7, d7, d8
 119:Logger.cpp    ****                  class_caption,
 5514              		.loc 6 119 17 view .LVU1426
 5515 02be BDEEC77B 		vcvt.s32.f64	s14, d7
 5516              	.LBB1423:
 5517              	.LBB1420:
 5518              		.loc 1 124 23 view .LVU1427
 5519 02c2 8DED017A 		vstr.32	s14, [sp, #4]	@ int
 5520 02c6 FFF7FEFF 		bl	_ZN5daisy6LoggerILNS_17LoggerDestinationE1EE9PrintLineEPKcz
 5521              	.LVL481:
 5522              		.loc 1 124 23 view .LVU1428
 5523              	.LBE1420:
 5524              	.LBE1423:
 5525              	.LBB1424:
 5526              	.LBI1424:
  75:/usr/include/newlib/c++/9.2.1/bits/std_abs.h ****   { return __builtin_fabsf(__x); }
 5527              		.loc 7 75 3 is_stmt 1 view .LVU1429
 5528              	.LBB1425:
 5529              		.loc 7 76 5 view .LVU1430
 5530              		.loc 7 76 31 is_stmt 0 view .LVU1431
 5531 02ca B0EEE97A 		vabs.f32	s14, s19
 5532              	.LVL482:
 5533              		.loc 7 76 31 view .LVU1432
 5534              	.LBE1425:
 5535              	.LBE1424:
 123:Logger.cpp    ****                  class_caption,
 5536              		.loc 6 123 17 view .LVU1433
 5537 02ce F5EEC09A 		vcmpe.f32	s19, #0
 5538              	.LBB1426:
 5539              	.LBB1427:
 5540              		.loc 1 124 23 view .LVU1434
 5541 02d2 2A46     		mov	r2, r5
 5542 02d4 2146     		mov	r1, r4
 5543 02d6 2748     		ldr	r0, .L227+100
 5544              	.LBE1427:
 5545              	.LBE1426:
 123:Logger.cpp    ****                  class_caption,
 5546              		.loc 6 123 17 view .LVU1435
 5547 02d8 FDEEC77A 		vcvt.s32.f32	s15, s14
 5548              	.LVL483:
 5549              		.loc 7 76 5 is_stmt 1 view .LVU1436
 5550              		.loc 7 76 5 view .LVU1437
 5551              	.LBB1430:
 5552              	.LBI1426:
 122:../../libdaisy/src/daisy_seed.h ****     {
 5553              		.loc 1 122 17 view .LVU1438
 5554              	.LBE1430:
 123:Logger.cpp    ****                  class_caption,
 5555              		.loc 6 123 17 is_stmt 0 view .LVU1439
 5556 02dc F1EE10FA 		vmrs	APSR_nzcv, FPSCR
 126:Logger.cpp    **** }
 5557              		.loc 6 126 18 view .LVU1440
 5558 02e0 F8EEE76A 		vcvt.f32.s32	s13, s15
 5559              	.LVL484:
 5560              	.LBB1431:
 5561              	.LBB1428:
ARM GAS  /tmp/ccIu4BI8.s 			page 126


 5562              		.loc 1 124 23 view .LVU1441
 5563 02e4 CDED007A 		vstr.32	s15, [sp]	@ int
 5564 02e8 4CBF     		ite	mi
 5565 02ea 2D23     		movmi	r3, #45
 5566 02ec 2023     		movpl	r3, #32
 5567              	.LBE1428:
 5568              	.LBE1431:
 126:Logger.cpp    **** }
 5569              		.loc 6 126 18 view .LVU1442
 5570 02ee 37EE667A 		vsub.f32	s14, s14, s13
 5571              	.LVL485:
 126:Logger.cpp    **** }
 5572              		.loc 6 126 18 view .LVU1443
 5573 02f2 B7EEC77A 		vcvt.f64.f32	d7, s14
 5574 02f6 27EE087B 		vmul.f64	d7, d7, d8
 123:Logger.cpp    ****                  class_caption,
 5575              		.loc 6 123 17 view .LVU1444
 5576 02fa BDEEC77B 		vcvt.s32.f64	s14, d7
 5577              	.LBB1432:
 5578              	.LBB1429:
 5579              		.loc 1 124 23 view .LVU1445
 5580 02fe 8DED017A 		vstr.32	s14, [sp, #4]	@ int
 5581 0302 FFF7FEFF 		bl	_ZN5daisy6LoggerILNS_17LoggerDestinationE1EE9PrintLineEPKcz
 5582              	.LVL486:
 5583              		.loc 1 124 23 view .LVU1446
 5584              	.LBE1429:
 5585              	.LBE1432:
 127:Logger.cpp    **** 
 5586              		.loc 6 127 1 view .LVU1447
 5587 0306 07B0     		add	sp, sp, #28
 5588              		.cfi_def_cfa_offset 68
 5589              		@ sp needed
 5590 0308 BDEC0C8B 		vldm	sp!, {d8-d13}
 5591              		.cfi_restore 90
 5592              		.cfi_restore 91
 5593              		.cfi_restore 88
 5594              		.cfi_restore 89
 5595              		.cfi_restore 86
 5596              		.cfi_restore 87
 5597              		.cfi_restore 84
 5598              		.cfi_restore 85
 5599              		.cfi_restore 82
 5600              		.cfi_restore 83
 5601              		.cfi_restore 80
 5602              		.cfi_restore 81
 5603              		.cfi_def_cfa_offset 20
 5604              	.LVL487:
 127:Logger.cpp    **** 
 5605              		.loc 6 127 1 view .LVU1448
 5606 030c F0BD     		pop	{r4, r5, r6, r7, pc}
 5607              	.LVL488:
 5608              	.L228:
 127:Logger.cpp    **** 
 5609              		.loc 6 127 1 view .LVU1449
 5610 030e 00BF     		.align	3
 5611              	.L227:
 5612 0310 00000000 		.word	0
ARM GAS  /tmp/ccIu4BI8.s 			page 127


 5613 0314 00C05E40 		.word	1079951360
 5614 0318 00000000 		.word	0
 5615 031c 00408F40 		.word	1083129856
 5616 0320 00000000 		.word	.LC15
 5617 0324 A0860100 		.word	100000
 5618 0328 04000000 		.word	.LC16
 5619 032c 08000000 		.word	.LC17
 5620 0330 30000000 		.word	.LC18
 5621 0334 34000000 		.word	.LC19
 5622 0338 1C000000 		.word	.LC3
 5623 033c 8096984B 		.word	1268291200
 5624 0340 38000000 		.word	.LC20
 5625 0344 44000000 		.word	.LC21
 5626 0348 10000000 		.word	.LC2
 5627 034c 50000000 		.word	.LC22
 5628 0350 00000C42 		.word	1108082688
 5629 0354 00000000 		.word	.LC6
 5630 0358 2C000000 		.word	.LC7
 5631 035c 6C000000 		.word	.LC8
 5632 0360 98000000 		.word	.LC9
 5633 0364 C4000000 		.word	.LC10
 5634 0368 F0000000 		.word	.LC11
 5635 036c 1C010000 		.word	.LC12
 5636 0370 48010000 		.word	.LC13
 5637 0374 74010000 		.word	.LC14
 5638              		.cfi_endproc
 5639              	.LFE2084:
 5641              		.section	.text._Z15ProfileFunctionIXadL_ZN5daisy6LoggerILNS0_17LoggerDestinationE3EE9PrintLineEPKc
 5642              		.align	1
 5643              		.p2align 2,,3
 5644              		.weak	_Z15ProfileFunctionIXadL_ZN5daisy6LoggerILNS0_17LoggerDestinationE3EE9PrintLineEPKczEEJEEfS5
 5645              		.syntax unified
 5646              		.thumb
 5647              		.thumb_func
 5648              		.fpu fpv5-d16
 5650              	_Z15ProfileFunctionIXadL_ZN5daisy6LoggerILNS0_17LoggerDestinationE3EE9PrintLineEPKczEEJEEfS5_DpT0_:
 5651              	.LVL489:
 5652              	.LFB2103:
  49:Logger.cpp    **** {
 5653              		.loc 6 49 7 is_stmt 1 view -0
 5654              		.cfi_startproc
 5655              		@ args = 0, pretend = 0, frame = 0
 5656              		@ frame_needed = 0, uses_anonymous_args = 0
  49:Logger.cpp    **** {
 5657              		.loc 6 49 7 is_stmt 0 view .LVU1451
 5658 0000 70B5     		push	{r4, r5, r6, lr}
 5659              		.cfi_def_cfa_offset 16
 5660              		.cfi_offset 4, -16
 5661              		.cfi_offset 5, -12
 5662              		.cfi_offset 6, -8
 5663              		.cfi_offset 14, -4
  49:Logger.cpp    **** {
 5664              		.loc 6 49 7 view .LVU1452
 5665 0002 0546     		mov	r5, r0
  52:Logger.cpp    ****     for(int i = 0; i < count; i++)
 5666              		.loc 6 52 46 view .LVU1453
 5667 0004 0A4C     		ldr	r4, .L233
ARM GAS  /tmp/ccIu4BI8.s 			page 128


 5668 0006 FFF7FEFF 		bl	_ZN5daisy6System7GetTickEv
 5669              	.LVL490:
  52:Logger.cpp    ****     for(int i = 0; i < count; i++)
 5670              		.loc 6 52 46 view .LVU1454
 5671 000a 0646     		mov	r6, r0
 5672              	.LVL491:
 5673              	.LBB1433:
  53:Logger.cpp    ****     {
 5674              		.loc 6 53 22 is_stmt 1 view .LVU1455
 5675              	.L230:
  55:Logger.cpp    ****     }
 5676              		.loc 6 55 17 is_stmt 0 discriminator 2 view .LVU1456
 5677 000c 2846     		mov	r0, r5
 5678 000e FFF7FEFF 		bl	_ZN5daisy6LoggerILNS_17LoggerDestinationE3EE9PrintLineEPKcz
 5679              	.LVL492:
  53:Logger.cpp    ****     {
 5680              		.loc 6 53 5 is_stmt 1 discriminator 2 view .LVU1457
  53:Logger.cpp    ****     {
 5681              		.loc 6 53 22 discriminator 2 view .LVU1458
 5682 0012 013C     		subs	r4, r4, #1
 5683              	.LVL493:
  53:Logger.cpp    ****     {
 5684              		.loc 6 53 22 is_stmt 0 discriminator 2 view .LVU1459
 5685 0014 FAD1     		bne	.L230
 5686              	.LBE1433:
  57:Logger.cpp    ****     const float perf
 5687              		.loc 6 57 37 view .LVU1460
 5688 0016 FFF7FEFF 		bl	_ZN5daisy6System7GetTickEv
 5689              	.LVL494:
  57:Logger.cpp    ****     const float perf
 5690              		.loc 6 57 17 view .LVU1461
 5691 001a 801B     		subs	r0, r0, r6
 5692              	.LVL495:
  58:Logger.cpp    ****         = (float)dt
 5693              		.loc 6 58 17 view .LVU1462
 5694 001c 9FED050A 		vldr.32	s0, .L233+4
  60:Logger.cpp    ****     return perf;
 5695              		.loc 6 60 11 view .LVU1463
 5696 0020 07EE900A 		vmov	s15, r0	@ int
 5697 0024 F8EE677A 		vcvt.f32.u32	s15, s15
  62:Logger.cpp    **** 
 5698              		.loc 6 62 1 view .LVU1464
 5699 0028 87EE800A 		vdiv.f32	s0, s15, s0
 5700              	.LVL496:
  62:Logger.cpp    **** 
 5701              		.loc 6 62 1 view .LVU1465
 5702 002c 70BD     		pop	{r4, r5, r6, pc}
 5703              	.LVL497:
 5704              	.L234:
  62:Logger.cpp    **** 
 5705              		.loc 6 62 1 view .LVU1466
 5706 002e 00BF     		.align	2
 5707              	.L233:
 5708 0030 A0860100 		.word	100000
 5709 0034 8096984B 		.word	1268291200
 5710              		.cfi_endproc
 5711              	.LFE2103:
ARM GAS  /tmp/ccIu4BI8.s 			page 129


 5713              		.section	.text._Z15ProfileFunctionIXadL_ZN5daisy6LoggerILNS0_17LoggerDestinationE3EE9PrintLineEPKc
 5714              		.align	1
 5715              		.p2align 2,,3
 5716              		.weak	_Z15ProfileFunctionIXadL_ZN5daisy6LoggerILNS0_17LoggerDestinationE3EE9PrintLineEPKczEEJiEEfS
 5717              		.syntax unified
 5718              		.thumb
 5719              		.thumb_func
 5720              		.fpu fpv5-d16
 5722              	_Z15ProfileFunctionIXadL_ZN5daisy6LoggerILNS0_17LoggerDestinationE3EE9PrintLineEPKczEEJiEEfS5_DpT0_
 5723              	.LVL498:
 5724              	.LFB2104:
  49:Logger.cpp    **** {
 5725              		.loc 6 49 7 is_stmt 1 view -0
 5726              		.cfi_startproc
 5727              		@ args = 0, pretend = 0, frame = 0
 5728              		@ frame_needed = 0, uses_anonymous_args = 0
  49:Logger.cpp    **** {
 5729              		.loc 6 49 7 is_stmt 0 view .LVU1468
 5730 0000 F8B5     		push	{r3, r4, r5, r6, r7, lr}
 5731              		.cfi_def_cfa_offset 24
 5732              		.cfi_offset 3, -24
 5733              		.cfi_offset 4, -20
 5734              		.cfi_offset 5, -16
 5735              		.cfi_offset 6, -12
 5736              		.cfi_offset 7, -8
 5737              		.cfi_offset 14, -4
  49:Logger.cpp    **** {
 5738              		.loc 6 49 7 view .LVU1469
 5739 0002 0646     		mov	r6, r0
 5740 0004 0D46     		mov	r5, r1
  52:Logger.cpp    ****     for(int i = 0; i < count; i++)
 5741              		.loc 6 52 46 view .LVU1470
 5742 0006 0B4C     		ldr	r4, .L239
 5743 0008 FFF7FEFF 		bl	_ZN5daisy6System7GetTickEv
 5744              	.LVL499:
  52:Logger.cpp    ****     for(int i = 0; i < count; i++)
 5745              		.loc 6 52 46 view .LVU1471
 5746 000c 0746     		mov	r7, r0
 5747              	.LVL500:
 5748              	.LBB1434:
  53:Logger.cpp    ****     {
 5749              		.loc 6 53 22 is_stmt 1 view .LVU1472
 5750              	.L236:
  55:Logger.cpp    ****     }
 5751              		.loc 6 55 17 is_stmt 0 discriminator 2 view .LVU1473
 5752 000e 2946     		mov	r1, r5
 5753 0010 3046     		mov	r0, r6
 5754 0012 FFF7FEFF 		bl	_ZN5daisy6LoggerILNS_17LoggerDestinationE3EE9PrintLineEPKcz
 5755              	.LVL501:
  53:Logger.cpp    ****     {
 5756              		.loc 6 53 5 is_stmt 1 discriminator 2 view .LVU1474
  53:Logger.cpp    ****     {
 5757              		.loc 6 53 22 discriminator 2 view .LVU1475
 5758 0016 013C     		subs	r4, r4, #1
 5759              	.LVL502:
  53:Logger.cpp    ****     {
 5760              		.loc 6 53 22 is_stmt 0 discriminator 2 view .LVU1476
ARM GAS  /tmp/ccIu4BI8.s 			page 130


 5761 0018 F9D1     		bne	.L236
 5762              	.LBE1434:
  57:Logger.cpp    ****     const float perf
 5763              		.loc 6 57 37 view .LVU1477
 5764 001a FFF7FEFF 		bl	_ZN5daisy6System7GetTickEv
 5765              	.LVL503:
  57:Logger.cpp    ****     const float perf
 5766              		.loc 6 57 17 view .LVU1478
 5767 001e C01B     		subs	r0, r0, r7
 5768              	.LVL504:
  58:Logger.cpp    ****         = (float)dt
 5769              		.loc 6 58 17 view .LVU1479
 5770 0020 9FED050A 		vldr.32	s0, .L239+4
  60:Logger.cpp    ****     return perf;
 5771              		.loc 6 60 11 view .LVU1480
 5772 0024 07EE900A 		vmov	s15, r0	@ int
 5773 0028 F8EE677A 		vcvt.f32.u32	s15, s15
  62:Logger.cpp    **** 
 5774              		.loc 6 62 1 view .LVU1481
 5775 002c 87EE800A 		vdiv.f32	s0, s15, s0
 5776              	.LVL505:
  62:Logger.cpp    **** 
 5777              		.loc 6 62 1 view .LVU1482
 5778 0030 F8BD     		pop	{r3, r4, r5, r6, r7, pc}
 5779              	.LVL506:
 5780              	.L240:
  62:Logger.cpp    **** 
 5781              		.loc 6 62 1 view .LVU1483
 5782 0032 00BF     		.align	2
 5783              	.L239:
 5784 0034 A0860100 		.word	100000
 5785 0038 8096984B 		.word	1268291200
 5786              		.cfi_endproc
 5787              	.LFE2104:
 5789              		.section	.text._Z15ProfileFunctionIXadL_ZN5daisy6LoggerILNS0_17LoggerDestinationE3EE9PrintLineEPKc
 5790              		.align	1
 5791              		.p2align 2,,3
 5792              		.weak	_Z15ProfileFunctionIXadL_ZN5daisy6LoggerILNS0_17LoggerDestinationE3EE9PrintLineEPKczEEJciiEE
 5793              		.syntax unified
 5794              		.thumb
 5795              		.thumb_func
 5796              		.fpu fpv5-d16
 5798              	_Z15ProfileFunctionIXadL_ZN5daisy6LoggerILNS0_17LoggerDestinationE3EE9PrintLineEPKczEEJciiEEfS5_DpT
 5799              	.LVL507:
 5800              	.LFB2106:
  49:Logger.cpp    **** {
 5801              		.loc 6 49 7 is_stmt 1 view -0
 5802              		.cfi_startproc
 5803              		@ args = 0, pretend = 0, frame = 0
 5804              		@ frame_needed = 0, uses_anonymous_args = 0
  49:Logger.cpp    **** {
 5805              		.loc 6 49 7 is_stmt 0 view .LVU1485
 5806 0000 2DE9F843 		push	{r3, r4, r5, r6, r7, r8, r9, lr}
 5807              		.cfi_def_cfa_offset 32
 5808              		.cfi_offset 3, -32
 5809              		.cfi_offset 4, -28
 5810              		.cfi_offset 5, -24
ARM GAS  /tmp/ccIu4BI8.s 			page 131


 5811              		.cfi_offset 6, -20
 5812              		.cfi_offset 7, -16
 5813              		.cfi_offset 8, -12
 5814              		.cfi_offset 9, -8
 5815              		.cfi_offset 14, -4
  49:Logger.cpp    **** {
 5816              		.loc 6 49 7 view .LVU1486
 5817 0004 8046     		mov	r8, r0
 5818 0006 0F46     		mov	r7, r1
 5819 0008 1646     		mov	r6, r2
 5820 000a 1D46     		mov	r5, r3
  52:Logger.cpp    ****     for(int i = 0; i < count; i++)
 5821              		.loc 6 52 46 view .LVU1487
 5822 000c 0C4C     		ldr	r4, .L245
 5823 000e FFF7FEFF 		bl	_ZN5daisy6System7GetTickEv
 5824              	.LVL508:
  52:Logger.cpp    ****     for(int i = 0; i < count; i++)
 5825              		.loc 6 52 46 view .LVU1488
 5826 0012 8146     		mov	r9, r0
 5827              	.LVL509:
 5828              	.LBB1435:
  53:Logger.cpp    ****     {
 5829              		.loc 6 53 22 is_stmt 1 view .LVU1489
 5830              	.L242:
  55:Logger.cpp    ****     }
 5831              		.loc 6 55 17 is_stmt 0 discriminator 2 view .LVU1490
 5832 0014 2B46     		mov	r3, r5
 5833 0016 3246     		mov	r2, r6
 5834 0018 3946     		mov	r1, r7
 5835 001a 4046     		mov	r0, r8
 5836 001c FFF7FEFF 		bl	_ZN5daisy6LoggerILNS_17LoggerDestinationE3EE9PrintLineEPKcz
 5837              	.LVL510:
  53:Logger.cpp    ****     {
 5838              		.loc 6 53 5 is_stmt 1 discriminator 2 view .LVU1491
  53:Logger.cpp    ****     {
 5839              		.loc 6 53 22 discriminator 2 view .LVU1492
 5840 0020 013C     		subs	r4, r4, #1
 5841              	.LVL511:
  53:Logger.cpp    ****     {
 5842              		.loc 6 53 22 is_stmt 0 discriminator 2 view .LVU1493
 5843 0022 F7D1     		bne	.L242
 5844              	.LBE1435:
  57:Logger.cpp    ****     const float perf
 5845              		.loc 6 57 37 view .LVU1494
 5846 0024 FFF7FEFF 		bl	_ZN5daisy6System7GetTickEv
 5847              	.LVL512:
  57:Logger.cpp    ****     const float perf
 5848              		.loc 6 57 17 view .LVU1495
 5849 0028 A0EB0900 		sub	r0, r0, r9
 5850              	.LVL513:
  58:Logger.cpp    ****         = (float)dt
 5851              		.loc 6 58 17 view .LVU1496
 5852 002c 9FED050A 		vldr.32	s0, .L245+4
  60:Logger.cpp    ****     return perf;
 5853              		.loc 6 60 11 view .LVU1497
 5854 0030 07EE900A 		vmov	s15, r0	@ int
 5855 0034 F8EE677A 		vcvt.f32.u32	s15, s15
ARM GAS  /tmp/ccIu4BI8.s 			page 132


  62:Logger.cpp    **** 
 5856              		.loc 6 62 1 view .LVU1498
 5857 0038 87EE800A 		vdiv.f32	s0, s15, s0
 5858              	.LVL514:
  62:Logger.cpp    **** 
 5859              		.loc 6 62 1 view .LVU1499
 5860 003c BDE8F883 		pop	{r3, r4, r5, r6, r7, r8, r9, pc}
 5861              	.LVL515:
 5862              	.L246:
  62:Logger.cpp    **** 
 5863              		.loc 6 62 1 view .LVU1500
 5864              		.align	2
 5865              	.L245:
 5866 0040 A0860100 		.word	100000
 5867 0044 8096984B 		.word	1268291200
 5868              		.cfi_endproc
 5869              	.LFE2106:
 5871              		.section	.text._Z12ProfilePrintIXadL_ZN5daisy6LoggerILNS0_17LoggerDestinationE3EE9PrintLineEPKczEE
 5872              		.align	1
 5873              		.p2align 2,,3
 5874              		.weak	_Z12ProfilePrintIXadL_ZN5daisy6LoggerILNS0_17LoggerDestinationE3EE9PrintLineEPKczEEEvS5_S5_
 5875              		.syntax unified
 5876              		.thumb
 5877              		.thumb_func
 5878              		.fpu fpv5-d16
 5880              	_Z12ProfilePrintIXadL_ZN5daisy6LoggerILNS0_17LoggerDestinationE3EE9PrintLineEPKczEEEvS5_S5_:
 5881              	.LVL516:
 5882              	.LFB2085:
  67:Logger.cpp    **** {
 5883              		.loc 6 67 6 is_stmt 1 view -0
 5884              		.cfi_startproc
 5885              		@ args = 0, pretend = 0, frame = 0
 5886              		@ frame_needed = 0, uses_anonymous_args = 0
  67:Logger.cpp    **** {
 5887              		.loc 6 67 6 is_stmt 0 view .LVU1502
 5888 0000 F0B5     		push	{r4, r5, r6, r7, lr}
 5889              		.cfi_def_cfa_offset 20
 5890              		.cfi_offset 4, -20
 5891              		.cfi_offset 5, -16
 5892              		.cfi_offset 6, -12
 5893              		.cfi_offset 7, -8
 5894              		.cfi_offset 14, -4
 5895 0002 0446     		mov	r4, r0
  69:Logger.cpp    ****     const float print_1 = ProfileFunction<function>("a");
 5896              		.loc 6 69 52 view .LVU1503
 5897 0004 C648     		ldr	r0, .L269+16
 5898              	.LVL517:
  67:Logger.cpp    **** {
 5899              		.loc 6 67 6 view .LVU1504
 5900 0006 0D46     		mov	r5, r1
 5901              	.LBB1477:
 5902              	.LBB1478:
  52:Logger.cpp    ****     for(int i = 0; i < count; i++)
 5903              		.loc 6 52 46 view .LVU1505
 5904 0008 C64E     		ldr	r6, .L269+20
 5905              	.LBE1478:
 5906              	.LBE1477:
ARM GAS  /tmp/ccIu4BI8.s 			page 133


  67:Logger.cpp    **** {
 5907              		.loc 6 67 6 view .LVU1506
 5908 000a 2DED0C8B 		vpush.64	{d8, d9, d10, d11, d12, d13}
 5909              		.cfi_def_cfa_offset 68
 5910              		.cfi_offset 80, -68
 5911              		.cfi_offset 81, -64
 5912              		.cfi_offset 82, -60
 5913              		.cfi_offset 83, -56
 5914              		.cfi_offset 84, -52
 5915              		.cfi_offset 85, -48
 5916              		.cfi_offset 86, -44
 5917              		.cfi_offset 87, -40
 5918              		.cfi_offset 88, -36
 5919              		.cfi_offset 89, -32
 5920              		.cfi_offset 90, -28
 5921              		.cfi_offset 91, -24
 5922 000e 87B0     		sub	sp, sp, #28
 5923              		.cfi_def_cfa_offset 96
  69:Logger.cpp    ****     const float print_1 = ProfileFunction<function>("a");
 5924              		.loc 6 69 52 view .LVU1507
 5925 0010 FFF7FEFF 		bl	_Z15ProfileFunctionIXadL_ZN5daisy6LoggerILNS0_17LoggerDestinationE3EE9PrintLineEPKczEEJEEfS5_Dp
 5926              	.LVL518:
  70:Logger.cpp    ****     const float print_36
 5927              		.loc 6 70 52 view .LVU1508
 5928 0014 C448     		ldr	r0, .L269+24
  69:Logger.cpp    ****     const float print_1 = ProfileFunction<function>("a");
 5929              		.loc 6 69 52 view .LVU1509
 5930 0016 F0EE40DA 		vmov.f32	s27, s0
 5931              	.LVL519:
  70:Logger.cpp    ****     const float print_36
 5932              		.loc 6 70 52 view .LVU1510
 5933 001a FFF7FEFF 		bl	_Z15ProfileFunctionIXadL_ZN5daisy6LoggerILNS0_17LoggerDestinationE3EE9PrintLineEPKczEEJEEfS5_Dp
 5934              	.LVL520:
  72:Logger.cpp    ****     const float print_d = ProfileFunction<function>("%d", 123);
 5935              		.loc 6 72 36 view .LVU1511
 5936 001e C348     		ldr	r0, .L269+28
  70:Logger.cpp    ****     const float print_36
 5937              		.loc 6 70 52 view .LVU1512
 5938 0020 F0EE40CA 		vmov.f32	s25, s0
 5939              	.LVL521:
  72:Logger.cpp    ****     const float print_d = ProfileFunction<function>("%d", 123);
 5940              		.loc 6 72 36 view .LVU1513
 5941 0024 FFF7FEFF 		bl	_Z15ProfileFunctionIXadL_ZN5daisy6LoggerILNS0_17LoggerDestinationE3EE9PrintLineEPKczEEJEEfS5_Dp
 5942              	.LVL522:
  73:Logger.cpp    ****     const float print_u = ProfileFunction<function>("%u", 123);
 5943              		.loc 6 73 52 view .LVU1514
 5944 0028 7B21     		movs	r1, #123
 5945 002a C148     		ldr	r0, .L269+32
  72:Logger.cpp    ****     const float print_d = ProfileFunction<function>("%d", 123);
 5946              		.loc 6 72 36 view .LVU1515
 5947 002c B0EE40DA 		vmov.f32	s26, s0
 5948              	.LVL523:
  73:Logger.cpp    ****     const float print_u = ProfileFunction<function>("%u", 123);
 5949              		.loc 6 73 52 view .LVU1516
 5950 0030 FFF7FEFF 		bl	_Z15ProfileFunctionIXadL_ZN5daisy6LoggerILNS0_17LoggerDestinationE3EE9PrintLineEPKczEEJiEEfS5_D
 5951              	.LVL524:
  74:Logger.cpp    ****     const float print_f = ProfileFunction<function>("%.3f", 123.0f);
ARM GAS  /tmp/ccIu4BI8.s 			page 134


 5952              		.loc 6 74 52 view .LVU1517
 5953 0034 7B21     		movs	r1, #123
 5954 0036 BF48     		ldr	r0, .L269+36
  73:Logger.cpp    ****     const float print_u = ProfileFunction<function>("%u", 123);
 5955              		.loc 6 73 52 view .LVU1518
 5956 0038 B0EE40CA 		vmov.f32	s24, s0
 5957              	.LVL525:
  74:Logger.cpp    ****     const float print_f = ProfileFunction<function>("%.3f", 123.0f);
 5958              		.loc 6 74 52 view .LVU1519
 5959 003c FFF7FEFF 		bl	_Z15ProfileFunctionIXadL_ZN5daisy6LoggerILNS0_17LoggerDestinationE3EE9PrintLineEPKczEEJiEEfS5_D
 5960              	.LVL526:
  74:Logger.cpp    ****     const float print_f = ProfileFunction<function>("%.3f", 123.0f);
 5961              		.loc 6 74 52 view .LVU1520
 5962 0040 B0EE40BA 		vmov.f32	s22, s0
 5963              	.LVL527:
 5964              	.LBB1484:
 5965              	.LBI1477:
  49:Logger.cpp    **** {
 5966              		.loc 6 49 7 is_stmt 1 view .LVU1521
 5967              	.LBB1480:
  52:Logger.cpp    ****     for(int i = 0; i < count; i++)
 5968              		.loc 6 52 46 is_stmt 0 view .LVU1522
 5969 0044 FFF7FEFF 		bl	_ZN5daisy6System7GetTickEv
 5970              	.LVL528:
  52:Logger.cpp    ****     for(int i = 0; i < count; i++)
 5971              		.loc 6 52 46 view .LVU1523
 5972 0048 0746     		mov	r7, r0
 5973              	.LVL529:
 5974              	.LBB1479:
  53:Logger.cpp    ****     {
 5975              		.loc 6 53 22 is_stmt 1 view .LVU1524
 5976              	.L248:
  55:Logger.cpp    ****     }
 5977              		.loc 6 55 17 is_stmt 0 view .LVU1525
 5978 004a BB48     		ldr	r0, .L269+40
 5979 004c B0A3     		adr	r3, .L269
 5980 004e D3E90023 		ldrd	r2, [r3]
 5981 0052 FFF7FEFF 		bl	_ZN5daisy6LoggerILNS_17LoggerDestinationE3EE9PrintLineEPKcz
 5982              	.LVL530:
  53:Logger.cpp    ****     {
 5983              		.loc 6 53 5 is_stmt 1 view .LVU1526
  53:Logger.cpp    ****     {
 5984              		.loc 6 53 22 view .LVU1527
 5985 0056 013E     		subs	r6, r6, #1
 5986              	.LVL531:
  53:Logger.cpp    ****     {
 5987              		.loc 6 53 22 is_stmt 0 view .LVU1528
 5988 0058 F7D1     		bne	.L248
 5989              	.LBE1479:
  57:Logger.cpp    ****     const float perf
 5990              		.loc 6 57 37 view .LVU1529
 5991 005a FFF7FEFF 		bl	_ZN5daisy6System7GetTickEv
 5992              	.LVL532:
  57:Logger.cpp    ****     const float perf
 5993              		.loc 6 57 17 view .LVU1530
 5994 005e C21B     		subs	r2, r0, r7
 5995              	.LVL533:
ARM GAS  /tmp/ccIu4BI8.s 			page 135


  58:Logger.cpp    ****         = (float)dt
 5996              		.loc 6 58 17 view .LVU1531
 5997 0060 9FEDB67A 		vldr.32	s14, .L269+44
 5998              	.LBE1480:
 5999              	.LBE1484:
  77:Logger.cpp    ****     const float print_F2
 6000              		.loc 6 77 36 view .LVU1532
 6001 0064 3346     		mov	r3, r6
 6002              	.LBB1485:
 6003              	.LBB1481:
  57:Logger.cpp    ****     const float perf
 6004              		.loc 6 57 17 view .LVU1533
 6005 0066 07EE902A 		vmov	s15, r2	@ int
 6006              	.LBE1481:
 6007              	.LBE1485:
  77:Logger.cpp    ****     const float print_F2
 6008              		.loc 6 77 36 view .LVU1534
 6009 006a 2021     		movs	r1, #32
 6010 006c 7B22     		movs	r2, #123
 6011              	.LVL534:
  77:Logger.cpp    ****     const float print_F2
 6012              		.loc 6 77 36 view .LVU1535
 6013 006e B448     		ldr	r0, .L269+48
 6014              	.LBB1486:
 6015              	.LBB1482:
  60:Logger.cpp    ****     return perf;
 6016              		.loc 6 60 11 view .LVU1536
 6017 0070 F8EE677A 		vcvt.f32.u32	s15, s15
 6018              	.LVL535:
  60:Logger.cpp    ****     return perf;
 6019              		.loc 6 60 11 view .LVU1537
 6020              	.LBE1482:
 6021              	.LBE1486:
  92:Logger.cpp    ****     hw.PrintLine("%s - %s (   text string):" FLT_FMT3 " us/call +" FLT_FMT3
 6022              		.loc 6 92 18 view .LVU1538
 6023 0074 9FEDA88B 		vldr.64	d8, .L269+8
 6024              	.LBB1487:
 6025              	.LBB1483:
  58:Logger.cpp    ****         = (float)dt
 6026              		.loc 6 58 17 view .LVU1539
 6027 0078 87EE879A 		vdiv.f32	s18, s15, s14
 6028              	.LVL536:
  58:Logger.cpp    ****         = (float)dt
 6029              		.loc 6 58 17 view .LVU1540
 6030              	.LBE1483:
 6031              	.LBE1487:
  77:Logger.cpp    ****     const float print_F2
 6032              		.loc 6 77 36 view .LVU1541
 6033 007c FFF7FEFF 		bl	_Z15ProfileFunctionIXadL_ZN5daisy6LoggerILNS0_17LoggerDestinationE3EE9PrintLineEPKczEEJciiEEfS5
 6034              	.LVL537:
  79:Logger.cpp    ****     const float print_F3
 6035              		.loc 6 79 36 view .LVU1542
 6036 0080 3346     		mov	r3, r6
 6037 0082 7B22     		movs	r2, #123
 6038 0084 2021     		movs	r1, #32
 6039 0086 AF48     		ldr	r0, .L269+52
  77:Logger.cpp    ****     const float print_F2
ARM GAS  /tmp/ccIu4BI8.s 			page 136


 6040              		.loc 6 77 36 view .LVU1543
 6041 0088 F0EE40BA 		vmov.f32	s23, s0
 6042              	.LVL538:
  79:Logger.cpp    ****     const float print_F3
 6043              		.loc 6 79 36 view .LVU1544
 6044 008c FFF7FEFF 		bl	_Z15ProfileFunctionIXadL_ZN5daisy6LoggerILNS0_17LoggerDestinationE3EE9PrintLineEPKczEEJciiEEfS5
 6045              	.LVL539:
  81:Logger.cpp    ****     const float print_F4
 6046              		.loc 6 81 36 view .LVU1545
 6047 0090 3346     		mov	r3, r6
 6048 0092 7B22     		movs	r2, #123
 6049 0094 2021     		movs	r1, #32
 6050 0096 AC48     		ldr	r0, .L269+56
  79:Logger.cpp    ****     const float print_F3
 6051              		.loc 6 79 36 view .LVU1546
 6052 0098 F0EE40AA 		vmov.f32	s21, s0
 6053              	.LVL540:
  81:Logger.cpp    ****     const float print_F4
 6054              		.loc 6 81 36 view .LVU1547
 6055 009c FFF7FEFF 		bl	_Z15ProfileFunctionIXadL_ZN5daisy6LoggerILNS0_17LoggerDestinationE3EE9PrintLineEPKczEEJciiEEfS5
 6056              	.LVL541:
  83:Logger.cpp    **** 
 6057              		.loc 6 83 36 view .LVU1548
 6058 00a0 3346     		mov	r3, r6
 6059 00a2 7B22     		movs	r2, #123
 6060 00a4 2021     		movs	r1, #32
 6061 00a6 A948     		ldr	r0, .L269+60
  81:Logger.cpp    ****     const float print_F4
 6062              		.loc 6 81 36 view .LVU1549
 6063 00a8 B0EE40AA 		vmov.f32	s20, s0
 6064              	.LVL542:
  83:Logger.cpp    **** 
 6065              		.loc 6 83 36 view .LVU1550
 6066 00ac FFF7FEFF 		bl	_Z15ProfileFunctionIXadL_ZN5daisy6LoggerILNS0_17LoggerDestinationE3EE9PrintLineEPKczEEJciiEEfS5
 6067              	.LVL543:
 6068              	.LBB1488:
 6069              	.LBB1489:
 6070              		.loc 7 76 31 view .LVU1551
 6071 00b0 B0EEED7A 		vabs.f32	s14, s27
 6072              	.LBE1489:
 6073              	.LBE1488:
  86:Logger.cpp    ****     const float intercept = print_1 - slope;
 6074              		.loc 6 86 17 view .LVU1552
 6075 00b4 DFEDA66A 		vldr.32	s13, .L269+64
  86:Logger.cpp    ****     const float intercept = print_1 - slope;
 6076              		.loc 6 86 39 view .LVU1553
 6077 00b8 3DEE6CDA 		vsub.f32	s26, s26, s25
 6078              	.LVL544:
 6079              	.LBB1491:
 6080              	.LBB1492:
 6081              		.loc 1 124 23 view .LVU1554
 6082 00bc 2A46     		mov	r2, r5
 6083              	.LBE1492:
 6084              	.LBE1491:
  89:Logger.cpp    ****                  class_caption,
 6085              		.loc 6 89 17 view .LVU1555
 6086 00be F5EEC0DA 		vcmpe.f32	s27, #0
ARM GAS  /tmp/ccIu4BI8.s 			page 137


 6087              	.LBB1498:
 6088              	.LBB1493:
 6089              		.loc 1 124 23 view .LVU1556
 6090 00c2 2146     		mov	r1, r4
 6091              	.LBE1493:
 6092              	.LBE1498:
  89:Logger.cpp    ****                  class_caption,
 6093              		.loc 6 89 17 view .LVU1557
 6094 00c4 FDEEC77A 		vcvt.s32.f32	s15, s14
 6095              	.LBB1499:
 6096              	.LBB1494:
 6097              		.loc 1 124 23 view .LVU1558
 6098 00c8 A248     		ldr	r0, .L269+68
 6099              	.LBE1494:
 6100              	.LBE1499:
  86:Logger.cpp    ****     const float intercept = print_1 - slope;
 6101              		.loc 6 86 17 view .LVU1559
 6102 00ca CDEE26DA 		vdiv.f32	s27, s26, s13
 6103              	.LVL545:
 6104              	.LBB1500:
 6105              	.LBB1495:
 6106              		.loc 1 124 23 view .LVU1560
 6107 00ce CDED007A 		vstr.32	s15, [sp]	@ int
 6108              	.LBE1495:
 6109              	.LBE1500:
  92:Logger.cpp    ****     hw.PrintLine("%s - %s (   text string):" FLT_FMT3 " us/call +" FLT_FMT3
 6110              		.loc 6 92 18 view .LVU1561
 6111 00d2 F8EEE77A 		vcvt.f32.s32	s15, s15
  89:Logger.cpp    ****                  class_caption,
 6112              		.loc 6 89 17 view .LVU1562
 6113 00d6 F1EE10FA 		vmrs	APSR_nzcv, FPSCR
  83:Logger.cpp    **** 
 6114              		.loc 6 83 36 view .LVU1563
 6115 00da F0EE409A 		vmov.f32	s19, s0
 6116              	.LVL546:
  92:Logger.cpp    ****     hw.PrintLine("%s - %s (   text string):" FLT_FMT3 " us/call +" FLT_FMT3
 6117              		.loc 6 92 18 view .LVU1564
 6118 00de 37EE677A 		vsub.f32	s14, s14, s15
 6119              	.LBB1501:
 6120              	.LBB1496:
 6121              		.loc 1 124 23 view .LVU1565
 6122 00e2 4CBF     		ite	mi
 6123 00e4 2D23     		movmi	r3, #45
 6124 00e6 2023     		movpl	r3, #32
 6125              	.LBE1496:
 6126              	.LBE1501:
  92:Logger.cpp    ****     hw.PrintLine("%s - %s (   text string):" FLT_FMT3 " us/call +" FLT_FMT3
 6127              		.loc 6 92 18 view .LVU1566
 6128 00e8 B7EEC77A 		vcvt.f64.f32	d7, s14
 6129 00ec 27EE087B 		vmul.f64	d7, d7, d8
  87:Logger.cpp    **** 
 6130              		.loc 6 87 17 view .LVU1567
 6131 00f0 7CEEEDCA 		vsub.f32	s25, s25, s27
 6132              	.LVL547:
 6133              	.LBB1502:
 6134              	.LBI1488:
  75:/usr/include/newlib/c++/9.2.1/bits/std_abs.h ****   { return __builtin_fabsf(__x); }
ARM GAS  /tmp/ccIu4BI8.s 			page 138


 6135              		.loc 7 75 3 is_stmt 1 view .LVU1568
 6136              	.LBB1490:
 6137              		.loc 7 76 5 view .LVU1569
 6138              		.loc 7 76 5 is_stmt 0 view .LVU1570
 6139              	.LBE1490:
 6140              	.LBE1502:
 6141              		.loc 7 76 5 is_stmt 1 view .LVU1571
 6142              		.loc 7 76 5 view .LVU1572
 6143              	.LBB1503:
 6144              	.LBI1491:
 122:../../libdaisy/src/daisy_seed.h ****     {
 6145              		.loc 1 122 17 view .LVU1573
 6146              	.LBE1503:
  89:Logger.cpp    ****                  class_caption,
 6147              		.loc 6 89 17 is_stmt 0 view .LVU1574
 6148 00f4 BDEEC77B 		vcvt.s32.f64	s14, d7
 6149              	.LBB1504:
 6150              	.LBB1497:
 6151              		.loc 1 124 23 view .LVU1575
 6152 00f8 8DED017A 		vstr.32	s14, [sp, #4]	@ int
 6153 00fc FFF7FEFF 		bl	_ZN5daisy6LoggerILNS_17LoggerDestinationE1EE9PrintLineEPKcz
 6154              	.LVL548:
 6155              		.loc 1 124 23 view .LVU1576
 6156              	.LBE1497:
 6157              	.LBE1504:
 6158              	.LBB1505:
 6159              	.LBB1506:
 6160              		.loc 7 76 31 view .LVU1577
 6161 0100 B0EEEC6A 		vabs.f32	s12, s25
 6162              	.LBE1506:
 6163              	.LBE1505:
 6164              	.LBB1508:
 6165              	.LBB1509:
 6166 0104 B0EEED7A 		vabs.f32	s14, s27
 6167              	.LBE1509:
 6168              	.LBE1508:
 6169              	.LBB1511:
 6170              	.LBB1512:
 6171              		.loc 1 124 23 view .LVU1578
 6172 0108 2A46     		mov	r2, r5
 6173              	.LBE1512:
 6174              	.LBE1511:
  93:Logger.cpp    ****                  " us/char",
 6175              		.loc 6 93 17 view .LVU1579
 6176 010a F5EEC0CA 		vcmpe.f32	s25, #0
 6177              	.LBB1519:
 6178              	.LBB1513:
 6179              		.loc 1 124 23 view .LVU1580
 6180 010e 2146     		mov	r1, r4
 6181              	.LBE1513:
 6182              	.LBE1519:
  93:Logger.cpp    ****                  " us/char",
 6183              		.loc 6 93 17 view .LVU1581
 6184 0110 FDEEC66A 		vcvt.s32.f32	s13, s12
 6185              	.LBB1520:
 6186              	.LBB1514:
 6187              		.loc 1 124 23 view .LVU1582
ARM GAS  /tmp/ccIu4BI8.s 			page 139


 6188 0114 9048     		ldr	r0, .L269+72
 6189              	.LBE1514:
 6190              	.LBE1520:
  93:Logger.cpp    ****                  " us/char",
 6191              		.loc 6 93 17 view .LVU1583
 6192 0116 FDEEC77A 		vcvt.s32.f32	s15, s14
 6193 011a F1EE10FA 		vmrs	APSR_nzcv, FPSCR
  97:Logger.cpp    ****                  FLT_VAR3(slope));
 6194              		.loc 6 97 18 view .LVU1584
 6195 011e F8EEE65A 		vcvt.f32.s32	s11, s13
 6196              	.LBB1521:
 6197              	.LBB1515:
 6198              		.loc 1 124 23 view .LVU1585
 6199 0122 CDED006A 		vstr.32	s13, [sp]	@ int
 6200              	.LBE1515:
 6201              	.LBE1521:
  98:Logger.cpp    ****     hw.PrintLine("%s - %s ( integer value):" FLT_FMT3 " us/call",
 6202              		.loc 6 98 18 view .LVU1586
 6203 0126 F8EEE76A 		vcvt.f32.s32	s13, s15
 6204              	.LBB1522:
 6205              	.LBB1516:
 6206              		.loc 1 124 23 view .LVU1587
 6207 012a CDED037A 		vstr.32	s15, [sp, #12]	@ int
 6208              	.LBE1516:
 6209              	.LBE1522:
  93:Logger.cpp    ****                  " us/char",
 6210              		.loc 6 93 17 view .LVU1588
 6211 012e F5EEC0DA 		vcmpe.f32	s27, #0
 6212 0132 48BF     		it	mi
 6213 0134 2D23     		movmi	r3, #45
  97:Logger.cpp    ****                  FLT_VAR3(slope));
 6214              		.loc 6 97 18 view .LVU1589
 6215 0136 36EE656A 		vsub.f32	s12, s12, s11
  93:Logger.cpp    ****                  " us/char",
 6216              		.loc 6 93 17 view .LVU1590
 6217 013a 58BF     		it	pl
 6218 013c 2023     		movpl	r3, #32
 6219              	.LVL549:
 6220              	.LBB1523:
 6221              	.LBI1505:
  75:/usr/include/newlib/c++/9.2.1/bits/std_abs.h ****   { return __builtin_fabsf(__x); }
 6222              		.loc 7 75 3 is_stmt 1 view .LVU1591
 6223              	.LBB1507:
 6224              		.loc 7 76 5 view .LVU1592
 6225              		.loc 7 76 5 is_stmt 0 view .LVU1593
 6226              	.LBE1507:
 6227              	.LBE1523:
 6228              		.loc 7 76 5 is_stmt 1 view .LVU1594
 6229              		.loc 7 76 5 view .LVU1595
  98:Logger.cpp    ****     hw.PrintLine("%s - %s ( integer value):" FLT_FMT3 " us/call",
 6230              		.loc 6 98 18 is_stmt 0 view .LVU1596
 6231 013e 37EE667A 		vsub.f32	s14, s14, s13
  93:Logger.cpp    ****                  " us/char",
 6232              		.loc 6 93 17 view .LVU1597
 6233 0142 F1EE10FA 		vmrs	APSR_nzcv, FPSCR
  97:Logger.cpp    ****                  FLT_VAR3(slope));
 6234              		.loc 6 97 18 view .LVU1598
ARM GAS  /tmp/ccIu4BI8.s 			page 140


 6235 0146 B7EEC66A 		vcvt.f64.f32	d6, s12
  98:Logger.cpp    ****     hw.PrintLine("%s - %s ( integer value):" FLT_FMT3 " us/call",
 6236              		.loc 6 98 18 view .LVU1599
 6237 014a B7EEC77A 		vcvt.f64.f32	d7, s14
  93:Logger.cpp    ****                  " us/char",
 6238              		.loc 6 93 17 view .LVU1600
 6239 014e 4CBF     		ite	mi
 6240 0150 2D26     		movmi	r6, #45
 6241 0152 2026     		movpl	r6, #32
 6242              	.LVL550:
 6243              	.LBB1524:
 6244              	.LBI1508:
  75:/usr/include/newlib/c++/9.2.1/bits/std_abs.h ****   { return __builtin_fabsf(__x); }
 6245              		.loc 7 75 3 is_stmt 1 view .LVU1601
 6246              	.LBB1510:
 6247              		.loc 7 76 5 view .LVU1602
 6248              		.loc 7 76 5 is_stmt 0 view .LVU1603
 6249              	.LBE1510:
 6250              	.LBE1524:
 6251              		.loc 7 76 5 is_stmt 1 view .LVU1604
 6252              		.loc 7 76 5 view .LVU1605
  97:Logger.cpp    ****                  FLT_VAR3(slope));
 6253              		.loc 6 97 18 is_stmt 0 view .LVU1606
 6254 0154 26EE086B 		vmul.f64	d6, d6, d8
 6255              	.LBB1525:
 6256              	.LBB1517:
 6257              		.loc 1 124 23 view .LVU1607
 6258 0158 0296     		str	r6, [sp, #8]
 6259              	.LBE1517:
 6260              	.LBE1525:
  98:Logger.cpp    ****     hw.PrintLine("%s - %s ( integer value):" FLT_FMT3 " us/call",
 6261              		.loc 6 98 18 view .LVU1608
 6262 015a 27EE087B 		vmul.f64	d7, d7, d8
  93:Logger.cpp    ****                  " us/char",
 6263              		.loc 6 93 17 view .LVU1609
 6264 015e BDEEC66B 		vcvt.s32.f64	s12, d6
 6265              	.LVL551:
 6266              	.LBB1526:
 6267              	.LBI1511:
 122:../../libdaisy/src/daisy_seed.h ****     {
 6268              		.loc 1 122 17 is_stmt 1 view .LVU1610
 6269              	.LBE1526:
  93:Logger.cpp    ****                  " us/char",
 6270              		.loc 6 93 17 is_stmt 0 view .LVU1611
 6271 0162 BDEEC77B 		vcvt.s32.f64	s14, d7
 6272              	.LBB1527:
 6273              	.LBB1518:
 6274              		.loc 1 124 23 view .LVU1612
 6275 0166 8DED016A 		vstr.32	s12, [sp, #4]	@ int
 6276 016a 8DED047A 		vstr.32	s14, [sp, #16]	@ int
 6277 016e FFF7FEFF 		bl	_ZN5daisy6LoggerILNS_17LoggerDestinationE1EE9PrintLineEPKcz
 6278              	.LVL552:
 6279              		.loc 1 124 23 view .LVU1613
 6280              	.LBE1518:
 6281              	.LBE1527:
 6282              	.LBB1528:
 6283              	.LBI1528:
ARM GAS  /tmp/ccIu4BI8.s 			page 141


  75:/usr/include/newlib/c++/9.2.1/bits/std_abs.h ****   { return __builtin_fabsf(__x); }
 6284              		.loc 7 75 3 is_stmt 1 view .LVU1614
 6285              	.LBB1529:
 6286              		.loc 7 76 5 view .LVU1615
 6287              		.loc 7 76 31 is_stmt 0 view .LVU1616
 6288 0172 B0EECC7A 		vabs.f32	s14, s24
 6289              	.LVL553:
 6290              		.loc 7 76 31 view .LVU1617
 6291              	.LBE1529:
 6292              	.LBE1528:
  99:Logger.cpp    ****                  class_caption,
 6293              		.loc 6 99 17 view .LVU1618
 6294 0176 B5EEC0CA 		vcmpe.f32	s24, #0
 6295              	.LBB1530:
 6296              	.LBB1531:
 6297              		.loc 1 124 23 view .LVU1619
 6298 017a 2A46     		mov	r2, r5
 6299 017c 2146     		mov	r1, r4
 6300 017e 7748     		ldr	r0, .L269+76
 6301              	.LBE1531:
 6302              	.LBE1530:
  99:Logger.cpp    ****                  class_caption,
 6303              		.loc 6 99 17 view .LVU1620
 6304 0180 FDEEC77A 		vcvt.s32.f32	s15, s14
 6305              	.LVL554:
 6306              		.loc 7 76 5 is_stmt 1 view .LVU1621
 6307              		.loc 7 76 5 view .LVU1622
 6308              	.LBB1534:
 6309              	.LBI1530:
 122:../../libdaisy/src/daisy_seed.h ****     {
 6310              		.loc 1 122 17 view .LVU1623
 6311              	.LBE1534:
  99:Logger.cpp    ****                  class_caption,
 6312              		.loc 6 99 17 is_stmt 0 view .LVU1624
 6313 0184 F1EE10FA 		vmrs	APSR_nzcv, FPSCR
 102:Logger.cpp    ****     hw.PrintLine("%s - %s (unsigned value):" FLT_FMT3 " us/call",
 6314              		.loc 6 102 18 view .LVU1625
 6315 0188 F8EEE76A 		vcvt.f32.s32	s13, s15
 6316              	.LVL555:
 6317              	.LBB1535:
 6318              	.LBB1532:
 6319              		.loc 1 124 23 view .LVU1626
 6320 018c CDED007A 		vstr.32	s15, [sp]	@ int
 6321 0190 4CBF     		ite	mi
 6322 0192 2D23     		movmi	r3, #45
 6323 0194 2023     		movpl	r3, #32
 6324              	.LBE1532:
 6325              	.LBE1535:
 102:Logger.cpp    ****     hw.PrintLine("%s - %s (unsigned value):" FLT_FMT3 " us/call",
 6326              		.loc 6 102 18 view .LVU1627
 6327 0196 37EE667A 		vsub.f32	s14, s14, s13
 6328              	.LVL556:
 102:Logger.cpp    ****     hw.PrintLine("%s - %s (unsigned value):" FLT_FMT3 " us/call",
 6329              		.loc 6 102 18 view .LVU1628
 6330 019a B7EEC77A 		vcvt.f64.f32	d7, s14
 6331 019e 27EE087B 		vmul.f64	d7, d7, d8
  99:Logger.cpp    ****                  class_caption,
ARM GAS  /tmp/ccIu4BI8.s 			page 142


 6332              		.loc 6 99 17 view .LVU1629
 6333 01a2 BDEEC77B 		vcvt.s32.f64	s14, d7
 6334              	.LBB1536:
 6335              	.LBB1533:
 6336              		.loc 1 124 23 view .LVU1630
 6337 01a6 8DED017A 		vstr.32	s14, [sp, #4]	@ int
 6338 01aa FFF7FEFF 		bl	_ZN5daisy6LoggerILNS_17LoggerDestinationE1EE9PrintLineEPKcz
 6339              	.LVL557:
 6340              		.loc 1 124 23 view .LVU1631
 6341              	.LBE1533:
 6342              	.LBE1536:
 6343              	.LBB1537:
 6344              	.LBI1537:
  75:/usr/include/newlib/c++/9.2.1/bits/std_abs.h ****   { return __builtin_fabsf(__x); }
 6345              		.loc 7 75 3 is_stmt 1 view .LVU1632
 6346              	.LBB1538:
 6347              		.loc 7 76 5 view .LVU1633
 6348              		.loc 7 76 31 is_stmt 0 view .LVU1634
 6349 01ae B0EECB7A 		vabs.f32	s14, s22
 6350              	.LVL558:
 6351              		.loc 7 76 31 view .LVU1635
 6352              	.LBE1538:
 6353              	.LBE1537:
 103:Logger.cpp    ****                  class_caption,
 6354              		.loc 6 103 17 view .LVU1636
 6355 01b2 B5EEC0BA 		vcmpe.f32	s22, #0
 6356              	.LBB1539:
 6357              	.LBB1540:
 6358              		.loc 1 124 23 view .LVU1637
 6359 01b6 2A46     		mov	r2, r5
 6360 01b8 2146     		mov	r1, r4
 6361 01ba 6948     		ldr	r0, .L269+80
 6362              	.LBE1540:
 6363              	.LBE1539:
 103:Logger.cpp    ****                  class_caption,
 6364              		.loc 6 103 17 view .LVU1638
 6365 01bc FDEEC77A 		vcvt.s32.f32	s15, s14
 6366              	.LVL559:
 6367              		.loc 7 76 5 is_stmt 1 view .LVU1639
 6368              		.loc 7 76 5 view .LVU1640
 6369              	.LBB1543:
 6370              	.LBI1539:
 122:../../libdaisy/src/daisy_seed.h ****     {
 6371              		.loc 1 122 17 view .LVU1641
 6372              	.LBE1543:
 103:Logger.cpp    ****                  class_caption,
 6373              		.loc 6 103 17 is_stmt 0 view .LVU1642
 6374 01c0 F1EE10FA 		vmrs	APSR_nzcv, FPSCR
 106:Logger.cpp    ****     hw.PrintLine("%s - %s ( float.3 value):" FLT_FMT3 " us/call",
 6375              		.loc 6 106 18 view .LVU1643
 6376 01c4 F8EEE76A 		vcvt.f32.s32	s13, s15
 6377              	.LVL560:
 6378              	.LBB1544:
 6379              	.LBB1541:
 6380              		.loc 1 124 23 view .LVU1644
 6381 01c8 CDED007A 		vstr.32	s15, [sp]	@ int
 6382 01cc 4CBF     		ite	mi
ARM GAS  /tmp/ccIu4BI8.s 			page 143


 6383 01ce 2D23     		movmi	r3, #45
 6384 01d0 2023     		movpl	r3, #32
 6385              	.LBE1541:
 6386              	.LBE1544:
 106:Logger.cpp    ****     hw.PrintLine("%s - %s ( float.3 value):" FLT_FMT3 " us/call",
 6387              		.loc 6 106 18 view .LVU1645
 6388 01d2 37EE667A 		vsub.f32	s14, s14, s13
 6389              	.LVL561:
 106:Logger.cpp    ****     hw.PrintLine("%s - %s ( float.3 value):" FLT_FMT3 " us/call",
 6390              		.loc 6 106 18 view .LVU1646
 6391 01d6 B7EEC77A 		vcvt.f64.f32	d7, s14
 6392 01da 27EE087B 		vmul.f64	d7, d7, d8
 103:Logger.cpp    ****                  class_caption,
 6393              		.loc 6 103 17 view .LVU1647
 6394 01de BDEEC77B 		vcvt.s32.f64	s14, d7
 6395              	.LBB1545:
 6396              	.LBB1542:
 6397              		.loc 1 124 23 view .LVU1648
 6398 01e2 8DED017A 		vstr.32	s14, [sp, #4]	@ int
 6399 01e6 FFF7FEFF 		bl	_ZN5daisy6LoggerILNS_17LoggerDestinationE1EE9PrintLineEPKcz
 6400              	.LVL562:
 6401              		.loc 1 124 23 view .LVU1649
 6402              	.LBE1542:
 6403              	.LBE1545:
 6404              		.loc 7 76 5 is_stmt 1 view .LVU1650
 107:Logger.cpp    ****                  class_caption,
 6405              		.loc 6 107 17 is_stmt 0 view .LVU1651
 6406 01ea FDEEC97A 		vcvt.s32.f32	s15, s18
 6407              	.LVL563:
 6408              		.loc 7 76 5 is_stmt 1 view .LVU1652
 6409              		.loc 7 76 5 view .LVU1653
 6410              	.LBB1546:
 6411              	.LBI1546:
 122:../../libdaisy/src/daisy_seed.h ****     {
 6412              		.loc 1 122 17 view .LVU1654
 6413              	.LBB1547:
 6414              		.loc 1 124 23 is_stmt 0 view .LVU1655
 6415 01ee 2023     		movs	r3, #32
 6416 01f0 2A46     		mov	r2, r5
 6417 01f2 2146     		mov	r1, r4
 6418 01f4 5B48     		ldr	r0, .L269+84
 6419              	.LBE1547:
 6420              	.LBE1546:
 110:Logger.cpp    ****     hw.PrintLine("%s - %s (FLT_VAR1 value):" FLT_FMT3 " us/call",
 6421              		.loc 6 110 18 view .LVU1656
 6422 01f6 B8EEE77A 		vcvt.f32.s32	s14, s15
 6423              	.LVL564:
 6424              	.LBB1550:
 6425              	.LBB1548:
 6426              		.loc 1 124 23 view .LVU1657
 6427 01fa CDED007A 		vstr.32	s15, [sp]	@ int
 6428              	.LBE1548:
 6429              	.LBE1550:
 110:Logger.cpp    ****     hw.PrintLine("%s - %s (FLT_VAR1 value):" FLT_FMT3 " us/call",
 6430              		.loc 6 110 18 view .LVU1658
 6431 01fe 39EE477A 		vsub.f32	s14, s18, s14
 6432              	.LVL565:
ARM GAS  /tmp/ccIu4BI8.s 			page 144


 110:Logger.cpp    ****     hw.PrintLine("%s - %s (FLT_VAR1 value):" FLT_FMT3 " us/call",
 6433              		.loc 6 110 18 view .LVU1659
 6434 0202 B7EEC77A 		vcvt.f64.f32	d7, s14
 6435 0206 27EE087B 		vmul.f64	d7, d7, d8
 107:Logger.cpp    ****                  class_caption,
 6436              		.loc 6 107 17 view .LVU1660
 6437 020a BDEEC77B 		vcvt.s32.f64	s14, d7
 6438              	.LBB1551:
 6439              	.LBB1549:
 6440              		.loc 1 124 23 view .LVU1661
 6441 020e 8DED017A 		vstr.32	s14, [sp, #4]	@ int
 6442 0212 FFF7FEFF 		bl	_ZN5daisy6LoggerILNS_17LoggerDestinationE1EE9PrintLineEPKcz
 6443              	.LVL566:
 6444              		.loc 1 124 23 view .LVU1662
 6445              	.LBE1549:
 6446              	.LBE1551:
 6447              	.LBB1552:
 6448              	.LBI1552:
  75:/usr/include/newlib/c++/9.2.1/bits/std_abs.h ****   { return __builtin_fabsf(__x); }
 6449              		.loc 7 75 3 is_stmt 1 view .LVU1663
 6450              	.LBB1553:
 6451              		.loc 7 76 5 view .LVU1664
 6452              		.loc 7 76 31 is_stmt 0 view .LVU1665
 6453 0216 B0EEEB7A 		vabs.f32	s14, s23
 6454              	.LVL567:
 6455              		.loc 7 76 31 view .LVU1666
 6456              	.LBE1553:
 6457              	.LBE1552:
 111:Logger.cpp    ****                  class_caption,
 6458              		.loc 6 111 17 view .LVU1667
 6459 021a F5EEC0BA 		vcmpe.f32	s23, #0
 6460              	.LBB1554:
 6461              	.LBB1555:
 6462              		.loc 1 124 23 view .LVU1668
 6463 021e 2A46     		mov	r2, r5
 6464 0220 2146     		mov	r1, r4
 6465 0222 5148     		ldr	r0, .L269+88
 6466              	.LBE1555:
 6467              	.LBE1554:
 111:Logger.cpp    ****                  class_caption,
 6468              		.loc 6 111 17 view .LVU1669
 6469 0224 FDEEC77A 		vcvt.s32.f32	s15, s14
 6470              	.LVL568:
 6471              		.loc 7 76 5 is_stmt 1 view .LVU1670
 6472              		.loc 7 76 5 view .LVU1671
 6473              	.LBB1558:
 6474              	.LBI1554:
 122:../../libdaisy/src/daisy_seed.h ****     {
 6475              		.loc 1 122 17 view .LVU1672
 6476              	.LBE1558:
 111:Logger.cpp    ****                  class_caption,
 6477              		.loc 6 111 17 is_stmt 0 view .LVU1673
 6478 0228 F1EE10FA 		vmrs	APSR_nzcv, FPSCR
 114:Logger.cpp    ****     hw.PrintLine("%s - %s (FLT_VAR2 value):" FLT_FMT3 " us/call",
 6479              		.loc 6 114 18 view .LVU1674
 6480 022c F8EEE76A 		vcvt.f32.s32	s13, s15
 6481              	.LVL569:
ARM GAS  /tmp/ccIu4BI8.s 			page 145


 6482              	.LBB1559:
 6483              	.LBB1556:
 6484              		.loc 1 124 23 view .LVU1675
 6485 0230 CDED007A 		vstr.32	s15, [sp]	@ int
 6486 0234 4CBF     		ite	mi
 6487 0236 2D23     		movmi	r3, #45
 6488 0238 2023     		movpl	r3, #32
 6489              	.LBE1556:
 6490              	.LBE1559:
 114:Logger.cpp    ****     hw.PrintLine("%s - %s (FLT_VAR2 value):" FLT_FMT3 " us/call",
 6491              		.loc 6 114 18 view .LVU1676
 6492 023a 37EE667A 		vsub.f32	s14, s14, s13
 6493              	.LVL570:
 114:Logger.cpp    ****     hw.PrintLine("%s - %s (FLT_VAR2 value):" FLT_FMT3 " us/call",
 6494              		.loc 6 114 18 view .LVU1677
 6495 023e B7EEC77A 		vcvt.f64.f32	d7, s14
 6496 0242 27EE087B 		vmul.f64	d7, d7, d8
 111:Logger.cpp    ****                  class_caption,
 6497              		.loc 6 111 17 view .LVU1678
 6498 0246 BDEEC77B 		vcvt.s32.f64	s14, d7
 6499              	.LBB1560:
 6500              	.LBB1557:
 6501              		.loc 1 124 23 view .LVU1679
 6502 024a 8DED017A 		vstr.32	s14, [sp, #4]	@ int
 6503 024e FFF7FEFF 		bl	_ZN5daisy6LoggerILNS_17LoggerDestinationE1EE9PrintLineEPKcz
 6504              	.LVL571:
 6505              		.loc 1 124 23 view .LVU1680
 6506              	.LBE1557:
 6507              	.LBE1560:
 6508              	.LBB1561:
 6509              	.LBI1561:
  75:/usr/include/newlib/c++/9.2.1/bits/std_abs.h ****   { return __builtin_fabsf(__x); }
 6510              		.loc 7 75 3 is_stmt 1 view .LVU1681
 6511              	.LBB1562:
 6512              		.loc 7 76 5 view .LVU1682
 6513              		.loc 7 76 31 is_stmt 0 view .LVU1683
 6514 0252 B0EEEA7A 		vabs.f32	s14, s21
 6515              	.LVL572:
 6516              		.loc 7 76 31 view .LVU1684
 6517              	.LBE1562:
 6518              	.LBE1561:
 115:Logger.cpp    ****                  class_caption,
 6519              		.loc 6 115 17 view .LVU1685
 6520 0256 F5EEC0AA 		vcmpe.f32	s21, #0
 6521              	.LBB1563:
 6522              	.LBB1564:
 6523              		.loc 1 124 23 view .LVU1686
 6524 025a 2A46     		mov	r2, r5
 6525 025c 2146     		mov	r1, r4
 6526 025e 4348     		ldr	r0, .L269+92
 6527              	.LBE1564:
 6528              	.LBE1563:
 115:Logger.cpp    ****                  class_caption,
 6529              		.loc 6 115 17 view .LVU1687
 6530 0260 FDEEC77A 		vcvt.s32.f32	s15, s14
 6531              	.LVL573:
 6532              		.loc 7 76 5 is_stmt 1 view .LVU1688
ARM GAS  /tmp/ccIu4BI8.s 			page 146


 6533              		.loc 7 76 5 view .LVU1689
 6534              	.LBB1567:
 6535              	.LBI1563:
 122:../../libdaisy/src/daisy_seed.h ****     {
 6536              		.loc 1 122 17 view .LVU1690
 6537              	.LBE1567:
 115:Logger.cpp    ****                  class_caption,
 6538              		.loc 6 115 17 is_stmt 0 view .LVU1691
 6539 0264 F1EE10FA 		vmrs	APSR_nzcv, FPSCR
 118:Logger.cpp    ****     hw.PrintLine("%s - %s (FLT_VAR3 value):" FLT_FMT3 " us/call",
 6540              		.loc 6 118 18 view .LVU1692
 6541 0268 F8EEE76A 		vcvt.f32.s32	s13, s15
 6542              	.LVL574:
 6543              	.LBB1568:
 6544              	.LBB1565:
 6545              		.loc 1 124 23 view .LVU1693
 6546 026c CDED007A 		vstr.32	s15, [sp]	@ int
 6547 0270 4CBF     		ite	mi
 6548 0272 2D23     		movmi	r3, #45
 6549 0274 2023     		movpl	r3, #32
 6550              	.LBE1565:
 6551              	.LBE1568:
 118:Logger.cpp    ****     hw.PrintLine("%s - %s (FLT_VAR3 value):" FLT_FMT3 " us/call",
 6552              		.loc 6 118 18 view .LVU1694
 6553 0276 37EE667A 		vsub.f32	s14, s14, s13
 6554              	.LVL575:
 118:Logger.cpp    ****     hw.PrintLine("%s - %s (FLT_VAR3 value):" FLT_FMT3 " us/call",
 6555              		.loc 6 118 18 view .LVU1695
 6556 027a B7EEC77A 		vcvt.f64.f32	d7, s14
 6557 027e 27EE087B 		vmul.f64	d7, d7, d8
 115:Logger.cpp    ****                  class_caption,
 6558              		.loc 6 115 17 view .LVU1696
 6559 0282 BDEEC77B 		vcvt.s32.f64	s14, d7
 6560              	.LBB1569:
 6561              	.LBB1566:
 6562              		.loc 1 124 23 view .LVU1697
 6563 0286 8DED017A 		vstr.32	s14, [sp, #4]	@ int
 6564 028a FFF7FEFF 		bl	_ZN5daisy6LoggerILNS_17LoggerDestinationE1EE9PrintLineEPKcz
 6565              	.LVL576:
 6566              		.loc 1 124 23 view .LVU1698
 6567              	.LBE1566:
 6568              	.LBE1569:
 6569              	.LBB1570:
 6570              	.LBI1570:
  75:/usr/include/newlib/c++/9.2.1/bits/std_abs.h ****   { return __builtin_fabsf(__x); }
 6571              		.loc 7 75 3 is_stmt 1 view .LVU1699
 6572              	.LBB1571:
 6573              		.loc 7 76 5 view .LVU1700
 6574              		.loc 7 76 31 is_stmt 0 view .LVU1701
 6575 028e B0EECA7A 		vabs.f32	s14, s20
 6576              	.LVL577:
 6577              		.loc 7 76 31 view .LVU1702
 6578              	.LBE1571:
 6579              	.LBE1570:
 119:Logger.cpp    ****                  class_caption,
 6580              		.loc 6 119 17 view .LVU1703
 6581 0292 B5EEC0AA 		vcmpe.f32	s20, #0
ARM GAS  /tmp/ccIu4BI8.s 			page 147


 6582              	.LBB1572:
 6583              	.LBB1573:
 6584              		.loc 1 124 23 view .LVU1704
 6585 0296 2A46     		mov	r2, r5
 6586 0298 2146     		mov	r1, r4
 6587 029a 3548     		ldr	r0, .L269+96
 6588              	.LBE1573:
 6589              	.LBE1572:
 119:Logger.cpp    ****                  class_caption,
 6590              		.loc 6 119 17 view .LVU1705
 6591 029c FDEEC77A 		vcvt.s32.f32	s15, s14
 6592              	.LVL578:
 6593              		.loc 7 76 5 is_stmt 1 view .LVU1706
 6594              		.loc 7 76 5 view .LVU1707
 6595              	.LBB1576:
 6596              	.LBI1572:
 122:../../libdaisy/src/daisy_seed.h ****     {
 6597              		.loc 1 122 17 view .LVU1708
 6598              	.LBE1576:
 119:Logger.cpp    ****                  class_caption,
 6599              		.loc 6 119 17 is_stmt 0 view .LVU1709
 6600 02a0 F1EE10FA 		vmrs	APSR_nzcv, FPSCR
 122:Logger.cpp    ****     hw.PrintLine("%s - %s (FLT_VAR4 value):" FLT_FMT3 " us/call",
 6601              		.loc 6 122 18 view .LVU1710
 6602 02a4 F8EEE76A 		vcvt.f32.s32	s13, s15
 6603              	.LVL579:
 6604              	.LBB1577:
 6605              	.LBB1574:
 6606              		.loc 1 124 23 view .LVU1711
 6607 02a8 CDED007A 		vstr.32	s15, [sp]	@ int
 6608 02ac 4CBF     		ite	mi
 6609 02ae 2D23     		movmi	r3, #45
 6610 02b0 2023     		movpl	r3, #32
 6611              	.LBE1574:
 6612              	.LBE1577:
 122:Logger.cpp    ****     hw.PrintLine("%s - %s (FLT_VAR4 value):" FLT_FMT3 " us/call",
 6613              		.loc 6 122 18 view .LVU1712
 6614 02b2 37EE667A 		vsub.f32	s14, s14, s13
 6615              	.LVL580:
 122:Logger.cpp    ****     hw.PrintLine("%s - %s (FLT_VAR4 value):" FLT_FMT3 " us/call",
 6616              		.loc 6 122 18 view .LVU1713
 6617 02b6 B7EEC77A 		vcvt.f64.f32	d7, s14
 6618 02ba 27EE087B 		vmul.f64	d7, d7, d8
 119:Logger.cpp    ****                  class_caption,
 6619              		.loc 6 119 17 view .LVU1714
 6620 02be BDEEC77B 		vcvt.s32.f64	s14, d7
 6621              	.LBB1578:
 6622              	.LBB1575:
 6623              		.loc 1 124 23 view .LVU1715
 6624 02c2 8DED017A 		vstr.32	s14, [sp, #4]	@ int
 6625 02c6 FFF7FEFF 		bl	_ZN5daisy6LoggerILNS_17LoggerDestinationE1EE9PrintLineEPKcz
 6626              	.LVL581:
 6627              		.loc 1 124 23 view .LVU1716
 6628              	.LBE1575:
 6629              	.LBE1578:
 6630              	.LBB1579:
 6631              	.LBI1579:
ARM GAS  /tmp/ccIu4BI8.s 			page 148


  75:/usr/include/newlib/c++/9.2.1/bits/std_abs.h ****   { return __builtin_fabsf(__x); }
 6632              		.loc 7 75 3 is_stmt 1 view .LVU1717
 6633              	.LBB1580:
 6634              		.loc 7 76 5 view .LVU1718
 6635              		.loc 7 76 31 is_stmt 0 view .LVU1719
 6636 02ca B0EEE97A 		vabs.f32	s14, s19
 6637              	.LVL582:
 6638              		.loc 7 76 31 view .LVU1720
 6639              	.LBE1580:
 6640              	.LBE1579:
 123:Logger.cpp    ****                  class_caption,
 6641              		.loc 6 123 17 view .LVU1721
 6642 02ce F5EEC09A 		vcmpe.f32	s19, #0
 6643              	.LBB1581:
 6644              	.LBB1582:
 6645              		.loc 1 124 23 view .LVU1722
 6646 02d2 2A46     		mov	r2, r5
 6647 02d4 2146     		mov	r1, r4
 6648 02d6 2748     		ldr	r0, .L269+100
 6649              	.LBE1582:
 6650              	.LBE1581:
 123:Logger.cpp    ****                  class_caption,
 6651              		.loc 6 123 17 view .LVU1723
 6652 02d8 FDEEC77A 		vcvt.s32.f32	s15, s14
 6653              	.LVL583:
 6654              		.loc 7 76 5 is_stmt 1 view .LVU1724
 6655              		.loc 7 76 5 view .LVU1725
 6656              	.LBB1585:
 6657              	.LBI1581:
 122:../../libdaisy/src/daisy_seed.h ****     {
 6658              		.loc 1 122 17 view .LVU1726
 6659              	.LBE1585:
 123:Logger.cpp    ****                  class_caption,
 6660              		.loc 6 123 17 is_stmt 0 view .LVU1727
 6661 02dc F1EE10FA 		vmrs	APSR_nzcv, FPSCR
 126:Logger.cpp    **** }
 6662              		.loc 6 126 18 view .LVU1728
 6663 02e0 F8EEE76A 		vcvt.f32.s32	s13, s15
 6664              	.LVL584:
 6665              	.LBB1586:
 6666              	.LBB1583:
 6667              		.loc 1 124 23 view .LVU1729
 6668 02e4 CDED007A 		vstr.32	s15, [sp]	@ int
 6669 02e8 4CBF     		ite	mi
 6670 02ea 2D23     		movmi	r3, #45
 6671 02ec 2023     		movpl	r3, #32
 6672              	.LBE1583:
 6673              	.LBE1586:
 126:Logger.cpp    **** }
 6674              		.loc 6 126 18 view .LVU1730
 6675 02ee 37EE667A 		vsub.f32	s14, s14, s13
 6676              	.LVL585:
 126:Logger.cpp    **** }
 6677              		.loc 6 126 18 view .LVU1731
 6678 02f2 B7EEC77A 		vcvt.f64.f32	d7, s14
 6679 02f6 27EE087B 		vmul.f64	d7, d7, d8
 123:Logger.cpp    ****                  class_caption,
ARM GAS  /tmp/ccIu4BI8.s 			page 149


 6680              		.loc 6 123 17 view .LVU1732
 6681 02fa BDEEC77B 		vcvt.s32.f64	s14, d7
 6682              	.LBB1587:
 6683              	.LBB1584:
 6684              		.loc 1 124 23 view .LVU1733
 6685 02fe 8DED017A 		vstr.32	s14, [sp, #4]	@ int
 6686 0302 FFF7FEFF 		bl	_ZN5daisy6LoggerILNS_17LoggerDestinationE1EE9PrintLineEPKcz
 6687              	.LVL586:
 6688              		.loc 1 124 23 view .LVU1734
 6689              	.LBE1584:
 6690              	.LBE1587:
 127:Logger.cpp    **** 
 6691              		.loc 6 127 1 view .LVU1735
 6692 0306 07B0     		add	sp, sp, #28
 6693              		.cfi_def_cfa_offset 68
 6694              		@ sp needed
 6695 0308 BDEC0C8B 		vldm	sp!, {d8-d13}
 6696              		.cfi_restore 90
 6697              		.cfi_restore 91
 6698              		.cfi_restore 88
 6699              		.cfi_restore 89
 6700              		.cfi_restore 86
 6701              		.cfi_restore 87
 6702              		.cfi_restore 84
 6703              		.cfi_restore 85
 6704              		.cfi_restore 82
 6705              		.cfi_restore 83
 6706              		.cfi_restore 80
 6707              		.cfi_restore 81
 6708              		.cfi_def_cfa_offset 20
 6709              	.LVL587:
 127:Logger.cpp    **** 
 6710              		.loc 6 127 1 view .LVU1736
 6711 030c F0BD     		pop	{r4, r5, r6, r7, pc}
 6712              	.LVL588:
 6713              	.L270:
 127:Logger.cpp    **** 
 6714              		.loc 6 127 1 view .LVU1737
 6715 030e 00BF     		.align	3
 6716              	.L269:
 6717 0310 00000000 		.word	0
 6718 0314 00C05E40 		.word	1079951360
 6719 0318 00000000 		.word	0
 6720 031c 00408F40 		.word	1083129856
 6721 0320 00000000 		.word	.LC15
 6722 0324 A0860100 		.word	100000
 6723 0328 04000000 		.word	.LC16
 6724 032c 08000000 		.word	.LC17
 6725 0330 30000000 		.word	.LC18
 6726 0334 34000000 		.word	.LC19
 6727 0338 1C000000 		.word	.LC3
 6728 033c 8096984B 		.word	1268291200
 6729 0340 38000000 		.word	.LC20
 6730 0344 44000000 		.word	.LC21
 6731 0348 10000000 		.word	.LC2
 6732 034c 50000000 		.word	.LC22
 6733 0350 00000C42 		.word	1108082688
ARM GAS  /tmp/ccIu4BI8.s 			page 150


 6734 0354 00000000 		.word	.LC6
 6735 0358 2C000000 		.word	.LC7
 6736 035c 6C000000 		.word	.LC8
 6737 0360 98000000 		.word	.LC9
 6738 0364 C4000000 		.word	.LC10
 6739 0368 F0000000 		.word	.LC11
 6740 036c 1C010000 		.word	.LC12
 6741 0370 48010000 		.word	.LC13
 6742 0374 74010000 		.word	.LC14
 6743              		.cfi_endproc
 6744              	.LFE2085:
 6746              		.section	.rodata.main.str1.4,"aMS",%progbits,1
 6747              		.align	2
 6748              	.LC23:
 6749 0000 54686973 		.ascii	"This should too appear in the log\000"
 6749      2073686F 
 6749      756C6420 
 6749      746F6F20 
 6749      61707065 
 6750 0022 0000     		.align	2
 6751              	.LC24:
 6752 0024 56657269 		.ascii	"Verify CRT floating point format: %.3f\000"
 6752      66792043 
 6752      52542066 
 6752      6C6F6174 
 6752      696E6720 
 6753 004b 00       		.align	2
 6754              	.LC25:
 6755 004c 5072696E 		.ascii	"Print     \000"
 6755      74202020 
 6755      202000
 6756 0057 00       		.align	2
 6757              	.LC26:
 6758 0058 4C4F4747 		.ascii	"LOGGER_EXTERNAL\000"
 6758      45525F45 
 6758      58544552 
 6758      4E414C00 
 6759              		.align	2
 6760              	.LC27:
 6761 0068 5072696E 		.ascii	"PrintLine \000"
 6761      744C696E 
 6761      652000
 6762 0073 00       		.align	2
 6763              	.LC28:
 6764 0074 4C4F4747 		.ascii	"LOGGER_SEMIHOST\000"
 6764      45525F53 
 6764      454D4948 
 6764      4F535400 
 6765              		.align	2
 6766              	.LC29:
 6767 0084 4C4F4747 		.ascii	"LOGGER_NONE    \000"
 6767      45525F4E 
 6767      4F4E4520 
 6767      20202000 
 6768              		.align	2
 6769              	.LC30:
 6770 0094 54686973 		.ascii	"This may be used anywhere too\000"
ARM GAS  /tmp/ccIu4BI8.s 			page 151


 6770      206D6179 
 6770      20626520 
 6770      75736564 
 6770      20616E79 
 6771 00b2 0000     		.align	2
 6772              	.LC31:
 6773 00b4 54686973 		.ascii	"This would not be visible, but would not stop the p"
 6773      20776F75 
 6773      6C64206E 
 6773      6F742062 
 6773      65207669 
 6774 00e7 726F6772 		.ascii	"rogram\000"
 6774      616D00
 6775 00ee 0000     		.align	2
 6776              	.LC32:
 6777 00f0 56657269 		.ascii	"Verifying newline character handling:\000"
 6777      6679696E 
 6777      67206E65 
 6777      776C696E 
 6777      65206368 
 6778 0116 0000     		.align	2
 6779              	.LC33:
 6780 0118 312E2054 		.ascii	"1. This should be a single line\015\000"
 6780      68697320 
 6780      73686F75 
 6780      6C642062 
 6780      65206120 
 6781 0139 000000   		.align	2
 6782              	.LC34:
 6783 013c 322E2054 		.ascii	"2. This should be a single line\012\000"
 6783      68697320 
 6783      73686F75 
 6783      6C642062 
 6783      65206120 
 6784 015d 000000   		.align	2
 6785              	.LC35:
 6786 0160 332E2054 		.ascii	"3. This should be a single line\015\012\000"
 6786      68697320 
 6786      73686F75 
 6786      6C642062 
 6786      65206120 
 6787 0182 0000     		.align	2
 6788              	.LC36:
 6789 0184 342E2054 		.ascii	"4. This should be a single line\012\015\000"
 6789      68697320 
 6789      73686F75 
 6789      6C642062 
 6789      65206120 
 6790 01a6 0000     		.align	2
 6791              	.LC37:
 6792 01a8 352E2054 		.ascii	"5. This should be a single line\015\015\015\012\012"
 6792      68697320 
 6792      73686F75 
 6792      6C642062 
 6792      65206120 
 6793 01cc 0A0D0A0D 		.ascii	"\012\015\012\015\000"
 6793      00
ARM GAS  /tmp/ccIu4BI8.s 			page 152


 6794 01d1 000000   		.align	2
 6795              	.LC38:
 6796 01d4 5072696E 		.ascii	"Printing 5 test messages using the Print() service\000"
 6796      74696E67 
 6796      20352074 
 6796      65737420 
 6796      6D657373 
 6797 0207 00       		.align	2
 6798              	.LC39:
 6799 0208 56657269 		.ascii	"Verify overflow indicators ($$) below\000"
 6799      6679206F 
 6799      76657266 
 6799      6C6F7720 
 6799      696E6469 
 6800 022e 0000     		.align	2
 6801              	.LC40:
 6802 0230 312E2000 		.ascii	"1. \000"
 6803              		.align	2
 6804              	.LC41:
 6805 0234 322E2000 		.ascii	"2. \000"
 6806              		.align	2
 6807              	.LC42:
 6808 0238 332E2000 		.ascii	"3. \000"
 6809              		.align	2
 6810              	.LC43:
 6811 023c 342E2000 		.ascii	"4. \000"
 6812              		.align	2
 6813              	.LC44:
 6814 0240 352E2000 		.ascii	"5. \000"
 6815              		.align	2
 6816              	.LC45:
 6817 0244 5072696E 		.ascii	"Printing 5 test messages using the PrintLine() serv"
 6817      74696E67 
 6817      20352074 
 6817      65737420 
 6817      6D657373 
 6818 0277 69636500 		.ascii	"ice\000"
 6819 027b 00       		.align	2
 6820              	.LC46:
 6821 027c 53746172 		.ascii	"Starting timer printout. Verify fractional values\000"
 6821      74696E67 
 6821      2074696D 
 6821      65722070 
 6821      72696E74 
 6822 02ae 0000     		.align	2
 6823              	.LC47:
 6824 02b0 2536753A 		.ascii	"%6u: Elapsed time: %c%d.%03d seconds\000"
 6824      20456C61 
 6824      70736564 
 6824      2074696D 
 6824      653A2025 
 6825              		.section	.text.startup.main,"ax",%progbits
 6826              		.align	1
 6827              		.p2align 2,,3
 6828              		.global	main
 6829              		.syntax unified
 6830              		.thumb
ARM GAS  /tmp/ccIu4BI8.s 			page 153


 6831              		.thumb_func
 6832              		.fpu fpv5-d16
 6834              	main:
 6835              	.LFB2054:
 163:Logger.cpp    **** 
 164:Logger.cpp    **** int main(void)
 165:Logger.cpp    **** {
 6836              		.loc 6 165 1 is_stmt 1 view -0
 6837              		.cfi_startproc
 6838              		@ args = 0, pretend = 0, frame = 0
 6839              		@ frame_needed = 0, uses_anonymous_args = 0
 166:Logger.cpp    ****     /* prepare test messages for corner cases */
 167:Logger.cpp    ****     prepare_messages();
 6840              		.loc 6 167 5 view .LVU1739
 165:Logger.cpp    ****     /* prepare test messages for corner cases */
 6841              		.loc 6 165 1 is_stmt 0 view .LVU1740
 6842 0000 10B5     		push	{r4, lr}
 6843              		.cfi_def_cfa_offset 8
 6844              		.cfi_offset 4, -8
 6845              		.cfi_offset 14, -4
 6846 0002 82B0     		sub	sp, sp, #8
 6847              		.cfi_def_cfa_offset 16
 6848              		.loc 6 167 21 view .LVU1741
 6849 0004 FFF7FEFF 		bl	_Z16prepare_messagesv
 6850              	.LVL589:
 168:Logger.cpp    **** 
 169:Logger.cpp    ****     /* try printing out something before the hardware init */
 170:Logger.cpp    ****     hw.PrintLine("This should too appear in the log");
 6851              		.loc 6 170 5 is_stmt 1 view .LVU1742
 6852              	.LBB1687:
 6853              	.LBI1687:
 122:../../libdaisy/src/daisy_seed.h ****     {
 6854              		.loc 1 122 17 view .LVU1743
 6855              	.LBB1688:
 6856              		.loc 1 124 23 is_stmt 0 view .LVU1744
 6857 0008 7548     		ldr	r0, .L274+16
 6858 000a FFF7FEFF 		bl	_ZN5daisy6LoggerILNS_17LoggerDestinationE1EE9PrintLineEPKcz
 6859              	.LVL590:
 6860              		.loc 1 124 23 view .LVU1745
 6861              	.LBE1688:
 6862              	.LBE1687:
 171:Logger.cpp    **** 
 172:Logger.cpp    ****     hw.Configure();
 6863              		.loc 6 172 5 is_stmt 1 view .LVU1746
 6864              		.loc 6 172 17 is_stmt 0 view .LVU1747
 6865 000e 7548     		ldr	r0, .L274+20
 6866 0010 FFF7FEFF 		bl	_ZN5daisy9DaisySeed9ConfigureEv
 6867              	.LVL591:
 173:Logger.cpp    ****     hw.Init();
 6868              		.loc 6 173 5 is_stmt 1 view .LVU1748
 6869              		.loc 6 173 12 is_stmt 0 view .LVU1749
 6870 0014 0021     		movs	r1, #0
 6871 0016 7348     		ldr	r0, .L274+20
 174:Logger.cpp    ****     hw.StartLog(
 175:Logger.cpp    ****         true); /* true == wait for PC: will block until a terminal is connected */
 176:Logger.cpp    **** 
 177:Logger.cpp    ****     /** check that floating point printf is supported 
ARM GAS  /tmp/ccIu4BI8.s 			page 154


 178:Logger.cpp    ****      * linker flags modified in the Makefile to enable this
 179:Logger.cpp    ****      */
 180:Logger.cpp    ****     hw.PrintLine("Verify CRT floating point format: %.3f", 123.0f);
 181:Logger.cpp    **** 
 182:Logger.cpp    ****     VerifyFloats();
 183:Logger.cpp    **** 
 184:Logger.cpp    ****     /** Profile different destinations 
 185:Logger.cpp    ****      * Don't use LOGGER_INTERNAL, since it will flood the connected terminal
 186:Logger.cpp    ****      */
 187:Logger.cpp    ****     ProfileDest<LOGGER_EXTERNAL>("LOGGER_EXTERNAL");
 188:Logger.cpp    ****     ProfileDest<LOGGER_SEMIHOST>("LOGGER_SEMIHOST");
 189:Logger.cpp    ****     ProfileDest<LOGGER_NONE>("LOGGER_NONE    ");
 190:Logger.cpp    **** 
 191:Logger.cpp    ****     /* use static method directly */
 192:Logger.cpp    ****     Logger<LOGGER_INTERNAL>::PrintLine("This may be used anywhere too");
 193:Logger.cpp    **** 
 194:Logger.cpp    ****     /** use a different output destination.
 195:Logger.cpp    ****      * Note that this would require the linker to include the whole object with own buffers!
 196:Logger.cpp    ****      */
 197:Logger.cpp    ****     Logger<LOGGER_EXTERNAL>::Print(
 198:Logger.cpp    ****         "This would not be visible, but would not stop the program");
 199:Logger.cpp    **** 
 200:Logger.cpp    ****     hw.PrintLine("Verifying newline character handling:");
 201:Logger.cpp    ****     hw.PrintLine("1. This should be a single line\r");
 202:Logger.cpp    ****     hw.PrintLine("2. This should be a single line\n");
 203:Logger.cpp    ****     hw.PrintLine("3. This should be a single line\r\n");
 204:Logger.cpp    ****     hw.PrintLine("4. This should be a single line\n\r");
 205:Logger.cpp    ****     hw.PrintLine("5. This should be a single line\r\r\r\n\n\n\r\n\r");
 206:Logger.cpp    ****     hw.PrintLine(""); /* this should be an empty line */
 207:Logger.cpp    **** 
 208:Logger.cpp    ****     hw.PrintLine("Printing 5 test messages using the Print() service");
 209:Logger.cpp    ****     hw.PrintLine("Verify overflow indicators ($$) below");
 210:Logger.cpp    ****     hw.Print("1. ");
 211:Logger.cpp    ****     hw.Print(test_msg1);
 212:Logger.cpp    ****     hw.PrintLine("");
 213:Logger.cpp    ****     hw.Print("2. ");
 214:Logger.cpp    ****     hw.Print(test_msg2);
 215:Logger.cpp    ****     hw.PrintLine("");
 216:Logger.cpp    ****     hw.Print("3. ");
 217:Logger.cpp    ****     hw.Print(test_msg3);
 218:Logger.cpp    ****     hw.PrintLine("");
 219:Logger.cpp    ****     hw.Print("4. ");
 220:Logger.cpp    ****     hw.Print(test_msg4);
 221:Logger.cpp    ****     hw.PrintLine("");
 222:Logger.cpp    ****     hw.Print("5. ");
 223:Logger.cpp    ****     hw.Print(test_msg5);
 224:Logger.cpp    ****     hw.PrintLine("");
 225:Logger.cpp    **** 
 226:Logger.cpp    ****     hw.PrintLine("Printing 5 test messages using the PrintLine() service");
 227:Logger.cpp    ****     hw.PrintLine("Verify overflow indicators ($$) below");
 228:Logger.cpp    ****     hw.Print("1. ");
 229:Logger.cpp    ****     hw.PrintLine(test_msg1);
 230:Logger.cpp    ****     hw.PrintLine("");
 231:Logger.cpp    ****     hw.Print("2. ");
 232:Logger.cpp    ****     hw.PrintLine(test_msg2);
 233:Logger.cpp    ****     hw.PrintLine("");
 234:Logger.cpp    ****     hw.Print("3. ");
ARM GAS  /tmp/ccIu4BI8.s 			page 155


 235:Logger.cpp    ****     hw.PrintLine(test_msg3);
 236:Logger.cpp    ****     hw.PrintLine("");
 237:Logger.cpp    ****     hw.Print("4. ");
 238:Logger.cpp    ****     hw.PrintLine(test_msg4);
 239:Logger.cpp    ****     hw.PrintLine("");
 240:Logger.cpp    ****     hw.Print("5. ");
 241:Logger.cpp    ****     hw.PrintLine(test_msg5);
 242:Logger.cpp    ****     hw.PrintLine("");
 243:Logger.cpp    **** 
 244:Logger.cpp    ****     hw.PrintLine("Starting timer printout. Verify fractional values");
 245:Logger.cpp    **** 
 246:Logger.cpp    ****     uint32_t counter = 0;
 6872              		.loc 6 246 14 view .LVU1750
 6873 0018 0C46     		mov	r4, r1
 173:Logger.cpp    ****     hw.Init();
 6874              		.loc 6 173 12 view .LVU1751
 6875 001a FFF7FEFF 		bl	_ZN5daisy9DaisySeed4InitEb
 6876              	.LVL592:
 174:Logger.cpp    ****     hw.StartLog(
 6877              		.loc 6 174 5 is_stmt 1 view .LVU1752
 6878              	.LBB1689:
 6879              	.LBI1689:
 125:../../libdaisy/src/daisy_seed.h ****     }
 126:../../libdaisy/src/daisy_seed.h **** 
 127:../../libdaisy/src/daisy_seed.h ****     /** Start the logging session. Optionally wait for terminal connection before proceeding.
 128:../../libdaisy/src/daisy_seed.h ****     */
 129:../../libdaisy/src/daisy_seed.h ****     static void StartLog(bool wait_for_pc = false)
 6880              		.loc 1 129 17 view .LVU1753
 6881              	.LBB1690:
 130:../../libdaisy/src/daisy_seed.h ****     {
 131:../../libdaisy/src/daisy_seed.h ****         Log::StartLog(wait_for_pc);
 6882              		.loc 1 131 9 view .LVU1754
 6883              		.loc 1 131 22 is_stmt 0 view .LVU1755
 6884 001e 0120     		movs	r0, #1
 6885 0020 FFF7FEFF 		bl	_ZN5daisy6LoggerILNS_17LoggerDestinationE1EE8StartLogEb
 6886              	.LVL593:
 6887              		.loc 1 131 22 view .LVU1756
 6888              	.LBE1690:
 6889              	.LBE1689:
 180:Logger.cpp    **** 
 6890              		.loc 6 180 5 is_stmt 1 view .LVU1757
 6891              	.LBB1691:
 6892              	.LBI1691:
 122:../../libdaisy/src/daisy_seed.h ****     {
 6893              		.loc 1 122 17 view .LVU1758
 6894              	.LBB1692:
 124:../../libdaisy/src/daisy_seed.h ****     }
 6895              		.loc 1 124 23 is_stmt 0 view .LVU1759
 6896 0024 7048     		ldr	r0, .L274+24
 6897 0026 6AA3     		adr	r3, .L274
 6898 0028 D3E90023 		ldrd	r2, [r3]
 6899 002c FFF7FEFF 		bl	_ZN5daisy6LoggerILNS_17LoggerDestinationE1EE9PrintLineEPKcz
 6900              	.LVL594:
 124:../../libdaisy/src/daisy_seed.h ****     }
 6901              		.loc 1 124 23 view .LVU1760
 6902              	.LBE1692:
 6903              	.LBE1691:
ARM GAS  /tmp/ccIu4BI8.s 			page 156


 182:Logger.cpp    **** 
 6904              		.loc 6 182 5 is_stmt 1 view .LVU1761
 182:Logger.cpp    **** 
 6905              		.loc 6 182 17 is_stmt 0 view .LVU1762
 6906 0030 FFF7FEFF 		bl	_Z12VerifyFloatsv
 6907              	.LVL595:
 187:Logger.cpp    ****     ProfileDest<LOGGER_SEMIHOST>("LOGGER_SEMIHOST");
 6908              		.loc 6 187 5 is_stmt 1 view .LVU1763
 6909              	.LBB1693:
 6910              	.LBI1693:
 132:Logger.cpp    **** {
 6911              		.loc 6 132 6 view .LVU1764
 6912              	.LBB1694:
 134:Logger.cpp    ****     ProfilePrint<Logger<dest>::Print>(class_caption, "Print     ");
 6913              		.loc 6 134 27 is_stmt 0 view .LVU1765
 6914 0034 2046     		mov	r0, r4
 6915 0036 FFF7FEFF 		bl	_ZN5daisy6LoggerILNS_17LoggerDestinationE2EE8StartLogEb
 6916              	.LVL596:
 135:Logger.cpp    ****     ProfilePrint<Logger<dest>::PrintLine>(class_caption, "PrintLine ");
 6917              		.loc 6 135 38 view .LVU1766
 6918 003a 6C49     		ldr	r1, .L274+28
 6919 003c 6C48     		ldr	r0, .L274+32
 6920 003e FFF7FEFF 		bl	_Z12ProfilePrintIXadL_ZN5daisy6LoggerILNS0_17LoggerDestinationE2EE5PrintEPKczEEEvS5_S5_
 6921              	.LVL597:
 136:Logger.cpp    **** }
 6922              		.loc 6 136 42 view .LVU1767
 6923 0042 6C49     		ldr	r1, .L274+36
 6924 0044 6A48     		ldr	r0, .L274+32
 6925 0046 FFF7FEFF 		bl	_Z12ProfilePrintIXadL_ZN5daisy6LoggerILNS0_17LoggerDestinationE2EE9PrintLineEPKczEEEvS5_S5_
 6926              	.LVL598:
 136:Logger.cpp    **** }
 6927              		.loc 6 136 42 view .LVU1768
 6928              	.LBE1694:
 6929              	.LBE1693:
 188:Logger.cpp    ****     ProfileDest<LOGGER_NONE>("LOGGER_NONE    ");
 6930              		.loc 6 188 5 is_stmt 1 view .LVU1769
 6931              	.LBB1695:
 6932              	.LBI1695:
 132:Logger.cpp    **** {
 6933              		.loc 6 132 6 view .LVU1770
 6934              	.LBB1696:
 134:Logger.cpp    ****     ProfilePrint<Logger<dest>::Print>(class_caption, "Print     ");
 6935              		.loc 6 134 27 is_stmt 0 view .LVU1771
 6936 004a 2046     		mov	r0, r4
 6937 004c FFF7FEFF 		bl	_ZN5daisy6LoggerILNS_17LoggerDestinationE3EE8StartLogEb
 6938              	.LVL599:
 135:Logger.cpp    ****     ProfilePrint<Logger<dest>::PrintLine>(class_caption, "PrintLine ");
 6939              		.loc 6 135 38 view .LVU1772
 6940 0050 6649     		ldr	r1, .L274+28
 6941 0052 6948     		ldr	r0, .L274+40
 6942 0054 FFF7FEFF 		bl	_Z12ProfilePrintIXadL_ZN5daisy6LoggerILNS0_17LoggerDestinationE3EE5PrintEPKczEEEvS5_S5_
 6943              	.LVL600:
 136:Logger.cpp    **** }
 6944              		.loc 6 136 42 view .LVU1773
 6945 0058 6649     		ldr	r1, .L274+36
 6946 005a 6748     		ldr	r0, .L274+40
 6947 005c FFF7FEFF 		bl	_Z12ProfilePrintIXadL_ZN5daisy6LoggerILNS0_17LoggerDestinationE3EE9PrintLineEPKczEEEvS5_S5_
ARM GAS  /tmp/ccIu4BI8.s 			page 157


 6948              	.LVL601:
 136:Logger.cpp    **** }
 6949              		.loc 6 136 42 view .LVU1774
 6950              	.LBE1696:
 6951              	.LBE1695:
 189:Logger.cpp    **** 
 6952              		.loc 6 189 5 is_stmt 1 view .LVU1775
 6953              	.LBB1697:
 6954              	.LBI1697:
 132:Logger.cpp    **** {
 6955              		.loc 6 132 6 view .LVU1776
 6956              	.LBB1698:
 135:Logger.cpp    ****     ProfilePrint<Logger<dest>::PrintLine>(class_caption, "PrintLine ");
 6957              		.loc 6 135 38 is_stmt 0 view .LVU1777
 6958 0060 6249     		ldr	r1, .L274+28
 6959 0062 6648     		ldr	r0, .L274+44
 6960 0064 FFF7FEFF 		bl	_Z12ProfilePrintIXadL_ZN5daisy6LoggerILNS0_17LoggerDestinationE0EE5PrintEPKczEEEvS5_S5_
 6961              	.LVL602:
 136:Logger.cpp    **** }
 6962              		.loc 6 136 42 view .LVU1778
 6963 0068 6249     		ldr	r1, .L274+36
 6964 006a 6448     		ldr	r0, .L274+44
 6965 006c FFF7FEFF 		bl	_Z12ProfilePrintIXadL_ZN5daisy6LoggerILNS0_17LoggerDestinationE0EE9PrintLineEPKczEEEvS5_S5_
 6966              	.LVL603:
 136:Logger.cpp    **** }
 6967              		.loc 6 136 42 view .LVU1779
 6968              	.LBE1698:
 6969              	.LBE1697:
 192:Logger.cpp    **** 
 6970              		.loc 6 192 5 is_stmt 1 view .LVU1780
 192:Logger.cpp    **** 
 6971              		.loc 6 192 39 is_stmt 0 view .LVU1781
 6972 0070 6348     		ldr	r0, .L274+48
 6973 0072 FFF7FEFF 		bl	_ZN5daisy6LoggerILNS_17LoggerDestinationE1EE9PrintLineEPKcz
 6974              	.LVL604:
 197:Logger.cpp    ****         "This would not be visible, but would not stop the program");
 6975              		.loc 6 197 5 is_stmt 1 view .LVU1782
 197:Logger.cpp    ****         "This would not be visible, but would not stop the program");
 6976              		.loc 6 197 35 is_stmt 0 view .LVU1783
 6977 0076 6348     		ldr	r0, .L274+52
 6978 0078 FFF7FEFF 		bl	_ZN5daisy6LoggerILNS_17LoggerDestinationE2EE5PrintEPKcz
 6979              	.LVL605:
 200:Logger.cpp    ****     hw.PrintLine("1. This should be a single line\r");
 6980              		.loc 6 200 5 is_stmt 1 view .LVU1784
 6981              	.LBB1699:
 6982              	.LBI1699:
 122:../../libdaisy/src/daisy_seed.h ****     {
 6983              		.loc 1 122 17 view .LVU1785
 6984              	.LBB1700:
 124:../../libdaisy/src/daisy_seed.h ****     }
 6985              		.loc 1 124 23 is_stmt 0 view .LVU1786
 6986 007c 6248     		ldr	r0, .L274+56
 6987 007e FFF7FEFF 		bl	_ZN5daisy6LoggerILNS_17LoggerDestinationE1EE9PrintLineEPKcz
 6988              	.LVL606:
 124:../../libdaisy/src/daisy_seed.h ****     }
 6989              		.loc 1 124 23 view .LVU1787
 6990              	.LBE1700:
ARM GAS  /tmp/ccIu4BI8.s 			page 158


 6991              	.LBE1699:
 201:Logger.cpp    ****     hw.PrintLine("2. This should be a single line\n");
 6992              		.loc 6 201 5 is_stmt 1 view .LVU1788
 6993              	.LBB1701:
 6994              	.LBI1701:
 122:../../libdaisy/src/daisy_seed.h ****     {
 6995              		.loc 1 122 17 view .LVU1789
 6996              	.LBB1702:
 124:../../libdaisy/src/daisy_seed.h ****     }
 6997              		.loc 1 124 23 is_stmt 0 view .LVU1790
 6998 0082 6248     		ldr	r0, .L274+60
 6999 0084 FFF7FEFF 		bl	_ZN5daisy6LoggerILNS_17LoggerDestinationE1EE9PrintLineEPKcz
 7000              	.LVL607:
 124:../../libdaisy/src/daisy_seed.h ****     }
 7001              		.loc 1 124 23 view .LVU1791
 7002              	.LBE1702:
 7003              	.LBE1701:
 202:Logger.cpp    ****     hw.PrintLine("3. This should be a single line\r\n");
 7004              		.loc 6 202 5 is_stmt 1 view .LVU1792
 7005              	.LBB1703:
 7006              	.LBI1703:
 122:../../libdaisy/src/daisy_seed.h ****     {
 7007              		.loc 1 122 17 view .LVU1793
 7008              	.LBB1704:
 124:../../libdaisy/src/daisy_seed.h ****     }
 7009              		.loc 1 124 23 is_stmt 0 view .LVU1794
 7010 0088 6148     		ldr	r0, .L274+64
 7011 008a FFF7FEFF 		bl	_ZN5daisy6LoggerILNS_17LoggerDestinationE1EE9PrintLineEPKcz
 7012              	.LVL608:
 124:../../libdaisy/src/daisy_seed.h ****     }
 7013              		.loc 1 124 23 view .LVU1795
 7014              	.LBE1704:
 7015              	.LBE1703:
 203:Logger.cpp    ****     hw.PrintLine("4. This should be a single line\n\r");
 7016              		.loc 6 203 5 is_stmt 1 view .LVU1796
 7017              	.LBB1705:
 7018              	.LBI1705:
 122:../../libdaisy/src/daisy_seed.h ****     {
 7019              		.loc 1 122 17 view .LVU1797
 7020              	.LBB1706:
 124:../../libdaisy/src/daisy_seed.h ****     }
 7021              		.loc 1 124 23 is_stmt 0 view .LVU1798
 7022 008e 6148     		ldr	r0, .L274+68
 7023 0090 FFF7FEFF 		bl	_ZN5daisy6LoggerILNS_17LoggerDestinationE1EE9PrintLineEPKcz
 7024              	.LVL609:
 124:../../libdaisy/src/daisy_seed.h ****     }
 7025              		.loc 1 124 23 view .LVU1799
 7026              	.LBE1706:
 7027              	.LBE1705:
 204:Logger.cpp    ****     hw.PrintLine("5. This should be a single line\r\r\r\n\n\n\r\n\r");
 7028              		.loc 6 204 5 is_stmt 1 view .LVU1800
 7029              	.LBB1707:
 7030              	.LBI1707:
 122:../../libdaisy/src/daisy_seed.h ****     {
 7031              		.loc 1 122 17 view .LVU1801
 7032              	.LBB1708:
 124:../../libdaisy/src/daisy_seed.h ****     }
ARM GAS  /tmp/ccIu4BI8.s 			page 159


 7033              		.loc 1 124 23 is_stmt 0 view .LVU1802
 7034 0094 6048     		ldr	r0, .L274+72
 7035 0096 FFF7FEFF 		bl	_ZN5daisy6LoggerILNS_17LoggerDestinationE1EE9PrintLineEPKcz
 7036              	.LVL610:
 124:../../libdaisy/src/daisy_seed.h ****     }
 7037              		.loc 1 124 23 view .LVU1803
 7038              	.LBE1708:
 7039              	.LBE1707:
 205:Logger.cpp    ****     hw.PrintLine(""); /* this should be an empty line */
 7040              		.loc 6 205 5 is_stmt 1 view .LVU1804
 7041              	.LBB1709:
 7042              	.LBI1709:
 122:../../libdaisy/src/daisy_seed.h ****     {
 7043              		.loc 1 122 17 view .LVU1805
 7044              	.LBB1710:
 124:../../libdaisy/src/daisy_seed.h ****     }
 7045              		.loc 1 124 23 is_stmt 0 view .LVU1806
 7046 009a 6048     		ldr	r0, .L274+76
 7047 009c FFF7FEFF 		bl	_ZN5daisy6LoggerILNS_17LoggerDestinationE1EE9PrintLineEPKcz
 7048              	.LVL611:
 124:../../libdaisy/src/daisy_seed.h ****     }
 7049              		.loc 1 124 23 view .LVU1807
 7050              	.LBE1710:
 7051              	.LBE1709:
 206:Logger.cpp    **** 
 7052              		.loc 6 206 5 is_stmt 1 view .LVU1808
 7053              	.LBB1711:
 7054              	.LBI1711:
 122:../../libdaisy/src/daisy_seed.h ****     {
 7055              		.loc 1 122 17 view .LVU1809
 7056              	.LBB1712:
 124:../../libdaisy/src/daisy_seed.h ****     }
 7057              		.loc 1 124 23 is_stmt 0 view .LVU1810
 7058 00a0 5F48     		ldr	r0, .L274+80
 7059 00a2 FFF7FEFF 		bl	_ZN5daisy6LoggerILNS_17LoggerDestinationE1EE9PrintLineEPKcz
 7060              	.LVL612:
 124:../../libdaisy/src/daisy_seed.h ****     }
 7061              		.loc 1 124 23 view .LVU1811
 7062              	.LBE1712:
 7063              	.LBE1711:
 208:Logger.cpp    ****     hw.PrintLine("Verify overflow indicators ($$) below");
 7064              		.loc 6 208 5 is_stmt 1 view .LVU1812
 7065              	.LBB1713:
 7066              	.LBI1713:
 122:../../libdaisy/src/daisy_seed.h ****     {
 7067              		.loc 1 122 17 view .LVU1813
 7068              	.LBB1714:
 124:../../libdaisy/src/daisy_seed.h ****     }
 7069              		.loc 1 124 23 is_stmt 0 view .LVU1814
 7070 00a6 5F48     		ldr	r0, .L274+84
 7071 00a8 FFF7FEFF 		bl	_ZN5daisy6LoggerILNS_17LoggerDestinationE1EE9PrintLineEPKcz
 7072              	.LVL613:
 124:../../libdaisy/src/daisy_seed.h ****     }
 7073              		.loc 1 124 23 view .LVU1815
 7074              	.LBE1714:
 7075              	.LBE1713:
 209:Logger.cpp    ****     hw.Print("1. ");
ARM GAS  /tmp/ccIu4BI8.s 			page 160


 7076              		.loc 6 209 5 is_stmt 1 view .LVU1816
 7077              	.LBB1715:
 7078              	.LBI1715:
 122:../../libdaisy/src/daisy_seed.h ****     {
 7079              		.loc 1 122 17 view .LVU1817
 7080              	.LBB1716:
 124:../../libdaisy/src/daisy_seed.h ****     }
 7081              		.loc 1 124 23 is_stmt 0 view .LVU1818
 7082 00ac 5E48     		ldr	r0, .L274+88
 7083 00ae FFF7FEFF 		bl	_ZN5daisy6LoggerILNS_17LoggerDestinationE1EE9PrintLineEPKcz
 7084              	.LVL614:
 124:../../libdaisy/src/daisy_seed.h ****     }
 7085              		.loc 1 124 23 view .LVU1819
 7086              	.LBE1716:
 7087              	.LBE1715:
 210:Logger.cpp    ****     hw.Print(test_msg1);
 7088              		.loc 6 210 5 is_stmt 1 view .LVU1820
 7089              	.LBB1717:
 7090              	.LBI1717:
 114:../../libdaisy/src/daisy_seed.h ****     {
 7091              		.loc 1 114 17 view .LVU1821
 7092              	.LBB1718:
 116:../../libdaisy/src/daisy_seed.h ****     }
 7093              		.loc 1 116 19 is_stmt 0 view .LVU1822
 7094 00b2 5E48     		ldr	r0, .L274+92
 7095 00b4 FFF7FEFF 		bl	_ZN5daisy6LoggerILNS_17LoggerDestinationE1EE5PrintEPKcz
 7096              	.LVL615:
 116:../../libdaisy/src/daisy_seed.h ****     }
 7097              		.loc 1 116 19 view .LVU1823
 7098              	.LBE1718:
 7099              	.LBE1717:
 211:Logger.cpp    ****     hw.PrintLine("");
 7100              		.loc 6 211 5 is_stmt 1 view .LVU1824
 7101              	.LBB1719:
 7102              	.LBI1719:
 114:../../libdaisy/src/daisy_seed.h ****     {
 7103              		.loc 1 114 17 view .LVU1825
 7104              	.LBB1720:
 116:../../libdaisy/src/daisy_seed.h ****     }
 7105              		.loc 1 116 19 is_stmt 0 view .LVU1826
 7106 00b8 5D48     		ldr	r0, .L274+96
 7107 00ba FFF7FEFF 		bl	_ZN5daisy6LoggerILNS_17LoggerDestinationE1EE5PrintEPKcz
 7108              	.LVL616:
 116:../../libdaisy/src/daisy_seed.h ****     }
 7109              		.loc 1 116 19 view .LVU1827
 7110              	.LBE1720:
 7111              	.LBE1719:
 212:Logger.cpp    ****     hw.Print("2. ");
 7112              		.loc 6 212 5 is_stmt 1 view .LVU1828
 7113              	.LBB1721:
 7114              	.LBI1721:
 122:../../libdaisy/src/daisy_seed.h ****     {
 7115              		.loc 1 122 17 view .LVU1829
 7116              	.LBB1722:
 124:../../libdaisy/src/daisy_seed.h ****     }
 7117              		.loc 1 124 23 is_stmt 0 view .LVU1830
 7118 00be 5848     		ldr	r0, .L274+80
ARM GAS  /tmp/ccIu4BI8.s 			page 161


 7119 00c0 FFF7FEFF 		bl	_ZN5daisy6LoggerILNS_17LoggerDestinationE1EE9PrintLineEPKcz
 7120              	.LVL617:
 124:../../libdaisy/src/daisy_seed.h ****     }
 7121              		.loc 1 124 23 view .LVU1831
 7122              	.LBE1722:
 7123              	.LBE1721:
 213:Logger.cpp    ****     hw.Print(test_msg2);
 7124              		.loc 6 213 5 is_stmt 1 view .LVU1832
 7125              	.LBB1723:
 7126              	.LBI1723:
 114:../../libdaisy/src/daisy_seed.h ****     {
 7127              		.loc 1 114 17 view .LVU1833
 7128              	.LBB1724:
 116:../../libdaisy/src/daisy_seed.h ****     }
 7129              		.loc 1 116 19 is_stmt 0 view .LVU1834
 7130 00c4 5B48     		ldr	r0, .L274+100
 7131 00c6 FFF7FEFF 		bl	_ZN5daisy6LoggerILNS_17LoggerDestinationE1EE5PrintEPKcz
 7132              	.LVL618:
 116:../../libdaisy/src/daisy_seed.h ****     }
 7133              		.loc 1 116 19 view .LVU1835
 7134              	.LBE1724:
 7135              	.LBE1723:
 214:Logger.cpp    ****     hw.PrintLine("");
 7136              		.loc 6 214 5 is_stmt 1 view .LVU1836
 7137              	.LBB1725:
 7138              	.LBI1725:
 114:../../libdaisy/src/daisy_seed.h ****     {
 7139              		.loc 1 114 17 view .LVU1837
 7140              	.LBB1726:
 116:../../libdaisy/src/daisy_seed.h ****     }
 7141              		.loc 1 116 19 is_stmt 0 view .LVU1838
 7142 00ca 5B48     		ldr	r0, .L274+104
 7143 00cc FFF7FEFF 		bl	_ZN5daisy6LoggerILNS_17LoggerDestinationE1EE5PrintEPKcz
 7144              	.LVL619:
 116:../../libdaisy/src/daisy_seed.h ****     }
 7145              		.loc 1 116 19 view .LVU1839
 7146              	.LBE1726:
 7147              	.LBE1725:
 215:Logger.cpp    ****     hw.Print("3. ");
 7148              		.loc 6 215 5 is_stmt 1 view .LVU1840
 7149              	.LBB1727:
 7150              	.LBI1727:
 122:../../libdaisy/src/daisy_seed.h ****     {
 7151              		.loc 1 122 17 view .LVU1841
 7152              	.LBB1728:
 124:../../libdaisy/src/daisy_seed.h ****     }
 7153              		.loc 1 124 23 is_stmt 0 view .LVU1842
 7154 00d0 5348     		ldr	r0, .L274+80
 7155 00d2 FFF7FEFF 		bl	_ZN5daisy6LoggerILNS_17LoggerDestinationE1EE9PrintLineEPKcz
 7156              	.LVL620:
 124:../../libdaisy/src/daisy_seed.h ****     }
 7157              		.loc 1 124 23 view .LVU1843
 7158              	.LBE1728:
 7159              	.LBE1727:
 216:Logger.cpp    ****     hw.Print(test_msg3);
 7160              		.loc 6 216 5 is_stmt 1 view .LVU1844
 7161              	.LBB1729:
ARM GAS  /tmp/ccIu4BI8.s 			page 162


 7162              	.LBI1729:
 114:../../libdaisy/src/daisy_seed.h ****     {
 7163              		.loc 1 114 17 view .LVU1845
 7164              	.LBB1730:
 116:../../libdaisy/src/daisy_seed.h ****     }
 7165              		.loc 1 116 19 is_stmt 0 view .LVU1846
 7166 00d6 5948     		ldr	r0, .L274+108
 7167 00d8 FFF7FEFF 		bl	_ZN5daisy6LoggerILNS_17LoggerDestinationE1EE5PrintEPKcz
 7168              	.LVL621:
 116:../../libdaisy/src/daisy_seed.h ****     }
 7169              		.loc 1 116 19 view .LVU1847
 7170              	.LBE1730:
 7171              	.LBE1729:
 217:Logger.cpp    ****     hw.PrintLine("");
 7172              		.loc 6 217 5 is_stmt 1 view .LVU1848
 7173              	.LBB1731:
 7174              	.LBI1731:
 114:../../libdaisy/src/daisy_seed.h ****     {
 7175              		.loc 1 114 17 view .LVU1849
 7176              	.LBB1732:
 116:../../libdaisy/src/daisy_seed.h ****     }
 7177              		.loc 1 116 19 is_stmt 0 view .LVU1850
 7178 00dc 5848     		ldr	r0, .L274+112
 7179 00de FFF7FEFF 		bl	_ZN5daisy6LoggerILNS_17LoggerDestinationE1EE5PrintEPKcz
 7180              	.LVL622:
 116:../../libdaisy/src/daisy_seed.h ****     }
 7181              		.loc 1 116 19 view .LVU1851
 7182              	.LBE1732:
 7183              	.LBE1731:
 218:Logger.cpp    ****     hw.Print("4. ");
 7184              		.loc 6 218 5 is_stmt 1 view .LVU1852
 7185              	.LBB1733:
 7186              	.LBI1733:
 122:../../libdaisy/src/daisy_seed.h ****     {
 7187              		.loc 1 122 17 view .LVU1853
 7188              	.LBB1734:
 124:../../libdaisy/src/daisy_seed.h ****     }
 7189              		.loc 1 124 23 is_stmt 0 view .LVU1854
 7190 00e2 4F48     		ldr	r0, .L274+80
 7191 00e4 FFF7FEFF 		bl	_ZN5daisy6LoggerILNS_17LoggerDestinationE1EE9PrintLineEPKcz
 7192              	.LVL623:
 124:../../libdaisy/src/daisy_seed.h ****     }
 7193              		.loc 1 124 23 view .LVU1855
 7194              	.LBE1734:
 7195              	.LBE1733:
 219:Logger.cpp    ****     hw.Print(test_msg4);
 7196              		.loc 6 219 5 is_stmt 1 view .LVU1856
 7197              	.LBB1735:
 7198              	.LBI1735:
 114:../../libdaisy/src/daisy_seed.h ****     {
 7199              		.loc 1 114 17 view .LVU1857
 7200              	.LBB1736:
 116:../../libdaisy/src/daisy_seed.h ****     }
 7201              		.loc 1 116 19 is_stmt 0 view .LVU1858
 7202 00e8 5648     		ldr	r0, .L274+116
 7203 00ea FFF7FEFF 		bl	_ZN5daisy6LoggerILNS_17LoggerDestinationE1EE5PrintEPKcz
 7204              	.LVL624:
ARM GAS  /tmp/ccIu4BI8.s 			page 163


 116:../../libdaisy/src/daisy_seed.h ****     }
 7205              		.loc 1 116 19 view .LVU1859
 7206              	.LBE1736:
 7207              	.LBE1735:
 220:Logger.cpp    ****     hw.PrintLine("");
 7208              		.loc 6 220 5 is_stmt 1 view .LVU1860
 7209              	.LBB1737:
 7210              	.LBI1737:
 114:../../libdaisy/src/daisy_seed.h ****     {
 7211              		.loc 1 114 17 view .LVU1861
 7212              	.LBB1738:
 116:../../libdaisy/src/daisy_seed.h ****     }
 7213              		.loc 1 116 19 is_stmt 0 view .LVU1862
 7214 00ee 5648     		ldr	r0, .L274+120
 7215 00f0 FFF7FEFF 		bl	_ZN5daisy6LoggerILNS_17LoggerDestinationE1EE5PrintEPKcz
 7216              	.LVL625:
 116:../../libdaisy/src/daisy_seed.h ****     }
 7217              		.loc 1 116 19 view .LVU1863
 7218              	.LBE1738:
 7219              	.LBE1737:
 221:Logger.cpp    ****     hw.Print("5. ");
 7220              		.loc 6 221 5 is_stmt 1 view .LVU1864
 7221              	.LBB1739:
 7222              	.LBI1739:
 122:../../libdaisy/src/daisy_seed.h ****     {
 7223              		.loc 1 122 17 view .LVU1865
 7224              	.LBB1740:
 124:../../libdaisy/src/daisy_seed.h ****     }
 7225              		.loc 1 124 23 is_stmt 0 view .LVU1866
 7226 00f4 4A48     		ldr	r0, .L274+80
 7227 00f6 FFF7FEFF 		bl	_ZN5daisy6LoggerILNS_17LoggerDestinationE1EE9PrintLineEPKcz
 7228              	.LVL626:
 124:../../libdaisy/src/daisy_seed.h ****     }
 7229              		.loc 1 124 23 view .LVU1867
 7230              	.LBE1740:
 7231              	.LBE1739:
 222:Logger.cpp    ****     hw.Print(test_msg5);
 7232              		.loc 6 222 5 is_stmt 1 view .LVU1868
 7233              	.LBB1741:
 7234              	.LBI1741:
 114:../../libdaisy/src/daisy_seed.h ****     {
 7235              		.loc 1 114 17 view .LVU1869
 7236              	.LBB1742:
 116:../../libdaisy/src/daisy_seed.h ****     }
 7237              		.loc 1 116 19 is_stmt 0 view .LVU1870
 7238 00fa 5448     		ldr	r0, .L274+124
 7239 00fc FFF7FEFF 		bl	_ZN5daisy6LoggerILNS_17LoggerDestinationE1EE5PrintEPKcz
 7240              	.LVL627:
 116:../../libdaisy/src/daisy_seed.h ****     }
 7241              		.loc 1 116 19 view .LVU1871
 7242              	.LBE1742:
 7243              	.LBE1741:
 223:Logger.cpp    ****     hw.PrintLine("");
 7244              		.loc 6 223 5 is_stmt 1 view .LVU1872
 7245              	.LBB1743:
 7246              	.LBI1743:
 114:../../libdaisy/src/daisy_seed.h ****     {
ARM GAS  /tmp/ccIu4BI8.s 			page 164


 7247              		.loc 1 114 17 view .LVU1873
 7248              	.LBB1744:
 116:../../libdaisy/src/daisy_seed.h ****     }
 7249              		.loc 1 116 19 is_stmt 0 view .LVU1874
 7250 0100 5348     		ldr	r0, .L274+128
 7251 0102 FFF7FEFF 		bl	_ZN5daisy6LoggerILNS_17LoggerDestinationE1EE5PrintEPKcz
 7252              	.LVL628:
 116:../../libdaisy/src/daisy_seed.h ****     }
 7253              		.loc 1 116 19 view .LVU1875
 7254              	.LBE1744:
 7255              	.LBE1743:
 224:Logger.cpp    **** 
 7256              		.loc 6 224 5 is_stmt 1 view .LVU1876
 7257              	.LBB1745:
 7258              	.LBI1745:
 122:../../libdaisy/src/daisy_seed.h ****     {
 7259              		.loc 1 122 17 view .LVU1877
 7260              	.LBB1746:
 124:../../libdaisy/src/daisy_seed.h ****     }
 7261              		.loc 1 124 23 is_stmt 0 view .LVU1878
 7262 0106 4648     		ldr	r0, .L274+80
 7263 0108 FFF7FEFF 		bl	_ZN5daisy6LoggerILNS_17LoggerDestinationE1EE9PrintLineEPKcz
 7264              	.LVL629:
 124:../../libdaisy/src/daisy_seed.h ****     }
 7265              		.loc 1 124 23 view .LVU1879
 7266              	.LBE1746:
 7267              	.LBE1745:
 226:Logger.cpp    ****     hw.PrintLine("Verify overflow indicators ($$) below");
 7268              		.loc 6 226 5 is_stmt 1 view .LVU1880
 7269              	.LBB1747:
 7270              	.LBI1747:
 122:../../libdaisy/src/daisy_seed.h ****     {
 7271              		.loc 1 122 17 view .LVU1881
 7272              	.LBB1748:
 124:../../libdaisy/src/daisy_seed.h ****     }
 7273              		.loc 1 124 23 is_stmt 0 view .LVU1882
 7274 010c 5148     		ldr	r0, .L274+132
 7275 010e FFF7FEFF 		bl	_ZN5daisy6LoggerILNS_17LoggerDestinationE1EE9PrintLineEPKcz
 7276              	.LVL630:
 124:../../libdaisy/src/daisy_seed.h ****     }
 7277              		.loc 1 124 23 view .LVU1883
 7278              	.LBE1748:
 7279              	.LBE1747:
 227:Logger.cpp    ****     hw.Print("1. ");
 7280              		.loc 6 227 5 is_stmt 1 view .LVU1884
 7281              	.LBB1749:
 7282              	.LBI1749:
 122:../../libdaisy/src/daisy_seed.h ****     {
 7283              		.loc 1 122 17 view .LVU1885
 7284              	.LBB1750:
 124:../../libdaisy/src/daisy_seed.h ****     }
 7285              		.loc 1 124 23 is_stmt 0 view .LVU1886
 7286 0112 4548     		ldr	r0, .L274+88
 7287 0114 FFF7FEFF 		bl	_ZN5daisy6LoggerILNS_17LoggerDestinationE1EE9PrintLineEPKcz
 7288              	.LVL631:
 124:../../libdaisy/src/daisy_seed.h ****     }
 7289              		.loc 1 124 23 view .LVU1887
ARM GAS  /tmp/ccIu4BI8.s 			page 165


 7290              	.LBE1750:
 7291              	.LBE1749:
 228:Logger.cpp    ****     hw.PrintLine(test_msg1);
 7292              		.loc 6 228 5 is_stmt 1 view .LVU1888
 7293              	.LBB1751:
 7294              	.LBI1751:
 114:../../libdaisy/src/daisy_seed.h ****     {
 7295              		.loc 1 114 17 view .LVU1889
 7296              	.LBB1752:
 116:../../libdaisy/src/daisy_seed.h ****     }
 7297              		.loc 1 116 19 is_stmt 0 view .LVU1890
 7298 0118 4448     		ldr	r0, .L274+92
 7299 011a FFF7FEFF 		bl	_ZN5daisy6LoggerILNS_17LoggerDestinationE1EE5PrintEPKcz
 7300              	.LVL632:
 116:../../libdaisy/src/daisy_seed.h ****     }
 7301              		.loc 1 116 19 view .LVU1891
 7302              	.LBE1752:
 7303              	.LBE1751:
 229:Logger.cpp    ****     hw.PrintLine("");
 7304              		.loc 6 229 5 is_stmt 1 view .LVU1892
 7305              	.LBB1753:
 7306              	.LBI1753:
 122:../../libdaisy/src/daisy_seed.h ****     {
 7307              		.loc 1 122 17 view .LVU1893
 7308              	.LBB1754:
 124:../../libdaisy/src/daisy_seed.h ****     }
 7309              		.loc 1 124 23 is_stmt 0 view .LVU1894
 7310 011e 4448     		ldr	r0, .L274+96
 7311 0120 FFF7FEFF 		bl	_ZN5daisy6LoggerILNS_17LoggerDestinationE1EE9PrintLineEPKcz
 7312              	.LVL633:
 124:../../libdaisy/src/daisy_seed.h ****     }
 7313              		.loc 1 124 23 view .LVU1895
 7314              	.LBE1754:
 7315              	.LBE1753:
 230:Logger.cpp    ****     hw.Print("2. ");
 7316              		.loc 6 230 5 is_stmt 1 view .LVU1896
 7317              	.LBB1755:
 7318              	.LBI1755:
 122:../../libdaisy/src/daisy_seed.h ****     {
 7319              		.loc 1 122 17 view .LVU1897
 7320              	.LBB1756:
 124:../../libdaisy/src/daisy_seed.h ****     }
 7321              		.loc 1 124 23 is_stmt 0 view .LVU1898
 7322 0124 3E48     		ldr	r0, .L274+80
 7323 0126 FFF7FEFF 		bl	_ZN5daisy6LoggerILNS_17LoggerDestinationE1EE9PrintLineEPKcz
 7324              	.LVL634:
 124:../../libdaisy/src/daisy_seed.h ****     }
 7325              		.loc 1 124 23 view .LVU1899
 7326              	.LBE1756:
 7327              	.LBE1755:
 231:Logger.cpp    ****     hw.PrintLine(test_msg2);
 7328              		.loc 6 231 5 is_stmt 1 view .LVU1900
 7329              	.LBB1757:
 7330              	.LBI1757:
 114:../../libdaisy/src/daisy_seed.h ****     {
 7331              		.loc 1 114 17 view .LVU1901
 7332              	.LBB1758:
ARM GAS  /tmp/ccIu4BI8.s 			page 166


 116:../../libdaisy/src/daisy_seed.h ****     }
 7333              		.loc 1 116 19 is_stmt 0 view .LVU1902
 7334 012a 4248     		ldr	r0, .L274+100
 7335 012c FFF7FEFF 		bl	_ZN5daisy6LoggerILNS_17LoggerDestinationE1EE5PrintEPKcz
 7336              	.LVL635:
 116:../../libdaisy/src/daisy_seed.h ****     }
 7337              		.loc 1 116 19 view .LVU1903
 7338              	.LBE1758:
 7339              	.LBE1757:
 232:Logger.cpp    ****     hw.PrintLine("");
 7340              		.loc 6 232 5 is_stmt 1 view .LVU1904
 7341              	.LBB1759:
 7342              	.LBI1759:
 122:../../libdaisy/src/daisy_seed.h ****     {
 7343              		.loc 1 122 17 view .LVU1905
 7344              	.LBB1760:
 124:../../libdaisy/src/daisy_seed.h ****     }
 7345              		.loc 1 124 23 is_stmt 0 view .LVU1906
 7346 0130 4148     		ldr	r0, .L274+104
 7347 0132 FFF7FEFF 		bl	_ZN5daisy6LoggerILNS_17LoggerDestinationE1EE9PrintLineEPKcz
 7348              	.LVL636:
 124:../../libdaisy/src/daisy_seed.h ****     }
 7349              		.loc 1 124 23 view .LVU1907
 7350              	.LBE1760:
 7351              	.LBE1759:
 233:Logger.cpp    ****     hw.Print("3. ");
 7352              		.loc 6 233 5 is_stmt 1 view .LVU1908
 7353              	.LBB1761:
 7354              	.LBI1761:
 122:../../libdaisy/src/daisy_seed.h ****     {
 7355              		.loc 1 122 17 view .LVU1909
 7356              	.LBB1762:
 124:../../libdaisy/src/daisy_seed.h ****     }
 7357              		.loc 1 124 23 is_stmt 0 view .LVU1910
 7358 0136 3A48     		ldr	r0, .L274+80
 7359 0138 FFF7FEFF 		bl	_ZN5daisy6LoggerILNS_17LoggerDestinationE1EE9PrintLineEPKcz
 7360              	.LVL637:
 124:../../libdaisy/src/daisy_seed.h ****     }
 7361              		.loc 1 124 23 view .LVU1911
 7362              	.LBE1762:
 7363              	.LBE1761:
 234:Logger.cpp    ****     hw.PrintLine(test_msg3);
 7364              		.loc 6 234 5 is_stmt 1 view .LVU1912
 7365              	.LBB1763:
 7366              	.LBI1763:
 114:../../libdaisy/src/daisy_seed.h ****     {
 7367              		.loc 1 114 17 view .LVU1913
 7368              	.LBB1764:
 116:../../libdaisy/src/daisy_seed.h ****     }
 7369              		.loc 1 116 19 is_stmt 0 view .LVU1914
 7370 013c 3F48     		ldr	r0, .L274+108
 7371 013e FFF7FEFF 		bl	_ZN5daisy6LoggerILNS_17LoggerDestinationE1EE5PrintEPKcz
 7372              	.LVL638:
 116:../../libdaisy/src/daisy_seed.h ****     }
 7373              		.loc 1 116 19 view .LVU1915
 7374              	.LBE1764:
 7375              	.LBE1763:
ARM GAS  /tmp/ccIu4BI8.s 			page 167


 235:Logger.cpp    ****     hw.PrintLine("");
 7376              		.loc 6 235 5 is_stmt 1 view .LVU1916
 7377              	.LBB1765:
 7378              	.LBI1765:
 122:../../libdaisy/src/daisy_seed.h ****     {
 7379              		.loc 1 122 17 view .LVU1917
 7380              	.LBB1766:
 124:../../libdaisy/src/daisy_seed.h ****     }
 7381              		.loc 1 124 23 is_stmt 0 view .LVU1918
 7382 0142 3F48     		ldr	r0, .L274+112
 7383 0144 FFF7FEFF 		bl	_ZN5daisy6LoggerILNS_17LoggerDestinationE1EE9PrintLineEPKcz
 7384              	.LVL639:
 124:../../libdaisy/src/daisy_seed.h ****     }
 7385              		.loc 1 124 23 view .LVU1919
 7386              	.LBE1766:
 7387              	.LBE1765:
 236:Logger.cpp    ****     hw.Print("4. ");
 7388              		.loc 6 236 5 is_stmt 1 view .LVU1920
 7389              	.LBB1767:
 7390              	.LBI1767:
 122:../../libdaisy/src/daisy_seed.h ****     {
 7391              		.loc 1 122 17 view .LVU1921
 7392              	.LBB1768:
 124:../../libdaisy/src/daisy_seed.h ****     }
 7393              		.loc 1 124 23 is_stmt 0 view .LVU1922
 7394 0148 3548     		ldr	r0, .L274+80
 7395 014a FFF7FEFF 		bl	_ZN5daisy6LoggerILNS_17LoggerDestinationE1EE9PrintLineEPKcz
 7396              	.LVL640:
 124:../../libdaisy/src/daisy_seed.h ****     }
 7397              		.loc 1 124 23 view .LVU1923
 7398              	.LBE1768:
 7399              	.LBE1767:
 237:Logger.cpp    ****     hw.PrintLine(test_msg4);
 7400              		.loc 6 237 5 is_stmt 1 view .LVU1924
 7401              	.LBB1769:
 7402              	.LBI1769:
 114:../../libdaisy/src/daisy_seed.h ****     {
 7403              		.loc 1 114 17 view .LVU1925
 7404              	.LBB1770:
 116:../../libdaisy/src/daisy_seed.h ****     }
 7405              		.loc 1 116 19 is_stmt 0 view .LVU1926
 7406 014e 3D48     		ldr	r0, .L274+116
 7407 0150 FFF7FEFF 		bl	_ZN5daisy6LoggerILNS_17LoggerDestinationE1EE5PrintEPKcz
 7408              	.LVL641:
 116:../../libdaisy/src/daisy_seed.h ****     }
 7409              		.loc 1 116 19 view .LVU1927
 7410              	.LBE1770:
 7411              	.LBE1769:
 238:Logger.cpp    ****     hw.PrintLine("");
 7412              		.loc 6 238 5 is_stmt 1 view .LVU1928
 7413              	.LBB1771:
 7414              	.LBI1771:
 122:../../libdaisy/src/daisy_seed.h ****     {
 7415              		.loc 1 122 17 view .LVU1929
 7416              	.LBB1772:
 124:../../libdaisy/src/daisy_seed.h ****     }
 7417              		.loc 1 124 23 is_stmt 0 view .LVU1930
ARM GAS  /tmp/ccIu4BI8.s 			page 168


 7418 0154 3C48     		ldr	r0, .L274+120
 7419 0156 FFF7FEFF 		bl	_ZN5daisy6LoggerILNS_17LoggerDestinationE1EE9PrintLineEPKcz
 7420              	.LVL642:
 124:../../libdaisy/src/daisy_seed.h ****     }
 7421              		.loc 1 124 23 view .LVU1931
 7422              	.LBE1772:
 7423              	.LBE1771:
 239:Logger.cpp    ****     hw.Print("5. ");
 7424              		.loc 6 239 5 is_stmt 1 view .LVU1932
 7425              	.LBB1773:
 7426              	.LBI1773:
 122:../../libdaisy/src/daisy_seed.h ****     {
 7427              		.loc 1 122 17 view .LVU1933
 7428              	.LBB1774:
 124:../../libdaisy/src/daisy_seed.h ****     }
 7429              		.loc 1 124 23 is_stmt 0 view .LVU1934
 7430 015a 3148     		ldr	r0, .L274+80
 7431 015c FFF7FEFF 		bl	_ZN5daisy6LoggerILNS_17LoggerDestinationE1EE9PrintLineEPKcz
 7432              	.LVL643:
 124:../../libdaisy/src/daisy_seed.h ****     }
 7433              		.loc 1 124 23 view .LVU1935
 7434              	.LBE1774:
 7435              	.LBE1773:
 240:Logger.cpp    ****     hw.PrintLine(test_msg5);
 7436              		.loc 6 240 5 is_stmt 1 view .LVU1936
 7437              	.LBB1775:
 7438              	.LBI1775:
 114:../../libdaisy/src/daisy_seed.h ****     {
 7439              		.loc 1 114 17 view .LVU1937
 7440              	.LBB1776:
 116:../../libdaisy/src/daisy_seed.h ****     }
 7441              		.loc 1 116 19 is_stmt 0 view .LVU1938
 7442 0160 3A48     		ldr	r0, .L274+124
 7443 0162 FFF7FEFF 		bl	_ZN5daisy6LoggerILNS_17LoggerDestinationE1EE5PrintEPKcz
 7444              	.LVL644:
 116:../../libdaisy/src/daisy_seed.h ****     }
 7445              		.loc 1 116 19 view .LVU1939
 7446              	.LBE1776:
 7447              	.LBE1775:
 241:Logger.cpp    ****     hw.PrintLine("");
 7448              		.loc 6 241 5 is_stmt 1 view .LVU1940
 7449              	.LBB1777:
 7450              	.LBI1777:
 122:../../libdaisy/src/daisy_seed.h ****     {
 7451              		.loc 1 122 17 view .LVU1941
 7452              	.LBB1778:
 124:../../libdaisy/src/daisy_seed.h ****     }
 7453              		.loc 1 124 23 is_stmt 0 view .LVU1942
 7454 0166 3A48     		ldr	r0, .L274+128
 7455 0168 FFF7FEFF 		bl	_ZN5daisy6LoggerILNS_17LoggerDestinationE1EE9PrintLineEPKcz
 7456              	.LVL645:
 124:../../libdaisy/src/daisy_seed.h ****     }
 7457              		.loc 1 124 23 view .LVU1943
 7458              	.LBE1778:
 7459              	.LBE1777:
 242:Logger.cpp    **** 
 7460              		.loc 6 242 5 is_stmt 1 view .LVU1944
ARM GAS  /tmp/ccIu4BI8.s 			page 169


 7461              	.LBB1779:
 7462              	.LBI1779:
 122:../../libdaisy/src/daisy_seed.h ****     {
 7463              		.loc 1 122 17 view .LVU1945
 7464              	.LBB1780:
 124:../../libdaisy/src/daisy_seed.h ****     }
 7465              		.loc 1 124 23 is_stmt 0 view .LVU1946
 7466 016c 2C48     		ldr	r0, .L274+80
 7467 016e FFF7FEFF 		bl	_ZN5daisy6LoggerILNS_17LoggerDestinationE1EE9PrintLineEPKcz
 7468              	.LVL646:
 124:../../libdaisy/src/daisy_seed.h ****     }
 7469              		.loc 1 124 23 view .LVU1947
 7470              	.LBE1780:
 7471              	.LBE1779:
 244:Logger.cpp    **** 
 7472              		.loc 6 244 5 is_stmt 1 view .LVU1948
 7473              	.LBB1781:
 7474              	.LBI1781:
 122:../../libdaisy/src/daisy_seed.h ****     {
 7475              		.loc 1 122 17 view .LVU1949
 7476              	.LBB1782:
 124:../../libdaisy/src/daisy_seed.h ****     }
 7477              		.loc 1 124 23 is_stmt 0 view .LVU1950
 7478 0172 3948     		ldr	r0, .L274+136
 7479 0174 FFF7FEFF 		bl	_ZN5daisy6LoggerILNS_17LoggerDestinationE1EE9PrintLineEPKcz
 7480              	.LVL647:
 124:../../libdaisy/src/daisy_seed.h ****     }
 7481              		.loc 1 124 23 view .LVU1951
 7482              	.LBE1782:
 7483              	.LBE1781:
 7484              		.loc 6 246 5 is_stmt 1 view .LVU1952
 7485              	.L272:
 247:Logger.cpp    ****     while(1)
 7486              		.loc 6 247 5 view .LVU1953
 7487              	.LBB1783:
 248:Logger.cpp    ****     {
 249:Logger.cpp    ****         System::Delay(500);
 7488              		.loc 6 249 9 view .LVU1954
 7489              		.loc 6 249 22 is_stmt 0 view .LVU1955
 7490 0178 4FF4FA70 		mov	r0, #500
 7491 017c FFF7FEFF 		bl	_ZN5daisy6System5DelayEm
 7492              	.LVL648:
 250:Logger.cpp    **** 
 251:Logger.cpp    ****         const float time_s = System::GetNow() * 1.0e-3f;
 7493              		.loc 6 251 9 is_stmt 1 view .LVU1956
 7494              		.loc 6 251 44 is_stmt 0 view .LVU1957
 7495 0180 FFF7FEFF 		bl	_ZN5daisy6System6GetNowEv
 7496              	.LVL649:
 7497              		.loc 6 251 47 view .LVU1958
 7498 0184 07EE100A 		vmov	s14, r0	@ int
 7499              		.loc 6 251 49 view .LVU1959
 7500 0188 DFED347A 		vldr.32	s15, .L274+140
 7501              	.LBB1784:
 7502              	.LBB1785:
 124:../../libdaisy/src/daisy_seed.h ****     }
 7503              		.loc 1 124 23 view .LVU1960
 7504 018c 2146     		mov	r1, r4
ARM GAS  /tmp/ccIu4BI8.s 			page 170


 7505              	.LBE1785:
 7506              	.LBE1784:
 7507              		.loc 6 251 47 view .LVU1961
 7508 018e B8EE477A 		vcvt.f32.u32	s14, s14
 7509              	.LBB1789:
 7510              	.LBB1786:
 124:../../libdaisy/src/daisy_seed.h ****     }
 7511              		.loc 1 124 23 view .LVU1962
 7512 0192 2022     		movs	r2, #32
 7513 0194 3248     		ldr	r0, .L274+144
 7514              	.LBE1786:
 7515              	.LBE1789:
 7516              		.loc 6 251 49 view .LVU1963
 7517 0196 27EE277A 		vmul.f32	s14, s14, s15
 7518              	.LVL650:
 252:Logger.cpp    **** 
 253:Logger.cpp    ****         /** showcase floating point output 
 254:Logger.cpp    ****          * note that FLT_FMT is part of the format string
 255:Logger.cpp    ****          */
 256:Logger.cpp    ****         hw.PrintLine("%6u: Elapsed time: " FLT_FMT3 " seconds",
 7519              		.loc 6 256 9 is_stmt 1 view .LVU1964
 7520              		.loc 6 256 9 is_stmt 0 view .LVU1965
 7521              	.LBE1783:
 7522              		.loc 7 76 5 is_stmt 1 view .LVU1966
 7523              	.LBB1793:
 257:Logger.cpp    ****                      counter,
 258:Logger.cpp    ****                      FLT_VAR3(time_s));
 7524              		.loc 6 258 22 is_stmt 0 view .LVU1967
 7525 019a 9FED0F6B 		vldr.64	d6, .L274+8
 256:Logger.cpp    ****                      counter,
 7526              		.loc 6 256 21 view .LVU1968
 7527 019e FDEEC77A 		vcvt.s32.f32	s15, s14
 7528              	.LVL651:
 256:Logger.cpp    ****                      counter,
 7529              		.loc 6 256 21 view .LVU1969
 7530              	.LBE1793:
 7531              		.loc 7 76 5 is_stmt 1 view .LVU1970
 7532              		.loc 7 76 5 view .LVU1971
 7533              	.LBB1794:
 7534              	.LBB1790:
 7535              	.LBI1784:
 122:../../libdaisy/src/daisy_seed.h ****     {
 7536              		.loc 1 122 17 view .LVU1972
 7537              	.LBE1790:
 7538              		.loc 6 258 22 is_stmt 0 view .LVU1973
 7539 01a2 F8EEE75A 		vcvt.f32.s32	s11, s15
 7540              	.LVL652:
 7541              	.LBB1791:
 7542              	.LBB1787:
 124:../../libdaisy/src/daisy_seed.h ****     }
 7543              		.loc 1 124 23 view .LVU1974
 7544 01a6 17EE903A 		vmov	r3, s15	@ int
 7545              	.LBE1787:
 7546              	.LBE1791:
 7547              		.loc 6 258 22 view .LVU1975
 7548 01aa 37EE657A 		vsub.f32	s14, s14, s11
 7549              	.LVL653:
ARM GAS  /tmp/ccIu4BI8.s 			page 171


 7550              		.loc 6 258 22 view .LVU1976
 7551 01ae B7EEC77A 		vcvt.f64.f32	d7, s14
 7552 01b2 27EE067B 		vmul.f64	d7, d7, d6
 256:Logger.cpp    ****                      counter,
 7553              		.loc 6 256 21 view .LVU1977
 7554 01b6 BDEEC77B 		vcvt.s32.f64	s14, d7
 7555              	.LBB1792:
 7556              	.LBB1788:
 124:../../libdaisy/src/daisy_seed.h ****     }
 7557              		.loc 1 124 23 view .LVU1978
 7558 01ba 8DED007A 		vstr.32	s14, [sp]	@ int
 7559 01be FFF7FEFF 		bl	_ZN5daisy6LoggerILNS_17LoggerDestinationE1EE9PrintLineEPKcz
 7560              	.LVL654:
 124:../../libdaisy/src/daisy_seed.h ****     }
 7561              		.loc 1 124 23 view .LVU1979
 7562              	.LBE1788:
 7563              	.LBE1792:
 259:Logger.cpp    **** 
 260:Logger.cpp    ****         /* LSB triggers the LED */
 261:Logger.cpp    ****         hw.SetLed(counter & 0x01);
 7564              		.loc 6 261 9 is_stmt 1 view .LVU1980
 7565              		.loc 6 261 18 is_stmt 0 view .LVU1981
 7566 01c2 04F00101 		and	r1, r4, #1
 7567 01c6 0748     		ldr	r0, .L274+20
 262:Logger.cpp    ****         counter++;
 7568              		.loc 6 262 16 view .LVU1982
 7569 01c8 0134     		adds	r4, r4, #1
 7570              	.LVL655:
 261:Logger.cpp    ****         counter++;
 7571              		.loc 6 261 18 view .LVU1983
 7572 01ca FFF7FEFF 		bl	_ZN5daisy9DaisySeed6SetLedEb
 7573              	.LVL656:
 7574              		.loc 6 262 9 is_stmt 1 view .LVU1984
 7575              		.loc 6 262 9 is_stmt 0 view .LVU1985
 7576              	.LBE1794:
 247:Logger.cpp    ****     {
 7577              		.loc 6 247 5 is_stmt 1 view .LVU1986
 7578 01ce D3E7     		b	.L272
 7579              	.L275:
 7580              		.align	3
 7581              	.L274:
 7582 01d0 00000000 		.word	0
 7583 01d4 00C05E40 		.word	1079951360
 7584 01d8 00000000 		.word	0
 7585 01dc 00408F40 		.word	1083129856
 7586 01e0 00000000 		.word	.LC23
 7587 01e4 00000000 		.word	.LANCHOR5
 7588 01e8 24000000 		.word	.LC24
 7589 01ec 4C000000 		.word	.LC25
 7590 01f0 58000000 		.word	.LC26
 7591 01f4 68000000 		.word	.LC27
 7592 01f8 74000000 		.word	.LC28
 7593 01fc 84000000 		.word	.LC29
 7594 0200 94000000 		.word	.LC30
 7595 0204 B4000000 		.word	.LC31
 7596 0208 F0000000 		.word	.LC32
 7597 020c 18010000 		.word	.LC33
ARM GAS  /tmp/ccIu4BI8.s 			page 172


 7598 0210 3C010000 		.word	.LC34
 7599 0214 60010000 		.word	.LC35
 7600 0218 84010000 		.word	.LC36
 7601 021c A8010000 		.word	.LC37
 7602 0220 00000000 		.word	.LC15
 7603 0224 D4010000 		.word	.LC38
 7604 0228 08020000 		.word	.LC39
 7605 022c 30020000 		.word	.LC40
 7606 0230 00000000 		.word	.LANCHOR0
 7607 0234 34020000 		.word	.LC41
 7608 0238 00000000 		.word	.LANCHOR1
 7609 023c 38020000 		.word	.LC42
 7610 0240 00000000 		.word	.LANCHOR2
 7611 0244 3C020000 		.word	.LC43
 7612 0248 00000000 		.word	.LANCHOR3
 7613 024c 40020000 		.word	.LC44
 7614 0250 00000000 		.word	.LANCHOR4
 7615 0254 44020000 		.word	.LC45
 7616 0258 7C020000 		.word	.LC46
 7617 025c 6F12833A 		.word	981668463
 7618 0260 B0020000 		.word	.LC47
 7619              		.cfi_endproc
 7620              	.LFE2054:
 7622              		.section	.text.startup._GLOBAL__sub_I_test_msg1,"ax",%progbits
 7623              		.align	1
 7624              		.p2align 2,,3
 7625              		.syntax unified
 7626              		.thumb
 7627              		.thumb_func
 7628              		.fpu fpv5-d16
 7630              	_GLOBAL__sub_I_test_msg1:
 7631              	.LFB2116:
 263:Logger.cpp    ****     }
 264:Logger.cpp    **** 
 265:Logger.cpp    ****     return 0;
 266:Logger.cpp    **** }
 7632              		.loc 6 266 1 view -0
 7633              		.cfi_startproc
 7634              		@ args = 0, pretend = 0, frame = 0
 7635              		@ frame_needed = 0, uses_anonymous_args = 0
 7636              		@ link register save eliminated.
 7637              	.LVL657:
 7638              	.LBB1795:
 7639              	.LBI1795:
 7640              		.loc 6 266 1 view .LVU1988
 7641              	.LBB1796:
 7642              	.LBB1797:
 7643              	.LBI1797:
  21:../../libdaisy/src/daisy_seed.h ****     ~DaisySeed() {}
 7644              		.loc 1 21 5 view .LVU1989
 7645              	.LBB1798:
 7646              	.LBB1799:
 7647              	.LBI1799:
  62:../../libdaisy/src/hid/audio.h ****     ~AudioHandle() {}
 7648              		.loc 5 62 5 view .LVU1990
 7649              	.LBB1800:
 7650              	.LBB1801:
ARM GAS  /tmp/ccIu4BI8.s 			page 173


  62:../../libdaisy/src/hid/audio.h ****     ~AudioHandle() {}
 7651              		.loc 5 62 35 is_stmt 0 view .LVU1991
 7652 0000 0348     		ldr	r0, .L277
 7653 0002 0023     		movs	r3, #0
 7654              	.LBE1801:
 7655              	.LBE1800:
 7656              	.LBE1799:
 7657              	.LBE1798:
 7658              	.LBE1797:
   8:Logger.cpp    **** 
 7659              		.loc 6 8 18 view .LVU1992
 7660 0004 034A     		ldr	r2, .L277+4
 7661 0006 0449     		ldr	r1, .L277+8
 7662              	.LBB1812:
 7663              	.LBB1811:
 7664              	.LBB1804:
 7665              	.LBB1803:
 7666              	.LBB1802:
  62:../../libdaisy/src/hid/audio.h ****     ~AudioHandle() {}
 7667              		.loc 5 62 35 view .LVU1993
 7668 0008 4361     		str	r3, [r0, #20]
 7669              	.LVL658:
  62:../../libdaisy/src/hid/audio.h ****     ~AudioHandle() {}
 7670              		.loc 5 62 35 view .LVU1994
 7671              	.LBE1802:
 7672              	.LBE1803:
 7673              	.LBE1804:
 7674              	.LBB1805:
 7675              	.LBI1805:
  84:../../libdaisy/src/per/adc.h ****     ~AdcHandle() {}
 7676              		.loc 4 84 5 is_stmt 1 view .LVU1995
  84:../../libdaisy/src/per/adc.h ****     ~AdcHandle() {}
 7677              		.loc 4 84 5 is_stmt 0 view .LVU1996
 7678              	.LBE1805:
 7679              	.LBB1806:
 7680              	.LBI1806:
 7681              		.file 8 "../../libdaisy/src/per/dac.h"
   1:../../libdaisy/src/per/dac.h **** #pragma once
   2:../../libdaisy/src/per/dac.h **** #ifndef DSY_DAC_H
   3:../../libdaisy/src/per/dac.h **** #define DSY_DAC_H
   4:../../libdaisy/src/per/dac.h **** 
   5:../../libdaisy/src/per/dac.h **** #include "daisy_core.h"
   6:../../libdaisy/src/per/dac.h **** 
   7:../../libdaisy/src/per/dac.h **** namespace daisy
   8:../../libdaisy/src/per/dac.h **** {
   9:../../libdaisy/src/per/dac.h **** /** DAC handle for Built-in DAC Peripheral 
  10:../../libdaisy/src/per/dac.h ****  ** 
  11:../../libdaisy/src/per/dac.h ****  ** For now only Normal Mode is supported,
  12:../../libdaisy/src/per/dac.h ****  ** Sample and hold mode provides reduced power consumption, but requires a bit more setup.
  13:../../libdaisy/src/per/dac.h ****  **
  14:../../libdaisy/src/per/dac.h ****  ** For now connecting the DAC through other internal periphearls is also not supported.
  15:../../libdaisy/src/per/dac.h ****  **
  16:../../libdaisy/src/per/dac.h ****  ** Since the DAC channels have dedicated pins we don't need to pass in a pin config like with
  17:../../libdaisy/src/per/dac.h ****  ** other modules. However, it is still important to not try to use the DAC pins for anything else.
  18:../../libdaisy/src/per/dac.h ****  ** DAC Channel 1 is on PA4, and DAC Channel 2 is on PA5
  19:../../libdaisy/src/per/dac.h ****  ***/
  20:../../libdaisy/src/per/dac.h **** class DacHandle
ARM GAS  /tmp/ccIu4BI8.s 			page 174


  21:../../libdaisy/src/per/dac.h **** {
  22:../../libdaisy/src/per/dac.h ****   public:
  23:../../libdaisy/src/per/dac.h ****     /** Return Values for the DacHandle class */
  24:../../libdaisy/src/per/dac.h ****     enum class Result
  25:../../libdaisy/src/per/dac.h ****     {
  26:../../libdaisy/src/per/dac.h ****         OK,
  27:../../libdaisy/src/per/dac.h ****         ERR,
  28:../../libdaisy/src/per/dac.h ****     };
  29:../../libdaisy/src/per/dac.h **** 
  30:../../libdaisy/src/per/dac.h ****     /** Selects which channel(s) will be configured for use. */
  31:../../libdaisy/src/per/dac.h ****     enum class Channel
  32:../../libdaisy/src/per/dac.h ****     {
  33:../../libdaisy/src/per/dac.h ****         ONE,
  34:../../libdaisy/src/per/dac.h ****         TWO,
  35:../../libdaisy/src/per/dac.h ****         BOTH,
  36:../../libdaisy/src/per/dac.h ****     };
  37:../../libdaisy/src/per/dac.h **** 
  38:../../libdaisy/src/per/dac.h ****     /** Sets the Mode for the DAC channels.
  39:../../libdaisy/src/per/dac.h ****      **
  40:../../libdaisy/src/per/dac.h ****      ** Polling mode uses the blocking mode to transmit a single value at a time.
  41:../../libdaisy/src/per/dac.h ****      **
  42:../../libdaisy/src/per/dac.h ****      ** DMA mode uses a buffer, and periodically transmits it triggering a 
  43:../../libdaisy/src/per/dac.h ****      ** callback to fill the buffer when it is ready for more samples.
  44:../../libdaisy/src/per/dac.h ****      ***/
  45:../../libdaisy/src/per/dac.h ****     enum class Mode
  46:../../libdaisy/src/per/dac.h ****     {
  47:../../libdaisy/src/per/dac.h ****         POLLING,
  48:../../libdaisy/src/per/dac.h ****         DMA,
  49:../../libdaisy/src/per/dac.h ****     };
  50:../../libdaisy/src/per/dac.h **** 
  51:../../libdaisy/src/per/dac.h ****     /** Sets the number of bits per sample transmitted out of the DAC.
  52:../../libdaisy/src/per/dac.h ****      ** The output range will be: 0V - VDDA
  53:../../libdaisy/src/per/dac.h ****      ** The resolution will be roughly: bitdepth / (VDDA - 0V) 
  54:../../libdaisy/src/per/dac.h ****      ***/
  55:../../libdaisy/src/per/dac.h ****     enum class BitDepth
  56:../../libdaisy/src/per/dac.h ****     {
  57:../../libdaisy/src/per/dac.h ****         BITS_8,
  58:../../libdaisy/src/per/dac.h ****         BITS_12
  59:../../libdaisy/src/per/dac.h ****     };
  60:../../libdaisy/src/per/dac.h **** 
  61:../../libdaisy/src/per/dac.h ****     /** Sets whether the DAC output is buffered for higher drive ability. */
  62:../../libdaisy/src/per/dac.h ****     enum class BufferState
  63:../../libdaisy/src/per/dac.h ****     {
  64:../../libdaisy/src/per/dac.h ****         ENABLED,
  65:../../libdaisy/src/per/dac.h ****         DISABLED,
  66:../../libdaisy/src/per/dac.h ****     };
  67:../../libdaisy/src/per/dac.h **** 
  68:../../libdaisy/src/per/dac.h ****     /** Configuration structure for initializing the DAC structure. */
  69:../../libdaisy/src/per/dac.h ****     struct Config
  70:../../libdaisy/src/per/dac.h ****     {
  71:../../libdaisy/src/per/dac.h ****         /** Target Samplerate in Hz used to configure the internal 
  72:../../libdaisy/src/per/dac.h ****          ** timebase for DMA mode. Does nothing in POLLING mode.
  73:../../libdaisy/src/per/dac.h ****          ** If the value is 0 at Init time this will default to 48000Hz 
  74:../../libdaisy/src/per/dac.h ****          ** otherwise the driver will attempt meet the target.*/
  75:../../libdaisy/src/per/dac.h ****         uint32_t target_samplerate;
  76:../../libdaisy/src/per/dac.h **** 
  77:../../libdaisy/src/per/dac.h ****         Channel     chn;
ARM GAS  /tmp/ccIu4BI8.s 			page 175


  78:../../libdaisy/src/per/dac.h ****         Mode        mode;
  79:../../libdaisy/src/per/dac.h ****         BitDepth    bitdepth;
  80:../../libdaisy/src/per/dac.h ****         BufferState buff_state;
  81:../../libdaisy/src/per/dac.h ****     };
  82:../../libdaisy/src/per/dac.h **** 
  83:../../libdaisy/src/per/dac.h ****     DacHandle() : pimpl_(nullptr) {}
 7682              		.loc 8 83 5 is_stmt 1 view .LVU1997
 7683              	.LBB1807:
 7684              	.LBB1808:
 7685              		.loc 8 83 33 is_stmt 0 view .LVU1998
 7686 000a 0362     		str	r3, [r0, #32]
 7687              	.LVL659:
 7688              		.loc 8 83 33 view .LVU1999
 7689              	.LBE1808:
 7690              	.LBE1807:
 7691              	.LBE1806:
 7692              	.LBB1809:
 7693              	.LBI1809:
  40:../../libdaisy/src/hid/usb.h **** 
 7694              		.loc 3 40 5 is_stmt 1 view .LVU2000
  40:../../libdaisy/src/hid/usb.h **** 
 7695              		.loc 3 40 5 is_stmt 0 view .LVU2001
 7696              	.LBE1809:
 7697              	.LBB1810:
 7698              	.LBI1810:
  58:../../libdaisy/src/sys/system.h ****     ~System() {}
 7699              		.loc 2 58 5 is_stmt 1 view .LVU2002
  58:../../libdaisy/src/sys/system.h ****     ~System() {}
 7700              		.loc 2 58 5 is_stmt 0 view .LVU2003
 7701              	.LBE1810:
 7702              	.LBE1811:
 7703              	.LBE1812:
   8:Logger.cpp    **** 
 7704              		.loc 6 8 18 view .LVU2004
 7705 000c FFF7FEBF 		b	__aeabi_atexit
 7706              	.LVL660:
 7707              	.L278:
 7708              		.align	2
 7709              	.L277:
 7710 0010 00000000 		.word	.LANCHOR5
 7711 0014 00000000 		.word	__dso_handle
 7712 0018 00000000 		.word	_ZN5daisy9DaisySeedD1Ev
 7713              	.LBE1796:
 7714              	.LBE1795:
 7715              		.cfi_endproc
 7716              	.LFE2116:
 7718              		.section	.init_array,"aw",%init_array
 7719              		.align	2
 7720 0000 00000000 		.word	_GLOBAL__sub_I_test_msg1(target1)
 7721              		.global	test_msg5
 7722              		.global	test_msg4
 7723              		.global	test_msg3
 7724              		.global	test_msg2
 7725              		.global	test_msg1
 7726              		.section	.bss._ZL2hw,"aw",%nobits
 7727              		.align	2
 7728              		.set	.LANCHOR5,. + 0
ARM GAS  /tmp/ccIu4BI8.s 			page 176


 7731              	_ZL2hw:
 7732 0000 00000000 		.space	60
 7732      00000000 
 7732      00000000 
 7732      00000000 
 7732      00000000 
 7733              		.section	.data.test_msg1,"aw"
 7734              		.align	2
 7735              		.set	.LANCHOR0,. + 0
 7738              	test_msg1:
 7739 0000 54686973 		.ascii	"This should really overflow\000"
 7739      2073686F 
 7739      756C6420 
 7739      7265616C 
 7739      6C79206F 
 7740 001c 00000000 		.space	102
 7740      00000000 
 7740      00000000 
 7740      00000000 
 7740      00000000 
 7741              		.section	.data.test_msg2,"aw"
 7742              		.align	2
 7743              		.set	.LANCHOR1,. + 0
 7746              	test_msg2:
 7747 0000 54686973 		.ascii	"This should be treated as overflow\000"
 7747      2073686F 
 7747      756C6420 
 7747      62652074 
 7747      72656174 
 7748 0023 00000000 		.space	94
 7748      00000000 
 7748      00000000 
 7748      00000000 
 7748      00000000 
 7749              		.section	.data.test_msg3,"aw"
 7750              		.align	2
 7751              		.set	.LANCHOR2,. + 0
 7754              	test_msg3:
 7755 0000 54686973 		.ascii	"This should be safe for Print()\000"
 7755      2073686F 
 7755      756C6420 
 7755      62652073 
 7755      61666520 
 7756 0020 00000000 		.space	96
 7756      00000000 
 7756      00000000 
 7756      00000000 
 7756      00000000 
 7757              		.section	.data.test_msg4,"aw"
 7758              		.align	2
 7759              		.set	.LANCHOR3,. + 0
 7762              	test_msg4:
 7763 0000 54686973 		.ascii	"This should be safe for Print()\000"
 7763      2073686F 
 7763      756C6420 
 7763      62652073 
 7763      61666520 
ARM GAS  /tmp/ccIu4BI8.s 			page 177


 7764 0020 00000000 		.space	95
 7764      00000000 
 7764      00000000 
 7764      00000000 
 7764      00000000 
 7765              		.section	.data.test_msg5,"aw"
 7766              		.align	2
 7767              		.set	.LANCHOR4,. + 0
 7770              	test_msg5:
 7771 0000 54686973 		.ascii	"This should be safe for Print() and PrintLine()\000"
 7771      2073686F 
 7771      756C6420 
 7771      62652073 
 7771      61666520 
 7772 0030 00000000 		.space	78
 7772      00000000 
 7772      00000000 
 7772      00000000 
 7772      00000000 
 7773              		.text
 7774              	.Letext0:
 7775              		.file 9 "/usr/lib/gcc/arm-none-eabi/9.2.1/include/stdint.h"
 7776              		.file 10 "../../libdaisy/Drivers/CMSIS/Include/core_cm7.h"
 7777              		.file 11 "../../libdaisy/Drivers/CMSIS/Device/ST/STM32H7xx/Include/system_stm32h7xx.h"
 7778              		.file 12 "/usr/lib/gcc/arm-none-eabi/9.2.1/include/stddef.h"
 7779              		.file 13 "/usr/include/newlib/c++/9.2.1/cmath"
 7780              		.file 14 "/usr/include/newlib/c++/9.2.1/cstring"
 7781              		.file 15 "/usr/include/newlib/c++/9.2.1/cstdio"
 7782              		.file 16 "/usr/include/newlib/c++/9.2.1/cstdlib"
 7783              		.file 17 "/usr/include/newlib/c++/9.2.1/cstdint"
 7784              		.file 18 "/usr/include/newlib/c++/9.2.1/type_traits"
 7785              		.file 19 "/usr/include/newlib/c++/9.2.1/bits/stl_pair.h"
 7786              		.file 20 "/usr/include/newlib/c++/9.2.1/debug/debug.h"
 7787              		.file 21 "/usr/include/newlib/c++/9.2.1/arm-none-eabi/thumb/v7e-m+dp/hard/bits/c++config.h"
 7788              		.file 22 "/usr/include/newlib/c++/9.2.1/bits/algorithmfwd.h"
 7789              		.file 23 "/usr/include/newlib/c++/9.2.1/bits/exception_ptr.h"
 7790              		.file 24 "/usr/include/newlib/c++/9.2.1/new"
 7791              		.file 25 "/usr/include/newlib/c++/9.2.1/cstdarg"
 7792              		.file 26 "/usr/include/newlib/c++/9.2.1/bits/predefined_ops.h"
 7793              		.file 27 "/usr/include/newlib/c++/9.2.1/ext/numeric_traits.h"
 7794              		.file 28 "/usr/include/newlib/sys/_types.h"
 7795              		.file 29 "<built-in>"
 7796              		.file 30 "/usr/include/newlib/sys/reent.h"
 7797              		.file 31 "/usr/include/newlib/sys/lock.h"
 7798              		.file 32 "/usr/include/newlib/math.h"
 7799              		.file 33 "/usr/include/newlib/stdlib.h"
 7800              		.file 34 "/usr/include/newlib/c++/9.2.1/math.h"
 7801              		.file 35 "../../libdaisy/Drivers/STM32H7xx_HAL_Driver/Inc/stm32h7xx_hal_def.h"
 7802              		.file 36 "../../libdaisy/Drivers/STM32H7xx_HAL_Driver/Inc/stm32h7xx_hal_flash.h"
 7803              		.file 37 "/usr/include/newlib/string.h"
 7804              		.file 38 "/usr/lib/gcc/arm-none-eabi/9.2.1/include/stdarg.h"
 7805              		.file 39 "/usr/include/newlib/stdio.h"
 7806              		.file 40 "/usr/include/newlib/c++/9.2.1/stdlib.h"
 7807              		.file 41 "../../libdaisy/src/daisy_core.h"
 7808              		.file 42 "../../libdaisy/src/per/tim.h"
 7809              		.file 43 "../../libdaisy/src/per/sai.h"
 7810              		.file 44 "../../libdaisy/src/hid/logger_impl.h"
ARM GAS  /tmp/ccIu4BI8.s 			page 178


 7811              		.file 45 "../../libdaisy/src/hid/logger.h"
 7812              		.file 46 "../../libdaisy/src/util/wav_format.h"
 7813              		.file 47 "../../libdaisy/src/per/qspi.h"
 7814              		.file 48 "../../libdaisy/src/per/gpio.h"
 7815              		.file 49 "../../libdaisy/src/dev/sdram.h"
 7816              		.file 50 "/usr/include/newlib/sys/unistd.h"
 7817              		.file 51 "../../libdaisy/src/util/oled_fonts.h"
 7818              		.file 52 "../../libdaisy/Middlewares/Third_Party/FatFs/src/integer.h"
 7819              		.file 53 "../../libdaisy/Middlewares/Third_Party/FatFs/src/ff.h"
 7820              		.file 54 "../../libdaisy/Middlewares/Third_Party/FatFs/src/diskio.h"
 7821              		.file 55 "../../libdaisy/Middlewares/Third_Party/FatFs/src/ff_gen_drv.h"
 7822              		.file 56 "../../libdaisy/src/util/sd_diskio.h"
 7823              		.file 57 "../../libdaisy/src/sys/fatfs.h"
 7824              		.file 58 "../../libdaisy/src/dev/sr_595.h"
ARM GAS  /tmp/ccIu4BI8.s 			page 179


DEFINED SYMBOLS
                            *ABS*:0000000000000000 Logger.cpp
     /tmp/ccIu4BI8.s:17     .text._ZN5daisy9DaisySeedD2Ev:0000000000000000 $t
     /tmp/ccIu4BI8.s:26     .text._ZN5daisy9DaisySeedD2Ev:0000000000000000 _ZN5daisy9DaisySeedD2Ev
     /tmp/ccIu4BI8.s:26     .text._ZN5daisy9DaisySeedD2Ev:0000000000000000 _ZN5daisy9DaisySeedD1Ev
     /tmp/ccIu4BI8.s:67     .text._Z15ProfileFunctionIXadL_ZN5daisy6LoggerILNS0_17LoggerDestinationE0EE5PrintEPKczEEJEEfS5_DpT0_.isra.0:0000000000000000 $t
     /tmp/ccIu4BI8.s:74     .text._Z15ProfileFunctionIXadL_ZN5daisy6LoggerILNS0_17LoggerDestinationE0EE5PrintEPKczEEJEEfS5_DpT0_.isra.0:0000000000000000 _Z15ProfileFunctionIXadL_ZN5daisy6LoggerILNS0_17LoggerDestinationE0EE5PrintEPKczEEJEEfS5_DpT0_.isra.0
     /tmp/ccIu4BI8.s:114    .text._Z15ProfileFunctionIXadL_ZN5daisy6LoggerILNS0_17LoggerDestinationE0EE5PrintEPKczEEJEEfS5_DpT0_.isra.0:0000000000000020 $d
     /tmp/ccIu4BI8.s:74     .text._Z15ProfileFunctionIXadL_ZN5daisy6LoggerILNS0_17LoggerDestinationE0EE5PrintEPKczEEJEEfS5_DpT0_.isra.0:0000000000000000 _Z15ProfileFunctionIXadL_ZN5daisy6LoggerILNS0_17LoggerDestinationE0EE9PrintLineEPKczEEJciiEEfS5_DpT0_.isra.0
     /tmp/ccIu4BI8.s:74     .text._Z15ProfileFunctionIXadL_ZN5daisy6LoggerILNS0_17LoggerDestinationE0EE5PrintEPKczEEJEEfS5_DpT0_.isra.0:0000000000000000 _Z15ProfileFunctionIXadL_ZN5daisy6LoggerILNS0_17LoggerDestinationE0EE9PrintLineEPKczEEJfEEfS5_DpT0_.isra.0
     /tmp/ccIu4BI8.s:74     .text._Z15ProfileFunctionIXadL_ZN5daisy6LoggerILNS0_17LoggerDestinationE0EE5PrintEPKczEEJEEfS5_DpT0_.isra.0:0000000000000000 _Z15ProfileFunctionIXadL_ZN5daisy6LoggerILNS0_17LoggerDestinationE0EE9PrintLineEPKczEEJiEEfS5_DpT0_.isra.0
     /tmp/ccIu4BI8.s:74     .text._Z15ProfileFunctionIXadL_ZN5daisy6LoggerILNS0_17LoggerDestinationE0EE5PrintEPKczEEJEEfS5_DpT0_.isra.0:0000000000000000 _Z15ProfileFunctionIXadL_ZN5daisy6LoggerILNS0_17LoggerDestinationE0EE9PrintLineEPKczEEJEEfS5_DpT0_.isra.0
     /tmp/ccIu4BI8.s:74     .text._Z15ProfileFunctionIXadL_ZN5daisy6LoggerILNS0_17LoggerDestinationE0EE5PrintEPKczEEJEEfS5_DpT0_.isra.0:0000000000000000 _Z15ProfileFunctionIXadL_ZN5daisy6LoggerILNS0_17LoggerDestinationE0EE5PrintEPKczEEJciiEEfS5_DpT0_.isra.0
     /tmp/ccIu4BI8.s:74     .text._Z15ProfileFunctionIXadL_ZN5daisy6LoggerILNS0_17LoggerDestinationE0EE5PrintEPKczEEJEEfS5_DpT0_.isra.0:0000000000000000 _Z15ProfileFunctionIXadL_ZN5daisy6LoggerILNS0_17LoggerDestinationE0EE5PrintEPKczEEJfEEfS5_DpT0_.isra.0
     /tmp/ccIu4BI8.s:74     .text._Z15ProfileFunctionIXadL_ZN5daisy6LoggerILNS0_17LoggerDestinationE0EE5PrintEPKczEEJEEfS5_DpT0_.isra.0:0000000000000000 _Z15ProfileFunctionIXadL_ZN5daisy6LoggerILNS0_17LoggerDestinationE0EE5PrintEPKczEEJiEEfS5_DpT0_.isra.0
     /tmp/ccIu4BI8.s:126    .text._Z16prepare_messagesv:0000000000000000 $t
     /tmp/ccIu4BI8.s:134    .text._Z16prepare_messagesv:0000000000000000 _Z16prepare_messagesv
     /tmp/ccIu4BI8.s:447    .text._Z16prepare_messagesv:00000000000000b8 $d
     /tmp/ccIu4BI8.s:456    .rodata._Z12VerifyFloatsv.str1.4:0000000000000000 $d
     /tmp/ccIu4BI8.s:475    .text._Z12VerifyFloatsv:0000000000000000 $t
     /tmp/ccIu4BI8.s:483    .text._Z12VerifyFloatsv:0000000000000000 _Z12VerifyFloatsv
     /tmp/ccIu4BI8.s:693    .text._Z12VerifyFloatsv:00000000000000c8 $d
     /tmp/ccIu4BI8.s:709    .rodata._Z12ProfilePrintIXadL_ZN5daisy6LoggerILNS0_17LoggerDestinationE0EE5PrintEPKczEEEvS5_S5_.str1.4:0000000000000000 $d
     /tmp/ccIu4BI8.s:738    .text._Z12ProfilePrintIXadL_ZN5daisy6LoggerILNS0_17LoggerDestinationE0EE5PrintEPKczEEEvS5_S5_:0000000000000000 $t
     /tmp/ccIu4BI8.s:746    .text._Z12ProfilePrintIXadL_ZN5daisy6LoggerILNS0_17LoggerDestinationE0EE5PrintEPKczEEEvS5_S5_:0000000000000000 _Z12ProfilePrintIXadL_ZN5daisy6LoggerILNS0_17LoggerDestinationE0EE5PrintEPKczEEEvS5_S5_
     /tmp/ccIu4BI8.s:1503   .text._Z12ProfilePrintIXadL_ZN5daisy6LoggerILNS0_17LoggerDestinationE0EE5PrintEPKczEEEvS5_S5_:00000000000002d0 $d
     /tmp/ccIu4BI8.s:1520   .text._Z12ProfilePrintIXadL_ZN5daisy6LoggerILNS0_17LoggerDestinationE0EE9PrintLineEPKczEEEvS5_S5_:0000000000000000 $t
     /tmp/ccIu4BI8.s:1528   .text._Z12ProfilePrintIXadL_ZN5daisy6LoggerILNS0_17LoggerDestinationE0EE9PrintLineEPKczEEEvS5_S5_:0000000000000000 _Z12ProfilePrintIXadL_ZN5daisy6LoggerILNS0_17LoggerDestinationE0EE9PrintLineEPKczEEEvS5_S5_
     /tmp/ccIu4BI8.s:2285   .text._Z12ProfilePrintIXadL_ZN5daisy6LoggerILNS0_17LoggerDestinationE0EE9PrintLineEPKczEEEvS5_S5_:00000000000002d0 $d
     /tmp/ccIu4BI8.s:2302   .text._Z15ProfileFunctionIXadL_ZN5daisy6LoggerILNS0_17LoggerDestinationE2EE5PrintEPKczEEJEEfS5_DpT0_:0000000000000000 $t
     /tmp/ccIu4BI8.s:2310   .text._Z15ProfileFunctionIXadL_ZN5daisy6LoggerILNS0_17LoggerDestinationE2EE5PrintEPKczEEJEEfS5_DpT0_:0000000000000000 _Z15ProfileFunctionIXadL_ZN5daisy6LoggerILNS0_17LoggerDestinationE2EE5PrintEPKczEEJEEfS5_DpT0_
     /tmp/ccIu4BI8.s:2368   .text._Z15ProfileFunctionIXadL_ZN5daisy6LoggerILNS0_17LoggerDestinationE2EE5PrintEPKczEEJEEfS5_DpT0_:0000000000000030 $d
     /tmp/ccIu4BI8.s:2374   .text._Z15ProfileFunctionIXadL_ZN5daisy6LoggerILNS0_17LoggerDestinationE2EE5PrintEPKczEEJiEEfS5_DpT0_:0000000000000000 $t
     /tmp/ccIu4BI8.s:2382   .text._Z15ProfileFunctionIXadL_ZN5daisy6LoggerILNS0_17LoggerDestinationE2EE5PrintEPKczEEJiEEfS5_DpT0_:0000000000000000 _Z15ProfileFunctionIXadL_ZN5daisy6LoggerILNS0_17LoggerDestinationE2EE5PrintEPKczEEJiEEfS5_DpT0_
     /tmp/ccIu4BI8.s:2444   .text._Z15ProfileFunctionIXadL_ZN5daisy6LoggerILNS0_17LoggerDestinationE2EE5PrintEPKczEEJiEEfS5_DpT0_:0000000000000034 $d
     /tmp/ccIu4BI8.s:2450   .text._Z15ProfileFunctionIXadL_ZN5daisy6LoggerILNS0_17LoggerDestinationE2EE5PrintEPKczEEJciiEEfS5_DpT0_:0000000000000000 $t
     /tmp/ccIu4BI8.s:2458   .text._Z15ProfileFunctionIXadL_ZN5daisy6LoggerILNS0_17LoggerDestinationE2EE5PrintEPKczEEJciiEEfS5_DpT0_:0000000000000000 _Z15ProfileFunctionIXadL_ZN5daisy6LoggerILNS0_17LoggerDestinationE2EE5PrintEPKczEEJciiEEfS5_DpT0_
     /tmp/ccIu4BI8.s:2526   .text._Z15ProfileFunctionIXadL_ZN5daisy6LoggerILNS0_17LoggerDestinationE2EE5PrintEPKczEEJciiEEfS5_DpT0_:0000000000000040 $d
     /tmp/ccIu4BI8.s:2532   .rodata._Z12ProfilePrintIXadL_ZN5daisy6LoggerILNS0_17LoggerDestinationE2EE5PrintEPKczEEEvS5_S5_.str1.4:0000000000000000 $d
     /tmp/ccIu4BI8.s:2557   .text._Z12ProfilePrintIXadL_ZN5daisy6LoggerILNS0_17LoggerDestinationE2EE5PrintEPKczEEEvS5_S5_:0000000000000000 $t
     /tmp/ccIu4BI8.s:2565   .text._Z12ProfilePrintIXadL_ZN5daisy6LoggerILNS0_17LoggerDestinationE2EE5PrintEPKczEEEvS5_S5_:0000000000000000 _Z12ProfilePrintIXadL_ZN5daisy6LoggerILNS0_17LoggerDestinationE2EE5PrintEPKczEEEvS5_S5_
     /tmp/ccIu4BI8.s:3402   .text._Z12ProfilePrintIXadL_ZN5daisy6LoggerILNS0_17LoggerDestinationE2EE5PrintEPKczEEEvS5_S5_:0000000000000310 $d
     /tmp/ccIu4BI8.s:3432   .text._Z15ProfileFunctionIXadL_ZN5daisy6LoggerILNS0_17LoggerDestinationE2EE9PrintLineEPKczEEJEEfS5_DpT0_:0000000000000000 $t
     /tmp/ccIu4BI8.s:3440   .text._Z15ProfileFunctionIXadL_ZN5daisy6LoggerILNS0_17LoggerDestinationE2EE9PrintLineEPKczEEJEEfS5_DpT0_:0000000000000000 _Z15ProfileFunctionIXadL_ZN5daisy6LoggerILNS0_17LoggerDestinationE2EE9PrintLineEPKczEEJEEfS5_DpT0_
     /tmp/ccIu4BI8.s:3498   .text._Z15ProfileFunctionIXadL_ZN5daisy6LoggerILNS0_17LoggerDestinationE2EE9PrintLineEPKczEEJEEfS5_DpT0_:0000000000000030 $d
     /tmp/ccIu4BI8.s:3504   .text._Z15ProfileFunctionIXadL_ZN5daisy6LoggerILNS0_17LoggerDestinationE2EE9PrintLineEPKczEEJiEEfS5_DpT0_:0000000000000000 $t
     /tmp/ccIu4BI8.s:3512   .text._Z15ProfileFunctionIXadL_ZN5daisy6LoggerILNS0_17LoggerDestinationE2EE9PrintLineEPKczEEJiEEfS5_DpT0_:0000000000000000 _Z15ProfileFunctionIXadL_ZN5daisy6LoggerILNS0_17LoggerDestinationE2EE9PrintLineEPKczEEJiEEfS5_DpT0_
     /tmp/ccIu4BI8.s:3574   .text._Z15ProfileFunctionIXadL_ZN5daisy6LoggerILNS0_17LoggerDestinationE2EE9PrintLineEPKczEEJiEEfS5_DpT0_:0000000000000034 $d
     /tmp/ccIu4BI8.s:3580   .text._Z15ProfileFunctionIXadL_ZN5daisy6LoggerILNS0_17LoggerDestinationE2EE9PrintLineEPKczEEJciiEEfS5_DpT0_:0000000000000000 $t
     /tmp/ccIu4BI8.s:3588   .text._Z15ProfileFunctionIXadL_ZN5daisy6LoggerILNS0_17LoggerDestinationE2EE9PrintLineEPKczEEJciiEEfS5_DpT0_:0000000000000000 _Z15ProfileFunctionIXadL_ZN5daisy6LoggerILNS0_17LoggerDestinationE2EE9PrintLineEPKczEEJciiEEfS5_DpT0_
     /tmp/ccIu4BI8.s:3656   .text._Z15ProfileFunctionIXadL_ZN5daisy6LoggerILNS0_17LoggerDestinationE2EE9PrintLineEPKczEEJciiEEfS5_DpT0_:0000000000000040 $d
     /tmp/ccIu4BI8.s:3662   .text._Z12ProfilePrintIXadL_ZN5daisy6LoggerILNS0_17LoggerDestinationE2EE9PrintLineEPKczEEEvS5_S5_:0000000000000000 $t
     /tmp/ccIu4BI8.s:3670   .text._Z12ProfilePrintIXadL_ZN5daisy6LoggerILNS0_17LoggerDestinationE2EE9PrintLineEPKczEEEvS5_S5_:0000000000000000 _Z12ProfilePrintIXadL_ZN5daisy6LoggerILNS0_17LoggerDestinationE2EE9PrintLineEPKczEEEvS5_S5_
     /tmp/ccIu4BI8.s:4507   .text._Z12ProfilePrintIXadL_ZN5daisy6LoggerILNS0_17LoggerDestinationE2EE9PrintLineEPKczEEEvS5_S5_:0000000000000310 $d
     /tmp/ccIu4BI8.s:4537   .text._Z15ProfileFunctionIXadL_ZN5daisy6LoggerILNS0_17LoggerDestinationE3EE5PrintEPKczEEJEEfS5_DpT0_:0000000000000000 $t
     /tmp/ccIu4BI8.s:4545   .text._Z15ProfileFunctionIXadL_ZN5daisy6LoggerILNS0_17LoggerDestinationE3EE5PrintEPKczEEJEEfS5_DpT0_:0000000000000000 _Z15ProfileFunctionIXadL_ZN5daisy6LoggerILNS0_17LoggerDestinationE3EE5PrintEPKczEEJEEfS5_DpT0_
     /tmp/ccIu4BI8.s:4603   .text._Z15ProfileFunctionIXadL_ZN5daisy6LoggerILNS0_17LoggerDestinationE3EE5PrintEPKczEEJEEfS5_DpT0_:0000000000000030 $d
ARM GAS  /tmp/ccIu4BI8.s 			page 180


     /tmp/ccIu4BI8.s:4609   .text._Z15ProfileFunctionIXadL_ZN5daisy6LoggerILNS0_17LoggerDestinationE3EE5PrintEPKczEEJiEEfS5_DpT0_:0000000000000000 $t
     /tmp/ccIu4BI8.s:4617   .text._Z15ProfileFunctionIXadL_ZN5daisy6LoggerILNS0_17LoggerDestinationE3EE5PrintEPKczEEJiEEfS5_DpT0_:0000000000000000 _Z15ProfileFunctionIXadL_ZN5daisy6LoggerILNS0_17LoggerDestinationE3EE5PrintEPKczEEJiEEfS5_DpT0_
     /tmp/ccIu4BI8.s:4679   .text._Z15ProfileFunctionIXadL_ZN5daisy6LoggerILNS0_17LoggerDestinationE3EE5PrintEPKczEEJiEEfS5_DpT0_:0000000000000034 $d
     /tmp/ccIu4BI8.s:4685   .text._Z15ProfileFunctionIXadL_ZN5daisy6LoggerILNS0_17LoggerDestinationE3EE5PrintEPKczEEJciiEEfS5_DpT0_:0000000000000000 $t
     /tmp/ccIu4BI8.s:4693   .text._Z15ProfileFunctionIXadL_ZN5daisy6LoggerILNS0_17LoggerDestinationE3EE5PrintEPKczEEJciiEEfS5_DpT0_:0000000000000000 _Z15ProfileFunctionIXadL_ZN5daisy6LoggerILNS0_17LoggerDestinationE3EE5PrintEPKczEEJciiEEfS5_DpT0_
     /tmp/ccIu4BI8.s:4761   .text._Z15ProfileFunctionIXadL_ZN5daisy6LoggerILNS0_17LoggerDestinationE3EE5PrintEPKczEEJciiEEfS5_DpT0_:0000000000000040 $d
     /tmp/ccIu4BI8.s:4767   .text._Z12ProfilePrintIXadL_ZN5daisy6LoggerILNS0_17LoggerDestinationE3EE5PrintEPKczEEEvS5_S5_:0000000000000000 $t
     /tmp/ccIu4BI8.s:4775   .text._Z12ProfilePrintIXadL_ZN5daisy6LoggerILNS0_17LoggerDestinationE3EE5PrintEPKczEEEvS5_S5_:0000000000000000 _Z12ProfilePrintIXadL_ZN5daisy6LoggerILNS0_17LoggerDestinationE3EE5PrintEPKczEEEvS5_S5_
     /tmp/ccIu4BI8.s:5612   .text._Z12ProfilePrintIXadL_ZN5daisy6LoggerILNS0_17LoggerDestinationE3EE5PrintEPKczEEEvS5_S5_:0000000000000310 $d
     /tmp/ccIu4BI8.s:5642   .text._Z15ProfileFunctionIXadL_ZN5daisy6LoggerILNS0_17LoggerDestinationE3EE9PrintLineEPKczEEJEEfS5_DpT0_:0000000000000000 $t
     /tmp/ccIu4BI8.s:5650   .text._Z15ProfileFunctionIXadL_ZN5daisy6LoggerILNS0_17LoggerDestinationE3EE9PrintLineEPKczEEJEEfS5_DpT0_:0000000000000000 _Z15ProfileFunctionIXadL_ZN5daisy6LoggerILNS0_17LoggerDestinationE3EE9PrintLineEPKczEEJEEfS5_DpT0_
     /tmp/ccIu4BI8.s:5708   .text._Z15ProfileFunctionIXadL_ZN5daisy6LoggerILNS0_17LoggerDestinationE3EE9PrintLineEPKczEEJEEfS5_DpT0_:0000000000000030 $d
     /tmp/ccIu4BI8.s:5714   .text._Z15ProfileFunctionIXadL_ZN5daisy6LoggerILNS0_17LoggerDestinationE3EE9PrintLineEPKczEEJiEEfS5_DpT0_:0000000000000000 $t
     /tmp/ccIu4BI8.s:5722   .text._Z15ProfileFunctionIXadL_ZN5daisy6LoggerILNS0_17LoggerDestinationE3EE9PrintLineEPKczEEJiEEfS5_DpT0_:0000000000000000 _Z15ProfileFunctionIXadL_ZN5daisy6LoggerILNS0_17LoggerDestinationE3EE9PrintLineEPKczEEJiEEfS5_DpT0_
     /tmp/ccIu4BI8.s:5784   .text._Z15ProfileFunctionIXadL_ZN5daisy6LoggerILNS0_17LoggerDestinationE3EE9PrintLineEPKczEEJiEEfS5_DpT0_:0000000000000034 $d
     /tmp/ccIu4BI8.s:5790   .text._Z15ProfileFunctionIXadL_ZN5daisy6LoggerILNS0_17LoggerDestinationE3EE9PrintLineEPKczEEJciiEEfS5_DpT0_:0000000000000000 $t
     /tmp/ccIu4BI8.s:5798   .text._Z15ProfileFunctionIXadL_ZN5daisy6LoggerILNS0_17LoggerDestinationE3EE9PrintLineEPKczEEJciiEEfS5_DpT0_:0000000000000000 _Z15ProfileFunctionIXadL_ZN5daisy6LoggerILNS0_17LoggerDestinationE3EE9PrintLineEPKczEEJciiEEfS5_DpT0_
     /tmp/ccIu4BI8.s:5866   .text._Z15ProfileFunctionIXadL_ZN5daisy6LoggerILNS0_17LoggerDestinationE3EE9PrintLineEPKczEEJciiEEfS5_DpT0_:0000000000000040 $d
     /tmp/ccIu4BI8.s:5872   .text._Z12ProfilePrintIXadL_ZN5daisy6LoggerILNS0_17LoggerDestinationE3EE9PrintLineEPKczEEEvS5_S5_:0000000000000000 $t
     /tmp/ccIu4BI8.s:5880   .text._Z12ProfilePrintIXadL_ZN5daisy6LoggerILNS0_17LoggerDestinationE3EE9PrintLineEPKczEEEvS5_S5_:0000000000000000 _Z12ProfilePrintIXadL_ZN5daisy6LoggerILNS0_17LoggerDestinationE3EE9PrintLineEPKczEEEvS5_S5_
     /tmp/ccIu4BI8.s:6717   .text._Z12ProfilePrintIXadL_ZN5daisy6LoggerILNS0_17LoggerDestinationE3EE9PrintLineEPKczEEEvS5_S5_:0000000000000310 $d
     /tmp/ccIu4BI8.s:6747   .rodata.main.str1.4:0000000000000000 $d
     /tmp/ccIu4BI8.s:6826   .text.startup.main:0000000000000000 $t
     /tmp/ccIu4BI8.s:6834   .text.startup.main:0000000000000000 main
     /tmp/ccIu4BI8.s:7582   .text.startup.main:00000000000001d0 $d
     /tmp/ccIu4BI8.s:7623   .text.startup._GLOBAL__sub_I_test_msg1:0000000000000000 $t
     /tmp/ccIu4BI8.s:7630   .text.startup._GLOBAL__sub_I_test_msg1:0000000000000000 _GLOBAL__sub_I_test_msg1
     /tmp/ccIu4BI8.s:7710   .text.startup._GLOBAL__sub_I_test_msg1:0000000000000010 $d
     /tmp/ccIu4BI8.s:7719   .init_array:0000000000000000 $d
     /tmp/ccIu4BI8.s:7770   .data.test_msg5:0000000000000000 test_msg5
     /tmp/ccIu4BI8.s:7762   .data.test_msg4:0000000000000000 test_msg4
     /tmp/ccIu4BI8.s:7754   .data.test_msg3:0000000000000000 test_msg3
     /tmp/ccIu4BI8.s:7746   .data.test_msg2:0000000000000000 test_msg2
     /tmp/ccIu4BI8.s:7738   .data.test_msg1:0000000000000000 test_msg1
     /tmp/ccIu4BI8.s:7727   .bss._ZL2hw:0000000000000000 $d
     /tmp/ccIu4BI8.s:7731   .bss._ZL2hw:0000000000000000 _ZL2hw
     /tmp/ccIu4BI8.s:7734   .data.test_msg1:0000000000000000 $d
     /tmp/ccIu4BI8.s:7742   .data.test_msg2:0000000000000000 $d
     /tmp/ccIu4BI8.s:7750   .data.test_msg3:0000000000000000 $d
     /tmp/ccIu4BI8.s:7758   .data.test_msg4:0000000000000000 $d
     /tmp/ccIu4BI8.s:7766   .data.test_msg5:0000000000000000 $d
                           .group:0000000000000000 _ZN5daisy9DaisySeedD5Ev

UNDEFINED SYMBOLS
_ZN5daisy6System7GetTickEv
strlen
sprintf
strtod
_ZN5daisy6LoggerILNS_17LoggerDestinationE1EE9PrintLineEPKcz
_ZN5daisy6LoggerILNS_17LoggerDestinationE2EE5PrintEPKcz
_ZN5daisy6LoggerILNS_17LoggerDestinationE2EE9PrintLineEPKcz
_ZN5daisy6LoggerILNS_17LoggerDestinationE3EE5PrintEPKcz
_ZN5daisy6LoggerILNS_17LoggerDestinationE3EE9PrintLineEPKcz
_ZN5daisy9DaisySeed9ConfigureEv
_ZN5daisy9DaisySeed4InitEb
_ZN5daisy6LoggerILNS_17LoggerDestinationE1EE8StartLogEb
_ZN5daisy6LoggerILNS_17LoggerDestinationE2EE8StartLogEb
ARM GAS  /tmp/ccIu4BI8.s 			page 181


_ZN5daisy6LoggerILNS_17LoggerDestinationE3EE8StartLogEb
_ZN5daisy6LoggerILNS_17LoggerDestinationE1EE5PrintEPKcz
_ZN5daisy6System5DelayEm
_ZN5daisy6System6GetNowEv
_ZN5daisy9DaisySeed6SetLedEb
__aeabi_atexit
__dso_handle
