ARM GAS  /tmp/ccIu4BI8.s 			page 1


   1              		.cpu cortex-m7
   2              		.eabi_attribute 28, 1
   3              		.eabi_attribute 20, 1
   4              		.eabi_attribute 21, 1
   5              		.eabi_attribute 23, 3
   6              		.eabi_attribute 24, 1
   7              		.eabi_attribute 25, 1
   8              		.eabi_attribute 26, 1
   9              		.eabi_attribute 30, 2
  10              		.eabi_attribute 34, 1
  11              		.eabi_attribute 18, 4
  12              		.file	"Logger.cpp"
  13              		.text
  14              	.Ltext0:
  15              		.cfi_sections	.debug_frame
  16              		.section	.text._ZN5daisy9DaisySeedD2Ev,"axG",%progbits,_ZN5daisy9DaisySeedD5Ev,comdat
  17              		.align	1
  18              		.p2align 2,,3
  19              		.weak	_ZN5daisy9DaisySeedD2Ev
  20              		.arch armv7e-m
  21              		.syntax unified
  22              		.thumb
  23              		.thumb_func
  24              		.fpu fpv5-d16
  26              	_ZN5daisy9DaisySeedD2Ev:
  27              	.LVL0:
  28              	.LFB2042:
  29              		.file 1 "../../libdaisy/src/daisy_seed.h"
   1:../../libdaisy/src/daisy_seed.h **** #pragma once
   2:../../libdaisy/src/daisy_seed.h **** #ifndef DSY_SEED_H
   3:../../libdaisy/src/daisy_seed.h **** #define DSY_SEED_H
   4:../../libdaisy/src/daisy_seed.h **** 
   5:../../libdaisy/src/daisy_seed.h **** #include "daisy.h"
   6:../../libdaisy/src/daisy_seed.h **** 
   7:../../libdaisy/src/daisy_seed.h **** //Uncomment this out if you're still using the rev2 hardware
   8:../../libdaisy/src/daisy_seed.h **** //#define SEED_REV2
   9:../../libdaisy/src/daisy_seed.h **** 
  10:../../libdaisy/src/daisy_seed.h **** namespace daisy
  11:../../libdaisy/src/daisy_seed.h **** {
  12:../../libdaisy/src/daisy_seed.h **** /**
  13:../../libdaisy/src/daisy_seed.h ****    @brief This is the higher-level interface for the Daisy board. \n 
  14:../../libdaisy/src/daisy_seed.h ****     All basic peripheral configuration/initialization is setup here. \n
  15:../../libdaisy/src/daisy_seed.h **** 
  16:../../libdaisy/src/daisy_seed.h ****    @ingroup boards
  17:../../libdaisy/src/daisy_seed.h **** */
  18:../../libdaisy/src/daisy_seed.h **** class DaisySeed
  19:../../libdaisy/src/daisy_seed.h **** {
  20:../../libdaisy/src/daisy_seed.h ****   public:
  21:../../libdaisy/src/daisy_seed.h ****     DaisySeed() {}
  22:../../libdaisy/src/daisy_seed.h ****     ~DaisySeed() {}
  30              		.loc 1 22 5 view -0
  31              		.cfi_startproc
  32              		@ args = 0, pretend = 0, frame = 0
  33              		@ frame_needed = 0, uses_anonymous_args = 0
  34              		@ link register save eliminated.
  35              	.LBB687:
  36              	.LBI687:
ARM GAS  /tmp/ccIu4BI8.s 			page 2


  37              		.file 2 "../../libdaisy/src/sys/system.h"
   1:../../libdaisy/src/sys/system.h **** #ifndef DSY_SYSTEM_H
   2:../../libdaisy/src/sys/system.h **** #define DSY_SYSTEM_H
   3:../../libdaisy/src/sys/system.h **** 
   4:../../libdaisy/src/sys/system.h **** #ifndef UNIT_TEST // for unit tests, a dummy implementation is provided below
   5:../../libdaisy/src/sys/system.h **** 
   6:../../libdaisy/src/sys/system.h **** #include <cstdint>
   7:../../libdaisy/src/sys/system.h **** #include "per/tim.h"
   8:../../libdaisy/src/sys/system.h **** 
   9:../../libdaisy/src/sys/system.h **** namespace daisy
  10:../../libdaisy/src/sys/system.h **** {
  11:../../libdaisy/src/sys/system.h **** /** A handle for interacting with the Core System. 
  12:../../libdaisy/src/sys/system.h ****  ** This includes the Clock tree, MPU, global DMA initialization,
  13:../../libdaisy/src/sys/system.h ****  ** cache handling, and any other necessary global initiailzation
  14:../../libdaisy/src/sys/system.h ****  **
  15:../../libdaisy/src/sys/system.h ****  ** @author shensley
  16:../../libdaisy/src/sys/system.h ****  ** @addtogroup system
  17:../../libdaisy/src/sys/system.h ****  */
  18:../../libdaisy/src/sys/system.h **** class System
  19:../../libdaisy/src/sys/system.h **** {
  20:../../libdaisy/src/sys/system.h ****   public:
  21:../../libdaisy/src/sys/system.h ****     /** Contains settings for initializing the System */
  22:../../libdaisy/src/sys/system.h ****     struct Config
  23:../../libdaisy/src/sys/system.h ****     {
  24:../../libdaisy/src/sys/system.h ****         /** Specifies the system clock frequency that feeds APB/AHB clocks, etc. */
  25:../../libdaisy/src/sys/system.h ****         enum class SysClkFreq
  26:../../libdaisy/src/sys/system.h ****         {
  27:../../libdaisy/src/sys/system.h ****             FREQ_400MHZ,
  28:../../libdaisy/src/sys/system.h ****             FREQ_480MHZ,
  29:../../libdaisy/src/sys/system.h ****         };
  30:../../libdaisy/src/sys/system.h **** 
  31:../../libdaisy/src/sys/system.h ****         /** Method to call on the struct to set to defaults
  32:../../libdaisy/src/sys/system.h ****          ** CPU Freq set to 400MHz
  33:../../libdaisy/src/sys/system.h ****          ** Cache Enabled 
  34:../../libdaisy/src/sys/system.h ****          ** */
  35:../../libdaisy/src/sys/system.h ****         void Defaults()
  36:../../libdaisy/src/sys/system.h ****         {
  37:../../libdaisy/src/sys/system.h ****             cpu_freq   = SysClkFreq::FREQ_400MHZ;
  38:../../libdaisy/src/sys/system.h ****             use_dcache = true;
  39:../../libdaisy/src/sys/system.h ****             use_icache = true;
  40:../../libdaisy/src/sys/system.h ****         }
  41:../../libdaisy/src/sys/system.h **** 
  42:../../libdaisy/src/sys/system.h ****         /** Method to call on the struct to set to boost mode:
  43:../../libdaisy/src/sys/system.h ****          ** CPU Freq set to 480MHz
  44:../../libdaisy/src/sys/system.h ****          ** Cache Enabled 
  45:../../libdaisy/src/sys/system.h ****          ** */
  46:../../libdaisy/src/sys/system.h ****         void Boost()
  47:../../libdaisy/src/sys/system.h ****         {
  48:../../libdaisy/src/sys/system.h ****             cpu_freq   = SysClkFreq::FREQ_480MHZ;
  49:../../libdaisy/src/sys/system.h ****             use_dcache = true;
  50:../../libdaisy/src/sys/system.h ****             use_icache = true;
  51:../../libdaisy/src/sys/system.h ****         }
  52:../../libdaisy/src/sys/system.h **** 
  53:../../libdaisy/src/sys/system.h ****         SysClkFreq cpu_freq;
  54:../../libdaisy/src/sys/system.h ****         bool       use_dcache;
  55:../../libdaisy/src/sys/system.h ****         bool       use_icache;
  56:../../libdaisy/src/sys/system.h ****     };
ARM GAS  /tmp/ccIu4BI8.s 			page 3


  57:../../libdaisy/src/sys/system.h **** 
  58:../../libdaisy/src/sys/system.h ****     System() {}
  59:../../libdaisy/src/sys/system.h ****     ~System() {}
  38              		.loc 2 59 5 view .LVU1
  39              		.loc 2 59 5 is_stmt 0 view .LVU2
  40              	.LBE687:
  41              	.LBB688:
  42              	.LBI688:
  43              		.file 3 "../../libdaisy/src/hid/usb.h"
   1:../../libdaisy/src/hid/usb.h **** #pragma once
   2:../../libdaisy/src/hid/usb.h **** #ifndef DSY_HID_USB_H
   3:../../libdaisy/src/hid/usb.h **** #define DSY_HID_USB_H
   4:../../libdaisy/src/hid/usb.h **** #include <stdint.h>
   5:../../libdaisy/src/hid/usb.h **** #include <stdlib.h>
   6:../../libdaisy/src/hid/usb.h **** 
   7:../../libdaisy/src/hid/usb.h **** namespace daisy
   8:../../libdaisy/src/hid/usb.h **** /** @addtogroup externals
   9:../../libdaisy/src/hid/usb.h ****     @{
  10:../../libdaisy/src/hid/usb.h **** */
  11:../../libdaisy/src/hid/usb.h **** 
  12:../../libdaisy/src/hid/usb.h **** {
  13:../../libdaisy/src/hid/usb.h **** /** 
  14:../../libdaisy/src/hid/usb.h ****     @brief Interface for initializing and using the USB Peripherals on the daisy
  15:../../libdaisy/src/hid/usb.h ****     @author Stephen Hensley
  16:../../libdaisy/src/hid/usb.h ****     @date December 2019
  17:../../libdaisy/src/hid/usb.h **** */
  18:../../libdaisy/src/hid/usb.h **** class UsbHandle
  19:../../libdaisy/src/hid/usb.h **** {
  20:../../libdaisy/src/hid/usb.h ****   public:
  21:../../libdaisy/src/hid/usb.h ****     /** Return values for USBHandle Functions */
  22:../../libdaisy/src/hid/usb.h ****     enum class Result
  23:../../libdaisy/src/hid/usb.h ****     {
  24:../../libdaisy/src/hid/usb.h ****         OK,
  25:../../libdaisy/src/hid/usb.h ****         ERR,
  26:../../libdaisy/src/hid/usb.h ****     };
  27:../../libdaisy/src/hid/usb.h **** 
  28:../../libdaisy/src/hid/usb.h ****     /** Specified which of the two USB Peripherals to initialize. */
  29:../../libdaisy/src/hid/usb.h ****     enum UsbPeriph
  30:../../libdaisy/src/hid/usb.h ****     {
  31:../../libdaisy/src/hid/usb.h ****         FS_INTERNAL, /**< Internal pin */
  32:../../libdaisy/src/hid/usb.h ****         FS_EXTERNAL, /**< FS External D+ pin is Pin 38 (GPIO32). FS External D- pin is Pin 37 (GPIO
  33:../../libdaisy/src/hid/usb.h ****         FS_BOTH,     /**< Both */
  34:../../libdaisy/src/hid/usb.h ****     };
  35:../../libdaisy/src/hid/usb.h **** 
  36:../../libdaisy/src/hid/usb.h **** 
  37:../../libdaisy/src/hid/usb.h ****     /** Function called upon reception of a buffer */
  38:../../libdaisy/src/hid/usb.h ****     typedef void (*ReceiveCallback)(uint8_t* buff, uint32_t* len);
  39:../../libdaisy/src/hid/usb.h **** 
  40:../../libdaisy/src/hid/usb.h ****     UsbHandle() {}
  41:../../libdaisy/src/hid/usb.h **** 
  42:../../libdaisy/src/hid/usb.h ****     ~UsbHandle() {}
  44              		.loc 3 42 5 is_stmt 1 view .LVU3
  45              		.loc 3 42 5 is_stmt 0 view .LVU4
  46              	.LBE688:
  47              	.LBB689:
  48              	.LBI689:
  49              		.file 4 "../../libdaisy/src/per/adc.h"
ARM GAS  /tmp/ccIu4BI8.s 			page 4


   1:../../libdaisy/src/per/adc.h **** #pragma once
   2:../../libdaisy/src/per/adc.h **** #ifndef DSY_ADC_H
   3:../../libdaisy/src/per/adc.h **** #define DSY_ADC_H /**< Macro */
   4:../../libdaisy/src/per/adc.h **** #include <stdint.h>
   5:../../libdaisy/src/per/adc.h **** #include <stdlib.h>
   6:../../libdaisy/src/per/adc.h **** #include "daisy_core.h"
   7:../../libdaisy/src/per/adc.h **** #include "per/gpio.h"
   8:../../libdaisy/src/per/adc.h **** 
   9:../../libdaisy/src/per/adc.h **** #define DSY_ADC_MAX_CHANNELS 14 /**< Maximum number of ADC channels */
  10:../../libdaisy/src/per/adc.h **** 
  11:../../libdaisy/src/per/adc.h **** namespace daisy
  12:../../libdaisy/src/per/adc.h **** {
  13:../../libdaisy/src/per/adc.h **** /** @addtogroup analog_digital_conversion
  14:../../libdaisy/src/per/adc.h ****     @{
  15:../../libdaisy/src/per/adc.h **** */
  16:../../libdaisy/src/per/adc.h **** 
  17:../../libdaisy/src/per/adc.h **** /* While there may not be many configuration options here,
  18:../../libdaisy/src/per/adc.h **** using a struct like this allows us to add more configuration
  19:../../libdaisy/src/per/adc.h **** later without breaking existing functionality.
  20:../../libdaisy/src/per/adc.h **** */
  21:../../libdaisy/src/per/adc.h **** 
  22:../../libdaisy/src/per/adc.h **** /** Configuration Structure for a given channel */
  23:../../libdaisy/src/per/adc.h **** struct AdcChannelConfig
  24:../../libdaisy/src/per/adc.h **** {
  25:../../libdaisy/src/per/adc.h ****     /** Which pin to use for multiplexing */
  26:../../libdaisy/src/per/adc.h ****     enum MuxPin
  27:../../libdaisy/src/per/adc.h ****     {
  28:../../libdaisy/src/per/adc.h ****         MUX_SEL_0,    /**< & */
  29:../../libdaisy/src/per/adc.h ****         MUX_SEL_1,    /**< & */
  30:../../libdaisy/src/per/adc.h ****         MUX_SEL_2,    /**< & */
  31:../../libdaisy/src/per/adc.h ****         MUX_SEL_LAST, /**< & */
  32:../../libdaisy/src/per/adc.h ****     };
  33:../../libdaisy/src/per/adc.h **** 
  34:../../libdaisy/src/per/adc.h ****     /** Initializes a single ADC pin as an ADC. 
  35:../../libdaisy/src/per/adc.h ****     \param pin Pin to init.
  36:../../libdaisy/src/per/adc.h ****      */
  37:../../libdaisy/src/per/adc.h ****     void InitSingle(dsy_gpio_pin pin);
  38:../../libdaisy/src/per/adc.h **** 
  39:../../libdaisy/src/per/adc.h ****     /** 
  40:../../libdaisy/src/per/adc.h ****     Initializes a single ADC pin as a Multiplexed ADC.
  41:../../libdaisy/src/per/adc.h ****     Requires a CD405X Multiplexer connected to the pin.
  42:../../libdaisy/src/per/adc.h ****     You only need to supply the mux pins that are required,
  43:../../libdaisy/src/per/adc.h ****     e.g. a 4052 mux would only require mux_0 and mux_1.
  44:../../libdaisy/src/per/adc.h ****     Internal Callbacks handle the pin addressing.
  45:../../libdaisy/src/per/adc.h ****     \param mux_channels must be 1-8
  46:../../libdaisy/src/per/adc.h ****     \param mux_0 First mux pin
  47:../../libdaisy/src/per/adc.h ****     \param mux_1 Second mux pin
  48:../../libdaisy/src/per/adc.h ****     \param mux_2 Third mux pin
  49:../../libdaisy/src/per/adc.h ****     \param adc_pin &
  50:../../libdaisy/src/per/adc.h ****     */
  51:../../libdaisy/src/per/adc.h ****     void InitMux(dsy_gpio_pin adc_pin,
  52:../../libdaisy/src/per/adc.h ****                  size_t       mux_channels,
  53:../../libdaisy/src/per/adc.h ****                  dsy_gpio_pin mux_0,
  54:../../libdaisy/src/per/adc.h ****                  dsy_gpio_pin mux_1 = {DSY_GPIOX, 0},
  55:../../libdaisy/src/per/adc.h ****                  dsy_gpio_pin mux_2 = {DSY_GPIOX, 0});
  56:../../libdaisy/src/per/adc.h **** 
  57:../../libdaisy/src/per/adc.h ****     dsy_gpio pin_;                   /**< & */
ARM GAS  /tmp/ccIu4BI8.s 			page 5


  58:../../libdaisy/src/per/adc.h ****     dsy_gpio mux_pin_[MUX_SEL_LAST]; /**< & */
  59:../../libdaisy/src/per/adc.h ****     uint8_t  mux_channels_;          /**< & */
  60:../../libdaisy/src/per/adc.h **** };
  61:../../libdaisy/src/per/adc.h **** 
  62:../../libdaisy/src/per/adc.h **** /**
  63:../../libdaisy/src/per/adc.h ****    Handler for analog to digital conversion
  64:../../libdaisy/src/per/adc.h **** */
  65:../../libdaisy/src/per/adc.h **** class AdcHandle
  66:../../libdaisy/src/per/adc.h **** {
  67:../../libdaisy/src/per/adc.h ****   public:
  68:../../libdaisy/src/per/adc.h ****     /** Supported oversampling amounts */
  69:../../libdaisy/src/per/adc.h ****     enum OverSampling
  70:../../libdaisy/src/per/adc.h ****     {
  71:../../libdaisy/src/per/adc.h ****         OVS_NONE, /**< & */
  72:../../libdaisy/src/per/adc.h ****         OVS_4,    /**< & */
  73:../../libdaisy/src/per/adc.h ****         OVS_8,    /**< & */
  74:../../libdaisy/src/per/adc.h ****         OVS_16,   /**< & */
  75:../../libdaisy/src/per/adc.h ****         OVS_32,   /**< & */
  76:../../libdaisy/src/per/adc.h ****         OVS_64,   /**< & */
  77:../../libdaisy/src/per/adc.h ****         OVS_128,  /**< & */
  78:../../libdaisy/src/per/adc.h ****         OVS_256,  /**< & */
  79:../../libdaisy/src/per/adc.h ****         OVS_512,  /**< & */
  80:../../libdaisy/src/per/adc.h ****         OVS_1024, /**< & */
  81:../../libdaisy/src/per/adc.h ****         OVS_LAST, /**< & */
  82:../../libdaisy/src/per/adc.h ****     };
  83:../../libdaisy/src/per/adc.h **** 
  84:../../libdaisy/src/per/adc.h ****     AdcHandle() {}
  85:../../libdaisy/src/per/adc.h ****     ~AdcHandle() {}
  50              		.loc 4 85 5 is_stmt 1 view .LVU5
  51              		.loc 4 85 5 is_stmt 0 view .LVU6
  52              	.LBE689:
  53              	.LBB690:
  54              	.LBI690:
  55              		.file 5 "../../libdaisy/src/hid/audio.h"
   1:../../libdaisy/src/hid/audio.h **** #ifndef DSY_AUDIO_H
   2:../../libdaisy/src/hid/audio.h **** #define DSY_AUDIO_H /**< & */
   3:../../libdaisy/src/hid/audio.h **** 
   4:../../libdaisy/src/hid/audio.h **** #include "per/sai.h"
   5:../../libdaisy/src/hid/audio.h **** 
   6:../../libdaisy/src/hid/audio.h **** namespace daisy
   7:../../libdaisy/src/hid/audio.h **** {
   8:../../libdaisy/src/hid/audio.h **** class AudioHandle
   9:../../libdaisy/src/hid/audio.h **** {
  10:../../libdaisy/src/hid/audio.h ****   public:
  11:../../libdaisy/src/hid/audio.h ****     /** Manually configurable details about the Audio Engine */
  12:../../libdaisy/src/hid/audio.h ****     /** TODO: Figure out how to get samplerate in here. */
  13:../../libdaisy/src/hid/audio.h ****     struct Config
  14:../../libdaisy/src/hid/audio.h ****     {
  15:../../libdaisy/src/hid/audio.h ****         size_t                        blocksize;
  16:../../libdaisy/src/hid/audio.h ****         SaiHandle::Config::SampleRate samplerate;
  17:../../libdaisy/src/hid/audio.h ****         float                         postgain;
  18:../../libdaisy/src/hid/audio.h ****     };
  19:../../libdaisy/src/hid/audio.h **** 
  20:../../libdaisy/src/hid/audio.h ****     enum class Result
  21:../../libdaisy/src/hid/audio.h ****     {
  22:../../libdaisy/src/hid/audio.h ****         OK,
  23:../../libdaisy/src/hid/audio.h ****         ERR,
ARM GAS  /tmp/ccIu4BI8.s 			page 6


  24:../../libdaisy/src/hid/audio.h ****     };
  25:../../libdaisy/src/hid/audio.h **** 
  26:../../libdaisy/src/hid/audio.h ****     /** Non-Interleaving input buffer
  27:../../libdaisy/src/hid/audio.h ****      * Buffer arranged by float[chn][sample] 
  28:../../libdaisy/src/hid/audio.h ****      * const so that the user can't modify the input
  29:../../libdaisy/src/hid/audio.h ****     */
  30:../../libdaisy/src/hid/audio.h ****     typedef const float* const* InputBuffer;
  31:../../libdaisy/src/hid/audio.h **** 
  32:../../libdaisy/src/hid/audio.h ****     /** Non-Interleaving output buffer
  33:../../libdaisy/src/hid/audio.h ****      * Arranged by float[chn][sample] 
  34:../../libdaisy/src/hid/audio.h ****     */
  35:../../libdaisy/src/hid/audio.h ****     typedef float** OutputBuffer;
  36:../../libdaisy/src/hid/audio.h **** 
  37:../../libdaisy/src/hid/audio.h ****     /** Type for a Non-Interleaving audio callback 
  38:../../libdaisy/src/hid/audio.h ****    * Non-Interleaving audio callbacks in daisy will be of this type
  39:../../libdaisy/src/hid/audio.h ****   */
  40:../../libdaisy/src/hid/audio.h ****     typedef void (*AudioCallback)(InputBuffer  in,
  41:../../libdaisy/src/hid/audio.h ****                                   OutputBuffer out,
  42:../../libdaisy/src/hid/audio.h ****                                   size_t       size);
  43:../../libdaisy/src/hid/audio.h **** 
  44:../../libdaisy/src/hid/audio.h ****     /** Interleaving Input buffer
  45:../../libdaisy/src/hid/audio.h ****      ** audio is prepared as { L0, R0, L1, R1, . . . LN, RN }]
  46:../../libdaisy/src/hid/audio.h ****      ** this is const, as the user shouldn't modify it
  47:../../libdaisy/src/hid/audio.h ****     */
  48:../../libdaisy/src/hid/audio.h ****     typedef const float* InterleavingInputBuffer;
  49:../../libdaisy/src/hid/audio.h **** 
  50:../../libdaisy/src/hid/audio.h ****     /** Interleaving Output buffer 
  51:../../libdaisy/src/hid/audio.h ****      ** audio is prepared as { L0, R0, L1, R1, . . . LN, RN }
  52:../../libdaisy/src/hid/audio.h ****     */
  53:../../libdaisy/src/hid/audio.h ****     typedef float* InterleavingOutputBuffer;
  54:../../libdaisy/src/hid/audio.h **** 
  55:../../libdaisy/src/hid/audio.h ****     /** Interleaving Audio Callback 
  56:../../libdaisy/src/hid/audio.h ****    * Interleaving audio callbacks in daisy must be of this type
  57:../../libdaisy/src/hid/audio.h ****   */
  58:../../libdaisy/src/hid/audio.h ****     typedef void (*InterleavingAudioCallback)(InterleavingInputBuffer  in,
  59:../../libdaisy/src/hid/audio.h ****                                               InterleavingOutputBuffer out,
  60:../../libdaisy/src/hid/audio.h ****                                               size_t                   size);
  61:../../libdaisy/src/hid/audio.h **** 
  62:../../libdaisy/src/hid/audio.h ****     AudioHandle() : pimpl_(nullptr) {}
  63:../../libdaisy/src/hid/audio.h ****     ~AudioHandle() {}
  56              		.loc 5 63 5 is_stmt 1 view .LVU7
  57              		.loc 5 63 5 is_stmt 0 view .LVU8
  58              	.LBE690:
  59              		.loc 1 22 19 view .LVU9
  60 0000 7047     		bx	lr
  61              		.cfi_endproc
  62              	.LFE2042:
  64              		.weak	_ZN5daisy9DaisySeedD1Ev
  65              		.thumb_set _ZN5daisy9DaisySeedD1Ev,_ZN5daisy9DaisySeedD2Ev
  66 0002 00BF     		.section	.text._Z15ProfileFunctionIXadL_ZN5daisy6LoggerILNS0_17LoggerDestinationE0EE5PrintEPKczEEJ
  67              		.align	1
  68              		.p2align 2,,3
  69              		.syntax unified
  70              		.thumb
  71              		.thumb_func
  72              		.fpu fpv5-d16
  74              	_Z15ProfileFunctionIXadL_ZN5daisy6LoggerILNS0_17LoggerDestinationE0EE5PrintEPKczEEJEEfS5_DpT0_.isra
ARM GAS  /tmp/ccIu4BI8.s 			page 7


  75              	.LFB2118:
  76              		.file 6 "Logger.cpp"
   1:Logger.cpp    **** #include <cstring>
   2:Logger.cpp    **** #include <cstdio>
   3:Logger.cpp    **** #include <cmath>
   4:Logger.cpp    **** #include "daisy_seed.h"
   5:Logger.cpp    **** 
   6:Logger.cpp    **** using namespace daisy;
   7:Logger.cpp    **** 
   8:Logger.cpp    **** static DaisySeed hw;
   9:Logger.cpp    **** 
  10:Logger.cpp    **** /** grab the internal logger configuration value LOGGER_BUFFER for verification
  11:Logger.cpp    ****  * note that the last character is the null terminator
  12:Logger.cpp    ****  * so [1 + LOGGER_BUFFER] buffer would contain LOGGER_BUFFER meaningful characters
  13:Logger.cpp    ****  */
  14:Logger.cpp    **** char test_msg1[1 + LOGGER_BUFFER + 1] = "This should really overflow";
  15:Logger.cpp    **** char test_msg2[1 + LOGGER_BUFFER]     = "This should be treated as overflow";
  16:Logger.cpp    **** char test_msg3[1 + LOGGER_BUFFER - 1] = "This should be safe for Print()";
  17:Logger.cpp    **** char test_msg4[1 + LOGGER_BUFFER - 2] = "This should be safe for Print()";
  18:Logger.cpp    **** char test_msg5[1 + LOGGER_BUFFER - 3]
  19:Logger.cpp    ****     = "This should be safe for Print() and PrintLine()";
  20:Logger.cpp    **** 
  21:Logger.cpp    **** /** append dots (.) till the end of the buffer as a visual cue
  22:Logger.cpp    ****  */
  23:Logger.cpp    **** template <size_t N>
  24:Logger.cpp    **** void fillup_msg(char (&buf)[N])
  25:Logger.cpp    **** {
  26:Logger.cpp    ****     for(size_t i = strlen(buf); i < N - 1; i++)
  27:Logger.cpp    ****     {
  28:Logger.cpp    ****         buf[i] = '.';
  29:Logger.cpp    ****     }
  30:Logger.cpp    ****     buf[N - 1] = '\0';
  31:Logger.cpp    **** }
  32:Logger.cpp    **** 
  33:Logger.cpp    **** /** fill up message for buffer overflow testing
  34:Logger.cpp    ****  */
  35:Logger.cpp    **** void prepare_messages()
  36:Logger.cpp    **** {
  37:Logger.cpp    ****     fillup_msg(test_msg1);
  38:Logger.cpp    ****     fillup_msg(test_msg2);
  39:Logger.cpp    ****     fillup_msg(test_msg3);
  40:Logger.cpp    ****     fillup_msg(test_msg4);
  41:Logger.cpp    ****     fillup_msg(test_msg5);
  42:Logger.cpp    **** }
  43:Logger.cpp    **** 
  44:Logger.cpp    **** typedef void(PrintFunc)(const char*, ...);
  45:Logger.cpp    **** 
  46:Logger.cpp    **** /** profile a single printout function
  47:Logger.cpp    ****  */
  48:Logger.cpp    **** template <PrintFunc function, typename... Va>
  49:Logger.cpp    **** float ProfileFunction(const char* format, Va... va)
  77              		.loc 6 49 7 is_stmt 1 view -0
  78              		.cfi_startproc
  79              		@ args = 0, pretend = 0, frame = 0
  80              		@ frame_needed = 0, uses_anonymous_args = 0
  81              	.LVL1:
  82              		.loc 6 49 7 is_stmt 0 view .LVU11
ARM GAS  /tmp/ccIu4BI8.s 			page 8


  83 0000 10B5     		push	{r4, lr}
  84              		.cfi_def_cfa_offset 8
  85              		.cfi_offset 4, -8
  86              		.cfi_offset 14, -4
  50:Logger.cpp    **** {
  51:Logger.cpp    ****     constexpr int32_t count = 100000;
  52:Logger.cpp    ****     uint32_t          t0    = System::GetTick();
  87              		.loc 6 52 46 view .LVU12
  88 0002 FFF7FEFF 		bl	_ZN5daisy6System7GetTickEv
  89              	.LVL2:
  90 0006 0446     		mov	r4, r0
  91              	.LVL3:
  53:Logger.cpp    ****     for(int i = 0; i < count; i++)
  92              		.loc 6 53 22 is_stmt 1 view .LVU13
  54:Logger.cpp    ****     {
  55:Logger.cpp    ****         function(format, va...);
  56:Logger.cpp    ****     }
  57:Logger.cpp    ****     uint32_t    dt = System::GetTick() - t0;
  93              		.loc 6 57 37 is_stmt 0 view .LVU14
  94 0008 FFF7FEFF 		bl	_ZN5daisy6System7GetTickEv
  95              	.LVL4:
  58:Logger.cpp    ****     const float perf
  96              		.loc 6 58 17 view .LVU15
  97 000c DFED047A 		vldr.32	s15, .L5
  57:Logger.cpp    ****     const float perf
  98              		.loc 6 57 17 view .LVU16
  99 0010 001B     		subs	r0, r0, r4
 100              	.LVL5:
  59:Logger.cpp    ****         = (float)dt
  60:Logger.cpp    ****           / (200 * count); // using secret knowledge about timer frequency...
 101              		.loc 6 60 11 view .LVU17
 102 0012 07EE100A 		vmov	s14, r0	@ int
 103 0016 B8EE470A 		vcvt.f32.u32	s0, s14
  61:Logger.cpp    ****     return perf;
  62:Logger.cpp    **** }
 104              		.loc 6 62 1 view .LVU18
 105 001a 80EE270A 		vdiv.f32	s0, s0, s15
 106              	.LVL6:
 107              		.loc 6 62 1 view .LVU19
 108 001e 10BD     		pop	{r4, pc}
 109              	.LVL7:
 110              	.L6:
 111              		.loc 6 62 1 view .LVU20
 112              		.align	2
 113              	.L5:
 114 0020 8096984B 		.word	1268291200
 115              		.cfi_endproc
 116              	.LFE2118:
 118              		.thumb_set _Z15ProfileFunctionIXadL_ZN5daisy6LoggerILNS0_17LoggerDestinationE0EE9PrintLineEPKczEEJ
 119              		.thumb_set _Z15ProfileFunctionIXadL_ZN5daisy6LoggerILNS0_17LoggerDestinationE0EE9PrintLineEPKczEEJ
 120              		.thumb_set _Z15ProfileFunctionIXadL_ZN5daisy6LoggerILNS0_17LoggerDestinationE0EE9PrintLineEPKczEEJ
 121              		.thumb_set _Z15ProfileFunctionIXadL_ZN5daisy6LoggerILNS0_17LoggerDestinationE0EE9PrintLineEPKczEEJ
 122              		.thumb_set _Z15ProfileFunctionIXadL_ZN5daisy6LoggerILNS0_17LoggerDestinationE0EE5PrintEPKczEEJciiE
 123              		.thumb_set _Z15ProfileFunctionIXadL_ZN5daisy6LoggerILNS0_17LoggerDestinationE0EE5PrintEPKczEEJfEEf
 124              		.thumb_set _Z15ProfileFunctionIXadL_ZN5daisy6LoggerILNS0_17LoggerDestinationE0EE5PrintEPKczEEJiEEf
 125              		.section	.text._Z16prepare_messagesv,"ax",%progbits
 126              		.align	1
ARM GAS  /tmp/ccIu4BI8.s 			page 9


 127              		.p2align 2,,3
 128              		.global	_Z16prepare_messagesv
 129              		.syntax unified
 130              		.thumb
 131              		.thumb_func
 132              		.fpu fpv5-d16
 134              	_Z16prepare_messagesv:
 135              	.LFB2048:
  36:Logger.cpp    ****     fillup_msg(test_msg1);
 136              		.loc 6 36 1 is_stmt 1 view -0
 137              		.cfi_startproc
 138              		@ args = 0, pretend = 0, frame = 0
 139              		@ frame_needed = 0, uses_anonymous_args = 0
  37:Logger.cpp    ****     fillup_msg(test_msg2);
 140              		.loc 6 37 5 view .LVU22
 141              	.LVL8:
 142              	.LBB691:
 143              	.LBI691:
  24:Logger.cpp    **** {
 144              		.loc 6 24 6 view .LVU23
 145              	.LBE691:
  36:Logger.cpp    ****     fillup_msg(test_msg1);
 146              		.loc 6 36 1 is_stmt 0 view .LVU24
 147 0000 38B5     		push	{r3, r4, r5, lr}
 148              		.cfi_def_cfa_offset 16
 149              		.cfi_offset 3, -16
 150              		.cfi_offset 4, -12
 151              		.cfi_offset 5, -8
 152              		.cfi_offset 14, -4
 153              	.LBB696:
 154              	.LBB692:
 155              	.LBB693:
  26:Logger.cpp    ****     {
 156              		.loc 6 26 26 view .LVU25
 157 0002 2D4C     		ldr	r4, .L39
 158 0004 2046     		mov	r0, r4
 159 0006 FFF7FEFF 		bl	strlen
 160              	.LVL9:
  26:Logger.cpp    ****     {
 161              		.loc 6 26 35 is_stmt 1 view .LVU26
 162 000a 8128     		cmp	r0, #129
 163 000c 08D0     		beq	.L8
 164 000e 0138     		subs	r0, r0, #1
 165              	.LVL10:
  26:Logger.cpp    ****     {
 166              		.loc 6 26 35 is_stmt 0 view .LVU27
 167 0010 04F18001 		add	r1, r4, #128
 168 0014 2318     		adds	r3, r4, r0
 169              	.LVL11:
 170              	.L9:
  28:Logger.cpp    ****     }
 171              		.loc 6 28 9 view .LVU28
 172 0016 2E22     		movs	r2, #46
 173 0018 03F8012F 		strb	r2, [r3, #1]!
 174              	.LVL12:
  26:Logger.cpp    ****     {
 175              		.loc 6 26 5 is_stmt 1 view .LVU29
ARM GAS  /tmp/ccIu4BI8.s 			page 10


  26:Logger.cpp    ****     {
 176              		.loc 6 26 35 view .LVU30
 177 001c 8B42     		cmp	r3, r1
 178 001e FAD1     		bne	.L9
 179              	.LVL13:
 180              	.L8:
  26:Logger.cpp    ****     {
 181              		.loc 6 26 35 is_stmt 0 view .LVU31
 182              	.LBE693:
 183              	.LBE692:
 184              	.LBE696:
 185              	.LBB697:
 186              	.LBB698:
 187              	.LBB699:
  26:Logger.cpp    ****     {
 188              		.loc 6 26 26 view .LVU32
 189 0020 264D     		ldr	r5, .L39+4
 190              	.LBE699:
 191              	.LBE698:
 192              	.LBE697:
 193              	.LBB706:
 194              	.LBB694:
  30:Logger.cpp    **** }
 195              		.loc 6 30 5 view .LVU33
 196 0022 0023     		movs	r3, #0
 197              	.LBE694:
 198              	.LBE706:
 199              	.LBB707:
 200              	.LBB702:
 201              	.LBB700:
  26:Logger.cpp    ****     {
 202              		.loc 6 26 26 view .LVU34
 203 0024 2846     		mov	r0, r5
 204              	.LBE700:
 205              	.LBE702:
 206              	.LBE707:
 207              	.LBB708:
 208              	.LBB695:
  30:Logger.cpp    **** }
 209              		.loc 6 30 5 view .LVU35
 210 0026 84F88130 		strb	r3, [r4, #129]
 211              	.LVL14:
  30:Logger.cpp    **** }
 212              		.loc 6 30 5 view .LVU36
 213              	.LBE695:
 214              	.LBE708:
  38:Logger.cpp    ****     fillup_msg(test_msg3);
 215              		.loc 6 38 5 is_stmt 1 view .LVU37
 216              	.LBB709:
 217              	.LBI697:
  24:Logger.cpp    **** {
 218              		.loc 6 24 6 view .LVU38
 219              	.LBB703:
 220              	.LBB701:
  26:Logger.cpp    ****     {
 221              		.loc 6 26 26 is_stmt 0 view .LVU39
 222 002a FFF7FEFF 		bl	strlen
ARM GAS  /tmp/ccIu4BI8.s 			page 11


 223              	.LVL15:
  26:Logger.cpp    ****     {
 224              		.loc 6 26 35 is_stmt 1 view .LVU40
 225 002e 8028     		cmp	r0, #128
 226 0030 08D0     		beq	.L10
 227 0032 0138     		subs	r0, r0, #1
 228              	.LVL16:
  26:Logger.cpp    ****     {
 229              		.loc 6 26 35 is_stmt 0 view .LVU41
 230 0034 05F17F01 		add	r1, r5, #127
 231 0038 2B18     		adds	r3, r5, r0
 232              	.LVL17:
 233              	.L11:
  28:Logger.cpp    ****     }
 234              		.loc 6 28 9 view .LVU42
 235 003a 2E22     		movs	r2, #46
 236 003c 03F8012F 		strb	r2, [r3, #1]!
 237              	.LVL18:
  26:Logger.cpp    ****     {
 238              		.loc 6 26 5 is_stmt 1 view .LVU43
  26:Logger.cpp    ****     {
 239              		.loc 6 26 35 view .LVU44
 240 0040 8B42     		cmp	r3, r1
 241 0042 FAD1     		bne	.L11
 242              	.LVL19:
 243              	.L10:
  26:Logger.cpp    ****     {
 244              		.loc 6 26 35 is_stmt 0 view .LVU45
 245              	.LBE701:
 246              	.LBE703:
 247              	.LBE709:
 248              	.LBB710:
 249              	.LBB711:
 250              	.LBB712:
  26:Logger.cpp    ****     {
 251              		.loc 6 26 26 view .LVU46
 252 0044 1E4C     		ldr	r4, .L39+8
 253              	.LBE712:
 254              	.LBE711:
 255              	.LBE710:
 256              	.LBB719:
 257              	.LBB704:
  30:Logger.cpp    **** }
 258              		.loc 6 30 5 view .LVU47
 259 0046 0023     		movs	r3, #0
 260              	.LBE704:
 261              	.LBE719:
 262              	.LBB720:
 263              	.LBB715:
 264              	.LBB713:
  26:Logger.cpp    ****     {
 265              		.loc 6 26 26 view .LVU48
 266 0048 2046     		mov	r0, r4
 267              	.LBE713:
 268              	.LBE715:
 269              	.LBE720:
 270              	.LBB721:
ARM GAS  /tmp/ccIu4BI8.s 			page 12


 271              	.LBB705:
  30:Logger.cpp    **** }
 272              		.loc 6 30 5 view .LVU49
 273 004a 85F88030 		strb	r3, [r5, #128]
 274              	.LVL20:
  30:Logger.cpp    **** }
 275              		.loc 6 30 5 view .LVU50
 276              	.LBE705:
 277              	.LBE721:
  39:Logger.cpp    ****     fillup_msg(test_msg4);
 278              		.loc 6 39 5 is_stmt 1 view .LVU51
 279              	.LBB722:
 280              	.LBI710:
  24:Logger.cpp    **** {
 281              		.loc 6 24 6 view .LVU52
 282              	.LBB716:
 283              	.LBB714:
  26:Logger.cpp    ****     {
 284              		.loc 6 26 26 is_stmt 0 view .LVU53
 285 004e FFF7FEFF 		bl	strlen
 286              	.LVL21:
  26:Logger.cpp    ****     {
 287              		.loc 6 26 35 is_stmt 1 view .LVU54
 288 0052 7F28     		cmp	r0, #127
 289 0054 08D0     		beq	.L12
 290 0056 0138     		subs	r0, r0, #1
 291              	.LVL22:
  26:Logger.cpp    ****     {
 292              		.loc 6 26 35 is_stmt 0 view .LVU55
 293 0058 04F17E01 		add	r1, r4, #126
 294 005c 2318     		adds	r3, r4, r0
 295              	.LVL23:
 296              	.L13:
  28:Logger.cpp    ****     }
 297              		.loc 6 28 9 view .LVU56
 298 005e 2E22     		movs	r2, #46
 299 0060 03F8012F 		strb	r2, [r3, #1]!
 300              	.LVL24:
  26:Logger.cpp    ****     {
 301              		.loc 6 26 5 is_stmt 1 view .LVU57
  26:Logger.cpp    ****     {
 302              		.loc 6 26 35 view .LVU58
 303 0064 8B42     		cmp	r3, r1
 304 0066 FAD1     		bne	.L13
 305              	.LVL25:
 306              	.L12:
  26:Logger.cpp    ****     {
 307              		.loc 6 26 35 is_stmt 0 view .LVU59
 308              	.LBE714:
 309              	.LBE716:
 310              	.LBE722:
 311              	.LBB723:
 312              	.LBB724:
 313              	.LBB725:
  26:Logger.cpp    ****     {
 314              		.loc 6 26 26 view .LVU60
 315 0068 164D     		ldr	r5, .L39+12
ARM GAS  /tmp/ccIu4BI8.s 			page 13


 316              	.LBE725:
 317              	.LBE724:
 318              	.LBE723:
 319              	.LBB732:
 320              	.LBB717:
  30:Logger.cpp    **** }
 321              		.loc 6 30 5 view .LVU61
 322 006a 0023     		movs	r3, #0
 323              	.LBE717:
 324              	.LBE732:
 325              	.LBB733:
 326              	.LBB728:
 327              	.LBB726:
  26:Logger.cpp    ****     {
 328              		.loc 6 26 26 view .LVU62
 329 006c 2846     		mov	r0, r5
 330              	.LBE726:
 331              	.LBE728:
 332              	.LBE733:
 333              	.LBB734:
 334              	.LBB718:
  30:Logger.cpp    **** }
 335              		.loc 6 30 5 view .LVU63
 336 006e 84F87F30 		strb	r3, [r4, #127]
 337              	.LVL26:
  30:Logger.cpp    **** }
 338              		.loc 6 30 5 view .LVU64
 339              	.LBE718:
 340              	.LBE734:
  40:Logger.cpp    ****     fillup_msg(test_msg5);
 341              		.loc 6 40 5 is_stmt 1 view .LVU65
 342              	.LBB735:
 343              	.LBI723:
  24:Logger.cpp    **** {
 344              		.loc 6 24 6 view .LVU66
 345              	.LBB729:
 346              	.LBB727:
  26:Logger.cpp    ****     {
 347              		.loc 6 26 26 is_stmt 0 view .LVU67
 348 0072 FFF7FEFF 		bl	strlen
 349              	.LVL27:
  26:Logger.cpp    ****     {
 350              		.loc 6 26 35 is_stmt 1 view .LVU68
 351 0076 7E28     		cmp	r0, #126
 352 0078 08D0     		beq	.L14
 353 007a 0138     		subs	r0, r0, #1
 354              	.LVL28:
  26:Logger.cpp    ****     {
 355              		.loc 6 26 35 is_stmt 0 view .LVU69
 356 007c 05F17D01 		add	r1, r5, #125
 357 0080 2B18     		adds	r3, r5, r0
 358              	.LVL29:
 359              	.L15:
  28:Logger.cpp    ****     }
 360              		.loc 6 28 9 view .LVU70
 361 0082 2E22     		movs	r2, #46
 362 0084 03F8012F 		strb	r2, [r3, #1]!
ARM GAS  /tmp/ccIu4BI8.s 			page 14


 363              	.LVL30:
  26:Logger.cpp    ****     {
 364              		.loc 6 26 5 is_stmt 1 view .LVU71
  26:Logger.cpp    ****     {
 365              		.loc 6 26 35 view .LVU72
 366 0088 8B42     		cmp	r3, r1
 367 008a FAD1     		bne	.L15
 368              	.LVL31:
 369              	.L14:
  26:Logger.cpp    ****     {
 370              		.loc 6 26 35 is_stmt 0 view .LVU73
 371              	.LBE727:
 372              	.LBE729:
 373              	.LBE735:
 374              	.LBB736:
 375              	.LBB737:
 376              	.LBB738:
  26:Logger.cpp    ****     {
 377              		.loc 6 26 26 view .LVU74
 378 008c 0E4C     		ldr	r4, .L39+16
 379              	.LBE738:
 380              	.LBE737:
 381              	.LBE736:
 382              	.LBB743:
 383              	.LBB730:
  30:Logger.cpp    **** }
 384              		.loc 6 30 5 view .LVU75
 385 008e 0023     		movs	r3, #0
 386              	.LBE730:
 387              	.LBE743:
 388              	.LBB744:
 389              	.LBB741:
 390              	.LBB739:
  26:Logger.cpp    ****     {
 391              		.loc 6 26 26 view .LVU76
 392 0090 2046     		mov	r0, r4
 393              	.LBE739:
 394              	.LBE741:
 395              	.LBE744:
 396              	.LBB745:
 397              	.LBB731:
  30:Logger.cpp    **** }
 398              		.loc 6 30 5 view .LVU77
 399 0092 85F87E30 		strb	r3, [r5, #126]
 400              	.LVL32:
  30:Logger.cpp    **** }
 401              		.loc 6 30 5 view .LVU78
 402              	.LBE731:
 403              	.LBE745:
  41:Logger.cpp    **** }
 404              		.loc 6 41 5 is_stmt 1 view .LVU79
 405              	.LBB746:
 406              	.LBI736:
  24:Logger.cpp    **** {
 407              		.loc 6 24 6 view .LVU80
 408              	.LBB742:
 409              	.LBB740:
ARM GAS  /tmp/ccIu4BI8.s 			page 15


  26:Logger.cpp    ****     {
 410              		.loc 6 26 26 is_stmt 0 view .LVU81
 411 0096 FFF7FEFF 		bl	strlen
 412              	.LVL33:
  26:Logger.cpp    ****     {
 413              		.loc 6 26 35 is_stmt 1 view .LVU82
 414 009a 7D28     		cmp	r0, #125
 415 009c 08D0     		beq	.L16
 416 009e 0138     		subs	r0, r0, #1
 417              	.LVL34:
  26:Logger.cpp    ****     {
 418              		.loc 6 26 35 is_stmt 0 view .LVU83
 419 00a0 04F17C01 		add	r1, r4, #124
 420 00a4 2318     		adds	r3, r4, r0
 421              	.LVL35:
 422              	.L17:
  28:Logger.cpp    ****     }
 423              		.loc 6 28 9 view .LVU84
 424 00a6 2E22     		movs	r2, #46
 425 00a8 03F8012F 		strb	r2, [r3, #1]!
 426              	.LVL36:
  26:Logger.cpp    ****     {
 427              		.loc 6 26 5 is_stmt 1 view .LVU85
  26:Logger.cpp    ****     {
 428              		.loc 6 26 35 view .LVU86
 429 00ac 9942     		cmp	r1, r3
 430 00ae FAD1     		bne	.L17
 431              	.LVL37:
 432              	.L16:
  26:Logger.cpp    ****     {
 433              		.loc 6 26 35 is_stmt 0 view .LVU87
 434              	.LBE740:
  30:Logger.cpp    **** }
 435              		.loc 6 30 5 view .LVU88
 436 00b0 0023     		movs	r3, #0
 437 00b2 84F87D30 		strb	r3, [r4, #125]
 438              	.LVL38:
  30:Logger.cpp    **** }
 439              		.loc 6 30 5 view .LVU89
 440              	.LBE742:
 441              	.LBE746:
  42:Logger.cpp    **** 
 442              		.loc 6 42 1 view .LVU90
 443 00b6 38BD     		pop	{r3, r4, r5, pc}
 444              	.L40:
 445              		.align	2
 446              	.L39:
 447 00b8 00000000 		.word	.LANCHOR0
 448 00bc 00000000 		.word	.LANCHOR1
 449 00c0 00000000 		.word	.LANCHOR2
 450 00c4 00000000 		.word	.LANCHOR3
 451 00c8 00000000 		.word	.LANCHOR4
 452              		.cfi_endproc
 453              	.LFE2048:
 455              		.section	.rodata._Z12VerifyFloatsv.str1.4,"aMS",%progbits,1
 456              		.align	2
 457              	.LC0:
ARM GAS  /tmp/ccIu4BI8.s 			page 16


 458 0000 50415353 		.ascii	"PASS\000"
 458      00
 459 0005 000000   		.align	2
 460              	.LC1:
 461 0008 4641494C 		.ascii	"FAIL\000"
 461      00
 462 000d 000000   		.align	2
 463              	.LC2:
 464 0010 25632564 		.ascii	"%c%d.%03d\000"
 464      2E253033 
 464      6400
 465 001a 0000     		.align	2
 466              	.LC3:
 467 001c 252E3366 		.ascii	"%.3f\000"
 467      00
 468 0021 000000   		.align	2
 469              	.LC4:
 470 0024 6D69736D 		.ascii	"mismatch: ref = %s, dsy = %s, float = %.6f\000"
 470      61746368 
 470      3A207265 
 470      66203D20 
 470      25732C20 
 471 004f 00       		.align	2
 472              	.LC5:
 473 0050 464C545F 		.ascii	"FLT_FMT(3)/FLT_VAR(3) verification: %s\000"
 473      464D5428 
 473      33292F46 
 473      4C545F56 
 473      41522833 
 474              		.section	.text._Z12VerifyFloatsv,"ax",%progbits
 475              		.align	1
 476              		.p2align 2,,3
 477              		.global	_Z12VerifyFloatsv
 478              		.syntax unified
 479              		.thumb
 480              		.thumb_func
 481              		.fpu fpv5-d16
 483              	_Z12VerifyFloatsv:
 484              	.LFB2052:
  63:Logger.cpp    **** 
  64:Logger.cpp    **** /** Run all profiling tests for a function 
  65:Logger.cpp    ****  */
  66:Logger.cpp    **** template <PrintFunc function>
  67:Logger.cpp    **** void ProfilePrint(const char* class_caption, const char* func_caption)
  68:Logger.cpp    **** {
  69:Logger.cpp    ****     const float print_0 = ProfileFunction<function>("");
  70:Logger.cpp    ****     const float print_1 = ProfileFunction<function>("a");
  71:Logger.cpp    ****     const float print_36
  72:Logger.cpp    ****         = ProfileFunction<function>("abcdefghijklmnopqrstuvwxyz0123456789");
  73:Logger.cpp    ****     const float print_d = ProfileFunction<function>("%d", 123);
  74:Logger.cpp    ****     const float print_u = ProfileFunction<function>("%u", 123);
  75:Logger.cpp    ****     const float print_f = ProfileFunction<function>("%.3f", 123.0f);
  76:Logger.cpp    ****     const float print_F1
  77:Logger.cpp    ****         = ProfileFunction<function>(FLT_FMT(1), FLT_VAR(1, 123.0f));
  78:Logger.cpp    ****     const float print_F2
  79:Logger.cpp    ****         = ProfileFunction<function>(FLT_FMT(2), FLT_VAR(2, 123.0f));
  80:Logger.cpp    ****     const float print_F3
ARM GAS  /tmp/ccIu4BI8.s 			page 17


  81:Logger.cpp    ****         = ProfileFunction<function>(FLT_FMT3, FLT_VAR3(123.0f));
  82:Logger.cpp    ****     const float print_F4
  83:Logger.cpp    ****         = ProfileFunction<function>(FLT_FMT(4), FLT_VAR(4, 123.0f));
  84:Logger.cpp    **** 
  85:Logger.cpp    ****     /* linear fit */
  86:Logger.cpp    ****     const float slope     = (print_36 - print_1) / (36 - 1);
  87:Logger.cpp    ****     const float intercept = print_1 - slope;
  88:Logger.cpp    **** 
  89:Logger.cpp    ****     hw.PrintLine("%s - %s (  empty string):" FLT_FMT3 " us/call",
  90:Logger.cpp    ****                  class_caption,
  91:Logger.cpp    ****                  func_caption,
  92:Logger.cpp    ****                  FLT_VAR3(print_0));
  93:Logger.cpp    ****     hw.PrintLine("%s - %s (   text string):" FLT_FMT3 " us/call +" FLT_FMT3
  94:Logger.cpp    ****                  " us/char",
  95:Logger.cpp    ****                  class_caption,
  96:Logger.cpp    ****                  func_caption,
  97:Logger.cpp    ****                  FLT_VAR3(intercept),
  98:Logger.cpp    ****                  FLT_VAR3(slope));
  99:Logger.cpp    ****     hw.PrintLine("%s - %s ( integer value):" FLT_FMT3 " us/call",
 100:Logger.cpp    ****                  class_caption,
 101:Logger.cpp    ****                  func_caption,
 102:Logger.cpp    ****                  FLT_VAR3(print_d));
 103:Logger.cpp    ****     hw.PrintLine("%s - %s (unsigned value):" FLT_FMT3 " us/call",
 104:Logger.cpp    ****                  class_caption,
 105:Logger.cpp    ****                  func_caption,
 106:Logger.cpp    ****                  FLT_VAR3(print_u));
 107:Logger.cpp    ****     hw.PrintLine("%s - %s ( float.3 value):" FLT_FMT3 " us/call",
 108:Logger.cpp    ****                  class_caption,
 109:Logger.cpp    ****                  func_caption,
 110:Logger.cpp    ****                  FLT_VAR3(print_f));
 111:Logger.cpp    ****     hw.PrintLine("%s - %s (FLT_VAR1 value):" FLT_FMT3 " us/call",
 112:Logger.cpp    ****                  class_caption,
 113:Logger.cpp    ****                  func_caption,
 114:Logger.cpp    ****                  FLT_VAR3(print_F1));
 115:Logger.cpp    ****     hw.PrintLine("%s - %s (FLT_VAR2 value):" FLT_FMT3 " us/call",
 116:Logger.cpp    ****                  class_caption,
 117:Logger.cpp    ****                  func_caption,
 118:Logger.cpp    ****                  FLT_VAR3(print_F2));
 119:Logger.cpp    ****     hw.PrintLine("%s - %s (FLT_VAR3 value):" FLT_FMT3 " us/call",
 120:Logger.cpp    ****                  class_caption,
 121:Logger.cpp    ****                  func_caption,
 122:Logger.cpp    ****                  FLT_VAR3(print_F3));
 123:Logger.cpp    ****     hw.PrintLine("%s - %s (FLT_VAR4 value):" FLT_FMT3 " us/call",
 124:Logger.cpp    ****                  class_caption,
 125:Logger.cpp    ****                  func_caption,
 126:Logger.cpp    ****                  FLT_VAR3(print_F4));
 127:Logger.cpp    **** }
 128:Logger.cpp    **** 
 129:Logger.cpp    **** /** Profile the whole destination
 130:Logger.cpp    ****  */
 131:Logger.cpp    **** template <LoggerDestination dest>
 132:Logger.cpp    **** void ProfileDest(const char* class_caption)
 133:Logger.cpp    **** {
 134:Logger.cpp    ****     Logger<dest>::StartLog(false);
 135:Logger.cpp    ****     ProfilePrint<Logger<dest>::Print>(class_caption, "Print     ");
 136:Logger.cpp    ****     ProfilePrint<Logger<dest>::PrintLine>(class_caption, "PrintLine ");
 137:Logger.cpp    **** }
ARM GAS  /tmp/ccIu4BI8.s 			page 18


 138:Logger.cpp    **** /** Verify FLT_FMT/FLT_VAR accuracy
 139:Logger.cpp    ****  */
 140:Logger.cpp    **** void VerifyFloats()
 141:Logger.cpp    **** {
 485              		.loc 6 141 1 is_stmt 1 view -0
 486              		.cfi_startproc
 487              		@ args = 0, pretend = 0, frame = 64
 488              		@ frame_needed = 0, uses_anonymous_args = 0
 142:Logger.cpp    ****     char ref[32];
 489              		.loc 6 142 5 view .LVU92
 143:Logger.cpp    ****     char tst[32];
 490              		.loc 6 143 5 view .LVU93
 144:Logger.cpp    ****     bool result = true;
 491              		.loc 6 144 5 view .LVU94
 492              	.LVL39:
 145:Logger.cpp    ****     for(float f = -100.0; f < 100.0; f += 0.001)
 493              		.loc 6 145 5 view .LVU95
 494              	.LBB747:
 495              		.loc 6 145 29 view .LVU96
 496              	.LBE747:
 141:Logger.cpp    ****     char ref[32];
 497              		.loc 6 141 1 is_stmt 0 view .LVU97
 498 0000 10B5     		push	{r4, lr}
 499              		.cfi_def_cfa_offset 8
 500              		.cfi_offset 4, -8
 501              		.cfi_offset 14, -4
 502              	.LBB760:
 503              	.LBB748:
 146:Logger.cpp    ****     {
 147:Logger.cpp    ****         sprintf(tst, FLT_FMT(3), FLT_VAR(3, f));
 504              		.loc 6 147 16 view .LVU98
 505 0002 2D22     		movs	r2, #45
 506              	.LBE748:
 507              	.LBE760:
 144:Logger.cpp    ****     for(float f = -100.0; f < 100.0; f += 0.001)
 508              		.loc 6 144 10 view .LVU99
 509 0004 0124     		movs	r4, #1
 141:Logger.cpp    ****     char ref[32];
 510              		.loc 6 141 1 view .LVU100
 511 0006 2DED028B 		vpush.64	{d8}
 512              		.cfi_def_cfa_offset 16
 513              		.cfi_offset 80, -16
 514              		.cfi_offset 81, -12
 515              	.LBB761:
 145:Logger.cpp    ****     {
 516              		.loc 6 145 15 view .LVU101
 517 000a 9FED338A 		vldr.32	s16, .L53+16
 518              	.LBE761:
 141:Logger.cpp    ****     char ref[32];
 519              		.loc 6 141 1 view .LVU102
 520 000e 92B0     		sub	sp, sp, #72
 521              		.cfi_def_cfa_offset 88
 522 0010 13E0     		b	.L42
 523              	.LVL40:
 524              	.L44:
 525              	.LBB762:
 526              	.LBB757:
ARM GAS  /tmp/ccIu4BI8.s 			page 19


 527              		.loc 6 147 9 is_stmt 1 discriminator 2 view .LVU103
 528              	.LBE757:
 145:Logger.cpp    ****     {
 529              		.loc 6 145 5 discriminator 2 view .LVU104
 145:Logger.cpp    ****     {
 530              		.loc 6 145 40 is_stmt 0 discriminator 2 view .LVU105
 531 0012 9FED2D6B 		vldr.64	d6, .L53
 145:Logger.cpp    ****     {
 532              		.loc 6 145 29 discriminator 2 view .LVU106
 533 0016 DFED317A 		vldr.32	s15, .L53+20
 145:Logger.cpp    ****     {
 534              		.loc 6 145 40 discriminator 2 view .LVU107
 535 001a 38EE068B 		vadd.f64	d8, d8, d6
 536 001e B7EEC88B 		vcvt.f32.f64	s16, d8
 537              	.LVL41:
 145:Logger.cpp    ****     {
 538              		.loc 6 145 29 is_stmt 1 discriminator 2 view .LVU108
 539 0022 B4EEE78A 		vcmpe.f32	s16, s15
 540 0026 F1EE10FA 		vmrs	APSR_nzcv, FPSCR
 541 002a 3ED5     		bpl	.L52
 542              	.LBB758:
 543              		.loc 6 147 16 is_stmt 0 view .LVU109
 544 002c B5EEC08A 		vcmpe.f32	s16, #0
 545 0030 F1EE10FA 		vmrs	APSR_nzcv, FPSCR
 546 0034 4CBF     		ite	mi
 547 0036 2D22     		movmi	r2, #45
 548 0038 2022     		movpl	r2, #32
 549              	.LVL42:
 550              	.L42:
 551              	.LBB749:
 552              	.LBI749:
 553              		.file 7 "/usr/include/newlib/c++/9.2.1/bits/std_abs.h"
   1:/usr/include/newlib/c++/9.2.1/bits/std_abs.h **** // -*- C++ -*- C library enhancements header.
   2:/usr/include/newlib/c++/9.2.1/bits/std_abs.h **** 
   3:/usr/include/newlib/c++/9.2.1/bits/std_abs.h **** // Copyright (C) 2016-2019 Free Software Foundation, Inc.
   4:/usr/include/newlib/c++/9.2.1/bits/std_abs.h **** //
   5:/usr/include/newlib/c++/9.2.1/bits/std_abs.h **** // This file is part of the GNU ISO C++ Library.  This library is free
   6:/usr/include/newlib/c++/9.2.1/bits/std_abs.h **** // software; you can redistribute it and/or modify it under the
   7:/usr/include/newlib/c++/9.2.1/bits/std_abs.h **** // terms of the GNU General Public License as published by the
   8:/usr/include/newlib/c++/9.2.1/bits/std_abs.h **** // Free Software Foundation; either version 3, or (at your option)
   9:/usr/include/newlib/c++/9.2.1/bits/std_abs.h **** // any later version.
  10:/usr/include/newlib/c++/9.2.1/bits/std_abs.h **** 
  11:/usr/include/newlib/c++/9.2.1/bits/std_abs.h **** // This library is distributed in the hope that it will be useful,
  12:/usr/include/newlib/c++/9.2.1/bits/std_abs.h **** // but WITHOUT ANY WARRANTY; without even the implied warranty of
  13:/usr/include/newlib/c++/9.2.1/bits/std_abs.h **** // MERCHANTABILITY or FITNESS FOR A PARTICULAR PURPOSE.  See the
  14:/usr/include/newlib/c++/9.2.1/bits/std_abs.h **** // GNU General Public License for more details.
  15:/usr/include/newlib/c++/9.2.1/bits/std_abs.h **** 
  16:/usr/include/newlib/c++/9.2.1/bits/std_abs.h **** // Under Section 7 of GPL version 3, you are granted additional
  17:/usr/include/newlib/c++/9.2.1/bits/std_abs.h **** // permissions described in the GCC Runtime Library Exception, version
  18:/usr/include/newlib/c++/9.2.1/bits/std_abs.h **** // 3.1, as published by the Free Software Foundation.
  19:/usr/include/newlib/c++/9.2.1/bits/std_abs.h **** 
  20:/usr/include/newlib/c++/9.2.1/bits/std_abs.h **** // You should have received a copy of the GNU General Public License and
  21:/usr/include/newlib/c++/9.2.1/bits/std_abs.h **** // a copy of the GCC Runtime Library Exception along with this program;
  22:/usr/include/newlib/c++/9.2.1/bits/std_abs.h **** // see the files COPYING3 and COPYING.RUNTIME respectively.  If not, see
  23:/usr/include/newlib/c++/9.2.1/bits/std_abs.h **** // <http://www.gnu.org/licenses/>.
  24:/usr/include/newlib/c++/9.2.1/bits/std_abs.h **** 
  25:/usr/include/newlib/c++/9.2.1/bits/std_abs.h **** /** @file include/bits/std_abs.h
ARM GAS  /tmp/ccIu4BI8.s 			page 20


  26:/usr/include/newlib/c++/9.2.1/bits/std_abs.h ****  *  This is an internal header file, included by other library headers.
  27:/usr/include/newlib/c++/9.2.1/bits/std_abs.h ****  *  Do not attempt to use it directly. @headername{cmath, cstdlib}
  28:/usr/include/newlib/c++/9.2.1/bits/std_abs.h ****  */
  29:/usr/include/newlib/c++/9.2.1/bits/std_abs.h **** 
  30:/usr/include/newlib/c++/9.2.1/bits/std_abs.h **** #ifndef _GLIBCXX_BITS_STD_ABS_H
  31:/usr/include/newlib/c++/9.2.1/bits/std_abs.h **** #define _GLIBCXX_BITS_STD_ABS_H
  32:/usr/include/newlib/c++/9.2.1/bits/std_abs.h **** 
  33:/usr/include/newlib/c++/9.2.1/bits/std_abs.h **** #pragma GCC system_header
  34:/usr/include/newlib/c++/9.2.1/bits/std_abs.h **** 
  35:/usr/include/newlib/c++/9.2.1/bits/std_abs.h **** #include <bits/c++config.h>
  36:/usr/include/newlib/c++/9.2.1/bits/std_abs.h **** 
  37:/usr/include/newlib/c++/9.2.1/bits/std_abs.h **** #define _GLIBCXX_INCLUDE_NEXT_C_HEADERS
  38:/usr/include/newlib/c++/9.2.1/bits/std_abs.h **** #include_next <stdlib.h>
  39:/usr/include/newlib/c++/9.2.1/bits/std_abs.h **** #ifdef __CORRECT_ISO_CPP_MATH_H_PROTO
  40:/usr/include/newlib/c++/9.2.1/bits/std_abs.h **** # include_next <math.h>
  41:/usr/include/newlib/c++/9.2.1/bits/std_abs.h **** #endif
  42:/usr/include/newlib/c++/9.2.1/bits/std_abs.h **** #undef _GLIBCXX_INCLUDE_NEXT_C_HEADERS
  43:/usr/include/newlib/c++/9.2.1/bits/std_abs.h **** 
  44:/usr/include/newlib/c++/9.2.1/bits/std_abs.h **** #undef abs
  45:/usr/include/newlib/c++/9.2.1/bits/std_abs.h **** 
  46:/usr/include/newlib/c++/9.2.1/bits/std_abs.h **** extern "C++"
  47:/usr/include/newlib/c++/9.2.1/bits/std_abs.h **** {
  48:/usr/include/newlib/c++/9.2.1/bits/std_abs.h **** namespace std _GLIBCXX_VISIBILITY(default)
  49:/usr/include/newlib/c++/9.2.1/bits/std_abs.h **** {
  50:/usr/include/newlib/c++/9.2.1/bits/std_abs.h **** _GLIBCXX_BEGIN_NAMESPACE_VERSION
  51:/usr/include/newlib/c++/9.2.1/bits/std_abs.h **** 
  52:/usr/include/newlib/c++/9.2.1/bits/std_abs.h ****   using ::abs;
  53:/usr/include/newlib/c++/9.2.1/bits/std_abs.h **** 
  54:/usr/include/newlib/c++/9.2.1/bits/std_abs.h **** #ifndef __CORRECT_ISO_CPP_STDLIB_H_PROTO
  55:/usr/include/newlib/c++/9.2.1/bits/std_abs.h ****   inline long
  56:/usr/include/newlib/c++/9.2.1/bits/std_abs.h ****   abs(long __i) { return __builtin_labs(__i); }
  57:/usr/include/newlib/c++/9.2.1/bits/std_abs.h **** #endif
  58:/usr/include/newlib/c++/9.2.1/bits/std_abs.h **** 
  59:/usr/include/newlib/c++/9.2.1/bits/std_abs.h **** #ifdef _GLIBCXX_USE_LONG_LONG
  60:/usr/include/newlib/c++/9.2.1/bits/std_abs.h ****   inline long long
  61:/usr/include/newlib/c++/9.2.1/bits/std_abs.h ****   abs(long long __x) { return __builtin_llabs (__x); }
  62:/usr/include/newlib/c++/9.2.1/bits/std_abs.h **** #endif
  63:/usr/include/newlib/c++/9.2.1/bits/std_abs.h **** 
  64:/usr/include/newlib/c++/9.2.1/bits/std_abs.h **** // _GLIBCXX_RESOLVE_LIB_DEFECTS
  65:/usr/include/newlib/c++/9.2.1/bits/std_abs.h **** // 2192. Validity and return type of std::abs(0u) is unclear
  66:/usr/include/newlib/c++/9.2.1/bits/std_abs.h **** // 2294. <cstdlib> should declare abs(double)
  67:/usr/include/newlib/c++/9.2.1/bits/std_abs.h **** // 2735. std::abs(short), std::abs(signed char) and others should return int
  68:/usr/include/newlib/c++/9.2.1/bits/std_abs.h **** 
  69:/usr/include/newlib/c++/9.2.1/bits/std_abs.h **** #ifndef __CORRECT_ISO_CPP_MATH_H_PROTO
  70:/usr/include/newlib/c++/9.2.1/bits/std_abs.h ****   inline _GLIBCXX_CONSTEXPR double
  71:/usr/include/newlib/c++/9.2.1/bits/std_abs.h ****   abs(double __x)
  72:/usr/include/newlib/c++/9.2.1/bits/std_abs.h ****   { return __builtin_fabs(__x); }
  73:/usr/include/newlib/c++/9.2.1/bits/std_abs.h **** 
  74:/usr/include/newlib/c++/9.2.1/bits/std_abs.h ****   inline _GLIBCXX_CONSTEXPR float
  75:/usr/include/newlib/c++/9.2.1/bits/std_abs.h ****   abs(float __x)
 554              		.loc 7 75 3 is_stmt 1 discriminator 4 view .LVU110
 555              	.LBB750:
  76:/usr/include/newlib/c++/9.2.1/bits/std_abs.h ****   { return __builtin_fabsf(__x); }
 556              		.loc 7 76 5 discriminator 4 view .LVU111
 557              		.loc 7 76 31 is_stmt 0 discriminator 4 view .LVU112
 558 003a B0EEC87A 		vabs.f32	s14, s16
 559              		.loc 7 76 31 discriminator 4 view .LVU113
ARM GAS  /tmp/ccIu4BI8.s 			page 21


 560              	.LBE750:
 561              	.LBE749:
 562              		.loc 6 147 16 discriminator 4 view .LVU114
 563 003e 2849     		ldr	r1, .L53+24
 564 0040 0AA8     		add	r0, sp, #40
 565 0042 FDEEC77A 		vcvt.s32.f32	s15, s14
 566              	.LVL43:
 567              		.loc 6 147 16 discriminator 4 view .LVU115
 568              	.LBE758:
 569              	.LBE762:
 570              		.loc 7 76 5 is_stmt 1 discriminator 4 view .LVU116
 571              		.loc 7 76 5 discriminator 4 view .LVU117
 572              	.LBB763:
 573              	.LBB759:
 574              		.loc 6 147 34 is_stmt 0 discriminator 4 view .LVU118
 575 0046 9FED226B 		vldr.64	d6, .L53+8
 576 004a F8EEE75A 		vcvt.f32.s32	s11, s15
 577              		.loc 6 147 16 discriminator 4 view .LVU119
 578 004e 17EE903A 		vmov	r3, s15	@ int
 579              		.loc 6 147 34 discriminator 4 view .LVU120
 580 0052 37EE657A 		vsub.f32	s14, s14, s11
 581 0056 B7EEC77A 		vcvt.f64.f32	d7, s14
 582 005a 27EE067B 		vmul.f64	d7, d7, d6
 583              		.loc 6 147 16 discriminator 4 view .LVU121
 584 005e BDEEC77B 		vcvt.s32.f64	s14, d7
 585 0062 8DED007A 		vstr.32	s14, [sp]	@ int
 586 0066 FFF7FEFF 		bl	sprintf
 587              	.LVL44:
 148:Logger.cpp    **** 
 149:Logger.cpp    ****         const double f_tst = strtod(tst, nullptr);
 588              		.loc 6 149 9 is_stmt 1 discriminator 4 view .LVU122
 589              		.loc 6 149 36 is_stmt 0 discriminator 4 view .LVU123
 590 006a 0021     		movs	r1, #0
 591 006c 0AA8     		add	r0, sp, #40
 592 006e FFF7FEFF 		bl	strtod
 593              	.LVL45:
 150:Logger.cpp    **** 
 151:Logger.cpp    ****         /* verify down to the least significant digit, which is off because of truncation */
 152:Logger.cpp    ****         if(abs((double)f - f_tst) > 1.0e-3)
 594              		.loc 6 152 9 is_stmt 1 discriminator 4 view .LVU124
 595              		.loc 6 152 16 is_stmt 0 discriminator 4 view .LVU125
 596 0072 B7EEC88A 		vcvt.f64.f32	d8, s16
 597              	.LVL46:
 598              	.LBB751:
 599              	.LBI751:
  71:/usr/include/newlib/c++/9.2.1/bits/std_abs.h ****   { return __builtin_fabs(__x); }
 600              		.loc 7 71 3 is_stmt 1 discriminator 4 view .LVU126
 601              	.LBB752:
  72:/usr/include/newlib/c++/9.2.1/bits/std_abs.h **** 
 602              		.loc 7 72 5 discriminator 4 view .LVU127
  72:/usr/include/newlib/c++/9.2.1/bits/std_abs.h **** 
 603              		.loc 7 72 5 is_stmt 0 discriminator 4 view .LVU128
 604              	.LBE752:
 605              	.LBE751:
 606              		.loc 6 152 9 discriminator 4 view .LVU129
 607 0076 9FED147B 		vldr.64	d7, .L53
 608              		.loc 6 152 15 discriminator 4 view .LVU130
ARM GAS  /tmp/ccIu4BI8.s 			page 22


 609 007a 38EE400B 		vsub.f64	d0, d8, d0
 610              	.LVL47:
 611              	.LBB754:
 612              	.LBB753:
  72:/usr/include/newlib/c++/9.2.1/bits/std_abs.h **** 
 613              		.loc 7 72 30 discriminator 4 view .LVU131
 614 007e B0EEC00B 		vabs.f64	d0, d0
 615              	.LBE753:
 616              	.LBE754:
 617              		.loc 6 152 9 discriminator 4 view .LVU132
 618 0082 B4EEC70B 		vcmpe.f64	d0, d7
 619 0086 F1EE10FA 		vmrs	APSR_nzcv, FPSCR
 620 008a C2DD     		ble	.L44
 153:Logger.cpp    ****         {
 154:Logger.cpp    ****             sprintf(ref, "%.3f", f);
 621              		.loc 6 154 13 is_stmt 1 view .LVU133
 622              		.loc 6 154 20 is_stmt 0 view .LVU134
 623 008c 1549     		ldr	r1, .L53+28
 624 008e 02A8     		add	r0, sp, #8
 155:Logger.cpp    ****             hw.PrintLine(
 156:Logger.cpp    ****                 "mismatch: ref = %s, dsy = %s, float = %.6f", ref, tst, f);
 157:Logger.cpp    ****             result = false;
 625              		.loc 6 157 20 view .LVU135
 626 0090 0024     		movs	r4, #0
 154:Logger.cpp    ****             hw.PrintLine(
 627              		.loc 6 154 20 view .LVU136
 628 0092 53EC182B 		vmov	r2, r3, d8
 629 0096 FFF7FEFF 		bl	sprintf
 630              	.LVL48:
 155:Logger.cpp    ****             hw.PrintLine(
 631              		.loc 6 155 13 is_stmt 1 view .LVU137
 632              	.LBB755:
 633              	.LBI755:
  23:../../libdaisy/src/daisy_seed.h **** 
  24:../../libdaisy/src/daisy_seed.h ****     /** 
  25:../../libdaisy/src/daisy_seed.h ****     Configures the settings for all internal peripherals,
  26:../../libdaisy/src/daisy_seed.h ****     but does not initialize them.
  27:../../libdaisy/src/daisy_seed.h ****     This allows for modification of the configuration
  28:../../libdaisy/src/daisy_seed.h ****     handles prior to initialization.
  29:../../libdaisy/src/daisy_seed.h ****     */
  30:../../libdaisy/src/daisy_seed.h **** 
  31:../../libdaisy/src/daisy_seed.h ****     //Defaults listed below:
  32:../../libdaisy/src/daisy_seed.h ****     //TODO: Add defaults
  33:../../libdaisy/src/daisy_seed.h **** 
  34:../../libdaisy/src/daisy_seed.h ****     /** & */
  35:../../libdaisy/src/daisy_seed.h ****     void Configure();
  36:../../libdaisy/src/daisy_seed.h **** 
  37:../../libdaisy/src/daisy_seed.h ****     /** 
  38:../../libdaisy/src/daisy_seed.h ****     Initializes the Daisy Seed and the following peripherals:
  39:../../libdaisy/src/daisy_seed.h ****     SDRAM, QSPI, 24-bit 48kHz Audio via AK4556, Internal USB,
  40:../../libdaisy/src/daisy_seed.h ****     as well as the built-in LED and Testpoint.
  41:../../libdaisy/src/daisy_seed.h **** 
  42:../../libdaisy/src/daisy_seed.h ****     ADCs, DACs, and other special peripherals (such as I2C, SPI, etc.)
  43:../../libdaisy/src/daisy_seed.h ****     can be initialized using their specific initializers within libdaisy
  44:../../libdaisy/src/daisy_seed.h ****     for a specific application.
  45:../../libdaisy/src/daisy_seed.h ****     */
  46:../../libdaisy/src/daisy_seed.h ****     void Init(bool boost = false);
ARM GAS  /tmp/ccIu4BI8.s 			page 23


  47:../../libdaisy/src/daisy_seed.h **** 
  48:../../libdaisy/src/daisy_seed.h ****     /** 
  49:../../libdaisy/src/daisy_seed.h ****     Wait some ms before going on.
  50:../../libdaisy/src/daisy_seed.h ****     \param del Delay time in ms.
  51:../../libdaisy/src/daisy_seed.h ****     */
  52:../../libdaisy/src/daisy_seed.h ****     void DelayMs(size_t del);
  53:../../libdaisy/src/daisy_seed.h **** 
  54:../../libdaisy/src/daisy_seed.h ****     /** 
  55:../../libdaisy/src/daisy_seed.h ****     Returns the gpio_pin corresponding to the index 0-31.
  56:../../libdaisy/src/daisy_seed.h ****     For the given GPIO on the Daisy Seed (labeled 1-32 in docs).
  57:../../libdaisy/src/daisy_seed.h ****     */
  58:../../libdaisy/src/daisy_seed.h ****     static dsy_gpio_pin GetPin(uint8_t pin_idx);
  59:../../libdaisy/src/daisy_seed.h **** 
  60:../../libdaisy/src/daisy_seed.h ****     /** Begins the audio for the seeds builtin audio.
  61:../../libdaisy/src/daisy_seed.h ****     the specified callback will get called whenever
  62:../../libdaisy/src/daisy_seed.h ****     new data is ready to be prepared.
  63:../../libdaisy/src/daisy_seed.h ****     */
  64:../../libdaisy/src/daisy_seed.h ****     void StartAudio(AudioHandle::InterleavingAudioCallback cb);
  65:../../libdaisy/src/daisy_seed.h **** 
  66:../../libdaisy/src/daisy_seed.h ****     /** Begins the audio for the seeds builtin audio.
  67:../../libdaisy/src/daisy_seed.h ****     the specified callback will get called whenever
  68:../../libdaisy/src/daisy_seed.h ****     new data is ready to be prepared.
  69:../../libdaisy/src/daisy_seed.h ****     This will use the newer non-interleaved callback.
  70:../../libdaisy/src/daisy_seed.h ****     */
  71:../../libdaisy/src/daisy_seed.h ****     void StartAudio(AudioHandle::AudioCallback cb);
  72:../../libdaisy/src/daisy_seed.h **** 
  73:../../libdaisy/src/daisy_seed.h ****     /** Changes to a new interleaved callback
  74:../../libdaisy/src/daisy_seed.h ****      */
  75:../../libdaisy/src/daisy_seed.h ****     void ChangeAudioCallback(AudioHandle::InterleavingAudioCallback cb);
  76:../../libdaisy/src/daisy_seed.h **** 
  77:../../libdaisy/src/daisy_seed.h ****     /** Changes to a new multichannel callback
  78:../../libdaisy/src/daisy_seed.h ****      */
  79:../../libdaisy/src/daisy_seed.h ****     void ChangeAudioCallback(AudioHandle::AudioCallback cb);
  80:../../libdaisy/src/daisy_seed.h **** 
  81:../../libdaisy/src/daisy_seed.h ****     /** Stops the audio if it is running. */
  82:../../libdaisy/src/daisy_seed.h ****     void StopAudio();
  83:../../libdaisy/src/daisy_seed.h **** 
  84:../../libdaisy/src/daisy_seed.h ****     /** Updates the Audio Sample Rate, and reinitializes.
  85:../../libdaisy/src/daisy_seed.h ****      ** Audio must be stopped for this to work.
  86:../../libdaisy/src/daisy_seed.h ****      */
  87:../../libdaisy/src/daisy_seed.h ****     void SetAudioSampleRate(SaiHandle::Config::SampleRate samplerate);
  88:../../libdaisy/src/daisy_seed.h **** 
  89:../../libdaisy/src/daisy_seed.h ****     /** Returns the audio sample rate in Hz as a floating point number.
  90:../../libdaisy/src/daisy_seed.h ****      */
  91:../../libdaisy/src/daisy_seed.h ****     float AudioSampleRate();
  92:../../libdaisy/src/daisy_seed.h **** 
  93:../../libdaisy/src/daisy_seed.h ****     /** Sets the number of samples processed per channel by the audio callback.
  94:../../libdaisy/src/daisy_seed.h ****      */
  95:../../libdaisy/src/daisy_seed.h ****     void SetAudioBlockSize(size_t blocksize);
  96:../../libdaisy/src/daisy_seed.h **** 
  97:../../libdaisy/src/daisy_seed.h ****     /** Returns the number of samples per channel in a block of audio. */
  98:../../libdaisy/src/daisy_seed.h ****     size_t AudioBlockSize();
  99:../../libdaisy/src/daisy_seed.h **** 
 100:../../libdaisy/src/daisy_seed.h ****     /** Returns the rate in Hz that the Audio callback is called */
 101:../../libdaisy/src/daisy_seed.h ****     float AudioCallbackRate() const;
 102:../../libdaisy/src/daisy_seed.h **** 
 103:../../libdaisy/src/daisy_seed.h ****     /** Sets the state of the built in LED
ARM GAS  /tmp/ccIu4BI8.s 			page 24


 104:../../libdaisy/src/daisy_seed.h ****      */
 105:../../libdaisy/src/daisy_seed.h ****     void SetLed(bool state);
 106:../../libdaisy/src/daisy_seed.h **** 
 107:../../libdaisy/src/daisy_seed.h ****     /** Sets the state of the test point near pin 10
 108:../../libdaisy/src/daisy_seed.h ****      */
 109:../../libdaisy/src/daisy_seed.h ****     void SetTestPoint(bool state);
 110:../../libdaisy/src/daisy_seed.h **** 
 111:../../libdaisy/src/daisy_seed.h ****     /** Print formatted debug log message
 112:../../libdaisy/src/daisy_seed.h ****      */
 113:../../libdaisy/src/daisy_seed.h ****     template <typename... VA>
 114:../../libdaisy/src/daisy_seed.h ****     static void Print(const char* format, VA... va)
 115:../../libdaisy/src/daisy_seed.h ****     {
 116:../../libdaisy/src/daisy_seed.h ****         Log::Print(format, va...);
 117:../../libdaisy/src/daisy_seed.h ****     }
 118:../../libdaisy/src/daisy_seed.h **** 
 119:../../libdaisy/src/daisy_seed.h ****     /** Print formatted debug log message with automatic line termination
 120:../../libdaisy/src/daisy_seed.h ****     */
 121:../../libdaisy/src/daisy_seed.h ****     template <typename... VA>
 122:../../libdaisy/src/daisy_seed.h ****     static void PrintLine(const char* format, VA... va)
 634              		.loc 1 122 17 view .LVU138
 635              	.LBB756:
 123:../../libdaisy/src/daisy_seed.h ****     {
 124:../../libdaisy/src/daisy_seed.h ****         Log::PrintLine(format, va...);
 636              		.loc 1 124 23 is_stmt 0 view .LVU139
 637 009a 02A9     		add	r1, sp, #8
 638              	.LVL49:
 639              		.loc 1 124 23 view .LVU140
 640 009c 0AAA     		add	r2, sp, #40
 641              	.LVL50:
 642              		.loc 1 124 23 view .LVU141
 643 009e 1248     		ldr	r0, .L53+32
 644 00a0 8DED008B 		vstr.64	d8, [sp]
 645 00a4 FFF7FEFF 		bl	_ZN5daisy6LoggerILNS_17LoggerDestinationE1EE9PrintLineEPKcz
 646              	.LVL51:
 647              		.loc 1 124 23 view .LVU142
 648              	.LBE756:
 649              	.LBE755:
 650              		.loc 6 157 13 is_stmt 1 view .LVU143
 651              		.loc 6 157 13 is_stmt 0 view .LVU144
 652 00a8 B3E7     		b	.L44
 653              	.LVL52:
 654              	.L52:
 655              		.loc 6 157 13 view .LVU145
 656              	.LBE759:
 657              	.LBE763:
 158:Logger.cpp    ****         }
 159:Logger.cpp    ****     }
 160:Logger.cpp    ****     hw.PrintLine("FLT_FMT(3)/FLT_VAR(3) verification: %s",
 658              		.loc 6 160 5 is_stmt 1 view .LVU146
 659              		.loc 6 160 17 is_stmt 0 view .LVU147
 660 00aa 104B     		ldr	r3, .L53+36
 661 00ac 1049     		ldr	r1, .L53+40
 662              	.LVL53:
 663              	.LBB764:
 664              	.LBI764:
 122:../../libdaisy/src/daisy_seed.h ****     {
 665              		.loc 1 122 17 is_stmt 1 view .LVU148
ARM GAS  /tmp/ccIu4BI8.s 			page 25


 666              	.LBB765:
 667              		.loc 1 124 23 is_stmt 0 view .LVU149
 668 00ae 1148     		ldr	r0, .L53+44
 669 00b0 002C     		cmp	r4, #0
 670 00b2 08BF     		it	eq
 671 00b4 1946     		moveq	r1, r3
 672              	.LVL54:
 673              		.loc 1 124 23 view .LVU150
 674 00b6 FFF7FEFF 		bl	_ZN5daisy6LoggerILNS_17LoggerDestinationE1EE9PrintLineEPKcz
 675              	.LVL55:
 676              		.loc 1 124 23 view .LVU151
 677              	.LBE765:
 678              	.LBE764:
 161:Logger.cpp    ****                  result ? "PASS" : "FAIL");
 162:Logger.cpp    **** }
 679              		.loc 6 162 1 view .LVU152
 680 00ba 12B0     		add	sp, sp, #72
 681              		.cfi_def_cfa_offset 16
 682              		@ sp needed
 683 00bc BDEC028B 		vldm	sp!, {d8}
 684              		.cfi_restore 80
 685              		.cfi_restore 81
 686              		.cfi_def_cfa_offset 8
 687              	.LVL56:
 688              		.loc 6 162 1 view .LVU153
 689 00c0 10BD     		pop	{r4, pc}
 690              	.L54:
 691 00c2 00BFAFF3 		.align	3
 691      0080
 692              	.L53:
 693 00c8 FCA9F1D2 		.word	3539053052
 694 00cc 4D62503F 		.word	1062232653
 695 00d0 00000000 		.word	0
 696 00d4 00408F40 		.word	1083129856
 697 00d8 0000C8C2 		.word	3267887104
 698 00dc 0000C842 		.word	1120403456
 699 00e0 10000000 		.word	.LC2
 700 00e4 1C000000 		.word	.LC3
 701 00e8 24000000 		.word	.LC4
 702 00ec 08000000 		.word	.LC1
 703 00f0 00000000 		.word	.LC0
 704 00f4 50000000 		.word	.LC5
 705              		.cfi_endproc
 706              	.LFE2052:
 708              		.section	.rodata._Z12ProfilePrintIXadL_ZN5daisy6LoggerILNS0_17LoggerDestinationE0EE5PrintEPKczEEEv
 709              		.align	2
 710              	.LC6:
 711 0000 2573202D 		.ascii	"%s - %s (  empty string):%c%d.%03d us/call\000"
 711      20257320 
 711      28202065 
 711      6D707479 
 711      20737472 
 712 002b 00       		.align	2
 713              	.LC7:
 714 002c 2573202D 		.ascii	"%s - %s (   text string):%c%d.%03d us/call +%c%d.%0"
 714      20257320 
 714      28202020 
ARM GAS  /tmp/ccIu4BI8.s 			page 26


 714      74657874 
 714      20737472 
 715 005f 33642075 		.ascii	"3d us/char\000"
 715      732F6368 
 715      617200
 716 006a 0000     		.align	2
 717              	.LC8:
 718 006c 2573202D 		.ascii	"%s - %s ( integer value):%c%d.%03d us/call\000"
 718      20257320 
 718      2820696E 
 718      74656765 
 718      72207661 
 719 0097 00       		.align	2
 720              	.LC9:
 721 0098 2573202D 		.ascii	"%s - %s (unsigned value):%c%d.%03d us/call\000"
 721      20257320 
 721      28756E73 
 721      69676E65 
 721      64207661 
 722 00c3 00       		.align	2
 723              	.LC10:
 724 00c4 2573202D 		.ascii	"%s - %s ( float.3 value):%c%d.%03d us/call\000"
 724      20257320 
 724      2820666C 
 724      6F61742E 
 724      33207661 
 725 00ef 00       		.align	2
 726              	.LC11:
 727 00f0 2573202D 		.ascii	"%s - %s (FLT_VAR1 value):%c%d.%03d us/call\000"
 727      20257320 
 727      28464C54 
 727      5F564152 
 727      31207661 
 728 011b 00       		.align	2
 729              	.LC12:
 730 011c 2573202D 		.ascii	"%s - %s (FLT_VAR2 value):%c%d.%03d us/call\000"
 730      20257320 
 730      28464C54 
 730      5F564152 
 730      32207661 
 731 0147 00       		.align	2
 732              	.LC13:
 733 0148 2573202D 		.ascii	"%s - %s (FLT_VAR3 value):%c%d.%03d us/call\000"
 733      20257320 
 733      28464C54 
 733      5F564152 
 733      33207661 
 734 0173 00       		.align	2
 735              	.LC14:
 736 0174 2573202D 		.ascii	"%s - %s (FLT_VAR4 value):%c%d.%03d us/call\000"
 736      20257320 
 736      28464C54 
 736      5F564152 
 736      34207661 
 737              		.section	.text._Z12ProfilePrintIXadL_ZN5daisy6LoggerILNS0_17LoggerDestinationE0EE5PrintEPKczEEEvS5
 738              		.align	1
 739              		.p2align 2,,3
ARM GAS  /tmp/ccIu4BI8.s 			page 27


 740              		.weak	_Z12ProfilePrintIXadL_ZN5daisy6LoggerILNS0_17LoggerDestinationE0EE5PrintEPKczEEEvS5_S5_
 741              		.syntax unified
 742              		.thumb
 743              		.thumb_func
 744              		.fpu fpv5-d16
 746              	_Z12ProfilePrintIXadL_ZN5daisy6LoggerILNS0_17LoggerDestinationE0EE5PrintEPKczEEEvS5_S5_:
 747              	.LVL57:
 748              	.LFB2086:
  67:Logger.cpp    **** {
 749              		.loc 6 67 6 is_stmt 1 view -0
 750              		.cfi_startproc
 751              		@ args = 0, pretend = 0, frame = 0
 752              		@ frame_needed = 0, uses_anonymous_args = 0
  67:Logger.cpp    **** {
 753              		.loc 6 67 6 is_stmt 0 view .LVU155
 754 0000 70B5     		push	{r4, r5, r6, lr}
 755              		.cfi_def_cfa_offset 16
 756              		.cfi_offset 4, -16
 757              		.cfi_offset 5, -12
 758              		.cfi_offset 6, -8
 759              		.cfi_offset 14, -4
 760 0002 2DED0C8B 		vpush.64	{d8, d9, d10, d11, d12, d13}
 761              		.cfi_def_cfa_offset 64
 762              		.cfi_offset 80, -64
 763              		.cfi_offset 81, -60
 764              		.cfi_offset 82, -56
 765              		.cfi_offset 83, -52
 766              		.cfi_offset 84, -48
 767              		.cfi_offset 85, -44
 768              		.cfi_offset 86, -40
 769              		.cfi_offset 87, -36
 770              		.cfi_offset 88, -32
 771              		.cfi_offset 89, -28
 772              		.cfi_offset 90, -24
 773              		.cfi_offset 91, -20
 774 0006 86B0     		sub	sp, sp, #24
 775              		.cfi_def_cfa_offset 88
  67:Logger.cpp    **** {
 776              		.loc 6 67 6 view .LVU156
 777 0008 0446     		mov	r4, r0
 778 000a 0D46     		mov	r5, r1
  69:Logger.cpp    ****     const float print_1 = ProfileFunction<function>("a");
 779              		.loc 6 69 52 view .LVU157
 780 000c FFF7FEFF 		bl	_Z15ProfileFunctionIXadL_ZN5daisy6LoggerILNS0_17LoggerDestinationE0EE5PrintEPKczEEJEEfS5_DpT0_.
 781              	.LVL58:
  69:Logger.cpp    ****     const float print_1 = ProfileFunction<function>("a");
 782              		.loc 6 69 52 view .LVU158
 783 0010 F0EE408A 		vmov.f32	s17, s0
 784              	.LVL59:
  70:Logger.cpp    ****     const float print_36
 785              		.loc 6 70 52 view .LVU159
 786 0014 FFF7FEFF 		bl	_Z15ProfileFunctionIXadL_ZN5daisy6LoggerILNS0_17LoggerDestinationE0EE5PrintEPKczEEJEEfS5_DpT0_.
 787              	.LVL60:
  70:Logger.cpp    ****     const float print_36
 788              		.loc 6 70 52 view .LVU160
 789 0018 B0EE40DA 		vmov.f32	s26, s0
 790              	.LVL61:
ARM GAS  /tmp/ccIu4BI8.s 			page 28


  72:Logger.cpp    ****     const float print_d = ProfileFunction<function>("%d", 123);
 791              		.loc 6 72 36 view .LVU161
 792 001c FFF7FEFF 		bl	_Z15ProfileFunctionIXadL_ZN5daisy6LoggerILNS0_17LoggerDestinationE0EE5PrintEPKczEEJEEfS5_DpT0_.
 793              	.LVL62:
  72:Logger.cpp    ****     const float print_d = ProfileFunction<function>("%d", 123);
 794              		.loc 6 72 36 view .LVU162
 795 0020 B0EE408A 		vmov.f32	s16, s0
 796              	.LVL63:
  73:Logger.cpp    ****     const float print_u = ProfileFunction<function>("%u", 123);
 797              		.loc 6 73 52 view .LVU163
 798 0024 FFF7FEFF 		bl	_Z15ProfileFunctionIXadL_ZN5daisy6LoggerILNS0_17LoggerDestinationE0EE5PrintEPKczEEJiEEfS5_DpT0_
 799              	.LVL64:
  73:Logger.cpp    ****     const float print_u = ProfileFunction<function>("%u", 123);
 800              		.loc 6 73 52 view .LVU164
 801 0028 F0EE40CA 		vmov.f32	s25, s0
 802              	.LVL65:
  74:Logger.cpp    ****     const float print_f = ProfileFunction<function>("%.3f", 123.0f);
 803              		.loc 6 74 52 view .LVU165
 804 002c FFF7FEFF 		bl	_Z15ProfileFunctionIXadL_ZN5daisy6LoggerILNS0_17LoggerDestinationE0EE5PrintEPKczEEJiEEfS5_DpT0_
 805              	.LVL66:
  74:Logger.cpp    ****     const float print_f = ProfileFunction<function>("%.3f", 123.0f);
 806              		.loc 6 74 52 view .LVU166
 807 0030 B0EE40CA 		vmov.f32	s24, s0
 808              	.LVL67:
  75:Logger.cpp    ****     const float print_F1
 809              		.loc 6 75 52 view .LVU167
 810 0034 FFF7FEFF 		bl	_Z15ProfileFunctionIXadL_ZN5daisy6LoggerILNS0_17LoggerDestinationE0EE5PrintEPKczEEJfEEfS5_DpT0_
 811              	.LVL68:
  75:Logger.cpp    ****     const float print_F1
 812              		.loc 6 75 52 view .LVU168
 813 0038 F0EE40BA 		vmov.f32	s23, s0
 814              	.LVL69:
  77:Logger.cpp    ****     const float print_F2
 815              		.loc 6 77 36 view .LVU169
 816 003c FFF7FEFF 		bl	_Z15ProfileFunctionIXadL_ZN5daisy6LoggerILNS0_17LoggerDestinationE0EE5PrintEPKczEEJciiEEfS5_DpT
 817              	.LVL70:
  77:Logger.cpp    ****     const float print_F2
 818              		.loc 6 77 36 view .LVU170
 819 0040 B0EE40BA 		vmov.f32	s22, s0
 820              	.LVL71:
  79:Logger.cpp    ****     const float print_F3
 821              		.loc 6 79 36 view .LVU171
 822 0044 FFF7FEFF 		bl	_Z15ProfileFunctionIXadL_ZN5daisy6LoggerILNS0_17LoggerDestinationE0EE5PrintEPKczEEJciiEEfS5_DpT
 823              	.LVL72:
  79:Logger.cpp    ****     const float print_F3
 824              		.loc 6 79 36 view .LVU172
 825 0048 F0EE40AA 		vmov.f32	s21, s0
 826              	.LVL73:
  81:Logger.cpp    ****     const float print_F4
 827              		.loc 6 81 36 view .LVU173
 828 004c FFF7FEFF 		bl	_Z15ProfileFunctionIXadL_ZN5daisy6LoggerILNS0_17LoggerDestinationE0EE5PrintEPKczEEJciiEEfS5_DpT
 829              	.LVL74:
  81:Logger.cpp    ****     const float print_F4
 830              		.loc 6 81 36 view .LVU174
 831 0050 B0EE40AA 		vmov.f32	s20, s0
 832              	.LVL75:
  83:Logger.cpp    **** 
ARM GAS  /tmp/ccIu4BI8.s 			page 29


 833              		.loc 6 83 36 view .LVU175
 834 0054 FFF7FEFF 		bl	_Z15ProfileFunctionIXadL_ZN5daisy6LoggerILNS0_17LoggerDestinationE0EE5PrintEPKczEEJciiEEfS5_DpT
 835              	.LVL76:
 836              	.LBB766:
 837              	.LBB767:
 838              		.loc 7 76 31 view .LVU176
 839 0058 B0EEE87A 		vabs.f32	s14, s17
 840              	.LBE767:
 841              	.LBE766:
  86:Logger.cpp    ****     const float intercept = print_1 - slope;
 842              		.loc 6 86 17 view .LVU177
 843 005c DFED9E6A 		vldr.32	s13, .L77+8
  86:Logger.cpp    ****     const float intercept = print_1 - slope;
 844              		.loc 6 86 39 view .LVU178
 845 0060 38EE4D8A 		vsub.f32	s16, s16, s26
 846              	.LVL77:
  89:Logger.cpp    ****                  class_caption,
 847              		.loc 6 89 17 view .LVU179
 848 0064 9FED9D9A 		vldr.32	s18, .L77+12
 849              	.LBB769:
 850              	.LBB770:
 851              		.loc 1 124 23 view .LVU180
 852 0068 2A46     		mov	r2, r5
 853 006a 2146     		mov	r1, r4
 854              	.LBE770:
 855              	.LBE769:
  89:Logger.cpp    ****                  class_caption,
 856              		.loc 6 89 17 view .LVU181
 857 006c FDEEC77A 		vcvt.s32.f32	s15, s14
 858              	.LBB775:
 859              	.LBB771:
 860              		.loc 1 124 23 view .LVU182
 861 0070 9B48     		ldr	r0, .L77+16
 862              	.LBE771:
 863              	.LBE775:
  86:Logger.cpp    ****     const float intercept = print_1 - slope;
 864              		.loc 6 86 17 view .LVU183
 865 0072 C8EE26DA 		vdiv.f32	s27, s16, s13
 866              	.LBB776:
 867              	.LBB772:
 868              		.loc 1 124 23 view .LVU184
 869 0076 CDED007A 		vstr.32	s15, [sp]	@ int
 870              	.LBE772:
 871              	.LBE776:
  92:Logger.cpp    ****     hw.PrintLine("%s - %s (   text string):" FLT_FMT3 " us/call +" FLT_FMT3
 872              		.loc 6 92 18 view .LVU185
 873 007a F8EEE77A 		vcvt.f32.s32	s15, s15
  89:Logger.cpp    ****                  class_caption,
 874              		.loc 6 89 17 view .LVU186
 875 007e F4EEC98A 		vcmpe.f32	s17, s18
  83:Logger.cpp    **** 
 876              		.loc 6 83 36 view .LVU187
 877 0082 F0EE409A 		vmov.f32	s19, s0
 878              	.LVL78:
  92:Logger.cpp    ****     hw.PrintLine("%s - %s (   text string):" FLT_FMT3 " us/call +" FLT_FMT3
 879              		.loc 6 92 18 view .LVU188
 880 0086 37EE677A 		vsub.f32	s14, s14, s15
ARM GAS  /tmp/ccIu4BI8.s 			page 30


  89:Logger.cpp    ****                  class_caption,
 881              		.loc 6 89 17 view .LVU189
 882 008a F1EE10FA 		vmrs	APSR_nzcv, FPSCR
  92:Logger.cpp    ****     hw.PrintLine("%s - %s (   text string):" FLT_FMT3 " us/call +" FLT_FMT3
 883              		.loc 6 92 18 view .LVU190
 884 008e 9FED908B 		vldr.64	d8, .L77
 885              	.LVL79:
  92:Logger.cpp    ****     hw.PrintLine("%s - %s (   text string):" FLT_FMT3 " us/call +" FLT_FMT3
 886              		.loc 6 92 18 view .LVU191
 887 0092 B7EEC77A 		vcvt.f64.f32	d7, s14
 888              	.LBB777:
 889              	.LBB773:
 890              		.loc 1 124 23 view .LVU192
 891 0096 4CBF     		ite	mi
 892 0098 2D23     		movmi	r3, #45
 893 009a 2023     		movpl	r3, #32
 894              	.LBE773:
 895              	.LBE777:
  92:Logger.cpp    ****     hw.PrintLine("%s - %s (   text string):" FLT_FMT3 " us/call +" FLT_FMT3
 896              		.loc 6 92 18 view .LVU193
 897 009c 27EE087B 		vmul.f64	d7, d7, d8
  87:Logger.cpp    **** 
 898              		.loc 6 87 17 view .LVU194
 899 00a0 3DEE6DDA 		vsub.f32	s26, s26, s27
 900              	.LVL80:
 901              	.LBB778:
 902              	.LBI766:
  75:/usr/include/newlib/c++/9.2.1/bits/std_abs.h ****   { return __builtin_fabsf(__x); }
 903              		.loc 7 75 3 is_stmt 1 view .LVU195
 904              	.LBB768:
 905              		.loc 7 76 5 view .LVU196
 906              		.loc 7 76 5 is_stmt 0 view .LVU197
 907              	.LBE768:
 908              	.LBE778:
 909              		.loc 7 76 5 is_stmt 1 view .LVU198
 910              		.loc 7 76 5 view .LVU199
 911              	.LBB779:
 912              	.LBI769:
 122:../../libdaisy/src/daisy_seed.h ****     {
 913              		.loc 1 122 17 view .LVU200
 914              	.LBE779:
  89:Logger.cpp    ****                  class_caption,
 915              		.loc 6 89 17 is_stmt 0 view .LVU201
 916 00a4 BDEEC77B 		vcvt.s32.f64	s14, d7
 917              	.LBB780:
 918              	.LBB774:
 919              		.loc 1 124 23 view .LVU202
 920 00a8 8DED017A 		vstr.32	s14, [sp, #4]	@ int
 921 00ac FFF7FEFF 		bl	_ZN5daisy6LoggerILNS_17LoggerDestinationE1EE9PrintLineEPKcz
 922              	.LVL81:
 923              		.loc 1 124 23 view .LVU203
 924              	.LBE774:
 925              	.LBE780:
 926              	.LBB781:
 927              	.LBB782:
 928              		.loc 7 76 31 view .LVU204
 929 00b0 B0EECD6A 		vabs.f32	s12, s26
ARM GAS  /tmp/ccIu4BI8.s 			page 31


 930              	.LBE782:
 931              	.LBE781:
 932              	.LBB784:
 933              	.LBB785:
 934 00b4 B0EEED7A 		vabs.f32	s14, s27
 935              	.LBE785:
 936              	.LBE784:
 937              	.LBB787:
 938              	.LBB788:
 939              		.loc 1 124 23 view .LVU205
 940 00b8 2A46     		mov	r2, r5
 941              	.LBE788:
 942              	.LBE787:
  93:Logger.cpp    ****                  " us/char",
 943              		.loc 6 93 17 view .LVU206
 944 00ba B4EEC9DA 		vcmpe.f32	s26, s18
 945              	.LBB795:
 946              	.LBB789:
 947              		.loc 1 124 23 view .LVU207
 948 00be 2146     		mov	r1, r4
 949              	.LBE789:
 950              	.LBE795:
  93:Logger.cpp    ****                  " us/char",
 951              		.loc 6 93 17 view .LVU208
 952 00c0 FDEEC66A 		vcvt.s32.f32	s13, s12
 953              	.LBB796:
 954              	.LBB790:
 955              		.loc 1 124 23 view .LVU209
 956 00c4 8748     		ldr	r0, .L77+20
 957              	.LBE790:
 958              	.LBE796:
  93:Logger.cpp    ****                  " us/char",
 959              		.loc 6 93 17 view .LVU210
 960 00c6 FDEEC77A 		vcvt.s32.f32	s15, s14
 961 00ca F1EE10FA 		vmrs	APSR_nzcv, FPSCR
  97:Logger.cpp    ****                  FLT_VAR3(slope));
 962              		.loc 6 97 18 view .LVU211
 963 00ce F8EEE65A 		vcvt.f32.s32	s11, s13
 964              	.LBB797:
 965              	.LBB791:
 966              		.loc 1 124 23 view .LVU212
 967 00d2 CDED006A 		vstr.32	s13, [sp]	@ int
 968              	.LBE791:
 969              	.LBE797:
  98:Logger.cpp    ****     hw.PrintLine("%s - %s ( integer value):" FLT_FMT3 " us/call",
 970              		.loc 6 98 18 view .LVU213
 971 00d6 F8EEE76A 		vcvt.f32.s32	s13, s15
 972              	.LBB798:
 973              	.LBB792:
 974              		.loc 1 124 23 view .LVU214
 975 00da CDED037A 		vstr.32	s15, [sp, #12]	@ int
 976              	.LBE792:
 977              	.LBE798:
  93:Logger.cpp    ****                  " us/char",
 978              		.loc 6 93 17 view .LVU215
 979 00de F4EEC9DA 		vcmpe.f32	s27, s18
 980 00e2 48BF     		it	mi
ARM GAS  /tmp/ccIu4BI8.s 			page 32


 981 00e4 2D23     		movmi	r3, #45
  97:Logger.cpp    ****                  FLT_VAR3(slope));
 982              		.loc 6 97 18 view .LVU216
 983 00e6 36EE656A 		vsub.f32	s12, s12, s11
  93:Logger.cpp    ****                  " us/char",
 984              		.loc 6 93 17 view .LVU217
 985 00ea 58BF     		it	pl
 986 00ec 2023     		movpl	r3, #32
 987              	.LVL82:
 988              	.LBB799:
 989              	.LBI781:
  75:/usr/include/newlib/c++/9.2.1/bits/std_abs.h ****   { return __builtin_fabsf(__x); }
 990              		.loc 7 75 3 is_stmt 1 view .LVU218
 991              	.LBB783:
 992              		.loc 7 76 5 view .LVU219
 993              		.loc 7 76 5 is_stmt 0 view .LVU220
 994              	.LBE783:
 995              	.LBE799:
 996              		.loc 7 76 5 is_stmt 1 view .LVU221
 997              		.loc 7 76 5 view .LVU222
  98:Logger.cpp    ****     hw.PrintLine("%s - %s ( integer value):" FLT_FMT3 " us/call",
 998              		.loc 6 98 18 is_stmt 0 view .LVU223
 999 00ee 37EE667A 		vsub.f32	s14, s14, s13
  93:Logger.cpp    ****                  " us/char",
 1000              		.loc 6 93 17 view .LVU224
 1001 00f2 F1EE10FA 		vmrs	APSR_nzcv, FPSCR
  97:Logger.cpp    ****                  FLT_VAR3(slope));
 1002              		.loc 6 97 18 view .LVU225
 1003 00f6 B7EEC66A 		vcvt.f64.f32	d6, s12
  98:Logger.cpp    ****     hw.PrintLine("%s - %s ( integer value):" FLT_FMT3 " us/call",
 1004              		.loc 6 98 18 view .LVU226
 1005 00fa B7EEC77A 		vcvt.f64.f32	d7, s14
  93:Logger.cpp    ****                  " us/char",
 1006              		.loc 6 93 17 view .LVU227
 1007 00fe 4CBF     		ite	mi
 1008 0100 2D26     		movmi	r6, #45
 1009 0102 2026     		movpl	r6, #32
 1010              	.LVL83:
 1011              	.LBB800:
 1012              	.LBI784:
  75:/usr/include/newlib/c++/9.2.1/bits/std_abs.h ****   { return __builtin_fabsf(__x); }
 1013              		.loc 7 75 3 is_stmt 1 view .LVU228
 1014              	.LBB786:
 1015              		.loc 7 76 5 view .LVU229
 1016              		.loc 7 76 5 is_stmt 0 view .LVU230
 1017              	.LBE786:
 1018              	.LBE800:
 1019              		.loc 7 76 5 is_stmt 1 view .LVU231
 1020              		.loc 7 76 5 view .LVU232
  97:Logger.cpp    ****                  FLT_VAR3(slope));
 1021              		.loc 6 97 18 is_stmt 0 view .LVU233
 1022 0104 26EE086B 		vmul.f64	d6, d6, d8
 1023              	.LBB801:
 1024              	.LBB793:
 1025              		.loc 1 124 23 view .LVU234
 1026 0108 0296     		str	r6, [sp, #8]
 1027              	.LBE793:
ARM GAS  /tmp/ccIu4BI8.s 			page 33


 1028              	.LBE801:
  98:Logger.cpp    ****     hw.PrintLine("%s - %s ( integer value):" FLT_FMT3 " us/call",
 1029              		.loc 6 98 18 view .LVU235
 1030 010a 27EE087B 		vmul.f64	d7, d7, d8
  93:Logger.cpp    ****                  " us/char",
 1031              		.loc 6 93 17 view .LVU236
 1032 010e BDEEC66B 		vcvt.s32.f64	s12, d6
 1033              	.LVL84:
 1034              	.LBB802:
 1035              	.LBI787:
 122:../../libdaisy/src/daisy_seed.h ****     {
 1036              		.loc 1 122 17 is_stmt 1 view .LVU237
 1037              	.LBE802:
  93:Logger.cpp    ****                  " us/char",
 1038              		.loc 6 93 17 is_stmt 0 view .LVU238
 1039 0112 BDEEC77B 		vcvt.s32.f64	s14, d7
 1040              	.LBB803:
 1041              	.LBB794:
 1042              		.loc 1 124 23 view .LVU239
 1043 0116 8DED016A 		vstr.32	s12, [sp, #4]	@ int
 1044 011a 8DED047A 		vstr.32	s14, [sp, #16]	@ int
 1045 011e FFF7FEFF 		bl	_ZN5daisy6LoggerILNS_17LoggerDestinationE1EE9PrintLineEPKcz
 1046              	.LVL85:
 1047              		.loc 1 124 23 view .LVU240
 1048              	.LBE794:
 1049              	.LBE803:
 1050              	.LBB804:
 1051              	.LBI804:
  75:/usr/include/newlib/c++/9.2.1/bits/std_abs.h ****   { return __builtin_fabsf(__x); }
 1052              		.loc 7 75 3 is_stmt 1 view .LVU241
 1053              	.LBB805:
 1054              		.loc 7 76 5 view .LVU242
 1055              		.loc 7 76 31 is_stmt 0 view .LVU243
 1056 0122 B0EEEC7A 		vabs.f32	s14, s25
 1057              	.LVL86:
 1058              		.loc 7 76 31 view .LVU244
 1059              	.LBE805:
 1060              	.LBE804:
  99:Logger.cpp    ****                  class_caption,
 1061              		.loc 6 99 17 view .LVU245
 1062 0126 F4EEC9CA 		vcmpe.f32	s25, s18
 1063              	.LBB806:
 1064              	.LBB807:
 1065              		.loc 1 124 23 view .LVU246
 1066 012a 2A46     		mov	r2, r5
 1067 012c 2146     		mov	r1, r4
 1068 012e 6E48     		ldr	r0, .L77+24
 1069              	.LBE807:
 1070              	.LBE806:
  99:Logger.cpp    ****                  class_caption,
 1071              		.loc 6 99 17 view .LVU247
 1072 0130 FDEEC77A 		vcvt.s32.f32	s15, s14
 1073              	.LVL87:
 1074              		.loc 7 76 5 is_stmt 1 view .LVU248
 1075              		.loc 7 76 5 view .LVU249
 1076              	.LBB810:
 1077              	.LBI806:
ARM GAS  /tmp/ccIu4BI8.s 			page 34


 122:../../libdaisy/src/daisy_seed.h ****     {
 1078              		.loc 1 122 17 view .LVU250
 1079              	.LBE810:
  99:Logger.cpp    ****                  class_caption,
 1080              		.loc 6 99 17 is_stmt 0 view .LVU251
 1081 0134 F1EE10FA 		vmrs	APSR_nzcv, FPSCR
 102:Logger.cpp    ****     hw.PrintLine("%s - %s (unsigned value):" FLT_FMT3 " us/call",
 1082              		.loc 6 102 18 view .LVU252
 1083 0138 F8EEE76A 		vcvt.f32.s32	s13, s15
 1084              	.LVL88:
 1085              	.LBB811:
 1086              	.LBB808:
 1087              		.loc 1 124 23 view .LVU253
 1088 013c CDED007A 		vstr.32	s15, [sp]	@ int
 1089 0140 4CBF     		ite	mi
 1090 0142 2D23     		movmi	r3, #45
 1091 0144 2023     		movpl	r3, #32
 1092              	.LBE808:
 1093              	.LBE811:
 102:Logger.cpp    ****     hw.PrintLine("%s - %s (unsigned value):" FLT_FMT3 " us/call",
 1094              		.loc 6 102 18 view .LVU254
 1095 0146 37EE667A 		vsub.f32	s14, s14, s13
 1096              	.LVL89:
 102:Logger.cpp    ****     hw.PrintLine("%s - %s (unsigned value):" FLT_FMT3 " us/call",
 1097              		.loc 6 102 18 view .LVU255
 1098 014a B7EEC77A 		vcvt.f64.f32	d7, s14
 1099 014e 27EE087B 		vmul.f64	d7, d7, d8
  99:Logger.cpp    ****                  class_caption,
 1100              		.loc 6 99 17 view .LVU256
 1101 0152 BDEEC77B 		vcvt.s32.f64	s14, d7
 1102              	.LBB812:
 1103              	.LBB809:
 1104              		.loc 1 124 23 view .LVU257
 1105 0156 8DED017A 		vstr.32	s14, [sp, #4]	@ int
 1106 015a FFF7FEFF 		bl	_ZN5daisy6LoggerILNS_17LoggerDestinationE1EE9PrintLineEPKcz
 1107              	.LVL90:
 1108              		.loc 1 124 23 view .LVU258
 1109              	.LBE809:
 1110              	.LBE812:
 1111              	.LBB813:
 1112              	.LBI813:
  75:/usr/include/newlib/c++/9.2.1/bits/std_abs.h ****   { return __builtin_fabsf(__x); }
 1113              		.loc 7 75 3 is_stmt 1 view .LVU259
 1114              	.LBB814:
 1115              		.loc 7 76 5 view .LVU260
 1116              		.loc 7 76 31 is_stmt 0 view .LVU261
 1117 015e B0EECC7A 		vabs.f32	s14, s24
 1118              	.LVL91:
 1119              		.loc 7 76 31 view .LVU262
 1120              	.LBE814:
 1121              	.LBE813:
 103:Logger.cpp    ****                  class_caption,
 1122              		.loc 6 103 17 view .LVU263
 1123 0162 B4EEC9CA 		vcmpe.f32	s24, s18
 1124              	.LBB815:
 1125              	.LBB816:
 1126              		.loc 1 124 23 view .LVU264
ARM GAS  /tmp/ccIu4BI8.s 			page 35


 1127 0166 2A46     		mov	r2, r5
 1128 0168 2146     		mov	r1, r4
 1129 016a 6048     		ldr	r0, .L77+28
 1130              	.LBE816:
 1131              	.LBE815:
 103:Logger.cpp    ****                  class_caption,
 1132              		.loc 6 103 17 view .LVU265
 1133 016c FDEEC77A 		vcvt.s32.f32	s15, s14
 1134              	.LVL92:
 1135              		.loc 7 76 5 is_stmt 1 view .LVU266
 1136              		.loc 7 76 5 view .LVU267
 1137              	.LBB819:
 1138              	.LBI815:
 122:../../libdaisy/src/daisy_seed.h ****     {
 1139              		.loc 1 122 17 view .LVU268
 1140              	.LBE819:
 103:Logger.cpp    ****                  class_caption,
 1141              		.loc 6 103 17 is_stmt 0 view .LVU269
 1142 0170 F1EE10FA 		vmrs	APSR_nzcv, FPSCR
 106:Logger.cpp    ****     hw.PrintLine("%s - %s ( float.3 value):" FLT_FMT3 " us/call",
 1143              		.loc 6 106 18 view .LVU270
 1144 0174 F8EEE76A 		vcvt.f32.s32	s13, s15
 1145              	.LVL93:
 1146              	.LBB820:
 1147              	.LBB817:
 1148              		.loc 1 124 23 view .LVU271
 1149 0178 CDED007A 		vstr.32	s15, [sp]	@ int
 1150 017c 4CBF     		ite	mi
 1151 017e 2D23     		movmi	r3, #45
 1152 0180 2023     		movpl	r3, #32
 1153              	.LBE817:
 1154              	.LBE820:
 106:Logger.cpp    ****     hw.PrintLine("%s - %s ( float.3 value):" FLT_FMT3 " us/call",
 1155              		.loc 6 106 18 view .LVU272
 1156 0182 37EE667A 		vsub.f32	s14, s14, s13
 1157              	.LVL94:
 106:Logger.cpp    ****     hw.PrintLine("%s - %s ( float.3 value):" FLT_FMT3 " us/call",
 1158              		.loc 6 106 18 view .LVU273
 1159 0186 B7EEC77A 		vcvt.f64.f32	d7, s14
 1160 018a 27EE087B 		vmul.f64	d7, d7, d8
 103:Logger.cpp    ****                  class_caption,
 1161              		.loc 6 103 17 view .LVU274
 1162 018e BDEEC77B 		vcvt.s32.f64	s14, d7
 1163              	.LBB821:
 1164              	.LBB818:
 1165              		.loc 1 124 23 view .LVU275
 1166 0192 8DED017A 		vstr.32	s14, [sp, #4]	@ int
 1167 0196 FFF7FEFF 		bl	_ZN5daisy6LoggerILNS_17LoggerDestinationE1EE9PrintLineEPKcz
 1168              	.LVL95:
 1169              		.loc 1 124 23 view .LVU276
 1170              	.LBE818:
 1171              	.LBE821:
 1172              	.LBB822:
 1173              	.LBI822:
  75:/usr/include/newlib/c++/9.2.1/bits/std_abs.h ****   { return __builtin_fabsf(__x); }
 1174              		.loc 7 75 3 is_stmt 1 view .LVU277
 1175              	.LBB823:
ARM GAS  /tmp/ccIu4BI8.s 			page 36


 1176              		.loc 7 76 5 view .LVU278
 1177              		.loc 7 76 31 is_stmt 0 view .LVU279
 1178 019a B0EEEB7A 		vabs.f32	s14, s23
 1179              	.LVL96:
 1180              		.loc 7 76 31 view .LVU280
 1181              	.LBE823:
 1182              	.LBE822:
 107:Logger.cpp    ****                  class_caption,
 1183              		.loc 6 107 17 view .LVU281
 1184 019e F4EEC9BA 		vcmpe.f32	s23, s18
 1185              	.LBB824:
 1186              	.LBB825:
 1187              		.loc 1 124 23 view .LVU282
 1188 01a2 2A46     		mov	r2, r5
 1189 01a4 2146     		mov	r1, r4
 1190 01a6 5248     		ldr	r0, .L77+32
 1191              	.LBE825:
 1192              	.LBE824:
 107:Logger.cpp    ****                  class_caption,
 1193              		.loc 6 107 17 view .LVU283
 1194 01a8 FDEEC77A 		vcvt.s32.f32	s15, s14
 1195              	.LVL97:
 1196              		.loc 7 76 5 is_stmt 1 view .LVU284
 1197              		.loc 7 76 5 view .LVU285
 1198              	.LBB828:
 1199              	.LBI824:
 122:../../libdaisy/src/daisy_seed.h ****     {
 1200              		.loc 1 122 17 view .LVU286
 1201              	.LBE828:
 107:Logger.cpp    ****                  class_caption,
 1202              		.loc 6 107 17 is_stmt 0 view .LVU287
 1203 01ac F1EE10FA 		vmrs	APSR_nzcv, FPSCR
 110:Logger.cpp    ****     hw.PrintLine("%s - %s (FLT_VAR1 value):" FLT_FMT3 " us/call",
 1204              		.loc 6 110 18 view .LVU288
 1205 01b0 F8EEE76A 		vcvt.f32.s32	s13, s15
 1206              	.LVL98:
 1207              	.LBB829:
 1208              	.LBB826:
 1209              		.loc 1 124 23 view .LVU289
 1210 01b4 CDED007A 		vstr.32	s15, [sp]	@ int
 1211 01b8 4CBF     		ite	mi
 1212 01ba 2D23     		movmi	r3, #45
 1213 01bc 2023     		movpl	r3, #32
 1214              	.LBE826:
 1215              	.LBE829:
 110:Logger.cpp    ****     hw.PrintLine("%s - %s (FLT_VAR1 value):" FLT_FMT3 " us/call",
 1216              		.loc 6 110 18 view .LVU290
 1217 01be 37EE667A 		vsub.f32	s14, s14, s13
 1218              	.LVL99:
 110:Logger.cpp    ****     hw.PrintLine("%s - %s (FLT_VAR1 value):" FLT_FMT3 " us/call",
 1219              		.loc 6 110 18 view .LVU291
 1220 01c2 B7EEC77A 		vcvt.f64.f32	d7, s14
 1221 01c6 27EE087B 		vmul.f64	d7, d7, d8
 107:Logger.cpp    ****                  class_caption,
 1222              		.loc 6 107 17 view .LVU292
 1223 01ca BDEEC77B 		vcvt.s32.f64	s14, d7
 1224              	.LBB830:
ARM GAS  /tmp/ccIu4BI8.s 			page 37


 1225              	.LBB827:
 1226              		.loc 1 124 23 view .LVU293
 1227 01ce 8DED017A 		vstr.32	s14, [sp, #4]	@ int
 1228 01d2 FFF7FEFF 		bl	_ZN5daisy6LoggerILNS_17LoggerDestinationE1EE9PrintLineEPKcz
 1229              	.LVL100:
 1230              		.loc 1 124 23 view .LVU294
 1231              	.LBE827:
 1232              	.LBE830:
 1233              	.LBB831:
 1234              	.LBI831:
  75:/usr/include/newlib/c++/9.2.1/bits/std_abs.h ****   { return __builtin_fabsf(__x); }
 1235              		.loc 7 75 3 is_stmt 1 view .LVU295
 1236              	.LBB832:
 1237              		.loc 7 76 5 view .LVU296
 1238              		.loc 7 76 31 is_stmt 0 view .LVU297
 1239 01d6 B0EECB7A 		vabs.f32	s14, s22
 1240              	.LVL101:
 1241              		.loc 7 76 31 view .LVU298
 1242              	.LBE832:
 1243              	.LBE831:
 111:Logger.cpp    ****                  class_caption,
 1244              		.loc 6 111 17 view .LVU299
 1245 01da B4EEC9BA 		vcmpe.f32	s22, s18
 1246              	.LBB833:
 1247              	.LBB834:
 1248              		.loc 1 124 23 view .LVU300
 1249 01de 2A46     		mov	r2, r5
 1250 01e0 2146     		mov	r1, r4
 1251 01e2 4448     		ldr	r0, .L77+36
 1252              	.LBE834:
 1253              	.LBE833:
 111:Logger.cpp    ****                  class_caption,
 1254              		.loc 6 111 17 view .LVU301
 1255 01e4 FDEEC77A 		vcvt.s32.f32	s15, s14
 1256              	.LVL102:
 1257              		.loc 7 76 5 is_stmt 1 view .LVU302
 1258              		.loc 7 76 5 view .LVU303
 1259              	.LBB837:
 1260              	.LBI833:
 122:../../libdaisy/src/daisy_seed.h ****     {
 1261              		.loc 1 122 17 view .LVU304
 1262              	.LBE837:
 111:Logger.cpp    ****                  class_caption,
 1263              		.loc 6 111 17 is_stmt 0 view .LVU305
 1264 01e8 F1EE10FA 		vmrs	APSR_nzcv, FPSCR
 114:Logger.cpp    ****     hw.PrintLine("%s - %s (FLT_VAR2 value):" FLT_FMT3 " us/call",
 1265              		.loc 6 114 18 view .LVU306
 1266 01ec F8EEE76A 		vcvt.f32.s32	s13, s15
 1267              	.LVL103:
 1268              	.LBB838:
 1269              	.LBB835:
 1270              		.loc 1 124 23 view .LVU307
 1271 01f0 CDED007A 		vstr.32	s15, [sp]	@ int
 1272 01f4 4CBF     		ite	mi
 1273 01f6 2D23     		movmi	r3, #45
 1274 01f8 2023     		movpl	r3, #32
 1275              	.LBE835:
ARM GAS  /tmp/ccIu4BI8.s 			page 38


 1276              	.LBE838:
 114:Logger.cpp    ****     hw.PrintLine("%s - %s (FLT_VAR2 value):" FLT_FMT3 " us/call",
 1277              		.loc 6 114 18 view .LVU308
 1278 01fa 37EE667A 		vsub.f32	s14, s14, s13
 1279              	.LVL104:
 114:Logger.cpp    ****     hw.PrintLine("%s - %s (FLT_VAR2 value):" FLT_FMT3 " us/call",
 1280              		.loc 6 114 18 view .LVU309
 1281 01fe B7EEC77A 		vcvt.f64.f32	d7, s14
 1282 0202 27EE087B 		vmul.f64	d7, d7, d8
 111:Logger.cpp    ****                  class_caption,
 1283              		.loc 6 111 17 view .LVU310
 1284 0206 BDEEC77B 		vcvt.s32.f64	s14, d7
 1285              	.LBB839:
 1286              	.LBB836:
 1287              		.loc 1 124 23 view .LVU311
 1288 020a 8DED017A 		vstr.32	s14, [sp, #4]	@ int
 1289 020e FFF7FEFF 		bl	_ZN5daisy6LoggerILNS_17LoggerDestinationE1EE9PrintLineEPKcz
 1290              	.LVL105:
 1291              		.loc 1 124 23 view .LVU312
 1292              	.LBE836:
 1293              	.LBE839:
 1294              	.LBB840:
 1295              	.LBI840:
  75:/usr/include/newlib/c++/9.2.1/bits/std_abs.h ****   { return __builtin_fabsf(__x); }
 1296              		.loc 7 75 3 is_stmt 1 view .LVU313
 1297              	.LBB841:
 1298              		.loc 7 76 5 view .LVU314
 1299              		.loc 7 76 31 is_stmt 0 view .LVU315
 1300 0212 B0EEEA7A 		vabs.f32	s14, s21
 1301              	.LVL106:
 1302              		.loc 7 76 31 view .LVU316
 1303              	.LBE841:
 1304              	.LBE840:
 115:Logger.cpp    ****                  class_caption,
 1305              		.loc 6 115 17 view .LVU317
 1306 0216 F4EEC9AA 		vcmpe.f32	s21, s18
 1307              	.LBB842:
 1308              	.LBB843:
 1309              		.loc 1 124 23 view .LVU318
 1310 021a 2A46     		mov	r2, r5
 1311 021c 2146     		mov	r1, r4
 1312 021e 3648     		ldr	r0, .L77+40
 1313              	.LBE843:
 1314              	.LBE842:
 115:Logger.cpp    ****                  class_caption,
 1315              		.loc 6 115 17 view .LVU319
 1316 0220 FDEEC77A 		vcvt.s32.f32	s15, s14
 1317              	.LVL107:
 1318              		.loc 7 76 5 is_stmt 1 view .LVU320
 1319              		.loc 7 76 5 view .LVU321
 1320              	.LBB846:
 1321              	.LBI842:
 122:../../libdaisy/src/daisy_seed.h ****     {
 1322              		.loc 1 122 17 view .LVU322
 1323              	.LBE846:
 115:Logger.cpp    ****                  class_caption,
 1324              		.loc 6 115 17 is_stmt 0 view .LVU323
ARM GAS  /tmp/ccIu4BI8.s 			page 39


 1325 0224 F1EE10FA 		vmrs	APSR_nzcv, FPSCR
 118:Logger.cpp    ****     hw.PrintLine("%s - %s (FLT_VAR3 value):" FLT_FMT3 " us/call",
 1326              		.loc 6 118 18 view .LVU324
 1327 0228 F8EEE76A 		vcvt.f32.s32	s13, s15
 1328              	.LVL108:
 1329              	.LBB847:
 1330              	.LBB844:
 1331              		.loc 1 124 23 view .LVU325
 1332 022c CDED007A 		vstr.32	s15, [sp]	@ int
 1333 0230 4CBF     		ite	mi
 1334 0232 2D23     		movmi	r3, #45
 1335 0234 2023     		movpl	r3, #32
 1336              	.LBE844:
 1337              	.LBE847:
 118:Logger.cpp    ****     hw.PrintLine("%s - %s (FLT_VAR3 value):" FLT_FMT3 " us/call",
 1338              		.loc 6 118 18 view .LVU326
 1339 0236 37EE667A 		vsub.f32	s14, s14, s13
 1340              	.LVL109:
 118:Logger.cpp    ****     hw.PrintLine("%s - %s (FLT_VAR3 value):" FLT_FMT3 " us/call",
 1341              		.loc 6 118 18 view .LVU327
 1342 023a B7EEC77A 		vcvt.f64.f32	d7, s14
 1343 023e 27EE087B 		vmul.f64	d7, d7, d8
 115:Logger.cpp    ****                  class_caption,
 1344              		.loc 6 115 17 view .LVU328
 1345 0242 BDEEC77B 		vcvt.s32.f64	s14, d7
 1346              	.LBB848:
 1347              	.LBB845:
 1348              		.loc 1 124 23 view .LVU329
 1349 0246 8DED017A 		vstr.32	s14, [sp, #4]	@ int
 1350 024a FFF7FEFF 		bl	_ZN5daisy6LoggerILNS_17LoggerDestinationE1EE9PrintLineEPKcz
 1351              	.LVL110:
 1352              		.loc 1 124 23 view .LVU330
 1353              	.LBE845:
 1354              	.LBE848:
 1355              	.LBB849:
 1356              	.LBI849:
  75:/usr/include/newlib/c++/9.2.1/bits/std_abs.h ****   { return __builtin_fabsf(__x); }
 1357              		.loc 7 75 3 is_stmt 1 view .LVU331
 1358              	.LBB850:
 1359              		.loc 7 76 5 view .LVU332
 1360              		.loc 7 76 31 is_stmt 0 view .LVU333
 1361 024e B0EECA7A 		vabs.f32	s14, s20
 1362              	.LVL111:
 1363              		.loc 7 76 31 view .LVU334
 1364              	.LBE850:
 1365              	.LBE849:
 119:Logger.cpp    ****                  class_caption,
 1366              		.loc 6 119 17 view .LVU335
 1367 0252 B4EEC9AA 		vcmpe.f32	s20, s18
 1368              	.LBB851:
 1369              	.LBB852:
 1370              		.loc 1 124 23 view .LVU336
 1371 0256 2A46     		mov	r2, r5
 1372 0258 2146     		mov	r1, r4
 1373 025a 2848     		ldr	r0, .L77+44
 1374              	.LBE852:
 1375              	.LBE851:
ARM GAS  /tmp/ccIu4BI8.s 			page 40


 119:Logger.cpp    ****                  class_caption,
 1376              		.loc 6 119 17 view .LVU337
 1377 025c FDEEC77A 		vcvt.s32.f32	s15, s14
 1378              	.LVL112:
 1379              		.loc 7 76 5 is_stmt 1 view .LVU338
 1380              		.loc 7 76 5 view .LVU339
 1381              	.LBB855:
 1382              	.LBI851:
 122:../../libdaisy/src/daisy_seed.h ****     {
 1383              		.loc 1 122 17 view .LVU340
 1384              	.LBE855:
 119:Logger.cpp    ****                  class_caption,
 1385              		.loc 6 119 17 is_stmt 0 view .LVU341
 1386 0260 F1EE10FA 		vmrs	APSR_nzcv, FPSCR
 122:Logger.cpp    ****     hw.PrintLine("%s - %s (FLT_VAR4 value):" FLT_FMT3 " us/call",
 1387              		.loc 6 122 18 view .LVU342
 1388 0264 F8EEE76A 		vcvt.f32.s32	s13, s15
 1389              	.LVL113:
 1390              	.LBB856:
 1391              	.LBB853:
 1392              		.loc 1 124 23 view .LVU343
 1393 0268 CDED007A 		vstr.32	s15, [sp]	@ int
 1394 026c 4CBF     		ite	mi
 1395 026e 2D23     		movmi	r3, #45
 1396 0270 2023     		movpl	r3, #32
 1397              	.LBE853:
 1398              	.LBE856:
 122:Logger.cpp    ****     hw.PrintLine("%s - %s (FLT_VAR4 value):" FLT_FMT3 " us/call",
 1399              		.loc 6 122 18 view .LVU344
 1400 0272 37EE667A 		vsub.f32	s14, s14, s13
 1401              	.LVL114:
 122:Logger.cpp    ****     hw.PrintLine("%s - %s (FLT_VAR4 value):" FLT_FMT3 " us/call",
 1402              		.loc 6 122 18 view .LVU345
 1403 0276 B7EEC77A 		vcvt.f64.f32	d7, s14
 1404 027a 27EE087B 		vmul.f64	d7, d7, d8
 119:Logger.cpp    ****                  class_caption,
 1405              		.loc 6 119 17 view .LVU346
 1406 027e BDEEC77B 		vcvt.s32.f64	s14, d7
 1407              	.LBB857:
 1408              	.LBB854:
 1409              		.loc 1 124 23 view .LVU347
 1410 0282 8DED017A 		vstr.32	s14, [sp, #4]	@ int
 1411 0286 FFF7FEFF 		bl	_ZN5daisy6LoggerILNS_17LoggerDestinationE1EE9PrintLineEPKcz
 1412              	.LVL115:
 1413              		.loc 1 124 23 view .LVU348
 1414              	.LBE854:
 1415              	.LBE857:
 1416              	.LBB858:
 1417              	.LBI858:
  75:/usr/include/newlib/c++/9.2.1/bits/std_abs.h ****   { return __builtin_fabsf(__x); }
 1418              		.loc 7 75 3 is_stmt 1 view .LVU349
 1419              	.LBB859:
 1420              		.loc 7 76 5 view .LVU350
 1421              		.loc 7 76 31 is_stmt 0 view .LVU351
 1422 028a B0EEE97A 		vabs.f32	s14, s19
 1423              	.LVL116:
 1424              		.loc 7 76 31 view .LVU352
ARM GAS  /tmp/ccIu4BI8.s 			page 41


 1425              	.LBE859:
 1426              	.LBE858:
 123:Logger.cpp    ****                  class_caption,
 1427              		.loc 6 123 17 view .LVU353
 1428 028e F4EEC99A 		vcmpe.f32	s19, s18
 1429              	.LBB860:
 1430              	.LBB861:
 1431              		.loc 1 124 23 view .LVU354
 1432 0292 2A46     		mov	r2, r5
 1433 0294 2146     		mov	r1, r4
 1434 0296 1A48     		ldr	r0, .L77+48
 1435              	.LBE861:
 1436              	.LBE860:
 123:Logger.cpp    ****                  class_caption,
 1437              		.loc 6 123 17 view .LVU355
 1438 0298 FDEEC77A 		vcvt.s32.f32	s15, s14
 1439              	.LVL117:
 1440              		.loc 7 76 5 is_stmt 1 view .LVU356
 1441              		.loc 7 76 5 view .LVU357
 1442              	.LBB864:
 1443              	.LBI860:
 122:../../libdaisy/src/daisy_seed.h ****     {
 1444              		.loc 1 122 17 view .LVU358
 1445              	.LBE864:
 123:Logger.cpp    ****                  class_caption,
 1446              		.loc 6 123 17 is_stmt 0 view .LVU359
 1447 029c F1EE10FA 		vmrs	APSR_nzcv, FPSCR
 126:Logger.cpp    **** }
 1448              		.loc 6 126 18 view .LVU360
 1449 02a0 F8EEE76A 		vcvt.f32.s32	s13, s15
 1450              	.LVL118:
 1451              	.LBB865:
 1452              	.LBB862:
 1453              		.loc 1 124 23 view .LVU361
 1454 02a4 CDED007A 		vstr.32	s15, [sp]	@ int
 1455 02a8 4CBF     		ite	mi
 1456 02aa 2D23     		movmi	r3, #45
 1457 02ac 2023     		movpl	r3, #32
 1458              	.LBE862:
 1459              	.LBE865:
 126:Logger.cpp    **** }
 1460              		.loc 6 126 18 view .LVU362
 1461 02ae 37EE667A 		vsub.f32	s14, s14, s13
 1462              	.LVL119:
 126:Logger.cpp    **** }
 1463              		.loc 6 126 18 view .LVU363
 1464 02b2 B7EEC77A 		vcvt.f64.f32	d7, s14
 1465 02b6 27EE087B 		vmul.f64	d7, d7, d8
 123:Logger.cpp    ****                  class_caption,
 1466              		.loc 6 123 17 view .LVU364
 1467 02ba BDEEC77B 		vcvt.s32.f64	s14, d7
 1468              	.LBB866:
 1469              	.LBB863:
 1470              		.loc 1 124 23 view .LVU365
 1471 02be 8DED017A 		vstr.32	s14, [sp, #4]	@ int
 1472 02c2 FFF7FEFF 		bl	_ZN5daisy6LoggerILNS_17LoggerDestinationE1EE9PrintLineEPKcz
 1473              	.LVL120:
ARM GAS  /tmp/ccIu4BI8.s 			page 42


 1474              		.loc 1 124 23 view .LVU366
 1475              	.LBE863:
 1476              	.LBE866:
 127:Logger.cpp    **** 
 1477              		.loc 6 127 1 view .LVU367
 1478 02c6 06B0     		add	sp, sp, #24
 1479              		.cfi_def_cfa_offset 64
 1480              		@ sp needed
 1481 02c8 BDEC0C8B 		vldm	sp!, {d8-d13}
 1482              		.cfi_restore 90
 1483              		.cfi_restore 91
 1484              		.cfi_restore 88
 1485              		.cfi_restore 89
 1486              		.cfi_restore 86
 1487              		.cfi_restore 87
 1488              		.cfi_restore 84
 1489              		.cfi_restore 85
 1490              		.cfi_restore 82
 1491              		.cfi_restore 83
 1492              		.cfi_restore 80
 1493              		.cfi_restore 81
 1494              		.cfi_def_cfa_offset 16
 1495              	.LVL121:
 127:Logger.cpp    **** 
 1496              		.loc 6 127 1 view .LVU368
 1497 02cc 70BD     		pop	{r4, r5, r6, pc}
 1498              	.LVL122:
 1499              	.L78:
 127:Logger.cpp    **** 
 1500              		.loc 6 127 1 view .LVU369
 1501 02ce 00BF     		.align	3
 1502              	.L77:
 1503 02d0 00000000 		.word	0
 1504 02d4 00408F40 		.word	1083129856
 1505 02d8 00000C42 		.word	1108082688
 1506 02dc 00000000 		.word	0
 1507 02e0 00000000 		.word	.LC6
 1508 02e4 2C000000 		.word	.LC7
 1509 02e8 6C000000 		.word	.LC8
 1510 02ec 98000000 		.word	.LC9
 1511 02f0 C4000000 		.word	.LC10
 1512 02f4 F0000000 		.word	.LC11
 1513 02f8 1C010000 		.word	.LC12
 1514 02fc 48010000 		.word	.LC13
 1515 0300 74010000 		.word	.LC14
 1516              		.cfi_endproc
 1517              	.LFE2086:
 1519              		.section	.text._Z12ProfilePrintIXadL_ZN5daisy6LoggerILNS0_17LoggerDestinationE0EE9PrintLineEPKczEE
 1520              		.align	1
 1521              		.p2align 2,,3
 1522              		.weak	_Z12ProfilePrintIXadL_ZN5daisy6LoggerILNS0_17LoggerDestinationE0EE9PrintLineEPKczEEEvS5_S5_
 1523              		.syntax unified
 1524              		.thumb
 1525              		.thumb_func
 1526              		.fpu fpv5-d16
 1528              	_Z12ProfilePrintIXadL_ZN5daisy6LoggerILNS0_17LoggerDestinationE0EE9PrintLineEPKczEEEvS5_S5_:
 1529              	.LVL123:
ARM GAS  /tmp/ccIu4BI8.s 			page 43


 1530              	.LFB2087:
  67:Logger.cpp    **** {
 1531              		.loc 6 67 6 is_stmt 1 view -0
 1532              		.cfi_startproc
 1533              		@ args = 0, pretend = 0, frame = 0
 1534              		@ frame_needed = 0, uses_anonymous_args = 0
  67:Logger.cpp    **** {
 1535              		.loc 6 67 6 is_stmt 0 view .LVU371
 1536 0000 70B5     		push	{r4, r5, r6, lr}
 1537              		.cfi_def_cfa_offset 16
 1538              		.cfi_offset 4, -16
 1539              		.cfi_offset 5, -12
 1540              		.cfi_offset 6, -8
 1541              		.cfi_offset 14, -4
 1542 0002 2DED0C8B 		vpush.64	{d8, d9, d10, d11, d12, d13}
 1543              		.cfi_def_cfa_offset 64
 1544              		.cfi_offset 80, -64
 1545              		.cfi_offset 81, -60
 1546              		.cfi_offset 82, -56
 1547              		.cfi_offset 83, -52
 1548              		.cfi_offset 84, -48
 1549              		.cfi_offset 85, -44
 1550              		.cfi_offset 86, -40
 1551              		.cfi_offset 87, -36
 1552              		.cfi_offset 88, -32
 1553              		.cfi_offset 89, -28
 1554              		.cfi_offset 90, -24
 1555              		.cfi_offset 91, -20
 1556 0006 86B0     		sub	sp, sp, #24
 1557              		.cfi_def_cfa_offset 88
  67:Logger.cpp    **** {
 1558              		.loc 6 67 6 view .LVU372
 1559 0008 0446     		mov	r4, r0
 1560 000a 0D46     		mov	r5, r1
  69:Logger.cpp    ****     const float print_1 = ProfileFunction<function>("a");
 1561              		.loc 6 69 52 view .LVU373
 1562 000c FFF7FEFF 		bl	_Z15ProfileFunctionIXadL_ZN5daisy6LoggerILNS0_17LoggerDestinationE0EE9PrintLineEPKczEEJEEfS5_Dp
 1563              	.LVL124:
  69:Logger.cpp    ****     const float print_1 = ProfileFunction<function>("a");
 1564              		.loc 6 69 52 view .LVU374
 1565 0010 F0EE408A 		vmov.f32	s17, s0
 1566              	.LVL125:
  70:Logger.cpp    ****     const float print_36
 1567              		.loc 6 70 52 view .LVU375
 1568 0014 FFF7FEFF 		bl	_Z15ProfileFunctionIXadL_ZN5daisy6LoggerILNS0_17LoggerDestinationE0EE9PrintLineEPKczEEJEEfS5_Dp
 1569              	.LVL126:
  70:Logger.cpp    ****     const float print_36
 1570              		.loc 6 70 52 view .LVU376
 1571 0018 B0EE40DA 		vmov.f32	s26, s0
 1572              	.LVL127:
  72:Logger.cpp    ****     const float print_d = ProfileFunction<function>("%d", 123);
 1573              		.loc 6 72 36 view .LVU377
 1574 001c FFF7FEFF 		bl	_Z15ProfileFunctionIXadL_ZN5daisy6LoggerILNS0_17LoggerDestinationE0EE9PrintLineEPKczEEJEEfS5_Dp
 1575              	.LVL128:
  72:Logger.cpp    ****     const float print_d = ProfileFunction<function>("%d", 123);
 1576              		.loc 6 72 36 view .LVU378
 1577 0020 B0EE408A 		vmov.f32	s16, s0
ARM GAS  /tmp/ccIu4BI8.s 			page 44


 1578              	.LVL129:
  73:Logger.cpp    ****     const float print_u = ProfileFunction<function>("%u", 123);
 1579              		.loc 6 73 52 view .LVU379
 1580 0024 FFF7FEFF 		bl	_Z15ProfileFunctionIXadL_ZN5daisy6LoggerILNS0_17LoggerDestinationE0EE9PrintLineEPKczEEJiEEfS5_D
 1581              	.LVL130:
  73:Logger.cpp    ****     const float print_u = ProfileFunction<function>("%u", 123);
 1582              		.loc 6 73 52 view .LVU380
 1583 0028 F0EE40CA 		vmov.f32	s25, s0
 1584              	.LVL131:
  74:Logger.cpp    ****     const float print_f = ProfileFunction<function>("%.3f", 123.0f);
 1585              		.loc 6 74 52 view .LVU381
 1586 002c FFF7FEFF 		bl	_Z15ProfileFunctionIXadL_ZN5daisy6LoggerILNS0_17LoggerDestinationE0EE9PrintLineEPKczEEJiEEfS5_D
 1587              	.LVL132:
  74:Logger.cpp    ****     const float print_f = ProfileFunction<function>("%.3f", 123.0f);
 1588              		.loc 6 74 52 view .LVU382
 1589 0030 B0EE40CA 		vmov.f32	s24, s0
 1590              	.LVL133:
  75:Logger.cpp    ****     const float print_F1
 1591              		.loc 6 75 52 view .LVU383
 1592 0034 FFF7FEFF 		bl	_Z15ProfileFunctionIXadL_ZN5daisy6LoggerILNS0_17LoggerDestinationE0EE9PrintLineEPKczEEJfEEfS5_D
 1593              	.LVL134:
  75:Logger.cpp    ****     const float print_F1
 1594              		.loc 6 75 52 view .LVU384
 1595 0038 F0EE40BA 		vmov.f32	s23, s0
 1596              	.LVL135:
  77:Logger.cpp    ****     const float print_F2
 1597              		.loc 6 77 36 view .LVU385
 1598 003c FFF7FEFF 		bl	_Z15ProfileFunctionIXadL_ZN5daisy6LoggerILNS0_17LoggerDestinationE0EE9PrintLineEPKczEEJciiEEfS5
 1599              	.LVL136:
  77:Logger.cpp    ****     const float print_F2
 1600              		.loc 6 77 36 view .LVU386
 1601 0040 B0EE40BA 		vmov.f32	s22, s0
 1602              	.LVL137:
  79:Logger.cpp    ****     const float print_F3
 1603              		.loc 6 79 36 view .LVU387
 1604 0044 FFF7FEFF 		bl	_Z15ProfileFunctionIXadL_ZN5daisy6LoggerILNS0_17LoggerDestinationE0EE9PrintLineEPKczEEJciiEEfS5
 1605              	.LVL138:
  79:Logger.cpp    ****     const float print_F3
 1606              		.loc 6 79 36 view .LVU388
 1607 0048 F0EE40AA 		vmov.f32	s21, s0
 1608              	.LVL139:
  81:Logger.cpp    ****     const float print_F4
 1609              		.loc 6 81 36 view .LVU389
 1610 004c FFF7FEFF 		bl	_Z15ProfileFunctionIXadL_ZN5daisy6LoggerILNS0_17LoggerDestinationE0EE9PrintLineEPKczEEJciiEEfS5
 1611              	.LVL140:
  81:Logger.cpp    ****     const float print_F4
 1612              		.loc 6 81 36 view .LVU390
 1613 0050 B0EE40AA 		vmov.f32	s20, s0
 1614              	.LVL141:
  83:Logger.cpp    **** 
 1615              		.loc 6 83 36 view .LVU391
 1616 0054 FFF7FEFF 		bl	_Z15ProfileFunctionIXadL_ZN5daisy6LoggerILNS0_17LoggerDestinationE0EE9PrintLineEPKczEEJciiEEfS5
 1617              	.LVL142:
 1618              	.LBB867:
 1619              	.LBB868:
 1620              		.loc 7 76 31 view .LVU392
 1621 0058 B0EEE87A 		vabs.f32	s14, s17
ARM GAS  /tmp/ccIu4BI8.s 			page 45


 1622              	.LBE868:
 1623              	.LBE867:
  86:Logger.cpp    ****     const float intercept = print_1 - slope;
 1624              		.loc 6 86 17 view .LVU393
 1625 005c DFED9E6A 		vldr.32	s13, .L101+8
  86:Logger.cpp    ****     const float intercept = print_1 - slope;
 1626              		.loc 6 86 39 view .LVU394
 1627 0060 38EE4D8A 		vsub.f32	s16, s16, s26
 1628              	.LVL143:
  89:Logger.cpp    ****                  class_caption,
 1629              		.loc 6 89 17 view .LVU395
 1630 0064 9FED9D9A 		vldr.32	s18, .L101+12
 1631              	.LBB870:
 1632              	.LBB871:
 1633              		.loc 1 124 23 view .LVU396
 1634 0068 2A46     		mov	r2, r5
 1635 006a 2146     		mov	r1, r4
 1636              	.LBE871:
 1637              	.LBE870:
  89:Logger.cpp    ****                  class_caption,
 1638              		.loc 6 89 17 view .LVU397
 1639 006c FDEEC77A 		vcvt.s32.f32	s15, s14
 1640              	.LBB876:
 1641              	.LBB872:
 1642              		.loc 1 124 23 view .LVU398
 1643 0070 9B48     		ldr	r0, .L101+16
 1644              	.LBE872:
 1645              	.LBE876:
  86:Logger.cpp    ****     const float intercept = print_1 - slope;
 1646              		.loc 6 86 17 view .LVU399
 1647 0072 C8EE26DA 		vdiv.f32	s27, s16, s13
 1648              	.LBB877:
 1649              	.LBB873:
 1650              		.loc 1 124 23 view .LVU400
 1651 0076 CDED007A 		vstr.32	s15, [sp]	@ int
 1652              	.LBE873:
 1653              	.LBE877:
  92:Logger.cpp    ****     hw.PrintLine("%s - %s (   text string):" FLT_FMT3 " us/call +" FLT_FMT3
 1654              		.loc 6 92 18 view .LVU401
 1655 007a F8EEE77A 		vcvt.f32.s32	s15, s15
  89:Logger.cpp    ****                  class_caption,
 1656              		.loc 6 89 17 view .LVU402
 1657 007e F4EEC98A 		vcmpe.f32	s17, s18
  83:Logger.cpp    **** 
 1658              		.loc 6 83 36 view .LVU403
 1659 0082 F0EE409A 		vmov.f32	s19, s0
 1660              	.LVL144:
  92:Logger.cpp    ****     hw.PrintLine("%s - %s (   text string):" FLT_FMT3 " us/call +" FLT_FMT3
 1661              		.loc 6 92 18 view .LVU404
 1662 0086 37EE677A 		vsub.f32	s14, s14, s15
  89:Logger.cpp    ****                  class_caption,
 1663              		.loc 6 89 17 view .LVU405
 1664 008a F1EE10FA 		vmrs	APSR_nzcv, FPSCR
  92:Logger.cpp    ****     hw.PrintLine("%s - %s (   text string):" FLT_FMT3 " us/call +" FLT_FMT3
 1665              		.loc 6 92 18 view .LVU406
 1666 008e 9FED908B 		vldr.64	d8, .L101
 1667              	.LVL145:
ARM GAS  /tmp/ccIu4BI8.s 			page 46


  92:Logger.cpp    ****     hw.PrintLine("%s - %s (   text string):" FLT_FMT3 " us/call +" FLT_FMT3
 1668              		.loc 6 92 18 view .LVU407
 1669 0092 B7EEC77A 		vcvt.f64.f32	d7, s14
 1670              	.LBB878:
 1671              	.LBB874:
 1672              		.loc 1 124 23 view .LVU408
 1673 0096 4CBF     		ite	mi
 1674 0098 2D23     		movmi	r3, #45
 1675 009a 2023     		movpl	r3, #32
 1676              	.LBE874:
 1677              	.LBE878:
  92:Logger.cpp    ****     hw.PrintLine("%s - %s (   text string):" FLT_FMT3 " us/call +" FLT_FMT3
 1678              		.loc 6 92 18 view .LVU409
 1679 009c 27EE087B 		vmul.f64	d7, d7, d8
  87:Logger.cpp    **** 
 1680              		.loc 6 87 17 view .LVU410
 1681 00a0 3DEE6DDA 		vsub.f32	s26, s26, s27
 1682              	.LVL146:
 1683              	.LBB879:
 1684              	.LBI867:
  75:/usr/include/newlib/c++/9.2.1/bits/std_abs.h ****   { return __builtin_fabsf(__x); }
 1685              		.loc 7 75 3 is_stmt 1 view .LVU411
 1686              	.LBB869:
 1687              		.loc 7 76 5 view .LVU412
 1688              		.loc 7 76 5 is_stmt 0 view .LVU413
 1689              	.LBE869:
 1690              	.LBE879:
 1691              		.loc 7 76 5 is_stmt 1 view .LVU414
 1692              		.loc 7 76 5 view .LVU415
 1693              	.LBB880:
 1694              	.LBI870:
 122:../../libdaisy/src/daisy_seed.h ****     {
 1695              		.loc 1 122 17 view .LVU416
 1696              	.LBE880:
  89:Logger.cpp    ****                  class_caption,
 1697              		.loc 6 89 17 is_stmt 0 view .LVU417
 1698 00a4 BDEEC77B 		vcvt.s32.f64	s14, d7
 1699              	.LBB881:
 1700              	.LBB875:
 1701              		.loc 1 124 23 view .LVU418
 1702 00a8 8DED017A 		vstr.32	s14, [sp, #4]	@ int
 1703 00ac FFF7FEFF 		bl	_ZN5daisy6LoggerILNS_17LoggerDestinationE1EE9PrintLineEPKcz
 1704              	.LVL147:
 1705              		.loc 1 124 23 view .LVU419
 1706              	.LBE875:
 1707              	.LBE881:
 1708              	.LBB882:
 1709              	.LBB883:
 1710              		.loc 7 76 31 view .LVU420
 1711 00b0 B0EECD6A 		vabs.f32	s12, s26
 1712              	.LBE883:
 1713              	.LBE882:
 1714              	.LBB885:
 1715              	.LBB886:
 1716 00b4 B0EEED7A 		vabs.f32	s14, s27
 1717              	.LBE886:
 1718              	.LBE885:
ARM GAS  /tmp/ccIu4BI8.s 			page 47


 1719              	.LBB888:
 1720              	.LBB889:
 1721              		.loc 1 124 23 view .LVU421
 1722 00b8 2A46     		mov	r2, r5
 1723              	.LBE889:
 1724              	.LBE888:
  93:Logger.cpp    ****                  " us/char",
 1725              		.loc 6 93 17 view .LVU422
 1726 00ba B4EEC9DA 		vcmpe.f32	s26, s18
 1727              	.LBB896:
 1728              	.LBB890:
 1729              		.loc 1 124 23 view .LVU423
 1730 00be 2146     		mov	r1, r4
 1731              	.LBE890:
 1732              	.LBE896:
  93:Logger.cpp    ****                  " us/char",
 1733              		.loc 6 93 17 view .LVU424
 1734 00c0 FDEEC66A 		vcvt.s32.f32	s13, s12
 1735              	.LBB897:
 1736              	.LBB891:
 1737              		.loc 1 124 23 view .LVU425
 1738 00c4 8748     		ldr	r0, .L101+20
 1739              	.LBE891:
 1740              	.LBE897:
  93:Logger.cpp    ****                  " us/char",
 1741              		.loc 6 93 17 view .LVU426
 1742 00c6 FDEEC77A 		vcvt.s32.f32	s15, s14
 1743 00ca F1EE10FA 		vmrs	APSR_nzcv, FPSCR
  97:Logger.cpp    ****                  FLT_VAR3(slope));
 1744              		.loc 6 97 18 view .LVU427
 1745 00ce F8EEE65A 		vcvt.f32.s32	s11, s13
 1746              	.LBB898:
 1747              	.LBB892:
 1748              		.loc 1 124 23 view .LVU428
 1749 00d2 CDED006A 		vstr.32	s13, [sp]	@ int
 1750              	.LBE892:
 1751              	.LBE898:
  98:Logger.cpp    ****     hw.PrintLine("%s - %s ( integer value):" FLT_FMT3 " us/call",
 1752              		.loc 6 98 18 view .LVU429
 1753 00d6 F8EEE76A 		vcvt.f32.s32	s13, s15
 1754              	.LBB899:
 1755              	.LBB893:
 1756              		.loc 1 124 23 view .LVU430
 1757 00da CDED037A 		vstr.32	s15, [sp, #12]	@ int
 1758              	.LBE893:
 1759              	.LBE899:
  93:Logger.cpp    ****                  " us/char",
 1760              		.loc 6 93 17 view .LVU431
 1761 00de F4EEC9DA 		vcmpe.f32	s27, s18
 1762 00e2 48BF     		it	mi
 1763 00e4 2D23     		movmi	r3, #45
  97:Logger.cpp    ****                  FLT_VAR3(slope));
 1764              		.loc 6 97 18 view .LVU432
 1765 00e6 36EE656A 		vsub.f32	s12, s12, s11
  93:Logger.cpp    ****                  " us/char",
 1766              		.loc 6 93 17 view .LVU433
 1767 00ea 58BF     		it	pl
ARM GAS  /tmp/ccIu4BI8.s 			page 48


 1768 00ec 2023     		movpl	r3, #32
 1769              	.LVL148:
 1770              	.LBB900:
 1771              	.LBI882:
  75:/usr/include/newlib/c++/9.2.1/bits/std_abs.h ****   { return __builtin_fabsf(__x); }
 1772              		.loc 7 75 3 is_stmt 1 view .LVU434
 1773              	.LBB884:
 1774              		.loc 7 76 5 view .LVU435
 1775              		.loc 7 76 5 is_stmt 0 view .LVU436
 1776              	.LBE884:
 1777              	.LBE900:
 1778              		.loc 7 76 5 is_stmt 1 view .LVU437
 1779              		.loc 7 76 5 view .LVU438
  98:Logger.cpp    ****     hw.PrintLine("%s - %s ( integer value):" FLT_FMT3 " us/call",
 1780              		.loc 6 98 18 is_stmt 0 view .LVU439
 1781 00ee 37EE667A 		vsub.f32	s14, s14, s13
  93:Logger.cpp    ****                  " us/char",
 1782              		.loc 6 93 17 view .LVU440
 1783 00f2 F1EE10FA 		vmrs	APSR_nzcv, FPSCR
  97:Logger.cpp    ****                  FLT_VAR3(slope));
 1784              		.loc 6 97 18 view .LVU441
 1785 00f6 B7EEC66A 		vcvt.f64.f32	d6, s12
  98:Logger.cpp    ****     hw.PrintLine("%s - %s ( integer value):" FLT_FMT3 " us/call",
 1786              		.loc 6 98 18 view .LVU442
 1787 00fa B7EEC77A 		vcvt.f64.f32	d7, s14
  93:Logger.cpp    ****                  " us/char",
 1788              		.loc 6 93 17 view .LVU443
 1789 00fe 4CBF     		ite	mi
 1790 0100 2D26     		movmi	r6, #45
 1791 0102 2026     		movpl	r6, #32
 1792              	.LVL149:
 1793              	.LBB901:
 1794              	.LBI885:
  75:/usr/include/newlib/c++/9.2.1/bits/std_abs.h ****   { return __builtin_fabsf(__x); }
 1795              		.loc 7 75 3 is_stmt 1 view .LVU444
 1796              	.LBB887:
 1797              		.loc 7 76 5 view .LVU445
 1798              		.loc 7 76 5 is_stmt 0 view .LVU446
 1799              	.LBE887:
 1800              	.LBE901:
 1801              		.loc 7 76 5 is_stmt 1 view .LVU447
 1802              		.loc 7 76 5 view .LVU448
  97:Logger.cpp    ****                  FLT_VAR3(slope));
 1803              		.loc 6 97 18 is_stmt 0 view .LVU449
 1804 0104 26EE086B 		vmul.f64	d6, d6, d8
 1805              	.LBB902:
 1806              	.LBB894:
 1807              		.loc 1 124 23 view .LVU450
 1808 0108 0296     		str	r6, [sp, #8]
 1809              	.LBE894:
 1810              	.LBE902:
  98:Logger.cpp    ****     hw.PrintLine("%s - %s ( integer value):" FLT_FMT3 " us/call",
 1811              		.loc 6 98 18 view .LVU451
 1812 010a 27EE087B 		vmul.f64	d7, d7, d8
  93:Logger.cpp    ****                  " us/char",
 1813              		.loc 6 93 17 view .LVU452
 1814 010e BDEEC66B 		vcvt.s32.f64	s12, d6
ARM GAS  /tmp/ccIu4BI8.s 			page 49


 1815              	.LVL150:
 1816              	.LBB903:
 1817              	.LBI888:
 122:../../libdaisy/src/daisy_seed.h ****     {
 1818              		.loc 1 122 17 is_stmt 1 view .LVU453
 1819              	.LBE903:
  93:Logger.cpp    ****                  " us/char",
 1820              		.loc 6 93 17 is_stmt 0 view .LVU454
 1821 0112 BDEEC77B 		vcvt.s32.f64	s14, d7
 1822              	.LBB904:
 1823              	.LBB895:
 1824              		.loc 1 124 23 view .LVU455
 1825 0116 8DED016A 		vstr.32	s12, [sp, #4]	@ int
 1826 011a 8DED047A 		vstr.32	s14, [sp, #16]	@ int
 1827 011e FFF7FEFF 		bl	_ZN5daisy6LoggerILNS_17LoggerDestinationE1EE9PrintLineEPKcz
 1828              	.LVL151:
 1829              		.loc 1 124 23 view .LVU456
 1830              	.LBE895:
 1831              	.LBE904:
 1832              	.LBB905:
 1833              	.LBI905:
  75:/usr/include/newlib/c++/9.2.1/bits/std_abs.h ****   { return __builtin_fabsf(__x); }
 1834              		.loc 7 75 3 is_stmt 1 view .LVU457
 1835              	.LBB906:
 1836              		.loc 7 76 5 view .LVU458
 1837              		.loc 7 76 31 is_stmt 0 view .LVU459
 1838 0122 B0EEEC7A 		vabs.f32	s14, s25
 1839              	.LVL152:
 1840              		.loc 7 76 31 view .LVU460
 1841              	.LBE906:
 1842              	.LBE905:
  99:Logger.cpp    ****                  class_caption,
 1843              		.loc 6 99 17 view .LVU461
 1844 0126 F4EEC9CA 		vcmpe.f32	s25, s18
 1845              	.LBB907:
 1846              	.LBB908:
 1847              		.loc 1 124 23 view .LVU462
 1848 012a 2A46     		mov	r2, r5
 1849 012c 2146     		mov	r1, r4
 1850 012e 6E48     		ldr	r0, .L101+24
 1851              	.LBE908:
 1852              	.LBE907:
  99:Logger.cpp    ****                  class_caption,
 1853              		.loc 6 99 17 view .LVU463
 1854 0130 FDEEC77A 		vcvt.s32.f32	s15, s14
 1855              	.LVL153:
 1856              		.loc 7 76 5 is_stmt 1 view .LVU464
 1857              		.loc 7 76 5 view .LVU465
 1858              	.LBB911:
 1859              	.LBI907:
 122:../../libdaisy/src/daisy_seed.h ****     {
 1860              		.loc 1 122 17 view .LVU466
 1861              	.LBE911:
  99:Logger.cpp    ****                  class_caption,
 1862              		.loc 6 99 17 is_stmt 0 view .LVU467
 1863 0134 F1EE10FA 		vmrs	APSR_nzcv, FPSCR
 102:Logger.cpp    ****     hw.PrintLine("%s - %s (unsigned value):" FLT_FMT3 " us/call",
ARM GAS  /tmp/ccIu4BI8.s 			page 50


 1864              		.loc 6 102 18 view .LVU468
 1865 0138 F8EEE76A 		vcvt.f32.s32	s13, s15
 1866              	.LVL154:
 1867              	.LBB912:
 1868              	.LBB909:
 1869              		.loc 1 124 23 view .LVU469
 1870 013c CDED007A 		vstr.32	s15, [sp]	@ int
 1871 0140 4CBF     		ite	mi
 1872 0142 2D23     		movmi	r3, #45
 1873 0144 2023     		movpl	r3, #32
 1874              	.LBE909:
 1875              	.LBE912:
 102:Logger.cpp    ****     hw.PrintLine("%s - %s (unsigned value):" FLT_FMT3 " us/call",
 1876              		.loc 6 102 18 view .LVU470
 1877 0146 37EE667A 		vsub.f32	s14, s14, s13
 1878              	.LVL155:
 102:Logger.cpp    ****     hw.PrintLine("%s - %s (unsigned value):" FLT_FMT3 " us/call",
 1879              		.loc 6 102 18 view .LVU471
 1880 014a B7EEC77A 		vcvt.f64.f32	d7, s14
 1881 014e 27EE087B 		vmul.f64	d7, d7, d8
  99:Logger.cpp    ****                  class_caption,
 1882              		.loc 6 99 17 view .LVU472
 1883 0152 BDEEC77B 		vcvt.s32.f64	s14, d7
 1884              	.LBB913:
 1885              	.LBB910:
 1886              		.loc 1 124 23 view .LVU473
 1887 0156 8DED017A 		vstr.32	s14, [sp, #4]	@ int
 1888 015a FFF7FEFF 		bl	_ZN5daisy6LoggerILNS_17LoggerDestinationE1EE9PrintLineEPKcz
 1889              	.LVL156:
 1890              		.loc 1 124 23 view .LVU474
 1891              	.LBE910:
 1892              	.LBE913:
 1893              	.LBB914:
 1894              	.LBI914:
  75:/usr/include/newlib/c++/9.2.1/bits/std_abs.h ****   { return __builtin_fabsf(__x); }
 1895              		.loc 7 75 3 is_stmt 1 view .LVU475
 1896              	.LBB915:
 1897              		.loc 7 76 5 view .LVU476
 1898              		.loc 7 76 31 is_stmt 0 view .LVU477
 1899 015e B0EECC7A 		vabs.f32	s14, s24
 1900              	.LVL157:
 1901              		.loc 7 76 31 view .LVU478
 1902              	.LBE915:
 1903              	.LBE914:
 103:Logger.cpp    ****                  class_caption,
 1904              		.loc 6 103 17 view .LVU479
 1905 0162 B4EEC9CA 		vcmpe.f32	s24, s18
 1906              	.LBB916:
 1907              	.LBB917:
 1908              		.loc 1 124 23 view .LVU480
 1909 0166 2A46     		mov	r2, r5
 1910 0168 2146     		mov	r1, r4
 1911 016a 6048     		ldr	r0, .L101+28
 1912              	.LBE917:
 1913              	.LBE916:
 103:Logger.cpp    ****                  class_caption,
 1914              		.loc 6 103 17 view .LVU481
ARM GAS  /tmp/ccIu4BI8.s 			page 51


 1915 016c FDEEC77A 		vcvt.s32.f32	s15, s14
 1916              	.LVL158:
 1917              		.loc 7 76 5 is_stmt 1 view .LVU482
 1918              		.loc 7 76 5 view .LVU483
 1919              	.LBB920:
 1920              	.LBI916:
 122:../../libdaisy/src/daisy_seed.h ****     {
 1921              		.loc 1 122 17 view .LVU484
 1922              	.LBE920:
 103:Logger.cpp    ****                  class_caption,
 1923              		.loc 6 103 17 is_stmt 0 view .LVU485
 1924 0170 F1EE10FA 		vmrs	APSR_nzcv, FPSCR
 106:Logger.cpp    ****     hw.PrintLine("%s - %s ( float.3 value):" FLT_FMT3 " us/call",
 1925              		.loc 6 106 18 view .LVU486
 1926 0174 F8EEE76A 		vcvt.f32.s32	s13, s15
 1927              	.LVL159:
 1928              	.LBB921:
 1929              	.LBB918:
 1930              		.loc 1 124 23 view .LVU487
 1931 0178 CDED007A 		vstr.32	s15, [sp]	@ int
 1932 017c 4CBF     		ite	mi
 1933 017e 2D23     		movmi	r3, #45
 1934 0180 2023     		movpl	r3, #32
 1935              	.LBE918:
 1936              	.LBE921:
 106:Logger.cpp    ****     hw.PrintLine("%s - %s ( float.3 value):" FLT_FMT3 " us/call",
 1937              		.loc 6 106 18 view .LVU488
 1938 0182 37EE667A 		vsub.f32	s14, s14, s13
 1939              	.LVL160:
 106:Logger.cpp    ****     hw.PrintLine("%s - %s ( float.3 value):" FLT_FMT3 " us/call",
 1940              		.loc 6 106 18 view .LVU489
 1941 0186 B7EEC77A 		vcvt.f64.f32	d7, s14
 1942 018a 27EE087B 		vmul.f64	d7, d7, d8
 103:Logger.cpp    ****                  class_caption,
 1943              		.loc 6 103 17 view .LVU490
 1944 018e BDEEC77B 		vcvt.s32.f64	s14, d7
 1945              	.LBB922:
 1946              	.LBB919:
 1947              		.loc 1 124 23 view .LVU491
 1948 0192 8DED017A 		vstr.32	s14, [sp, #4]	@ int
 1949 0196 FFF7FEFF 		bl	_ZN5daisy6LoggerILNS_17LoggerDestinationE1EE9PrintLineEPKcz
 1950              	.LVL161:
 1951              		.loc 1 124 23 view .LVU492
 1952              	.LBE919:
 1953              	.LBE922:
 1954              	.LBB923:
 1955              	.LBI923:
  75:/usr/include/newlib/c++/9.2.1/bits/std_abs.h ****   { return __builtin_fabsf(__x); }
 1956              		.loc 7 75 3 is_stmt 1 view .LVU493
 1957              	.LBB924:
 1958              		.loc 7 76 5 view .LVU494
 1959              		.loc 7 76 31 is_stmt 0 view .LVU495
 1960 019a B0EEEB7A 		vabs.f32	s14, s23
 1961              	.LVL162:
 1962              		.loc 7 76 31 view .LVU496
 1963              	.LBE924:
 1964              	.LBE923:
ARM GAS  /tmp/ccIu4BI8.s 			page 52


 107:Logger.cpp    ****                  class_caption,
 1965              		.loc 6 107 17 view .LVU497
 1966 019e F4EEC9BA 		vcmpe.f32	s23, s18
 1967              	.LBB925:
 1968              	.LBB926:
 1969              		.loc 1 124 23 view .LVU498
 1970 01a2 2A46     		mov	r2, r5
 1971 01a4 2146     		mov	r1, r4
 1972 01a6 5248     		ldr	r0, .L101+32
 1973              	.LBE926:
 1974              	.LBE925:
 107:Logger.cpp    ****                  class_caption,
 1975              		.loc 6 107 17 view .LVU499
 1976 01a8 FDEEC77A 		vcvt.s32.f32	s15, s14
 1977              	.LVL163:
 1978              		.loc 7 76 5 is_stmt 1 view .LVU500
 1979              		.loc 7 76 5 view .LVU501
 1980              	.LBB929:
 1981              	.LBI925:
 122:../../libdaisy/src/daisy_seed.h ****     {
 1982              		.loc 1 122 17 view .LVU502
 1983              	.LBE929:
 107:Logger.cpp    ****                  class_caption,
 1984              		.loc 6 107 17 is_stmt 0 view .LVU503
 1985 01ac F1EE10FA 		vmrs	APSR_nzcv, FPSCR
 110:Logger.cpp    ****     hw.PrintLine("%s - %s (FLT_VAR1 value):" FLT_FMT3 " us/call",
 1986              		.loc 6 110 18 view .LVU504
 1987 01b0 F8EEE76A 		vcvt.f32.s32	s13, s15
 1988              	.LVL164:
 1989              	.LBB930:
 1990              	.LBB927:
 1991              		.loc 1 124 23 view .LVU505
 1992 01b4 CDED007A 		vstr.32	s15, [sp]	@ int
 1993 01b8 4CBF     		ite	mi
 1994 01ba 2D23     		movmi	r3, #45
 1995 01bc 2023     		movpl	r3, #32
 1996              	.LBE927:
 1997              	.LBE930:
 110:Logger.cpp    ****     hw.PrintLine("%s - %s (FLT_VAR1 value):" FLT_FMT3 " us/call",
 1998              		.loc 6 110 18 view .LVU506
 1999 01be 37EE667A 		vsub.f32	s14, s14, s13
 2000              	.LVL165:
 110:Logger.cpp    ****     hw.PrintLine("%s - %s (FLT_VAR1 value):" FLT_FMT3 " us/call",
 2001              		.loc 6 110 18 view .LVU507
 2002 01c2 B7EEC77A 		vcvt.f64.f32	d7, s14
 2003 01c6 27EE087B 		vmul.f64	d7, d7, d8
 107:Logger.cpp    ****                  class_caption,
 2004              		.loc 6 107 17 view .LVU508
 2005 01ca BDEEC77B 		vcvt.s32.f64	s14, d7
 2006              	.LBB931:
 2007              	.LBB928:
 2008              		.loc 1 124 23 view .LVU509
 2009 01ce 8DED017A 		vstr.32	s14, [sp, #4]	@ int
 2010 01d2 FFF7FEFF 		bl	_ZN5daisy6LoggerILNS_17LoggerDestinationE1EE9PrintLineEPKcz
 2011              	.LVL166:
 2012              		.loc 1 124 23 view .LVU510
 2013              	.LBE928:
ARM GAS  /tmp/ccIu4BI8.s 			page 53


 2014              	.LBE931:
 2015              	.LBB932:
 2016              	.LBI932:
  75:/usr/include/newlib/c++/9.2.1/bits/std_abs.h ****   { return __builtin_fabsf(__x); }
 2017              		.loc 7 75 3 is_stmt 1 view .LVU511
 2018              	.LBB933:
 2019              		.loc 7 76 5 view .LVU512
 2020              		.loc 7 76 31 is_stmt 0 view .LVU513
 2021 01d6 B0EECB7A 		vabs.f32	s14, s22
 2022              	.LVL167:
 2023              		.loc 7 76 31 view .LVU514
 2024              	.LBE933:
 2025              	.LBE932:
 111:Logger.cpp    ****                  class_caption,
 2026              		.loc 6 111 17 view .LVU515
 2027 01da B4EEC9BA 		vcmpe.f32	s22, s18
 2028              	.LBB934:
 2029              	.LBB935:
 2030              		.loc 1 124 23 view .LVU516
 2031 01de 2A46     		mov	r2, r5
 2032 01e0 2146     		mov	r1, r4
 2033 01e2 4448     		ldr	r0, .L101+36
 2034              	.LBE935:
 2035              	.LBE934:
 111:Logger.cpp    ****                  class_caption,
 2036              		.loc 6 111 17 view .LVU517
 2037 01e4 FDEEC77A 		vcvt.s32.f32	s15, s14
 2038              	.LVL168:
 2039              		.loc 7 76 5 is_stmt 1 view .LVU518
 2040              		.loc 7 76 5 view .LVU519
 2041              	.LBB938:
 2042              	.LBI934:
 122:../../libdaisy/src/daisy_seed.h ****     {
 2043              		.loc 1 122 17 view .LVU520
 2044              	.LBE938:
 111:Logger.cpp    ****                  class_caption,
 2045              		.loc 6 111 17 is_stmt 0 view .LVU521
 2046 01e8 F1EE10FA 		vmrs	APSR_nzcv, FPSCR
 114:Logger.cpp    ****     hw.PrintLine("%s - %s (FLT_VAR2 value):" FLT_FMT3 " us/call",
 2047              		.loc 6 114 18 view .LVU522
 2048 01ec F8EEE76A 		vcvt.f32.s32	s13, s15
 2049              	.LVL169:
 2050              	.LBB939:
 2051              	.LBB936:
 2052              		.loc 1 124 23 view .LVU523
 2053 01f0 CDED007A 		vstr.32	s15, [sp]	@ int
 2054 01f4 4CBF     		ite	mi
 2055 01f6 2D23     		movmi	r3, #45
 2056 01f8 2023     		movpl	r3, #32
 2057              	.LBE936:
 2058              	.LBE939:
 114:Logger.cpp    ****     hw.PrintLine("%s - %s (FLT_VAR2 value):" FLT_FMT3 " us/call",
 2059              		.loc 6 114 18 view .LVU524
 2060 01fa 37EE667A 		vsub.f32	s14, s14, s13
 2061              	.LVL170:
 114:Logger.cpp    ****     hw.PrintLine("%s - %s (FLT_VAR2 value):" FLT_FMT3 " us/call",
 2062              		.loc 6 114 18 view .LVU525
ARM GAS  /tmp/ccIu4BI8.s 			page 54


 2063 01fe B7EEC77A 		vcvt.f64.f32	d7, s14
 2064 0202 27EE087B 		vmul.f64	d7, d7, d8
 111:Logger.cpp    ****                  class_caption,
 2065              		.loc 6 111 17 view .LVU526
 2066 0206 BDEEC77B 		vcvt.s32.f64	s14, d7
 2067              	.LBB940:
 2068              	.LBB937:
 2069              		.loc 1 124 23 view .LVU527
 2070 020a 8DED017A 		vstr.32	s14, [sp, #4]	@ int
 2071 020e FFF7FEFF 		bl	_ZN5daisy6LoggerILNS_17LoggerDestinationE1EE9PrintLineEPKcz
 2072              	.LVL171:
 2073              		.loc 1 124 23 view .LVU528
 2074              	.LBE937:
 2075              	.LBE940:
 2076              	.LBB941:
 2077              	.LBI941:
  75:/usr/include/newlib/c++/9.2.1/bits/std_abs.h ****   { return __builtin_fabsf(__x); }
 2078              		.loc 7 75 3 is_stmt 1 view .LVU529
 2079              	.LBB942:
 2080              		.loc 7 76 5 view .LVU530
 2081              		.loc 7 76 31 is_stmt 0 view .LVU531
 2082 0212 B0EEEA7A 		vabs.f32	s14, s21
 2083              	.LVL172:
 2084              		.loc 7 76 31 view .LVU532
 2085              	.LBE942:
 2086              	.LBE941:
 115:Logger.cpp    ****                  class_caption,
 2087              		.loc 6 115 17 view .LVU533
 2088 0216 F4EEC9AA 		vcmpe.f32	s21, s18
 2089              	.LBB943:
 2090              	.LBB944:
 2091              		.loc 1 124 23 view .LVU534
 2092 021a 2A46     		mov	r2, r5
 2093 021c 2146     		mov	r1, r4
 2094 021e 3648     		ldr	r0, .L101+40
 2095              	.LBE944:
 2096              	.LBE943:
 115:Logger.cpp    ****                  class_caption,
 2097              		.loc 6 115 17 view .LVU535
 2098 0220 FDEEC77A 		vcvt.s32.f32	s15, s14
 2099              	.LVL173:
 2100              		.loc 7 76 5 is_stmt 1 view .LVU536
 2101              		.loc 7 76 5 view .LVU537
 2102              	.LBB947:
 2103              	.LBI943:
 122:../../libdaisy/src/daisy_seed.h ****     {
 2104              		.loc 1 122 17 view .LVU538
 2105              	.LBE947:
 115:Logger.cpp    ****                  class_caption,
 2106              		.loc 6 115 17 is_stmt 0 view .LVU539
 2107 0224 F1EE10FA 		vmrs	APSR_nzcv, FPSCR
 118:Logger.cpp    ****     hw.PrintLine("%s - %s (FLT_VAR3 value):" FLT_FMT3 " us/call",
 2108              		.loc 6 118 18 view .LVU540
 2109 0228 F8EEE76A 		vcvt.f32.s32	s13, s15
 2110              	.LVL174:
 2111              	.LBB948:
 2112              	.LBB945:
ARM GAS  /tmp/ccIu4BI8.s 			page 55


 2113              		.loc 1 124 23 view .LVU541
 2114 022c CDED007A 		vstr.32	s15, [sp]	@ int
 2115 0230 4CBF     		ite	mi
 2116 0232 2D23     		movmi	r3, #45
 2117 0234 2023     		movpl	r3, #32
 2118              	.LBE945:
 2119              	.LBE948:
 118:Logger.cpp    ****     hw.PrintLine("%s - %s (FLT_VAR3 value):" FLT_FMT3 " us/call",
 2120              		.loc 6 118 18 view .LVU542
 2121 0236 37EE667A 		vsub.f32	s14, s14, s13
 2122              	.LVL175:
 118:Logger.cpp    ****     hw.PrintLine("%s - %s (FLT_VAR3 value):" FLT_FMT3 " us/call",
 2123              		.loc 6 118 18 view .LVU543
 2124 023a B7EEC77A 		vcvt.f64.f32	d7, s14
 2125 023e 27EE087B 		vmul.f64	d7, d7, d8
 115:Logger.cpp    ****                  class_caption,
 2126              		.loc 6 115 17 view .LVU544
 2127 0242 BDEEC77B 		vcvt.s32.f64	s14, d7
 2128              	.LBB949:
 2129              	.LBB946:
 2130              		.loc 1 124 23 view .LVU545
 2131 0246 8DED017A 		vstr.32	s14, [sp, #4]	@ int
 2132 024a FFF7FEFF 		bl	_ZN5daisy6LoggerILNS_17LoggerDestinationE1EE9PrintLineEPKcz
 2133              	.LVL176:
 2134              		.loc 1 124 23 view .LVU546
 2135              	.LBE946:
 2136              	.LBE949:
 2137              	.LBB950:
 2138              	.LBI950:
  75:/usr/include/newlib/c++/9.2.1/bits/std_abs.h ****   { return __builtin_fabsf(__x); }
 2139              		.loc 7 75 3 is_stmt 1 view .LVU547
 2140              	.LBB951:
 2141              		.loc 7 76 5 view .LVU548
 2142              		.loc 7 76 31 is_stmt 0 view .LVU549
 2143 024e B0EECA7A 		vabs.f32	s14, s20
 2144              	.LVL177:
 2145              		.loc 7 76 31 view .LVU550
 2146              	.LBE951:
 2147              	.LBE950:
 119:Logger.cpp    ****                  class_caption,
 2148              		.loc 6 119 17 view .LVU551
 2149 0252 B4EEC9AA 		vcmpe.f32	s20, s18
 2150              	.LBB952:
 2151              	.LBB953:
 2152              		.loc 1 124 23 view .LVU552
 2153 0256 2A46     		mov	r2, r5
 2154 0258 2146     		mov	r1, r4
 2155 025a 2848     		ldr	r0, .L101+44
 2156              	.LBE953:
 2157              	.LBE952:
 119:Logger.cpp    ****                  class_caption,
 2158              		.loc 6 119 17 view .LVU553
 2159 025c FDEEC77A 		vcvt.s32.f32	s15, s14
 2160              	.LVL178:
 2161              		.loc 7 76 5 is_stmt 1 view .LVU554
 2162              		.loc 7 76 5 view .LVU555
 2163              	.LBB956:
ARM GAS  /tmp/ccIu4BI8.s 			page 56


 2164              	.LBI952:
 122:../../libdaisy/src/daisy_seed.h ****     {
 2165              		.loc 1 122 17 view .LVU556
 2166              	.LBE956:
 119:Logger.cpp    ****                  class_caption,
 2167              		.loc 6 119 17 is_stmt 0 view .LVU557
 2168 0260 F1EE10FA 		vmrs	APSR_nzcv, FPSCR
 122:Logger.cpp    ****     hw.PrintLine("%s - %s (FLT_VAR4 value):" FLT_FMT3 " us/call",
 2169              		.loc 6 122 18 view .LVU558
 2170 0264 F8EEE76A 		vcvt.f32.s32	s13, s15
 2171              	.LVL179:
 2172              	.LBB957:
 2173              	.LBB954:
 2174              		.loc 1 124 23 view .LVU559
 2175 0268 CDED007A 		vstr.32	s15, [sp]	@ int
 2176 026c 4CBF     		ite	mi
 2177 026e 2D23     		movmi	r3, #45
 2178 0270 2023     		movpl	r3, #32
 2179              	.LBE954:
 2180              	.LBE957:
 122:Logger.cpp    ****     hw.PrintLine("%s - %s (FLT_VAR4 value):" FLT_FMT3 " us/call",
 2181              		.loc 6 122 18 view .LVU560
 2182 0272 37EE667A 		vsub.f32	s14, s14, s13
 2183              	.LVL180:
 122:Logger.cpp    ****     hw.PrintLine("%s - %s (FLT_VAR4 value):" FLT_FMT3 " us/call",
 2184              		.loc 6 122 18 view .LVU561
 2185 0276 B7EEC77A 		vcvt.f64.f32	d7, s14
 2186 027a 27EE087B 		vmul.f64	d7, d7, d8
 119:Logger.cpp    ****                  class_caption,
 2187              		.loc 6 119 17 view .LVU562
 2188 027e BDEEC77B 		vcvt.s32.f64	s14, d7
 2189              	.LBB958:
 2190              	.LBB955:
 2191              		.loc 1 124 23 view .LVU563
 2192 0282 8DED017A 		vstr.32	s14, [sp, #4]	@ int
 2193 0286 FFF7FEFF 		bl	_ZN5daisy6LoggerILNS_17LoggerDestinationE1EE9PrintLineEPKcz
 2194              	.LVL181:
 2195              		.loc 1 124 23 view .LVU564
 2196              	.LBE955:
 2197              	.LBE958:
 2198              	.LBB959:
 2199              	.LBI959:
  75:/usr/include/newlib/c++/9.2.1/bits/std_abs.h ****   { return __builtin_fabsf(__x); }
 2200              		.loc 7 75 3 is_stmt 1 view .LVU565
 2201              	.LBB960:
 2202              		.loc 7 76 5 view .LVU566
 2203              		.loc 7 76 31 is_stmt 0 view .LVU567
 2204 028a B0EEE97A 		vabs.f32	s14, s19
 2205              	.LVL182:
 2206              		.loc 7 76 31 view .LVU568
 2207              	.LBE960:
 2208              	.LBE959:
 123:Logger.cpp    ****                  class_caption,
 2209              		.loc 6 123 17 view .LVU569
 2210 028e F4EEC99A 		vcmpe.f32	s19, s18
 2211              	.LBB961:
 2212              	.LBB962:
ARM GAS  /tmp/ccIu4BI8.s 			page 57


 2213              		.loc 1 124 23 view .LVU570
 2214 0292 2A46     		mov	r2, r5
 2215 0294 2146     		mov	r1, r4
 2216 0296 1A48     		ldr	r0, .L101+48
 2217              	.LBE962:
 2218              	.LBE961:
 123:Logger.cpp    ****                  class_caption,
 2219              		.loc 6 123 17 view .LVU571
 2220 0298 FDEEC77A 		vcvt.s32.f32	s15, s14
 2221              	.LVL183:
 2222              		.loc 7 76 5 is_stmt 1 view .LVU572
 2223              		.loc 7 76 5 view .LVU573
 2224              	.LBB965:
 2225              	.LBI961:
 122:../../libdaisy/src/daisy_seed.h ****     {
 2226              		.loc 1 122 17 view .LVU574
 2227              	.LBE965:
 123:Logger.cpp    ****                  class_caption,
 2228              		.loc 6 123 17 is_stmt 0 view .LVU575
 2229 029c F1EE10FA 		vmrs	APSR_nzcv, FPSCR
 126:Logger.cpp    **** }
 2230              		.loc 6 126 18 view .LVU576
 2231 02a0 F8EEE76A 		vcvt.f32.s32	s13, s15
 2232              	.LVL184:
 2233              	.LBB966:
 2234              	.LBB963:
 2235              		.loc 1 124 23 view .LVU577
 2236 02a4 CDED007A 		vstr.32	s15, [sp]	@ int
 2237 02a8 4CBF     		ite	mi
 2238 02aa 2D23     		movmi	r3, #45
 2239 02ac 2023     		movpl	r3, #32
 2240              	.LBE963:
 2241              	.LBE966:
 126:Logger.cpp    **** }
 2242              		.loc 6 126 18 view .LVU578
 2243 02ae 37EE667A 		vsub.f32	s14, s14, s13
 2244              	.LVL185:
 126:Logger.cpp    **** }
 2245              		.loc 6 126 18 view .LVU579
 2246 02b2 B7EEC77A 		vcvt.f64.f32	d7, s14
 2247 02b6 27EE087B 		vmul.f64	d7, d7, d8
 123:Logger.cpp    ****                  class_caption,
 2248              		.loc 6 123 17 view .LVU580
 2249 02ba BDEEC77B 		vcvt.s32.f64	s14, d7
 2250              	.LBB967:
 2251              	.LBB964:
 2252              		.loc 1 124 23 view .LVU581
 2253 02be 8DED017A 		vstr.32	s14, [sp, #4]	@ int
 2254 02c2 FFF7FEFF 		bl	_ZN5daisy6LoggerILNS_17LoggerDestinationE1EE9PrintLineEPKcz
 2255              	.LVL186:
 2256              		.loc 1 124 23 view .LVU582
 2257              	.LBE964:
 2258              	.LBE967:
 127:Logger.cpp    **** 
 2259              		.loc 6 127 1 view .LVU583
 2260 02c6 06B0     		add	sp, sp, #24
 2261              		.cfi_def_cfa_offset 64
ARM GAS  /tmp/ccIu4BI8.s 			page 58


 2262              		@ sp needed
 2263 02c8 BDEC0C8B 		vldm	sp!, {d8-d13}
 2264              		.cfi_restore 90
 2265              		.cfi_restore 91
 2266              		.cfi_restore 88
 2267              		.cfi_restore 89
 2268              		.cfi_restore 86
 2269              		.cfi_restore 87
 2270              		.cfi_restore 84
 2271              		.cfi_restore 85
 2272              		.cfi_restore 82
 2273              		.cfi_restore 83
 2274              		.cfi_restore 80
 2275              		.cfi_restore 81
 2276              		.cfi_def_cfa_offset 16
 2277              	.LVL187:
 127:Logger.cpp    **** 
 2278              		.loc 6 127 1 view .LVU584
 2279 02cc 70BD     		pop	{r4, r5, r6, pc}
 2280              	.LVL188:
 2281              	.L102:
 127:Logger.cpp    **** 
 2282              		.loc 6 127 1 view .LVU585
 2283 02ce 00BF     		.align	3
 2284              	.L101:
 2285 02d0 00000000 		.word	0
 2286 02d4 00408F40 		.word	1083129856
 2287 02d8 00000C42 		.word	1108082688
 2288 02dc 00000000 		.word	0
 2289 02e0 00000000 		.word	.LC6
 2290 02e4 2C000000 		.word	.LC7
 2291 02e8 6C000000 		.word	.LC8
 2292 02ec 98000000 		.word	.LC9
 2293 02f0 C4000000 		.word	.LC10
 2294 02f4 F0000000 		.word	.LC11
 2295 02f8 1C010000 		.word	.LC12
 2296 02fc 48010000 		.word	.LC13
 2297 0300 74010000 		.word	.LC14
 2298              		.cfi_endproc
 2299              	.LFE2087:
 2301              		.section	.text._Z15ProfileFunctionIXadL_ZN5daisy6LoggerILNS0_17LoggerDestinationE2EE5PrintEPKczEEJ
 2302              		.align	1
 2303              		.p2align 2,,3
 2304              		.weak	_Z15ProfileFunctionIXadL_ZN5daisy6LoggerILNS0_17LoggerDestinationE2EE5PrintEPKczEEJEEfS5_DpT
 2305              		.syntax unified
 2306              		.thumb
 2307              		.thumb_func
 2308              		.fpu fpv5-d16
 2310              	_Z15ProfileFunctionIXadL_ZN5daisy6LoggerILNS0_17LoggerDestinationE2EE5PrintEPKczEEJEEfS5_DpT0_:
 2311              	.LVL189:
 2312              	.LFB2089:
  49:Logger.cpp    **** {
 2313              		.loc 6 49 7 is_stmt 1 view -0
 2314              		.cfi_startproc
 2315              		@ args = 0, pretend = 0, frame = 0
 2316              		@ frame_needed = 0, uses_anonymous_args = 0
  49:Logger.cpp    **** {
ARM GAS  /tmp/ccIu4BI8.s 			page 59


 2317              		.loc 6 49 7 is_stmt 0 view .LVU587
 2318 0000 70B5     		push	{r4, r5, r6, lr}
 2319              		.cfi_def_cfa_offset 16
 2320              		.cfi_offset 4, -16
 2321              		.cfi_offset 5, -12
 2322              		.cfi_offset 6, -8
 2323              		.cfi_offset 14, -4
  49:Logger.cpp    **** {
 2324              		.loc 6 49 7 view .LVU588
 2325 0002 0546     		mov	r5, r0
  52:Logger.cpp    ****     for(int i = 0; i < count; i++)
 2326              		.loc 6 52 46 view .LVU589
 2327 0004 0A4C     		ldr	r4, .L107
 2328 0006 FFF7FEFF 		bl	_ZN5daisy6System7GetTickEv
 2329              	.LVL190:
  52:Logger.cpp    ****     for(int i = 0; i < count; i++)
 2330              		.loc 6 52 46 view .LVU590
 2331 000a 0646     		mov	r6, r0
 2332              	.LVL191:
 2333              	.LBB968:
  53:Logger.cpp    ****     {
 2334              		.loc 6 53 22 is_stmt 1 view .LVU591
 2335              	.L104:
  55:Logger.cpp    ****     }
 2336              		.loc 6 55 17 is_stmt 0 discriminator 2 view .LVU592
 2337 000c 2846     		mov	r0, r5
 2338 000e FFF7FEFF 		bl	_ZN5daisy6LoggerILNS_17LoggerDestinationE2EE5PrintEPKcz
 2339              	.LVL192:
  53:Logger.cpp    ****     {
 2340              		.loc 6 53 5 is_stmt 1 discriminator 2 view .LVU593
  53:Logger.cpp    ****     {
 2341              		.loc 6 53 22 discriminator 2 view .LVU594
 2342 0012 013C     		subs	r4, r4, #1
 2343              	.LVL193:
  53:Logger.cpp    ****     {
 2344              		.loc 6 53 22 is_stmt 0 discriminator 2 view .LVU595
 2345 0014 FAD1     		bne	.L104
 2346              	.LBE968:
  57:Logger.cpp    ****     const float perf
 2347              		.loc 6 57 37 view .LVU596
 2348 0016 FFF7FEFF 		bl	_ZN5daisy6System7GetTickEv
 2349              	.LVL194:
  57:Logger.cpp    ****     const float perf
 2350              		.loc 6 57 17 view .LVU597
 2351 001a 801B     		subs	r0, r0, r6
 2352              	.LVL195:
  58:Logger.cpp    ****         = (float)dt
 2353              		.loc 6 58 17 view .LVU598
 2354 001c 9FED050A 		vldr.32	s0, .L107+4
  60:Logger.cpp    ****     return perf;
 2355              		.loc 6 60 11 view .LVU599
 2356 0020 07EE900A 		vmov	s15, r0	@ int
 2357 0024 F8EE677A 		vcvt.f32.u32	s15, s15
  62:Logger.cpp    **** 
 2358              		.loc 6 62 1 view .LVU600
 2359 0028 87EE800A 		vdiv.f32	s0, s15, s0
 2360              	.LVL196:
ARM GAS  /tmp/ccIu4BI8.s 			page 60


  62:Logger.cpp    **** 
 2361              		.loc 6 62 1 view .LVU601
 2362 002c 70BD     		pop	{r4, r5, r6, pc}
 2363              	.LVL197:
 2364              	.L108:
  62:Logger.cpp    **** 
 2365              		.loc 6 62 1 view .LVU602
 2366 002e 00BF     		.align	2
 2367              	.L107:
 2368 0030 A0860100 		.word	100000
 2369 0034 8096984B 		.word	1268291200
 2370              		.cfi_endproc
 2371              	.LFE2089:
 2373              		.section	.text._Z15ProfileFunctionIXadL_ZN5daisy6LoggerILNS0_17LoggerDestinationE2EE5PrintEPKczEEJ
 2374              		.align	1
 2375              		.p2align 2,,3
 2376              		.weak	_Z15ProfileFunctionIXadL_ZN5daisy6LoggerILNS0_17LoggerDestinationE2EE5PrintEPKczEEJiEEfS5_Dp
 2377              		.syntax unified
 2378              		.thumb
 2379              		.thumb_func
 2380              		.fpu fpv5-d16
 2382              	_Z15ProfileFunctionIXadL_ZN5daisy6LoggerILNS0_17LoggerDestinationE2EE5PrintEPKczEEJiEEfS5_DpT0_:
 2383              	.LVL198:
 2384              	.LFB2090:
  49:Logger.cpp    **** {
 2385              		.loc 6 49 7 is_stmt 1 view -0
 2386              		.cfi_startproc
 2387              		@ args = 0, pretend = 0, frame = 0
 2388              		@ frame_needed = 0, uses_anonymous_args = 0
  49:Logger.cpp    **** {
 2389              		.loc 6 49 7 is_stmt 0 view .LVU604
 2390 0000 F8B5     		push	{r3, r4, r5, r6, r7, lr}
 2391              		.cfi_def_cfa_offset 24
 2392              		.cfi_offset 3, -24
 2393              		.cfi_offset 4, -20
 2394              		.cfi_offset 5, -16
 2395              		.cfi_offset 6, -12
 2396              		.cfi_offset 7, -8
 2397              		.cfi_offset 14, -4
  49:Logger.cpp    **** {
 2398              		.loc 6 49 7 view .LVU605
 2399 0002 0646     		mov	r6, r0
 2400 0004 0D46     		mov	r5, r1
  52:Logger.cpp    ****     for(int i = 0; i < count; i++)
 2401              		.loc 6 52 46 view .LVU606
 2402 0006 0B4C     		ldr	r4, .L113
 2403 0008 FFF7FEFF 		bl	_ZN5daisy6System7GetTickEv
 2404              	.LVL199:
  52:Logger.cpp    ****     for(int i = 0; i < count; i++)
 2405              		.loc 6 52 46 view .LVU607
 2406 000c 0746     		mov	r7, r0
 2407              	.LVL200:
 2408              	.LBB969:
  53:Logger.cpp    ****     {
 2409              		.loc 6 53 22 is_stmt 1 view .LVU608
 2410              	.L110:
  55:Logger.cpp    ****     }
ARM GAS  /tmp/ccIu4BI8.s 			page 61


 2411              		.loc 6 55 17 is_stmt 0 discriminator 2 view .LVU609
 2412 000e 2946     		mov	r1, r5
 2413 0010 3046     		mov	r0, r6
 2414 0012 FFF7FEFF 		bl	_ZN5daisy6LoggerILNS_17LoggerDestinationE2EE5PrintEPKcz
 2415              	.LVL201:
  53:Logger.cpp    ****     {
 2416              		.loc 6 53 5 is_stmt 1 discriminator 2 view .LVU610
  53:Logger.cpp    ****     {
 2417              		.loc 6 53 22 discriminator 2 view .LVU611
 2418 0016 013C     		subs	r4, r4, #1
 2419              	.LVL202:
  53:Logger.cpp    ****     {
 2420              		.loc 6 53 22 is_stmt 0 discriminator 2 view .LVU612
 2421 0018 F9D1     		bne	.L110
 2422              	.LBE969:
  57:Logger.cpp    ****     const float perf
 2423              		.loc 6 57 37 view .LVU613
 2424 001a FFF7FEFF 		bl	_ZN5daisy6System7GetTickEv
 2425              	.LVL203:
  57:Logger.cpp    ****     const float perf
 2426              		.loc 6 57 17 view .LVU614
 2427 001e C01B     		subs	r0, r0, r7
 2428              	.LVL204:
  58:Logger.cpp    ****         = (float)dt
 2429              		.loc 6 58 17 view .LVU615
 2430 0020 9FED050A 		vldr.32	s0, .L113+4
  60:Logger.cpp    ****     return perf;
 2431              		.loc 6 60 11 view .LVU616
 2432 0024 07EE900A 		vmov	s15, r0	@ int
 2433 0028 F8EE677A 		vcvt.f32.u32	s15, s15
  62:Logger.cpp    **** 
 2434              		.loc 6 62 1 view .LVU617
 2435 002c 87EE800A 		vdiv.f32	s0, s15, s0
 2436              	.LVL205:
  62:Logger.cpp    **** 
 2437              		.loc 6 62 1 view .LVU618
 2438 0030 F8BD     		pop	{r3, r4, r5, r6, r7, pc}
 2439              	.LVL206:
 2440              	.L114:
  62:Logger.cpp    **** 
 2441              		.loc 6 62 1 view .LVU619
 2442 0032 00BF     		.align	2
 2443              	.L113:
 2444 0034 A0860100 		.word	100000
 2445 0038 8096984B 		.word	1268291200
 2446              		.cfi_endproc
 2447              	.LFE2090:
 2449              		.section	.text._Z15ProfileFunctionIXadL_ZN5daisy6LoggerILNS0_17LoggerDestinationE2EE5PrintEPKczEEJ
 2450              		.align	1
 2451              		.p2align 2,,3
 2452              		.weak	_Z15ProfileFunctionIXadL_ZN5daisy6LoggerILNS0_17LoggerDestinationE2EE5PrintEPKczEEJciiEEfS5_
 2453              		.syntax unified
 2454              		.thumb
 2455              		.thumb_func
 2456              		.fpu fpv5-d16
 2458              	_Z15ProfileFunctionIXadL_ZN5daisy6LoggerILNS0_17LoggerDestinationE2EE5PrintEPKczEEJciiEEfS5_DpT0_:
 2459              	.LVL207:
ARM GAS  /tmp/ccIu4BI8.s 			page 62


 2460              	.LFB2092:
  49:Logger.cpp    **** {
 2461              		.loc 6 49 7 is_stmt 1 view -0
 2462              		.cfi_startproc
 2463              		@ args = 0, pretend = 0, frame = 0
 2464              		@ frame_needed = 0, uses_anonymous_args = 0
  49:Logger.cpp    **** {
 2465              		.loc 6 49 7 is_stmt 0 view .LVU621
 2466 0000 2DE9F843 		push	{r3, r4, r5, r6, r7, r8, r9, lr}
 2467              		.cfi_def_cfa_offset 32
 2468              		.cfi_offset 3, -32
 2469              		.cfi_offset 4, -28
 2470              		.cfi_offset 5, -24
 2471              		.cfi_offset 6, -20
 2472              		.cfi_offset 7, -16
 2473              		.cfi_offset 8, -12
 2474              		.cfi_offset 9, -8
 2475              		.cfi_offset 14, -4
  49:Logger.cpp    **** {
 2476              		.loc 6 49 7 view .LVU622
 2477 0004 8046     		mov	r8, r0
 2478 0006 0F46     		mov	r7, r1
 2479 0008 1646     		mov	r6, r2
 2480 000a 1D46     		mov	r5, r3
  52:Logger.cpp    ****     for(int i = 0; i < count; i++)
 2481              		.loc 6 52 46 view .LVU623
 2482 000c 0C4C     		ldr	r4, .L119
 2483 000e FFF7FEFF 		bl	_ZN5daisy6System7GetTickEv
 2484              	.LVL208:
  52:Logger.cpp    ****     for(int i = 0; i < count; i++)
 2485              		.loc 6 52 46 view .LVU624
 2486 0012 8146     		mov	r9, r0
 2487              	.LVL209:
 2488              	.LBB970:
  53:Logger.cpp    ****     {
 2489              		.loc 6 53 22 is_stmt 1 view .LVU625
 2490              	.L116:
  55:Logger.cpp    ****     }
 2491              		.loc 6 55 17 is_stmt 0 discriminator 2 view .LVU626
 2492 0014 2B46     		mov	r3, r5
 2493 0016 3246     		mov	r2, r6
 2494 0018 3946     		mov	r1, r7
 2495 001a 4046     		mov	r0, r8
 2496 001c FFF7FEFF 		bl	_ZN5daisy6LoggerILNS_17LoggerDestinationE2EE5PrintEPKcz
 2497              	.LVL210:
  53:Logger.cpp    ****     {
 2498              		.loc 6 53 5 is_stmt 1 discriminator 2 view .LVU627
  53:Logger.cpp    ****     {
 2499              		.loc 6 53 22 discriminator 2 view .LVU628
 2500 0020 013C     		subs	r4, r4, #1
 2501              	.LVL211:
  53:Logger.cpp    ****     {
 2502              		.loc 6 53 22 is_stmt 0 discriminator 2 view .LVU629
 2503 0022 F7D1     		bne	.L116
 2504              	.LBE970:
  57:Logger.cpp    ****     const float perf
 2505              		.loc 6 57 37 view .LVU630
ARM GAS  /tmp/ccIu4BI8.s 			page 63


 2506 0024 FFF7FEFF 		bl	_ZN5daisy6System7GetTickEv
 2507              	.LVL212:
  57:Logger.cpp    ****     const float perf
 2508              		.loc 6 57 17 view .LVU631
 2509 0028 A0EB0900 		sub	r0, r0, r9
 2510              	.LVL213:
  58:Logger.cpp    ****         = (float)dt
 2511              		.loc 6 58 17 view .LVU632
 2512 002c 9FED050A 		vldr.32	s0, .L119+4
  60:Logger.cpp    ****     return perf;
 2513              		.loc 6 60 11 view .LVU633
 2514 0030 07EE900A 		vmov	s15, r0	@ int
 2515 0034 F8EE677A 		vcvt.f32.u32	s15, s15
  62:Logger.cpp    **** 
 2516              		.loc 6 62 1 view .LVU634
 2517 0038 87EE800A 		vdiv.f32	s0, s15, s0
 2518              	.LVL214:
  62:Logger.cpp    **** 
 2519              		.loc 6 62 1 view .LVU635
 2520 003c BDE8F883 		pop	{r3, r4, r5, r6, r7, r8, r9, pc}
 2521              	.LVL215:
 2522              	.L120:
  62:Logger.cpp    **** 
 2523              		.loc 6 62 1 view .LVU636
 2524              		.align	2
 2525              	.L119:
 2526 0040 A0860100 		.word	100000
 2527 0044 8096984B 		.word	1268291200
 2528              		.cfi_endproc
 2529              	.LFE2092:
 2531              		.section	.rodata._Z12ProfilePrintIXadL_ZN5daisy6LoggerILNS0_17LoggerDestinationE2EE5PrintEPKczEEEv
 2532              		.align	2
 2533              	.LC15:
 2534 0000 00       		.ascii	"\000"
 2535 0001 000000   		.align	2
 2536              	.LC16:
 2537 0004 6100     		.ascii	"a\000"
 2538 0006 0000     		.align	2
 2539              	.LC17:
 2540 0008 61626364 		.ascii	"abcdefghijklmnopqrstuvwxyz0123456789\000"
 2540      65666768 
 2540      696A6B6C 
 2540      6D6E6F70 
 2540      71727374 
 2541 002d 000000   		.align	2
 2542              	.LC18:
 2543 0030 256400   		.ascii	"%d\000"
 2544 0033 00       		.align	2
 2545              	.LC19:
 2546 0034 257500   		.ascii	"%u\000"
 2547 0037 00       		.align	2
 2548              	.LC20:
 2549 0038 25632564 		.ascii	"%c%d.%01d\000"
 2549      2E253031 
 2549      6400
 2550 0042 0000     		.align	2
 2551              	.LC21:
ARM GAS  /tmp/ccIu4BI8.s 			page 64


 2552 0044 25632564 		.ascii	"%c%d.%02d\000"
 2552      2E253032 
 2552      6400
 2553 004e 0000     		.align	2
 2554              	.LC22:
 2555 0050 25632564 		.ascii	"%c%d.%04d\000"
 2555      2E253034 
 2555      6400
 2556              		.section	.text._Z12ProfilePrintIXadL_ZN5daisy6LoggerILNS0_17LoggerDestinationE2EE5PrintEPKczEEEvS5
 2557              		.align	1
 2558              		.p2align 2,,3
 2559              		.weak	_Z12ProfilePrintIXadL_ZN5daisy6LoggerILNS0_17LoggerDestinationE2EE5PrintEPKczEEEvS5_S5_
 2560              		.syntax unified
 2561              		.thumb
 2562              		.thumb_func
 2563              		.fpu fpv5-d16
 2565              	_Z12ProfilePrintIXadL_ZN5daisy6LoggerILNS0_17LoggerDestinationE2EE5PrintEPKczEEEvS5_S5_:
 2566              	.LVL216:
 2567              	.LFB2082:
  67:Logger.cpp    **** {
 2568              		.loc 6 67 6 is_stmt 1 view -0
 2569              		.cfi_startproc
 2570              		@ args = 0, pretend = 0, frame = 0
 2571              		@ frame_needed = 0, uses_anonymous_args = 0
  67:Logger.cpp    **** {
 2572              		.loc 6 67 6 is_stmt 0 view .LVU638
 2573 0000 F0B5     		push	{r4, r5, r6, r7, lr}
 2574              		.cfi_def_cfa_offset 20
 2575              		.cfi_offset 4, -20
 2576              		.cfi_offset 5, -16
 2577              		.cfi_offset 6, -12
 2578              		.cfi_offset 7, -8
 2579              		.cfi_offset 14, -4
 2580 0002 0446     		mov	r4, r0
  69:Logger.cpp    ****     const float print_1 = ProfileFunction<function>("a");
 2581              		.loc 6 69 52 view .LVU639
 2582 0004 C648     		ldr	r0, .L143+16
 2583              	.LVL217:
  67:Logger.cpp    **** {
 2584              		.loc 6 67 6 view .LVU640
 2585 0006 0D46     		mov	r5, r1
 2586              	.LBB1012:
 2587              	.LBB1013:
  52:Logger.cpp    ****     for(int i = 0; i < count; i++)
 2588              		.loc 6 52 46 view .LVU641
 2589 0008 C64E     		ldr	r6, .L143+20
 2590              	.LBE1013:
 2591              	.LBE1012:
  67:Logger.cpp    **** {
 2592              		.loc 6 67 6 view .LVU642
 2593 000a 2DED0C8B 		vpush.64	{d8, d9, d10, d11, d12, d13}
 2594              		.cfi_def_cfa_offset 68
 2595              		.cfi_offset 80, -68
 2596              		.cfi_offset 81, -64
 2597              		.cfi_offset 82, -60
 2598              		.cfi_offset 83, -56
 2599              		.cfi_offset 84, -52
ARM GAS  /tmp/ccIu4BI8.s 			page 65


 2600              		.cfi_offset 85, -48
 2601              		.cfi_offset 86, -44
 2602              		.cfi_offset 87, -40
 2603              		.cfi_offset 88, -36
 2604              		.cfi_offset 89, -32
 2605              		.cfi_offset 90, -28
 2606              		.cfi_offset 91, -24
 2607 000e 87B0     		sub	sp, sp, #28
 2608              		.cfi_def_cfa_offset 96
  69:Logger.cpp    ****     const float print_1 = ProfileFunction<function>("a");
 2609              		.loc 6 69 52 view .LVU643
 2610 0010 FFF7FEFF 		bl	_Z15ProfileFunctionIXadL_ZN5daisy6LoggerILNS0_17LoggerDestinationE2EE5PrintEPKczEEJEEfS5_DpT0_
 2611              	.LVL218:
  70:Logger.cpp    ****     const float print_36
 2612              		.loc 6 70 52 view .LVU644
 2613 0014 C448     		ldr	r0, .L143+24
  69:Logger.cpp    ****     const float print_1 = ProfileFunction<function>("a");
 2614              		.loc 6 69 52 view .LVU645
 2615 0016 F0EE40DA 		vmov.f32	s27, s0
 2616              	.LVL219:
  70:Logger.cpp    ****     const float print_36
 2617              		.loc 6 70 52 view .LVU646
 2618 001a FFF7FEFF 		bl	_Z15ProfileFunctionIXadL_ZN5daisy6LoggerILNS0_17LoggerDestinationE2EE5PrintEPKczEEJEEfS5_DpT0_
 2619              	.LVL220:
  72:Logger.cpp    ****     const float print_d = ProfileFunction<function>("%d", 123);
 2620              		.loc 6 72 36 view .LVU647
 2621 001e C348     		ldr	r0, .L143+28
  70:Logger.cpp    ****     const float print_36
 2622              		.loc 6 70 52 view .LVU648
 2623 0020 F0EE40CA 		vmov.f32	s25, s0
 2624              	.LVL221:
  72:Logger.cpp    ****     const float print_d = ProfileFunction<function>("%d", 123);
 2625              		.loc 6 72 36 view .LVU649
 2626 0024 FFF7FEFF 		bl	_Z15ProfileFunctionIXadL_ZN5daisy6LoggerILNS0_17LoggerDestinationE2EE5PrintEPKczEEJEEfS5_DpT0_
 2627              	.LVL222:
  73:Logger.cpp    ****     const float print_u = ProfileFunction<function>("%u", 123);
 2628              		.loc 6 73 52 view .LVU650
 2629 0028 7B21     		movs	r1, #123
 2630 002a C148     		ldr	r0, .L143+32
  72:Logger.cpp    ****     const float print_d = ProfileFunction<function>("%d", 123);
 2631              		.loc 6 72 36 view .LVU651
 2632 002c B0EE40DA 		vmov.f32	s26, s0
 2633              	.LVL223:
  73:Logger.cpp    ****     const float print_u = ProfileFunction<function>("%u", 123);
 2634              		.loc 6 73 52 view .LVU652
 2635 0030 FFF7FEFF 		bl	_Z15ProfileFunctionIXadL_ZN5daisy6LoggerILNS0_17LoggerDestinationE2EE5PrintEPKczEEJiEEfS5_DpT0_
 2636              	.LVL224:
  74:Logger.cpp    ****     const float print_f = ProfileFunction<function>("%.3f", 123.0f);
 2637              		.loc 6 74 52 view .LVU653
 2638 0034 7B21     		movs	r1, #123
 2639 0036 BF48     		ldr	r0, .L143+36
  73:Logger.cpp    ****     const float print_u = ProfileFunction<function>("%u", 123);
 2640              		.loc 6 73 52 view .LVU654
 2641 0038 B0EE40CA 		vmov.f32	s24, s0
 2642              	.LVL225:
  74:Logger.cpp    ****     const float print_f = ProfileFunction<function>("%.3f", 123.0f);
 2643              		.loc 6 74 52 view .LVU655
ARM GAS  /tmp/ccIu4BI8.s 			page 66


 2644 003c FFF7FEFF 		bl	_Z15ProfileFunctionIXadL_ZN5daisy6LoggerILNS0_17LoggerDestinationE2EE5PrintEPKczEEJiEEfS5_DpT0_
 2645              	.LVL226:
  74:Logger.cpp    ****     const float print_f = ProfileFunction<function>("%.3f", 123.0f);
 2646              		.loc 6 74 52 view .LVU656
 2647 0040 B0EE40BA 		vmov.f32	s22, s0
 2648              	.LVL227:
 2649              	.LBB1019:
 2650              	.LBI1012:
  49:Logger.cpp    **** {
 2651              		.loc 6 49 7 is_stmt 1 view .LVU657
 2652              	.LBB1015:
  52:Logger.cpp    ****     for(int i = 0; i < count; i++)
 2653              		.loc 6 52 46 is_stmt 0 view .LVU658
 2654 0044 FFF7FEFF 		bl	_ZN5daisy6System7GetTickEv
 2655              	.LVL228:
  52:Logger.cpp    ****     for(int i = 0; i < count; i++)
 2656              		.loc 6 52 46 view .LVU659
 2657 0048 0746     		mov	r7, r0
 2658              	.LVL229:
 2659              	.LBB1014:
  53:Logger.cpp    ****     {
 2660              		.loc 6 53 22 is_stmt 1 view .LVU660
 2661              	.L122:
  55:Logger.cpp    ****     }
 2662              		.loc 6 55 17 is_stmt 0 view .LVU661
 2663 004a BB48     		ldr	r0, .L143+40
 2664 004c B0A3     		adr	r3, .L143
 2665 004e D3E90023 		ldrd	r2, [r3]
 2666 0052 FFF7FEFF 		bl	_ZN5daisy6LoggerILNS_17LoggerDestinationE2EE5PrintEPKcz
 2667              	.LVL230:
  53:Logger.cpp    ****     {
 2668              		.loc 6 53 5 is_stmt 1 view .LVU662
  53:Logger.cpp    ****     {
 2669              		.loc 6 53 22 view .LVU663
 2670 0056 013E     		subs	r6, r6, #1
 2671              	.LVL231:
  53:Logger.cpp    ****     {
 2672              		.loc 6 53 22 is_stmt 0 view .LVU664
 2673 0058 F7D1     		bne	.L122
 2674              	.LBE1014:
  57:Logger.cpp    ****     const float perf
 2675              		.loc 6 57 37 view .LVU665
 2676 005a FFF7FEFF 		bl	_ZN5daisy6System7GetTickEv
 2677              	.LVL232:
  57:Logger.cpp    ****     const float perf
 2678              		.loc 6 57 17 view .LVU666
 2679 005e C21B     		subs	r2, r0, r7
 2680              	.LVL233:
  58:Logger.cpp    ****         = (float)dt
 2681              		.loc 6 58 17 view .LVU667
 2682 0060 9FEDB67A 		vldr.32	s14, .L143+44
 2683              	.LBE1015:
 2684              	.LBE1019:
  77:Logger.cpp    ****     const float print_F2
 2685              		.loc 6 77 36 view .LVU668
 2686 0064 3346     		mov	r3, r6
 2687              	.LBB1020:
ARM GAS  /tmp/ccIu4BI8.s 			page 67


 2688              	.LBB1016:
  57:Logger.cpp    ****     const float perf
 2689              		.loc 6 57 17 view .LVU669
 2690 0066 07EE902A 		vmov	s15, r2	@ int
 2691              	.LBE1016:
 2692              	.LBE1020:
  77:Logger.cpp    ****     const float print_F2
 2693              		.loc 6 77 36 view .LVU670
 2694 006a 2021     		movs	r1, #32
 2695 006c 7B22     		movs	r2, #123
 2696              	.LVL234:
  77:Logger.cpp    ****     const float print_F2
 2697              		.loc 6 77 36 view .LVU671
 2698 006e B448     		ldr	r0, .L143+48
 2699              	.LBB1021:
 2700              	.LBB1017:
  60:Logger.cpp    ****     return perf;
 2701              		.loc 6 60 11 view .LVU672
 2702 0070 F8EE677A 		vcvt.f32.u32	s15, s15
 2703              	.LVL235:
  60:Logger.cpp    ****     return perf;
 2704              		.loc 6 60 11 view .LVU673
 2705              	.LBE1017:
 2706              	.LBE1021:
  92:Logger.cpp    ****     hw.PrintLine("%s - %s (   text string):" FLT_FMT3 " us/call +" FLT_FMT3
 2707              		.loc 6 92 18 view .LVU674
 2708 0074 9FEDA88B 		vldr.64	d8, .L143+8
 2709              	.LBB1022:
 2710              	.LBB1018:
  58:Logger.cpp    ****         = (float)dt
 2711              		.loc 6 58 17 view .LVU675
 2712 0078 87EE879A 		vdiv.f32	s18, s15, s14
 2713              	.LVL236:
  58:Logger.cpp    ****         = (float)dt
 2714              		.loc 6 58 17 view .LVU676
 2715              	.LBE1018:
 2716              	.LBE1022:
  77:Logger.cpp    ****     const float print_F2
 2717              		.loc 6 77 36 view .LVU677
 2718 007c FFF7FEFF 		bl	_Z15ProfileFunctionIXadL_ZN5daisy6LoggerILNS0_17LoggerDestinationE2EE5PrintEPKczEEJciiEEfS5_DpT
 2719              	.LVL237:
  79:Logger.cpp    ****     const float print_F3
 2720              		.loc 6 79 36 view .LVU678
 2721 0080 3346     		mov	r3, r6
 2722 0082 7B22     		movs	r2, #123
 2723 0084 2021     		movs	r1, #32
 2724 0086 AF48     		ldr	r0, .L143+52
  77:Logger.cpp    ****     const float print_F2
 2725              		.loc 6 77 36 view .LVU679
 2726 0088 F0EE40BA 		vmov.f32	s23, s0
 2727              	.LVL238:
  79:Logger.cpp    ****     const float print_F3
 2728              		.loc 6 79 36 view .LVU680
 2729 008c FFF7FEFF 		bl	_Z15ProfileFunctionIXadL_ZN5daisy6LoggerILNS0_17LoggerDestinationE2EE5PrintEPKczEEJciiEEfS5_DpT
 2730              	.LVL239:
  81:Logger.cpp    ****     const float print_F4
 2731              		.loc 6 81 36 view .LVU681
ARM GAS  /tmp/ccIu4BI8.s 			page 68


 2732 0090 3346     		mov	r3, r6
 2733 0092 7B22     		movs	r2, #123
 2734 0094 2021     		movs	r1, #32
 2735 0096 AC48     		ldr	r0, .L143+56
  79:Logger.cpp    ****     const float print_F3
 2736              		.loc 6 79 36 view .LVU682
 2737 0098 F0EE40AA 		vmov.f32	s21, s0
 2738              	.LVL240:
  81:Logger.cpp    ****     const float print_F4
 2739              		.loc 6 81 36 view .LVU683
 2740 009c FFF7FEFF 		bl	_Z15ProfileFunctionIXadL_ZN5daisy6LoggerILNS0_17LoggerDestinationE2EE5PrintEPKczEEJciiEEfS5_DpT
 2741              	.LVL241:
  83:Logger.cpp    **** 
 2742              		.loc 6 83 36 view .LVU684
 2743 00a0 3346     		mov	r3, r6
 2744 00a2 7B22     		movs	r2, #123
 2745 00a4 2021     		movs	r1, #32
 2746 00a6 A948     		ldr	r0, .L143+60
  81:Logger.cpp    ****     const float print_F4
 2747              		.loc 6 81 36 view .LVU685
 2748 00a8 B0EE40AA 		vmov.f32	s20, s0
 2749              	.LVL242:
  83:Logger.cpp    **** 
 2750              		.loc 6 83 36 view .LVU686
 2751 00ac FFF7FEFF 		bl	_Z15ProfileFunctionIXadL_ZN5daisy6LoggerILNS0_17LoggerDestinationE2EE5PrintEPKczEEJciiEEfS5_DpT
 2752              	.LVL243:
 2753              	.LBB1023:
 2754              	.LBB1024:
 2755              		.loc 7 76 31 view .LVU687
 2756 00b0 B0EEED7A 		vabs.f32	s14, s27
 2757              	.LBE1024:
 2758              	.LBE1023:
  86:Logger.cpp    ****     const float intercept = print_1 - slope;
 2759              		.loc 6 86 17 view .LVU688
 2760 00b4 DFEDA66A 		vldr.32	s13, .L143+64
  86:Logger.cpp    ****     const float intercept = print_1 - slope;
 2761              		.loc 6 86 39 view .LVU689
 2762 00b8 3DEE6CDA 		vsub.f32	s26, s26, s25
 2763              	.LVL244:
 2764              	.LBB1026:
 2765              	.LBB1027:
 2766              		.loc 1 124 23 view .LVU690
 2767 00bc 2A46     		mov	r2, r5
 2768              	.LBE1027:
 2769              	.LBE1026:
  89:Logger.cpp    ****                  class_caption,
 2770              		.loc 6 89 17 view .LVU691
 2771 00be F5EEC0DA 		vcmpe.f32	s27, #0
 2772              	.LBB1033:
 2773              	.LBB1028:
 2774              		.loc 1 124 23 view .LVU692
 2775 00c2 2146     		mov	r1, r4
 2776              	.LBE1028:
 2777              	.LBE1033:
  89:Logger.cpp    ****                  class_caption,
 2778              		.loc 6 89 17 view .LVU693
 2779 00c4 FDEEC77A 		vcvt.s32.f32	s15, s14
ARM GAS  /tmp/ccIu4BI8.s 			page 69


 2780              	.LBB1034:
 2781              	.LBB1029:
 2782              		.loc 1 124 23 view .LVU694
 2783 00c8 A248     		ldr	r0, .L143+68
 2784              	.LBE1029:
 2785              	.LBE1034:
  86:Logger.cpp    ****     const float intercept = print_1 - slope;
 2786              		.loc 6 86 17 view .LVU695
 2787 00ca CDEE26DA 		vdiv.f32	s27, s26, s13
 2788              	.LVL245:
 2789              	.LBB1035:
 2790              	.LBB1030:
 2791              		.loc 1 124 23 view .LVU696
 2792 00ce CDED007A 		vstr.32	s15, [sp]	@ int
 2793              	.LBE1030:
 2794              	.LBE1035:
  92:Logger.cpp    ****     hw.PrintLine("%s - %s (   text string):" FLT_FMT3 " us/call +" FLT_FMT3
 2795              		.loc 6 92 18 view .LVU697
 2796 00d2 F8EEE77A 		vcvt.f32.s32	s15, s15
  89:Logger.cpp    ****                  class_caption,
 2797              		.loc 6 89 17 view .LVU698
 2798 00d6 F1EE10FA 		vmrs	APSR_nzcv, FPSCR
  83:Logger.cpp    **** 
 2799              		.loc 6 83 36 view .LVU699
 2800 00da F0EE409A 		vmov.f32	s19, s0
 2801              	.LVL246:
  92:Logger.cpp    ****     hw.PrintLine("%s - %s (   text string):" FLT_FMT3 " us/call +" FLT_FMT3
 2802              		.loc 6 92 18 view .LVU700
 2803 00de 37EE677A 		vsub.f32	s14, s14, s15
 2804              	.LBB1036:
 2805              	.LBB1031:
 2806              		.loc 1 124 23 view .LVU701
 2807 00e2 4CBF     		ite	mi
 2808 00e4 2D23     		movmi	r3, #45
 2809 00e6 2023     		movpl	r3, #32
 2810              	.LBE1031:
 2811              	.LBE1036:
  92:Logger.cpp    ****     hw.PrintLine("%s - %s (   text string):" FLT_FMT3 " us/call +" FLT_FMT3
 2812              		.loc 6 92 18 view .LVU702
 2813 00e8 B7EEC77A 		vcvt.f64.f32	d7, s14
 2814 00ec 27EE087B 		vmul.f64	d7, d7, d8
  87:Logger.cpp    **** 
 2815              		.loc 6 87 17 view .LVU703
 2816 00f0 7CEEEDCA 		vsub.f32	s25, s25, s27
 2817              	.LVL247:
 2818              	.LBB1037:
 2819              	.LBI1023:
  75:/usr/include/newlib/c++/9.2.1/bits/std_abs.h ****   { return __builtin_fabsf(__x); }
 2820              		.loc 7 75 3 is_stmt 1 view .LVU704
 2821              	.LBB1025:
 2822              		.loc 7 76 5 view .LVU705
 2823              		.loc 7 76 5 is_stmt 0 view .LVU706
 2824              	.LBE1025:
 2825              	.LBE1037:
 2826              		.loc 7 76 5 is_stmt 1 view .LVU707
 2827              		.loc 7 76 5 view .LVU708
 2828              	.LBB1038:
ARM GAS  /tmp/ccIu4BI8.s 			page 70


 2829              	.LBI1026:
 122:../../libdaisy/src/daisy_seed.h ****     {
 2830              		.loc 1 122 17 view .LVU709
 2831              	.LBE1038:
  89:Logger.cpp    ****                  class_caption,
 2832              		.loc 6 89 17 is_stmt 0 view .LVU710
 2833 00f4 BDEEC77B 		vcvt.s32.f64	s14, d7
 2834              	.LBB1039:
 2835              	.LBB1032:
 2836              		.loc 1 124 23 view .LVU711
 2837 00f8 8DED017A 		vstr.32	s14, [sp, #4]	@ int
 2838 00fc FFF7FEFF 		bl	_ZN5daisy6LoggerILNS_17LoggerDestinationE1EE9PrintLineEPKcz
 2839              	.LVL248:
 2840              		.loc 1 124 23 view .LVU712
 2841              	.LBE1032:
 2842              	.LBE1039:
 2843              	.LBB1040:
 2844              	.LBB1041:
 2845              		.loc 7 76 31 view .LVU713
 2846 0100 B0EEEC6A 		vabs.f32	s12, s25
 2847              	.LBE1041:
 2848              	.LBE1040:
 2849              	.LBB1043:
 2850              	.LBB1044:
 2851 0104 B0EEED7A 		vabs.f32	s14, s27
 2852              	.LBE1044:
 2853              	.LBE1043:
 2854              	.LBB1046:
 2855              	.LBB1047:
 2856              		.loc 1 124 23 view .LVU714
 2857 0108 2A46     		mov	r2, r5
 2858              	.LBE1047:
 2859              	.LBE1046:
  93:Logger.cpp    ****                  " us/char",
 2860              		.loc 6 93 17 view .LVU715
 2861 010a F5EEC0CA 		vcmpe.f32	s25, #0
 2862              	.LBB1054:
 2863              	.LBB1048:
 2864              		.loc 1 124 23 view .LVU716
 2865 010e 2146     		mov	r1, r4
 2866              	.LBE1048:
 2867              	.LBE1054:
  93:Logger.cpp    ****                  " us/char",
 2868              		.loc 6 93 17 view .LVU717
 2869 0110 FDEEC66A 		vcvt.s32.f32	s13, s12
 2870              	.LBB1055:
 2871              	.LBB1049:
 2872              		.loc 1 124 23 view .LVU718
 2873 0114 9048     		ldr	r0, .L143+72
 2874              	.LBE1049:
 2875              	.LBE1055:
  93:Logger.cpp    ****                  " us/char",
 2876              		.loc 6 93 17 view .LVU719
 2877 0116 FDEEC77A 		vcvt.s32.f32	s15, s14
 2878 011a F1EE10FA 		vmrs	APSR_nzcv, FPSCR
  97:Logger.cpp    ****                  FLT_VAR3(slope));
 2879              		.loc 6 97 18 view .LVU720
ARM GAS  /tmp/ccIu4BI8.s 			page 71


 2880 011e F8EEE65A 		vcvt.f32.s32	s11, s13
 2881              	.LBB1056:
 2882              	.LBB1050:
 2883              		.loc 1 124 23 view .LVU721
 2884 0122 CDED006A 		vstr.32	s13, [sp]	@ int
 2885              	.LBE1050:
 2886              	.LBE1056:
  98:Logger.cpp    ****     hw.PrintLine("%s - %s ( integer value):" FLT_FMT3 " us/call",
 2887              		.loc 6 98 18 view .LVU722
 2888 0126 F8EEE76A 		vcvt.f32.s32	s13, s15
 2889              	.LBB1057:
 2890              	.LBB1051:
 2891              		.loc 1 124 23 view .LVU723
 2892 012a CDED037A 		vstr.32	s15, [sp, #12]	@ int
 2893              	.LBE1051:
 2894              	.LBE1057:
  93:Logger.cpp    ****                  " us/char",
 2895              		.loc 6 93 17 view .LVU724
 2896 012e F5EEC0DA 		vcmpe.f32	s27, #0
 2897 0132 48BF     		it	mi
 2898 0134 2D23     		movmi	r3, #45
  97:Logger.cpp    ****                  FLT_VAR3(slope));
 2899              		.loc 6 97 18 view .LVU725
 2900 0136 36EE656A 		vsub.f32	s12, s12, s11
  93:Logger.cpp    ****                  " us/char",
 2901              		.loc 6 93 17 view .LVU726
 2902 013a 58BF     		it	pl
 2903 013c 2023     		movpl	r3, #32
 2904              	.LVL249:
 2905              	.LBB1058:
 2906              	.LBI1040:
  75:/usr/include/newlib/c++/9.2.1/bits/std_abs.h ****   { return __builtin_fabsf(__x); }
 2907              		.loc 7 75 3 is_stmt 1 view .LVU727
 2908              	.LBB1042:
 2909              		.loc 7 76 5 view .LVU728
 2910              		.loc 7 76 5 is_stmt 0 view .LVU729
 2911              	.LBE1042:
 2912              	.LBE1058:
 2913              		.loc 7 76 5 is_stmt 1 view .LVU730
 2914              		.loc 7 76 5 view .LVU731
  98:Logger.cpp    ****     hw.PrintLine("%s - %s ( integer value):" FLT_FMT3 " us/call",
 2915              		.loc 6 98 18 is_stmt 0 view .LVU732
 2916 013e 37EE667A 		vsub.f32	s14, s14, s13
  93:Logger.cpp    ****                  " us/char",
 2917              		.loc 6 93 17 view .LVU733
 2918 0142 F1EE10FA 		vmrs	APSR_nzcv, FPSCR
  97:Logger.cpp    ****                  FLT_VAR3(slope));
 2919              		.loc 6 97 18 view .LVU734
 2920 0146 B7EEC66A 		vcvt.f64.f32	d6, s12
  98:Logger.cpp    ****     hw.PrintLine("%s - %s ( integer value):" FLT_FMT3 " us/call",
 2921              		.loc 6 98 18 view .LVU735
 2922 014a B7EEC77A 		vcvt.f64.f32	d7, s14
  93:Logger.cpp    ****                  " us/char",
 2923              		.loc 6 93 17 view .LVU736
 2924 014e 4CBF     		ite	mi
 2925 0150 2D26     		movmi	r6, #45
 2926 0152 2026     		movpl	r6, #32
ARM GAS  /tmp/ccIu4BI8.s 			page 72


 2927              	.LVL250:
 2928              	.LBB1059:
 2929              	.LBI1043:
  75:/usr/include/newlib/c++/9.2.1/bits/std_abs.h ****   { return __builtin_fabsf(__x); }
 2930              		.loc 7 75 3 is_stmt 1 view .LVU737
 2931              	.LBB1045:
 2932              		.loc 7 76 5 view .LVU738
 2933              		.loc 7 76 5 is_stmt 0 view .LVU739
 2934              	.LBE1045:
 2935              	.LBE1059:
 2936              		.loc 7 76 5 is_stmt 1 view .LVU740
 2937              		.loc 7 76 5 view .LVU741
  97:Logger.cpp    ****                  FLT_VAR3(slope));
 2938              		.loc 6 97 18 is_stmt 0 view .LVU742
 2939 0154 26EE086B 		vmul.f64	d6, d6, d8
 2940              	.LBB1060:
 2941              	.LBB1052:
 2942              		.loc 1 124 23 view .LVU743
 2943 0158 0296     		str	r6, [sp, #8]
 2944              	.LBE1052:
 2945              	.LBE1060:
  98:Logger.cpp    ****     hw.PrintLine("%s - %s ( integer value):" FLT_FMT3 " us/call",
 2946              		.loc 6 98 18 view .LVU744
 2947 015a 27EE087B 		vmul.f64	d7, d7, d8
  93:Logger.cpp    ****                  " us/char",
 2948              		.loc 6 93 17 view .LVU745
 2949 015e BDEEC66B 		vcvt.s32.f64	s12, d6
 2950              	.LVL251:
 2951              	.LBB1061:
 2952              	.LBI1046:
 122:../../libdaisy/src/daisy_seed.h ****     {
 2953              		.loc 1 122 17 is_stmt 1 view .LVU746
 2954              	.LBE1061:
  93:Logger.cpp    ****                  " us/char",
 2955              		.loc 6 93 17 is_stmt 0 view .LVU747
 2956 0162 BDEEC77B 		vcvt.s32.f64	s14, d7
 2957              	.LBB1062:
 2958              	.LBB1053:
 2959              		.loc 1 124 23 view .LVU748
 2960 0166 8DED016A 		vstr.32	s12, [sp, #4]	@ int
 2961 016a 8DED047A 		vstr.32	s14, [sp, #16]	@ int
 2962 016e FFF7FEFF 		bl	_ZN5daisy6LoggerILNS_17LoggerDestinationE1EE9PrintLineEPKcz
 2963              	.LVL252:
 2964              		.loc 1 124 23 view .LVU749
 2965              	.LBE1053:
 2966              	.LBE1062:
 2967              	.LBB1063:
 2968              	.LBI1063:
  75:/usr/include/newlib/c++/9.2.1/bits/std_abs.h ****   { return __builtin_fabsf(__x); }
 2969              		.loc 7 75 3 is_stmt 1 view .LVU750
 2970              	.LBB1064:
 2971              		.loc 7 76 5 view .LVU751
 2972              		.loc 7 76 31 is_stmt 0 view .LVU752
 2973 0172 B0EECC7A 		vabs.f32	s14, s24
 2974              	.LVL253:
 2975              		.loc 7 76 31 view .LVU753
 2976              	.LBE1064:
ARM GAS  /tmp/ccIu4BI8.s 			page 73


 2977              	.LBE1063:
  99:Logger.cpp    ****                  class_caption,
 2978              		.loc 6 99 17 view .LVU754
 2979 0176 B5EEC0CA 		vcmpe.f32	s24, #0
 2980              	.LBB1065:
 2981              	.LBB1066:
 2982              		.loc 1 124 23 view .LVU755
 2983 017a 2A46     		mov	r2, r5
 2984 017c 2146     		mov	r1, r4
 2985 017e 7748     		ldr	r0, .L143+76
 2986              	.LBE1066:
 2987              	.LBE1065:
  99:Logger.cpp    ****                  class_caption,
 2988              		.loc 6 99 17 view .LVU756
 2989 0180 FDEEC77A 		vcvt.s32.f32	s15, s14
 2990              	.LVL254:
 2991              		.loc 7 76 5 is_stmt 1 view .LVU757
 2992              		.loc 7 76 5 view .LVU758
 2993              	.LBB1069:
 2994              	.LBI1065:
 122:../../libdaisy/src/daisy_seed.h ****     {
 2995              		.loc 1 122 17 view .LVU759
 2996              	.LBE1069:
  99:Logger.cpp    ****                  class_caption,
 2997              		.loc 6 99 17 is_stmt 0 view .LVU760
 2998 0184 F1EE10FA 		vmrs	APSR_nzcv, FPSCR
 102:Logger.cpp    ****     hw.PrintLine("%s - %s (unsigned value):" FLT_FMT3 " us/call",
 2999              		.loc 6 102 18 view .LVU761
 3000 0188 F8EEE76A 		vcvt.f32.s32	s13, s15
 3001              	.LVL255:
 3002              	.LBB1070:
 3003              	.LBB1067:
 3004              		.loc 1 124 23 view .LVU762
 3005 018c CDED007A 		vstr.32	s15, [sp]	@ int
 3006 0190 4CBF     		ite	mi
 3007 0192 2D23     		movmi	r3, #45
 3008 0194 2023     		movpl	r3, #32
 3009              	.LBE1067:
 3010              	.LBE1070:
 102:Logger.cpp    ****     hw.PrintLine("%s - %s (unsigned value):" FLT_FMT3 " us/call",
 3011              		.loc 6 102 18 view .LVU763
 3012 0196 37EE667A 		vsub.f32	s14, s14, s13
 3013              	.LVL256:
 102:Logger.cpp    ****     hw.PrintLine("%s - %s (unsigned value):" FLT_FMT3 " us/call",
 3014              		.loc 6 102 18 view .LVU764
 3015 019a B7EEC77A 		vcvt.f64.f32	d7, s14
 3016 019e 27EE087B 		vmul.f64	d7, d7, d8
  99:Logger.cpp    ****                  class_caption,
 3017              		.loc 6 99 17 view .LVU765
 3018 01a2 BDEEC77B 		vcvt.s32.f64	s14, d7
 3019              	.LBB1071:
 3020              	.LBB1068:
 3021              		.loc 1 124 23 view .LVU766
 3022 01a6 8DED017A 		vstr.32	s14, [sp, #4]	@ int
 3023 01aa FFF7FEFF 		bl	_ZN5daisy6LoggerILNS_17LoggerDestinationE1EE9PrintLineEPKcz
 3024              	.LVL257:
 3025              		.loc 1 124 23 view .LVU767
ARM GAS  /tmp/ccIu4BI8.s 			page 74


 3026              	.LBE1068:
 3027              	.LBE1071:
 3028              	.LBB1072:
 3029              	.LBI1072:
  75:/usr/include/newlib/c++/9.2.1/bits/std_abs.h ****   { return __builtin_fabsf(__x); }
 3030              		.loc 7 75 3 is_stmt 1 view .LVU768
 3031              	.LBB1073:
 3032              		.loc 7 76 5 view .LVU769
 3033              		.loc 7 76 31 is_stmt 0 view .LVU770
 3034 01ae B0EECB7A 		vabs.f32	s14, s22
 3035              	.LVL258:
 3036              		.loc 7 76 31 view .LVU771
 3037              	.LBE1073:
 3038              	.LBE1072:
 103:Logger.cpp    ****                  class_caption,
 3039              		.loc 6 103 17 view .LVU772
 3040 01b2 B5EEC0BA 		vcmpe.f32	s22, #0
 3041              	.LBB1074:
 3042              	.LBB1075:
 3043              		.loc 1 124 23 view .LVU773
 3044 01b6 2A46     		mov	r2, r5
 3045 01b8 2146     		mov	r1, r4
 3046 01ba 6948     		ldr	r0, .L143+80
 3047              	.LBE1075:
 3048              	.LBE1074:
 103:Logger.cpp    ****                  class_caption,
 3049              		.loc 6 103 17 view .LVU774
 3050 01bc FDEEC77A 		vcvt.s32.f32	s15, s14
 3051              	.LVL259:
 3052              		.loc 7 76 5 is_stmt 1 view .LVU775
 3053              		.loc 7 76 5 view .LVU776
 3054              	.LBB1078:
 3055              	.LBI1074:
 122:../../libdaisy/src/daisy_seed.h ****     {
 3056              		.loc 1 122 17 view .LVU777
 3057              	.LBE1078:
 103:Logger.cpp    ****                  class_caption,
 3058              		.loc 6 103 17 is_stmt 0 view .LVU778
 3059 01c0 F1EE10FA 		vmrs	APSR_nzcv, FPSCR
 106:Logger.cpp    ****     hw.PrintLine("%s - %s ( float.3 value):" FLT_FMT3 " us/call",
 3060              		.loc 6 106 18 view .LVU779
 3061 01c4 F8EEE76A 		vcvt.f32.s32	s13, s15
 3062              	.LVL260:
 3063              	.LBB1079:
 3064              	.LBB1076:
 3065              		.loc 1 124 23 view .LVU780
 3066 01c8 CDED007A 		vstr.32	s15, [sp]	@ int
 3067 01cc 4CBF     		ite	mi
 3068 01ce 2D23     		movmi	r3, #45
 3069 01d0 2023     		movpl	r3, #32
 3070              	.LBE1076:
 3071              	.LBE1079:
 106:Logger.cpp    ****     hw.PrintLine("%s - %s ( float.3 value):" FLT_FMT3 " us/call",
 3072              		.loc 6 106 18 view .LVU781
 3073 01d2 37EE667A 		vsub.f32	s14, s14, s13
 3074              	.LVL261:
 106:Logger.cpp    ****     hw.PrintLine("%s - %s ( float.3 value):" FLT_FMT3 " us/call",
ARM GAS  /tmp/ccIu4BI8.s 			page 75


 3075              		.loc 6 106 18 view .LVU782
 3076 01d6 B7EEC77A 		vcvt.f64.f32	d7, s14
 3077 01da 27EE087B 		vmul.f64	d7, d7, d8
 103:Logger.cpp    ****                  class_caption,
 3078              		.loc 6 103 17 view .LVU783
 3079 01de BDEEC77B 		vcvt.s32.f64	s14, d7
 3080              	.LBB1080:
 3081              	.LBB1077:
 3082              		.loc 1 124 23 view .LVU784
 3083 01e2 8DED017A 		vstr.32	s14, [sp, #4]	@ int
 3084 01e6 FFF7FEFF 		bl	_ZN5daisy6LoggerILNS_17LoggerDestinationE1EE9PrintLineEPKcz
 3085              	.LVL262:
 3086              		.loc 1 124 23 view .LVU785
 3087              	.LBE1077:
 3088              	.LBE1080:
 3089              		.loc 7 76 5 is_stmt 1 view .LVU786
 107:Logger.cpp    ****                  class_caption,
 3090              		.loc 6 107 17 is_stmt 0 view .LVU787
 3091 01ea FDEEC97A 		vcvt.s32.f32	s15, s18
 3092              	.LVL263:
 3093              		.loc 7 76 5 is_stmt 1 view .LVU788
 3094              		.loc 7 76 5 view .LVU789
 3095              	.LBB1081:
 3096              	.LBI1081:
 122:../../libdaisy/src/daisy_seed.h ****     {
 3097              		.loc 1 122 17 view .LVU790
 3098              	.LBB1082:
 3099              		.loc 1 124 23 is_stmt 0 view .LVU791
 3100 01ee 2023     		movs	r3, #32
 3101 01f0 2A46     		mov	r2, r5
 3102 01f2 2146     		mov	r1, r4
 3103 01f4 5B48     		ldr	r0, .L143+84
 3104              	.LBE1082:
 3105              	.LBE1081:
 110:Logger.cpp    ****     hw.PrintLine("%s - %s (FLT_VAR1 value):" FLT_FMT3 " us/call",
 3106              		.loc 6 110 18 view .LVU792
 3107 01f6 B8EEE77A 		vcvt.f32.s32	s14, s15
 3108              	.LVL264:
 3109              	.LBB1085:
 3110              	.LBB1083:
 3111              		.loc 1 124 23 view .LVU793
 3112 01fa CDED007A 		vstr.32	s15, [sp]	@ int
 3113              	.LBE1083:
 3114              	.LBE1085:
 110:Logger.cpp    ****     hw.PrintLine("%s - %s (FLT_VAR1 value):" FLT_FMT3 " us/call",
 3115              		.loc 6 110 18 view .LVU794
 3116 01fe 39EE477A 		vsub.f32	s14, s18, s14
 3117              	.LVL265:
 110:Logger.cpp    ****     hw.PrintLine("%s - %s (FLT_VAR1 value):" FLT_FMT3 " us/call",
 3118              		.loc 6 110 18 view .LVU795
 3119 0202 B7EEC77A 		vcvt.f64.f32	d7, s14
 3120 0206 27EE087B 		vmul.f64	d7, d7, d8
 107:Logger.cpp    ****                  class_caption,
 3121              		.loc 6 107 17 view .LVU796
 3122 020a BDEEC77B 		vcvt.s32.f64	s14, d7
 3123              	.LBB1086:
 3124              	.LBB1084:
ARM GAS  /tmp/ccIu4BI8.s 			page 76


 3125              		.loc 1 124 23 view .LVU797
 3126 020e 8DED017A 		vstr.32	s14, [sp, #4]	@ int
 3127 0212 FFF7FEFF 		bl	_ZN5daisy6LoggerILNS_17LoggerDestinationE1EE9PrintLineEPKcz
 3128              	.LVL266:
 3129              		.loc 1 124 23 view .LVU798
 3130              	.LBE1084:
 3131              	.LBE1086:
 3132              	.LBB1087:
 3133              	.LBI1087:
  75:/usr/include/newlib/c++/9.2.1/bits/std_abs.h ****   { return __builtin_fabsf(__x); }
 3134              		.loc 7 75 3 is_stmt 1 view .LVU799
 3135              	.LBB1088:
 3136              		.loc 7 76 5 view .LVU800
 3137              		.loc 7 76 31 is_stmt 0 view .LVU801
 3138 0216 B0EEEB7A 		vabs.f32	s14, s23
 3139              	.LVL267:
 3140              		.loc 7 76 31 view .LVU802
 3141              	.LBE1088:
 3142              	.LBE1087:
 111:Logger.cpp    ****                  class_caption,
 3143              		.loc 6 111 17 view .LVU803
 3144 021a F5EEC0BA 		vcmpe.f32	s23, #0
 3145              	.LBB1089:
 3146              	.LBB1090:
 3147              		.loc 1 124 23 view .LVU804
 3148 021e 2A46     		mov	r2, r5
 3149 0220 2146     		mov	r1, r4
 3150 0222 5148     		ldr	r0, .L143+88
 3151              	.LBE1090:
 3152              	.LBE1089:
 111:Logger.cpp    ****                  class_caption,
 3153              		.loc 6 111 17 view .LVU805
 3154 0224 FDEEC77A 		vcvt.s32.f32	s15, s14
 3155              	.LVL268:
 3156              		.loc 7 76 5 is_stmt 1 view .LVU806
 3157              		.loc 7 76 5 view .LVU807
 3158              	.LBB1093:
 3159              	.LBI1089:
 122:../../libdaisy/src/daisy_seed.h ****     {
 3160              		.loc 1 122 17 view .LVU808
 3161              	.LBE1093:
 111:Logger.cpp    ****                  class_caption,
 3162              		.loc 6 111 17 is_stmt 0 view .LVU809
 3163 0228 F1EE10FA 		vmrs	APSR_nzcv, FPSCR
 114:Logger.cpp    ****     hw.PrintLine("%s - %s (FLT_VAR2 value):" FLT_FMT3 " us/call",
 3164              		.loc 6 114 18 view .LVU810
 3165 022c F8EEE76A 		vcvt.f32.s32	s13, s15
 3166              	.LVL269:
 3167              	.LBB1094:
 3168              	.LBB1091:
 3169              		.loc 1 124 23 view .LVU811
 3170 0230 CDED007A 		vstr.32	s15, [sp]	@ int
 3171 0234 4CBF     		ite	mi
 3172 0236 2D23     		movmi	r3, #45
 3173 0238 2023     		movpl	r3, #32
 3174              	.LBE1091:
 3175              	.LBE1094:
ARM GAS  /tmp/ccIu4BI8.s 			page 77


 114:Logger.cpp    ****     hw.PrintLine("%s - %s (FLT_VAR2 value):" FLT_FMT3 " us/call",
 3176              		.loc 6 114 18 view .LVU812
 3177 023a 37EE667A 		vsub.f32	s14, s14, s13
 3178              	.LVL270:
 114:Logger.cpp    ****     hw.PrintLine("%s - %s (FLT_VAR2 value):" FLT_FMT3 " us/call",
 3179              		.loc 6 114 18 view .LVU813
 3180 023e B7EEC77A 		vcvt.f64.f32	d7, s14
 3181 0242 27EE087B 		vmul.f64	d7, d7, d8
 111:Logger.cpp    ****                  class_caption,
 3182              		.loc 6 111 17 view .LVU814
 3183 0246 BDEEC77B 		vcvt.s32.f64	s14, d7
 3184              	.LBB1095:
 3185              	.LBB1092:
 3186              		.loc 1 124 23 view .LVU815
 3187 024a 8DED017A 		vstr.32	s14, [sp, #4]	@ int
 3188 024e FFF7FEFF 		bl	_ZN5daisy6LoggerILNS_17LoggerDestinationE1EE9PrintLineEPKcz
 3189              	.LVL271:
 3190              		.loc 1 124 23 view .LVU816
 3191              	.LBE1092:
 3192              	.LBE1095:
 3193              	.LBB1096:
 3194              	.LBI1096:
  75:/usr/include/newlib/c++/9.2.1/bits/std_abs.h ****   { return __builtin_fabsf(__x); }
 3195              		.loc 7 75 3 is_stmt 1 view .LVU817
 3196              	.LBB1097:
 3197              		.loc 7 76 5 view .LVU818
 3198              		.loc 7 76 31 is_stmt 0 view .LVU819
 3199 0252 B0EEEA7A 		vabs.f32	s14, s21
 3200              	.LVL272:
 3201              		.loc 7 76 31 view .LVU820
 3202              	.LBE1097:
 3203              	.LBE1096:
 115:Logger.cpp    ****                  class_caption,
 3204              		.loc 6 115 17 view .LVU821
 3205 0256 F5EEC0AA 		vcmpe.f32	s21, #0
 3206              	.LBB1098:
 3207              	.LBB1099:
 3208              		.loc 1 124 23 view .LVU822
 3209 025a 2A46     		mov	r2, r5
 3210 025c 2146     		mov	r1, r4
 3211 025e 4348     		ldr	r0, .L143+92
 3212              	.LBE1099:
 3213              	.LBE1098:
 115:Logger.cpp    ****                  class_caption,
 3214              		.loc 6 115 17 view .LVU823
 3215 0260 FDEEC77A 		vcvt.s32.f32	s15, s14
 3216              	.LVL273:
 3217              		.loc 7 76 5 is_stmt 1 view .LVU824
 3218              		.loc 7 76 5 view .LVU825
 3219              	.LBB1102:
 3220              	.LBI1098:
 122:../../libdaisy/src/daisy_seed.h ****     {
 3221              		.loc 1 122 17 view .LVU826
 3222              	.LBE1102:
 115:Logger.cpp    ****                  class_caption,
 3223              		.loc 6 115 17 is_stmt 0 view .LVU827
 3224 0264 F1EE10FA 		vmrs	APSR_nzcv, FPSCR
ARM GAS  /tmp/ccIu4BI8.s 			page 78


 118:Logger.cpp    ****     hw.PrintLine("%s - %s (FLT_VAR3 value):" FLT_FMT3 " us/call",
 3225              		.loc 6 118 18 view .LVU828
 3226 0268 F8EEE76A 		vcvt.f32.s32	s13, s15
 3227              	.LVL274:
 3228              	.LBB1103:
 3229              	.LBB1100:
 3230              		.loc 1 124 23 view .LVU829
 3231 026c CDED007A 		vstr.32	s15, [sp]	@ int
 3232 0270 4CBF     		ite	mi
 3233 0272 2D23     		movmi	r3, #45
 3234 0274 2023     		movpl	r3, #32
 3235              	.LBE1100:
 3236              	.LBE1103:
 118:Logger.cpp    ****     hw.PrintLine("%s - %s (FLT_VAR3 value):" FLT_FMT3 " us/call",
 3237              		.loc 6 118 18 view .LVU830
 3238 0276 37EE667A 		vsub.f32	s14, s14, s13
 3239              	.LVL275:
 118:Logger.cpp    ****     hw.PrintLine("%s - %s (FLT_VAR3 value):" FLT_FMT3 " us/call",
 3240              		.loc 6 118 18 view .LVU831
 3241 027a B7EEC77A 		vcvt.f64.f32	d7, s14
 3242 027e 27EE087B 		vmul.f64	d7, d7, d8
 115:Logger.cpp    ****                  class_caption,
 3243              		.loc 6 115 17 view .LVU832
 3244 0282 BDEEC77B 		vcvt.s32.f64	s14, d7
 3245              	.LBB1104:
 3246              	.LBB1101:
 3247              		.loc 1 124 23 view .LVU833
 3248 0286 8DED017A 		vstr.32	s14, [sp, #4]	@ int
 3249 028a FFF7FEFF 		bl	_ZN5daisy6LoggerILNS_17LoggerDestinationE1EE9PrintLineEPKcz
 3250              	.LVL276:
 3251              		.loc 1 124 23 view .LVU834
 3252              	.LBE1101:
 3253              	.LBE1104:
 3254              	.LBB1105:
 3255              	.LBI1105:
  75:/usr/include/newlib/c++/9.2.1/bits/std_abs.h ****   { return __builtin_fabsf(__x); }
 3256              		.loc 7 75 3 is_stmt 1 view .LVU835
 3257              	.LBB1106:
 3258              		.loc 7 76 5 view .LVU836
 3259              		.loc 7 76 31 is_stmt 0 view .LVU837
 3260 028e B0EECA7A 		vabs.f32	s14, s20
 3261              	.LVL277:
 3262              		.loc 7 76 31 view .LVU838
 3263              	.LBE1106:
 3264              	.LBE1105:
 119:Logger.cpp    ****                  class_caption,
 3265              		.loc 6 119 17 view .LVU839
 3266 0292 B5EEC0AA 		vcmpe.f32	s20, #0
 3267              	.LBB1107:
 3268              	.LBB1108:
 3269              		.loc 1 124 23 view .LVU840
 3270 0296 2A46     		mov	r2, r5
 3271 0298 2146     		mov	r1, r4
 3272 029a 3548     		ldr	r0, .L143+96
 3273              	.LBE1108:
 3274              	.LBE1107:
 119:Logger.cpp    ****                  class_caption,
ARM GAS  /tmp/ccIu4BI8.s 			page 79


 3275              		.loc 6 119 17 view .LVU841
 3276 029c FDEEC77A 		vcvt.s32.f32	s15, s14
 3277              	.LVL278:
 3278              		.loc 7 76 5 is_stmt 1 view .LVU842
 3279              		.loc 7 76 5 view .LVU843
 3280              	.LBB1111:
 3281              	.LBI1107:
 122:../../libdaisy/src/daisy_seed.h ****     {
 3282              		.loc 1 122 17 view .LVU844
 3283              	.LBE1111:
 119:Logger.cpp    ****                  class_caption,
 3284              		.loc 6 119 17 is_stmt 0 view .LVU845
 3285 02a0 F1EE10FA 		vmrs	APSR_nzcv, FPSCR
 122:Logger.cpp    ****     hw.PrintLine("%s - %s (FLT_VAR4 value):" FLT_FMT3 " us/call",
 3286              		.loc 6 122 18 view .LVU846
 3287 02a4 F8EEE76A 		vcvt.f32.s32	s13, s15
 3288              	.LVL279:
 3289              	.LBB1112:
 3290              	.LBB1109:
 3291              		.loc 1 124 23 view .LVU847
 3292 02a8 CDED007A 		vstr.32	s15, [sp]	@ int
 3293 02ac 4CBF     		ite	mi
 3294 02ae 2D23     		movmi	r3, #45
 3295 02b0 2023     		movpl	r3, #32
 3296              	.LBE1109:
 3297              	.LBE1112:
 122:Logger.cpp    ****     hw.PrintLine("%s - %s (FLT_VAR4 value):" FLT_FMT3 " us/call",
 3298              		.loc 6 122 18 view .LVU848
 3299 02b2 37EE667A 		vsub.f32	s14, s14, s13
 3300              	.LVL280:
 122:Logger.cpp    ****     hw.PrintLine("%s - %s (FLT_VAR4 value):" FLT_FMT3 " us/call",
 3301              		.loc 6 122 18 view .LVU849
 3302 02b6 B7EEC77A 		vcvt.f64.f32	d7, s14
 3303 02ba 27EE087B 		vmul.f64	d7, d7, d8
 119:Logger.cpp    ****                  class_caption,
 3304              		.loc 6 119 17 view .LVU850
 3305 02be BDEEC77B 		vcvt.s32.f64	s14, d7
 3306              	.LBB1113:
 3307              	.LBB1110:
 3308              		.loc 1 124 23 view .LVU851
 3309 02c2 8DED017A 		vstr.32	s14, [sp, #4]	@ int
 3310 02c6 FFF7FEFF 		bl	_ZN5daisy6LoggerILNS_17LoggerDestinationE1EE9PrintLineEPKcz
 3311              	.LVL281:
 3312              		.loc 1 124 23 view .LVU852
 3313              	.LBE1110:
 3314              	.LBE1113:
 3315              	.LBB1114:
 3316              	.LBI1114:
  75:/usr/include/newlib/c++/9.2.1/bits/std_abs.h ****   { return __builtin_fabsf(__x); }
 3317              		.loc 7 75 3 is_stmt 1 view .LVU853
 3318              	.LBB1115:
 3319              		.loc 7 76 5 view .LVU854
 3320              		.loc 7 76 31 is_stmt 0 view .LVU855
 3321 02ca B0EEE97A 		vabs.f32	s14, s19
 3322              	.LVL282:
 3323              		.loc 7 76 31 view .LVU856
 3324              	.LBE1115:
ARM GAS  /tmp/ccIu4BI8.s 			page 80


 3325              	.LBE1114:
 123:Logger.cpp    ****                  class_caption,
 3326              		.loc 6 123 17 view .LVU857
 3327 02ce F5EEC09A 		vcmpe.f32	s19, #0
 3328              	.LBB1116:
 3329              	.LBB1117:
 3330              		.loc 1 124 23 view .LVU858
 3331 02d2 2A46     		mov	r2, r5
 3332 02d4 2146     		mov	r1, r4
 3333 02d6 2748     		ldr	r0, .L143+100
 3334              	.LBE1117:
 3335              	.LBE1116:
 123:Logger.cpp    ****                  class_caption,
 3336              		.loc 6 123 17 view .LVU859
 3337 02d8 FDEEC77A 		vcvt.s32.f32	s15, s14
 3338              	.LVL283:
 3339              		.loc 7 76 5 is_stmt 1 view .LVU860
 3340              		.loc 7 76 5 view .LVU861
 3341              	.LBB1120:
 3342              	.LBI1116:
 122:../../libdaisy/src/daisy_seed.h ****     {
 3343              		.loc 1 122 17 view .LVU862
 3344              	.LBE1120:
 123:Logger.cpp    ****                  class_caption,
 3345              		.loc 6 123 17 is_stmt 0 view .LVU863
 3346 02dc F1EE10FA 		vmrs	APSR_nzcv, FPSCR
 126:Logger.cpp    **** }
 3347              		.loc 6 126 18 view .LVU864
 3348 02e0 F8EEE76A 		vcvt.f32.s32	s13, s15
 3349              	.LVL284:
 3350              	.LBB1121:
 3351              	.LBB1118:
 3352              		.loc 1 124 23 view .LVU865
 3353 02e4 CDED007A 		vstr.32	s15, [sp]	@ int
 3354 02e8 4CBF     		ite	mi
 3355 02ea 2D23     		movmi	r3, #45
 3356 02ec 2023     		movpl	r3, #32
 3357              	.LBE1118:
 3358              	.LBE1121:
 126:Logger.cpp    **** }
 3359              		.loc 6 126 18 view .LVU866
 3360 02ee 37EE667A 		vsub.f32	s14, s14, s13
 3361              	.LVL285:
 126:Logger.cpp    **** }
 3362              		.loc 6 126 18 view .LVU867
 3363 02f2 B7EEC77A 		vcvt.f64.f32	d7, s14
 3364 02f6 27EE087B 		vmul.f64	d7, d7, d8
 123:Logger.cpp    ****                  class_caption,
 3365              		.loc 6 123 17 view .LVU868
 3366 02fa BDEEC77B 		vcvt.s32.f64	s14, d7
 3367              	.LBB1122:
 3368              	.LBB1119:
 3369              		.loc 1 124 23 view .LVU869
 3370 02fe 8DED017A 		vstr.32	s14, [sp, #4]	@ int
 3371 0302 FFF7FEFF 		bl	_ZN5daisy6LoggerILNS_17LoggerDestinationE1EE9PrintLineEPKcz
 3372              	.LVL286:
 3373              		.loc 1 124 23 view .LVU870
ARM GAS  /tmp/ccIu4BI8.s 			page 81


 3374              	.LBE1119:
 3375              	.LBE1122:
 127:Logger.cpp    **** 
 3376              		.loc 6 127 1 view .LVU871
 3377 0306 07B0     		add	sp, sp, #28
 3378              		.cfi_def_cfa_offset 68
 3379              		@ sp needed
 3380 0308 BDEC0C8B 		vldm	sp!, {d8-d13}
 3381              		.cfi_restore 90
 3382              		.cfi_restore 91
 3383              		.cfi_restore 88
 3384              		.cfi_restore 89
 3385              		.cfi_restore 86
 3386              		.cfi_restore 87
 3387              		.cfi_restore 84
 3388              		.cfi_restore 85
 3389              		.cfi_restore 82
 3390              		.cfi_restore 83
 3391              		.cfi_restore 80
 3392              		.cfi_restore 81
 3393              		.cfi_def_cfa_offset 20
 3394              	.LVL287:
 127:Logger.cpp    **** 
 3395              		.loc 6 127 1 view .LVU872
 3396 030c F0BD     		pop	{r4, r5, r6, r7, pc}
 3397              	.LVL288:
 3398              	.L144:
 127:Logger.cpp    **** 
 3399              		.loc 6 127 1 view .LVU873
 3400 030e 00BF     		.align	3
 3401              	.L143:
 3402 0310 00000000 		.word	0
 3403 0314 00C05E40 		.word	1079951360
 3404 0318 00000000 		.word	0
 3405 031c 00408F40 		.word	1083129856
 3406 0320 00000000 		.word	.LC15
 3407 0324 A0860100 		.word	100000
 3408 0328 04000000 		.word	.LC16
 3409 032c 08000000 		.word	.LC17
 3410 0330 30000000 		.word	.LC18
 3411 0334 34000000 		.word	.LC19
 3412 0338 1C000000 		.word	.LC3
 3413 033c 8096984B 		.word	1268291200
 3414 0340 38000000 		.word	.LC20
 3415 0344 44000000 		.word	.LC21
 3416 0348 10000000 		.word	.LC2
 3417 034c 50000000 		.word	.LC22
 3418 0350 00000C42 		.word	1108082688
 3419 0354 00000000 		.word	.LC6
 3420 0358 2C000000 		.word	.LC7
 3421 035c 6C000000 		.word	.LC8
 3422 0360 98000000 		.word	.LC9
 3423 0364 C4000000 		.word	.LC10
 3424 0368 F0000000 		.word	.LC11
 3425 036c 1C010000 		.word	.LC12
 3426 0370 48010000 		.word	.LC13
 3427 0374 74010000 		.word	.LC14
ARM GAS  /tmp/ccIu4BI8.s 			page 82


 3428              		.cfi_endproc
 3429              	.LFE2082:
 3431              		.section	.text._Z15ProfileFunctionIXadL_ZN5daisy6LoggerILNS0_17LoggerDestinationE2EE9PrintLineEPKc
 3432              		.align	1
 3433              		.p2align 2,,3
 3434              		.weak	_Z15ProfileFunctionIXadL_ZN5daisy6LoggerILNS0_17LoggerDestinationE2EE9PrintLineEPKczEEJEEfS5
 3435              		.syntax unified
 3436              		.thumb
 3437              		.thumb_func
 3438              		.fpu fpv5-d16
 3440              	_Z15ProfileFunctionIXadL_ZN5daisy6LoggerILNS0_17LoggerDestinationE2EE9PrintLineEPKczEEJEEfS5_DpT0_:
 3441              	.LVL289:
 3442              	.LFB2095:
  49:Logger.cpp    **** {
 3443              		.loc 6 49 7 is_stmt 1 view -0
 3444              		.cfi_startproc
 3445              		@ args = 0, pretend = 0, frame = 0
 3446              		@ frame_needed = 0, uses_anonymous_args = 0
  49:Logger.cpp    **** {
 3447              		.loc 6 49 7 is_stmt 0 view .LVU875
 3448 0000 70B5     		push	{r4, r5, r6, lr}
 3449              		.cfi_def_cfa_offset 16
 3450              		.cfi_offset 4, -16
 3451              		.cfi_offset 5, -12
 3452              		.cfi_offset 6, -8
 3453              		.cfi_offset 14, -4
  49:Logger.cpp    **** {
 3454              		.loc 6 49 7 view .LVU876
 3455 0002 0546     		mov	r5, r0
  52:Logger.cpp    ****     for(int i = 0; i < count; i++)
 3456              		.loc 6 52 46 view .LVU877
 3457 0004 0A4C     		ldr	r4, .L149
 3458 0006 FFF7FEFF 		bl	_ZN5daisy6System7GetTickEv
 3459              	.LVL290:
  52:Logger.cpp    ****     for(int i = 0; i < count; i++)
 3460              		.loc 6 52 46 view .LVU878
 3461 000a 0646     		mov	r6, r0
 3462              	.LVL291:
 3463              	.LBB1123:
  53:Logger.cpp    ****     {
 3464              		.loc 6 53 22 is_stmt 1 view .LVU879
 3465              	.L146:
  55:Logger.cpp    ****     }
 3466              		.loc 6 55 17 is_stmt 0 discriminator 2 view .LVU880
 3467 000c 2846     		mov	r0, r5
 3468 000e FFF7FEFF 		bl	_ZN5daisy6LoggerILNS_17LoggerDestinationE2EE9PrintLineEPKcz
 3469              	.LVL292:
  53:Logger.cpp    ****     {
 3470              		.loc 6 53 5 is_stmt 1 discriminator 2 view .LVU881
  53:Logger.cpp    ****     {
 3471              		.loc 6 53 22 discriminator 2 view .LVU882
 3472 0012 013C     		subs	r4, r4, #1
 3473              	.LVL293:
  53:Logger.cpp    ****     {
 3474              		.loc 6 53 22 is_stmt 0 discriminator 2 view .LVU883
 3475 0014 FAD1     		bne	.L146
 3476              	.LBE1123:
ARM GAS  /tmp/ccIu4BI8.s 			page 83


  57:Logger.cpp    ****     const float perf
 3477              		.loc 6 57 37 view .LVU884
 3478 0016 FFF7FEFF 		bl	_ZN5daisy6System7GetTickEv
 3479              	.LVL294:
  57:Logger.cpp    ****     const float perf
 3480              		.loc 6 57 17 view .LVU885
 3481 001a 801B     		subs	r0, r0, r6
 3482              	.LVL295:
  58:Logger.cpp    ****         = (float)dt
 3483              		.loc 6 58 17 view .LVU886
 3484 001c 9FED050A 		vldr.32	s0, .L149+4
  60:Logger.cpp    ****     return perf;
 3485              		.loc 6 60 11 view .LVU887
 3486 0020 07EE900A 		vmov	s15, r0	@ int
 3487 0024 F8EE677A 		vcvt.f32.u32	s15, s15
  62:Logger.cpp    **** 
 3488              		.loc 6 62 1 view .LVU888
 3489 0028 87EE800A 		vdiv.f32	s0, s15, s0
 3490              	.LVL296:
  62:Logger.cpp    **** 
 3491              		.loc 6 62 1 view .LVU889
 3492 002c 70BD     		pop	{r4, r5, r6, pc}
 3493              	.LVL297:
 3494              	.L150:
  62:Logger.cpp    **** 
 3495              		.loc 6 62 1 view .LVU890
 3496 002e 00BF     		.align	2
 3497              	.L149:
 3498 0030 A0860100 		.word	100000
 3499 0034 8096984B 		.word	1268291200
 3500              		.cfi_endproc
 3501              	.LFE2095:
 3503              		.section	.text._Z15ProfileFunctionIXadL_ZN5daisy6LoggerILNS0_17LoggerDestinationE2EE9PrintLineEPKc
 3504              		.align	1
 3505              		.p2align 2,,3
 3506              		.weak	_Z15ProfileFunctionIXadL_ZN5daisy6LoggerILNS0_17LoggerDestinationE2EE9PrintLineEPKczEEJiEEfS
 3507              		.syntax unified
 3508              		.thumb
 3509              		.thumb_func
 3510              		.fpu fpv5-d16
 3512              	_Z15ProfileFunctionIXadL_ZN5daisy6LoggerILNS0_17LoggerDestinationE2EE9PrintLineEPKczEEJiEEfS5_DpT0_
 3513              	.LVL298:
 3514              	.LFB2096:
  49:Logger.cpp    **** {
 3515              		.loc 6 49 7 is_stmt 1 view -0
 3516              		.cfi_startproc
 3517              		@ args = 0, pretend = 0, frame = 0
 3518              		@ frame_needed = 0, uses_anonymous_args = 0
  49:Logger.cpp    **** {
 3519              		.loc 6 49 7 is_stmt 0 view .LVU892
 3520 0000 F8B5     		push	{r3, r4, r5, r6, r7, lr}
 3521              		.cfi_def_cfa_offset 24
 3522              		.cfi_offset 3, -24
 3523              		.cfi_offset 4, -20
 3524              		.cfi_offset 5, -16
 3525              		.cfi_offset 6, -12
 3526              		.cfi_offset 7, -8
ARM GAS  /tmp/ccIu4BI8.s 			page 84


 3527              		.cfi_offset 14, -4
  49:Logger.cpp    **** {
 3528              		.loc 6 49 7 view .LVU893
 3529 0002 0646     		mov	r6, r0
 3530 0004 0D46     		mov	r5, r1
  52:Logger.cpp    ****     for(int i = 0; i < count; i++)
 3531              		.loc 6 52 46 view .LVU894
 3532 0006 0B4C     		ldr	r4, .L155
 3533 0008 FFF7FEFF 		bl	_ZN5daisy6System7GetTickEv
 3534              	.LVL299:
  52:Logger.cpp    ****     for(int i = 0; i < count; i++)
 3535              		.loc 6 52 46 view .LVU895
 3536 000c 0746     		mov	r7, r0
 3537              	.LVL300:
 3538              	.LBB1124:
  53:Logger.cpp    ****     {
 3539              		.loc 6 53 22 is_stmt 1 view .LVU896
 3540              	.L152:
  55:Logger.cpp    ****     }
 3541              		.loc 6 55 17 is_stmt 0 discriminator 2 view .LVU897
 3542 000e 2946     		mov	r1, r5
 3543 0010 3046     		mov	r0, r6
 3544 0012 FFF7FEFF 		bl	_ZN5daisy6LoggerILNS_17LoggerDestinationE2EE9PrintLineEPKcz
 3545              	.LVL301:
  53:Logger.cpp    ****     {
 3546              		.loc 6 53 5 is_stmt 1 discriminator 2 view .LVU898
  53:Logger.cpp    ****     {
 3547              		.loc 6 53 22 discriminator 2 view .LVU899
 3548 0016 013C     		subs	r4, r4, #1
 3549              	.LVL302:
  53:Logger.cpp    ****     {
 3550              		.loc 6 53 22 is_stmt 0 discriminator 2 view .LVU900
 3551 0018 F9D1     		bne	.L152
 3552              	.LBE1124:
  57:Logger.cpp    ****     const float perf
 3553              		.loc 6 57 37 view .LVU901
 3554 001a FFF7FEFF 		bl	_ZN5daisy6System7GetTickEv
 3555              	.LVL303:
  57:Logger.cpp    ****     const float perf
 3556              		.loc 6 57 17 view .LVU902
 3557 001e C01B     		subs	r0, r0, r7
 3558              	.LVL304:
  58:Logger.cpp    ****         = (float)dt
 3559              		.loc 6 58 17 view .LVU903
 3560 0020 9FED050A 		vldr.32	s0, .L155+4
  60:Logger.cpp    ****     return perf;
 3561              		.loc 6 60 11 view .LVU904
 3562 0024 07EE900A 		vmov	s15, r0	@ int
 3563 0028 F8EE677A 		vcvt.f32.u32	s15, s15
  62:Logger.cpp    **** 
 3564              		.loc 6 62 1 view .LVU905
 3565 002c 87EE800A 		vdiv.f32	s0, s15, s0
 3566              	.LVL305:
  62:Logger.cpp    **** 
 3567              		.loc 6 62 1 view .LVU906
 3568 0030 F8BD     		pop	{r3, r4, r5, r6, r7, pc}
 3569              	.LVL306:
ARM GAS  /tmp/ccIu4BI8.s 			page 85


 3570              	.L156:
  62:Logger.cpp    **** 
 3571              		.loc 6 62 1 view .LVU907
 3572 0032 00BF     		.align	2
 3573              	.L155:
 3574 0034 A0860100 		.word	100000
 3575 0038 8096984B 		.word	1268291200
 3576              		.cfi_endproc
 3577              	.LFE2096:
 3579              		.section	.text._Z15ProfileFunctionIXadL_ZN5daisy6LoggerILNS0_17LoggerDestinationE2EE9PrintLineEPKc
 3580              		.align	1
 3581              		.p2align 2,,3
 3582              		.weak	_Z15ProfileFunctionIXadL_ZN5daisy6LoggerILNS0_17LoggerDestinationE2EE9PrintLineEPKczEEJciiEE
 3583              		.syntax unified
 3584              		.thumb
 3585              		.thumb_func
 3586              		.fpu fpv5-d16
 3588              	_Z15ProfileFunctionIXadL_ZN5daisy6LoggerILNS0_17LoggerDestinationE2EE9PrintLineEPKczEEJciiEEfS5_DpT
 3589              	.LVL307:
 3590              	.LFB2098:
  49:Logger.cpp    **** {
 3591              		.loc 6 49 7 is_stmt 1 view -0
 3592              		.cfi_startproc
 3593              		@ args = 0, pretend = 0, frame = 0
 3594              		@ frame_needed = 0, uses_anonymous_args = 0
  49:Logger.cpp    **** {
 3595              		.loc 6 49 7 is_stmt 0 view .LVU909
 3596 0000 2DE9F843 		push	{r3, r4, r5, r6, r7, r8, r9, lr}
 3597              		.cfi_def_cfa_offset 32
 3598              		.cfi_offset 3, -32
 3599              		.cfi_offset 4, -28
 3600              		.cfi_offset 5, -24
 3601              		.cfi_offset 6, -20
 3602              		.cfi_offset 7, -16
 3603              		.cfi_offset 8, -12
 3604              		.cfi_offset 9, -8
 3605              		.cfi_offset 14, -4
  49:Logger.cpp    **** {
 3606              		.loc 6 49 7 view .LVU910
 3607 0004 8046     		mov	r8, r0
 3608 0006 0F46     		mov	r7, r1
 3609 0008 1646     		mov	r6, r2
 3610 000a 1D46     		mov	r5, r3
  52:Logger.cpp    ****     for(int i = 0; i < count; i++)
 3611              		.loc 6 52 46 view .LVU911
 3612 000c 0C4C     		ldr	r4, .L161
 3613 000e FFF7FEFF 		bl	_ZN5daisy6System7GetTickEv
 3614              	.LVL308:
  52:Logger.cpp    ****     for(int i = 0; i < count; i++)
 3615              		.loc 6 52 46 view .LVU912
 3616 0012 8146     		mov	r9, r0
 3617              	.LVL309:
 3618              	.LBB1125:
  53:Logger.cpp    ****     {
 3619              		.loc 6 53 22 is_stmt 1 view .LVU913
 3620              	.L158:
  55:Logger.cpp    ****     }
ARM GAS  /tmp/ccIu4BI8.s 			page 86


 3621              		.loc 6 55 17 is_stmt 0 discriminator 2 view .LVU914
 3622 0014 2B46     		mov	r3, r5
 3623 0016 3246     		mov	r2, r6
 3624 0018 3946     		mov	r1, r7
 3625 001a 4046     		mov	r0, r8
 3626 001c FFF7FEFF 		bl	_ZN5daisy6LoggerILNS_17LoggerDestinationE2EE9PrintLineEPKcz
 3627              	.LVL310:
  53:Logger.cpp    ****     {
 3628              		.loc 6 53 5 is_stmt 1 discriminator 2 view .LVU915
  53:Logger.cpp    ****     {
 3629              		.loc 6 53 22 discriminator 2 view .LVU916
 3630 0020 013C     		subs	r4, r4, #1
 3631              	.LVL311:
  53:Logger.cpp    ****     {
 3632              		.loc 6 53 22 is_stmt 0 discriminator 2 view .LVU917
 3633 0022 F7D1     		bne	.L158
 3634              	.LBE1125:
  57:Logger.cpp    ****     const float perf
 3635              		.loc 6 57 37 view .LVU918
 3636 0024 FFF7FEFF 		bl	_ZN5daisy6System7GetTickEv
 3637              	.LVL312:
  57:Logger.cpp    ****     const float perf
 3638              		.loc 6 57 17 view .LVU919
 3639 0028 A0EB0900 		sub	r0, r0, r9
 3640              	.LVL313:
  58:Logger.cpp    ****         = (float)dt
 3641              		.loc 6 58 17 view .LVU920
 3642 002c 9FED050A 		vldr.32	s0, .L161+4
  60:Logger.cpp    ****     return perf;
 3643              		.loc 6 60 11 view .LVU921
 3644 0030 07EE900A 		vmov	s15, r0	@ int
 3645 0034 F8EE677A 		vcvt.f32.u32	s15, s15
  62:Logger.cpp    **** 
 3646              		.loc 6 62 1 view .LVU922
 3647 0038 87EE800A 		vdiv.f32	s0, s15, s0
 3648              	.LVL314:
  62:Logger.cpp    **** 
 3649              		.loc 6 62 1 view .LVU923
 3650 003c BDE8F883 		pop	{r3, r4, r5, r6, r7, r8, r9, pc}
 3651              	.LVL315:
 3652              	.L162:
  62:Logger.cpp    **** 
 3653              		.loc 6 62 1 view .LVU924
 3654              		.align	2
 3655              	.L161:
 3656 0040 A0860100 		.word	100000
 3657 0044 8096984B 		.word	1268291200
 3658              		.cfi_endproc
 3659              	.LFE2098:
 3661              		.section	.text._Z12ProfilePrintIXadL_ZN5daisy6LoggerILNS0_17LoggerDestinationE2EE9PrintLineEPKczEE
 3662              		.align	1
 3663              		.p2align 2,,3
 3664              		.weak	_Z12ProfilePrintIXadL_ZN5daisy6LoggerILNS0_17LoggerDestinationE2EE9PrintLineEPKczEEEvS5_S5_
 3665              		.syntax unified
 3666              		.thumb
 3667              		.thumb_func
 3668              		.fpu fpv5-d16
ARM GAS  /tmp/ccIu4BI8.s 			page 87


 3670              	_Z12ProfilePrintIXadL_ZN5daisy6LoggerILNS0_17LoggerDestinationE2EE9PrintLineEPKczEEEvS5_S5_:
 3671              	.LVL316:
 3672              	.LFB2083:
  67:Logger.cpp    **** {
 3673              		.loc 6 67 6 is_stmt 1 view -0
 3674              		.cfi_startproc
 3675              		@ args = 0, pretend = 0, frame = 0
 3676              		@ frame_needed = 0, uses_anonymous_args = 0
  67:Logger.cpp    **** {
 3677              		.loc 6 67 6 is_stmt 0 view .LVU926
 3678 0000 F0B5     		push	{r4, r5, r6, r7, lr}
 3679              		.cfi_def_cfa_offset 20
 3680              		.cfi_offset 4, -20
 3681              		.cfi_offset 5, -16
 3682              		.cfi_offset 6, -12
 3683              		.cfi_offset 7, -8
 3684              		.cfi_offset 14, -4
 3685 0002 0446     		mov	r4, r0
  69:Logger.cpp    ****     const float print_1 = ProfileFunction<function>("a");
 3686              		.loc 6 69 52 view .LVU927
 3687 0004 C648     		ldr	r0, .L185+16
 3688              	.LVL317:
  67:Logger.cpp    **** {
 3689              		.loc 6 67 6 view .LVU928
 3690 0006 0D46     		mov	r5, r1
 3691              	.LBB1167:
 3692              	.LBB1168:
  52:Logger.cpp    ****     for(int i = 0; i < count; i++)
 3693              		.loc 6 52 46 view .LVU929
 3694 0008 C64E     		ldr	r6, .L185+20
 3695              	.LBE1168:
 3696              	.LBE1167:
  67:Logger.cpp    **** {
 3697              		.loc 6 67 6 view .LVU930
 3698 000a 2DED0C8B 		vpush.64	{d8, d9, d10, d11, d12, d13}
 3699              		.cfi_def_cfa_offset 68
 3700              		.cfi_offset 80, -68
 3701              		.cfi_offset 81, -64
 3702              		.cfi_offset 82, -60
 3703              		.cfi_offset 83, -56
 3704              		.cfi_offset 84, -52
 3705              		.cfi_offset 85, -48
 3706              		.cfi_offset 86, -44
 3707              		.cfi_offset 87, -40
 3708              		.cfi_offset 88, -36
 3709              		.cfi_offset 89, -32
 3710              		.cfi_offset 90, -28
 3711              		.cfi_offset 91, -24
 3712 000e 87B0     		sub	sp, sp, #28
 3713              		.cfi_def_cfa_offset 96
  69:Logger.cpp    ****     const float print_1 = ProfileFunction<function>("a");
 3714              		.loc 6 69 52 view .LVU931
 3715 0010 FFF7FEFF 		bl	_Z15ProfileFunctionIXadL_ZN5daisy6LoggerILNS0_17LoggerDestinationE2EE9PrintLineEPKczEEJEEfS5_Dp
 3716              	.LVL318:
  70:Logger.cpp    ****     const float print_36
 3717              		.loc 6 70 52 view .LVU932
 3718 0014 C448     		ldr	r0, .L185+24
ARM GAS  /tmp/ccIu4BI8.s 			page 88


  69:Logger.cpp    ****     const float print_1 = ProfileFunction<function>("a");
 3719              		.loc 6 69 52 view .LVU933
 3720 0016 F0EE40DA 		vmov.f32	s27, s0
 3721              	.LVL319:
  70:Logger.cpp    ****     const float print_36
 3722              		.loc 6 70 52 view .LVU934
 3723 001a FFF7FEFF 		bl	_Z15ProfileFunctionIXadL_ZN5daisy6LoggerILNS0_17LoggerDestinationE2EE9PrintLineEPKczEEJEEfS5_Dp
 3724              	.LVL320:
  72:Logger.cpp    ****     const float print_d = ProfileFunction<function>("%d", 123);
 3725              		.loc 6 72 36 view .LVU935
 3726 001e C348     		ldr	r0, .L185+28
  70:Logger.cpp    ****     const float print_36
 3727              		.loc 6 70 52 view .LVU936
 3728 0020 F0EE40CA 		vmov.f32	s25, s0
 3729              	.LVL321:
  72:Logger.cpp    ****     const float print_d = ProfileFunction<function>("%d", 123);
 3730              		.loc 6 72 36 view .LVU937
 3731 0024 FFF7FEFF 		bl	_Z15ProfileFunctionIXadL_ZN5daisy6LoggerILNS0_17LoggerDestinationE2EE9PrintLineEPKczEEJEEfS5_Dp
 3732              	.LVL322:
  73:Logger.cpp    ****     const float print_u = ProfileFunction<function>("%u", 123);
 3733              		.loc 6 73 52 view .LVU938
 3734 0028 7B21     		movs	r1, #123
 3735 002a C148     		ldr	r0, .L185+32
  72:Logger.cpp    ****     const float print_d = ProfileFunction<function>("%d", 123);
 3736              		.loc 6 72 36 view .LVU939
 3737 002c B0EE40DA 		vmov.f32	s26, s0
 3738              	.LVL323:
  73:Logger.cpp    ****     const float print_u = ProfileFunction<function>("%u", 123);
 3739              		.loc 6 73 52 view .LVU940
 3740 0030 FFF7FEFF 		bl	_Z15ProfileFunctionIXadL_ZN5daisy6LoggerILNS0_17LoggerDestinationE2EE9PrintLineEPKczEEJiEEfS5_D
 3741              	.LVL324:
  74:Logger.cpp    ****     const float print_f = ProfileFunction<function>("%.3f", 123.0f);
 3742              		.loc 6 74 52 view .LVU941
 3743 0034 7B21     		movs	r1, #123
 3744 0036 BF48     		ldr	r0, .L185+36
  73:Logger.cpp    ****     const float print_u = ProfileFunction<function>("%u", 123);
 3745              		.loc 6 73 52 view .LVU942
 3746 0038 B0EE40CA 		vmov.f32	s24, s0
 3747              	.LVL325:
  74:Logger.cpp    ****     const float print_f = ProfileFunction<function>("%.3f", 123.0f);
 3748              		.loc 6 74 52 view .LVU943
 3749 003c FFF7FEFF 		bl	_Z15ProfileFunctionIXadL_ZN5daisy6LoggerILNS0_17LoggerDestinationE2EE9PrintLineEPKczEEJiEEfS5_D
 3750              	.LVL326:
  74:Logger.cpp    ****     const float print_f = ProfileFunction<function>("%.3f", 123.0f);
 3751              		.loc 6 74 52 view .LVU944
 3752 0040 B0EE40BA 		vmov.f32	s22, s0
 3753              	.LVL327:
 3754              	.LBB1174:
 3755              	.LBI1167:
  49:Logger.cpp    **** {
 3756              		.loc 6 49 7 is_stmt 1 view .LVU945
 3757              	.LBB1170:
  52:Logger.cpp    ****     for(int i = 0; i < count; i++)
 3758              		.loc 6 52 46 is_stmt 0 view .LVU946
 3759 0044 FFF7FEFF 		bl	_ZN5daisy6System7GetTickEv
 3760              	.LVL328:
  52:Logger.cpp    ****     for(int i = 0; i < count; i++)
ARM GAS  /tmp/ccIu4BI8.s 			page 89


 3761              		.loc 6 52 46 view .LVU947
 3762 0048 0746     		mov	r7, r0
 3763              	.LVL329:
 3764              	.LBB1169:
  53:Logger.cpp    ****     {
 3765              		.loc 6 53 22 is_stmt 1 view .LVU948
 3766              	.L164:
  55:Logger.cpp    ****     }
 3767              		.loc 6 55 17 is_stmt 0 view .LVU949
 3768 004a BB48     		ldr	r0, .L185+40
 3769 004c B0A3     		adr	r3, .L185
 3770 004e D3E90023 		ldrd	r2, [r3]
 3771 0052 FFF7FEFF 		bl	_ZN5daisy6LoggerILNS_17LoggerDestinationE2EE9PrintLineEPKcz
 3772              	.LVL330:
  53:Logger.cpp    ****     {
 3773              		.loc 6 53 5 is_stmt 1 view .LVU950
  53:Logger.cpp    ****     {
 3774              		.loc 6 53 22 view .LVU951
 3775 0056 013E     		subs	r6, r6, #1
 3776              	.LVL331:
  53:Logger.cpp    ****     {
 3777              		.loc 6 53 22 is_stmt 0 view .LVU952
 3778 0058 F7D1     		bne	.L164
 3779              	.LBE1169:
  57:Logger.cpp    ****     const float perf
 3780              		.loc 6 57 37 view .LVU953
 3781 005a FFF7FEFF 		bl	_ZN5daisy6System7GetTickEv
 3782              	.LVL332:
  57:Logger.cpp    ****     const float perf
 3783              		.loc 6 57 17 view .LVU954
 3784 005e C21B     		subs	r2, r0, r7
 3785              	.LVL333:
  58:Logger.cpp    ****         = (float)dt
 3786              		.loc 6 58 17 view .LVU955
 3787 0060 9FEDB67A 		vldr.32	s14, .L185+44
 3788              	.LBE1170:
 3789              	.LBE1174:
  77:Logger.cpp    ****     const float print_F2
 3790              		.loc 6 77 36 view .LVU956
 3791 0064 3346     		mov	r3, r6
 3792              	.LBB1175:
 3793              	.LBB1171:
  57:Logger.cpp    ****     const float perf
 3794              		.loc 6 57 17 view .LVU957
 3795 0066 07EE902A 		vmov	s15, r2	@ int
 3796              	.LBE1171:
 3797              	.LBE1175:
  77:Logger.cpp    ****     const float print_F2
 3798              		.loc 6 77 36 view .LVU958
 3799 006a 2021     		movs	r1, #32
 3800 006c 7B22     		movs	r2, #123
 3801              	.LVL334:
  77:Logger.cpp    ****     const float print_F2
 3802              		.loc 6 77 36 view .LVU959
 3803 006e B448     		ldr	r0, .L185+48
 3804              	.LBB1176:
 3805              	.LBB1172:
ARM GAS  /tmp/ccIu4BI8.s 			page 90


  60:Logger.cpp    ****     return perf;
 3806              		.loc 6 60 11 view .LVU960
 3807 0070 F8EE677A 		vcvt.f32.u32	s15, s15
 3808              	.LVL335:
  60:Logger.cpp    ****     return perf;
 3809              		.loc 6 60 11 view .LVU961
 3810              	.LBE1172:
 3811              	.LBE1176:
  92:Logger.cpp    ****     hw.PrintLine("%s - %s (   text string):" FLT_FMT3 " us/call +" FLT_FMT3
 3812              		.loc 6 92 18 view .LVU962
 3813 0074 9FEDA88B 		vldr.64	d8, .L185+8
 3814              	.LBB1177:
 3815              	.LBB1173:
  58:Logger.cpp    ****         = (float)dt
 3816              		.loc 6 58 17 view .LVU963
 3817 0078 87EE879A 		vdiv.f32	s18, s15, s14
 3818              	.LVL336:
  58:Logger.cpp    ****         = (float)dt
 3819              		.loc 6 58 17 view .LVU964
 3820              	.LBE1173:
 3821              	.LBE1177:
  77:Logger.cpp    ****     const float print_F2
 3822              		.loc 6 77 36 view .LVU965
 3823 007c FFF7FEFF 		bl	_Z15ProfileFunctionIXadL_ZN5daisy6LoggerILNS0_17LoggerDestinationE2EE9PrintLineEPKczEEJciiEEfS5
 3824              	.LVL337:
  79:Logger.cpp    ****     const float print_F3
 3825              		.loc 6 79 36 view .LVU966
 3826 0080 3346     		mov	r3, r6
 3827 0082 7B22     		movs	r2, #123
 3828 0084 2021     		movs	r1, #32
 3829 0086 AF48     		ldr	r0, .L185+52
  77:Logger.cpp    ****     const float print_F2
 3830              		.loc 6 77 36 view .LVU967
 3831 0088 F0EE40BA 		vmov.f32	s23, s0
 3832              	.LVL338:
  79:Logger.cpp    ****     const float print_F3
 3833              		.loc 6 79 36 view .LVU968
 3834 008c FFF7FEFF 		bl	_Z15ProfileFunctionIXadL_ZN5daisy6LoggerILNS0_17LoggerDestinationE2EE9PrintLineEPKczEEJciiEEfS5
 3835              	.LVL339:
  81:Logger.cpp    ****     const float print_F4
 3836              		.loc 6 81 36 view .LVU969
 3837 0090 3346     		mov	r3, r6
 3838 0092 7B22     		movs	r2, #123
 3839 0094 2021     		movs	r1, #32
 3840 0096 AC48     		ldr	r0, .L185+56
  79:Logger.cpp    ****     const float print_F3
 3841              		.loc 6 79 36 view .LVU970
 3842 0098 F0EE40AA 		vmov.f32	s21, s0
 3843              	.LVL340:
  81:Logger.cpp    ****     const float print_F4
 3844              		.loc 6 81 36 view .LVU971
 3845 009c FFF7FEFF 		bl	_Z15ProfileFunctionIXadL_ZN5daisy6LoggerILNS0_17LoggerDestinationE2EE9PrintLineEPKczEEJciiEEfS5
 3846              	.LVL341:
  83:Logger.cpp    **** 
 3847              		.loc 6 83 36 view .LVU972
 3848 00a0 3346     		mov	r3, r6
 3849 00a2 7B22     		movs	r2, #123
ARM GAS  /tmp/ccIu4BI8.s 			page 91


 3850 00a4 2021     		movs	r1, #32
 3851 00a6 A948     		ldr	r0, .L185+60
  81:Logger.cpp    ****     const float print_F4
 3852              		.loc 6 81 36 view .LVU973
 3853 00a8 B0EE40AA 		vmov.f32	s20, s0
 3854              	.LVL342:
  83:Logger.cpp    **** 
 3855              		.loc 6 83 36 view .LVU974
 3856 00ac FFF7FEFF 		bl	_Z15ProfileFunctionIXadL_ZN5daisy6LoggerILNS0_17LoggerDestinationE2EE9PrintLineEPKczEEJciiEEfS5
 3857              	.LVL343:
 3858              	.LBB1178:
 3859              	.LBB1179:
 3860              		.loc 7 76 31 view .LVU975
 3861 00b0 B0EEED7A 		vabs.f32	s14, s27
 3862              	.LBE1179:
 3863              	.LBE1178:
  86:Logger.cpp    ****     const float intercept = print_1 - slope;
 3864              		.loc 6 86 17 view .LVU976
 3865 00b4 DFEDA66A 		vldr.32	s13, .L185+64
  86:Logger.cpp    ****     const float intercept = print_1 - slope;
 3866              		.loc 6 86 39 view .LVU977
 3867 00b8 3DEE6CDA 		vsub.f32	s26, s26, s25
 3868              	.LVL344:
 3869              	.LBB1181:
 3870              	.LBB1182:
 3871              		.loc 1 124 23 view .LVU978
 3872 00bc 2A46     		mov	r2, r5
 3873              	.LBE1182:
 3874              	.LBE1181:
  89:Logger.cpp    ****                  class_caption,
 3875              		.loc 6 89 17 view .LVU979
 3876 00be F5EEC0DA 		vcmpe.f32	s27, #0
 3877              	.LBB1188:
 3878              	.LBB1183:
 3879              		.loc 1 124 23 view .LVU980
 3880 00c2 2146     		mov	r1, r4
 3881              	.LBE1183:
 3882              	.LBE1188:
  89:Logger.cpp    ****                  class_caption,
 3883              		.loc 6 89 17 view .LVU981
 3884 00c4 FDEEC77A 		vcvt.s32.f32	s15, s14
 3885              	.LBB1189:
 3886              	.LBB1184:
 3887              		.loc 1 124 23 view .LVU982
 3888 00c8 A248     		ldr	r0, .L185+68
 3889              	.LBE1184:
 3890              	.LBE1189:
  86:Logger.cpp    ****     const float intercept = print_1 - slope;
 3891              		.loc 6 86 17 view .LVU983
 3892 00ca CDEE26DA 		vdiv.f32	s27, s26, s13
 3893              	.LVL345:
 3894              	.LBB1190:
 3895              	.LBB1185:
 3896              		.loc 1 124 23 view .LVU984
 3897 00ce CDED007A 		vstr.32	s15, [sp]	@ int
 3898              	.LBE1185:
 3899              	.LBE1190:
ARM GAS  /tmp/ccIu4BI8.s 			page 92


  92:Logger.cpp    ****     hw.PrintLine("%s - %s (   text string):" FLT_FMT3 " us/call +" FLT_FMT3
 3900              		.loc 6 92 18 view .LVU985
 3901 00d2 F8EEE77A 		vcvt.f32.s32	s15, s15
  89:Logger.cpp    ****                  class_caption,
 3902              		.loc 6 89 17 view .LVU986
 3903 00d6 F1EE10FA 		vmrs	APSR_nzcv, FPSCR
  83:Logger.cpp    **** 
 3904              		.loc 6 83 36 view .LVU987
 3905 00da F0EE409A 		vmov.f32	s19, s0
 3906              	.LVL346:
  92:Logger.cpp    ****     hw.PrintLine("%s - %s (   text string):" FLT_FMT3 " us/call +" FLT_FMT3
 3907              		.loc 6 92 18 view .LVU988
 3908 00de 37EE677A 		vsub.f32	s14, s14, s15
 3909              	.LBB1191:
 3910              	.LBB1186:
 3911              		.loc 1 124 23 view .LVU989
 3912 00e2 4CBF     		ite	mi
 3913 00e4 2D23     		movmi	r3, #45
 3914 00e6 2023     		movpl	r3, #32
 3915              	.LBE1186:
 3916              	.LBE1191:
  92:Logger.cpp    ****     hw.PrintLine("%s - %s (   text string):" FLT_FMT3 " us/call +" FLT_FMT3
 3917              		.loc 6 92 18 view .LVU990
 3918 00e8 B7EEC77A 		vcvt.f64.f32	d7, s14
 3919 00ec 27EE087B 		vmul.f64	d7, d7, d8
  87:Logger.cpp    **** 
 3920              		.loc 6 87 17 view .LVU991
 3921 00f0 7CEEEDCA 		vsub.f32	s25, s25, s27
 3922              	.LVL347:
 3923              	.LBB1192:
 3924              	.LBI1178:
  75:/usr/include/newlib/c++/9.2.1/bits/std_abs.h ****   { return __builtin_fabsf(__x); }
 3925              		.loc 7 75 3 is_stmt 1 view .LVU992
 3926              	.LBB1180:
 3927              		.loc 7 76 5 view .LVU993
 3928              		.loc 7 76 5 is_stmt 0 view .LVU994
 3929              	.LBE1180:
 3930              	.LBE1192:
 3931              		.loc 7 76 5 is_stmt 1 view .LVU995
 3932              		.loc 7 76 5 view .LVU996
 3933              	.LBB1193:
 3934              	.LBI1181:
 122:../../libdaisy/src/daisy_seed.h ****     {
 3935              		.loc 1 122 17 view .LVU997
 3936              	.LBE1193:
  89:Logger.cpp    ****                  class_caption,
 3937              		.loc 6 89 17 is_stmt 0 view .LVU998
 3938 00f4 BDEEC77B 		vcvt.s32.f64	s14, d7
 3939              	.LBB1194:
 3940              	.LBB1187:
 3941              		.loc 1 124 23 view .LVU999
 3942 00f8 8DED017A 		vstr.32	s14, [sp, #4]	@ int
 3943 00fc FFF7FEFF 		bl	_ZN5daisy6LoggerILNS_17LoggerDestinationE1EE9PrintLineEPKcz
 3944              	.LVL348:
 3945              		.loc 1 124 23 view .LVU1000
 3946              	.LBE1187:
 3947              	.LBE1194:
ARM GAS  /tmp/ccIu4BI8.s 			page 93


 3948              	.LBB1195:
 3949              	.LBB1196:
 3950              		.loc 7 76 31 view .LVU1001
 3951 0100 B0EEEC6A 		vabs.f32	s12, s25
 3952              	.LBE1196:
 3953              	.LBE1195:
 3954              	.LBB1198:
 3955              	.LBB1199:
 3956 0104 B0EEED7A 		vabs.f32	s14, s27
 3957              	.LBE1199:
 3958              	.LBE1198:
 3959              	.LBB1201:
 3960              	.LBB1202:
 3961              		.loc 1 124 23 view .LVU1002
 3962 0108 2A46     		mov	r2, r5
 3963              	.LBE1202:
 3964              	.LBE1201:
  93:Logger.cpp    ****                  " us/char",
 3965              		.loc 6 93 17 view .LVU1003
 3966 010a F5EEC0CA 		vcmpe.f32	s25, #0
 3967              	.LBB1209:
 3968              	.LBB1203:
 3969              		.loc 1 124 23 view .LVU1004
 3970 010e 2146     		mov	r1, r4
 3971              	.LBE1203:
 3972              	.LBE1209:
  93:Logger.cpp    ****                  " us/char",
 3973              		.loc 6 93 17 view .LVU1005
 3974 0110 FDEEC66A 		vcvt.s32.f32	s13, s12
 3975              	.LBB1210:
 3976              	.LBB1204:
 3977              		.loc 1 124 23 view .LVU1006
 3978 0114 9048     		ldr	r0, .L185+72
 3979              	.LBE1204:
 3980              	.LBE1210:
  93:Logger.cpp    ****                  " us/char",
 3981              		.loc 6 93 17 view .LVU1007
 3982 0116 FDEEC77A 		vcvt.s32.f32	s15, s14
 3983 011a F1EE10FA 		vmrs	APSR_nzcv, FPSCR
  97:Logger.cpp    ****                  FLT_VAR3(slope));
 3984              		.loc 6 97 18 view .LVU1008
 3985 011e F8EEE65A 		vcvt.f32.s32	s11, s13
 3986              	.LBB1211:
 3987              	.LBB1205:
 3988              		.loc 1 124 23 view .LVU1009
 3989 0122 CDED006A 		vstr.32	s13, [sp]	@ int
 3990              	.LBE1205:
 3991              	.LBE1211:
  98:Logger.cpp    ****     hw.PrintLine("%s - %s ( integer value):" FLT_FMT3 " us/call",
 3992              		.loc 6 98 18 view .LVU1010
 3993 0126 F8EEE76A 		vcvt.f32.s32	s13, s15
 3994              	.LBB1212:
 3995              	.LBB1206:
 3996              		.loc 1 124 23 view .LVU1011
 3997 012a CDED037A 		vstr.32	s15, [sp, #12]	@ int
 3998              	.LBE1206:
 3999              	.LBE1212:
ARM GAS  /tmp/ccIu4BI8.s 			page 94


  93:Logger.cpp    ****                  " us/char",
 4000              		.loc 6 93 17 view .LVU1012
 4001 012e F5EEC0DA 		vcmpe.f32	s27, #0
 4002 0132 48BF     		it	mi
 4003 0134 2D23     		movmi	r3, #45
  97:Logger.cpp    ****                  FLT_VAR3(slope));
 4004              		.loc 6 97 18 view .LVU1013
 4005 0136 36EE656A 		vsub.f32	s12, s12, s11
  93:Logger.cpp    ****                  " us/char",
 4006              		.loc 6 93 17 view .LVU1014
 4007 013a 58BF     		it	pl
 4008 013c 2023     		movpl	r3, #32
 4009              	.LVL349:
 4010              	.LBB1213:
 4011              	.LBI1195:
  75:/usr/include/newlib/c++/9.2.1/bits/std_abs.h ****   { return __builtin_fabsf(__x); }
 4012              		.loc 7 75 3 is_stmt 1 view .LVU1015
 4013              	.LBB1197:
 4014              		.loc 7 76 5 view .LVU1016
 4015              		.loc 7 76 5 is_stmt 0 view .LVU1017
 4016              	.LBE1197:
 4017              	.LBE1213:
 4018              		.loc 7 76 5 is_stmt 1 view .LVU1018
 4019              		.loc 7 76 5 view .LVU1019
  98:Logger.cpp    ****     hw.PrintLine("%s - %s ( integer value):" FLT_FMT3 " us/call",
 4020              		.loc 6 98 18 is_stmt 0 view .LVU1020
 4021 013e 37EE667A 		vsub.f32	s14, s14, s13
  93:Logger.cpp    ****                  " us/char",
 4022              		.loc 6 93 17 view .LVU1021
 4023 0142 F1EE10FA 		vmrs	APSR_nzcv, FPSCR
  97:Logger.cpp    ****                  FLT_VAR3(slope));
 4024              		.loc 6 97 18 view .LVU1022
 4025 0146 B7EEC66A 		vcvt.f64.f32	d6, s12
  98:Logger.cpp    ****     hw.PrintLine("%s - %s ( integer value):" FLT_FMT3 " us/call",
 4026              		.loc 6 98 18 view .LVU1023
 4027 014a B7EEC77A 		vcvt.f64.f32	d7, s14
  93:Logger.cpp    ****                  " us/char",
 4028              		.loc 6 93 17 view .LVU1024
 4029 014e 4CBF     		ite	mi
 4030 0150 2D26     		movmi	r6, #45
 4031 0152 2026     		movpl	r6, #32
 4032              	.LVL350:
 4033              	.LBB1214:
 4034              	.LBI1198:
  75:/usr/include/newlib/c++/9.2.1/bits/std_abs.h ****   { return __builtin_fabsf(__x); }
 4035              		.loc 7 75 3 is_stmt 1 view .LVU1025
 4036              	.LBB1200:
 4037              		.loc 7 76 5 view .LVU1026
 4038              		.loc 7 76 5 is_stmt 0 view .LVU1027
 4039              	.LBE1200:
 4040              	.LBE1214:
 4041              		.loc 7 76 5 is_stmt 1 view .LVU1028
 4042              		.loc 7 76 5 view .LVU1029
  97:Logger.cpp    ****                  FLT_VAR3(slope));
 4043              		.loc 6 97 18 is_stmt 0 view .LVU1030
 4044 0154 26EE086B 		vmul.f64	d6, d6, d8
 4045              	.LBB1215:
ARM GAS  /tmp/ccIu4BI8.s 			page 95


 4046              	.LBB1207:
 4047              		.loc 1 124 23 view .LVU1031
 4048 0158 0296     		str	r6, [sp, #8]
 4049              	.LBE1207:
 4050              	.LBE1215:
  98:Logger.cpp    ****     hw.PrintLine("%s - %s ( integer value):" FLT_FMT3 " us/call",
 4051              		.loc 6 98 18 view .LVU1032
 4052 015a 27EE087B 		vmul.f64	d7, d7, d8
  93:Logger.cpp    ****                  " us/char",
 4053              		.loc 6 93 17 view .LVU1033
 4054 015e BDEEC66B 		vcvt.s32.f64	s12, d6
 4055              	.LVL351:
 4056              	.LBB1216:
 4057              	.LBI1201:
 122:../../libdaisy/src/daisy_seed.h ****     {
 4058              		.loc 1 122 17 is_stmt 1 view .LVU1034
 4059              	.LBE1216:
  93:Logger.cpp    ****                  " us/char",
 4060              		.loc 6 93 17 is_stmt 0 view .LVU1035
 4061 0162 BDEEC77B 		vcvt.s32.f64	s14, d7
 4062              	.LBB1217:
 4063              	.LBB1208:
 4064              		.loc 1 124 23 view .LVU1036
 4065 0166 8DED016A 		vstr.32	s12, [sp, #4]	@ int
 4066 016a 8DED047A 		vstr.32	s14, [sp, #16]	@ int
 4067 016e FFF7FEFF 		bl	_ZN5daisy6LoggerILNS_17LoggerDestinationE1EE9PrintLineEPKcz
 4068              	.LVL352:
 4069              		.loc 1 124 23 view .LVU1037
 4070              	.LBE1208:
 4071              	.LBE1217:
 4072              	.LBB1218:
 4073              	.LBI1218:
  75:/usr/include/newlib/c++/9.2.1/bits/std_abs.h ****   { return __builtin_fabsf(__x); }
 4074              		.loc 7 75 3 is_stmt 1 view .LVU1038
 4075              	.LBB1219:
 4076              		.loc 7 76 5 view .LVU1039
 4077              		.loc 7 76 31 is_stmt 0 view .LVU1040
 4078 0172 B0EECC7A 		vabs.f32	s14, s24
 4079              	.LVL353:
 4080              		.loc 7 76 31 view .LVU1041
 4081              	.LBE1219:
 4082              	.LBE1218:
  99:Logger.cpp    ****                  class_caption,
 4083              		.loc 6 99 17 view .LVU1042
 4084 0176 B5EEC0CA 		vcmpe.f32	s24, #0
 4085              	.LBB1220:
 4086              	.LBB1221:
 4087              		.loc 1 124 23 view .LVU1043
 4088 017a 2A46     		mov	r2, r5
 4089 017c 2146     		mov	r1, r4
 4090 017e 7748     		ldr	r0, .L185+76
 4091              	.LBE1221:
 4092              	.LBE1220:
  99:Logger.cpp    ****                  class_caption,
 4093              		.loc 6 99 17 view .LVU1044
 4094 0180 FDEEC77A 		vcvt.s32.f32	s15, s14
 4095              	.LVL354:
ARM GAS  /tmp/ccIu4BI8.s 			page 96


 4096              		.loc 7 76 5 is_stmt 1 view .LVU1045
 4097              		.loc 7 76 5 view .LVU1046
 4098              	.LBB1224:
 4099              	.LBI1220:
 122:../../libdaisy/src/daisy_seed.h ****     {
 4100              		.loc 1 122 17 view .LVU1047
 4101              	.LBE1224:
  99:Logger.cpp    ****                  class_caption,
 4102              		.loc 6 99 17 is_stmt 0 view .LVU1048
 4103 0184 F1EE10FA 		vmrs	APSR_nzcv, FPSCR
 102:Logger.cpp    ****     hw.PrintLine("%s - %s (unsigned value):" FLT_FMT3 " us/call",
 4104              		.loc 6 102 18 view .LVU1049
 4105 0188 F8EEE76A 		vcvt.f32.s32	s13, s15
 4106              	.LVL355:
 4107              	.LBB1225:
 4108              	.LBB1222:
 4109              		.loc 1 124 23 view .LVU1050
 4110 018c CDED007A 		vstr.32	s15, [sp]	@ int
 4111 0190 4CBF     		ite	mi
 4112 0192 2D23     		movmi	r3, #45
 4113 0194 2023     		movpl	r3, #32
 4114              	.LBE1222:
 4115              	.LBE1225:
 102:Logger.cpp    ****     hw.PrintLine("%s - %s (unsigned value):" FLT_FMT3 " us/call",
 4116              		.loc 6 102 18 view .LVU1051
 4117 0196 37EE667A 		vsub.f32	s14, s14, s13
 4118              	.LVL356:
 102:Logger.cpp    ****     hw.PrintLine("%s - %s (unsigned value):" FLT_FMT3 " us/call",
 4119              		.loc 6 102 18 view .LVU1052
 4120 019a B7EEC77A 		vcvt.f64.f32	d7, s14
 4121 019e 27EE087B 		vmul.f64	d7, d7, d8
  99:Logger.cpp    ****                  class_caption,
 4122              		.loc 6 99 17 view .LVU1053
 4123 01a2 BDEEC77B 		vcvt.s32.f64	s14, d7
 4124              	.LBB1226:
 4125              	.LBB1223:
 4126              		.loc 1 124 23 view .LVU1054
 4127 01a6 8DED017A 		vstr.32	s14, [sp, #4]	@ int
 4128 01aa FFF7FEFF 		bl	_ZN5daisy6LoggerILNS_17LoggerDestinationE1EE9PrintLineEPKcz
 4129              	.LVL357:
 4130              		.loc 1 124 23 view .LVU1055
 4131              	.LBE1223:
 4132              	.LBE1226:
 4133              	.LBB1227:
 4134              	.LBI1227:
  75:/usr/include/newlib/c++/9.2.1/bits/std_abs.h ****   { return __builtin_fabsf(__x); }
 4135              		.loc 7 75 3 is_stmt 1 view .LVU1056
 4136              	.LBB1228:
 4137              		.loc 7 76 5 view .LVU1057
 4138              		.loc 7 76 31 is_stmt 0 view .LVU1058
 4139 01ae B0EECB7A 		vabs.f32	s14, s22
 4140              	.LVL358:
 4141              		.loc 7 76 31 view .LVU1059
 4142              	.LBE1228:
 4143              	.LBE1227:
 103:Logger.cpp    ****                  class_caption,
 4144              		.loc 6 103 17 view .LVU1060
ARM GAS  /tmp/ccIu4BI8.s 			page 97


 4145 01b2 B5EEC0BA 		vcmpe.f32	s22, #0
 4146              	.LBB1229:
 4147              	.LBB1230:
 4148              		.loc 1 124 23 view .LVU1061
 4149 01b6 2A46     		mov	r2, r5
