ARM GAS  /tmp/ccHRAJ1M.s 			page 1


   1              		.cpu cortex-m7
   2              		.eabi_attribute 28, 1
   3              		.eabi_attribute 20, 1
   4              		.eabi_attribute 21, 1
   5              		.eabi_attribute 23, 3
   6              		.eabi_attribute 24, 1
   7              		.eabi_attribute 25, 1
   8              		.eabi_attribute 26, 1
   9              		.eabi_attribute 30, 2
  10              		.eabi_attribute 34, 1
  11              		.eabi_attribute 18, 4
  12              		.file	"drip.cpp"
  13              		.text
  14              	.Ltext0:
  15              		.cfi_sections	.debug_frame
  16              		.section	.text._ZN7daisysp4DripD2Ev,"axG",%progbits,_ZN7daisysp4DripD5Ev,comdat
  17              		.align	1
  18              		.p2align 2,,3
  19              		.weak	_ZN7daisysp4DripD2Ev
  20              		.arch armv7e-m
  21              		.syntax unified
  22              		.thumb
  23              		.thumb_func
  24              		.fpu fpv5-d16
  26              	_ZN7daisysp4DripD2Ev:
  27              	.LVL0:
  28              	.LFB3197:
  29              		.file 1 "../../DaisySP/Source/PhysicalModeling/drip.h"
   1:../../DaisySP/Source/PhysicalModeling/drip.h **** #pragma once
   2:../../DaisySP/Source/PhysicalModeling/drip.h **** #ifndef DSY_DRIP_H
   3:../../DaisySP/Source/PhysicalModeling/drip.h **** #define DSY_DRIP_H
   4:../../DaisySP/Source/PhysicalModeling/drip.h **** 
   5:../../DaisySP/Source/PhysicalModeling/drip.h **** #include <stdint.h>
   6:../../DaisySP/Source/PhysicalModeling/drip.h **** #ifdef __cplusplus
   7:../../DaisySP/Source/PhysicalModeling/drip.h **** 
   8:../../DaisySP/Source/PhysicalModeling/drip.h **** /**  @file drip.h */
   9:../../DaisySP/Source/PhysicalModeling/drip.h **** 
  10:../../DaisySP/Source/PhysicalModeling/drip.h **** namespace daisysp
  11:../../DaisySP/Source/PhysicalModeling/drip.h **** {
  12:../../DaisySP/Source/PhysicalModeling/drip.h **** /** 
  13:../../DaisySP/Source/PhysicalModeling/drip.h ****     Imitates the sound of dripping water via Physical Modeling Synthesis. \n 
  14:../../DaisySP/Source/PhysicalModeling/drip.h ****     Ported from soundpipe by Ben Sergentanis, May 2020 
  15:../../DaisySP/Source/PhysicalModeling/drip.h ****     @author Perry Cook  
  16:../../DaisySP/Source/PhysicalModeling/drip.h ****     @date 2000  
  17:../../DaisySP/Source/PhysicalModeling/drip.h **** */
  18:../../DaisySP/Source/PhysicalModeling/drip.h **** class Drip
  19:../../DaisySP/Source/PhysicalModeling/drip.h **** {
  20:../../DaisySP/Source/PhysicalModeling/drip.h ****   public:
  21:../../DaisySP/Source/PhysicalModeling/drip.h ****     Drip() {}
  22:../../DaisySP/Source/PhysicalModeling/drip.h ****     ~Drip() {}
  30              		.loc 1 22 5 view -0
  31              		.cfi_startproc
  32              		@ args = 0, pretend = 0, frame = 0
  33              		@ frame_needed = 0, uses_anonymous_args = 0
  34              		@ link register save eliminated.
  35              		.loc 1 22 14 is_stmt 0 view .LVU1
  36 0000 7047     		bx	lr
ARM GAS  /tmp/ccHRAJ1M.s 			page 2


  37              		.cfi_endproc
  38              	.LFE3197:
  40              		.weak	_ZN7daisysp4DripD1Ev
  41              		.thumb_set _ZN7daisysp4DripD1Ev,_ZN7daisysp4DripD2Ev
  42 0002 00BF     		.section	.text._ZN7daisysp5MetroD2Ev,"axG",%progbits,_ZN7daisysp5MetroD5Ev,comdat
  43              		.align	1
  44              		.p2align 2,,3
  45              		.weak	_ZN7daisysp5MetroD2Ev
  46              		.syntax unified
  47              		.thumb
  48              		.thumb_func
  49              		.fpu fpv5-d16
  51              	_ZN7daisysp5MetroD2Ev:
  52              	.LVL1:
  53              	.LFB3332:
  54              		.file 2 "../../DaisySP/Source/Utility/metro.h"
   1:../../DaisySP/Source/Utility/metro.h **** #pragma once
   2:../../DaisySP/Source/Utility/metro.h **** #ifndef DSY_METRO_H
   3:../../DaisySP/Source/Utility/metro.h **** #define DSY_METRO_H
   4:../../DaisySP/Source/Utility/metro.h **** #include <stdint.h>
   5:../../DaisySP/Source/Utility/metro.h **** #ifdef __cplusplus
   6:../../DaisySP/Source/Utility/metro.h **** 
   7:../../DaisySP/Source/Utility/metro.h **** namespace daisysp
   8:../../DaisySP/Source/Utility/metro.h **** {
   9:../../DaisySP/Source/Utility/metro.h **** /** Creates a clock signal at a specific frequency.
  10:../../DaisySP/Source/Utility/metro.h **** */
  11:../../DaisySP/Source/Utility/metro.h **** class Metro
  12:../../DaisySP/Source/Utility/metro.h **** {
  13:../../DaisySP/Source/Utility/metro.h ****   public:
  14:../../DaisySP/Source/Utility/metro.h ****     Metro() {}
  15:../../DaisySP/Source/Utility/metro.h ****     ~Metro() {}
  55              		.loc 2 15 5 is_stmt 1 view -0
  56              		.cfi_startproc
  57              		@ args = 0, pretend = 0, frame = 0
  58              		@ frame_needed = 0, uses_anonymous_args = 0
  59              		@ link register save eliminated.
  60              		.loc 2 15 15 is_stmt 0 view .LVU3
  61 0000 7047     		bx	lr
  62              		.cfi_endproc
  63              	.LFE3332:
  65              		.weak	_ZN7daisysp5MetroD1Ev
  66              		.thumb_set _ZN7daisysp5MetroD1Ev,_ZN7daisysp5MetroD2Ev
  67 0002 00BF     		.section	.text._ZN5daisy9DaisySeedD2Ev,"axG",%progbits,_ZN5daisy9DaisySeedD5Ev,comdat
  68              		.align	1
  69              		.p2align 2,,3
  70              		.weak	_ZN5daisy9DaisySeedD2Ev
  71              		.syntax unified
  72              		.thumb
  73              		.thumb_func
  74              		.fpu fpv5-d16
  76              	_ZN5daisy9DaisySeedD2Ev:
  77              	.LVL2:
  78              	.LFB4207:
  79              		.file 3 "../../libdaisy/src/daisy_seed.h"
   1:../../libdaisy/src/daisy_seed.h **** #pragma once
   2:../../libdaisy/src/daisy_seed.h **** #ifndef DSY_SEED_H
   3:../../libdaisy/src/daisy_seed.h **** #define DSY_SEED_H
ARM GAS  /tmp/ccHRAJ1M.s 			page 3


   4:../../libdaisy/src/daisy_seed.h **** 
   5:../../libdaisy/src/daisy_seed.h **** #include "daisy.h"
   6:../../libdaisy/src/daisy_seed.h **** 
   7:../../libdaisy/src/daisy_seed.h **** //Uncomment this out if you're still using the rev2 hardware
   8:../../libdaisy/src/daisy_seed.h **** //#define SEED_REV2
   9:../../libdaisy/src/daisy_seed.h **** 
  10:../../libdaisy/src/daisy_seed.h **** namespace daisy
  11:../../libdaisy/src/daisy_seed.h **** {
  12:../../libdaisy/src/daisy_seed.h **** /**
  13:../../libdaisy/src/daisy_seed.h ****    @brief This is the higher-level interface for the Daisy board. \n 
  14:../../libdaisy/src/daisy_seed.h ****     All basic peripheral configuration/initialization is setup here. \n
  15:../../libdaisy/src/daisy_seed.h **** 
  16:../../libdaisy/src/daisy_seed.h ****    @ingroup boards
  17:../../libdaisy/src/daisy_seed.h **** */
  18:../../libdaisy/src/daisy_seed.h **** class DaisySeed
  19:../../libdaisy/src/daisy_seed.h **** {
  20:../../libdaisy/src/daisy_seed.h ****   public:
  21:../../libdaisy/src/daisy_seed.h ****     DaisySeed() {}
  22:../../libdaisy/src/daisy_seed.h ****     ~DaisySeed() {}
  80              		.loc 3 22 5 is_stmt 1 view -0
  81              		.cfi_startproc
  82              		@ args = 0, pretend = 0, frame = 0
  83              		@ frame_needed = 0, uses_anonymous_args = 0
  84              		@ link register save eliminated.
  85              	.LBB61:
  86              	.LBI61:
  87              		.file 4 "../../libdaisy/src/sys/system.h"
   1:../../libdaisy/src/sys/system.h **** #ifndef DSY_SYSTEM_H
   2:../../libdaisy/src/sys/system.h **** #define DSY_SYSTEM_H
   3:../../libdaisy/src/sys/system.h **** 
   4:../../libdaisy/src/sys/system.h **** #ifndef UNIT_TEST // for unit tests, a dummy implementation is provided below
   5:../../libdaisy/src/sys/system.h **** 
   6:../../libdaisy/src/sys/system.h **** #include <cstdint>
   7:../../libdaisy/src/sys/system.h **** #include "per/tim.h"
   8:../../libdaisy/src/sys/system.h **** 
   9:../../libdaisy/src/sys/system.h **** namespace daisy
  10:../../libdaisy/src/sys/system.h **** {
  11:../../libdaisy/src/sys/system.h **** /** A handle for interacting with the Core System. 
  12:../../libdaisy/src/sys/system.h ****  ** This includes the Clock tree, MPU, global DMA initialization,
  13:../../libdaisy/src/sys/system.h ****  ** cache handling, and any other necessary global initiailzation
  14:../../libdaisy/src/sys/system.h ****  **
  15:../../libdaisy/src/sys/system.h ****  ** @author shensley
  16:../../libdaisy/src/sys/system.h ****  ** @addtogroup system
  17:../../libdaisy/src/sys/system.h ****  */
  18:../../libdaisy/src/sys/system.h **** class System
  19:../../libdaisy/src/sys/system.h **** {
  20:../../libdaisy/src/sys/system.h ****   public:
  21:../../libdaisy/src/sys/system.h ****     /** Contains settings for initializing the System */
  22:../../libdaisy/src/sys/system.h ****     struct Config
  23:../../libdaisy/src/sys/system.h ****     {
  24:../../libdaisy/src/sys/system.h ****         /** Specifies the system clock frequency that feeds APB/AHB clocks, etc. */
  25:../../libdaisy/src/sys/system.h ****         enum class SysClkFreq
  26:../../libdaisy/src/sys/system.h ****         {
  27:../../libdaisy/src/sys/system.h ****             FREQ_400MHZ,
  28:../../libdaisy/src/sys/system.h ****             FREQ_480MHZ,
  29:../../libdaisy/src/sys/system.h ****         };
  30:../../libdaisy/src/sys/system.h **** 
ARM GAS  /tmp/ccHRAJ1M.s 			page 4


  31:../../libdaisy/src/sys/system.h ****         /** Method to call on the struct to set to defaults
  32:../../libdaisy/src/sys/system.h ****          ** CPU Freq set to 400MHz
  33:../../libdaisy/src/sys/system.h ****          ** Cache Enabled 
  34:../../libdaisy/src/sys/system.h ****          ** */
  35:../../libdaisy/src/sys/system.h ****         void Defaults()
  36:../../libdaisy/src/sys/system.h ****         {
  37:../../libdaisy/src/sys/system.h ****             cpu_freq   = SysClkFreq::FREQ_400MHZ;
  38:../../libdaisy/src/sys/system.h ****             use_dcache = true;
  39:../../libdaisy/src/sys/system.h ****             use_icache = true;
  40:../../libdaisy/src/sys/system.h ****         }
  41:../../libdaisy/src/sys/system.h **** 
  42:../../libdaisy/src/sys/system.h ****         /** Method to call on the struct to set to boost mode:
  43:../../libdaisy/src/sys/system.h ****          ** CPU Freq set to 480MHz
  44:../../libdaisy/src/sys/system.h ****          ** Cache Enabled 
  45:../../libdaisy/src/sys/system.h ****          ** */
  46:../../libdaisy/src/sys/system.h ****         void Boost()
  47:../../libdaisy/src/sys/system.h ****         {
  48:../../libdaisy/src/sys/system.h ****             cpu_freq   = SysClkFreq::FREQ_480MHZ;
  49:../../libdaisy/src/sys/system.h ****             use_dcache = true;
  50:../../libdaisy/src/sys/system.h ****             use_icache = true;
  51:../../libdaisy/src/sys/system.h ****         }
  52:../../libdaisy/src/sys/system.h **** 
  53:../../libdaisy/src/sys/system.h ****         SysClkFreq cpu_freq;
  54:../../libdaisy/src/sys/system.h ****         bool       use_dcache;
  55:../../libdaisy/src/sys/system.h ****         bool       use_icache;
  56:../../libdaisy/src/sys/system.h ****     };
  57:../../libdaisy/src/sys/system.h **** 
  58:../../libdaisy/src/sys/system.h ****     System() {}
  59:../../libdaisy/src/sys/system.h ****     ~System() {}
  88              		.loc 4 59 5 view .LVU5
  89              		.loc 4 59 5 is_stmt 0 view .LVU6
  90              	.LBE61:
  91              	.LBB62:
  92              	.LBI62:
  93              		.file 5 "../../libdaisy/src/hid/usb.h"
   1:../../libdaisy/src/hid/usb.h **** #pragma once
   2:../../libdaisy/src/hid/usb.h **** #ifndef DSY_HID_USB_H
   3:../../libdaisy/src/hid/usb.h **** #define DSY_HID_USB_H
   4:../../libdaisy/src/hid/usb.h **** #include <stdint.h>
   5:../../libdaisy/src/hid/usb.h **** #include <stdlib.h>
   6:../../libdaisy/src/hid/usb.h **** 
   7:../../libdaisy/src/hid/usb.h **** namespace daisy
   8:../../libdaisy/src/hid/usb.h **** /** @addtogroup externals
   9:../../libdaisy/src/hid/usb.h ****     @{
  10:../../libdaisy/src/hid/usb.h **** */
  11:../../libdaisy/src/hid/usb.h **** 
  12:../../libdaisy/src/hid/usb.h **** {
  13:../../libdaisy/src/hid/usb.h **** /** 
  14:../../libdaisy/src/hid/usb.h ****     @brief Interface for initializing and using the USB Peripherals on the daisy
  15:../../libdaisy/src/hid/usb.h ****     @author Stephen Hensley
  16:../../libdaisy/src/hid/usb.h ****     @date December 2019
  17:../../libdaisy/src/hid/usb.h **** */
  18:../../libdaisy/src/hid/usb.h **** class UsbHandle
  19:../../libdaisy/src/hid/usb.h **** {
  20:../../libdaisy/src/hid/usb.h ****   public:
  21:../../libdaisy/src/hid/usb.h ****     /** Return values for USBHandle Functions */
  22:../../libdaisy/src/hid/usb.h ****     enum class Result
ARM GAS  /tmp/ccHRAJ1M.s 			page 5


  23:../../libdaisy/src/hid/usb.h ****     {
  24:../../libdaisy/src/hid/usb.h ****         OK,
  25:../../libdaisy/src/hid/usb.h ****         ERR,
  26:../../libdaisy/src/hid/usb.h ****     };
  27:../../libdaisy/src/hid/usb.h **** 
  28:../../libdaisy/src/hid/usb.h ****     /** Specified which of the two USB Peripherals to initialize. */
  29:../../libdaisy/src/hid/usb.h ****     enum UsbPeriph
  30:../../libdaisy/src/hid/usb.h ****     {
  31:../../libdaisy/src/hid/usb.h ****         FS_INTERNAL, /**< Internal pin */
  32:../../libdaisy/src/hid/usb.h ****         FS_EXTERNAL, /**< FS External D+ pin is Pin 38 (GPIO32). FS External D- pin is Pin 37 (GPIO
  33:../../libdaisy/src/hid/usb.h ****         FS_BOTH,     /**< Both */
  34:../../libdaisy/src/hid/usb.h ****     };
  35:../../libdaisy/src/hid/usb.h **** 
  36:../../libdaisy/src/hid/usb.h **** 
  37:../../libdaisy/src/hid/usb.h ****     /** Function called upon reception of a buffer */
  38:../../libdaisy/src/hid/usb.h ****     typedef void (*ReceiveCallback)(uint8_t* buff, uint32_t* len);
  39:../../libdaisy/src/hid/usb.h **** 
  40:../../libdaisy/src/hid/usb.h ****     UsbHandle() {}
  41:../../libdaisy/src/hid/usb.h **** 
  42:../../libdaisy/src/hid/usb.h ****     ~UsbHandle() {}
  94              		.loc 5 42 5 is_stmt 1 view .LVU7
  95              		.loc 5 42 5 is_stmt 0 view .LVU8
  96              	.LBE62:
  97              	.LBB63:
  98              	.LBI63:
  99              		.file 6 "../../libdaisy/src/per/adc.h"
   1:../../libdaisy/src/per/adc.h **** #pragma once
   2:../../libdaisy/src/per/adc.h **** #ifndef DSY_ADC_H
   3:../../libdaisy/src/per/adc.h **** #define DSY_ADC_H /**< Macro */
   4:../../libdaisy/src/per/adc.h **** #include <stdint.h>
   5:../../libdaisy/src/per/adc.h **** #include <stdlib.h>
   6:../../libdaisy/src/per/adc.h **** #include "daisy_core.h"
   7:../../libdaisy/src/per/adc.h **** #include "per/gpio.h"
   8:../../libdaisy/src/per/adc.h **** 
   9:../../libdaisy/src/per/adc.h **** #define DSY_ADC_MAX_CHANNELS 14 /**< Maximum number of ADC channels */
  10:../../libdaisy/src/per/adc.h **** 
  11:../../libdaisy/src/per/adc.h **** namespace daisy
  12:../../libdaisy/src/per/adc.h **** {
  13:../../libdaisy/src/per/adc.h **** /** @addtogroup analog_digital_conversion
  14:../../libdaisy/src/per/adc.h ****     @{
  15:../../libdaisy/src/per/adc.h **** */
  16:../../libdaisy/src/per/adc.h **** 
  17:../../libdaisy/src/per/adc.h **** /* While there may not be many configuration options here,
  18:../../libdaisy/src/per/adc.h **** using a struct like this allows us to add more configuration
  19:../../libdaisy/src/per/adc.h **** later without breaking existing functionality.
  20:../../libdaisy/src/per/adc.h **** */
  21:../../libdaisy/src/per/adc.h **** 
  22:../../libdaisy/src/per/adc.h **** /** Configuration Structure for a given channel */
  23:../../libdaisy/src/per/adc.h **** struct AdcChannelConfig
  24:../../libdaisy/src/per/adc.h **** {
  25:../../libdaisy/src/per/adc.h ****     /** Which pin to use for multiplexing */
  26:../../libdaisy/src/per/adc.h ****     enum MuxPin
  27:../../libdaisy/src/per/adc.h ****     {
  28:../../libdaisy/src/per/adc.h ****         MUX_SEL_0,    /**< & */
  29:../../libdaisy/src/per/adc.h ****         MUX_SEL_1,    /**< & */
  30:../../libdaisy/src/per/adc.h ****         MUX_SEL_2,    /**< & */
  31:../../libdaisy/src/per/adc.h ****         MUX_SEL_LAST, /**< & */
ARM GAS  /tmp/ccHRAJ1M.s 			page 6


  32:../../libdaisy/src/per/adc.h ****     };
  33:../../libdaisy/src/per/adc.h **** 
  34:../../libdaisy/src/per/adc.h ****     /** Initializes a single ADC pin as an ADC. 
  35:../../libdaisy/src/per/adc.h ****     \param pin Pin to init.
  36:../../libdaisy/src/per/adc.h ****      */
  37:../../libdaisy/src/per/adc.h ****     void InitSingle(dsy_gpio_pin pin);
  38:../../libdaisy/src/per/adc.h **** 
  39:../../libdaisy/src/per/adc.h ****     /** 
  40:../../libdaisy/src/per/adc.h ****     Initializes a single ADC pin as a Multiplexed ADC.
  41:../../libdaisy/src/per/adc.h ****     Requires a CD405X Multiplexer connected to the pin.
  42:../../libdaisy/src/per/adc.h ****     You only need to supply the mux pins that are required,
  43:../../libdaisy/src/per/adc.h ****     e.g. a 4052 mux would only require mux_0 and mux_1.
  44:../../libdaisy/src/per/adc.h ****     Internal Callbacks handle the pin addressing.
  45:../../libdaisy/src/per/adc.h ****     \param mux_channels must be 1-8
  46:../../libdaisy/src/per/adc.h ****     \param mux_0 First mux pin
  47:../../libdaisy/src/per/adc.h ****     \param mux_1 Second mux pin
  48:../../libdaisy/src/per/adc.h ****     \param mux_2 Third mux pin
  49:../../libdaisy/src/per/adc.h ****     \param adc_pin &
  50:../../libdaisy/src/per/adc.h ****     */
  51:../../libdaisy/src/per/adc.h ****     void InitMux(dsy_gpio_pin adc_pin,
  52:../../libdaisy/src/per/adc.h ****                  size_t       mux_channels,
  53:../../libdaisy/src/per/adc.h ****                  dsy_gpio_pin mux_0,
  54:../../libdaisy/src/per/adc.h ****                  dsy_gpio_pin mux_1 = {DSY_GPIOX, 0},
  55:../../libdaisy/src/per/adc.h ****                  dsy_gpio_pin mux_2 = {DSY_GPIOX, 0});
  56:../../libdaisy/src/per/adc.h **** 
  57:../../libdaisy/src/per/adc.h ****     dsy_gpio pin_;                   /**< & */
  58:../../libdaisy/src/per/adc.h ****     dsy_gpio mux_pin_[MUX_SEL_LAST]; /**< & */
  59:../../libdaisy/src/per/adc.h ****     uint8_t  mux_channels_;          /**< & */
  60:../../libdaisy/src/per/adc.h **** };
  61:../../libdaisy/src/per/adc.h **** 
  62:../../libdaisy/src/per/adc.h **** /**
  63:../../libdaisy/src/per/adc.h ****    Handler for analog to digital conversion
  64:../../libdaisy/src/per/adc.h **** */
  65:../../libdaisy/src/per/adc.h **** class AdcHandle
  66:../../libdaisy/src/per/adc.h **** {
  67:../../libdaisy/src/per/adc.h ****   public:
  68:../../libdaisy/src/per/adc.h ****     /** Supported oversampling amounts */
  69:../../libdaisy/src/per/adc.h ****     enum OverSampling
  70:../../libdaisy/src/per/adc.h ****     {
  71:../../libdaisy/src/per/adc.h ****         OVS_NONE, /**< & */
  72:../../libdaisy/src/per/adc.h ****         OVS_4,    /**< & */
  73:../../libdaisy/src/per/adc.h ****         OVS_8,    /**< & */
  74:../../libdaisy/src/per/adc.h ****         OVS_16,   /**< & */
  75:../../libdaisy/src/per/adc.h ****         OVS_32,   /**< & */
  76:../../libdaisy/src/per/adc.h ****         OVS_64,   /**< & */
  77:../../libdaisy/src/per/adc.h ****         OVS_128,  /**< & */
  78:../../libdaisy/src/per/adc.h ****         OVS_256,  /**< & */
  79:../../libdaisy/src/per/adc.h ****         OVS_512,  /**< & */
  80:../../libdaisy/src/per/adc.h ****         OVS_1024, /**< & */
  81:../../libdaisy/src/per/adc.h ****         OVS_LAST, /**< & */
  82:../../libdaisy/src/per/adc.h ****     };
  83:../../libdaisy/src/per/adc.h **** 
  84:../../libdaisy/src/per/adc.h ****     AdcHandle() {}
  85:../../libdaisy/src/per/adc.h ****     ~AdcHandle() {}
 100              		.loc 6 85 5 is_stmt 1 view .LVU9
 101              		.loc 6 85 5 is_stmt 0 view .LVU10
 102              	.LBE63:
ARM GAS  /tmp/ccHRAJ1M.s 			page 7


 103              	.LBB64:
 104              	.LBI64:
 105              		.file 7 "../../libdaisy/src/hid/audio.h"
   1:../../libdaisy/src/hid/audio.h **** #ifndef DSY_AUDIO_H
   2:../../libdaisy/src/hid/audio.h **** #define DSY_AUDIO_H /**< & */
   3:../../libdaisy/src/hid/audio.h **** 
   4:../../libdaisy/src/hid/audio.h **** #include "per/sai.h"
   5:../../libdaisy/src/hid/audio.h **** 
   6:../../libdaisy/src/hid/audio.h **** namespace daisy
   7:../../libdaisy/src/hid/audio.h **** {
   8:../../libdaisy/src/hid/audio.h **** class AudioHandle
   9:../../libdaisy/src/hid/audio.h **** {
  10:../../libdaisy/src/hid/audio.h ****   public:
  11:../../libdaisy/src/hid/audio.h ****     /** Manually configurable details about the Audio Engine */
  12:../../libdaisy/src/hid/audio.h ****     /** TODO: Figure out how to get samplerate in here. */
  13:../../libdaisy/src/hid/audio.h ****     struct Config
  14:../../libdaisy/src/hid/audio.h ****     {
  15:../../libdaisy/src/hid/audio.h ****         size_t                        blocksize;
  16:../../libdaisy/src/hid/audio.h ****         SaiHandle::Config::SampleRate samplerate;
  17:../../libdaisy/src/hid/audio.h ****         float                         postgain;
  18:../../libdaisy/src/hid/audio.h ****     };
  19:../../libdaisy/src/hid/audio.h **** 
  20:../../libdaisy/src/hid/audio.h ****     enum class Result
  21:../../libdaisy/src/hid/audio.h ****     {
  22:../../libdaisy/src/hid/audio.h ****         OK,
  23:../../libdaisy/src/hid/audio.h ****         ERR,
  24:../../libdaisy/src/hid/audio.h ****     };
  25:../../libdaisy/src/hid/audio.h **** 
  26:../../libdaisy/src/hid/audio.h ****     /** Non-Interleaving input buffer
  27:../../libdaisy/src/hid/audio.h ****      * Buffer arranged by float[chn][sample] 
  28:../../libdaisy/src/hid/audio.h ****      * const so that the user can't modify the input
  29:../../libdaisy/src/hid/audio.h ****     */
  30:../../libdaisy/src/hid/audio.h ****     typedef const float* const* InputBuffer;
  31:../../libdaisy/src/hid/audio.h **** 
  32:../../libdaisy/src/hid/audio.h ****     /** Non-Interleaving output buffer
  33:../../libdaisy/src/hid/audio.h ****      * Arranged by float[chn][sample] 
  34:../../libdaisy/src/hid/audio.h ****     */
  35:../../libdaisy/src/hid/audio.h ****     typedef float** OutputBuffer;
  36:../../libdaisy/src/hid/audio.h **** 
  37:../../libdaisy/src/hid/audio.h ****     /** Type for a Non-Interleaving audio callback 
  38:../../libdaisy/src/hid/audio.h ****    * Non-Interleaving audio callbacks in daisy will be of this type
  39:../../libdaisy/src/hid/audio.h ****   */
  40:../../libdaisy/src/hid/audio.h ****     typedef void (*AudioCallback)(InputBuffer  in,
  41:../../libdaisy/src/hid/audio.h ****                                   OutputBuffer out,
  42:../../libdaisy/src/hid/audio.h ****                                   size_t       size);
  43:../../libdaisy/src/hid/audio.h **** 
  44:../../libdaisy/src/hid/audio.h ****     /** Interleaving Input buffer
  45:../../libdaisy/src/hid/audio.h ****      ** audio is prepared as { L0, R0, L1, R1, . . . LN, RN }]
  46:../../libdaisy/src/hid/audio.h ****      ** this is const, as the user shouldn't modify it
  47:../../libdaisy/src/hid/audio.h ****     */
  48:../../libdaisy/src/hid/audio.h ****     typedef const float* InterleavingInputBuffer;
  49:../../libdaisy/src/hid/audio.h **** 
  50:../../libdaisy/src/hid/audio.h ****     /** Interleaving Output buffer 
  51:../../libdaisy/src/hid/audio.h ****      ** audio is prepared as { L0, R0, L1, R1, . . . LN, RN }
  52:../../libdaisy/src/hid/audio.h ****     */
  53:../../libdaisy/src/hid/audio.h ****     typedef float* InterleavingOutputBuffer;
  54:../../libdaisy/src/hid/audio.h **** 
ARM GAS  /tmp/ccHRAJ1M.s 			page 8


  55:../../libdaisy/src/hid/audio.h ****     /** Interleaving Audio Callback 
  56:../../libdaisy/src/hid/audio.h ****    * Interleaving audio callbacks in daisy must be of this type
  57:../../libdaisy/src/hid/audio.h ****   */
  58:../../libdaisy/src/hid/audio.h ****     typedef void (*InterleavingAudioCallback)(InterleavingInputBuffer  in,
  59:../../libdaisy/src/hid/audio.h ****                                               InterleavingOutputBuffer out,
  60:../../libdaisy/src/hid/audio.h ****                                               size_t                   size);
  61:../../libdaisy/src/hid/audio.h **** 
  62:../../libdaisy/src/hid/audio.h ****     AudioHandle() : pimpl_(nullptr) {}
  63:../../libdaisy/src/hid/audio.h ****     ~AudioHandle() {}
 106              		.loc 7 63 5 is_stmt 1 view .LVU11
 107              		.loc 7 63 5 is_stmt 0 view .LVU12
 108              	.LBE64:
 109              		.loc 3 22 19 view .LVU13
 110 0000 7047     		bx	lr
 111              		.cfi_endproc
 112              	.LFE4207:
 114              		.weak	_ZN5daisy9DaisySeedD1Ev
 115              		.thumb_set _ZN5daisy9DaisySeedD1Ev,_ZN5daisy9DaisySeedD2Ev
 116 0002 00BF     		.section	.text._ZL13AudioCallbackPKfPfj,"ax",%progbits
 117              		.align	1
 118              		.p2align 2,,3
 119              		.syntax unified
 120              		.thumb
 121              		.thumb_func
 122              		.fpu fpv5-d16
 124              	_ZL13AudioCallbackPKfPfj:
 125              	.LVL3:
 126              	.LFB4212:
 127              		.file 8 "drip.cpp"
   1:drip.cpp      **** #include "daisysp.h"
   2:drip.cpp      **** #include "daisy_seed.h"
   3:drip.cpp      **** 
   4:drip.cpp      **** // Shortening long macro for sample rate
   5:drip.cpp      **** #ifndef sample_rate
   6:drip.cpp      **** 
   7:drip.cpp      **** #endif
   8:drip.cpp      **** 
   9:drip.cpp      **** // Interleaved audio definitions
  10:drip.cpp      **** #define LEFT (i)
  11:drip.cpp      **** #define RIGHT (i + 1)
  12:drip.cpp      **** 
  13:drip.cpp      **** using namespace daisysp;
  14:drip.cpp      **** using namespace daisy;
  15:drip.cpp      **** 
  16:drip.cpp      **** static DaisySeed seed;
  17:drip.cpp      **** static Drip      drip;
  18:drip.cpp      **** static Metro     tick;
  19:drip.cpp      **** bool             gate;
  20:drip.cpp      **** 
  21:drip.cpp      **** static void AudioCallback(AudioHandle::InterleavingInputBuffer  in,
  22:drip.cpp      ****                           AudioHandle::InterleavingOutputBuffer out,
  23:drip.cpp      ****                           size_t                                size)
  24:drip.cpp      **** {
 128              		.loc 8 24 1 is_stmt 1 view -0
 129              		.cfi_startproc
 130              		@ args = 0, pretend = 0, frame = 0
 131              		@ frame_needed = 0, uses_anonymous_args = 0
ARM GAS  /tmp/ccHRAJ1M.s 			page 9


  25:drip.cpp      ****     float output;
 132              		.loc 8 25 5 view .LVU15
  26:drip.cpp      ****     bool  trig;
 133              		.loc 8 26 5 view .LVU16
  27:drip.cpp      ****     for(size_t i = 0; i < size; i += 2)
 134              		.loc 8 27 5 view .LVU17
 135              	.LBB65:
 136              		.loc 8 27 25 view .LVU18
 137 0000 CAB1     		cbz	r2, .L13
 138 0002 013A     		subs	r2, r2, #1
 139              	.LVL4:
 140              		.loc 8 27 25 is_stmt 0 view .LVU19
 141              	.LBE65:
  24:drip.cpp      ****     float output;
 142              		.loc 8 24 1 view .LVU20
 143 0004 70B5     		push	{r4, r5, r6, lr}
 144              		.cfi_def_cfa_offset 16
 145              		.cfi_offset 4, -16
 146              		.cfi_offset 5, -12
 147              		.cfi_offset 6, -8
 148              		.cfi_offset 14, -4
 149 0006 0C46     		mov	r4, r1
 150              	.LBB66:
 151              		.loc 8 27 16 view .LVU21
 152 0008 0025     		movs	r5, #0
 153 000a 22F00106 		bic	r6, r2, #1
 154              	.LVL5:
 155              	.L7:
  28:drip.cpp      ****     {
  29:drip.cpp      ****         // When the metro ticks, trigger the envelope to start.
  30:drip.cpp      ****         if(tick.Process())
 156              		.loc 8 30 9 is_stmt 1 view .LVU22
 157              		.loc 8 30 24 is_stmt 0 view .LVU23
 158 000e 0A48     		ldr	r0, .L16
 159 0010 0834     		adds	r4, r4, #8
 160 0012 FFF7FEFF 		bl	_ZN7daisysp5Metro7ProcessEv
 161              	.LVL6:
 162 0016 0146     		mov	r1, r0
 163              	.LVL7:
  31:drip.cpp      ****         {
  32:drip.cpp      ****             trig = true;
  33:drip.cpp      ****         }
  34:drip.cpp      ****         else
  35:drip.cpp      ****         {
  36:drip.cpp      ****             trig = false;
  37:drip.cpp      ****         }
  38:drip.cpp      **** 
  39:drip.cpp      ****         output = drip.Process(trig);
 164              		.loc 8 39 9 is_stmt 1 view .LVU24
 165              		.loc 8 39 30 is_stmt 0 view .LVU25
 166 0018 0848     		ldr	r0, .L16+4
 167 001a 0039     		subs	r1, r1, #0
 168              	.LVL8:
 169              		.loc 8 39 30 view .LVU26
 170 001c 18BF     		it	ne
 171 001e 0121     		movne	r1, #1
 172 0020 FFF7FEFF 		bl	_ZN7daisysp4Drip7ProcessEb
ARM GAS  /tmp/ccHRAJ1M.s 			page 10


 173              	.LVL9:
  40:drip.cpp      **** 
  41:drip.cpp      ****         out[LEFT]  = output;
 174              		.loc 8 41 9 is_stmt 1 view .LVU27
  27:drip.cpp      ****     {
 175              		.loc 8 27 25 is_stmt 0 view .LVU28
 176 0024 B542     		cmp	r5, r6
 177              		.loc 8 41 20 view .LVU29
 178 0026 04ED020A 		vstr.32	s0, [r4, #-8]
  42:drip.cpp      ****         out[RIGHT] = output;
 179              		.loc 8 42 9 is_stmt 1 view .LVU30
  27:drip.cpp      ****     {
 180              		.loc 8 27 25 is_stmt 0 view .LVU31
 181 002a 05F10205 		add	r5, r5, #2
 182              	.LVL10:
 183              		.loc 8 42 20 view .LVU32
 184 002e 04ED010A 		vstr.32	s0, [r4, #-4]
  27:drip.cpp      ****     {
 185              		.loc 8 27 5 is_stmt 1 view .LVU33
 186              	.LVL11:
  27:drip.cpp      ****     {
 187              		.loc 8 27 25 view .LVU34
 188 0032 ECD1     		bne	.L7
 189              	.LBE66:
  43:drip.cpp      ****     }
  44:drip.cpp      **** }
 190              		.loc 8 44 1 is_stmt 0 view .LVU35
 191 0034 70BD     		pop	{r4, r5, r6, pc}
 192              	.LVL12:
 193              	.L13:
 194              		.cfi_def_cfa_offset 0
 195              		.cfi_restore 4
 196              		.cfi_restore 5
 197              		.cfi_restore 6
 198              		.cfi_restore 14
 199              		.loc 8 44 1 view .LVU36
 200 0036 7047     		bx	lr
 201              	.L17:
 202              		.align	2
 203              	.L16:
 204 0038 00000000 		.word	.LANCHOR0
 205 003c 00000000 		.word	.LANCHOR1
 206              		.cfi_endproc
 207              	.LFE4212:
 209              		.section	.text.startup.main,"ax",%progbits
 210              		.align	1
 211              		.p2align 2,,3
 212              		.global	main
 213              		.syntax unified
 214              		.thumb
 215              		.thumb_func
 216              		.fpu fpv5-d16
 218              	main:
 219              	.LFB4213:
  45:drip.cpp      **** 
  46:drip.cpp      **** int main(void)
  47:drip.cpp      **** {
ARM GAS  /tmp/ccHRAJ1M.s 			page 11


 220              		.loc 8 47 1 is_stmt 1 view -0
 221              		.cfi_startproc
 222              		@ args = 0, pretend = 0, frame = 0
 223              		@ frame_needed = 0, uses_anonymous_args = 0
  48:drip.cpp      ****     // initialize seed hardware and daisysp modules
  49:drip.cpp      ****     float sample_rate;
 224              		.loc 8 49 5 view .LVU38
  50:drip.cpp      ****     seed.Configure();
 225              		.loc 8 50 5 view .LVU39
  47:drip.cpp      ****     // initialize seed hardware and daisysp modules
 226              		.loc 8 47 1 is_stmt 0 view .LVU40
 227 0000 08B5     		push	{r3, lr}
 228              		.cfi_def_cfa_offset 8
 229              		.cfi_offset 3, -8
 230              		.cfi_offset 14, -4
 231              		.loc 8 50 19 view .LVU41
 232 0002 1048     		ldr	r0, .L21
  47:drip.cpp      ****     // initialize seed hardware and daisysp modules
 233              		.loc 8 47 1 view .LVU42
 234 0004 2DED028B 		vpush.64	{d8}
 235              		.cfi_def_cfa_offset 16
 236              		.cfi_offset 80, -16
 237              		.cfi_offset 81, -12
 238              		.loc 8 50 19 view .LVU43
 239 0008 FFF7FEFF 		bl	_ZN5daisy9DaisySeed9ConfigureEv
 240              	.LVL13:
  51:drip.cpp      ****     seed.Init();
 241              		.loc 8 51 5 is_stmt 1 view .LVU44
 242              		.loc 8 51 14 is_stmt 0 view .LVU45
 243 000c 0021     		movs	r1, #0
 244 000e 0D48     		ldr	r0, .L21
 245 0010 FFF7FEFF 		bl	_ZN5daisy9DaisySeed4InitEb
 246              	.LVL14:
  52:drip.cpp      ****     sample_rate = seed.AudioSampleRate();
 247              		.loc 8 52 5 is_stmt 1 view .LVU46
 248              		.loc 8 52 39 is_stmt 0 view .LVU47
 249 0014 0B48     		ldr	r0, .L21
 250 0016 FFF7FEFF 		bl	_ZN5daisy9DaisySeed15AudioSampleRateEv
 251              	.LVL15:
 252 001a B0EE408A 		vmov.f32	s16, s0
  53:drip.cpp      **** 
  54:drip.cpp      ****     // Set up metro to pulse every second
  55:drip.cpp      ****     tick.Init(1.0f, sample_rate);
 253              		.loc 8 55 14 view .LVU48
 254 001e 0A48     		ldr	r0, .L21+4
 255 0020 B7EE000A 		vmov.f32	s0, #1.0e+0
 256              	.LVL16:
 257              		.loc 8 55 5 is_stmt 1 view .LVU49
 258              		.loc 8 55 14 is_stmt 0 view .LVU50
 259 0024 F0EE480A 		vmov.f32	s1, s16
 260 0028 FFF7FEFF 		bl	_ZN7daisysp5Metro4InitEff
 261              	.LVL17:
  56:drip.cpp      **** 
  57:drip.cpp      ****     drip.Init(sample_rate, .1);
 262              		.loc 8 57 5 is_stmt 1 view .LVU51
 263              		.loc 8 57 14 is_stmt 0 view .LVU52
 264 002c 0748     		ldr	r0, .L21+8
ARM GAS  /tmp/ccHRAJ1M.s 			page 12


 265 002e B0EE480A 		vmov.f32	s0, s16
 266 0032 DFED070A 		vldr.32	s1, .L21+12
 267 0036 FFF7FEFF 		bl	_ZN7daisysp4Drip4InitEff
 268              	.LVL18:
  58:drip.cpp      **** 
  59:drip.cpp      ****     // start callback
  60:drip.cpp      ****     seed.StartAudio(AudioCallback);
 269              		.loc 8 60 5 is_stmt 1 view .LVU53
 270              		.loc 8 60 20 is_stmt 0 view .LVU54
 271 003a 0649     		ldr	r1, .L21+16
 272 003c 0148     		ldr	r0, .L21
 273 003e FFF7FEFF 		bl	_ZN5daisy9DaisySeed10StartAudioEPFvPKfPfjE
 274              	.LVL19:
 275              	.L19:
  61:drip.cpp      **** 
  62:drip.cpp      ****     while(1) {}
 276              		.loc 8 62 5 is_stmt 1 discriminator 1 view .LVU55
 277              		.loc 8 62 5 discriminator 1 view .LVU56
 278              		.loc 8 62 5 discriminator 1 view .LVU57
 279              		.loc 8 62 5 discriminator 1 view .LVU58
 280 0042 FEE7     		b	.L19
 281              	.L22:
 282              		.align	2
 283              	.L21:
 284 0044 00000000 		.word	.LANCHOR2
 285 0048 00000000 		.word	.LANCHOR0
 286 004c 00000000 		.word	.LANCHOR1
 287 0050 CDCCCC3D 		.word	1036831949
 288 0054 00000000 		.word	_ZL13AudioCallbackPKfPfj
 289              		.cfi_endproc
 290              	.LFE4213:
 292              		.section	.text.startup._GLOBAL__sub_I_gate,"ax",%progbits
 293              		.align	1
 294              		.p2align 2,,3
 295              		.syntax unified
 296              		.thumb
 297              		.thumb_func
 298              		.fpu fpv5-d16
 300              	_GLOBAL__sub_I_gate:
 301              	.LFB4759:
  63:drip.cpp      **** }
 302              		.loc 8 63 1 view -0
 303              		.cfi_startproc
 304              		@ args = 0, pretend = 0, frame = 0
 305              		@ frame_needed = 0, uses_anonymous_args = 0
 306              	.LBB86:
 307              	.LBI86:
 308              		.loc 8 63 1 view .LVU60
 309              	.LVL20:
 310              	.LBB87:
 311              	.LBB88:
 312              	.LBI88:
  21:../../libdaisy/src/daisy_seed.h ****     ~DaisySeed() {}
 313              		.loc 3 21 5 view .LVU61
 314              	.LBB89:
 315              	.LBB90:
 316              	.LBI90:
ARM GAS  /tmp/ccHRAJ1M.s 			page 13


  62:../../libdaisy/src/hid/audio.h ****     ~AudioHandle() {}
 317              		.loc 7 62 5 view .LVU62
 318              	.LBE90:
 319              	.LBE89:
 320              	.LBE88:
 321              	.LBE87:
 322              	.LBE86:
 323              		.loc 8 63 1 is_stmt 0 view .LVU63
 324 0000 08B5     		push	{r3, lr}
 325              		.cfi_def_cfa_offset 8
 326              		.cfi_offset 3, -8
 327              		.cfi_offset 14, -4
 328              	.LBB111:
 329              	.LBB109:
 330              	.LBB105:
 331              	.LBB103:
 332              	.LBB95:
 333              	.LBB91:
 334              	.LBB92:
  62:../../libdaisy/src/hid/audio.h ****     ~AudioHandle() {}
 335              		.loc 7 62 35 view .LVU64
 336 0002 0A48     		ldr	r0, .L25
 337 0004 0023     		movs	r3, #0
 338              	.LBE92:
 339              	.LBE91:
 340              	.LBE95:
 341              	.LBE103:
 342              	.LBE105:
  16:drip.cpp      **** static Drip      drip;
 343              		.loc 8 16 18 view .LVU65
 344 0006 0A4A     		ldr	r2, .L25+4
 345              	.LBB106:
 346              	.LBB104:
 347              	.LBB96:
 348              	.LBB94:
 349              	.LBB93:
  62:../../libdaisy/src/hid/audio.h ****     ~AudioHandle() {}
 350              		.loc 7 62 35 view .LVU66
 351 0008 4361     		str	r3, [r0, #20]
 352              	.LVL21:
  62:../../libdaisy/src/hid/audio.h ****     ~AudioHandle() {}
 353              		.loc 7 62 35 view .LVU67
 354              	.LBE93:
 355              	.LBE94:
 356              	.LBE96:
 357              	.LBB97:
 358              	.LBI97:
  84:../../libdaisy/src/per/adc.h ****     ~AdcHandle() {}
 359              		.loc 6 84 5 is_stmt 1 view .LVU68
  84:../../libdaisy/src/per/adc.h ****     ~AdcHandle() {}
 360              		.loc 6 84 5 is_stmt 0 view .LVU69
 361              	.LBE97:
 362              	.LBB98:
 363              	.LBI98:
 364              		.file 9 "../../libdaisy/src/per/dac.h"
   1:../../libdaisy/src/per/dac.h **** #pragma once
   2:../../libdaisy/src/per/dac.h **** #ifndef DSY_DAC_H
ARM GAS  /tmp/ccHRAJ1M.s 			page 14


   3:../../libdaisy/src/per/dac.h **** #define DSY_DAC_H
   4:../../libdaisy/src/per/dac.h **** 
   5:../../libdaisy/src/per/dac.h **** #include "daisy_core.h"
   6:../../libdaisy/src/per/dac.h **** 
   7:../../libdaisy/src/per/dac.h **** namespace daisy
   8:../../libdaisy/src/per/dac.h **** {
   9:../../libdaisy/src/per/dac.h **** /** DAC handle for Built-in DAC Peripheral 
  10:../../libdaisy/src/per/dac.h ****  ** 
  11:../../libdaisy/src/per/dac.h ****  ** For now only Normal Mode is supported,
  12:../../libdaisy/src/per/dac.h ****  ** Sample and hold mode provides reduced power consumption, but requires a bit more setup.
  13:../../libdaisy/src/per/dac.h ****  **
  14:../../libdaisy/src/per/dac.h ****  ** For now connecting the DAC through other internal periphearls is also not supported.
  15:../../libdaisy/src/per/dac.h ****  **
  16:../../libdaisy/src/per/dac.h ****  ** Since the DAC channels have dedicated pins we don't need to pass in a pin config like with
  17:../../libdaisy/src/per/dac.h ****  ** other modules. However, it is still important to not try to use the DAC pins for anything else.
  18:../../libdaisy/src/per/dac.h ****  ** DAC Channel 1 is on PA4, and DAC Channel 2 is on PA5
  19:../../libdaisy/src/per/dac.h ****  ***/
  20:../../libdaisy/src/per/dac.h **** class DacHandle
  21:../../libdaisy/src/per/dac.h **** {
  22:../../libdaisy/src/per/dac.h ****   public:
  23:../../libdaisy/src/per/dac.h ****     /** Return Values for the DacHandle class */
  24:../../libdaisy/src/per/dac.h ****     enum class Result
  25:../../libdaisy/src/per/dac.h ****     {
  26:../../libdaisy/src/per/dac.h ****         OK,
  27:../../libdaisy/src/per/dac.h ****         ERR,
  28:../../libdaisy/src/per/dac.h ****     };
  29:../../libdaisy/src/per/dac.h **** 
  30:../../libdaisy/src/per/dac.h ****     /** Selects which channel(s) will be configured for use. */
  31:../../libdaisy/src/per/dac.h ****     enum class Channel
  32:../../libdaisy/src/per/dac.h ****     {
  33:../../libdaisy/src/per/dac.h ****         ONE,
  34:../../libdaisy/src/per/dac.h ****         TWO,
  35:../../libdaisy/src/per/dac.h ****         BOTH,
  36:../../libdaisy/src/per/dac.h ****     };
  37:../../libdaisy/src/per/dac.h **** 
  38:../../libdaisy/src/per/dac.h ****     /** Sets the Mode for the DAC channels.
  39:../../libdaisy/src/per/dac.h ****      **
  40:../../libdaisy/src/per/dac.h ****      ** Polling mode uses the blocking mode to transmit a single value at a time.
  41:../../libdaisy/src/per/dac.h ****      **
  42:../../libdaisy/src/per/dac.h ****      ** DMA mode uses a buffer, and periodically transmits it triggering a 
  43:../../libdaisy/src/per/dac.h ****      ** callback to fill the buffer when it is ready for more samples.
  44:../../libdaisy/src/per/dac.h ****      ***/
  45:../../libdaisy/src/per/dac.h ****     enum class Mode
  46:../../libdaisy/src/per/dac.h ****     {
  47:../../libdaisy/src/per/dac.h ****         POLLING,
  48:../../libdaisy/src/per/dac.h ****         DMA,
  49:../../libdaisy/src/per/dac.h ****     };
  50:../../libdaisy/src/per/dac.h **** 
  51:../../libdaisy/src/per/dac.h ****     /** Sets the number of bits per sample transmitted out of the DAC.
  52:../../libdaisy/src/per/dac.h ****      ** The output range will be: 0V - VDDA
  53:../../libdaisy/src/per/dac.h ****      ** The resolution will be roughly: bitdepth / (VDDA - 0V) 
  54:../../libdaisy/src/per/dac.h ****      ***/
  55:../../libdaisy/src/per/dac.h ****     enum class BitDepth
  56:../../libdaisy/src/per/dac.h ****     {
  57:../../libdaisy/src/per/dac.h ****         BITS_8,
  58:../../libdaisy/src/per/dac.h ****         BITS_12
  59:../../libdaisy/src/per/dac.h ****     };
ARM GAS  /tmp/ccHRAJ1M.s 			page 15


  60:../../libdaisy/src/per/dac.h **** 
  61:../../libdaisy/src/per/dac.h ****     /** Sets whether the DAC output is buffered for higher drive ability. */
  62:../../libdaisy/src/per/dac.h ****     enum class BufferState
  63:../../libdaisy/src/per/dac.h ****     {
  64:../../libdaisy/src/per/dac.h ****         ENABLED,
  65:../../libdaisy/src/per/dac.h ****         DISABLED,
  66:../../libdaisy/src/per/dac.h ****     };
  67:../../libdaisy/src/per/dac.h **** 
  68:../../libdaisy/src/per/dac.h ****     /** Configuration structure for initializing the DAC structure. */
  69:../../libdaisy/src/per/dac.h ****     struct Config
  70:../../libdaisy/src/per/dac.h ****     {
  71:../../libdaisy/src/per/dac.h ****         /** Target Samplerate in Hz used to configure the internal 
  72:../../libdaisy/src/per/dac.h ****          ** timebase for DMA mode. Does nothing in POLLING mode.
  73:../../libdaisy/src/per/dac.h ****          ** If the value is 0 at Init time this will default to 48000Hz 
  74:../../libdaisy/src/per/dac.h ****          ** otherwise the driver will attempt meet the target.*/
  75:../../libdaisy/src/per/dac.h ****         uint32_t target_samplerate;
  76:../../libdaisy/src/per/dac.h **** 
  77:../../libdaisy/src/per/dac.h ****         Channel     chn;
  78:../../libdaisy/src/per/dac.h ****         Mode        mode;
  79:../../libdaisy/src/per/dac.h ****         BitDepth    bitdepth;
  80:../../libdaisy/src/per/dac.h ****         BufferState buff_state;
  81:../../libdaisy/src/per/dac.h ****     };
  82:../../libdaisy/src/per/dac.h **** 
  83:../../libdaisy/src/per/dac.h ****     DacHandle() : pimpl_(nullptr) {}
 365              		.loc 9 83 5 is_stmt 1 view .LVU70
 366              	.LBB99:
 367              	.LBB100:
 368              		.loc 9 83 33 is_stmt 0 view .LVU71
 369 000a 0362     		str	r3, [r0, #32]
 370              	.LVL22:
 371              		.loc 9 83 33 view .LVU72
 372              	.LBE100:
 373              	.LBE99:
 374              	.LBE98:
 375              	.LBB101:
 376              	.LBI101:
  40:../../libdaisy/src/hid/usb.h **** 
 377              		.loc 5 40 5 is_stmt 1 view .LVU73
  40:../../libdaisy/src/hid/usb.h **** 
 378              		.loc 5 40 5 is_stmt 0 view .LVU74
 379              	.LBE101:
 380              	.LBB102:
 381              	.LBI102:
  58:../../libdaisy/src/sys/system.h ****     ~System() {}
 382              		.loc 4 58 5 is_stmt 1 view .LVU75
  58:../../libdaisy/src/sys/system.h ****     ~System() {}
 383              		.loc 4 58 5 is_stmt 0 view .LVU76
 384              	.LBE102:
 385              	.LBE104:
 386              	.LBE106:
  16:drip.cpp      **** static Drip      drip;
 387              		.loc 8 16 18 view .LVU77
 388 000c 0949     		ldr	r1, .L25+8
 389 000e FFF7FEFF 		bl	__aeabi_atexit
 390              	.LVL23:
 391              	.LBB107:
 392              	.LBI107:
ARM GAS  /tmp/ccHRAJ1M.s 			page 16


  21:../../DaisySP/Source/PhysicalModeling/drip.h ****     ~Drip() {}
 393              		.loc 1 21 5 is_stmt 1 view .LVU78
  21:../../DaisySP/Source/PhysicalModeling/drip.h ****     ~Drip() {}
 394              		.loc 1 21 5 is_stmt 0 view .LVU79
 395              	.LBE107:
  17:drip.cpp      **** static Metro     tick;
 396              		.loc 8 17 18 view .LVU80
 397 0012 074A     		ldr	r2, .L25+4
 398 0014 0849     		ldr	r1, .L25+12
 399 0016 0948     		ldr	r0, .L25+16
 400 0018 FFF7FEFF 		bl	__aeabi_atexit
 401              	.LVL24:
 402              	.LBB108:
 403              	.LBI108:
  14:../../DaisySP/Source/Utility/metro.h ****     ~Metro() {}
 404              		.loc 2 14 5 is_stmt 1 view .LVU81
  14:../../DaisySP/Source/Utility/metro.h ****     ~Metro() {}
 405              		.loc 2 14 5 is_stmt 0 view .LVU82
 406              	.LBE108:
  18:drip.cpp      **** bool             gate;
 407              		.loc 8 18 18 view .LVU83
 408 001c 044A     		ldr	r2, .L25+4
 409 001e 0849     		ldr	r1, .L25+20
 410 0020 0848     		ldr	r0, .L25+24
 411              	.LBE109:
 412              	.LBE111:
 413              		.loc 8 63 1 view .LVU84
 414 0022 BDE80840 		pop	{r3, lr}
 415              		.cfi_restore 14
 416              		.cfi_restore 3
 417              		.cfi_def_cfa_offset 0
 418              	.LBB112:
 419              	.LBB110:
  18:drip.cpp      **** bool             gate;
 420              		.loc 8 18 18 view .LVU85
 421 0026 FFF7FEBF 		b	__aeabi_atexit
 422              	.LVL25:
 423              	.L26:
 424 002a 00BF     		.align	2
 425              	.L25:
 426 002c 00000000 		.word	.LANCHOR2
 427 0030 00000000 		.word	__dso_handle
 428 0034 00000000 		.word	_ZN5daisy9DaisySeedD1Ev
 429 0038 00000000 		.word	_ZN7daisysp4DripD1Ev
 430 003c 00000000 		.word	.LANCHOR1
 431 0040 00000000 		.word	_ZN7daisysp5MetroD1Ev
 432 0044 00000000 		.word	.LANCHOR0
 433              	.LBE110:
 434              	.LBE112:
 435              		.cfi_endproc
 436              	.LFE4759:
 438              		.section	.init_array,"aw",%init_array
 439              		.align	2
 440 0000 00000000 		.word	_GLOBAL__sub_I_gate(target1)
 441              		.global	gate
 442              		.section	.bss._ZL4drip,"aw",%nobits
 443              		.align	2
ARM GAS  /tmp/ccHRAJ1M.s 			page 17


 444              		.set	.LANCHOR1,. + 0
 447              	_ZL4drip:
 448 0000 00000000 		.space	180
 448      00000000 
 448      00000000 
 448      00000000 
 448      00000000 
 449              		.section	.bss._ZL4seed,"aw",%nobits
 450              		.align	2
 451              		.set	.LANCHOR2,. + 0
 454              	_ZL4seed:
 455 0000 00000000 		.space	60
 455      00000000 
 455      00000000 
 455      00000000 
 455      00000000 
 456              		.section	.bss._ZL4tick,"aw",%nobits
 457              		.align	2
 458              		.set	.LANCHOR0,. + 0
 461              	_ZL4tick:
 462 0000 00000000 		.space	16
 462      00000000 
 462      00000000 
 462      00000000 
 463              		.section	.bss.gate,"aw",%nobits
 466              	gate:
 467 0000 00       		.space	1
 468              		.text
 469              	.Letext0:
 470              		.file 10 "/usr/lib/gcc/arm-none-eabi/9.2.1/include/stdint.h"
 471              		.file 11 "../../libdaisy/Drivers/CMSIS/Include/core_cm7.h"
 472              		.file 12 "../../libdaisy/Drivers/CMSIS/Device/ST/STM32H7xx/Include/system_stm32h7xx.h"
 473              		.file 13 "/usr/lib/gcc/arm-none-eabi/9.2.1/include/stddef.h"
 474              		.file 14 "/usr/include/newlib/c++/9.2.1/cmath"
 475              		.file 15 "/usr/include/newlib/c++/9.2.1/bits/std_abs.h"
 476              		.file 16 "/usr/include/newlib/c++/9.2.1/cstdint"
 477              		.file 17 "/usr/include/newlib/c++/9.2.1/cstdlib"
 478              		.file 18 "/usr/include/newlib/c++/9.2.1/type_traits"
 479              		.file 19 "/usr/include/newlib/c++/9.2.1/arm-none-eabi/thumb/v7e-m+dp/hard/bits/c++config.h"
 480              		.file 20 "/usr/include/newlib/c++/9.2.1/bits/stl_pair.h"
 481              		.file 21 "/usr/include/newlib/c++/9.2.1/debug/debug.h"
 482              		.file 22 "/usr/include/newlib/c++/9.2.1/cwchar"
 483              		.file 23 "/usr/include/newlib/c++/9.2.1/bits/exception_ptr.h"
 484              		.file 24 "/usr/include/newlib/c++/9.2.1/new"
 485              		.file 25 "/usr/include/newlib/c++/9.2.1/clocale"
 486              		.file 26 "/usr/include/newlib/c++/9.2.1/cstdio"
 487              		.file 27 "/usr/include/newlib/c++/9.2.1/bits/basic_string.h"
 488              		.file 28 "/usr/include/newlib/c++/9.2.1/bits/uniform_int_dist.h"
 489              		.file 29 "/usr/include/newlib/c++/9.2.1/bits/random.h"
 490              		.file 30 "/usr/include/newlib/c++/9.2.1/cstring"
 491              		.file 31 "/usr/include/newlib/c++/9.2.1/bits/algorithmfwd.h"
 492              		.file 32 "/usr/include/newlib/c++/9.2.1/cstdarg"
 493              		.file 33 "/usr/include/newlib/c++/9.2.1/bits/predefined_ops.h"
 494              		.file 34 "/usr/include/newlib/c++/9.2.1/ext/new_allocator.h"
 495              		.file 35 "/usr/include/newlib/c++/9.2.1/ext/numeric_traits.h"
 496              		.file 36 "/usr/include/newlib/sys/_types.h"
 497              		.file 37 "<built-in>"
ARM GAS  /tmp/ccHRAJ1M.s 			page 18


 498              		.file 38 "/usr/include/newlib/sys/reent.h"
 499              		.file 39 "/usr/include/newlib/sys/lock.h"
 500              		.file 40 "/usr/include/newlib/math.h"
 501              		.file 41 "/usr/include/newlib/stdlib.h"
 502              		.file 42 "/usr/include/newlib/c++/9.2.1/math.h"
 503              		.file 43 "../../libdaisy/Drivers/STM32H7xx_HAL_Driver/Inc/stm32h7xx_hal_def.h"
 504              		.file 44 "../../libdaisy/Drivers/STM32H7xx_HAL_Driver/Inc/stm32h7xx_hal_flash.h"
 505              		.file 45 "../../DaisySP/Source/Control/adenv.h"
 506              		.file 46 "../../DaisySP/Source/Utility/dsp.h"
 507              		.file 47 "/usr/lib/gcc/arm-none-eabi/9.2.1/include/stdarg.h"
 508              		.file 48 "/usr/include/newlib/wchar.h"
 509              		.file 49 "/usr/include/newlib/locale.h"
 510              		.file 50 "/usr/include/newlib/ctype.h"
 511              		.file 51 "/usr/include/newlib/stdio.h"
 512              		.file 52 "/usr/include/newlib/sys/errno.h"
 513              		.file 53 "/usr/include/newlib/c++/9.2.1/stdlib.h"
 514              		.file 54 "/usr/include/newlib/string.h"
 515              		.file 55 "../../libdaisy/src/daisy_core.h"
 516              		.file 56 "../../libdaisy/src/per/tim.h"
 517              		.file 57 "../../libdaisy/src/per/sai.h"
 518              		.file 58 "../../libdaisy/src/util/wav_format.h"
 519              		.file 59 "../../libdaisy/src/per/qspi.h"
 520              		.file 60 "../../libdaisy/src/per/gpio.h"
 521              		.file 61 "../../libdaisy/src/dev/sdram.h"
 522              		.file 62 "/usr/include/newlib/sys/unistd.h"
 523              		.file 63 "../../libdaisy/src/util/oled_fonts.h"
 524              		.file 64 "../../libdaisy/Middlewares/Third_Party/FatFs/src/integer.h"
 525              		.file 65 "../../libdaisy/Middlewares/Third_Party/FatFs/src/ff.h"
 526              		.file 66 "../../libdaisy/Middlewares/Third_Party/FatFs/src/diskio.h"
 527              		.file 67 "../../libdaisy/Middlewares/Third_Party/FatFs/src/ff_gen_drv.h"
 528              		.file 68 "../../libdaisy/src/util/sd_diskio.h"
 529              		.file 69 "../../libdaisy/src/sys/fatfs.h"
 530              		.file 70 "../../libdaisy/src/dev/sr_595.h"
ARM GAS  /tmp/ccHRAJ1M.s 			page 19

