ARM GAS  /tmp/cco4jRmF.s 			page 1


   1              		.cpu cortex-m7
   2              		.eabi_attribute 28, 1
   3              		.eabi_attribute 20, 1
   4              		.eabi_attribute 21, 1
   5              		.eabi_attribute 23, 3
   6              		.eabi_attribute 24, 1
   7              		.eabi_attribute 25, 1
   8              		.eabi_attribute 26, 1
   9              		.eabi_attribute 30, 2
  10              		.eabi_attribute 34, 1
  11              		.eabi_attribute 18, 4
  12              		.file	"chord.cpp"
  13              		.text
  14              	.Ltext0:
  15              		.cfi_sections	.debug_frame
  16              		.section	.text._ZNSt6vectorINSt7__cxx1112basic_stringIcSt11char_traitsIcESaIcEEESaIS5_EED2Ev,"axG"
  17              		.align	1
  18              		.p2align 2,,3
  19              		.weak	_ZNSt6vectorINSt7__cxx1112basic_stringIcSt11char_traitsIcESaIcEEESaIS5_EED2Ev
  20              		.arch armv7e-m
  21              		.syntax unified
  22              		.thumb
  23              		.thumb_func
  24              		.fpu fpv5-d16
  26              	_ZNSt6vectorINSt7__cxx1112basic_stringIcSt11char_traitsIcESaIcEEESaIS5_EED2Ev:
  27              	.LVL0:
  28              	.LFB3999:
  29              		.file 1 "/usr/include/newlib/c++/9.2.1/bits/stl_vector.h"
   1:/usr/include/newlib/c++/9.2.1/bits/stl_vector.h **** // Vector implementation -*- C++ -*-
   2:/usr/include/newlib/c++/9.2.1/bits/stl_vector.h **** 
   3:/usr/include/newlib/c++/9.2.1/bits/stl_vector.h **** // Copyright (C) 2001-2019 Free Software Foundation, Inc.
   4:/usr/include/newlib/c++/9.2.1/bits/stl_vector.h **** //
   5:/usr/include/newlib/c++/9.2.1/bits/stl_vector.h **** // This file is part of the GNU ISO C++ Library.  This library is free
   6:/usr/include/newlib/c++/9.2.1/bits/stl_vector.h **** // software; you can redistribute it and/or modify it under the
   7:/usr/include/newlib/c++/9.2.1/bits/stl_vector.h **** // terms of the GNU General Public License as published by the
   8:/usr/include/newlib/c++/9.2.1/bits/stl_vector.h **** // Free Software Foundation; either version 3, or (at your option)
   9:/usr/include/newlib/c++/9.2.1/bits/stl_vector.h **** // any later version.
  10:/usr/include/newlib/c++/9.2.1/bits/stl_vector.h **** 
  11:/usr/include/newlib/c++/9.2.1/bits/stl_vector.h **** // This library is distributed in the hope that it will be useful,
  12:/usr/include/newlib/c++/9.2.1/bits/stl_vector.h **** // but WITHOUT ANY WARRANTY; without even the implied warranty of
  13:/usr/include/newlib/c++/9.2.1/bits/stl_vector.h **** // MERCHANTABILITY or FITNESS FOR A PARTICULAR PURPOSE.  See the
  14:/usr/include/newlib/c++/9.2.1/bits/stl_vector.h **** // GNU General Public License for more details.
  15:/usr/include/newlib/c++/9.2.1/bits/stl_vector.h **** 
  16:/usr/include/newlib/c++/9.2.1/bits/stl_vector.h **** // Under Section 7 of GPL version 3, you are granted additional
  17:/usr/include/newlib/c++/9.2.1/bits/stl_vector.h **** // permissions described in the GCC Runtime Library Exception, version
  18:/usr/include/newlib/c++/9.2.1/bits/stl_vector.h **** // 3.1, as published by the Free Software Foundation.
  19:/usr/include/newlib/c++/9.2.1/bits/stl_vector.h **** 
  20:/usr/include/newlib/c++/9.2.1/bits/stl_vector.h **** // You should have received a copy of the GNU General Public License and
  21:/usr/include/newlib/c++/9.2.1/bits/stl_vector.h **** // a copy of the GCC Runtime Library Exception along with this program;
  22:/usr/include/newlib/c++/9.2.1/bits/stl_vector.h **** // see the files COPYING3 and COPYING.RUNTIME respectively.  If not, see
  23:/usr/include/newlib/c++/9.2.1/bits/stl_vector.h **** // <http://www.gnu.org/licenses/>.
  24:/usr/include/newlib/c++/9.2.1/bits/stl_vector.h **** 
  25:/usr/include/newlib/c++/9.2.1/bits/stl_vector.h **** /*
  26:/usr/include/newlib/c++/9.2.1/bits/stl_vector.h ****  *
  27:/usr/include/newlib/c++/9.2.1/bits/stl_vector.h ****  * Copyright (c) 1994
  28:/usr/include/newlib/c++/9.2.1/bits/stl_vector.h ****  * Hewlett-Packard Company
  29:/usr/include/newlib/c++/9.2.1/bits/stl_vector.h ****  *
ARM GAS  /tmp/cco4jRmF.s 			page 2


  30:/usr/include/newlib/c++/9.2.1/bits/stl_vector.h ****  * Permission to use, copy, modify, distribute and sell this software
  31:/usr/include/newlib/c++/9.2.1/bits/stl_vector.h ****  * and its documentation for any purpose is hereby granted without fee,
  32:/usr/include/newlib/c++/9.2.1/bits/stl_vector.h ****  * provided that the above copyright notice appear in all copies and
  33:/usr/include/newlib/c++/9.2.1/bits/stl_vector.h ****  * that both that copyright notice and this permission notice appear
  34:/usr/include/newlib/c++/9.2.1/bits/stl_vector.h ****  * in supporting documentation.  Hewlett-Packard Company makes no
  35:/usr/include/newlib/c++/9.2.1/bits/stl_vector.h ****  * representations about the suitability of this software for any
  36:/usr/include/newlib/c++/9.2.1/bits/stl_vector.h ****  * purpose.  It is provided "as is" without express or implied warranty.
  37:/usr/include/newlib/c++/9.2.1/bits/stl_vector.h ****  *
  38:/usr/include/newlib/c++/9.2.1/bits/stl_vector.h ****  *
  39:/usr/include/newlib/c++/9.2.1/bits/stl_vector.h ****  * Copyright (c) 1996
  40:/usr/include/newlib/c++/9.2.1/bits/stl_vector.h ****  * Silicon Graphics Computer Systems, Inc.
  41:/usr/include/newlib/c++/9.2.1/bits/stl_vector.h ****  *
  42:/usr/include/newlib/c++/9.2.1/bits/stl_vector.h ****  * Permission to use, copy, modify, distribute and sell this software
  43:/usr/include/newlib/c++/9.2.1/bits/stl_vector.h ****  * and its documentation for any purpose is hereby granted without fee,
  44:/usr/include/newlib/c++/9.2.1/bits/stl_vector.h ****  * provided that the above copyright notice appear in all copies and
  45:/usr/include/newlib/c++/9.2.1/bits/stl_vector.h ****  * that both that copyright notice and this permission notice appear
  46:/usr/include/newlib/c++/9.2.1/bits/stl_vector.h ****  * in supporting documentation.  Silicon Graphics makes no
  47:/usr/include/newlib/c++/9.2.1/bits/stl_vector.h ****  * representations about the suitability of this  software for any
  48:/usr/include/newlib/c++/9.2.1/bits/stl_vector.h ****  * purpose.  It is provided "as is" without express or implied warranty.
  49:/usr/include/newlib/c++/9.2.1/bits/stl_vector.h ****  */
  50:/usr/include/newlib/c++/9.2.1/bits/stl_vector.h **** 
  51:/usr/include/newlib/c++/9.2.1/bits/stl_vector.h **** /** @file bits/stl_vector.h
  52:/usr/include/newlib/c++/9.2.1/bits/stl_vector.h ****  *  This is an internal header file, included by other library headers.
  53:/usr/include/newlib/c++/9.2.1/bits/stl_vector.h ****  *  Do not attempt to use it directly. @headername{vector}
  54:/usr/include/newlib/c++/9.2.1/bits/stl_vector.h ****  */
  55:/usr/include/newlib/c++/9.2.1/bits/stl_vector.h **** 
  56:/usr/include/newlib/c++/9.2.1/bits/stl_vector.h **** #ifndef _STL_VECTOR_H
  57:/usr/include/newlib/c++/9.2.1/bits/stl_vector.h **** #define _STL_VECTOR_H 1
  58:/usr/include/newlib/c++/9.2.1/bits/stl_vector.h **** 
  59:/usr/include/newlib/c++/9.2.1/bits/stl_vector.h **** #include <bits/stl_iterator_base_funcs.h>
  60:/usr/include/newlib/c++/9.2.1/bits/stl_vector.h **** #include <bits/functexcept.h>
  61:/usr/include/newlib/c++/9.2.1/bits/stl_vector.h **** #include <bits/concept_check.h>
  62:/usr/include/newlib/c++/9.2.1/bits/stl_vector.h **** #if __cplusplus >= 201103L
  63:/usr/include/newlib/c++/9.2.1/bits/stl_vector.h **** #include <initializer_list>
  64:/usr/include/newlib/c++/9.2.1/bits/stl_vector.h **** #endif
  65:/usr/include/newlib/c++/9.2.1/bits/stl_vector.h **** 
  66:/usr/include/newlib/c++/9.2.1/bits/stl_vector.h **** #include <debug/assertions.h>
  67:/usr/include/newlib/c++/9.2.1/bits/stl_vector.h **** 
  68:/usr/include/newlib/c++/9.2.1/bits/stl_vector.h **** #if _GLIBCXX_SANITIZE_STD_ALLOCATOR && _GLIBCXX_SANITIZE_VECTOR
  69:/usr/include/newlib/c++/9.2.1/bits/stl_vector.h **** extern "C" void
  70:/usr/include/newlib/c++/9.2.1/bits/stl_vector.h **** __sanitizer_annotate_contiguous_container(const void*, const void*,
  71:/usr/include/newlib/c++/9.2.1/bits/stl_vector.h **** 					  const void*, const void*);
  72:/usr/include/newlib/c++/9.2.1/bits/stl_vector.h **** #endif
  73:/usr/include/newlib/c++/9.2.1/bits/stl_vector.h **** 
  74:/usr/include/newlib/c++/9.2.1/bits/stl_vector.h **** namespace std _GLIBCXX_VISIBILITY(default)
  75:/usr/include/newlib/c++/9.2.1/bits/stl_vector.h **** {
  76:/usr/include/newlib/c++/9.2.1/bits/stl_vector.h **** _GLIBCXX_BEGIN_NAMESPACE_VERSION
  77:/usr/include/newlib/c++/9.2.1/bits/stl_vector.h **** _GLIBCXX_BEGIN_NAMESPACE_CONTAINER
  78:/usr/include/newlib/c++/9.2.1/bits/stl_vector.h **** 
  79:/usr/include/newlib/c++/9.2.1/bits/stl_vector.h ****   /// See bits/stl_deque.h's _Deque_base for an explanation.
  80:/usr/include/newlib/c++/9.2.1/bits/stl_vector.h ****   template<typename _Tp, typename _Alloc>
  81:/usr/include/newlib/c++/9.2.1/bits/stl_vector.h ****     struct _Vector_base
  82:/usr/include/newlib/c++/9.2.1/bits/stl_vector.h ****     {
  83:/usr/include/newlib/c++/9.2.1/bits/stl_vector.h ****       typedef typename __gnu_cxx::__alloc_traits<_Alloc>::template
  84:/usr/include/newlib/c++/9.2.1/bits/stl_vector.h **** 	rebind<_Tp>::other _Tp_alloc_type;
  85:/usr/include/newlib/c++/9.2.1/bits/stl_vector.h ****       typedef typename __gnu_cxx::__alloc_traits<_Tp_alloc_type>::pointer
  86:/usr/include/newlib/c++/9.2.1/bits/stl_vector.h ****        	pointer;
ARM GAS  /tmp/cco4jRmF.s 			page 3


  87:/usr/include/newlib/c++/9.2.1/bits/stl_vector.h **** 
  88:/usr/include/newlib/c++/9.2.1/bits/stl_vector.h ****       struct _Vector_impl_data
  89:/usr/include/newlib/c++/9.2.1/bits/stl_vector.h ****       {
  90:/usr/include/newlib/c++/9.2.1/bits/stl_vector.h **** 	pointer _M_start;
  91:/usr/include/newlib/c++/9.2.1/bits/stl_vector.h **** 	pointer _M_finish;
  92:/usr/include/newlib/c++/9.2.1/bits/stl_vector.h **** 	pointer _M_end_of_storage;
  93:/usr/include/newlib/c++/9.2.1/bits/stl_vector.h **** 
  94:/usr/include/newlib/c++/9.2.1/bits/stl_vector.h **** 	_Vector_impl_data() _GLIBCXX_NOEXCEPT
  95:/usr/include/newlib/c++/9.2.1/bits/stl_vector.h **** 	: _M_start(), _M_finish(), _M_end_of_storage()
  96:/usr/include/newlib/c++/9.2.1/bits/stl_vector.h **** 	{ }
  97:/usr/include/newlib/c++/9.2.1/bits/stl_vector.h **** 
  98:/usr/include/newlib/c++/9.2.1/bits/stl_vector.h **** #if __cplusplus >= 201103L
  99:/usr/include/newlib/c++/9.2.1/bits/stl_vector.h **** 	_Vector_impl_data(_Vector_impl_data&& __x) noexcept
 100:/usr/include/newlib/c++/9.2.1/bits/stl_vector.h **** 	: _M_start(__x._M_start), _M_finish(__x._M_finish),
 101:/usr/include/newlib/c++/9.2.1/bits/stl_vector.h **** 	  _M_end_of_storage(__x._M_end_of_storage)
 102:/usr/include/newlib/c++/9.2.1/bits/stl_vector.h **** 	{ __x._M_start = __x._M_finish = __x._M_end_of_storage = pointer(); }
 103:/usr/include/newlib/c++/9.2.1/bits/stl_vector.h **** #endif
 104:/usr/include/newlib/c++/9.2.1/bits/stl_vector.h **** 
 105:/usr/include/newlib/c++/9.2.1/bits/stl_vector.h **** 	void
 106:/usr/include/newlib/c++/9.2.1/bits/stl_vector.h **** 	_M_copy_data(_Vector_impl_data const& __x) _GLIBCXX_NOEXCEPT
 107:/usr/include/newlib/c++/9.2.1/bits/stl_vector.h **** 	{
 108:/usr/include/newlib/c++/9.2.1/bits/stl_vector.h **** 	  _M_start = __x._M_start;
 109:/usr/include/newlib/c++/9.2.1/bits/stl_vector.h **** 	  _M_finish = __x._M_finish;
 110:/usr/include/newlib/c++/9.2.1/bits/stl_vector.h **** 	  _M_end_of_storage = __x._M_end_of_storage;
 111:/usr/include/newlib/c++/9.2.1/bits/stl_vector.h **** 	}
 112:/usr/include/newlib/c++/9.2.1/bits/stl_vector.h **** 
 113:/usr/include/newlib/c++/9.2.1/bits/stl_vector.h **** 	void
 114:/usr/include/newlib/c++/9.2.1/bits/stl_vector.h **** 	_M_swap_data(_Vector_impl_data& __x) _GLIBCXX_NOEXCEPT
 115:/usr/include/newlib/c++/9.2.1/bits/stl_vector.h **** 	{
 116:/usr/include/newlib/c++/9.2.1/bits/stl_vector.h **** 	  // Do not use std::swap(_M_start, __x._M_start), etc as it loses
 117:/usr/include/newlib/c++/9.2.1/bits/stl_vector.h **** 	  // information used by TBAA.
 118:/usr/include/newlib/c++/9.2.1/bits/stl_vector.h **** 	  _Vector_impl_data __tmp;
 119:/usr/include/newlib/c++/9.2.1/bits/stl_vector.h **** 	  __tmp._M_copy_data(*this);
 120:/usr/include/newlib/c++/9.2.1/bits/stl_vector.h **** 	  _M_copy_data(__x);
 121:/usr/include/newlib/c++/9.2.1/bits/stl_vector.h **** 	  __x._M_copy_data(__tmp);
 122:/usr/include/newlib/c++/9.2.1/bits/stl_vector.h **** 	}
 123:/usr/include/newlib/c++/9.2.1/bits/stl_vector.h ****       };
 124:/usr/include/newlib/c++/9.2.1/bits/stl_vector.h **** 
 125:/usr/include/newlib/c++/9.2.1/bits/stl_vector.h ****       struct _Vector_impl
 126:/usr/include/newlib/c++/9.2.1/bits/stl_vector.h **** 	: public _Tp_alloc_type, public _Vector_impl_data
 127:/usr/include/newlib/c++/9.2.1/bits/stl_vector.h ****       {
 128:/usr/include/newlib/c++/9.2.1/bits/stl_vector.h **** 	_Vector_impl() _GLIBCXX_NOEXCEPT_IF(
 129:/usr/include/newlib/c++/9.2.1/bits/stl_vector.h **** 	    is_nothrow_default_constructible<_Tp_alloc_type>::value)
 130:/usr/include/newlib/c++/9.2.1/bits/stl_vector.h **** 	: _Tp_alloc_type()
 131:/usr/include/newlib/c++/9.2.1/bits/stl_vector.h **** 	{ }
 132:/usr/include/newlib/c++/9.2.1/bits/stl_vector.h **** 
 133:/usr/include/newlib/c++/9.2.1/bits/stl_vector.h **** 	_Vector_impl(_Tp_alloc_type const& __a) _GLIBCXX_NOEXCEPT
 134:/usr/include/newlib/c++/9.2.1/bits/stl_vector.h **** 	: _Tp_alloc_type(__a)
 135:/usr/include/newlib/c++/9.2.1/bits/stl_vector.h **** 	{ }
 136:/usr/include/newlib/c++/9.2.1/bits/stl_vector.h **** 
 137:/usr/include/newlib/c++/9.2.1/bits/stl_vector.h **** #if __cplusplus >= 201103L
 138:/usr/include/newlib/c++/9.2.1/bits/stl_vector.h **** 	// Not defaulted, to enforce noexcept(true) even when
 139:/usr/include/newlib/c++/9.2.1/bits/stl_vector.h **** 	// !is_nothrow_move_constructible<_Tp_alloc_type>.
 140:/usr/include/newlib/c++/9.2.1/bits/stl_vector.h **** 	_Vector_impl(_Vector_impl&& __x) noexcept
 141:/usr/include/newlib/c++/9.2.1/bits/stl_vector.h **** 	: _Tp_alloc_type(std::move(__x)), _Vector_impl_data(std::move(__x))
 142:/usr/include/newlib/c++/9.2.1/bits/stl_vector.h **** 	{ }
 143:/usr/include/newlib/c++/9.2.1/bits/stl_vector.h **** 
ARM GAS  /tmp/cco4jRmF.s 			page 4


 144:/usr/include/newlib/c++/9.2.1/bits/stl_vector.h **** 	_Vector_impl(_Tp_alloc_type&& __a) noexcept
 145:/usr/include/newlib/c++/9.2.1/bits/stl_vector.h **** 	: _Tp_alloc_type(std::move(__a))
 146:/usr/include/newlib/c++/9.2.1/bits/stl_vector.h **** 	{ }
 147:/usr/include/newlib/c++/9.2.1/bits/stl_vector.h **** 
 148:/usr/include/newlib/c++/9.2.1/bits/stl_vector.h **** 	_Vector_impl(_Tp_alloc_type&& __a, _Vector_impl&& __rv) noexcept
 149:/usr/include/newlib/c++/9.2.1/bits/stl_vector.h **** 	: _Tp_alloc_type(std::move(__a)), _Vector_impl_data(std::move(__rv))
 150:/usr/include/newlib/c++/9.2.1/bits/stl_vector.h **** 	{ }
 151:/usr/include/newlib/c++/9.2.1/bits/stl_vector.h **** #endif
 152:/usr/include/newlib/c++/9.2.1/bits/stl_vector.h **** 
 153:/usr/include/newlib/c++/9.2.1/bits/stl_vector.h **** #if _GLIBCXX_SANITIZE_STD_ALLOCATOR && _GLIBCXX_SANITIZE_VECTOR
 154:/usr/include/newlib/c++/9.2.1/bits/stl_vector.h **** 	template<typename = _Tp_alloc_type>
 155:/usr/include/newlib/c++/9.2.1/bits/stl_vector.h **** 	  struct _Asan
 156:/usr/include/newlib/c++/9.2.1/bits/stl_vector.h **** 	  {
 157:/usr/include/newlib/c++/9.2.1/bits/stl_vector.h **** 	    typedef typename __gnu_cxx::__alloc_traits<_Tp_alloc_type>
 158:/usr/include/newlib/c++/9.2.1/bits/stl_vector.h **** 	      ::size_type size_type;
 159:/usr/include/newlib/c++/9.2.1/bits/stl_vector.h **** 
 160:/usr/include/newlib/c++/9.2.1/bits/stl_vector.h **** 	    static void _S_shrink(_Vector_impl&, size_type) { }
 161:/usr/include/newlib/c++/9.2.1/bits/stl_vector.h **** 	    static void _S_on_dealloc(_Vector_impl&) { }
 162:/usr/include/newlib/c++/9.2.1/bits/stl_vector.h **** 
 163:/usr/include/newlib/c++/9.2.1/bits/stl_vector.h **** 	    typedef _Vector_impl& _Reinit;
 164:/usr/include/newlib/c++/9.2.1/bits/stl_vector.h **** 
 165:/usr/include/newlib/c++/9.2.1/bits/stl_vector.h **** 	    struct _Grow
 166:/usr/include/newlib/c++/9.2.1/bits/stl_vector.h **** 	    {
 167:/usr/include/newlib/c++/9.2.1/bits/stl_vector.h **** 	      _Grow(_Vector_impl&, size_type) { }
 168:/usr/include/newlib/c++/9.2.1/bits/stl_vector.h **** 	      void _M_grew(size_type) { }
 169:/usr/include/newlib/c++/9.2.1/bits/stl_vector.h **** 	    };
 170:/usr/include/newlib/c++/9.2.1/bits/stl_vector.h **** 	  };
 171:/usr/include/newlib/c++/9.2.1/bits/stl_vector.h **** 
 172:/usr/include/newlib/c++/9.2.1/bits/stl_vector.h **** 	// Enable ASan annotations for memory obtained from std::allocator.
 173:/usr/include/newlib/c++/9.2.1/bits/stl_vector.h **** 	template<typename _Up>
 174:/usr/include/newlib/c++/9.2.1/bits/stl_vector.h **** 	  struct _Asan<allocator<_Up> >
 175:/usr/include/newlib/c++/9.2.1/bits/stl_vector.h **** 	  {
 176:/usr/include/newlib/c++/9.2.1/bits/stl_vector.h **** 	    typedef typename __gnu_cxx::__alloc_traits<_Tp_alloc_type>
 177:/usr/include/newlib/c++/9.2.1/bits/stl_vector.h **** 	      ::size_type size_type;
 178:/usr/include/newlib/c++/9.2.1/bits/stl_vector.h **** 
 179:/usr/include/newlib/c++/9.2.1/bits/stl_vector.h **** 	    // Adjust ASan annotation for [_M_start, _M_end_of_storage) to
 180:/usr/include/newlib/c++/9.2.1/bits/stl_vector.h **** 	    // mark end of valid region as __curr instead of __prev.
 181:/usr/include/newlib/c++/9.2.1/bits/stl_vector.h **** 	    static void
 182:/usr/include/newlib/c++/9.2.1/bits/stl_vector.h **** 	    _S_adjust(_Vector_impl& __impl, pointer __prev, pointer __curr)
 183:/usr/include/newlib/c++/9.2.1/bits/stl_vector.h **** 	    {
 184:/usr/include/newlib/c++/9.2.1/bits/stl_vector.h **** 	      __sanitizer_annotate_contiguous_container(__impl._M_start,
 185:/usr/include/newlib/c++/9.2.1/bits/stl_vector.h **** 		  __impl._M_end_of_storage, __prev, __curr);
 186:/usr/include/newlib/c++/9.2.1/bits/stl_vector.h **** 	    }
 187:/usr/include/newlib/c++/9.2.1/bits/stl_vector.h **** 
 188:/usr/include/newlib/c++/9.2.1/bits/stl_vector.h **** 	    static void
 189:/usr/include/newlib/c++/9.2.1/bits/stl_vector.h **** 	    _S_grow(_Vector_impl& __impl, size_type __n)
 190:/usr/include/newlib/c++/9.2.1/bits/stl_vector.h **** 	    { _S_adjust(__impl, __impl._M_finish, __impl._M_finish + __n); }
 191:/usr/include/newlib/c++/9.2.1/bits/stl_vector.h **** 
 192:/usr/include/newlib/c++/9.2.1/bits/stl_vector.h **** 	    static void
 193:/usr/include/newlib/c++/9.2.1/bits/stl_vector.h **** 	    _S_shrink(_Vector_impl& __impl, size_type __n)
 194:/usr/include/newlib/c++/9.2.1/bits/stl_vector.h **** 	    { _S_adjust(__impl, __impl._M_finish + __n, __impl._M_finish); }
 195:/usr/include/newlib/c++/9.2.1/bits/stl_vector.h **** 
 196:/usr/include/newlib/c++/9.2.1/bits/stl_vector.h **** 	    static void
 197:/usr/include/newlib/c++/9.2.1/bits/stl_vector.h **** 	    _S_on_dealloc(_Vector_impl& __impl)
 198:/usr/include/newlib/c++/9.2.1/bits/stl_vector.h **** 	    {
 199:/usr/include/newlib/c++/9.2.1/bits/stl_vector.h **** 	      if (__impl._M_start)
 200:/usr/include/newlib/c++/9.2.1/bits/stl_vector.h **** 		_S_adjust(__impl, __impl._M_finish, __impl._M_end_of_storage);
ARM GAS  /tmp/cco4jRmF.s 			page 5


 201:/usr/include/newlib/c++/9.2.1/bits/stl_vector.h **** 	    }
 202:/usr/include/newlib/c++/9.2.1/bits/stl_vector.h **** 
 203:/usr/include/newlib/c++/9.2.1/bits/stl_vector.h **** 	    // Used on reallocation to tell ASan unused capacity is invalid.
 204:/usr/include/newlib/c++/9.2.1/bits/stl_vector.h **** 	    struct _Reinit
 205:/usr/include/newlib/c++/9.2.1/bits/stl_vector.h **** 	    {
 206:/usr/include/newlib/c++/9.2.1/bits/stl_vector.h **** 	      explicit _Reinit(_Vector_impl& __impl) : _M_impl(__impl)
 207:/usr/include/newlib/c++/9.2.1/bits/stl_vector.h **** 	      {
 208:/usr/include/newlib/c++/9.2.1/bits/stl_vector.h **** 		// Mark unused capacity as valid again before deallocating it.
 209:/usr/include/newlib/c++/9.2.1/bits/stl_vector.h **** 		_S_on_dealloc(_M_impl);
 210:/usr/include/newlib/c++/9.2.1/bits/stl_vector.h **** 	      }
 211:/usr/include/newlib/c++/9.2.1/bits/stl_vector.h **** 
 212:/usr/include/newlib/c++/9.2.1/bits/stl_vector.h **** 	      ~_Reinit()
 213:/usr/include/newlib/c++/9.2.1/bits/stl_vector.h **** 	      {
 214:/usr/include/newlib/c++/9.2.1/bits/stl_vector.h **** 		// Mark unused capacity as invalid after reallocation.
 215:/usr/include/newlib/c++/9.2.1/bits/stl_vector.h **** 		if (_M_impl._M_start)
 216:/usr/include/newlib/c++/9.2.1/bits/stl_vector.h **** 		  _S_adjust(_M_impl, _M_impl._M_end_of_storage,
 217:/usr/include/newlib/c++/9.2.1/bits/stl_vector.h **** 			    _M_impl._M_finish);
 218:/usr/include/newlib/c++/9.2.1/bits/stl_vector.h **** 	      }
 219:/usr/include/newlib/c++/9.2.1/bits/stl_vector.h **** 
 220:/usr/include/newlib/c++/9.2.1/bits/stl_vector.h **** 	      _Vector_impl& _M_impl;
 221:/usr/include/newlib/c++/9.2.1/bits/stl_vector.h **** 
 222:/usr/include/newlib/c++/9.2.1/bits/stl_vector.h **** #if __cplusplus >= 201103L
 223:/usr/include/newlib/c++/9.2.1/bits/stl_vector.h **** 	      _Reinit(const _Reinit&) = delete;
 224:/usr/include/newlib/c++/9.2.1/bits/stl_vector.h **** 	      _Reinit& operator=(const _Reinit&) = delete;
 225:/usr/include/newlib/c++/9.2.1/bits/stl_vector.h **** #endif
 226:/usr/include/newlib/c++/9.2.1/bits/stl_vector.h **** 	    };
 227:/usr/include/newlib/c++/9.2.1/bits/stl_vector.h **** 
 228:/usr/include/newlib/c++/9.2.1/bits/stl_vector.h **** 	    // Tell ASan when unused capacity is initialized to be valid.
 229:/usr/include/newlib/c++/9.2.1/bits/stl_vector.h **** 	    struct _Grow
 230:/usr/include/newlib/c++/9.2.1/bits/stl_vector.h **** 	    {
 231:/usr/include/newlib/c++/9.2.1/bits/stl_vector.h **** 	      _Grow(_Vector_impl& __impl, size_type __n)
 232:/usr/include/newlib/c++/9.2.1/bits/stl_vector.h **** 	      : _M_impl(__impl), _M_n(__n)
 233:/usr/include/newlib/c++/9.2.1/bits/stl_vector.h **** 	      { _S_grow(_M_impl, __n); }
 234:/usr/include/newlib/c++/9.2.1/bits/stl_vector.h **** 
 235:/usr/include/newlib/c++/9.2.1/bits/stl_vector.h **** 	      ~_Grow() { if (_M_n) _S_shrink(_M_impl, _M_n); }
 236:/usr/include/newlib/c++/9.2.1/bits/stl_vector.h **** 
 237:/usr/include/newlib/c++/9.2.1/bits/stl_vector.h **** 	      void _M_grew(size_type __n) { _M_n -= __n; }
 238:/usr/include/newlib/c++/9.2.1/bits/stl_vector.h **** 
 239:/usr/include/newlib/c++/9.2.1/bits/stl_vector.h **** #if __cplusplus >= 201103L
 240:/usr/include/newlib/c++/9.2.1/bits/stl_vector.h **** 	      _Grow(const _Grow&) = delete;
 241:/usr/include/newlib/c++/9.2.1/bits/stl_vector.h **** 	      _Grow& operator=(const _Grow&) = delete;
 242:/usr/include/newlib/c++/9.2.1/bits/stl_vector.h **** #endif
 243:/usr/include/newlib/c++/9.2.1/bits/stl_vector.h **** 	    private:
 244:/usr/include/newlib/c++/9.2.1/bits/stl_vector.h **** 	      _Vector_impl& _M_impl;
 245:/usr/include/newlib/c++/9.2.1/bits/stl_vector.h **** 	      size_type _M_n;
 246:/usr/include/newlib/c++/9.2.1/bits/stl_vector.h **** 	    };
 247:/usr/include/newlib/c++/9.2.1/bits/stl_vector.h **** 	  };
 248:/usr/include/newlib/c++/9.2.1/bits/stl_vector.h **** 
 249:/usr/include/newlib/c++/9.2.1/bits/stl_vector.h **** #define _GLIBCXX_ASAN_ANNOTATE_REINIT \
 250:/usr/include/newlib/c++/9.2.1/bits/stl_vector.h ****   typename _Base::_Vector_impl::template _Asan<>::_Reinit const \
 251:/usr/include/newlib/c++/9.2.1/bits/stl_vector.h **** 	__attribute__((__unused__)) __reinit_guard(this->_M_impl)
 252:/usr/include/newlib/c++/9.2.1/bits/stl_vector.h **** #define _GLIBCXX_ASAN_ANNOTATE_GROW(n) \
 253:/usr/include/newlib/c++/9.2.1/bits/stl_vector.h ****   typename _Base::_Vector_impl::template _Asan<>::_Grow \
 254:/usr/include/newlib/c++/9.2.1/bits/stl_vector.h **** 	__attribute__((__unused__)) __grow_guard(this->_M_impl, (n))
 255:/usr/include/newlib/c++/9.2.1/bits/stl_vector.h **** #define _GLIBCXX_ASAN_ANNOTATE_GREW(n) __grow_guard._M_grew(n)
 256:/usr/include/newlib/c++/9.2.1/bits/stl_vector.h **** #define _GLIBCXX_ASAN_ANNOTATE_SHRINK(n) \
 257:/usr/include/newlib/c++/9.2.1/bits/stl_vector.h ****   _Base::_Vector_impl::template _Asan<>::_S_shrink(this->_M_impl, n)
ARM GAS  /tmp/cco4jRmF.s 			page 6


 258:/usr/include/newlib/c++/9.2.1/bits/stl_vector.h **** #define _GLIBCXX_ASAN_ANNOTATE_BEFORE_DEALLOC \
 259:/usr/include/newlib/c++/9.2.1/bits/stl_vector.h ****   _Base::_Vector_impl::template _Asan<>::_S_on_dealloc(this->_M_impl)
 260:/usr/include/newlib/c++/9.2.1/bits/stl_vector.h **** #else // ! (_GLIBCXX_SANITIZE_STD_ALLOCATOR && _GLIBCXX_SANITIZE_VECTOR)
 261:/usr/include/newlib/c++/9.2.1/bits/stl_vector.h **** #define _GLIBCXX_ASAN_ANNOTATE_REINIT
 262:/usr/include/newlib/c++/9.2.1/bits/stl_vector.h **** #define _GLIBCXX_ASAN_ANNOTATE_GROW(n)
 263:/usr/include/newlib/c++/9.2.1/bits/stl_vector.h **** #define _GLIBCXX_ASAN_ANNOTATE_GREW(n)
 264:/usr/include/newlib/c++/9.2.1/bits/stl_vector.h **** #define _GLIBCXX_ASAN_ANNOTATE_SHRINK(n)
 265:/usr/include/newlib/c++/9.2.1/bits/stl_vector.h **** #define _GLIBCXX_ASAN_ANNOTATE_BEFORE_DEALLOC
 266:/usr/include/newlib/c++/9.2.1/bits/stl_vector.h **** #endif // _GLIBCXX_SANITIZE_STD_ALLOCATOR && _GLIBCXX_SANITIZE_VECTOR
 267:/usr/include/newlib/c++/9.2.1/bits/stl_vector.h ****       };
 268:/usr/include/newlib/c++/9.2.1/bits/stl_vector.h **** 
 269:/usr/include/newlib/c++/9.2.1/bits/stl_vector.h ****     public:
 270:/usr/include/newlib/c++/9.2.1/bits/stl_vector.h ****       typedef _Alloc allocator_type;
 271:/usr/include/newlib/c++/9.2.1/bits/stl_vector.h **** 
 272:/usr/include/newlib/c++/9.2.1/bits/stl_vector.h ****       _Tp_alloc_type&
 273:/usr/include/newlib/c++/9.2.1/bits/stl_vector.h ****       _M_get_Tp_allocator() _GLIBCXX_NOEXCEPT
 274:/usr/include/newlib/c++/9.2.1/bits/stl_vector.h ****       { return this->_M_impl; }
 275:/usr/include/newlib/c++/9.2.1/bits/stl_vector.h **** 
 276:/usr/include/newlib/c++/9.2.1/bits/stl_vector.h ****       const _Tp_alloc_type&
 277:/usr/include/newlib/c++/9.2.1/bits/stl_vector.h ****       _M_get_Tp_allocator() const _GLIBCXX_NOEXCEPT
 278:/usr/include/newlib/c++/9.2.1/bits/stl_vector.h ****       { return this->_M_impl; }
 279:/usr/include/newlib/c++/9.2.1/bits/stl_vector.h **** 
 280:/usr/include/newlib/c++/9.2.1/bits/stl_vector.h ****       allocator_type
 281:/usr/include/newlib/c++/9.2.1/bits/stl_vector.h ****       get_allocator() const _GLIBCXX_NOEXCEPT
 282:/usr/include/newlib/c++/9.2.1/bits/stl_vector.h ****       { return allocator_type(_M_get_Tp_allocator()); }
 283:/usr/include/newlib/c++/9.2.1/bits/stl_vector.h **** 
 284:/usr/include/newlib/c++/9.2.1/bits/stl_vector.h **** #if __cplusplus >= 201103L
 285:/usr/include/newlib/c++/9.2.1/bits/stl_vector.h ****       _Vector_base() = default;
 286:/usr/include/newlib/c++/9.2.1/bits/stl_vector.h **** #else
 287:/usr/include/newlib/c++/9.2.1/bits/stl_vector.h ****       _Vector_base() { }
 288:/usr/include/newlib/c++/9.2.1/bits/stl_vector.h **** #endif
 289:/usr/include/newlib/c++/9.2.1/bits/stl_vector.h **** 
 290:/usr/include/newlib/c++/9.2.1/bits/stl_vector.h ****       _Vector_base(const allocator_type& __a) _GLIBCXX_NOEXCEPT
 291:/usr/include/newlib/c++/9.2.1/bits/stl_vector.h ****       : _M_impl(__a) { }
 292:/usr/include/newlib/c++/9.2.1/bits/stl_vector.h **** 
 293:/usr/include/newlib/c++/9.2.1/bits/stl_vector.h ****       // Kept for ABI compatibility.
 294:/usr/include/newlib/c++/9.2.1/bits/stl_vector.h **** #if !_GLIBCXX_INLINE_VERSION
 295:/usr/include/newlib/c++/9.2.1/bits/stl_vector.h ****       _Vector_base(size_t __n)
 296:/usr/include/newlib/c++/9.2.1/bits/stl_vector.h ****       : _M_impl()
 297:/usr/include/newlib/c++/9.2.1/bits/stl_vector.h ****       { _M_create_storage(__n); }
 298:/usr/include/newlib/c++/9.2.1/bits/stl_vector.h **** #endif
 299:/usr/include/newlib/c++/9.2.1/bits/stl_vector.h **** 
 300:/usr/include/newlib/c++/9.2.1/bits/stl_vector.h ****       _Vector_base(size_t __n, const allocator_type& __a)
 301:/usr/include/newlib/c++/9.2.1/bits/stl_vector.h ****       : _M_impl(__a)
 302:/usr/include/newlib/c++/9.2.1/bits/stl_vector.h ****       { _M_create_storage(__n); }
 303:/usr/include/newlib/c++/9.2.1/bits/stl_vector.h **** 
 304:/usr/include/newlib/c++/9.2.1/bits/stl_vector.h **** #if __cplusplus >= 201103L
 305:/usr/include/newlib/c++/9.2.1/bits/stl_vector.h ****       _Vector_base(_Vector_base&&) = default;
 306:/usr/include/newlib/c++/9.2.1/bits/stl_vector.h **** 
 307:/usr/include/newlib/c++/9.2.1/bits/stl_vector.h ****       // Kept for ABI compatibility.
 308:/usr/include/newlib/c++/9.2.1/bits/stl_vector.h **** # if !_GLIBCXX_INLINE_VERSION
 309:/usr/include/newlib/c++/9.2.1/bits/stl_vector.h ****       _Vector_base(_Tp_alloc_type&& __a) noexcept
 310:/usr/include/newlib/c++/9.2.1/bits/stl_vector.h ****       : _M_impl(std::move(__a)) { }
 311:/usr/include/newlib/c++/9.2.1/bits/stl_vector.h **** 
 312:/usr/include/newlib/c++/9.2.1/bits/stl_vector.h ****       _Vector_base(_Vector_base&& __x, const allocator_type& __a)
 313:/usr/include/newlib/c++/9.2.1/bits/stl_vector.h ****       : _M_impl(__a)
 314:/usr/include/newlib/c++/9.2.1/bits/stl_vector.h ****       {
ARM GAS  /tmp/cco4jRmF.s 			page 7


 315:/usr/include/newlib/c++/9.2.1/bits/stl_vector.h **** 	if (__x.get_allocator() == __a)
 316:/usr/include/newlib/c++/9.2.1/bits/stl_vector.h **** 	  this->_M_impl._M_swap_data(__x._M_impl);
 317:/usr/include/newlib/c++/9.2.1/bits/stl_vector.h **** 	else
 318:/usr/include/newlib/c++/9.2.1/bits/stl_vector.h **** 	  {
 319:/usr/include/newlib/c++/9.2.1/bits/stl_vector.h **** 	    size_t __n = __x._M_impl._M_finish - __x._M_impl._M_start;
 320:/usr/include/newlib/c++/9.2.1/bits/stl_vector.h **** 	    _M_create_storage(__n);
 321:/usr/include/newlib/c++/9.2.1/bits/stl_vector.h **** 	  }
 322:/usr/include/newlib/c++/9.2.1/bits/stl_vector.h ****       }
 323:/usr/include/newlib/c++/9.2.1/bits/stl_vector.h **** # endif
 324:/usr/include/newlib/c++/9.2.1/bits/stl_vector.h **** 
 325:/usr/include/newlib/c++/9.2.1/bits/stl_vector.h ****       _Vector_base(const allocator_type& __a, _Vector_base&& __x)
 326:/usr/include/newlib/c++/9.2.1/bits/stl_vector.h ****       : _M_impl(_Tp_alloc_type(__a), std::move(__x._M_impl))
 327:/usr/include/newlib/c++/9.2.1/bits/stl_vector.h ****       { }
 328:/usr/include/newlib/c++/9.2.1/bits/stl_vector.h **** #endif
 329:/usr/include/newlib/c++/9.2.1/bits/stl_vector.h **** 
 330:/usr/include/newlib/c++/9.2.1/bits/stl_vector.h ****       ~_Vector_base() _GLIBCXX_NOEXCEPT
 331:/usr/include/newlib/c++/9.2.1/bits/stl_vector.h ****       {
 332:/usr/include/newlib/c++/9.2.1/bits/stl_vector.h **** 	_M_deallocate(_M_impl._M_start,
 333:/usr/include/newlib/c++/9.2.1/bits/stl_vector.h **** 		      _M_impl._M_end_of_storage - _M_impl._M_start);
 334:/usr/include/newlib/c++/9.2.1/bits/stl_vector.h ****       }
 335:/usr/include/newlib/c++/9.2.1/bits/stl_vector.h **** 
 336:/usr/include/newlib/c++/9.2.1/bits/stl_vector.h ****     public:
 337:/usr/include/newlib/c++/9.2.1/bits/stl_vector.h ****       _Vector_impl _M_impl;
 338:/usr/include/newlib/c++/9.2.1/bits/stl_vector.h **** 
 339:/usr/include/newlib/c++/9.2.1/bits/stl_vector.h ****       pointer
 340:/usr/include/newlib/c++/9.2.1/bits/stl_vector.h ****       _M_allocate(size_t __n)
 341:/usr/include/newlib/c++/9.2.1/bits/stl_vector.h ****       {
 342:/usr/include/newlib/c++/9.2.1/bits/stl_vector.h **** 	typedef __gnu_cxx::__alloc_traits<_Tp_alloc_type> _Tr;
 343:/usr/include/newlib/c++/9.2.1/bits/stl_vector.h **** 	return __n != 0 ? _Tr::allocate(_M_impl, __n) : pointer();
 344:/usr/include/newlib/c++/9.2.1/bits/stl_vector.h ****       }
 345:/usr/include/newlib/c++/9.2.1/bits/stl_vector.h **** 
 346:/usr/include/newlib/c++/9.2.1/bits/stl_vector.h ****       void
 347:/usr/include/newlib/c++/9.2.1/bits/stl_vector.h ****       _M_deallocate(pointer __p, size_t __n)
 348:/usr/include/newlib/c++/9.2.1/bits/stl_vector.h ****       {
 349:/usr/include/newlib/c++/9.2.1/bits/stl_vector.h **** 	typedef __gnu_cxx::__alloc_traits<_Tp_alloc_type> _Tr;
 350:/usr/include/newlib/c++/9.2.1/bits/stl_vector.h **** 	if (__p)
 351:/usr/include/newlib/c++/9.2.1/bits/stl_vector.h **** 	  _Tr::deallocate(_M_impl, __p, __n);
 352:/usr/include/newlib/c++/9.2.1/bits/stl_vector.h ****       }
 353:/usr/include/newlib/c++/9.2.1/bits/stl_vector.h **** 
 354:/usr/include/newlib/c++/9.2.1/bits/stl_vector.h ****     protected:
 355:/usr/include/newlib/c++/9.2.1/bits/stl_vector.h ****       void
 356:/usr/include/newlib/c++/9.2.1/bits/stl_vector.h ****       _M_create_storage(size_t __n)
 357:/usr/include/newlib/c++/9.2.1/bits/stl_vector.h ****       {
 358:/usr/include/newlib/c++/9.2.1/bits/stl_vector.h **** 	this->_M_impl._M_start = this->_M_allocate(__n);
 359:/usr/include/newlib/c++/9.2.1/bits/stl_vector.h **** 	this->_M_impl._M_finish = this->_M_impl._M_start;
 360:/usr/include/newlib/c++/9.2.1/bits/stl_vector.h **** 	this->_M_impl._M_end_of_storage = this->_M_impl._M_start + __n;
 361:/usr/include/newlib/c++/9.2.1/bits/stl_vector.h ****       }
 362:/usr/include/newlib/c++/9.2.1/bits/stl_vector.h ****     };
 363:/usr/include/newlib/c++/9.2.1/bits/stl_vector.h **** 
 364:/usr/include/newlib/c++/9.2.1/bits/stl_vector.h ****   /**
 365:/usr/include/newlib/c++/9.2.1/bits/stl_vector.h ****    *  @brief A standard container which offers fixed time access to
 366:/usr/include/newlib/c++/9.2.1/bits/stl_vector.h ****    *  individual elements in any order.
 367:/usr/include/newlib/c++/9.2.1/bits/stl_vector.h ****    *
 368:/usr/include/newlib/c++/9.2.1/bits/stl_vector.h ****    *  @ingroup sequences
 369:/usr/include/newlib/c++/9.2.1/bits/stl_vector.h ****    *
 370:/usr/include/newlib/c++/9.2.1/bits/stl_vector.h ****    *  @tparam _Tp  Type of element.
 371:/usr/include/newlib/c++/9.2.1/bits/stl_vector.h ****    *  @tparam _Alloc  Allocator type, defaults to allocator<_Tp>.
ARM GAS  /tmp/cco4jRmF.s 			page 8


 372:/usr/include/newlib/c++/9.2.1/bits/stl_vector.h ****    *
 373:/usr/include/newlib/c++/9.2.1/bits/stl_vector.h ****    *  Meets the requirements of a <a href="tables.html#65">container</a>, a
 374:/usr/include/newlib/c++/9.2.1/bits/stl_vector.h ****    *  <a href="tables.html#66">reversible container</a>, and a
 375:/usr/include/newlib/c++/9.2.1/bits/stl_vector.h ****    *  <a href="tables.html#67">sequence</a>, including the
 376:/usr/include/newlib/c++/9.2.1/bits/stl_vector.h ****    *  <a href="tables.html#68">optional sequence requirements</a> with the
 377:/usr/include/newlib/c++/9.2.1/bits/stl_vector.h ****    *  %exception of @c push_front and @c pop_front.
 378:/usr/include/newlib/c++/9.2.1/bits/stl_vector.h ****    *
 379:/usr/include/newlib/c++/9.2.1/bits/stl_vector.h ****    *  In some terminology a %vector can be described as a dynamic
 380:/usr/include/newlib/c++/9.2.1/bits/stl_vector.h ****    *  C-style array, it offers fast and efficient access to individual
 381:/usr/include/newlib/c++/9.2.1/bits/stl_vector.h ****    *  elements in any order and saves the user from worrying about
 382:/usr/include/newlib/c++/9.2.1/bits/stl_vector.h ****    *  memory and size allocation.  Subscripting ( @c [] ) access is
 383:/usr/include/newlib/c++/9.2.1/bits/stl_vector.h ****    *  also provided as with C-style arrays.
 384:/usr/include/newlib/c++/9.2.1/bits/stl_vector.h ****   */
 385:/usr/include/newlib/c++/9.2.1/bits/stl_vector.h ****   template<typename _Tp, typename _Alloc = std::allocator<_Tp> >
 386:/usr/include/newlib/c++/9.2.1/bits/stl_vector.h ****     class vector : protected _Vector_base<_Tp, _Alloc>
 387:/usr/include/newlib/c++/9.2.1/bits/stl_vector.h ****     {
 388:/usr/include/newlib/c++/9.2.1/bits/stl_vector.h **** #ifdef _GLIBCXX_CONCEPT_CHECKS
 389:/usr/include/newlib/c++/9.2.1/bits/stl_vector.h ****       // Concept requirements.
 390:/usr/include/newlib/c++/9.2.1/bits/stl_vector.h ****       typedef typename _Alloc::value_type		_Alloc_value_type;
 391:/usr/include/newlib/c++/9.2.1/bits/stl_vector.h **** # if __cplusplus < 201103L
 392:/usr/include/newlib/c++/9.2.1/bits/stl_vector.h ****       __glibcxx_class_requires(_Tp, _SGIAssignableConcept)
 393:/usr/include/newlib/c++/9.2.1/bits/stl_vector.h **** # endif
 394:/usr/include/newlib/c++/9.2.1/bits/stl_vector.h ****       __glibcxx_class_requires2(_Tp, _Alloc_value_type, _SameTypeConcept)
 395:/usr/include/newlib/c++/9.2.1/bits/stl_vector.h **** #endif
 396:/usr/include/newlib/c++/9.2.1/bits/stl_vector.h **** 
 397:/usr/include/newlib/c++/9.2.1/bits/stl_vector.h **** #if __cplusplus >= 201103L
 398:/usr/include/newlib/c++/9.2.1/bits/stl_vector.h ****       static_assert(is_same<typename remove_cv<_Tp>::type, _Tp>::value,
 399:/usr/include/newlib/c++/9.2.1/bits/stl_vector.h **** 	  "std::vector must have a non-const, non-volatile value_type");
 400:/usr/include/newlib/c++/9.2.1/bits/stl_vector.h **** # ifdef __STRICT_ANSI__
 401:/usr/include/newlib/c++/9.2.1/bits/stl_vector.h ****       static_assert(is_same<typename _Alloc::value_type, _Tp>::value,
 402:/usr/include/newlib/c++/9.2.1/bits/stl_vector.h **** 	  "std::vector must have the same value_type as its allocator");
 403:/usr/include/newlib/c++/9.2.1/bits/stl_vector.h **** # endif
 404:/usr/include/newlib/c++/9.2.1/bits/stl_vector.h **** #endif
 405:/usr/include/newlib/c++/9.2.1/bits/stl_vector.h **** 
 406:/usr/include/newlib/c++/9.2.1/bits/stl_vector.h ****       typedef _Vector_base<_Tp, _Alloc>			_Base;
 407:/usr/include/newlib/c++/9.2.1/bits/stl_vector.h ****       typedef typename _Base::_Tp_alloc_type		_Tp_alloc_type;
 408:/usr/include/newlib/c++/9.2.1/bits/stl_vector.h ****       typedef __gnu_cxx::__alloc_traits<_Tp_alloc_type>	_Alloc_traits;
 409:/usr/include/newlib/c++/9.2.1/bits/stl_vector.h **** 
 410:/usr/include/newlib/c++/9.2.1/bits/stl_vector.h ****     public:
 411:/usr/include/newlib/c++/9.2.1/bits/stl_vector.h ****       typedef _Tp					value_type;
 412:/usr/include/newlib/c++/9.2.1/bits/stl_vector.h ****       typedef typename _Base::pointer			pointer;
 413:/usr/include/newlib/c++/9.2.1/bits/stl_vector.h ****       typedef typename _Alloc_traits::const_pointer	const_pointer;
 414:/usr/include/newlib/c++/9.2.1/bits/stl_vector.h ****       typedef typename _Alloc_traits::reference		reference;
 415:/usr/include/newlib/c++/9.2.1/bits/stl_vector.h ****       typedef typename _Alloc_traits::const_reference	const_reference;
 416:/usr/include/newlib/c++/9.2.1/bits/stl_vector.h ****       typedef __gnu_cxx::__normal_iterator<pointer, vector> iterator;
 417:/usr/include/newlib/c++/9.2.1/bits/stl_vector.h ****       typedef __gnu_cxx::__normal_iterator<const_pointer, vector>
 418:/usr/include/newlib/c++/9.2.1/bits/stl_vector.h ****       const_iterator;
 419:/usr/include/newlib/c++/9.2.1/bits/stl_vector.h ****       typedef std::reverse_iterator<const_iterator>	const_reverse_iterator;
 420:/usr/include/newlib/c++/9.2.1/bits/stl_vector.h ****       typedef std::reverse_iterator<iterator>		reverse_iterator;
 421:/usr/include/newlib/c++/9.2.1/bits/stl_vector.h ****       typedef size_t					size_type;
 422:/usr/include/newlib/c++/9.2.1/bits/stl_vector.h ****       typedef ptrdiff_t					difference_type;
 423:/usr/include/newlib/c++/9.2.1/bits/stl_vector.h ****       typedef _Alloc					allocator_type;
 424:/usr/include/newlib/c++/9.2.1/bits/stl_vector.h **** 
 425:/usr/include/newlib/c++/9.2.1/bits/stl_vector.h ****     private:
 426:/usr/include/newlib/c++/9.2.1/bits/stl_vector.h **** #if __cplusplus >= 201103L
 427:/usr/include/newlib/c++/9.2.1/bits/stl_vector.h ****       static constexpr bool
 428:/usr/include/newlib/c++/9.2.1/bits/stl_vector.h ****       _S_nothrow_relocate(true_type)
ARM GAS  /tmp/cco4jRmF.s 			page 9


 429:/usr/include/newlib/c++/9.2.1/bits/stl_vector.h ****       {
 430:/usr/include/newlib/c++/9.2.1/bits/stl_vector.h **** 	return noexcept(std::__relocate_a(std::declval<pointer>(),
 431:/usr/include/newlib/c++/9.2.1/bits/stl_vector.h **** 					  std::declval<pointer>(),
 432:/usr/include/newlib/c++/9.2.1/bits/stl_vector.h **** 					  std::declval<pointer>(),
 433:/usr/include/newlib/c++/9.2.1/bits/stl_vector.h **** 					  std::declval<_Tp_alloc_type&>()));
 434:/usr/include/newlib/c++/9.2.1/bits/stl_vector.h ****       }
 435:/usr/include/newlib/c++/9.2.1/bits/stl_vector.h **** 
 436:/usr/include/newlib/c++/9.2.1/bits/stl_vector.h ****       static constexpr bool
 437:/usr/include/newlib/c++/9.2.1/bits/stl_vector.h ****       _S_nothrow_relocate(false_type)
 438:/usr/include/newlib/c++/9.2.1/bits/stl_vector.h ****       { return false; }
 439:/usr/include/newlib/c++/9.2.1/bits/stl_vector.h **** 
 440:/usr/include/newlib/c++/9.2.1/bits/stl_vector.h ****       static constexpr bool
 441:/usr/include/newlib/c++/9.2.1/bits/stl_vector.h ****       _S_use_relocate()
 442:/usr/include/newlib/c++/9.2.1/bits/stl_vector.h ****       {
 443:/usr/include/newlib/c++/9.2.1/bits/stl_vector.h **** 	// Instantiating std::__relocate_a might cause an error outside the
 444:/usr/include/newlib/c++/9.2.1/bits/stl_vector.h **** 	// immediate context (in __relocate_object_a's noexcept-specifier),
 445:/usr/include/newlib/c++/9.2.1/bits/stl_vector.h **** 	// so only do it if we know the type can be move-inserted into *this.
 446:/usr/include/newlib/c++/9.2.1/bits/stl_vector.h **** 	return _S_nothrow_relocate(__is_move_insertable<_Tp_alloc_type>{});
 447:/usr/include/newlib/c++/9.2.1/bits/stl_vector.h ****       }
 448:/usr/include/newlib/c++/9.2.1/bits/stl_vector.h **** 
 449:/usr/include/newlib/c++/9.2.1/bits/stl_vector.h ****       static pointer
 450:/usr/include/newlib/c++/9.2.1/bits/stl_vector.h ****       _S_do_relocate(pointer __first, pointer __last, pointer __result,
 451:/usr/include/newlib/c++/9.2.1/bits/stl_vector.h **** 		     _Tp_alloc_type& __alloc, true_type) noexcept
 452:/usr/include/newlib/c++/9.2.1/bits/stl_vector.h ****       {
 453:/usr/include/newlib/c++/9.2.1/bits/stl_vector.h **** 	return std::__relocate_a(__first, __last, __result, __alloc);
 454:/usr/include/newlib/c++/9.2.1/bits/stl_vector.h ****       }
 455:/usr/include/newlib/c++/9.2.1/bits/stl_vector.h **** 
 456:/usr/include/newlib/c++/9.2.1/bits/stl_vector.h ****       static pointer
 457:/usr/include/newlib/c++/9.2.1/bits/stl_vector.h ****       _S_do_relocate(pointer, pointer, pointer __result,
 458:/usr/include/newlib/c++/9.2.1/bits/stl_vector.h **** 		     _Tp_alloc_type&, false_type) noexcept
 459:/usr/include/newlib/c++/9.2.1/bits/stl_vector.h ****       { return __result; }
 460:/usr/include/newlib/c++/9.2.1/bits/stl_vector.h **** 
 461:/usr/include/newlib/c++/9.2.1/bits/stl_vector.h ****       static pointer
 462:/usr/include/newlib/c++/9.2.1/bits/stl_vector.h ****       _S_relocate(pointer __first, pointer __last, pointer __result,
 463:/usr/include/newlib/c++/9.2.1/bits/stl_vector.h **** 		  _Tp_alloc_type& __alloc) noexcept
 464:/usr/include/newlib/c++/9.2.1/bits/stl_vector.h ****       {
 465:/usr/include/newlib/c++/9.2.1/bits/stl_vector.h **** 	using __do_it = __bool_constant<_S_use_relocate()>;
 466:/usr/include/newlib/c++/9.2.1/bits/stl_vector.h **** 	return _S_do_relocate(__first, __last, __result, __alloc, __do_it{});
 467:/usr/include/newlib/c++/9.2.1/bits/stl_vector.h ****       }
 468:/usr/include/newlib/c++/9.2.1/bits/stl_vector.h **** #endif // C++11
 469:/usr/include/newlib/c++/9.2.1/bits/stl_vector.h **** 
 470:/usr/include/newlib/c++/9.2.1/bits/stl_vector.h ****     protected:
 471:/usr/include/newlib/c++/9.2.1/bits/stl_vector.h ****       using _Base::_M_allocate;
 472:/usr/include/newlib/c++/9.2.1/bits/stl_vector.h ****       using _Base::_M_deallocate;
 473:/usr/include/newlib/c++/9.2.1/bits/stl_vector.h ****       using _Base::_M_impl;
 474:/usr/include/newlib/c++/9.2.1/bits/stl_vector.h ****       using _Base::_M_get_Tp_allocator;
 475:/usr/include/newlib/c++/9.2.1/bits/stl_vector.h **** 
 476:/usr/include/newlib/c++/9.2.1/bits/stl_vector.h ****     public:
 477:/usr/include/newlib/c++/9.2.1/bits/stl_vector.h ****       // [23.2.4.1] construct/copy/destroy
 478:/usr/include/newlib/c++/9.2.1/bits/stl_vector.h ****       // (assign() and get_allocator() are also listed in this section)
 479:/usr/include/newlib/c++/9.2.1/bits/stl_vector.h **** 
 480:/usr/include/newlib/c++/9.2.1/bits/stl_vector.h ****       /**
 481:/usr/include/newlib/c++/9.2.1/bits/stl_vector.h ****        *  @brief  Creates a %vector with no elements.
 482:/usr/include/newlib/c++/9.2.1/bits/stl_vector.h ****        */
 483:/usr/include/newlib/c++/9.2.1/bits/stl_vector.h **** #if __cplusplus >= 201103L
 484:/usr/include/newlib/c++/9.2.1/bits/stl_vector.h ****       vector() = default;
 485:/usr/include/newlib/c++/9.2.1/bits/stl_vector.h **** #else
ARM GAS  /tmp/cco4jRmF.s 			page 10


 486:/usr/include/newlib/c++/9.2.1/bits/stl_vector.h ****       vector() { }
 487:/usr/include/newlib/c++/9.2.1/bits/stl_vector.h **** #endif
 488:/usr/include/newlib/c++/9.2.1/bits/stl_vector.h **** 
 489:/usr/include/newlib/c++/9.2.1/bits/stl_vector.h ****       /**
 490:/usr/include/newlib/c++/9.2.1/bits/stl_vector.h ****        *  @brief  Creates a %vector with no elements.
 491:/usr/include/newlib/c++/9.2.1/bits/stl_vector.h ****        *  @param  __a  An allocator object.
 492:/usr/include/newlib/c++/9.2.1/bits/stl_vector.h ****        */
 493:/usr/include/newlib/c++/9.2.1/bits/stl_vector.h ****       explicit
 494:/usr/include/newlib/c++/9.2.1/bits/stl_vector.h ****       vector(const allocator_type& __a) _GLIBCXX_NOEXCEPT
 495:/usr/include/newlib/c++/9.2.1/bits/stl_vector.h ****       : _Base(__a) { }
 496:/usr/include/newlib/c++/9.2.1/bits/stl_vector.h **** 
 497:/usr/include/newlib/c++/9.2.1/bits/stl_vector.h **** #if __cplusplus >= 201103L
 498:/usr/include/newlib/c++/9.2.1/bits/stl_vector.h ****       /**
 499:/usr/include/newlib/c++/9.2.1/bits/stl_vector.h ****        *  @brief  Creates a %vector with default constructed elements.
 500:/usr/include/newlib/c++/9.2.1/bits/stl_vector.h ****        *  @param  __n  The number of elements to initially create.
 501:/usr/include/newlib/c++/9.2.1/bits/stl_vector.h ****        *  @param  __a  An allocator.
 502:/usr/include/newlib/c++/9.2.1/bits/stl_vector.h ****        *
 503:/usr/include/newlib/c++/9.2.1/bits/stl_vector.h ****        *  This constructor fills the %vector with @a __n default
 504:/usr/include/newlib/c++/9.2.1/bits/stl_vector.h ****        *  constructed elements.
 505:/usr/include/newlib/c++/9.2.1/bits/stl_vector.h ****        */
 506:/usr/include/newlib/c++/9.2.1/bits/stl_vector.h ****       explicit
 507:/usr/include/newlib/c++/9.2.1/bits/stl_vector.h ****       vector(size_type __n, const allocator_type& __a = allocator_type())
 508:/usr/include/newlib/c++/9.2.1/bits/stl_vector.h ****       : _Base(_S_check_init_len(__n, __a), __a)
 509:/usr/include/newlib/c++/9.2.1/bits/stl_vector.h ****       { _M_default_initialize(__n); }
 510:/usr/include/newlib/c++/9.2.1/bits/stl_vector.h **** 
 511:/usr/include/newlib/c++/9.2.1/bits/stl_vector.h ****       /**
 512:/usr/include/newlib/c++/9.2.1/bits/stl_vector.h ****        *  @brief  Creates a %vector with copies of an exemplar element.
 513:/usr/include/newlib/c++/9.2.1/bits/stl_vector.h ****        *  @param  __n  The number of elements to initially create.
 514:/usr/include/newlib/c++/9.2.1/bits/stl_vector.h ****        *  @param  __value  An element to copy.
 515:/usr/include/newlib/c++/9.2.1/bits/stl_vector.h ****        *  @param  __a  An allocator.
 516:/usr/include/newlib/c++/9.2.1/bits/stl_vector.h ****        *
 517:/usr/include/newlib/c++/9.2.1/bits/stl_vector.h ****        *  This constructor fills the %vector with @a __n copies of @a __value.
 518:/usr/include/newlib/c++/9.2.1/bits/stl_vector.h ****        */
 519:/usr/include/newlib/c++/9.2.1/bits/stl_vector.h ****       vector(size_type __n, const value_type& __value,
 520:/usr/include/newlib/c++/9.2.1/bits/stl_vector.h **** 	     const allocator_type& __a = allocator_type())
 521:/usr/include/newlib/c++/9.2.1/bits/stl_vector.h ****       : _Base(_S_check_init_len(__n, __a), __a)
 522:/usr/include/newlib/c++/9.2.1/bits/stl_vector.h ****       { _M_fill_initialize(__n, __value); }
 523:/usr/include/newlib/c++/9.2.1/bits/stl_vector.h **** #else
 524:/usr/include/newlib/c++/9.2.1/bits/stl_vector.h ****       /**
 525:/usr/include/newlib/c++/9.2.1/bits/stl_vector.h ****        *  @brief  Creates a %vector with copies of an exemplar element.
 526:/usr/include/newlib/c++/9.2.1/bits/stl_vector.h ****        *  @param  __n  The number of elements to initially create.
 527:/usr/include/newlib/c++/9.2.1/bits/stl_vector.h ****        *  @param  __value  An element to copy.
 528:/usr/include/newlib/c++/9.2.1/bits/stl_vector.h ****        *  @param  __a  An allocator.
 529:/usr/include/newlib/c++/9.2.1/bits/stl_vector.h ****        *
 530:/usr/include/newlib/c++/9.2.1/bits/stl_vector.h ****        *  This constructor fills the %vector with @a __n copies of @a __value.
 531:/usr/include/newlib/c++/9.2.1/bits/stl_vector.h ****        */
 532:/usr/include/newlib/c++/9.2.1/bits/stl_vector.h ****       explicit
 533:/usr/include/newlib/c++/9.2.1/bits/stl_vector.h ****       vector(size_type __n, const value_type& __value = value_type(),
 534:/usr/include/newlib/c++/9.2.1/bits/stl_vector.h **** 	     const allocator_type& __a = allocator_type())
 535:/usr/include/newlib/c++/9.2.1/bits/stl_vector.h ****       : _Base(_S_check_init_len(__n, __a), __a)
 536:/usr/include/newlib/c++/9.2.1/bits/stl_vector.h ****       { _M_fill_initialize(__n, __value); }
 537:/usr/include/newlib/c++/9.2.1/bits/stl_vector.h **** #endif
 538:/usr/include/newlib/c++/9.2.1/bits/stl_vector.h **** 
 539:/usr/include/newlib/c++/9.2.1/bits/stl_vector.h ****       /**
 540:/usr/include/newlib/c++/9.2.1/bits/stl_vector.h ****        *  @brief  %Vector copy constructor.
 541:/usr/include/newlib/c++/9.2.1/bits/stl_vector.h ****        *  @param  __x  A %vector of identical element and allocator types.
 542:/usr/include/newlib/c++/9.2.1/bits/stl_vector.h ****        *
ARM GAS  /tmp/cco4jRmF.s 			page 11


 543:/usr/include/newlib/c++/9.2.1/bits/stl_vector.h ****        *  All the elements of @a __x are copied, but any unused capacity in
 544:/usr/include/newlib/c++/9.2.1/bits/stl_vector.h ****        *  @a __x  will not be copied
 545:/usr/include/newlib/c++/9.2.1/bits/stl_vector.h ****        *  (i.e. capacity() == size() in the new %vector).
 546:/usr/include/newlib/c++/9.2.1/bits/stl_vector.h ****        *
 547:/usr/include/newlib/c++/9.2.1/bits/stl_vector.h ****        *  The newly-created %vector uses a copy of the allocator object used
 548:/usr/include/newlib/c++/9.2.1/bits/stl_vector.h ****        *  by @a __x (unless the allocator traits dictate a different object).
 549:/usr/include/newlib/c++/9.2.1/bits/stl_vector.h ****        */
 550:/usr/include/newlib/c++/9.2.1/bits/stl_vector.h ****       vector(const vector& __x)
 551:/usr/include/newlib/c++/9.2.1/bits/stl_vector.h ****       : _Base(__x.size(),
 552:/usr/include/newlib/c++/9.2.1/bits/stl_vector.h **** 	_Alloc_traits::_S_select_on_copy(__x._M_get_Tp_allocator()))
 553:/usr/include/newlib/c++/9.2.1/bits/stl_vector.h ****       {
 554:/usr/include/newlib/c++/9.2.1/bits/stl_vector.h **** 	this->_M_impl._M_finish =
 555:/usr/include/newlib/c++/9.2.1/bits/stl_vector.h **** 	  std::__uninitialized_copy_a(__x.begin(), __x.end(),
 556:/usr/include/newlib/c++/9.2.1/bits/stl_vector.h **** 				      this->_M_impl._M_start,
 557:/usr/include/newlib/c++/9.2.1/bits/stl_vector.h **** 				      _M_get_Tp_allocator());
 558:/usr/include/newlib/c++/9.2.1/bits/stl_vector.h ****       }
 559:/usr/include/newlib/c++/9.2.1/bits/stl_vector.h **** 
 560:/usr/include/newlib/c++/9.2.1/bits/stl_vector.h **** #if __cplusplus >= 201103L
 561:/usr/include/newlib/c++/9.2.1/bits/stl_vector.h ****       /**
 562:/usr/include/newlib/c++/9.2.1/bits/stl_vector.h ****        *  @brief  %Vector move constructor.
 563:/usr/include/newlib/c++/9.2.1/bits/stl_vector.h ****        *
 564:/usr/include/newlib/c++/9.2.1/bits/stl_vector.h ****        *  The newly-created %vector contains the exact contents of the
 565:/usr/include/newlib/c++/9.2.1/bits/stl_vector.h ****        *  moved instance.
 566:/usr/include/newlib/c++/9.2.1/bits/stl_vector.h ****        *  The contents of the moved instance are a valid, but unspecified
 567:/usr/include/newlib/c++/9.2.1/bits/stl_vector.h ****        *  %vector.
 568:/usr/include/newlib/c++/9.2.1/bits/stl_vector.h ****        */
 569:/usr/include/newlib/c++/9.2.1/bits/stl_vector.h ****       vector(vector&&) noexcept = default;
 570:/usr/include/newlib/c++/9.2.1/bits/stl_vector.h **** 
 571:/usr/include/newlib/c++/9.2.1/bits/stl_vector.h ****       /// Copy constructor with alternative allocator
 572:/usr/include/newlib/c++/9.2.1/bits/stl_vector.h ****       vector(const vector& __x, const allocator_type& __a)
 573:/usr/include/newlib/c++/9.2.1/bits/stl_vector.h ****       : _Base(__x.size(), __a)
 574:/usr/include/newlib/c++/9.2.1/bits/stl_vector.h ****       {
 575:/usr/include/newlib/c++/9.2.1/bits/stl_vector.h **** 	this->_M_impl._M_finish =
 576:/usr/include/newlib/c++/9.2.1/bits/stl_vector.h **** 	  std::__uninitialized_copy_a(__x.begin(), __x.end(),
 577:/usr/include/newlib/c++/9.2.1/bits/stl_vector.h **** 				      this->_M_impl._M_start,
 578:/usr/include/newlib/c++/9.2.1/bits/stl_vector.h **** 				      _M_get_Tp_allocator());
 579:/usr/include/newlib/c++/9.2.1/bits/stl_vector.h ****       }
 580:/usr/include/newlib/c++/9.2.1/bits/stl_vector.h **** 
 581:/usr/include/newlib/c++/9.2.1/bits/stl_vector.h ****     private:
 582:/usr/include/newlib/c++/9.2.1/bits/stl_vector.h ****       vector(vector&& __rv, const allocator_type& __m, true_type) noexcept
 583:/usr/include/newlib/c++/9.2.1/bits/stl_vector.h ****       : _Base(__m, std::move(__rv))
 584:/usr/include/newlib/c++/9.2.1/bits/stl_vector.h ****       { }
 585:/usr/include/newlib/c++/9.2.1/bits/stl_vector.h **** 
 586:/usr/include/newlib/c++/9.2.1/bits/stl_vector.h ****       vector(vector&& __rv, const allocator_type& __m, false_type)
 587:/usr/include/newlib/c++/9.2.1/bits/stl_vector.h ****       : _Base(__m)
 588:/usr/include/newlib/c++/9.2.1/bits/stl_vector.h ****       {
 589:/usr/include/newlib/c++/9.2.1/bits/stl_vector.h **** 	if (__rv.get_allocator() == __m)
 590:/usr/include/newlib/c++/9.2.1/bits/stl_vector.h **** 	  this->_M_impl._M_swap_data(__rv._M_impl);
 591:/usr/include/newlib/c++/9.2.1/bits/stl_vector.h **** 	else if (!__rv.empty())
 592:/usr/include/newlib/c++/9.2.1/bits/stl_vector.h **** 	  {
 593:/usr/include/newlib/c++/9.2.1/bits/stl_vector.h **** 	    this->_M_create_storage(__rv.size());
 594:/usr/include/newlib/c++/9.2.1/bits/stl_vector.h **** 	    this->_M_impl._M_finish =
 595:/usr/include/newlib/c++/9.2.1/bits/stl_vector.h **** 	      std::__uninitialized_move_a(__rv.begin(), __rv.end(),
 596:/usr/include/newlib/c++/9.2.1/bits/stl_vector.h **** 					  this->_M_impl._M_start,
 597:/usr/include/newlib/c++/9.2.1/bits/stl_vector.h **** 					  _M_get_Tp_allocator());
 598:/usr/include/newlib/c++/9.2.1/bits/stl_vector.h **** 	    __rv.clear();
 599:/usr/include/newlib/c++/9.2.1/bits/stl_vector.h **** 	  }
ARM GAS  /tmp/cco4jRmF.s 			page 12


 600:/usr/include/newlib/c++/9.2.1/bits/stl_vector.h ****       }
 601:/usr/include/newlib/c++/9.2.1/bits/stl_vector.h **** 
 602:/usr/include/newlib/c++/9.2.1/bits/stl_vector.h ****     public:
 603:/usr/include/newlib/c++/9.2.1/bits/stl_vector.h ****       /// Move constructor with alternative allocator
 604:/usr/include/newlib/c++/9.2.1/bits/stl_vector.h ****       vector(vector&& __rv, const allocator_type& __m)
 605:/usr/include/newlib/c++/9.2.1/bits/stl_vector.h ****       noexcept( noexcept(
 606:/usr/include/newlib/c++/9.2.1/bits/stl_vector.h **** 	vector(std::declval<vector&&>(), std::declval<const allocator_type&>(),
 607:/usr/include/newlib/c++/9.2.1/bits/stl_vector.h **** 	       std::declval<typename _Alloc_traits::is_always_equal>())) )
 608:/usr/include/newlib/c++/9.2.1/bits/stl_vector.h ****       : vector(std::move(__rv), __m, typename _Alloc_traits::is_always_equal{})
 609:/usr/include/newlib/c++/9.2.1/bits/stl_vector.h ****       { }
 610:/usr/include/newlib/c++/9.2.1/bits/stl_vector.h **** 
 611:/usr/include/newlib/c++/9.2.1/bits/stl_vector.h ****       /**
 612:/usr/include/newlib/c++/9.2.1/bits/stl_vector.h ****        *  @brief  Builds a %vector from an initializer list.
 613:/usr/include/newlib/c++/9.2.1/bits/stl_vector.h ****        *  @param  __l  An initializer_list.
 614:/usr/include/newlib/c++/9.2.1/bits/stl_vector.h ****        *  @param  __a  An allocator.
 615:/usr/include/newlib/c++/9.2.1/bits/stl_vector.h ****        *
 616:/usr/include/newlib/c++/9.2.1/bits/stl_vector.h ****        *  Create a %vector consisting of copies of the elements in the
 617:/usr/include/newlib/c++/9.2.1/bits/stl_vector.h ****        *  initializer_list @a __l.
 618:/usr/include/newlib/c++/9.2.1/bits/stl_vector.h ****        *
 619:/usr/include/newlib/c++/9.2.1/bits/stl_vector.h ****        *  This will call the element type's copy constructor N times
 620:/usr/include/newlib/c++/9.2.1/bits/stl_vector.h ****        *  (where N is @a __l.size()) and do no memory reallocation.
 621:/usr/include/newlib/c++/9.2.1/bits/stl_vector.h ****        */
 622:/usr/include/newlib/c++/9.2.1/bits/stl_vector.h ****       vector(initializer_list<value_type> __l,
 623:/usr/include/newlib/c++/9.2.1/bits/stl_vector.h **** 	     const allocator_type& __a = allocator_type())
 624:/usr/include/newlib/c++/9.2.1/bits/stl_vector.h ****       : _Base(__a)
 625:/usr/include/newlib/c++/9.2.1/bits/stl_vector.h ****       {
 626:/usr/include/newlib/c++/9.2.1/bits/stl_vector.h **** 	_M_range_initialize(__l.begin(), __l.end(),
 627:/usr/include/newlib/c++/9.2.1/bits/stl_vector.h **** 			    random_access_iterator_tag());
 628:/usr/include/newlib/c++/9.2.1/bits/stl_vector.h ****       }
 629:/usr/include/newlib/c++/9.2.1/bits/stl_vector.h **** #endif
 630:/usr/include/newlib/c++/9.2.1/bits/stl_vector.h **** 
 631:/usr/include/newlib/c++/9.2.1/bits/stl_vector.h ****       /**
 632:/usr/include/newlib/c++/9.2.1/bits/stl_vector.h ****        *  @brief  Builds a %vector from a range.
 633:/usr/include/newlib/c++/9.2.1/bits/stl_vector.h ****        *  @param  __first  An input iterator.
 634:/usr/include/newlib/c++/9.2.1/bits/stl_vector.h ****        *  @param  __last  An input iterator.
 635:/usr/include/newlib/c++/9.2.1/bits/stl_vector.h ****        *  @param  __a  An allocator.
 636:/usr/include/newlib/c++/9.2.1/bits/stl_vector.h ****        *
 637:/usr/include/newlib/c++/9.2.1/bits/stl_vector.h ****        *  Create a %vector consisting of copies of the elements from
 638:/usr/include/newlib/c++/9.2.1/bits/stl_vector.h ****        *  [first,last).
 639:/usr/include/newlib/c++/9.2.1/bits/stl_vector.h ****        *
 640:/usr/include/newlib/c++/9.2.1/bits/stl_vector.h ****        *  If the iterators are forward, bidirectional, or
 641:/usr/include/newlib/c++/9.2.1/bits/stl_vector.h ****        *  random-access, then this will call the elements' copy
 642:/usr/include/newlib/c++/9.2.1/bits/stl_vector.h ****        *  constructor N times (where N is distance(first,last)) and do
 643:/usr/include/newlib/c++/9.2.1/bits/stl_vector.h ****        *  no memory reallocation.  But if only input iterators are
 644:/usr/include/newlib/c++/9.2.1/bits/stl_vector.h ****        *  used, then this will do at most 2N calls to the copy
 645:/usr/include/newlib/c++/9.2.1/bits/stl_vector.h ****        *  constructor, and logN memory reallocations.
 646:/usr/include/newlib/c++/9.2.1/bits/stl_vector.h ****        */
 647:/usr/include/newlib/c++/9.2.1/bits/stl_vector.h **** #if __cplusplus >= 201103L
 648:/usr/include/newlib/c++/9.2.1/bits/stl_vector.h ****       template<typename _InputIterator,
 649:/usr/include/newlib/c++/9.2.1/bits/stl_vector.h **** 	       typename = std::_RequireInputIter<_InputIterator>>
 650:/usr/include/newlib/c++/9.2.1/bits/stl_vector.h **** 	vector(_InputIterator __first, _InputIterator __last,
 651:/usr/include/newlib/c++/9.2.1/bits/stl_vector.h **** 	       const allocator_type& __a = allocator_type())
 652:/usr/include/newlib/c++/9.2.1/bits/stl_vector.h **** 	: _Base(__a)
 653:/usr/include/newlib/c++/9.2.1/bits/stl_vector.h **** 	{
 654:/usr/include/newlib/c++/9.2.1/bits/stl_vector.h **** 	  _M_range_initialize(__first, __last,
 655:/usr/include/newlib/c++/9.2.1/bits/stl_vector.h **** 			      std::__iterator_category(__first));
 656:/usr/include/newlib/c++/9.2.1/bits/stl_vector.h **** 	}
ARM GAS  /tmp/cco4jRmF.s 			page 13


 657:/usr/include/newlib/c++/9.2.1/bits/stl_vector.h **** #else
 658:/usr/include/newlib/c++/9.2.1/bits/stl_vector.h ****       template<typename _InputIterator>
 659:/usr/include/newlib/c++/9.2.1/bits/stl_vector.h **** 	vector(_InputIterator __first, _InputIterator __last,
 660:/usr/include/newlib/c++/9.2.1/bits/stl_vector.h **** 	       const allocator_type& __a = allocator_type())
 661:/usr/include/newlib/c++/9.2.1/bits/stl_vector.h **** 	: _Base(__a)
 662:/usr/include/newlib/c++/9.2.1/bits/stl_vector.h **** 	{
 663:/usr/include/newlib/c++/9.2.1/bits/stl_vector.h **** 	  // Check whether it's an integral type.  If so, it's not an iterator.
 664:/usr/include/newlib/c++/9.2.1/bits/stl_vector.h **** 	  typedef typename std::__is_integer<_InputIterator>::__type _Integral;
 665:/usr/include/newlib/c++/9.2.1/bits/stl_vector.h **** 	  _M_initialize_dispatch(__first, __last, _Integral());
 666:/usr/include/newlib/c++/9.2.1/bits/stl_vector.h **** 	}
 667:/usr/include/newlib/c++/9.2.1/bits/stl_vector.h **** #endif
 668:/usr/include/newlib/c++/9.2.1/bits/stl_vector.h **** 
 669:/usr/include/newlib/c++/9.2.1/bits/stl_vector.h ****       /**
 670:/usr/include/newlib/c++/9.2.1/bits/stl_vector.h ****        *  The dtor only erases the elements, and note that if the
 671:/usr/include/newlib/c++/9.2.1/bits/stl_vector.h ****        *  elements themselves are pointers, the pointed-to memory is
 672:/usr/include/newlib/c++/9.2.1/bits/stl_vector.h ****        *  not touched in any way.  Managing the pointer is the user's
 673:/usr/include/newlib/c++/9.2.1/bits/stl_vector.h ****        *  responsibility.
 674:/usr/include/newlib/c++/9.2.1/bits/stl_vector.h ****        */
 675:/usr/include/newlib/c++/9.2.1/bits/stl_vector.h ****       ~vector() _GLIBCXX_NOEXCEPT
  30              		.loc 1 675 7 view -0
  31              		.cfi_startproc
  32              		@ args = 0, pretend = 0, frame = 0
  33              		@ frame_needed = 0, uses_anonymous_args = 0
  34              		.loc 1 675 7 is_stmt 0 view .LVU1
  35 0000 F8B5     		push	{r3, r4, r5, r6, r7, lr}
  36              		.cfi_def_cfa_offset 24
  37              		.cfi_offset 3, -24
  38              		.cfi_offset 4, -20
  39              		.cfi_offset 5, -16
  40              		.cfi_offset 6, -12
  41              		.cfi_offset 7, -8
  42              		.cfi_offset 14, -4
  43              	.LBB7464:
 676:/usr/include/newlib/c++/9.2.1/bits/stl_vector.h ****       {
 677:/usr/include/newlib/c++/9.2.1/bits/stl_vector.h **** 	std::_Destroy(this->_M_impl._M_start, this->_M_impl._M_finish,
  44              		.loc 1 677 15 view .LVU2
  45 0002 D0E90056 		ldrd	r5, r6, [r0]
  46              	.LBE7464:
 675:/usr/include/newlib/c++/9.2.1/bits/stl_vector.h ****       {
  47              		.loc 1 675 7 view .LVU3
  48 0006 0746     		mov	r7, r0
  49              	.LVL1:
  50              	.LBB7505:
  51              	.LBB7465:
  52              	.LBI7465:
 273:/usr/include/newlib/c++/9.2.1/bits/stl_vector.h ****       { return this->_M_impl; }
  53              		.loc 1 273 7 is_stmt 1 view .LVU4
 273:/usr/include/newlib/c++/9.2.1/bits/stl_vector.h ****       { return this->_M_impl; }
  54              		.loc 1 273 7 is_stmt 0 view .LVU5
  55              	.LBE7465:
  56              	.LBB7466:
  57              	.LBI7466:
  58              		.file 2 "/usr/include/newlib/c++/9.2.1/bits/stl_construct.h"
   1:/usr/include/newlib/c++/9.2.1/bits/stl_construct.h **** // nonstandard construct and destroy functions -*- C++ -*-
   2:/usr/include/newlib/c++/9.2.1/bits/stl_construct.h **** 
   3:/usr/include/newlib/c++/9.2.1/bits/stl_construct.h **** // Copyright (C) 2001-2019 Free Software Foundation, Inc.
   4:/usr/include/newlib/c++/9.2.1/bits/stl_construct.h **** //
ARM GAS  /tmp/cco4jRmF.s 			page 14


   5:/usr/include/newlib/c++/9.2.1/bits/stl_construct.h **** // This file is part of the GNU ISO C++ Library.  This library is free
   6:/usr/include/newlib/c++/9.2.1/bits/stl_construct.h **** // software; you can redistribute it and/or modify it under the
   7:/usr/include/newlib/c++/9.2.1/bits/stl_construct.h **** // terms of the GNU General Public License as published by the
   8:/usr/include/newlib/c++/9.2.1/bits/stl_construct.h **** // Free Software Foundation; either version 3, or (at your option)
   9:/usr/include/newlib/c++/9.2.1/bits/stl_construct.h **** // any later version.
  10:/usr/include/newlib/c++/9.2.1/bits/stl_construct.h **** 
  11:/usr/include/newlib/c++/9.2.1/bits/stl_construct.h **** // This library is distributed in the hope that it will be useful,
  12:/usr/include/newlib/c++/9.2.1/bits/stl_construct.h **** // but WITHOUT ANY WARRANTY; without even the implied warranty of
  13:/usr/include/newlib/c++/9.2.1/bits/stl_construct.h **** // MERCHANTABILITY or FITNESS FOR A PARTICULAR PURPOSE.  See the
  14:/usr/include/newlib/c++/9.2.1/bits/stl_construct.h **** // GNU General Public License for more details.
  15:/usr/include/newlib/c++/9.2.1/bits/stl_construct.h **** 
  16:/usr/include/newlib/c++/9.2.1/bits/stl_construct.h **** // Under Section 7 of GPL version 3, you are granted additional
  17:/usr/include/newlib/c++/9.2.1/bits/stl_construct.h **** // permissions described in the GCC Runtime Library Exception, version
  18:/usr/include/newlib/c++/9.2.1/bits/stl_construct.h **** // 3.1, as published by the Free Software Foundation.
  19:/usr/include/newlib/c++/9.2.1/bits/stl_construct.h **** 
  20:/usr/include/newlib/c++/9.2.1/bits/stl_construct.h **** // You should have received a copy of the GNU General Public License and
  21:/usr/include/newlib/c++/9.2.1/bits/stl_construct.h **** // a copy of the GCC Runtime Library Exception along with this program;
  22:/usr/include/newlib/c++/9.2.1/bits/stl_construct.h **** // see the files COPYING3 and COPYING.RUNTIME respectively.  If not, see
  23:/usr/include/newlib/c++/9.2.1/bits/stl_construct.h **** // <http://www.gnu.org/licenses/>.
  24:/usr/include/newlib/c++/9.2.1/bits/stl_construct.h **** 
  25:/usr/include/newlib/c++/9.2.1/bits/stl_construct.h **** /*
  26:/usr/include/newlib/c++/9.2.1/bits/stl_construct.h ****  *
  27:/usr/include/newlib/c++/9.2.1/bits/stl_construct.h ****  * Copyright (c) 1994
  28:/usr/include/newlib/c++/9.2.1/bits/stl_construct.h ****  * Hewlett-Packard Company
  29:/usr/include/newlib/c++/9.2.1/bits/stl_construct.h ****  *
  30:/usr/include/newlib/c++/9.2.1/bits/stl_construct.h ****  * Permission to use, copy, modify, distribute and sell this software
  31:/usr/include/newlib/c++/9.2.1/bits/stl_construct.h ****  * and its documentation for any purpose is hereby granted without fee,
  32:/usr/include/newlib/c++/9.2.1/bits/stl_construct.h ****  * provided that the above copyright notice appear in all copies and
  33:/usr/include/newlib/c++/9.2.1/bits/stl_construct.h ****  * that both that copyright notice and this permission notice appear
  34:/usr/include/newlib/c++/9.2.1/bits/stl_construct.h ****  * in supporting documentation.  Hewlett-Packard Company makes no
  35:/usr/include/newlib/c++/9.2.1/bits/stl_construct.h ****  * representations about the suitability of this software for any
  36:/usr/include/newlib/c++/9.2.1/bits/stl_construct.h ****  * purpose.  It is provided "as is" without express or implied warranty.
  37:/usr/include/newlib/c++/9.2.1/bits/stl_construct.h ****  *
  38:/usr/include/newlib/c++/9.2.1/bits/stl_construct.h ****  *
  39:/usr/include/newlib/c++/9.2.1/bits/stl_construct.h ****  * Copyright (c) 1996,1997
  40:/usr/include/newlib/c++/9.2.1/bits/stl_construct.h ****  * Silicon Graphics Computer Systems, Inc.
  41:/usr/include/newlib/c++/9.2.1/bits/stl_construct.h ****  *
  42:/usr/include/newlib/c++/9.2.1/bits/stl_construct.h ****  * Permission to use, copy, modify, distribute and sell this software
  43:/usr/include/newlib/c++/9.2.1/bits/stl_construct.h ****  * and its documentation for any purpose is hereby granted without fee,
  44:/usr/include/newlib/c++/9.2.1/bits/stl_construct.h ****  * provided that the above copyright notice appear in all copies and
  45:/usr/include/newlib/c++/9.2.1/bits/stl_construct.h ****  * that both that copyright notice and this permission notice appear
  46:/usr/include/newlib/c++/9.2.1/bits/stl_construct.h ****  * in supporting documentation.  Silicon Graphics makes no
  47:/usr/include/newlib/c++/9.2.1/bits/stl_construct.h ****  * representations about the suitability of this software for any
  48:/usr/include/newlib/c++/9.2.1/bits/stl_construct.h ****  * purpose.  It is provided "as is" without express or implied warranty.
  49:/usr/include/newlib/c++/9.2.1/bits/stl_construct.h ****  */
  50:/usr/include/newlib/c++/9.2.1/bits/stl_construct.h **** 
  51:/usr/include/newlib/c++/9.2.1/bits/stl_construct.h **** /** @file bits/stl_construct.h
  52:/usr/include/newlib/c++/9.2.1/bits/stl_construct.h ****  *  This is an internal header file, included by other library headers.
  53:/usr/include/newlib/c++/9.2.1/bits/stl_construct.h ****  *  Do not attempt to use it directly. @headername{memory}
  54:/usr/include/newlib/c++/9.2.1/bits/stl_construct.h ****  */
  55:/usr/include/newlib/c++/9.2.1/bits/stl_construct.h **** 
  56:/usr/include/newlib/c++/9.2.1/bits/stl_construct.h **** #ifndef _STL_CONSTRUCT_H
  57:/usr/include/newlib/c++/9.2.1/bits/stl_construct.h **** #define _STL_CONSTRUCT_H 1
  58:/usr/include/newlib/c++/9.2.1/bits/stl_construct.h **** 
  59:/usr/include/newlib/c++/9.2.1/bits/stl_construct.h **** #include <new>
  60:/usr/include/newlib/c++/9.2.1/bits/stl_construct.h **** #include <bits/move.h>
  61:/usr/include/newlib/c++/9.2.1/bits/stl_construct.h **** #include <ext/alloc_traits.h>
ARM GAS  /tmp/cco4jRmF.s 			page 15


  62:/usr/include/newlib/c++/9.2.1/bits/stl_construct.h **** 
  63:/usr/include/newlib/c++/9.2.1/bits/stl_construct.h **** namespace std _GLIBCXX_VISIBILITY(default)
  64:/usr/include/newlib/c++/9.2.1/bits/stl_construct.h **** {
  65:/usr/include/newlib/c++/9.2.1/bits/stl_construct.h **** _GLIBCXX_BEGIN_NAMESPACE_VERSION
  66:/usr/include/newlib/c++/9.2.1/bits/stl_construct.h **** 
  67:/usr/include/newlib/c++/9.2.1/bits/stl_construct.h ****   /**
  68:/usr/include/newlib/c++/9.2.1/bits/stl_construct.h ****    * Constructs an object in existing memory by invoking an allocated
  69:/usr/include/newlib/c++/9.2.1/bits/stl_construct.h ****    * object's constructor with an initializer.
  70:/usr/include/newlib/c++/9.2.1/bits/stl_construct.h ****    */
  71:/usr/include/newlib/c++/9.2.1/bits/stl_construct.h **** #if __cplusplus >= 201103L
  72:/usr/include/newlib/c++/9.2.1/bits/stl_construct.h ****   template<typename _T1, typename... _Args>
  73:/usr/include/newlib/c++/9.2.1/bits/stl_construct.h ****     inline void
  74:/usr/include/newlib/c++/9.2.1/bits/stl_construct.h ****     _Construct(_T1* __p, _Args&&... __args)
  75:/usr/include/newlib/c++/9.2.1/bits/stl_construct.h ****     { ::new(static_cast<void*>(__p)) _T1(std::forward<_Args>(__args)...); }
  76:/usr/include/newlib/c++/9.2.1/bits/stl_construct.h **** #else
  77:/usr/include/newlib/c++/9.2.1/bits/stl_construct.h ****   template<typename _T1, typename _T2>
  78:/usr/include/newlib/c++/9.2.1/bits/stl_construct.h ****     inline void
  79:/usr/include/newlib/c++/9.2.1/bits/stl_construct.h ****     _Construct(_T1* __p, const _T2& __value)
  80:/usr/include/newlib/c++/9.2.1/bits/stl_construct.h ****     {
  81:/usr/include/newlib/c++/9.2.1/bits/stl_construct.h ****       // _GLIBCXX_RESOLVE_LIB_DEFECTS
  82:/usr/include/newlib/c++/9.2.1/bits/stl_construct.h ****       // 402. wrong new expression in [some_]allocator::construct
  83:/usr/include/newlib/c++/9.2.1/bits/stl_construct.h ****       ::new(static_cast<void*>(__p)) _T1(__value);
  84:/usr/include/newlib/c++/9.2.1/bits/stl_construct.h ****     }
  85:/usr/include/newlib/c++/9.2.1/bits/stl_construct.h **** #endif
  86:/usr/include/newlib/c++/9.2.1/bits/stl_construct.h **** 
  87:/usr/include/newlib/c++/9.2.1/bits/stl_construct.h ****   template<typename _T1>
  88:/usr/include/newlib/c++/9.2.1/bits/stl_construct.h ****     inline void
  89:/usr/include/newlib/c++/9.2.1/bits/stl_construct.h ****     _Construct_novalue(_T1* __p)
  90:/usr/include/newlib/c++/9.2.1/bits/stl_construct.h ****     { ::new(static_cast<void*>(__p)) _T1; }
  91:/usr/include/newlib/c++/9.2.1/bits/stl_construct.h **** 
  92:/usr/include/newlib/c++/9.2.1/bits/stl_construct.h ****   /**
  93:/usr/include/newlib/c++/9.2.1/bits/stl_construct.h ****    * Destroy the object pointed to by a pointer type.
  94:/usr/include/newlib/c++/9.2.1/bits/stl_construct.h ****    */
  95:/usr/include/newlib/c++/9.2.1/bits/stl_construct.h ****   template<typename _Tp>
  96:/usr/include/newlib/c++/9.2.1/bits/stl_construct.h ****     inline void
  97:/usr/include/newlib/c++/9.2.1/bits/stl_construct.h ****     _Destroy(_Tp* __pointer)
  98:/usr/include/newlib/c++/9.2.1/bits/stl_construct.h ****     { __pointer->~_Tp(); }
  99:/usr/include/newlib/c++/9.2.1/bits/stl_construct.h **** 
 100:/usr/include/newlib/c++/9.2.1/bits/stl_construct.h ****   template<bool>
 101:/usr/include/newlib/c++/9.2.1/bits/stl_construct.h ****     struct _Destroy_aux
 102:/usr/include/newlib/c++/9.2.1/bits/stl_construct.h ****     {
 103:/usr/include/newlib/c++/9.2.1/bits/stl_construct.h ****       template<typename _ForwardIterator>
 104:/usr/include/newlib/c++/9.2.1/bits/stl_construct.h ****         static void
 105:/usr/include/newlib/c++/9.2.1/bits/stl_construct.h ****         __destroy(_ForwardIterator __first, _ForwardIterator __last)
 106:/usr/include/newlib/c++/9.2.1/bits/stl_construct.h **** 	{
 107:/usr/include/newlib/c++/9.2.1/bits/stl_construct.h **** 	  for (; __first != __last; ++__first)
 108:/usr/include/newlib/c++/9.2.1/bits/stl_construct.h **** 	    std::_Destroy(std::__addressof(*__first));
 109:/usr/include/newlib/c++/9.2.1/bits/stl_construct.h **** 	}
 110:/usr/include/newlib/c++/9.2.1/bits/stl_construct.h ****     };
 111:/usr/include/newlib/c++/9.2.1/bits/stl_construct.h **** 
 112:/usr/include/newlib/c++/9.2.1/bits/stl_construct.h ****   template<>
 113:/usr/include/newlib/c++/9.2.1/bits/stl_construct.h ****     struct _Destroy_aux<true>
 114:/usr/include/newlib/c++/9.2.1/bits/stl_construct.h ****     {
 115:/usr/include/newlib/c++/9.2.1/bits/stl_construct.h ****       template<typename _ForwardIterator>
 116:/usr/include/newlib/c++/9.2.1/bits/stl_construct.h ****         static void
 117:/usr/include/newlib/c++/9.2.1/bits/stl_construct.h ****         __destroy(_ForwardIterator, _ForwardIterator) { }
 118:/usr/include/newlib/c++/9.2.1/bits/stl_construct.h ****     };
ARM GAS  /tmp/cco4jRmF.s 			page 16


 119:/usr/include/newlib/c++/9.2.1/bits/stl_construct.h **** 
 120:/usr/include/newlib/c++/9.2.1/bits/stl_construct.h ****   /**
 121:/usr/include/newlib/c++/9.2.1/bits/stl_construct.h ****    * Destroy a range of objects.  If the value_type of the object has
 122:/usr/include/newlib/c++/9.2.1/bits/stl_construct.h ****    * a trivial destructor, the compiler should optimize all of this
 123:/usr/include/newlib/c++/9.2.1/bits/stl_construct.h ****    * away, otherwise the objects' destructors must be invoked.
 124:/usr/include/newlib/c++/9.2.1/bits/stl_construct.h ****    */
 125:/usr/include/newlib/c++/9.2.1/bits/stl_construct.h ****   template<typename _ForwardIterator>
 126:/usr/include/newlib/c++/9.2.1/bits/stl_construct.h ****     inline void
 127:/usr/include/newlib/c++/9.2.1/bits/stl_construct.h ****     _Destroy(_ForwardIterator __first, _ForwardIterator __last)
 128:/usr/include/newlib/c++/9.2.1/bits/stl_construct.h ****     {
 129:/usr/include/newlib/c++/9.2.1/bits/stl_construct.h ****       typedef typename iterator_traits<_ForwardIterator>::value_type
 130:/usr/include/newlib/c++/9.2.1/bits/stl_construct.h ****                        _Value_type;
 131:/usr/include/newlib/c++/9.2.1/bits/stl_construct.h **** #if __cplusplus >= 201103L
 132:/usr/include/newlib/c++/9.2.1/bits/stl_construct.h ****       // A deleted destructor is trivial, this ensures we reject such types:
 133:/usr/include/newlib/c++/9.2.1/bits/stl_construct.h ****       static_assert(is_destructible<_Value_type>::value,
 134:/usr/include/newlib/c++/9.2.1/bits/stl_construct.h **** 		    "value type is destructible");
 135:/usr/include/newlib/c++/9.2.1/bits/stl_construct.h **** #endif
 136:/usr/include/newlib/c++/9.2.1/bits/stl_construct.h ****       std::_Destroy_aux<__has_trivial_destructor(_Value_type)>::
 137:/usr/include/newlib/c++/9.2.1/bits/stl_construct.h **** 	__destroy(__first, __last);
 138:/usr/include/newlib/c++/9.2.1/bits/stl_construct.h ****     }
 139:/usr/include/newlib/c++/9.2.1/bits/stl_construct.h **** 
 140:/usr/include/newlib/c++/9.2.1/bits/stl_construct.h ****   template<bool>
 141:/usr/include/newlib/c++/9.2.1/bits/stl_construct.h ****     struct _Destroy_n_aux
 142:/usr/include/newlib/c++/9.2.1/bits/stl_construct.h ****     {
 143:/usr/include/newlib/c++/9.2.1/bits/stl_construct.h ****       template<typename _ForwardIterator, typename _Size>
 144:/usr/include/newlib/c++/9.2.1/bits/stl_construct.h ****         static _ForwardIterator
 145:/usr/include/newlib/c++/9.2.1/bits/stl_construct.h ****         __destroy_n(_ForwardIterator __first, _Size __count)
 146:/usr/include/newlib/c++/9.2.1/bits/stl_construct.h **** 	{
 147:/usr/include/newlib/c++/9.2.1/bits/stl_construct.h **** 	  for (; __count > 0; (void)++__first, --__count)
 148:/usr/include/newlib/c++/9.2.1/bits/stl_construct.h **** 	    std::_Destroy(std::__addressof(*__first));
 149:/usr/include/newlib/c++/9.2.1/bits/stl_construct.h **** 	  return __first;
 150:/usr/include/newlib/c++/9.2.1/bits/stl_construct.h **** 	}
 151:/usr/include/newlib/c++/9.2.1/bits/stl_construct.h ****     };
 152:/usr/include/newlib/c++/9.2.1/bits/stl_construct.h **** 
 153:/usr/include/newlib/c++/9.2.1/bits/stl_construct.h ****   template<>
 154:/usr/include/newlib/c++/9.2.1/bits/stl_construct.h ****     struct _Destroy_n_aux<true>
 155:/usr/include/newlib/c++/9.2.1/bits/stl_construct.h ****     {
 156:/usr/include/newlib/c++/9.2.1/bits/stl_construct.h ****       template<typename _ForwardIterator, typename _Size>
 157:/usr/include/newlib/c++/9.2.1/bits/stl_construct.h ****         static _ForwardIterator
 158:/usr/include/newlib/c++/9.2.1/bits/stl_construct.h ****         __destroy_n(_ForwardIterator __first, _Size __count)
 159:/usr/include/newlib/c++/9.2.1/bits/stl_construct.h **** 	{
 160:/usr/include/newlib/c++/9.2.1/bits/stl_construct.h **** 	  std::advance(__first, __count);
 161:/usr/include/newlib/c++/9.2.1/bits/stl_construct.h **** 	  return __first;
 162:/usr/include/newlib/c++/9.2.1/bits/stl_construct.h **** 	}
 163:/usr/include/newlib/c++/9.2.1/bits/stl_construct.h ****     };
 164:/usr/include/newlib/c++/9.2.1/bits/stl_construct.h **** 
 165:/usr/include/newlib/c++/9.2.1/bits/stl_construct.h ****   /**
 166:/usr/include/newlib/c++/9.2.1/bits/stl_construct.h ****    * Destroy a range of objects.  If the value_type of the object has
 167:/usr/include/newlib/c++/9.2.1/bits/stl_construct.h ****    * a trivial destructor, the compiler should optimize all of this
 168:/usr/include/newlib/c++/9.2.1/bits/stl_construct.h ****    * away, otherwise the objects' destructors must be invoked.
 169:/usr/include/newlib/c++/9.2.1/bits/stl_construct.h ****    */
 170:/usr/include/newlib/c++/9.2.1/bits/stl_construct.h ****   template<typename _ForwardIterator, typename _Size>
 171:/usr/include/newlib/c++/9.2.1/bits/stl_construct.h ****     inline _ForwardIterator
 172:/usr/include/newlib/c++/9.2.1/bits/stl_construct.h ****     _Destroy_n(_ForwardIterator __first, _Size __count)
 173:/usr/include/newlib/c++/9.2.1/bits/stl_construct.h ****     {
 174:/usr/include/newlib/c++/9.2.1/bits/stl_construct.h ****       typedef typename iterator_traits<_ForwardIterator>::value_type
 175:/usr/include/newlib/c++/9.2.1/bits/stl_construct.h ****                        _Value_type;
ARM GAS  /tmp/cco4jRmF.s 			page 17


 176:/usr/include/newlib/c++/9.2.1/bits/stl_construct.h **** #if __cplusplus >= 201103L
 177:/usr/include/newlib/c++/9.2.1/bits/stl_construct.h ****       // A deleted destructor is trivial, this ensures we reject such types:
 178:/usr/include/newlib/c++/9.2.1/bits/stl_construct.h ****       static_assert(is_destructible<_Value_type>::value,
 179:/usr/include/newlib/c++/9.2.1/bits/stl_construct.h **** 		    "value type is destructible");
 180:/usr/include/newlib/c++/9.2.1/bits/stl_construct.h **** #endif
 181:/usr/include/newlib/c++/9.2.1/bits/stl_construct.h ****       return std::_Destroy_n_aux<__has_trivial_destructor(_Value_type)>::
 182:/usr/include/newlib/c++/9.2.1/bits/stl_construct.h **** 	__destroy_n(__first, __count);
 183:/usr/include/newlib/c++/9.2.1/bits/stl_construct.h ****     }
 184:/usr/include/newlib/c++/9.2.1/bits/stl_construct.h **** 
 185:/usr/include/newlib/c++/9.2.1/bits/stl_construct.h ****   /**
 186:/usr/include/newlib/c++/9.2.1/bits/stl_construct.h ****    * Destroy a range of objects using the supplied allocator.  For
 187:/usr/include/newlib/c++/9.2.1/bits/stl_construct.h ****    * nondefault allocators we do not optimize away invocation of 
 188:/usr/include/newlib/c++/9.2.1/bits/stl_construct.h ****    * destroy() even if _Tp has a trivial destructor.
 189:/usr/include/newlib/c++/9.2.1/bits/stl_construct.h ****    */
 190:/usr/include/newlib/c++/9.2.1/bits/stl_construct.h **** 
 191:/usr/include/newlib/c++/9.2.1/bits/stl_construct.h ****   template<typename _ForwardIterator, typename _Allocator>
 192:/usr/include/newlib/c++/9.2.1/bits/stl_construct.h ****     void
 193:/usr/include/newlib/c++/9.2.1/bits/stl_construct.h ****     _Destroy(_ForwardIterator __first, _ForwardIterator __last,
 194:/usr/include/newlib/c++/9.2.1/bits/stl_construct.h **** 	     _Allocator& __alloc)
 195:/usr/include/newlib/c++/9.2.1/bits/stl_construct.h ****     {
 196:/usr/include/newlib/c++/9.2.1/bits/stl_construct.h ****       typedef __gnu_cxx::__alloc_traits<_Allocator> __traits;
 197:/usr/include/newlib/c++/9.2.1/bits/stl_construct.h ****       for (; __first != __last; ++__first)
 198:/usr/include/newlib/c++/9.2.1/bits/stl_construct.h **** 	__traits::destroy(__alloc, std::__addressof(*__first));
 199:/usr/include/newlib/c++/9.2.1/bits/stl_construct.h ****     }
 200:/usr/include/newlib/c++/9.2.1/bits/stl_construct.h **** 
 201:/usr/include/newlib/c++/9.2.1/bits/stl_construct.h ****   template<typename _ForwardIterator, typename _Tp>
 202:/usr/include/newlib/c++/9.2.1/bits/stl_construct.h ****     inline void
 203:/usr/include/newlib/c++/9.2.1/bits/stl_construct.h ****     _Destroy(_ForwardIterator __first, _ForwardIterator __last,
  59              		.loc 2 203 5 is_stmt 1 view .LVU6
  60              	.LBB7467:
  61              	.LBB7468:
  62              	.LBB7469:
  63              	.LBB7470:
 107:/usr/include/newlib/c++/9.2.1/bits/stl_construct.h **** 	    std::_Destroy(std::__addressof(*__first));
  64              		.loc 2 107 19 view .LVU7
  65 0008 B542     		cmp	r5, r6
  66 000a 0DD0     		beq	.L2
  67 000c 05F10804 		add	r4, r5, #8
  68              	.LVL2:
  69              	.L4:
  70              	.LBB7471:
  71              	.LBI7471:
  97:/usr/include/newlib/c++/9.2.1/bits/stl_construct.h ****     { __pointer->~_Tp(); }
  72              		.loc 2 97 5 view .LVU8
  73              	.LBB7472:
  74              	.LBI7472:
  75              		.file 3 "/usr/include/newlib/c++/9.2.1/bits/basic_string.h"
   1:/usr/include/newlib/c++/9.2.1/bits/basic_string.h **** // Components for manipulating sequences of characters -*- C++ -*-
   2:/usr/include/newlib/c++/9.2.1/bits/basic_string.h **** 
   3:/usr/include/newlib/c++/9.2.1/bits/basic_string.h **** // Copyright (C) 1997-2019 Free Software Foundation, Inc.
   4:/usr/include/newlib/c++/9.2.1/bits/basic_string.h **** //
   5:/usr/include/newlib/c++/9.2.1/bits/basic_string.h **** // This file is part of the GNU ISO C++ Library.  This library is free
   6:/usr/include/newlib/c++/9.2.1/bits/basic_string.h **** // software; you can redistribute it and/or modify it under the
   7:/usr/include/newlib/c++/9.2.1/bits/basic_string.h **** // terms of the GNU General Public License as published by the
   8:/usr/include/newlib/c++/9.2.1/bits/basic_string.h **** // Free Software Foundation; either version 3, or (at your option)
   9:/usr/include/newlib/c++/9.2.1/bits/basic_string.h **** // any later version.
  10:/usr/include/newlib/c++/9.2.1/bits/basic_string.h **** 
ARM GAS  /tmp/cco4jRmF.s 			page 18


  11:/usr/include/newlib/c++/9.2.1/bits/basic_string.h **** // This library is distributed in the hope that it will be useful,
  12:/usr/include/newlib/c++/9.2.1/bits/basic_string.h **** // but WITHOUT ANY WARRANTY; without even the implied warranty of
  13:/usr/include/newlib/c++/9.2.1/bits/basic_string.h **** // MERCHANTABILITY or FITNESS FOR A PARTICULAR PURPOSE.  See the
  14:/usr/include/newlib/c++/9.2.1/bits/basic_string.h **** // GNU General Public License for more details.
  15:/usr/include/newlib/c++/9.2.1/bits/basic_string.h **** 
  16:/usr/include/newlib/c++/9.2.1/bits/basic_string.h **** // Under Section 7 of GPL version 3, you are granted additional
  17:/usr/include/newlib/c++/9.2.1/bits/basic_string.h **** // permissions described in the GCC Runtime Library Exception, version
  18:/usr/include/newlib/c++/9.2.1/bits/basic_string.h **** // 3.1, as published by the Free Software Foundation.
  19:/usr/include/newlib/c++/9.2.1/bits/basic_string.h **** 
  20:/usr/include/newlib/c++/9.2.1/bits/basic_string.h **** // You should have received a copy of the GNU General Public License and
  21:/usr/include/newlib/c++/9.2.1/bits/basic_string.h **** // a copy of the GCC Runtime Library Exception along with this program;
  22:/usr/include/newlib/c++/9.2.1/bits/basic_string.h **** // see the files COPYING3 and COPYING.RUNTIME respectively.  If not, see
  23:/usr/include/newlib/c++/9.2.1/bits/basic_string.h **** // <http://www.gnu.org/licenses/>.
  24:/usr/include/newlib/c++/9.2.1/bits/basic_string.h **** 
  25:/usr/include/newlib/c++/9.2.1/bits/basic_string.h **** /** @file bits/basic_string.h
  26:/usr/include/newlib/c++/9.2.1/bits/basic_string.h ****  *  This is an internal header file, included by other library headers.
  27:/usr/include/newlib/c++/9.2.1/bits/basic_string.h ****  *  Do not attempt to use it directly. @headername{string}
  28:/usr/include/newlib/c++/9.2.1/bits/basic_string.h ****  */
  29:/usr/include/newlib/c++/9.2.1/bits/basic_string.h **** 
  30:/usr/include/newlib/c++/9.2.1/bits/basic_string.h **** //
  31:/usr/include/newlib/c++/9.2.1/bits/basic_string.h **** // ISO C++ 14882: 21 Strings library
  32:/usr/include/newlib/c++/9.2.1/bits/basic_string.h **** //
  33:/usr/include/newlib/c++/9.2.1/bits/basic_string.h **** 
  34:/usr/include/newlib/c++/9.2.1/bits/basic_string.h **** #ifndef _BASIC_STRING_H
  35:/usr/include/newlib/c++/9.2.1/bits/basic_string.h **** #define _BASIC_STRING_H 1
  36:/usr/include/newlib/c++/9.2.1/bits/basic_string.h **** 
  37:/usr/include/newlib/c++/9.2.1/bits/basic_string.h **** #pragma GCC system_header
  38:/usr/include/newlib/c++/9.2.1/bits/basic_string.h **** 
  39:/usr/include/newlib/c++/9.2.1/bits/basic_string.h **** #include <ext/atomicity.h>
  40:/usr/include/newlib/c++/9.2.1/bits/basic_string.h **** #include <ext/alloc_traits.h>
  41:/usr/include/newlib/c++/9.2.1/bits/basic_string.h **** #include <debug/debug.h>
  42:/usr/include/newlib/c++/9.2.1/bits/basic_string.h **** 
  43:/usr/include/newlib/c++/9.2.1/bits/basic_string.h **** #if __cplusplus >= 201103L
  44:/usr/include/newlib/c++/9.2.1/bits/basic_string.h **** #include <initializer_list>
  45:/usr/include/newlib/c++/9.2.1/bits/basic_string.h **** #endif
  46:/usr/include/newlib/c++/9.2.1/bits/basic_string.h **** 
  47:/usr/include/newlib/c++/9.2.1/bits/basic_string.h **** #if __cplusplus >= 201703L
  48:/usr/include/newlib/c++/9.2.1/bits/basic_string.h **** # include <string_view>
  49:/usr/include/newlib/c++/9.2.1/bits/basic_string.h **** #endif
  50:/usr/include/newlib/c++/9.2.1/bits/basic_string.h **** 
  51:/usr/include/newlib/c++/9.2.1/bits/basic_string.h **** 
  52:/usr/include/newlib/c++/9.2.1/bits/basic_string.h **** namespace std _GLIBCXX_VISIBILITY(default)
  53:/usr/include/newlib/c++/9.2.1/bits/basic_string.h **** {
  54:/usr/include/newlib/c++/9.2.1/bits/basic_string.h **** _GLIBCXX_BEGIN_NAMESPACE_VERSION
  55:/usr/include/newlib/c++/9.2.1/bits/basic_string.h **** 
  56:/usr/include/newlib/c++/9.2.1/bits/basic_string.h **** #if _GLIBCXX_USE_CXX11_ABI
  57:/usr/include/newlib/c++/9.2.1/bits/basic_string.h **** _GLIBCXX_BEGIN_NAMESPACE_CXX11
  58:/usr/include/newlib/c++/9.2.1/bits/basic_string.h ****   /**
  59:/usr/include/newlib/c++/9.2.1/bits/basic_string.h ****    *  @class basic_string basic_string.h <string>
  60:/usr/include/newlib/c++/9.2.1/bits/basic_string.h ****    *  @brief  Managing sequences of characters and character-like objects.
  61:/usr/include/newlib/c++/9.2.1/bits/basic_string.h ****    *
  62:/usr/include/newlib/c++/9.2.1/bits/basic_string.h ****    *  @ingroup strings
  63:/usr/include/newlib/c++/9.2.1/bits/basic_string.h ****    *  @ingroup sequences
  64:/usr/include/newlib/c++/9.2.1/bits/basic_string.h ****    *
  65:/usr/include/newlib/c++/9.2.1/bits/basic_string.h ****    *  @tparam _CharT  Type of character
  66:/usr/include/newlib/c++/9.2.1/bits/basic_string.h ****    *  @tparam _Traits  Traits for character type, defaults to
  67:/usr/include/newlib/c++/9.2.1/bits/basic_string.h ****    *                   char_traits<_CharT>.
ARM GAS  /tmp/cco4jRmF.s 			page 19


  68:/usr/include/newlib/c++/9.2.1/bits/basic_string.h ****    *  @tparam _Alloc  Allocator type, defaults to allocator<_CharT>.
  69:/usr/include/newlib/c++/9.2.1/bits/basic_string.h ****    *
  70:/usr/include/newlib/c++/9.2.1/bits/basic_string.h ****    *  Meets the requirements of a <a href="tables.html#65">container</a>, a
  71:/usr/include/newlib/c++/9.2.1/bits/basic_string.h ****    *  <a href="tables.html#66">reversible container</a>, and a
  72:/usr/include/newlib/c++/9.2.1/bits/basic_string.h ****    *  <a href="tables.html#67">sequence</a>.  Of the
  73:/usr/include/newlib/c++/9.2.1/bits/basic_string.h ****    *  <a href="tables.html#68">optional sequence requirements</a>, only
  74:/usr/include/newlib/c++/9.2.1/bits/basic_string.h ****    *  @c push_back, @c at, and @c %array access are supported.
  75:/usr/include/newlib/c++/9.2.1/bits/basic_string.h ****    */
  76:/usr/include/newlib/c++/9.2.1/bits/basic_string.h ****   template<typename _CharT, typename _Traits, typename _Alloc>
  77:/usr/include/newlib/c++/9.2.1/bits/basic_string.h ****     class basic_string
  78:/usr/include/newlib/c++/9.2.1/bits/basic_string.h ****     {
  79:/usr/include/newlib/c++/9.2.1/bits/basic_string.h ****       typedef typename __gnu_cxx::__alloc_traits<_Alloc>::template
  80:/usr/include/newlib/c++/9.2.1/bits/basic_string.h **** 	rebind<_CharT>::other _Char_alloc_type;
  81:/usr/include/newlib/c++/9.2.1/bits/basic_string.h ****       typedef __gnu_cxx::__alloc_traits<_Char_alloc_type> _Alloc_traits;
  82:/usr/include/newlib/c++/9.2.1/bits/basic_string.h **** 
  83:/usr/include/newlib/c++/9.2.1/bits/basic_string.h ****       // Types:
  84:/usr/include/newlib/c++/9.2.1/bits/basic_string.h ****     public:
  85:/usr/include/newlib/c++/9.2.1/bits/basic_string.h ****       typedef _Traits					traits_type;
  86:/usr/include/newlib/c++/9.2.1/bits/basic_string.h ****       typedef typename _Traits::char_type		value_type;
  87:/usr/include/newlib/c++/9.2.1/bits/basic_string.h ****       typedef _Char_alloc_type				allocator_type;
  88:/usr/include/newlib/c++/9.2.1/bits/basic_string.h ****       typedef typename _Alloc_traits::size_type		size_type;
  89:/usr/include/newlib/c++/9.2.1/bits/basic_string.h ****       typedef typename _Alloc_traits::difference_type	difference_type;
  90:/usr/include/newlib/c++/9.2.1/bits/basic_string.h ****       typedef typename _Alloc_traits::reference		reference;
  91:/usr/include/newlib/c++/9.2.1/bits/basic_string.h ****       typedef typename _Alloc_traits::const_reference	const_reference;
  92:/usr/include/newlib/c++/9.2.1/bits/basic_string.h ****       typedef typename _Alloc_traits::pointer		pointer;
  93:/usr/include/newlib/c++/9.2.1/bits/basic_string.h ****       typedef typename _Alloc_traits::const_pointer	const_pointer;
  94:/usr/include/newlib/c++/9.2.1/bits/basic_string.h ****       typedef __gnu_cxx::__normal_iterator<pointer, basic_string>  iterator;
  95:/usr/include/newlib/c++/9.2.1/bits/basic_string.h ****       typedef __gnu_cxx::__normal_iterator<const_pointer, basic_string>
  96:/usr/include/newlib/c++/9.2.1/bits/basic_string.h **** 							const_iterator;
  97:/usr/include/newlib/c++/9.2.1/bits/basic_string.h ****       typedef std::reverse_iterator<const_iterator>	const_reverse_iterator;
  98:/usr/include/newlib/c++/9.2.1/bits/basic_string.h ****       typedef std::reverse_iterator<iterator>		reverse_iterator;
  99:/usr/include/newlib/c++/9.2.1/bits/basic_string.h **** 
 100:/usr/include/newlib/c++/9.2.1/bits/basic_string.h ****       ///  Value returned by various member functions when they fail.
 101:/usr/include/newlib/c++/9.2.1/bits/basic_string.h ****       static const size_type	npos = static_cast<size_type>(-1);
 102:/usr/include/newlib/c++/9.2.1/bits/basic_string.h **** 
 103:/usr/include/newlib/c++/9.2.1/bits/basic_string.h ****     protected:
 104:/usr/include/newlib/c++/9.2.1/bits/basic_string.h ****       // type used for positions in insert, erase etc.
 105:/usr/include/newlib/c++/9.2.1/bits/basic_string.h **** #if __cplusplus < 201103L
 106:/usr/include/newlib/c++/9.2.1/bits/basic_string.h ****       typedef iterator __const_iterator;
 107:/usr/include/newlib/c++/9.2.1/bits/basic_string.h **** #else
 108:/usr/include/newlib/c++/9.2.1/bits/basic_string.h ****       typedef const_iterator __const_iterator;
 109:/usr/include/newlib/c++/9.2.1/bits/basic_string.h **** #endif
 110:/usr/include/newlib/c++/9.2.1/bits/basic_string.h **** 
 111:/usr/include/newlib/c++/9.2.1/bits/basic_string.h ****     private:
 112:/usr/include/newlib/c++/9.2.1/bits/basic_string.h **** #if __cplusplus >= 201703L
 113:/usr/include/newlib/c++/9.2.1/bits/basic_string.h ****       // A helper type for avoiding boiler-plate.
 114:/usr/include/newlib/c++/9.2.1/bits/basic_string.h ****       typedef basic_string_view<_CharT, _Traits> __sv_type;
 115:/usr/include/newlib/c++/9.2.1/bits/basic_string.h **** 
 116:/usr/include/newlib/c++/9.2.1/bits/basic_string.h ****       template<typename _Tp, typename _Res>
 117:/usr/include/newlib/c++/9.2.1/bits/basic_string.h **** 	using _If_sv = enable_if_t<
 118:/usr/include/newlib/c++/9.2.1/bits/basic_string.h **** 	  __and_<is_convertible<const _Tp&, __sv_type>,
 119:/usr/include/newlib/c++/9.2.1/bits/basic_string.h **** 		 __not_<is_convertible<const _Tp*, const basic_string*>>,
 120:/usr/include/newlib/c++/9.2.1/bits/basic_string.h **** 		 __not_<is_convertible<const _Tp&, const _CharT*>>>::value,
 121:/usr/include/newlib/c++/9.2.1/bits/basic_string.h **** 	  _Res>;
 122:/usr/include/newlib/c++/9.2.1/bits/basic_string.h **** 
 123:/usr/include/newlib/c++/9.2.1/bits/basic_string.h ****       // Allows an implicit conversion to __sv_type.
 124:/usr/include/newlib/c++/9.2.1/bits/basic_string.h ****       static __sv_type
ARM GAS  /tmp/cco4jRmF.s 			page 20


 125:/usr/include/newlib/c++/9.2.1/bits/basic_string.h ****       _S_to_string_view(__sv_type __svt) noexcept
 126:/usr/include/newlib/c++/9.2.1/bits/basic_string.h ****       { return __svt; }
 127:/usr/include/newlib/c++/9.2.1/bits/basic_string.h **** 
 128:/usr/include/newlib/c++/9.2.1/bits/basic_string.h ****       // Wraps a string_view by explicit conversion and thus
 129:/usr/include/newlib/c++/9.2.1/bits/basic_string.h ****       // allows to add an internal constructor that does not
 130:/usr/include/newlib/c++/9.2.1/bits/basic_string.h ****       // participate in overload resolution when a string_view
 131:/usr/include/newlib/c++/9.2.1/bits/basic_string.h ****       // is provided.
 132:/usr/include/newlib/c++/9.2.1/bits/basic_string.h ****       struct __sv_wrapper
 133:/usr/include/newlib/c++/9.2.1/bits/basic_string.h ****       {
 134:/usr/include/newlib/c++/9.2.1/bits/basic_string.h **** 	explicit __sv_wrapper(__sv_type __sv) noexcept : _M_sv(__sv) { }
 135:/usr/include/newlib/c++/9.2.1/bits/basic_string.h **** 	__sv_type _M_sv;
 136:/usr/include/newlib/c++/9.2.1/bits/basic_string.h ****       };
 137:/usr/include/newlib/c++/9.2.1/bits/basic_string.h **** 
 138:/usr/include/newlib/c++/9.2.1/bits/basic_string.h ****       /**
 139:/usr/include/newlib/c++/9.2.1/bits/basic_string.h ****        *  @brief  Only internally used: Construct string from a string view
 140:/usr/include/newlib/c++/9.2.1/bits/basic_string.h ****        *          wrapper.
 141:/usr/include/newlib/c++/9.2.1/bits/basic_string.h ****        *  @param  __svw  string view wrapper.
 142:/usr/include/newlib/c++/9.2.1/bits/basic_string.h ****        *  @param  __a  Allocator to use.
 143:/usr/include/newlib/c++/9.2.1/bits/basic_string.h ****        */
 144:/usr/include/newlib/c++/9.2.1/bits/basic_string.h ****       explicit
 145:/usr/include/newlib/c++/9.2.1/bits/basic_string.h ****       basic_string(__sv_wrapper __svw, const _Alloc& __a)
 146:/usr/include/newlib/c++/9.2.1/bits/basic_string.h ****       : basic_string(__svw._M_sv.data(), __svw._M_sv.size(), __a) { }
 147:/usr/include/newlib/c++/9.2.1/bits/basic_string.h **** #endif
 148:/usr/include/newlib/c++/9.2.1/bits/basic_string.h **** 
 149:/usr/include/newlib/c++/9.2.1/bits/basic_string.h ****       // Use empty-base optimization: http://www.cantrip.org/emptyopt.html
 150:/usr/include/newlib/c++/9.2.1/bits/basic_string.h ****       struct _Alloc_hider : allocator_type // TODO check __is_final
 151:/usr/include/newlib/c++/9.2.1/bits/basic_string.h ****       {
 152:/usr/include/newlib/c++/9.2.1/bits/basic_string.h **** #if __cplusplus < 201103L
 153:/usr/include/newlib/c++/9.2.1/bits/basic_string.h **** 	_Alloc_hider(pointer __dat, const _Alloc& __a = _Alloc())
 154:/usr/include/newlib/c++/9.2.1/bits/basic_string.h **** 	: allocator_type(__a), _M_p(__dat) { }
 155:/usr/include/newlib/c++/9.2.1/bits/basic_string.h **** #else
 156:/usr/include/newlib/c++/9.2.1/bits/basic_string.h **** 	_Alloc_hider(pointer __dat, const _Alloc& __a)
 157:/usr/include/newlib/c++/9.2.1/bits/basic_string.h **** 	: allocator_type(__a), _M_p(__dat) { }
 158:/usr/include/newlib/c++/9.2.1/bits/basic_string.h **** 
 159:/usr/include/newlib/c++/9.2.1/bits/basic_string.h **** 	_Alloc_hider(pointer __dat, _Alloc&& __a = _Alloc())
 160:/usr/include/newlib/c++/9.2.1/bits/basic_string.h **** 	: allocator_type(std::move(__a)), _M_p(__dat) { }
 161:/usr/include/newlib/c++/9.2.1/bits/basic_string.h **** #endif
 162:/usr/include/newlib/c++/9.2.1/bits/basic_string.h **** 
 163:/usr/include/newlib/c++/9.2.1/bits/basic_string.h **** 	pointer _M_p; // The actual data.
 164:/usr/include/newlib/c++/9.2.1/bits/basic_string.h ****       };
 165:/usr/include/newlib/c++/9.2.1/bits/basic_string.h **** 
 166:/usr/include/newlib/c++/9.2.1/bits/basic_string.h ****       _Alloc_hider	_M_dataplus;
 167:/usr/include/newlib/c++/9.2.1/bits/basic_string.h ****       size_type		_M_string_length;
 168:/usr/include/newlib/c++/9.2.1/bits/basic_string.h **** 
 169:/usr/include/newlib/c++/9.2.1/bits/basic_string.h ****       enum { _S_local_capacity = 15 / sizeof(_CharT) };
 170:/usr/include/newlib/c++/9.2.1/bits/basic_string.h **** 
 171:/usr/include/newlib/c++/9.2.1/bits/basic_string.h ****       union
 172:/usr/include/newlib/c++/9.2.1/bits/basic_string.h ****       {
 173:/usr/include/newlib/c++/9.2.1/bits/basic_string.h **** 	_CharT           _M_local_buf[_S_local_capacity + 1];
 174:/usr/include/newlib/c++/9.2.1/bits/basic_string.h **** 	size_type        _M_allocated_capacity;
 175:/usr/include/newlib/c++/9.2.1/bits/basic_string.h ****       };
 176:/usr/include/newlib/c++/9.2.1/bits/basic_string.h **** 
 177:/usr/include/newlib/c++/9.2.1/bits/basic_string.h ****       void
 178:/usr/include/newlib/c++/9.2.1/bits/basic_string.h ****       _M_data(pointer __p)
 179:/usr/include/newlib/c++/9.2.1/bits/basic_string.h ****       { _M_dataplus._M_p = __p; }
 180:/usr/include/newlib/c++/9.2.1/bits/basic_string.h **** 
 181:/usr/include/newlib/c++/9.2.1/bits/basic_string.h ****       void
ARM GAS  /tmp/cco4jRmF.s 			page 21


 182:/usr/include/newlib/c++/9.2.1/bits/basic_string.h ****       _M_length(size_type __length)
 183:/usr/include/newlib/c++/9.2.1/bits/basic_string.h ****       { _M_string_length = __length; }
 184:/usr/include/newlib/c++/9.2.1/bits/basic_string.h **** 
 185:/usr/include/newlib/c++/9.2.1/bits/basic_string.h ****       pointer
 186:/usr/include/newlib/c++/9.2.1/bits/basic_string.h ****       _M_data() const
 187:/usr/include/newlib/c++/9.2.1/bits/basic_string.h ****       { return _M_dataplus._M_p; }
 188:/usr/include/newlib/c++/9.2.1/bits/basic_string.h **** 
 189:/usr/include/newlib/c++/9.2.1/bits/basic_string.h ****       pointer
 190:/usr/include/newlib/c++/9.2.1/bits/basic_string.h ****       _M_local_data()
 191:/usr/include/newlib/c++/9.2.1/bits/basic_string.h ****       {
 192:/usr/include/newlib/c++/9.2.1/bits/basic_string.h **** #if __cplusplus >= 201103L
 193:/usr/include/newlib/c++/9.2.1/bits/basic_string.h **** 	return std::pointer_traits<pointer>::pointer_to(*_M_local_buf);
 194:/usr/include/newlib/c++/9.2.1/bits/basic_string.h **** #else
 195:/usr/include/newlib/c++/9.2.1/bits/basic_string.h **** 	return pointer(_M_local_buf);
 196:/usr/include/newlib/c++/9.2.1/bits/basic_string.h **** #endif
 197:/usr/include/newlib/c++/9.2.1/bits/basic_string.h ****       }
 198:/usr/include/newlib/c++/9.2.1/bits/basic_string.h **** 
 199:/usr/include/newlib/c++/9.2.1/bits/basic_string.h ****       const_pointer
 200:/usr/include/newlib/c++/9.2.1/bits/basic_string.h ****       _M_local_data() const
 201:/usr/include/newlib/c++/9.2.1/bits/basic_string.h ****       {
 202:/usr/include/newlib/c++/9.2.1/bits/basic_string.h **** #if __cplusplus >= 201103L
 203:/usr/include/newlib/c++/9.2.1/bits/basic_string.h **** 	return std::pointer_traits<const_pointer>::pointer_to(*_M_local_buf);
 204:/usr/include/newlib/c++/9.2.1/bits/basic_string.h **** #else
 205:/usr/include/newlib/c++/9.2.1/bits/basic_string.h **** 	return const_pointer(_M_local_buf);
 206:/usr/include/newlib/c++/9.2.1/bits/basic_string.h **** #endif
 207:/usr/include/newlib/c++/9.2.1/bits/basic_string.h ****       }
 208:/usr/include/newlib/c++/9.2.1/bits/basic_string.h **** 
 209:/usr/include/newlib/c++/9.2.1/bits/basic_string.h ****       void
 210:/usr/include/newlib/c++/9.2.1/bits/basic_string.h ****       _M_capacity(size_type __capacity)
 211:/usr/include/newlib/c++/9.2.1/bits/basic_string.h ****       { _M_allocated_capacity = __capacity; }
 212:/usr/include/newlib/c++/9.2.1/bits/basic_string.h **** 
 213:/usr/include/newlib/c++/9.2.1/bits/basic_string.h ****       void
 214:/usr/include/newlib/c++/9.2.1/bits/basic_string.h ****       _M_set_length(size_type __n)
 215:/usr/include/newlib/c++/9.2.1/bits/basic_string.h ****       {
 216:/usr/include/newlib/c++/9.2.1/bits/basic_string.h **** 	_M_length(__n);
 217:/usr/include/newlib/c++/9.2.1/bits/basic_string.h **** 	traits_type::assign(_M_data()[__n], _CharT());
 218:/usr/include/newlib/c++/9.2.1/bits/basic_string.h ****       }
 219:/usr/include/newlib/c++/9.2.1/bits/basic_string.h **** 
 220:/usr/include/newlib/c++/9.2.1/bits/basic_string.h ****       bool
 221:/usr/include/newlib/c++/9.2.1/bits/basic_string.h ****       _M_is_local() const
 222:/usr/include/newlib/c++/9.2.1/bits/basic_string.h ****       { return _M_data() == _M_local_data(); }
 223:/usr/include/newlib/c++/9.2.1/bits/basic_string.h **** 
 224:/usr/include/newlib/c++/9.2.1/bits/basic_string.h ****       // Create & Destroy
 225:/usr/include/newlib/c++/9.2.1/bits/basic_string.h ****       pointer
 226:/usr/include/newlib/c++/9.2.1/bits/basic_string.h ****       _M_create(size_type&, size_type);
 227:/usr/include/newlib/c++/9.2.1/bits/basic_string.h **** 
 228:/usr/include/newlib/c++/9.2.1/bits/basic_string.h ****       void
 229:/usr/include/newlib/c++/9.2.1/bits/basic_string.h ****       _M_dispose()
 230:/usr/include/newlib/c++/9.2.1/bits/basic_string.h ****       {
 231:/usr/include/newlib/c++/9.2.1/bits/basic_string.h **** 	if (!_M_is_local())
 232:/usr/include/newlib/c++/9.2.1/bits/basic_string.h **** 	  _M_destroy(_M_allocated_capacity);
 233:/usr/include/newlib/c++/9.2.1/bits/basic_string.h ****       }
 234:/usr/include/newlib/c++/9.2.1/bits/basic_string.h **** 
 235:/usr/include/newlib/c++/9.2.1/bits/basic_string.h ****       void
 236:/usr/include/newlib/c++/9.2.1/bits/basic_string.h ****       _M_destroy(size_type __size) throw()
 237:/usr/include/newlib/c++/9.2.1/bits/basic_string.h ****       { _Alloc_traits::deallocate(_M_get_allocator(), _M_data(), __size + 1); }
 238:/usr/include/newlib/c++/9.2.1/bits/basic_string.h **** 
ARM GAS  /tmp/cco4jRmF.s 			page 22


 239:/usr/include/newlib/c++/9.2.1/bits/basic_string.h ****       // _M_construct_aux is used to implement the 21.3.1 para 15 which
 240:/usr/include/newlib/c++/9.2.1/bits/basic_string.h ****       // requires special behaviour if _InIterator is an integral type
 241:/usr/include/newlib/c++/9.2.1/bits/basic_string.h ****       template<typename _InIterator>
 242:/usr/include/newlib/c++/9.2.1/bits/basic_string.h ****         void
 243:/usr/include/newlib/c++/9.2.1/bits/basic_string.h ****         _M_construct_aux(_InIterator __beg, _InIterator __end,
 244:/usr/include/newlib/c++/9.2.1/bits/basic_string.h **** 			 std::__false_type)
 245:/usr/include/newlib/c++/9.2.1/bits/basic_string.h **** 	{
 246:/usr/include/newlib/c++/9.2.1/bits/basic_string.h ****           typedef typename iterator_traits<_InIterator>::iterator_category _Tag;
 247:/usr/include/newlib/c++/9.2.1/bits/basic_string.h ****           _M_construct(__beg, __end, _Tag());
 248:/usr/include/newlib/c++/9.2.1/bits/basic_string.h **** 	}
 249:/usr/include/newlib/c++/9.2.1/bits/basic_string.h **** 
 250:/usr/include/newlib/c++/9.2.1/bits/basic_string.h ****       // _GLIBCXX_RESOLVE_LIB_DEFECTS
 251:/usr/include/newlib/c++/9.2.1/bits/basic_string.h ****       // 438. Ambiguity in the "do the right thing" clause
 252:/usr/include/newlib/c++/9.2.1/bits/basic_string.h ****       template<typename _Integer>
 253:/usr/include/newlib/c++/9.2.1/bits/basic_string.h ****         void
 254:/usr/include/newlib/c++/9.2.1/bits/basic_string.h ****         _M_construct_aux(_Integer __beg, _Integer __end, std::__true_type)
 255:/usr/include/newlib/c++/9.2.1/bits/basic_string.h **** 	{ _M_construct_aux_2(static_cast<size_type>(__beg), __end); }
 256:/usr/include/newlib/c++/9.2.1/bits/basic_string.h **** 
 257:/usr/include/newlib/c++/9.2.1/bits/basic_string.h ****       void
 258:/usr/include/newlib/c++/9.2.1/bits/basic_string.h ****       _M_construct_aux_2(size_type __req, _CharT __c)
 259:/usr/include/newlib/c++/9.2.1/bits/basic_string.h ****       { _M_construct(__req, __c); }
 260:/usr/include/newlib/c++/9.2.1/bits/basic_string.h **** 
 261:/usr/include/newlib/c++/9.2.1/bits/basic_string.h ****       template<typename _InIterator>
 262:/usr/include/newlib/c++/9.2.1/bits/basic_string.h ****         void
 263:/usr/include/newlib/c++/9.2.1/bits/basic_string.h ****         _M_construct(_InIterator __beg, _InIterator __end)
 264:/usr/include/newlib/c++/9.2.1/bits/basic_string.h **** 	{
 265:/usr/include/newlib/c++/9.2.1/bits/basic_string.h **** 	  typedef typename std::__is_integer<_InIterator>::__type _Integral;
 266:/usr/include/newlib/c++/9.2.1/bits/basic_string.h **** 	  _M_construct_aux(__beg, __end, _Integral());
 267:/usr/include/newlib/c++/9.2.1/bits/basic_string.h ****         }
 268:/usr/include/newlib/c++/9.2.1/bits/basic_string.h **** 
 269:/usr/include/newlib/c++/9.2.1/bits/basic_string.h ****       // For Input Iterators, used in istreambuf_iterators, etc.
 270:/usr/include/newlib/c++/9.2.1/bits/basic_string.h ****       template<typename _InIterator>
 271:/usr/include/newlib/c++/9.2.1/bits/basic_string.h ****         void
 272:/usr/include/newlib/c++/9.2.1/bits/basic_string.h ****         _M_construct(_InIterator __beg, _InIterator __end,
 273:/usr/include/newlib/c++/9.2.1/bits/basic_string.h **** 		     std::input_iterator_tag);
 274:/usr/include/newlib/c++/9.2.1/bits/basic_string.h **** 
 275:/usr/include/newlib/c++/9.2.1/bits/basic_string.h ****       // For forward_iterators up to random_access_iterators, used for
 276:/usr/include/newlib/c++/9.2.1/bits/basic_string.h ****       // string::iterator, _CharT*, etc.
 277:/usr/include/newlib/c++/9.2.1/bits/basic_string.h ****       template<typename _FwdIterator>
 278:/usr/include/newlib/c++/9.2.1/bits/basic_string.h ****         void
 279:/usr/include/newlib/c++/9.2.1/bits/basic_string.h ****         _M_construct(_FwdIterator __beg, _FwdIterator __end,
 280:/usr/include/newlib/c++/9.2.1/bits/basic_string.h **** 		     std::forward_iterator_tag);
 281:/usr/include/newlib/c++/9.2.1/bits/basic_string.h **** 
 282:/usr/include/newlib/c++/9.2.1/bits/basic_string.h ****       void
 283:/usr/include/newlib/c++/9.2.1/bits/basic_string.h ****       _M_construct(size_type __req, _CharT __c);
 284:/usr/include/newlib/c++/9.2.1/bits/basic_string.h **** 
 285:/usr/include/newlib/c++/9.2.1/bits/basic_string.h ****       allocator_type&
 286:/usr/include/newlib/c++/9.2.1/bits/basic_string.h ****       _M_get_allocator()
 287:/usr/include/newlib/c++/9.2.1/bits/basic_string.h ****       { return _M_dataplus; }
 288:/usr/include/newlib/c++/9.2.1/bits/basic_string.h **** 
 289:/usr/include/newlib/c++/9.2.1/bits/basic_string.h ****       const allocator_type&
 290:/usr/include/newlib/c++/9.2.1/bits/basic_string.h ****       _M_get_allocator() const
 291:/usr/include/newlib/c++/9.2.1/bits/basic_string.h ****       { return _M_dataplus; }
 292:/usr/include/newlib/c++/9.2.1/bits/basic_string.h **** 
 293:/usr/include/newlib/c++/9.2.1/bits/basic_string.h ****     private:
 294:/usr/include/newlib/c++/9.2.1/bits/basic_string.h **** 
 295:/usr/include/newlib/c++/9.2.1/bits/basic_string.h **** #ifdef _GLIBCXX_DISAMBIGUATE_REPLACE_INST
ARM GAS  /tmp/cco4jRmF.s 			page 23


 296:/usr/include/newlib/c++/9.2.1/bits/basic_string.h ****       // The explicit instantiations in misc-inst.cc require this due to
 297:/usr/include/newlib/c++/9.2.1/bits/basic_string.h ****       // https://gcc.gnu.org/bugzilla/show_bug.cgi?id=64063
 298:/usr/include/newlib/c++/9.2.1/bits/basic_string.h ****       template<typename _Tp, bool _Requires =
 299:/usr/include/newlib/c++/9.2.1/bits/basic_string.h **** 	       !__are_same<_Tp, _CharT*>::__value
 300:/usr/include/newlib/c++/9.2.1/bits/basic_string.h **** 	       && !__are_same<_Tp, const _CharT*>::__value
 301:/usr/include/newlib/c++/9.2.1/bits/basic_string.h **** 	       && !__are_same<_Tp, iterator>::__value
 302:/usr/include/newlib/c++/9.2.1/bits/basic_string.h **** 	       && !__are_same<_Tp, const_iterator>::__value>
 303:/usr/include/newlib/c++/9.2.1/bits/basic_string.h **** 	struct __enable_if_not_native_iterator
 304:/usr/include/newlib/c++/9.2.1/bits/basic_string.h **** 	{ typedef basic_string& __type; };
 305:/usr/include/newlib/c++/9.2.1/bits/basic_string.h ****       template<typename _Tp>
 306:/usr/include/newlib/c++/9.2.1/bits/basic_string.h **** 	struct __enable_if_not_native_iterator<_Tp, false> { };
 307:/usr/include/newlib/c++/9.2.1/bits/basic_string.h **** #endif
 308:/usr/include/newlib/c++/9.2.1/bits/basic_string.h **** 
 309:/usr/include/newlib/c++/9.2.1/bits/basic_string.h ****       size_type
 310:/usr/include/newlib/c++/9.2.1/bits/basic_string.h ****       _M_check(size_type __pos, const char* __s) const
 311:/usr/include/newlib/c++/9.2.1/bits/basic_string.h ****       {
 312:/usr/include/newlib/c++/9.2.1/bits/basic_string.h **** 	if (__pos > this->size())
 313:/usr/include/newlib/c++/9.2.1/bits/basic_string.h **** 	  __throw_out_of_range_fmt(__N("%s: __pos (which is %zu) > "
 314:/usr/include/newlib/c++/9.2.1/bits/basic_string.h **** 				       "this->size() (which is %zu)"),
 315:/usr/include/newlib/c++/9.2.1/bits/basic_string.h **** 				   __s, __pos, this->size());
 316:/usr/include/newlib/c++/9.2.1/bits/basic_string.h **** 	return __pos;
 317:/usr/include/newlib/c++/9.2.1/bits/basic_string.h ****       }
 318:/usr/include/newlib/c++/9.2.1/bits/basic_string.h **** 
 319:/usr/include/newlib/c++/9.2.1/bits/basic_string.h ****       void
 320:/usr/include/newlib/c++/9.2.1/bits/basic_string.h ****       _M_check_length(size_type __n1, size_type __n2, const char* __s) const
 321:/usr/include/newlib/c++/9.2.1/bits/basic_string.h ****       {
 322:/usr/include/newlib/c++/9.2.1/bits/basic_string.h **** 	if (this->max_size() - (this->size() - __n1) < __n2)
 323:/usr/include/newlib/c++/9.2.1/bits/basic_string.h **** 	  __throw_length_error(__N(__s));
 324:/usr/include/newlib/c++/9.2.1/bits/basic_string.h ****       }
 325:/usr/include/newlib/c++/9.2.1/bits/basic_string.h **** 
 326:/usr/include/newlib/c++/9.2.1/bits/basic_string.h **** 
 327:/usr/include/newlib/c++/9.2.1/bits/basic_string.h ****       // NB: _M_limit doesn't check for a bad __pos value.
 328:/usr/include/newlib/c++/9.2.1/bits/basic_string.h ****       size_type
 329:/usr/include/newlib/c++/9.2.1/bits/basic_string.h ****       _M_limit(size_type __pos, size_type __off) const _GLIBCXX_NOEXCEPT
 330:/usr/include/newlib/c++/9.2.1/bits/basic_string.h ****       {
 331:/usr/include/newlib/c++/9.2.1/bits/basic_string.h **** 	const bool __testoff =  __off < this->size() - __pos;
 332:/usr/include/newlib/c++/9.2.1/bits/basic_string.h **** 	return __testoff ? __off : this->size() - __pos;
 333:/usr/include/newlib/c++/9.2.1/bits/basic_string.h ****       }
 334:/usr/include/newlib/c++/9.2.1/bits/basic_string.h **** 
 335:/usr/include/newlib/c++/9.2.1/bits/basic_string.h ****       // True if _Rep and source do not overlap.
 336:/usr/include/newlib/c++/9.2.1/bits/basic_string.h ****       bool
 337:/usr/include/newlib/c++/9.2.1/bits/basic_string.h ****       _M_disjunct(const _CharT* __s) const _GLIBCXX_NOEXCEPT
 338:/usr/include/newlib/c++/9.2.1/bits/basic_string.h ****       {
 339:/usr/include/newlib/c++/9.2.1/bits/basic_string.h **** 	return (less<const _CharT*>()(__s, _M_data())
 340:/usr/include/newlib/c++/9.2.1/bits/basic_string.h **** 		|| less<const _CharT*>()(_M_data() + this->size(), __s));
 341:/usr/include/newlib/c++/9.2.1/bits/basic_string.h ****       }
 342:/usr/include/newlib/c++/9.2.1/bits/basic_string.h **** 
 343:/usr/include/newlib/c++/9.2.1/bits/basic_string.h ****       // When __n = 1 way faster than the general multichar
 344:/usr/include/newlib/c++/9.2.1/bits/basic_string.h ****       // traits_type::copy/move/assign.
 345:/usr/include/newlib/c++/9.2.1/bits/basic_string.h ****       static void
 346:/usr/include/newlib/c++/9.2.1/bits/basic_string.h ****       _S_copy(_CharT* __d, const _CharT* __s, size_type __n)
 347:/usr/include/newlib/c++/9.2.1/bits/basic_string.h ****       {
 348:/usr/include/newlib/c++/9.2.1/bits/basic_string.h **** 	if (__n == 1)
 349:/usr/include/newlib/c++/9.2.1/bits/basic_string.h **** 	  traits_type::assign(*__d, *__s);
 350:/usr/include/newlib/c++/9.2.1/bits/basic_string.h **** 	else
 351:/usr/include/newlib/c++/9.2.1/bits/basic_string.h **** 	  traits_type::copy(__d, __s, __n);
 352:/usr/include/newlib/c++/9.2.1/bits/basic_string.h ****       }
ARM GAS  /tmp/cco4jRmF.s 			page 24


 353:/usr/include/newlib/c++/9.2.1/bits/basic_string.h **** 
 354:/usr/include/newlib/c++/9.2.1/bits/basic_string.h ****       static void
 355:/usr/include/newlib/c++/9.2.1/bits/basic_string.h ****       _S_move(_CharT* __d, const _CharT* __s, size_type __n)
 356:/usr/include/newlib/c++/9.2.1/bits/basic_string.h ****       {
 357:/usr/include/newlib/c++/9.2.1/bits/basic_string.h **** 	if (__n == 1)
 358:/usr/include/newlib/c++/9.2.1/bits/basic_string.h **** 	  traits_type::assign(*__d, *__s);
 359:/usr/include/newlib/c++/9.2.1/bits/basic_string.h **** 	else
 360:/usr/include/newlib/c++/9.2.1/bits/basic_string.h **** 	  traits_type::move(__d, __s, __n);
 361:/usr/include/newlib/c++/9.2.1/bits/basic_string.h ****       }
 362:/usr/include/newlib/c++/9.2.1/bits/basic_string.h **** 
 363:/usr/include/newlib/c++/9.2.1/bits/basic_string.h ****       static void
 364:/usr/include/newlib/c++/9.2.1/bits/basic_string.h ****       _S_assign(_CharT* __d, size_type __n, _CharT __c)
 365:/usr/include/newlib/c++/9.2.1/bits/basic_string.h ****       {
 366:/usr/include/newlib/c++/9.2.1/bits/basic_string.h **** 	if (__n == 1)
 367:/usr/include/newlib/c++/9.2.1/bits/basic_string.h **** 	  traits_type::assign(*__d, __c);
 368:/usr/include/newlib/c++/9.2.1/bits/basic_string.h **** 	else
 369:/usr/include/newlib/c++/9.2.1/bits/basic_string.h **** 	  traits_type::assign(__d, __n, __c);
 370:/usr/include/newlib/c++/9.2.1/bits/basic_string.h ****       }
 371:/usr/include/newlib/c++/9.2.1/bits/basic_string.h **** 
 372:/usr/include/newlib/c++/9.2.1/bits/basic_string.h ****       // _S_copy_chars is a separate template to permit specialization
 373:/usr/include/newlib/c++/9.2.1/bits/basic_string.h ****       // to optimize for the common case of pointers as iterators.
 374:/usr/include/newlib/c++/9.2.1/bits/basic_string.h ****       template<class _Iterator>
 375:/usr/include/newlib/c++/9.2.1/bits/basic_string.h ****         static void
 376:/usr/include/newlib/c++/9.2.1/bits/basic_string.h ****         _S_copy_chars(_CharT* __p, _Iterator __k1, _Iterator __k2)
 377:/usr/include/newlib/c++/9.2.1/bits/basic_string.h ****         {
 378:/usr/include/newlib/c++/9.2.1/bits/basic_string.h **** 	  for (; __k1 != __k2; ++__k1, (void)++__p)
 379:/usr/include/newlib/c++/9.2.1/bits/basic_string.h **** 	    traits_type::assign(*__p, *__k1); // These types are off.
 380:/usr/include/newlib/c++/9.2.1/bits/basic_string.h **** 	}
 381:/usr/include/newlib/c++/9.2.1/bits/basic_string.h **** 
 382:/usr/include/newlib/c++/9.2.1/bits/basic_string.h ****       static void
 383:/usr/include/newlib/c++/9.2.1/bits/basic_string.h ****       _S_copy_chars(_CharT* __p, iterator __k1, iterator __k2) _GLIBCXX_NOEXCEPT
 384:/usr/include/newlib/c++/9.2.1/bits/basic_string.h ****       { _S_copy_chars(__p, __k1.base(), __k2.base()); }
 385:/usr/include/newlib/c++/9.2.1/bits/basic_string.h **** 
 386:/usr/include/newlib/c++/9.2.1/bits/basic_string.h ****       static void
 387:/usr/include/newlib/c++/9.2.1/bits/basic_string.h ****       _S_copy_chars(_CharT* __p, const_iterator __k1, const_iterator __k2)
 388:/usr/include/newlib/c++/9.2.1/bits/basic_string.h ****       _GLIBCXX_NOEXCEPT
 389:/usr/include/newlib/c++/9.2.1/bits/basic_string.h ****       { _S_copy_chars(__p, __k1.base(), __k2.base()); }
 390:/usr/include/newlib/c++/9.2.1/bits/basic_string.h **** 
 391:/usr/include/newlib/c++/9.2.1/bits/basic_string.h ****       static void
 392:/usr/include/newlib/c++/9.2.1/bits/basic_string.h ****       _S_copy_chars(_CharT* __p, _CharT* __k1, _CharT* __k2) _GLIBCXX_NOEXCEPT
 393:/usr/include/newlib/c++/9.2.1/bits/basic_string.h ****       { _S_copy(__p, __k1, __k2 - __k1); }
 394:/usr/include/newlib/c++/9.2.1/bits/basic_string.h **** 
 395:/usr/include/newlib/c++/9.2.1/bits/basic_string.h ****       static void
 396:/usr/include/newlib/c++/9.2.1/bits/basic_string.h ****       _S_copy_chars(_CharT* __p, const _CharT* __k1, const _CharT* __k2)
 397:/usr/include/newlib/c++/9.2.1/bits/basic_string.h ****       _GLIBCXX_NOEXCEPT
 398:/usr/include/newlib/c++/9.2.1/bits/basic_string.h ****       { _S_copy(__p, __k1, __k2 - __k1); }
 399:/usr/include/newlib/c++/9.2.1/bits/basic_string.h **** 
 400:/usr/include/newlib/c++/9.2.1/bits/basic_string.h ****       static int
 401:/usr/include/newlib/c++/9.2.1/bits/basic_string.h ****       _S_compare(size_type __n1, size_type __n2) _GLIBCXX_NOEXCEPT
 402:/usr/include/newlib/c++/9.2.1/bits/basic_string.h ****       {
 403:/usr/include/newlib/c++/9.2.1/bits/basic_string.h **** 	const difference_type __d = difference_type(__n1 - __n2);
 404:/usr/include/newlib/c++/9.2.1/bits/basic_string.h **** 
 405:/usr/include/newlib/c++/9.2.1/bits/basic_string.h **** 	if (__d > __gnu_cxx::__numeric_traits<int>::__max)
 406:/usr/include/newlib/c++/9.2.1/bits/basic_string.h **** 	  return __gnu_cxx::__numeric_traits<int>::__max;
 407:/usr/include/newlib/c++/9.2.1/bits/basic_string.h **** 	else if (__d < __gnu_cxx::__numeric_traits<int>::__min)
 408:/usr/include/newlib/c++/9.2.1/bits/basic_string.h **** 	  return __gnu_cxx::__numeric_traits<int>::__min;
 409:/usr/include/newlib/c++/9.2.1/bits/basic_string.h **** 	else
ARM GAS  /tmp/cco4jRmF.s 			page 25


 410:/usr/include/newlib/c++/9.2.1/bits/basic_string.h **** 	  return int(__d);
 411:/usr/include/newlib/c++/9.2.1/bits/basic_string.h ****       }
 412:/usr/include/newlib/c++/9.2.1/bits/basic_string.h **** 
 413:/usr/include/newlib/c++/9.2.1/bits/basic_string.h ****       void
 414:/usr/include/newlib/c++/9.2.1/bits/basic_string.h ****       _M_assign(const basic_string&);
 415:/usr/include/newlib/c++/9.2.1/bits/basic_string.h **** 
 416:/usr/include/newlib/c++/9.2.1/bits/basic_string.h ****       void
 417:/usr/include/newlib/c++/9.2.1/bits/basic_string.h ****       _M_mutate(size_type __pos, size_type __len1, const _CharT* __s,
 418:/usr/include/newlib/c++/9.2.1/bits/basic_string.h **** 		size_type __len2);
 419:/usr/include/newlib/c++/9.2.1/bits/basic_string.h **** 
 420:/usr/include/newlib/c++/9.2.1/bits/basic_string.h ****       void
 421:/usr/include/newlib/c++/9.2.1/bits/basic_string.h ****       _M_erase(size_type __pos, size_type __n);
 422:/usr/include/newlib/c++/9.2.1/bits/basic_string.h **** 
 423:/usr/include/newlib/c++/9.2.1/bits/basic_string.h ****     public:
 424:/usr/include/newlib/c++/9.2.1/bits/basic_string.h ****       // Construct/copy/destroy:
 425:/usr/include/newlib/c++/9.2.1/bits/basic_string.h ****       // NB: We overload ctors in some cases instead of using default
 426:/usr/include/newlib/c++/9.2.1/bits/basic_string.h ****       // arguments, per 17.4.4.4 para. 2 item 2.
 427:/usr/include/newlib/c++/9.2.1/bits/basic_string.h **** 
 428:/usr/include/newlib/c++/9.2.1/bits/basic_string.h ****       /**
 429:/usr/include/newlib/c++/9.2.1/bits/basic_string.h ****        *  @brief  Default constructor creates an empty string.
 430:/usr/include/newlib/c++/9.2.1/bits/basic_string.h ****        */
 431:/usr/include/newlib/c++/9.2.1/bits/basic_string.h ****       basic_string()
 432:/usr/include/newlib/c++/9.2.1/bits/basic_string.h ****       _GLIBCXX_NOEXCEPT_IF(is_nothrow_default_constructible<_Alloc>::value)
 433:/usr/include/newlib/c++/9.2.1/bits/basic_string.h ****       : _M_dataplus(_M_local_data())
 434:/usr/include/newlib/c++/9.2.1/bits/basic_string.h ****       { _M_set_length(0); }
 435:/usr/include/newlib/c++/9.2.1/bits/basic_string.h **** 
 436:/usr/include/newlib/c++/9.2.1/bits/basic_string.h ****       /**
 437:/usr/include/newlib/c++/9.2.1/bits/basic_string.h ****        *  @brief  Construct an empty string using allocator @a a.
 438:/usr/include/newlib/c++/9.2.1/bits/basic_string.h ****        */
 439:/usr/include/newlib/c++/9.2.1/bits/basic_string.h ****       explicit
 440:/usr/include/newlib/c++/9.2.1/bits/basic_string.h ****       basic_string(const _Alloc& __a) _GLIBCXX_NOEXCEPT
 441:/usr/include/newlib/c++/9.2.1/bits/basic_string.h ****       : _M_dataplus(_M_local_data(), __a)
 442:/usr/include/newlib/c++/9.2.1/bits/basic_string.h ****       { _M_set_length(0); }
 443:/usr/include/newlib/c++/9.2.1/bits/basic_string.h **** 
 444:/usr/include/newlib/c++/9.2.1/bits/basic_string.h ****       /**
 445:/usr/include/newlib/c++/9.2.1/bits/basic_string.h ****        *  @brief  Construct string with copy of value of @a __str.
 446:/usr/include/newlib/c++/9.2.1/bits/basic_string.h ****        *  @param  __str  Source string.
 447:/usr/include/newlib/c++/9.2.1/bits/basic_string.h ****        */
 448:/usr/include/newlib/c++/9.2.1/bits/basic_string.h ****       basic_string(const basic_string& __str)
 449:/usr/include/newlib/c++/9.2.1/bits/basic_string.h ****       : _M_dataplus(_M_local_data(),
 450:/usr/include/newlib/c++/9.2.1/bits/basic_string.h **** 		    _Alloc_traits::_S_select_on_copy(__str._M_get_allocator()))
 451:/usr/include/newlib/c++/9.2.1/bits/basic_string.h ****       { _M_construct(__str._M_data(), __str._M_data() + __str.length()); }
 452:/usr/include/newlib/c++/9.2.1/bits/basic_string.h **** 
 453:/usr/include/newlib/c++/9.2.1/bits/basic_string.h ****       // _GLIBCXX_RESOLVE_LIB_DEFECTS
 454:/usr/include/newlib/c++/9.2.1/bits/basic_string.h ****       // 2583. no way to supply an allocator for basic_string(str, pos)
 455:/usr/include/newlib/c++/9.2.1/bits/basic_string.h ****       /**
 456:/usr/include/newlib/c++/9.2.1/bits/basic_string.h ****        *  @brief  Construct string as copy of a substring.
 457:/usr/include/newlib/c++/9.2.1/bits/basic_string.h ****        *  @param  __str  Source string.
 458:/usr/include/newlib/c++/9.2.1/bits/basic_string.h ****        *  @param  __pos  Index of first character to copy from.
 459:/usr/include/newlib/c++/9.2.1/bits/basic_string.h ****        *  @param  __a  Allocator to use.
 460:/usr/include/newlib/c++/9.2.1/bits/basic_string.h ****        */
 461:/usr/include/newlib/c++/9.2.1/bits/basic_string.h ****       basic_string(const basic_string& __str, size_type __pos,
 462:/usr/include/newlib/c++/9.2.1/bits/basic_string.h **** 		   const _Alloc& __a = _Alloc())
 463:/usr/include/newlib/c++/9.2.1/bits/basic_string.h ****       : _M_dataplus(_M_local_data(), __a)
 464:/usr/include/newlib/c++/9.2.1/bits/basic_string.h ****       {
 465:/usr/include/newlib/c++/9.2.1/bits/basic_string.h **** 	const _CharT* __start = __str._M_data()
 466:/usr/include/newlib/c++/9.2.1/bits/basic_string.h **** 	  + __str._M_check(__pos, "basic_string::basic_string");
ARM GAS  /tmp/cco4jRmF.s 			page 26


 467:/usr/include/newlib/c++/9.2.1/bits/basic_string.h **** 	_M_construct(__start, __start + __str._M_limit(__pos, npos));
 468:/usr/include/newlib/c++/9.2.1/bits/basic_string.h ****       }
 469:/usr/include/newlib/c++/9.2.1/bits/basic_string.h **** 
 470:/usr/include/newlib/c++/9.2.1/bits/basic_string.h ****       /**
 471:/usr/include/newlib/c++/9.2.1/bits/basic_string.h ****        *  @brief  Construct string as copy of a substring.
 472:/usr/include/newlib/c++/9.2.1/bits/basic_string.h ****        *  @param  __str  Source string.
 473:/usr/include/newlib/c++/9.2.1/bits/basic_string.h ****        *  @param  __pos  Index of first character to copy from.
 474:/usr/include/newlib/c++/9.2.1/bits/basic_string.h ****        *  @param  __n  Number of characters to copy.
 475:/usr/include/newlib/c++/9.2.1/bits/basic_string.h ****        */
 476:/usr/include/newlib/c++/9.2.1/bits/basic_string.h ****       basic_string(const basic_string& __str, size_type __pos,
 477:/usr/include/newlib/c++/9.2.1/bits/basic_string.h **** 		   size_type __n)
 478:/usr/include/newlib/c++/9.2.1/bits/basic_string.h ****       : _M_dataplus(_M_local_data())
 479:/usr/include/newlib/c++/9.2.1/bits/basic_string.h ****       {
 480:/usr/include/newlib/c++/9.2.1/bits/basic_string.h **** 	const _CharT* __start = __str._M_data()
 481:/usr/include/newlib/c++/9.2.1/bits/basic_string.h **** 	  + __str._M_check(__pos, "basic_string::basic_string");
 482:/usr/include/newlib/c++/9.2.1/bits/basic_string.h **** 	_M_construct(__start, __start + __str._M_limit(__pos, __n));
 483:/usr/include/newlib/c++/9.2.1/bits/basic_string.h ****       }
 484:/usr/include/newlib/c++/9.2.1/bits/basic_string.h **** 
 485:/usr/include/newlib/c++/9.2.1/bits/basic_string.h ****       /**
 486:/usr/include/newlib/c++/9.2.1/bits/basic_string.h ****        *  @brief  Construct string as copy of a substring.
 487:/usr/include/newlib/c++/9.2.1/bits/basic_string.h ****        *  @param  __str  Source string.
 488:/usr/include/newlib/c++/9.2.1/bits/basic_string.h ****        *  @param  __pos  Index of first character to copy from.
 489:/usr/include/newlib/c++/9.2.1/bits/basic_string.h ****        *  @param  __n  Number of characters to copy.
 490:/usr/include/newlib/c++/9.2.1/bits/basic_string.h ****        *  @param  __a  Allocator to use.
 491:/usr/include/newlib/c++/9.2.1/bits/basic_string.h ****        */
 492:/usr/include/newlib/c++/9.2.1/bits/basic_string.h ****       basic_string(const basic_string& __str, size_type __pos,
 493:/usr/include/newlib/c++/9.2.1/bits/basic_string.h **** 		   size_type __n, const _Alloc& __a)
 494:/usr/include/newlib/c++/9.2.1/bits/basic_string.h ****       : _M_dataplus(_M_local_data(), __a)
 495:/usr/include/newlib/c++/9.2.1/bits/basic_string.h ****       {
 496:/usr/include/newlib/c++/9.2.1/bits/basic_string.h **** 	const _CharT* __start
 497:/usr/include/newlib/c++/9.2.1/bits/basic_string.h **** 	  = __str._M_data() + __str._M_check(__pos, "string::string");
 498:/usr/include/newlib/c++/9.2.1/bits/basic_string.h **** 	_M_construct(__start, __start + __str._M_limit(__pos, __n));
 499:/usr/include/newlib/c++/9.2.1/bits/basic_string.h ****       }
 500:/usr/include/newlib/c++/9.2.1/bits/basic_string.h **** 
 501:/usr/include/newlib/c++/9.2.1/bits/basic_string.h ****       /**
 502:/usr/include/newlib/c++/9.2.1/bits/basic_string.h ****        *  @brief  Construct string initialized by a character %array.
 503:/usr/include/newlib/c++/9.2.1/bits/basic_string.h ****        *  @param  __s  Source character %array.
 504:/usr/include/newlib/c++/9.2.1/bits/basic_string.h ****        *  @param  __n  Number of characters to copy.
 505:/usr/include/newlib/c++/9.2.1/bits/basic_string.h ****        *  @param  __a  Allocator to use (default is default allocator).
 506:/usr/include/newlib/c++/9.2.1/bits/basic_string.h ****        *
 507:/usr/include/newlib/c++/9.2.1/bits/basic_string.h ****        *  NB: @a __s must have at least @a __n characters, &apos;\\0&apos;
 508:/usr/include/newlib/c++/9.2.1/bits/basic_string.h ****        *  has no special meaning.
 509:/usr/include/newlib/c++/9.2.1/bits/basic_string.h ****        */
 510:/usr/include/newlib/c++/9.2.1/bits/basic_string.h ****       basic_string(const _CharT* __s, size_type __n,
 511:/usr/include/newlib/c++/9.2.1/bits/basic_string.h **** 		   const _Alloc& __a = _Alloc())
 512:/usr/include/newlib/c++/9.2.1/bits/basic_string.h ****       : _M_dataplus(_M_local_data(), __a)
 513:/usr/include/newlib/c++/9.2.1/bits/basic_string.h ****       { _M_construct(__s, __s + __n); }
 514:/usr/include/newlib/c++/9.2.1/bits/basic_string.h **** 
 515:/usr/include/newlib/c++/9.2.1/bits/basic_string.h ****       /**
 516:/usr/include/newlib/c++/9.2.1/bits/basic_string.h ****        *  @brief  Construct string as copy of a C string.
 517:/usr/include/newlib/c++/9.2.1/bits/basic_string.h ****        *  @param  __s  Source C string.
 518:/usr/include/newlib/c++/9.2.1/bits/basic_string.h ****        *  @param  __a  Allocator to use (default is default allocator).
 519:/usr/include/newlib/c++/9.2.1/bits/basic_string.h ****        */
 520:/usr/include/newlib/c++/9.2.1/bits/basic_string.h **** #if __cpp_deduction_guides && ! defined _GLIBCXX_DEFINING_STRING_INSTANTIATIONS
 521:/usr/include/newlib/c++/9.2.1/bits/basic_string.h ****       // _GLIBCXX_RESOLVE_LIB_DEFECTS
 522:/usr/include/newlib/c++/9.2.1/bits/basic_string.h ****       // 3076. basic_string CTAD ambiguity
 523:/usr/include/newlib/c++/9.2.1/bits/basic_string.h ****       template<typename = _RequireAllocator<_Alloc>>
ARM GAS  /tmp/cco4jRmF.s 			page 27


 524:/usr/include/newlib/c++/9.2.1/bits/basic_string.h **** #endif
 525:/usr/include/newlib/c++/9.2.1/bits/basic_string.h ****       basic_string(const _CharT* __s, const _Alloc& __a = _Alloc())
 526:/usr/include/newlib/c++/9.2.1/bits/basic_string.h ****       : _M_dataplus(_M_local_data(), __a)
 527:/usr/include/newlib/c++/9.2.1/bits/basic_string.h ****       { _M_construct(__s, __s ? __s + traits_type::length(__s) : __s+npos); }
 528:/usr/include/newlib/c++/9.2.1/bits/basic_string.h **** 
 529:/usr/include/newlib/c++/9.2.1/bits/basic_string.h ****       /**
 530:/usr/include/newlib/c++/9.2.1/bits/basic_string.h ****        *  @brief  Construct string as multiple characters.
 531:/usr/include/newlib/c++/9.2.1/bits/basic_string.h ****        *  @param  __n  Number of characters.
 532:/usr/include/newlib/c++/9.2.1/bits/basic_string.h ****        *  @param  __c  Character to use.
 533:/usr/include/newlib/c++/9.2.1/bits/basic_string.h ****        *  @param  __a  Allocator to use (default is default allocator).
 534:/usr/include/newlib/c++/9.2.1/bits/basic_string.h ****        */
 535:/usr/include/newlib/c++/9.2.1/bits/basic_string.h **** #if __cpp_deduction_guides && ! defined _GLIBCXX_DEFINING_STRING_INSTANTIATIONS
 536:/usr/include/newlib/c++/9.2.1/bits/basic_string.h ****       // _GLIBCXX_RESOLVE_LIB_DEFECTS
 537:/usr/include/newlib/c++/9.2.1/bits/basic_string.h ****       // 3076. basic_string CTAD ambiguity
 538:/usr/include/newlib/c++/9.2.1/bits/basic_string.h ****       template<typename = _RequireAllocator<_Alloc>>
 539:/usr/include/newlib/c++/9.2.1/bits/basic_string.h **** #endif
 540:/usr/include/newlib/c++/9.2.1/bits/basic_string.h ****       basic_string(size_type __n, _CharT __c, const _Alloc& __a = _Alloc())
 541:/usr/include/newlib/c++/9.2.1/bits/basic_string.h ****       : _M_dataplus(_M_local_data(), __a)
 542:/usr/include/newlib/c++/9.2.1/bits/basic_string.h ****       { _M_construct(__n, __c); }
 543:/usr/include/newlib/c++/9.2.1/bits/basic_string.h **** 
 544:/usr/include/newlib/c++/9.2.1/bits/basic_string.h **** #if __cplusplus >= 201103L
 545:/usr/include/newlib/c++/9.2.1/bits/basic_string.h ****       /**
 546:/usr/include/newlib/c++/9.2.1/bits/basic_string.h ****        *  @brief  Move construct string.
 547:/usr/include/newlib/c++/9.2.1/bits/basic_string.h ****        *  @param  __str  Source string.
 548:/usr/include/newlib/c++/9.2.1/bits/basic_string.h ****        *
 549:/usr/include/newlib/c++/9.2.1/bits/basic_string.h ****        *  The newly-created string contains the exact contents of @a __str.
 550:/usr/include/newlib/c++/9.2.1/bits/basic_string.h ****        *  @a __str is a valid, but unspecified string.
 551:/usr/include/newlib/c++/9.2.1/bits/basic_string.h ****        **/
 552:/usr/include/newlib/c++/9.2.1/bits/basic_string.h ****       basic_string(basic_string&& __str) noexcept
 553:/usr/include/newlib/c++/9.2.1/bits/basic_string.h ****       : _M_dataplus(_M_local_data(), std::move(__str._M_get_allocator()))
 554:/usr/include/newlib/c++/9.2.1/bits/basic_string.h ****       {
 555:/usr/include/newlib/c++/9.2.1/bits/basic_string.h **** 	if (__str._M_is_local())
 556:/usr/include/newlib/c++/9.2.1/bits/basic_string.h **** 	  {
 557:/usr/include/newlib/c++/9.2.1/bits/basic_string.h **** 	    traits_type::copy(_M_local_buf, __str._M_local_buf,
 558:/usr/include/newlib/c++/9.2.1/bits/basic_string.h **** 			      _S_local_capacity + 1);
 559:/usr/include/newlib/c++/9.2.1/bits/basic_string.h **** 	  }
 560:/usr/include/newlib/c++/9.2.1/bits/basic_string.h **** 	else
 561:/usr/include/newlib/c++/9.2.1/bits/basic_string.h **** 	  {
 562:/usr/include/newlib/c++/9.2.1/bits/basic_string.h **** 	    _M_data(__str._M_data());
 563:/usr/include/newlib/c++/9.2.1/bits/basic_string.h **** 	    _M_capacity(__str._M_allocated_capacity);
 564:/usr/include/newlib/c++/9.2.1/bits/basic_string.h **** 	  }
 565:/usr/include/newlib/c++/9.2.1/bits/basic_string.h **** 
 566:/usr/include/newlib/c++/9.2.1/bits/basic_string.h **** 	// Must use _M_length() here not _M_set_length() because
 567:/usr/include/newlib/c++/9.2.1/bits/basic_string.h **** 	// basic_stringbuf relies on writing into unallocated capacity so
 568:/usr/include/newlib/c++/9.2.1/bits/basic_string.h **** 	// we mess up the contents if we put a '\0' in the string.
 569:/usr/include/newlib/c++/9.2.1/bits/basic_string.h **** 	_M_length(__str.length());
 570:/usr/include/newlib/c++/9.2.1/bits/basic_string.h **** 	__str._M_data(__str._M_local_data());
 571:/usr/include/newlib/c++/9.2.1/bits/basic_string.h **** 	__str._M_set_length(0);
 572:/usr/include/newlib/c++/9.2.1/bits/basic_string.h ****       }
 573:/usr/include/newlib/c++/9.2.1/bits/basic_string.h **** 
 574:/usr/include/newlib/c++/9.2.1/bits/basic_string.h ****       /**
 575:/usr/include/newlib/c++/9.2.1/bits/basic_string.h ****        *  @brief  Construct string from an initializer %list.
 576:/usr/include/newlib/c++/9.2.1/bits/basic_string.h ****        *  @param  __l  std::initializer_list of characters.
 577:/usr/include/newlib/c++/9.2.1/bits/basic_string.h ****        *  @param  __a  Allocator to use (default is default allocator).
 578:/usr/include/newlib/c++/9.2.1/bits/basic_string.h ****        */
 579:/usr/include/newlib/c++/9.2.1/bits/basic_string.h ****       basic_string(initializer_list<_CharT> __l, const _Alloc& __a = _Alloc())
 580:/usr/include/newlib/c++/9.2.1/bits/basic_string.h ****       : _M_dataplus(_M_local_data(), __a)
ARM GAS  /tmp/cco4jRmF.s 			page 28


 581:/usr/include/newlib/c++/9.2.1/bits/basic_string.h ****       { _M_construct(__l.begin(), __l.end()); }
 582:/usr/include/newlib/c++/9.2.1/bits/basic_string.h **** 
 583:/usr/include/newlib/c++/9.2.1/bits/basic_string.h ****       basic_string(const basic_string& __str, const _Alloc& __a)
 584:/usr/include/newlib/c++/9.2.1/bits/basic_string.h ****       : _M_dataplus(_M_local_data(), __a)
 585:/usr/include/newlib/c++/9.2.1/bits/basic_string.h ****       { _M_construct(__str.begin(), __str.end()); }
 586:/usr/include/newlib/c++/9.2.1/bits/basic_string.h **** 
 587:/usr/include/newlib/c++/9.2.1/bits/basic_string.h ****       basic_string(basic_string&& __str, const _Alloc& __a)
 588:/usr/include/newlib/c++/9.2.1/bits/basic_string.h ****       noexcept(_Alloc_traits::_S_always_equal())
 589:/usr/include/newlib/c++/9.2.1/bits/basic_string.h ****       : _M_dataplus(_M_local_data(), __a)
 590:/usr/include/newlib/c++/9.2.1/bits/basic_string.h ****       {
 591:/usr/include/newlib/c++/9.2.1/bits/basic_string.h **** 	if (__str._M_is_local())
 592:/usr/include/newlib/c++/9.2.1/bits/basic_string.h **** 	  {
 593:/usr/include/newlib/c++/9.2.1/bits/basic_string.h **** 	    traits_type::copy(_M_local_buf, __str._M_local_buf,
 594:/usr/include/newlib/c++/9.2.1/bits/basic_string.h **** 			      _S_local_capacity + 1);
 595:/usr/include/newlib/c++/9.2.1/bits/basic_string.h **** 	    _M_length(__str.length());
 596:/usr/include/newlib/c++/9.2.1/bits/basic_string.h **** 	    __str._M_set_length(0);
 597:/usr/include/newlib/c++/9.2.1/bits/basic_string.h **** 	  }
 598:/usr/include/newlib/c++/9.2.1/bits/basic_string.h **** 	else if (_Alloc_traits::_S_always_equal()
 599:/usr/include/newlib/c++/9.2.1/bits/basic_string.h **** 	    || __str.get_allocator() == __a)
 600:/usr/include/newlib/c++/9.2.1/bits/basic_string.h **** 	  {
 601:/usr/include/newlib/c++/9.2.1/bits/basic_string.h **** 	    _M_data(__str._M_data());
 602:/usr/include/newlib/c++/9.2.1/bits/basic_string.h **** 	    _M_length(__str.length());
 603:/usr/include/newlib/c++/9.2.1/bits/basic_string.h **** 	    _M_capacity(__str._M_allocated_capacity);
 604:/usr/include/newlib/c++/9.2.1/bits/basic_string.h **** 	    __str._M_data(__str._M_local_buf);
 605:/usr/include/newlib/c++/9.2.1/bits/basic_string.h **** 	    __str._M_set_length(0);
 606:/usr/include/newlib/c++/9.2.1/bits/basic_string.h **** 	  }
 607:/usr/include/newlib/c++/9.2.1/bits/basic_string.h **** 	else
 608:/usr/include/newlib/c++/9.2.1/bits/basic_string.h **** 	  _M_construct(__str.begin(), __str.end());
 609:/usr/include/newlib/c++/9.2.1/bits/basic_string.h ****       }
 610:/usr/include/newlib/c++/9.2.1/bits/basic_string.h **** 
 611:/usr/include/newlib/c++/9.2.1/bits/basic_string.h **** #endif // C++11
 612:/usr/include/newlib/c++/9.2.1/bits/basic_string.h **** 
 613:/usr/include/newlib/c++/9.2.1/bits/basic_string.h ****       /**
 614:/usr/include/newlib/c++/9.2.1/bits/basic_string.h ****        *  @brief  Construct string as copy of a range.
 615:/usr/include/newlib/c++/9.2.1/bits/basic_string.h ****        *  @param  __beg  Start of range.
 616:/usr/include/newlib/c++/9.2.1/bits/basic_string.h ****        *  @param  __end  End of range.
 617:/usr/include/newlib/c++/9.2.1/bits/basic_string.h ****        *  @param  __a  Allocator to use (default is default allocator).
 618:/usr/include/newlib/c++/9.2.1/bits/basic_string.h ****        */
 619:/usr/include/newlib/c++/9.2.1/bits/basic_string.h **** #if __cplusplus >= 201103L
 620:/usr/include/newlib/c++/9.2.1/bits/basic_string.h ****       template<typename _InputIterator,
 621:/usr/include/newlib/c++/9.2.1/bits/basic_string.h **** 	       typename = std::_RequireInputIter<_InputIterator>>
 622:/usr/include/newlib/c++/9.2.1/bits/basic_string.h **** #else
 623:/usr/include/newlib/c++/9.2.1/bits/basic_string.h ****       template<typename _InputIterator>
 624:/usr/include/newlib/c++/9.2.1/bits/basic_string.h **** #endif
 625:/usr/include/newlib/c++/9.2.1/bits/basic_string.h ****         basic_string(_InputIterator __beg, _InputIterator __end,
 626:/usr/include/newlib/c++/9.2.1/bits/basic_string.h **** 		     const _Alloc& __a = _Alloc())
 627:/usr/include/newlib/c++/9.2.1/bits/basic_string.h **** 	: _M_dataplus(_M_local_data(), __a)
 628:/usr/include/newlib/c++/9.2.1/bits/basic_string.h **** 	{ _M_construct(__beg, __end); }
 629:/usr/include/newlib/c++/9.2.1/bits/basic_string.h **** 
 630:/usr/include/newlib/c++/9.2.1/bits/basic_string.h **** #if __cplusplus >= 201703L
 631:/usr/include/newlib/c++/9.2.1/bits/basic_string.h ****       /**
 632:/usr/include/newlib/c++/9.2.1/bits/basic_string.h ****        *  @brief  Construct string from a substring of a string_view.
 633:/usr/include/newlib/c++/9.2.1/bits/basic_string.h ****        *  @param  __t   Source object convertible to string view.
 634:/usr/include/newlib/c++/9.2.1/bits/basic_string.h ****        *  @param  __pos The index of the first character to copy from __t.
 635:/usr/include/newlib/c++/9.2.1/bits/basic_string.h ****        *  @param  __n   The number of characters to copy from __t.
 636:/usr/include/newlib/c++/9.2.1/bits/basic_string.h ****        *  @param  __a   Allocator to use.
 637:/usr/include/newlib/c++/9.2.1/bits/basic_string.h ****        */
ARM GAS  /tmp/cco4jRmF.s 			page 29


 638:/usr/include/newlib/c++/9.2.1/bits/basic_string.h ****       template<typename _Tp, typename = _If_sv<_Tp, void>>
 639:/usr/include/newlib/c++/9.2.1/bits/basic_string.h **** 	basic_string(const _Tp& __t, size_type __pos, size_type __n,
 640:/usr/include/newlib/c++/9.2.1/bits/basic_string.h **** 		     const _Alloc& __a = _Alloc())
 641:/usr/include/newlib/c++/9.2.1/bits/basic_string.h **** 	: basic_string(_S_to_string_view(__t).substr(__pos, __n), __a) { }
 642:/usr/include/newlib/c++/9.2.1/bits/basic_string.h **** 
 643:/usr/include/newlib/c++/9.2.1/bits/basic_string.h ****       /**
 644:/usr/include/newlib/c++/9.2.1/bits/basic_string.h ****        *  @brief  Construct string from a string_view.
 645:/usr/include/newlib/c++/9.2.1/bits/basic_string.h ****        *  @param  __t  Source object convertible to string view.
 646:/usr/include/newlib/c++/9.2.1/bits/basic_string.h ****        *  @param  __a  Allocator to use (default is default allocator).
 647:/usr/include/newlib/c++/9.2.1/bits/basic_string.h ****        */
 648:/usr/include/newlib/c++/9.2.1/bits/basic_string.h ****       template<typename _Tp, typename = _If_sv<_Tp, void>>
 649:/usr/include/newlib/c++/9.2.1/bits/basic_string.h **** 	explicit
 650:/usr/include/newlib/c++/9.2.1/bits/basic_string.h **** 	basic_string(const _Tp& __t, const _Alloc& __a = _Alloc())
 651:/usr/include/newlib/c++/9.2.1/bits/basic_string.h **** 	: basic_string(__sv_wrapper(_S_to_string_view(__t)), __a) { }
 652:/usr/include/newlib/c++/9.2.1/bits/basic_string.h **** #endif // C++17
 653:/usr/include/newlib/c++/9.2.1/bits/basic_string.h **** 
 654:/usr/include/newlib/c++/9.2.1/bits/basic_string.h ****       /**
 655:/usr/include/newlib/c++/9.2.1/bits/basic_string.h ****        *  @brief  Destroy the string instance.
 656:/usr/include/newlib/c++/9.2.1/bits/basic_string.h ****        */
 657:/usr/include/newlib/c++/9.2.1/bits/basic_string.h ****       ~basic_string()
  76              		.loc 3 657 7 view .LVU9
  77              	.LBB7473:
  78              	.LBI7473:
 229:/usr/include/newlib/c++/9.2.1/bits/basic_string.h ****       {
  79              		.loc 3 229 7 view .LVU10
  80              	.LBB7474:
  81              	.LBB7475:
  82              	.LBI7475:
 221:/usr/include/newlib/c++/9.2.1/bits/basic_string.h ****       { return _M_data() == _M_local_data(); }
  83              		.loc 3 221 7 view .LVU11
 221:/usr/include/newlib/c++/9.2.1/bits/basic_string.h ****       { return _M_data() == _M_local_data(); }
  84              		.loc 3 221 7 is_stmt 0 view .LVU12
  85              	.LBE7475:
  86              	.LBB7477:
  87              	.LBI7477:
 236:/usr/include/newlib/c++/9.2.1/bits/basic_string.h ****       { _Alloc_traits::deallocate(_M_get_allocator(), _M_data(), __size + 1); }
  88              		.loc 3 236 7 is_stmt 1 view .LVU13
 236:/usr/include/newlib/c++/9.2.1/bits/basic_string.h ****       { _Alloc_traits::deallocate(_M_get_allocator(), _M_data(), __size + 1); }
  89              		.loc 3 236 7 is_stmt 0 view .LVU14
  90              	.LBE7477:
  91              	.LBB7485:
  92              	.LBB7476:
 222:/usr/include/newlib/c++/9.2.1/bits/basic_string.h **** 
  93              		.loc 3 222 26 view .LVU15
  94 0010 54F8080C 		ldr	r0, [r4, #-8]
  95              	.LVL3:
 222:/usr/include/newlib/c++/9.2.1/bits/basic_string.h **** 
  96              		.loc 3 222 26 view .LVU16
  97              	.LBE7476:
  98              	.LBE7485:
  99              	.LBB7486:
 100              	.LBB7478:
 101              	.LBB7479:
 102              	.LBI7479:
 103              		.file 4 "/usr/include/newlib/c++/9.2.1/bits/alloc_traits.h"
   1:/usr/include/newlib/c++/9.2.1/bits/alloc_traits.h **** // Allocator traits -*- C++ -*-
   2:/usr/include/newlib/c++/9.2.1/bits/alloc_traits.h **** 
ARM GAS  /tmp/cco4jRmF.s 			page 30


   3:/usr/include/newlib/c++/9.2.1/bits/alloc_traits.h **** // Copyright (C) 2011-2019 Free Software Foundation, Inc.
   4:/usr/include/newlib/c++/9.2.1/bits/alloc_traits.h **** //
   5:/usr/include/newlib/c++/9.2.1/bits/alloc_traits.h **** // This file is part of the GNU ISO C++ Library.  This library is free
   6:/usr/include/newlib/c++/9.2.1/bits/alloc_traits.h **** // software; you can redistribute it and/or modify it under the
   7:/usr/include/newlib/c++/9.2.1/bits/alloc_traits.h **** // terms of the GNU General Public License as published by the
   8:/usr/include/newlib/c++/9.2.1/bits/alloc_traits.h **** // Free Software Foundation; either version 3, or (at your option)
   9:/usr/include/newlib/c++/9.2.1/bits/alloc_traits.h **** // any later version.
  10:/usr/include/newlib/c++/9.2.1/bits/alloc_traits.h **** 
  11:/usr/include/newlib/c++/9.2.1/bits/alloc_traits.h **** // This library is distributed in the hope that it will be useful,
  12:/usr/include/newlib/c++/9.2.1/bits/alloc_traits.h **** // but WITHOUT ANY WARRANTY; without even the implied warranty of
  13:/usr/include/newlib/c++/9.2.1/bits/alloc_traits.h **** // MERCHANTABILITY or FITNESS FOR A PARTICULAR PURPOSE.  See the
  14:/usr/include/newlib/c++/9.2.1/bits/alloc_traits.h **** // GNU General Public License for more details.
  15:/usr/include/newlib/c++/9.2.1/bits/alloc_traits.h **** 
  16:/usr/include/newlib/c++/9.2.1/bits/alloc_traits.h **** // Under Section 7 of GPL version 3, you are granted additional
  17:/usr/include/newlib/c++/9.2.1/bits/alloc_traits.h **** // permissions described in the GCC Runtime Library Exception, version
  18:/usr/include/newlib/c++/9.2.1/bits/alloc_traits.h **** // 3.1, as published by the Free Software Foundation.
  19:/usr/include/newlib/c++/9.2.1/bits/alloc_traits.h **** 
  20:/usr/include/newlib/c++/9.2.1/bits/alloc_traits.h **** // You should have received a copy of the GNU General Public License and
  21:/usr/include/newlib/c++/9.2.1/bits/alloc_traits.h **** // a copy of the GCC Runtime Library Exception along with this program;
  22:/usr/include/newlib/c++/9.2.1/bits/alloc_traits.h **** // see the files COPYING3 and COPYING.RUNTIME respectively.  If not, see
  23:/usr/include/newlib/c++/9.2.1/bits/alloc_traits.h **** // <http://www.gnu.org/licenses/>.
  24:/usr/include/newlib/c++/9.2.1/bits/alloc_traits.h **** 
  25:/usr/include/newlib/c++/9.2.1/bits/alloc_traits.h **** /** @file bits/alloc_traits.h
  26:/usr/include/newlib/c++/9.2.1/bits/alloc_traits.h ****  *  This is an internal header file, included by other library headers.
  27:/usr/include/newlib/c++/9.2.1/bits/alloc_traits.h ****  *  Do not attempt to use it directly. @headername{memory}
  28:/usr/include/newlib/c++/9.2.1/bits/alloc_traits.h ****  */
  29:/usr/include/newlib/c++/9.2.1/bits/alloc_traits.h **** 
  30:/usr/include/newlib/c++/9.2.1/bits/alloc_traits.h **** #ifndef _ALLOC_TRAITS_H
  31:/usr/include/newlib/c++/9.2.1/bits/alloc_traits.h **** #define _ALLOC_TRAITS_H 1
  32:/usr/include/newlib/c++/9.2.1/bits/alloc_traits.h **** 
  33:/usr/include/newlib/c++/9.2.1/bits/alloc_traits.h **** #if __cplusplus >= 201103L
  34:/usr/include/newlib/c++/9.2.1/bits/alloc_traits.h **** 
  35:/usr/include/newlib/c++/9.2.1/bits/alloc_traits.h **** #include <bits/memoryfwd.h>
  36:/usr/include/newlib/c++/9.2.1/bits/alloc_traits.h **** #include <bits/ptr_traits.h>
  37:/usr/include/newlib/c++/9.2.1/bits/alloc_traits.h **** #include <ext/numeric_traits.h>
  38:/usr/include/newlib/c++/9.2.1/bits/alloc_traits.h **** 
  39:/usr/include/newlib/c++/9.2.1/bits/alloc_traits.h **** #define __cpp_lib_allocator_traits_is_always_equal 201411
  40:/usr/include/newlib/c++/9.2.1/bits/alloc_traits.h **** 
  41:/usr/include/newlib/c++/9.2.1/bits/alloc_traits.h **** namespace std _GLIBCXX_VISIBILITY(default)
  42:/usr/include/newlib/c++/9.2.1/bits/alloc_traits.h **** {
  43:/usr/include/newlib/c++/9.2.1/bits/alloc_traits.h **** _GLIBCXX_BEGIN_NAMESPACE_VERSION
  44:/usr/include/newlib/c++/9.2.1/bits/alloc_traits.h **** 
  45:/usr/include/newlib/c++/9.2.1/bits/alloc_traits.h ****   struct __allocator_traits_base
  46:/usr/include/newlib/c++/9.2.1/bits/alloc_traits.h ****   {
  47:/usr/include/newlib/c++/9.2.1/bits/alloc_traits.h ****     template<typename _Tp, typename _Up, typename = void>
  48:/usr/include/newlib/c++/9.2.1/bits/alloc_traits.h ****       struct __rebind : __replace_first_arg<_Tp, _Up> { };
  49:/usr/include/newlib/c++/9.2.1/bits/alloc_traits.h **** 
  50:/usr/include/newlib/c++/9.2.1/bits/alloc_traits.h ****     template<typename _Tp, typename _Up>
  51:/usr/include/newlib/c++/9.2.1/bits/alloc_traits.h ****       struct __rebind<_Tp, _Up,
  52:/usr/include/newlib/c++/9.2.1/bits/alloc_traits.h **** 		      __void_t<typename _Tp::template rebind<_Up>::other>>
  53:/usr/include/newlib/c++/9.2.1/bits/alloc_traits.h ****       { using type = typename _Tp::template rebind<_Up>::other; };
  54:/usr/include/newlib/c++/9.2.1/bits/alloc_traits.h **** 
  55:/usr/include/newlib/c++/9.2.1/bits/alloc_traits.h ****   protected:
  56:/usr/include/newlib/c++/9.2.1/bits/alloc_traits.h ****     template<typename _Tp>
  57:/usr/include/newlib/c++/9.2.1/bits/alloc_traits.h ****       using __pointer = typename _Tp::pointer;
  58:/usr/include/newlib/c++/9.2.1/bits/alloc_traits.h ****     template<typename _Tp>
  59:/usr/include/newlib/c++/9.2.1/bits/alloc_traits.h ****       using __c_pointer = typename _Tp::const_pointer;
ARM GAS  /tmp/cco4jRmF.s 			page 31


  60:/usr/include/newlib/c++/9.2.1/bits/alloc_traits.h ****     template<typename _Tp>
  61:/usr/include/newlib/c++/9.2.1/bits/alloc_traits.h ****       using __v_pointer = typename _Tp::void_pointer;
  62:/usr/include/newlib/c++/9.2.1/bits/alloc_traits.h ****     template<typename _Tp>
  63:/usr/include/newlib/c++/9.2.1/bits/alloc_traits.h ****       using __cv_pointer = typename _Tp::const_void_pointer;
  64:/usr/include/newlib/c++/9.2.1/bits/alloc_traits.h ****     template<typename _Tp>
  65:/usr/include/newlib/c++/9.2.1/bits/alloc_traits.h ****       using __pocca = typename _Tp::propagate_on_container_copy_assignment;
  66:/usr/include/newlib/c++/9.2.1/bits/alloc_traits.h ****     template<typename _Tp>
  67:/usr/include/newlib/c++/9.2.1/bits/alloc_traits.h ****       using __pocma = typename _Tp::propagate_on_container_move_assignment;
  68:/usr/include/newlib/c++/9.2.1/bits/alloc_traits.h ****     template<typename _Tp>
  69:/usr/include/newlib/c++/9.2.1/bits/alloc_traits.h ****       using __pocs = typename _Tp::propagate_on_container_swap;
  70:/usr/include/newlib/c++/9.2.1/bits/alloc_traits.h ****     template<typename _Tp>
  71:/usr/include/newlib/c++/9.2.1/bits/alloc_traits.h ****       using __equal = typename _Tp::is_always_equal;
  72:/usr/include/newlib/c++/9.2.1/bits/alloc_traits.h ****   };
  73:/usr/include/newlib/c++/9.2.1/bits/alloc_traits.h **** 
  74:/usr/include/newlib/c++/9.2.1/bits/alloc_traits.h ****   template<typename _Alloc, typename _Up>
  75:/usr/include/newlib/c++/9.2.1/bits/alloc_traits.h ****     using __alloc_rebind
  76:/usr/include/newlib/c++/9.2.1/bits/alloc_traits.h ****       = typename __allocator_traits_base::template __rebind<_Alloc, _Up>::type;
  77:/usr/include/newlib/c++/9.2.1/bits/alloc_traits.h **** 
  78:/usr/include/newlib/c++/9.2.1/bits/alloc_traits.h ****   /**
  79:/usr/include/newlib/c++/9.2.1/bits/alloc_traits.h ****    * @brief  Uniform interface to all allocator types.
  80:/usr/include/newlib/c++/9.2.1/bits/alloc_traits.h ****    * @ingroup allocators
  81:/usr/include/newlib/c++/9.2.1/bits/alloc_traits.h ****   */
  82:/usr/include/newlib/c++/9.2.1/bits/alloc_traits.h ****   template<typename _Alloc>
  83:/usr/include/newlib/c++/9.2.1/bits/alloc_traits.h ****     struct allocator_traits : __allocator_traits_base
  84:/usr/include/newlib/c++/9.2.1/bits/alloc_traits.h ****     {
  85:/usr/include/newlib/c++/9.2.1/bits/alloc_traits.h ****       /// The allocator type
  86:/usr/include/newlib/c++/9.2.1/bits/alloc_traits.h ****       typedef _Alloc allocator_type;
  87:/usr/include/newlib/c++/9.2.1/bits/alloc_traits.h ****       /// The allocated type
  88:/usr/include/newlib/c++/9.2.1/bits/alloc_traits.h ****       typedef typename _Alloc::value_type value_type;
  89:/usr/include/newlib/c++/9.2.1/bits/alloc_traits.h **** 
  90:/usr/include/newlib/c++/9.2.1/bits/alloc_traits.h ****       /**
  91:/usr/include/newlib/c++/9.2.1/bits/alloc_traits.h ****        * @brief   The allocator's pointer type.
  92:/usr/include/newlib/c++/9.2.1/bits/alloc_traits.h ****        *
  93:/usr/include/newlib/c++/9.2.1/bits/alloc_traits.h ****        * @c Alloc::pointer if that type exists, otherwise @c value_type*
  94:/usr/include/newlib/c++/9.2.1/bits/alloc_traits.h ****       */
  95:/usr/include/newlib/c++/9.2.1/bits/alloc_traits.h ****       using pointer = __detected_or_t<value_type*, __pointer, _Alloc>;
  96:/usr/include/newlib/c++/9.2.1/bits/alloc_traits.h **** 
  97:/usr/include/newlib/c++/9.2.1/bits/alloc_traits.h ****     private:
  98:/usr/include/newlib/c++/9.2.1/bits/alloc_traits.h ****       // Select _Func<_Alloc> or pointer_traits<pointer>::rebind<_Tp>
  99:/usr/include/newlib/c++/9.2.1/bits/alloc_traits.h ****       template<template<typename> class _Func, typename _Tp, typename = void>
 100:/usr/include/newlib/c++/9.2.1/bits/alloc_traits.h **** 	struct _Ptr
 101:/usr/include/newlib/c++/9.2.1/bits/alloc_traits.h **** 	{
 102:/usr/include/newlib/c++/9.2.1/bits/alloc_traits.h **** 	  using type = typename pointer_traits<pointer>::template rebind<_Tp>;
 103:/usr/include/newlib/c++/9.2.1/bits/alloc_traits.h **** 	};
 104:/usr/include/newlib/c++/9.2.1/bits/alloc_traits.h **** 
 105:/usr/include/newlib/c++/9.2.1/bits/alloc_traits.h ****       template<template<typename> class _Func, typename _Tp>
 106:/usr/include/newlib/c++/9.2.1/bits/alloc_traits.h **** 	struct _Ptr<_Func, _Tp, __void_t<_Func<_Alloc>>>
 107:/usr/include/newlib/c++/9.2.1/bits/alloc_traits.h **** 	{
 108:/usr/include/newlib/c++/9.2.1/bits/alloc_traits.h **** 	  using type = _Func<_Alloc>;
 109:/usr/include/newlib/c++/9.2.1/bits/alloc_traits.h **** 	};
 110:/usr/include/newlib/c++/9.2.1/bits/alloc_traits.h **** 
 111:/usr/include/newlib/c++/9.2.1/bits/alloc_traits.h ****       // Select _A2::difference_type or pointer_traits<_Ptr>::difference_type
 112:/usr/include/newlib/c++/9.2.1/bits/alloc_traits.h ****       template<typename _A2, typename _PtrT, typename = void>
 113:/usr/include/newlib/c++/9.2.1/bits/alloc_traits.h **** 	struct _Diff
 114:/usr/include/newlib/c++/9.2.1/bits/alloc_traits.h **** 	{ using type = typename pointer_traits<_PtrT>::difference_type; };
 115:/usr/include/newlib/c++/9.2.1/bits/alloc_traits.h **** 
 116:/usr/include/newlib/c++/9.2.1/bits/alloc_traits.h ****       template<typename _A2, typename _PtrT>
ARM GAS  /tmp/cco4jRmF.s 			page 32


 117:/usr/include/newlib/c++/9.2.1/bits/alloc_traits.h **** 	struct _Diff<_A2, _PtrT, __void_t<typename _A2::difference_type>>
 118:/usr/include/newlib/c++/9.2.1/bits/alloc_traits.h **** 	{ using type = typename _A2::difference_type; };
 119:/usr/include/newlib/c++/9.2.1/bits/alloc_traits.h **** 
 120:/usr/include/newlib/c++/9.2.1/bits/alloc_traits.h ****       // Select _A2::size_type or make_unsigned<_DiffT>::type
 121:/usr/include/newlib/c++/9.2.1/bits/alloc_traits.h ****       template<typename _A2, typename _DiffT, typename = void>
 122:/usr/include/newlib/c++/9.2.1/bits/alloc_traits.h **** 	struct _Size : make_unsigned<_DiffT> { };
 123:/usr/include/newlib/c++/9.2.1/bits/alloc_traits.h **** 
 124:/usr/include/newlib/c++/9.2.1/bits/alloc_traits.h ****       template<typename _A2, typename _DiffT>
 125:/usr/include/newlib/c++/9.2.1/bits/alloc_traits.h **** 	struct _Size<_A2, _DiffT, __void_t<typename _A2::size_type>>
 126:/usr/include/newlib/c++/9.2.1/bits/alloc_traits.h **** 	{ using type = typename _A2::size_type; };
 127:/usr/include/newlib/c++/9.2.1/bits/alloc_traits.h **** 
 128:/usr/include/newlib/c++/9.2.1/bits/alloc_traits.h ****     public:
 129:/usr/include/newlib/c++/9.2.1/bits/alloc_traits.h ****       /**
 130:/usr/include/newlib/c++/9.2.1/bits/alloc_traits.h ****        * @brief   The allocator's const pointer type.
 131:/usr/include/newlib/c++/9.2.1/bits/alloc_traits.h ****        *
 132:/usr/include/newlib/c++/9.2.1/bits/alloc_traits.h ****        * @c Alloc::const_pointer if that type exists, otherwise
 133:/usr/include/newlib/c++/9.2.1/bits/alloc_traits.h ****        * <tt> pointer_traits<pointer>::rebind<const value_type> </tt>
 134:/usr/include/newlib/c++/9.2.1/bits/alloc_traits.h ****       */
 135:/usr/include/newlib/c++/9.2.1/bits/alloc_traits.h ****       using const_pointer = typename _Ptr<__c_pointer, const value_type>::type;
 136:/usr/include/newlib/c++/9.2.1/bits/alloc_traits.h **** 
 137:/usr/include/newlib/c++/9.2.1/bits/alloc_traits.h ****       /**
 138:/usr/include/newlib/c++/9.2.1/bits/alloc_traits.h ****        * @brief   The allocator's void pointer type.
 139:/usr/include/newlib/c++/9.2.1/bits/alloc_traits.h ****        *
 140:/usr/include/newlib/c++/9.2.1/bits/alloc_traits.h ****        * @c Alloc::void_pointer if that type exists, otherwise
 141:/usr/include/newlib/c++/9.2.1/bits/alloc_traits.h ****        * <tt> pointer_traits<pointer>::rebind<void> </tt>
 142:/usr/include/newlib/c++/9.2.1/bits/alloc_traits.h ****       */
 143:/usr/include/newlib/c++/9.2.1/bits/alloc_traits.h ****       using void_pointer = typename _Ptr<__v_pointer, void>::type;
 144:/usr/include/newlib/c++/9.2.1/bits/alloc_traits.h **** 
 145:/usr/include/newlib/c++/9.2.1/bits/alloc_traits.h ****       /**
 146:/usr/include/newlib/c++/9.2.1/bits/alloc_traits.h ****        * @brief   The allocator's const void pointer type.
 147:/usr/include/newlib/c++/9.2.1/bits/alloc_traits.h ****        *
 148:/usr/include/newlib/c++/9.2.1/bits/alloc_traits.h ****        * @c Alloc::const_void_pointer if that type exists, otherwise
 149:/usr/include/newlib/c++/9.2.1/bits/alloc_traits.h ****        * <tt> pointer_traits<pointer>::rebind<const void> </tt>
 150:/usr/include/newlib/c++/9.2.1/bits/alloc_traits.h ****       */
 151:/usr/include/newlib/c++/9.2.1/bits/alloc_traits.h ****       using const_void_pointer = typename _Ptr<__cv_pointer, const void>::type;
 152:/usr/include/newlib/c++/9.2.1/bits/alloc_traits.h **** 
 153:/usr/include/newlib/c++/9.2.1/bits/alloc_traits.h ****       /**
 154:/usr/include/newlib/c++/9.2.1/bits/alloc_traits.h ****        * @brief   The allocator's difference type
 155:/usr/include/newlib/c++/9.2.1/bits/alloc_traits.h ****        *
 156:/usr/include/newlib/c++/9.2.1/bits/alloc_traits.h ****        * @c Alloc::difference_type if that type exists, otherwise
 157:/usr/include/newlib/c++/9.2.1/bits/alloc_traits.h ****        * <tt> pointer_traits<pointer>::difference_type </tt>
 158:/usr/include/newlib/c++/9.2.1/bits/alloc_traits.h ****       */
 159:/usr/include/newlib/c++/9.2.1/bits/alloc_traits.h ****       using difference_type = typename _Diff<_Alloc, pointer>::type;
 160:/usr/include/newlib/c++/9.2.1/bits/alloc_traits.h **** 
 161:/usr/include/newlib/c++/9.2.1/bits/alloc_traits.h ****       /**
 162:/usr/include/newlib/c++/9.2.1/bits/alloc_traits.h ****        * @brief   The allocator's size type
 163:/usr/include/newlib/c++/9.2.1/bits/alloc_traits.h ****        *
 164:/usr/include/newlib/c++/9.2.1/bits/alloc_traits.h ****        * @c Alloc::size_type if that type exists, otherwise
 165:/usr/include/newlib/c++/9.2.1/bits/alloc_traits.h ****        * <tt> make_unsigned<difference_type>::type </tt>
 166:/usr/include/newlib/c++/9.2.1/bits/alloc_traits.h ****       */
 167:/usr/include/newlib/c++/9.2.1/bits/alloc_traits.h ****       using size_type = typename _Size<_Alloc, difference_type>::type;
 168:/usr/include/newlib/c++/9.2.1/bits/alloc_traits.h **** 
 169:/usr/include/newlib/c++/9.2.1/bits/alloc_traits.h ****       /**
 170:/usr/include/newlib/c++/9.2.1/bits/alloc_traits.h ****        * @brief   How the allocator is propagated on copy assignment
 171:/usr/include/newlib/c++/9.2.1/bits/alloc_traits.h ****        *
 172:/usr/include/newlib/c++/9.2.1/bits/alloc_traits.h ****        * @c Alloc::propagate_on_container_copy_assignment if that type exists,
 173:/usr/include/newlib/c++/9.2.1/bits/alloc_traits.h ****        * otherwise @c false_type
ARM GAS  /tmp/cco4jRmF.s 			page 33


 174:/usr/include/newlib/c++/9.2.1/bits/alloc_traits.h ****       */
 175:/usr/include/newlib/c++/9.2.1/bits/alloc_traits.h ****       using propagate_on_container_copy_assignment
 176:/usr/include/newlib/c++/9.2.1/bits/alloc_traits.h **** 	= __detected_or_t<false_type, __pocca, _Alloc>;
 177:/usr/include/newlib/c++/9.2.1/bits/alloc_traits.h **** 
 178:/usr/include/newlib/c++/9.2.1/bits/alloc_traits.h ****       /**
 179:/usr/include/newlib/c++/9.2.1/bits/alloc_traits.h ****        * @brief   How the allocator is propagated on move assignment
 180:/usr/include/newlib/c++/9.2.1/bits/alloc_traits.h ****        *
 181:/usr/include/newlib/c++/9.2.1/bits/alloc_traits.h ****        * @c Alloc::propagate_on_container_move_assignment if that type exists,
 182:/usr/include/newlib/c++/9.2.1/bits/alloc_traits.h ****        * otherwise @c false_type
 183:/usr/include/newlib/c++/9.2.1/bits/alloc_traits.h ****       */
 184:/usr/include/newlib/c++/9.2.1/bits/alloc_traits.h ****       using propagate_on_container_move_assignment
 185:/usr/include/newlib/c++/9.2.1/bits/alloc_traits.h **** 	= __detected_or_t<false_type, __pocma, _Alloc>;
 186:/usr/include/newlib/c++/9.2.1/bits/alloc_traits.h **** 
 187:/usr/include/newlib/c++/9.2.1/bits/alloc_traits.h ****       /**
 188:/usr/include/newlib/c++/9.2.1/bits/alloc_traits.h ****        * @brief   How the allocator is propagated on swap
 189:/usr/include/newlib/c++/9.2.1/bits/alloc_traits.h ****        *
 190:/usr/include/newlib/c++/9.2.1/bits/alloc_traits.h ****        * @c Alloc::propagate_on_container_swap if that type exists,
 191:/usr/include/newlib/c++/9.2.1/bits/alloc_traits.h ****        * otherwise @c false_type
 192:/usr/include/newlib/c++/9.2.1/bits/alloc_traits.h ****       */
 193:/usr/include/newlib/c++/9.2.1/bits/alloc_traits.h ****       using propagate_on_container_swap
 194:/usr/include/newlib/c++/9.2.1/bits/alloc_traits.h **** 	= __detected_or_t<false_type, __pocs, _Alloc>;
 195:/usr/include/newlib/c++/9.2.1/bits/alloc_traits.h **** 
 196:/usr/include/newlib/c++/9.2.1/bits/alloc_traits.h ****       /**
 197:/usr/include/newlib/c++/9.2.1/bits/alloc_traits.h ****        * @brief   Whether all instances of the allocator type compare equal.
 198:/usr/include/newlib/c++/9.2.1/bits/alloc_traits.h ****        *
 199:/usr/include/newlib/c++/9.2.1/bits/alloc_traits.h ****        * @c Alloc::is_always_equal if that type exists,
 200:/usr/include/newlib/c++/9.2.1/bits/alloc_traits.h ****        * otherwise @c is_empty<Alloc>::type
 201:/usr/include/newlib/c++/9.2.1/bits/alloc_traits.h ****       */
 202:/usr/include/newlib/c++/9.2.1/bits/alloc_traits.h ****       using is_always_equal
 203:/usr/include/newlib/c++/9.2.1/bits/alloc_traits.h **** 	= __detected_or_t<typename is_empty<_Alloc>::type, __equal, _Alloc>;
 204:/usr/include/newlib/c++/9.2.1/bits/alloc_traits.h **** 
 205:/usr/include/newlib/c++/9.2.1/bits/alloc_traits.h ****       template<typename _Tp>
 206:/usr/include/newlib/c++/9.2.1/bits/alloc_traits.h **** 	using rebind_alloc = __alloc_rebind<_Alloc, _Tp>;
 207:/usr/include/newlib/c++/9.2.1/bits/alloc_traits.h ****       template<typename _Tp>
 208:/usr/include/newlib/c++/9.2.1/bits/alloc_traits.h **** 	using rebind_traits = allocator_traits<rebind_alloc<_Tp>>;
 209:/usr/include/newlib/c++/9.2.1/bits/alloc_traits.h **** 
 210:/usr/include/newlib/c++/9.2.1/bits/alloc_traits.h ****     private:
 211:/usr/include/newlib/c++/9.2.1/bits/alloc_traits.h ****       template<typename _Alloc2>
 212:/usr/include/newlib/c++/9.2.1/bits/alloc_traits.h **** 	static auto
 213:/usr/include/newlib/c++/9.2.1/bits/alloc_traits.h **** 	_S_allocate(_Alloc2& __a, size_type __n, const_void_pointer __hint, int)
 214:/usr/include/newlib/c++/9.2.1/bits/alloc_traits.h **** 	-> decltype(__a.allocate(__n, __hint))
 215:/usr/include/newlib/c++/9.2.1/bits/alloc_traits.h **** 	{ return __a.allocate(__n, __hint); }
 216:/usr/include/newlib/c++/9.2.1/bits/alloc_traits.h **** 
 217:/usr/include/newlib/c++/9.2.1/bits/alloc_traits.h ****       template<typename _Alloc2>
 218:/usr/include/newlib/c++/9.2.1/bits/alloc_traits.h **** 	static pointer
 219:/usr/include/newlib/c++/9.2.1/bits/alloc_traits.h **** 	_S_allocate(_Alloc2& __a, size_type __n, const_void_pointer, ...)
 220:/usr/include/newlib/c++/9.2.1/bits/alloc_traits.h **** 	{ return __a.allocate(__n); }
 221:/usr/include/newlib/c++/9.2.1/bits/alloc_traits.h **** 
 222:/usr/include/newlib/c++/9.2.1/bits/alloc_traits.h ****       template<typename _Tp, typename... _Args>
 223:/usr/include/newlib/c++/9.2.1/bits/alloc_traits.h **** 	struct __construct_helper
 224:/usr/include/newlib/c++/9.2.1/bits/alloc_traits.h **** 	{
 225:/usr/include/newlib/c++/9.2.1/bits/alloc_traits.h **** 	  template<typename _Alloc2,
 226:/usr/include/newlib/c++/9.2.1/bits/alloc_traits.h **** 	    typename = decltype(std::declval<_Alloc2*>()->construct(
 227:/usr/include/newlib/c++/9.2.1/bits/alloc_traits.h **** 		  std::declval<_Tp*>(), std::declval<_Args>()...))>
 228:/usr/include/newlib/c++/9.2.1/bits/alloc_traits.h **** 	    static true_type __test(int);
 229:/usr/include/newlib/c++/9.2.1/bits/alloc_traits.h **** 
 230:/usr/include/newlib/c++/9.2.1/bits/alloc_traits.h **** 	  template<typename>
ARM GAS  /tmp/cco4jRmF.s 			page 34


 231:/usr/include/newlib/c++/9.2.1/bits/alloc_traits.h **** 	    static false_type __test(...);
 232:/usr/include/newlib/c++/9.2.1/bits/alloc_traits.h **** 
 233:/usr/include/newlib/c++/9.2.1/bits/alloc_traits.h **** 	  using type = decltype(__test<_Alloc>(0));
 234:/usr/include/newlib/c++/9.2.1/bits/alloc_traits.h **** 	};
 235:/usr/include/newlib/c++/9.2.1/bits/alloc_traits.h **** 
 236:/usr/include/newlib/c++/9.2.1/bits/alloc_traits.h ****       template<typename _Tp, typename... _Args>
 237:/usr/include/newlib/c++/9.2.1/bits/alloc_traits.h **** 	using __has_construct
 238:/usr/include/newlib/c++/9.2.1/bits/alloc_traits.h **** 	  = typename __construct_helper<_Tp, _Args...>::type;
 239:/usr/include/newlib/c++/9.2.1/bits/alloc_traits.h **** 
 240:/usr/include/newlib/c++/9.2.1/bits/alloc_traits.h ****       template<typename _Tp, typename... _Args>
 241:/usr/include/newlib/c++/9.2.1/bits/alloc_traits.h **** 	static _Require<__has_construct<_Tp, _Args...>>
 242:/usr/include/newlib/c++/9.2.1/bits/alloc_traits.h **** 	_S_construct(_Alloc& __a, _Tp* __p, _Args&&... __args)
 243:/usr/include/newlib/c++/9.2.1/bits/alloc_traits.h **** 	noexcept(noexcept(__a.construct(__p, std::forward<_Args>(__args)...)))
 244:/usr/include/newlib/c++/9.2.1/bits/alloc_traits.h **** 	{ __a.construct(__p, std::forward<_Args>(__args)...); }
 245:/usr/include/newlib/c++/9.2.1/bits/alloc_traits.h **** 
 246:/usr/include/newlib/c++/9.2.1/bits/alloc_traits.h ****       template<typename _Tp, typename... _Args>
 247:/usr/include/newlib/c++/9.2.1/bits/alloc_traits.h **** 	static
 248:/usr/include/newlib/c++/9.2.1/bits/alloc_traits.h **** 	_Require<__and_<__not_<__has_construct<_Tp, _Args...>>,
 249:/usr/include/newlib/c++/9.2.1/bits/alloc_traits.h **** 			       is_constructible<_Tp, _Args...>>>
 250:/usr/include/newlib/c++/9.2.1/bits/alloc_traits.h **** 	_S_construct(_Alloc&, _Tp* __p, _Args&&... __args)
 251:/usr/include/newlib/c++/9.2.1/bits/alloc_traits.h **** 	noexcept(noexcept(::new((void*)__p)
 252:/usr/include/newlib/c++/9.2.1/bits/alloc_traits.h **** 			  _Tp(std::forward<_Args>(__args)...)))
 253:/usr/include/newlib/c++/9.2.1/bits/alloc_traits.h **** 	{ ::new((void*)__p) _Tp(std::forward<_Args>(__args)...); }
 254:/usr/include/newlib/c++/9.2.1/bits/alloc_traits.h **** 
 255:/usr/include/newlib/c++/9.2.1/bits/alloc_traits.h ****       template<typename _Alloc2, typename _Tp>
 256:/usr/include/newlib/c++/9.2.1/bits/alloc_traits.h **** 	static auto
 257:/usr/include/newlib/c++/9.2.1/bits/alloc_traits.h **** 	_S_destroy(_Alloc2& __a, _Tp* __p, int)
 258:/usr/include/newlib/c++/9.2.1/bits/alloc_traits.h **** 	noexcept(noexcept(__a.destroy(__p)))
 259:/usr/include/newlib/c++/9.2.1/bits/alloc_traits.h **** 	-> decltype(__a.destroy(__p))
 260:/usr/include/newlib/c++/9.2.1/bits/alloc_traits.h **** 	{ __a.destroy(__p); }
 261:/usr/include/newlib/c++/9.2.1/bits/alloc_traits.h **** 
 262:/usr/include/newlib/c++/9.2.1/bits/alloc_traits.h ****       template<typename _Alloc2, typename _Tp>
 263:/usr/include/newlib/c++/9.2.1/bits/alloc_traits.h **** 	static void
 264:/usr/include/newlib/c++/9.2.1/bits/alloc_traits.h **** 	_S_destroy(_Alloc2&, _Tp* __p, ...)
 265:/usr/include/newlib/c++/9.2.1/bits/alloc_traits.h **** 	noexcept(noexcept(__p->~_Tp()))
 266:/usr/include/newlib/c++/9.2.1/bits/alloc_traits.h **** 	{ __p->~_Tp(); }
 267:/usr/include/newlib/c++/9.2.1/bits/alloc_traits.h **** 
 268:/usr/include/newlib/c++/9.2.1/bits/alloc_traits.h ****       template<typename _Alloc2>
 269:/usr/include/newlib/c++/9.2.1/bits/alloc_traits.h **** 	static auto
 270:/usr/include/newlib/c++/9.2.1/bits/alloc_traits.h **** 	_S_max_size(_Alloc2& __a, int)
 271:/usr/include/newlib/c++/9.2.1/bits/alloc_traits.h **** 	-> decltype(__a.max_size())
 272:/usr/include/newlib/c++/9.2.1/bits/alloc_traits.h **** 	{ return __a.max_size(); }
 273:/usr/include/newlib/c++/9.2.1/bits/alloc_traits.h **** 
 274:/usr/include/newlib/c++/9.2.1/bits/alloc_traits.h ****       template<typename _Alloc2>
 275:/usr/include/newlib/c++/9.2.1/bits/alloc_traits.h **** 	static size_type
 276:/usr/include/newlib/c++/9.2.1/bits/alloc_traits.h **** 	_S_max_size(_Alloc2&, ...)
 277:/usr/include/newlib/c++/9.2.1/bits/alloc_traits.h **** 	{
 278:/usr/include/newlib/c++/9.2.1/bits/alloc_traits.h **** 	  // _GLIBCXX_RESOLVE_LIB_DEFECTS
 279:/usr/include/newlib/c++/9.2.1/bits/alloc_traits.h **** 	  // 2466. allocator_traits::max_size() default behavior is incorrect
 280:/usr/include/newlib/c++/9.2.1/bits/alloc_traits.h **** 	  return __gnu_cxx::__numeric_traits<size_type>::__max
 281:/usr/include/newlib/c++/9.2.1/bits/alloc_traits.h **** 	    / sizeof(value_type);
 282:/usr/include/newlib/c++/9.2.1/bits/alloc_traits.h **** 	}
 283:/usr/include/newlib/c++/9.2.1/bits/alloc_traits.h **** 
 284:/usr/include/newlib/c++/9.2.1/bits/alloc_traits.h ****       template<typename _Alloc2>
 285:/usr/include/newlib/c++/9.2.1/bits/alloc_traits.h **** 	static auto
 286:/usr/include/newlib/c++/9.2.1/bits/alloc_traits.h **** 	_S_select(_Alloc2& __a, int)
 287:/usr/include/newlib/c++/9.2.1/bits/alloc_traits.h **** 	-> decltype(__a.select_on_container_copy_construction())
ARM GAS  /tmp/cco4jRmF.s 			page 35


 288:/usr/include/newlib/c++/9.2.1/bits/alloc_traits.h **** 	{ return __a.select_on_container_copy_construction(); }
 289:/usr/include/newlib/c++/9.2.1/bits/alloc_traits.h **** 
 290:/usr/include/newlib/c++/9.2.1/bits/alloc_traits.h ****       template<typename _Alloc2>
 291:/usr/include/newlib/c++/9.2.1/bits/alloc_traits.h **** 	static _Alloc2
 292:/usr/include/newlib/c++/9.2.1/bits/alloc_traits.h **** 	_S_select(_Alloc2& __a, ...)
 293:/usr/include/newlib/c++/9.2.1/bits/alloc_traits.h **** 	{ return __a; }
 294:/usr/include/newlib/c++/9.2.1/bits/alloc_traits.h **** 
 295:/usr/include/newlib/c++/9.2.1/bits/alloc_traits.h ****     public:
 296:/usr/include/newlib/c++/9.2.1/bits/alloc_traits.h **** 
 297:/usr/include/newlib/c++/9.2.1/bits/alloc_traits.h ****       /**
 298:/usr/include/newlib/c++/9.2.1/bits/alloc_traits.h ****        *  @brief  Allocate memory.
 299:/usr/include/newlib/c++/9.2.1/bits/alloc_traits.h ****        *  @param  __a  An allocator.
 300:/usr/include/newlib/c++/9.2.1/bits/alloc_traits.h ****        *  @param  __n  The number of objects to allocate space for.
 301:/usr/include/newlib/c++/9.2.1/bits/alloc_traits.h ****        *
 302:/usr/include/newlib/c++/9.2.1/bits/alloc_traits.h ****        *  Calls @c a.allocate(n)
 303:/usr/include/newlib/c++/9.2.1/bits/alloc_traits.h ****       */
 304:/usr/include/newlib/c++/9.2.1/bits/alloc_traits.h ****       _GLIBCXX_NODISCARD static pointer
 305:/usr/include/newlib/c++/9.2.1/bits/alloc_traits.h ****       allocate(_Alloc& __a, size_type __n)
 306:/usr/include/newlib/c++/9.2.1/bits/alloc_traits.h ****       { return __a.allocate(__n); }
 307:/usr/include/newlib/c++/9.2.1/bits/alloc_traits.h **** 
 308:/usr/include/newlib/c++/9.2.1/bits/alloc_traits.h ****       /**
 309:/usr/include/newlib/c++/9.2.1/bits/alloc_traits.h ****        *  @brief  Allocate memory.
 310:/usr/include/newlib/c++/9.2.1/bits/alloc_traits.h ****        *  @param  __a  An allocator.
 311:/usr/include/newlib/c++/9.2.1/bits/alloc_traits.h ****        *  @param  __n  The number of objects to allocate space for.
 312:/usr/include/newlib/c++/9.2.1/bits/alloc_traits.h ****        *  @param  __hint Aid to locality.
 313:/usr/include/newlib/c++/9.2.1/bits/alloc_traits.h ****        *  @return Memory of suitable size and alignment for @a n objects
 314:/usr/include/newlib/c++/9.2.1/bits/alloc_traits.h ****        *          of type @c value_type
 315:/usr/include/newlib/c++/9.2.1/bits/alloc_traits.h ****        *
 316:/usr/include/newlib/c++/9.2.1/bits/alloc_traits.h ****        *  Returns <tt> a.allocate(n, hint) </tt> if that expression is
 317:/usr/include/newlib/c++/9.2.1/bits/alloc_traits.h ****        *  well-formed, otherwise returns @c a.allocate(n)
 318:/usr/include/newlib/c++/9.2.1/bits/alloc_traits.h ****       */
 319:/usr/include/newlib/c++/9.2.1/bits/alloc_traits.h ****       _GLIBCXX_NODISCARD static pointer
 320:/usr/include/newlib/c++/9.2.1/bits/alloc_traits.h ****       allocate(_Alloc& __a, size_type __n, const_void_pointer __hint)
 321:/usr/include/newlib/c++/9.2.1/bits/alloc_traits.h ****       { return _S_allocate(__a, __n, __hint, 0); }
 322:/usr/include/newlib/c++/9.2.1/bits/alloc_traits.h **** 
 323:/usr/include/newlib/c++/9.2.1/bits/alloc_traits.h ****       /**
 324:/usr/include/newlib/c++/9.2.1/bits/alloc_traits.h ****        *  @brief  Deallocate memory.
 325:/usr/include/newlib/c++/9.2.1/bits/alloc_traits.h ****        *  @param  __a  An allocator.
 326:/usr/include/newlib/c++/9.2.1/bits/alloc_traits.h ****        *  @param  __p  Pointer to the memory to deallocate.
 327:/usr/include/newlib/c++/9.2.1/bits/alloc_traits.h ****        *  @param  __n  The number of objects space was allocated for.
 328:/usr/include/newlib/c++/9.2.1/bits/alloc_traits.h ****        *
 329:/usr/include/newlib/c++/9.2.1/bits/alloc_traits.h ****        *  Calls <tt> a.deallocate(p, n) </tt>
 330:/usr/include/newlib/c++/9.2.1/bits/alloc_traits.h ****       */
 331:/usr/include/newlib/c++/9.2.1/bits/alloc_traits.h ****       static void
 332:/usr/include/newlib/c++/9.2.1/bits/alloc_traits.h ****       deallocate(_Alloc& __a, pointer __p, size_type __n)
 333:/usr/include/newlib/c++/9.2.1/bits/alloc_traits.h ****       { __a.deallocate(__p, __n); }
 334:/usr/include/newlib/c++/9.2.1/bits/alloc_traits.h **** 
 335:/usr/include/newlib/c++/9.2.1/bits/alloc_traits.h ****       /**
 336:/usr/include/newlib/c++/9.2.1/bits/alloc_traits.h ****        *  @brief  Construct an object of type @a _Tp
 337:/usr/include/newlib/c++/9.2.1/bits/alloc_traits.h ****        *  @param  __a  An allocator.
 338:/usr/include/newlib/c++/9.2.1/bits/alloc_traits.h ****        *  @param  __p  Pointer to memory of suitable size and alignment for Tp
 339:/usr/include/newlib/c++/9.2.1/bits/alloc_traits.h ****        *  @param  __args Constructor arguments.
 340:/usr/include/newlib/c++/9.2.1/bits/alloc_traits.h ****        *
 341:/usr/include/newlib/c++/9.2.1/bits/alloc_traits.h ****        *  Calls <tt> __a.construct(__p, std::forward<Args>(__args)...) </tt>
 342:/usr/include/newlib/c++/9.2.1/bits/alloc_traits.h ****        *  if that expression is well-formed, otherwise uses placement-new
 343:/usr/include/newlib/c++/9.2.1/bits/alloc_traits.h ****        *  to construct an object of type @a _Tp at location @a __p from the
 344:/usr/include/newlib/c++/9.2.1/bits/alloc_traits.h ****        *  arguments @a __args...
ARM GAS  /tmp/cco4jRmF.s 			page 36


 345:/usr/include/newlib/c++/9.2.1/bits/alloc_traits.h ****       */
 346:/usr/include/newlib/c++/9.2.1/bits/alloc_traits.h ****       template<typename _Tp, typename... _Args>
 347:/usr/include/newlib/c++/9.2.1/bits/alloc_traits.h **** 	static auto construct(_Alloc& __a, _Tp* __p, _Args&&... __args)
 348:/usr/include/newlib/c++/9.2.1/bits/alloc_traits.h **** 	noexcept(noexcept(_S_construct(__a, __p,
 349:/usr/include/newlib/c++/9.2.1/bits/alloc_traits.h **** 				       std::forward<_Args>(__args)...)))
 350:/usr/include/newlib/c++/9.2.1/bits/alloc_traits.h **** 	-> decltype(_S_construct(__a, __p, std::forward<_Args>(__args)...))
 351:/usr/include/newlib/c++/9.2.1/bits/alloc_traits.h **** 	{ _S_construct(__a, __p, std::forward<_Args>(__args)...); }
 352:/usr/include/newlib/c++/9.2.1/bits/alloc_traits.h **** 
 353:/usr/include/newlib/c++/9.2.1/bits/alloc_traits.h ****       /**
 354:/usr/include/newlib/c++/9.2.1/bits/alloc_traits.h ****        *  @brief  Destroy an object of type @a _Tp
 355:/usr/include/newlib/c++/9.2.1/bits/alloc_traits.h ****        *  @param  __a  An allocator.
 356:/usr/include/newlib/c++/9.2.1/bits/alloc_traits.h ****        *  @param  __p  Pointer to the object to destroy
 357:/usr/include/newlib/c++/9.2.1/bits/alloc_traits.h ****        *
 358:/usr/include/newlib/c++/9.2.1/bits/alloc_traits.h ****        *  Calls @c __a.destroy(__p) if that expression is well-formed,
 359:/usr/include/newlib/c++/9.2.1/bits/alloc_traits.h ****        *  otherwise calls @c __p->~_Tp()
 360:/usr/include/newlib/c++/9.2.1/bits/alloc_traits.h ****       */
 361:/usr/include/newlib/c++/9.2.1/bits/alloc_traits.h ****       template<typename _Tp>
 362:/usr/include/newlib/c++/9.2.1/bits/alloc_traits.h **** 	static void destroy(_Alloc& __a, _Tp* __p)
 363:/usr/include/newlib/c++/9.2.1/bits/alloc_traits.h **** 	noexcept(noexcept(_S_destroy(__a, __p, 0)))
 364:/usr/include/newlib/c++/9.2.1/bits/alloc_traits.h **** 	{ _S_destroy(__a, __p, 0); }
 365:/usr/include/newlib/c++/9.2.1/bits/alloc_traits.h **** 
 366:/usr/include/newlib/c++/9.2.1/bits/alloc_traits.h ****       /**
 367:/usr/include/newlib/c++/9.2.1/bits/alloc_traits.h ****        *  @brief  The maximum supported allocation size
 368:/usr/include/newlib/c++/9.2.1/bits/alloc_traits.h ****        *  @param  __a  An allocator.
 369:/usr/include/newlib/c++/9.2.1/bits/alloc_traits.h ****        *  @return @c __a.max_size() or @c numeric_limits<size_type>::max()
 370:/usr/include/newlib/c++/9.2.1/bits/alloc_traits.h ****        *
 371:/usr/include/newlib/c++/9.2.1/bits/alloc_traits.h ****        *  Returns @c __a.max_size() if that expression is well-formed,
 372:/usr/include/newlib/c++/9.2.1/bits/alloc_traits.h ****        *  otherwise returns @c numeric_limits<size_type>::max()
 373:/usr/include/newlib/c++/9.2.1/bits/alloc_traits.h ****       */
 374:/usr/include/newlib/c++/9.2.1/bits/alloc_traits.h ****       static size_type max_size(const _Alloc& __a) noexcept
 375:/usr/include/newlib/c++/9.2.1/bits/alloc_traits.h ****       { return _S_max_size(__a, 0); }
 376:/usr/include/newlib/c++/9.2.1/bits/alloc_traits.h **** 
 377:/usr/include/newlib/c++/9.2.1/bits/alloc_traits.h ****       /**
 378:/usr/include/newlib/c++/9.2.1/bits/alloc_traits.h ****        *  @brief  Obtain an allocator to use when copying a container.
 379:/usr/include/newlib/c++/9.2.1/bits/alloc_traits.h ****        *  @param  __rhs  An allocator.
 380:/usr/include/newlib/c++/9.2.1/bits/alloc_traits.h ****        *  @return @c __rhs.select_on_container_copy_construction() or @a __rhs
 381:/usr/include/newlib/c++/9.2.1/bits/alloc_traits.h ****        *
 382:/usr/include/newlib/c++/9.2.1/bits/alloc_traits.h ****        *  Returns @c __rhs.select_on_container_copy_construction() if that
 383:/usr/include/newlib/c++/9.2.1/bits/alloc_traits.h ****        *  expression is well-formed, otherwise returns @a __rhs
 384:/usr/include/newlib/c++/9.2.1/bits/alloc_traits.h ****       */
 385:/usr/include/newlib/c++/9.2.1/bits/alloc_traits.h ****       static _Alloc
 386:/usr/include/newlib/c++/9.2.1/bits/alloc_traits.h ****       select_on_container_copy_construction(const _Alloc& __rhs)
 387:/usr/include/newlib/c++/9.2.1/bits/alloc_traits.h ****       { return _S_select(__rhs, 0); }
 388:/usr/include/newlib/c++/9.2.1/bits/alloc_traits.h ****     };
 389:/usr/include/newlib/c++/9.2.1/bits/alloc_traits.h **** 
 390:/usr/include/newlib/c++/9.2.1/bits/alloc_traits.h ****   /// Partial specialization for std::allocator.
 391:/usr/include/newlib/c++/9.2.1/bits/alloc_traits.h ****   template<typename _Tp>
 392:/usr/include/newlib/c++/9.2.1/bits/alloc_traits.h ****     struct allocator_traits<allocator<_Tp>>
 393:/usr/include/newlib/c++/9.2.1/bits/alloc_traits.h ****     {
 394:/usr/include/newlib/c++/9.2.1/bits/alloc_traits.h ****       /// The allocator type
 395:/usr/include/newlib/c++/9.2.1/bits/alloc_traits.h ****       using allocator_type = allocator<_Tp>;
 396:/usr/include/newlib/c++/9.2.1/bits/alloc_traits.h ****       /// The allocated type
 397:/usr/include/newlib/c++/9.2.1/bits/alloc_traits.h ****       using value_type = _Tp;
 398:/usr/include/newlib/c++/9.2.1/bits/alloc_traits.h **** 
 399:/usr/include/newlib/c++/9.2.1/bits/alloc_traits.h ****       /// The allocator's pointer type.
 400:/usr/include/newlib/c++/9.2.1/bits/alloc_traits.h ****       using pointer = _Tp*;
 401:/usr/include/newlib/c++/9.2.1/bits/alloc_traits.h **** 
ARM GAS  /tmp/cco4jRmF.s 			page 37


 402:/usr/include/newlib/c++/9.2.1/bits/alloc_traits.h ****       /// The allocator's const pointer type.
 403:/usr/include/newlib/c++/9.2.1/bits/alloc_traits.h ****       using const_pointer = const _Tp*;
 404:/usr/include/newlib/c++/9.2.1/bits/alloc_traits.h **** 
 405:/usr/include/newlib/c++/9.2.1/bits/alloc_traits.h ****       /// The allocator's void pointer type.
 406:/usr/include/newlib/c++/9.2.1/bits/alloc_traits.h ****       using void_pointer = void*;
 407:/usr/include/newlib/c++/9.2.1/bits/alloc_traits.h **** 
 408:/usr/include/newlib/c++/9.2.1/bits/alloc_traits.h ****       /// The allocator's const void pointer type.
 409:/usr/include/newlib/c++/9.2.1/bits/alloc_traits.h ****       using const_void_pointer = const void*;
 410:/usr/include/newlib/c++/9.2.1/bits/alloc_traits.h **** 
 411:/usr/include/newlib/c++/9.2.1/bits/alloc_traits.h ****       /// The allocator's difference type
 412:/usr/include/newlib/c++/9.2.1/bits/alloc_traits.h ****       using difference_type = std::ptrdiff_t;
 413:/usr/include/newlib/c++/9.2.1/bits/alloc_traits.h **** 
 414:/usr/include/newlib/c++/9.2.1/bits/alloc_traits.h ****       /// The allocator's size type
 415:/usr/include/newlib/c++/9.2.1/bits/alloc_traits.h ****       using size_type = std::size_t;
 416:/usr/include/newlib/c++/9.2.1/bits/alloc_traits.h **** 
 417:/usr/include/newlib/c++/9.2.1/bits/alloc_traits.h ****       /// How the allocator is propagated on copy assignment
 418:/usr/include/newlib/c++/9.2.1/bits/alloc_traits.h ****       using propagate_on_container_copy_assignment = false_type;
 419:/usr/include/newlib/c++/9.2.1/bits/alloc_traits.h **** 
 420:/usr/include/newlib/c++/9.2.1/bits/alloc_traits.h ****       /// How the allocator is propagated on move assignment
 421:/usr/include/newlib/c++/9.2.1/bits/alloc_traits.h ****       using propagate_on_container_move_assignment = true_type;
 422:/usr/include/newlib/c++/9.2.1/bits/alloc_traits.h **** 
 423:/usr/include/newlib/c++/9.2.1/bits/alloc_traits.h ****       /// How the allocator is propagated on swap
 424:/usr/include/newlib/c++/9.2.1/bits/alloc_traits.h ****       using propagate_on_container_swap = false_type;
 425:/usr/include/newlib/c++/9.2.1/bits/alloc_traits.h **** 
 426:/usr/include/newlib/c++/9.2.1/bits/alloc_traits.h ****       /// Whether all instances of the allocator type compare equal.
 427:/usr/include/newlib/c++/9.2.1/bits/alloc_traits.h ****       using is_always_equal = true_type;
 428:/usr/include/newlib/c++/9.2.1/bits/alloc_traits.h **** 
 429:/usr/include/newlib/c++/9.2.1/bits/alloc_traits.h ****       template<typename _Up>
 430:/usr/include/newlib/c++/9.2.1/bits/alloc_traits.h **** 	using rebind_alloc = allocator<_Up>;
 431:/usr/include/newlib/c++/9.2.1/bits/alloc_traits.h **** 
 432:/usr/include/newlib/c++/9.2.1/bits/alloc_traits.h ****       template<typename _Up>
 433:/usr/include/newlib/c++/9.2.1/bits/alloc_traits.h **** 	using rebind_traits = allocator_traits<allocator<_Up>>;
 434:/usr/include/newlib/c++/9.2.1/bits/alloc_traits.h **** 
 435:/usr/include/newlib/c++/9.2.1/bits/alloc_traits.h ****       /**
 436:/usr/include/newlib/c++/9.2.1/bits/alloc_traits.h ****        *  @brief  Allocate memory.
 437:/usr/include/newlib/c++/9.2.1/bits/alloc_traits.h ****        *  @param  __a  An allocator.
 438:/usr/include/newlib/c++/9.2.1/bits/alloc_traits.h ****        *  @param  __n  The number of objects to allocate space for.
 439:/usr/include/newlib/c++/9.2.1/bits/alloc_traits.h ****        *
 440:/usr/include/newlib/c++/9.2.1/bits/alloc_traits.h ****        *  Calls @c a.allocate(n)
 441:/usr/include/newlib/c++/9.2.1/bits/alloc_traits.h ****       */
 442:/usr/include/newlib/c++/9.2.1/bits/alloc_traits.h ****       _GLIBCXX_NODISCARD static pointer
 443:/usr/include/newlib/c++/9.2.1/bits/alloc_traits.h ****       allocate(allocator_type& __a, size_type __n)
 444:/usr/include/newlib/c++/9.2.1/bits/alloc_traits.h ****       { return __a.allocate(__n); }
 445:/usr/include/newlib/c++/9.2.1/bits/alloc_traits.h **** 
 446:/usr/include/newlib/c++/9.2.1/bits/alloc_traits.h ****       /**
 447:/usr/include/newlib/c++/9.2.1/bits/alloc_traits.h ****        *  @brief  Allocate memory.
 448:/usr/include/newlib/c++/9.2.1/bits/alloc_traits.h ****        *  @param  __a  An allocator.
 449:/usr/include/newlib/c++/9.2.1/bits/alloc_traits.h ****        *  @param  __n  The number of objects to allocate space for.
 450:/usr/include/newlib/c++/9.2.1/bits/alloc_traits.h ****        *  @param  __hint Aid to locality.
 451:/usr/include/newlib/c++/9.2.1/bits/alloc_traits.h ****        *  @return Memory of suitable size and alignment for @a n objects
 452:/usr/include/newlib/c++/9.2.1/bits/alloc_traits.h ****        *          of type @c value_type
 453:/usr/include/newlib/c++/9.2.1/bits/alloc_traits.h ****        *
 454:/usr/include/newlib/c++/9.2.1/bits/alloc_traits.h ****        *  Returns <tt> a.allocate(n, hint) </tt>
 455:/usr/include/newlib/c++/9.2.1/bits/alloc_traits.h ****       */
 456:/usr/include/newlib/c++/9.2.1/bits/alloc_traits.h ****       _GLIBCXX_NODISCARD static pointer
 457:/usr/include/newlib/c++/9.2.1/bits/alloc_traits.h ****       allocate(allocator_type& __a, size_type __n, const_void_pointer __hint)
 458:/usr/include/newlib/c++/9.2.1/bits/alloc_traits.h ****       { return __a.allocate(__n, __hint); }
ARM GAS  /tmp/cco4jRmF.s 			page 38


 459:/usr/include/newlib/c++/9.2.1/bits/alloc_traits.h **** 
 460:/usr/include/newlib/c++/9.2.1/bits/alloc_traits.h ****       /**
 461:/usr/include/newlib/c++/9.2.1/bits/alloc_traits.h ****        *  @brief  Deallocate memory.
 462:/usr/include/newlib/c++/9.2.1/bits/alloc_traits.h ****        *  @param  __a  An allocator.
 463:/usr/include/newlib/c++/9.2.1/bits/alloc_traits.h ****        *  @param  __p  Pointer to the memory to deallocate.
 464:/usr/include/newlib/c++/9.2.1/bits/alloc_traits.h ****        *  @param  __n  The number of objects space was allocated for.
 465:/usr/include/newlib/c++/9.2.1/bits/alloc_traits.h ****        *
 466:/usr/include/newlib/c++/9.2.1/bits/alloc_traits.h ****        *  Calls <tt> a.deallocate(p, n) </tt>
 467:/usr/include/newlib/c++/9.2.1/bits/alloc_traits.h ****       */
 468:/usr/include/newlib/c++/9.2.1/bits/alloc_traits.h ****       static void
 469:/usr/include/newlib/c++/9.2.1/bits/alloc_traits.h ****       deallocate(allocator_type& __a, pointer __p, size_type __n)
 104              		.loc 4 469 7 is_stmt 1 view .LVU17
 105              	.LBB7480:
 106              	.LBI7480:
 107              		.file 5 "/usr/include/newlib/c++/9.2.1/ext/new_allocator.h"
   1:/usr/include/newlib/c++/9.2.1/ext/new_allocator.h **** // Allocator that wraps operator new -*- C++ -*-
   2:/usr/include/newlib/c++/9.2.1/ext/new_allocator.h **** 
   3:/usr/include/newlib/c++/9.2.1/ext/new_allocator.h **** // Copyright (C) 2001-2019 Free Software Foundation, Inc.
   4:/usr/include/newlib/c++/9.2.1/ext/new_allocator.h **** //
   5:/usr/include/newlib/c++/9.2.1/ext/new_allocator.h **** // This file is part of the GNU ISO C++ Library.  This library is free
   6:/usr/include/newlib/c++/9.2.1/ext/new_allocator.h **** // software; you can redistribute it and/or modify it under the
   7:/usr/include/newlib/c++/9.2.1/ext/new_allocator.h **** // terms of the GNU General Public License as published by the
   8:/usr/include/newlib/c++/9.2.1/ext/new_allocator.h **** // Free Software Foundation; either version 3, or (at your option)
   9:/usr/include/newlib/c++/9.2.1/ext/new_allocator.h **** // any later version.
  10:/usr/include/newlib/c++/9.2.1/ext/new_allocator.h **** 
  11:/usr/include/newlib/c++/9.2.1/ext/new_allocator.h **** // This library is distributed in the hope that it will be useful,
  12:/usr/include/newlib/c++/9.2.1/ext/new_allocator.h **** // but WITHOUT ANY WARRANTY; without even the implied warranty of
  13:/usr/include/newlib/c++/9.2.1/ext/new_allocator.h **** // MERCHANTABILITY or FITNESS FOR A PARTICULAR PURPOSE.  See the
  14:/usr/include/newlib/c++/9.2.1/ext/new_allocator.h **** // GNU General Public License for more details.
  15:/usr/include/newlib/c++/9.2.1/ext/new_allocator.h **** 
  16:/usr/include/newlib/c++/9.2.1/ext/new_allocator.h **** // Under Section 7 of GPL version 3, you are granted additional
  17:/usr/include/newlib/c++/9.2.1/ext/new_allocator.h **** // permissions described in the GCC Runtime Library Exception, version
  18:/usr/include/newlib/c++/9.2.1/ext/new_allocator.h **** // 3.1, as published by the Free Software Foundation.
  19:/usr/include/newlib/c++/9.2.1/ext/new_allocator.h **** 
  20:/usr/include/newlib/c++/9.2.1/ext/new_allocator.h **** // You should have received a copy of the GNU General Public License and
  21:/usr/include/newlib/c++/9.2.1/ext/new_allocator.h **** // a copy of the GCC Runtime Library Exception along with this program;
  22:/usr/include/newlib/c++/9.2.1/ext/new_allocator.h **** // see the files COPYING3 and COPYING.RUNTIME respectively.  If not, see
  23:/usr/include/newlib/c++/9.2.1/ext/new_allocator.h **** // <http://www.gnu.org/licenses/>.
  24:/usr/include/newlib/c++/9.2.1/ext/new_allocator.h **** 
  25:/usr/include/newlib/c++/9.2.1/ext/new_allocator.h **** /** @file ext/new_allocator.h
  26:/usr/include/newlib/c++/9.2.1/ext/new_allocator.h ****  *  This file is a GNU extension to the Standard C++ Library.
  27:/usr/include/newlib/c++/9.2.1/ext/new_allocator.h ****  */
  28:/usr/include/newlib/c++/9.2.1/ext/new_allocator.h **** 
  29:/usr/include/newlib/c++/9.2.1/ext/new_allocator.h **** #ifndef _NEW_ALLOCATOR_H
  30:/usr/include/newlib/c++/9.2.1/ext/new_allocator.h **** #define _NEW_ALLOCATOR_H 1
  31:/usr/include/newlib/c++/9.2.1/ext/new_allocator.h **** 
  32:/usr/include/newlib/c++/9.2.1/ext/new_allocator.h **** #include <bits/c++config.h>
  33:/usr/include/newlib/c++/9.2.1/ext/new_allocator.h **** #include <new>
  34:/usr/include/newlib/c++/9.2.1/ext/new_allocator.h **** #include <bits/functexcept.h>
  35:/usr/include/newlib/c++/9.2.1/ext/new_allocator.h **** #include <bits/move.h>
  36:/usr/include/newlib/c++/9.2.1/ext/new_allocator.h **** #if __cplusplus >= 201103L
  37:/usr/include/newlib/c++/9.2.1/ext/new_allocator.h **** #include <type_traits>
  38:/usr/include/newlib/c++/9.2.1/ext/new_allocator.h **** #endif
  39:/usr/include/newlib/c++/9.2.1/ext/new_allocator.h **** 
  40:/usr/include/newlib/c++/9.2.1/ext/new_allocator.h **** namespace __gnu_cxx _GLIBCXX_VISIBILITY(default)
  41:/usr/include/newlib/c++/9.2.1/ext/new_allocator.h **** {
  42:/usr/include/newlib/c++/9.2.1/ext/new_allocator.h **** _GLIBCXX_BEGIN_NAMESPACE_VERSION
ARM GAS  /tmp/cco4jRmF.s 			page 39


  43:/usr/include/newlib/c++/9.2.1/ext/new_allocator.h **** 
  44:/usr/include/newlib/c++/9.2.1/ext/new_allocator.h ****   using std::size_t;
  45:/usr/include/newlib/c++/9.2.1/ext/new_allocator.h ****   using std::ptrdiff_t;
  46:/usr/include/newlib/c++/9.2.1/ext/new_allocator.h **** 
  47:/usr/include/newlib/c++/9.2.1/ext/new_allocator.h ****   /**
  48:/usr/include/newlib/c++/9.2.1/ext/new_allocator.h ****    *  @brief  An allocator that uses global new, as per [20.4].
  49:/usr/include/newlib/c++/9.2.1/ext/new_allocator.h ****    *  @ingroup allocators
  50:/usr/include/newlib/c++/9.2.1/ext/new_allocator.h ****    *
  51:/usr/include/newlib/c++/9.2.1/ext/new_allocator.h ****    *  This is precisely the allocator defined in the C++ Standard.
  52:/usr/include/newlib/c++/9.2.1/ext/new_allocator.h ****    *    - all allocation calls operator new
  53:/usr/include/newlib/c++/9.2.1/ext/new_allocator.h ****    *    - all deallocation calls operator delete
  54:/usr/include/newlib/c++/9.2.1/ext/new_allocator.h ****    *
  55:/usr/include/newlib/c++/9.2.1/ext/new_allocator.h ****    *  @tparam  _Tp  Type of allocated object.
  56:/usr/include/newlib/c++/9.2.1/ext/new_allocator.h ****    */
  57:/usr/include/newlib/c++/9.2.1/ext/new_allocator.h ****   template<typename _Tp>
  58:/usr/include/newlib/c++/9.2.1/ext/new_allocator.h ****     class new_allocator
  59:/usr/include/newlib/c++/9.2.1/ext/new_allocator.h ****     {
  60:/usr/include/newlib/c++/9.2.1/ext/new_allocator.h ****     public:
  61:/usr/include/newlib/c++/9.2.1/ext/new_allocator.h ****       typedef size_t     size_type;
  62:/usr/include/newlib/c++/9.2.1/ext/new_allocator.h ****       typedef ptrdiff_t  difference_type;
  63:/usr/include/newlib/c++/9.2.1/ext/new_allocator.h ****       typedef _Tp*       pointer;
  64:/usr/include/newlib/c++/9.2.1/ext/new_allocator.h ****       typedef const _Tp* const_pointer;
  65:/usr/include/newlib/c++/9.2.1/ext/new_allocator.h ****       typedef _Tp&       reference;
  66:/usr/include/newlib/c++/9.2.1/ext/new_allocator.h ****       typedef const _Tp& const_reference;
  67:/usr/include/newlib/c++/9.2.1/ext/new_allocator.h ****       typedef _Tp        value_type;
  68:/usr/include/newlib/c++/9.2.1/ext/new_allocator.h **** 
  69:/usr/include/newlib/c++/9.2.1/ext/new_allocator.h ****       template<typename _Tp1>
  70:/usr/include/newlib/c++/9.2.1/ext/new_allocator.h **** 	struct rebind
  71:/usr/include/newlib/c++/9.2.1/ext/new_allocator.h **** 	{ typedef new_allocator<_Tp1> other; };
  72:/usr/include/newlib/c++/9.2.1/ext/new_allocator.h **** 
  73:/usr/include/newlib/c++/9.2.1/ext/new_allocator.h **** #if __cplusplus >= 201103L
  74:/usr/include/newlib/c++/9.2.1/ext/new_allocator.h ****       // _GLIBCXX_RESOLVE_LIB_DEFECTS
  75:/usr/include/newlib/c++/9.2.1/ext/new_allocator.h ****       // 2103. propagate_on_container_move_assignment
  76:/usr/include/newlib/c++/9.2.1/ext/new_allocator.h ****       typedef std::true_type propagate_on_container_move_assignment;
  77:/usr/include/newlib/c++/9.2.1/ext/new_allocator.h **** #endif
  78:/usr/include/newlib/c++/9.2.1/ext/new_allocator.h **** 
  79:/usr/include/newlib/c++/9.2.1/ext/new_allocator.h ****       _GLIBCXX20_CONSTEXPR
  80:/usr/include/newlib/c++/9.2.1/ext/new_allocator.h ****       new_allocator() _GLIBCXX_USE_NOEXCEPT { }
  81:/usr/include/newlib/c++/9.2.1/ext/new_allocator.h **** 
  82:/usr/include/newlib/c++/9.2.1/ext/new_allocator.h ****       _GLIBCXX20_CONSTEXPR
  83:/usr/include/newlib/c++/9.2.1/ext/new_allocator.h ****       new_allocator(const new_allocator&) _GLIBCXX_USE_NOEXCEPT { }
  84:/usr/include/newlib/c++/9.2.1/ext/new_allocator.h **** 
  85:/usr/include/newlib/c++/9.2.1/ext/new_allocator.h ****       template<typename _Tp1>
  86:/usr/include/newlib/c++/9.2.1/ext/new_allocator.h **** 	_GLIBCXX20_CONSTEXPR
  87:/usr/include/newlib/c++/9.2.1/ext/new_allocator.h **** 	new_allocator(const new_allocator<_Tp1>&) _GLIBCXX_USE_NOEXCEPT { }
  88:/usr/include/newlib/c++/9.2.1/ext/new_allocator.h **** 
  89:/usr/include/newlib/c++/9.2.1/ext/new_allocator.h ****       ~new_allocator() _GLIBCXX_USE_NOEXCEPT { }
  90:/usr/include/newlib/c++/9.2.1/ext/new_allocator.h **** 
  91:/usr/include/newlib/c++/9.2.1/ext/new_allocator.h ****       pointer
  92:/usr/include/newlib/c++/9.2.1/ext/new_allocator.h ****       address(reference __x) const _GLIBCXX_NOEXCEPT
  93:/usr/include/newlib/c++/9.2.1/ext/new_allocator.h ****       { return std::__addressof(__x); }
  94:/usr/include/newlib/c++/9.2.1/ext/new_allocator.h **** 
  95:/usr/include/newlib/c++/9.2.1/ext/new_allocator.h ****       const_pointer
  96:/usr/include/newlib/c++/9.2.1/ext/new_allocator.h ****       address(const_reference __x) const _GLIBCXX_NOEXCEPT
  97:/usr/include/newlib/c++/9.2.1/ext/new_allocator.h ****       { return std::__addressof(__x); }
  98:/usr/include/newlib/c++/9.2.1/ext/new_allocator.h **** 
  99:/usr/include/newlib/c++/9.2.1/ext/new_allocator.h ****       // NB: __n is permitted to be 0.  The C++ standard says nothing
ARM GAS  /tmp/cco4jRmF.s 			page 40


 100:/usr/include/newlib/c++/9.2.1/ext/new_allocator.h ****       // about what the return value is when __n == 0.
 101:/usr/include/newlib/c++/9.2.1/ext/new_allocator.h ****       _GLIBCXX_NODISCARD pointer
 102:/usr/include/newlib/c++/9.2.1/ext/new_allocator.h ****       allocate(size_type __n, const void* = static_cast<const void*>(0))
 103:/usr/include/newlib/c++/9.2.1/ext/new_allocator.h ****       {
 104:/usr/include/newlib/c++/9.2.1/ext/new_allocator.h **** 	if (__n > this->max_size())
 105:/usr/include/newlib/c++/9.2.1/ext/new_allocator.h **** 	  std::__throw_bad_alloc();
 106:/usr/include/newlib/c++/9.2.1/ext/new_allocator.h **** 
 107:/usr/include/newlib/c++/9.2.1/ext/new_allocator.h **** #if __cpp_aligned_new
 108:/usr/include/newlib/c++/9.2.1/ext/new_allocator.h **** 	if (alignof(_Tp) > __STDCPP_DEFAULT_NEW_ALIGNMENT__)
 109:/usr/include/newlib/c++/9.2.1/ext/new_allocator.h **** 	  {
 110:/usr/include/newlib/c++/9.2.1/ext/new_allocator.h **** 	    std::align_val_t __al = std::align_val_t(alignof(_Tp));
 111:/usr/include/newlib/c++/9.2.1/ext/new_allocator.h **** 	    return static_cast<_Tp*>(::operator new(__n * sizeof(_Tp), __al));
 112:/usr/include/newlib/c++/9.2.1/ext/new_allocator.h **** 	  }
 113:/usr/include/newlib/c++/9.2.1/ext/new_allocator.h **** #endif
 114:/usr/include/newlib/c++/9.2.1/ext/new_allocator.h **** 	return static_cast<_Tp*>(::operator new(__n * sizeof(_Tp)));
 115:/usr/include/newlib/c++/9.2.1/ext/new_allocator.h ****       }
 116:/usr/include/newlib/c++/9.2.1/ext/new_allocator.h **** 
 117:/usr/include/newlib/c++/9.2.1/ext/new_allocator.h ****       // __p is not permitted to be a null pointer.
 118:/usr/include/newlib/c++/9.2.1/ext/new_allocator.h ****       void
 119:/usr/include/newlib/c++/9.2.1/ext/new_allocator.h ****       deallocate(pointer __p, size_type)
 108              		.loc 5 119 7 view .LVU18
 109              		.loc 5 119 7 is_stmt 0 view .LVU19
 110              	.LBE7480:
 111              	.LBE7479:
 112              	.LBE7478:
 113              	.LBE7486:
 114              	.LBE7474:
 115              	.LBE7473:
 116              	.LBE7472:
 117              	.LBE7471:
 107:/usr/include/newlib/c++/9.2.1/bits/stl_construct.h **** 	    std::_Destroy(std::__addressof(*__first));
 118              		.loc 2 107 4 view .LVU20
 119 0014 1835     		adds	r5, r5, #24
 120              	.LVL4:
 121              	.LBB7494:
 122              	.LBB7493:
 123              	.LBB7489:
 124              	.LBB7488:
 231:/usr/include/newlib/c++/9.2.1/bits/basic_string.h **** 	  _M_destroy(_M_allocated_capacity);
 125              		.loc 3 231 2 view .LVU21
 126 0016 A042     		cmp	r0, r4
 127 0018 04F11804 		add	r4, r4, #24
 128 001c 01D0     		beq	.L3
 129              	.LBB7487:
 130              	.LBB7484:
 131              	.LBB7483:
 132              	.LBB7482:
 133              	.LBB7481:
 120:/usr/include/newlib/c++/9.2.1/ext/new_allocator.h ****       {
 121:/usr/include/newlib/c++/9.2.1/ext/new_allocator.h **** #if __cpp_aligned_new
 122:/usr/include/newlib/c++/9.2.1/ext/new_allocator.h **** 	if (alignof(_Tp) > __STDCPP_DEFAULT_NEW_ALIGNMENT__)
 123:/usr/include/newlib/c++/9.2.1/ext/new_allocator.h **** 	  {
 124:/usr/include/newlib/c++/9.2.1/ext/new_allocator.h **** 	    ::operator delete(__p, std::align_val_t(alignof(_Tp)));
 125:/usr/include/newlib/c++/9.2.1/ext/new_allocator.h **** 	    return;
 126:/usr/include/newlib/c++/9.2.1/ext/new_allocator.h **** 	  }
 127:/usr/include/newlib/c++/9.2.1/ext/new_allocator.h **** #endif
 128:/usr/include/newlib/c++/9.2.1/ext/new_allocator.h **** 	::operator delete(__p);
ARM GAS  /tmp/cco4jRmF.s 			page 41


 134              		.loc 5 128 19 view .LVU22
 135 001e FFF7FEFF 		bl	_ZdlPv
 136              	.LVL5:
 137              	.L3:
 138              		.loc 5 128 19 view .LVU23
 139              	.LBE7481:
 140              	.LBE7482:
 141              	.LBE7483:
 142              	.LBE7484:
 143              	.LBE7487:
 144              	.LBE7488:
 145              	.LBE7489:
 146              	.LBB7490:
 147              	.LBI7490:
 150:/usr/include/newlib/c++/9.2.1/bits/basic_string.h ****       {
 148              		.loc 3 150 14 is_stmt 1 view .LVU24
 149              	.LBB7491:
 150              	.LBI7491:
 151              		.file 6 "/usr/include/newlib/c++/9.2.1/bits/allocator.h"
   1:/usr/include/newlib/c++/9.2.1/bits/allocator.h **** // Allocators -*- C++ -*-
   2:/usr/include/newlib/c++/9.2.1/bits/allocator.h **** 
   3:/usr/include/newlib/c++/9.2.1/bits/allocator.h **** // Copyright (C) 2001-2019 Free Software Foundation, Inc.
   4:/usr/include/newlib/c++/9.2.1/bits/allocator.h **** //
   5:/usr/include/newlib/c++/9.2.1/bits/allocator.h **** // This file is part of the GNU ISO C++ Library.  This library is free
   6:/usr/include/newlib/c++/9.2.1/bits/allocator.h **** // software; you can redistribute it and/or modify it under the
   7:/usr/include/newlib/c++/9.2.1/bits/allocator.h **** // terms of the GNU General Public License as published by the
   8:/usr/include/newlib/c++/9.2.1/bits/allocator.h **** // Free Software Foundation; either version 3, or (at your option)
   9:/usr/include/newlib/c++/9.2.1/bits/allocator.h **** // any later version.
  10:/usr/include/newlib/c++/9.2.1/bits/allocator.h **** 
  11:/usr/include/newlib/c++/9.2.1/bits/allocator.h **** // This library is distributed in the hope that it will be useful,
  12:/usr/include/newlib/c++/9.2.1/bits/allocator.h **** // but WITHOUT ANY WARRANTY; without even the implied warranty of
  13:/usr/include/newlib/c++/9.2.1/bits/allocator.h **** // MERCHANTABILITY or FITNESS FOR A PARTICULAR PURPOSE.  See the
  14:/usr/include/newlib/c++/9.2.1/bits/allocator.h **** // GNU General Public License for more details.
  15:/usr/include/newlib/c++/9.2.1/bits/allocator.h **** 
  16:/usr/include/newlib/c++/9.2.1/bits/allocator.h **** // Under Section 7 of GPL version 3, you are granted additional
  17:/usr/include/newlib/c++/9.2.1/bits/allocator.h **** // permissions described in the GCC Runtime Library Exception, version
  18:/usr/include/newlib/c++/9.2.1/bits/allocator.h **** // 3.1, as published by the Free Software Foundation.
  19:/usr/include/newlib/c++/9.2.1/bits/allocator.h **** 
  20:/usr/include/newlib/c++/9.2.1/bits/allocator.h **** // You should have received a copy of the GNU General Public License and
  21:/usr/include/newlib/c++/9.2.1/bits/allocator.h **** // a copy of the GCC Runtime Library Exception along with this program;
  22:/usr/include/newlib/c++/9.2.1/bits/allocator.h **** // see the files COPYING3 and COPYING.RUNTIME respectively.  If not, see
  23:/usr/include/newlib/c++/9.2.1/bits/allocator.h **** // <http://www.gnu.org/licenses/>.
  24:/usr/include/newlib/c++/9.2.1/bits/allocator.h **** 
  25:/usr/include/newlib/c++/9.2.1/bits/allocator.h **** /*
  26:/usr/include/newlib/c++/9.2.1/bits/allocator.h ****  * Copyright (c) 1996-1997
  27:/usr/include/newlib/c++/9.2.1/bits/allocator.h ****  * Silicon Graphics Computer Systems, Inc.
  28:/usr/include/newlib/c++/9.2.1/bits/allocator.h ****  *
  29:/usr/include/newlib/c++/9.2.1/bits/allocator.h ****  * Permission to use, copy, modify, distribute and sell this software
  30:/usr/include/newlib/c++/9.2.1/bits/allocator.h ****  * and its documentation for any purpose is hereby granted without fee,
  31:/usr/include/newlib/c++/9.2.1/bits/allocator.h ****  * provided that the above copyright notice appear in all copies and
  32:/usr/include/newlib/c++/9.2.1/bits/allocator.h ****  * that both that copyright notice and this permission notice appear
  33:/usr/include/newlib/c++/9.2.1/bits/allocator.h ****  * in supporting documentation.  Silicon Graphics makes no
  34:/usr/include/newlib/c++/9.2.1/bits/allocator.h ****  * representations about the suitability of this software for any
  35:/usr/include/newlib/c++/9.2.1/bits/allocator.h ****  * purpose.  It is provided "as is" without express or implied warranty.
  36:/usr/include/newlib/c++/9.2.1/bits/allocator.h ****  */
  37:/usr/include/newlib/c++/9.2.1/bits/allocator.h **** 
  38:/usr/include/newlib/c++/9.2.1/bits/allocator.h **** /** @file bits/allocator.h
ARM GAS  /tmp/cco4jRmF.s 			page 42


  39:/usr/include/newlib/c++/9.2.1/bits/allocator.h ****  *  This is an internal header file, included by other library headers.
  40:/usr/include/newlib/c++/9.2.1/bits/allocator.h ****  *  Do not attempt to use it directly. @headername{memory}
  41:/usr/include/newlib/c++/9.2.1/bits/allocator.h ****  */
  42:/usr/include/newlib/c++/9.2.1/bits/allocator.h **** 
  43:/usr/include/newlib/c++/9.2.1/bits/allocator.h **** #ifndef _ALLOCATOR_H
  44:/usr/include/newlib/c++/9.2.1/bits/allocator.h **** #define _ALLOCATOR_H 1
  45:/usr/include/newlib/c++/9.2.1/bits/allocator.h **** 
  46:/usr/include/newlib/c++/9.2.1/bits/allocator.h **** #include <bits/c++allocator.h> // Define the base class to std::allocator.
  47:/usr/include/newlib/c++/9.2.1/bits/allocator.h **** #include <bits/memoryfwd.h>
  48:/usr/include/newlib/c++/9.2.1/bits/allocator.h **** #if __cplusplus >= 201103L
  49:/usr/include/newlib/c++/9.2.1/bits/allocator.h **** #include <type_traits>
  50:/usr/include/newlib/c++/9.2.1/bits/allocator.h **** #endif
  51:/usr/include/newlib/c++/9.2.1/bits/allocator.h **** 
  52:/usr/include/newlib/c++/9.2.1/bits/allocator.h **** #define __cpp_lib_incomplete_container_elements 201505
  53:/usr/include/newlib/c++/9.2.1/bits/allocator.h **** #if __cplusplus >= 201103L
  54:/usr/include/newlib/c++/9.2.1/bits/allocator.h **** # define __cpp_lib_allocator_is_always_equal 201411
  55:/usr/include/newlib/c++/9.2.1/bits/allocator.h **** #endif
  56:/usr/include/newlib/c++/9.2.1/bits/allocator.h **** 
  57:/usr/include/newlib/c++/9.2.1/bits/allocator.h **** namespace std _GLIBCXX_VISIBILITY(default)
  58:/usr/include/newlib/c++/9.2.1/bits/allocator.h **** {
  59:/usr/include/newlib/c++/9.2.1/bits/allocator.h **** _GLIBCXX_BEGIN_NAMESPACE_VERSION
  60:/usr/include/newlib/c++/9.2.1/bits/allocator.h **** 
  61:/usr/include/newlib/c++/9.2.1/bits/allocator.h ****   /**
  62:/usr/include/newlib/c++/9.2.1/bits/allocator.h ****    *  @addtogroup allocators
  63:/usr/include/newlib/c++/9.2.1/bits/allocator.h ****    *  @{
  64:/usr/include/newlib/c++/9.2.1/bits/allocator.h ****    */
  65:/usr/include/newlib/c++/9.2.1/bits/allocator.h **** 
  66:/usr/include/newlib/c++/9.2.1/bits/allocator.h ****   /// allocator<void> specialization.
  67:/usr/include/newlib/c++/9.2.1/bits/allocator.h ****   template<>
  68:/usr/include/newlib/c++/9.2.1/bits/allocator.h ****     class allocator<void>
  69:/usr/include/newlib/c++/9.2.1/bits/allocator.h ****     {
  70:/usr/include/newlib/c++/9.2.1/bits/allocator.h ****     public:
  71:/usr/include/newlib/c++/9.2.1/bits/allocator.h ****       typedef size_t      size_type;
  72:/usr/include/newlib/c++/9.2.1/bits/allocator.h ****       typedef ptrdiff_t   difference_type;
  73:/usr/include/newlib/c++/9.2.1/bits/allocator.h ****       typedef void*       pointer;
  74:/usr/include/newlib/c++/9.2.1/bits/allocator.h ****       typedef const void* const_pointer;
  75:/usr/include/newlib/c++/9.2.1/bits/allocator.h ****       typedef void        value_type;
  76:/usr/include/newlib/c++/9.2.1/bits/allocator.h **** 
  77:/usr/include/newlib/c++/9.2.1/bits/allocator.h ****       template<typename _Tp1>
  78:/usr/include/newlib/c++/9.2.1/bits/allocator.h **** 	struct rebind
  79:/usr/include/newlib/c++/9.2.1/bits/allocator.h **** 	{ typedef allocator<_Tp1> other; };
  80:/usr/include/newlib/c++/9.2.1/bits/allocator.h **** 
  81:/usr/include/newlib/c++/9.2.1/bits/allocator.h **** #if __cplusplus >= 201103L
  82:/usr/include/newlib/c++/9.2.1/bits/allocator.h ****       // _GLIBCXX_RESOLVE_LIB_DEFECTS
  83:/usr/include/newlib/c++/9.2.1/bits/allocator.h ****       // 2103. std::allocator propagate_on_container_move_assignment
  84:/usr/include/newlib/c++/9.2.1/bits/allocator.h ****       typedef true_type propagate_on_container_move_assignment;
  85:/usr/include/newlib/c++/9.2.1/bits/allocator.h **** 
  86:/usr/include/newlib/c++/9.2.1/bits/allocator.h ****       typedef true_type is_always_equal;
  87:/usr/include/newlib/c++/9.2.1/bits/allocator.h **** 
  88:/usr/include/newlib/c++/9.2.1/bits/allocator.h ****       template<typename _Up, typename... _Args>
  89:/usr/include/newlib/c++/9.2.1/bits/allocator.h **** 	void
  90:/usr/include/newlib/c++/9.2.1/bits/allocator.h **** 	construct(_Up* __p, _Args&&... __args)
  91:/usr/include/newlib/c++/9.2.1/bits/allocator.h **** 	noexcept(noexcept(::new((void *)__p)
  92:/usr/include/newlib/c++/9.2.1/bits/allocator.h **** 			    _Up(std::forward<_Args>(__args)...)))
  93:/usr/include/newlib/c++/9.2.1/bits/allocator.h **** 	{ ::new((void *)__p) _Up(std::forward<_Args>(__args)...); }
  94:/usr/include/newlib/c++/9.2.1/bits/allocator.h **** 
  95:/usr/include/newlib/c++/9.2.1/bits/allocator.h ****       template<typename _Up>
ARM GAS  /tmp/cco4jRmF.s 			page 43


  96:/usr/include/newlib/c++/9.2.1/bits/allocator.h **** 	void
  97:/usr/include/newlib/c++/9.2.1/bits/allocator.h **** 	destroy(_Up* __p)
  98:/usr/include/newlib/c++/9.2.1/bits/allocator.h **** 	noexcept(noexcept(__p->~_Up()))
  99:/usr/include/newlib/c++/9.2.1/bits/allocator.h **** 	{ __p->~_Up(); }
 100:/usr/include/newlib/c++/9.2.1/bits/allocator.h **** #endif
 101:/usr/include/newlib/c++/9.2.1/bits/allocator.h ****     };
 102:/usr/include/newlib/c++/9.2.1/bits/allocator.h **** 
 103:/usr/include/newlib/c++/9.2.1/bits/allocator.h ****   /**
 104:/usr/include/newlib/c++/9.2.1/bits/allocator.h ****    * @brief  The @a standard allocator, as per [20.4].
 105:/usr/include/newlib/c++/9.2.1/bits/allocator.h ****    *
 106:/usr/include/newlib/c++/9.2.1/bits/allocator.h ****    *  See https://gcc.gnu.org/onlinedocs/libstdc++/manual/memory.html#std.util.memory.allocator
 107:/usr/include/newlib/c++/9.2.1/bits/allocator.h ****    *  for further details.
 108:/usr/include/newlib/c++/9.2.1/bits/allocator.h ****    *
 109:/usr/include/newlib/c++/9.2.1/bits/allocator.h ****    *  @tparam  _Tp  Type of allocated object.
 110:/usr/include/newlib/c++/9.2.1/bits/allocator.h ****    */
 111:/usr/include/newlib/c++/9.2.1/bits/allocator.h ****   template<typename _Tp>
 112:/usr/include/newlib/c++/9.2.1/bits/allocator.h ****     class allocator : public __allocator_base<_Tp>
 113:/usr/include/newlib/c++/9.2.1/bits/allocator.h ****     {
 114:/usr/include/newlib/c++/9.2.1/bits/allocator.h ****    public:
 115:/usr/include/newlib/c++/9.2.1/bits/allocator.h ****       typedef size_t     size_type;
 116:/usr/include/newlib/c++/9.2.1/bits/allocator.h ****       typedef ptrdiff_t  difference_type;
 117:/usr/include/newlib/c++/9.2.1/bits/allocator.h ****       typedef _Tp*       pointer;
 118:/usr/include/newlib/c++/9.2.1/bits/allocator.h ****       typedef const _Tp* const_pointer;
 119:/usr/include/newlib/c++/9.2.1/bits/allocator.h ****       typedef _Tp&       reference;
 120:/usr/include/newlib/c++/9.2.1/bits/allocator.h ****       typedef const _Tp& const_reference;
 121:/usr/include/newlib/c++/9.2.1/bits/allocator.h ****       typedef _Tp        value_type;
 122:/usr/include/newlib/c++/9.2.1/bits/allocator.h **** 
 123:/usr/include/newlib/c++/9.2.1/bits/allocator.h ****       template<typename _Tp1>
 124:/usr/include/newlib/c++/9.2.1/bits/allocator.h **** 	struct rebind
 125:/usr/include/newlib/c++/9.2.1/bits/allocator.h **** 	{ typedef allocator<_Tp1> other; };
 126:/usr/include/newlib/c++/9.2.1/bits/allocator.h **** 
 127:/usr/include/newlib/c++/9.2.1/bits/allocator.h **** #if __cplusplus >= 201103L
 128:/usr/include/newlib/c++/9.2.1/bits/allocator.h ****       // _GLIBCXX_RESOLVE_LIB_DEFECTS
 129:/usr/include/newlib/c++/9.2.1/bits/allocator.h ****       // 2103. std::allocator propagate_on_container_move_assignment
 130:/usr/include/newlib/c++/9.2.1/bits/allocator.h ****       typedef true_type propagate_on_container_move_assignment;
 131:/usr/include/newlib/c++/9.2.1/bits/allocator.h **** 
 132:/usr/include/newlib/c++/9.2.1/bits/allocator.h ****       typedef true_type is_always_equal;
 133:/usr/include/newlib/c++/9.2.1/bits/allocator.h **** #endif
 134:/usr/include/newlib/c++/9.2.1/bits/allocator.h **** 
 135:/usr/include/newlib/c++/9.2.1/bits/allocator.h ****       // _GLIBCXX_RESOLVE_LIB_DEFECTS
 136:/usr/include/newlib/c++/9.2.1/bits/allocator.h ****       // 3035. std::allocator's constructors should be constexpr
 137:/usr/include/newlib/c++/9.2.1/bits/allocator.h ****       _GLIBCXX20_CONSTEXPR
 138:/usr/include/newlib/c++/9.2.1/bits/allocator.h ****       allocator() _GLIBCXX_NOTHROW { }
 139:/usr/include/newlib/c++/9.2.1/bits/allocator.h **** 
 140:/usr/include/newlib/c++/9.2.1/bits/allocator.h ****       _GLIBCXX20_CONSTEXPR
 141:/usr/include/newlib/c++/9.2.1/bits/allocator.h ****       allocator(const allocator& __a) _GLIBCXX_NOTHROW
 142:/usr/include/newlib/c++/9.2.1/bits/allocator.h ****       : __allocator_base<_Tp>(__a) { }
 143:/usr/include/newlib/c++/9.2.1/bits/allocator.h **** 
 144:/usr/include/newlib/c++/9.2.1/bits/allocator.h **** #if __cplusplus >= 201103L
 145:/usr/include/newlib/c++/9.2.1/bits/allocator.h ****       // Avoid implicit deprecation.
 146:/usr/include/newlib/c++/9.2.1/bits/allocator.h ****       allocator& operator=(const allocator&) = default;
 147:/usr/include/newlib/c++/9.2.1/bits/allocator.h **** #endif
 148:/usr/include/newlib/c++/9.2.1/bits/allocator.h **** 
 149:/usr/include/newlib/c++/9.2.1/bits/allocator.h ****       template<typename _Tp1>
 150:/usr/include/newlib/c++/9.2.1/bits/allocator.h **** 	_GLIBCXX20_CONSTEXPR
 151:/usr/include/newlib/c++/9.2.1/bits/allocator.h **** 	allocator(const allocator<_Tp1>&) _GLIBCXX_NOTHROW { }
 152:/usr/include/newlib/c++/9.2.1/bits/allocator.h **** 
ARM GAS  /tmp/cco4jRmF.s 			page 44


 153:/usr/include/newlib/c++/9.2.1/bits/allocator.h ****       ~allocator() _GLIBCXX_NOTHROW { }
 152              		.loc 6 153 7 view .LVU25
 153              	.LBB7492:
 154              	.LBI7492:
  89:/usr/include/newlib/c++/9.2.1/ext/new_allocator.h **** 
 155              		.loc 5 89 7 view .LVU26
  89:/usr/include/newlib/c++/9.2.1/ext/new_allocator.h **** 
 156              		.loc 5 89 7 is_stmt 0 view .LVU27
 157              	.LBE7492:
 158              	.LBE7491:
 159              	.LBE7490:
 160              	.LBE7493:
 161              	.LBE7494:
 107:/usr/include/newlib/c++/9.2.1/bits/stl_construct.h **** 	    std::_Destroy(std::__addressof(*__first));
 162              		.loc 2 107 4 is_stmt 1 view .LVU28
 107:/usr/include/newlib/c++/9.2.1/bits/stl_construct.h **** 	    std::_Destroy(std::__addressof(*__first));
 163              		.loc 2 107 19 view .LVU29
 164 0022 AE42     		cmp	r6, r5
 165 0024 F4D1     		bne	.L4
 166 0026 3E68     		ldr	r6, [r7]
 167              	.LVL6:
 168              	.L2:
 107:/usr/include/newlib/c++/9.2.1/bits/stl_construct.h **** 	    std::_Destroy(std::__addressof(*__first));
 169              		.loc 2 107 19 is_stmt 0 view .LVU30
 170              	.LBE7470:
 171              	.LBE7469:
 172              	.LBE7468:
 173              	.LBE7467:
 174              	.LBE7466:
 175              	.LBB7495:
 176              	.LBI7495:
 330:/usr/include/newlib/c++/9.2.1/bits/stl_vector.h ****       {
 177              		.loc 1 330 7 is_stmt 1 view .LVU31
 178              	.LBB7496:
 179              	.LBI7496:
 347:/usr/include/newlib/c++/9.2.1/bits/stl_vector.h ****       {
 180              		.loc 1 347 7 view .LVU32
 181              	.LBB7497:
 350:/usr/include/newlib/c++/9.2.1/bits/stl_vector.h **** 	  _Tr::deallocate(_M_impl, __p, __n);
 182              		.loc 1 350 2 is_stmt 0 view .LVU33
 183 0028 16B1     		cbz	r6, .L5
 184              	.LVL7:
 185              	.LBB7498:
 186              	.LBI7498:
 187              		.loc 4 469 7 is_stmt 1 view .LVU34
 188              	.LBB7499:
 189              	.LBB7500:
 190              	.LBI7500:
 119:/usr/include/newlib/c++/9.2.1/ext/new_allocator.h ****       {
 191              		.loc 5 119 7 view .LVU35
 192              	.LBB7501:
 193              		.loc 5 128 19 is_stmt 0 view .LVU36
 194 002a 3046     		mov	r0, r6
 195 002c FFF7FEFF 		bl	_ZdlPv
 196              	.LVL8:
 197              	.L5:
 198              		.loc 5 128 19 view .LVU37
ARM GAS  /tmp/cco4jRmF.s 			page 45


 199              	.LBE7501:
 200              	.LBE7500:
 201              	.LBE7499:
 202              	.LBE7498:
 203              	.LBE7497:
 204              	.LBE7496:
 205              	.LBB7502:
 206              	.LBI7502:
 125:/usr/include/newlib/c++/9.2.1/bits/stl_vector.h **** 	: public _Tp_alloc_type, public _Vector_impl_data
 207              		.loc 1 125 14 is_stmt 1 view .LVU38
 208              	.LBB7503:
 209              	.LBI7503:
 210              		.loc 6 153 7 view .LVU39
 211              	.LBB7504:
 212              	.LBI7504:
  89:/usr/include/newlib/c++/9.2.1/ext/new_allocator.h **** 
 213              		.loc 5 89 7 view .LVU40
  89:/usr/include/newlib/c++/9.2.1/ext/new_allocator.h **** 
 214              		.loc 5 89 7 is_stmt 0 view .LVU41
 215              	.LBE7504:
 216              	.LBE7503:
 217              	.LBE7502:
 218              	.LBE7495:
 219              	.LBE7505:
 678:/usr/include/newlib/c++/9.2.1/bits/stl_vector.h **** 		      _M_get_Tp_allocator());
 679:/usr/include/newlib/c++/9.2.1/bits/stl_vector.h **** 	_GLIBCXX_ASAN_ANNOTATE_BEFORE_DEALLOC;
 680:/usr/include/newlib/c++/9.2.1/bits/stl_vector.h ****       }
 220              		.loc 1 680 7 view .LVU42
 221 0030 3846     		mov	r0, r7
 222 0032 F8BD     		pop	{r3, r4, r5, r6, r7, pc}
 223              		.loc 1 680 7 view .LVU43
 224              		.cfi_endproc
 225              	.LFE3999:
 227              		.weak	_ZNSt6vectorINSt7__cxx1112basic_stringIcSt11char_traitsIcESaIcEEESaIS5_EED1Ev
 228              		.thumb_set _ZNSt6vectorINSt7__cxx1112basic_stringIcSt11char_traitsIcESaIcEEESaIS5_EED1Ev,_ZNSt6vec
 229              		.section	.rodata._ZNSt6vectorIiSaIiEE19_M_range_initializeIPKiEEvT_S5_St20forward_iterator_tag.isr
 230              		.align	2
 231              	.LC21:
 232 0000 63616E6E 		.ascii	"cannot create std::vector larger than max_size()\000"
 232      6F742063 
 232      72656174 
 232      65207374 
 232      643A3A76 
 233              		.section	.text._ZNSt6vectorIiSaIiEE19_M_range_initializeIPKiEEvT_S5_St20forward_iterator_tag.isra.
 234              		.align	1
 235              		.p2align 2,,3
 236              		.syntax unified
 237              		.thumb
 238              		.thumb_func
 239              		.fpu fpv5-d16
 241              	_ZNSt6vectorIiSaIiEE19_M_range_initializeIPKiEEvT_S5_St20forward_iterator_tag.isra.0.constprop.0:
 242              	.LVL9:
 243              	.LFB4148:
 681:/usr/include/newlib/c++/9.2.1/bits/stl_vector.h **** 
 682:/usr/include/newlib/c++/9.2.1/bits/stl_vector.h ****       /**
 683:/usr/include/newlib/c++/9.2.1/bits/stl_vector.h ****        *  @brief  %Vector assignment operator.
 684:/usr/include/newlib/c++/9.2.1/bits/stl_vector.h ****        *  @param  __x  A %vector of identical element and allocator types.
ARM GAS  /tmp/cco4jRmF.s 			page 46


 685:/usr/include/newlib/c++/9.2.1/bits/stl_vector.h ****        *
 686:/usr/include/newlib/c++/9.2.1/bits/stl_vector.h ****        *  All the elements of @a __x are copied, but any unused capacity in
 687:/usr/include/newlib/c++/9.2.1/bits/stl_vector.h ****        *  @a __x will not be copied.
 688:/usr/include/newlib/c++/9.2.1/bits/stl_vector.h ****        *
 689:/usr/include/newlib/c++/9.2.1/bits/stl_vector.h ****        *  Whether the allocator is copied depends on the allocator traits.
 690:/usr/include/newlib/c++/9.2.1/bits/stl_vector.h ****        */
 691:/usr/include/newlib/c++/9.2.1/bits/stl_vector.h ****       vector&
 692:/usr/include/newlib/c++/9.2.1/bits/stl_vector.h ****       operator=(const vector& __x);
 693:/usr/include/newlib/c++/9.2.1/bits/stl_vector.h **** 
 694:/usr/include/newlib/c++/9.2.1/bits/stl_vector.h **** #if __cplusplus >= 201103L
 695:/usr/include/newlib/c++/9.2.1/bits/stl_vector.h ****       /**
 696:/usr/include/newlib/c++/9.2.1/bits/stl_vector.h ****        *  @brief  %Vector move assignment operator.
 697:/usr/include/newlib/c++/9.2.1/bits/stl_vector.h ****        *  @param  __x  A %vector of identical element and allocator types.
 698:/usr/include/newlib/c++/9.2.1/bits/stl_vector.h ****        *
 699:/usr/include/newlib/c++/9.2.1/bits/stl_vector.h ****        *  The contents of @a __x are moved into this %vector (without copying,
 700:/usr/include/newlib/c++/9.2.1/bits/stl_vector.h ****        *  if the allocators permit it).
 701:/usr/include/newlib/c++/9.2.1/bits/stl_vector.h ****        *  Afterwards @a __x is a valid, but unspecified %vector.
 702:/usr/include/newlib/c++/9.2.1/bits/stl_vector.h ****        *
 703:/usr/include/newlib/c++/9.2.1/bits/stl_vector.h ****        *  Whether the allocator is moved depends on the allocator traits.
 704:/usr/include/newlib/c++/9.2.1/bits/stl_vector.h ****        */
 705:/usr/include/newlib/c++/9.2.1/bits/stl_vector.h ****       vector&
 706:/usr/include/newlib/c++/9.2.1/bits/stl_vector.h ****       operator=(vector&& __x) noexcept(_Alloc_traits::_S_nothrow_move())
 707:/usr/include/newlib/c++/9.2.1/bits/stl_vector.h ****       {
 708:/usr/include/newlib/c++/9.2.1/bits/stl_vector.h **** 	constexpr bool __move_storage =
 709:/usr/include/newlib/c++/9.2.1/bits/stl_vector.h **** 	  _Alloc_traits::_S_propagate_on_move_assign()
 710:/usr/include/newlib/c++/9.2.1/bits/stl_vector.h **** 	  || _Alloc_traits::_S_always_equal();
 711:/usr/include/newlib/c++/9.2.1/bits/stl_vector.h **** 	_M_move_assign(std::move(__x), __bool_constant<__move_storage>());
 712:/usr/include/newlib/c++/9.2.1/bits/stl_vector.h **** 	return *this;
 713:/usr/include/newlib/c++/9.2.1/bits/stl_vector.h ****       }
 714:/usr/include/newlib/c++/9.2.1/bits/stl_vector.h **** 
 715:/usr/include/newlib/c++/9.2.1/bits/stl_vector.h ****       /**
 716:/usr/include/newlib/c++/9.2.1/bits/stl_vector.h ****        *  @brief  %Vector list assignment operator.
 717:/usr/include/newlib/c++/9.2.1/bits/stl_vector.h ****        *  @param  __l  An initializer_list.
 718:/usr/include/newlib/c++/9.2.1/bits/stl_vector.h ****        *
 719:/usr/include/newlib/c++/9.2.1/bits/stl_vector.h ****        *  This function fills a %vector with copies of the elements in the
 720:/usr/include/newlib/c++/9.2.1/bits/stl_vector.h ****        *  initializer list @a __l.
 721:/usr/include/newlib/c++/9.2.1/bits/stl_vector.h ****        *
 722:/usr/include/newlib/c++/9.2.1/bits/stl_vector.h ****        *  Note that the assignment completely changes the %vector and
 723:/usr/include/newlib/c++/9.2.1/bits/stl_vector.h ****        *  that the resulting %vector's size is the same as the number
 724:/usr/include/newlib/c++/9.2.1/bits/stl_vector.h ****        *  of elements assigned.
 725:/usr/include/newlib/c++/9.2.1/bits/stl_vector.h ****        */
 726:/usr/include/newlib/c++/9.2.1/bits/stl_vector.h ****       vector&
 727:/usr/include/newlib/c++/9.2.1/bits/stl_vector.h ****       operator=(initializer_list<value_type> __l)
 728:/usr/include/newlib/c++/9.2.1/bits/stl_vector.h ****       {
 729:/usr/include/newlib/c++/9.2.1/bits/stl_vector.h **** 	this->_M_assign_aux(__l.begin(), __l.end(),
 730:/usr/include/newlib/c++/9.2.1/bits/stl_vector.h **** 			    random_access_iterator_tag());
 731:/usr/include/newlib/c++/9.2.1/bits/stl_vector.h **** 	return *this;
 732:/usr/include/newlib/c++/9.2.1/bits/stl_vector.h ****       }
 733:/usr/include/newlib/c++/9.2.1/bits/stl_vector.h **** #endif
 734:/usr/include/newlib/c++/9.2.1/bits/stl_vector.h **** 
 735:/usr/include/newlib/c++/9.2.1/bits/stl_vector.h ****       /**
 736:/usr/include/newlib/c++/9.2.1/bits/stl_vector.h ****        *  @brief  Assigns a given value to a %vector.
 737:/usr/include/newlib/c++/9.2.1/bits/stl_vector.h ****        *  @param  __n  Number of elements to be assigned.
 738:/usr/include/newlib/c++/9.2.1/bits/stl_vector.h ****        *  @param  __val  Value to be assigned.
 739:/usr/include/newlib/c++/9.2.1/bits/stl_vector.h ****        *
 740:/usr/include/newlib/c++/9.2.1/bits/stl_vector.h ****        *  This function fills a %vector with @a __n copies of the given
 741:/usr/include/newlib/c++/9.2.1/bits/stl_vector.h ****        *  value.  Note that the assignment completely changes the
ARM GAS  /tmp/cco4jRmF.s 			page 47


 742:/usr/include/newlib/c++/9.2.1/bits/stl_vector.h ****        *  %vector and that the resulting %vector's size is the same as
 743:/usr/include/newlib/c++/9.2.1/bits/stl_vector.h ****        *  the number of elements assigned.
 744:/usr/include/newlib/c++/9.2.1/bits/stl_vector.h ****        */
 745:/usr/include/newlib/c++/9.2.1/bits/stl_vector.h ****       void
 746:/usr/include/newlib/c++/9.2.1/bits/stl_vector.h ****       assign(size_type __n, const value_type& __val)
 747:/usr/include/newlib/c++/9.2.1/bits/stl_vector.h ****       { _M_fill_assign(__n, __val); }
 748:/usr/include/newlib/c++/9.2.1/bits/stl_vector.h **** 
 749:/usr/include/newlib/c++/9.2.1/bits/stl_vector.h ****       /**
 750:/usr/include/newlib/c++/9.2.1/bits/stl_vector.h ****        *  @brief  Assigns a range to a %vector.
 751:/usr/include/newlib/c++/9.2.1/bits/stl_vector.h ****        *  @param  __first  An input iterator.
 752:/usr/include/newlib/c++/9.2.1/bits/stl_vector.h ****        *  @param  __last   An input iterator.
 753:/usr/include/newlib/c++/9.2.1/bits/stl_vector.h ****        *
 754:/usr/include/newlib/c++/9.2.1/bits/stl_vector.h ****        *  This function fills a %vector with copies of the elements in the
 755:/usr/include/newlib/c++/9.2.1/bits/stl_vector.h ****        *  range [__first,__last).
 756:/usr/include/newlib/c++/9.2.1/bits/stl_vector.h ****        *
 757:/usr/include/newlib/c++/9.2.1/bits/stl_vector.h ****        *  Note that the assignment completely changes the %vector and
 758:/usr/include/newlib/c++/9.2.1/bits/stl_vector.h ****        *  that the resulting %vector's size is the same as the number
 759:/usr/include/newlib/c++/9.2.1/bits/stl_vector.h ****        *  of elements assigned.
 760:/usr/include/newlib/c++/9.2.1/bits/stl_vector.h ****        */
 761:/usr/include/newlib/c++/9.2.1/bits/stl_vector.h **** #if __cplusplus >= 201103L
 762:/usr/include/newlib/c++/9.2.1/bits/stl_vector.h ****       template<typename _InputIterator,
 763:/usr/include/newlib/c++/9.2.1/bits/stl_vector.h **** 	       typename = std::_RequireInputIter<_InputIterator>>
 764:/usr/include/newlib/c++/9.2.1/bits/stl_vector.h **** 	void
 765:/usr/include/newlib/c++/9.2.1/bits/stl_vector.h **** 	assign(_InputIterator __first, _InputIterator __last)
 766:/usr/include/newlib/c++/9.2.1/bits/stl_vector.h **** 	{ _M_assign_dispatch(__first, __last, __false_type()); }
 767:/usr/include/newlib/c++/9.2.1/bits/stl_vector.h **** #else
 768:/usr/include/newlib/c++/9.2.1/bits/stl_vector.h ****       template<typename _InputIterator>
 769:/usr/include/newlib/c++/9.2.1/bits/stl_vector.h **** 	void
 770:/usr/include/newlib/c++/9.2.1/bits/stl_vector.h **** 	assign(_InputIterator __first, _InputIterator __last)
 771:/usr/include/newlib/c++/9.2.1/bits/stl_vector.h **** 	{
 772:/usr/include/newlib/c++/9.2.1/bits/stl_vector.h **** 	  // Check whether it's an integral type.  If so, it's not an iterator.
 773:/usr/include/newlib/c++/9.2.1/bits/stl_vector.h **** 	  typedef typename std::__is_integer<_InputIterator>::__type _Integral;
 774:/usr/include/newlib/c++/9.2.1/bits/stl_vector.h **** 	  _M_assign_dispatch(__first, __last, _Integral());
 775:/usr/include/newlib/c++/9.2.1/bits/stl_vector.h **** 	}
 776:/usr/include/newlib/c++/9.2.1/bits/stl_vector.h **** #endif
 777:/usr/include/newlib/c++/9.2.1/bits/stl_vector.h **** 
 778:/usr/include/newlib/c++/9.2.1/bits/stl_vector.h **** #if __cplusplus >= 201103L
 779:/usr/include/newlib/c++/9.2.1/bits/stl_vector.h ****       /**
 780:/usr/include/newlib/c++/9.2.1/bits/stl_vector.h ****        *  @brief  Assigns an initializer list to a %vector.
 781:/usr/include/newlib/c++/9.2.1/bits/stl_vector.h ****        *  @param  __l  An initializer_list.
 782:/usr/include/newlib/c++/9.2.1/bits/stl_vector.h ****        *
 783:/usr/include/newlib/c++/9.2.1/bits/stl_vector.h ****        *  This function fills a %vector with copies of the elements in the
 784:/usr/include/newlib/c++/9.2.1/bits/stl_vector.h ****        *  initializer list @a __l.
 785:/usr/include/newlib/c++/9.2.1/bits/stl_vector.h ****        *
 786:/usr/include/newlib/c++/9.2.1/bits/stl_vector.h ****        *  Note that the assignment completely changes the %vector and
 787:/usr/include/newlib/c++/9.2.1/bits/stl_vector.h ****        *  that the resulting %vector's size is the same as the number
 788:/usr/include/newlib/c++/9.2.1/bits/stl_vector.h ****        *  of elements assigned.
 789:/usr/include/newlib/c++/9.2.1/bits/stl_vector.h ****        */
 790:/usr/include/newlib/c++/9.2.1/bits/stl_vector.h ****       void
 791:/usr/include/newlib/c++/9.2.1/bits/stl_vector.h ****       assign(initializer_list<value_type> __l)
 792:/usr/include/newlib/c++/9.2.1/bits/stl_vector.h ****       {
 793:/usr/include/newlib/c++/9.2.1/bits/stl_vector.h **** 	this->_M_assign_aux(__l.begin(), __l.end(),
 794:/usr/include/newlib/c++/9.2.1/bits/stl_vector.h **** 			    random_access_iterator_tag());
 795:/usr/include/newlib/c++/9.2.1/bits/stl_vector.h ****       }
 796:/usr/include/newlib/c++/9.2.1/bits/stl_vector.h **** #endif
 797:/usr/include/newlib/c++/9.2.1/bits/stl_vector.h **** 
 798:/usr/include/newlib/c++/9.2.1/bits/stl_vector.h ****       /// Get a copy of the memory allocation object.
ARM GAS  /tmp/cco4jRmF.s 			page 48


 799:/usr/include/newlib/c++/9.2.1/bits/stl_vector.h ****       using _Base::get_allocator;
 800:/usr/include/newlib/c++/9.2.1/bits/stl_vector.h **** 
 801:/usr/include/newlib/c++/9.2.1/bits/stl_vector.h ****       // iterators
 802:/usr/include/newlib/c++/9.2.1/bits/stl_vector.h ****       /**
 803:/usr/include/newlib/c++/9.2.1/bits/stl_vector.h ****        *  Returns a read/write iterator that points to the first
 804:/usr/include/newlib/c++/9.2.1/bits/stl_vector.h ****        *  element in the %vector.  Iteration is done in ordinary
 805:/usr/include/newlib/c++/9.2.1/bits/stl_vector.h ****        *  element order.
 806:/usr/include/newlib/c++/9.2.1/bits/stl_vector.h ****        */
 807:/usr/include/newlib/c++/9.2.1/bits/stl_vector.h ****       iterator
 808:/usr/include/newlib/c++/9.2.1/bits/stl_vector.h ****       begin() _GLIBCXX_NOEXCEPT
 809:/usr/include/newlib/c++/9.2.1/bits/stl_vector.h ****       { return iterator(this->_M_impl._M_start); }
 810:/usr/include/newlib/c++/9.2.1/bits/stl_vector.h **** 
 811:/usr/include/newlib/c++/9.2.1/bits/stl_vector.h ****       /**
 812:/usr/include/newlib/c++/9.2.1/bits/stl_vector.h ****        *  Returns a read-only (constant) iterator that points to the
 813:/usr/include/newlib/c++/9.2.1/bits/stl_vector.h ****        *  first element in the %vector.  Iteration is done in ordinary
 814:/usr/include/newlib/c++/9.2.1/bits/stl_vector.h ****        *  element order.
 815:/usr/include/newlib/c++/9.2.1/bits/stl_vector.h ****        */
 816:/usr/include/newlib/c++/9.2.1/bits/stl_vector.h ****       const_iterator
 817:/usr/include/newlib/c++/9.2.1/bits/stl_vector.h ****       begin() const _GLIBCXX_NOEXCEPT
 818:/usr/include/newlib/c++/9.2.1/bits/stl_vector.h ****       { return const_iterator(this->_M_impl._M_start); }
 819:/usr/include/newlib/c++/9.2.1/bits/stl_vector.h **** 
 820:/usr/include/newlib/c++/9.2.1/bits/stl_vector.h ****       /**
 821:/usr/include/newlib/c++/9.2.1/bits/stl_vector.h ****        *  Returns a read/write iterator that points one past the last
 822:/usr/include/newlib/c++/9.2.1/bits/stl_vector.h ****        *  element in the %vector.  Iteration is done in ordinary
 823:/usr/include/newlib/c++/9.2.1/bits/stl_vector.h ****        *  element order.
 824:/usr/include/newlib/c++/9.2.1/bits/stl_vector.h ****        */
 825:/usr/include/newlib/c++/9.2.1/bits/stl_vector.h ****       iterator
 826:/usr/include/newlib/c++/9.2.1/bits/stl_vector.h ****       end() _GLIBCXX_NOEXCEPT
 827:/usr/include/newlib/c++/9.2.1/bits/stl_vector.h ****       { return iterator(this->_M_impl._M_finish); }
 828:/usr/include/newlib/c++/9.2.1/bits/stl_vector.h **** 
 829:/usr/include/newlib/c++/9.2.1/bits/stl_vector.h ****       /**
 830:/usr/include/newlib/c++/9.2.1/bits/stl_vector.h ****        *  Returns a read-only (constant) iterator that points one past
 831:/usr/include/newlib/c++/9.2.1/bits/stl_vector.h ****        *  the last element in the %vector.  Iteration is done in
 832:/usr/include/newlib/c++/9.2.1/bits/stl_vector.h ****        *  ordinary element order.
 833:/usr/include/newlib/c++/9.2.1/bits/stl_vector.h ****        */
 834:/usr/include/newlib/c++/9.2.1/bits/stl_vector.h ****       const_iterator
 835:/usr/include/newlib/c++/9.2.1/bits/stl_vector.h ****       end() const _GLIBCXX_NOEXCEPT
 836:/usr/include/newlib/c++/9.2.1/bits/stl_vector.h ****       { return const_iterator(this->_M_impl._M_finish); }
 837:/usr/include/newlib/c++/9.2.1/bits/stl_vector.h **** 
 838:/usr/include/newlib/c++/9.2.1/bits/stl_vector.h ****       /**
 839:/usr/include/newlib/c++/9.2.1/bits/stl_vector.h ****        *  Returns a read/write reverse iterator that points to the
 840:/usr/include/newlib/c++/9.2.1/bits/stl_vector.h ****        *  last element in the %vector.  Iteration is done in reverse
 841:/usr/include/newlib/c++/9.2.1/bits/stl_vector.h ****        *  element order.
 842:/usr/include/newlib/c++/9.2.1/bits/stl_vector.h ****        */
 843:/usr/include/newlib/c++/9.2.1/bits/stl_vector.h ****       reverse_iterator
 844:/usr/include/newlib/c++/9.2.1/bits/stl_vector.h ****       rbegin() _GLIBCXX_NOEXCEPT
 845:/usr/include/newlib/c++/9.2.1/bits/stl_vector.h ****       { return reverse_iterator(end()); }
 846:/usr/include/newlib/c++/9.2.1/bits/stl_vector.h **** 
 847:/usr/include/newlib/c++/9.2.1/bits/stl_vector.h ****       /**
 848:/usr/include/newlib/c++/9.2.1/bits/stl_vector.h ****        *  Returns a read-only (constant) reverse iterator that points
 849:/usr/include/newlib/c++/9.2.1/bits/stl_vector.h ****        *  to the last element in the %vector.  Iteration is done in
 850:/usr/include/newlib/c++/9.2.1/bits/stl_vector.h ****        *  reverse element order.
 851:/usr/include/newlib/c++/9.2.1/bits/stl_vector.h ****        */
 852:/usr/include/newlib/c++/9.2.1/bits/stl_vector.h ****       const_reverse_iterator
 853:/usr/include/newlib/c++/9.2.1/bits/stl_vector.h ****       rbegin() const _GLIBCXX_NOEXCEPT
 854:/usr/include/newlib/c++/9.2.1/bits/stl_vector.h ****       { return const_reverse_iterator(end()); }
 855:/usr/include/newlib/c++/9.2.1/bits/stl_vector.h **** 
ARM GAS  /tmp/cco4jRmF.s 			page 49


 856:/usr/include/newlib/c++/9.2.1/bits/stl_vector.h ****       /**
 857:/usr/include/newlib/c++/9.2.1/bits/stl_vector.h ****        *  Returns a read/write reverse iterator that points to one
 858:/usr/include/newlib/c++/9.2.1/bits/stl_vector.h ****        *  before the first element in the %vector.  Iteration is done
 859:/usr/include/newlib/c++/9.2.1/bits/stl_vector.h ****        *  in reverse element order.
 860:/usr/include/newlib/c++/9.2.1/bits/stl_vector.h ****        */
 861:/usr/include/newlib/c++/9.2.1/bits/stl_vector.h ****       reverse_iterator
 862:/usr/include/newlib/c++/9.2.1/bits/stl_vector.h ****       rend() _GLIBCXX_NOEXCEPT
 863:/usr/include/newlib/c++/9.2.1/bits/stl_vector.h ****       { return reverse_iterator(begin()); }
 864:/usr/include/newlib/c++/9.2.1/bits/stl_vector.h **** 
 865:/usr/include/newlib/c++/9.2.1/bits/stl_vector.h ****       /**
 866:/usr/include/newlib/c++/9.2.1/bits/stl_vector.h ****        *  Returns a read-only (constant) reverse iterator that points
 867:/usr/include/newlib/c++/9.2.1/bits/stl_vector.h ****        *  to one before the first element in the %vector.  Iteration
 868:/usr/include/newlib/c++/9.2.1/bits/stl_vector.h ****        *  is done in reverse element order.
 869:/usr/include/newlib/c++/9.2.1/bits/stl_vector.h ****        */
 870:/usr/include/newlib/c++/9.2.1/bits/stl_vector.h ****       const_reverse_iterator
 871:/usr/include/newlib/c++/9.2.1/bits/stl_vector.h ****       rend() const _GLIBCXX_NOEXCEPT
 872:/usr/include/newlib/c++/9.2.1/bits/stl_vector.h ****       { return const_reverse_iterator(begin()); }
 873:/usr/include/newlib/c++/9.2.1/bits/stl_vector.h **** 
 874:/usr/include/newlib/c++/9.2.1/bits/stl_vector.h **** #if __cplusplus >= 201103L
 875:/usr/include/newlib/c++/9.2.1/bits/stl_vector.h ****       /**
 876:/usr/include/newlib/c++/9.2.1/bits/stl_vector.h ****        *  Returns a read-only (constant) iterator that points to the
 877:/usr/include/newlib/c++/9.2.1/bits/stl_vector.h ****        *  first element in the %vector.  Iteration is done in ordinary
 878:/usr/include/newlib/c++/9.2.1/bits/stl_vector.h ****        *  element order.
 879:/usr/include/newlib/c++/9.2.1/bits/stl_vector.h ****        */
 880:/usr/include/newlib/c++/9.2.1/bits/stl_vector.h ****       const_iterator
 881:/usr/include/newlib/c++/9.2.1/bits/stl_vector.h ****       cbegin() const noexcept
 882:/usr/include/newlib/c++/9.2.1/bits/stl_vector.h ****       { return const_iterator(this->_M_impl._M_start); }
 883:/usr/include/newlib/c++/9.2.1/bits/stl_vector.h **** 
 884:/usr/include/newlib/c++/9.2.1/bits/stl_vector.h ****       /**
 885:/usr/include/newlib/c++/9.2.1/bits/stl_vector.h ****        *  Returns a read-only (constant) iterator that points one past
 886:/usr/include/newlib/c++/9.2.1/bits/stl_vector.h ****        *  the last element in the %vector.  Iteration is done in
 887:/usr/include/newlib/c++/9.2.1/bits/stl_vector.h ****        *  ordinary element order.
 888:/usr/include/newlib/c++/9.2.1/bits/stl_vector.h ****        */
 889:/usr/include/newlib/c++/9.2.1/bits/stl_vector.h ****       const_iterator
 890:/usr/include/newlib/c++/9.2.1/bits/stl_vector.h ****       cend() const noexcept
 891:/usr/include/newlib/c++/9.2.1/bits/stl_vector.h ****       { return const_iterator(this->_M_impl._M_finish); }
 892:/usr/include/newlib/c++/9.2.1/bits/stl_vector.h **** 
 893:/usr/include/newlib/c++/9.2.1/bits/stl_vector.h ****       /**
 894:/usr/include/newlib/c++/9.2.1/bits/stl_vector.h ****        *  Returns a read-only (constant) reverse iterator that points
 895:/usr/include/newlib/c++/9.2.1/bits/stl_vector.h ****        *  to the last element in the %vector.  Iteration is done in
 896:/usr/include/newlib/c++/9.2.1/bits/stl_vector.h ****        *  reverse element order.
 897:/usr/include/newlib/c++/9.2.1/bits/stl_vector.h ****        */
 898:/usr/include/newlib/c++/9.2.1/bits/stl_vector.h ****       const_reverse_iterator
 899:/usr/include/newlib/c++/9.2.1/bits/stl_vector.h ****       crbegin() const noexcept
 900:/usr/include/newlib/c++/9.2.1/bits/stl_vector.h ****       { return const_reverse_iterator(end()); }
 901:/usr/include/newlib/c++/9.2.1/bits/stl_vector.h **** 
 902:/usr/include/newlib/c++/9.2.1/bits/stl_vector.h ****       /**
 903:/usr/include/newlib/c++/9.2.1/bits/stl_vector.h ****        *  Returns a read-only (constant) reverse iterator that points
 904:/usr/include/newlib/c++/9.2.1/bits/stl_vector.h ****        *  to one before the first element in the %vector.  Iteration
 905:/usr/include/newlib/c++/9.2.1/bits/stl_vector.h ****        *  is done in reverse element order.
 906:/usr/include/newlib/c++/9.2.1/bits/stl_vector.h ****        */
 907:/usr/include/newlib/c++/9.2.1/bits/stl_vector.h ****       const_reverse_iterator
 908:/usr/include/newlib/c++/9.2.1/bits/stl_vector.h ****       crend() const noexcept
 909:/usr/include/newlib/c++/9.2.1/bits/stl_vector.h ****       { return const_reverse_iterator(begin()); }
 910:/usr/include/newlib/c++/9.2.1/bits/stl_vector.h **** #endif
 911:/usr/include/newlib/c++/9.2.1/bits/stl_vector.h **** 
 912:/usr/include/newlib/c++/9.2.1/bits/stl_vector.h ****       // [23.2.4.2] capacity
ARM GAS  /tmp/cco4jRmF.s 			page 50


 913:/usr/include/newlib/c++/9.2.1/bits/stl_vector.h ****       /**  Returns the number of elements in the %vector.  */
 914:/usr/include/newlib/c++/9.2.1/bits/stl_vector.h ****       size_type
 915:/usr/include/newlib/c++/9.2.1/bits/stl_vector.h ****       size() const _GLIBCXX_NOEXCEPT
 916:/usr/include/newlib/c++/9.2.1/bits/stl_vector.h ****       { return size_type(this->_M_impl._M_finish - this->_M_impl._M_start); }
 917:/usr/include/newlib/c++/9.2.1/bits/stl_vector.h **** 
 918:/usr/include/newlib/c++/9.2.1/bits/stl_vector.h ****       /**  Returns the size() of the largest possible %vector.  */
 919:/usr/include/newlib/c++/9.2.1/bits/stl_vector.h ****       size_type
 920:/usr/include/newlib/c++/9.2.1/bits/stl_vector.h ****       max_size() const _GLIBCXX_NOEXCEPT
 921:/usr/include/newlib/c++/9.2.1/bits/stl_vector.h ****       { return _S_max_size(_M_get_Tp_allocator()); }
 922:/usr/include/newlib/c++/9.2.1/bits/stl_vector.h **** 
 923:/usr/include/newlib/c++/9.2.1/bits/stl_vector.h **** #if __cplusplus >= 201103L
 924:/usr/include/newlib/c++/9.2.1/bits/stl_vector.h ****       /**
 925:/usr/include/newlib/c++/9.2.1/bits/stl_vector.h ****        *  @brief  Resizes the %vector to the specified number of elements.
 926:/usr/include/newlib/c++/9.2.1/bits/stl_vector.h ****        *  @param  __new_size  Number of elements the %vector should contain.
 927:/usr/include/newlib/c++/9.2.1/bits/stl_vector.h ****        *
 928:/usr/include/newlib/c++/9.2.1/bits/stl_vector.h ****        *  This function will %resize the %vector to the specified
 929:/usr/include/newlib/c++/9.2.1/bits/stl_vector.h ****        *  number of elements.  If the number is smaller than the
 930:/usr/include/newlib/c++/9.2.1/bits/stl_vector.h ****        *  %vector's current size the %vector is truncated, otherwise
 931:/usr/include/newlib/c++/9.2.1/bits/stl_vector.h ****        *  default constructed elements are appended.
 932:/usr/include/newlib/c++/9.2.1/bits/stl_vector.h ****        */
 933:/usr/include/newlib/c++/9.2.1/bits/stl_vector.h ****       void
 934:/usr/include/newlib/c++/9.2.1/bits/stl_vector.h ****       resize(size_type __new_size)
 935:/usr/include/newlib/c++/9.2.1/bits/stl_vector.h ****       {
 936:/usr/include/newlib/c++/9.2.1/bits/stl_vector.h **** 	if (__new_size > size())
 937:/usr/include/newlib/c++/9.2.1/bits/stl_vector.h **** 	  _M_default_append(__new_size - size());
 938:/usr/include/newlib/c++/9.2.1/bits/stl_vector.h **** 	else if (__new_size < size())
 939:/usr/include/newlib/c++/9.2.1/bits/stl_vector.h **** 	  _M_erase_at_end(this->_M_impl._M_start + __new_size);
 940:/usr/include/newlib/c++/9.2.1/bits/stl_vector.h ****       }
 941:/usr/include/newlib/c++/9.2.1/bits/stl_vector.h **** 
 942:/usr/include/newlib/c++/9.2.1/bits/stl_vector.h ****       /**
 943:/usr/include/newlib/c++/9.2.1/bits/stl_vector.h ****        *  @brief  Resizes the %vector to the specified number of elements.
 944:/usr/include/newlib/c++/9.2.1/bits/stl_vector.h ****        *  @param  __new_size  Number of elements the %vector should contain.
 945:/usr/include/newlib/c++/9.2.1/bits/stl_vector.h ****        *  @param  __x  Data with which new elements should be populated.
 946:/usr/include/newlib/c++/9.2.1/bits/stl_vector.h ****        *
 947:/usr/include/newlib/c++/9.2.1/bits/stl_vector.h ****        *  This function will %resize the %vector to the specified
 948:/usr/include/newlib/c++/9.2.1/bits/stl_vector.h ****        *  number of elements.  If the number is smaller than the
 949:/usr/include/newlib/c++/9.2.1/bits/stl_vector.h ****        *  %vector's current size the %vector is truncated, otherwise
 950:/usr/include/newlib/c++/9.2.1/bits/stl_vector.h ****        *  the %vector is extended and new elements are populated with
 951:/usr/include/newlib/c++/9.2.1/bits/stl_vector.h ****        *  given data.
 952:/usr/include/newlib/c++/9.2.1/bits/stl_vector.h ****        */
 953:/usr/include/newlib/c++/9.2.1/bits/stl_vector.h ****       void
 954:/usr/include/newlib/c++/9.2.1/bits/stl_vector.h ****       resize(size_type __new_size, const value_type& __x)
 955:/usr/include/newlib/c++/9.2.1/bits/stl_vector.h ****       {
 956:/usr/include/newlib/c++/9.2.1/bits/stl_vector.h **** 	if (__new_size > size())
 957:/usr/include/newlib/c++/9.2.1/bits/stl_vector.h **** 	  _M_fill_insert(end(), __new_size - size(), __x);
 958:/usr/include/newlib/c++/9.2.1/bits/stl_vector.h **** 	else if (__new_size < size())
 959:/usr/include/newlib/c++/9.2.1/bits/stl_vector.h **** 	  _M_erase_at_end(this->_M_impl._M_start + __new_size);
 960:/usr/include/newlib/c++/9.2.1/bits/stl_vector.h ****       }
 961:/usr/include/newlib/c++/9.2.1/bits/stl_vector.h **** #else
 962:/usr/include/newlib/c++/9.2.1/bits/stl_vector.h ****       /**
 963:/usr/include/newlib/c++/9.2.1/bits/stl_vector.h ****        *  @brief  Resizes the %vector to the specified number of elements.
