ARM GAS  C:\Users\etpen\AppData\Local\Temp\ccmI6ini.s 			page 1


   1              		.cpu cortex-m7
   2              		.eabi_attribute 28, 1
   3              		.eabi_attribute 20, 1
   4              		.eabi_attribute 21, 1
   5              		.eabi_attribute 23, 3
   6              		.eabi_attribute 24, 1
   7              		.eabi_attribute 25, 1
   8              		.eabi_attribute 26, 1
   9              		.eabi_attribute 30, 2
  10              		.eabi_attribute 34, 1
  11              		.eabi_attribute 18, 4
  12              		.file	"Jellybeans.cpp"
  13              		.text
  14              	.Ltext0:
  15              		.cfi_sections	.debug_frame
  16              		.section	.text._ZN5daisy9ParameterD2Ev,"axG",%progbits,_ZN5daisy9ParameterD5Ev,comdat
  17              		.align	1
  18              		.p2align 2,,3
  19              		.weak	_ZN5daisy9ParameterD2Ev
  20              		.arch armv7e-m
  21              		.syntax unified
  22              		.thumb
  23              		.thumb_func
  24              		.fpu fpv5-d16
  26              	_ZN5daisy9ParameterD2Ev:
  27              	.LVL0:
  28              	.LFB3867:
  29              		.file 1 "../../libdaisy/src/hid/parameter.h"
   1:../../libdaisy/src/hid/parameter.h **** #pragma once
   2:../../libdaisy/src/hid/parameter.h **** #include <stdint.h>
   3:../../libdaisy/src/hid/parameter.h **** #include "hid/ctrl.h"
   4:../../libdaisy/src/hid/parameter.h **** 
   5:../../libdaisy/src/hid/parameter.h **** namespace daisy
   6:../../libdaisy/src/hid/parameter.h **** {
   7:../../libdaisy/src/hid/parameter.h **** /** @addtogroup controls
   8:../../libdaisy/src/hid/parameter.h ****     @{
   9:../../libdaisy/src/hid/parameter.h **** */
  10:../../libdaisy/src/hid/parameter.h **** 
  11:../../libdaisy/src/hid/parameter.h **** /**      Simple parameter mapping tool that takes a 0-1 input from an hid_ctrl. */
  12:../../libdaisy/src/hid/parameter.h **** class Parameter
  13:../../libdaisy/src/hid/parameter.h **** {
  14:../../libdaisy/src/hid/parameter.h ****   public:
  15:../../libdaisy/src/hid/parameter.h ****     /** Curves are applied to the output signal */
  16:../../libdaisy/src/hid/parameter.h ****     enum Curve
  17:../../libdaisy/src/hid/parameter.h ****     {
  18:../../libdaisy/src/hid/parameter.h ****         LINEAR,      /**< Linear curve */
  19:../../libdaisy/src/hid/parameter.h ****         EXPONENTIAL, /**< Exponential curve */
  20:../../libdaisy/src/hid/parameter.h ****         LOGARITHMIC, /**<  Logarithmic curve */
  21:../../libdaisy/src/hid/parameter.h ****         CUBE,        /**< Cubic curve */
  22:../../libdaisy/src/hid/parameter.h ****         LAST,        /**< Final enum element. */
  23:../../libdaisy/src/hid/parameter.h ****     };
  24:../../libdaisy/src/hid/parameter.h ****     /** Constructor */
  25:../../libdaisy/src/hid/parameter.h ****     Parameter() {}
  26:../../libdaisy/src/hid/parameter.h ****     /** Destructor */
  27:../../libdaisy/src/hid/parameter.h ****     ~Parameter() {}
  30              		.loc 1 27 5 view -0
  31              		.cfi_startproc
ARM GAS  C:\Users\etpen\AppData\Local\Temp\ccmI6ini.s 			page 2


  32              		@ args = 0, pretend = 0, frame = 0
  33              		@ frame_needed = 0, uses_anonymous_args = 0
  34              		@ link register save eliminated.
  35              	.LBB4552:
  36              	.LBI4552:
  37              		.file 2 "../../libdaisy/src/hid/ctrl.h"
   1:../../libdaisy/src/hid/ctrl.h **** #pragma once
   2:../../libdaisy/src/hid/ctrl.h **** #ifndef DSY_KNOB_H
   3:../../libdaisy/src/hid/ctrl.h **** #define DSY_KNOB_H /**< & */
   4:../../libdaisy/src/hid/ctrl.h **** #include <stdint.h>
   5:../../libdaisy/src/hid/ctrl.h **** 
   6:../../libdaisy/src/hid/ctrl.h **** #ifdef __cplusplus
   7:../../libdaisy/src/hid/ctrl.h **** namespace daisy
   8:../../libdaisy/src/hid/ctrl.h **** {
   9:../../libdaisy/src/hid/ctrl.h **** /**
  10:../../libdaisy/src/hid/ctrl.h ****     @brief Hardware Interface for control inputs \n 
  11:../../libdaisy/src/hid/ctrl.h ****     Primarily designed for ADC input controls such as \n 
  12:../../libdaisy/src/hid/ctrl.h ****     potentiometers, and control voltage. \n 
  13:../../libdaisy/src/hid/ctrl.h ****     @author Stephen Hensley
  14:../../libdaisy/src/hid/ctrl.h ****     @date November 2019
  15:../../libdaisy/src/hid/ctrl.h ****     @ingroup controls
  16:../../libdaisy/src/hid/ctrl.h **** */
  17:../../libdaisy/src/hid/ctrl.h **** class AnalogControl
  18:../../libdaisy/src/hid/ctrl.h **** {
  19:../../libdaisy/src/hid/ctrl.h ****   public:
  20:../../libdaisy/src/hid/ctrl.h ****     /** Constructor */
  21:../../libdaisy/src/hid/ctrl.h ****     AnalogControl() {}
  22:../../libdaisy/src/hid/ctrl.h ****     /** destructor */
  23:../../libdaisy/src/hid/ctrl.h ****     ~AnalogControl() {}
  38              		.loc 2 23 5 view .LVU1
  39              		.loc 2 23 5 is_stmt 0 view .LVU2
  40              	.LBE4552:
  41              		.loc 1 27 19 view .LVU3
  42 0000 7047     		bx	lr
  43              		.cfi_endproc
  44              	.LFE3867:
  46              		.weak	_ZN5daisy9ParameterD1Ev
  47              		.thumb_set _ZN5daisy9ParameterD1Ev,_ZN5daisy9ParameterD2Ev
  48 0002 00BF     		.section	.text._ZN5daisy10DaisyPatchD2Ev,"axG",%progbits,_ZN5daisy10DaisyPatchD5Ev,comdat
  49              		.align	1
  50              		.p2align 2,,3
  51              		.weak	_ZN5daisy10DaisyPatchD2Ev
  52              		.syntax unified
  53              		.thumb
  54              		.thumb_func
  55              		.fpu fpv5-d16
  57              	_ZN5daisy10DaisyPatchD2Ev:
  58              	.LVL1:
  59              	.LFB4414:
  60              		.file 3 "../../libdaisy/src/daisy_patch.h"
   1:../../libdaisy/src/daisy_patch.h **** #pragma once
   2:../../libdaisy/src/daisy_patch.h **** #ifndef DSY_PATCH_BSP_H
   3:../../libdaisy/src/daisy_patch.h **** #define DSY_PATCH_BSP_H
   4:../../libdaisy/src/daisy_patch.h **** #include "daisy_seed.h"
   5:../../libdaisy/src/daisy_patch.h **** #include "dev/oled_ssd130x.h"
   6:../../libdaisy/src/daisy_patch.h **** 
   7:../../libdaisy/src/daisy_patch.h **** namespace daisy
ARM GAS  C:\Users\etpen\AppData\Local\Temp\ccmI6ini.s 			page 3


   8:../../libdaisy/src/daisy_patch.h **** {
   9:../../libdaisy/src/daisy_patch.h **** /**
  10:../../libdaisy/src/daisy_patch.h ****     @brief Class that handles initializing all of the hardware specific to the Daisy Patch Board. \
  11:../../libdaisy/src/daisy_patch.h ****     Helper funtions are also in place to provide easy access to built-in controls and peripherals.
  12:../../libdaisy/src/daisy_patch.h ****     @author Stephen Hensley
  13:../../libdaisy/src/daisy_patch.h ****     @date November 2019
  14:../../libdaisy/src/daisy_patch.h ****     @ingroup boards
  15:../../libdaisy/src/daisy_patch.h **** */
  16:../../libdaisy/src/daisy_patch.h **** class DaisyPatch
  17:../../libdaisy/src/daisy_patch.h **** {
  18:../../libdaisy/src/daisy_patch.h ****   public:
  19:../../libdaisy/src/daisy_patch.h ****     /** Enum of Ctrls to represent the four CV/Knob combos on the Patch
  20:../../libdaisy/src/daisy_patch.h ****      */
  21:../../libdaisy/src/daisy_patch.h ****     enum Ctrl
  22:../../libdaisy/src/daisy_patch.h ****     {
  23:../../libdaisy/src/daisy_patch.h ****         CTRL_1,    /**< */
  24:../../libdaisy/src/daisy_patch.h ****         CTRL_2,    /**< */
  25:../../libdaisy/src/daisy_patch.h ****         CTRL_3,    /**< */
  26:../../libdaisy/src/daisy_patch.h ****         CTRL_4,    /**< */
  27:../../libdaisy/src/daisy_patch.h ****         CTRL_LAST, /**< */
  28:../../libdaisy/src/daisy_patch.h ****     };
  29:../../libdaisy/src/daisy_patch.h **** 
  30:../../libdaisy/src/daisy_patch.h ****     /** Daisy patch gate inputs */
  31:../../libdaisy/src/daisy_patch.h ****     enum GateInput
  32:../../libdaisy/src/daisy_patch.h ****     {
  33:../../libdaisy/src/daisy_patch.h ****         GATE_IN_1,    /**< */
  34:../../libdaisy/src/daisy_patch.h ****         GATE_IN_2,    /** <*/
  35:../../libdaisy/src/daisy_patch.h ****         GATE_IN_LAST, /**< */
  36:../../libdaisy/src/daisy_patch.h ****     };
  37:../../libdaisy/src/daisy_patch.h **** 
  38:../../libdaisy/src/daisy_patch.h ****     /** Constructor */
  39:../../libdaisy/src/daisy_patch.h ****     DaisyPatch() {}
  40:../../libdaisy/src/daisy_patch.h ****     /** Destructor */
  41:../../libdaisy/src/daisy_patch.h ****     ~DaisyPatch() {}
  61              		.loc 3 41 5 is_stmt 1 view -0
  62              		.cfi_startproc
  63              		@ args = 0, pretend = 0, frame = 0
  64              		@ frame_needed = 0, uses_anonymous_args = 0
  65              		@ link register save eliminated.
  66              	.LBB4553:
  67              	.LBI4553:
  68              		.file 4 "../../libdaisy/src/hid/disp/oled_display.h"
   1:../../libdaisy/src/hid/disp/oled_display.h **** #pragma once
   2:../../libdaisy/src/hid/disp/oled_display.h **** #ifndef DSY_OLED_DISPLAY_H
   3:../../libdaisy/src/hid/disp/oled_display.h **** #define DSY_OLED_DISPLAY_H /**< Macro */
   4:../../libdaisy/src/hid/disp/oled_display.h **** 
   5:../../libdaisy/src/hid/disp/oled_display.h **** #include "display.h"
   6:../../libdaisy/src/hid/disp/oled_display.h **** 
   7:../../libdaisy/src/hid/disp/oled_display.h **** namespace daisy
   8:../../libdaisy/src/hid/disp/oled_display.h **** {
   9:../../libdaisy/src/hid/disp/oled_display.h **** /** 
  10:../../libdaisy/src/hid/disp/oled_display.h ****  * This class is for drawing to a monochrome OLED display. 
  11:../../libdaisy/src/hid/disp/oled_display.h **** */
  12:../../libdaisy/src/hid/disp/oled_display.h **** template <typename DisplayDriver>
  13:../../libdaisy/src/hid/disp/oled_display.h **** class OledDisplay : public OneBitGraphicsDisplayImpl<OledDisplay<DisplayDriver>>
  14:../../libdaisy/src/hid/disp/oled_display.h **** {
  15:../../libdaisy/src/hid/disp/oled_display.h ****   public:
ARM GAS  C:\Users\etpen\AppData\Local\Temp\ccmI6ini.s 			page 4


  16:../../libdaisy/src/hid/disp/oled_display.h ****     OledDisplay() {}
  17:../../libdaisy/src/hid/disp/oled_display.h ****     virtual ~OledDisplay() {}
  69              		.loc 4 17 13 view .LVU5
  70              	.LBB4554:
  71              	.LBI4554:
  72              		.file 5 "../../libdaisy/src/hid/disp/display.h"
   1:../../libdaisy/src/hid/disp/display.h **** #pragma once
   2:../../libdaisy/src/hid/disp/display.h **** #ifndef DSY_DISPLAY_H
   3:../../libdaisy/src/hid/disp/display.h **** #define DSY_DISPLAY_H /**< Macro */
   4:../../libdaisy/src/hid/disp/display.h **** #include <cmath>
   5:../../libdaisy/src/hid/disp/display.h **** #include "util/oled_fonts.h"
   6:../../libdaisy/src/hid/disp/display.h **** #include "daisy_core.h"
   7:../../libdaisy/src/hid/disp/display.h **** #include "graphics_common.h"
   8:../../libdaisy/src/hid/disp/display.h **** 
   9:../../libdaisy/src/hid/disp/display.h **** #ifndef deg2rad
  10:../../libdaisy/src/hid/disp/display.h **** #define deg2rad(deg) ((deg)*3.141592 / 180.0)
  11:../../libdaisy/src/hid/disp/display.h **** #endif
  12:../../libdaisy/src/hid/disp/display.h **** 
  13:../../libdaisy/src/hid/disp/display.h **** namespace daisy
  14:../../libdaisy/src/hid/disp/display.h **** {
  15:../../libdaisy/src/hid/disp/display.h **** /** 
  16:../../libdaisy/src/hid/disp/display.h ****  * This interface is used as a base class for all types of 1bit-per-pixel
  17:../../libdaisy/src/hid/disp/display.h ****  * graphics displays.
  18:../../libdaisy/src/hid/disp/display.h **** */
  19:../../libdaisy/src/hid/disp/display.h **** class OneBitGraphicsDisplay
  20:../../libdaisy/src/hid/disp/display.h **** {
  21:../../libdaisy/src/hid/disp/display.h ****   public:
  22:../../libdaisy/src/hid/disp/display.h ****     OneBitGraphicsDisplay() {}
  23:../../libdaisy/src/hid/disp/display.h ****     virtual ~OneBitGraphicsDisplay() {}
  24:../../libdaisy/src/hid/disp/display.h **** 
  25:../../libdaisy/src/hid/disp/display.h ****     virtual uint16_t Height() const = 0;
  26:../../libdaisy/src/hid/disp/display.h ****     virtual uint16_t Width() const  = 0;
  27:../../libdaisy/src/hid/disp/display.h **** 
  28:../../libdaisy/src/hid/disp/display.h ****     Rectangle GetBounds() const
  29:../../libdaisy/src/hid/disp/display.h ****     {
  30:../../libdaisy/src/hid/disp/display.h ****         return Rectangle(int16_t(Width()), int16_t(Height()));
  31:../../libdaisy/src/hid/disp/display.h ****     }
  32:../../libdaisy/src/hid/disp/display.h **** 
  33:../../libdaisy/src/hid/disp/display.h **** 
  34:../../libdaisy/src/hid/disp/display.h ****     size_t CurrentX() { return currentX_; };
  35:../../libdaisy/src/hid/disp/display.h ****     size_t CurrentY() { return currentY_; };
  36:../../libdaisy/src/hid/disp/display.h **** 
  37:../../libdaisy/src/hid/disp/display.h ****     /** 
  38:../../libdaisy/src/hid/disp/display.h ****     Fills the entire display with either on/off.
  39:../../libdaisy/src/hid/disp/display.h ****     \param on Sets on or off.
  40:../../libdaisy/src/hid/disp/display.h ****     */
  41:../../libdaisy/src/hid/disp/display.h ****     virtual void Fill(bool on) = 0;
  42:../../libdaisy/src/hid/disp/display.h **** 
  43:../../libdaisy/src/hid/disp/display.h ****     /**
  44:../../libdaisy/src/hid/disp/display.h ****     Sets the pixel at the specified coordinate to be on/off.
  45:../../libdaisy/src/hid/disp/display.h ****     \param x   x Coordinate
  46:../../libdaisy/src/hid/disp/display.h ****     \param y   y coordinate
  47:../../libdaisy/src/hid/disp/display.h ****     \param on  on or off
  48:../../libdaisy/src/hid/disp/display.h ****     */
  49:../../libdaisy/src/hid/disp/display.h ****     virtual void DrawPixel(uint_fast8_t x, uint_fast8_t y, bool on) = 0;
  50:../../libdaisy/src/hid/disp/display.h **** 
  51:../../libdaisy/src/hid/disp/display.h ****     /**
ARM GAS  C:\Users\etpen\AppData\Local\Temp\ccmI6ini.s 			page 5


  52:../../libdaisy/src/hid/disp/display.h ****     Draws a line from (x1, y1) to (y1, y2)
  53:../../libdaisy/src/hid/disp/display.h ****     \param x1  x Coordinate of the starting point
  54:../../libdaisy/src/hid/disp/display.h ****     \param y1  y Coordinate of the starting point
  55:../../libdaisy/src/hid/disp/display.h ****     \param x2  x Coordinate of the ending point
  56:../../libdaisy/src/hid/disp/display.h ****     \param y2  y Coordinate of the ending point
  57:../../libdaisy/src/hid/disp/display.h ****     \param on  on or off
  58:../../libdaisy/src/hid/disp/display.h ****     */
  59:../../libdaisy/src/hid/disp/display.h ****     virtual void DrawLine(uint_fast8_t x1,
  60:../../libdaisy/src/hid/disp/display.h ****                           uint_fast8_t y1,
  61:../../libdaisy/src/hid/disp/display.h ****                           uint_fast8_t x2,
  62:../../libdaisy/src/hid/disp/display.h ****                           uint_fast8_t y2,
  63:../../libdaisy/src/hid/disp/display.h ****                           bool         on)
  64:../../libdaisy/src/hid/disp/display.h ****         = 0;
  65:../../libdaisy/src/hid/disp/display.h **** 
  66:../../libdaisy/src/hid/disp/display.h ****     /**
  67:../../libdaisy/src/hid/disp/display.h ****     Draws a rectangle based on two coordinates.
  68:../../libdaisy/src/hid/disp/display.h ****     \param x1 x Coordinate of the first point
  69:../../libdaisy/src/hid/disp/display.h ****     \param y1 y Coordinate of the first point
  70:../../libdaisy/src/hid/disp/display.h ****     \param x2 x Coordinate of the second point
  71:../../libdaisy/src/hid/disp/display.h ****     \param y2 y Coordinate of the second point
  72:../../libdaisy/src/hid/disp/display.h ****     \param on on or off
  73:../../libdaisy/src/hid/disp/display.h ****     \param fill fill the rectangle or draw only the outline
  74:../../libdaisy/src/hid/disp/display.h ****     */
  75:../../libdaisy/src/hid/disp/display.h ****     virtual void DrawRect(uint_fast8_t x1,
  76:../../libdaisy/src/hid/disp/display.h ****                           uint_fast8_t y1,
  77:../../libdaisy/src/hid/disp/display.h ****                           uint_fast8_t x2,
  78:../../libdaisy/src/hid/disp/display.h ****                           uint_fast8_t y2,
  79:../../libdaisy/src/hid/disp/display.h ****                           bool         on,
  80:../../libdaisy/src/hid/disp/display.h ****                           bool         fill = false)
  81:../../libdaisy/src/hid/disp/display.h ****         = 0;
  82:../../libdaisy/src/hid/disp/display.h **** 
  83:../../libdaisy/src/hid/disp/display.h ****     /**
  84:../../libdaisy/src/hid/disp/display.h ****     Draws a rectangle.
  85:../../libdaisy/src/hid/disp/display.h ****     \param rect the rectangle
  86:../../libdaisy/src/hid/disp/display.h ****     \param on   on or off
  87:../../libdaisy/src/hid/disp/display.h ****     \param fill fill the rectangle or draw only the outline
  88:../../libdaisy/src/hid/disp/display.h ****     */
  89:../../libdaisy/src/hid/disp/display.h ****     void DrawRect(const Rectangle& rect, bool on, bool fill = false)
  90:../../libdaisy/src/hid/disp/display.h ****     {
  91:../../libdaisy/src/hid/disp/display.h ****         DrawRect(rect.GetX(),
  92:../../libdaisy/src/hid/disp/display.h ****                  rect.GetY(),
  93:../../libdaisy/src/hid/disp/display.h ****                  rect.GetRight(),
  94:../../libdaisy/src/hid/disp/display.h ****                  rect.GetBottom(),
  95:../../libdaisy/src/hid/disp/display.h ****                  on,
  96:../../libdaisy/src/hid/disp/display.h ****                  fill);
  97:../../libdaisy/src/hid/disp/display.h ****     }
  98:../../libdaisy/src/hid/disp/display.h **** 
  99:../../libdaisy/src/hid/disp/display.h ****     /**
 100:../../libdaisy/src/hid/disp/display.h ****     Draws an arc around the specified coordinate
 101:../../libdaisy/src/hid/disp/display.h ****     \param x           x Coordinate of the center of the arc
 102:../../libdaisy/src/hid/disp/display.h ****     \param y           y Coordinate of the center of the arc
 103:../../libdaisy/src/hid/disp/display.h ****     \param radius      radius of the arc
 104:../../libdaisy/src/hid/disp/display.h ****     \param start_angle angle where to start the arc
 105:../../libdaisy/src/hid/disp/display.h ****     \param sweep       total angle of the arc
 106:../../libdaisy/src/hid/disp/display.h ****     \param on  on or off
 107:../../libdaisy/src/hid/disp/display.h ****     */
 108:../../libdaisy/src/hid/disp/display.h ****     virtual void DrawArc(uint_fast8_t x,
ARM GAS  C:\Users\etpen\AppData\Local\Temp\ccmI6ini.s 			page 6


 109:../../libdaisy/src/hid/disp/display.h ****                          uint_fast8_t y,
 110:../../libdaisy/src/hid/disp/display.h ****                          uint_fast8_t radius,
 111:../../libdaisy/src/hid/disp/display.h ****                          int_fast16_t start_angle,
 112:../../libdaisy/src/hid/disp/display.h ****                          int_fast16_t sweep,
 113:../../libdaisy/src/hid/disp/display.h ****                          bool         on)
 114:../../libdaisy/src/hid/disp/display.h ****         = 0;
 115:../../libdaisy/src/hid/disp/display.h **** 
 116:../../libdaisy/src/hid/disp/display.h ****     /**
 117:../../libdaisy/src/hid/disp/display.h ****     Draws a circle around the specified coordinate
 118:../../libdaisy/src/hid/disp/display.h ****     \param x           x Coordinate of the center of the circle
 119:../../libdaisy/src/hid/disp/display.h ****     \param y           y Coordinate of the center of the circle
 120:../../libdaisy/src/hid/disp/display.h ****     \param radius      radius of the circle
 121:../../libdaisy/src/hid/disp/display.h ****     \param on  on or off
 122:../../libdaisy/src/hid/disp/display.h ****     */
 123:../../libdaisy/src/hid/disp/display.h ****     void
 124:../../libdaisy/src/hid/disp/display.h ****     DrawCircle(uint_fast8_t x, uint_fast8_t y, uint_fast8_t radius, bool on)
 125:../../libdaisy/src/hid/disp/display.h ****     {
 126:../../libdaisy/src/hid/disp/display.h ****         DrawArc(x, y, radius, 0, 360, on);
 127:../../libdaisy/src/hid/disp/display.h ****     };
 128:../../libdaisy/src/hid/disp/display.h **** 
 129:../../libdaisy/src/hid/disp/display.h ****     /** 
 130:../../libdaisy/src/hid/disp/display.h ****     Writes the character with the specific FontDef
 131:../../libdaisy/src/hid/disp/display.h ****     to the display buffer at the current Cursor position.
 132:../../libdaisy/src/hid/disp/display.h ****     \param ch character to be written
 133:../../libdaisy/src/hid/disp/display.h ****     \param font font to be written in
 134:../../libdaisy/src/hid/disp/display.h ****     \param on    on or off
 135:../../libdaisy/src/hid/disp/display.h ****     \return &
 136:../../libdaisy/src/hid/disp/display.h ****     */
 137:../../libdaisy/src/hid/disp/display.h ****     virtual char WriteChar(char ch, FontDef font, bool on) = 0;
 138:../../libdaisy/src/hid/disp/display.h **** 
 139:../../libdaisy/src/hid/disp/display.h ****     /** 
 140:../../libdaisy/src/hid/disp/display.h ****     Similar to WriteChar, except it will handle an entire String.
 141:../../libdaisy/src/hid/disp/display.h ****     Wrapping does not happen automatically, so the width
 142:../../libdaisy/src/hid/disp/display.h ****     of the string must be kept within the dimensions of the screen.
 143:../../libdaisy/src/hid/disp/display.h ****     \param str string to be written
 144:../../libdaisy/src/hid/disp/display.h ****     \param font font to use
 145:../../libdaisy/src/hid/disp/display.h ****     \param on  on or off
 146:../../libdaisy/src/hid/disp/display.h ****     \return &
 147:../../libdaisy/src/hid/disp/display.h ****     */
 148:../../libdaisy/src/hid/disp/display.h ****     virtual char WriteString(const char* str, FontDef font, bool on) = 0;
 149:../../libdaisy/src/hid/disp/display.h **** 
 150:../../libdaisy/src/hid/disp/display.h ****     /** 
 151:../../libdaisy/src/hid/disp/display.h ****     Similar to WriteString but justified within a bounding box.
 152:../../libdaisy/src/hid/disp/display.h ****     \param str          string to be written
 153:../../libdaisy/src/hid/disp/display.h ****     \param font         font to use
 154:../../libdaisy/src/hid/disp/display.h ****     \param boundingBox  the bounding box to draw the text in
 155:../../libdaisy/src/hid/disp/display.h ****     \param alignment    the alignment to use
 156:../../libdaisy/src/hid/disp/display.h ****     \param on           on or off
 157:../../libdaisy/src/hid/disp/display.h ****     \return The rectangle that was drawn to
 158:../../libdaisy/src/hid/disp/display.h ****     */
 159:../../libdaisy/src/hid/disp/display.h ****     virtual Rectangle WriteStringAligned(const char*    str,
 160:../../libdaisy/src/hid/disp/display.h ****                                          const FontDef& font,
 161:../../libdaisy/src/hid/disp/display.h ****                                          Rectangle      boundingBox,
 162:../../libdaisy/src/hid/disp/display.h ****                                          Alignment      alignment,
 163:../../libdaisy/src/hid/disp/display.h ****                                          bool           on)
 164:../../libdaisy/src/hid/disp/display.h ****         = 0;
 165:../../libdaisy/src/hid/disp/display.h **** 
ARM GAS  C:\Users\etpen\AppData\Local\Temp\ccmI6ini.s 			page 7


 166:../../libdaisy/src/hid/disp/display.h ****     /** 
 167:../../libdaisy/src/hid/disp/display.h ****     Moves the 'Cursor' position used for WriteChar, and WriteStr to the specified coordinate.
 168:../../libdaisy/src/hid/disp/display.h ****     \param x x pos
 169:../../libdaisy/src/hid/disp/display.h ****     \param y y pos
 170:../../libdaisy/src/hid/disp/display.h ****     */
 171:../../libdaisy/src/hid/disp/display.h ****     void SetCursor(uint16_t x, uint16_t y)
 172:../../libdaisy/src/hid/disp/display.h ****     {
 173:../../libdaisy/src/hid/disp/display.h ****         currentX_ = (x >= Width()) ? Width() - 1 : x;
 174:../../libdaisy/src/hid/disp/display.h ****         currentY_ = (y >= Height()) ? Height() - 1 : y;
 175:../../libdaisy/src/hid/disp/display.h ****     }
 176:../../libdaisy/src/hid/disp/display.h **** 
 177:../../libdaisy/src/hid/disp/display.h ****     /** 
 178:../../libdaisy/src/hid/disp/display.h ****     Writes the current display buffer to the OLED device using SPI or I2C depending on 
 179:../../libdaisy/src/hid/disp/display.h ****     how the object was initialized.
 180:../../libdaisy/src/hid/disp/display.h ****     */
 181:../../libdaisy/src/hid/disp/display.h ****     virtual void Update() = 0;
 182:../../libdaisy/src/hid/disp/display.h **** 
 183:../../libdaisy/src/hid/disp/display.h ****   protected:
 184:../../libdaisy/src/hid/disp/display.h ****     uint16_t currentX_;
 185:../../libdaisy/src/hid/disp/display.h ****     uint16_t currentY_;
 186:../../libdaisy/src/hid/disp/display.h **** };
 187:../../libdaisy/src/hid/disp/display.h **** 
 188:../../libdaisy/src/hid/disp/display.h **** /** This class is intended as a intermediary class for your actual implementation of the OneBitGrap
 189:../../libdaisy/src/hid/disp/display.h ****  *  interface. It uses the CRTP design pattern where the template argument is the child class. It p
 190:../../libdaisy/src/hid/disp/display.h ****  *  implementations for most of the functions, except DrawPixel(), Update() and Fill(), which you'l
 191:../../libdaisy/src/hid/disp/display.h ****  *  to provide in your child class.
 192:../../libdaisy/src/hid/disp/display.h ****  *  The main goal of this class is to provide common drawing functions without relying on massive a
 193:../../libdaisy/src/hid/disp/display.h ****  *  virtual function calls that would result in a performance loss. To achieve this, any drawing fu
 194:../../libdaisy/src/hid/disp/display.h ****  *  is implemented here and internally calls other drawing functions (e.g. DrawRect() which interna
 195:../../libdaisy/src/hid/disp/display.h ****  *  DrawPixel() and DrawLine()) makes these calls via the qualified name of these functions to expl
 196:../../libdaisy/src/hid/disp/display.h ****  *  suppress the virtual dispatch mechanism like this:
 197:../../libdaisy/src/hid/disp/display.h ****  * 
 198:../../libdaisy/src/hid/disp/display.h ****  *      ChildType::DrawPixel(...); // no virtual function call; direct call into the child class fu
 199:../../libdaisy/src/hid/disp/display.h ****  *  
 200:../../libdaisy/src/hid/disp/display.h ****  *  To create a custom OneBitGraphicsDisplay implementation, you can 
 201:../../libdaisy/src/hid/disp/display.h ****  *  A) inherit from OneBitGraphicsDisplay directly and provide all the drawing functions yourself
 202:../../libdaisy/src/hid/disp/display.h ****  *  B) Inherit from OneBitGraphicsDisplayImpl and only provide DrawPixel(), Fill() and Update()
 203:../../libdaisy/src/hid/disp/display.h ****  *     like this:
 204:../../libdaisy/src/hid/disp/display.h ****  *  
 205:../../libdaisy/src/hid/disp/display.h ****  *      class MyDisplayClass : public OneBitGraphicsDisplayImpl<MyDisplayClass> 
 206:../../libdaisy/src/hid/disp/display.h ****  *      {
 207:../../libdaisy/src/hid/disp/display.h ****  *      public:
 208:../../libdaisy/src/hid/disp/display.h ****  *          void Fill() override { ... };
 209:../../libdaisy/src/hid/disp/display.h ****  *          void DrawPixel(uint_fast8_t x, uint_fast8_t y, bool on) override { ... };
 210:../../libdaisy/src/hid/disp/display.h ****  *          void Update() override { ... }
 211:../../libdaisy/src/hid/disp/display.h ****  *      };
 212:../../libdaisy/src/hid/disp/display.h ****  *  
 213:../../libdaisy/src/hid/disp/display.h ****  */
 214:../../libdaisy/src/hid/disp/display.h **** template <class ChildType>
 215:../../libdaisy/src/hid/disp/display.h **** class OneBitGraphicsDisplayImpl : public OneBitGraphicsDisplay
 216:../../libdaisy/src/hid/disp/display.h **** {
 217:../../libdaisy/src/hid/disp/display.h ****   public:
 218:../../libdaisy/src/hid/disp/display.h ****     OneBitGraphicsDisplayImpl() {}
 219:../../libdaisy/src/hid/disp/display.h ****     virtual ~OneBitGraphicsDisplayImpl() {}
  73              		.loc 5 219 13 view .LVU6
  74              	.LBB4555:
  75              	.LBI4555:
ARM GAS  C:\Users\etpen\AppData\Local\Temp\ccmI6ini.s 			page 8


  23:../../libdaisy/src/hid/disp/display.h **** 
  76              		.loc 5 23 13 view .LVU7
  23:../../libdaisy/src/hid/disp/display.h **** 
  77              		.loc 5 23 13 is_stmt 0 view .LVU8
  78              	.LBE4555:
  79              	.LBE4554:
  80              	.LBE4553:
  81              	.LBB4556:
  82              	.LBI4556:
  83              		.file 6 "../../libdaisy/src/hid/midi.h"
   1:../../libdaisy/src/hid/midi.h **** #pragma once
   2:../../libdaisy/src/hid/midi.h **** #ifndef DSY_MIDI_H
   3:../../libdaisy/src/hid/midi.h **** #define DSY_MIDI_H
   4:../../libdaisy/src/hid/midi.h **** 
   5:../../libdaisy/src/hid/midi.h **** // TODO: make this adjustable
   6:../../libdaisy/src/hid/midi.h **** #define SYSEX_BUFFER_LEN 128
   7:../../libdaisy/src/hid/midi.h **** 
   8:../../libdaisy/src/hid/midi.h **** #include <stdint.h>
   9:../../libdaisy/src/hid/midi.h **** #include <stdlib.h>
  10:../../libdaisy/src/hid/midi.h **** #include "per/uart.h"
  11:../../libdaisy/src/hid/midi.h **** #include "util/ringbuffer.h"
  12:../../libdaisy/src/hid/midi.h **** #include "hid/MidiEvent.h"
  13:../../libdaisy/src/hid/midi.h **** #include "hid/usb_midi.h"
  14:../../libdaisy/src/hid/midi.h **** #include "sys/system.h"
  15:../../libdaisy/src/hid/midi.h **** 
  16:../../libdaisy/src/hid/midi.h **** namespace daisy
  17:../../libdaisy/src/hid/midi.h **** {
  18:../../libdaisy/src/hid/midi.h **** /** @addtogroup external 
  19:../../libdaisy/src/hid/midi.h ****     @{ 
  20:../../libdaisy/src/hid/midi.h **** */
  21:../../libdaisy/src/hid/midi.h **** 
  22:../../libdaisy/src/hid/midi.h **** class MidiUartTransport
  23:../../libdaisy/src/hid/midi.h **** {
  24:../../libdaisy/src/hid/midi.h ****   public:
  25:../../libdaisy/src/hid/midi.h ****     MidiUartTransport() {}
  26:../../libdaisy/src/hid/midi.h ****     ~MidiUartTransport() {}
  27:../../libdaisy/src/hid/midi.h **** 
  28:../../libdaisy/src/hid/midi.h ****     struct Config
  29:../../libdaisy/src/hid/midi.h ****     {
  30:../../libdaisy/src/hid/midi.h ****         UartHandler::Config::Peripheral periph;
  31:../../libdaisy/src/hid/midi.h ****         dsy_gpio_pin                    rx;
  32:../../libdaisy/src/hid/midi.h ****         dsy_gpio_pin                    tx;
  33:../../libdaisy/src/hid/midi.h **** 
  34:../../libdaisy/src/hid/midi.h ****         Config()
  35:../../libdaisy/src/hid/midi.h ****         {
  36:../../libdaisy/src/hid/midi.h ****             periph = UartHandler::Config::Peripheral::USART_1;
  37:../../libdaisy/src/hid/midi.h ****             rx     = {DSY_GPIOB, 7};
  38:../../libdaisy/src/hid/midi.h ****             tx     = {DSY_GPIOB, 6};
  39:../../libdaisy/src/hid/midi.h ****         }
  40:../../libdaisy/src/hid/midi.h ****     };
  41:../../libdaisy/src/hid/midi.h **** 
  42:../../libdaisy/src/hid/midi.h ****     inline void Init(Config config)
  43:../../libdaisy/src/hid/midi.h ****     {
  44:../../libdaisy/src/hid/midi.h ****         UartHandler::Config uart_config;
  45:../../libdaisy/src/hid/midi.h **** 
  46:../../libdaisy/src/hid/midi.h ****         //defaults
  47:../../libdaisy/src/hid/midi.h ****         uart_config.baudrate   = 31250;
ARM GAS  C:\Users\etpen\AppData\Local\Temp\ccmI6ini.s 			page 9


  48:../../libdaisy/src/hid/midi.h ****         uart_config.stopbits   = UartHandler::Config::StopBits::BITS_1;
  49:../../libdaisy/src/hid/midi.h ****         uart_config.parity     = UartHandler::Config::Parity::NONE;
  50:../../libdaisy/src/hid/midi.h ****         uart_config.mode       = UartHandler::Config::Mode::TX_RX;
  51:../../libdaisy/src/hid/midi.h ****         uart_config.wordlength = UartHandler::Config::WordLength::BITS_8;
  52:../../libdaisy/src/hid/midi.h **** 
  53:../../libdaisy/src/hid/midi.h ****         //user settings
  54:../../libdaisy/src/hid/midi.h ****         uart_config.periph        = config.periph;
  55:../../libdaisy/src/hid/midi.h ****         uart_config.pin_config.rx = config.rx;
  56:../../libdaisy/src/hid/midi.h ****         uart_config.pin_config.tx = config.tx;
  57:../../libdaisy/src/hid/midi.h **** 
  58:../../libdaisy/src/hid/midi.h ****         uart_.Init(uart_config);
  59:../../libdaisy/src/hid/midi.h ****     }
  60:../../libdaisy/src/hid/midi.h **** 
  61:../../libdaisy/src/hid/midi.h ****     inline void    StartRx() { uart_.StartRx(); }
  62:../../libdaisy/src/hid/midi.h ****     inline size_t  Readable() { return uart_.Readable(); }
  63:../../libdaisy/src/hid/midi.h ****     inline uint8_t Rx() { return uart_.PopRx(); }
  64:../../libdaisy/src/hid/midi.h ****     inline bool    RxActive() { return uart_.RxActive(); }
  65:../../libdaisy/src/hid/midi.h ****     inline void    FlushRx() { uart_.FlushRx(); }
  66:../../libdaisy/src/hid/midi.h ****     inline void    Tx(uint8_t* buff, size_t size) { uart_.PollTx(buff, size); }
  67:../../libdaisy/src/hid/midi.h **** 
  68:../../libdaisy/src/hid/midi.h ****   private:
  69:../../libdaisy/src/hid/midi.h ****     UartHandler uart_;
  70:../../libdaisy/src/hid/midi.h **** };
  71:../../libdaisy/src/hid/midi.h **** 
  72:../../libdaisy/src/hid/midi.h **** /** 
  73:../../libdaisy/src/hid/midi.h ****     @brief Simple MIDI Handler \n 
  74:../../libdaisy/src/hid/midi.h ****     Parses bytes from an input into valid MidiEvents. \n 
  75:../../libdaisy/src/hid/midi.h ****     The MidiEvents fill a FIFO queue that the user can pop messages from.
  76:../../libdaisy/src/hid/midi.h ****     @author shensley
  77:../../libdaisy/src/hid/midi.h ****     @date March 2020
  78:../../libdaisy/src/hid/midi.h **** */
  79:../../libdaisy/src/hid/midi.h **** template <typename Transport>
  80:../../libdaisy/src/hid/midi.h **** class MidiHandler
  81:../../libdaisy/src/hid/midi.h **** {
  82:../../libdaisy/src/hid/midi.h ****   public:
  83:../../libdaisy/src/hid/midi.h ****     MidiHandler() {}
  84:../../libdaisy/src/hid/midi.h ****     ~MidiHandler() {}
  84              		.loc 6 84 5 is_stmt 1 view .LVU9
  85              	.LBB4557:
  86              	.LBI4557:
  26:../../libdaisy/src/hid/midi.h **** 
  87              		.loc 6 26 5 view .LVU10
  26:../../libdaisy/src/hid/midi.h **** 
  88              		.loc 6 26 5 is_stmt 0 view .LVU11
  89              	.LBE4557:
  90              	.LBE4556:
  91              	.LBB4558:
  92              	.LBI4558:
  93              		.file 7 "../../libdaisy/src/hid/encoder.h"
   1:../../libdaisy/src/hid/encoder.h **** #pragma once
   2:../../libdaisy/src/hid/encoder.h **** #ifndef DSY_ENCODER_H
   3:../../libdaisy/src/hid/encoder.h **** #define DSY_ENCODER_H
   4:../../libdaisy/src/hid/encoder.h **** #include "daisy_core.h"
   5:../../libdaisy/src/hid/encoder.h **** #include "per/gpio.h"
   6:../../libdaisy/src/hid/encoder.h **** #include "hid/switch.h"
   7:../../libdaisy/src/hid/encoder.h **** 
   8:../../libdaisy/src/hid/encoder.h **** namespace daisy
ARM GAS  C:\Users\etpen\AppData\Local\Temp\ccmI6ini.s 			page 10


   9:../../libdaisy/src/hid/encoder.h **** {
  10:../../libdaisy/src/hid/encoder.h **** /** 
  11:../../libdaisy/src/hid/encoder.h ****     @brief Generic Class for handling Quadrature Encoders \n 
  12:../../libdaisy/src/hid/encoder.h ****     Inspired/influenced by Mutable Instruments (pichenettes) Encoder classes
  13:../../libdaisy/src/hid/encoder.h ****     @author Stephen Hensley
  14:../../libdaisy/src/hid/encoder.h ****     @date December 2019
  15:../../libdaisy/src/hid/encoder.h ****     @ingroup controls
  16:../../libdaisy/src/hid/encoder.h **** */
  17:../../libdaisy/src/hid/encoder.h **** class Encoder
  18:../../libdaisy/src/hid/encoder.h **** {
  19:../../libdaisy/src/hid/encoder.h ****   public:
  20:../../libdaisy/src/hid/encoder.h ****     Encoder() {}
  21:../../libdaisy/src/hid/encoder.h ****     ~Encoder() {}
  94              		.loc 7 21 5 is_stmt 1 view .LVU12
  95              	.LBB4559:
  96              	.LBI4559:
  97              		.file 8 "../../libdaisy/src/hid/switch.h"
   1:../../libdaisy/src/hid/switch.h **** #pragma once
   2:../../libdaisy/src/hid/switch.h **** #ifndef DSY_SWITCH_H
   3:../../libdaisy/src/hid/switch.h **** #define DSY_SWITCH_H
   4:../../libdaisy/src/hid/switch.h **** #include "daisy_core.h"
   5:../../libdaisy/src/hid/switch.h **** #include "per/gpio.h"
   6:../../libdaisy/src/hid/switch.h **** #include "sys/system.h"
   7:../../libdaisy/src/hid/switch.h **** 
   8:../../libdaisy/src/hid/switch.h **** namespace daisy
   9:../../libdaisy/src/hid/switch.h **** {
  10:../../libdaisy/src/hid/switch.h **** /** 
  11:../../libdaisy/src/hid/switch.h ****     Generic Class for handling momentary/latching switches \n 
  12:../../libdaisy/src/hid/switch.h ****     Inspired/influenced by Mutable Instruments (pichenettes) Switch classes
  13:../../libdaisy/src/hid/switch.h ****     @author Stephen Hensley
  14:../../libdaisy/src/hid/switch.h ****     @date December 2019
  15:../../libdaisy/src/hid/switch.h ****     @ingroup controls
  16:../../libdaisy/src/hid/switch.h **** */
  17:../../libdaisy/src/hid/switch.h **** class Switch
  18:../../libdaisy/src/hid/switch.h **** {
  19:../../libdaisy/src/hid/switch.h ****   public:
  20:../../libdaisy/src/hid/switch.h ****     /** Specifies the expected behavior of the switch */
  21:../../libdaisy/src/hid/switch.h ****     enum Type
  22:../../libdaisy/src/hid/switch.h ****     {
  23:../../libdaisy/src/hid/switch.h ****         TYPE_TOGGLE,    /**< & */
  24:../../libdaisy/src/hid/switch.h ****         TYPE_MOMENTARY, /**< & */
  25:../../libdaisy/src/hid/switch.h ****     };
  26:../../libdaisy/src/hid/switch.h ****     /** Specifies whether the pressed is HIGH or LOW. */
  27:../../libdaisy/src/hid/switch.h ****     enum Polarity
  28:../../libdaisy/src/hid/switch.h ****     {
  29:../../libdaisy/src/hid/switch.h ****         POLARITY_NORMAL,   /**< & */
  30:../../libdaisy/src/hid/switch.h ****         POLARITY_INVERTED, /**< & */
  31:../../libdaisy/src/hid/switch.h ****     };
  32:../../libdaisy/src/hid/switch.h **** 
  33:../../libdaisy/src/hid/switch.h ****     /** Specifies whether to use built-in Pull Up/Down resistors to hold button at a given state wh
  34:../../libdaisy/src/hid/switch.h ****     enum Pull
  35:../../libdaisy/src/hid/switch.h ****     {
  36:../../libdaisy/src/hid/switch.h ****         PULL_UP,   /**< & */
  37:../../libdaisy/src/hid/switch.h ****         PULL_DOWN, /**< & */
  38:../../libdaisy/src/hid/switch.h ****         PULL_NONE, /**< & */
  39:../../libdaisy/src/hid/switch.h ****     };
  40:../../libdaisy/src/hid/switch.h **** 
ARM GAS  C:\Users\etpen\AppData\Local\Temp\ccmI6ini.s 			page 11


  41:../../libdaisy/src/hid/switch.h ****     Switch() {}
  42:../../libdaisy/src/hid/switch.h ****     ~Switch() {}
  98              		.loc 8 42 5 view .LVU13
  99              		.loc 8 42 5 is_stmt 0 view .LVU14
 100              	.LBE4559:
 101              	.LBE4558:
 102              	.LBB4560:
 103              	.LBI4560:
 104              		.file 9 "../../libdaisy/src/daisy_seed.h"
   1:../../libdaisy/src/daisy_seed.h **** #pragma once
   2:../../libdaisy/src/daisy_seed.h **** #ifndef DSY_SEED_H
   3:../../libdaisy/src/daisy_seed.h **** #define DSY_SEED_H
   4:../../libdaisy/src/daisy_seed.h **** 
   5:../../libdaisy/src/daisy_seed.h **** #include "daisy.h"
   6:../../libdaisy/src/daisy_seed.h **** 
   7:../../libdaisy/src/daisy_seed.h **** //Uncomment this out if you're still using the rev2 hardware
   8:../../libdaisy/src/daisy_seed.h **** //#define SEED_REV2
   9:../../libdaisy/src/daisy_seed.h **** 
  10:../../libdaisy/src/daisy_seed.h **** namespace daisy
  11:../../libdaisy/src/daisy_seed.h **** {
  12:../../libdaisy/src/daisy_seed.h **** /**
  13:../../libdaisy/src/daisy_seed.h ****    @brief This is the higher-level interface for the Daisy board. \n 
  14:../../libdaisy/src/daisy_seed.h ****     All basic peripheral configuration/initialization is setup here. \n
  15:../../libdaisy/src/daisy_seed.h **** 
  16:../../libdaisy/src/daisy_seed.h ****    @ingroup boards
  17:../../libdaisy/src/daisy_seed.h **** */
  18:../../libdaisy/src/daisy_seed.h **** class DaisySeed
  19:../../libdaisy/src/daisy_seed.h **** {
  20:../../libdaisy/src/daisy_seed.h ****   public:
  21:../../libdaisy/src/daisy_seed.h ****     DaisySeed() {}
  22:../../libdaisy/src/daisy_seed.h ****     ~DaisySeed() {}
 105              		.loc 9 22 5 is_stmt 1 view .LVU15
 106              	.LBB4561:
 107              	.LBI4561:
 108              		.file 10 "../../libdaisy/src/sys/system.h"
   1:../../libdaisy/src/sys/system.h **** #ifndef DSY_SYSTEM_H
   2:../../libdaisy/src/sys/system.h **** #define DSY_SYSTEM_H
   3:../../libdaisy/src/sys/system.h **** 
   4:../../libdaisy/src/sys/system.h **** #ifndef UNIT_TEST // for unit tests, a dummy implementation is provided below
   5:../../libdaisy/src/sys/system.h **** 
   6:../../libdaisy/src/sys/system.h **** #include <cstdint>
   7:../../libdaisy/src/sys/system.h **** #include "per/tim.h"
   8:../../libdaisy/src/sys/system.h **** 
   9:../../libdaisy/src/sys/system.h **** namespace daisy
  10:../../libdaisy/src/sys/system.h **** {
  11:../../libdaisy/src/sys/system.h **** /** A handle for interacting with the Core System. 
  12:../../libdaisy/src/sys/system.h ****  ** This includes the Clock tree, MPU, global DMA initialization,
  13:../../libdaisy/src/sys/system.h ****  ** cache handling, and any other necessary global initiailzation
  14:../../libdaisy/src/sys/system.h ****  **
  15:../../libdaisy/src/sys/system.h ****  ** @author shensley
  16:../../libdaisy/src/sys/system.h ****  ** @addtogroup system
  17:../../libdaisy/src/sys/system.h ****  */
  18:../../libdaisy/src/sys/system.h **** class System
  19:../../libdaisy/src/sys/system.h **** {
  20:../../libdaisy/src/sys/system.h ****   public:
  21:../../libdaisy/src/sys/system.h ****     /** Contains settings for initializing the System */
  22:../../libdaisy/src/sys/system.h ****     struct Config
ARM GAS  C:\Users\etpen\AppData\Local\Temp\ccmI6ini.s 			page 12


  23:../../libdaisy/src/sys/system.h ****     {
  24:../../libdaisy/src/sys/system.h ****         /** Specifies the system clock frequency that feeds APB/AHB clocks, etc. */
  25:../../libdaisy/src/sys/system.h ****         enum class SysClkFreq
  26:../../libdaisy/src/sys/system.h ****         {
  27:../../libdaisy/src/sys/system.h ****             FREQ_400MHZ,
  28:../../libdaisy/src/sys/system.h ****             FREQ_480MHZ,
  29:../../libdaisy/src/sys/system.h ****         };
  30:../../libdaisy/src/sys/system.h **** 
  31:../../libdaisy/src/sys/system.h ****         /** Method to call on the struct to set to defaults
  32:../../libdaisy/src/sys/system.h ****          ** CPU Freq set to 400MHz
  33:../../libdaisy/src/sys/system.h ****          ** Cache Enabled 
  34:../../libdaisy/src/sys/system.h ****          ** */
  35:../../libdaisy/src/sys/system.h ****         void Defaults()
  36:../../libdaisy/src/sys/system.h ****         {
  37:../../libdaisy/src/sys/system.h ****             cpu_freq    = SysClkFreq::FREQ_400MHZ;
  38:../../libdaisy/src/sys/system.h ****             use_dcache  = true;
  39:../../libdaisy/src/sys/system.h ****             use_icache  = true;
  40:../../libdaisy/src/sys/system.h ****             skip_clocks = false;
  41:../../libdaisy/src/sys/system.h ****         }
  42:../../libdaisy/src/sys/system.h **** 
  43:../../libdaisy/src/sys/system.h ****         /** Method to call on the struct to set to boost mode:
  44:../../libdaisy/src/sys/system.h ****          ** CPU Freq set to 480MHz
  45:../../libdaisy/src/sys/system.h ****          ** Cache Enabled 
  46:../../libdaisy/src/sys/system.h ****          ** */
  47:../../libdaisy/src/sys/system.h ****         void Boost()
  48:../../libdaisy/src/sys/system.h ****         {
  49:../../libdaisy/src/sys/system.h ****             cpu_freq    = SysClkFreq::FREQ_480MHZ;
  50:../../libdaisy/src/sys/system.h ****             use_dcache  = true;
  51:../../libdaisy/src/sys/system.h ****             use_icache  = true;
  52:../../libdaisy/src/sys/system.h ****             skip_clocks = false;
  53:../../libdaisy/src/sys/system.h ****         }
  54:../../libdaisy/src/sys/system.h **** 
  55:../../libdaisy/src/sys/system.h ****         SysClkFreq cpu_freq;
  56:../../libdaisy/src/sys/system.h ****         bool       use_dcache;
  57:../../libdaisy/src/sys/system.h ****         bool       use_icache;
  58:../../libdaisy/src/sys/system.h ****         bool       skip_clocks;
  59:../../libdaisy/src/sys/system.h ****     };
  60:../../libdaisy/src/sys/system.h **** 
  61:../../libdaisy/src/sys/system.h ****     /** Describes the different regions of memory available to the Daisy
  62:../../libdaisy/src/sys/system.h ****      * 
  63:../../libdaisy/src/sys/system.h ****      */
  64:../../libdaisy/src/sys/system.h ****     enum MemoryRegion
  65:../../libdaisy/src/sys/system.h ****     {
  66:../../libdaisy/src/sys/system.h ****         INTERNAL_FLASH = 0,
  67:../../libdaisy/src/sys/system.h ****         ITCMRAM,
  68:../../libdaisy/src/sys/system.h ****         DTCMRAM,
  69:../../libdaisy/src/sys/system.h ****         SRAM_D1,
  70:../../libdaisy/src/sys/system.h ****         SRAM_D2,
  71:../../libdaisy/src/sys/system.h ****         SRAM_D3,
  72:../../libdaisy/src/sys/system.h ****         SDRAM,
  73:../../libdaisy/src/sys/system.h ****         QSPI,
  74:../../libdaisy/src/sys/system.h ****         INVALID_ADDRESS,
  75:../../libdaisy/src/sys/system.h ****     };
  76:../../libdaisy/src/sys/system.h **** 
  77:../../libdaisy/src/sys/system.h ****     System() {}
  78:../../libdaisy/src/sys/system.h ****     ~System() {}
 109              		.loc 10 78 5 view .LVU16
ARM GAS  C:\Users\etpen\AppData\Local\Temp\ccmI6ini.s 			page 13


 110              		.loc 10 78 5 is_stmt 0 view .LVU17
 111              	.LBE4561:
 112              	.LBB4562:
 113              	.LBI4562:
 114              		.file 11 "../../libdaisy/src/hid/usb.h"
   1:../../libdaisy/src/hid/usb.h **** #pragma once
   2:../../libdaisy/src/hid/usb.h **** #ifndef DSY_HID_USB_H
   3:../../libdaisy/src/hid/usb.h **** #define DSY_HID_USB_H
   4:../../libdaisy/src/hid/usb.h **** #include <stdint.h>
   5:../../libdaisy/src/hid/usb.h **** #include <stdlib.h>
   6:../../libdaisy/src/hid/usb.h **** 
   7:../../libdaisy/src/hid/usb.h **** namespace daisy
   8:../../libdaisy/src/hid/usb.h **** /** @addtogroup externals
   9:../../libdaisy/src/hid/usb.h ****     @{
  10:../../libdaisy/src/hid/usb.h **** */
  11:../../libdaisy/src/hid/usb.h **** 
  12:../../libdaisy/src/hid/usb.h **** {
  13:../../libdaisy/src/hid/usb.h **** /** 
  14:../../libdaisy/src/hid/usb.h ****     @brief Interface for initializing and using the USB Peripherals on the daisy
  15:../../libdaisy/src/hid/usb.h ****     @author Stephen Hensley
  16:../../libdaisy/src/hid/usb.h ****     @date December 2019
  17:../../libdaisy/src/hid/usb.h **** */
  18:../../libdaisy/src/hid/usb.h **** class UsbHandle
  19:../../libdaisy/src/hid/usb.h **** {
  20:../../libdaisy/src/hid/usb.h ****   public:
  21:../../libdaisy/src/hid/usb.h ****     /** Return values for USBHandle Functions */
  22:../../libdaisy/src/hid/usb.h ****     enum class Result
  23:../../libdaisy/src/hid/usb.h ****     {
  24:../../libdaisy/src/hid/usb.h ****         OK,
  25:../../libdaisy/src/hid/usb.h ****         ERR,
  26:../../libdaisy/src/hid/usb.h ****     };
  27:../../libdaisy/src/hid/usb.h **** 
  28:../../libdaisy/src/hid/usb.h ****     /** Specified which of the two USB Peripherals to initialize. */
  29:../../libdaisy/src/hid/usb.h ****     enum UsbPeriph
  30:../../libdaisy/src/hid/usb.h ****     {
  31:../../libdaisy/src/hid/usb.h ****         FS_INTERNAL, /**< Internal pin */
  32:../../libdaisy/src/hid/usb.h ****         FS_EXTERNAL, /**< FS External D+ pin is Pin 38 (GPIO32). FS External D- pin is Pin 37 (GPIO
  33:../../libdaisy/src/hid/usb.h ****         FS_BOTH,     /**< Both */
  34:../../libdaisy/src/hid/usb.h ****     };
  35:../../libdaisy/src/hid/usb.h **** 
  36:../../libdaisy/src/hid/usb.h **** 
  37:../../libdaisy/src/hid/usb.h ****     /** Function called upon reception of a buffer */
  38:../../libdaisy/src/hid/usb.h ****     typedef void (*ReceiveCallback)(uint8_t* buff, uint32_t* len);
  39:../../libdaisy/src/hid/usb.h **** 
  40:../../libdaisy/src/hid/usb.h ****     UsbHandle() {}
  41:../../libdaisy/src/hid/usb.h **** 
  42:../../libdaisy/src/hid/usb.h ****     ~UsbHandle() {}
 115              		.loc 11 42 5 is_stmt 1 view .LVU18
 116              		.loc 11 42 5 is_stmt 0 view .LVU19
 117              	.LBE4562:
 118              	.LBB4563:
 119              	.LBI4563:
 120              		.file 12 "../../libdaisy/src/per/adc.h"
   1:../../libdaisy/src/per/adc.h **** #pragma once
   2:../../libdaisy/src/per/adc.h **** #ifndef DSY_ADC_H
   3:../../libdaisy/src/per/adc.h **** #define DSY_ADC_H /**< Macro */
   4:../../libdaisy/src/per/adc.h **** #include <stdint.h>
ARM GAS  C:\Users\etpen\AppData\Local\Temp\ccmI6ini.s 			page 14


   5:../../libdaisy/src/per/adc.h **** #include <stdlib.h>
   6:../../libdaisy/src/per/adc.h **** #include "daisy_core.h"
   7:../../libdaisy/src/per/adc.h **** #include "per/gpio.h"
   8:../../libdaisy/src/per/adc.h **** 
   9:../../libdaisy/src/per/adc.h **** #define DSY_ADC_MAX_CHANNELS 16 /**< Maximum number of ADC channels */
  10:../../libdaisy/src/per/adc.h **** 
  11:../../libdaisy/src/per/adc.h **** namespace daisy
  12:../../libdaisy/src/per/adc.h **** {
  13:../../libdaisy/src/per/adc.h **** /** @addtogroup analog_digital_conversion
  14:../../libdaisy/src/per/adc.h ****     @{
  15:../../libdaisy/src/per/adc.h **** */
  16:../../libdaisy/src/per/adc.h **** 
  17:../../libdaisy/src/per/adc.h **** /* While there may not be many configuration options here,
  18:../../libdaisy/src/per/adc.h **** using a struct like this allows us to add more configuration
  19:../../libdaisy/src/per/adc.h **** later without breaking existing functionality.
  20:../../libdaisy/src/per/adc.h **** */
  21:../../libdaisy/src/per/adc.h **** 
  22:../../libdaisy/src/per/adc.h **** /** Configuration Structure for a given channel */
  23:../../libdaisy/src/per/adc.h **** struct AdcChannelConfig
  24:../../libdaisy/src/per/adc.h **** {
  25:../../libdaisy/src/per/adc.h ****     /** Which pin to use for multiplexing */
  26:../../libdaisy/src/per/adc.h ****     enum MuxPin
  27:../../libdaisy/src/per/adc.h ****     {
  28:../../libdaisy/src/per/adc.h ****         MUX_SEL_0,    /**< & */
  29:../../libdaisy/src/per/adc.h ****         MUX_SEL_1,    /**< & */
  30:../../libdaisy/src/per/adc.h ****         MUX_SEL_2,    /**< & */
  31:../../libdaisy/src/per/adc.h ****         MUX_SEL_LAST, /**< & */
  32:../../libdaisy/src/per/adc.h ****     };
  33:../../libdaisy/src/per/adc.h **** 
  34:../../libdaisy/src/per/adc.h ****     /** Initializes a single ADC pin as an ADC. 
  35:../../libdaisy/src/per/adc.h ****     \param pin Pin to init.
  36:../../libdaisy/src/per/adc.h ****      */
  37:../../libdaisy/src/per/adc.h ****     void InitSingle(dsy_gpio_pin pin);
  38:../../libdaisy/src/per/adc.h **** 
  39:../../libdaisy/src/per/adc.h ****     /** 
  40:../../libdaisy/src/per/adc.h ****     Initializes a single ADC pin as a Multiplexed ADC.
  41:../../libdaisy/src/per/adc.h ****     Requires a CD405X Multiplexer connected to the pin.
  42:../../libdaisy/src/per/adc.h ****     You only need to supply the mux pins that are required,
  43:../../libdaisy/src/per/adc.h ****     e.g. a 4052 mux would only require mux_0 and mux_1.
  44:../../libdaisy/src/per/adc.h ****     Internal Callbacks handle the pin addressing.
  45:../../libdaisy/src/per/adc.h ****     \param mux_channels must be 1-8
  46:../../libdaisy/src/per/adc.h ****     \param mux_0 First mux pin
  47:../../libdaisy/src/per/adc.h ****     \param mux_1 Second mux pin
  48:../../libdaisy/src/per/adc.h ****     \param mux_2 Third mux pin
  49:../../libdaisy/src/per/adc.h ****     \param adc_pin &
  50:../../libdaisy/src/per/adc.h ****     */
  51:../../libdaisy/src/per/adc.h ****     void InitMux(dsy_gpio_pin adc_pin,
  52:../../libdaisy/src/per/adc.h ****                  size_t       mux_channels,
  53:../../libdaisy/src/per/adc.h ****                  dsy_gpio_pin mux_0,
  54:../../libdaisy/src/per/adc.h ****                  dsy_gpio_pin mux_1 = {DSY_GPIOX, 0},
  55:../../libdaisy/src/per/adc.h ****                  dsy_gpio_pin mux_2 = {DSY_GPIOX, 0});
  56:../../libdaisy/src/per/adc.h **** 
  57:../../libdaisy/src/per/adc.h ****     dsy_gpio pin_;                   /**< & */
  58:../../libdaisy/src/per/adc.h ****     dsy_gpio mux_pin_[MUX_SEL_LAST]; /**< & */
  59:../../libdaisy/src/per/adc.h ****     uint8_t  mux_channels_;          /**< & */
  60:../../libdaisy/src/per/adc.h **** };
  61:../../libdaisy/src/per/adc.h **** 
ARM GAS  C:\Users\etpen\AppData\Local\Temp\ccmI6ini.s 			page 15


  62:../../libdaisy/src/per/adc.h **** /**
  63:../../libdaisy/src/per/adc.h ****    Handler for analog to digital conversion
  64:../../libdaisy/src/per/adc.h **** */
  65:../../libdaisy/src/per/adc.h **** class AdcHandle
  66:../../libdaisy/src/per/adc.h **** {
  67:../../libdaisy/src/per/adc.h ****   public:
  68:../../libdaisy/src/per/adc.h ****     /** Supported oversampling amounts */
  69:../../libdaisy/src/per/adc.h ****     enum OverSampling
  70:../../libdaisy/src/per/adc.h ****     {
  71:../../libdaisy/src/per/adc.h ****         OVS_NONE, /**< & */
  72:../../libdaisy/src/per/adc.h ****         OVS_4,    /**< & */
  73:../../libdaisy/src/per/adc.h ****         OVS_8,    /**< & */
  74:../../libdaisy/src/per/adc.h ****         OVS_16,   /**< & */
  75:../../libdaisy/src/per/adc.h ****         OVS_32,   /**< & */
  76:../../libdaisy/src/per/adc.h ****         OVS_64,   /**< & */
  77:../../libdaisy/src/per/adc.h ****         OVS_128,  /**< & */
  78:../../libdaisy/src/per/adc.h ****         OVS_256,  /**< & */
  79:../../libdaisy/src/per/adc.h ****         OVS_512,  /**< & */
  80:../../libdaisy/src/per/adc.h ****         OVS_1024, /**< & */
  81:../../libdaisy/src/per/adc.h ****         OVS_LAST, /**< & */
  82:../../libdaisy/src/per/adc.h ****     };
  83:../../libdaisy/src/per/adc.h **** 
  84:../../libdaisy/src/per/adc.h ****     AdcHandle() {}
  85:../../libdaisy/src/per/adc.h ****     ~AdcHandle() {}
 121              		.loc 12 85 5 is_stmt 1 view .LVU20
 122              		.loc 12 85 5 is_stmt 0 view .LVU21
 123              	.LBE4563:
 124              	.LBB4564:
 125              	.LBI4564:
 126              		.file 13 "../../libdaisy/src/hid/audio.h"
   1:../../libdaisy/src/hid/audio.h **** #ifndef DSY_AUDIO_H
   2:../../libdaisy/src/hid/audio.h **** #define DSY_AUDIO_H /**< & */
   3:../../libdaisy/src/hid/audio.h **** 
   4:../../libdaisy/src/hid/audio.h **** #include "per/sai.h"
   5:../../libdaisy/src/hid/audio.h **** 
   6:../../libdaisy/src/hid/audio.h **** namespace daisy
   7:../../libdaisy/src/hid/audio.h **** {
   8:../../libdaisy/src/hid/audio.h **** class AudioHandle
   9:../../libdaisy/src/hid/audio.h **** {
  10:../../libdaisy/src/hid/audio.h ****   public:
  11:../../libdaisy/src/hid/audio.h ****     /** Manually configurable details about the Audio Engine */
  12:../../libdaisy/src/hid/audio.h ****     /** TODO: Figure out how to get samplerate in here. */
  13:../../libdaisy/src/hid/audio.h ****     struct Config
  14:../../libdaisy/src/hid/audio.h ****     {
  15:../../libdaisy/src/hid/audio.h ****         size_t                        blocksize;
  16:../../libdaisy/src/hid/audio.h ****         SaiHandle::Config::SampleRate samplerate;
  17:../../libdaisy/src/hid/audio.h ****         float                         postgain;
  18:../../libdaisy/src/hid/audio.h ****     };
  19:../../libdaisy/src/hid/audio.h **** 
  20:../../libdaisy/src/hid/audio.h ****     enum class Result
  21:../../libdaisy/src/hid/audio.h ****     {
  22:../../libdaisy/src/hid/audio.h ****         OK,
  23:../../libdaisy/src/hid/audio.h ****         ERR,
  24:../../libdaisy/src/hid/audio.h ****     };
  25:../../libdaisy/src/hid/audio.h **** 
  26:../../libdaisy/src/hid/audio.h ****     /** Non-Interleaving input buffer
  27:../../libdaisy/src/hid/audio.h ****      * Buffer arranged by float[chn][sample] 
ARM GAS  C:\Users\etpen\AppData\Local\Temp\ccmI6ini.s 			page 16


  28:../../libdaisy/src/hid/audio.h ****      * const so that the user can't modify the input
  29:../../libdaisy/src/hid/audio.h ****     */
  30:../../libdaisy/src/hid/audio.h ****     typedef const float* const* InputBuffer;
  31:../../libdaisy/src/hid/audio.h **** 
  32:../../libdaisy/src/hid/audio.h ****     /** Non-Interleaving output buffer
  33:../../libdaisy/src/hid/audio.h ****      * Arranged by float[chn][sample] 
  34:../../libdaisy/src/hid/audio.h ****     */
  35:../../libdaisy/src/hid/audio.h ****     typedef float** OutputBuffer;
  36:../../libdaisy/src/hid/audio.h **** 
  37:../../libdaisy/src/hid/audio.h ****     /** Type for a Non-Interleaving audio callback 
  38:../../libdaisy/src/hid/audio.h ****    * Non-Interleaving audio callbacks in daisy will be of this type
  39:../../libdaisy/src/hid/audio.h ****   */
  40:../../libdaisy/src/hid/audio.h ****     typedef void (*AudioCallback)(InputBuffer  in,
  41:../../libdaisy/src/hid/audio.h ****                                   OutputBuffer out,
  42:../../libdaisy/src/hid/audio.h ****                                   size_t       size);
  43:../../libdaisy/src/hid/audio.h **** 
  44:../../libdaisy/src/hid/audio.h ****     /** Interleaving Input buffer
  45:../../libdaisy/src/hid/audio.h ****      ** audio is prepared as { L0, R0, L1, R1, . . . LN, RN }]
  46:../../libdaisy/src/hid/audio.h ****      ** this is const, as the user shouldn't modify it
  47:../../libdaisy/src/hid/audio.h ****     */
  48:../../libdaisy/src/hid/audio.h ****     typedef const float* InterleavingInputBuffer;
  49:../../libdaisy/src/hid/audio.h **** 
  50:../../libdaisy/src/hid/audio.h ****     /** Interleaving Output buffer 
  51:../../libdaisy/src/hid/audio.h ****      ** audio is prepared as { L0, R0, L1, R1, . . . LN, RN }
  52:../../libdaisy/src/hid/audio.h ****     */
  53:../../libdaisy/src/hid/audio.h ****     typedef float* InterleavingOutputBuffer;
  54:../../libdaisy/src/hid/audio.h **** 
  55:../../libdaisy/src/hid/audio.h ****     /** Interleaving Audio Callback 
  56:../../libdaisy/src/hid/audio.h ****    * Interleaving audio callbacks in daisy must be of this type
  57:../../libdaisy/src/hid/audio.h ****   */
  58:../../libdaisy/src/hid/audio.h ****     typedef void (*InterleavingAudioCallback)(InterleavingInputBuffer  in,
  59:../../libdaisy/src/hid/audio.h ****                                               InterleavingOutputBuffer out,
  60:../../libdaisy/src/hid/audio.h ****                                               size_t                   size);
  61:../../libdaisy/src/hid/audio.h **** 
  62:../../libdaisy/src/hid/audio.h ****     AudioHandle() : pimpl_(nullptr) {}
  63:../../libdaisy/src/hid/audio.h ****     ~AudioHandle() {}
 127              		.loc 13 63 5 is_stmt 1 view .LVU22
 128              		.loc 13 63 5 is_stmt 0 view .LVU23
 129              	.LBE4564:
 130              	.LBE4560:
 131              		.loc 3 41 20 view .LVU24
 132 0000 7047     		bx	lr
 133              		.cfi_endproc
 134              	.LFE4414:
 136              		.weak	_ZN5daisy10DaisyPatchD1Ev
 137              		.thumb_set _ZN5daisy10DaisyPatchD1Ev,_ZN5daisy10DaisyPatchD2Ev
 138 0002 00BF     		.section	.text._ZN5daisy11OledDisplayINS_13SSD130xDriverILj128ELj64ENS_24SSD130x4WireSpiTransportE
 139              		.align	1
 140              		.p2align 2,,3
 141              		.weak	_ZN5daisy11OledDisplayINS_13SSD130xDriverILj128ELj64ENS_24SSD130x4WireSpiTransportEEEED2Ev
 142              		.syntax unified
 143              		.thumb
 144              		.thumb_func
 145              		.fpu fpv5-d16
 147              	_ZN5daisy11OledDisplayINS_13SSD130xDriverILj128ELj64ENS_24SSD130x4WireSpiTransportEEEED2Ev:
 148              	.LVL2:
 149              	.LFB5447:
ARM GAS  C:\Users\etpen\AppData\Local\Temp\ccmI6ini.s 			page 17


 150              		.loc 4 17 13 is_stmt 1 view -0
 151              		.cfi_startproc
 152              		@ args = 0, pretend = 0, frame = 0
 153              		@ frame_needed = 0, uses_anonymous_args = 0
 154              		@ link register save eliminated.
 155              	.LBB4565:
 156              	.LBI4565:
 157              		.loc 5 219 13 view .LVU26
 158              	.LBB4566:
 159              	.LBI4566:
  23:../../libdaisy/src/hid/disp/display.h **** 
 160              		.loc 5 23 13 view .LVU27
  23:../../libdaisy/src/hid/disp/display.h **** 
 161              		.loc 5 23 13 is_stmt 0 view .LVU28
 162              	.LBE4566:
 163              	.LBE4565:
 164              		.loc 4 17 29 view .LVU29
 165 0000 7047     		bx	lr
 166              		.cfi_endproc
 167              	.LFE5447:
 169              		.weak	_ZN5daisy11OledDisplayINS_13SSD130xDriverILj128ELj64ENS_24SSD130x4WireSpiTransportEEEED1Ev
 170              		.thumb_set _ZN5daisy11OledDisplayINS_13SSD130xDriverILj128ELj64ENS_24SSD130x4WireSpiTransportEEEED
 171 0002 00BF     		.section	.text._ZN5daisy11OledDisplayINS_13SSD130xDriverILj128ELj64ENS_24SSD130x4WireSpiTransportE
 172              		.align	1
 173              		.p2align 2,,3
 174              		.weak	_ZN5daisy11OledDisplayINS_13SSD130xDriverILj128ELj64ENS_24SSD130x4WireSpiTransportEEEE4FillE
 175              		.syntax unified
 176              		.thumb
 177              		.thumb_func
 178              		.fpu fpv5-d16
 180              	_ZN5daisy11OledDisplayINS_13SSD130xDriverILj128ELj64ENS_24SSD130x4WireSpiTransportEEEE4FillEb:
 181              	.LVL3:
 182              	.LFB5536:
  18:../../libdaisy/src/hid/disp/oled_display.h **** 
  19:../../libdaisy/src/hid/disp/oled_display.h ****     struct Config
  20:../../libdaisy/src/hid/disp/oled_display.h ****     {
  21:../../libdaisy/src/hid/disp/oled_display.h ****         typename DisplayDriver::Config driver_config;
  22:../../libdaisy/src/hid/disp/oled_display.h ****     };
  23:../../libdaisy/src/hid/disp/oled_display.h **** 
  24:../../libdaisy/src/hid/disp/oled_display.h ****     void Init(Config config) { driver_.Init(config.driver_config); }
  25:../../libdaisy/src/hid/disp/oled_display.h **** 
  26:../../libdaisy/src/hid/disp/oled_display.h ****     uint16_t Height() const override { return driver_.Height(); }
  27:../../libdaisy/src/hid/disp/oled_display.h ****     uint16_t Width() const override { return driver_.Width(); }
  28:../../libdaisy/src/hid/disp/oled_display.h **** 
  29:../../libdaisy/src/hid/disp/oled_display.h ****     /** 
  30:../../libdaisy/src/hid/disp/oled_display.h ****     Fills the entire display with either on/off.
  31:../../libdaisy/src/hid/disp/oled_display.h ****     \param on Sets on or off.
  32:../../libdaisy/src/hid/disp/oled_display.h ****     */
  33:../../libdaisy/src/hid/disp/oled_display.h ****     void Fill(bool on) override { driver_.Fill(on); }
 183              		.loc 4 33 10 is_stmt 1 view -0
 184              		.cfi_startproc
 185              		@ args = 0, pretend = 0, frame = 0
 186              		@ frame_needed = 0, uses_anonymous_args = 0
 187              		@ link register save eliminated.
 188              	.LBB4567:
 189              	.LBI4567:
 190              		.file 14 "../../libdaisy/src/dev/oled_ssd130x.h"
ARM GAS  C:\Users\etpen\AppData\Local\Temp\ccmI6ini.s 			page 18


   1:../../libdaisy/src/dev/oled_ssd130x.h **** #pragma once
   2:../../libdaisy/src/dev/oled_ssd130x.h **** #ifndef SA_OLED_SSD130X_H
   3:../../libdaisy/src/dev/oled_ssd130x.h **** #define SA_OLED_SSD130X_H /**< & */
   4:../../libdaisy/src/dev/oled_ssd130x.h **** 
   5:../../libdaisy/src/dev/oled_ssd130x.h **** #include "per/i2c.h"
   6:../../libdaisy/src/dev/oled_ssd130x.h **** #include "per/spi.h"
   7:../../libdaisy/src/dev/oled_ssd130x.h **** #include "per/gpio.h"
   8:../../libdaisy/src/dev/oled_ssd130x.h **** #include "sys/system.h"
   9:../../libdaisy/src/dev/oled_ssd130x.h **** 
  10:../../libdaisy/src/dev/oled_ssd130x.h **** namespace daisy
  11:../../libdaisy/src/dev/oled_ssd130x.h **** {
  12:../../libdaisy/src/dev/oled_ssd130x.h **** /**
  13:../../libdaisy/src/dev/oled_ssd130x.h ****  * I2C Transport for SSD1306 / SSD1309 OLED display devices
  14:../../libdaisy/src/dev/oled_ssd130x.h ****  */
  15:../../libdaisy/src/dev/oled_ssd130x.h **** class SSD130xI2CTransport
  16:../../libdaisy/src/dev/oled_ssd130x.h **** {
  17:../../libdaisy/src/dev/oled_ssd130x.h ****   public:
  18:../../libdaisy/src/dev/oled_ssd130x.h ****     struct Config
  19:../../libdaisy/src/dev/oled_ssd130x.h ****     {
  20:../../libdaisy/src/dev/oled_ssd130x.h ****         I2CHandle::Config i2c_config;
  21:../../libdaisy/src/dev/oled_ssd130x.h ****         uint8_t           i2c_address;
  22:../../libdaisy/src/dev/oled_ssd130x.h ****         void              Defaults()
  23:../../libdaisy/src/dev/oled_ssd130x.h ****         {
  24:../../libdaisy/src/dev/oled_ssd130x.h ****             i2c_config.periph         = I2CHandle::Config::Peripheral::I2C_1;
  25:../../libdaisy/src/dev/oled_ssd130x.h ****             i2c_config.speed          = I2CHandle::Config::Speed::I2C_1MHZ;
  26:../../libdaisy/src/dev/oled_ssd130x.h ****             i2c_config.mode           = I2CHandle::Config::Mode::I2C_MASTER;
  27:../../libdaisy/src/dev/oled_ssd130x.h ****             i2c_config.pin_config.scl = {DSY_GPIOB, 8};
  28:../../libdaisy/src/dev/oled_ssd130x.h ****             i2c_config.pin_config.sda = {DSY_GPIOB, 9};
  29:../../libdaisy/src/dev/oled_ssd130x.h ****             i2c_address               = 0x3C;
  30:../../libdaisy/src/dev/oled_ssd130x.h ****         }
  31:../../libdaisy/src/dev/oled_ssd130x.h ****     };
  32:../../libdaisy/src/dev/oled_ssd130x.h ****     void Init(const Config& config)
  33:../../libdaisy/src/dev/oled_ssd130x.h ****     {
  34:../../libdaisy/src/dev/oled_ssd130x.h ****         i2c_address_ = config.i2c_address;
  35:../../libdaisy/src/dev/oled_ssd130x.h ****         i2c_.Init(config.i2c_config);
  36:../../libdaisy/src/dev/oled_ssd130x.h ****     };
  37:../../libdaisy/src/dev/oled_ssd130x.h ****     void SendCommand(uint8_t cmd)
  38:../../libdaisy/src/dev/oled_ssd130x.h ****     {
  39:../../libdaisy/src/dev/oled_ssd130x.h ****         uint8_t buf[2] = {0X00, cmd};
  40:../../libdaisy/src/dev/oled_ssd130x.h ****         i2c_.TransmitBlocking(i2c_address_, buf, 2, 1000);
  41:../../libdaisy/src/dev/oled_ssd130x.h ****     };
  42:../../libdaisy/src/dev/oled_ssd130x.h **** 
  43:../../libdaisy/src/dev/oled_ssd130x.h ****     void SendData(uint8_t* buff, size_t size)
  44:../../libdaisy/src/dev/oled_ssd130x.h ****     {
  45:../../libdaisy/src/dev/oled_ssd130x.h ****         for(size_t i = 0; i < size; i++)
  46:../../libdaisy/src/dev/oled_ssd130x.h ****         {
  47:../../libdaisy/src/dev/oled_ssd130x.h ****             uint8_t buf[2] = {0X40, buff[i]};
  48:../../libdaisy/src/dev/oled_ssd130x.h ****             i2c_.TransmitBlocking(i2c_address_, buf, 2, 1000);
  49:../../libdaisy/src/dev/oled_ssd130x.h ****         }
  50:../../libdaisy/src/dev/oled_ssd130x.h ****     };
  51:../../libdaisy/src/dev/oled_ssd130x.h **** 
  52:../../libdaisy/src/dev/oled_ssd130x.h ****   private:
  53:../../libdaisy/src/dev/oled_ssd130x.h ****     daisy::I2CHandle i2c_;
  54:../../libdaisy/src/dev/oled_ssd130x.h ****     uint8_t          i2c_address_;
  55:../../libdaisy/src/dev/oled_ssd130x.h **** };
  56:../../libdaisy/src/dev/oled_ssd130x.h **** 
  57:../../libdaisy/src/dev/oled_ssd130x.h **** /**
ARM GAS  C:\Users\etpen\AppData\Local\Temp\ccmI6ini.s 			page 19


  58:../../libdaisy/src/dev/oled_ssd130x.h ****  * 4 Wire SPI Transport for SSD1306 / SSD1309 OLED display devices
  59:../../libdaisy/src/dev/oled_ssd130x.h ****  */
  60:../../libdaisy/src/dev/oled_ssd130x.h **** class SSD130x4WireSpiTransport
  61:../../libdaisy/src/dev/oled_ssd130x.h **** {
  62:../../libdaisy/src/dev/oled_ssd130x.h ****   public:
  63:../../libdaisy/src/dev/oled_ssd130x.h ****     struct Config
  64:../../libdaisy/src/dev/oled_ssd130x.h ****     {
  65:../../libdaisy/src/dev/oled_ssd130x.h ****         struct
  66:../../libdaisy/src/dev/oled_ssd130x.h ****         {
  67:../../libdaisy/src/dev/oled_ssd130x.h ****             dsy_gpio_pin dc;    /**< & */
  68:../../libdaisy/src/dev/oled_ssd130x.h ****             dsy_gpio_pin reset; /**< & */
  69:../../libdaisy/src/dev/oled_ssd130x.h ****         } pin_config;
  70:../../libdaisy/src/dev/oled_ssd130x.h ****         void Defaults()
  71:../../libdaisy/src/dev/oled_ssd130x.h ****         {
  72:../../libdaisy/src/dev/oled_ssd130x.h ****             pin_config.dc    = {DSY_GPIOB, 4};
  73:../../libdaisy/src/dev/oled_ssd130x.h ****             pin_config.reset = {DSY_GPIOB, 15};
  74:../../libdaisy/src/dev/oled_ssd130x.h ****         }
  75:../../libdaisy/src/dev/oled_ssd130x.h ****     };
  76:../../libdaisy/src/dev/oled_ssd130x.h ****     void Init(const Config& config)
  77:../../libdaisy/src/dev/oled_ssd130x.h ****     {
  78:../../libdaisy/src/dev/oled_ssd130x.h ****         // Initialize both GPIO
  79:../../libdaisy/src/dev/oled_ssd130x.h ****         pin_dc_.mode = DSY_GPIO_MODE_OUTPUT_PP;
  80:../../libdaisy/src/dev/oled_ssd130x.h ****         pin_dc_.pin  = config.pin_config.dc;
  81:../../libdaisy/src/dev/oled_ssd130x.h ****         dsy_gpio_init(&pin_dc_);
  82:../../libdaisy/src/dev/oled_ssd130x.h ****         pin_reset_.mode = DSY_GPIO_MODE_OUTPUT_PP;
  83:../../libdaisy/src/dev/oled_ssd130x.h ****         pin_reset_.pin  = config.pin_config.reset;
  84:../../libdaisy/src/dev/oled_ssd130x.h ****         dsy_gpio_init(&pin_reset_);
  85:../../libdaisy/src/dev/oled_ssd130x.h ****         // Initialize SPI
  86:../../libdaisy/src/dev/oled_ssd130x.h ****         SpiHandle::Config spi_config;
  87:../../libdaisy/src/dev/oled_ssd130x.h ****         spi_config.periph    = SpiHandle::Config::Peripheral::SPI_1;
  88:../../libdaisy/src/dev/oled_ssd130x.h ****         spi_config.mode      = SpiHandle::Config::Mode::MASTER;
  89:../../libdaisy/src/dev/oled_ssd130x.h ****         spi_config.direction = SpiHandle::Config::Direction::TWO_LINES_TX_ONLY;
  90:../../libdaisy/src/dev/oled_ssd130x.h ****         spi_config.datasize  = 8;
  91:../../libdaisy/src/dev/oled_ssd130x.h ****         spi_config.clock_polarity = SpiHandle::Config::ClockPolarity::LOW;
  92:../../libdaisy/src/dev/oled_ssd130x.h ****         spi_config.clock_phase    = SpiHandle::Config::ClockPhase::ONE_EDGE;
  93:../../libdaisy/src/dev/oled_ssd130x.h ****         spi_config.nss            = SpiHandle::Config::NSS::HARD_OUTPUT;
  94:../../libdaisy/src/dev/oled_ssd130x.h ****         spi_config.baud_prescaler = SpiHandle::Config::BaudPrescaler::PS_8;
  95:../../libdaisy/src/dev/oled_ssd130x.h **** 
  96:../../libdaisy/src/dev/oled_ssd130x.h ****         spi_config.pin_config.sclk = {DSY_GPIOG, 11};
  97:../../libdaisy/src/dev/oled_ssd130x.h ****         spi_config.pin_config.miso = {DSY_GPIOX, 0};
  98:../../libdaisy/src/dev/oled_ssd130x.h ****         spi_config.pin_config.mosi = {DSY_GPIOB, 5};
  99:../../libdaisy/src/dev/oled_ssd130x.h ****         spi_config.pin_config.nss  = {DSY_GPIOG, 10};
 100:../../libdaisy/src/dev/oled_ssd130x.h **** 
 101:../../libdaisy/src/dev/oled_ssd130x.h ****         spi_.Init(spi_config);
 102:../../libdaisy/src/dev/oled_ssd130x.h **** 
 103:../../libdaisy/src/dev/oled_ssd130x.h ****         // Reset and Configure OLED.
 104:../../libdaisy/src/dev/oled_ssd130x.h ****         dsy_gpio_write(&pin_reset_, 0);
 105:../../libdaisy/src/dev/oled_ssd130x.h ****         System::Delay(10);
 106:../../libdaisy/src/dev/oled_ssd130x.h ****         dsy_gpio_write(&pin_reset_, 1);
 107:../../libdaisy/src/dev/oled_ssd130x.h ****         System::Delay(10);
 108:../../libdaisy/src/dev/oled_ssd130x.h ****     };
 109:../../libdaisy/src/dev/oled_ssd130x.h ****     void SendCommand(uint8_t cmd)
 110:../../libdaisy/src/dev/oled_ssd130x.h ****     {
 111:../../libdaisy/src/dev/oled_ssd130x.h ****         dsy_gpio_write(&pin_dc_, 0);
 112:../../libdaisy/src/dev/oled_ssd130x.h ****         spi_.BlockingTransmit(&cmd, 1);
 113:../../libdaisy/src/dev/oled_ssd130x.h ****     };
 114:../../libdaisy/src/dev/oled_ssd130x.h **** 
ARM GAS  C:\Users\etpen\AppData\Local\Temp\ccmI6ini.s 			page 20


 115:../../libdaisy/src/dev/oled_ssd130x.h ****     void SendData(uint8_t* buff, size_t size)
 116:../../libdaisy/src/dev/oled_ssd130x.h ****     {
 117:../../libdaisy/src/dev/oled_ssd130x.h ****         dsy_gpio_write(&pin_dc_, 1);
 118:../../libdaisy/src/dev/oled_ssd130x.h ****         spi_.BlockingTransmit(buff, size);
 119:../../libdaisy/src/dev/oled_ssd130x.h ****     };
 120:../../libdaisy/src/dev/oled_ssd130x.h **** 
 121:../../libdaisy/src/dev/oled_ssd130x.h ****   private:
 122:../../libdaisy/src/dev/oled_ssd130x.h ****     SpiHandle spi_;
 123:../../libdaisy/src/dev/oled_ssd130x.h ****     dsy_gpio  pin_reset_;
 124:../../libdaisy/src/dev/oled_ssd130x.h ****     dsy_gpio  pin_dc_;
 125:../../libdaisy/src/dev/oled_ssd130x.h **** };
 126:../../libdaisy/src/dev/oled_ssd130x.h **** 
 127:../../libdaisy/src/dev/oled_ssd130x.h **** 
 128:../../libdaisy/src/dev/oled_ssd130x.h **** /**
 129:../../libdaisy/src/dev/oled_ssd130x.h ****  * A driver implementation for the SSD1306/SSD1309
 130:../../libdaisy/src/dev/oled_ssd130x.h ****  */
 131:../../libdaisy/src/dev/oled_ssd130x.h **** template <size_t width, size_t height, typename Transport>
 132:../../libdaisy/src/dev/oled_ssd130x.h **** class SSD130xDriver
 133:../../libdaisy/src/dev/oled_ssd130x.h **** {
 134:../../libdaisy/src/dev/oled_ssd130x.h ****   public:
 135:../../libdaisy/src/dev/oled_ssd130x.h ****     struct Config
 136:../../libdaisy/src/dev/oled_ssd130x.h ****     {
 137:../../libdaisy/src/dev/oled_ssd130x.h ****         typename Transport::Config transport_config;
 138:../../libdaisy/src/dev/oled_ssd130x.h ****     };
 139:../../libdaisy/src/dev/oled_ssd130x.h **** 
 140:../../libdaisy/src/dev/oled_ssd130x.h ****     void Init(Config config)
 141:../../libdaisy/src/dev/oled_ssd130x.h ****     {
 142:../../libdaisy/src/dev/oled_ssd130x.h ****         transport_.Init(config.transport_config);
 143:../../libdaisy/src/dev/oled_ssd130x.h **** 
 144:../../libdaisy/src/dev/oled_ssd130x.h ****         // Init routine...
 145:../../libdaisy/src/dev/oled_ssd130x.h **** 
 146:../../libdaisy/src/dev/oled_ssd130x.h ****         // Display Off
 147:../../libdaisy/src/dev/oled_ssd130x.h ****         transport_.SendCommand(0xaE);
 148:../../libdaisy/src/dev/oled_ssd130x.h ****         // Dimension dependent commands...
 149:../../libdaisy/src/dev/oled_ssd130x.h ****         switch(height)
 150:../../libdaisy/src/dev/oled_ssd130x.h ****         {
 151:../../libdaisy/src/dev/oled_ssd130x.h ****             case 16:
 152:../../libdaisy/src/dev/oled_ssd130x.h ****                 // Display Clock Divide Ratio
 153:../../libdaisy/src/dev/oled_ssd130x.h ****                 transport_.SendCommand(0xD5);
 154:../../libdaisy/src/dev/oled_ssd130x.h ****                 transport_.SendCommand(0x60);
 155:../../libdaisy/src/dev/oled_ssd130x.h ****                 // Multiplex Ratio
 156:../../libdaisy/src/dev/oled_ssd130x.h ****                 transport_.SendCommand(0xA8);
 157:../../libdaisy/src/dev/oled_ssd130x.h ****                 transport_.SendCommand(0x0F);
 158:../../libdaisy/src/dev/oled_ssd130x.h ****                 // COM Pins
 159:../../libdaisy/src/dev/oled_ssd130x.h ****                 transport_.SendCommand(0xDA);
 160:../../libdaisy/src/dev/oled_ssd130x.h ****                 transport_.SendCommand(0x02);
 161:../../libdaisy/src/dev/oled_ssd130x.h ****                 break;
 162:../../libdaisy/src/dev/oled_ssd130x.h ****             case 32:
 163:../../libdaisy/src/dev/oled_ssd130x.h ****                 // Display Clock Divide Ratio
 164:../../libdaisy/src/dev/oled_ssd130x.h ****                 transport_.SendCommand(0xD5);
 165:../../libdaisy/src/dev/oled_ssd130x.h ****                 transport_.SendCommand(0x80);
 166:../../libdaisy/src/dev/oled_ssd130x.h ****                 // Multiplex Ratio
 167:../../libdaisy/src/dev/oled_ssd130x.h ****                 transport_.SendCommand(0xA8);
 168:../../libdaisy/src/dev/oled_ssd130x.h ****                 transport_.SendCommand(0x1F);
 169:../../libdaisy/src/dev/oled_ssd130x.h ****                 // COM Pins
 170:../../libdaisy/src/dev/oled_ssd130x.h ****                 transport_.SendCommand(0xDA);
 171:../../libdaisy/src/dev/oled_ssd130x.h ****                 if(width == 64)
ARM GAS  C:\Users\etpen\AppData\Local\Temp\ccmI6ini.s 			page 21


 172:../../libdaisy/src/dev/oled_ssd130x.h ****                 {
 173:../../libdaisy/src/dev/oled_ssd130x.h ****                     transport_.SendCommand(0x12);
 174:../../libdaisy/src/dev/oled_ssd130x.h ****                 }
 175:../../libdaisy/src/dev/oled_ssd130x.h ****                 else
 176:../../libdaisy/src/dev/oled_ssd130x.h ****                 {
 177:../../libdaisy/src/dev/oled_ssd130x.h ****                     transport_.SendCommand(0x02);
 178:../../libdaisy/src/dev/oled_ssd130x.h ****                 }
 179:../../libdaisy/src/dev/oled_ssd130x.h **** 
 180:../../libdaisy/src/dev/oled_ssd130x.h ****                 break;
 181:../../libdaisy/src/dev/oled_ssd130x.h ****             case 48:
 182:../../libdaisy/src/dev/oled_ssd130x.h ****                 // Display Clock Divide Ratio
 183:../../libdaisy/src/dev/oled_ssd130x.h ****                 transport_.SendCommand(0xD5);
 184:../../libdaisy/src/dev/oled_ssd130x.h ****                 transport_.SendCommand(0x80);
 185:../../libdaisy/src/dev/oled_ssd130x.h ****                 // Multiplex Ratio
 186:../../libdaisy/src/dev/oled_ssd130x.h ****                 transport_.SendCommand(0xA8);
 187:../../libdaisy/src/dev/oled_ssd130x.h ****                 transport_.SendCommand(0x2F);
 188:../../libdaisy/src/dev/oled_ssd130x.h ****                 // COM Pins
 189:../../libdaisy/src/dev/oled_ssd130x.h ****                 transport_.SendCommand(0xDA);
 190:../../libdaisy/src/dev/oled_ssd130x.h ****                 transport_.SendCommand(0x12);
 191:../../libdaisy/src/dev/oled_ssd130x.h ****                 break;
 192:../../libdaisy/src/dev/oled_ssd130x.h ****             default: // 128
 193:../../libdaisy/src/dev/oled_ssd130x.h ****                 // Display Clock Divide Ratio
 194:../../libdaisy/src/dev/oled_ssd130x.h ****                 transport_.SendCommand(0xD5);
 195:../../libdaisy/src/dev/oled_ssd130x.h ****                 transport_.SendCommand(0x80);
 196:../../libdaisy/src/dev/oled_ssd130x.h ****                 // Multiplex Ratio
 197:../../libdaisy/src/dev/oled_ssd130x.h ****                 transport_.SendCommand(0xA8);
 198:../../libdaisy/src/dev/oled_ssd130x.h ****                 transport_.SendCommand(0x3F);
 199:../../libdaisy/src/dev/oled_ssd130x.h ****                 // COM Pins
 200:../../libdaisy/src/dev/oled_ssd130x.h ****                 transport_.SendCommand(0xDA);
 201:../../libdaisy/src/dev/oled_ssd130x.h ****                 transport_.SendCommand(0x12);
 202:../../libdaisy/src/dev/oled_ssd130x.h ****                 break;
 203:../../libdaisy/src/dev/oled_ssd130x.h ****         }
 204:../../libdaisy/src/dev/oled_ssd130x.h **** 
 205:../../libdaisy/src/dev/oled_ssd130x.h ****         // Display Offset
 206:../../libdaisy/src/dev/oled_ssd130x.h ****         transport_.SendCommand(0xD3);
 207:../../libdaisy/src/dev/oled_ssd130x.h ****         transport_.SendCommand(0x00);
 208:../../libdaisy/src/dev/oled_ssd130x.h ****         // Start Line Address
 209:../../libdaisy/src/dev/oled_ssd130x.h ****         transport_.SendCommand(0x40);
 210:../../libdaisy/src/dev/oled_ssd130x.h ****         // Normal Display
 211:../../libdaisy/src/dev/oled_ssd130x.h ****         transport_.SendCommand(0xA6);
 212:../../libdaisy/src/dev/oled_ssd130x.h ****         // All On Resume
 213:../../libdaisy/src/dev/oled_ssd130x.h ****         transport_.SendCommand(0xA4);
 214:../../libdaisy/src/dev/oled_ssd130x.h ****         // Charge Pump
 215:../../libdaisy/src/dev/oled_ssd130x.h ****         transport_.SendCommand(0x8D);
 216:../../libdaisy/src/dev/oled_ssd130x.h ****         transport_.SendCommand(0x14);
 217:../../libdaisy/src/dev/oled_ssd130x.h ****         // Set Segment Remap
 218:../../libdaisy/src/dev/oled_ssd130x.h ****         transport_.SendCommand(0xA1);
 219:../../libdaisy/src/dev/oled_ssd130x.h ****         // COM Output Scan Direction
 220:../../libdaisy/src/dev/oled_ssd130x.h ****         transport_.SendCommand(0xC8);
 221:../../libdaisy/src/dev/oled_ssd130x.h ****         // Contrast Control
 222:../../libdaisy/src/dev/oled_ssd130x.h ****         transport_.SendCommand(0x81);
 223:../../libdaisy/src/dev/oled_ssd130x.h ****         transport_.SendCommand(0x8F);
 224:../../libdaisy/src/dev/oled_ssd130x.h ****         // Pre Charge
 225:../../libdaisy/src/dev/oled_ssd130x.h ****         transport_.SendCommand(0xD9);
 226:../../libdaisy/src/dev/oled_ssd130x.h ****         transport_.SendCommand(0x25);
 227:../../libdaisy/src/dev/oled_ssd130x.h ****         // VCOM Detect
 228:../../libdaisy/src/dev/oled_ssd130x.h ****         transport_.SendCommand(0xDB);
ARM GAS  C:\Users\etpen\AppData\Local\Temp\ccmI6ini.s 			page 22


 229:../../libdaisy/src/dev/oled_ssd130x.h ****         transport_.SendCommand(0x34);
 230:../../libdaisy/src/dev/oled_ssd130x.h **** 
 231:../../libdaisy/src/dev/oled_ssd130x.h **** 
 232:../../libdaisy/src/dev/oled_ssd130x.h ****         // Display On
 233:../../libdaisy/src/dev/oled_ssd130x.h ****         transport_.SendCommand(0xAF); //--turn on oled panel
 234:../../libdaisy/src/dev/oled_ssd130x.h ****     };
 235:../../libdaisy/src/dev/oled_ssd130x.h **** 
 236:../../libdaisy/src/dev/oled_ssd130x.h ****     size_t Width() const { return width; };
 237:../../libdaisy/src/dev/oled_ssd130x.h ****     size_t Height() const { return height; };
 238:../../libdaisy/src/dev/oled_ssd130x.h **** 
 239:../../libdaisy/src/dev/oled_ssd130x.h ****     void DrawPixel(uint_fast8_t x, uint_fast8_t y, bool on)
 240:../../libdaisy/src/dev/oled_ssd130x.h ****     {
 241:../../libdaisy/src/dev/oled_ssd130x.h ****         if(x >= width || y >= height)
 242:../../libdaisy/src/dev/oled_ssd130x.h ****             return;
 243:../../libdaisy/src/dev/oled_ssd130x.h ****         if(on)
 244:../../libdaisy/src/dev/oled_ssd130x.h ****             buffer_[x + (y / 8) * width] |= (1 << (y % 8));
 245:../../libdaisy/src/dev/oled_ssd130x.h ****         else
 246:../../libdaisy/src/dev/oled_ssd130x.h ****             buffer_[x + (y / 8) * width] &= ~(1 << (y % 8));
 247:../../libdaisy/src/dev/oled_ssd130x.h ****     }
 248:../../libdaisy/src/dev/oled_ssd130x.h **** 
 249:../../libdaisy/src/dev/oled_ssd130x.h ****     void Fill(bool on)
 191              		.loc 14 249 10 view .LVU31
 192              	.LBB4568:
 250:../../libdaisy/src/dev/oled_ssd130x.h ****     {
 251:../../libdaisy/src/dev/oled_ssd130x.h ****         for(size_t i = 0; i < sizeof(buffer_); i++)
 193              		.loc 14 251 29 view .LVU32
 252:../../libdaisy/src/dev/oled_ssd130x.h ****         {
 253:../../libdaisy/src/dev/oled_ssd130x.h ****             buffer_[i] = on ? 0xff : 0x00;
 194              		.loc 14 253 24 is_stmt 0 view .LVU33
 195 0000 4942     		rsbs	r1, r1, #0
 196              	.LVL4:
 197              		.loc 14 253 24 view .LVU34
 198 0002 4FF48062 		mov	r2, #1024
 199 0006 1430     		adds	r0, r0, #20
 200              	.LVL5:
 201              		.loc 14 253 24 view .LVU35
 202 0008 C9B2     		uxtb	r1, r1
 203 000a FFF7FEBF 		b	memset
 204              	.LVL6:
 205              		.loc 14 253 24 view .LVU36
 206              	.LBE4568:
 207              	.LBE4567:
 208              		.cfi_endproc
 209              	.LFE5536:
 211 000e 00BF     		.section	.text._ZNSt17_Function_handlerIFvvEPS0_E9_M_invokeERKSt9_Any_data,"axG",%progbits,_ZNSt17
 212              		.align	1
 213              		.p2align 2,,3
 214              		.weak	_ZNSt17_Function_handlerIFvvEPS0_E9_M_invokeERKSt9_Any_data
 215              		.syntax unified
 216              		.thumb
 217              		.thumb_func
 218              		.fpu fpv5-d16
 220              	_ZNSt17_Function_handlerIFvvEPS0_E9_M_invokeERKSt9_Any_data:
 221              	.LVL7:
 222              	.LFB5737:
 223              		.file 15 "e:\\daisy\\daisytoolchain-0.3.1\\windows\\arm-none-eabi\\include\\c++\\10.2.1\\bits\\std
   1:e:\daisy\daisytoolchain-0.3.1\windows\arm-none-eabi\include\c++\10.2.1\bits\std_function.h **** // Implementation of std::function -*- C++ -*-
ARM GAS  C:\Users\etpen\AppData\Local\Temp\ccmI6ini.s 			page 23


   2:e:\daisy\daisytoolchain-0.3.1\windows\arm-none-eabi\include\c++\10.2.1\bits\std_function.h **** 
   3:e:\daisy\daisytoolchain-0.3.1\windows\arm-none-eabi\include\c++\10.2.1\bits\std_function.h **** // Copyright (C) 2004-2020 Free Software Foundation, Inc.
   4:e:\daisy\daisytoolchain-0.3.1\windows\arm-none-eabi\include\c++\10.2.1\bits\std_function.h **** //
   5:e:\daisy\daisytoolchain-0.3.1\windows\arm-none-eabi\include\c++\10.2.1\bits\std_function.h **** // This file is part of the GNU ISO C++ Library.  This library is free
   6:e:\daisy\daisytoolchain-0.3.1\windows\arm-none-eabi\include\c++\10.2.1\bits\std_function.h **** // software; you can redistribute it and/or modify it under the
   7:e:\daisy\daisytoolchain-0.3.1\windows\arm-none-eabi\include\c++\10.2.1\bits\std_function.h **** // terms of the GNU General Public License as published by the
   8:e:\daisy\daisytoolchain-0.3.1\windows\arm-none-eabi\include\c++\10.2.1\bits\std_function.h **** // Free Software Foundation; either version 3, or (at your option)
   9:e:\daisy\daisytoolchain-0.3.1\windows\arm-none-eabi\include\c++\10.2.1\bits\std_function.h **** // any later version.
  10:e:\daisy\daisytoolchain-0.3.1\windows\arm-none-eabi\include\c++\10.2.1\bits\std_function.h **** 
  11:e:\daisy\daisytoolchain-0.3.1\windows\arm-none-eabi\include\c++\10.2.1\bits\std_function.h **** // This library is distributed in the hope that it will be useful,
  12:e:\daisy\daisytoolchain-0.3.1\windows\arm-none-eabi\include\c++\10.2.1\bits\std_function.h **** // but WITHOUT ANY WARRANTY; without even the implied warranty of
  13:e:\daisy\daisytoolchain-0.3.1\windows\arm-none-eabi\include\c++\10.2.1\bits\std_function.h **** // MERCHANTABILITY or FITNESS FOR A PARTICULAR PURPOSE.  See the
  14:e:\daisy\daisytoolchain-0.3.1\windows\arm-none-eabi\include\c++\10.2.1\bits\std_function.h **** // GNU General Public License for more details.
  15:e:\daisy\daisytoolchain-0.3.1\windows\arm-none-eabi\include\c++\10.2.1\bits\std_function.h **** 
  16:e:\daisy\daisytoolchain-0.3.1\windows\arm-none-eabi\include\c++\10.2.1\bits\std_function.h **** // Under Section 7 of GPL version 3, you are granted additional
  17:e:\daisy\daisytoolchain-0.3.1\windows\arm-none-eabi\include\c++\10.2.1\bits\std_function.h **** // permissions described in the GCC Runtime Library Exception, version
  18:e:\daisy\daisytoolchain-0.3.1\windows\arm-none-eabi\include\c++\10.2.1\bits\std_function.h **** // 3.1, as published by the Free Software Foundation.
  19:e:\daisy\daisytoolchain-0.3.1\windows\arm-none-eabi\include\c++\10.2.1\bits\std_function.h **** 
  20:e:\daisy\daisytoolchain-0.3.1\windows\arm-none-eabi\include\c++\10.2.1\bits\std_function.h **** // You should have received a copy of the GNU General Public License and
  21:e:\daisy\daisytoolchain-0.3.1\windows\arm-none-eabi\include\c++\10.2.1\bits\std_function.h **** // a copy of the GCC Runtime Library Exception along with this program;
  22:e:\daisy\daisytoolchain-0.3.1\windows\arm-none-eabi\include\c++\10.2.1\bits\std_function.h **** // see the files COPYING3 and COPYING.RUNTIME respectively.  If not, see
  23:e:\daisy\daisytoolchain-0.3.1\windows\arm-none-eabi\include\c++\10.2.1\bits\std_function.h **** // <http://www.gnu.org/licenses/>.
  24:e:\daisy\daisytoolchain-0.3.1\windows\arm-none-eabi\include\c++\10.2.1\bits\std_function.h **** 
  25:e:\daisy\daisytoolchain-0.3.1\windows\arm-none-eabi\include\c++\10.2.1\bits\std_function.h **** /** @file include/bits/std_function.h
  26:e:\daisy\daisytoolchain-0.3.1\windows\arm-none-eabi\include\c++\10.2.1\bits\std_function.h ****  *  This is an internal header file, included by other library headers.
  27:e:\daisy\daisytoolchain-0.3.1\windows\arm-none-eabi\include\c++\10.2.1\bits\std_function.h ****  *  Do not attempt to use it directly. @headername{functional}
  28:e:\daisy\daisytoolchain-0.3.1\windows\arm-none-eabi\include\c++\10.2.1\bits\std_function.h ****  */
  29:e:\daisy\daisytoolchain-0.3.1\windows\arm-none-eabi\include\c++\10.2.1\bits\std_function.h **** 
  30:e:\daisy\daisytoolchain-0.3.1\windows\arm-none-eabi\include\c++\10.2.1\bits\std_function.h **** #ifndef _GLIBCXX_STD_FUNCTION_H
  31:e:\daisy\daisytoolchain-0.3.1\windows\arm-none-eabi\include\c++\10.2.1\bits\std_function.h **** #define _GLIBCXX_STD_FUNCTION_H 1
  32:e:\daisy\daisytoolchain-0.3.1\windows\arm-none-eabi\include\c++\10.2.1\bits\std_function.h **** 
  33:e:\daisy\daisytoolchain-0.3.1\windows\arm-none-eabi\include\c++\10.2.1\bits\std_function.h **** #pragma GCC system_header
  34:e:\daisy\daisytoolchain-0.3.1\windows\arm-none-eabi\include\c++\10.2.1\bits\std_function.h **** 
  35:e:\daisy\daisytoolchain-0.3.1\windows\arm-none-eabi\include\c++\10.2.1\bits\std_function.h **** #if __cplusplus < 201103L
  36:e:\daisy\daisytoolchain-0.3.1\windows\arm-none-eabi\include\c++\10.2.1\bits\std_function.h **** # include <bits/c++0x_warning.h>
  37:e:\daisy\daisytoolchain-0.3.1\windows\arm-none-eabi\include\c++\10.2.1\bits\std_function.h **** #else
  38:e:\daisy\daisytoolchain-0.3.1\windows\arm-none-eabi\include\c++\10.2.1\bits\std_function.h **** 
  39:e:\daisy\daisytoolchain-0.3.1\windows\arm-none-eabi\include\c++\10.2.1\bits\std_function.h **** #if __cpp_rtti
  40:e:\daisy\daisytoolchain-0.3.1\windows\arm-none-eabi\include\c++\10.2.1\bits\std_function.h **** # include <typeinfo>
  41:e:\daisy\daisytoolchain-0.3.1\windows\arm-none-eabi\include\c++\10.2.1\bits\std_function.h **** #endif
  42:e:\daisy\daisytoolchain-0.3.1\windows\arm-none-eabi\include\c++\10.2.1\bits\std_function.h **** #include <bits/stl_function.h>
  43:e:\daisy\daisytoolchain-0.3.1\windows\arm-none-eabi\include\c++\10.2.1\bits\std_function.h **** #include <bits/invoke.h>
  44:e:\daisy\daisytoolchain-0.3.1\windows\arm-none-eabi\include\c++\10.2.1\bits\std_function.h **** #include <bits/refwrap.h>
  45:e:\daisy\daisytoolchain-0.3.1\windows\arm-none-eabi\include\c++\10.2.1\bits\std_function.h **** #include <bits/functexcept.h>
  46:e:\daisy\daisytoolchain-0.3.1\windows\arm-none-eabi\include\c++\10.2.1\bits\std_function.h **** 
  47:e:\daisy\daisytoolchain-0.3.1\windows\arm-none-eabi\include\c++\10.2.1\bits\std_function.h **** namespace std _GLIBCXX_VISIBILITY(default)
  48:e:\daisy\daisytoolchain-0.3.1\windows\arm-none-eabi\include\c++\10.2.1\bits\std_function.h **** {
  49:e:\daisy\daisytoolchain-0.3.1\windows\arm-none-eabi\include\c++\10.2.1\bits\std_function.h **** _GLIBCXX_BEGIN_NAMESPACE_VERSION
  50:e:\daisy\daisytoolchain-0.3.1\windows\arm-none-eabi\include\c++\10.2.1\bits\std_function.h **** 
  51:e:\daisy\daisytoolchain-0.3.1\windows\arm-none-eabi\include\c++\10.2.1\bits\std_function.h ****   /**
  52:e:\daisy\daisytoolchain-0.3.1\windows\arm-none-eabi\include\c++\10.2.1\bits\std_function.h ****    *  @brief Exception class thrown when class template function's
  53:e:\daisy\daisytoolchain-0.3.1\windows\arm-none-eabi\include\c++\10.2.1\bits\std_function.h ****    *  operator() is called with an empty target.
  54:e:\daisy\daisytoolchain-0.3.1\windows\arm-none-eabi\include\c++\10.2.1\bits\std_function.h ****    *  @ingroup exceptions
  55:e:\daisy\daisytoolchain-0.3.1\windows\arm-none-eabi\include\c++\10.2.1\bits\std_function.h ****    */
  56:e:\daisy\daisytoolchain-0.3.1\windows\arm-none-eabi\include\c++\10.2.1\bits\std_function.h ****   class bad_function_call : public std::exception
  57:e:\daisy\daisytoolchain-0.3.1\windows\arm-none-eabi\include\c++\10.2.1\bits\std_function.h ****   {
  58:e:\daisy\daisytoolchain-0.3.1\windows\arm-none-eabi\include\c++\10.2.1\bits\std_function.h ****   public:
ARM GAS  C:\Users\etpen\AppData\Local\Temp\ccmI6ini.s 			page 24


  59:e:\daisy\daisytoolchain-0.3.1\windows\arm-none-eabi\include\c++\10.2.1\bits\std_function.h ****     virtual ~bad_function_call() noexcept;
  60:e:\daisy\daisytoolchain-0.3.1\windows\arm-none-eabi\include\c++\10.2.1\bits\std_function.h **** 
  61:e:\daisy\daisytoolchain-0.3.1\windows\arm-none-eabi\include\c++\10.2.1\bits\std_function.h ****     const char* what() const noexcept;
  62:e:\daisy\daisytoolchain-0.3.1\windows\arm-none-eabi\include\c++\10.2.1\bits\std_function.h ****   };
  63:e:\daisy\daisytoolchain-0.3.1\windows\arm-none-eabi\include\c++\10.2.1\bits\std_function.h **** 
  64:e:\daisy\daisytoolchain-0.3.1\windows\arm-none-eabi\include\c++\10.2.1\bits\std_function.h ****   /**
  65:e:\daisy\daisytoolchain-0.3.1\windows\arm-none-eabi\include\c++\10.2.1\bits\std_function.h ****    *  Trait identifying "location-invariant" types, meaning that the
  66:e:\daisy\daisytoolchain-0.3.1\windows\arm-none-eabi\include\c++\10.2.1\bits\std_function.h ****    *  address of the object (or any of its members) will not escape.
  67:e:\daisy\daisytoolchain-0.3.1\windows\arm-none-eabi\include\c++\10.2.1\bits\std_function.h ****    *  Trivially copyable types are location-invariant and users can
  68:e:\daisy\daisytoolchain-0.3.1\windows\arm-none-eabi\include\c++\10.2.1\bits\std_function.h ****    *  specialize this trait for other types.
  69:e:\daisy\daisytoolchain-0.3.1\windows\arm-none-eabi\include\c++\10.2.1\bits\std_function.h ****    */
  70:e:\daisy\daisytoolchain-0.3.1\windows\arm-none-eabi\include\c++\10.2.1\bits\std_function.h ****   template<typename _Tp>
  71:e:\daisy\daisytoolchain-0.3.1\windows\arm-none-eabi\include\c++\10.2.1\bits\std_function.h ****     struct __is_location_invariant
  72:e:\daisy\daisytoolchain-0.3.1\windows\arm-none-eabi\include\c++\10.2.1\bits\std_function.h ****     : is_trivially_copyable<_Tp>::type
  73:e:\daisy\daisytoolchain-0.3.1\windows\arm-none-eabi\include\c++\10.2.1\bits\std_function.h ****     { };
  74:e:\daisy\daisytoolchain-0.3.1\windows\arm-none-eabi\include\c++\10.2.1\bits\std_function.h **** 
  75:e:\daisy\daisytoolchain-0.3.1\windows\arm-none-eabi\include\c++\10.2.1\bits\std_function.h ****   class _Undefined_class;
  76:e:\daisy\daisytoolchain-0.3.1\windows\arm-none-eabi\include\c++\10.2.1\bits\std_function.h **** 
  77:e:\daisy\daisytoolchain-0.3.1\windows\arm-none-eabi\include\c++\10.2.1\bits\std_function.h ****   union _Nocopy_types
  78:e:\daisy\daisytoolchain-0.3.1\windows\arm-none-eabi\include\c++\10.2.1\bits\std_function.h ****   {
  79:e:\daisy\daisytoolchain-0.3.1\windows\arm-none-eabi\include\c++\10.2.1\bits\std_function.h ****     void*       _M_object;
  80:e:\daisy\daisytoolchain-0.3.1\windows\arm-none-eabi\include\c++\10.2.1\bits\std_function.h ****     const void* _M_const_object;
  81:e:\daisy\daisytoolchain-0.3.1\windows\arm-none-eabi\include\c++\10.2.1\bits\std_function.h ****     void (*_M_function_pointer)();
  82:e:\daisy\daisytoolchain-0.3.1\windows\arm-none-eabi\include\c++\10.2.1\bits\std_function.h ****     void (_Undefined_class::*_M_member_pointer)();
  83:e:\daisy\daisytoolchain-0.3.1\windows\arm-none-eabi\include\c++\10.2.1\bits\std_function.h ****   };
  84:e:\daisy\daisytoolchain-0.3.1\windows\arm-none-eabi\include\c++\10.2.1\bits\std_function.h **** 
  85:e:\daisy\daisytoolchain-0.3.1\windows\arm-none-eabi\include\c++\10.2.1\bits\std_function.h ****   union [[gnu::may_alias]] _Any_data
  86:e:\daisy\daisytoolchain-0.3.1\windows\arm-none-eabi\include\c++\10.2.1\bits\std_function.h ****   {
  87:e:\daisy\daisytoolchain-0.3.1\windows\arm-none-eabi\include\c++\10.2.1\bits\std_function.h ****     void*       _M_access()       { return &_M_pod_data[0]; }
  88:e:\daisy\daisytoolchain-0.3.1\windows\arm-none-eabi\include\c++\10.2.1\bits\std_function.h ****     const void* _M_access() const { return &_M_pod_data[0]; }
  89:e:\daisy\daisytoolchain-0.3.1\windows\arm-none-eabi\include\c++\10.2.1\bits\std_function.h **** 
  90:e:\daisy\daisytoolchain-0.3.1\windows\arm-none-eabi\include\c++\10.2.1\bits\std_function.h ****     template<typename _Tp>
  91:e:\daisy\daisytoolchain-0.3.1\windows\arm-none-eabi\include\c++\10.2.1\bits\std_function.h ****       _Tp&
  92:e:\daisy\daisytoolchain-0.3.1\windows\arm-none-eabi\include\c++\10.2.1\bits\std_function.h ****       _M_access()
  93:e:\daisy\daisytoolchain-0.3.1\windows\arm-none-eabi\include\c++\10.2.1\bits\std_function.h ****       { return *static_cast<_Tp*>(_M_access()); }
  94:e:\daisy\daisytoolchain-0.3.1\windows\arm-none-eabi\include\c++\10.2.1\bits\std_function.h **** 
  95:e:\daisy\daisytoolchain-0.3.1\windows\arm-none-eabi\include\c++\10.2.1\bits\std_function.h ****     template<typename _Tp>
  96:e:\daisy\daisytoolchain-0.3.1\windows\arm-none-eabi\include\c++\10.2.1\bits\std_function.h ****       const _Tp&
  97:e:\daisy\daisytoolchain-0.3.1\windows\arm-none-eabi\include\c++\10.2.1\bits\std_function.h ****       _M_access() const
  98:e:\daisy\daisytoolchain-0.3.1\windows\arm-none-eabi\include\c++\10.2.1\bits\std_function.h ****       { return *static_cast<const _Tp*>(_M_access()); }
  99:e:\daisy\daisytoolchain-0.3.1\windows\arm-none-eabi\include\c++\10.2.1\bits\std_function.h **** 
 100:e:\daisy\daisytoolchain-0.3.1\windows\arm-none-eabi\include\c++\10.2.1\bits\std_function.h ****     _Nocopy_types _M_unused;
 101:e:\daisy\daisytoolchain-0.3.1\windows\arm-none-eabi\include\c++\10.2.1\bits\std_function.h ****     char _M_pod_data[sizeof(_Nocopy_types)];
 102:e:\daisy\daisytoolchain-0.3.1\windows\arm-none-eabi\include\c++\10.2.1\bits\std_function.h ****   };
 103:e:\daisy\daisytoolchain-0.3.1\windows\arm-none-eabi\include\c++\10.2.1\bits\std_function.h **** 
 104:e:\daisy\daisytoolchain-0.3.1\windows\arm-none-eabi\include\c++\10.2.1\bits\std_function.h ****   enum _Manager_operation
 105:e:\daisy\daisytoolchain-0.3.1\windows\arm-none-eabi\include\c++\10.2.1\bits\std_function.h ****   {
 106:e:\daisy\daisytoolchain-0.3.1\windows\arm-none-eabi\include\c++\10.2.1\bits\std_function.h ****     __get_type_info,
 107:e:\daisy\daisytoolchain-0.3.1\windows\arm-none-eabi\include\c++\10.2.1\bits\std_function.h ****     __get_functor_ptr,
 108:e:\daisy\daisytoolchain-0.3.1\windows\arm-none-eabi\include\c++\10.2.1\bits\std_function.h ****     __clone_functor,
 109:e:\daisy\daisytoolchain-0.3.1\windows\arm-none-eabi\include\c++\10.2.1\bits\std_function.h ****     __destroy_functor
 110:e:\daisy\daisytoolchain-0.3.1\windows\arm-none-eabi\include\c++\10.2.1\bits\std_function.h ****   };
 111:e:\daisy\daisytoolchain-0.3.1\windows\arm-none-eabi\include\c++\10.2.1\bits\std_function.h **** 
 112:e:\daisy\daisytoolchain-0.3.1\windows\arm-none-eabi\include\c++\10.2.1\bits\std_function.h ****   template<typename _Signature>
 113:e:\daisy\daisytoolchain-0.3.1\windows\arm-none-eabi\include\c++\10.2.1\bits\std_function.h ****     class function;
 114:e:\daisy\daisytoolchain-0.3.1\windows\arm-none-eabi\include\c++\10.2.1\bits\std_function.h **** 
 115:e:\daisy\daisytoolchain-0.3.1\windows\arm-none-eabi\include\c++\10.2.1\bits\std_function.h ****   /// Base class of all polymorphic function object wrappers.
ARM GAS  C:\Users\etpen\AppData\Local\Temp\ccmI6ini.s 			page 25


 116:e:\daisy\daisytoolchain-0.3.1\windows\arm-none-eabi\include\c++\10.2.1\bits\std_function.h ****   class _Function_base
 117:e:\daisy\daisytoolchain-0.3.1\windows\arm-none-eabi\include\c++\10.2.1\bits\std_function.h ****   {
 118:e:\daisy\daisytoolchain-0.3.1\windows\arm-none-eabi\include\c++\10.2.1\bits\std_function.h ****   public:
 119:e:\daisy\daisytoolchain-0.3.1\windows\arm-none-eabi\include\c++\10.2.1\bits\std_function.h ****     static const size_t _M_max_size = sizeof(_Nocopy_types);
 120:e:\daisy\daisytoolchain-0.3.1\windows\arm-none-eabi\include\c++\10.2.1\bits\std_function.h ****     static const size_t _M_max_align = __alignof__(_Nocopy_types);
 121:e:\daisy\daisytoolchain-0.3.1\windows\arm-none-eabi\include\c++\10.2.1\bits\std_function.h **** 
 122:e:\daisy\daisytoolchain-0.3.1\windows\arm-none-eabi\include\c++\10.2.1\bits\std_function.h ****     template<typename _Functor>
 123:e:\daisy\daisytoolchain-0.3.1\windows\arm-none-eabi\include\c++\10.2.1\bits\std_function.h ****       class _Base_manager
 124:e:\daisy\daisytoolchain-0.3.1\windows\arm-none-eabi\include\c++\10.2.1\bits\std_function.h ****       {
 125:e:\daisy\daisytoolchain-0.3.1\windows\arm-none-eabi\include\c++\10.2.1\bits\std_function.h ****       protected:
 126:e:\daisy\daisytoolchain-0.3.1\windows\arm-none-eabi\include\c++\10.2.1\bits\std_function.h **** 	static const bool __stored_locally =
 127:e:\daisy\daisytoolchain-0.3.1\windows\arm-none-eabi\include\c++\10.2.1\bits\std_function.h **** 	(__is_location_invariant<_Functor>::value
 128:e:\daisy\daisytoolchain-0.3.1\windows\arm-none-eabi\include\c++\10.2.1\bits\std_function.h **** 	 && sizeof(_Functor) <= _M_max_size
 129:e:\daisy\daisytoolchain-0.3.1\windows\arm-none-eabi\include\c++\10.2.1\bits\std_function.h **** 	 && __alignof__(_Functor) <= _M_max_align
 130:e:\daisy\daisytoolchain-0.3.1\windows\arm-none-eabi\include\c++\10.2.1\bits\std_function.h **** 	 && (_M_max_align % __alignof__(_Functor) == 0));
 131:e:\daisy\daisytoolchain-0.3.1\windows\arm-none-eabi\include\c++\10.2.1\bits\std_function.h **** 
 132:e:\daisy\daisytoolchain-0.3.1\windows\arm-none-eabi\include\c++\10.2.1\bits\std_function.h **** 	typedef integral_constant<bool, __stored_locally> _Local_storage;
 133:e:\daisy\daisytoolchain-0.3.1\windows\arm-none-eabi\include\c++\10.2.1\bits\std_function.h **** 
 134:e:\daisy\daisytoolchain-0.3.1\windows\arm-none-eabi\include\c++\10.2.1\bits\std_function.h **** 	// Retrieve a pointer to the function object
 135:e:\daisy\daisytoolchain-0.3.1\windows\arm-none-eabi\include\c++\10.2.1\bits\std_function.h **** 	static _Functor*
 136:e:\daisy\daisytoolchain-0.3.1\windows\arm-none-eabi\include\c++\10.2.1\bits\std_function.h **** 	_M_get_pointer(const _Any_data& __source)
 137:e:\daisy\daisytoolchain-0.3.1\windows\arm-none-eabi\include\c++\10.2.1\bits\std_function.h **** 	{
 138:e:\daisy\daisytoolchain-0.3.1\windows\arm-none-eabi\include\c++\10.2.1\bits\std_function.h **** 	  if _GLIBCXX17_CONSTEXPR (__stored_locally)
 139:e:\daisy\daisytoolchain-0.3.1\windows\arm-none-eabi\include\c++\10.2.1\bits\std_function.h **** 	    {
 140:e:\daisy\daisytoolchain-0.3.1\windows\arm-none-eabi\include\c++\10.2.1\bits\std_function.h **** 	      const _Functor& __f = __source._M_access<_Functor>();
 141:e:\daisy\daisytoolchain-0.3.1\windows\arm-none-eabi\include\c++\10.2.1\bits\std_function.h **** 	      return const_cast<_Functor*>(std::__addressof(__f));
 142:e:\daisy\daisytoolchain-0.3.1\windows\arm-none-eabi\include\c++\10.2.1\bits\std_function.h **** 	    }
 143:e:\daisy\daisytoolchain-0.3.1\windows\arm-none-eabi\include\c++\10.2.1\bits\std_function.h **** 	  else // have stored a pointer
 144:e:\daisy\daisytoolchain-0.3.1\windows\arm-none-eabi\include\c++\10.2.1\bits\std_function.h **** 	    return __source._M_access<_Functor*>();
 145:e:\daisy\daisytoolchain-0.3.1\windows\arm-none-eabi\include\c++\10.2.1\bits\std_function.h **** 	}
 146:e:\daisy\daisytoolchain-0.3.1\windows\arm-none-eabi\include\c++\10.2.1\bits\std_function.h **** 
 147:e:\daisy\daisytoolchain-0.3.1\windows\arm-none-eabi\include\c++\10.2.1\bits\std_function.h **** 	// Clone a location-invariant function object that fits within
 148:e:\daisy\daisytoolchain-0.3.1\windows\arm-none-eabi\include\c++\10.2.1\bits\std_function.h **** 	// an _Any_data structure.
 149:e:\daisy\daisytoolchain-0.3.1\windows\arm-none-eabi\include\c++\10.2.1\bits\std_function.h **** 	static void
 150:e:\daisy\daisytoolchain-0.3.1\windows\arm-none-eabi\include\c++\10.2.1\bits\std_function.h **** 	_M_clone(_Any_data& __dest, const _Any_data& __source, true_type)
 151:e:\daisy\daisytoolchain-0.3.1\windows\arm-none-eabi\include\c++\10.2.1\bits\std_function.h **** 	{
 152:e:\daisy\daisytoolchain-0.3.1\windows\arm-none-eabi\include\c++\10.2.1\bits\std_function.h **** 	  ::new (__dest._M_access()) _Functor(__source._M_access<_Functor>());
 153:e:\daisy\daisytoolchain-0.3.1\windows\arm-none-eabi\include\c++\10.2.1\bits\std_function.h **** 	}
 154:e:\daisy\daisytoolchain-0.3.1\windows\arm-none-eabi\include\c++\10.2.1\bits\std_function.h **** 
 155:e:\daisy\daisytoolchain-0.3.1\windows\arm-none-eabi\include\c++\10.2.1\bits\std_function.h **** 	// Clone a function object that is not location-invariant or
 156:e:\daisy\daisytoolchain-0.3.1\windows\arm-none-eabi\include\c++\10.2.1\bits\std_function.h **** 	// that cannot fit into an _Any_data structure.
 157:e:\daisy\daisytoolchain-0.3.1\windows\arm-none-eabi\include\c++\10.2.1\bits\std_function.h **** 	static void
 158:e:\daisy\daisytoolchain-0.3.1\windows\arm-none-eabi\include\c++\10.2.1\bits\std_function.h **** 	_M_clone(_Any_data& __dest, const _Any_data& __source, false_type)
 159:e:\daisy\daisytoolchain-0.3.1\windows\arm-none-eabi\include\c++\10.2.1\bits\std_function.h **** 	{
 160:e:\daisy\daisytoolchain-0.3.1\windows\arm-none-eabi\include\c++\10.2.1\bits\std_function.h **** 	  __dest._M_access<_Functor*>() =
 161:e:\daisy\daisytoolchain-0.3.1\windows\arm-none-eabi\include\c++\10.2.1\bits\std_function.h **** 	    new _Functor(*__source._M_access<const _Functor*>());
 162:e:\daisy\daisytoolchain-0.3.1\windows\arm-none-eabi\include\c++\10.2.1\bits\std_function.h **** 	}
 163:e:\daisy\daisytoolchain-0.3.1\windows\arm-none-eabi\include\c++\10.2.1\bits\std_function.h **** 
 164:e:\daisy\daisytoolchain-0.3.1\windows\arm-none-eabi\include\c++\10.2.1\bits\std_function.h **** 	// Destroying a location-invariant object may still require
 165:e:\daisy\daisytoolchain-0.3.1\windows\arm-none-eabi\include\c++\10.2.1\bits\std_function.h **** 	// destruction.
 166:e:\daisy\daisytoolchain-0.3.1\windows\arm-none-eabi\include\c++\10.2.1\bits\std_function.h **** 	static void
 167:e:\daisy\daisytoolchain-0.3.1\windows\arm-none-eabi\include\c++\10.2.1\bits\std_function.h **** 	_M_destroy(_Any_data& __victim, true_type)
 168:e:\daisy\daisytoolchain-0.3.1\windows\arm-none-eabi\include\c++\10.2.1\bits\std_function.h **** 	{
 169:e:\daisy\daisytoolchain-0.3.1\windows\arm-none-eabi\include\c++\10.2.1\bits\std_function.h **** 	  __victim._M_access<_Functor>().~_Functor();
 170:e:\daisy\daisytoolchain-0.3.1\windows\arm-none-eabi\include\c++\10.2.1\bits\std_function.h **** 	}
 171:e:\daisy\daisytoolchain-0.3.1\windows\arm-none-eabi\include\c++\10.2.1\bits\std_function.h **** 
 172:e:\daisy\daisytoolchain-0.3.1\windows\arm-none-eabi\include\c++\10.2.1\bits\std_function.h **** 	// Destroying an object located on the heap.
ARM GAS  C:\Users\etpen\AppData\Local\Temp\ccmI6ini.s 			page 26


 173:e:\daisy\daisytoolchain-0.3.1\windows\arm-none-eabi\include\c++\10.2.1\bits\std_function.h **** 	static void
 174:e:\daisy\daisytoolchain-0.3.1\windows\arm-none-eabi\include\c++\10.2.1\bits\std_function.h **** 	_M_destroy(_Any_data& __victim, false_type)
 175:e:\daisy\daisytoolchain-0.3.1\windows\arm-none-eabi\include\c++\10.2.1\bits\std_function.h **** 	{
 176:e:\daisy\daisytoolchain-0.3.1\windows\arm-none-eabi\include\c++\10.2.1\bits\std_function.h **** 	  delete __victim._M_access<_Functor*>();
 177:e:\daisy\daisytoolchain-0.3.1\windows\arm-none-eabi\include\c++\10.2.1\bits\std_function.h **** 	}
 178:e:\daisy\daisytoolchain-0.3.1\windows\arm-none-eabi\include\c++\10.2.1\bits\std_function.h **** 
 179:e:\daisy\daisytoolchain-0.3.1\windows\arm-none-eabi\include\c++\10.2.1\bits\std_function.h ****       public:
 180:e:\daisy\daisytoolchain-0.3.1\windows\arm-none-eabi\include\c++\10.2.1\bits\std_function.h **** 	static bool
 181:e:\daisy\daisytoolchain-0.3.1\windows\arm-none-eabi\include\c++\10.2.1\bits\std_function.h **** 	_M_manager(_Any_data& __dest, const _Any_data& __source,
 182:e:\daisy\daisytoolchain-0.3.1\windows\arm-none-eabi\include\c++\10.2.1\bits\std_function.h **** 		   _Manager_operation __op)
 183:e:\daisy\daisytoolchain-0.3.1\windows\arm-none-eabi\include\c++\10.2.1\bits\std_function.h **** 	{
 184:e:\daisy\daisytoolchain-0.3.1\windows\arm-none-eabi\include\c++\10.2.1\bits\std_function.h **** 	  switch (__op)
 185:e:\daisy\daisytoolchain-0.3.1\windows\arm-none-eabi\include\c++\10.2.1\bits\std_function.h **** 	    {
 186:e:\daisy\daisytoolchain-0.3.1\windows\arm-none-eabi\include\c++\10.2.1\bits\std_function.h **** #if __cpp_rtti
 187:e:\daisy\daisytoolchain-0.3.1\windows\arm-none-eabi\include\c++\10.2.1\bits\std_function.h **** 	    case __get_type_info:
 188:e:\daisy\daisytoolchain-0.3.1\windows\arm-none-eabi\include\c++\10.2.1\bits\std_function.h **** 	      __dest._M_access<const type_info*>() = &typeid(_Functor);
 189:e:\daisy\daisytoolchain-0.3.1\windows\arm-none-eabi\include\c++\10.2.1\bits\std_function.h **** 	      break;
 190:e:\daisy\daisytoolchain-0.3.1\windows\arm-none-eabi\include\c++\10.2.1\bits\std_function.h **** #endif
 191:e:\daisy\daisytoolchain-0.3.1\windows\arm-none-eabi\include\c++\10.2.1\bits\std_function.h **** 	    case __get_functor_ptr:
 192:e:\daisy\daisytoolchain-0.3.1\windows\arm-none-eabi\include\c++\10.2.1\bits\std_function.h **** 	      __dest._M_access<_Functor*>() = _M_get_pointer(__source);
 193:e:\daisy\daisytoolchain-0.3.1\windows\arm-none-eabi\include\c++\10.2.1\bits\std_function.h **** 	      break;
 194:e:\daisy\daisytoolchain-0.3.1\windows\arm-none-eabi\include\c++\10.2.1\bits\std_function.h **** 
 195:e:\daisy\daisytoolchain-0.3.1\windows\arm-none-eabi\include\c++\10.2.1\bits\std_function.h **** 	    case __clone_functor:
 196:e:\daisy\daisytoolchain-0.3.1\windows\arm-none-eabi\include\c++\10.2.1\bits\std_function.h **** 	      _M_clone(__dest, __source, _Local_storage());
 197:e:\daisy\daisytoolchain-0.3.1\windows\arm-none-eabi\include\c++\10.2.1\bits\std_function.h **** 	      break;
 198:e:\daisy\daisytoolchain-0.3.1\windows\arm-none-eabi\include\c++\10.2.1\bits\std_function.h **** 
 199:e:\daisy\daisytoolchain-0.3.1\windows\arm-none-eabi\include\c++\10.2.1\bits\std_function.h **** 	    case __destroy_functor:
 200:e:\daisy\daisytoolchain-0.3.1\windows\arm-none-eabi\include\c++\10.2.1\bits\std_function.h **** 	      _M_destroy(__dest, _Local_storage());
 201:e:\daisy\daisytoolchain-0.3.1\windows\arm-none-eabi\include\c++\10.2.1\bits\std_function.h **** 	      break;
 202:e:\daisy\daisytoolchain-0.3.1\windows\arm-none-eabi\include\c++\10.2.1\bits\std_function.h **** 	    }
 203:e:\daisy\daisytoolchain-0.3.1\windows\arm-none-eabi\include\c++\10.2.1\bits\std_function.h **** 	  return false;
 204:e:\daisy\daisytoolchain-0.3.1\windows\arm-none-eabi\include\c++\10.2.1\bits\std_function.h **** 	}
 205:e:\daisy\daisytoolchain-0.3.1\windows\arm-none-eabi\include\c++\10.2.1\bits\std_function.h **** 
 206:e:\daisy\daisytoolchain-0.3.1\windows\arm-none-eabi\include\c++\10.2.1\bits\std_function.h **** 	static void
 207:e:\daisy\daisytoolchain-0.3.1\windows\arm-none-eabi\include\c++\10.2.1\bits\std_function.h **** 	_M_init_functor(_Any_data& __functor, _Functor&& __f)
 208:e:\daisy\daisytoolchain-0.3.1\windows\arm-none-eabi\include\c++\10.2.1\bits\std_function.h **** 	{ _M_init_functor(__functor, std::move(__f), _Local_storage()); }
 209:e:\daisy\daisytoolchain-0.3.1\windows\arm-none-eabi\include\c++\10.2.1\bits\std_function.h **** 
 210:e:\daisy\daisytoolchain-0.3.1\windows\arm-none-eabi\include\c++\10.2.1\bits\std_function.h **** 	template<typename _Signature>
 211:e:\daisy\daisytoolchain-0.3.1\windows\arm-none-eabi\include\c++\10.2.1\bits\std_function.h **** 	  static bool
 212:e:\daisy\daisytoolchain-0.3.1\windows\arm-none-eabi\include\c++\10.2.1\bits\std_function.h **** 	  _M_not_empty_function(const function<_Signature>& __f)
 213:e:\daisy\daisytoolchain-0.3.1\windows\arm-none-eabi\include\c++\10.2.1\bits\std_function.h **** 	  { return static_cast<bool>(__f); }
 214:e:\daisy\daisytoolchain-0.3.1\windows\arm-none-eabi\include\c++\10.2.1\bits\std_function.h **** 
 215:e:\daisy\daisytoolchain-0.3.1\windows\arm-none-eabi\include\c++\10.2.1\bits\std_function.h **** 	template<typename _Tp>
 216:e:\daisy\daisytoolchain-0.3.1\windows\arm-none-eabi\include\c++\10.2.1\bits\std_function.h **** 	  static bool
 217:e:\daisy\daisytoolchain-0.3.1\windows\arm-none-eabi\include\c++\10.2.1\bits\std_function.h **** 	  _M_not_empty_function(_Tp* __fp)
 218:e:\daisy\daisytoolchain-0.3.1\windows\arm-none-eabi\include\c++\10.2.1\bits\std_function.h **** 	  { return __fp != nullptr; }
 219:e:\daisy\daisytoolchain-0.3.1\windows\arm-none-eabi\include\c++\10.2.1\bits\std_function.h **** 
 220:e:\daisy\daisytoolchain-0.3.1\windows\arm-none-eabi\include\c++\10.2.1\bits\std_function.h **** 	template<typename _Class, typename _Tp>
 221:e:\daisy\daisytoolchain-0.3.1\windows\arm-none-eabi\include\c++\10.2.1\bits\std_function.h **** 	  static bool
 222:e:\daisy\daisytoolchain-0.3.1\windows\arm-none-eabi\include\c++\10.2.1\bits\std_function.h **** 	  _M_not_empty_function(_Tp _Class::* __mp)
 223:e:\daisy\daisytoolchain-0.3.1\windows\arm-none-eabi\include\c++\10.2.1\bits\std_function.h **** 	  { return __mp != nullptr; }
 224:e:\daisy\daisytoolchain-0.3.1\windows\arm-none-eabi\include\c++\10.2.1\bits\std_function.h **** 
 225:e:\daisy\daisytoolchain-0.3.1\windows\arm-none-eabi\include\c++\10.2.1\bits\std_function.h **** 	template<typename _Tp>
 226:e:\daisy\daisytoolchain-0.3.1\windows\arm-none-eabi\include\c++\10.2.1\bits\std_function.h **** 	  static bool
 227:e:\daisy\daisytoolchain-0.3.1\windows\arm-none-eabi\include\c++\10.2.1\bits\std_function.h **** 	  _M_not_empty_function(const _Tp&)
 228:e:\daisy\daisytoolchain-0.3.1\windows\arm-none-eabi\include\c++\10.2.1\bits\std_function.h **** 	  { return true; }
 229:e:\daisy\daisytoolchain-0.3.1\windows\arm-none-eabi\include\c++\10.2.1\bits\std_function.h **** 
ARM GAS  C:\Users\etpen\AppData\Local\Temp\ccmI6ini.s 			page 27


 230:e:\daisy\daisytoolchain-0.3.1\windows\arm-none-eabi\include\c++\10.2.1\bits\std_function.h ****       private:
 231:e:\daisy\daisytoolchain-0.3.1\windows\arm-none-eabi\include\c++\10.2.1\bits\std_function.h **** 	static void
 232:e:\daisy\daisytoolchain-0.3.1\windows\arm-none-eabi\include\c++\10.2.1\bits\std_function.h **** 	_M_init_functor(_Any_data& __functor, _Functor&& __f, true_type)
 233:e:\daisy\daisytoolchain-0.3.1\windows\arm-none-eabi\include\c++\10.2.1\bits\std_function.h **** 	{ ::new (__functor._M_access()) _Functor(std::move(__f)); }
 234:e:\daisy\daisytoolchain-0.3.1\windows\arm-none-eabi\include\c++\10.2.1\bits\std_function.h **** 
 235:e:\daisy\daisytoolchain-0.3.1\windows\arm-none-eabi\include\c++\10.2.1\bits\std_function.h **** 	static void
 236:e:\daisy\daisytoolchain-0.3.1\windows\arm-none-eabi\include\c++\10.2.1\bits\std_function.h **** 	_M_init_functor(_Any_data& __functor, _Functor&& __f, false_type)
 237:e:\daisy\daisytoolchain-0.3.1\windows\arm-none-eabi\include\c++\10.2.1\bits\std_function.h **** 	{ __functor._M_access<_Functor*>() = new _Functor(std::move(__f)); }
 238:e:\daisy\daisytoolchain-0.3.1\windows\arm-none-eabi\include\c++\10.2.1\bits\std_function.h ****       };
 239:e:\daisy\daisytoolchain-0.3.1\windows\arm-none-eabi\include\c++\10.2.1\bits\std_function.h **** 
 240:e:\daisy\daisytoolchain-0.3.1\windows\arm-none-eabi\include\c++\10.2.1\bits\std_function.h ****     _Function_base() : _M_manager(nullptr) { }
 241:e:\daisy\daisytoolchain-0.3.1\windows\arm-none-eabi\include\c++\10.2.1\bits\std_function.h **** 
 242:e:\daisy\daisytoolchain-0.3.1\windows\arm-none-eabi\include\c++\10.2.1\bits\std_function.h ****     ~_Function_base()
 243:e:\daisy\daisytoolchain-0.3.1\windows\arm-none-eabi\include\c++\10.2.1\bits\std_function.h ****     {
 244:e:\daisy\daisytoolchain-0.3.1\windows\arm-none-eabi\include\c++\10.2.1\bits\std_function.h ****       if (_M_manager)
 245:e:\daisy\daisytoolchain-0.3.1\windows\arm-none-eabi\include\c++\10.2.1\bits\std_function.h **** 	_M_manager(_M_functor, _M_functor, __destroy_functor);
 246:e:\daisy\daisytoolchain-0.3.1\windows\arm-none-eabi\include\c++\10.2.1\bits\std_function.h ****     }
 247:e:\daisy\daisytoolchain-0.3.1\windows\arm-none-eabi\include\c++\10.2.1\bits\std_function.h **** 
 248:e:\daisy\daisytoolchain-0.3.1\windows\arm-none-eabi\include\c++\10.2.1\bits\std_function.h ****     bool _M_empty() const { return !_M_manager; }
 249:e:\daisy\daisytoolchain-0.3.1\windows\arm-none-eabi\include\c++\10.2.1\bits\std_function.h **** 
 250:e:\daisy\daisytoolchain-0.3.1\windows\arm-none-eabi\include\c++\10.2.1\bits\std_function.h ****     typedef bool (*_Manager_type)(_Any_data&, const _Any_data&,
 251:e:\daisy\daisytoolchain-0.3.1\windows\arm-none-eabi\include\c++\10.2.1\bits\std_function.h **** 				  _Manager_operation);
 252:e:\daisy\daisytoolchain-0.3.1\windows\arm-none-eabi\include\c++\10.2.1\bits\std_function.h **** 
 253:e:\daisy\daisytoolchain-0.3.1\windows\arm-none-eabi\include\c++\10.2.1\bits\std_function.h ****     _Any_data     _M_functor;
 254:e:\daisy\daisytoolchain-0.3.1\windows\arm-none-eabi\include\c++\10.2.1\bits\std_function.h ****     _Manager_type _M_manager;
 255:e:\daisy\daisytoolchain-0.3.1\windows\arm-none-eabi\include\c++\10.2.1\bits\std_function.h ****   };
 256:e:\daisy\daisytoolchain-0.3.1\windows\arm-none-eabi\include\c++\10.2.1\bits\std_function.h **** 
 257:e:\daisy\daisytoolchain-0.3.1\windows\arm-none-eabi\include\c++\10.2.1\bits\std_function.h ****   template<typename _Signature, typename _Functor>
 258:e:\daisy\daisytoolchain-0.3.1\windows\arm-none-eabi\include\c++\10.2.1\bits\std_function.h ****     class _Function_handler;
 259:e:\daisy\daisytoolchain-0.3.1\windows\arm-none-eabi\include\c++\10.2.1\bits\std_function.h **** 
 260:e:\daisy\daisytoolchain-0.3.1\windows\arm-none-eabi\include\c++\10.2.1\bits\std_function.h ****   template<typename _Res, typename _Functor, typename... _ArgTypes>
 261:e:\daisy\daisytoolchain-0.3.1\windows\arm-none-eabi\include\c++\10.2.1\bits\std_function.h ****     class _Function_handler<_Res(_ArgTypes...), _Functor>
 262:e:\daisy\daisytoolchain-0.3.1\windows\arm-none-eabi\include\c++\10.2.1\bits\std_function.h ****     : public _Function_base::_Base_manager<_Functor>
 263:e:\daisy\daisytoolchain-0.3.1\windows\arm-none-eabi\include\c++\10.2.1\bits\std_function.h ****     {
 264:e:\daisy\daisytoolchain-0.3.1\windows\arm-none-eabi\include\c++\10.2.1\bits\std_function.h ****       typedef _Function_base::_Base_manager<_Functor> _Base;
 265:e:\daisy\daisytoolchain-0.3.1\windows\arm-none-eabi\include\c++\10.2.1\bits\std_function.h **** 
 266:e:\daisy\daisytoolchain-0.3.1\windows\arm-none-eabi\include\c++\10.2.1\bits\std_function.h ****     public:
 267:e:\daisy\daisytoolchain-0.3.1\windows\arm-none-eabi\include\c++\10.2.1\bits\std_function.h ****       static bool
 268:e:\daisy\daisytoolchain-0.3.1\windows\arm-none-eabi\include\c++\10.2.1\bits\std_function.h ****       _M_manager(_Any_data& __dest, const _Any_data& __source,
 269:e:\daisy\daisytoolchain-0.3.1\windows\arm-none-eabi\include\c++\10.2.1\bits\std_function.h **** 		 _Manager_operation __op)
 270:e:\daisy\daisytoolchain-0.3.1\windows\arm-none-eabi\include\c++\10.2.1\bits\std_function.h ****       {
 271:e:\daisy\daisytoolchain-0.3.1\windows\arm-none-eabi\include\c++\10.2.1\bits\std_function.h **** 	switch (__op)
 272:e:\daisy\daisytoolchain-0.3.1\windows\arm-none-eabi\include\c++\10.2.1\bits\std_function.h **** 	  {
 273:e:\daisy\daisytoolchain-0.3.1\windows\arm-none-eabi\include\c++\10.2.1\bits\std_function.h **** #if __cpp_rtti
 274:e:\daisy\daisytoolchain-0.3.1\windows\arm-none-eabi\include\c++\10.2.1\bits\std_function.h **** 	  case __get_type_info:
 275:e:\daisy\daisytoolchain-0.3.1\windows\arm-none-eabi\include\c++\10.2.1\bits\std_function.h **** 	    __dest._M_access<const type_info*>() = &typeid(_Functor);
 276:e:\daisy\daisytoolchain-0.3.1\windows\arm-none-eabi\include\c++\10.2.1\bits\std_function.h **** 	    break;
 277:e:\daisy\daisytoolchain-0.3.1\windows\arm-none-eabi\include\c++\10.2.1\bits\std_function.h **** #endif
 278:e:\daisy\daisytoolchain-0.3.1\windows\arm-none-eabi\include\c++\10.2.1\bits\std_function.h **** 	  case __get_functor_ptr:
 279:e:\daisy\daisytoolchain-0.3.1\windows\arm-none-eabi\include\c++\10.2.1\bits\std_function.h **** 	    __dest._M_access<_Functor*>() = _Base::_M_get_pointer(__source);
 280:e:\daisy\daisytoolchain-0.3.1\windows\arm-none-eabi\include\c++\10.2.1\bits\std_function.h **** 	    break;
 281:e:\daisy\daisytoolchain-0.3.1\windows\arm-none-eabi\include\c++\10.2.1\bits\std_function.h **** 
 282:e:\daisy\daisytoolchain-0.3.1\windows\arm-none-eabi\include\c++\10.2.1\bits\std_function.h **** 	  default:
 283:e:\daisy\daisytoolchain-0.3.1\windows\arm-none-eabi\include\c++\10.2.1\bits\std_function.h **** 	    _Base::_M_manager(__dest, __source, __op);
 284:e:\daisy\daisytoolchain-0.3.1\windows\arm-none-eabi\include\c++\10.2.1\bits\std_function.h **** 	  }
 285:e:\daisy\daisytoolchain-0.3.1\windows\arm-none-eabi\include\c++\10.2.1\bits\std_function.h **** 	return false;
 286:e:\daisy\daisytoolchain-0.3.1\windows\arm-none-eabi\include\c++\10.2.1\bits\std_function.h ****       }
ARM GAS  C:\Users\etpen\AppData\Local\Temp\ccmI6ini.s 			page 28


 287:e:\daisy\daisytoolchain-0.3.1\windows\arm-none-eabi\include\c++\10.2.1\bits\std_function.h **** 
 288:e:\daisy\daisytoolchain-0.3.1\windows\arm-none-eabi\include\c++\10.2.1\bits\std_function.h ****       static _Res
 289:e:\daisy\daisytoolchain-0.3.1\windows\arm-none-eabi\include\c++\10.2.1\bits\std_function.h ****       _M_invoke(const _Any_data& __functor, _ArgTypes&&... __args)
 224              		.loc 15 289 7 is_stmt 1 view -0
 225              		.cfi_startproc
 226              		@ args = 0, pretend = 0, frame = 0
 227              		@ frame_needed = 0, uses_anonymous_args = 0
 228              		@ link register save eliminated.
  88:e:\daisy\daisytoolchain-0.3.1\windows\arm-none-eabi\include\c++\10.2.1\bits\std_function.h **** 
 229              		.loc 15 88 37 view .LVU38
 230              	.LBB4569:
 231              	.LBI4569:
 232              		.file 16 "e:\\daisy\\daisytoolchain-0.3.1\\windows\\arm-none-eabi\\include\\c++\\10.2.1\\bits\\inv
   1:e:\daisy\daisytoolchain-0.3.1\windows\arm-none-eabi\include\c++\10.2.1\bits\invoke.h **** // Implementation of INVOKE -*- C++ -*-
   2:e:\daisy\daisytoolchain-0.3.1\windows\arm-none-eabi\include\c++\10.2.1\bits\invoke.h **** 
   3:e:\daisy\daisytoolchain-0.3.1\windows\arm-none-eabi\include\c++\10.2.1\bits\invoke.h **** // Copyright (C) 2016-2020 Free Software Foundation, Inc.
   4:e:\daisy\daisytoolchain-0.3.1\windows\arm-none-eabi\include\c++\10.2.1\bits\invoke.h **** //
   5:e:\daisy\daisytoolchain-0.3.1\windows\arm-none-eabi\include\c++\10.2.1\bits\invoke.h **** // This file is part of the GNU ISO C++ Library.  This library is free
   6:e:\daisy\daisytoolchain-0.3.1\windows\arm-none-eabi\include\c++\10.2.1\bits\invoke.h **** // software; you can redistribute it and/or modify it under the
   7:e:\daisy\daisytoolchain-0.3.1\windows\arm-none-eabi\include\c++\10.2.1\bits\invoke.h **** // terms of the GNU General Public License as published by the
   8:e:\daisy\daisytoolchain-0.3.1\windows\arm-none-eabi\include\c++\10.2.1\bits\invoke.h **** // Free Software Foundation; either version 3, or (at your option)
   9:e:\daisy\daisytoolchain-0.3.1\windows\arm-none-eabi\include\c++\10.2.1\bits\invoke.h **** // any later version.
  10:e:\daisy\daisytoolchain-0.3.1\windows\arm-none-eabi\include\c++\10.2.1\bits\invoke.h **** 
  11:e:\daisy\daisytoolchain-0.3.1\windows\arm-none-eabi\include\c++\10.2.1\bits\invoke.h **** // This library is distributed in the hope that it will be useful,
  12:e:\daisy\daisytoolchain-0.3.1\windows\arm-none-eabi\include\c++\10.2.1\bits\invoke.h **** // but WITHOUT ANY WARRANTY; without even the implied warranty of
  13:e:\daisy\daisytoolchain-0.3.1\windows\arm-none-eabi\include\c++\10.2.1\bits\invoke.h **** // MERCHANTABILITY or FITNESS FOR A PARTICULAR PURPOSE.  See the
  14:e:\daisy\daisytoolchain-0.3.1\windows\arm-none-eabi\include\c++\10.2.1\bits\invoke.h **** // GNU General Public License for more details.
  15:e:\daisy\daisytoolchain-0.3.1\windows\arm-none-eabi\include\c++\10.2.1\bits\invoke.h **** 
  16:e:\daisy\daisytoolchain-0.3.1\windows\arm-none-eabi\include\c++\10.2.1\bits\invoke.h **** // Under Section 7 of GPL version 3, you are granted additional
  17:e:\daisy\daisytoolchain-0.3.1\windows\arm-none-eabi\include\c++\10.2.1\bits\invoke.h **** // permissions described in the GCC Runtime Library Exception, version
  18:e:\daisy\daisytoolchain-0.3.1\windows\arm-none-eabi\include\c++\10.2.1\bits\invoke.h **** // 3.1, as published by the Free Software Foundation.
  19:e:\daisy\daisytoolchain-0.3.1\windows\arm-none-eabi\include\c++\10.2.1\bits\invoke.h **** 
  20:e:\daisy\daisytoolchain-0.3.1\windows\arm-none-eabi\include\c++\10.2.1\bits\invoke.h **** // You should have received a copy of the GNU General Public License and
  21:e:\daisy\daisytoolchain-0.3.1\windows\arm-none-eabi\include\c++\10.2.1\bits\invoke.h **** // a copy of the GCC Runtime Library Exception along with this program;
  22:e:\daisy\daisytoolchain-0.3.1\windows\arm-none-eabi\include\c++\10.2.1\bits\invoke.h **** // see the files COPYING3 and COPYING.RUNTIME respectively.  If not, see
  23:e:\daisy\daisytoolchain-0.3.1\windows\arm-none-eabi\include\c++\10.2.1\bits\invoke.h **** // <http://www.gnu.org/licenses/>.
  24:e:\daisy\daisytoolchain-0.3.1\windows\arm-none-eabi\include\c++\10.2.1\bits\invoke.h **** 
  25:e:\daisy\daisytoolchain-0.3.1\windows\arm-none-eabi\include\c++\10.2.1\bits\invoke.h **** /** @file include/bits/invoke.h
  26:e:\daisy\daisytoolchain-0.3.1\windows\arm-none-eabi\include\c++\10.2.1\bits\invoke.h ****  *  This is an internal header file, included by other library headers.
  27:e:\daisy\daisytoolchain-0.3.1\windows\arm-none-eabi\include\c++\10.2.1\bits\invoke.h ****  *  Do not attempt to use it directly. @headername{functional}
  28:e:\daisy\daisytoolchain-0.3.1\windows\arm-none-eabi\include\c++\10.2.1\bits\invoke.h ****  */
  29:e:\daisy\daisytoolchain-0.3.1\windows\arm-none-eabi\include\c++\10.2.1\bits\invoke.h **** 
  30:e:\daisy\daisytoolchain-0.3.1\windows\arm-none-eabi\include\c++\10.2.1\bits\invoke.h **** #ifndef _GLIBCXX_INVOKE_H
  31:e:\daisy\daisytoolchain-0.3.1\windows\arm-none-eabi\include\c++\10.2.1\bits\invoke.h **** #define _GLIBCXX_INVOKE_H 1
  32:e:\daisy\daisytoolchain-0.3.1\windows\arm-none-eabi\include\c++\10.2.1\bits\invoke.h **** 
  33:e:\daisy\daisytoolchain-0.3.1\windows\arm-none-eabi\include\c++\10.2.1\bits\invoke.h **** #pragma GCC system_header
  34:e:\daisy\daisytoolchain-0.3.1\windows\arm-none-eabi\include\c++\10.2.1\bits\invoke.h **** 
  35:e:\daisy\daisytoolchain-0.3.1\windows\arm-none-eabi\include\c++\10.2.1\bits\invoke.h **** #if __cplusplus < 201103L
  36:e:\daisy\daisytoolchain-0.3.1\windows\arm-none-eabi\include\c++\10.2.1\bits\invoke.h **** # include <bits/c++0x_warning.h>
  37:e:\daisy\daisytoolchain-0.3.1\windows\arm-none-eabi\include\c++\10.2.1\bits\invoke.h **** #else
  38:e:\daisy\daisytoolchain-0.3.1\windows\arm-none-eabi\include\c++\10.2.1\bits\invoke.h **** 
  39:e:\daisy\daisytoolchain-0.3.1\windows\arm-none-eabi\include\c++\10.2.1\bits\invoke.h **** #include <type_traits>
  40:e:\daisy\daisytoolchain-0.3.1\windows\arm-none-eabi\include\c++\10.2.1\bits\invoke.h **** 
  41:e:\daisy\daisytoolchain-0.3.1\windows\arm-none-eabi\include\c++\10.2.1\bits\invoke.h **** namespace std _GLIBCXX_VISIBILITY(default)
  42:e:\daisy\daisytoolchain-0.3.1\windows\arm-none-eabi\include\c++\10.2.1\bits\invoke.h **** {
  43:e:\daisy\daisytoolchain-0.3.1\windows\arm-none-eabi\include\c++\10.2.1\bits\invoke.h **** _GLIBCXX_BEGIN_NAMESPACE_VERSION
  44:e:\daisy\daisytoolchain-0.3.1\windows\arm-none-eabi\include\c++\10.2.1\bits\invoke.h **** 
ARM GAS  C:\Users\etpen\AppData\Local\Temp\ccmI6ini.s 			page 29


  45:e:\daisy\daisytoolchain-0.3.1\windows\arm-none-eabi\include\c++\10.2.1\bits\invoke.h ****   /**
  46:e:\daisy\daisytoolchain-0.3.1\windows\arm-none-eabi\include\c++\10.2.1\bits\invoke.h ****    *  @addtogroup utilities
  47:e:\daisy\daisytoolchain-0.3.1\windows\arm-none-eabi\include\c++\10.2.1\bits\invoke.h ****    *  @{
  48:e:\daisy\daisytoolchain-0.3.1\windows\arm-none-eabi\include\c++\10.2.1\bits\invoke.h ****    */
  49:e:\daisy\daisytoolchain-0.3.1\windows\arm-none-eabi\include\c++\10.2.1\bits\invoke.h **** 
  50:e:\daisy\daisytoolchain-0.3.1\windows\arm-none-eabi\include\c++\10.2.1\bits\invoke.h ****   // Used by __invoke_impl instead of std::forward<_Tp> so that a
  51:e:\daisy\daisytoolchain-0.3.1\windows\arm-none-eabi\include\c++\10.2.1\bits\invoke.h ****   // reference_wrapper is converted to an lvalue-reference.
  52:e:\daisy\daisytoolchain-0.3.1\windows\arm-none-eabi\include\c++\10.2.1\bits\invoke.h ****   template<typename _Tp, typename _Up = typename __inv_unwrap<_Tp>::type>
  53:e:\daisy\daisytoolchain-0.3.1\windows\arm-none-eabi\include\c++\10.2.1\bits\invoke.h ****     constexpr _Up&&
  54:e:\daisy\daisytoolchain-0.3.1\windows\arm-none-eabi\include\c++\10.2.1\bits\invoke.h ****     __invfwd(typename remove_reference<_Tp>::type& __t) noexcept
  55:e:\daisy\daisytoolchain-0.3.1\windows\arm-none-eabi\include\c++\10.2.1\bits\invoke.h ****     { return static_cast<_Up&&>(__t); }
  56:e:\daisy\daisytoolchain-0.3.1\windows\arm-none-eabi\include\c++\10.2.1\bits\invoke.h **** 
  57:e:\daisy\daisytoolchain-0.3.1\windows\arm-none-eabi\include\c++\10.2.1\bits\invoke.h ****   template<typename _Res, typename _Fn, typename... _Args>
  58:e:\daisy\daisytoolchain-0.3.1\windows\arm-none-eabi\include\c++\10.2.1\bits\invoke.h ****     constexpr _Res
  59:e:\daisy\daisytoolchain-0.3.1\windows\arm-none-eabi\include\c++\10.2.1\bits\invoke.h ****     __invoke_impl(__invoke_other, _Fn&& __f, _Args&&... __args)
  60:e:\daisy\daisytoolchain-0.3.1\windows\arm-none-eabi\include\c++\10.2.1\bits\invoke.h ****     { return std::forward<_Fn>(__f)(std::forward<_Args>(__args)...); }
  61:e:\daisy\daisytoolchain-0.3.1\windows\arm-none-eabi\include\c++\10.2.1\bits\invoke.h **** 
  62:e:\daisy\daisytoolchain-0.3.1\windows\arm-none-eabi\include\c++\10.2.1\bits\invoke.h ****   template<typename _Res, typename _MemFun, typename _Tp, typename... _Args>
  63:e:\daisy\daisytoolchain-0.3.1\windows\arm-none-eabi\include\c++\10.2.1\bits\invoke.h ****     constexpr _Res
  64:e:\daisy\daisytoolchain-0.3.1\windows\arm-none-eabi\include\c++\10.2.1\bits\invoke.h ****     __invoke_impl(__invoke_memfun_ref, _MemFun&& __f, _Tp&& __t,
  65:e:\daisy\daisytoolchain-0.3.1\windows\arm-none-eabi\include\c++\10.2.1\bits\invoke.h **** 		  _Args&&... __args)
  66:e:\daisy\daisytoolchain-0.3.1\windows\arm-none-eabi\include\c++\10.2.1\bits\invoke.h ****     { return (__invfwd<_Tp>(__t).*__f)(std::forward<_Args>(__args)...); }
  67:e:\daisy\daisytoolchain-0.3.1\windows\arm-none-eabi\include\c++\10.2.1\bits\invoke.h **** 
  68:e:\daisy\daisytoolchain-0.3.1\windows\arm-none-eabi\include\c++\10.2.1\bits\invoke.h ****   template<typename _Res, typename _MemFun, typename _Tp, typename... _Args>
  69:e:\daisy\daisytoolchain-0.3.1\windows\arm-none-eabi\include\c++\10.2.1\bits\invoke.h ****     constexpr _Res
  70:e:\daisy\daisytoolchain-0.3.1\windows\arm-none-eabi\include\c++\10.2.1\bits\invoke.h ****     __invoke_impl(__invoke_memfun_deref, _MemFun&& __f, _Tp&& __t,
  71:e:\daisy\daisytoolchain-0.3.1\windows\arm-none-eabi\include\c++\10.2.1\bits\invoke.h **** 		  _Args&&... __args)
  72:e:\daisy\daisytoolchain-0.3.1\windows\arm-none-eabi\include\c++\10.2.1\bits\invoke.h ****     {
  73:e:\daisy\daisytoolchain-0.3.1\windows\arm-none-eabi\include\c++\10.2.1\bits\invoke.h ****       return ((*std::forward<_Tp>(__t)).*__f)(std::forward<_Args>(__args)...);
  74:e:\daisy\daisytoolchain-0.3.1\windows\arm-none-eabi\include\c++\10.2.1\bits\invoke.h ****     }
  75:e:\daisy\daisytoolchain-0.3.1\windows\arm-none-eabi\include\c++\10.2.1\bits\invoke.h **** 
  76:e:\daisy\daisytoolchain-0.3.1\windows\arm-none-eabi\include\c++\10.2.1\bits\invoke.h ****   template<typename _Res, typename _MemPtr, typename _Tp>
  77:e:\daisy\daisytoolchain-0.3.1\windows\arm-none-eabi\include\c++\10.2.1\bits\invoke.h ****     constexpr _Res
  78:e:\daisy\daisytoolchain-0.3.1\windows\arm-none-eabi\include\c++\10.2.1\bits\invoke.h ****     __invoke_impl(__invoke_memobj_ref, _MemPtr&& __f, _Tp&& __t)
  79:e:\daisy\daisytoolchain-0.3.1\windows\arm-none-eabi\include\c++\10.2.1\bits\invoke.h ****     { return __invfwd<_Tp>(__t).*__f; }
  80:e:\daisy\daisytoolchain-0.3.1\windows\arm-none-eabi\include\c++\10.2.1\bits\invoke.h **** 
  81:e:\daisy\daisytoolchain-0.3.1\windows\arm-none-eabi\include\c++\10.2.1\bits\invoke.h ****   template<typename _Res, typename _MemPtr, typename _Tp>
  82:e:\daisy\daisytoolchain-0.3.1\windows\arm-none-eabi\include\c++\10.2.1\bits\invoke.h ****     constexpr _Res
  83:e:\daisy\daisytoolchain-0.3.1\windows\arm-none-eabi\include\c++\10.2.1\bits\invoke.h ****     __invoke_impl(__invoke_memobj_deref, _MemPtr&& __f, _Tp&& __t)
  84:e:\daisy\daisytoolchain-0.3.1\windows\arm-none-eabi\include\c++\10.2.1\bits\invoke.h ****     { return (*std::forward<_Tp>(__t)).*__f; }
  85:e:\daisy\daisytoolchain-0.3.1\windows\arm-none-eabi\include\c++\10.2.1\bits\invoke.h **** 
  86:e:\daisy\daisytoolchain-0.3.1\windows\arm-none-eabi\include\c++\10.2.1\bits\invoke.h ****   /// Invoke a callable object.
  87:e:\daisy\daisytoolchain-0.3.1\windows\arm-none-eabi\include\c++\10.2.1\bits\invoke.h ****   template<typename _Callable, typename... _Args>
  88:e:\daisy\daisytoolchain-0.3.1\windows\arm-none-eabi\include\c++\10.2.1\bits\invoke.h ****     constexpr typename __invoke_result<_Callable, _Args...>::type
  89:e:\daisy\daisytoolchain-0.3.1\windows\arm-none-eabi\include\c++\10.2.1\bits\invoke.h ****     __invoke(_Callable&& __fn, _Args&&... __args)
  90:e:\daisy\daisytoolchain-0.3.1\windows\arm-none-eabi\include\c++\10.2.1\bits\invoke.h ****     noexcept(__is_nothrow_invocable<_Callable, _Args...>::value)
  91:e:\daisy\daisytoolchain-0.3.1\windows\arm-none-eabi\include\c++\10.2.1\bits\invoke.h ****     {
  92:e:\daisy\daisytoolchain-0.3.1\windows\arm-none-eabi\include\c++\10.2.1\bits\invoke.h ****       using __result = __invoke_result<_Callable, _Args...>;
  93:e:\daisy\daisytoolchain-0.3.1\windows\arm-none-eabi\include\c++\10.2.1\bits\invoke.h ****       using __type = typename __result::type;
  94:e:\daisy\daisytoolchain-0.3.1\windows\arm-none-eabi\include\c++\10.2.1\bits\invoke.h ****       using __tag = typename __result::__invoke_type;
  95:e:\daisy\daisytoolchain-0.3.1\windows\arm-none-eabi\include\c++\10.2.1\bits\invoke.h ****       return std::__invoke_impl<__type>(__tag{}, std::forward<_Callable>(__fn),
  96:e:\daisy\daisytoolchain-0.3.1\windows\arm-none-eabi\include\c++\10.2.1\bits\invoke.h **** 					std::forward<_Args>(__args)...);
  97:e:\daisy\daisytoolchain-0.3.1\windows\arm-none-eabi\include\c++\10.2.1\bits\invoke.h ****     }
  98:e:\daisy\daisytoolchain-0.3.1\windows\arm-none-eabi\include\c++\10.2.1\bits\invoke.h **** 
  99:e:\daisy\daisytoolchain-0.3.1\windows\arm-none-eabi\include\c++\10.2.1\bits\invoke.h **** #if __cplusplus >= 201703L
 100:e:\daisy\daisytoolchain-0.3.1\windows\arm-none-eabi\include\c++\10.2.1\bits\invoke.h ****   // INVOKE<R>: Invoke a callable object and convert the result to R.
 101:e:\daisy\daisytoolchain-0.3.1\windows\arm-none-eabi\include\c++\10.2.1\bits\invoke.h ****   template<typename _Res, typename _Callable, typename... _Args>
ARM GAS  C:\Users\etpen\AppData\Local\Temp\ccmI6ini.s 			page 30


 102:e:\daisy\daisytoolchain-0.3.1\windows\arm-none-eabi\include\c++\10.2.1\bits\invoke.h ****     constexpr enable_if_t<is_invocable_r_v<_Res, _Callable, _Args...>, _Res>
 103:e:\daisy\daisytoolchain-0.3.1\windows\arm-none-eabi\include\c++\10.2.1\bits\invoke.h ****     __invoke_r(_Callable&& __fn, _Args&&... __args)
 104:e:\daisy\daisytoolchain-0.3.1\windows\arm-none-eabi\include\c++\10.2.1\bits\invoke.h ****     noexcept(is_nothrow_invocable_r_v<_Res, _Callable, _Args...>)
 105:e:\daisy\daisytoolchain-0.3.1\windows\arm-none-eabi\include\c++\10.2.1\bits\invoke.h ****     {
 106:e:\daisy\daisytoolchain-0.3.1\windows\arm-none-eabi\include\c++\10.2.1\bits\invoke.h ****       using __result = __invoke_result<_Callable, _Args...>;
 107:e:\daisy\daisytoolchain-0.3.1\windows\arm-none-eabi\include\c++\10.2.1\bits\invoke.h ****       using __type = typename __result::type;
 108:e:\daisy\daisytoolchain-0.3.1\windows\arm-none-eabi\include\c++\10.2.1\bits\invoke.h ****       using __tag = typename __result::__invoke_type;
 109:e:\daisy\daisytoolchain-0.3.1\windows\arm-none-eabi\include\c++\10.2.1\bits\invoke.h ****       if constexpr (is_void_v<_Res>)
 110:e:\daisy\daisytoolchain-0.3.1\windows\arm-none-eabi\include\c++\10.2.1\bits\invoke.h **** 	std::__invoke_impl<__type>(__tag{}, std::forward<_Callable>(__fn),
 111:e:\daisy\daisytoolchain-0.3.1\windows\arm-none-eabi\include\c++\10.2.1\bits\invoke.h **** 					std::forward<_Args>(__args)...);
 112:e:\daisy\daisytoolchain-0.3.1\windows\arm-none-eabi\include\c++\10.2.1\bits\invoke.h ****       else
 113:e:\daisy\daisytoolchain-0.3.1\windows\arm-none-eabi\include\c++\10.2.1\bits\invoke.h **** 	return std::__invoke_impl<__type>(__tag{},
 114:e:\daisy\daisytoolchain-0.3.1\windows\arm-none-eabi\include\c++\10.2.1\bits\invoke.h **** 					  std::forward<_Callable>(__fn),
 115:e:\daisy\daisytoolchain-0.3.1\windows\arm-none-eabi\include\c++\10.2.1\bits\invoke.h **** 					  std::forward<_Args>(__args)...);
 116:e:\daisy\daisytoolchain-0.3.1\windows\arm-none-eabi\include\c++\10.2.1\bits\invoke.h ****     }
 117:e:\daisy\daisytoolchain-0.3.1\windows\arm-none-eabi\include\c++\10.2.1\bits\invoke.h **** #else // C++11
 118:e:\daisy\daisytoolchain-0.3.1\windows\arm-none-eabi\include\c++\10.2.1\bits\invoke.h ****   template<typename _Res, typename _Callable, typename... _Args>
 119:e:\daisy\daisytoolchain-0.3.1\windows\arm-none-eabi\include\c++\10.2.1\bits\invoke.h ****     using __can_invoke_as_void = __enable_if_t<
 120:e:\daisy\daisytoolchain-0.3.1\windows\arm-none-eabi\include\c++\10.2.1\bits\invoke.h ****       __and_<is_void<_Res>, __is_invocable<_Callable, _Args...>>::value,
 121:e:\daisy\daisytoolchain-0.3.1\windows\arm-none-eabi\include\c++\10.2.1\bits\invoke.h ****       _Res
 122:e:\daisy\daisytoolchain-0.3.1\windows\arm-none-eabi\include\c++\10.2.1\bits\invoke.h ****     >;
 123:e:\daisy\daisytoolchain-0.3.1\windows\arm-none-eabi\include\c++\10.2.1\bits\invoke.h **** 
 124:e:\daisy\daisytoolchain-0.3.1\windows\arm-none-eabi\include\c++\10.2.1\bits\invoke.h ****   template<typename _Res, typename _Callable, typename... _Args>
 125:e:\daisy\daisytoolchain-0.3.1\windows\arm-none-eabi\include\c++\10.2.1\bits\invoke.h ****     using __can_invoke_as_nonvoid = __enable_if_t<
 126:e:\daisy\daisytoolchain-0.3.1\windows\arm-none-eabi\include\c++\10.2.1\bits\invoke.h ****       __and_<__not_<is_void<_Res>>,
 127:e:\daisy\daisytoolchain-0.3.1\windows\arm-none-eabi\include\c++\10.2.1\bits\invoke.h **** 	     is_convertible<typename __invoke_result<_Callable, _Args...>::type,
 128:e:\daisy\daisytoolchain-0.3.1\windows\arm-none-eabi\include\c++\10.2.1\bits\invoke.h **** 			    _Res>
 129:e:\daisy\daisytoolchain-0.3.1\windows\arm-none-eabi\include\c++\10.2.1\bits\invoke.h ****       >::value,
 130:e:\daisy\daisytoolchain-0.3.1\windows\arm-none-eabi\include\c++\10.2.1\bits\invoke.h ****       _Res
 131:e:\daisy\daisytoolchain-0.3.1\windows\arm-none-eabi\include\c++\10.2.1\bits\invoke.h ****     >;
 132:e:\daisy\daisytoolchain-0.3.1\windows\arm-none-eabi\include\c++\10.2.1\bits\invoke.h **** 
 133:e:\daisy\daisytoolchain-0.3.1\windows\arm-none-eabi\include\c++\10.2.1\bits\invoke.h ****   // INVOKE<R>: Invoke a callable object and convert the result to R.
 134:e:\daisy\daisytoolchain-0.3.1\windows\arm-none-eabi\include\c++\10.2.1\bits\invoke.h ****   template<typename _Res, typename _Callable, typename... _Args>
 135:e:\daisy\daisytoolchain-0.3.1\windows\arm-none-eabi\include\c++\10.2.1\bits\invoke.h ****     constexpr __can_invoke_as_nonvoid<_Res, _Callable, _Args...>
 136:e:\daisy\daisytoolchain-0.3.1\windows\arm-none-eabi\include\c++\10.2.1\bits\invoke.h ****     __invoke_r(_Callable&& __fn, _Args&&... __args)
 137:e:\daisy\daisytoolchain-0.3.1\windows\arm-none-eabi\include\c++\10.2.1\bits\invoke.h ****     {
 138:e:\daisy\daisytoolchain-0.3.1\windows\arm-none-eabi\include\c++\10.2.1\bits\invoke.h ****       using __result = __invoke_result<_Callable, _Args...>;
 139:e:\daisy\daisytoolchain-0.3.1\windows\arm-none-eabi\include\c++\10.2.1\bits\invoke.h ****       using __type = typename __result::type;
 140:e:\daisy\daisytoolchain-0.3.1\windows\arm-none-eabi\include\c++\10.2.1\bits\invoke.h ****       using __tag = typename __result::__invoke_type;
 141:e:\daisy\daisytoolchain-0.3.1\windows\arm-none-eabi\include\c++\10.2.1\bits\invoke.h ****       return std::__invoke_impl<__type>(__tag{}, std::forward<_Callable>(__fn),
 142:e:\daisy\daisytoolchain-0.3.1\windows\arm-none-eabi\include\c++\10.2.1\bits\invoke.h **** 					std::forward<_Args>(__args)...);
 143:e:\daisy\daisytoolchain-0.3.1\windows\arm-none-eabi\include\c++\10.2.1\bits\invoke.h ****     }
 144:e:\daisy\daisytoolchain-0.3.1\windows\arm-none-eabi\include\c++\10.2.1\bits\invoke.h **** 
 145:e:\daisy\daisytoolchain-0.3.1\windows\arm-none-eabi\include\c++\10.2.1\bits\invoke.h ****   // INVOKE<R> when R is cv void
 146:e:\daisy\daisytoolchain-0.3.1\windows\arm-none-eabi\include\c++\10.2.1\bits\invoke.h ****   template<typename _Res, typename _Callable, typename... _Args>
 147:e:\daisy\daisytoolchain-0.3.1\windows\arm-none-eabi\include\c++\10.2.1\bits\invoke.h ****     _GLIBCXX14_CONSTEXPR __can_invoke_as_void<_Res, _Callable, _Args...>
 148:e:\daisy\daisytoolchain-0.3.1\windows\arm-none-eabi\include\c++\10.2.1\bits\invoke.h ****     __invoke_r(_Callable&& __fn, _Args&&... __args)
 233              		.loc 16 148 5 view .LVU39
 234              	.LBB4570:
 235              	.LBB4571:
 236              	.LBI4571:
  59:e:\daisy\daisytoolchain-0.3.1\windows\arm-none-eabi\include\c++\10.2.1\bits\invoke.h ****     { return std::forward<_Fn>(__f)(std::forward<_Args>(__args)...); }
 237              		.loc 16 59 5 view .LVU40
 238              	.LBB4572:
  60:e:\daisy\daisytoolchain-0.3.1\windows\arm-none-eabi\include\c++\10.2.1\bits\invoke.h **** 
 239              		.loc 16 60 36 is_stmt 0 view .LVU41
 240 0000 0368     		ldr	r3, [r0]
ARM GAS  C:\Users\etpen\AppData\Local\Temp\ccmI6ini.s 			page 31


 241 0002 1847     		bx	r3	@ indirect register sibling call
 242              	.LVL8:
  60:e:\daisy\daisytoolchain-0.3.1\windows\arm-none-eabi\include\c++\10.2.1\bits\invoke.h **** 
 243              		.loc 16 60 36 view .LVU42
 244              	.LBE4572:
 245              	.LBE4571:
 246              	.LBE4570:
 247              	.LBE4569:
 248              		.cfi_endproc
 249              	.LFE5737:
 251              		.section	.text._ZNK5daisy11OledDisplayINS_13SSD130xDriverILj128ELj64ENS_24SSD130x4WireSpiTransport
 252              		.align	1
 253              		.p2align 2,,3
 254              		.weak	_ZNK5daisy11OledDisplayINS_13SSD130xDriverILj128ELj64ENS_24SSD130x4WireSpiTransportEEEE6Heig
 255              		.syntax unified
 256              		.thumb
 257              		.thumb_func
 258              		.fpu fpv5-d16
 260              	_ZNK5daisy11OledDisplayINS_13SSD130xDriverILj128ELj64ENS_24SSD130x4WireSpiTransportEEEE6HeightEv:
 261              	.LVL9:
 262              	.LFB6190:
  26:../../libdaisy/src/hid/disp/oled_display.h ****     uint16_t Width() const override { return driver_.Width(); }
 263              		.loc 4 26 14 is_stmt 1 view -0
 264              		.cfi_startproc
 265              		@ args = 0, pretend = 0, frame = 0
 266              		@ frame_needed = 0, uses_anonymous_args = 0
 267              		@ link register save eliminated.
  26:../../libdaisy/src/hid/disp/oled_display.h ****     uint16_t Width() const override { return driver_.Width(); }
 268              		.loc 4 26 65 is_stmt 0 view .LVU44
 269 0000 4020     		movs	r0, #64
 270              	.LVL10:
  26:../../libdaisy/src/hid/disp/oled_display.h ****     uint16_t Width() const override { return driver_.Width(); }
 271              		.loc 4 26 65 view .LVU45
 272 0002 7047     		bx	lr
 273              		.cfi_endproc
 274              	.LFE6190:
 276              		.section	.text._ZNK5daisy11OledDisplayINS_13SSD130xDriverILj128ELj64ENS_24SSD130x4WireSpiTransport
 277              		.align	1
 278              		.p2align 2,,3
 279              		.weak	_ZNK5daisy11OledDisplayINS_13SSD130xDriverILj128ELj64ENS_24SSD130x4WireSpiTransportEEEE5Widt
 280              		.syntax unified
 281              		.thumb
 282              		.thumb_func
 283              		.fpu fpv5-d16
 285              	_ZNK5daisy11OledDisplayINS_13SSD130xDriverILj128ELj64ENS_24SSD130x4WireSpiTransportEEEE5WidthEv:
 286              	.LVL11:
 287              	.LFB6191:
  27:../../libdaisy/src/hid/disp/oled_display.h **** 
 288              		.loc 4 27 14 is_stmt 1 view -0
 289              		.cfi_startproc
 290              		@ args = 0, pretend = 0, frame = 0
 291              		@ frame_needed = 0, uses_anonymous_args = 0
 292              		@ link register save eliminated.
  27:../../libdaisy/src/hid/disp/oled_display.h **** 
 293              		.loc 4 27 63 is_stmt 0 view .LVU47
 294 0000 8020     		movs	r0, #128
 295              	.LVL12:
ARM GAS  C:\Users\etpen\AppData\Local\Temp\ccmI6ini.s 			page 32


  27:../../libdaisy/src/hid/disp/oled_display.h **** 
 296              		.loc 4 27 63 view .LVU48
 297 0002 7047     		bx	lr
 298              		.cfi_endproc
 299              	.LFE6191:
 301              		.section	.text._Z2cbv,"ax",%progbits
 302              		.align	1
 303              		.p2align 2,,3
 304              		.global	_Z2cbv
 305              		.syntax unified
 306              		.thumb
 307              		.thumb_func
 308              		.fpu fpv5-d16
 310              	_Z2cbv:
 311              	.LFB5111:
 312              		.file 17 "Jellybeans.cpp"
   1:Jellybeans.cpp **** /* 
   2:Jellybeans.cpp ****  * Copyright (C) 2021 Evan Pernu - All Rights Reserved
   3:Jellybeans.cpp ****  * You may use, distribute and modify this code under the
   4:Jellybeans.cpp ****  * terms of the GNU AGPLv3 license.
   5:Jellybeans.cpp ****  * 
   6:Jellybeans.cpp ****  * You should have received a copy of the GNU AGPLv3 license with
   7:Jellybeans.cpp ****  * this file (LICENSE.md). If not, please write to: evanpernu@gmail.com, 
   8:Jellybeans.cpp ****  * or visit: https://www.gnu.org/licenses/agpl-3.0.en.html
   9:Jellybeans.cpp ****  *
  10:Jellybeans.cpp ****  * 
  11:Jellybeans.cpp ****  * ====================================================
  12:Jellybeans.cpp ****  * =   __       _        _                            =
  13:Jellybeans.cpp ****  * =   \ \  ___| | |_   _| |__   ___  __ _ _ __  ___  =
  14:Jellybeans.cpp ****  * =    \ \/ _ \ | | | | | '_ \ / _ \/ _` | '_ \/ __| =
  15:Jellybeans.cpp ****  * = /\_/ /  __/ | | |_| | |_) |  __/ (_| | | | \__ \ =
  16:Jellybeans.cpp ****  * = \___/ \___|_|_|\__, |_.__/ \___|\__,_|_| |_|___/ =
  17:Jellybeans.cpp ****  * =                |___/                             =
  18:Jellybeans.cpp ****  * ====================================================
  19:Jellybeans.cpp ****  * 
  20:Jellybeans.cpp ****  * 
  21:Jellybeans.cpp ****  * Jellybeans is an arpeggiator eurorack module designed for the 
  22:Jellybeans.cpp ****  * Electrosmith Daisy Patch platform.
  23:Jellybeans.cpp ****  */
  24:Jellybeans.cpp **** 
  25:Jellybeans.cpp **** 
  26:Jellybeans.cpp **** #include "daisysp.h"
  27:Jellybeans.cpp **** #include "daisy_patch.h"
  28:Jellybeans.cpp **** #include "daisysp.h"
  29:Jellybeans.cpp **** #include "resources.h"
  30:Jellybeans.cpp **** 
  31:Jellybeans.cpp **** 
  32:Jellybeans.cpp **** #include <string>
  33:Jellybeans.cpp **** #include <array>
  34:Jellybeans.cpp **** 
  35:Jellybeans.cpp **** using namespace daisy;
  36:Jellybeans.cpp **** using namespace daisysp;
  37:Jellybeans.cpp **** using namespace jellybeans;
  38:Jellybeans.cpp **** 
  39:Jellybeans.cpp **** DaisyPatch patch;
  40:Jellybeans.cpp **** 
  41:Jellybeans.cpp **** // If true, the bottom row will display debug data instead of a menu item
ARM GAS  C:\Users\etpen\AppData\Local\Temp\ccmI6ini.s 			page 33


  42:Jellybeans.cpp **** const bool debugMode = true;
  43:Jellybeans.cpp **** std::string debugString;
  44:Jellybeans.cpp **** 
  45:Jellybeans.cpp **** // The note vallue currently being sent to Patches' DAC's output 1
  46:Jellybeans.cpp **** // This is stored so that it's only calculated upon a change
  47:Jellybeans.cpp **** float arpNoteDacOutput1;
  48:Jellybeans.cpp **** 
  49:Jellybeans.cpp **** // If true, send a trig to Patches' gate out 1 at the next frame
  50:Jellybeans.cpp **** bool trigOut;
  51:Jellybeans.cpp **** 
  52:Jellybeans.cpp **** const FontDef font = Font_7x10;
  53:Jellybeans.cpp **** const int     fontWidth = 7;
  54:Jellybeans.cpp **** const int     fontHeight = 10;
  55:Jellybeans.cpp **** 
  56:Jellybeans.cpp **** /// Menu navigating vars
  57:Jellybeans.cpp **** int  menuPos;
  58:Jellybeans.cpp **** bool isEditing;
  59:Jellybeans.cpp **** 
  60:Jellybeans.cpp **** 
  61:Jellybeans.cpp **** // Given the 1V/oct and 0-5V range of the CV out port,
  62:Jellybeans.cpp **** // we are limited to a 5 octave register. Voicings span
  63:Jellybeans.cpp **** // up to 2 octaves and coarse tuning (mTonic) spans another,
  64:Jellybeans.cpp **** // leaving us 2 octaves of room for upwards transposition.
  65:Jellybeans.cpp **** //
  66:Jellybeans.cpp **** // Note that the indices of the elements are also their octave distances from 0
  67:Jellybeans.cpp **** const std::vector<std::string> allOctaves {
  68:Jellybeans.cpp ****     "0",
  69:Jellybeans.cpp ****     "+1", // TODO re-enable these once out-of-bounds notes have been handled
  70:Jellybeans.cpp ****     "+2"
  71:Jellybeans.cpp **** };
  72:Jellybeans.cpp **** 
  73:Jellybeans.cpp **** void UpdateControls();
  74:Jellybeans.cpp **** void UpdateOled();
  75:Jellybeans.cpp **** //void UpdateOutputs();
  76:Jellybeans.cpp **** //void OnClockPulseIn();
  77:Jellybeans.cpp **** void DrawString(std::string, int, int);
  78:Jellybeans.cpp **** 
  79:Jellybeans.cpp **** Arp* myArp;
  80:Jellybeans.cpp **** 
  81:Jellybeans.cpp **** std::array<MenuItem, 10> menuItems;
  82:Jellybeans.cpp **** 
  83:Jellybeans.cpp **** // Reference vars to make the code more readable
  84:Jellybeans.cpp **** MenuItem *mPattern   = &menuItems[0];
  85:Jellybeans.cpp **** MenuItem *mDivision  = &menuItems[1];
  86:Jellybeans.cpp **** MenuItem *mVoicing   = &menuItems[2];
  87:Jellybeans.cpp **** MenuItem *mInversion = &menuItems[3];
  88:Jellybeans.cpp **** MenuItem *mTonic     = &menuItems[4];
  89:Jellybeans.cpp **** MenuItem *mScale     = &menuItems[5];
  90:Jellybeans.cpp **** MenuItem *mRhythm    = &menuItems[6];
  91:Jellybeans.cpp **** MenuItem *mOctRng    = &menuItems[7];
  92:Jellybeans.cpp **** MenuItem *mOct       = &menuItems[8];
  93:Jellybeans.cpp **** MenuItem *mClockDiv  = &menuItems[9];
  94:Jellybeans.cpp **** 
  95:Jellybeans.cpp **** 
  96:Jellybeans.cpp **** Parameter patternParam, divisionParam, voicingParam, inversionParam;
  97:Jellybeans.cpp **** int patternCurCvVal, divisionCurCvVal, voicingCurCvVal, inversionCurCvVal;
  98:Jellybeans.cpp **** 
ARM GAS  C:\Users\etpen\AppData\Local\Temp\ccmI6ini.s 			page 34


  99:Jellybeans.cpp **** // Callback function invoked whenever a menu parameter is changed
 100:Jellybeans.cpp **** void cb(){
 313              		.loc 17 100 10 is_stmt 1 view -0
 314              		.cfi_startproc
 315              		@ args = 0, pretend = 0, frame = 0
 316              		@ frame_needed = 0, uses_anonymous_args = 0
 317              		@ link register save eliminated.
 101:Jellybeans.cpp ****     myArp->UpdateTraversal();
 318              		.loc 17 101 5 view .LVU50
 319              		.loc 17 101 27 is_stmt 0 view .LVU51
 320 0000 014B     		ldr	r3, .L10
 321 0002 1868     		ldr	r0, [r3]
 322 0004 FFF7FEBF 		b	_ZN10jellybeans3Arp15UpdateTraversalEv
 323              	.LVL13:
 324              	.L11:
 325              		.align	2
 326              	.L10:
 327 0008 00000000 		.word	.LANCHOR0
 328              		.cfi_endproc
 329              	.LFE5111:
 331              		.section	.text._ZN5daisy11OledDisplayINS_13SSD130xDriverILj128ELj64ENS_24SSD130x4WireSpiTransportE
 332              		.align	1
 333              		.p2align 2,,3
 334              		.weak	_ZN5daisy11OledDisplayINS_13SSD130xDriverILj128ELj64ENS_24SSD130x4WireSpiTransportEEEED0Ev
 335              		.syntax unified
 336              		.thumb
 337              		.thumb_func
 338              		.fpu fpv5-d16
 340              	_ZN5daisy11OledDisplayINS_13SSD130xDriverILj128ELj64ENS_24SSD130x4WireSpiTransportEEEED0Ev:
 341              	.LVL14:
 342              	.LFB5449:
  17:../../libdaisy/src/hid/disp/oled_display.h **** 
 343              		.loc 4 17 13 is_stmt 1 view -0
 344              		.cfi_startproc
 345              		@ args = 0, pretend = 0, frame = 0
 346              		@ frame_needed = 0, uses_anonymous_args = 0
  17:../../libdaisy/src/hid/disp/oled_display.h **** 
 347              		.loc 4 17 13 is_stmt 0 view .LVU53
 348 0000 10B5     		push	{r4, lr}
 349              		.cfi_def_cfa_offset 8
 350              		.cfi_offset 4, -8
 351              		.cfi_offset 14, -4
  17:../../libdaisy/src/hid/disp/oled_display.h **** 
 352              		.loc 4 17 13 view .LVU54
 353 0002 0446     		mov	r4, r0
 354              	.LVL15:
 355              	.LBB4573:
 356              	.LBI4573:
  17:../../libdaisy/src/hid/disp/oled_display.h **** 
 357              		.loc 4 17 13 is_stmt 1 view .LVU55
 358              	.LBB4574:
 359              	.LBI4574:
 360              		.loc 5 219 13 view .LVU56
 361              	.LBB4575:
 362              	.LBI4575:
  23:../../libdaisy/src/hid/disp/display.h **** 
 363              		.loc 5 23 13 view .LVU57
ARM GAS  C:\Users\etpen\AppData\Local\Temp\ccmI6ini.s 			page 35


  23:../../libdaisy/src/hid/disp/display.h **** 
 364              		.loc 5 23 13 is_stmt 0 view .LVU58
 365              	.LBE4575:
 366              	.LBE4574:
 367              	.LBE4573:
  17:../../libdaisy/src/hid/disp/oled_display.h **** 
 368              		.loc 4 17 29 view .LVU59
 369 0004 40F21441 		movw	r1, #1044
 370 0008 FFF7FEFF 		bl	_ZdlPvj
 371              	.LVL16:
  17:../../libdaisy/src/hid/disp/oled_display.h **** 
 372              		.loc 4 17 29 view .LVU60
 373 000c 2046     		mov	r0, r4
 374 000e 10BD     		pop	{r4, pc}
  17:../../libdaisy/src/hid/disp/oled_display.h **** 
 375              		.loc 4 17 29 view .LVU61
 376              		.cfi_endproc
 377              	.LFE5449:
 379              		.section	.text._ZNSt17_Function_handlerIFvvEPS0_E10_M_managerERSt9_Any_dataRKS3_St18_Manager_opera
 380              		.align	1
 381              		.p2align 2,,3
 382              		.weak	_ZNSt17_Function_handlerIFvvEPS0_E10_M_managerERSt9_Any_dataRKS3_St18_Manager_operation
 383              		.syntax unified
 384              		.thumb
 385              		.thumb_func
 386              		.fpu fpv5-d16
 388              	_ZNSt17_Function_handlerIFvvEPS0_E10_M_managerERSt9_Any_dataRKS3_St18_Manager_operation:
 389              	.LVL17:
 390              	.LFB5738:
 268:e:\daisy\daisytoolchain-0.3.1\windows\arm-none-eabi\include\c++\10.2.1\bits\std_function.h **** 		 _Manager_operation __op)
 391              		.loc 15 268 7 is_stmt 1 view -0
 392              		.cfi_startproc
 393              		@ args = 0, pretend = 0, frame = 0
 394              		@ frame_needed = 0, uses_anonymous_args = 0
 395              		@ link register save eliminated.
 271:e:\daisy\daisytoolchain-0.3.1\windows\arm-none-eabi\include\c++\10.2.1\bits\std_function.h **** 	  {
 396              		.loc 15 271 2 is_stmt 0 view .LVU63
 397 0000 2AB1     		cbz	r2, .L15
 398 0002 012A     		cmp	r2, #1
 399 0004 07D0     		beq	.L16
 400              	.LVL18:
 401              	.LBB4590:
 402              	.LBI4590:
 181:e:\daisy\daisytoolchain-0.3.1\windows\arm-none-eabi\include\c++\10.2.1\bits\std_function.h **** 		   _Manager_operation __op)
 403              		.loc 15 181 2 is_stmt 1 view .LVU64
 404              	.LBB4591:
 184:e:\daisy\daisytoolchain-0.3.1\windows\arm-none-eabi\include\c++\10.2.1\bits\std_function.h **** 	    {
 405              		.loc 15 184 4 is_stmt 0 view .LVU65
 406 0006 022A     		cmp	r2, #2
 407 0008 08D0     		beq	.L20
 408              	.L18:
 409              	.LVL19:
 184:e:\daisy\daisytoolchain-0.3.1\windows\arm-none-eabi\include\c++\10.2.1\bits\std_function.h **** 	    {
 410              		.loc 15 184 4 view .LVU66
 411              	.LBE4591:
 412              	.LBE4590:
 286:e:\daisy\daisytoolchain-0.3.1\windows\arm-none-eabi\include\c++\10.2.1\bits\std_function.h **** 
ARM GAS  C:\Users\etpen\AppData\Local\Temp\ccmI6ini.s 			page 36


 413              		.loc 15 286 7 view .LVU67
 414 000a 0020     		movs	r0, #0
 415              	.LVL20:
 286:e:\daisy\daisytoolchain-0.3.1\windows\arm-none-eabi\include\c++\10.2.1\bits\std_function.h **** 
 416              		.loc 15 286 7 view .LVU68
 417 000c 7047     		bx	lr
 418              	.LVL21:
 419              	.L15:
  87:e:\daisy\daisytoolchain-0.3.1\windows\arm-none-eabi\include\c++\10.2.1\bits\std_function.h ****     const void* _M_access() const { return &_M_pod_data[0]; }
 420              		.loc 15 87 37 is_stmt 1 view .LVU69
 275:e:\daisy\daisytoolchain-0.3.1\windows\arm-none-eabi\include\c++\10.2.1\bits\std_function.h **** 	    break;
 421              		.loc 15 275 43 is_stmt 0 view .LVU70
 422 000e 054B     		ldr	r3, .L21
 423 0010 0360     		str	r3, [r0]
 286:e:\daisy\daisytoolchain-0.3.1\windows\arm-none-eabi\include\c++\10.2.1\bits\std_function.h **** 
 424              		.loc 15 286 7 view .LVU71
 425 0012 0020     		movs	r0, #0
 426              	.LVL22:
 286:e:\daisy\daisytoolchain-0.3.1\windows\arm-none-eabi\include\c++\10.2.1\bits\std_function.h **** 
 427              		.loc 15 286 7 view .LVU72
 428 0014 7047     		bx	lr
 429              	.LVL23:
 430              	.L16:
  87:e:\daisy\daisytoolchain-0.3.1\windows\arm-none-eabi\include\c++\10.2.1\bits\std_function.h ****     const void* _M_access() const { return &_M_pod_data[0]; }
 431              		.loc 15 87 37 is_stmt 1 view .LVU73
 432              	.LBB4600:
 433              	.LBI4600:
 136:e:\daisy\daisytoolchain-0.3.1\windows\arm-none-eabi\include\c++\10.2.1\bits\std_function.h **** 	{
 434              		.loc 15 136 2 view .LVU74
 435              	.LBB4601:
 436              	.LBB4602:
 437              	.LBI4602:
  97:e:\daisy\daisytoolchain-0.3.1\windows\arm-none-eabi\include\c++\10.2.1\bits\std_function.h ****       { return *static_cast<const _Tp*>(_M_access()); }
 438              		.loc 15 97 7 view .LVU75
 439              	.LBB4603:
 440              	.LBI4603:
  88:e:\daisy\daisytoolchain-0.3.1\windows\arm-none-eabi\include\c++\10.2.1\bits\std_function.h **** 
 441              		.loc 15 88 17 view .LVU76
 442              	.LBB4604:
  88:e:\daisy\daisytoolchain-0.3.1\windows\arm-none-eabi\include\c++\10.2.1\bits\std_function.h **** 
 443              		.loc 15 88 37 view .LVU77
  88:e:\daisy\daisytoolchain-0.3.1\windows\arm-none-eabi\include\c++\10.2.1\bits\std_function.h **** 
 444              		.loc 15 88 37 is_stmt 0 view .LVU78
 445              	.LBE4604:
 446              	.LBE4603:
 447              	.LBE4602:
 448              	.LBE4601:
 449              	.LBE4600:
 279:e:\daisy\daisytoolchain-0.3.1\windows\arm-none-eabi\include\c++\10.2.1\bits\std_function.h **** 	    break;
 450              		.loc 15 279 36 view .LVU79
 451 0016 0160     		str	r1, [r0]
 286:e:\daisy\daisytoolchain-0.3.1\windows\arm-none-eabi\include\c++\10.2.1\bits\std_function.h **** 
 452              		.loc 15 286 7 view .LVU80
 453 0018 0020     		movs	r0, #0
 454              	.LVL24:
 286:e:\daisy\daisytoolchain-0.3.1\windows\arm-none-eabi\include\c++\10.2.1\bits\std_function.h **** 
 455              		.loc 15 286 7 view .LVU81
ARM GAS  C:\Users\etpen\AppData\Local\Temp\ccmI6ini.s 			page 37


 456 001a 7047     		bx	lr
 457              	.LVL25:
 458              	.L20:
 459              	.LBB4605:
 460              	.LBB4597:
 461              	.LBB4592:
 462              	.LBI4592:
 150:e:\daisy\daisytoolchain-0.3.1\windows\arm-none-eabi\include\c++\10.2.1\bits\std_function.h **** 	{
 463              		.loc 15 150 2 is_stmt 1 view .LVU82
 150:e:\daisy\daisytoolchain-0.3.1\windows\arm-none-eabi\include\c++\10.2.1\bits\std_function.h **** 	{
 464              		.loc 15 150 2 is_stmt 0 view .LVU83
 465              	.LBE4592:
 466              	.LBE4597:
 467              	.LBE4605:
  88:e:\daisy\daisytoolchain-0.3.1\windows\arm-none-eabi\include\c++\10.2.1\bits\std_function.h **** 
 468              		.loc 15 88 37 is_stmt 1 view .LVU84
 469              	.LBB4606:
 470              	.LBB4598:
 471              	.LBB4595:
 472              	.LBB4593:
 152:e:\daisy\daisytoolchain-0.3.1\windows\arm-none-eabi\include\c++\10.2.1\bits\std_function.h **** 	}
 473              		.loc 15 152 4 is_stmt 0 view .LVU85
 474 001c 0B68     		ldr	r3, [r1]
 475              	.LVL26:
 152:e:\daisy\daisytoolchain-0.3.1\windows\arm-none-eabi\include\c++\10.2.1\bits\std_function.h **** 	}
 476              		.loc 15 152 4 view .LVU86
 477              	.LBE4593:
 478              	.LBE4595:
 479              	.LBE4598:
 480              	.LBE4606:
  87:e:\daisy\daisytoolchain-0.3.1\windows\arm-none-eabi\include\c++\10.2.1\bits\std_function.h ****     const void* _M_access() const { return &_M_pod_data[0]; }
 481              		.loc 15 87 37 is_stmt 1 view .LVU87
 482              		.file 18 "e:\\daisy\\daisytoolchain-0.3.1\\windows\\arm-none-eabi\\include\\c++\\10.2.1\\new"
   1:e:\daisy\daisytoolchain-0.3.1\windows\arm-none-eabi\include\c++\10.2.1\new **** // The -*- C++ -*- dynamic memory management header.
   2:e:\daisy\daisytoolchain-0.3.1\windows\arm-none-eabi\include\c++\10.2.1\new **** 
   3:e:\daisy\daisytoolchain-0.3.1\windows\arm-none-eabi\include\c++\10.2.1\new **** // Copyright (C) 1994-2020 Free Software Foundation, Inc.
   4:e:\daisy\daisytoolchain-0.3.1\windows\arm-none-eabi\include\c++\10.2.1\new **** 
   5:e:\daisy\daisytoolchain-0.3.1\windows\arm-none-eabi\include\c++\10.2.1\new **** // This file is part of GCC.
   6:e:\daisy\daisytoolchain-0.3.1\windows\arm-none-eabi\include\c++\10.2.1\new **** //
   7:e:\daisy\daisytoolchain-0.3.1\windows\arm-none-eabi\include\c++\10.2.1\new **** // GCC is free software; you can redistribute it and/or modify
   8:e:\daisy\daisytoolchain-0.3.1\windows\arm-none-eabi\include\c++\10.2.1\new **** // it under the terms of the GNU General Public License as published by
   9:e:\daisy\daisytoolchain-0.3.1\windows\arm-none-eabi\include\c++\10.2.1\new **** // the Free Software Foundation; either version 3, or (at your option)
  10:e:\daisy\daisytoolchain-0.3.1\windows\arm-none-eabi\include\c++\10.2.1\new **** // any later version.
  11:e:\daisy\daisytoolchain-0.3.1\windows\arm-none-eabi\include\c++\10.2.1\new **** // 
  12:e:\daisy\daisytoolchain-0.3.1\windows\arm-none-eabi\include\c++\10.2.1\new **** // GCC is distributed in the hope that it will be useful,
  13:e:\daisy\daisytoolchain-0.3.1\windows\arm-none-eabi\include\c++\10.2.1\new **** // but WITHOUT ANY WARRANTY; without even the implied warranty of
  14:e:\daisy\daisytoolchain-0.3.1\windows\arm-none-eabi\include\c++\10.2.1\new **** // MERCHANTABILITY or FITNESS FOR A PARTICULAR PURPOSE.  See the
  15:e:\daisy\daisytoolchain-0.3.1\windows\arm-none-eabi\include\c++\10.2.1\new **** // GNU General Public License for more details.
  16:e:\daisy\daisytoolchain-0.3.1\windows\arm-none-eabi\include\c++\10.2.1\new **** // 
  17:e:\daisy\daisytoolchain-0.3.1\windows\arm-none-eabi\include\c++\10.2.1\new **** // Under Section 7 of GPL version 3, you are granted additional
  18:e:\daisy\daisytoolchain-0.3.1\windows\arm-none-eabi\include\c++\10.2.1\new **** // permissions described in the GCC Runtime Library Exception, version
  19:e:\daisy\daisytoolchain-0.3.1\windows\arm-none-eabi\include\c++\10.2.1\new **** // 3.1, as published by the Free Software Foundation.
  20:e:\daisy\daisytoolchain-0.3.1\windows\arm-none-eabi\include\c++\10.2.1\new **** 
  21:e:\daisy\daisytoolchain-0.3.1\windows\arm-none-eabi\include\c++\10.2.1\new **** // You should have received a copy of the GNU General Public License and
  22:e:\daisy\daisytoolchain-0.3.1\windows\arm-none-eabi\include\c++\10.2.1\new **** // a copy of the GCC Runtime Library Exception along with this program;
  23:e:\daisy\daisytoolchain-0.3.1\windows\arm-none-eabi\include\c++\10.2.1\new **** // see the files COPYING3 and COPYING.RUNTIME respectively.  If not, see
  24:e:\daisy\daisytoolchain-0.3.1\windows\arm-none-eabi\include\c++\10.2.1\new **** // <http://www.gnu.org/licenses/>.
ARM GAS  C:\Users\etpen\AppData\Local\Temp\ccmI6ini.s 			page 38


  25:e:\daisy\daisytoolchain-0.3.1\windows\arm-none-eabi\include\c++\10.2.1\new **** 
  26:e:\daisy\daisytoolchain-0.3.1\windows\arm-none-eabi\include\c++\10.2.1\new **** /** @file new
  27:e:\daisy\daisytoolchain-0.3.1\windows\arm-none-eabi\include\c++\10.2.1\new ****  *  This is a Standard C++ Library header.
  28:e:\daisy\daisytoolchain-0.3.1\windows\arm-none-eabi\include\c++\10.2.1\new ****  *
  29:e:\daisy\daisytoolchain-0.3.1\windows\arm-none-eabi\include\c++\10.2.1\new ****  *  The header @c new defines several functions to manage dynamic memory and
  30:e:\daisy\daisytoolchain-0.3.1\windows\arm-none-eabi\include\c++\10.2.1\new ****  *  handling memory allocation errors; see
  31:e:\daisy\daisytoolchain-0.3.1\windows\arm-none-eabi\include\c++\10.2.1\new ****  *  https://gcc.gnu.org/onlinedocs/libstdc++/manual/dynamic_memory.html
  32:e:\daisy\daisytoolchain-0.3.1\windows\arm-none-eabi\include\c++\10.2.1\new ****  *  for more.
  33:e:\daisy\daisytoolchain-0.3.1\windows\arm-none-eabi\include\c++\10.2.1\new ****  */
  34:e:\daisy\daisytoolchain-0.3.1\windows\arm-none-eabi\include\c++\10.2.1\new **** 
  35:e:\daisy\daisytoolchain-0.3.1\windows\arm-none-eabi\include\c++\10.2.1\new **** #ifndef _NEW
  36:e:\daisy\daisytoolchain-0.3.1\windows\arm-none-eabi\include\c++\10.2.1\new **** #define _NEW
  37:e:\daisy\daisytoolchain-0.3.1\windows\arm-none-eabi\include\c++\10.2.1\new **** 
  38:e:\daisy\daisytoolchain-0.3.1\windows\arm-none-eabi\include\c++\10.2.1\new **** #pragma GCC system_header
  39:e:\daisy\daisytoolchain-0.3.1\windows\arm-none-eabi\include\c++\10.2.1\new **** 
  40:e:\daisy\daisytoolchain-0.3.1\windows\arm-none-eabi\include\c++\10.2.1\new **** #include <bits/c++config.h>
  41:e:\daisy\daisytoolchain-0.3.1\windows\arm-none-eabi\include\c++\10.2.1\new **** #include <exception>
  42:e:\daisy\daisytoolchain-0.3.1\windows\arm-none-eabi\include\c++\10.2.1\new **** 
  43:e:\daisy\daisytoolchain-0.3.1\windows\arm-none-eabi\include\c++\10.2.1\new **** #pragma GCC visibility push(default)
  44:e:\daisy\daisytoolchain-0.3.1\windows\arm-none-eabi\include\c++\10.2.1\new **** 
  45:e:\daisy\daisytoolchain-0.3.1\windows\arm-none-eabi\include\c++\10.2.1\new **** extern "C++" {
  46:e:\daisy\daisytoolchain-0.3.1\windows\arm-none-eabi\include\c++\10.2.1\new **** 
  47:e:\daisy\daisytoolchain-0.3.1\windows\arm-none-eabi\include\c++\10.2.1\new **** namespace std 
  48:e:\daisy\daisytoolchain-0.3.1\windows\arm-none-eabi\include\c++\10.2.1\new **** {
  49:e:\daisy\daisytoolchain-0.3.1\windows\arm-none-eabi\include\c++\10.2.1\new ****   /**
  50:e:\daisy\daisytoolchain-0.3.1\windows\arm-none-eabi\include\c++\10.2.1\new ****    *  @brief  Exception possibly thrown by @c new.
  51:e:\daisy\daisytoolchain-0.3.1\windows\arm-none-eabi\include\c++\10.2.1\new ****    *  @ingroup exceptions
  52:e:\daisy\daisytoolchain-0.3.1\windows\arm-none-eabi\include\c++\10.2.1\new ****    *
  53:e:\daisy\daisytoolchain-0.3.1\windows\arm-none-eabi\include\c++\10.2.1\new ****    *  @c bad_alloc (or classes derived from it) is used to report allocation
  54:e:\daisy\daisytoolchain-0.3.1\windows\arm-none-eabi\include\c++\10.2.1\new ****    *  errors from the throwing forms of @c new.  */
  55:e:\daisy\daisytoolchain-0.3.1\windows\arm-none-eabi\include\c++\10.2.1\new ****   class bad_alloc : public exception 
  56:e:\daisy\daisytoolchain-0.3.1\windows\arm-none-eabi\include\c++\10.2.1\new ****   {
  57:e:\daisy\daisytoolchain-0.3.1\windows\arm-none-eabi\include\c++\10.2.1\new ****   public:
  58:e:\daisy\daisytoolchain-0.3.1\windows\arm-none-eabi\include\c++\10.2.1\new ****     bad_alloc() throw() { }
  59:e:\daisy\daisytoolchain-0.3.1\windows\arm-none-eabi\include\c++\10.2.1\new **** 
  60:e:\daisy\daisytoolchain-0.3.1\windows\arm-none-eabi\include\c++\10.2.1\new **** #if __cplusplus >= 201103L
  61:e:\daisy\daisytoolchain-0.3.1\windows\arm-none-eabi\include\c++\10.2.1\new ****     bad_alloc(const bad_alloc&) = default;
  62:e:\daisy\daisytoolchain-0.3.1\windows\arm-none-eabi\include\c++\10.2.1\new ****     bad_alloc& operator=(const bad_alloc&) = default;
  63:e:\daisy\daisytoolchain-0.3.1\windows\arm-none-eabi\include\c++\10.2.1\new **** #endif
  64:e:\daisy\daisytoolchain-0.3.1\windows\arm-none-eabi\include\c++\10.2.1\new **** 
  65:e:\daisy\daisytoolchain-0.3.1\windows\arm-none-eabi\include\c++\10.2.1\new ****     // This declaration is not useless:
  66:e:\daisy\daisytoolchain-0.3.1\windows\arm-none-eabi\include\c++\10.2.1\new ****     // http://gcc.gnu.org/onlinedocs/gcc-3.0.2/gcc_6.html#SEC118
  67:e:\daisy\daisytoolchain-0.3.1\windows\arm-none-eabi\include\c++\10.2.1\new ****     virtual ~bad_alloc() throw();
  68:e:\daisy\daisytoolchain-0.3.1\windows\arm-none-eabi\include\c++\10.2.1\new **** 
  69:e:\daisy\daisytoolchain-0.3.1\windows\arm-none-eabi\include\c++\10.2.1\new ****     // See comment in eh_exception.cc.
  70:e:\daisy\daisytoolchain-0.3.1\windows\arm-none-eabi\include\c++\10.2.1\new ****     virtual const char* what() const throw();
  71:e:\daisy\daisytoolchain-0.3.1\windows\arm-none-eabi\include\c++\10.2.1\new ****   };
  72:e:\daisy\daisytoolchain-0.3.1\windows\arm-none-eabi\include\c++\10.2.1\new **** 
  73:e:\daisy\daisytoolchain-0.3.1\windows\arm-none-eabi\include\c++\10.2.1\new **** #if __cplusplus >= 201103L
  74:e:\daisy\daisytoolchain-0.3.1\windows\arm-none-eabi\include\c++\10.2.1\new ****   class bad_array_new_length : public bad_alloc
  75:e:\daisy\daisytoolchain-0.3.1\windows\arm-none-eabi\include\c++\10.2.1\new ****   {
  76:e:\daisy\daisytoolchain-0.3.1\windows\arm-none-eabi\include\c++\10.2.1\new ****   public:
  77:e:\daisy\daisytoolchain-0.3.1\windows\arm-none-eabi\include\c++\10.2.1\new ****     bad_array_new_length() throw() { }
  78:e:\daisy\daisytoolchain-0.3.1\windows\arm-none-eabi\include\c++\10.2.1\new **** 
  79:e:\daisy\daisytoolchain-0.3.1\windows\arm-none-eabi\include\c++\10.2.1\new ****     // This declaration is not useless:
  80:e:\daisy\daisytoolchain-0.3.1\windows\arm-none-eabi\include\c++\10.2.1\new ****     // http://gcc.gnu.org/onlinedocs/gcc-3.0.2/gcc_6.html#SEC118
  81:e:\daisy\daisytoolchain-0.3.1\windows\arm-none-eabi\include\c++\10.2.1\new ****     virtual ~bad_array_new_length() throw();
ARM GAS  C:\Users\etpen\AppData\Local\Temp\ccmI6ini.s 			page 39


  82:e:\daisy\daisytoolchain-0.3.1\windows\arm-none-eabi\include\c++\10.2.1\new **** 
  83:e:\daisy\daisytoolchain-0.3.1\windows\arm-none-eabi\include\c++\10.2.1\new ****     // See comment in eh_exception.cc.
  84:e:\daisy\daisytoolchain-0.3.1\windows\arm-none-eabi\include\c++\10.2.1\new ****     virtual const char* what() const throw();
  85:e:\daisy\daisytoolchain-0.3.1\windows\arm-none-eabi\include\c++\10.2.1\new ****   };
  86:e:\daisy\daisytoolchain-0.3.1\windows\arm-none-eabi\include\c++\10.2.1\new **** #endif
  87:e:\daisy\daisytoolchain-0.3.1\windows\arm-none-eabi\include\c++\10.2.1\new **** 
  88:e:\daisy\daisytoolchain-0.3.1\windows\arm-none-eabi\include\c++\10.2.1\new **** #if __cpp_aligned_new
  89:e:\daisy\daisytoolchain-0.3.1\windows\arm-none-eabi\include\c++\10.2.1\new ****   enum class align_val_t: size_t {};
  90:e:\daisy\daisytoolchain-0.3.1\windows\arm-none-eabi\include\c++\10.2.1\new **** #endif
  91:e:\daisy\daisytoolchain-0.3.1\windows\arm-none-eabi\include\c++\10.2.1\new **** 
  92:e:\daisy\daisytoolchain-0.3.1\windows\arm-none-eabi\include\c++\10.2.1\new ****   struct nothrow_t
  93:e:\daisy\daisytoolchain-0.3.1\windows\arm-none-eabi\include\c++\10.2.1\new ****   {
  94:e:\daisy\daisytoolchain-0.3.1\windows\arm-none-eabi\include\c++\10.2.1\new **** #if __cplusplus >= 201103L
  95:e:\daisy\daisytoolchain-0.3.1\windows\arm-none-eabi\include\c++\10.2.1\new ****     explicit nothrow_t() = default;
  96:e:\daisy\daisytoolchain-0.3.1\windows\arm-none-eabi\include\c++\10.2.1\new **** #endif
  97:e:\daisy\daisytoolchain-0.3.1\windows\arm-none-eabi\include\c++\10.2.1\new ****   };
  98:e:\daisy\daisytoolchain-0.3.1\windows\arm-none-eabi\include\c++\10.2.1\new **** 
  99:e:\daisy\daisytoolchain-0.3.1\windows\arm-none-eabi\include\c++\10.2.1\new ****   extern const nothrow_t nothrow;
 100:e:\daisy\daisytoolchain-0.3.1\windows\arm-none-eabi\include\c++\10.2.1\new **** 
 101:e:\daisy\daisytoolchain-0.3.1\windows\arm-none-eabi\include\c++\10.2.1\new ****   /** If you write your own error handler to be called by @c new, it must
 102:e:\daisy\daisytoolchain-0.3.1\windows\arm-none-eabi\include\c++\10.2.1\new ****    *  be of this type.  */
 103:e:\daisy\daisytoolchain-0.3.1\windows\arm-none-eabi\include\c++\10.2.1\new ****   typedef void (*new_handler)();
 104:e:\daisy\daisytoolchain-0.3.1\windows\arm-none-eabi\include\c++\10.2.1\new **** 
 105:e:\daisy\daisytoolchain-0.3.1\windows\arm-none-eabi\include\c++\10.2.1\new ****   /// Takes a replacement handler as the argument, returns the
 106:e:\daisy\daisytoolchain-0.3.1\windows\arm-none-eabi\include\c++\10.2.1\new ****   /// previous handler.
 107:e:\daisy\daisytoolchain-0.3.1\windows\arm-none-eabi\include\c++\10.2.1\new ****   new_handler set_new_handler(new_handler) throw();
 108:e:\daisy\daisytoolchain-0.3.1\windows\arm-none-eabi\include\c++\10.2.1\new **** 
 109:e:\daisy\daisytoolchain-0.3.1\windows\arm-none-eabi\include\c++\10.2.1\new **** #if __cplusplus >= 201103L
 110:e:\daisy\daisytoolchain-0.3.1\windows\arm-none-eabi\include\c++\10.2.1\new ****   /// Return the current new handler.
 111:e:\daisy\daisytoolchain-0.3.1\windows\arm-none-eabi\include\c++\10.2.1\new ****   new_handler get_new_handler() noexcept;
 112:e:\daisy\daisytoolchain-0.3.1\windows\arm-none-eabi\include\c++\10.2.1\new **** #endif
 113:e:\daisy\daisytoolchain-0.3.1\windows\arm-none-eabi\include\c++\10.2.1\new **** } // namespace std
 114:e:\daisy\daisytoolchain-0.3.1\windows\arm-none-eabi\include\c++\10.2.1\new **** 
 115:e:\daisy\daisytoolchain-0.3.1\windows\arm-none-eabi\include\c++\10.2.1\new **** //@{
 116:e:\daisy\daisytoolchain-0.3.1\windows\arm-none-eabi\include\c++\10.2.1\new **** /** These are replaceable signatures:
 117:e:\daisy\daisytoolchain-0.3.1\windows\arm-none-eabi\include\c++\10.2.1\new ****  *  - normal single new and delete (no arguments, throw @c bad_alloc on error)
 118:e:\daisy\daisytoolchain-0.3.1\windows\arm-none-eabi\include\c++\10.2.1\new ****  *  - normal array new and delete (same)
 119:e:\daisy\daisytoolchain-0.3.1\windows\arm-none-eabi\include\c++\10.2.1\new ****  *  - @c nothrow single new and delete (take a @c nothrow argument, return
 120:e:\daisy\daisytoolchain-0.3.1\windows\arm-none-eabi\include\c++\10.2.1\new ****  *    @c NULL on error)
 121:e:\daisy\daisytoolchain-0.3.1\windows\arm-none-eabi\include\c++\10.2.1\new ****  *  - @c nothrow array new and delete (same)
 122:e:\daisy\daisytoolchain-0.3.1\windows\arm-none-eabi\include\c++\10.2.1\new ****  *
 123:e:\daisy\daisytoolchain-0.3.1\windows\arm-none-eabi\include\c++\10.2.1\new ****  *  Placement new and delete signatures (take a memory address argument,
 124:e:\daisy\daisytoolchain-0.3.1\windows\arm-none-eabi\include\c++\10.2.1\new ****  *  does nothing) may not be replaced by a user's program.
 125:e:\daisy\daisytoolchain-0.3.1\windows\arm-none-eabi\include\c++\10.2.1\new **** */
 126:e:\daisy\daisytoolchain-0.3.1\windows\arm-none-eabi\include\c++\10.2.1\new **** _GLIBCXX_NODISCARD void* operator new(std::size_t) _GLIBCXX_THROW (std::bad_alloc)
 127:e:\daisy\daisytoolchain-0.3.1\windows\arm-none-eabi\include\c++\10.2.1\new ****   __attribute__((__externally_visible__));
 128:e:\daisy\daisytoolchain-0.3.1\windows\arm-none-eabi\include\c++\10.2.1\new **** _GLIBCXX_NODISCARD void* operator new[](std::size_t) _GLIBCXX_THROW (std::bad_alloc)
 129:e:\daisy\daisytoolchain-0.3.1\windows\arm-none-eabi\include\c++\10.2.1\new ****   __attribute__((__externally_visible__));
 130:e:\daisy\daisytoolchain-0.3.1\windows\arm-none-eabi\include\c++\10.2.1\new **** void operator delete(void*) _GLIBCXX_USE_NOEXCEPT
 131:e:\daisy\daisytoolchain-0.3.1\windows\arm-none-eabi\include\c++\10.2.1\new ****   __attribute__((__externally_visible__));
 132:e:\daisy\daisytoolchain-0.3.1\windows\arm-none-eabi\include\c++\10.2.1\new **** void operator delete[](void*) _GLIBCXX_USE_NOEXCEPT
 133:e:\daisy\daisytoolchain-0.3.1\windows\arm-none-eabi\include\c++\10.2.1\new ****   __attribute__((__externally_visible__));
 134:e:\daisy\daisytoolchain-0.3.1\windows\arm-none-eabi\include\c++\10.2.1\new **** #if __cpp_sized_deallocation
 135:e:\daisy\daisytoolchain-0.3.1\windows\arm-none-eabi\include\c++\10.2.1\new **** void operator delete(void*, std::size_t) _GLIBCXX_USE_NOEXCEPT
 136:e:\daisy\daisytoolchain-0.3.1\windows\arm-none-eabi\include\c++\10.2.1\new ****   __attribute__((__externally_visible__));
 137:e:\daisy\daisytoolchain-0.3.1\windows\arm-none-eabi\include\c++\10.2.1\new **** void operator delete[](void*, std::size_t) _GLIBCXX_USE_NOEXCEPT
 138:e:\daisy\daisytoolchain-0.3.1\windows\arm-none-eabi\include\c++\10.2.1\new ****   __attribute__((__externally_visible__));
ARM GAS  C:\Users\etpen\AppData\Local\Temp\ccmI6ini.s 			page 40


 139:e:\daisy\daisytoolchain-0.3.1\windows\arm-none-eabi\include\c++\10.2.1\new **** #endif
 140:e:\daisy\daisytoolchain-0.3.1\windows\arm-none-eabi\include\c++\10.2.1\new **** _GLIBCXX_NODISCARD void* operator new(std::size_t, const std::nothrow_t&) _GLIBCXX_USE_NOEXCEPT
 141:e:\daisy\daisytoolchain-0.3.1\windows\arm-none-eabi\include\c++\10.2.1\new ****   __attribute__((__externally_visible__, __malloc__));
 142:e:\daisy\daisytoolchain-0.3.1\windows\arm-none-eabi\include\c++\10.2.1\new **** _GLIBCXX_NODISCARD void* operator new[](std::size_t, const std::nothrow_t&) _GLIBCXX_USE_NOEXCEPT
 143:e:\daisy\daisytoolchain-0.3.1\windows\arm-none-eabi\include\c++\10.2.1\new ****   __attribute__((__externally_visible__, __malloc__));
 144:e:\daisy\daisytoolchain-0.3.1\windows\arm-none-eabi\include\c++\10.2.1\new **** void operator delete(void*, const std::nothrow_t&) _GLIBCXX_USE_NOEXCEPT
 145:e:\daisy\daisytoolchain-0.3.1\windows\arm-none-eabi\include\c++\10.2.1\new ****   __attribute__((__externally_visible__));
 146:e:\daisy\daisytoolchain-0.3.1\windows\arm-none-eabi\include\c++\10.2.1\new **** void operator delete[](void*, const std::nothrow_t&) _GLIBCXX_USE_NOEXCEPT
 147:e:\daisy\daisytoolchain-0.3.1\windows\arm-none-eabi\include\c++\10.2.1\new ****   __attribute__((__externally_visible__));
 148:e:\daisy\daisytoolchain-0.3.1\windows\arm-none-eabi\include\c++\10.2.1\new **** #if __cpp_aligned_new
 149:e:\daisy\daisytoolchain-0.3.1\windows\arm-none-eabi\include\c++\10.2.1\new **** _GLIBCXX_NODISCARD void* operator new(std::size_t, std::align_val_t)
 150:e:\daisy\daisytoolchain-0.3.1\windows\arm-none-eabi\include\c++\10.2.1\new ****   __attribute__((__externally_visible__));
 151:e:\daisy\daisytoolchain-0.3.1\windows\arm-none-eabi\include\c++\10.2.1\new **** _GLIBCXX_NODISCARD void* operator new(std::size_t, std::align_val_t, const std::nothrow_t&)
 152:e:\daisy\daisytoolchain-0.3.1\windows\arm-none-eabi\include\c++\10.2.1\new ****   _GLIBCXX_USE_NOEXCEPT __attribute__((__externally_visible__, __malloc__));
 153:e:\daisy\daisytoolchain-0.3.1\windows\arm-none-eabi\include\c++\10.2.1\new **** void operator delete(void*, std::align_val_t)
 154:e:\daisy\daisytoolchain-0.3.1\windows\arm-none-eabi\include\c++\10.2.1\new ****   _GLIBCXX_USE_NOEXCEPT __attribute__((__externally_visible__));
 155:e:\daisy\daisytoolchain-0.3.1\windows\arm-none-eabi\include\c++\10.2.1\new **** void operator delete(void*, std::align_val_t, const std::nothrow_t&)
 156:e:\daisy\daisytoolchain-0.3.1\windows\arm-none-eabi\include\c++\10.2.1\new ****   _GLIBCXX_USE_NOEXCEPT __attribute__((__externally_visible__));
 157:e:\daisy\daisytoolchain-0.3.1\windows\arm-none-eabi\include\c++\10.2.1\new **** _GLIBCXX_NODISCARD void* operator new[](std::size_t, std::align_val_t)
 158:e:\daisy\daisytoolchain-0.3.1\windows\arm-none-eabi\include\c++\10.2.1\new ****   __attribute__((__externally_visible__));
 159:e:\daisy\daisytoolchain-0.3.1\windows\arm-none-eabi\include\c++\10.2.1\new **** _GLIBCXX_NODISCARD void* operator new[](std::size_t, std::align_val_t, const std::nothrow_t&)
 160:e:\daisy\daisytoolchain-0.3.1\windows\arm-none-eabi\include\c++\10.2.1\new ****   _GLIBCXX_USE_NOEXCEPT __attribute__((__externally_visible__, __malloc__));
 161:e:\daisy\daisytoolchain-0.3.1\windows\arm-none-eabi\include\c++\10.2.1\new **** void operator delete[](void*, std::align_val_t)
 162:e:\daisy\daisytoolchain-0.3.1\windows\arm-none-eabi\include\c++\10.2.1\new ****   _GLIBCXX_USE_NOEXCEPT __attribute__((__externally_visible__));
 163:e:\daisy\daisytoolchain-0.3.1\windows\arm-none-eabi\include\c++\10.2.1\new **** void operator delete[](void*, std::align_val_t, const std::nothrow_t&)
 164:e:\daisy\daisytoolchain-0.3.1\windows\arm-none-eabi\include\c++\10.2.1\new ****   _GLIBCXX_USE_NOEXCEPT __attribute__((__externally_visible__));
 165:e:\daisy\daisytoolchain-0.3.1\windows\arm-none-eabi\include\c++\10.2.1\new **** #if __cpp_sized_deallocation
 166:e:\daisy\daisytoolchain-0.3.1\windows\arm-none-eabi\include\c++\10.2.1\new **** void operator delete(void*, std::size_t, std::align_val_t)
 167:e:\daisy\daisytoolchain-0.3.1\windows\arm-none-eabi\include\c++\10.2.1\new ****   _GLIBCXX_USE_NOEXCEPT __attribute__((__externally_visible__));
 168:e:\daisy\daisytoolchain-0.3.1\windows\arm-none-eabi\include\c++\10.2.1\new **** void operator delete[](void*, std::size_t, std::align_val_t)
 169:e:\daisy\daisytoolchain-0.3.1\windows\arm-none-eabi\include\c++\10.2.1\new ****   _GLIBCXX_USE_NOEXCEPT __attribute__((__externally_visible__));
 170:e:\daisy\daisytoolchain-0.3.1\windows\arm-none-eabi\include\c++\10.2.1\new **** #endif // __cpp_sized_deallocation
 171:e:\daisy\daisytoolchain-0.3.1\windows\arm-none-eabi\include\c++\10.2.1\new **** #endif // __cpp_aligned_new
 172:e:\daisy\daisytoolchain-0.3.1\windows\arm-none-eabi\include\c++\10.2.1\new **** 
 173:e:\daisy\daisytoolchain-0.3.1\windows\arm-none-eabi\include\c++\10.2.1\new **** // Default placement versions of operator new.
 174:e:\daisy\daisytoolchain-0.3.1\windows\arm-none-eabi\include\c++\10.2.1\new **** _GLIBCXX_NODISCARD inline void* operator new(std::size_t, void* __p) _GLIBCXX_USE_NOEXCEPT
 175:e:\daisy\daisytoolchain-0.3.1\windows\arm-none-eabi\include\c++\10.2.1\new **** { return __p; }
 483              		.loc 18 175 3 view .LVU88
 484              	.LBB4607:
 485              	.LBB4599:
 486              	.LBB4596:
 487              	.LBB4594:
 152:e:\daisy\daisytoolchain-0.3.1\windows\arm-none-eabi\include\c++\10.2.1\bits\std_function.h **** 	}
 488              		.loc 15 152 4 is_stmt 0 view .LVU89
 489 001e 0360     		str	r3, [r0]
 490              	.LVL27:
 152:e:\daisy\daisytoolchain-0.3.1\windows\arm-none-eabi\include\c++\10.2.1\bits\std_function.h **** 	}
 491              		.loc 15 152 4 view .LVU90
 492              	.LBE4594:
 493              	.LBE4596:
 197:e:\daisy\daisytoolchain-0.3.1\windows\arm-none-eabi\include\c++\10.2.1\bits\std_function.h **** 
 494              		.loc 15 197 8 view .LVU91
 495 0020 F3E7     		b	.L18
 496              	.L22:
 497 0022 00BF     		.align	2
 498              	.L21:
 499 0024 00000000 		.word	_ZTIPFvvE
ARM GAS  C:\Users\etpen\AppData\Local\Temp\ccmI6ini.s 			page 41


 500              	.LBE4599:
 501              	.LBE4607:
 502              		.cfi_endproc
 503              	.LFE5738:
 505              		.section	.text._ZNSt7__cxx1112basic_stringIcSt11char_traitsIcESaIcEEaSEOS4_.isra.0,"ax",%progbits
 506              		.align	1
 507              		.p2align 2,,3
 508              		.syntax unified
 509              		.thumb
 510              		.thumb_func
 511              		.fpu fpv5-d16
 513              	_ZNSt7__cxx1112basic_stringIcSt11char_traitsIcESaIcEEaSEOS4_.isra.0:
 514              	.LVL28:
 515              	.LFB6204:
 516              		.file 19 "e:\\daisy\\daisytoolchain-0.3.1\\windows\\arm-none-eabi\\include\\c++\\10.2.1\\bits\\bas
   1:e:\daisy\daisytoolchain-0.3.1\windows\arm-none-eabi\include\c++\10.2.1\bits\basic_string.h **** // Components for manipulating sequences of characters -*- C++ -*-
   2:e:\daisy\daisytoolchain-0.3.1\windows\arm-none-eabi\include\c++\10.2.1\bits\basic_string.h **** 
   3:e:\daisy\daisytoolchain-0.3.1\windows\arm-none-eabi\include\c++\10.2.1\bits\basic_string.h **** // Copyright (C) 1997-2020 Free Software Foundation, Inc.
   4:e:\daisy\daisytoolchain-0.3.1\windows\arm-none-eabi\include\c++\10.2.1\bits\basic_string.h **** //
   5:e:\daisy\daisytoolchain-0.3.1\windows\arm-none-eabi\include\c++\10.2.1\bits\basic_string.h **** // This file is part of the GNU ISO C++ Library.  This library is free
   6:e:\daisy\daisytoolchain-0.3.1\windows\arm-none-eabi\include\c++\10.2.1\bits\basic_string.h **** // software; you can redistribute it and/or modify it under the
   7:e:\daisy\daisytoolchain-0.3.1\windows\arm-none-eabi\include\c++\10.2.1\bits\basic_string.h **** // terms of the GNU General Public License as published by the
   8:e:\daisy\daisytoolchain-0.3.1\windows\arm-none-eabi\include\c++\10.2.1\bits\basic_string.h **** // Free Software Foundation; either version 3, or (at your option)
   9:e:\daisy\daisytoolchain-0.3.1\windows\arm-none-eabi\include\c++\10.2.1\bits\basic_string.h **** // any later version.
  10:e:\daisy\daisytoolchain-0.3.1\windows\arm-none-eabi\include\c++\10.2.1\bits\basic_string.h **** 
  11:e:\daisy\daisytoolchain-0.3.1\windows\arm-none-eabi\include\c++\10.2.1\bits\basic_string.h **** // This library is distributed in the hope that it will be useful,
  12:e:\daisy\daisytoolchain-0.3.1\windows\arm-none-eabi\include\c++\10.2.1\bits\basic_string.h **** // but WITHOUT ANY WARRANTY; without even the implied warranty of
  13:e:\daisy\daisytoolchain-0.3.1\windows\arm-none-eabi\include\c++\10.2.1\bits\basic_string.h **** // MERCHANTABILITY or FITNESS FOR A PARTICULAR PURPOSE.  See the
  14:e:\daisy\daisytoolchain-0.3.1\windows\arm-none-eabi\include\c++\10.2.1\bits\basic_string.h **** // GNU General Public License for more details.
  15:e:\daisy\daisytoolchain-0.3.1\windows\arm-none-eabi\include\c++\10.2.1\bits\basic_string.h **** 
  16:e:\daisy\daisytoolchain-0.3.1\windows\arm-none-eabi\include\c++\10.2.1\bits\basic_string.h **** // Under Section 7 of GPL version 3, you are granted additional
  17:e:\daisy\daisytoolchain-0.3.1\windows\arm-none-eabi\include\c++\10.2.1\bits\basic_string.h **** // permissions described in the GCC Runtime Library Exception, version
  18:e:\daisy\daisytoolchain-0.3.1\windows\arm-none-eabi\include\c++\10.2.1\bits\basic_string.h **** // 3.1, as published by the Free Software Foundation.
  19:e:\daisy\daisytoolchain-0.3.1\windows\arm-none-eabi\include\c++\10.2.1\bits\basic_string.h **** 
  20:e:\daisy\daisytoolchain-0.3.1\windows\arm-none-eabi\include\c++\10.2.1\bits\basic_string.h **** // You should have received a copy of the GNU General Public License and
  21:e:\daisy\daisytoolchain-0.3.1\windows\arm-none-eabi\include\c++\10.2.1\bits\basic_string.h **** // a copy of the GCC Runtime Library Exception along with this program;
  22:e:\daisy\daisytoolchain-0.3.1\windows\arm-none-eabi\include\c++\10.2.1\bits\basic_string.h **** // see the files COPYING3 and COPYING.RUNTIME respectively.  If not, see
  23:e:\daisy\daisytoolchain-0.3.1\windows\arm-none-eabi\include\c++\10.2.1\bits\basic_string.h **** // <http://www.gnu.org/licenses/>.
  24:e:\daisy\daisytoolchain-0.3.1\windows\arm-none-eabi\include\c++\10.2.1\bits\basic_string.h **** 
  25:e:\daisy\daisytoolchain-0.3.1\windows\arm-none-eabi\include\c++\10.2.1\bits\basic_string.h **** /** @file bits/basic_string.h
  26:e:\daisy\daisytoolchain-0.3.1\windows\arm-none-eabi\include\c++\10.2.1\bits\basic_string.h ****  *  This is an internal header file, included by other library headers.
  27:e:\daisy\daisytoolchain-0.3.1\windows\arm-none-eabi\include\c++\10.2.1\bits\basic_string.h ****  *  Do not attempt to use it directly. @headername{string}
  28:e:\daisy\daisytoolchain-0.3.1\windows\arm-none-eabi\include\c++\10.2.1\bits\basic_string.h ****  */
  29:e:\daisy\daisytoolchain-0.3.1\windows\arm-none-eabi\include\c++\10.2.1\bits\basic_string.h **** 
  30:e:\daisy\daisytoolchain-0.3.1\windows\arm-none-eabi\include\c++\10.2.1\bits\basic_string.h **** //
  31:e:\daisy\daisytoolchain-0.3.1\windows\arm-none-eabi\include\c++\10.2.1\bits\basic_string.h **** // ISO C++ 14882: 21 Strings library
  32:e:\daisy\daisytoolchain-0.3.1\windows\arm-none-eabi\include\c++\10.2.1\bits\basic_string.h **** //
  33:e:\daisy\daisytoolchain-0.3.1\windows\arm-none-eabi\include\c++\10.2.1\bits\basic_string.h **** 
  34:e:\daisy\daisytoolchain-0.3.1\windows\arm-none-eabi\include\c++\10.2.1\bits\basic_string.h **** #ifndef _BASIC_STRING_H
  35:e:\daisy\daisytoolchain-0.3.1\windows\arm-none-eabi\include\c++\10.2.1\bits\basic_string.h **** #define _BASIC_STRING_H 1
  36:e:\daisy\daisytoolchain-0.3.1\windows\arm-none-eabi\include\c++\10.2.1\bits\basic_string.h **** 
  37:e:\daisy\daisytoolchain-0.3.1\windows\arm-none-eabi\include\c++\10.2.1\bits\basic_string.h **** #pragma GCC system_header
  38:e:\daisy\daisytoolchain-0.3.1\windows\arm-none-eabi\include\c++\10.2.1\bits\basic_string.h **** 
  39:e:\daisy\daisytoolchain-0.3.1\windows\arm-none-eabi\include\c++\10.2.1\bits\basic_string.h **** #include <ext/atomicity.h>
  40:e:\daisy\daisytoolchain-0.3.1\windows\arm-none-eabi\include\c++\10.2.1\bits\basic_string.h **** #include <ext/alloc_traits.h>
  41:e:\daisy\daisytoolchain-0.3.1\windows\arm-none-eabi\include\c++\10.2.1\bits\basic_string.h **** #include <debug/debug.h>
  42:e:\daisy\daisytoolchain-0.3.1\windows\arm-none-eabi\include\c++\10.2.1\bits\basic_string.h **** 
ARM GAS  C:\Users\etpen\AppData\Local\Temp\ccmI6ini.s 			page 42


  43:e:\daisy\daisytoolchain-0.3.1\windows\arm-none-eabi\include\c++\10.2.1\bits\basic_string.h **** #if __cplusplus >= 201103L
  44:e:\daisy\daisytoolchain-0.3.1\windows\arm-none-eabi\include\c++\10.2.1\bits\basic_string.h **** #include <initializer_list>
  45:e:\daisy\daisytoolchain-0.3.1\windows\arm-none-eabi\include\c++\10.2.1\bits\basic_string.h **** #endif
  46:e:\daisy\daisytoolchain-0.3.1\windows\arm-none-eabi\include\c++\10.2.1\bits\basic_string.h **** 
  47:e:\daisy\daisytoolchain-0.3.1\windows\arm-none-eabi\include\c++\10.2.1\bits\basic_string.h **** #if __cplusplus >= 201703L
  48:e:\daisy\daisytoolchain-0.3.1\windows\arm-none-eabi\include\c++\10.2.1\bits\basic_string.h **** # include <string_view>
  49:e:\daisy\daisytoolchain-0.3.1\windows\arm-none-eabi\include\c++\10.2.1\bits\basic_string.h **** #endif
  50:e:\daisy\daisytoolchain-0.3.1\windows\arm-none-eabi\include\c++\10.2.1\bits\basic_string.h **** 
  51:e:\daisy\daisytoolchain-0.3.1\windows\arm-none-eabi\include\c++\10.2.1\bits\basic_string.h **** 
  52:e:\daisy\daisytoolchain-0.3.1\windows\arm-none-eabi\include\c++\10.2.1\bits\basic_string.h **** namespace std _GLIBCXX_VISIBILITY(default)
  53:e:\daisy\daisytoolchain-0.3.1\windows\arm-none-eabi\include\c++\10.2.1\bits\basic_string.h **** {
  54:e:\daisy\daisytoolchain-0.3.1\windows\arm-none-eabi\include\c++\10.2.1\bits\basic_string.h **** _GLIBCXX_BEGIN_NAMESPACE_VERSION
  55:e:\daisy\daisytoolchain-0.3.1\windows\arm-none-eabi\include\c++\10.2.1\bits\basic_string.h **** 
  56:e:\daisy\daisytoolchain-0.3.1\windows\arm-none-eabi\include\c++\10.2.1\bits\basic_string.h **** #if _GLIBCXX_USE_CXX11_ABI
  57:e:\daisy\daisytoolchain-0.3.1\windows\arm-none-eabi\include\c++\10.2.1\bits\basic_string.h **** _GLIBCXX_BEGIN_NAMESPACE_CXX11
  58:e:\daisy\daisytoolchain-0.3.1\windows\arm-none-eabi\include\c++\10.2.1\bits\basic_string.h ****   /**
  59:e:\daisy\daisytoolchain-0.3.1\windows\arm-none-eabi\include\c++\10.2.1\bits\basic_string.h ****    *  @class basic_string basic_string.h <string>
  60:e:\daisy\daisytoolchain-0.3.1\windows\arm-none-eabi\include\c++\10.2.1\bits\basic_string.h ****    *  @brief  Managing sequences of characters and character-like objects.
  61:e:\daisy\daisytoolchain-0.3.1\windows\arm-none-eabi\include\c++\10.2.1\bits\basic_string.h ****    *
  62:e:\daisy\daisytoolchain-0.3.1\windows\arm-none-eabi\include\c++\10.2.1\bits\basic_string.h ****    *  @ingroup strings
  63:e:\daisy\daisytoolchain-0.3.1\windows\arm-none-eabi\include\c++\10.2.1\bits\basic_string.h ****    *  @ingroup sequences
  64:e:\daisy\daisytoolchain-0.3.1\windows\arm-none-eabi\include\c++\10.2.1\bits\basic_string.h ****    *
  65:e:\daisy\daisytoolchain-0.3.1\windows\arm-none-eabi\include\c++\10.2.1\bits\basic_string.h ****    *  @tparam _CharT  Type of character
  66:e:\daisy\daisytoolchain-0.3.1\windows\arm-none-eabi\include\c++\10.2.1\bits\basic_string.h ****    *  @tparam _Traits  Traits for character type, defaults to
  67:e:\daisy\daisytoolchain-0.3.1\windows\arm-none-eabi\include\c++\10.2.1\bits\basic_string.h ****    *                   char_traits<_CharT>.
  68:e:\daisy\daisytoolchain-0.3.1\windows\arm-none-eabi\include\c++\10.2.1\bits\basic_string.h ****    *  @tparam _Alloc  Allocator type, defaults to allocator<_CharT>.
  69:e:\daisy\daisytoolchain-0.3.1\windows\arm-none-eabi\include\c++\10.2.1\bits\basic_string.h ****    *
  70:e:\daisy\daisytoolchain-0.3.1\windows\arm-none-eabi\include\c++\10.2.1\bits\basic_string.h ****    *  Meets the requirements of a <a href="tables.html#65">container</a>, a
  71:e:\daisy\daisytoolchain-0.3.1\windows\arm-none-eabi\include\c++\10.2.1\bits\basic_string.h ****    *  <a href="tables.html#66">reversible container</a>, and a
  72:e:\daisy\daisytoolchain-0.3.1\windows\arm-none-eabi\include\c++\10.2.1\bits\basic_string.h ****    *  <a href="tables.html#67">sequence</a>.  Of the
  73:e:\daisy\daisytoolchain-0.3.1\windows\arm-none-eabi\include\c++\10.2.1\bits\basic_string.h ****    *  <a href="tables.html#68">optional sequence requirements</a>, only
  74:e:\daisy\daisytoolchain-0.3.1\windows\arm-none-eabi\include\c++\10.2.1\bits\basic_string.h ****    *  @c push_back, @c at, and @c %array access are supported.
  75:e:\daisy\daisytoolchain-0.3.1\windows\arm-none-eabi\include\c++\10.2.1\bits\basic_string.h ****    */
  76:e:\daisy\daisytoolchain-0.3.1\windows\arm-none-eabi\include\c++\10.2.1\bits\basic_string.h ****   template<typename _CharT, typename _Traits, typename _Alloc>
  77:e:\daisy\daisytoolchain-0.3.1\windows\arm-none-eabi\include\c++\10.2.1\bits\basic_string.h ****     class basic_string
  78:e:\daisy\daisytoolchain-0.3.1\windows\arm-none-eabi\include\c++\10.2.1\bits\basic_string.h ****     {
  79:e:\daisy\daisytoolchain-0.3.1\windows\arm-none-eabi\include\c++\10.2.1\bits\basic_string.h ****       typedef typename __gnu_cxx::__alloc_traits<_Alloc>::template
  80:e:\daisy\daisytoolchain-0.3.1\windows\arm-none-eabi\include\c++\10.2.1\bits\basic_string.h **** 	rebind<_CharT>::other _Char_alloc_type;
  81:e:\daisy\daisytoolchain-0.3.1\windows\arm-none-eabi\include\c++\10.2.1\bits\basic_string.h ****       typedef __gnu_cxx::__alloc_traits<_Char_alloc_type> _Alloc_traits;
  82:e:\daisy\daisytoolchain-0.3.1\windows\arm-none-eabi\include\c++\10.2.1\bits\basic_string.h **** 
  83:e:\daisy\daisytoolchain-0.3.1\windows\arm-none-eabi\include\c++\10.2.1\bits\basic_string.h ****       // Types:
  84:e:\daisy\daisytoolchain-0.3.1\windows\arm-none-eabi\include\c++\10.2.1\bits\basic_string.h ****     public:
  85:e:\daisy\daisytoolchain-0.3.1\windows\arm-none-eabi\include\c++\10.2.1\bits\basic_string.h ****       typedef _Traits					traits_type;
  86:e:\daisy\daisytoolchain-0.3.1\windows\arm-none-eabi\include\c++\10.2.1\bits\basic_string.h ****       typedef typename _Traits::char_type		value_type;
  87:e:\daisy\daisytoolchain-0.3.1\windows\arm-none-eabi\include\c++\10.2.1\bits\basic_string.h ****       typedef _Char_alloc_type				allocator_type;
  88:e:\daisy\daisytoolchain-0.3.1\windows\arm-none-eabi\include\c++\10.2.1\bits\basic_string.h ****       typedef typename _Alloc_traits::size_type		size_type;
  89:e:\daisy\daisytoolchain-0.3.1\windows\arm-none-eabi\include\c++\10.2.1\bits\basic_string.h ****       typedef typename _Alloc_traits::difference_type	difference_type;
  90:e:\daisy\daisytoolchain-0.3.1\windows\arm-none-eabi\include\c++\10.2.1\bits\basic_string.h ****       typedef typename _Alloc_traits::reference		reference;
  91:e:\daisy\daisytoolchain-0.3.1\windows\arm-none-eabi\include\c++\10.2.1\bits\basic_string.h ****       typedef typename _Alloc_traits::const_reference	const_reference;
  92:e:\daisy\daisytoolchain-0.3.1\windows\arm-none-eabi\include\c++\10.2.1\bits\basic_string.h ****       typedef typename _Alloc_traits::pointer		pointer;
  93:e:\daisy\daisytoolchain-0.3.1\windows\arm-none-eabi\include\c++\10.2.1\bits\basic_string.h ****       typedef typename _Alloc_traits::const_pointer	const_pointer;
  94:e:\daisy\daisytoolchain-0.3.1\windows\arm-none-eabi\include\c++\10.2.1\bits\basic_string.h ****       typedef __gnu_cxx::__normal_iterator<pointer, basic_string>  iterator;
  95:e:\daisy\daisytoolchain-0.3.1\windows\arm-none-eabi\include\c++\10.2.1\bits\basic_string.h ****       typedef __gnu_cxx::__normal_iterator<const_pointer, basic_string>
  96:e:\daisy\daisytoolchain-0.3.1\windows\arm-none-eabi\include\c++\10.2.1\bits\basic_string.h **** 							const_iterator;
  97:e:\daisy\daisytoolchain-0.3.1\windows\arm-none-eabi\include\c++\10.2.1\bits\basic_string.h ****       typedef std::reverse_iterator<const_iterator>	const_reverse_iterator;
  98:e:\daisy\daisytoolchain-0.3.1\windows\arm-none-eabi\include\c++\10.2.1\bits\basic_string.h ****       typedef std::reverse_iterator<iterator>		reverse_iterator;
  99:e:\daisy\daisytoolchain-0.3.1\windows\arm-none-eabi\include\c++\10.2.1\bits\basic_string.h **** 
ARM GAS  C:\Users\etpen\AppData\Local\Temp\ccmI6ini.s 			page 43


 100:e:\daisy\daisytoolchain-0.3.1\windows\arm-none-eabi\include\c++\10.2.1\bits\basic_string.h ****       ///  Value returned by various member functions when they fail.
 101:e:\daisy\daisytoolchain-0.3.1\windows\arm-none-eabi\include\c++\10.2.1\bits\basic_string.h ****       static const size_type	npos = static_cast<size_type>(-1);
 102:e:\daisy\daisytoolchain-0.3.1\windows\arm-none-eabi\include\c++\10.2.1\bits\basic_string.h **** 
 103:e:\daisy\daisytoolchain-0.3.1\windows\arm-none-eabi\include\c++\10.2.1\bits\basic_string.h ****     protected:
 104:e:\daisy\daisytoolchain-0.3.1\windows\arm-none-eabi\include\c++\10.2.1\bits\basic_string.h ****       // type used for positions in insert, erase etc.
 105:e:\daisy\daisytoolchain-0.3.1\windows\arm-none-eabi\include\c++\10.2.1\bits\basic_string.h **** #if __cplusplus < 201103L
 106:e:\daisy\daisytoolchain-0.3.1\windows\arm-none-eabi\include\c++\10.2.1\bits\basic_string.h ****       typedef iterator __const_iterator;
 107:e:\daisy\daisytoolchain-0.3.1\windows\arm-none-eabi\include\c++\10.2.1\bits\basic_string.h **** #else
 108:e:\daisy\daisytoolchain-0.3.1\windows\arm-none-eabi\include\c++\10.2.1\bits\basic_string.h ****       typedef const_iterator __const_iterator;
 109:e:\daisy\daisytoolchain-0.3.1\windows\arm-none-eabi\include\c++\10.2.1\bits\basic_string.h **** #endif
 110:e:\daisy\daisytoolchain-0.3.1\windows\arm-none-eabi\include\c++\10.2.1\bits\basic_string.h **** 
 111:e:\daisy\daisytoolchain-0.3.1\windows\arm-none-eabi\include\c++\10.2.1\bits\basic_string.h ****     private:
 112:e:\daisy\daisytoolchain-0.3.1\windows\arm-none-eabi\include\c++\10.2.1\bits\basic_string.h **** #if __cplusplus >= 201703L
 113:e:\daisy\daisytoolchain-0.3.1\windows\arm-none-eabi\include\c++\10.2.1\bits\basic_string.h ****       // A helper type for avoiding boiler-plate.
 114:e:\daisy\daisytoolchain-0.3.1\windows\arm-none-eabi\include\c++\10.2.1\bits\basic_string.h ****       typedef basic_string_view<_CharT, _Traits> __sv_type;
 115:e:\daisy\daisytoolchain-0.3.1\windows\arm-none-eabi\include\c++\10.2.1\bits\basic_string.h **** 
 116:e:\daisy\daisytoolchain-0.3.1\windows\arm-none-eabi\include\c++\10.2.1\bits\basic_string.h ****       template<typename _Tp, typename _Res>
 117:e:\daisy\daisytoolchain-0.3.1\windows\arm-none-eabi\include\c++\10.2.1\bits\basic_string.h **** 	using _If_sv = enable_if_t<
 118:e:\daisy\daisytoolchain-0.3.1\windows\arm-none-eabi\include\c++\10.2.1\bits\basic_string.h **** 	  __and_<is_convertible<const _Tp&, __sv_type>,
 119:e:\daisy\daisytoolchain-0.3.1\windows\arm-none-eabi\include\c++\10.2.1\bits\basic_string.h **** 		 __not_<is_convertible<const _Tp*, const basic_string*>>,
 120:e:\daisy\daisytoolchain-0.3.1\windows\arm-none-eabi\include\c++\10.2.1\bits\basic_string.h **** 		 __not_<is_convertible<const _Tp&, const _CharT*>>>::value,
 121:e:\daisy\daisytoolchain-0.3.1\windows\arm-none-eabi\include\c++\10.2.1\bits\basic_string.h **** 	  _Res>;
 122:e:\daisy\daisytoolchain-0.3.1\windows\arm-none-eabi\include\c++\10.2.1\bits\basic_string.h **** 
 123:e:\daisy\daisytoolchain-0.3.1\windows\arm-none-eabi\include\c++\10.2.1\bits\basic_string.h ****       // Allows an implicit conversion to __sv_type.
 124:e:\daisy\daisytoolchain-0.3.1\windows\arm-none-eabi\include\c++\10.2.1\bits\basic_string.h ****       static __sv_type
 125:e:\daisy\daisytoolchain-0.3.1\windows\arm-none-eabi\include\c++\10.2.1\bits\basic_string.h ****       _S_to_string_view(__sv_type __svt) noexcept
 126:e:\daisy\daisytoolchain-0.3.1\windows\arm-none-eabi\include\c++\10.2.1\bits\basic_string.h ****       { return __svt; }
 127:e:\daisy\daisytoolchain-0.3.1\windows\arm-none-eabi\include\c++\10.2.1\bits\basic_string.h **** 
 128:e:\daisy\daisytoolchain-0.3.1\windows\arm-none-eabi\include\c++\10.2.1\bits\basic_string.h ****       // Wraps a string_view by explicit conversion and thus
 129:e:\daisy\daisytoolchain-0.3.1\windows\arm-none-eabi\include\c++\10.2.1\bits\basic_string.h ****       // allows to add an internal constructor that does not
 130:e:\daisy\daisytoolchain-0.3.1\windows\arm-none-eabi\include\c++\10.2.1\bits\basic_string.h ****       // participate in overload resolution when a string_view
 131:e:\daisy\daisytoolchain-0.3.1\windows\arm-none-eabi\include\c++\10.2.1\bits\basic_string.h ****       // is provided.
 132:e:\daisy\daisytoolchain-0.3.1\windows\arm-none-eabi\include\c++\10.2.1\bits\basic_string.h ****       struct __sv_wrapper
 133:e:\daisy\daisytoolchain-0.3.1\windows\arm-none-eabi\include\c++\10.2.1\bits\basic_string.h ****       {
 134:e:\daisy\daisytoolchain-0.3.1\windows\arm-none-eabi\include\c++\10.2.1\bits\basic_string.h **** 	explicit __sv_wrapper(__sv_type __sv) noexcept : _M_sv(__sv) { }
 135:e:\daisy\daisytoolchain-0.3.1\windows\arm-none-eabi\include\c++\10.2.1\bits\basic_string.h **** 	__sv_type _M_sv;
 136:e:\daisy\daisytoolchain-0.3.1\windows\arm-none-eabi\include\c++\10.2.1\bits\basic_string.h ****       };
 137:e:\daisy\daisytoolchain-0.3.1\windows\arm-none-eabi\include\c++\10.2.1\bits\basic_string.h **** 
 138:e:\daisy\daisytoolchain-0.3.1\windows\arm-none-eabi\include\c++\10.2.1\bits\basic_string.h ****       /**
 139:e:\daisy\daisytoolchain-0.3.1\windows\arm-none-eabi\include\c++\10.2.1\bits\basic_string.h ****        *  @brief  Only internally used: Construct string from a string view
 140:e:\daisy\daisytoolchain-0.3.1\windows\arm-none-eabi\include\c++\10.2.1\bits\basic_string.h ****        *          wrapper.
 141:e:\daisy\daisytoolchain-0.3.1\windows\arm-none-eabi\include\c++\10.2.1\bits\basic_string.h ****        *  @param  __svw  string view wrapper.
 142:e:\daisy\daisytoolchain-0.3.1\windows\arm-none-eabi\include\c++\10.2.1\bits\basic_string.h ****        *  @param  __a  Allocator to use.
 143:e:\daisy\daisytoolchain-0.3.1\windows\arm-none-eabi\include\c++\10.2.1\bits\basic_string.h ****        */
 144:e:\daisy\daisytoolchain-0.3.1\windows\arm-none-eabi\include\c++\10.2.1\bits\basic_string.h ****       explicit
 145:e:\daisy\daisytoolchain-0.3.1\windows\arm-none-eabi\include\c++\10.2.1\bits\basic_string.h ****       basic_string(__sv_wrapper __svw, const _Alloc& __a)
 146:e:\daisy\daisytoolchain-0.3.1\windows\arm-none-eabi\include\c++\10.2.1\bits\basic_string.h ****       : basic_string(__svw._M_sv.data(), __svw._M_sv.size(), __a) { }
 147:e:\daisy\daisytoolchain-0.3.1\windows\arm-none-eabi\include\c++\10.2.1\bits\basic_string.h **** #endif
 148:e:\daisy\daisytoolchain-0.3.1\windows\arm-none-eabi\include\c++\10.2.1\bits\basic_string.h **** 
 149:e:\daisy\daisytoolchain-0.3.1\windows\arm-none-eabi\include\c++\10.2.1\bits\basic_string.h ****       // Use empty-base optimization: http://www.cantrip.org/emptyopt.html
 150:e:\daisy\daisytoolchain-0.3.1\windows\arm-none-eabi\include\c++\10.2.1\bits\basic_string.h ****       struct _Alloc_hider : allocator_type // TODO check __is_final
 151:e:\daisy\daisytoolchain-0.3.1\windows\arm-none-eabi\include\c++\10.2.1\bits\basic_string.h ****       {
 152:e:\daisy\daisytoolchain-0.3.1\windows\arm-none-eabi\include\c++\10.2.1\bits\basic_string.h **** #if __cplusplus < 201103L
 153:e:\daisy\daisytoolchain-0.3.1\windows\arm-none-eabi\include\c++\10.2.1\bits\basic_string.h **** 	_Alloc_hider(pointer __dat, const _Alloc& __a = _Alloc())
 154:e:\daisy\daisytoolchain-0.3.1\windows\arm-none-eabi\include\c++\10.2.1\bits\basic_string.h **** 	: allocator_type(__a), _M_p(__dat) { }
 155:e:\daisy\daisytoolchain-0.3.1\windows\arm-none-eabi\include\c++\10.2.1\bits\basic_string.h **** #else
 156:e:\daisy\daisytoolchain-0.3.1\windows\arm-none-eabi\include\c++\10.2.1\bits\basic_string.h **** 	_Alloc_hider(pointer __dat, const _Alloc& __a)
ARM GAS  C:\Users\etpen\AppData\Local\Temp\ccmI6ini.s 			page 44


 157:e:\daisy\daisytoolchain-0.3.1\windows\arm-none-eabi\include\c++\10.2.1\bits\basic_string.h **** 	: allocator_type(__a), _M_p(__dat) { }
 158:e:\daisy\daisytoolchain-0.3.1\windows\arm-none-eabi\include\c++\10.2.1\bits\basic_string.h **** 
 159:e:\daisy\daisytoolchain-0.3.1\windows\arm-none-eabi\include\c++\10.2.1\bits\basic_string.h **** 	_Alloc_hider(pointer __dat, _Alloc&& __a = _Alloc())
 160:e:\daisy\daisytoolchain-0.3.1\windows\arm-none-eabi\include\c++\10.2.1\bits\basic_string.h **** 	: allocator_type(std::move(__a)), _M_p(__dat) { }
 161:e:\daisy\daisytoolchain-0.3.1\windows\arm-none-eabi\include\c++\10.2.1\bits\basic_string.h **** #endif
 162:e:\daisy\daisytoolchain-0.3.1\windows\arm-none-eabi\include\c++\10.2.1\bits\basic_string.h **** 
 163:e:\daisy\daisytoolchain-0.3.1\windows\arm-none-eabi\include\c++\10.2.1\bits\basic_string.h **** 	pointer _M_p; // The actual data.
 164:e:\daisy\daisytoolchain-0.3.1\windows\arm-none-eabi\include\c++\10.2.1\bits\basic_string.h ****       };
 165:e:\daisy\daisytoolchain-0.3.1\windows\arm-none-eabi\include\c++\10.2.1\bits\basic_string.h **** 
 166:e:\daisy\daisytoolchain-0.3.1\windows\arm-none-eabi\include\c++\10.2.1\bits\basic_string.h ****       _Alloc_hider	_M_dataplus;
 167:e:\daisy\daisytoolchain-0.3.1\windows\arm-none-eabi\include\c++\10.2.1\bits\basic_string.h ****       size_type		_M_string_length;
 168:e:\daisy\daisytoolchain-0.3.1\windows\arm-none-eabi\include\c++\10.2.1\bits\basic_string.h **** 
 169:e:\daisy\daisytoolchain-0.3.1\windows\arm-none-eabi\include\c++\10.2.1\bits\basic_string.h ****       enum { _S_local_capacity = 15 / sizeof(_CharT) };
 170:e:\daisy\daisytoolchain-0.3.1\windows\arm-none-eabi\include\c++\10.2.1\bits\basic_string.h **** 
 171:e:\daisy\daisytoolchain-0.3.1\windows\arm-none-eabi\include\c++\10.2.1\bits\basic_string.h ****       union
 172:e:\daisy\daisytoolchain-0.3.1\windows\arm-none-eabi\include\c++\10.2.1\bits\basic_string.h ****       {
 173:e:\daisy\daisytoolchain-0.3.1\windows\arm-none-eabi\include\c++\10.2.1\bits\basic_string.h **** 	_CharT           _M_local_buf[_S_local_capacity + 1];
 174:e:\daisy\daisytoolchain-0.3.1\windows\arm-none-eabi\include\c++\10.2.1\bits\basic_string.h **** 	size_type        _M_allocated_capacity;
 175:e:\daisy\daisytoolchain-0.3.1\windows\arm-none-eabi\include\c++\10.2.1\bits\basic_string.h ****       };
 176:e:\daisy\daisytoolchain-0.3.1\windows\arm-none-eabi\include\c++\10.2.1\bits\basic_string.h **** 
 177:e:\daisy\daisytoolchain-0.3.1\windows\arm-none-eabi\include\c++\10.2.1\bits\basic_string.h ****       void
 178:e:\daisy\daisytoolchain-0.3.1\windows\arm-none-eabi\include\c++\10.2.1\bits\basic_string.h ****       _M_data(pointer __p)
 179:e:\daisy\daisytoolchain-0.3.1\windows\arm-none-eabi\include\c++\10.2.1\bits\basic_string.h ****       { _M_dataplus._M_p = __p; }
 180:e:\daisy\daisytoolchain-0.3.1\windows\arm-none-eabi\include\c++\10.2.1\bits\basic_string.h **** 
 181:e:\daisy\daisytoolchain-0.3.1\windows\arm-none-eabi\include\c++\10.2.1\bits\basic_string.h ****       void
 182:e:\daisy\daisytoolchain-0.3.1\windows\arm-none-eabi\include\c++\10.2.1\bits\basic_string.h ****       _M_length(size_type __length)
 183:e:\daisy\daisytoolchain-0.3.1\windows\arm-none-eabi\include\c++\10.2.1\bits\basic_string.h ****       { _M_string_length = __length; }
 184:e:\daisy\daisytoolchain-0.3.1\windows\arm-none-eabi\include\c++\10.2.1\bits\basic_string.h **** 
 185:e:\daisy\daisytoolchain-0.3.1\windows\arm-none-eabi\include\c++\10.2.1\bits\basic_string.h ****       pointer
 186:e:\daisy\daisytoolchain-0.3.1\windows\arm-none-eabi\include\c++\10.2.1\bits\basic_string.h ****       _M_data() const
 187:e:\daisy\daisytoolchain-0.3.1\windows\arm-none-eabi\include\c++\10.2.1\bits\basic_string.h ****       { return _M_dataplus._M_p; }
 188:e:\daisy\daisytoolchain-0.3.1\windows\arm-none-eabi\include\c++\10.2.1\bits\basic_string.h **** 
 189:e:\daisy\daisytoolchain-0.3.1\windows\arm-none-eabi\include\c++\10.2.1\bits\basic_string.h ****       pointer
 190:e:\daisy\daisytoolchain-0.3.1\windows\arm-none-eabi\include\c++\10.2.1\bits\basic_string.h ****       _M_local_data()
 191:e:\daisy\daisytoolchain-0.3.1\windows\arm-none-eabi\include\c++\10.2.1\bits\basic_string.h ****       {
 192:e:\daisy\daisytoolchain-0.3.1\windows\arm-none-eabi\include\c++\10.2.1\bits\basic_string.h **** #if __cplusplus >= 201103L
 193:e:\daisy\daisytoolchain-0.3.1\windows\arm-none-eabi\include\c++\10.2.1\bits\basic_string.h **** 	return std::pointer_traits<pointer>::pointer_to(*_M_local_buf);
 194:e:\daisy\daisytoolchain-0.3.1\windows\arm-none-eabi\include\c++\10.2.1\bits\basic_string.h **** #else
 195:e:\daisy\daisytoolchain-0.3.1\windows\arm-none-eabi\include\c++\10.2.1\bits\basic_string.h **** 	return pointer(_M_local_buf);
 196:e:\daisy\daisytoolchain-0.3.1\windows\arm-none-eabi\include\c++\10.2.1\bits\basic_string.h **** #endif
 197:e:\daisy\daisytoolchain-0.3.1\windows\arm-none-eabi\include\c++\10.2.1\bits\basic_string.h ****       }
 198:e:\daisy\daisytoolchain-0.3.1\windows\arm-none-eabi\include\c++\10.2.1\bits\basic_string.h **** 
 199:e:\daisy\daisytoolchain-0.3.1\windows\arm-none-eabi\include\c++\10.2.1\bits\basic_string.h ****       const_pointer
 200:e:\daisy\daisytoolchain-0.3.1\windows\arm-none-eabi\include\c++\10.2.1\bits\basic_string.h ****       _M_local_data() const
 201:e:\daisy\daisytoolchain-0.3.1\windows\arm-none-eabi\include\c++\10.2.1\bits\basic_string.h ****       {
 202:e:\daisy\daisytoolchain-0.3.1\windows\arm-none-eabi\include\c++\10.2.1\bits\basic_string.h **** #if __cplusplus >= 201103L
 203:e:\daisy\daisytoolchain-0.3.1\windows\arm-none-eabi\include\c++\10.2.1\bits\basic_string.h **** 	return std::pointer_traits<const_pointer>::pointer_to(*_M_local_buf);
 204:e:\daisy\daisytoolchain-0.3.1\windows\arm-none-eabi\include\c++\10.2.1\bits\basic_string.h **** #else
 205:e:\daisy\daisytoolchain-0.3.1\windows\arm-none-eabi\include\c++\10.2.1\bits\basic_string.h **** 	return const_pointer(_M_local_buf);
 206:e:\daisy\daisytoolchain-0.3.1\windows\arm-none-eabi\include\c++\10.2.1\bits\basic_string.h **** #endif
 207:e:\daisy\daisytoolchain-0.3.1\windows\arm-none-eabi\include\c++\10.2.1\bits\basic_string.h ****       }
 208:e:\daisy\daisytoolchain-0.3.1\windows\arm-none-eabi\include\c++\10.2.1\bits\basic_string.h **** 
 209:e:\daisy\daisytoolchain-0.3.1\windows\arm-none-eabi\include\c++\10.2.1\bits\basic_string.h ****       void
 210:e:\daisy\daisytoolchain-0.3.1\windows\arm-none-eabi\include\c++\10.2.1\bits\basic_string.h ****       _M_capacity(size_type __capacity)
 211:e:\daisy\daisytoolchain-0.3.1\windows\arm-none-eabi\include\c++\10.2.1\bits\basic_string.h ****       { _M_allocated_capacity = __capacity; }
 212:e:\daisy\daisytoolchain-0.3.1\windows\arm-none-eabi\include\c++\10.2.1\bits\basic_string.h **** 
 213:e:\daisy\daisytoolchain-0.3.1\windows\arm-none-eabi\include\c++\10.2.1\bits\basic_string.h ****       void
ARM GAS  C:\Users\etpen\AppData\Local\Temp\ccmI6ini.s 			page 45


 214:e:\daisy\daisytoolchain-0.3.1\windows\arm-none-eabi\include\c++\10.2.1\bits\basic_string.h ****       _M_set_length(size_type __n)
 215:e:\daisy\daisytoolchain-0.3.1\windows\arm-none-eabi\include\c++\10.2.1\bits\basic_string.h ****       {
 216:e:\daisy\daisytoolchain-0.3.1\windows\arm-none-eabi\include\c++\10.2.1\bits\basic_string.h **** 	_M_length(__n);
 217:e:\daisy\daisytoolchain-0.3.1\windows\arm-none-eabi\include\c++\10.2.1\bits\basic_string.h **** 	traits_type::assign(_M_data()[__n], _CharT());
 218:e:\daisy\daisytoolchain-0.3.1\windows\arm-none-eabi\include\c++\10.2.1\bits\basic_string.h ****       }
 219:e:\daisy\daisytoolchain-0.3.1\windows\arm-none-eabi\include\c++\10.2.1\bits\basic_string.h **** 
 220:e:\daisy\daisytoolchain-0.3.1\windows\arm-none-eabi\include\c++\10.2.1\bits\basic_string.h ****       bool
 221:e:\daisy\daisytoolchain-0.3.1\windows\arm-none-eabi\include\c++\10.2.1\bits\basic_string.h ****       _M_is_local() const
 222:e:\daisy\daisytoolchain-0.3.1\windows\arm-none-eabi\include\c++\10.2.1\bits\basic_string.h ****       { return _M_data() == _M_local_data(); }
 223:e:\daisy\daisytoolchain-0.3.1\windows\arm-none-eabi\include\c++\10.2.1\bits\basic_string.h **** 
 224:e:\daisy\daisytoolchain-0.3.1\windows\arm-none-eabi\include\c++\10.2.1\bits\basic_string.h ****       // Create & Destroy
 225:e:\daisy\daisytoolchain-0.3.1\windows\arm-none-eabi\include\c++\10.2.1\bits\basic_string.h ****       pointer
 226:e:\daisy\daisytoolchain-0.3.1\windows\arm-none-eabi\include\c++\10.2.1\bits\basic_string.h ****       _M_create(size_type&, size_type);
 227:e:\daisy\daisytoolchain-0.3.1\windows\arm-none-eabi\include\c++\10.2.1\bits\basic_string.h **** 
 228:e:\daisy\daisytoolchain-0.3.1\windows\arm-none-eabi\include\c++\10.2.1\bits\basic_string.h ****       void
 229:e:\daisy\daisytoolchain-0.3.1\windows\arm-none-eabi\include\c++\10.2.1\bits\basic_string.h ****       _M_dispose()
 230:e:\daisy\daisytoolchain-0.3.1\windows\arm-none-eabi\include\c++\10.2.1\bits\basic_string.h ****       {
 231:e:\daisy\daisytoolchain-0.3.1\windows\arm-none-eabi\include\c++\10.2.1\bits\basic_string.h **** 	if (!_M_is_local())
 232:e:\daisy\daisytoolchain-0.3.1\windows\arm-none-eabi\include\c++\10.2.1\bits\basic_string.h **** 	  _M_destroy(_M_allocated_capacity);
 233:e:\daisy\daisytoolchain-0.3.1\windows\arm-none-eabi\include\c++\10.2.1\bits\basic_string.h ****       }
 234:e:\daisy\daisytoolchain-0.3.1\windows\arm-none-eabi\include\c++\10.2.1\bits\basic_string.h **** 
 235:e:\daisy\daisytoolchain-0.3.1\windows\arm-none-eabi\include\c++\10.2.1\bits\basic_string.h ****       void
 236:e:\daisy\daisytoolchain-0.3.1\windows\arm-none-eabi\include\c++\10.2.1\bits\basic_string.h ****       _M_destroy(size_type __size) throw()
 237:e:\daisy\daisytoolchain-0.3.1\windows\arm-none-eabi\include\c++\10.2.1\bits\basic_string.h ****       { _Alloc_traits::deallocate(_M_get_allocator(), _M_data(), __size + 1); }
 238:e:\daisy\daisytoolchain-0.3.1\windows\arm-none-eabi\include\c++\10.2.1\bits\basic_string.h **** 
 239:e:\daisy\daisytoolchain-0.3.1\windows\arm-none-eabi\include\c++\10.2.1\bits\basic_string.h ****       // _M_construct_aux is used to implement the 21.3.1 para 15 which
 240:e:\daisy\daisytoolchain-0.3.1\windows\arm-none-eabi\include\c++\10.2.1\bits\basic_string.h ****       // requires special behaviour if _InIterator is an integral type
 241:e:\daisy\daisytoolchain-0.3.1\windows\arm-none-eabi\include\c++\10.2.1\bits\basic_string.h ****       template<typename _InIterator>
 242:e:\daisy\daisytoolchain-0.3.1\windows\arm-none-eabi\include\c++\10.2.1\bits\basic_string.h ****         void
 243:e:\daisy\daisytoolchain-0.3.1\windows\arm-none-eabi\include\c++\10.2.1\bits\basic_string.h ****         _M_construct_aux(_InIterator __beg, _InIterator __end,
 244:e:\daisy\daisytoolchain-0.3.1\windows\arm-none-eabi\include\c++\10.2.1\bits\basic_string.h **** 			 std::__false_type)
 245:e:\daisy\daisytoolchain-0.3.1\windows\arm-none-eabi\include\c++\10.2.1\bits\basic_string.h **** 	{
 246:e:\daisy\daisytoolchain-0.3.1\windows\arm-none-eabi\include\c++\10.2.1\bits\basic_string.h ****           typedef typename iterator_traits<_InIterator>::iterator_category _Tag;
 247:e:\daisy\daisytoolchain-0.3.1\windows\arm-none-eabi\include\c++\10.2.1\bits\basic_string.h ****           _M_construct(__beg, __end, _Tag());
 248:e:\daisy\daisytoolchain-0.3.1\windows\arm-none-eabi\include\c++\10.2.1\bits\basic_string.h **** 	}
 249:e:\daisy\daisytoolchain-0.3.1\windows\arm-none-eabi\include\c++\10.2.1\bits\basic_string.h **** 
 250:e:\daisy\daisytoolchain-0.3.1\windows\arm-none-eabi\include\c++\10.2.1\bits\basic_string.h ****       // _GLIBCXX_RESOLVE_LIB_DEFECTS
 251:e:\daisy\daisytoolchain-0.3.1\windows\arm-none-eabi\include\c++\10.2.1\bits\basic_string.h ****       // 438. Ambiguity in the "do the right thing" clause
 252:e:\daisy\daisytoolchain-0.3.1\windows\arm-none-eabi\include\c++\10.2.1\bits\basic_string.h ****       template<typename _Integer>
 253:e:\daisy\daisytoolchain-0.3.1\windows\arm-none-eabi\include\c++\10.2.1\bits\basic_string.h ****         void
 254:e:\daisy\daisytoolchain-0.3.1\windows\arm-none-eabi\include\c++\10.2.1\bits\basic_string.h ****         _M_construct_aux(_Integer __beg, _Integer __end, std::__true_type)
 255:e:\daisy\daisytoolchain-0.3.1\windows\arm-none-eabi\include\c++\10.2.1\bits\basic_string.h **** 	{ _M_construct_aux_2(static_cast<size_type>(__beg), __end); }
 256:e:\daisy\daisytoolchain-0.3.1\windows\arm-none-eabi\include\c++\10.2.1\bits\basic_string.h **** 
 257:e:\daisy\daisytoolchain-0.3.1\windows\arm-none-eabi\include\c++\10.2.1\bits\basic_string.h ****       void
 258:e:\daisy\daisytoolchain-0.3.1\windows\arm-none-eabi\include\c++\10.2.1\bits\basic_string.h ****       _M_construct_aux_2(size_type __req, _CharT __c)
 259:e:\daisy\daisytoolchain-0.3.1\windows\arm-none-eabi\include\c++\10.2.1\bits\basic_string.h ****       { _M_construct(__req, __c); }
 260:e:\daisy\daisytoolchain-0.3.1\windows\arm-none-eabi\include\c++\10.2.1\bits\basic_string.h **** 
 261:e:\daisy\daisytoolchain-0.3.1\windows\arm-none-eabi\include\c++\10.2.1\bits\basic_string.h ****       template<typename _InIterator>
 262:e:\daisy\daisytoolchain-0.3.1\windows\arm-none-eabi\include\c++\10.2.1\bits\basic_string.h ****         void
 263:e:\daisy\daisytoolchain-0.3.1\windows\arm-none-eabi\include\c++\10.2.1\bits\basic_string.h ****         _M_construct(_InIterator __beg, _InIterator __end)
 264:e:\daisy\daisytoolchain-0.3.1\windows\arm-none-eabi\include\c++\10.2.1\bits\basic_string.h **** 	{
 265:e:\daisy\daisytoolchain-0.3.1\windows\arm-none-eabi\include\c++\10.2.1\bits\basic_string.h **** 	  typedef typename std::__is_integer<_InIterator>::__type _Integral;
 266:e:\daisy\daisytoolchain-0.3.1\windows\arm-none-eabi\include\c++\10.2.1\bits\basic_string.h **** 	  _M_construct_aux(__beg, __end, _Integral());
 267:e:\daisy\daisytoolchain-0.3.1\windows\arm-none-eabi\include\c++\10.2.1\bits\basic_string.h ****         }
 268:e:\daisy\daisytoolchain-0.3.1\windows\arm-none-eabi\include\c++\10.2.1\bits\basic_string.h **** 
 269:e:\daisy\daisytoolchain-0.3.1\windows\arm-none-eabi\include\c++\10.2.1\bits\basic_string.h ****       // For Input Iterators, used in istreambuf_iterators, etc.
 270:e:\daisy\daisytoolchain-0.3.1\windows\arm-none-eabi\include\c++\10.2.1\bits\basic_string.h ****       template<typename _InIterator>
ARM GAS  C:\Users\etpen\AppData\Local\Temp\ccmI6ini.s 			page 46


 271:e:\daisy\daisytoolchain-0.3.1\windows\arm-none-eabi\include\c++\10.2.1\bits\basic_string.h ****         void
 272:e:\daisy\daisytoolchain-0.3.1\windows\arm-none-eabi\include\c++\10.2.1\bits\basic_string.h ****         _M_construct(_InIterator __beg, _InIterator __end,
 273:e:\daisy\daisytoolchain-0.3.1\windows\arm-none-eabi\include\c++\10.2.1\bits\basic_string.h **** 		     std::input_iterator_tag);
 274:e:\daisy\daisytoolchain-0.3.1\windows\arm-none-eabi\include\c++\10.2.1\bits\basic_string.h **** 
 275:e:\daisy\daisytoolchain-0.3.1\windows\arm-none-eabi\include\c++\10.2.1\bits\basic_string.h ****       // For forward_iterators up to random_access_iterators, used for
 276:e:\daisy\daisytoolchain-0.3.1\windows\arm-none-eabi\include\c++\10.2.1\bits\basic_string.h ****       // string::iterator, _CharT*, etc.
 277:e:\daisy\daisytoolchain-0.3.1\windows\arm-none-eabi\include\c++\10.2.1\bits\basic_string.h ****       template<typename _FwdIterator>
 278:e:\daisy\daisytoolchain-0.3.1\windows\arm-none-eabi\include\c++\10.2.1\bits\basic_string.h ****         void
 279:e:\daisy\daisytoolchain-0.3.1\windows\arm-none-eabi\include\c++\10.2.1\bits\basic_string.h ****         _M_construct(_FwdIterator __beg, _FwdIterator __end,
 280:e:\daisy\daisytoolchain-0.3.1\windows\arm-none-eabi\include\c++\10.2.1\bits\basic_string.h **** 		     std::forward_iterator_tag);
 281:e:\daisy\daisytoolchain-0.3.1\windows\arm-none-eabi\include\c++\10.2.1\bits\basic_string.h **** 
 282:e:\daisy\daisytoolchain-0.3.1\windows\arm-none-eabi\include\c++\10.2.1\bits\basic_string.h ****       void
 283:e:\daisy\daisytoolchain-0.3.1\windows\arm-none-eabi\include\c++\10.2.1\bits\basic_string.h ****       _M_construct(size_type __req, _CharT __c);
 284:e:\daisy\daisytoolchain-0.3.1\windows\arm-none-eabi\include\c++\10.2.1\bits\basic_string.h **** 
 285:e:\daisy\daisytoolchain-0.3.1\windows\arm-none-eabi\include\c++\10.2.1\bits\basic_string.h ****       allocator_type&
 286:e:\daisy\daisytoolchain-0.3.1\windows\arm-none-eabi\include\c++\10.2.1\bits\basic_string.h ****       _M_get_allocator()
 287:e:\daisy\daisytoolchain-0.3.1\windows\arm-none-eabi\include\c++\10.2.1\bits\basic_string.h ****       { return _M_dataplus; }
 288:e:\daisy\daisytoolchain-0.3.1\windows\arm-none-eabi\include\c++\10.2.1\bits\basic_string.h **** 
 289:e:\daisy\daisytoolchain-0.3.1\windows\arm-none-eabi\include\c++\10.2.1\bits\basic_string.h ****       const allocator_type&
 290:e:\daisy\daisytoolchain-0.3.1\windows\arm-none-eabi\include\c++\10.2.1\bits\basic_string.h ****       _M_get_allocator() const
 291:e:\daisy\daisytoolchain-0.3.1\windows\arm-none-eabi\include\c++\10.2.1\bits\basic_string.h ****       { return _M_dataplus; }
 292:e:\daisy\daisytoolchain-0.3.1\windows\arm-none-eabi\include\c++\10.2.1\bits\basic_string.h **** 
 293:e:\daisy\daisytoolchain-0.3.1\windows\arm-none-eabi\include\c++\10.2.1\bits\basic_string.h ****     private:
 294:e:\daisy\daisytoolchain-0.3.1\windows\arm-none-eabi\include\c++\10.2.1\bits\basic_string.h **** 
 295:e:\daisy\daisytoolchain-0.3.1\windows\arm-none-eabi\include\c++\10.2.1\bits\basic_string.h **** #ifdef _GLIBCXX_DISAMBIGUATE_REPLACE_INST
 296:e:\daisy\daisytoolchain-0.3.1\windows\arm-none-eabi\include\c++\10.2.1\bits\basic_string.h ****       // The explicit instantiations in misc-inst.cc require this due to
 297:e:\daisy\daisytoolchain-0.3.1\windows\arm-none-eabi\include\c++\10.2.1\bits\basic_string.h ****       // https://gcc.gnu.org/bugzilla/show_bug.cgi?id=64063
 298:e:\daisy\daisytoolchain-0.3.1\windows\arm-none-eabi\include\c++\10.2.1\bits\basic_string.h ****       template<typename _Tp, bool _Requires =
 299:e:\daisy\daisytoolchain-0.3.1\windows\arm-none-eabi\include\c++\10.2.1\bits\basic_string.h **** 	       !__are_same<_Tp, _CharT*>::__value
 300:e:\daisy\daisytoolchain-0.3.1\windows\arm-none-eabi\include\c++\10.2.1\bits\basic_string.h **** 	       && !__are_same<_Tp, const _CharT*>::__value
 301:e:\daisy\daisytoolchain-0.3.1\windows\arm-none-eabi\include\c++\10.2.1\bits\basic_string.h **** 	       && !__are_same<_Tp, iterator>::__value
 302:e:\daisy\daisytoolchain-0.3.1\windows\arm-none-eabi\include\c++\10.2.1\bits\basic_string.h **** 	       && !__are_same<_Tp, const_iterator>::__value>
 303:e:\daisy\daisytoolchain-0.3.1\windows\arm-none-eabi\include\c++\10.2.1\bits\basic_string.h **** 	struct __enable_if_not_native_iterator
 304:e:\daisy\daisytoolchain-0.3.1\windows\arm-none-eabi\include\c++\10.2.1\bits\basic_string.h **** 	{ typedef basic_string& __type; };
 305:e:\daisy\daisytoolchain-0.3.1\windows\arm-none-eabi\include\c++\10.2.1\bits\basic_string.h ****       template<typename _Tp>
 306:e:\daisy\daisytoolchain-0.3.1\windows\arm-none-eabi\include\c++\10.2.1\bits\basic_string.h **** 	struct __enable_if_not_native_iterator<_Tp, false> { };
 307:e:\daisy\daisytoolchain-0.3.1\windows\arm-none-eabi\include\c++\10.2.1\bits\basic_string.h **** #endif
 308:e:\daisy\daisytoolchain-0.3.1\windows\arm-none-eabi\include\c++\10.2.1\bits\basic_string.h **** 
 309:e:\daisy\daisytoolchain-0.3.1\windows\arm-none-eabi\include\c++\10.2.1\bits\basic_string.h ****       size_type
 310:e:\daisy\daisytoolchain-0.3.1\windows\arm-none-eabi\include\c++\10.2.1\bits\basic_string.h ****       _M_check(size_type __pos, const char* __s) const
 311:e:\daisy\daisytoolchain-0.3.1\windows\arm-none-eabi\include\c++\10.2.1\bits\basic_string.h ****       {
 312:e:\daisy\daisytoolchain-0.3.1\windows\arm-none-eabi\include\c++\10.2.1\bits\basic_string.h **** 	if (__pos > this->size())
 313:e:\daisy\daisytoolchain-0.3.1\windows\arm-none-eabi\include\c++\10.2.1\bits\basic_string.h **** 	  __throw_out_of_range_fmt(__N("%s: __pos (which is %zu) > "
 314:e:\daisy\daisytoolchain-0.3.1\windows\arm-none-eabi\include\c++\10.2.1\bits\basic_string.h **** 				       "this->size() (which is %zu)"),
 315:e:\daisy\daisytoolchain-0.3.1\windows\arm-none-eabi\include\c++\10.2.1\bits\basic_string.h **** 				   __s, __pos, this->size());
 316:e:\daisy\daisytoolchain-0.3.1\windows\arm-none-eabi\include\c++\10.2.1\bits\basic_string.h **** 	return __pos;
 317:e:\daisy\daisytoolchain-0.3.1\windows\arm-none-eabi\include\c++\10.2.1\bits\basic_string.h ****       }
 318:e:\daisy\daisytoolchain-0.3.1\windows\arm-none-eabi\include\c++\10.2.1\bits\basic_string.h **** 
 319:e:\daisy\daisytoolchain-0.3.1\windows\arm-none-eabi\include\c++\10.2.1\bits\basic_string.h ****       void
 320:e:\daisy\daisytoolchain-0.3.1\windows\arm-none-eabi\include\c++\10.2.1\bits\basic_string.h ****       _M_check_length(size_type __n1, size_type __n2, const char* __s) const
 321:e:\daisy\daisytoolchain-0.3.1\windows\arm-none-eabi\include\c++\10.2.1\bits\basic_string.h ****       {
 322:e:\daisy\daisytoolchain-0.3.1\windows\arm-none-eabi\include\c++\10.2.1\bits\basic_string.h **** 	if (this->max_size() - (this->size() - __n1) < __n2)
 323:e:\daisy\daisytoolchain-0.3.1\windows\arm-none-eabi\include\c++\10.2.1\bits\basic_string.h **** 	  __throw_length_error(__N(__s));
 324:e:\daisy\daisytoolchain-0.3.1\windows\arm-none-eabi\include\c++\10.2.1\bits\basic_string.h ****       }
 325:e:\daisy\daisytoolchain-0.3.1\windows\arm-none-eabi\include\c++\10.2.1\bits\basic_string.h **** 
 326:e:\daisy\daisytoolchain-0.3.1\windows\arm-none-eabi\include\c++\10.2.1\bits\basic_string.h **** 
 327:e:\daisy\daisytoolchain-0.3.1\windows\arm-none-eabi\include\c++\10.2.1\bits\basic_string.h ****       // NB: _M_limit doesn't check for a bad __pos value.
ARM GAS  C:\Users\etpen\AppData\Local\Temp\ccmI6ini.s 			page 47


 328:e:\daisy\daisytoolchain-0.3.1\windows\arm-none-eabi\include\c++\10.2.1\bits\basic_string.h ****       size_type
 329:e:\daisy\daisytoolchain-0.3.1\windows\arm-none-eabi\include\c++\10.2.1\bits\basic_string.h ****       _M_limit(size_type __pos, size_type __off) const _GLIBCXX_NOEXCEPT
 330:e:\daisy\daisytoolchain-0.3.1\windows\arm-none-eabi\include\c++\10.2.1\bits\basic_string.h ****       {
 331:e:\daisy\daisytoolchain-0.3.1\windows\arm-none-eabi\include\c++\10.2.1\bits\basic_string.h **** 	const bool __testoff =  __off < this->size() - __pos;
 332:e:\daisy\daisytoolchain-0.3.1\windows\arm-none-eabi\include\c++\10.2.1\bits\basic_string.h **** 	return __testoff ? __off : this->size() - __pos;
 333:e:\daisy\daisytoolchain-0.3.1\windows\arm-none-eabi\include\c++\10.2.1\bits\basic_string.h ****       }
 334:e:\daisy\daisytoolchain-0.3.1\windows\arm-none-eabi\include\c++\10.2.1\bits\basic_string.h **** 
 335:e:\daisy\daisytoolchain-0.3.1\windows\arm-none-eabi\include\c++\10.2.1\bits\basic_string.h ****       // True if _Rep and source do not overlap.
 336:e:\daisy\daisytoolchain-0.3.1\windows\arm-none-eabi\include\c++\10.2.1\bits\basic_string.h ****       bool
 337:e:\daisy\daisytoolchain-0.3.1\windows\arm-none-eabi\include\c++\10.2.1\bits\basic_string.h ****       _M_disjunct(const _CharT* __s) const _GLIBCXX_NOEXCEPT
 338:e:\daisy\daisytoolchain-0.3.1\windows\arm-none-eabi\include\c++\10.2.1\bits\basic_string.h ****       {
 339:e:\daisy\daisytoolchain-0.3.1\windows\arm-none-eabi\include\c++\10.2.1\bits\basic_string.h **** 	return (less<const _CharT*>()(__s, _M_data())
 340:e:\daisy\daisytoolchain-0.3.1\windows\arm-none-eabi\include\c++\10.2.1\bits\basic_string.h **** 		|| less<const _CharT*>()(_M_data() + this->size(), __s));
 341:e:\daisy\daisytoolchain-0.3.1\windows\arm-none-eabi\include\c++\10.2.1\bits\basic_string.h ****       }
 342:e:\daisy\daisytoolchain-0.3.1\windows\arm-none-eabi\include\c++\10.2.1\bits\basic_string.h **** 
 343:e:\daisy\daisytoolchain-0.3.1\windows\arm-none-eabi\include\c++\10.2.1\bits\basic_string.h ****       // When __n = 1 way faster than the general multichar
 344:e:\daisy\daisytoolchain-0.3.1\windows\arm-none-eabi\include\c++\10.2.1\bits\basic_string.h ****       // traits_type::copy/move/assign.
 345:e:\daisy\daisytoolchain-0.3.1\windows\arm-none-eabi\include\c++\10.2.1\bits\basic_string.h ****       static void
 346:e:\daisy\daisytoolchain-0.3.1\windows\arm-none-eabi\include\c++\10.2.1\bits\basic_string.h ****       _S_copy(_CharT* __d, const _CharT* __s, size_type __n)
 347:e:\daisy\daisytoolchain-0.3.1\windows\arm-none-eabi\include\c++\10.2.1\bits\basic_string.h ****       {
 348:e:\daisy\daisytoolchain-0.3.1\windows\arm-none-eabi\include\c++\10.2.1\bits\basic_string.h **** 	if (__n == 1)
 349:e:\daisy\daisytoolchain-0.3.1\windows\arm-none-eabi\include\c++\10.2.1\bits\basic_string.h **** 	  traits_type::assign(*__d, *__s);
 350:e:\daisy\daisytoolchain-0.3.1\windows\arm-none-eabi\include\c++\10.2.1\bits\basic_string.h **** 	else
 351:e:\daisy\daisytoolchain-0.3.1\windows\arm-none-eabi\include\c++\10.2.1\bits\basic_string.h **** 	  traits_type::copy(__d, __s, __n);
 352:e:\daisy\daisytoolchain-0.3.1\windows\arm-none-eabi\include\c++\10.2.1\bits\basic_string.h ****       }
 353:e:\daisy\daisytoolchain-0.3.1\windows\arm-none-eabi\include\c++\10.2.1\bits\basic_string.h **** 
 354:e:\daisy\daisytoolchain-0.3.1\windows\arm-none-eabi\include\c++\10.2.1\bits\basic_string.h ****       static void
 355:e:\daisy\daisytoolchain-0.3.1\windows\arm-none-eabi\include\c++\10.2.1\bits\basic_string.h ****       _S_move(_CharT* __d, const _CharT* __s, size_type __n)
 356:e:\daisy\daisytoolchain-0.3.1\windows\arm-none-eabi\include\c++\10.2.1\bits\basic_string.h ****       {
 357:e:\daisy\daisytoolchain-0.3.1\windows\arm-none-eabi\include\c++\10.2.1\bits\basic_string.h **** 	if (__n == 1)
 358:e:\daisy\daisytoolchain-0.3.1\windows\arm-none-eabi\include\c++\10.2.1\bits\basic_string.h **** 	  traits_type::assign(*__d, *__s);
 359:e:\daisy\daisytoolchain-0.3.1\windows\arm-none-eabi\include\c++\10.2.1\bits\basic_string.h **** 	else
 360:e:\daisy\daisytoolchain-0.3.1\windows\arm-none-eabi\include\c++\10.2.1\bits\basic_string.h **** 	  traits_type::move(__d, __s, __n);
 361:e:\daisy\daisytoolchain-0.3.1\windows\arm-none-eabi\include\c++\10.2.1\bits\basic_string.h ****       }
 362:e:\daisy\daisytoolchain-0.3.1\windows\arm-none-eabi\include\c++\10.2.1\bits\basic_string.h **** 
 363:e:\daisy\daisytoolchain-0.3.1\windows\arm-none-eabi\include\c++\10.2.1\bits\basic_string.h ****       static void
 364:e:\daisy\daisytoolchain-0.3.1\windows\arm-none-eabi\include\c++\10.2.1\bits\basic_string.h ****       _S_assign(_CharT* __d, size_type __n, _CharT __c)
 365:e:\daisy\daisytoolchain-0.3.1\windows\arm-none-eabi\include\c++\10.2.1\bits\basic_string.h ****       {
 366:e:\daisy\daisytoolchain-0.3.1\windows\arm-none-eabi\include\c++\10.2.1\bits\basic_string.h **** 	if (__n == 1)
 367:e:\daisy\daisytoolchain-0.3.1\windows\arm-none-eabi\include\c++\10.2.1\bits\basic_string.h **** 	  traits_type::assign(*__d, __c);
 368:e:\daisy\daisytoolchain-0.3.1\windows\arm-none-eabi\include\c++\10.2.1\bits\basic_string.h **** 	else
 369:e:\daisy\daisytoolchain-0.3.1\windows\arm-none-eabi\include\c++\10.2.1\bits\basic_string.h **** 	  traits_type::assign(__d, __n, __c);
 370:e:\daisy\daisytoolchain-0.3.1\windows\arm-none-eabi\include\c++\10.2.1\bits\basic_string.h ****       }
 371:e:\daisy\daisytoolchain-0.3.1\windows\arm-none-eabi\include\c++\10.2.1\bits\basic_string.h **** 
 372:e:\daisy\daisytoolchain-0.3.1\windows\arm-none-eabi\include\c++\10.2.1\bits\basic_string.h ****       // _S_copy_chars is a separate template to permit specialization
 373:e:\daisy\daisytoolchain-0.3.1\windows\arm-none-eabi\include\c++\10.2.1\bits\basic_string.h ****       // to optimize for the common case of pointers as iterators.
 374:e:\daisy\daisytoolchain-0.3.1\windows\arm-none-eabi\include\c++\10.2.1\bits\basic_string.h ****       template<class _Iterator>
 375:e:\daisy\daisytoolchain-0.3.1\windows\arm-none-eabi\include\c++\10.2.1\bits\basic_string.h ****         static void
 376:e:\daisy\daisytoolchain-0.3.1\windows\arm-none-eabi\include\c++\10.2.1\bits\basic_string.h ****         _S_copy_chars(_CharT* __p, _Iterator __k1, _Iterator __k2)
 377:e:\daisy\daisytoolchain-0.3.1\windows\arm-none-eabi\include\c++\10.2.1\bits\basic_string.h ****         {
 378:e:\daisy\daisytoolchain-0.3.1\windows\arm-none-eabi\include\c++\10.2.1\bits\basic_string.h **** 	  for (; __k1 != __k2; ++__k1, (void)++__p)
 379:e:\daisy\daisytoolchain-0.3.1\windows\arm-none-eabi\include\c++\10.2.1\bits\basic_string.h **** 	    traits_type::assign(*__p, *__k1); // These types are off.
 380:e:\daisy\daisytoolchain-0.3.1\windows\arm-none-eabi\include\c++\10.2.1\bits\basic_string.h **** 	}
 381:e:\daisy\daisytoolchain-0.3.1\windows\arm-none-eabi\include\c++\10.2.1\bits\basic_string.h **** 
 382:e:\daisy\daisytoolchain-0.3.1\windows\arm-none-eabi\include\c++\10.2.1\bits\basic_string.h ****       static void
 383:e:\daisy\daisytoolchain-0.3.1\windows\arm-none-eabi\include\c++\10.2.1\bits\basic_string.h ****       _S_copy_chars(_CharT* __p, iterator __k1, iterator __k2) _GLIBCXX_NOEXCEPT
 384:e:\daisy\daisytoolchain-0.3.1\windows\arm-none-eabi\include\c++\10.2.1\bits\basic_string.h ****       { _S_copy_chars(__p, __k1.base(), __k2.base()); }
ARM GAS  C:\Users\etpen\AppData\Local\Temp\ccmI6ini.s 			page 48


 385:e:\daisy\daisytoolchain-0.3.1\windows\arm-none-eabi\include\c++\10.2.1\bits\basic_string.h **** 
 386:e:\daisy\daisytoolchain-0.3.1\windows\arm-none-eabi\include\c++\10.2.1\bits\basic_string.h ****       static void
 387:e:\daisy\daisytoolchain-0.3.1\windows\arm-none-eabi\include\c++\10.2.1\bits\basic_string.h ****       _S_copy_chars(_CharT* __p, const_iterator __k1, const_iterator __k2)
 388:e:\daisy\daisytoolchain-0.3.1\windows\arm-none-eabi\include\c++\10.2.1\bits\basic_string.h ****       _GLIBCXX_NOEXCEPT
 389:e:\daisy\daisytoolchain-0.3.1\windows\arm-none-eabi\include\c++\10.2.1\bits\basic_string.h ****       { _S_copy_chars(__p, __k1.base(), __k2.base()); }
 390:e:\daisy\daisytoolchain-0.3.1\windows\arm-none-eabi\include\c++\10.2.1\bits\basic_string.h **** 
 391:e:\daisy\daisytoolchain-0.3.1\windows\arm-none-eabi\include\c++\10.2.1\bits\basic_string.h ****       static void
 392:e:\daisy\daisytoolchain-0.3.1\windows\arm-none-eabi\include\c++\10.2.1\bits\basic_string.h ****       _S_copy_chars(_CharT* __p, _CharT* __k1, _CharT* __k2) _GLIBCXX_NOEXCEPT
 393:e:\daisy\daisytoolchain-0.3.1\windows\arm-none-eabi\include\c++\10.2.1\bits\basic_string.h ****       { _S_copy(__p, __k1, __k2 - __k1); }
 394:e:\daisy\daisytoolchain-0.3.1\windows\arm-none-eabi\include\c++\10.2.1\bits\basic_string.h **** 
 395:e:\daisy\daisytoolchain-0.3.1\windows\arm-none-eabi\include\c++\10.2.1\bits\basic_string.h ****       static void
 396:e:\daisy\daisytoolchain-0.3.1\windows\arm-none-eabi\include\c++\10.2.1\bits\basic_string.h ****       _S_copy_chars(_CharT* __p, const _CharT* __k1, const _CharT* __k2)
 397:e:\daisy\daisytoolchain-0.3.1\windows\arm-none-eabi\include\c++\10.2.1\bits\basic_string.h ****       _GLIBCXX_NOEXCEPT
 398:e:\daisy\daisytoolchain-0.3.1\windows\arm-none-eabi\include\c++\10.2.1\bits\basic_string.h ****       { _S_copy(__p, __k1, __k2 - __k1); }
 399:e:\daisy\daisytoolchain-0.3.1\windows\arm-none-eabi\include\c++\10.2.1\bits\basic_string.h **** 
 400:e:\daisy\daisytoolchain-0.3.1\windows\arm-none-eabi\include\c++\10.2.1\bits\basic_string.h ****       static int
 401:e:\daisy\daisytoolchain-0.3.1\windows\arm-none-eabi\include\c++\10.2.1\bits\basic_string.h ****       _S_compare(size_type __n1, size_type __n2) _GLIBCXX_NOEXCEPT
 402:e:\daisy\daisytoolchain-0.3.1\windows\arm-none-eabi\include\c++\10.2.1\bits\basic_string.h ****       {
 403:e:\daisy\daisytoolchain-0.3.1\windows\arm-none-eabi\include\c++\10.2.1\bits\basic_string.h **** 	const difference_type __d = difference_type(__n1 - __n2);
 404:e:\daisy\daisytoolchain-0.3.1\windows\arm-none-eabi\include\c++\10.2.1\bits\basic_string.h **** 
 405:e:\daisy\daisytoolchain-0.3.1\windows\arm-none-eabi\include\c++\10.2.1\bits\basic_string.h **** 	if (__d > __gnu_cxx::__numeric_traits<int>::__max)
 406:e:\daisy\daisytoolchain-0.3.1\windows\arm-none-eabi\include\c++\10.2.1\bits\basic_string.h **** 	  return __gnu_cxx::__numeric_traits<int>::__max;
 407:e:\daisy\daisytoolchain-0.3.1\windows\arm-none-eabi\include\c++\10.2.1\bits\basic_string.h **** 	else if (__d < __gnu_cxx::__numeric_traits<int>::__min)
 408:e:\daisy\daisytoolchain-0.3.1\windows\arm-none-eabi\include\c++\10.2.1\bits\basic_string.h **** 	  return __gnu_cxx::__numeric_traits<int>::__min;
 409:e:\daisy\daisytoolchain-0.3.1\windows\arm-none-eabi\include\c++\10.2.1\bits\basic_string.h **** 	else
 410:e:\daisy\daisytoolchain-0.3.1\windows\arm-none-eabi\include\c++\10.2.1\bits\basic_string.h **** 	  return int(__d);
 411:e:\daisy\daisytoolchain-0.3.1\windows\arm-none-eabi\include\c++\10.2.1\bits\basic_string.h ****       }
 412:e:\daisy\daisytoolchain-0.3.1\windows\arm-none-eabi\include\c++\10.2.1\bits\basic_string.h **** 
 413:e:\daisy\daisytoolchain-0.3.1\windows\arm-none-eabi\include\c++\10.2.1\bits\basic_string.h ****       void
 414:e:\daisy\daisytoolchain-0.3.1\windows\arm-none-eabi\include\c++\10.2.1\bits\basic_string.h ****       _M_assign(const basic_string&);
 415:e:\daisy\daisytoolchain-0.3.1\windows\arm-none-eabi\include\c++\10.2.1\bits\basic_string.h **** 
 416:e:\daisy\daisytoolchain-0.3.1\windows\arm-none-eabi\include\c++\10.2.1\bits\basic_string.h ****       void
 417:e:\daisy\daisytoolchain-0.3.1\windows\arm-none-eabi\include\c++\10.2.1\bits\basic_string.h ****       _M_mutate(size_type __pos, size_type __len1, const _CharT* __s,
 418:e:\daisy\daisytoolchain-0.3.1\windows\arm-none-eabi\include\c++\10.2.1\bits\basic_string.h **** 		size_type __len2);
 419:e:\daisy\daisytoolchain-0.3.1\windows\arm-none-eabi\include\c++\10.2.1\bits\basic_string.h **** 
 420:e:\daisy\daisytoolchain-0.3.1\windows\arm-none-eabi\include\c++\10.2.1\bits\basic_string.h ****       void
 421:e:\daisy\daisytoolchain-0.3.1\windows\arm-none-eabi\include\c++\10.2.1\bits\basic_string.h ****       _M_erase(size_type __pos, size_type __n);
 422:e:\daisy\daisytoolchain-0.3.1\windows\arm-none-eabi\include\c++\10.2.1\bits\basic_string.h **** 
 423:e:\daisy\daisytoolchain-0.3.1\windows\arm-none-eabi\include\c++\10.2.1\bits\basic_string.h ****     public:
 424:e:\daisy\daisytoolchain-0.3.1\windows\arm-none-eabi\include\c++\10.2.1\bits\basic_string.h ****       // Construct/copy/destroy:
 425:e:\daisy\daisytoolchain-0.3.1\windows\arm-none-eabi\include\c++\10.2.1\bits\basic_string.h ****       // NB: We overload ctors in some cases instead of using default
 426:e:\daisy\daisytoolchain-0.3.1\windows\arm-none-eabi\include\c++\10.2.1\bits\basic_string.h ****       // arguments, per 17.4.4.4 para. 2 item 2.
 427:e:\daisy\daisytoolchain-0.3.1\windows\arm-none-eabi\include\c++\10.2.1\bits\basic_string.h **** 
 428:e:\daisy\daisytoolchain-0.3.1\windows\arm-none-eabi\include\c++\10.2.1\bits\basic_string.h ****       /**
 429:e:\daisy\daisytoolchain-0.3.1\windows\arm-none-eabi\include\c++\10.2.1\bits\basic_string.h ****        *  @brief  Default constructor creates an empty string.
 430:e:\daisy\daisytoolchain-0.3.1\windows\arm-none-eabi\include\c++\10.2.1\bits\basic_string.h ****        */
 431:e:\daisy\daisytoolchain-0.3.1\windows\arm-none-eabi\include\c++\10.2.1\bits\basic_string.h ****       basic_string()
 432:e:\daisy\daisytoolchain-0.3.1\windows\arm-none-eabi\include\c++\10.2.1\bits\basic_string.h ****       _GLIBCXX_NOEXCEPT_IF(is_nothrow_default_constructible<_Alloc>::value)
 433:e:\daisy\daisytoolchain-0.3.1\windows\arm-none-eabi\include\c++\10.2.1\bits\basic_string.h ****       : _M_dataplus(_M_local_data())
 434:e:\daisy\daisytoolchain-0.3.1\windows\arm-none-eabi\include\c++\10.2.1\bits\basic_string.h ****       { _M_set_length(0); }
 435:e:\daisy\daisytoolchain-0.3.1\windows\arm-none-eabi\include\c++\10.2.1\bits\basic_string.h **** 
 436:e:\daisy\daisytoolchain-0.3.1\windows\arm-none-eabi\include\c++\10.2.1\bits\basic_string.h ****       /**
 437:e:\daisy\daisytoolchain-0.3.1\windows\arm-none-eabi\include\c++\10.2.1\bits\basic_string.h ****        *  @brief  Construct an empty string using allocator @a a.
 438:e:\daisy\daisytoolchain-0.3.1\windows\arm-none-eabi\include\c++\10.2.1\bits\basic_string.h ****        */
 439:e:\daisy\daisytoolchain-0.3.1\windows\arm-none-eabi\include\c++\10.2.1\bits\basic_string.h ****       explicit
 440:e:\daisy\daisytoolchain-0.3.1\windows\arm-none-eabi\include\c++\10.2.1\bits\basic_string.h ****       basic_string(const _Alloc& __a) _GLIBCXX_NOEXCEPT
 441:e:\daisy\daisytoolchain-0.3.1\windows\arm-none-eabi\include\c++\10.2.1\bits\basic_string.h ****       : _M_dataplus(_M_local_data(), __a)
ARM GAS  C:\Users\etpen\AppData\Local\Temp\ccmI6ini.s 			page 49


 442:e:\daisy\daisytoolchain-0.3.1\windows\arm-none-eabi\include\c++\10.2.1\bits\basic_string.h ****       { _M_set_length(0); }
 443:e:\daisy\daisytoolchain-0.3.1\windows\arm-none-eabi\include\c++\10.2.1\bits\basic_string.h **** 
 444:e:\daisy\daisytoolchain-0.3.1\windows\arm-none-eabi\include\c++\10.2.1\bits\basic_string.h ****       /**
 445:e:\daisy\daisytoolchain-0.3.1\windows\arm-none-eabi\include\c++\10.2.1\bits\basic_string.h ****        *  @brief  Construct string with copy of value of @a __str.
 446:e:\daisy\daisytoolchain-0.3.1\windows\arm-none-eabi\include\c++\10.2.1\bits\basic_string.h ****        *  @param  __str  Source string.
 447:e:\daisy\daisytoolchain-0.3.1\windows\arm-none-eabi\include\c++\10.2.1\bits\basic_string.h ****        */
 448:e:\daisy\daisytoolchain-0.3.1\windows\arm-none-eabi\include\c++\10.2.1\bits\basic_string.h ****       basic_string(const basic_string& __str)
 449:e:\daisy\daisytoolchain-0.3.1\windows\arm-none-eabi\include\c++\10.2.1\bits\basic_string.h ****       : _M_dataplus(_M_local_data(),
 450:e:\daisy\daisytoolchain-0.3.1\windows\arm-none-eabi\include\c++\10.2.1\bits\basic_string.h **** 		    _Alloc_traits::_S_select_on_copy(__str._M_get_allocator()))
 451:e:\daisy\daisytoolchain-0.3.1\windows\arm-none-eabi\include\c++\10.2.1\bits\basic_string.h ****       { _M_construct(__str._M_data(), __str._M_data() + __str.length()); }
 452:e:\daisy\daisytoolchain-0.3.1\windows\arm-none-eabi\include\c++\10.2.1\bits\basic_string.h **** 
 453:e:\daisy\daisytoolchain-0.3.1\windows\arm-none-eabi\include\c++\10.2.1\bits\basic_string.h ****       // _GLIBCXX_RESOLVE_LIB_DEFECTS
 454:e:\daisy\daisytoolchain-0.3.1\windows\arm-none-eabi\include\c++\10.2.1\bits\basic_string.h ****       // 2583. no way to supply an allocator for basic_string(str, pos)
 455:e:\daisy\daisytoolchain-0.3.1\windows\arm-none-eabi\include\c++\10.2.1\bits\basic_string.h ****       /**
 456:e:\daisy\daisytoolchain-0.3.1\windows\arm-none-eabi\include\c++\10.2.1\bits\basic_string.h ****        *  @brief  Construct string as copy of a substring.
 457:e:\daisy\daisytoolchain-0.3.1\windows\arm-none-eabi\include\c++\10.2.1\bits\basic_string.h ****        *  @param  __str  Source string.
 458:e:\daisy\daisytoolchain-0.3.1\windows\arm-none-eabi\include\c++\10.2.1\bits\basic_string.h ****        *  @param  __pos  Index of first character to copy from.
 459:e:\daisy\daisytoolchain-0.3.1\windows\arm-none-eabi\include\c++\10.2.1\bits\basic_string.h ****        *  @param  __a  Allocator to use.
 460:e:\daisy\daisytoolchain-0.3.1\windows\arm-none-eabi\include\c++\10.2.1\bits\basic_string.h ****        */
 461:e:\daisy\daisytoolchain-0.3.1\windows\arm-none-eabi\include\c++\10.2.1\bits\basic_string.h ****       basic_string(const basic_string& __str, size_type __pos,
 462:e:\daisy\daisytoolchain-0.3.1\windows\arm-none-eabi\include\c++\10.2.1\bits\basic_string.h **** 		   const _Alloc& __a = _Alloc())
 463:e:\daisy\daisytoolchain-0.3.1\windows\arm-none-eabi\include\c++\10.2.1\bits\basic_string.h ****       : _M_dataplus(_M_local_data(), __a)
 464:e:\daisy\daisytoolchain-0.3.1\windows\arm-none-eabi\include\c++\10.2.1\bits\basic_string.h ****       {
 465:e:\daisy\daisytoolchain-0.3.1\windows\arm-none-eabi\include\c++\10.2.1\bits\basic_string.h **** 	const _CharT* __start = __str._M_data()
 466:e:\daisy\daisytoolchain-0.3.1\windows\arm-none-eabi\include\c++\10.2.1\bits\basic_string.h **** 	  + __str._M_check(__pos, "basic_string::basic_string");
 467:e:\daisy\daisytoolchain-0.3.1\windows\arm-none-eabi\include\c++\10.2.1\bits\basic_string.h **** 	_M_construct(__start, __start + __str._M_limit(__pos, npos));
 468:e:\daisy\daisytoolchain-0.3.1\windows\arm-none-eabi\include\c++\10.2.1\bits\basic_string.h ****       }
 469:e:\daisy\daisytoolchain-0.3.1\windows\arm-none-eabi\include\c++\10.2.1\bits\basic_string.h **** 
 470:e:\daisy\daisytoolchain-0.3.1\windows\arm-none-eabi\include\c++\10.2.1\bits\basic_string.h ****       /**
 471:e:\daisy\daisytoolchain-0.3.1\windows\arm-none-eabi\include\c++\10.2.1\bits\basic_string.h ****        *  @brief  Construct string as copy of a substring.
 472:e:\daisy\daisytoolchain-0.3.1\windows\arm-none-eabi\include\c++\10.2.1\bits\basic_string.h ****        *  @param  __str  Source string.
 473:e:\daisy\daisytoolchain-0.3.1\windows\arm-none-eabi\include\c++\10.2.1\bits\basic_string.h ****        *  @param  __pos  Index of first character to copy from.
 474:e:\daisy\daisytoolchain-0.3.1\windows\arm-none-eabi\include\c++\10.2.1\bits\basic_string.h ****        *  @param  __n  Number of characters to copy.
 475:e:\daisy\daisytoolchain-0.3.1\windows\arm-none-eabi\include\c++\10.2.1\bits\basic_string.h ****        */
