ARM GAS  /tmp/cc00lao6.s 			page 1


   1              		.cpu cortex-m7
   2              		.eabi_attribute 28, 1
   3              		.eabi_attribute 20, 1
   4              		.eabi_attribute 21, 1
   5              		.eabi_attribute 23, 3
   6              		.eabi_attribute 24, 1
   7              		.eabi_attribute 25, 1
   8              		.eabi_attribute 26, 1
   9              		.eabi_attribute 30, 2
  10              		.eabi_attribute 34, 1
  11              		.eabi_attribute 18, 4
  12              		.file	"Sequencer.cpp"
  13              		.text
  14              	.Ltext0:
  15              		.cfi_sections	.debug_frame
  16              		.section	.text._ZN5daisy10DaisyPatchD2Ev,"axG",%progbits,_ZN5daisy10DaisyPatchD5Ev,comdat
  17              		.align	1
  18              		.p2align 2,,3
  19              		.weak	_ZN5daisy10DaisyPatchD2Ev
  20              		.arch armv7e-m
  21              		.syntax unified
  22              		.thumb
  23              		.thumb_func
  24              		.fpu fpv5-d16
  26              	_ZN5daisy10DaisyPatchD2Ev:
  27              	.LVL0:
  28              	.LFB2060:
  29              		.file 1 "../../libdaisy/src/daisy_patch.h"
   1:../../libdaisy/src/daisy_patch.h **** #pragma once
   2:../../libdaisy/src/daisy_patch.h **** #ifndef DSY_PATCH_BSP_H
   3:../../libdaisy/src/daisy_patch.h **** #define DSY_PATCH_BSP_H
   4:../../libdaisy/src/daisy_patch.h **** #include "daisy_seed.h"
   5:../../libdaisy/src/daisy_patch.h **** #include "dev/oled_ssd130x.h"
   6:../../libdaisy/src/daisy_patch.h **** 
   7:../../libdaisy/src/daisy_patch.h **** namespace daisy
   8:../../libdaisy/src/daisy_patch.h **** {
   9:../../libdaisy/src/daisy_patch.h **** /**
  10:../../libdaisy/src/daisy_patch.h ****     @brief Class that handles initializing all of the hardware specific to the Daisy Patch Board. \
  11:../../libdaisy/src/daisy_patch.h ****     Helper funtions are also in place to provide easy access to built-in controls and peripherals.
  12:../../libdaisy/src/daisy_patch.h ****     @author Stephen Hensley
  13:../../libdaisy/src/daisy_patch.h ****     @date November 2019
  14:../../libdaisy/src/daisy_patch.h ****     @ingroup boards
  15:../../libdaisy/src/daisy_patch.h **** */
  16:../../libdaisy/src/daisy_patch.h **** class DaisyPatch
  17:../../libdaisy/src/daisy_patch.h **** {
  18:../../libdaisy/src/daisy_patch.h ****   public:
  19:../../libdaisy/src/daisy_patch.h ****     /** Enum of Ctrls to represent the four CV/Knob combos on the Patch
  20:../../libdaisy/src/daisy_patch.h ****      */
  21:../../libdaisy/src/daisy_patch.h ****     enum Ctrl
  22:../../libdaisy/src/daisy_patch.h ****     {
  23:../../libdaisy/src/daisy_patch.h ****         CTRL_1,    /**< */
  24:../../libdaisy/src/daisy_patch.h ****         CTRL_2,    /**< */
  25:../../libdaisy/src/daisy_patch.h ****         CTRL_3,    /**< */
  26:../../libdaisy/src/daisy_patch.h ****         CTRL_4,    /**< */
  27:../../libdaisy/src/daisy_patch.h ****         CTRL_LAST, /**< */
  28:../../libdaisy/src/daisy_patch.h ****     };
  29:../../libdaisy/src/daisy_patch.h **** 
ARM GAS  /tmp/cc00lao6.s 			page 2


  30:../../libdaisy/src/daisy_patch.h ****     /** Daisy patch gate inputs */
  31:../../libdaisy/src/daisy_patch.h ****     enum GateInput
  32:../../libdaisy/src/daisy_patch.h ****     {
  33:../../libdaisy/src/daisy_patch.h ****         GATE_IN_1,    /**< */
  34:../../libdaisy/src/daisy_patch.h ****         GATE_IN_2,    /** <*/
  35:../../libdaisy/src/daisy_patch.h ****         GATE_IN_LAST, /**< */
  36:../../libdaisy/src/daisy_patch.h ****     };
  37:../../libdaisy/src/daisy_patch.h **** 
  38:../../libdaisy/src/daisy_patch.h ****     /** Constructor */
  39:../../libdaisy/src/daisy_patch.h ****     DaisyPatch() {}
  40:../../libdaisy/src/daisy_patch.h ****     /** Destructor */
  41:../../libdaisy/src/daisy_patch.h ****     ~DaisyPatch() {}
  30              		.loc 1 41 5 view -0
  31              		.cfi_startproc
  32              		@ args = 0, pretend = 0, frame = 0
  33              		@ frame_needed = 0, uses_anonymous_args = 0
  34              		@ link register save eliminated.
  35              	.LBB3776:
  36              	.LBI3776:
  37              		.file 2 "../../libdaisy/src/hid/disp/oled_display.h"
   1:../../libdaisy/src/hid/disp/oled_display.h **** #pragma once
   2:../../libdaisy/src/hid/disp/oled_display.h **** #ifndef DSY_OLED_DISPLAY_H
   3:../../libdaisy/src/hid/disp/oled_display.h **** #define DSY_OLED_DISPLAY_H /**< Macro */
   4:../../libdaisy/src/hid/disp/oled_display.h **** 
   5:../../libdaisy/src/hid/disp/oled_display.h **** #include "display.h"
   6:../../libdaisy/src/hid/disp/oled_display.h **** 
   7:../../libdaisy/src/hid/disp/oled_display.h **** namespace daisy
   8:../../libdaisy/src/hid/disp/oled_display.h **** {
   9:../../libdaisy/src/hid/disp/oled_display.h **** /** 
  10:../../libdaisy/src/hid/disp/oled_display.h ****  * This class is for drawing to a monochrome OLED display. 
  11:../../libdaisy/src/hid/disp/oled_display.h **** */
  12:../../libdaisy/src/hid/disp/oled_display.h **** template <typename DisplayDriver>
  13:../../libdaisy/src/hid/disp/oled_display.h **** class OledDisplay : public OneBitGraphicsDisplayImpl<OledDisplay<DisplayDriver>>
  14:../../libdaisy/src/hid/disp/oled_display.h **** {
  15:../../libdaisy/src/hid/disp/oled_display.h ****   public:
  16:../../libdaisy/src/hid/disp/oled_display.h ****     OledDisplay() {}
  17:../../libdaisy/src/hid/disp/oled_display.h ****     virtual ~OledDisplay() {}
  38              		.loc 2 17 13 view .LVU1
  39              	.LBB3777:
  40              	.LBI3777:
  41              		.file 3 "../../libdaisy/src/hid/disp/display.h"
   1:../../libdaisy/src/hid/disp/display.h **** #pragma once
   2:../../libdaisy/src/hid/disp/display.h **** #ifndef DSY_DISPLAY_H
   3:../../libdaisy/src/hid/disp/display.h **** #define DSY_DISPLAY_H /**< Macro */
   4:../../libdaisy/src/hid/disp/display.h **** #include <cmath>
   5:../../libdaisy/src/hid/disp/display.h **** #include "util/oled_fonts.h"
   6:../../libdaisy/src/hid/disp/display.h **** #include "daisy_core.h"
   7:../../libdaisy/src/hid/disp/display.h **** #include "graphics_common.h"
   8:../../libdaisy/src/hid/disp/display.h **** 
   9:../../libdaisy/src/hid/disp/display.h **** #ifndef deg2rad
  10:../../libdaisy/src/hid/disp/display.h **** #define deg2rad(deg) ((deg)*3.141592 / 180.0)
  11:../../libdaisy/src/hid/disp/display.h **** #endif
  12:../../libdaisy/src/hid/disp/display.h **** 
  13:../../libdaisy/src/hid/disp/display.h **** namespace daisy
  14:../../libdaisy/src/hid/disp/display.h **** {
  15:../../libdaisy/src/hid/disp/display.h **** /** 
  16:../../libdaisy/src/hid/disp/display.h ****  * This interface is used as a base class for all types of 1bit-per-pixel
ARM GAS  /tmp/cc00lao6.s 			page 3


  17:../../libdaisy/src/hid/disp/display.h ****  * graphics displays.
  18:../../libdaisy/src/hid/disp/display.h **** */
  19:../../libdaisy/src/hid/disp/display.h **** class OneBitGraphicsDisplay
  20:../../libdaisy/src/hid/disp/display.h **** {
  21:../../libdaisy/src/hid/disp/display.h ****   public:
  22:../../libdaisy/src/hid/disp/display.h ****     OneBitGraphicsDisplay() {}
  23:../../libdaisy/src/hid/disp/display.h ****     virtual ~OneBitGraphicsDisplay() {}
  24:../../libdaisy/src/hid/disp/display.h **** 
  25:../../libdaisy/src/hid/disp/display.h ****     virtual uint16_t Height() const = 0;
  26:../../libdaisy/src/hid/disp/display.h ****     virtual uint16_t Width() const  = 0;
  27:../../libdaisy/src/hid/disp/display.h **** 
  28:../../libdaisy/src/hid/disp/display.h ****     Rectangle GetBounds() const
  29:../../libdaisy/src/hid/disp/display.h ****     {
  30:../../libdaisy/src/hid/disp/display.h ****         return Rectangle(int16_t(Width()), int16_t(Height()));
  31:../../libdaisy/src/hid/disp/display.h ****     }
  32:../../libdaisy/src/hid/disp/display.h **** 
  33:../../libdaisy/src/hid/disp/display.h **** 
  34:../../libdaisy/src/hid/disp/display.h ****     size_t CurrentX() { return currentX_; };
  35:../../libdaisy/src/hid/disp/display.h ****     size_t CurrentY() { return currentY_; };
  36:../../libdaisy/src/hid/disp/display.h **** 
  37:../../libdaisy/src/hid/disp/display.h ****     /** 
  38:../../libdaisy/src/hid/disp/display.h ****     Fills the entire display with either on/off.
  39:../../libdaisy/src/hid/disp/display.h ****     \param on Sets on or off.
  40:../../libdaisy/src/hid/disp/display.h ****     */
  41:../../libdaisy/src/hid/disp/display.h ****     virtual void Fill(bool on) = 0;
  42:../../libdaisy/src/hid/disp/display.h **** 
  43:../../libdaisy/src/hid/disp/display.h ****     /**
  44:../../libdaisy/src/hid/disp/display.h ****     Sets the pixel at the specified coordinate to be on/off.
  45:../../libdaisy/src/hid/disp/display.h ****     \param x   x Coordinate
  46:../../libdaisy/src/hid/disp/display.h ****     \param y   y coordinate
  47:../../libdaisy/src/hid/disp/display.h ****     \param on  on or off
  48:../../libdaisy/src/hid/disp/display.h ****     */
  49:../../libdaisy/src/hid/disp/display.h ****     virtual void DrawPixel(uint_fast8_t x, uint_fast8_t y, bool on) = 0;
  50:../../libdaisy/src/hid/disp/display.h **** 
  51:../../libdaisy/src/hid/disp/display.h ****     /**
  52:../../libdaisy/src/hid/disp/display.h ****     Draws a line from (x1, y1) to (y1, y2)
  53:../../libdaisy/src/hid/disp/display.h ****     \param x1  x Coordinate of the starting point
  54:../../libdaisy/src/hid/disp/display.h ****     \param y1  y Coordinate of the starting point
  55:../../libdaisy/src/hid/disp/display.h ****     \param x2  x Coordinate of the ending point
  56:../../libdaisy/src/hid/disp/display.h ****     \param y2  y Coordinate of the ending point
  57:../../libdaisy/src/hid/disp/display.h ****     \param on  on or off
  58:../../libdaisy/src/hid/disp/display.h ****     */
  59:../../libdaisy/src/hid/disp/display.h ****     virtual void DrawLine(uint_fast8_t x1,
  60:../../libdaisy/src/hid/disp/display.h ****                           uint_fast8_t y1,
  61:../../libdaisy/src/hid/disp/display.h ****                           uint_fast8_t x2,
  62:../../libdaisy/src/hid/disp/display.h ****                           uint_fast8_t y2,
  63:../../libdaisy/src/hid/disp/display.h ****                           bool         on)
  64:../../libdaisy/src/hid/disp/display.h ****         = 0;
  65:../../libdaisy/src/hid/disp/display.h **** 
  66:../../libdaisy/src/hid/disp/display.h ****     /**
  67:../../libdaisy/src/hid/disp/display.h ****     Draws a rectangle based on two coordinates.
  68:../../libdaisy/src/hid/disp/display.h ****     \param x1 x Coordinate of the first point
  69:../../libdaisy/src/hid/disp/display.h ****     \param y1 y Coordinate of the first point
  70:../../libdaisy/src/hid/disp/display.h ****     \param x2 x Coordinate of the second point
  71:../../libdaisy/src/hid/disp/display.h ****     \param y2 y Coordinate of the second point
  72:../../libdaisy/src/hid/disp/display.h ****     \param on on or off
  73:../../libdaisy/src/hid/disp/display.h ****     \param fill fill the rectangle or draw only the outline
ARM GAS  /tmp/cc00lao6.s 			page 4


  74:../../libdaisy/src/hid/disp/display.h ****     */
  75:../../libdaisy/src/hid/disp/display.h ****     virtual void DrawRect(uint_fast8_t x1,
  76:../../libdaisy/src/hid/disp/display.h ****                           uint_fast8_t y1,
  77:../../libdaisy/src/hid/disp/display.h ****                           uint_fast8_t x2,
  78:../../libdaisy/src/hid/disp/display.h ****                           uint_fast8_t y2,
  79:../../libdaisy/src/hid/disp/display.h ****                           bool         on,
  80:../../libdaisy/src/hid/disp/display.h ****                           bool         fill = false)
  81:../../libdaisy/src/hid/disp/display.h ****         = 0;
  82:../../libdaisy/src/hid/disp/display.h **** 
  83:../../libdaisy/src/hid/disp/display.h ****     /**
  84:../../libdaisy/src/hid/disp/display.h ****     Draws a rectangle.
  85:../../libdaisy/src/hid/disp/display.h ****     \param rect the rectangle
  86:../../libdaisy/src/hid/disp/display.h ****     \param on   on or off
  87:../../libdaisy/src/hid/disp/display.h ****     \param fill fill the rectangle or draw only the outline
  88:../../libdaisy/src/hid/disp/display.h ****     */
  89:../../libdaisy/src/hid/disp/display.h ****     void DrawRect(const Rectangle& rect, bool on, bool fill = false)
  90:../../libdaisy/src/hid/disp/display.h ****     {
  91:../../libdaisy/src/hid/disp/display.h ****         DrawRect(rect.GetX(),
  92:../../libdaisy/src/hid/disp/display.h ****                  rect.GetY(),
  93:../../libdaisy/src/hid/disp/display.h ****                  rect.GetRight(),
  94:../../libdaisy/src/hid/disp/display.h ****                  rect.GetBottom(),
  95:../../libdaisy/src/hid/disp/display.h ****                  on,
  96:../../libdaisy/src/hid/disp/display.h ****                  fill);
  97:../../libdaisy/src/hid/disp/display.h ****     }
  98:../../libdaisy/src/hid/disp/display.h **** 
  99:../../libdaisy/src/hid/disp/display.h ****     /**
 100:../../libdaisy/src/hid/disp/display.h ****     Draws an arc around the specified coordinate
 101:../../libdaisy/src/hid/disp/display.h ****     \param x           x Coordinate of the center of the arc
 102:../../libdaisy/src/hid/disp/display.h ****     \param y           y Coordinate of the center of the arc
 103:../../libdaisy/src/hid/disp/display.h ****     \param radius      radius of the arc
 104:../../libdaisy/src/hid/disp/display.h ****     \param start_angle angle where to start the arc
 105:../../libdaisy/src/hid/disp/display.h ****     \param sweep       total angle of the arc
 106:../../libdaisy/src/hid/disp/display.h ****     \param on  on or off
 107:../../libdaisy/src/hid/disp/display.h ****     */
 108:../../libdaisy/src/hid/disp/display.h ****     virtual void DrawArc(uint_fast8_t x,
 109:../../libdaisy/src/hid/disp/display.h ****                          uint_fast8_t y,
 110:../../libdaisy/src/hid/disp/display.h ****                          uint_fast8_t radius,
 111:../../libdaisy/src/hid/disp/display.h ****                          int_fast16_t start_angle,
 112:../../libdaisy/src/hid/disp/display.h ****                          int_fast16_t sweep,
 113:../../libdaisy/src/hid/disp/display.h ****                          bool         on)
 114:../../libdaisy/src/hid/disp/display.h ****         = 0;
 115:../../libdaisy/src/hid/disp/display.h **** 
 116:../../libdaisy/src/hid/disp/display.h ****     /**
 117:../../libdaisy/src/hid/disp/display.h ****     Draws a circle around the specified coordinate
 118:../../libdaisy/src/hid/disp/display.h ****     \param x           x Coordinate of the center of the circle
 119:../../libdaisy/src/hid/disp/display.h ****     \param y           y Coordinate of the center of the circle
 120:../../libdaisy/src/hid/disp/display.h ****     \param radius      radius of the circle
 121:../../libdaisy/src/hid/disp/display.h ****     \param on  on or off
 122:../../libdaisy/src/hid/disp/display.h ****     */
 123:../../libdaisy/src/hid/disp/display.h ****     void
 124:../../libdaisy/src/hid/disp/display.h ****     DrawCircle(uint_fast8_t x, uint_fast8_t y, uint_fast8_t radius, bool on)
 125:../../libdaisy/src/hid/disp/display.h ****     {
 126:../../libdaisy/src/hid/disp/display.h ****         DrawArc(x, y, radius, 0, 360, on);
 127:../../libdaisy/src/hid/disp/display.h ****     };
 128:../../libdaisy/src/hid/disp/display.h **** 
 129:../../libdaisy/src/hid/disp/display.h ****     /** 
 130:../../libdaisy/src/hid/disp/display.h ****     Writes the character with the specific FontDef
ARM GAS  /tmp/cc00lao6.s 			page 5


 131:../../libdaisy/src/hid/disp/display.h ****     to the display buffer at the current Cursor position.
 132:../../libdaisy/src/hid/disp/display.h ****     \param ch character to be written
 133:../../libdaisy/src/hid/disp/display.h ****     \param font font to be written in
 134:../../libdaisy/src/hid/disp/display.h ****     \param on    on or off
 135:../../libdaisy/src/hid/disp/display.h ****     \return &
 136:../../libdaisy/src/hid/disp/display.h ****     */
 137:../../libdaisy/src/hid/disp/display.h ****     virtual char WriteChar(char ch, FontDef font, bool on) = 0;
 138:../../libdaisy/src/hid/disp/display.h **** 
 139:../../libdaisy/src/hid/disp/display.h ****     /** 
 140:../../libdaisy/src/hid/disp/display.h ****     Similar to WriteChar, except it will handle an entire String.
 141:../../libdaisy/src/hid/disp/display.h ****     Wrapping does not happen automatically, so the width
 142:../../libdaisy/src/hid/disp/display.h ****     of the string must be kept within the dimensions of the screen.
 143:../../libdaisy/src/hid/disp/display.h ****     \param str string to be written
 144:../../libdaisy/src/hid/disp/display.h ****     \param font font to use
 145:../../libdaisy/src/hid/disp/display.h ****     \param on  on or off
 146:../../libdaisy/src/hid/disp/display.h ****     \return &
 147:../../libdaisy/src/hid/disp/display.h ****     */
 148:../../libdaisy/src/hid/disp/display.h ****     virtual char WriteString(const char* str, FontDef font, bool on) = 0;
 149:../../libdaisy/src/hid/disp/display.h **** 
 150:../../libdaisy/src/hid/disp/display.h ****     /** 
 151:../../libdaisy/src/hid/disp/display.h ****     Similar to WriteString but justified within a bounding box.
 152:../../libdaisy/src/hid/disp/display.h ****     \param str          string to be written
 153:../../libdaisy/src/hid/disp/display.h ****     \param font         font to use
 154:../../libdaisy/src/hid/disp/display.h ****     \param boundingBox  the bounding box to draw the text in
 155:../../libdaisy/src/hid/disp/display.h ****     \param alignment    the alignment to use
 156:../../libdaisy/src/hid/disp/display.h ****     \param on           on or off
 157:../../libdaisy/src/hid/disp/display.h ****     \return The rectangle that was drawn to
 158:../../libdaisy/src/hid/disp/display.h ****     */
 159:../../libdaisy/src/hid/disp/display.h ****     virtual Rectangle WriteStringAligned(const char*    str,
 160:../../libdaisy/src/hid/disp/display.h ****                                          const FontDef& font,
 161:../../libdaisy/src/hid/disp/display.h ****                                          Rectangle      boundingBox,
 162:../../libdaisy/src/hid/disp/display.h ****                                          Alignment      alignment,
 163:../../libdaisy/src/hid/disp/display.h ****                                          bool           on)
 164:../../libdaisy/src/hid/disp/display.h ****         = 0;
 165:../../libdaisy/src/hid/disp/display.h **** 
 166:../../libdaisy/src/hid/disp/display.h ****     /** 
 167:../../libdaisy/src/hid/disp/display.h ****     Moves the 'Cursor' position used for WriteChar, and WriteStr to the specified coordinate.
 168:../../libdaisy/src/hid/disp/display.h ****     \param x x pos
 169:../../libdaisy/src/hid/disp/display.h ****     \param y y pos
 170:../../libdaisy/src/hid/disp/display.h ****     */
 171:../../libdaisy/src/hid/disp/display.h ****     void SetCursor(uint16_t x, uint16_t y)
 172:../../libdaisy/src/hid/disp/display.h ****     {
 173:../../libdaisy/src/hid/disp/display.h ****         currentX_ = (x >= Width()) ? Width() - 1 : x;
 174:../../libdaisy/src/hid/disp/display.h ****         currentY_ = (y >= Height()) ? Height() - 1 : y;
 175:../../libdaisy/src/hid/disp/display.h ****     }
 176:../../libdaisy/src/hid/disp/display.h **** 
 177:../../libdaisy/src/hid/disp/display.h ****     /** 
 178:../../libdaisy/src/hid/disp/display.h ****     Writes the current display buffer to the OLED device using SPI or I2C depending on 
 179:../../libdaisy/src/hid/disp/display.h ****     how the object was initialized.
 180:../../libdaisy/src/hid/disp/display.h ****     */
 181:../../libdaisy/src/hid/disp/display.h ****     virtual void Update() = 0;
 182:../../libdaisy/src/hid/disp/display.h **** 
 183:../../libdaisy/src/hid/disp/display.h ****   protected:
 184:../../libdaisy/src/hid/disp/display.h ****     uint16_t currentX_;
 185:../../libdaisy/src/hid/disp/display.h ****     uint16_t currentY_;
 186:../../libdaisy/src/hid/disp/display.h **** };
 187:../../libdaisy/src/hid/disp/display.h **** 
ARM GAS  /tmp/cc00lao6.s 			page 6


 188:../../libdaisy/src/hid/disp/display.h **** /** This class is intended as a intermediary class for your actual implementation of the OneBitGrap
 189:../../libdaisy/src/hid/disp/display.h ****  *  interface. It uses the CRTP design pattern where the template argument is the child class. It p
 190:../../libdaisy/src/hid/disp/display.h ****  *  implementations for most of the functions, except DrawPixel(), Update() and Fill(), which you'l
 191:../../libdaisy/src/hid/disp/display.h ****  *  to provide in your child class.
 192:../../libdaisy/src/hid/disp/display.h ****  *  The main goal of this class is to provide common drawing functions without relying on massive a
 193:../../libdaisy/src/hid/disp/display.h ****  *  virtual function calls that would result in a performance loss. To achieve this, any drawing fu
 194:../../libdaisy/src/hid/disp/display.h ****  *  is implemented here and internally calls other drawing functions (e.g. DrawRect() which interna
 195:../../libdaisy/src/hid/disp/display.h ****  *  DrawPixel() and DrawLine()) makes these calls via the qualified name of these functions to expl
 196:../../libdaisy/src/hid/disp/display.h ****  *  suppress the virtual dispatch mechanism like this:
 197:../../libdaisy/src/hid/disp/display.h ****  * 
 198:../../libdaisy/src/hid/disp/display.h ****  *      ChildType::DrawPixel(...); // no virtual function call; direct call into the child class fu
 199:../../libdaisy/src/hid/disp/display.h ****  *  
 200:../../libdaisy/src/hid/disp/display.h ****  *  To create a custom OneBitGraphicsDisplay implementation, you can 
 201:../../libdaisy/src/hid/disp/display.h ****  *  A) inherit from OneBitGraphicsDisplay directly and provide all the drawing functions yourself
 202:../../libdaisy/src/hid/disp/display.h ****  *  B) Inherit from OneBitGraphicsDisplayImpl and only provide DrawPixel(), Fill() and Update()
 203:../../libdaisy/src/hid/disp/display.h ****  *     like this:
 204:../../libdaisy/src/hid/disp/display.h ****  *  
 205:../../libdaisy/src/hid/disp/display.h ****  *      class MyDisplayClass : public OneBitGraphicsDisplayImpl<MyDisplayClass> 
 206:../../libdaisy/src/hid/disp/display.h ****  *      {
 207:../../libdaisy/src/hid/disp/display.h ****  *      public:
 208:../../libdaisy/src/hid/disp/display.h ****  *          void Fill() override { ... };
 209:../../libdaisy/src/hid/disp/display.h ****  *          void DrawPixel(uint_fast8_t x, uint_fast8_t y, bool on) override { ... };
 210:../../libdaisy/src/hid/disp/display.h ****  *          void Update() override { ... }
 211:../../libdaisy/src/hid/disp/display.h ****  *      };
 212:../../libdaisy/src/hid/disp/display.h ****  *  
 213:../../libdaisy/src/hid/disp/display.h ****  */
 214:../../libdaisy/src/hid/disp/display.h **** template <class ChildType>
 215:../../libdaisy/src/hid/disp/display.h **** class OneBitGraphicsDisplayImpl : public OneBitGraphicsDisplay
 216:../../libdaisy/src/hid/disp/display.h **** {
 217:../../libdaisy/src/hid/disp/display.h ****   public:
 218:../../libdaisy/src/hid/disp/display.h ****     OneBitGraphicsDisplayImpl() {}
 219:../../libdaisy/src/hid/disp/display.h ****     virtual ~OneBitGraphicsDisplayImpl() {}
  42              		.loc 3 219 13 view .LVU2
  43              	.LBB3778:
  44              	.LBI3778:
  23:../../libdaisy/src/hid/disp/display.h **** 
  45              		.loc 3 23 13 view .LVU3
  23:../../libdaisy/src/hid/disp/display.h **** 
  46              		.loc 3 23 13 is_stmt 0 view .LVU4
  47              	.LBE3778:
  48              	.LBE3777:
  49              	.LBE3776:
  50              	.LBB3779:
  51              	.LBI3779:
  52              		.file 4 "../../libdaisy/src/hid/midi.h"
   1:../../libdaisy/src/hid/midi.h **** #pragma once
   2:../../libdaisy/src/hid/midi.h **** #ifndef DSY_MIDI_H
   3:../../libdaisy/src/hid/midi.h **** #define DSY_MIDI_H
   4:../../libdaisy/src/hid/midi.h **** 
   5:../../libdaisy/src/hid/midi.h **** // TODO: make this adjustable
   6:../../libdaisy/src/hid/midi.h **** #define SYSEX_BUFFER_LEN 128
   7:../../libdaisy/src/hid/midi.h **** 
   8:../../libdaisy/src/hid/midi.h **** #include <stdint.h>
   9:../../libdaisy/src/hid/midi.h **** #include <stdlib.h>
  10:../../libdaisy/src/hid/midi.h **** #include "per/uart.h"
  11:../../libdaisy/src/hid/midi.h **** #include "util/ringbuffer.h"
  12:../../libdaisy/src/hid/midi.h **** #include "hid/MidiEvent.h"
ARM GAS  /tmp/cc00lao6.s 			page 7


  13:../../libdaisy/src/hid/midi.h **** #include "sys/system.h"
  14:../../libdaisy/src/hid/midi.h **** 
  15:../../libdaisy/src/hid/midi.h **** namespace daisy
  16:../../libdaisy/src/hid/midi.h **** {
  17:../../libdaisy/src/hid/midi.h **** /** @addtogroup external 
  18:../../libdaisy/src/hid/midi.h ****     @{ 
  19:../../libdaisy/src/hid/midi.h **** */
  20:../../libdaisy/src/hid/midi.h **** 
  21:../../libdaisy/src/hid/midi.h **** class MidiUartTransport
  22:../../libdaisy/src/hid/midi.h **** {
  23:../../libdaisy/src/hid/midi.h ****   public:
  24:../../libdaisy/src/hid/midi.h ****     MidiUartTransport() {}
  25:../../libdaisy/src/hid/midi.h ****     ~MidiUartTransport() {}
  26:../../libdaisy/src/hid/midi.h **** 
  27:../../libdaisy/src/hid/midi.h ****     struct Config
  28:../../libdaisy/src/hid/midi.h ****     {
  29:../../libdaisy/src/hid/midi.h ****         UartHandler::Config::Peripheral periph;
  30:../../libdaisy/src/hid/midi.h ****         dsy_gpio_pin                    rx;
  31:../../libdaisy/src/hid/midi.h ****         dsy_gpio_pin                    tx;
  32:../../libdaisy/src/hid/midi.h **** 
  33:../../libdaisy/src/hid/midi.h ****         Config()
  34:../../libdaisy/src/hid/midi.h ****         {
  35:../../libdaisy/src/hid/midi.h ****             periph = UartHandler::Config::Peripheral::USART_1;
  36:../../libdaisy/src/hid/midi.h ****             rx     = {DSY_GPIOB, 7};
  37:../../libdaisy/src/hid/midi.h ****             tx     = {DSY_GPIOB, 6};
  38:../../libdaisy/src/hid/midi.h ****         }
  39:../../libdaisy/src/hid/midi.h ****     };
  40:../../libdaisy/src/hid/midi.h **** 
  41:../../libdaisy/src/hid/midi.h ****     inline void Init(Config config)
  42:../../libdaisy/src/hid/midi.h ****     {
  43:../../libdaisy/src/hid/midi.h ****         UartHandler::Config uart_config;
  44:../../libdaisy/src/hid/midi.h **** 
  45:../../libdaisy/src/hid/midi.h ****         //defaults
  46:../../libdaisy/src/hid/midi.h ****         uart_config.baudrate   = 31250;
  47:../../libdaisy/src/hid/midi.h ****         uart_config.stopbits   = UartHandler::Config::StopBits::BITS_1;
  48:../../libdaisy/src/hid/midi.h ****         uart_config.parity     = UartHandler::Config::Parity::NONE;
  49:../../libdaisy/src/hid/midi.h ****         uart_config.mode       = UartHandler::Config::Mode::TX_RX;
  50:../../libdaisy/src/hid/midi.h ****         uart_config.wordlength = UartHandler::Config::WordLength::BITS_8;
  51:../../libdaisy/src/hid/midi.h **** 
  52:../../libdaisy/src/hid/midi.h ****         //user settings
  53:../../libdaisy/src/hid/midi.h ****         uart_config.periph        = config.periph;
  54:../../libdaisy/src/hid/midi.h ****         uart_config.pin_config.rx = config.rx;
  55:../../libdaisy/src/hid/midi.h ****         uart_config.pin_config.tx = config.tx;
  56:../../libdaisy/src/hid/midi.h **** 
  57:../../libdaisy/src/hid/midi.h ****         uart_.Init(uart_config);
  58:../../libdaisy/src/hid/midi.h ****     }
  59:../../libdaisy/src/hid/midi.h **** 
  60:../../libdaisy/src/hid/midi.h ****     inline void    StartRx() { uart_.StartRx(); }
  61:../../libdaisy/src/hid/midi.h ****     inline size_t  Readable() { return uart_.Readable(); }
  62:../../libdaisy/src/hid/midi.h ****     inline uint8_t Rx() { return uart_.PopRx(); }
  63:../../libdaisy/src/hid/midi.h ****     inline bool    RxActive() { return uart_.RxActive(); }
  64:../../libdaisy/src/hid/midi.h ****     inline void    FlushRx() { uart_.FlushRx(); }
  65:../../libdaisy/src/hid/midi.h ****     inline void    Tx(uint8_t* buff, size_t size) { uart_.PollTx(buff, size); }
  66:../../libdaisy/src/hid/midi.h **** 
  67:../../libdaisy/src/hid/midi.h ****   private:
  68:../../libdaisy/src/hid/midi.h ****     UartHandler uart_;
  69:../../libdaisy/src/hid/midi.h **** };
ARM GAS  /tmp/cc00lao6.s 			page 8


  70:../../libdaisy/src/hid/midi.h **** 
  71:../../libdaisy/src/hid/midi.h **** /** 
  72:../../libdaisy/src/hid/midi.h ****     @brief Simple MIDI Handler \n 
  73:../../libdaisy/src/hid/midi.h ****     Parses bytes from an input into valid MidiEvents. \n 
  74:../../libdaisy/src/hid/midi.h ****     The MidiEvents fill a FIFO queue that the user can pop messages from.
  75:../../libdaisy/src/hid/midi.h ****     @author shensley
  76:../../libdaisy/src/hid/midi.h ****     @date March 2020
  77:../../libdaisy/src/hid/midi.h **** */
  78:../../libdaisy/src/hid/midi.h **** template <typename Transport>
  79:../../libdaisy/src/hid/midi.h **** class MidiHandler
  80:../../libdaisy/src/hid/midi.h **** {
  81:../../libdaisy/src/hid/midi.h ****   public:
  82:../../libdaisy/src/hid/midi.h ****     MidiHandler() {}
  83:../../libdaisy/src/hid/midi.h ****     ~MidiHandler() {}
  53              		.loc 4 83 5 is_stmt 1 view .LVU5
  54              	.LBB3780:
  55              	.LBI3780:
  25:../../libdaisy/src/hid/midi.h **** 
  56              		.loc 4 25 5 view .LVU6
  25:../../libdaisy/src/hid/midi.h **** 
  57              		.loc 4 25 5 is_stmt 0 view .LVU7
  58              	.LBE3780:
  59              	.LBE3779:
  60              	.LBB3781:
  61              	.LBI3781:
  62              		.file 5 "../../libdaisy/src/hid/encoder.h"
   1:../../libdaisy/src/hid/encoder.h **** #pragma once
   2:../../libdaisy/src/hid/encoder.h **** #ifndef DSY_ENCODER_H
   3:../../libdaisy/src/hid/encoder.h **** #define DSY_ENCODER_H
   4:../../libdaisy/src/hid/encoder.h **** #include "daisy_core.h"
   5:../../libdaisy/src/hid/encoder.h **** #include "per/gpio.h"
   6:../../libdaisy/src/hid/encoder.h **** #include "hid/switch.h"
   7:../../libdaisy/src/hid/encoder.h **** 
   8:../../libdaisy/src/hid/encoder.h **** namespace daisy
   9:../../libdaisy/src/hid/encoder.h **** {
  10:../../libdaisy/src/hid/encoder.h **** /** 
  11:../../libdaisy/src/hid/encoder.h ****     @brief Generic Class for handling Quadrature Encoders \n 
  12:../../libdaisy/src/hid/encoder.h ****     Inspired/influenced by Mutable Instruments (pichenettes) Encoder classes
  13:../../libdaisy/src/hid/encoder.h ****     @author Stephen Hensley
  14:../../libdaisy/src/hid/encoder.h ****     @date December 2019
  15:../../libdaisy/src/hid/encoder.h ****     @ingroup controls
  16:../../libdaisy/src/hid/encoder.h **** */
  17:../../libdaisy/src/hid/encoder.h **** class Encoder
  18:../../libdaisy/src/hid/encoder.h **** {
  19:../../libdaisy/src/hid/encoder.h ****   public:
  20:../../libdaisy/src/hid/encoder.h ****     Encoder() {}
  21:../../libdaisy/src/hid/encoder.h ****     ~Encoder() {}
  63              		.loc 5 21 5 is_stmt 1 view .LVU8
  64              	.LBB3782:
  65              	.LBI3782:
  66              		.file 6 "../../libdaisy/src/hid/switch.h"
   1:../../libdaisy/src/hid/switch.h **** #pragma once
   2:../../libdaisy/src/hid/switch.h **** #ifndef DSY_SWITCH_H
   3:../../libdaisy/src/hid/switch.h **** #define DSY_SWITCH_H
   4:../../libdaisy/src/hid/switch.h **** #include "daisy_core.h"
   5:../../libdaisy/src/hid/switch.h **** #include "per/gpio.h"
   6:../../libdaisy/src/hid/switch.h **** 
ARM GAS  /tmp/cc00lao6.s 			page 9


   7:../../libdaisy/src/hid/switch.h **** namespace daisy
   8:../../libdaisy/src/hid/switch.h **** {
   9:../../libdaisy/src/hid/switch.h **** /** 
  10:../../libdaisy/src/hid/switch.h ****     Generic Class for handling momentary/latching switches \n 
  11:../../libdaisy/src/hid/switch.h ****     Inspired/influenced by Mutable Instruments (pichenettes) Switch classes
  12:../../libdaisy/src/hid/switch.h ****     @author Stephen Hensley
  13:../../libdaisy/src/hid/switch.h ****     @date December 2019
  14:../../libdaisy/src/hid/switch.h ****     @ingroup controls
  15:../../libdaisy/src/hid/switch.h **** */
  16:../../libdaisy/src/hid/switch.h **** class Switch
  17:../../libdaisy/src/hid/switch.h **** {
  18:../../libdaisy/src/hid/switch.h ****   public:
  19:../../libdaisy/src/hid/switch.h ****     /** Specifies the expected behavior of the switch */
  20:../../libdaisy/src/hid/switch.h ****     enum Type
  21:../../libdaisy/src/hid/switch.h ****     {
  22:../../libdaisy/src/hid/switch.h ****         TYPE_TOGGLE,    /**< & */
  23:../../libdaisy/src/hid/switch.h ****         TYPE_MOMENTARY, /**< & */
  24:../../libdaisy/src/hid/switch.h ****     };
  25:../../libdaisy/src/hid/switch.h ****     /** Specifies whether the pressed is HIGH or LOW. */
  26:../../libdaisy/src/hid/switch.h ****     enum Polarity
  27:../../libdaisy/src/hid/switch.h ****     {
  28:../../libdaisy/src/hid/switch.h ****         POLARITY_NORMAL,   /**< & */
  29:../../libdaisy/src/hid/switch.h ****         POLARITY_INVERTED, /**< & */
  30:../../libdaisy/src/hid/switch.h ****     };
  31:../../libdaisy/src/hid/switch.h **** 
  32:../../libdaisy/src/hid/switch.h ****     /** Specifies whether to use built-in Pull Up/Down resistors to hold button at a given state wh
  33:../../libdaisy/src/hid/switch.h ****     enum Pull
  34:../../libdaisy/src/hid/switch.h ****     {
  35:../../libdaisy/src/hid/switch.h ****         PULL_UP,   /**< & */
  36:../../libdaisy/src/hid/switch.h ****         PULL_DOWN, /**< & */
  37:../../libdaisy/src/hid/switch.h ****         PULL_NONE, /**< & */
  38:../../libdaisy/src/hid/switch.h ****     };
  39:../../libdaisy/src/hid/switch.h **** 
  40:../../libdaisy/src/hid/switch.h ****     Switch() {}
  41:../../libdaisy/src/hid/switch.h ****     ~Switch() {}
  67              		.loc 6 41 5 view .LVU9
  68              		.loc 6 41 5 is_stmt 0 view .LVU10
  69              	.LBE3782:
  70              	.LBE3781:
  71              	.LBB3783:
  72              	.LBI3783:
  73              		.file 7 "../../libdaisy/src/daisy_seed.h"
   1:../../libdaisy/src/daisy_seed.h **** #pragma once
   2:../../libdaisy/src/daisy_seed.h **** #ifndef DSY_SEED_H
   3:../../libdaisy/src/daisy_seed.h **** #define DSY_SEED_H
   4:../../libdaisy/src/daisy_seed.h **** 
   5:../../libdaisy/src/daisy_seed.h **** #include "daisy.h"
   6:../../libdaisy/src/daisy_seed.h **** 
   7:../../libdaisy/src/daisy_seed.h **** //Uncomment this out if you're still using the rev2 hardware
   8:../../libdaisy/src/daisy_seed.h **** //#define SEED_REV2
   9:../../libdaisy/src/daisy_seed.h **** 
  10:../../libdaisy/src/daisy_seed.h **** namespace daisy
  11:../../libdaisy/src/daisy_seed.h **** {
  12:../../libdaisy/src/daisy_seed.h **** /**
  13:../../libdaisy/src/daisy_seed.h ****    @brief This is the higher-level interface for the Daisy board. \n 
  14:../../libdaisy/src/daisy_seed.h ****     All basic peripheral configuration/initialization is setup here. \n
  15:../../libdaisy/src/daisy_seed.h **** 
ARM GAS  /tmp/cc00lao6.s 			page 10


  16:../../libdaisy/src/daisy_seed.h ****    @ingroup boards
  17:../../libdaisy/src/daisy_seed.h **** */
  18:../../libdaisy/src/daisy_seed.h **** class DaisySeed
  19:../../libdaisy/src/daisy_seed.h **** {
  20:../../libdaisy/src/daisy_seed.h ****   public:
  21:../../libdaisy/src/daisy_seed.h ****     DaisySeed() {}
  22:../../libdaisy/src/daisy_seed.h ****     ~DaisySeed() {}
  74              		.loc 7 22 5 is_stmt 1 view .LVU11
  75              	.LBB3784:
  76              	.LBI3784:
  77              		.file 8 "../../libdaisy/src/sys/system.h"
   1:../../libdaisy/src/sys/system.h **** #ifndef DSY_SYSTEM_H
   2:../../libdaisy/src/sys/system.h **** #define DSY_SYSTEM_H
   3:../../libdaisy/src/sys/system.h **** 
   4:../../libdaisy/src/sys/system.h **** #ifndef UNIT_TEST // for unit tests, a dummy implementation is provided below
   5:../../libdaisy/src/sys/system.h **** 
   6:../../libdaisy/src/sys/system.h **** #include <cstdint>
   7:../../libdaisy/src/sys/system.h **** #include "per/tim.h"
   8:../../libdaisy/src/sys/system.h **** 
   9:../../libdaisy/src/sys/system.h **** namespace daisy
  10:../../libdaisy/src/sys/system.h **** {
  11:../../libdaisy/src/sys/system.h **** /** A handle for interacting with the Core System. 
  12:../../libdaisy/src/sys/system.h ****  ** This includes the Clock tree, MPU, global DMA initialization,
  13:../../libdaisy/src/sys/system.h ****  ** cache handling, and any other necessary global initiailzation
  14:../../libdaisy/src/sys/system.h ****  **
  15:../../libdaisy/src/sys/system.h ****  ** @author shensley
  16:../../libdaisy/src/sys/system.h ****  ** @addtogroup system
  17:../../libdaisy/src/sys/system.h ****  */
  18:../../libdaisy/src/sys/system.h **** class System
  19:../../libdaisy/src/sys/system.h **** {
  20:../../libdaisy/src/sys/system.h ****   public:
  21:../../libdaisy/src/sys/system.h ****     /** Contains settings for initializing the System */
  22:../../libdaisy/src/sys/system.h ****     struct Config
  23:../../libdaisy/src/sys/system.h ****     {
  24:../../libdaisy/src/sys/system.h ****         /** Specifies the system clock frequency that feeds APB/AHB clocks, etc. */
  25:../../libdaisy/src/sys/system.h ****         enum class SysClkFreq
  26:../../libdaisy/src/sys/system.h ****         {
  27:../../libdaisy/src/sys/system.h ****             FREQ_400MHZ,
  28:../../libdaisy/src/sys/system.h ****             FREQ_480MHZ,
  29:../../libdaisy/src/sys/system.h ****         };
  30:../../libdaisy/src/sys/system.h **** 
  31:../../libdaisy/src/sys/system.h ****         /** Method to call on the struct to set to defaults
  32:../../libdaisy/src/sys/system.h ****          ** CPU Freq set to 400MHz
  33:../../libdaisy/src/sys/system.h ****          ** Cache Enabled 
  34:../../libdaisy/src/sys/system.h ****          ** */
  35:../../libdaisy/src/sys/system.h ****         void Defaults()
  36:../../libdaisy/src/sys/system.h ****         {
  37:../../libdaisy/src/sys/system.h ****             cpu_freq   = SysClkFreq::FREQ_400MHZ;
  38:../../libdaisy/src/sys/system.h ****             use_dcache = true;
  39:../../libdaisy/src/sys/system.h ****             use_icache = true;
  40:../../libdaisy/src/sys/system.h ****         }
  41:../../libdaisy/src/sys/system.h **** 
  42:../../libdaisy/src/sys/system.h ****         /** Method to call on the struct to set to boost mode:
  43:../../libdaisy/src/sys/system.h ****          ** CPU Freq set to 480MHz
  44:../../libdaisy/src/sys/system.h ****          ** Cache Enabled 
  45:../../libdaisy/src/sys/system.h ****          ** */
  46:../../libdaisy/src/sys/system.h ****         void Boost()
ARM GAS  /tmp/cc00lao6.s 			page 11


  47:../../libdaisy/src/sys/system.h ****         {
  48:../../libdaisy/src/sys/system.h ****             cpu_freq   = SysClkFreq::FREQ_480MHZ;
  49:../../libdaisy/src/sys/system.h ****             use_dcache = true;
  50:../../libdaisy/src/sys/system.h ****             use_icache = true;
  51:../../libdaisy/src/sys/system.h ****         }
  52:../../libdaisy/src/sys/system.h **** 
  53:../../libdaisy/src/sys/system.h ****         SysClkFreq cpu_freq;
  54:../../libdaisy/src/sys/system.h ****         bool       use_dcache;
  55:../../libdaisy/src/sys/system.h ****         bool       use_icache;
  56:../../libdaisy/src/sys/system.h ****     };
  57:../../libdaisy/src/sys/system.h **** 
  58:../../libdaisy/src/sys/system.h ****     System() {}
  59:../../libdaisy/src/sys/system.h ****     ~System() {}
  78              		.loc 8 59 5 view .LVU12
  79              		.loc 8 59 5 is_stmt 0 view .LVU13
  80              	.LBE3784:
  81              	.LBB3785:
  82              	.LBI3785:
  83              		.file 9 "../../libdaisy/src/hid/usb.h"
   1:../../libdaisy/src/hid/usb.h **** #pragma once
   2:../../libdaisy/src/hid/usb.h **** #ifndef DSY_HID_USB_H
   3:../../libdaisy/src/hid/usb.h **** #define DSY_HID_USB_H
   4:../../libdaisy/src/hid/usb.h **** #include <stdint.h>
   5:../../libdaisy/src/hid/usb.h **** #include <stdlib.h>
   6:../../libdaisy/src/hid/usb.h **** 
   7:../../libdaisy/src/hid/usb.h **** namespace daisy
   8:../../libdaisy/src/hid/usb.h **** /** @addtogroup externals
   9:../../libdaisy/src/hid/usb.h ****     @{
  10:../../libdaisy/src/hid/usb.h **** */
  11:../../libdaisy/src/hid/usb.h **** 
  12:../../libdaisy/src/hid/usb.h **** {
  13:../../libdaisy/src/hid/usb.h **** /** 
  14:../../libdaisy/src/hid/usb.h ****     @brief Interface for initializing and using the USB Peripherals on the daisy
  15:../../libdaisy/src/hid/usb.h ****     @author Stephen Hensley
  16:../../libdaisy/src/hid/usb.h ****     @date December 2019
  17:../../libdaisy/src/hid/usb.h **** */
  18:../../libdaisy/src/hid/usb.h **** class UsbHandle
  19:../../libdaisy/src/hid/usb.h **** {
  20:../../libdaisy/src/hid/usb.h ****   public:
  21:../../libdaisy/src/hid/usb.h ****     /** Return values for USBHandle Functions */
  22:../../libdaisy/src/hid/usb.h ****     enum class Result
  23:../../libdaisy/src/hid/usb.h ****     {
  24:../../libdaisy/src/hid/usb.h ****         OK,
  25:../../libdaisy/src/hid/usb.h ****         ERR,
  26:../../libdaisy/src/hid/usb.h ****     };
  27:../../libdaisy/src/hid/usb.h **** 
  28:../../libdaisy/src/hid/usb.h ****     /** Specified which of the two USB Peripherals to initialize. */
  29:../../libdaisy/src/hid/usb.h ****     enum UsbPeriph
  30:../../libdaisy/src/hid/usb.h ****     {
  31:../../libdaisy/src/hid/usb.h ****         FS_INTERNAL, /**< Internal pin */
  32:../../libdaisy/src/hid/usb.h ****         FS_EXTERNAL, /**< FS External D+ pin is Pin 38 (GPIO32). FS External D- pin is Pin 37 (GPIO
  33:../../libdaisy/src/hid/usb.h ****         FS_BOTH,     /**< Both */
  34:../../libdaisy/src/hid/usb.h ****     };
  35:../../libdaisy/src/hid/usb.h **** 
  36:../../libdaisy/src/hid/usb.h **** 
  37:../../libdaisy/src/hid/usb.h ****     /** Function called upon reception of a buffer */
  38:../../libdaisy/src/hid/usb.h ****     typedef void (*ReceiveCallback)(uint8_t* buff, uint32_t* len);
ARM GAS  /tmp/cc00lao6.s 			page 12


  39:../../libdaisy/src/hid/usb.h **** 
  40:../../libdaisy/src/hid/usb.h ****     UsbHandle() {}
  41:../../libdaisy/src/hid/usb.h **** 
  42:../../libdaisy/src/hid/usb.h ****     ~UsbHandle() {}
  84              		.loc 9 42 5 is_stmt 1 view .LVU14
  85              		.loc 9 42 5 is_stmt 0 view .LVU15
  86              	.LBE3785:
  87              	.LBB3786:
  88              	.LBI3786:
  89              		.file 10 "../../libdaisy/src/per/adc.h"
   1:../../libdaisy/src/per/adc.h **** #pragma once
   2:../../libdaisy/src/per/adc.h **** #ifndef DSY_ADC_H
   3:../../libdaisy/src/per/adc.h **** #define DSY_ADC_H /**< Macro */
   4:../../libdaisy/src/per/adc.h **** #include <stdint.h>
   5:../../libdaisy/src/per/adc.h **** #include <stdlib.h>
   6:../../libdaisy/src/per/adc.h **** #include "daisy_core.h"
   7:../../libdaisy/src/per/adc.h **** #include "per/gpio.h"
   8:../../libdaisy/src/per/adc.h **** 
   9:../../libdaisy/src/per/adc.h **** #define DSY_ADC_MAX_CHANNELS 14 /**< Maximum number of ADC channels */
  10:../../libdaisy/src/per/adc.h **** 
  11:../../libdaisy/src/per/adc.h **** namespace daisy
  12:../../libdaisy/src/per/adc.h **** {
  13:../../libdaisy/src/per/adc.h **** /** @addtogroup analog_digital_conversion
  14:../../libdaisy/src/per/adc.h ****     @{
  15:../../libdaisy/src/per/adc.h **** */
  16:../../libdaisy/src/per/adc.h **** 
  17:../../libdaisy/src/per/adc.h **** /* While there may not be many configuration options here,
  18:../../libdaisy/src/per/adc.h **** using a struct like this allows us to add more configuration
  19:../../libdaisy/src/per/adc.h **** later without breaking existing functionality.
  20:../../libdaisy/src/per/adc.h **** */
  21:../../libdaisy/src/per/adc.h **** 
  22:../../libdaisy/src/per/adc.h **** /** Configuration Structure for a given channel */
  23:../../libdaisy/src/per/adc.h **** struct AdcChannelConfig
  24:../../libdaisy/src/per/adc.h **** {
  25:../../libdaisy/src/per/adc.h ****     /** Which pin to use for multiplexing */
  26:../../libdaisy/src/per/adc.h ****     enum MuxPin
  27:../../libdaisy/src/per/adc.h ****     {
  28:../../libdaisy/src/per/adc.h ****         MUX_SEL_0,    /**< & */
  29:../../libdaisy/src/per/adc.h ****         MUX_SEL_1,    /**< & */
  30:../../libdaisy/src/per/adc.h ****         MUX_SEL_2,    /**< & */
  31:../../libdaisy/src/per/adc.h ****         MUX_SEL_LAST, /**< & */
  32:../../libdaisy/src/per/adc.h ****     };
  33:../../libdaisy/src/per/adc.h **** 
  34:../../libdaisy/src/per/adc.h ****     /** Initializes a single ADC pin as an ADC. 
  35:../../libdaisy/src/per/adc.h ****     \param pin Pin to init.
  36:../../libdaisy/src/per/adc.h ****      */
  37:../../libdaisy/src/per/adc.h ****     void InitSingle(dsy_gpio_pin pin);
  38:../../libdaisy/src/per/adc.h **** 
  39:../../libdaisy/src/per/adc.h ****     /** 
  40:../../libdaisy/src/per/adc.h ****     Initializes a single ADC pin as a Multiplexed ADC.
  41:../../libdaisy/src/per/adc.h ****     Requires a CD405X Multiplexer connected to the pin.
  42:../../libdaisy/src/per/adc.h ****     You only need to supply the mux pins that are required,
  43:../../libdaisy/src/per/adc.h ****     e.g. a 4052 mux would only require mux_0 and mux_1.
  44:../../libdaisy/src/per/adc.h ****     Internal Callbacks handle the pin addressing.
  45:../../libdaisy/src/per/adc.h ****     \param mux_channels must be 1-8
  46:../../libdaisy/src/per/adc.h ****     \param mux_0 First mux pin
  47:../../libdaisy/src/per/adc.h ****     \param mux_1 Second mux pin
ARM GAS  /tmp/cc00lao6.s 			page 13


  48:../../libdaisy/src/per/adc.h ****     \param mux_2 Third mux pin
  49:../../libdaisy/src/per/adc.h ****     \param adc_pin &
  50:../../libdaisy/src/per/adc.h ****     */
  51:../../libdaisy/src/per/adc.h ****     void InitMux(dsy_gpio_pin adc_pin,
  52:../../libdaisy/src/per/adc.h ****                  size_t       mux_channels,
  53:../../libdaisy/src/per/adc.h ****                  dsy_gpio_pin mux_0,
  54:../../libdaisy/src/per/adc.h ****                  dsy_gpio_pin mux_1 = {DSY_GPIOX, 0},
  55:../../libdaisy/src/per/adc.h ****                  dsy_gpio_pin mux_2 = {DSY_GPIOX, 0});
  56:../../libdaisy/src/per/adc.h **** 
  57:../../libdaisy/src/per/adc.h ****     dsy_gpio pin_;                   /**< & */
  58:../../libdaisy/src/per/adc.h ****     dsy_gpio mux_pin_[MUX_SEL_LAST]; /**< & */
  59:../../libdaisy/src/per/adc.h ****     uint8_t  mux_channels_;          /**< & */
  60:../../libdaisy/src/per/adc.h **** };
  61:../../libdaisy/src/per/adc.h **** 
  62:../../libdaisy/src/per/adc.h **** /**
  63:../../libdaisy/src/per/adc.h ****    Handler for analog to digital conversion
  64:../../libdaisy/src/per/adc.h **** */
  65:../../libdaisy/src/per/adc.h **** class AdcHandle
  66:../../libdaisy/src/per/adc.h **** {
  67:../../libdaisy/src/per/adc.h ****   public:
  68:../../libdaisy/src/per/adc.h ****     /** Supported oversampling amounts */
  69:../../libdaisy/src/per/adc.h ****     enum OverSampling
  70:../../libdaisy/src/per/adc.h ****     {
  71:../../libdaisy/src/per/adc.h ****         OVS_NONE, /**< & */
  72:../../libdaisy/src/per/adc.h ****         OVS_4,    /**< & */
  73:../../libdaisy/src/per/adc.h ****         OVS_8,    /**< & */
  74:../../libdaisy/src/per/adc.h ****         OVS_16,   /**< & */
  75:../../libdaisy/src/per/adc.h ****         OVS_32,   /**< & */
  76:../../libdaisy/src/per/adc.h ****         OVS_64,   /**< & */
  77:../../libdaisy/src/per/adc.h ****         OVS_128,  /**< & */
  78:../../libdaisy/src/per/adc.h ****         OVS_256,  /**< & */
  79:../../libdaisy/src/per/adc.h ****         OVS_512,  /**< & */
  80:../../libdaisy/src/per/adc.h ****         OVS_1024, /**< & */
  81:../../libdaisy/src/per/adc.h ****         OVS_LAST, /**< & */
  82:../../libdaisy/src/per/adc.h ****     };
  83:../../libdaisy/src/per/adc.h **** 
  84:../../libdaisy/src/per/adc.h ****     AdcHandle() {}
  85:../../libdaisy/src/per/adc.h ****     ~AdcHandle() {}
  90              		.loc 10 85 5 is_stmt 1 view .LVU16
  91              		.loc 10 85 5 is_stmt 0 view .LVU17
  92              	.LBE3786:
  93              	.LBB3787:
  94              	.LBI3787:
  95              		.file 11 "../../libdaisy/src/hid/audio.h"
   1:../../libdaisy/src/hid/audio.h **** #ifndef DSY_AUDIO_H
   2:../../libdaisy/src/hid/audio.h **** #define DSY_AUDIO_H /**< & */
   3:../../libdaisy/src/hid/audio.h **** 
   4:../../libdaisy/src/hid/audio.h **** #include "per/sai.h"
   5:../../libdaisy/src/hid/audio.h **** 
   6:../../libdaisy/src/hid/audio.h **** namespace daisy
   7:../../libdaisy/src/hid/audio.h **** {
   8:../../libdaisy/src/hid/audio.h **** class AudioHandle
   9:../../libdaisy/src/hid/audio.h **** {
  10:../../libdaisy/src/hid/audio.h ****   public:
  11:../../libdaisy/src/hid/audio.h ****     /** Manually configurable details about the Audio Engine */
  12:../../libdaisy/src/hid/audio.h ****     /** TODO: Figure out how to get samplerate in here. */
  13:../../libdaisy/src/hid/audio.h ****     struct Config
ARM GAS  /tmp/cc00lao6.s 			page 14


  14:../../libdaisy/src/hid/audio.h ****     {
  15:../../libdaisy/src/hid/audio.h ****         size_t                        blocksize;
  16:../../libdaisy/src/hid/audio.h ****         SaiHandle::Config::SampleRate samplerate;
  17:../../libdaisy/src/hid/audio.h ****         float                         postgain;
  18:../../libdaisy/src/hid/audio.h ****     };
  19:../../libdaisy/src/hid/audio.h **** 
  20:../../libdaisy/src/hid/audio.h ****     enum class Result
  21:../../libdaisy/src/hid/audio.h ****     {
  22:../../libdaisy/src/hid/audio.h ****         OK,
  23:../../libdaisy/src/hid/audio.h ****         ERR,
  24:../../libdaisy/src/hid/audio.h ****     };
  25:../../libdaisy/src/hid/audio.h **** 
  26:../../libdaisy/src/hid/audio.h ****     /** Non-Interleaving input buffer
  27:../../libdaisy/src/hid/audio.h ****      * Buffer arranged by float[chn][sample] 
  28:../../libdaisy/src/hid/audio.h ****      * const so that the user can't modify the input
  29:../../libdaisy/src/hid/audio.h ****     */
  30:../../libdaisy/src/hid/audio.h ****     typedef const float* const* InputBuffer;
  31:../../libdaisy/src/hid/audio.h **** 
  32:../../libdaisy/src/hid/audio.h ****     /** Non-Interleaving output buffer
  33:../../libdaisy/src/hid/audio.h ****      * Arranged by float[chn][sample] 
  34:../../libdaisy/src/hid/audio.h ****     */
  35:../../libdaisy/src/hid/audio.h ****     typedef float** OutputBuffer;
  36:../../libdaisy/src/hid/audio.h **** 
  37:../../libdaisy/src/hid/audio.h ****     /** Type for a Non-Interleaving audio callback 
  38:../../libdaisy/src/hid/audio.h ****    * Non-Interleaving audio callbacks in daisy will be of this type
  39:../../libdaisy/src/hid/audio.h ****   */
  40:../../libdaisy/src/hid/audio.h ****     typedef void (*AudioCallback)(InputBuffer  in,
  41:../../libdaisy/src/hid/audio.h ****                                   OutputBuffer out,
  42:../../libdaisy/src/hid/audio.h ****                                   size_t       size);
  43:../../libdaisy/src/hid/audio.h **** 
  44:../../libdaisy/src/hid/audio.h ****     /** Interleaving Input buffer
  45:../../libdaisy/src/hid/audio.h ****      ** audio is prepared as { L0, R0, L1, R1, . . . LN, RN }]
  46:../../libdaisy/src/hid/audio.h ****      ** this is const, as the user shouldn't modify it
  47:../../libdaisy/src/hid/audio.h ****     */
  48:../../libdaisy/src/hid/audio.h ****     typedef const float* InterleavingInputBuffer;
  49:../../libdaisy/src/hid/audio.h **** 
  50:../../libdaisy/src/hid/audio.h ****     /** Interleaving Output buffer 
  51:../../libdaisy/src/hid/audio.h ****      ** audio is prepared as { L0, R0, L1, R1, . . . LN, RN }
  52:../../libdaisy/src/hid/audio.h ****     */
  53:../../libdaisy/src/hid/audio.h ****     typedef float* InterleavingOutputBuffer;
  54:../../libdaisy/src/hid/audio.h **** 
  55:../../libdaisy/src/hid/audio.h ****     /** Interleaving Audio Callback 
  56:../../libdaisy/src/hid/audio.h ****    * Interleaving audio callbacks in daisy must be of this type
  57:../../libdaisy/src/hid/audio.h ****   */
  58:../../libdaisy/src/hid/audio.h ****     typedef void (*InterleavingAudioCallback)(InterleavingInputBuffer  in,
  59:../../libdaisy/src/hid/audio.h ****                                               InterleavingOutputBuffer out,
  60:../../libdaisy/src/hid/audio.h ****                                               size_t                   size);
  61:../../libdaisy/src/hid/audio.h **** 
  62:../../libdaisy/src/hid/audio.h ****     AudioHandle() : pimpl_(nullptr) {}
  63:../../libdaisy/src/hid/audio.h ****     ~AudioHandle() {}
  96              		.loc 11 63 5 is_stmt 1 view .LVU18
  97              		.loc 11 63 5 is_stmt 0 view .LVU19
  98              	.LBE3787:
  99              	.LBE3783:
 100              		.loc 1 41 20 view .LVU20
 101 0000 7047     		bx	lr
 102              		.cfi_endproc
ARM GAS  /tmp/cc00lao6.s 			page 15


 103              	.LFE2060:
 105              		.weak	_ZN5daisy10DaisyPatchD1Ev
 106              		.thumb_set _ZN5daisy10DaisyPatchD1Ev,_ZN5daisy10DaisyPatchD2Ev
 107 0002 00BF     		.section	.text._ZN5daisy11OledDisplayINS_13SSD130xDriverILj128ELj64ENS_24SSD130x4WireSpiTransportE
 108              		.align	1
 109              		.p2align 2,,3
 110              		.weak	_ZN5daisy11OledDisplayINS_13SSD130xDriverILj128ELj64ENS_24SSD130x4WireSpiTransportEEEED2Ev
 111              		.syntax unified
 112              		.thumb
 113              		.thumb_func
 114              		.fpu fpv5-d16
 116              	_ZN5daisy11OledDisplayINS_13SSD130xDriverILj128ELj64ENS_24SSD130x4WireSpiTransportEEEED2Ev:
 117              	.LVL1:
 118              	.LFB4869:
 119              		.loc 2 17 13 is_stmt 1 view -0
 120              		.cfi_startproc
 121              		@ args = 0, pretend = 0, frame = 0
 122              		@ frame_needed = 0, uses_anonymous_args = 0
 123              		@ link register save eliminated.
 124              	.LBB3788:
 125              	.LBI3788:
 126              		.loc 3 219 13 view .LVU22
 127              	.LBB3789:
 128              	.LBI3789:
  23:../../libdaisy/src/hid/disp/display.h **** 
 129              		.loc 3 23 13 view .LVU23
  23:../../libdaisy/src/hid/disp/display.h **** 
 130              		.loc 3 23 13 is_stmt 0 view .LVU24
 131              	.LBE3789:
 132              	.LBE3788:
 133              		.loc 2 17 29 view .LVU25
 134 0000 7047     		bx	lr
 135              		.cfi_endproc
 136              	.LFE4869:
 138              		.weak	_ZN5daisy11OledDisplayINS_13SSD130xDriverILj128ELj64ENS_24SSD130x4WireSpiTransportEEEED1Ev
 139              		.thumb_set _ZN5daisy11OledDisplayINS_13SSD130xDriverILj128ELj64ENS_24SSD130x4WireSpiTransportEEEED
 140 0002 00BF     		.section	.text._ZN5daisy11OledDisplayINS_13SSD130xDriverILj128ELj64ENS_24SSD130x4WireSpiTransportE
 141              		.align	1
 142              		.p2align 2,,3
 143              		.weak	_ZN5daisy11OledDisplayINS_13SSD130xDriverILj128ELj64ENS_24SSD130x4WireSpiTransportEEEE4FillE
 144              		.syntax unified
 145              		.thumb
 146              		.thumb_func
 147              		.fpu fpv5-d16
 149              	_ZN5daisy11OledDisplayINS_13SSD130xDriverILj128ELj64ENS_24SSD130x4WireSpiTransportEEEE4FillEb:
 150              	.LVL2:
 151              	.LFB5200:
  18:../../libdaisy/src/hid/disp/oled_display.h **** 
  19:../../libdaisy/src/hid/disp/oled_display.h ****     struct Config
  20:../../libdaisy/src/hid/disp/oled_display.h ****     {
  21:../../libdaisy/src/hid/disp/oled_display.h ****         typename DisplayDriver::Config driver_config;
  22:../../libdaisy/src/hid/disp/oled_display.h ****     };
  23:../../libdaisy/src/hid/disp/oled_display.h **** 
  24:../../libdaisy/src/hid/disp/oled_display.h ****     void Init(Config config) { driver_.Init(config.driver_config); }
  25:../../libdaisy/src/hid/disp/oled_display.h **** 
  26:../../libdaisy/src/hid/disp/oled_display.h ****     uint16_t Height() const override { return driver_.Height(); }
  27:../../libdaisy/src/hid/disp/oled_display.h ****     uint16_t Width() const override { return driver_.Width(); }
ARM GAS  /tmp/cc00lao6.s 			page 16


  28:../../libdaisy/src/hid/disp/oled_display.h **** 
  29:../../libdaisy/src/hid/disp/oled_display.h ****     /** 
  30:../../libdaisy/src/hid/disp/oled_display.h ****     Fills the entire display with either on/off.
  31:../../libdaisy/src/hid/disp/oled_display.h ****     \param on Sets on or off.
  32:../../libdaisy/src/hid/disp/oled_display.h ****     */
  33:../../libdaisy/src/hid/disp/oled_display.h ****     void Fill(bool on) override { driver_.Fill(on); }
 152              		.loc 2 33 10 is_stmt 1 view -0
 153              		.cfi_startproc
 154              		@ args = 0, pretend = 0, frame = 0
 155              		@ frame_needed = 0, uses_anonymous_args = 0
 156              		@ link register save eliminated.
 157              	.LBB3790:
 158              	.LBI3790:
 159              		.file 12 "../../libdaisy/src/dev/oled_ssd130x.h"
   1:../../libdaisy/src/dev/oled_ssd130x.h **** #pragma once
   2:../../libdaisy/src/dev/oled_ssd130x.h **** #ifndef SA_OLED_SSD130X_H
   3:../../libdaisy/src/dev/oled_ssd130x.h **** #define SA_OLED_SSD130X_H /**< & */
   4:../../libdaisy/src/dev/oled_ssd130x.h **** 
   5:../../libdaisy/src/dev/oled_ssd130x.h **** #include "per/i2c.h"
   6:../../libdaisy/src/dev/oled_ssd130x.h **** #include "per/spi.h"
   7:../../libdaisy/src/dev/oled_ssd130x.h **** #include "per/gpio.h"
   8:../../libdaisy/src/dev/oled_ssd130x.h **** #include "sys/system.h"
   9:../../libdaisy/src/dev/oled_ssd130x.h **** 
  10:../../libdaisy/src/dev/oled_ssd130x.h **** namespace daisy
  11:../../libdaisy/src/dev/oled_ssd130x.h **** {
  12:../../libdaisy/src/dev/oled_ssd130x.h **** /**
  13:../../libdaisy/src/dev/oled_ssd130x.h ****  * I2C Transport for SSD1306 / SSD1309 OLED display devices
  14:../../libdaisy/src/dev/oled_ssd130x.h ****  */
  15:../../libdaisy/src/dev/oled_ssd130x.h **** class SSD130xI2CTransport
  16:../../libdaisy/src/dev/oled_ssd130x.h **** {
  17:../../libdaisy/src/dev/oled_ssd130x.h ****   public:
  18:../../libdaisy/src/dev/oled_ssd130x.h ****     struct Config
  19:../../libdaisy/src/dev/oled_ssd130x.h ****     {
  20:../../libdaisy/src/dev/oled_ssd130x.h ****         I2CHandle::Config i2c_config;
  21:../../libdaisy/src/dev/oled_ssd130x.h ****         uint8_t           i2c_address;
  22:../../libdaisy/src/dev/oled_ssd130x.h ****         void              Defaults()
  23:../../libdaisy/src/dev/oled_ssd130x.h ****         {
  24:../../libdaisy/src/dev/oled_ssd130x.h ****             i2c_config.periph         = I2CHandle::Config::Peripheral::I2C_1;
  25:../../libdaisy/src/dev/oled_ssd130x.h ****             i2c_config.speed          = I2CHandle::Config::Speed::I2C_1MHZ;
  26:../../libdaisy/src/dev/oled_ssd130x.h ****             i2c_config.mode           = I2CHandle::Config::Mode::I2C_MASTER;
  27:../../libdaisy/src/dev/oled_ssd130x.h ****             i2c_config.pin_config.scl = {DSY_GPIOB, 8};
  28:../../libdaisy/src/dev/oled_ssd130x.h ****             i2c_config.pin_config.sda = {DSY_GPIOB, 9};
  29:../../libdaisy/src/dev/oled_ssd130x.h ****             i2c_address               = 0x3C;
  30:../../libdaisy/src/dev/oled_ssd130x.h ****         }
  31:../../libdaisy/src/dev/oled_ssd130x.h ****     };
  32:../../libdaisy/src/dev/oled_ssd130x.h ****     void Init(const Config& config)
  33:../../libdaisy/src/dev/oled_ssd130x.h ****     {
  34:../../libdaisy/src/dev/oled_ssd130x.h ****         i2c_address_ = config.i2c_address;
  35:../../libdaisy/src/dev/oled_ssd130x.h ****         i2c_.Init(config.i2c_config);
  36:../../libdaisy/src/dev/oled_ssd130x.h ****     };
  37:../../libdaisy/src/dev/oled_ssd130x.h ****     void SendCommand(uint8_t cmd)
  38:../../libdaisy/src/dev/oled_ssd130x.h ****     {
  39:../../libdaisy/src/dev/oled_ssd130x.h ****         uint8_t buf[2] = {0X00, cmd};
  40:../../libdaisy/src/dev/oled_ssd130x.h ****         i2c_.TransmitBlocking(i2c_address_, buf, 2, 1000);
  41:../../libdaisy/src/dev/oled_ssd130x.h ****     };
  42:../../libdaisy/src/dev/oled_ssd130x.h **** 
  43:../../libdaisy/src/dev/oled_ssd130x.h ****     void SendData(uint8_t* buff, size_t size)
ARM GAS  /tmp/cc00lao6.s 			page 17


  44:../../libdaisy/src/dev/oled_ssd130x.h ****     {
  45:../../libdaisy/src/dev/oled_ssd130x.h ****         for(size_t i = 0; i < size; i++)
  46:../../libdaisy/src/dev/oled_ssd130x.h ****         {
  47:../../libdaisy/src/dev/oled_ssd130x.h ****             uint8_t buf[2] = {0X40, buff[i]};
  48:../../libdaisy/src/dev/oled_ssd130x.h ****             i2c_.TransmitBlocking(i2c_address_, buf, 2, 1000);
  49:../../libdaisy/src/dev/oled_ssd130x.h ****         }
  50:../../libdaisy/src/dev/oled_ssd130x.h ****     };
  51:../../libdaisy/src/dev/oled_ssd130x.h **** 
  52:../../libdaisy/src/dev/oled_ssd130x.h ****   private:
  53:../../libdaisy/src/dev/oled_ssd130x.h ****     daisy::I2CHandle i2c_;
  54:../../libdaisy/src/dev/oled_ssd130x.h ****     uint8_t          i2c_address_;
  55:../../libdaisy/src/dev/oled_ssd130x.h **** };
  56:../../libdaisy/src/dev/oled_ssd130x.h **** 
  57:../../libdaisy/src/dev/oled_ssd130x.h **** /**
  58:../../libdaisy/src/dev/oled_ssd130x.h ****  * 4 Wire SPI Transport for SSD1306 / SSD1309 OLED display devices
  59:../../libdaisy/src/dev/oled_ssd130x.h ****  */
  60:../../libdaisy/src/dev/oled_ssd130x.h **** class SSD130x4WireSpiTransport
  61:../../libdaisy/src/dev/oled_ssd130x.h **** {
  62:../../libdaisy/src/dev/oled_ssd130x.h ****   public:
  63:../../libdaisy/src/dev/oled_ssd130x.h ****     struct Config
  64:../../libdaisy/src/dev/oled_ssd130x.h ****     {
  65:../../libdaisy/src/dev/oled_ssd130x.h ****         struct
  66:../../libdaisy/src/dev/oled_ssd130x.h ****         {
  67:../../libdaisy/src/dev/oled_ssd130x.h ****             dsy_gpio_pin dc;    /**< & */
  68:../../libdaisy/src/dev/oled_ssd130x.h ****             dsy_gpio_pin reset; /**< & */
  69:../../libdaisy/src/dev/oled_ssd130x.h ****         } pin_config;
  70:../../libdaisy/src/dev/oled_ssd130x.h ****         void Defaults()
  71:../../libdaisy/src/dev/oled_ssd130x.h ****         {
  72:../../libdaisy/src/dev/oled_ssd130x.h ****             pin_config.dc    = {DSY_GPIOB, 4};
  73:../../libdaisy/src/dev/oled_ssd130x.h ****             pin_config.reset = {DSY_GPIOB, 15};
  74:../../libdaisy/src/dev/oled_ssd130x.h ****         }
  75:../../libdaisy/src/dev/oled_ssd130x.h ****     };
  76:../../libdaisy/src/dev/oled_ssd130x.h ****     void Init(const Config& config)
  77:../../libdaisy/src/dev/oled_ssd130x.h ****     {
  78:../../libdaisy/src/dev/oled_ssd130x.h ****         // Initialize both GPIO
  79:../../libdaisy/src/dev/oled_ssd130x.h ****         pin_dc_.mode = DSY_GPIO_MODE_OUTPUT_PP;
  80:../../libdaisy/src/dev/oled_ssd130x.h ****         pin_dc_.pin  = config.pin_config.dc;
  81:../../libdaisy/src/dev/oled_ssd130x.h ****         dsy_gpio_init(&pin_dc_);
  82:../../libdaisy/src/dev/oled_ssd130x.h ****         pin_reset_.mode = DSY_GPIO_MODE_OUTPUT_PP;
  83:../../libdaisy/src/dev/oled_ssd130x.h ****         pin_reset_.pin  = config.pin_config.reset;
  84:../../libdaisy/src/dev/oled_ssd130x.h ****         dsy_gpio_init(&pin_reset_);
  85:../../libdaisy/src/dev/oled_ssd130x.h ****         // Initialize SPI
  86:../../libdaisy/src/dev/oled_ssd130x.h ****         SpiHandle::Config spi_config;
  87:../../libdaisy/src/dev/oled_ssd130x.h ****         spi_config.periph    = SpiHandle::Config::Peripheral::SPI_1;
  88:../../libdaisy/src/dev/oled_ssd130x.h ****         spi_config.mode      = SpiHandle::Config::Mode::MASTER;
  89:../../libdaisy/src/dev/oled_ssd130x.h ****         spi_config.direction = SpiHandle::Config::Direction::TWO_LINES_TX_ONLY;
  90:../../libdaisy/src/dev/oled_ssd130x.h ****         spi_config.datasize  = 8;
  91:../../libdaisy/src/dev/oled_ssd130x.h ****         spi_config.clock_polarity = SpiHandle::Config::ClockPolarity::LOW;
  92:../../libdaisy/src/dev/oled_ssd130x.h ****         spi_config.clock_phase    = SpiHandle::Config::ClockPhase::ONE_EDGE;
  93:../../libdaisy/src/dev/oled_ssd130x.h ****         spi_config.nss            = SpiHandle::Config::NSS::HARD_OUTPUT;
  94:../../libdaisy/src/dev/oled_ssd130x.h ****         spi_config.baud_prescaler = SpiHandle::Config::BaudPrescaler::PS_8;
  95:../../libdaisy/src/dev/oled_ssd130x.h **** 
  96:../../libdaisy/src/dev/oled_ssd130x.h ****         spi_config.pin_config.sclk = {DSY_GPIOG, 11};
  97:../../libdaisy/src/dev/oled_ssd130x.h ****         spi_config.pin_config.miso = {DSY_GPIOX, 0};
  98:../../libdaisy/src/dev/oled_ssd130x.h ****         spi_config.pin_config.mosi = {DSY_GPIOB, 5};
  99:../../libdaisy/src/dev/oled_ssd130x.h ****         spi_config.pin_config.nss  = {DSY_GPIOG, 10};
 100:../../libdaisy/src/dev/oled_ssd130x.h **** 
ARM GAS  /tmp/cc00lao6.s 			page 18


 101:../../libdaisy/src/dev/oled_ssd130x.h ****         spi_.Init(spi_config);
 102:../../libdaisy/src/dev/oled_ssd130x.h **** 
 103:../../libdaisy/src/dev/oled_ssd130x.h ****         // Reset and Configure OLED.
 104:../../libdaisy/src/dev/oled_ssd130x.h ****         dsy_gpio_write(&pin_reset_, 0);
 105:../../libdaisy/src/dev/oled_ssd130x.h ****         System::Delay(10);
 106:../../libdaisy/src/dev/oled_ssd130x.h ****         dsy_gpio_write(&pin_reset_, 1);
 107:../../libdaisy/src/dev/oled_ssd130x.h ****         System::Delay(10);
 108:../../libdaisy/src/dev/oled_ssd130x.h ****     };
 109:../../libdaisy/src/dev/oled_ssd130x.h ****     void SendCommand(uint8_t cmd)
 110:../../libdaisy/src/dev/oled_ssd130x.h ****     {
 111:../../libdaisy/src/dev/oled_ssd130x.h ****         dsy_gpio_write(&pin_dc_, 0);
 112:../../libdaisy/src/dev/oled_ssd130x.h ****         spi_.BlockingTransmit(&cmd, 1);
 113:../../libdaisy/src/dev/oled_ssd130x.h ****     };
 114:../../libdaisy/src/dev/oled_ssd130x.h **** 
 115:../../libdaisy/src/dev/oled_ssd130x.h ****     void SendData(uint8_t* buff, size_t size)
 116:../../libdaisy/src/dev/oled_ssd130x.h ****     {
 117:../../libdaisy/src/dev/oled_ssd130x.h ****         dsy_gpio_write(&pin_dc_, 1);
 118:../../libdaisy/src/dev/oled_ssd130x.h ****         spi_.BlockingTransmit(buff, size);
 119:../../libdaisy/src/dev/oled_ssd130x.h ****     };
 120:../../libdaisy/src/dev/oled_ssd130x.h **** 
 121:../../libdaisy/src/dev/oled_ssd130x.h ****   private:
 122:../../libdaisy/src/dev/oled_ssd130x.h ****     SpiHandle spi_;
 123:../../libdaisy/src/dev/oled_ssd130x.h ****     dsy_gpio  pin_reset_;
 124:../../libdaisy/src/dev/oled_ssd130x.h ****     dsy_gpio  pin_dc_;
 125:../../libdaisy/src/dev/oled_ssd130x.h **** };
 126:../../libdaisy/src/dev/oled_ssd130x.h **** 
 127:../../libdaisy/src/dev/oled_ssd130x.h **** 
 128:../../libdaisy/src/dev/oled_ssd130x.h **** /**
 129:../../libdaisy/src/dev/oled_ssd130x.h ****  * A driver implementation for the SSD1306/SSD1309
 130:../../libdaisy/src/dev/oled_ssd130x.h ****  */
 131:../../libdaisy/src/dev/oled_ssd130x.h **** template <size_t width, size_t height, typename Transport>
 132:../../libdaisy/src/dev/oled_ssd130x.h **** class SSD130xDriver
 133:../../libdaisy/src/dev/oled_ssd130x.h **** {
 134:../../libdaisy/src/dev/oled_ssd130x.h ****   public:
 135:../../libdaisy/src/dev/oled_ssd130x.h ****     struct Config
 136:../../libdaisy/src/dev/oled_ssd130x.h ****     {
 137:../../libdaisy/src/dev/oled_ssd130x.h ****         typename Transport::Config transport_config;
 138:../../libdaisy/src/dev/oled_ssd130x.h ****     };
 139:../../libdaisy/src/dev/oled_ssd130x.h **** 
 140:../../libdaisy/src/dev/oled_ssd130x.h ****     void Init(Config config)
 141:../../libdaisy/src/dev/oled_ssd130x.h ****     {
 142:../../libdaisy/src/dev/oled_ssd130x.h ****         transport_.Init(config.transport_config);
 143:../../libdaisy/src/dev/oled_ssd130x.h **** 
 144:../../libdaisy/src/dev/oled_ssd130x.h ****         // Init routine...
 145:../../libdaisy/src/dev/oled_ssd130x.h **** 
 146:../../libdaisy/src/dev/oled_ssd130x.h ****         // Display Off
 147:../../libdaisy/src/dev/oled_ssd130x.h ****         transport_.SendCommand(0xaE);
 148:../../libdaisy/src/dev/oled_ssd130x.h ****         // Dimension dependent commands...
 149:../../libdaisy/src/dev/oled_ssd130x.h ****         switch(height)
 150:../../libdaisy/src/dev/oled_ssd130x.h ****         {
 151:../../libdaisy/src/dev/oled_ssd130x.h ****             case 16:
 152:../../libdaisy/src/dev/oled_ssd130x.h ****                 // Display Clock Divide Ratio
 153:../../libdaisy/src/dev/oled_ssd130x.h ****                 transport_.SendCommand(0xD5);
 154:../../libdaisy/src/dev/oled_ssd130x.h ****                 transport_.SendCommand(0x60);
 155:../../libdaisy/src/dev/oled_ssd130x.h ****                 // Multiplex Ratio
 156:../../libdaisy/src/dev/oled_ssd130x.h ****                 transport_.SendCommand(0xA8);
 157:../../libdaisy/src/dev/oled_ssd130x.h ****                 transport_.SendCommand(0x0F);
ARM GAS  /tmp/cc00lao6.s 			page 19


 158:../../libdaisy/src/dev/oled_ssd130x.h ****                 // COM Pins
 159:../../libdaisy/src/dev/oled_ssd130x.h ****                 transport_.SendCommand(0xDA);
 160:../../libdaisy/src/dev/oled_ssd130x.h ****                 transport_.SendCommand(0x02);
 161:../../libdaisy/src/dev/oled_ssd130x.h ****                 break;
 162:../../libdaisy/src/dev/oled_ssd130x.h ****             case 32:
 163:../../libdaisy/src/dev/oled_ssd130x.h ****                 // Display Clock Divide Ratio
 164:../../libdaisy/src/dev/oled_ssd130x.h ****                 transport_.SendCommand(0xD5);
 165:../../libdaisy/src/dev/oled_ssd130x.h ****                 transport_.SendCommand(0x80);
 166:../../libdaisy/src/dev/oled_ssd130x.h ****                 // Multiplex Ratio
 167:../../libdaisy/src/dev/oled_ssd130x.h ****                 transport_.SendCommand(0xA8);
 168:../../libdaisy/src/dev/oled_ssd130x.h ****                 transport_.SendCommand(0x1F);
 169:../../libdaisy/src/dev/oled_ssd130x.h ****                 // COM Pins
 170:../../libdaisy/src/dev/oled_ssd130x.h ****                 transport_.SendCommand(0xDA);
 171:../../libdaisy/src/dev/oled_ssd130x.h ****                 if(width == 64)
 172:../../libdaisy/src/dev/oled_ssd130x.h ****                 {
 173:../../libdaisy/src/dev/oled_ssd130x.h ****                     transport_.SendCommand(0x12);
 174:../../libdaisy/src/dev/oled_ssd130x.h ****                 }
 175:../../libdaisy/src/dev/oled_ssd130x.h ****                 else
 176:../../libdaisy/src/dev/oled_ssd130x.h ****                 {
 177:../../libdaisy/src/dev/oled_ssd130x.h ****                     transport_.SendCommand(0x02);
 178:../../libdaisy/src/dev/oled_ssd130x.h ****                 }
 179:../../libdaisy/src/dev/oled_ssd130x.h **** 
 180:../../libdaisy/src/dev/oled_ssd130x.h ****                 break;
 181:../../libdaisy/src/dev/oled_ssd130x.h ****             case 48:
 182:../../libdaisy/src/dev/oled_ssd130x.h ****                 // Display Clock Divide Ratio
 183:../../libdaisy/src/dev/oled_ssd130x.h ****                 transport_.SendCommand(0xD5);
 184:../../libdaisy/src/dev/oled_ssd130x.h ****                 transport_.SendCommand(0x80);
 185:../../libdaisy/src/dev/oled_ssd130x.h ****                 // Multiplex Ratio
 186:../../libdaisy/src/dev/oled_ssd130x.h ****                 transport_.SendCommand(0xA8);
 187:../../libdaisy/src/dev/oled_ssd130x.h ****                 transport_.SendCommand(0x2F);
 188:../../libdaisy/src/dev/oled_ssd130x.h ****                 // COM Pins
 189:../../libdaisy/src/dev/oled_ssd130x.h ****                 transport_.SendCommand(0xDA);
 190:../../libdaisy/src/dev/oled_ssd130x.h ****                 transport_.SendCommand(0x12);
 191:../../libdaisy/src/dev/oled_ssd130x.h ****                 break;
 192:../../libdaisy/src/dev/oled_ssd130x.h ****             default: // 128
 193:../../libdaisy/src/dev/oled_ssd130x.h ****                 // Display Clock Divide Ratio
 194:../../libdaisy/src/dev/oled_ssd130x.h ****                 transport_.SendCommand(0xD5);
 195:../../libdaisy/src/dev/oled_ssd130x.h ****                 transport_.SendCommand(0x80);
 196:../../libdaisy/src/dev/oled_ssd130x.h ****                 // Multiplex Ratio
 197:../../libdaisy/src/dev/oled_ssd130x.h ****                 transport_.SendCommand(0xA8);
 198:../../libdaisy/src/dev/oled_ssd130x.h ****                 transport_.SendCommand(0x3F);
 199:../../libdaisy/src/dev/oled_ssd130x.h ****                 // COM Pins
 200:../../libdaisy/src/dev/oled_ssd130x.h ****                 transport_.SendCommand(0xDA);
 201:../../libdaisy/src/dev/oled_ssd130x.h ****                 transport_.SendCommand(0x12);
 202:../../libdaisy/src/dev/oled_ssd130x.h ****                 break;
 203:../../libdaisy/src/dev/oled_ssd130x.h ****         }
 204:../../libdaisy/src/dev/oled_ssd130x.h **** 
 205:../../libdaisy/src/dev/oled_ssd130x.h ****         // Display Offset
 206:../../libdaisy/src/dev/oled_ssd130x.h ****         transport_.SendCommand(0xD3);
 207:../../libdaisy/src/dev/oled_ssd130x.h ****         transport_.SendCommand(0x00);
 208:../../libdaisy/src/dev/oled_ssd130x.h ****         // Start Line Address
 209:../../libdaisy/src/dev/oled_ssd130x.h ****         transport_.SendCommand(0x40);
 210:../../libdaisy/src/dev/oled_ssd130x.h ****         // Normal Display
 211:../../libdaisy/src/dev/oled_ssd130x.h ****         transport_.SendCommand(0xA6);
 212:../../libdaisy/src/dev/oled_ssd130x.h ****         // All On Resume
 213:../../libdaisy/src/dev/oled_ssd130x.h ****         transport_.SendCommand(0xA4);
 214:../../libdaisy/src/dev/oled_ssd130x.h ****         // Charge Pump
ARM GAS  /tmp/cc00lao6.s 			page 20


 215:../../libdaisy/src/dev/oled_ssd130x.h ****         transport_.SendCommand(0x8D);
 216:../../libdaisy/src/dev/oled_ssd130x.h ****         transport_.SendCommand(0x14);
 217:../../libdaisy/src/dev/oled_ssd130x.h ****         // Set Segment Remap
 218:../../libdaisy/src/dev/oled_ssd130x.h ****         transport_.SendCommand(0xA1);
 219:../../libdaisy/src/dev/oled_ssd130x.h ****         // COM Output Scan Direction
 220:../../libdaisy/src/dev/oled_ssd130x.h ****         transport_.SendCommand(0xC8);
 221:../../libdaisy/src/dev/oled_ssd130x.h ****         // Contrast Control
 222:../../libdaisy/src/dev/oled_ssd130x.h ****         transport_.SendCommand(0x81);
 223:../../libdaisy/src/dev/oled_ssd130x.h ****         transport_.SendCommand(0x8F);
 224:../../libdaisy/src/dev/oled_ssd130x.h ****         // Pre Charge
 225:../../libdaisy/src/dev/oled_ssd130x.h ****         transport_.SendCommand(0xD9);
 226:../../libdaisy/src/dev/oled_ssd130x.h ****         transport_.SendCommand(0x25);
 227:../../libdaisy/src/dev/oled_ssd130x.h ****         // VCOM Detect
 228:../../libdaisy/src/dev/oled_ssd130x.h ****         transport_.SendCommand(0xDB);
 229:../../libdaisy/src/dev/oled_ssd130x.h ****         transport_.SendCommand(0x34);
 230:../../libdaisy/src/dev/oled_ssd130x.h **** 
 231:../../libdaisy/src/dev/oled_ssd130x.h **** 
 232:../../libdaisy/src/dev/oled_ssd130x.h ****         // Display On
 233:../../libdaisy/src/dev/oled_ssd130x.h ****         transport_.SendCommand(0xAF); //--turn on oled panel
 234:../../libdaisy/src/dev/oled_ssd130x.h ****     };
 235:../../libdaisy/src/dev/oled_ssd130x.h **** 
 236:../../libdaisy/src/dev/oled_ssd130x.h ****     size_t Width() const { return width; };
 237:../../libdaisy/src/dev/oled_ssd130x.h ****     size_t Height() const { return height; };
 238:../../libdaisy/src/dev/oled_ssd130x.h **** 
 239:../../libdaisy/src/dev/oled_ssd130x.h ****     void DrawPixel(uint_fast8_t x, uint_fast8_t y, bool on)
 240:../../libdaisy/src/dev/oled_ssd130x.h ****     {
 241:../../libdaisy/src/dev/oled_ssd130x.h ****         if(x >= width || y >= height)
 242:../../libdaisy/src/dev/oled_ssd130x.h ****             return;
 243:../../libdaisy/src/dev/oled_ssd130x.h ****         if(on)
 244:../../libdaisy/src/dev/oled_ssd130x.h ****             buffer_[x + (y / 8) * width] |= (1 << (y % 8));
 245:../../libdaisy/src/dev/oled_ssd130x.h ****         else
 246:../../libdaisy/src/dev/oled_ssd130x.h ****             buffer_[x + (y / 8) * width] &= ~(1 << (y % 8));
 247:../../libdaisy/src/dev/oled_ssd130x.h ****     }
 248:../../libdaisy/src/dev/oled_ssd130x.h **** 
 249:../../libdaisy/src/dev/oled_ssd130x.h ****     void Fill(bool on)
 160              		.loc 12 249 10 view .LVU27
 161              	.LBB3791:
 250:../../libdaisy/src/dev/oled_ssd130x.h ****     {
 251:../../libdaisy/src/dev/oled_ssd130x.h ****         for(size_t i = 0; i < sizeof(buffer_); i++)
 162              		.loc 12 251 29 view .LVU28
 163 0000 4942     		rsbs	r1, r1, #0
 164              	.LVL3:
 165              		.loc 12 251 29 is_stmt 0 view .LVU29
 166 0002 00F11303 		add	r3, r0, #19
 167 0006 00F21342 		addw	r2, r0, #1043
 168 000a C9B2     		uxtb	r1, r1
 169              	.LVL4:
 170              	.L5:
 252:../../libdaisy/src/dev/oled_ssd130x.h ****         {
 253:../../libdaisy/src/dev/oled_ssd130x.h ****             buffer_[i] = on ? 0xff : 0x00;
 171              		.loc 12 253 13 view .LVU30
 172 000c 03F8011F 		strb	r1, [r3, #1]!
 173              	.LVL5:
 251:../../libdaisy/src/dev/oled_ssd130x.h ****         {
 174              		.loc 12 251 9 is_stmt 1 view .LVU31
 251:../../libdaisy/src/dev/oled_ssd130x.h ****         {
 175              		.loc 12 251 29 view .LVU32
ARM GAS  /tmp/cc00lao6.s 			page 21


 176 0010 9342     		cmp	r3, r2
 177 0012 FBD1     		bne	.L5
 178              	.LBE3791:
 179              	.LBE3790:
 180              		.loc 2 33 53 is_stmt 0 view .LVU33
 181 0014 7047     		bx	lr
 182              		.cfi_endproc
 183              	.LFE5200:
 185 0016 00BF     		.section	.text._ZNK5daisy11OledDisplayINS_13SSD130xDriverILj128ELj64ENS_24SSD130x4WireSpiTransport
 186              		.align	1
 187              		.p2align 2,,3
 188              		.weak	_ZNK5daisy11OledDisplayINS_13SSD130xDriverILj128ELj64ENS_24SSD130x4WireSpiTransportEEEE6Heig
 189              		.syntax unified
 190              		.thumb
 191              		.thumb_func
 192              		.fpu fpv5-d16
 194              	_ZNK5daisy11OledDisplayINS_13SSD130xDriverILj128ELj64ENS_24SSD130x4WireSpiTransportEEEE6HeightEv:
 195              	.LVL6:
 196              	.LFB5611:
  26:../../libdaisy/src/hid/disp/oled_display.h ****     uint16_t Width() const override { return driver_.Width(); }
 197              		.loc 2 26 14 is_stmt 1 view -0
 198              		.cfi_startproc
 199              		@ args = 0, pretend = 0, frame = 0
 200              		@ frame_needed = 0, uses_anonymous_args = 0
 201              		@ link register save eliminated.
  26:../../libdaisy/src/hid/disp/oled_display.h ****     uint16_t Width() const override { return driver_.Width(); }
 202              		.loc 2 26 65 is_stmt 0 view .LVU35
 203 0000 4020     		movs	r0, #64
 204              	.LVL7:
  26:../../libdaisy/src/hid/disp/oled_display.h ****     uint16_t Width() const override { return driver_.Width(); }
 205              		.loc 2 26 65 view .LVU36
 206 0002 7047     		bx	lr
 207              		.cfi_endproc
 208              	.LFE5611:
 210              		.section	.text._ZNK5daisy11OledDisplayINS_13SSD130xDriverILj128ELj64ENS_24SSD130x4WireSpiTransport
 211              		.align	1
 212              		.p2align 2,,3
 213              		.weak	_ZNK5daisy11OledDisplayINS_13SSD130xDriverILj128ELj64ENS_24SSD130x4WireSpiTransportEEEE5Widt
 214              		.syntax unified
 215              		.thumb
 216              		.thumb_func
 217              		.fpu fpv5-d16
 219              	_ZNK5daisy11OledDisplayINS_13SSD130xDriverILj128ELj64ENS_24SSD130x4WireSpiTransportEEEE5WidthEv:
 220              	.LVL8:
 221              	.LFB5612:
  27:../../libdaisy/src/hid/disp/oled_display.h **** 
 222              		.loc 2 27 14 is_stmt 1 view -0
 223              		.cfi_startproc
 224              		@ args = 0, pretend = 0, frame = 0
 225              		@ frame_needed = 0, uses_anonymous_args = 0
 226              		@ link register save eliminated.
  27:../../libdaisy/src/hid/disp/oled_display.h **** 
 227              		.loc 2 27 63 is_stmt 0 view .LVU38
 228 0000 8020     		movs	r0, #128
 229              	.LVL9:
  27:../../libdaisy/src/hid/disp/oled_display.h **** 
 230              		.loc 2 27 63 view .LVU39
ARM GAS  /tmp/cc00lao6.s 			page 22


 231 0002 7047     		bx	lr
 232              		.cfi_endproc
 233              	.LFE5612:
 235              		.section	.text._ZNSt6vectorINSt7__cxx1112basic_stringIcSt11char_traitsIcESaIcEEESaIS5_EED2Ev,"axG"
 236              		.align	1
 237              		.p2align 2,,3
 238              		.weak	_ZNSt6vectorINSt7__cxx1112basic_stringIcSt11char_traitsIcESaIcEEESaIS5_EED2Ev
 239              		.syntax unified
 240              		.thumb
 241              		.thumb_func
 242              		.fpu fpv5-d16
 244              	_ZNSt6vectorINSt7__cxx1112basic_stringIcSt11char_traitsIcESaIcEEESaIS5_EED2Ev:
 245              	.LVL10:
 246              	.LFB5180:
 247              		.file 13 "/usr/include/newlib/c++/9.2.1/bits/stl_vector.h"
   1:/usr/include/newlib/c++/9.2.1/bits/stl_vector.h **** // Vector implementation -*- C++ -*-
   2:/usr/include/newlib/c++/9.2.1/bits/stl_vector.h **** 
   3:/usr/include/newlib/c++/9.2.1/bits/stl_vector.h **** // Copyright (C) 2001-2019 Free Software Foundation, Inc.
   4:/usr/include/newlib/c++/9.2.1/bits/stl_vector.h **** //
   5:/usr/include/newlib/c++/9.2.1/bits/stl_vector.h **** // This file is part of the GNU ISO C++ Library.  This library is free
   6:/usr/include/newlib/c++/9.2.1/bits/stl_vector.h **** // software; you can redistribute it and/or modify it under the
   7:/usr/include/newlib/c++/9.2.1/bits/stl_vector.h **** // terms of the GNU General Public License as published by the
   8:/usr/include/newlib/c++/9.2.1/bits/stl_vector.h **** // Free Software Foundation; either version 3, or (at your option)
   9:/usr/include/newlib/c++/9.2.1/bits/stl_vector.h **** // any later version.
  10:/usr/include/newlib/c++/9.2.1/bits/stl_vector.h **** 
  11:/usr/include/newlib/c++/9.2.1/bits/stl_vector.h **** // This library is distributed in the hope that it will be useful,
  12:/usr/include/newlib/c++/9.2.1/bits/stl_vector.h **** // but WITHOUT ANY WARRANTY; without even the implied warranty of
  13:/usr/include/newlib/c++/9.2.1/bits/stl_vector.h **** // MERCHANTABILITY or FITNESS FOR A PARTICULAR PURPOSE.  See the
  14:/usr/include/newlib/c++/9.2.1/bits/stl_vector.h **** // GNU General Public License for more details.
  15:/usr/include/newlib/c++/9.2.1/bits/stl_vector.h **** 
  16:/usr/include/newlib/c++/9.2.1/bits/stl_vector.h **** // Under Section 7 of GPL version 3, you are granted additional
  17:/usr/include/newlib/c++/9.2.1/bits/stl_vector.h **** // permissions described in the GCC Runtime Library Exception, version
  18:/usr/include/newlib/c++/9.2.1/bits/stl_vector.h **** // 3.1, as published by the Free Software Foundation.
  19:/usr/include/newlib/c++/9.2.1/bits/stl_vector.h **** 
  20:/usr/include/newlib/c++/9.2.1/bits/stl_vector.h **** // You should have received a copy of the GNU General Public License and
  21:/usr/include/newlib/c++/9.2.1/bits/stl_vector.h **** // a copy of the GCC Runtime Library Exception along with this program;
  22:/usr/include/newlib/c++/9.2.1/bits/stl_vector.h **** // see the files COPYING3 and COPYING.RUNTIME respectively.  If not, see
  23:/usr/include/newlib/c++/9.2.1/bits/stl_vector.h **** // <http://www.gnu.org/licenses/>.
  24:/usr/include/newlib/c++/9.2.1/bits/stl_vector.h **** 
  25:/usr/include/newlib/c++/9.2.1/bits/stl_vector.h **** /*
  26:/usr/include/newlib/c++/9.2.1/bits/stl_vector.h ****  *
  27:/usr/include/newlib/c++/9.2.1/bits/stl_vector.h ****  * Copyright (c) 1994
  28:/usr/include/newlib/c++/9.2.1/bits/stl_vector.h ****  * Hewlett-Packard Company
  29:/usr/include/newlib/c++/9.2.1/bits/stl_vector.h ****  *
  30:/usr/include/newlib/c++/9.2.1/bits/stl_vector.h ****  * Permission to use, copy, modify, distribute and sell this software
  31:/usr/include/newlib/c++/9.2.1/bits/stl_vector.h ****  * and its documentation for any purpose is hereby granted without fee,
  32:/usr/include/newlib/c++/9.2.1/bits/stl_vector.h ****  * provided that the above copyright notice appear in all copies and
  33:/usr/include/newlib/c++/9.2.1/bits/stl_vector.h ****  * that both that copyright notice and this permission notice appear
  34:/usr/include/newlib/c++/9.2.1/bits/stl_vector.h ****  * in supporting documentation.  Hewlett-Packard Company makes no
  35:/usr/include/newlib/c++/9.2.1/bits/stl_vector.h ****  * representations about the suitability of this software for any
  36:/usr/include/newlib/c++/9.2.1/bits/stl_vector.h ****  * purpose.  It is provided "as is" without express or implied warranty.
  37:/usr/include/newlib/c++/9.2.1/bits/stl_vector.h ****  *
  38:/usr/include/newlib/c++/9.2.1/bits/stl_vector.h ****  *
  39:/usr/include/newlib/c++/9.2.1/bits/stl_vector.h ****  * Copyright (c) 1996
  40:/usr/include/newlib/c++/9.2.1/bits/stl_vector.h ****  * Silicon Graphics Computer Systems, Inc.
  41:/usr/include/newlib/c++/9.2.1/bits/stl_vector.h ****  *
  42:/usr/include/newlib/c++/9.2.1/bits/stl_vector.h ****  * Permission to use, copy, modify, distribute and sell this software
ARM GAS  /tmp/cc00lao6.s 			page 23


  43:/usr/include/newlib/c++/9.2.1/bits/stl_vector.h ****  * and its documentation for any purpose is hereby granted without fee,
  44:/usr/include/newlib/c++/9.2.1/bits/stl_vector.h ****  * provided that the above copyright notice appear in all copies and
  45:/usr/include/newlib/c++/9.2.1/bits/stl_vector.h ****  * that both that copyright notice and this permission notice appear
  46:/usr/include/newlib/c++/9.2.1/bits/stl_vector.h ****  * in supporting documentation.  Silicon Graphics makes no
  47:/usr/include/newlib/c++/9.2.1/bits/stl_vector.h ****  * representations about the suitability of this  software for any
  48:/usr/include/newlib/c++/9.2.1/bits/stl_vector.h ****  * purpose.  It is provided "as is" without express or implied warranty.
  49:/usr/include/newlib/c++/9.2.1/bits/stl_vector.h ****  */
  50:/usr/include/newlib/c++/9.2.1/bits/stl_vector.h **** 
  51:/usr/include/newlib/c++/9.2.1/bits/stl_vector.h **** /** @file bits/stl_vector.h
  52:/usr/include/newlib/c++/9.2.1/bits/stl_vector.h ****  *  This is an internal header file, included by other library headers.
  53:/usr/include/newlib/c++/9.2.1/bits/stl_vector.h ****  *  Do not attempt to use it directly. @headername{vector}
  54:/usr/include/newlib/c++/9.2.1/bits/stl_vector.h ****  */
  55:/usr/include/newlib/c++/9.2.1/bits/stl_vector.h **** 
  56:/usr/include/newlib/c++/9.2.1/bits/stl_vector.h **** #ifndef _STL_VECTOR_H
  57:/usr/include/newlib/c++/9.2.1/bits/stl_vector.h **** #define _STL_VECTOR_H 1
  58:/usr/include/newlib/c++/9.2.1/bits/stl_vector.h **** 
  59:/usr/include/newlib/c++/9.2.1/bits/stl_vector.h **** #include <bits/stl_iterator_base_funcs.h>
  60:/usr/include/newlib/c++/9.2.1/bits/stl_vector.h **** #include <bits/functexcept.h>
  61:/usr/include/newlib/c++/9.2.1/bits/stl_vector.h **** #include <bits/concept_check.h>
  62:/usr/include/newlib/c++/9.2.1/bits/stl_vector.h **** #if __cplusplus >= 201103L
  63:/usr/include/newlib/c++/9.2.1/bits/stl_vector.h **** #include <initializer_list>
  64:/usr/include/newlib/c++/9.2.1/bits/stl_vector.h **** #endif
  65:/usr/include/newlib/c++/9.2.1/bits/stl_vector.h **** 
  66:/usr/include/newlib/c++/9.2.1/bits/stl_vector.h **** #include <debug/assertions.h>
  67:/usr/include/newlib/c++/9.2.1/bits/stl_vector.h **** 
  68:/usr/include/newlib/c++/9.2.1/bits/stl_vector.h **** #if _GLIBCXX_SANITIZE_STD_ALLOCATOR && _GLIBCXX_SANITIZE_VECTOR
  69:/usr/include/newlib/c++/9.2.1/bits/stl_vector.h **** extern "C" void
  70:/usr/include/newlib/c++/9.2.1/bits/stl_vector.h **** __sanitizer_annotate_contiguous_container(const void*, const void*,
  71:/usr/include/newlib/c++/9.2.1/bits/stl_vector.h **** 					  const void*, const void*);
  72:/usr/include/newlib/c++/9.2.1/bits/stl_vector.h **** #endif
  73:/usr/include/newlib/c++/9.2.1/bits/stl_vector.h **** 
  74:/usr/include/newlib/c++/9.2.1/bits/stl_vector.h **** namespace std _GLIBCXX_VISIBILITY(default)
  75:/usr/include/newlib/c++/9.2.1/bits/stl_vector.h **** {
  76:/usr/include/newlib/c++/9.2.1/bits/stl_vector.h **** _GLIBCXX_BEGIN_NAMESPACE_VERSION
  77:/usr/include/newlib/c++/9.2.1/bits/stl_vector.h **** _GLIBCXX_BEGIN_NAMESPACE_CONTAINER
  78:/usr/include/newlib/c++/9.2.1/bits/stl_vector.h **** 
  79:/usr/include/newlib/c++/9.2.1/bits/stl_vector.h ****   /// See bits/stl_deque.h's _Deque_base for an explanation.
  80:/usr/include/newlib/c++/9.2.1/bits/stl_vector.h ****   template<typename _Tp, typename _Alloc>
  81:/usr/include/newlib/c++/9.2.1/bits/stl_vector.h ****     struct _Vector_base
  82:/usr/include/newlib/c++/9.2.1/bits/stl_vector.h ****     {
  83:/usr/include/newlib/c++/9.2.1/bits/stl_vector.h ****       typedef typename __gnu_cxx::__alloc_traits<_Alloc>::template
  84:/usr/include/newlib/c++/9.2.1/bits/stl_vector.h **** 	rebind<_Tp>::other _Tp_alloc_type;
  85:/usr/include/newlib/c++/9.2.1/bits/stl_vector.h ****       typedef typename __gnu_cxx::__alloc_traits<_Tp_alloc_type>::pointer
  86:/usr/include/newlib/c++/9.2.1/bits/stl_vector.h ****        	pointer;
  87:/usr/include/newlib/c++/9.2.1/bits/stl_vector.h **** 
  88:/usr/include/newlib/c++/9.2.1/bits/stl_vector.h ****       struct _Vector_impl_data
  89:/usr/include/newlib/c++/9.2.1/bits/stl_vector.h ****       {
  90:/usr/include/newlib/c++/9.2.1/bits/stl_vector.h **** 	pointer _M_start;
  91:/usr/include/newlib/c++/9.2.1/bits/stl_vector.h **** 	pointer _M_finish;
  92:/usr/include/newlib/c++/9.2.1/bits/stl_vector.h **** 	pointer _M_end_of_storage;
  93:/usr/include/newlib/c++/9.2.1/bits/stl_vector.h **** 
  94:/usr/include/newlib/c++/9.2.1/bits/stl_vector.h **** 	_Vector_impl_data() _GLIBCXX_NOEXCEPT
  95:/usr/include/newlib/c++/9.2.1/bits/stl_vector.h **** 	: _M_start(), _M_finish(), _M_end_of_storage()
  96:/usr/include/newlib/c++/9.2.1/bits/stl_vector.h **** 	{ }
  97:/usr/include/newlib/c++/9.2.1/bits/stl_vector.h **** 
  98:/usr/include/newlib/c++/9.2.1/bits/stl_vector.h **** #if __cplusplus >= 201103L
  99:/usr/include/newlib/c++/9.2.1/bits/stl_vector.h **** 	_Vector_impl_data(_Vector_impl_data&& __x) noexcept
ARM GAS  /tmp/cc00lao6.s 			page 24


 100:/usr/include/newlib/c++/9.2.1/bits/stl_vector.h **** 	: _M_start(__x._M_start), _M_finish(__x._M_finish),
 101:/usr/include/newlib/c++/9.2.1/bits/stl_vector.h **** 	  _M_end_of_storage(__x._M_end_of_storage)
 102:/usr/include/newlib/c++/9.2.1/bits/stl_vector.h **** 	{ __x._M_start = __x._M_finish = __x._M_end_of_storage = pointer(); }
 103:/usr/include/newlib/c++/9.2.1/bits/stl_vector.h **** #endif
 104:/usr/include/newlib/c++/9.2.1/bits/stl_vector.h **** 
 105:/usr/include/newlib/c++/9.2.1/bits/stl_vector.h **** 	void
 106:/usr/include/newlib/c++/9.2.1/bits/stl_vector.h **** 	_M_copy_data(_Vector_impl_data const& __x) _GLIBCXX_NOEXCEPT
 107:/usr/include/newlib/c++/9.2.1/bits/stl_vector.h **** 	{
 108:/usr/include/newlib/c++/9.2.1/bits/stl_vector.h **** 	  _M_start = __x._M_start;
 109:/usr/include/newlib/c++/9.2.1/bits/stl_vector.h **** 	  _M_finish = __x._M_finish;
 110:/usr/include/newlib/c++/9.2.1/bits/stl_vector.h **** 	  _M_end_of_storage = __x._M_end_of_storage;
 111:/usr/include/newlib/c++/9.2.1/bits/stl_vector.h **** 	}
 112:/usr/include/newlib/c++/9.2.1/bits/stl_vector.h **** 
 113:/usr/include/newlib/c++/9.2.1/bits/stl_vector.h **** 	void
 114:/usr/include/newlib/c++/9.2.1/bits/stl_vector.h **** 	_M_swap_data(_Vector_impl_data& __x) _GLIBCXX_NOEXCEPT
 115:/usr/include/newlib/c++/9.2.1/bits/stl_vector.h **** 	{
 116:/usr/include/newlib/c++/9.2.1/bits/stl_vector.h **** 	  // Do not use std::swap(_M_start, __x._M_start), etc as it loses
 117:/usr/include/newlib/c++/9.2.1/bits/stl_vector.h **** 	  // information used by TBAA.
 118:/usr/include/newlib/c++/9.2.1/bits/stl_vector.h **** 	  _Vector_impl_data __tmp;
 119:/usr/include/newlib/c++/9.2.1/bits/stl_vector.h **** 	  __tmp._M_copy_data(*this);
 120:/usr/include/newlib/c++/9.2.1/bits/stl_vector.h **** 	  _M_copy_data(__x);
 121:/usr/include/newlib/c++/9.2.1/bits/stl_vector.h **** 	  __x._M_copy_data(__tmp);
 122:/usr/include/newlib/c++/9.2.1/bits/stl_vector.h **** 	}
 123:/usr/include/newlib/c++/9.2.1/bits/stl_vector.h ****       };
 124:/usr/include/newlib/c++/9.2.1/bits/stl_vector.h **** 
 125:/usr/include/newlib/c++/9.2.1/bits/stl_vector.h ****       struct _Vector_impl
 126:/usr/include/newlib/c++/9.2.1/bits/stl_vector.h **** 	: public _Tp_alloc_type, public _Vector_impl_data
 127:/usr/include/newlib/c++/9.2.1/bits/stl_vector.h ****       {
 128:/usr/include/newlib/c++/9.2.1/bits/stl_vector.h **** 	_Vector_impl() _GLIBCXX_NOEXCEPT_IF(
 129:/usr/include/newlib/c++/9.2.1/bits/stl_vector.h **** 	    is_nothrow_default_constructible<_Tp_alloc_type>::value)
 130:/usr/include/newlib/c++/9.2.1/bits/stl_vector.h **** 	: _Tp_alloc_type()
 131:/usr/include/newlib/c++/9.2.1/bits/stl_vector.h **** 	{ }
 132:/usr/include/newlib/c++/9.2.1/bits/stl_vector.h **** 
 133:/usr/include/newlib/c++/9.2.1/bits/stl_vector.h **** 	_Vector_impl(_Tp_alloc_type const& __a) _GLIBCXX_NOEXCEPT
 134:/usr/include/newlib/c++/9.2.1/bits/stl_vector.h **** 	: _Tp_alloc_type(__a)
 135:/usr/include/newlib/c++/9.2.1/bits/stl_vector.h **** 	{ }
 136:/usr/include/newlib/c++/9.2.1/bits/stl_vector.h **** 
 137:/usr/include/newlib/c++/9.2.1/bits/stl_vector.h **** #if __cplusplus >= 201103L
 138:/usr/include/newlib/c++/9.2.1/bits/stl_vector.h **** 	// Not defaulted, to enforce noexcept(true) even when
 139:/usr/include/newlib/c++/9.2.1/bits/stl_vector.h **** 	// !is_nothrow_move_constructible<_Tp_alloc_type>.
 140:/usr/include/newlib/c++/9.2.1/bits/stl_vector.h **** 	_Vector_impl(_Vector_impl&& __x) noexcept
 141:/usr/include/newlib/c++/9.2.1/bits/stl_vector.h **** 	: _Tp_alloc_type(std::move(__x)), _Vector_impl_data(std::move(__x))
 142:/usr/include/newlib/c++/9.2.1/bits/stl_vector.h **** 	{ }
 143:/usr/include/newlib/c++/9.2.1/bits/stl_vector.h **** 
 144:/usr/include/newlib/c++/9.2.1/bits/stl_vector.h **** 	_Vector_impl(_Tp_alloc_type&& __a) noexcept
 145:/usr/include/newlib/c++/9.2.1/bits/stl_vector.h **** 	: _Tp_alloc_type(std::move(__a))
 146:/usr/include/newlib/c++/9.2.1/bits/stl_vector.h **** 	{ }
 147:/usr/include/newlib/c++/9.2.1/bits/stl_vector.h **** 
 148:/usr/include/newlib/c++/9.2.1/bits/stl_vector.h **** 	_Vector_impl(_Tp_alloc_type&& __a, _Vector_impl&& __rv) noexcept
 149:/usr/include/newlib/c++/9.2.1/bits/stl_vector.h **** 	: _Tp_alloc_type(std::move(__a)), _Vector_impl_data(std::move(__rv))
 150:/usr/include/newlib/c++/9.2.1/bits/stl_vector.h **** 	{ }
 151:/usr/include/newlib/c++/9.2.1/bits/stl_vector.h **** #endif
 152:/usr/include/newlib/c++/9.2.1/bits/stl_vector.h **** 
 153:/usr/include/newlib/c++/9.2.1/bits/stl_vector.h **** #if _GLIBCXX_SANITIZE_STD_ALLOCATOR && _GLIBCXX_SANITIZE_VECTOR
 154:/usr/include/newlib/c++/9.2.1/bits/stl_vector.h **** 	template<typename = _Tp_alloc_type>
 155:/usr/include/newlib/c++/9.2.1/bits/stl_vector.h **** 	  struct _Asan
 156:/usr/include/newlib/c++/9.2.1/bits/stl_vector.h **** 	  {
ARM GAS  /tmp/cc00lao6.s 			page 25


 157:/usr/include/newlib/c++/9.2.1/bits/stl_vector.h **** 	    typedef typename __gnu_cxx::__alloc_traits<_Tp_alloc_type>
 158:/usr/include/newlib/c++/9.2.1/bits/stl_vector.h **** 	      ::size_type size_type;
 159:/usr/include/newlib/c++/9.2.1/bits/stl_vector.h **** 
 160:/usr/include/newlib/c++/9.2.1/bits/stl_vector.h **** 	    static void _S_shrink(_Vector_impl&, size_type) { }
 161:/usr/include/newlib/c++/9.2.1/bits/stl_vector.h **** 	    static void _S_on_dealloc(_Vector_impl&) { }
 162:/usr/include/newlib/c++/9.2.1/bits/stl_vector.h **** 
 163:/usr/include/newlib/c++/9.2.1/bits/stl_vector.h **** 	    typedef _Vector_impl& _Reinit;
 164:/usr/include/newlib/c++/9.2.1/bits/stl_vector.h **** 
 165:/usr/include/newlib/c++/9.2.1/bits/stl_vector.h **** 	    struct _Grow
 166:/usr/include/newlib/c++/9.2.1/bits/stl_vector.h **** 	    {
 167:/usr/include/newlib/c++/9.2.1/bits/stl_vector.h **** 	      _Grow(_Vector_impl&, size_type) { }
 168:/usr/include/newlib/c++/9.2.1/bits/stl_vector.h **** 	      void _M_grew(size_type) { }
 169:/usr/include/newlib/c++/9.2.1/bits/stl_vector.h **** 	    };
 170:/usr/include/newlib/c++/9.2.1/bits/stl_vector.h **** 	  };
 171:/usr/include/newlib/c++/9.2.1/bits/stl_vector.h **** 
 172:/usr/include/newlib/c++/9.2.1/bits/stl_vector.h **** 	// Enable ASan annotations for memory obtained from std::allocator.
 173:/usr/include/newlib/c++/9.2.1/bits/stl_vector.h **** 	template<typename _Up>
 174:/usr/include/newlib/c++/9.2.1/bits/stl_vector.h **** 	  struct _Asan<allocator<_Up> >
 175:/usr/include/newlib/c++/9.2.1/bits/stl_vector.h **** 	  {
 176:/usr/include/newlib/c++/9.2.1/bits/stl_vector.h **** 	    typedef typename __gnu_cxx::__alloc_traits<_Tp_alloc_type>
 177:/usr/include/newlib/c++/9.2.1/bits/stl_vector.h **** 	      ::size_type size_type;
 178:/usr/include/newlib/c++/9.2.1/bits/stl_vector.h **** 
 179:/usr/include/newlib/c++/9.2.1/bits/stl_vector.h **** 	    // Adjust ASan annotation for [_M_start, _M_end_of_storage) to
 180:/usr/include/newlib/c++/9.2.1/bits/stl_vector.h **** 	    // mark end of valid region as __curr instead of __prev.
 181:/usr/include/newlib/c++/9.2.1/bits/stl_vector.h **** 	    static void
 182:/usr/include/newlib/c++/9.2.1/bits/stl_vector.h **** 	    _S_adjust(_Vector_impl& __impl, pointer __prev, pointer __curr)
 183:/usr/include/newlib/c++/9.2.1/bits/stl_vector.h **** 	    {
 184:/usr/include/newlib/c++/9.2.1/bits/stl_vector.h **** 	      __sanitizer_annotate_contiguous_container(__impl._M_start,
 185:/usr/include/newlib/c++/9.2.1/bits/stl_vector.h **** 		  __impl._M_end_of_storage, __prev, __curr);
 186:/usr/include/newlib/c++/9.2.1/bits/stl_vector.h **** 	    }
 187:/usr/include/newlib/c++/9.2.1/bits/stl_vector.h **** 
 188:/usr/include/newlib/c++/9.2.1/bits/stl_vector.h **** 	    static void
 189:/usr/include/newlib/c++/9.2.1/bits/stl_vector.h **** 	    _S_grow(_Vector_impl& __impl, size_type __n)
 190:/usr/include/newlib/c++/9.2.1/bits/stl_vector.h **** 	    { _S_adjust(__impl, __impl._M_finish, __impl._M_finish + __n); }
 191:/usr/include/newlib/c++/9.2.1/bits/stl_vector.h **** 
 192:/usr/include/newlib/c++/9.2.1/bits/stl_vector.h **** 	    static void
 193:/usr/include/newlib/c++/9.2.1/bits/stl_vector.h **** 	    _S_shrink(_Vector_impl& __impl, size_type __n)
 194:/usr/include/newlib/c++/9.2.1/bits/stl_vector.h **** 	    { _S_adjust(__impl, __impl._M_finish + __n, __impl._M_finish); }
 195:/usr/include/newlib/c++/9.2.1/bits/stl_vector.h **** 
 196:/usr/include/newlib/c++/9.2.1/bits/stl_vector.h **** 	    static void
 197:/usr/include/newlib/c++/9.2.1/bits/stl_vector.h **** 	    _S_on_dealloc(_Vector_impl& __impl)
 198:/usr/include/newlib/c++/9.2.1/bits/stl_vector.h **** 	    {
 199:/usr/include/newlib/c++/9.2.1/bits/stl_vector.h **** 	      if (__impl._M_start)
 200:/usr/include/newlib/c++/9.2.1/bits/stl_vector.h **** 		_S_adjust(__impl, __impl._M_finish, __impl._M_end_of_storage);
 201:/usr/include/newlib/c++/9.2.1/bits/stl_vector.h **** 	    }
 202:/usr/include/newlib/c++/9.2.1/bits/stl_vector.h **** 
 203:/usr/include/newlib/c++/9.2.1/bits/stl_vector.h **** 	    // Used on reallocation to tell ASan unused capacity is invalid.
 204:/usr/include/newlib/c++/9.2.1/bits/stl_vector.h **** 	    struct _Reinit
 205:/usr/include/newlib/c++/9.2.1/bits/stl_vector.h **** 	    {
 206:/usr/include/newlib/c++/9.2.1/bits/stl_vector.h **** 	      explicit _Reinit(_Vector_impl& __impl) : _M_impl(__impl)
 207:/usr/include/newlib/c++/9.2.1/bits/stl_vector.h **** 	      {
 208:/usr/include/newlib/c++/9.2.1/bits/stl_vector.h **** 		// Mark unused capacity as valid again before deallocating it.
 209:/usr/include/newlib/c++/9.2.1/bits/stl_vector.h **** 		_S_on_dealloc(_M_impl);
 210:/usr/include/newlib/c++/9.2.1/bits/stl_vector.h **** 	      }
 211:/usr/include/newlib/c++/9.2.1/bits/stl_vector.h **** 
 212:/usr/include/newlib/c++/9.2.1/bits/stl_vector.h **** 	      ~_Reinit()
 213:/usr/include/newlib/c++/9.2.1/bits/stl_vector.h **** 	      {
ARM GAS  /tmp/cc00lao6.s 			page 26


 214:/usr/include/newlib/c++/9.2.1/bits/stl_vector.h **** 		// Mark unused capacity as invalid after reallocation.
 215:/usr/include/newlib/c++/9.2.1/bits/stl_vector.h **** 		if (_M_impl._M_start)
 216:/usr/include/newlib/c++/9.2.1/bits/stl_vector.h **** 		  _S_adjust(_M_impl, _M_impl._M_end_of_storage,
 217:/usr/include/newlib/c++/9.2.1/bits/stl_vector.h **** 			    _M_impl._M_finish);
 218:/usr/include/newlib/c++/9.2.1/bits/stl_vector.h **** 	      }
 219:/usr/include/newlib/c++/9.2.1/bits/stl_vector.h **** 
 220:/usr/include/newlib/c++/9.2.1/bits/stl_vector.h **** 	      _Vector_impl& _M_impl;
 221:/usr/include/newlib/c++/9.2.1/bits/stl_vector.h **** 
 222:/usr/include/newlib/c++/9.2.1/bits/stl_vector.h **** #if __cplusplus >= 201103L
 223:/usr/include/newlib/c++/9.2.1/bits/stl_vector.h **** 	      _Reinit(const _Reinit&) = delete;
 224:/usr/include/newlib/c++/9.2.1/bits/stl_vector.h **** 	      _Reinit& operator=(const _Reinit&) = delete;
 225:/usr/include/newlib/c++/9.2.1/bits/stl_vector.h **** #endif
 226:/usr/include/newlib/c++/9.2.1/bits/stl_vector.h **** 	    };
 227:/usr/include/newlib/c++/9.2.1/bits/stl_vector.h **** 
 228:/usr/include/newlib/c++/9.2.1/bits/stl_vector.h **** 	    // Tell ASan when unused capacity is initialized to be valid.
 229:/usr/include/newlib/c++/9.2.1/bits/stl_vector.h **** 	    struct _Grow
 230:/usr/include/newlib/c++/9.2.1/bits/stl_vector.h **** 	    {
 231:/usr/include/newlib/c++/9.2.1/bits/stl_vector.h **** 	      _Grow(_Vector_impl& __impl, size_type __n)
 232:/usr/include/newlib/c++/9.2.1/bits/stl_vector.h **** 	      : _M_impl(__impl), _M_n(__n)
 233:/usr/include/newlib/c++/9.2.1/bits/stl_vector.h **** 	      { _S_grow(_M_impl, __n); }
 234:/usr/include/newlib/c++/9.2.1/bits/stl_vector.h **** 
 235:/usr/include/newlib/c++/9.2.1/bits/stl_vector.h **** 	      ~_Grow() { if (_M_n) _S_shrink(_M_impl, _M_n); }
 236:/usr/include/newlib/c++/9.2.1/bits/stl_vector.h **** 
 237:/usr/include/newlib/c++/9.2.1/bits/stl_vector.h **** 	      void _M_grew(size_type __n) { _M_n -= __n; }
 238:/usr/include/newlib/c++/9.2.1/bits/stl_vector.h **** 
 239:/usr/include/newlib/c++/9.2.1/bits/stl_vector.h **** #if __cplusplus >= 201103L
 240:/usr/include/newlib/c++/9.2.1/bits/stl_vector.h **** 	      _Grow(const _Grow&) = delete;
 241:/usr/include/newlib/c++/9.2.1/bits/stl_vector.h **** 	      _Grow& operator=(const _Grow&) = delete;
 242:/usr/include/newlib/c++/9.2.1/bits/stl_vector.h **** #endif
 243:/usr/include/newlib/c++/9.2.1/bits/stl_vector.h **** 	    private:
 244:/usr/include/newlib/c++/9.2.1/bits/stl_vector.h **** 	      _Vector_impl& _M_impl;
 245:/usr/include/newlib/c++/9.2.1/bits/stl_vector.h **** 	      size_type _M_n;
 246:/usr/include/newlib/c++/9.2.1/bits/stl_vector.h **** 	    };
 247:/usr/include/newlib/c++/9.2.1/bits/stl_vector.h **** 	  };
 248:/usr/include/newlib/c++/9.2.1/bits/stl_vector.h **** 
 249:/usr/include/newlib/c++/9.2.1/bits/stl_vector.h **** #define _GLIBCXX_ASAN_ANNOTATE_REINIT \
 250:/usr/include/newlib/c++/9.2.1/bits/stl_vector.h ****   typename _Base::_Vector_impl::template _Asan<>::_Reinit const \
 251:/usr/include/newlib/c++/9.2.1/bits/stl_vector.h **** 	__attribute__((__unused__)) __reinit_guard(this->_M_impl)
 252:/usr/include/newlib/c++/9.2.1/bits/stl_vector.h **** #define _GLIBCXX_ASAN_ANNOTATE_GROW(n) \
 253:/usr/include/newlib/c++/9.2.1/bits/stl_vector.h ****   typename _Base::_Vector_impl::template _Asan<>::_Grow \
 254:/usr/include/newlib/c++/9.2.1/bits/stl_vector.h **** 	__attribute__((__unused__)) __grow_guard(this->_M_impl, (n))
 255:/usr/include/newlib/c++/9.2.1/bits/stl_vector.h **** #define _GLIBCXX_ASAN_ANNOTATE_GREW(n) __grow_guard._M_grew(n)
 256:/usr/include/newlib/c++/9.2.1/bits/stl_vector.h **** #define _GLIBCXX_ASAN_ANNOTATE_SHRINK(n) \
 257:/usr/include/newlib/c++/9.2.1/bits/stl_vector.h ****   _Base::_Vector_impl::template _Asan<>::_S_shrink(this->_M_impl, n)
 258:/usr/include/newlib/c++/9.2.1/bits/stl_vector.h **** #define _GLIBCXX_ASAN_ANNOTATE_BEFORE_DEALLOC \
 259:/usr/include/newlib/c++/9.2.1/bits/stl_vector.h ****   _Base::_Vector_impl::template _Asan<>::_S_on_dealloc(this->_M_impl)
 260:/usr/include/newlib/c++/9.2.1/bits/stl_vector.h **** #else // ! (_GLIBCXX_SANITIZE_STD_ALLOCATOR && _GLIBCXX_SANITIZE_VECTOR)
 261:/usr/include/newlib/c++/9.2.1/bits/stl_vector.h **** #define _GLIBCXX_ASAN_ANNOTATE_REINIT
 262:/usr/include/newlib/c++/9.2.1/bits/stl_vector.h **** #define _GLIBCXX_ASAN_ANNOTATE_GROW(n)
 263:/usr/include/newlib/c++/9.2.1/bits/stl_vector.h **** #define _GLIBCXX_ASAN_ANNOTATE_GREW(n)
 264:/usr/include/newlib/c++/9.2.1/bits/stl_vector.h **** #define _GLIBCXX_ASAN_ANNOTATE_SHRINK(n)
 265:/usr/include/newlib/c++/9.2.1/bits/stl_vector.h **** #define _GLIBCXX_ASAN_ANNOTATE_BEFORE_DEALLOC
 266:/usr/include/newlib/c++/9.2.1/bits/stl_vector.h **** #endif // _GLIBCXX_SANITIZE_STD_ALLOCATOR && _GLIBCXX_SANITIZE_VECTOR
 267:/usr/include/newlib/c++/9.2.1/bits/stl_vector.h ****       };
 268:/usr/include/newlib/c++/9.2.1/bits/stl_vector.h **** 
 269:/usr/include/newlib/c++/9.2.1/bits/stl_vector.h ****     public:
 270:/usr/include/newlib/c++/9.2.1/bits/stl_vector.h ****       typedef _Alloc allocator_type;
ARM GAS  /tmp/cc00lao6.s 			page 27


 271:/usr/include/newlib/c++/9.2.1/bits/stl_vector.h **** 
 272:/usr/include/newlib/c++/9.2.1/bits/stl_vector.h ****       _Tp_alloc_type&
 273:/usr/include/newlib/c++/9.2.1/bits/stl_vector.h ****       _M_get_Tp_allocator() _GLIBCXX_NOEXCEPT
 274:/usr/include/newlib/c++/9.2.1/bits/stl_vector.h ****       { return this->_M_impl; }
 275:/usr/include/newlib/c++/9.2.1/bits/stl_vector.h **** 
 276:/usr/include/newlib/c++/9.2.1/bits/stl_vector.h ****       const _Tp_alloc_type&
 277:/usr/include/newlib/c++/9.2.1/bits/stl_vector.h ****       _M_get_Tp_allocator() const _GLIBCXX_NOEXCEPT
 278:/usr/include/newlib/c++/9.2.1/bits/stl_vector.h ****       { return this->_M_impl; }
 279:/usr/include/newlib/c++/9.2.1/bits/stl_vector.h **** 
 280:/usr/include/newlib/c++/9.2.1/bits/stl_vector.h ****       allocator_type
 281:/usr/include/newlib/c++/9.2.1/bits/stl_vector.h ****       get_allocator() const _GLIBCXX_NOEXCEPT
 282:/usr/include/newlib/c++/9.2.1/bits/stl_vector.h ****       { return allocator_type(_M_get_Tp_allocator()); }
 283:/usr/include/newlib/c++/9.2.1/bits/stl_vector.h **** 
 284:/usr/include/newlib/c++/9.2.1/bits/stl_vector.h **** #if __cplusplus >= 201103L
 285:/usr/include/newlib/c++/9.2.1/bits/stl_vector.h ****       _Vector_base() = default;
 286:/usr/include/newlib/c++/9.2.1/bits/stl_vector.h **** #else
 287:/usr/include/newlib/c++/9.2.1/bits/stl_vector.h ****       _Vector_base() { }
 288:/usr/include/newlib/c++/9.2.1/bits/stl_vector.h **** #endif
 289:/usr/include/newlib/c++/9.2.1/bits/stl_vector.h **** 
 290:/usr/include/newlib/c++/9.2.1/bits/stl_vector.h ****       _Vector_base(const allocator_type& __a) _GLIBCXX_NOEXCEPT
 291:/usr/include/newlib/c++/9.2.1/bits/stl_vector.h ****       : _M_impl(__a) { }
 292:/usr/include/newlib/c++/9.2.1/bits/stl_vector.h **** 
 293:/usr/include/newlib/c++/9.2.1/bits/stl_vector.h ****       // Kept for ABI compatibility.
 294:/usr/include/newlib/c++/9.2.1/bits/stl_vector.h **** #if !_GLIBCXX_INLINE_VERSION
 295:/usr/include/newlib/c++/9.2.1/bits/stl_vector.h ****       _Vector_base(size_t __n)
 296:/usr/include/newlib/c++/9.2.1/bits/stl_vector.h ****       : _M_impl()
 297:/usr/include/newlib/c++/9.2.1/bits/stl_vector.h ****       { _M_create_storage(__n); }
 298:/usr/include/newlib/c++/9.2.1/bits/stl_vector.h **** #endif
 299:/usr/include/newlib/c++/9.2.1/bits/stl_vector.h **** 
 300:/usr/include/newlib/c++/9.2.1/bits/stl_vector.h ****       _Vector_base(size_t __n, const allocator_type& __a)
 301:/usr/include/newlib/c++/9.2.1/bits/stl_vector.h ****       : _M_impl(__a)
 302:/usr/include/newlib/c++/9.2.1/bits/stl_vector.h ****       { _M_create_storage(__n); }
 303:/usr/include/newlib/c++/9.2.1/bits/stl_vector.h **** 
 304:/usr/include/newlib/c++/9.2.1/bits/stl_vector.h **** #if __cplusplus >= 201103L
 305:/usr/include/newlib/c++/9.2.1/bits/stl_vector.h ****       _Vector_base(_Vector_base&&) = default;
 306:/usr/include/newlib/c++/9.2.1/bits/stl_vector.h **** 
 307:/usr/include/newlib/c++/9.2.1/bits/stl_vector.h ****       // Kept for ABI compatibility.
 308:/usr/include/newlib/c++/9.2.1/bits/stl_vector.h **** # if !_GLIBCXX_INLINE_VERSION
 309:/usr/include/newlib/c++/9.2.1/bits/stl_vector.h ****       _Vector_base(_Tp_alloc_type&& __a) noexcept
 310:/usr/include/newlib/c++/9.2.1/bits/stl_vector.h ****       : _M_impl(std::move(__a)) { }
 311:/usr/include/newlib/c++/9.2.1/bits/stl_vector.h **** 
 312:/usr/include/newlib/c++/9.2.1/bits/stl_vector.h ****       _Vector_base(_Vector_base&& __x, const allocator_type& __a)
 313:/usr/include/newlib/c++/9.2.1/bits/stl_vector.h ****       : _M_impl(__a)
 314:/usr/include/newlib/c++/9.2.1/bits/stl_vector.h ****       {
 315:/usr/include/newlib/c++/9.2.1/bits/stl_vector.h **** 	if (__x.get_allocator() == __a)
 316:/usr/include/newlib/c++/9.2.1/bits/stl_vector.h **** 	  this->_M_impl._M_swap_data(__x._M_impl);
 317:/usr/include/newlib/c++/9.2.1/bits/stl_vector.h **** 	else
 318:/usr/include/newlib/c++/9.2.1/bits/stl_vector.h **** 	  {
 319:/usr/include/newlib/c++/9.2.1/bits/stl_vector.h **** 	    size_t __n = __x._M_impl._M_finish - __x._M_impl._M_start;
 320:/usr/include/newlib/c++/9.2.1/bits/stl_vector.h **** 	    _M_create_storage(__n);
 321:/usr/include/newlib/c++/9.2.1/bits/stl_vector.h **** 	  }
 322:/usr/include/newlib/c++/9.2.1/bits/stl_vector.h ****       }
 323:/usr/include/newlib/c++/9.2.1/bits/stl_vector.h **** # endif
 324:/usr/include/newlib/c++/9.2.1/bits/stl_vector.h **** 
 325:/usr/include/newlib/c++/9.2.1/bits/stl_vector.h ****       _Vector_base(const allocator_type& __a, _Vector_base&& __x)
 326:/usr/include/newlib/c++/9.2.1/bits/stl_vector.h ****       : _M_impl(_Tp_alloc_type(__a), std::move(__x._M_impl))
 327:/usr/include/newlib/c++/9.2.1/bits/stl_vector.h ****       { }
ARM GAS  /tmp/cc00lao6.s 			page 28


 328:/usr/include/newlib/c++/9.2.1/bits/stl_vector.h **** #endif
 329:/usr/include/newlib/c++/9.2.1/bits/stl_vector.h **** 
 330:/usr/include/newlib/c++/9.2.1/bits/stl_vector.h ****       ~_Vector_base() _GLIBCXX_NOEXCEPT
 331:/usr/include/newlib/c++/9.2.1/bits/stl_vector.h ****       {
 332:/usr/include/newlib/c++/9.2.1/bits/stl_vector.h **** 	_M_deallocate(_M_impl._M_start,
 333:/usr/include/newlib/c++/9.2.1/bits/stl_vector.h **** 		      _M_impl._M_end_of_storage - _M_impl._M_start);
 334:/usr/include/newlib/c++/9.2.1/bits/stl_vector.h ****       }
 335:/usr/include/newlib/c++/9.2.1/bits/stl_vector.h **** 
 336:/usr/include/newlib/c++/9.2.1/bits/stl_vector.h ****     public:
 337:/usr/include/newlib/c++/9.2.1/bits/stl_vector.h ****       _Vector_impl _M_impl;
 338:/usr/include/newlib/c++/9.2.1/bits/stl_vector.h **** 
 339:/usr/include/newlib/c++/9.2.1/bits/stl_vector.h ****       pointer
 340:/usr/include/newlib/c++/9.2.1/bits/stl_vector.h ****       _M_allocate(size_t __n)
 341:/usr/include/newlib/c++/9.2.1/bits/stl_vector.h ****       {
 342:/usr/include/newlib/c++/9.2.1/bits/stl_vector.h **** 	typedef __gnu_cxx::__alloc_traits<_Tp_alloc_type> _Tr;
 343:/usr/include/newlib/c++/9.2.1/bits/stl_vector.h **** 	return __n != 0 ? _Tr::allocate(_M_impl, __n) : pointer();
 344:/usr/include/newlib/c++/9.2.1/bits/stl_vector.h ****       }
 345:/usr/include/newlib/c++/9.2.1/bits/stl_vector.h **** 
 346:/usr/include/newlib/c++/9.2.1/bits/stl_vector.h ****       void
 347:/usr/include/newlib/c++/9.2.1/bits/stl_vector.h ****       _M_deallocate(pointer __p, size_t __n)
 348:/usr/include/newlib/c++/9.2.1/bits/stl_vector.h ****       {
 349:/usr/include/newlib/c++/9.2.1/bits/stl_vector.h **** 	typedef __gnu_cxx::__alloc_traits<_Tp_alloc_type> _Tr;
 350:/usr/include/newlib/c++/9.2.1/bits/stl_vector.h **** 	if (__p)
 351:/usr/include/newlib/c++/9.2.1/bits/stl_vector.h **** 	  _Tr::deallocate(_M_impl, __p, __n);
 352:/usr/include/newlib/c++/9.2.1/bits/stl_vector.h ****       }
 353:/usr/include/newlib/c++/9.2.1/bits/stl_vector.h **** 
 354:/usr/include/newlib/c++/9.2.1/bits/stl_vector.h ****     protected:
 355:/usr/include/newlib/c++/9.2.1/bits/stl_vector.h ****       void
 356:/usr/include/newlib/c++/9.2.1/bits/stl_vector.h ****       _M_create_storage(size_t __n)
 357:/usr/include/newlib/c++/9.2.1/bits/stl_vector.h ****       {
 358:/usr/include/newlib/c++/9.2.1/bits/stl_vector.h **** 	this->_M_impl._M_start = this->_M_allocate(__n);
 359:/usr/include/newlib/c++/9.2.1/bits/stl_vector.h **** 	this->_M_impl._M_finish = this->_M_impl._M_start;
 360:/usr/include/newlib/c++/9.2.1/bits/stl_vector.h **** 	this->_M_impl._M_end_of_storage = this->_M_impl._M_start + __n;
 361:/usr/include/newlib/c++/9.2.1/bits/stl_vector.h ****       }
 362:/usr/include/newlib/c++/9.2.1/bits/stl_vector.h ****     };
 363:/usr/include/newlib/c++/9.2.1/bits/stl_vector.h **** 
 364:/usr/include/newlib/c++/9.2.1/bits/stl_vector.h ****   /**
 365:/usr/include/newlib/c++/9.2.1/bits/stl_vector.h ****    *  @brief A standard container which offers fixed time access to
 366:/usr/include/newlib/c++/9.2.1/bits/stl_vector.h ****    *  individual elements in any order.
 367:/usr/include/newlib/c++/9.2.1/bits/stl_vector.h ****    *
 368:/usr/include/newlib/c++/9.2.1/bits/stl_vector.h ****    *  @ingroup sequences
 369:/usr/include/newlib/c++/9.2.1/bits/stl_vector.h ****    *
 370:/usr/include/newlib/c++/9.2.1/bits/stl_vector.h ****    *  @tparam _Tp  Type of element.
 371:/usr/include/newlib/c++/9.2.1/bits/stl_vector.h ****    *  @tparam _Alloc  Allocator type, defaults to allocator<_Tp>.
 372:/usr/include/newlib/c++/9.2.1/bits/stl_vector.h ****    *
 373:/usr/include/newlib/c++/9.2.1/bits/stl_vector.h ****    *  Meets the requirements of a <a href="tables.html#65">container</a>, a
 374:/usr/include/newlib/c++/9.2.1/bits/stl_vector.h ****    *  <a href="tables.html#66">reversible container</a>, and a
 375:/usr/include/newlib/c++/9.2.1/bits/stl_vector.h ****    *  <a href="tables.html#67">sequence</a>, including the
 376:/usr/include/newlib/c++/9.2.1/bits/stl_vector.h ****    *  <a href="tables.html#68">optional sequence requirements</a> with the
 377:/usr/include/newlib/c++/9.2.1/bits/stl_vector.h ****    *  %exception of @c push_front and @c pop_front.
 378:/usr/include/newlib/c++/9.2.1/bits/stl_vector.h ****    *
 379:/usr/include/newlib/c++/9.2.1/bits/stl_vector.h ****    *  In some terminology a %vector can be described as a dynamic
 380:/usr/include/newlib/c++/9.2.1/bits/stl_vector.h ****    *  C-style array, it offers fast and efficient access to individual
 381:/usr/include/newlib/c++/9.2.1/bits/stl_vector.h ****    *  elements in any order and saves the user from worrying about
 382:/usr/include/newlib/c++/9.2.1/bits/stl_vector.h ****    *  memory and size allocation.  Subscripting ( @c [] ) access is
 383:/usr/include/newlib/c++/9.2.1/bits/stl_vector.h ****    *  also provided as with C-style arrays.
 384:/usr/include/newlib/c++/9.2.1/bits/stl_vector.h ****   */
ARM GAS  /tmp/cc00lao6.s 			page 29


 385:/usr/include/newlib/c++/9.2.1/bits/stl_vector.h ****   template<typename _Tp, typename _Alloc = std::allocator<_Tp> >
 386:/usr/include/newlib/c++/9.2.1/bits/stl_vector.h ****     class vector : protected _Vector_base<_Tp, _Alloc>
 387:/usr/include/newlib/c++/9.2.1/bits/stl_vector.h ****     {
 388:/usr/include/newlib/c++/9.2.1/bits/stl_vector.h **** #ifdef _GLIBCXX_CONCEPT_CHECKS
 389:/usr/include/newlib/c++/9.2.1/bits/stl_vector.h ****       // Concept requirements.
 390:/usr/include/newlib/c++/9.2.1/bits/stl_vector.h ****       typedef typename _Alloc::value_type		_Alloc_value_type;
 391:/usr/include/newlib/c++/9.2.1/bits/stl_vector.h **** # if __cplusplus < 201103L
 392:/usr/include/newlib/c++/9.2.1/bits/stl_vector.h ****       __glibcxx_class_requires(_Tp, _SGIAssignableConcept)
 393:/usr/include/newlib/c++/9.2.1/bits/stl_vector.h **** # endif
 394:/usr/include/newlib/c++/9.2.1/bits/stl_vector.h ****       __glibcxx_class_requires2(_Tp, _Alloc_value_type, _SameTypeConcept)
 395:/usr/include/newlib/c++/9.2.1/bits/stl_vector.h **** #endif
 396:/usr/include/newlib/c++/9.2.1/bits/stl_vector.h **** 
 397:/usr/include/newlib/c++/9.2.1/bits/stl_vector.h **** #if __cplusplus >= 201103L
 398:/usr/include/newlib/c++/9.2.1/bits/stl_vector.h ****       static_assert(is_same<typename remove_cv<_Tp>::type, _Tp>::value,
 399:/usr/include/newlib/c++/9.2.1/bits/stl_vector.h **** 	  "std::vector must have a non-const, non-volatile value_type");
 400:/usr/include/newlib/c++/9.2.1/bits/stl_vector.h **** # ifdef __STRICT_ANSI__
 401:/usr/include/newlib/c++/9.2.1/bits/stl_vector.h ****       static_assert(is_same<typename _Alloc::value_type, _Tp>::value,
 402:/usr/include/newlib/c++/9.2.1/bits/stl_vector.h **** 	  "std::vector must have the same value_type as its allocator");
 403:/usr/include/newlib/c++/9.2.1/bits/stl_vector.h **** # endif
 404:/usr/include/newlib/c++/9.2.1/bits/stl_vector.h **** #endif
 405:/usr/include/newlib/c++/9.2.1/bits/stl_vector.h **** 
 406:/usr/include/newlib/c++/9.2.1/bits/stl_vector.h ****       typedef _Vector_base<_Tp, _Alloc>			_Base;
 407:/usr/include/newlib/c++/9.2.1/bits/stl_vector.h ****       typedef typename _Base::_Tp_alloc_type		_Tp_alloc_type;
 408:/usr/include/newlib/c++/9.2.1/bits/stl_vector.h ****       typedef __gnu_cxx::__alloc_traits<_Tp_alloc_type>	_Alloc_traits;
 409:/usr/include/newlib/c++/9.2.1/bits/stl_vector.h **** 
 410:/usr/include/newlib/c++/9.2.1/bits/stl_vector.h ****     public:
 411:/usr/include/newlib/c++/9.2.1/bits/stl_vector.h ****       typedef _Tp					value_type;
 412:/usr/include/newlib/c++/9.2.1/bits/stl_vector.h ****       typedef typename _Base::pointer			pointer;
 413:/usr/include/newlib/c++/9.2.1/bits/stl_vector.h ****       typedef typename _Alloc_traits::const_pointer	const_pointer;
 414:/usr/include/newlib/c++/9.2.1/bits/stl_vector.h ****       typedef typename _Alloc_traits::reference		reference;
 415:/usr/include/newlib/c++/9.2.1/bits/stl_vector.h ****       typedef typename _Alloc_traits::const_reference	const_reference;
 416:/usr/include/newlib/c++/9.2.1/bits/stl_vector.h ****       typedef __gnu_cxx::__normal_iterator<pointer, vector> iterator;
 417:/usr/include/newlib/c++/9.2.1/bits/stl_vector.h ****       typedef __gnu_cxx::__normal_iterator<const_pointer, vector>
 418:/usr/include/newlib/c++/9.2.1/bits/stl_vector.h ****       const_iterator;
 419:/usr/include/newlib/c++/9.2.1/bits/stl_vector.h ****       typedef std::reverse_iterator<const_iterator>	const_reverse_iterator;
 420:/usr/include/newlib/c++/9.2.1/bits/stl_vector.h ****       typedef std::reverse_iterator<iterator>		reverse_iterator;
 421:/usr/include/newlib/c++/9.2.1/bits/stl_vector.h ****       typedef size_t					size_type;
 422:/usr/include/newlib/c++/9.2.1/bits/stl_vector.h ****       typedef ptrdiff_t					difference_type;
 423:/usr/include/newlib/c++/9.2.1/bits/stl_vector.h ****       typedef _Alloc					allocator_type;
 424:/usr/include/newlib/c++/9.2.1/bits/stl_vector.h **** 
 425:/usr/include/newlib/c++/9.2.1/bits/stl_vector.h ****     private:
 426:/usr/include/newlib/c++/9.2.1/bits/stl_vector.h **** #if __cplusplus >= 201103L
 427:/usr/include/newlib/c++/9.2.1/bits/stl_vector.h ****       static constexpr bool
 428:/usr/include/newlib/c++/9.2.1/bits/stl_vector.h ****       _S_nothrow_relocate(true_type)
 429:/usr/include/newlib/c++/9.2.1/bits/stl_vector.h ****       {
 430:/usr/include/newlib/c++/9.2.1/bits/stl_vector.h **** 	return noexcept(std::__relocate_a(std::declval<pointer>(),
 431:/usr/include/newlib/c++/9.2.1/bits/stl_vector.h **** 					  std::declval<pointer>(),
 432:/usr/include/newlib/c++/9.2.1/bits/stl_vector.h **** 					  std::declval<pointer>(),
 433:/usr/include/newlib/c++/9.2.1/bits/stl_vector.h **** 					  std::declval<_Tp_alloc_type&>()));
 434:/usr/include/newlib/c++/9.2.1/bits/stl_vector.h ****       }
 435:/usr/include/newlib/c++/9.2.1/bits/stl_vector.h **** 
 436:/usr/include/newlib/c++/9.2.1/bits/stl_vector.h ****       static constexpr bool
 437:/usr/include/newlib/c++/9.2.1/bits/stl_vector.h ****       _S_nothrow_relocate(false_type)
 438:/usr/include/newlib/c++/9.2.1/bits/stl_vector.h ****       { return false; }
 439:/usr/include/newlib/c++/9.2.1/bits/stl_vector.h **** 
 440:/usr/include/newlib/c++/9.2.1/bits/stl_vector.h ****       static constexpr bool
 441:/usr/include/newlib/c++/9.2.1/bits/stl_vector.h ****       _S_use_relocate()
ARM GAS  /tmp/cc00lao6.s 			page 30


 442:/usr/include/newlib/c++/9.2.1/bits/stl_vector.h ****       {
 443:/usr/include/newlib/c++/9.2.1/bits/stl_vector.h **** 	// Instantiating std::__relocate_a might cause an error outside the
 444:/usr/include/newlib/c++/9.2.1/bits/stl_vector.h **** 	// immediate context (in __relocate_object_a's noexcept-specifier),
 445:/usr/include/newlib/c++/9.2.1/bits/stl_vector.h **** 	// so only do it if we know the type can be move-inserted into *this.
 446:/usr/include/newlib/c++/9.2.1/bits/stl_vector.h **** 	return _S_nothrow_relocate(__is_move_insertable<_Tp_alloc_type>{});
 447:/usr/include/newlib/c++/9.2.1/bits/stl_vector.h ****       }
 448:/usr/include/newlib/c++/9.2.1/bits/stl_vector.h **** 
 449:/usr/include/newlib/c++/9.2.1/bits/stl_vector.h ****       static pointer
 450:/usr/include/newlib/c++/9.2.1/bits/stl_vector.h ****       _S_do_relocate(pointer __first, pointer __last, pointer __result,
 451:/usr/include/newlib/c++/9.2.1/bits/stl_vector.h **** 		     _Tp_alloc_type& __alloc, true_type) noexcept
 452:/usr/include/newlib/c++/9.2.1/bits/stl_vector.h ****       {
 453:/usr/include/newlib/c++/9.2.1/bits/stl_vector.h **** 	return std::__relocate_a(__first, __last, __result, __alloc);
 454:/usr/include/newlib/c++/9.2.1/bits/stl_vector.h ****       }
 455:/usr/include/newlib/c++/9.2.1/bits/stl_vector.h **** 
 456:/usr/include/newlib/c++/9.2.1/bits/stl_vector.h ****       static pointer
 457:/usr/include/newlib/c++/9.2.1/bits/stl_vector.h ****       _S_do_relocate(pointer, pointer, pointer __result,
 458:/usr/include/newlib/c++/9.2.1/bits/stl_vector.h **** 		     _Tp_alloc_type&, false_type) noexcept
 459:/usr/include/newlib/c++/9.2.1/bits/stl_vector.h ****       { return __result; }
 460:/usr/include/newlib/c++/9.2.1/bits/stl_vector.h **** 
 461:/usr/include/newlib/c++/9.2.1/bits/stl_vector.h ****       static pointer
 462:/usr/include/newlib/c++/9.2.1/bits/stl_vector.h ****       _S_relocate(pointer __first, pointer __last, pointer __result,
 463:/usr/include/newlib/c++/9.2.1/bits/stl_vector.h **** 		  _Tp_alloc_type& __alloc) noexcept
 464:/usr/include/newlib/c++/9.2.1/bits/stl_vector.h ****       {
 465:/usr/include/newlib/c++/9.2.1/bits/stl_vector.h **** 	using __do_it = __bool_constant<_S_use_relocate()>;
 466:/usr/include/newlib/c++/9.2.1/bits/stl_vector.h **** 	return _S_do_relocate(__first, __last, __result, __alloc, __do_it{});
 467:/usr/include/newlib/c++/9.2.1/bits/stl_vector.h ****       }
 468:/usr/include/newlib/c++/9.2.1/bits/stl_vector.h **** #endif // C++11
 469:/usr/include/newlib/c++/9.2.1/bits/stl_vector.h **** 
 470:/usr/include/newlib/c++/9.2.1/bits/stl_vector.h ****     protected:
 471:/usr/include/newlib/c++/9.2.1/bits/stl_vector.h ****       using _Base::_M_allocate;
 472:/usr/include/newlib/c++/9.2.1/bits/stl_vector.h ****       using _Base::_M_deallocate;
 473:/usr/include/newlib/c++/9.2.1/bits/stl_vector.h ****       using _Base::_M_impl;
 474:/usr/include/newlib/c++/9.2.1/bits/stl_vector.h ****       using _Base::_M_get_Tp_allocator;
 475:/usr/include/newlib/c++/9.2.1/bits/stl_vector.h **** 
 476:/usr/include/newlib/c++/9.2.1/bits/stl_vector.h ****     public:
 477:/usr/include/newlib/c++/9.2.1/bits/stl_vector.h ****       // [23.2.4.1] construct/copy/destroy
 478:/usr/include/newlib/c++/9.2.1/bits/stl_vector.h ****       // (assign() and get_allocator() are also listed in this section)
 479:/usr/include/newlib/c++/9.2.1/bits/stl_vector.h **** 
 480:/usr/include/newlib/c++/9.2.1/bits/stl_vector.h ****       /**
 481:/usr/include/newlib/c++/9.2.1/bits/stl_vector.h ****        *  @brief  Creates a %vector with no elements.
 482:/usr/include/newlib/c++/9.2.1/bits/stl_vector.h ****        */
 483:/usr/include/newlib/c++/9.2.1/bits/stl_vector.h **** #if __cplusplus >= 201103L
 484:/usr/include/newlib/c++/9.2.1/bits/stl_vector.h ****       vector() = default;
 485:/usr/include/newlib/c++/9.2.1/bits/stl_vector.h **** #else
 486:/usr/include/newlib/c++/9.2.1/bits/stl_vector.h ****       vector() { }
 487:/usr/include/newlib/c++/9.2.1/bits/stl_vector.h **** #endif
 488:/usr/include/newlib/c++/9.2.1/bits/stl_vector.h **** 
 489:/usr/include/newlib/c++/9.2.1/bits/stl_vector.h ****       /**
 490:/usr/include/newlib/c++/9.2.1/bits/stl_vector.h ****        *  @brief  Creates a %vector with no elements.
 491:/usr/include/newlib/c++/9.2.1/bits/stl_vector.h ****        *  @param  __a  An allocator object.
 492:/usr/include/newlib/c++/9.2.1/bits/stl_vector.h ****        */
 493:/usr/include/newlib/c++/9.2.1/bits/stl_vector.h ****       explicit
 494:/usr/include/newlib/c++/9.2.1/bits/stl_vector.h ****       vector(const allocator_type& __a) _GLIBCXX_NOEXCEPT
 495:/usr/include/newlib/c++/9.2.1/bits/stl_vector.h ****       : _Base(__a) { }
 496:/usr/include/newlib/c++/9.2.1/bits/stl_vector.h **** 
 497:/usr/include/newlib/c++/9.2.1/bits/stl_vector.h **** #if __cplusplus >= 201103L
 498:/usr/include/newlib/c++/9.2.1/bits/stl_vector.h ****       /**
ARM GAS  /tmp/cc00lao6.s 			page 31


 499:/usr/include/newlib/c++/9.2.1/bits/stl_vector.h ****        *  @brief  Creates a %vector with default constructed elements.
 500:/usr/include/newlib/c++/9.2.1/bits/stl_vector.h ****        *  @param  __n  The number of elements to initially create.
 501:/usr/include/newlib/c++/9.2.1/bits/stl_vector.h ****        *  @param  __a  An allocator.
 502:/usr/include/newlib/c++/9.2.1/bits/stl_vector.h ****        *
 503:/usr/include/newlib/c++/9.2.1/bits/stl_vector.h ****        *  This constructor fills the %vector with @a __n default
 504:/usr/include/newlib/c++/9.2.1/bits/stl_vector.h ****        *  constructed elements.
 505:/usr/include/newlib/c++/9.2.1/bits/stl_vector.h ****        */
 506:/usr/include/newlib/c++/9.2.1/bits/stl_vector.h ****       explicit
 507:/usr/include/newlib/c++/9.2.1/bits/stl_vector.h ****       vector(size_type __n, const allocator_type& __a = allocator_type())
 508:/usr/include/newlib/c++/9.2.1/bits/stl_vector.h ****       : _Base(_S_check_init_len(__n, __a), __a)
 509:/usr/include/newlib/c++/9.2.1/bits/stl_vector.h ****       { _M_default_initialize(__n); }
 510:/usr/include/newlib/c++/9.2.1/bits/stl_vector.h **** 
 511:/usr/include/newlib/c++/9.2.1/bits/stl_vector.h ****       /**
 512:/usr/include/newlib/c++/9.2.1/bits/stl_vector.h ****        *  @brief  Creates a %vector with copies of an exemplar element.
 513:/usr/include/newlib/c++/9.2.1/bits/stl_vector.h ****        *  @param  __n  The number of elements to initially create.
 514:/usr/include/newlib/c++/9.2.1/bits/stl_vector.h ****        *  @param  __value  An element to copy.
 515:/usr/include/newlib/c++/9.2.1/bits/stl_vector.h ****        *  @param  __a  An allocator.
 516:/usr/include/newlib/c++/9.2.1/bits/stl_vector.h ****        *
 517:/usr/include/newlib/c++/9.2.1/bits/stl_vector.h ****        *  This constructor fills the %vector with @a __n copies of @a __value.
 518:/usr/include/newlib/c++/9.2.1/bits/stl_vector.h ****        */
 519:/usr/include/newlib/c++/9.2.1/bits/stl_vector.h ****       vector(size_type __n, const value_type& __value,
 520:/usr/include/newlib/c++/9.2.1/bits/stl_vector.h **** 	     const allocator_type& __a = allocator_type())
 521:/usr/include/newlib/c++/9.2.1/bits/stl_vector.h ****       : _Base(_S_check_init_len(__n, __a), __a)
 522:/usr/include/newlib/c++/9.2.1/bits/stl_vector.h ****       { _M_fill_initialize(__n, __value); }
 523:/usr/include/newlib/c++/9.2.1/bits/stl_vector.h **** #else
 524:/usr/include/newlib/c++/9.2.1/bits/stl_vector.h ****       /**
 525:/usr/include/newlib/c++/9.2.1/bits/stl_vector.h ****        *  @brief  Creates a %vector with copies of an exemplar element.
 526:/usr/include/newlib/c++/9.2.1/bits/stl_vector.h ****        *  @param  __n  The number of elements to initially create.
 527:/usr/include/newlib/c++/9.2.1/bits/stl_vector.h ****        *  @param  __value  An element to copy.
 528:/usr/include/newlib/c++/9.2.1/bits/stl_vector.h ****        *  @param  __a  An allocator.
 529:/usr/include/newlib/c++/9.2.1/bits/stl_vector.h ****        *
 530:/usr/include/newlib/c++/9.2.1/bits/stl_vector.h ****        *  This constructor fills the %vector with @a __n copies of @a __value.
 531:/usr/include/newlib/c++/9.2.1/bits/stl_vector.h ****        */
 532:/usr/include/newlib/c++/9.2.1/bits/stl_vector.h ****       explicit
 533:/usr/include/newlib/c++/9.2.1/bits/stl_vector.h ****       vector(size_type __n, const value_type& __value = value_type(),
 534:/usr/include/newlib/c++/9.2.1/bits/stl_vector.h **** 	     const allocator_type& __a = allocator_type())
 535:/usr/include/newlib/c++/9.2.1/bits/stl_vector.h ****       : _Base(_S_check_init_len(__n, __a), __a)
 536:/usr/include/newlib/c++/9.2.1/bits/stl_vector.h ****       { _M_fill_initialize(__n, __value); }
 537:/usr/include/newlib/c++/9.2.1/bits/stl_vector.h **** #endif
 538:/usr/include/newlib/c++/9.2.1/bits/stl_vector.h **** 
 539:/usr/include/newlib/c++/9.2.1/bits/stl_vector.h ****       /**
 540:/usr/include/newlib/c++/9.2.1/bits/stl_vector.h ****        *  @brief  %Vector copy constructor.
 541:/usr/include/newlib/c++/9.2.1/bits/stl_vector.h ****        *  @param  __x  A %vector of identical element and allocator types.
 542:/usr/include/newlib/c++/9.2.1/bits/stl_vector.h ****        *
 543:/usr/include/newlib/c++/9.2.1/bits/stl_vector.h ****        *  All the elements of @a __x are copied, but any unused capacity in
 544:/usr/include/newlib/c++/9.2.1/bits/stl_vector.h ****        *  @a __x  will not be copied
 545:/usr/include/newlib/c++/9.2.1/bits/stl_vector.h ****        *  (i.e. capacity() == size() in the new %vector).
 546:/usr/include/newlib/c++/9.2.1/bits/stl_vector.h ****        *
 547:/usr/include/newlib/c++/9.2.1/bits/stl_vector.h ****        *  The newly-created %vector uses a copy of the allocator object used
 548:/usr/include/newlib/c++/9.2.1/bits/stl_vector.h ****        *  by @a __x (unless the allocator traits dictate a different object).
 549:/usr/include/newlib/c++/9.2.1/bits/stl_vector.h ****        */
 550:/usr/include/newlib/c++/9.2.1/bits/stl_vector.h ****       vector(const vector& __x)
 551:/usr/include/newlib/c++/9.2.1/bits/stl_vector.h ****       : _Base(__x.size(),
 552:/usr/include/newlib/c++/9.2.1/bits/stl_vector.h **** 	_Alloc_traits::_S_select_on_copy(__x._M_get_Tp_allocator()))
 553:/usr/include/newlib/c++/9.2.1/bits/stl_vector.h ****       {
 554:/usr/include/newlib/c++/9.2.1/bits/stl_vector.h **** 	this->_M_impl._M_finish =
 555:/usr/include/newlib/c++/9.2.1/bits/stl_vector.h **** 	  std::__uninitialized_copy_a(__x.begin(), __x.end(),
ARM GAS  /tmp/cc00lao6.s 			page 32


 556:/usr/include/newlib/c++/9.2.1/bits/stl_vector.h **** 				      this->_M_impl._M_start,
 557:/usr/include/newlib/c++/9.2.1/bits/stl_vector.h **** 				      _M_get_Tp_allocator());
 558:/usr/include/newlib/c++/9.2.1/bits/stl_vector.h ****       }
 559:/usr/include/newlib/c++/9.2.1/bits/stl_vector.h **** 
 560:/usr/include/newlib/c++/9.2.1/bits/stl_vector.h **** #if __cplusplus >= 201103L
 561:/usr/include/newlib/c++/9.2.1/bits/stl_vector.h ****       /**
 562:/usr/include/newlib/c++/9.2.1/bits/stl_vector.h ****        *  @brief  %Vector move constructor.
 563:/usr/include/newlib/c++/9.2.1/bits/stl_vector.h ****        *
 564:/usr/include/newlib/c++/9.2.1/bits/stl_vector.h ****        *  The newly-created %vector contains the exact contents of the
 565:/usr/include/newlib/c++/9.2.1/bits/stl_vector.h ****        *  moved instance.
 566:/usr/include/newlib/c++/9.2.1/bits/stl_vector.h ****        *  The contents of the moved instance are a valid, but unspecified
 567:/usr/include/newlib/c++/9.2.1/bits/stl_vector.h ****        *  %vector.
 568:/usr/include/newlib/c++/9.2.1/bits/stl_vector.h ****        */
 569:/usr/include/newlib/c++/9.2.1/bits/stl_vector.h ****       vector(vector&&) noexcept = default;
 570:/usr/include/newlib/c++/9.2.1/bits/stl_vector.h **** 
 571:/usr/include/newlib/c++/9.2.1/bits/stl_vector.h ****       /// Copy constructor with alternative allocator
 572:/usr/include/newlib/c++/9.2.1/bits/stl_vector.h ****       vector(const vector& __x, const allocator_type& __a)
 573:/usr/include/newlib/c++/9.2.1/bits/stl_vector.h ****       : _Base(__x.size(), __a)
 574:/usr/include/newlib/c++/9.2.1/bits/stl_vector.h ****       {
 575:/usr/include/newlib/c++/9.2.1/bits/stl_vector.h **** 	this->_M_impl._M_finish =
 576:/usr/include/newlib/c++/9.2.1/bits/stl_vector.h **** 	  std::__uninitialized_copy_a(__x.begin(), __x.end(),
 577:/usr/include/newlib/c++/9.2.1/bits/stl_vector.h **** 				      this->_M_impl._M_start,
 578:/usr/include/newlib/c++/9.2.1/bits/stl_vector.h **** 				      _M_get_Tp_allocator());
 579:/usr/include/newlib/c++/9.2.1/bits/stl_vector.h ****       }
 580:/usr/include/newlib/c++/9.2.1/bits/stl_vector.h **** 
 581:/usr/include/newlib/c++/9.2.1/bits/stl_vector.h ****     private:
 582:/usr/include/newlib/c++/9.2.1/bits/stl_vector.h ****       vector(vector&& __rv, const allocator_type& __m, true_type) noexcept
 583:/usr/include/newlib/c++/9.2.1/bits/stl_vector.h ****       : _Base(__m, std::move(__rv))
 584:/usr/include/newlib/c++/9.2.1/bits/stl_vector.h ****       { }
 585:/usr/include/newlib/c++/9.2.1/bits/stl_vector.h **** 
 586:/usr/include/newlib/c++/9.2.1/bits/stl_vector.h ****       vector(vector&& __rv, const allocator_type& __m, false_type)
 587:/usr/include/newlib/c++/9.2.1/bits/stl_vector.h ****       : _Base(__m)
 588:/usr/include/newlib/c++/9.2.1/bits/stl_vector.h ****       {
 589:/usr/include/newlib/c++/9.2.1/bits/stl_vector.h **** 	if (__rv.get_allocator() == __m)
 590:/usr/include/newlib/c++/9.2.1/bits/stl_vector.h **** 	  this->_M_impl._M_swap_data(__rv._M_impl);
 591:/usr/include/newlib/c++/9.2.1/bits/stl_vector.h **** 	else if (!__rv.empty())
 592:/usr/include/newlib/c++/9.2.1/bits/stl_vector.h **** 	  {
 593:/usr/include/newlib/c++/9.2.1/bits/stl_vector.h **** 	    this->_M_create_storage(__rv.size());
 594:/usr/include/newlib/c++/9.2.1/bits/stl_vector.h **** 	    this->_M_impl._M_finish =
 595:/usr/include/newlib/c++/9.2.1/bits/stl_vector.h **** 	      std::__uninitialized_move_a(__rv.begin(), __rv.end(),
 596:/usr/include/newlib/c++/9.2.1/bits/stl_vector.h **** 					  this->_M_impl._M_start,
 597:/usr/include/newlib/c++/9.2.1/bits/stl_vector.h **** 					  _M_get_Tp_allocator());
 598:/usr/include/newlib/c++/9.2.1/bits/stl_vector.h **** 	    __rv.clear();
 599:/usr/include/newlib/c++/9.2.1/bits/stl_vector.h **** 	  }
 600:/usr/include/newlib/c++/9.2.1/bits/stl_vector.h ****       }
 601:/usr/include/newlib/c++/9.2.1/bits/stl_vector.h **** 
 602:/usr/include/newlib/c++/9.2.1/bits/stl_vector.h ****     public:
 603:/usr/include/newlib/c++/9.2.1/bits/stl_vector.h ****       /// Move constructor with alternative allocator
 604:/usr/include/newlib/c++/9.2.1/bits/stl_vector.h ****       vector(vector&& __rv, const allocator_type& __m)
 605:/usr/include/newlib/c++/9.2.1/bits/stl_vector.h ****       noexcept( noexcept(
 606:/usr/include/newlib/c++/9.2.1/bits/stl_vector.h **** 	vector(std::declval<vector&&>(), std::declval<const allocator_type&>(),
 607:/usr/include/newlib/c++/9.2.1/bits/stl_vector.h **** 	       std::declval<typename _Alloc_traits::is_always_equal>())) )
 608:/usr/include/newlib/c++/9.2.1/bits/stl_vector.h ****       : vector(std::move(__rv), __m, typename _Alloc_traits::is_always_equal{})
 609:/usr/include/newlib/c++/9.2.1/bits/stl_vector.h ****       { }
 610:/usr/include/newlib/c++/9.2.1/bits/stl_vector.h **** 
 611:/usr/include/newlib/c++/9.2.1/bits/stl_vector.h ****       /**
 612:/usr/include/newlib/c++/9.2.1/bits/stl_vector.h ****        *  @brief  Builds a %vector from an initializer list.
ARM GAS  /tmp/cc00lao6.s 			page 33


 613:/usr/include/newlib/c++/9.2.1/bits/stl_vector.h ****        *  @param  __l  An initializer_list.
 614:/usr/include/newlib/c++/9.2.1/bits/stl_vector.h ****        *  @param  __a  An allocator.
 615:/usr/include/newlib/c++/9.2.1/bits/stl_vector.h ****        *
 616:/usr/include/newlib/c++/9.2.1/bits/stl_vector.h ****        *  Create a %vector consisting of copies of the elements in the
 617:/usr/include/newlib/c++/9.2.1/bits/stl_vector.h ****        *  initializer_list @a __l.
 618:/usr/include/newlib/c++/9.2.1/bits/stl_vector.h ****        *
 619:/usr/include/newlib/c++/9.2.1/bits/stl_vector.h ****        *  This will call the element type's copy constructor N times
 620:/usr/include/newlib/c++/9.2.1/bits/stl_vector.h ****        *  (where N is @a __l.size()) and do no memory reallocation.
 621:/usr/include/newlib/c++/9.2.1/bits/stl_vector.h ****        */
 622:/usr/include/newlib/c++/9.2.1/bits/stl_vector.h ****       vector(initializer_list<value_type> __l,
 623:/usr/include/newlib/c++/9.2.1/bits/stl_vector.h **** 	     const allocator_type& __a = allocator_type())
 624:/usr/include/newlib/c++/9.2.1/bits/stl_vector.h ****       : _Base(__a)
 625:/usr/include/newlib/c++/9.2.1/bits/stl_vector.h ****       {
 626:/usr/include/newlib/c++/9.2.1/bits/stl_vector.h **** 	_M_range_initialize(__l.begin(), __l.end(),
 627:/usr/include/newlib/c++/9.2.1/bits/stl_vector.h **** 			    random_access_iterator_tag());
 628:/usr/include/newlib/c++/9.2.1/bits/stl_vector.h ****       }
 629:/usr/include/newlib/c++/9.2.1/bits/stl_vector.h **** #endif
 630:/usr/include/newlib/c++/9.2.1/bits/stl_vector.h **** 
 631:/usr/include/newlib/c++/9.2.1/bits/stl_vector.h ****       /**
 632:/usr/include/newlib/c++/9.2.1/bits/stl_vector.h ****        *  @brief  Builds a %vector from a range.
 633:/usr/include/newlib/c++/9.2.1/bits/stl_vector.h ****        *  @param  __first  An input iterator.
 634:/usr/include/newlib/c++/9.2.1/bits/stl_vector.h ****        *  @param  __last  An input iterator.
 635:/usr/include/newlib/c++/9.2.1/bits/stl_vector.h ****        *  @param  __a  An allocator.
 636:/usr/include/newlib/c++/9.2.1/bits/stl_vector.h ****        *
 637:/usr/include/newlib/c++/9.2.1/bits/stl_vector.h ****        *  Create a %vector consisting of copies of the elements from
 638:/usr/include/newlib/c++/9.2.1/bits/stl_vector.h ****        *  [first,last).
 639:/usr/include/newlib/c++/9.2.1/bits/stl_vector.h ****        *
 640:/usr/include/newlib/c++/9.2.1/bits/stl_vector.h ****        *  If the iterators are forward, bidirectional, or
 641:/usr/include/newlib/c++/9.2.1/bits/stl_vector.h ****        *  random-access, then this will call the elements' copy
 642:/usr/include/newlib/c++/9.2.1/bits/stl_vector.h ****        *  constructor N times (where N is distance(first,last)) and do
 643:/usr/include/newlib/c++/9.2.1/bits/stl_vector.h ****        *  no memory reallocation.  But if only input iterators are
 644:/usr/include/newlib/c++/9.2.1/bits/stl_vector.h ****        *  used, then this will do at most 2N calls to the copy
 645:/usr/include/newlib/c++/9.2.1/bits/stl_vector.h ****        *  constructor, and logN memory reallocations.
 646:/usr/include/newlib/c++/9.2.1/bits/stl_vector.h ****        */
 647:/usr/include/newlib/c++/9.2.1/bits/stl_vector.h **** #if __cplusplus >= 201103L
 648:/usr/include/newlib/c++/9.2.1/bits/stl_vector.h ****       template<typename _InputIterator,
 649:/usr/include/newlib/c++/9.2.1/bits/stl_vector.h **** 	       typename = std::_RequireInputIter<_InputIterator>>
 650:/usr/include/newlib/c++/9.2.1/bits/stl_vector.h **** 	vector(_InputIterator __first, _InputIterator __last,
 651:/usr/include/newlib/c++/9.2.1/bits/stl_vector.h **** 	       const allocator_type& __a = allocator_type())
 652:/usr/include/newlib/c++/9.2.1/bits/stl_vector.h **** 	: _Base(__a)
 653:/usr/include/newlib/c++/9.2.1/bits/stl_vector.h **** 	{
 654:/usr/include/newlib/c++/9.2.1/bits/stl_vector.h **** 	  _M_range_initialize(__first, __last,
 655:/usr/include/newlib/c++/9.2.1/bits/stl_vector.h **** 			      std::__iterator_category(__first));
 656:/usr/include/newlib/c++/9.2.1/bits/stl_vector.h **** 	}
 657:/usr/include/newlib/c++/9.2.1/bits/stl_vector.h **** #else
 658:/usr/include/newlib/c++/9.2.1/bits/stl_vector.h ****       template<typename _InputIterator>
 659:/usr/include/newlib/c++/9.2.1/bits/stl_vector.h **** 	vector(_InputIterator __first, _InputIterator __last,
 660:/usr/include/newlib/c++/9.2.1/bits/stl_vector.h **** 	       const allocator_type& __a = allocator_type())
 661:/usr/include/newlib/c++/9.2.1/bits/stl_vector.h **** 	: _Base(__a)
 662:/usr/include/newlib/c++/9.2.1/bits/stl_vector.h **** 	{
 663:/usr/include/newlib/c++/9.2.1/bits/stl_vector.h **** 	  // Check whether it's an integral type.  If so, it's not an iterator.
 664:/usr/include/newlib/c++/9.2.1/bits/stl_vector.h **** 	  typedef typename std::__is_integer<_InputIterator>::__type _Integral;
 665:/usr/include/newlib/c++/9.2.1/bits/stl_vector.h **** 	  _M_initialize_dispatch(__first, __last, _Integral());
 666:/usr/include/newlib/c++/9.2.1/bits/stl_vector.h **** 	}
 667:/usr/include/newlib/c++/9.2.1/bits/stl_vector.h **** #endif
 668:/usr/include/newlib/c++/9.2.1/bits/stl_vector.h **** 
 669:/usr/include/newlib/c++/9.2.1/bits/stl_vector.h ****       /**
ARM GAS  /tmp/cc00lao6.s 			page 34


 670:/usr/include/newlib/c++/9.2.1/bits/stl_vector.h ****        *  The dtor only erases the elements, and note that if the
 671:/usr/include/newlib/c++/9.2.1/bits/stl_vector.h ****        *  elements themselves are pointers, the pointed-to memory is
 672:/usr/include/newlib/c++/9.2.1/bits/stl_vector.h ****        *  not touched in any way.  Managing the pointer is the user's
 673:/usr/include/newlib/c++/9.2.1/bits/stl_vector.h ****        *  responsibility.
 674:/usr/include/newlib/c++/9.2.1/bits/stl_vector.h ****        */
 675:/usr/include/newlib/c++/9.2.1/bits/stl_vector.h ****       ~vector() _GLIBCXX_NOEXCEPT
 248              		.loc 13 675 7 is_stmt 1 view -0
 249              		.cfi_startproc
 250              		@ args = 0, pretend = 0, frame = 0
 251              		@ frame_needed = 0, uses_anonymous_args = 0
 252              		.loc 13 675 7 is_stmt 0 view .LVU41
 253 0000 F8B5     		push	{r3, r4, r5, r6, r7, lr}
 254              		.cfi_def_cfa_offset 24
 255              		.cfi_offset 3, -24
 256              		.cfi_offset 4, -20
 257              		.cfi_offset 5, -16
 258              		.cfi_offset 6, -12
 259              		.cfi_offset 7, -8
 260              		.cfi_offset 14, -4
 261              	.LBB3827:
 676:/usr/include/newlib/c++/9.2.1/bits/stl_vector.h ****       {
 677:/usr/include/newlib/c++/9.2.1/bits/stl_vector.h **** 	std::_Destroy(this->_M_impl._M_start, this->_M_impl._M_finish,
 262              		.loc 13 677 15 view .LVU42
 263 0002 D0E90056 		ldrd	r5, r6, [r0]
 264              	.LBE3827:
 675:/usr/include/newlib/c++/9.2.1/bits/stl_vector.h ****       {
 265              		.loc 13 675 7 view .LVU43
 266 0006 0746     		mov	r7, r0
 267              	.LVL11:
 268              	.LBB3868:
 269              	.LBB3828:
 270              	.LBI3828:
 273:/usr/include/newlib/c++/9.2.1/bits/stl_vector.h ****       { return this->_M_impl; }
 271              		.loc 13 273 7 is_stmt 1 view .LVU44
 273:/usr/include/newlib/c++/9.2.1/bits/stl_vector.h ****       { return this->_M_impl; }
 272              		.loc 13 273 7 is_stmt 0 view .LVU45
 273              	.LBE3828:
 274              	.LBB3829:
 275              	.LBI3829:
 276              		.file 14 "/usr/include/newlib/c++/9.2.1/bits/stl_construct.h"
   1:/usr/include/newlib/c++/9.2.1/bits/stl_construct.h **** // nonstandard construct and destroy functions -*- C++ -*-
   2:/usr/include/newlib/c++/9.2.1/bits/stl_construct.h **** 
   3:/usr/include/newlib/c++/9.2.1/bits/stl_construct.h **** // Copyright (C) 2001-2019 Free Software Foundation, Inc.
   4:/usr/include/newlib/c++/9.2.1/bits/stl_construct.h **** //
   5:/usr/include/newlib/c++/9.2.1/bits/stl_construct.h **** // This file is part of the GNU ISO C++ Library.  This library is free
   6:/usr/include/newlib/c++/9.2.1/bits/stl_construct.h **** // software; you can redistribute it and/or modify it under the
   7:/usr/include/newlib/c++/9.2.1/bits/stl_construct.h **** // terms of the GNU General Public License as published by the
   8:/usr/include/newlib/c++/9.2.1/bits/stl_construct.h **** // Free Software Foundation; either version 3, or (at your option)
   9:/usr/include/newlib/c++/9.2.1/bits/stl_construct.h **** // any later version.
  10:/usr/include/newlib/c++/9.2.1/bits/stl_construct.h **** 
  11:/usr/include/newlib/c++/9.2.1/bits/stl_construct.h **** // This library is distributed in the hope that it will be useful,
  12:/usr/include/newlib/c++/9.2.1/bits/stl_construct.h **** // but WITHOUT ANY WARRANTY; without even the implied warranty of
  13:/usr/include/newlib/c++/9.2.1/bits/stl_construct.h **** // MERCHANTABILITY or FITNESS FOR A PARTICULAR PURPOSE.  See the
  14:/usr/include/newlib/c++/9.2.1/bits/stl_construct.h **** // GNU General Public License for more details.
  15:/usr/include/newlib/c++/9.2.1/bits/stl_construct.h **** 
  16:/usr/include/newlib/c++/9.2.1/bits/stl_construct.h **** // Under Section 7 of GPL version 3, you are granted additional
  17:/usr/include/newlib/c++/9.2.1/bits/stl_construct.h **** // permissions described in the GCC Runtime Library Exception, version
ARM GAS  /tmp/cc00lao6.s 			page 35


  18:/usr/include/newlib/c++/9.2.1/bits/stl_construct.h **** // 3.1, as published by the Free Software Foundation.
  19:/usr/include/newlib/c++/9.2.1/bits/stl_construct.h **** 
  20:/usr/include/newlib/c++/9.2.1/bits/stl_construct.h **** // You should have received a copy of the GNU General Public License and
  21:/usr/include/newlib/c++/9.2.1/bits/stl_construct.h **** // a copy of the GCC Runtime Library Exception along with this program;
  22:/usr/include/newlib/c++/9.2.1/bits/stl_construct.h **** // see the files COPYING3 and COPYING.RUNTIME respectively.  If not, see
  23:/usr/include/newlib/c++/9.2.1/bits/stl_construct.h **** // <http://www.gnu.org/licenses/>.
  24:/usr/include/newlib/c++/9.2.1/bits/stl_construct.h **** 
  25:/usr/include/newlib/c++/9.2.1/bits/stl_construct.h **** /*
  26:/usr/include/newlib/c++/9.2.1/bits/stl_construct.h ****  *
  27:/usr/include/newlib/c++/9.2.1/bits/stl_construct.h ****  * Copyright (c) 1994
  28:/usr/include/newlib/c++/9.2.1/bits/stl_construct.h ****  * Hewlett-Packard Company
  29:/usr/include/newlib/c++/9.2.1/bits/stl_construct.h ****  *
  30:/usr/include/newlib/c++/9.2.1/bits/stl_construct.h ****  * Permission to use, copy, modify, distribute and sell this software
  31:/usr/include/newlib/c++/9.2.1/bits/stl_construct.h ****  * and its documentation for any purpose is hereby granted without fee,
  32:/usr/include/newlib/c++/9.2.1/bits/stl_construct.h ****  * provided that the above copyright notice appear in all copies and
  33:/usr/include/newlib/c++/9.2.1/bits/stl_construct.h ****  * that both that copyright notice and this permission notice appear
  34:/usr/include/newlib/c++/9.2.1/bits/stl_construct.h ****  * in supporting documentation.  Hewlett-Packard Company makes no
  35:/usr/include/newlib/c++/9.2.1/bits/stl_construct.h ****  * representations about the suitability of this software for any
  36:/usr/include/newlib/c++/9.2.1/bits/stl_construct.h ****  * purpose.  It is provided "as is" without express or implied warranty.
  37:/usr/include/newlib/c++/9.2.1/bits/stl_construct.h ****  *
  38:/usr/include/newlib/c++/9.2.1/bits/stl_construct.h ****  *
  39:/usr/include/newlib/c++/9.2.1/bits/stl_construct.h ****  * Copyright (c) 1996,1997
  40:/usr/include/newlib/c++/9.2.1/bits/stl_construct.h ****  * Silicon Graphics Computer Systems, Inc.
  41:/usr/include/newlib/c++/9.2.1/bits/stl_construct.h ****  *
  42:/usr/include/newlib/c++/9.2.1/bits/stl_construct.h ****  * Permission to use, copy, modify, distribute and sell this software
  43:/usr/include/newlib/c++/9.2.1/bits/stl_construct.h ****  * and its documentation for any purpose is hereby granted without fee,
  44:/usr/include/newlib/c++/9.2.1/bits/stl_construct.h ****  * provided that the above copyright notice appear in all copies and
  45:/usr/include/newlib/c++/9.2.1/bits/stl_construct.h ****  * that both that copyright notice and this permission notice appear
  46:/usr/include/newlib/c++/9.2.1/bits/stl_construct.h ****  * in supporting documentation.  Silicon Graphics makes no
  47:/usr/include/newlib/c++/9.2.1/bits/stl_construct.h ****  * representations about the suitability of this software for any
  48:/usr/include/newlib/c++/9.2.1/bits/stl_construct.h ****  * purpose.  It is provided "as is" without express or implied warranty.
  49:/usr/include/newlib/c++/9.2.1/bits/stl_construct.h ****  */
  50:/usr/include/newlib/c++/9.2.1/bits/stl_construct.h **** 
  51:/usr/include/newlib/c++/9.2.1/bits/stl_construct.h **** /** @file bits/stl_construct.h
  52:/usr/include/newlib/c++/9.2.1/bits/stl_construct.h ****  *  This is an internal header file, included by other library headers.
  53:/usr/include/newlib/c++/9.2.1/bits/stl_construct.h ****  *  Do not attempt to use it directly. @headername{memory}
  54:/usr/include/newlib/c++/9.2.1/bits/stl_construct.h ****  */
  55:/usr/include/newlib/c++/9.2.1/bits/stl_construct.h **** 
  56:/usr/include/newlib/c++/9.2.1/bits/stl_construct.h **** #ifndef _STL_CONSTRUCT_H
  57:/usr/include/newlib/c++/9.2.1/bits/stl_construct.h **** #define _STL_CONSTRUCT_H 1
  58:/usr/include/newlib/c++/9.2.1/bits/stl_construct.h **** 
  59:/usr/include/newlib/c++/9.2.1/bits/stl_construct.h **** #include <new>
  60:/usr/include/newlib/c++/9.2.1/bits/stl_construct.h **** #include <bits/move.h>
  61:/usr/include/newlib/c++/9.2.1/bits/stl_construct.h **** #include <ext/alloc_traits.h>
  62:/usr/include/newlib/c++/9.2.1/bits/stl_construct.h **** 
  63:/usr/include/newlib/c++/9.2.1/bits/stl_construct.h **** namespace std _GLIBCXX_VISIBILITY(default)
  64:/usr/include/newlib/c++/9.2.1/bits/stl_construct.h **** {
  65:/usr/include/newlib/c++/9.2.1/bits/stl_construct.h **** _GLIBCXX_BEGIN_NAMESPACE_VERSION
  66:/usr/include/newlib/c++/9.2.1/bits/stl_construct.h **** 
  67:/usr/include/newlib/c++/9.2.1/bits/stl_construct.h ****   /**
  68:/usr/include/newlib/c++/9.2.1/bits/stl_construct.h ****    * Constructs an object in existing memory by invoking an allocated
  69:/usr/include/newlib/c++/9.2.1/bits/stl_construct.h ****    * object's constructor with an initializer.
  70:/usr/include/newlib/c++/9.2.1/bits/stl_construct.h ****    */
  71:/usr/include/newlib/c++/9.2.1/bits/stl_construct.h **** #if __cplusplus >= 201103L
  72:/usr/include/newlib/c++/9.2.1/bits/stl_construct.h ****   template<typename _T1, typename... _Args>
  73:/usr/include/newlib/c++/9.2.1/bits/stl_construct.h ****     inline void
  74:/usr/include/newlib/c++/9.2.1/bits/stl_construct.h ****     _Construct(_T1* __p, _Args&&... __args)
ARM GAS  /tmp/cc00lao6.s 			page 36


  75:/usr/include/newlib/c++/9.2.1/bits/stl_construct.h ****     { ::new(static_cast<void*>(__p)) _T1(std::forward<_Args>(__args)...); }
  76:/usr/include/newlib/c++/9.2.1/bits/stl_construct.h **** #else
  77:/usr/include/newlib/c++/9.2.1/bits/stl_construct.h ****   template<typename _T1, typename _T2>
  78:/usr/include/newlib/c++/9.2.1/bits/stl_construct.h ****     inline void
  79:/usr/include/newlib/c++/9.2.1/bits/stl_construct.h ****     _Construct(_T1* __p, const _T2& __value)
  80:/usr/include/newlib/c++/9.2.1/bits/stl_construct.h ****     {
  81:/usr/include/newlib/c++/9.2.1/bits/stl_construct.h ****       // _GLIBCXX_RESOLVE_LIB_DEFECTS
  82:/usr/include/newlib/c++/9.2.1/bits/stl_construct.h ****       // 402. wrong new expression in [some_]allocator::construct
  83:/usr/include/newlib/c++/9.2.1/bits/stl_construct.h ****       ::new(static_cast<void*>(__p)) _T1(__value);
  84:/usr/include/newlib/c++/9.2.1/bits/stl_construct.h ****     }
  85:/usr/include/newlib/c++/9.2.1/bits/stl_construct.h **** #endif
  86:/usr/include/newlib/c++/9.2.1/bits/stl_construct.h **** 
  87:/usr/include/newlib/c++/9.2.1/bits/stl_construct.h ****   template<typename _T1>
  88:/usr/include/newlib/c++/9.2.1/bits/stl_construct.h ****     inline void
  89:/usr/include/newlib/c++/9.2.1/bits/stl_construct.h ****     _Construct_novalue(_T1* __p)
  90:/usr/include/newlib/c++/9.2.1/bits/stl_construct.h ****     { ::new(static_cast<void*>(__p)) _T1; }
  91:/usr/include/newlib/c++/9.2.1/bits/stl_construct.h **** 
  92:/usr/include/newlib/c++/9.2.1/bits/stl_construct.h ****   /**
  93:/usr/include/newlib/c++/9.2.1/bits/stl_construct.h ****    * Destroy the object pointed to by a pointer type.
  94:/usr/include/newlib/c++/9.2.1/bits/stl_construct.h ****    */
  95:/usr/include/newlib/c++/9.2.1/bits/stl_construct.h ****   template<typename _Tp>
  96:/usr/include/newlib/c++/9.2.1/bits/stl_construct.h ****     inline void
  97:/usr/include/newlib/c++/9.2.1/bits/stl_construct.h ****     _Destroy(_Tp* __pointer)
  98:/usr/include/newlib/c++/9.2.1/bits/stl_construct.h ****     { __pointer->~_Tp(); }
  99:/usr/include/newlib/c++/9.2.1/bits/stl_construct.h **** 
 100:/usr/include/newlib/c++/9.2.1/bits/stl_construct.h ****   template<bool>
 101:/usr/include/newlib/c++/9.2.1/bits/stl_construct.h ****     struct _Destroy_aux
 102:/usr/include/newlib/c++/9.2.1/bits/stl_construct.h ****     {
 103:/usr/include/newlib/c++/9.2.1/bits/stl_construct.h ****       template<typename _ForwardIterator>
 104:/usr/include/newlib/c++/9.2.1/bits/stl_construct.h ****         static void
 105:/usr/include/newlib/c++/9.2.1/bits/stl_construct.h ****         __destroy(_ForwardIterator __first, _ForwardIterator __last)
 106:/usr/include/newlib/c++/9.2.1/bits/stl_construct.h **** 	{
 107:/usr/include/newlib/c++/9.2.1/bits/stl_construct.h **** 	  for (; __first != __last; ++__first)
 108:/usr/include/newlib/c++/9.2.1/bits/stl_construct.h **** 	    std::_Destroy(std::__addressof(*__first));
 109:/usr/include/newlib/c++/9.2.1/bits/stl_construct.h **** 	}
 110:/usr/include/newlib/c++/9.2.1/bits/stl_construct.h ****     };
 111:/usr/include/newlib/c++/9.2.1/bits/stl_construct.h **** 
 112:/usr/include/newlib/c++/9.2.1/bits/stl_construct.h ****   template<>
 113:/usr/include/newlib/c++/9.2.1/bits/stl_construct.h ****     struct _Destroy_aux<true>
 114:/usr/include/newlib/c++/9.2.1/bits/stl_construct.h ****     {
 115:/usr/include/newlib/c++/9.2.1/bits/stl_construct.h ****       template<typename _ForwardIterator>
 116:/usr/include/newlib/c++/9.2.1/bits/stl_construct.h ****         static void
 117:/usr/include/newlib/c++/9.2.1/bits/stl_construct.h ****         __destroy(_ForwardIterator, _ForwardIterator) { }
 118:/usr/include/newlib/c++/9.2.1/bits/stl_construct.h ****     };
 119:/usr/include/newlib/c++/9.2.1/bits/stl_construct.h **** 
 120:/usr/include/newlib/c++/9.2.1/bits/stl_construct.h ****   /**
 121:/usr/include/newlib/c++/9.2.1/bits/stl_construct.h ****    * Destroy a range of objects.  If the value_type of the object has
 122:/usr/include/newlib/c++/9.2.1/bits/stl_construct.h ****    * a trivial destructor, the compiler should optimize all of this
 123:/usr/include/newlib/c++/9.2.1/bits/stl_construct.h ****    * away, otherwise the objects' destructors must be invoked.
 124:/usr/include/newlib/c++/9.2.1/bits/stl_construct.h ****    */
 125:/usr/include/newlib/c++/9.2.1/bits/stl_construct.h ****   template<typename _ForwardIterator>
 126:/usr/include/newlib/c++/9.2.1/bits/stl_construct.h ****     inline void
 127:/usr/include/newlib/c++/9.2.1/bits/stl_construct.h ****     _Destroy(_ForwardIterator __first, _ForwardIterator __last)
 128:/usr/include/newlib/c++/9.2.1/bits/stl_construct.h ****     {
 129:/usr/include/newlib/c++/9.2.1/bits/stl_construct.h ****       typedef typename iterator_traits<_ForwardIterator>::value_type
 130:/usr/include/newlib/c++/9.2.1/bits/stl_construct.h ****                        _Value_type;
 131:/usr/include/newlib/c++/9.2.1/bits/stl_construct.h **** #if __cplusplus >= 201103L
ARM GAS  /tmp/cc00lao6.s 			page 37


 132:/usr/include/newlib/c++/9.2.1/bits/stl_construct.h ****       // A deleted destructor is trivial, this ensures we reject such types:
 133:/usr/include/newlib/c++/9.2.1/bits/stl_construct.h ****       static_assert(is_destructible<_Value_type>::value,
 134:/usr/include/newlib/c++/9.2.1/bits/stl_construct.h **** 		    "value type is destructible");
 135:/usr/include/newlib/c++/9.2.1/bits/stl_construct.h **** #endif
 136:/usr/include/newlib/c++/9.2.1/bits/stl_construct.h ****       std::_Destroy_aux<__has_trivial_destructor(_Value_type)>::
 137:/usr/include/newlib/c++/9.2.1/bits/stl_construct.h **** 	__destroy(__first, __last);
 138:/usr/include/newlib/c++/9.2.1/bits/stl_construct.h ****     }
 139:/usr/include/newlib/c++/9.2.1/bits/stl_construct.h **** 
 140:/usr/include/newlib/c++/9.2.1/bits/stl_construct.h ****   template<bool>
 141:/usr/include/newlib/c++/9.2.1/bits/stl_construct.h ****     struct _Destroy_n_aux
 142:/usr/include/newlib/c++/9.2.1/bits/stl_construct.h ****     {
 143:/usr/include/newlib/c++/9.2.1/bits/stl_construct.h ****       template<typename _ForwardIterator, typename _Size>
 144:/usr/include/newlib/c++/9.2.1/bits/stl_construct.h ****         static _ForwardIterator
 145:/usr/include/newlib/c++/9.2.1/bits/stl_construct.h ****         __destroy_n(_ForwardIterator __first, _Size __count)
 146:/usr/include/newlib/c++/9.2.1/bits/stl_construct.h **** 	{
 147:/usr/include/newlib/c++/9.2.1/bits/stl_construct.h **** 	  for (; __count > 0; (void)++__first, --__count)
 148:/usr/include/newlib/c++/9.2.1/bits/stl_construct.h **** 	    std::_Destroy(std::__addressof(*__first));
 149:/usr/include/newlib/c++/9.2.1/bits/stl_construct.h **** 	  return __first;
 150:/usr/include/newlib/c++/9.2.1/bits/stl_construct.h **** 	}
 151:/usr/include/newlib/c++/9.2.1/bits/stl_construct.h ****     };
 152:/usr/include/newlib/c++/9.2.1/bits/stl_construct.h **** 
 153:/usr/include/newlib/c++/9.2.1/bits/stl_construct.h ****   template<>
 154:/usr/include/newlib/c++/9.2.1/bits/stl_construct.h ****     struct _Destroy_n_aux<true>
 155:/usr/include/newlib/c++/9.2.1/bits/stl_construct.h ****     {
 156:/usr/include/newlib/c++/9.2.1/bits/stl_construct.h ****       template<typename _ForwardIterator, typename _Size>
 157:/usr/include/newlib/c++/9.2.1/bits/stl_construct.h ****         static _ForwardIterator
 158:/usr/include/newlib/c++/9.2.1/bits/stl_construct.h ****         __destroy_n(_ForwardIterator __first, _Size __count)
 159:/usr/include/newlib/c++/9.2.1/bits/stl_construct.h **** 	{
 160:/usr/include/newlib/c++/9.2.1/bits/stl_construct.h **** 	  std::advance(__first, __count);
 161:/usr/include/newlib/c++/9.2.1/bits/stl_construct.h **** 	  return __first;
 162:/usr/include/newlib/c++/9.2.1/bits/stl_construct.h **** 	}
 163:/usr/include/newlib/c++/9.2.1/bits/stl_construct.h ****     };
 164:/usr/include/newlib/c++/9.2.1/bits/stl_construct.h **** 
 165:/usr/include/newlib/c++/9.2.1/bits/stl_construct.h ****   /**
 166:/usr/include/newlib/c++/9.2.1/bits/stl_construct.h ****    * Destroy a range of objects.  If the value_type of the object has
 167:/usr/include/newlib/c++/9.2.1/bits/stl_construct.h ****    * a trivial destructor, the compiler should optimize all of this
 168:/usr/include/newlib/c++/9.2.1/bits/stl_construct.h ****    * away, otherwise the objects' destructors must be invoked.
 169:/usr/include/newlib/c++/9.2.1/bits/stl_construct.h ****    */
 170:/usr/include/newlib/c++/9.2.1/bits/stl_construct.h ****   template<typename _ForwardIterator, typename _Size>
 171:/usr/include/newlib/c++/9.2.1/bits/stl_construct.h ****     inline _ForwardIterator
 172:/usr/include/newlib/c++/9.2.1/bits/stl_construct.h ****     _Destroy_n(_ForwardIterator __first, _Size __count)
 173:/usr/include/newlib/c++/9.2.1/bits/stl_construct.h ****     {
 174:/usr/include/newlib/c++/9.2.1/bits/stl_construct.h ****       typedef typename iterator_traits<_ForwardIterator>::value_type
 175:/usr/include/newlib/c++/9.2.1/bits/stl_construct.h ****                        _Value_type;
 176:/usr/include/newlib/c++/9.2.1/bits/stl_construct.h **** #if __cplusplus >= 201103L
 177:/usr/include/newlib/c++/9.2.1/bits/stl_construct.h ****       // A deleted destructor is trivial, this ensures we reject such types:
 178:/usr/include/newlib/c++/9.2.1/bits/stl_construct.h ****       static_assert(is_destructible<_Value_type>::value,
 179:/usr/include/newlib/c++/9.2.1/bits/stl_construct.h **** 		    "value type is destructible");
 180:/usr/include/newlib/c++/9.2.1/bits/stl_construct.h **** #endif
 181:/usr/include/newlib/c++/9.2.1/bits/stl_construct.h ****       return std::_Destroy_n_aux<__has_trivial_destructor(_Value_type)>::
 182:/usr/include/newlib/c++/9.2.1/bits/stl_construct.h **** 	__destroy_n(__first, __count);
 183:/usr/include/newlib/c++/9.2.1/bits/stl_construct.h ****     }
 184:/usr/include/newlib/c++/9.2.1/bits/stl_construct.h **** 
 185:/usr/include/newlib/c++/9.2.1/bits/stl_construct.h ****   /**
 186:/usr/include/newlib/c++/9.2.1/bits/stl_construct.h ****    * Destroy a range of objects using the supplied allocator.  For
 187:/usr/include/newlib/c++/9.2.1/bits/stl_construct.h ****    * nondefault allocators we do not optimize away invocation of 
 188:/usr/include/newlib/c++/9.2.1/bits/stl_construct.h ****    * destroy() even if _Tp has a trivial destructor.
ARM GAS  /tmp/cc00lao6.s 			page 38


 189:/usr/include/newlib/c++/9.2.1/bits/stl_construct.h ****    */
 190:/usr/include/newlib/c++/9.2.1/bits/stl_construct.h **** 
 191:/usr/include/newlib/c++/9.2.1/bits/stl_construct.h ****   template<typename _ForwardIterator, typename _Allocator>
 192:/usr/include/newlib/c++/9.2.1/bits/stl_construct.h ****     void
 193:/usr/include/newlib/c++/9.2.1/bits/stl_construct.h ****     _Destroy(_ForwardIterator __first, _ForwardIterator __last,
 194:/usr/include/newlib/c++/9.2.1/bits/stl_construct.h **** 	     _Allocator& __alloc)
 195:/usr/include/newlib/c++/9.2.1/bits/stl_construct.h ****     {
 196:/usr/include/newlib/c++/9.2.1/bits/stl_construct.h ****       typedef __gnu_cxx::__alloc_traits<_Allocator> __traits;
 197:/usr/include/newlib/c++/9.2.1/bits/stl_construct.h ****       for (; __first != __last; ++__first)
 198:/usr/include/newlib/c++/9.2.1/bits/stl_construct.h **** 	__traits::destroy(__alloc, std::__addressof(*__first));
 199:/usr/include/newlib/c++/9.2.1/bits/stl_construct.h ****     }
 200:/usr/include/newlib/c++/9.2.1/bits/stl_construct.h **** 
 201:/usr/include/newlib/c++/9.2.1/bits/stl_construct.h ****   template<typename _ForwardIterator, typename _Tp>
 202:/usr/include/newlib/c++/9.2.1/bits/stl_construct.h ****     inline void
 203:/usr/include/newlib/c++/9.2.1/bits/stl_construct.h ****     _Destroy(_ForwardIterator __first, _ForwardIterator __last,
 277              		.loc 14 203 5 is_stmt 1 view .LVU46
 278              	.LBB3830:
 279              	.LBB3831:
 280              	.LBB3832:
 281              	.LBB3833:
 107:/usr/include/newlib/c++/9.2.1/bits/stl_construct.h **** 	    std::_Destroy(std::__addressof(*__first));
 282              		.loc 14 107 19 view .LVU47
 283 0008 B542     		cmp	r5, r6
 284 000a 0DD0     		beq	.L10
 285 000c 05F10804 		add	r4, r5, #8
 286              	.LVL12:
 287              	.L12:
 288              	.LBB3834:
 289              	.LBI3834:
  97:/usr/include/newlib/c++/9.2.1/bits/stl_construct.h ****     { __pointer->~_Tp(); }
 290              		.loc 14 97 5 view .LVU48
 291              	.LBB3835:
 292              	.LBI3835:
 293              		.file 15 "/usr/include/newlib/c++/9.2.1/bits/basic_string.h"
   1:/usr/include/newlib/c++/9.2.1/bits/basic_string.h **** // Components for manipulating sequences of characters -*- C++ -*-
   2:/usr/include/newlib/c++/9.2.1/bits/basic_string.h **** 
   3:/usr/include/newlib/c++/9.2.1/bits/basic_string.h **** // Copyright (C) 1997-2019 Free Software Foundation, Inc.
   4:/usr/include/newlib/c++/9.2.1/bits/basic_string.h **** //
   5:/usr/include/newlib/c++/9.2.1/bits/basic_string.h **** // This file is part of the GNU ISO C++ Library.  This library is free
   6:/usr/include/newlib/c++/9.2.1/bits/basic_string.h **** // software; you can redistribute it and/or modify it under the
   7:/usr/include/newlib/c++/9.2.1/bits/basic_string.h **** // terms of the GNU General Public License as published by the
   8:/usr/include/newlib/c++/9.2.1/bits/basic_string.h **** // Free Software Foundation; either version 3, or (at your option)
   9:/usr/include/newlib/c++/9.2.1/bits/basic_string.h **** // any later version.
  10:/usr/include/newlib/c++/9.2.1/bits/basic_string.h **** 
  11:/usr/include/newlib/c++/9.2.1/bits/basic_string.h **** // This library is distributed in the hope that it will be useful,
  12:/usr/include/newlib/c++/9.2.1/bits/basic_string.h **** // but WITHOUT ANY WARRANTY; without even the implied warranty of
  13:/usr/include/newlib/c++/9.2.1/bits/basic_string.h **** // MERCHANTABILITY or FITNESS FOR A PARTICULAR PURPOSE.  See the
  14:/usr/include/newlib/c++/9.2.1/bits/basic_string.h **** // GNU General Public License for more details.
  15:/usr/include/newlib/c++/9.2.1/bits/basic_string.h **** 
  16:/usr/include/newlib/c++/9.2.1/bits/basic_string.h **** // Under Section 7 of GPL version 3, you are granted additional
  17:/usr/include/newlib/c++/9.2.1/bits/basic_string.h **** // permissions described in the GCC Runtime Library Exception, version
  18:/usr/include/newlib/c++/9.2.1/bits/basic_string.h **** // 3.1, as published by the Free Software Foundation.
  19:/usr/include/newlib/c++/9.2.1/bits/basic_string.h **** 
  20:/usr/include/newlib/c++/9.2.1/bits/basic_string.h **** // You should have received a copy of the GNU General Public License and
  21:/usr/include/newlib/c++/9.2.1/bits/basic_string.h **** // a copy of the GCC Runtime Library Exception along with this program;
  22:/usr/include/newlib/c++/9.2.1/bits/basic_string.h **** // see the files COPYING3 and COPYING.RUNTIME respectively.  If not, see
  23:/usr/include/newlib/c++/9.2.1/bits/basic_string.h **** // <http://www.gnu.org/licenses/>.
ARM GAS  /tmp/cc00lao6.s 			page 39


  24:/usr/include/newlib/c++/9.2.1/bits/basic_string.h **** 
  25:/usr/include/newlib/c++/9.2.1/bits/basic_string.h **** /** @file bits/basic_string.h
  26:/usr/include/newlib/c++/9.2.1/bits/basic_string.h ****  *  This is an internal header file, included by other library headers.
  27:/usr/include/newlib/c++/9.2.1/bits/basic_string.h ****  *  Do not attempt to use it directly. @headername{string}
  28:/usr/include/newlib/c++/9.2.1/bits/basic_string.h ****  */
  29:/usr/include/newlib/c++/9.2.1/bits/basic_string.h **** 
  30:/usr/include/newlib/c++/9.2.1/bits/basic_string.h **** //
  31:/usr/include/newlib/c++/9.2.1/bits/basic_string.h **** // ISO C++ 14882: 21 Strings library
  32:/usr/include/newlib/c++/9.2.1/bits/basic_string.h **** //
  33:/usr/include/newlib/c++/9.2.1/bits/basic_string.h **** 
  34:/usr/include/newlib/c++/9.2.1/bits/basic_string.h **** #ifndef _BASIC_STRING_H
  35:/usr/include/newlib/c++/9.2.1/bits/basic_string.h **** #define _BASIC_STRING_H 1
  36:/usr/include/newlib/c++/9.2.1/bits/basic_string.h **** 
  37:/usr/include/newlib/c++/9.2.1/bits/basic_string.h **** #pragma GCC system_header
  38:/usr/include/newlib/c++/9.2.1/bits/basic_string.h **** 
  39:/usr/include/newlib/c++/9.2.1/bits/basic_string.h **** #include <ext/atomicity.h>
  40:/usr/include/newlib/c++/9.2.1/bits/basic_string.h **** #include <ext/alloc_traits.h>
  41:/usr/include/newlib/c++/9.2.1/bits/basic_string.h **** #include <debug/debug.h>
  42:/usr/include/newlib/c++/9.2.1/bits/basic_string.h **** 
  43:/usr/include/newlib/c++/9.2.1/bits/basic_string.h **** #if __cplusplus >= 201103L
  44:/usr/include/newlib/c++/9.2.1/bits/basic_string.h **** #include <initializer_list>
  45:/usr/include/newlib/c++/9.2.1/bits/basic_string.h **** #endif
  46:/usr/include/newlib/c++/9.2.1/bits/basic_string.h **** 
  47:/usr/include/newlib/c++/9.2.1/bits/basic_string.h **** #if __cplusplus >= 201703L
  48:/usr/include/newlib/c++/9.2.1/bits/basic_string.h **** # include <string_view>
  49:/usr/include/newlib/c++/9.2.1/bits/basic_string.h **** #endif
  50:/usr/include/newlib/c++/9.2.1/bits/basic_string.h **** 
  51:/usr/include/newlib/c++/9.2.1/bits/basic_string.h **** 
  52:/usr/include/newlib/c++/9.2.1/bits/basic_string.h **** namespace std _GLIBCXX_VISIBILITY(default)
  53:/usr/include/newlib/c++/9.2.1/bits/basic_string.h **** {
  54:/usr/include/newlib/c++/9.2.1/bits/basic_string.h **** _GLIBCXX_BEGIN_NAMESPACE_VERSION
  55:/usr/include/newlib/c++/9.2.1/bits/basic_string.h **** 
  56:/usr/include/newlib/c++/9.2.1/bits/basic_string.h **** #if _GLIBCXX_USE_CXX11_ABI
  57:/usr/include/newlib/c++/9.2.1/bits/basic_string.h **** _GLIBCXX_BEGIN_NAMESPACE_CXX11
  58:/usr/include/newlib/c++/9.2.1/bits/basic_string.h ****   /**
  59:/usr/include/newlib/c++/9.2.1/bits/basic_string.h ****    *  @class basic_string basic_string.h <string>
  60:/usr/include/newlib/c++/9.2.1/bits/basic_string.h ****    *  @brief  Managing sequences of characters and character-like objects.
  61:/usr/include/newlib/c++/9.2.1/bits/basic_string.h ****    *
  62:/usr/include/newlib/c++/9.2.1/bits/basic_string.h ****    *  @ingroup strings
  63:/usr/include/newlib/c++/9.2.1/bits/basic_string.h ****    *  @ingroup sequences
  64:/usr/include/newlib/c++/9.2.1/bits/basic_string.h ****    *
  65:/usr/include/newlib/c++/9.2.1/bits/basic_string.h ****    *  @tparam _CharT  Type of character
  66:/usr/include/newlib/c++/9.2.1/bits/basic_string.h ****    *  @tparam _Traits  Traits for character type, defaults to
  67:/usr/include/newlib/c++/9.2.1/bits/basic_string.h ****    *                   char_traits<_CharT>.
  68:/usr/include/newlib/c++/9.2.1/bits/basic_string.h ****    *  @tparam _Alloc  Allocator type, defaults to allocator<_CharT>.
  69:/usr/include/newlib/c++/9.2.1/bits/basic_string.h ****    *
  70:/usr/include/newlib/c++/9.2.1/bits/basic_string.h ****    *  Meets the requirements of a <a href="tables.html#65">container</a>, a
  71:/usr/include/newlib/c++/9.2.1/bits/basic_string.h ****    *  <a href="tables.html#66">reversible container</a>, and a
  72:/usr/include/newlib/c++/9.2.1/bits/basic_string.h ****    *  <a href="tables.html#67">sequence</a>.  Of the
  73:/usr/include/newlib/c++/9.2.1/bits/basic_string.h ****    *  <a href="tables.html#68">optional sequence requirements</a>, only
  74:/usr/include/newlib/c++/9.2.1/bits/basic_string.h ****    *  @c push_back, @c at, and @c %array access are supported.
  75:/usr/include/newlib/c++/9.2.1/bits/basic_string.h ****    */
  76:/usr/include/newlib/c++/9.2.1/bits/basic_string.h ****   template<typename _CharT, typename _Traits, typename _Alloc>
  77:/usr/include/newlib/c++/9.2.1/bits/basic_string.h ****     class basic_string
  78:/usr/include/newlib/c++/9.2.1/bits/basic_string.h ****     {
  79:/usr/include/newlib/c++/9.2.1/bits/basic_string.h ****       typedef typename __gnu_cxx::__alloc_traits<_Alloc>::template
  80:/usr/include/newlib/c++/9.2.1/bits/basic_string.h **** 	rebind<_CharT>::other _Char_alloc_type;
ARM GAS  /tmp/cc00lao6.s 			page 40


  81:/usr/include/newlib/c++/9.2.1/bits/basic_string.h ****       typedef __gnu_cxx::__alloc_traits<_Char_alloc_type> _Alloc_traits;
  82:/usr/include/newlib/c++/9.2.1/bits/basic_string.h **** 
  83:/usr/include/newlib/c++/9.2.1/bits/basic_string.h ****       // Types:
  84:/usr/include/newlib/c++/9.2.1/bits/basic_string.h ****     public:
  85:/usr/include/newlib/c++/9.2.1/bits/basic_string.h ****       typedef _Traits					traits_type;
  86:/usr/include/newlib/c++/9.2.1/bits/basic_string.h ****       typedef typename _Traits::char_type		value_type;
  87:/usr/include/newlib/c++/9.2.1/bits/basic_string.h ****       typedef _Char_alloc_type				allocator_type;
  88:/usr/include/newlib/c++/9.2.1/bits/basic_string.h ****       typedef typename _Alloc_traits::size_type		size_type;
  89:/usr/include/newlib/c++/9.2.1/bits/basic_string.h ****       typedef typename _Alloc_traits::difference_type	difference_type;
  90:/usr/include/newlib/c++/9.2.1/bits/basic_string.h ****       typedef typename _Alloc_traits::reference		reference;
  91:/usr/include/newlib/c++/9.2.1/bits/basic_string.h ****       typedef typename _Alloc_traits::const_reference	const_reference;
  92:/usr/include/newlib/c++/9.2.1/bits/basic_string.h ****       typedef typename _Alloc_traits::pointer		pointer;
  93:/usr/include/newlib/c++/9.2.1/bits/basic_string.h ****       typedef typename _Alloc_traits::const_pointer	const_pointer;
  94:/usr/include/newlib/c++/9.2.1/bits/basic_string.h ****       typedef __gnu_cxx::__normal_iterator<pointer, basic_string>  iterator;
  95:/usr/include/newlib/c++/9.2.1/bits/basic_string.h ****       typedef __gnu_cxx::__normal_iterator<const_pointer, basic_string>
  96:/usr/include/newlib/c++/9.2.1/bits/basic_string.h **** 							const_iterator;
  97:/usr/include/newlib/c++/9.2.1/bits/basic_string.h ****       typedef std::reverse_iterator<const_iterator>	const_reverse_iterator;
  98:/usr/include/newlib/c++/9.2.1/bits/basic_string.h ****       typedef std::reverse_iterator<iterator>		reverse_iterator;
  99:/usr/include/newlib/c++/9.2.1/bits/basic_string.h **** 
 100:/usr/include/newlib/c++/9.2.1/bits/basic_string.h ****       ///  Value returned by various member functions when they fail.
 101:/usr/include/newlib/c++/9.2.1/bits/basic_string.h ****       static const size_type	npos = static_cast<size_type>(-1);
 102:/usr/include/newlib/c++/9.2.1/bits/basic_string.h **** 
 103:/usr/include/newlib/c++/9.2.1/bits/basic_string.h ****     protected:
 104:/usr/include/newlib/c++/9.2.1/bits/basic_string.h ****       // type used for positions in insert, erase etc.
 105:/usr/include/newlib/c++/9.2.1/bits/basic_string.h **** #if __cplusplus < 201103L
 106:/usr/include/newlib/c++/9.2.1/bits/basic_string.h ****       typedef iterator __const_iterator;
 107:/usr/include/newlib/c++/9.2.1/bits/basic_string.h **** #else
 108:/usr/include/newlib/c++/9.2.1/bits/basic_string.h ****       typedef const_iterator __const_iterator;
 109:/usr/include/newlib/c++/9.2.1/bits/basic_string.h **** #endif
 110:/usr/include/newlib/c++/9.2.1/bits/basic_string.h **** 
 111:/usr/include/newlib/c++/9.2.1/bits/basic_string.h ****     private:
 112:/usr/include/newlib/c++/9.2.1/bits/basic_string.h **** #if __cplusplus >= 201703L
 113:/usr/include/newlib/c++/9.2.1/bits/basic_string.h ****       // A helper type for avoiding boiler-plate.
 114:/usr/include/newlib/c++/9.2.1/bits/basic_string.h ****       typedef basic_string_view<_CharT, _Traits> __sv_type;
 115:/usr/include/newlib/c++/9.2.1/bits/basic_string.h **** 
 116:/usr/include/newlib/c++/9.2.1/bits/basic_string.h ****       template<typename _Tp, typename _Res>
 117:/usr/include/newlib/c++/9.2.1/bits/basic_string.h **** 	using _If_sv = enable_if_t<
 118:/usr/include/newlib/c++/9.2.1/bits/basic_string.h **** 	  __and_<is_convertible<const _Tp&, __sv_type>,
 119:/usr/include/newlib/c++/9.2.1/bits/basic_string.h **** 		 __not_<is_convertible<const _Tp*, const basic_string*>>,
 120:/usr/include/newlib/c++/9.2.1/bits/basic_string.h **** 		 __not_<is_convertible<const _Tp&, const _CharT*>>>::value,
 121:/usr/include/newlib/c++/9.2.1/bits/basic_string.h **** 	  _Res>;
 122:/usr/include/newlib/c++/9.2.1/bits/basic_string.h **** 
 123:/usr/include/newlib/c++/9.2.1/bits/basic_string.h ****       // Allows an implicit conversion to __sv_type.
 124:/usr/include/newlib/c++/9.2.1/bits/basic_string.h ****       static __sv_type
 125:/usr/include/newlib/c++/9.2.1/bits/basic_string.h ****       _S_to_string_view(__sv_type __svt) noexcept
 126:/usr/include/newlib/c++/9.2.1/bits/basic_string.h ****       { return __svt; }
 127:/usr/include/newlib/c++/9.2.1/bits/basic_string.h **** 
 128:/usr/include/newlib/c++/9.2.1/bits/basic_string.h ****       // Wraps a string_view by explicit conversion and thus
 129:/usr/include/newlib/c++/9.2.1/bits/basic_string.h ****       // allows to add an internal constructor that does not
 130:/usr/include/newlib/c++/9.2.1/bits/basic_string.h ****       // participate in overload resolution when a string_view
 131:/usr/include/newlib/c++/9.2.1/bits/basic_string.h ****       // is provided.
 132:/usr/include/newlib/c++/9.2.1/bits/basic_string.h ****       struct __sv_wrapper
 133:/usr/include/newlib/c++/9.2.1/bits/basic_string.h ****       {
 134:/usr/include/newlib/c++/9.2.1/bits/basic_string.h **** 	explicit __sv_wrapper(__sv_type __sv) noexcept : _M_sv(__sv) { }
 135:/usr/include/newlib/c++/9.2.1/bits/basic_string.h **** 	__sv_type _M_sv;
 136:/usr/include/newlib/c++/9.2.1/bits/basic_string.h ****       };
 137:/usr/include/newlib/c++/9.2.1/bits/basic_string.h **** 
ARM GAS  /tmp/cc00lao6.s 			page 41


 138:/usr/include/newlib/c++/9.2.1/bits/basic_string.h ****       /**
 139:/usr/include/newlib/c++/9.2.1/bits/basic_string.h ****        *  @brief  Only internally used: Construct string from a string view
 140:/usr/include/newlib/c++/9.2.1/bits/basic_string.h ****        *          wrapper.
 141:/usr/include/newlib/c++/9.2.1/bits/basic_string.h ****        *  @param  __svw  string view wrapper.
 142:/usr/include/newlib/c++/9.2.1/bits/basic_string.h ****        *  @param  __a  Allocator to use.
 143:/usr/include/newlib/c++/9.2.1/bits/basic_string.h ****        */
 144:/usr/include/newlib/c++/9.2.1/bits/basic_string.h ****       explicit
 145:/usr/include/newlib/c++/9.2.1/bits/basic_string.h ****       basic_string(__sv_wrapper __svw, const _Alloc& __a)
 146:/usr/include/newlib/c++/9.2.1/bits/basic_string.h ****       : basic_string(__svw._M_sv.data(), __svw._M_sv.size(), __a) { }
 147:/usr/include/newlib/c++/9.2.1/bits/basic_string.h **** #endif
 148:/usr/include/newlib/c++/9.2.1/bits/basic_string.h **** 
 149:/usr/include/newlib/c++/9.2.1/bits/basic_string.h ****       // Use empty-base optimization: http://www.cantrip.org/emptyopt.html
 150:/usr/include/newlib/c++/9.2.1/bits/basic_string.h ****       struct _Alloc_hider : allocator_type // TODO check __is_final
 151:/usr/include/newlib/c++/9.2.1/bits/basic_string.h ****       {
 152:/usr/include/newlib/c++/9.2.1/bits/basic_string.h **** #if __cplusplus < 201103L
 153:/usr/include/newlib/c++/9.2.1/bits/basic_string.h **** 	_Alloc_hider(pointer __dat, const _Alloc& __a = _Alloc())
 154:/usr/include/newlib/c++/9.2.1/bits/basic_string.h **** 	: allocator_type(__a), _M_p(__dat) { }
 155:/usr/include/newlib/c++/9.2.1/bits/basic_string.h **** #else
 156:/usr/include/newlib/c++/9.2.1/bits/basic_string.h **** 	_Alloc_hider(pointer __dat, const _Alloc& __a)
 157:/usr/include/newlib/c++/9.2.1/bits/basic_string.h **** 	: allocator_type(__a), _M_p(__dat) { }
 158:/usr/include/newlib/c++/9.2.1/bits/basic_string.h **** 
 159:/usr/include/newlib/c++/9.2.1/bits/basic_string.h **** 	_Alloc_hider(pointer __dat, _Alloc&& __a = _Alloc())
 160:/usr/include/newlib/c++/9.2.1/bits/basic_string.h **** 	: allocator_type(std::move(__a)), _M_p(__dat) { }
 161:/usr/include/newlib/c++/9.2.1/bits/basic_string.h **** #endif
 162:/usr/include/newlib/c++/9.2.1/bits/basic_string.h **** 
 163:/usr/include/newlib/c++/9.2.1/bits/basic_string.h **** 	pointer _M_p; // The actual data.
 164:/usr/include/newlib/c++/9.2.1/bits/basic_string.h ****       };
 165:/usr/include/newlib/c++/9.2.1/bits/basic_string.h **** 
 166:/usr/include/newlib/c++/9.2.1/bits/basic_string.h ****       _Alloc_hider	_M_dataplus;
 167:/usr/include/newlib/c++/9.2.1/bits/basic_string.h ****       size_type		_M_string_length;
 168:/usr/include/newlib/c++/9.2.1/bits/basic_string.h **** 
 169:/usr/include/newlib/c++/9.2.1/bits/basic_string.h ****       enum { _S_local_capacity = 15 / sizeof(_CharT) };
 170:/usr/include/newlib/c++/9.2.1/bits/basic_string.h **** 
 171:/usr/include/newlib/c++/9.2.1/bits/basic_string.h ****       union
 172:/usr/include/newlib/c++/9.2.1/bits/basic_string.h ****       {
 173:/usr/include/newlib/c++/9.2.1/bits/basic_string.h **** 	_CharT           _M_local_buf[_S_local_capacity + 1];
 174:/usr/include/newlib/c++/9.2.1/bits/basic_string.h **** 	size_type        _M_allocated_capacity;
 175:/usr/include/newlib/c++/9.2.1/bits/basic_string.h ****       };
 176:/usr/include/newlib/c++/9.2.1/bits/basic_string.h **** 
 177:/usr/include/newlib/c++/9.2.1/bits/basic_string.h ****       void
 178:/usr/include/newlib/c++/9.2.1/bits/basic_string.h ****       _M_data(pointer __p)
 179:/usr/include/newlib/c++/9.2.1/bits/basic_string.h ****       { _M_dataplus._M_p = __p; }
 180:/usr/include/newlib/c++/9.2.1/bits/basic_string.h **** 
 181:/usr/include/newlib/c++/9.2.1/bits/basic_string.h ****       void
 182:/usr/include/newlib/c++/9.2.1/bits/basic_string.h ****       _M_length(size_type __length)
 183:/usr/include/newlib/c++/9.2.1/bits/basic_string.h ****       { _M_string_length = __length; }
 184:/usr/include/newlib/c++/9.2.1/bits/basic_string.h **** 
 185:/usr/include/newlib/c++/9.2.1/bits/basic_string.h ****       pointer
 186:/usr/include/newlib/c++/9.2.1/bits/basic_string.h ****       _M_data() const
 187:/usr/include/newlib/c++/9.2.1/bits/basic_string.h ****       { return _M_dataplus._M_p; }
 188:/usr/include/newlib/c++/9.2.1/bits/basic_string.h **** 
 189:/usr/include/newlib/c++/9.2.1/bits/basic_string.h ****       pointer
 190:/usr/include/newlib/c++/9.2.1/bits/basic_string.h ****       _M_local_data()
 191:/usr/include/newlib/c++/9.2.1/bits/basic_string.h ****       {
 192:/usr/include/newlib/c++/9.2.1/bits/basic_string.h **** #if __cplusplus >= 201103L
 193:/usr/include/newlib/c++/9.2.1/bits/basic_string.h **** 	return std::pointer_traits<pointer>::pointer_to(*_M_local_buf);
 194:/usr/include/newlib/c++/9.2.1/bits/basic_string.h **** #else
ARM GAS  /tmp/cc00lao6.s 			page 42


 195:/usr/include/newlib/c++/9.2.1/bits/basic_string.h **** 	return pointer(_M_local_buf);
 196:/usr/include/newlib/c++/9.2.1/bits/basic_string.h **** #endif
 197:/usr/include/newlib/c++/9.2.1/bits/basic_string.h ****       }
 198:/usr/include/newlib/c++/9.2.1/bits/basic_string.h **** 
 199:/usr/include/newlib/c++/9.2.1/bits/basic_string.h ****       const_pointer
 200:/usr/include/newlib/c++/9.2.1/bits/basic_string.h ****       _M_local_data() const
 201:/usr/include/newlib/c++/9.2.1/bits/basic_string.h ****       {
 202:/usr/include/newlib/c++/9.2.1/bits/basic_string.h **** #if __cplusplus >= 201103L
 203:/usr/include/newlib/c++/9.2.1/bits/basic_string.h **** 	return std::pointer_traits<const_pointer>::pointer_to(*_M_local_buf);
 204:/usr/include/newlib/c++/9.2.1/bits/basic_string.h **** #else
 205:/usr/include/newlib/c++/9.2.1/bits/basic_string.h **** 	return const_pointer(_M_local_buf);
 206:/usr/include/newlib/c++/9.2.1/bits/basic_string.h **** #endif
 207:/usr/include/newlib/c++/9.2.1/bits/basic_string.h ****       }
 208:/usr/include/newlib/c++/9.2.1/bits/basic_string.h **** 
 209:/usr/include/newlib/c++/9.2.1/bits/basic_string.h ****       void
 210:/usr/include/newlib/c++/9.2.1/bits/basic_string.h ****       _M_capacity(size_type __capacity)
 211:/usr/include/newlib/c++/9.2.1/bits/basic_string.h ****       { _M_allocated_capacity = __capacity; }
 212:/usr/include/newlib/c++/9.2.1/bits/basic_string.h **** 
 213:/usr/include/newlib/c++/9.2.1/bits/basic_string.h ****       void
 214:/usr/include/newlib/c++/9.2.1/bits/basic_string.h ****       _M_set_length(size_type __n)
 215:/usr/include/newlib/c++/9.2.1/bits/basic_string.h ****       {
 216:/usr/include/newlib/c++/9.2.1/bits/basic_string.h **** 	_M_length(__n);
 217:/usr/include/newlib/c++/9.2.1/bits/basic_string.h **** 	traits_type::assign(_M_data()[__n], _CharT());
 218:/usr/include/newlib/c++/9.2.1/bits/basic_string.h ****       }
 219:/usr/include/newlib/c++/9.2.1/bits/basic_string.h **** 
 220:/usr/include/newlib/c++/9.2.1/bits/basic_string.h ****       bool
 221:/usr/include/newlib/c++/9.2.1/bits/basic_string.h ****       _M_is_local() const
 222:/usr/include/newlib/c++/9.2.1/bits/basic_string.h ****       { return _M_data() == _M_local_data(); }
 223:/usr/include/newlib/c++/9.2.1/bits/basic_string.h **** 
 224:/usr/include/newlib/c++/9.2.1/bits/basic_string.h ****       // Create & Destroy
 225:/usr/include/newlib/c++/9.2.1/bits/basic_string.h ****       pointer
 226:/usr/include/newlib/c++/9.2.1/bits/basic_string.h ****       _M_create(size_type&, size_type);
 227:/usr/include/newlib/c++/9.2.1/bits/basic_string.h **** 
 228:/usr/include/newlib/c++/9.2.1/bits/basic_string.h ****       void
 229:/usr/include/newlib/c++/9.2.1/bits/basic_string.h ****       _M_dispose()
 230:/usr/include/newlib/c++/9.2.1/bits/basic_string.h ****       {
 231:/usr/include/newlib/c++/9.2.1/bits/basic_string.h **** 	if (!_M_is_local())
 232:/usr/include/newlib/c++/9.2.1/bits/basic_string.h **** 	  _M_destroy(_M_allocated_capacity);
 233:/usr/include/newlib/c++/9.2.1/bits/basic_string.h ****       }
 234:/usr/include/newlib/c++/9.2.1/bits/basic_string.h **** 
 235:/usr/include/newlib/c++/9.2.1/bits/basic_string.h ****       void
 236:/usr/include/newlib/c++/9.2.1/bits/basic_string.h ****       _M_destroy(size_type __size) throw()
 237:/usr/include/newlib/c++/9.2.1/bits/basic_string.h ****       { _Alloc_traits::deallocate(_M_get_allocator(), _M_data(), __size + 1); }
 238:/usr/include/newlib/c++/9.2.1/bits/basic_string.h **** 
 239:/usr/include/newlib/c++/9.2.1/bits/basic_string.h ****       // _M_construct_aux is used to implement the 21.3.1 para 15 which
 240:/usr/include/newlib/c++/9.2.1/bits/basic_string.h ****       // requires special behaviour if _InIterator is an integral type
 241:/usr/include/newlib/c++/9.2.1/bits/basic_string.h ****       template<typename _InIterator>
 242:/usr/include/newlib/c++/9.2.1/bits/basic_string.h ****         void
 243:/usr/include/newlib/c++/9.2.1/bits/basic_string.h ****         _M_construct_aux(_InIterator __beg, _InIterator __end,
 244:/usr/include/newlib/c++/9.2.1/bits/basic_string.h **** 			 std::__false_type)
 245:/usr/include/newlib/c++/9.2.1/bits/basic_string.h **** 	{
 246:/usr/include/newlib/c++/9.2.1/bits/basic_string.h ****           typedef typename iterator_traits<_InIterator>::iterator_category _Tag;
 247:/usr/include/newlib/c++/9.2.1/bits/basic_string.h ****           _M_construct(__beg, __end, _Tag());
 248:/usr/include/newlib/c++/9.2.1/bits/basic_string.h **** 	}
 249:/usr/include/newlib/c++/9.2.1/bits/basic_string.h **** 
 250:/usr/include/newlib/c++/9.2.1/bits/basic_string.h ****       // _GLIBCXX_RESOLVE_LIB_DEFECTS
 251:/usr/include/newlib/c++/9.2.1/bits/basic_string.h ****       // 438. Ambiguity in the "do the right thing" clause
ARM GAS  /tmp/cc00lao6.s 			page 43


 252:/usr/include/newlib/c++/9.2.1/bits/basic_string.h ****       template<typename _Integer>
 253:/usr/include/newlib/c++/9.2.1/bits/basic_string.h ****         void
 254:/usr/include/newlib/c++/9.2.1/bits/basic_string.h ****         _M_construct_aux(_Integer __beg, _Integer __end, std::__true_type)
 255:/usr/include/newlib/c++/9.2.1/bits/basic_string.h **** 	{ _M_construct_aux_2(static_cast<size_type>(__beg), __end); }
 256:/usr/include/newlib/c++/9.2.1/bits/basic_string.h **** 
 257:/usr/include/newlib/c++/9.2.1/bits/basic_string.h ****       void
 258:/usr/include/newlib/c++/9.2.1/bits/basic_string.h ****       _M_construct_aux_2(size_type __req, _CharT __c)
 259:/usr/include/newlib/c++/9.2.1/bits/basic_string.h ****       { _M_construct(__req, __c); }
 260:/usr/include/newlib/c++/9.2.1/bits/basic_string.h **** 
 261:/usr/include/newlib/c++/9.2.1/bits/basic_string.h ****       template<typename _InIterator>
 262:/usr/include/newlib/c++/9.2.1/bits/basic_string.h ****         void
 263:/usr/include/newlib/c++/9.2.1/bits/basic_string.h ****         _M_construct(_InIterator __beg, _InIterator __end)
 264:/usr/include/newlib/c++/9.2.1/bits/basic_string.h **** 	{
 265:/usr/include/newlib/c++/9.2.1/bits/basic_string.h **** 	  typedef typename std::__is_integer<_InIterator>::__type _Integral;
 266:/usr/include/newlib/c++/9.2.1/bits/basic_string.h **** 	  _M_construct_aux(__beg, __end, _Integral());
 267:/usr/include/newlib/c++/9.2.1/bits/basic_string.h ****         }
 268:/usr/include/newlib/c++/9.2.1/bits/basic_string.h **** 
 269:/usr/include/newlib/c++/9.2.1/bits/basic_string.h ****       // For Input Iterators, used in istreambuf_iterators, etc.
 270:/usr/include/newlib/c++/9.2.1/bits/basic_string.h ****       template<typename _InIterator>
 271:/usr/include/newlib/c++/9.2.1/bits/basic_string.h ****         void
 272:/usr/include/newlib/c++/9.2.1/bits/basic_string.h ****         _M_construct(_InIterator __beg, _InIterator __end,
 273:/usr/include/newlib/c++/9.2.1/bits/basic_string.h **** 		     std::input_iterator_tag);
 274:/usr/include/newlib/c++/9.2.1/bits/basic_string.h **** 
 275:/usr/include/newlib/c++/9.2.1/bits/basic_string.h ****       // For forward_iterators up to random_access_iterators, used for
 276:/usr/include/newlib/c++/9.2.1/bits/basic_string.h ****       // string::iterator, _CharT*, etc.
 277:/usr/include/newlib/c++/9.2.1/bits/basic_string.h ****       template<typename _FwdIterator>
 278:/usr/include/newlib/c++/9.2.1/bits/basic_string.h ****         void
 279:/usr/include/newlib/c++/9.2.1/bits/basic_string.h ****         _M_construct(_FwdIterator __beg, _FwdIterator __end,
 280:/usr/include/newlib/c++/9.2.1/bits/basic_string.h **** 		     std::forward_iterator_tag);
 281:/usr/include/newlib/c++/9.2.1/bits/basic_string.h **** 
 282:/usr/include/newlib/c++/9.2.1/bits/basic_string.h ****       void
 283:/usr/include/newlib/c++/9.2.1/bits/basic_string.h ****       _M_construct(size_type __req, _CharT __c);
 284:/usr/include/newlib/c++/9.2.1/bits/basic_string.h **** 
 285:/usr/include/newlib/c++/9.2.1/bits/basic_string.h ****       allocator_type&
 286:/usr/include/newlib/c++/9.2.1/bits/basic_string.h ****       _M_get_allocator()
 287:/usr/include/newlib/c++/9.2.1/bits/basic_string.h ****       { return _M_dataplus; }
 288:/usr/include/newlib/c++/9.2.1/bits/basic_string.h **** 
 289:/usr/include/newlib/c++/9.2.1/bits/basic_string.h ****       const allocator_type&
 290:/usr/include/newlib/c++/9.2.1/bits/basic_string.h ****       _M_get_allocator() const
 291:/usr/include/newlib/c++/9.2.1/bits/basic_string.h ****       { return _M_dataplus; }
 292:/usr/include/newlib/c++/9.2.1/bits/basic_string.h **** 
 293:/usr/include/newlib/c++/9.2.1/bits/basic_string.h ****     private:
 294:/usr/include/newlib/c++/9.2.1/bits/basic_string.h **** 
 295:/usr/include/newlib/c++/9.2.1/bits/basic_string.h **** #ifdef _GLIBCXX_DISAMBIGUATE_REPLACE_INST
 296:/usr/include/newlib/c++/9.2.1/bits/basic_string.h ****       // The explicit instantiations in misc-inst.cc require this due to
 297:/usr/include/newlib/c++/9.2.1/bits/basic_string.h ****       // https://gcc.gnu.org/bugzilla/show_bug.cgi?id=64063
 298:/usr/include/newlib/c++/9.2.1/bits/basic_string.h ****       template<typename _Tp, bool _Requires =
 299:/usr/include/newlib/c++/9.2.1/bits/basic_string.h **** 	       !__are_same<_Tp, _CharT*>::__value
 300:/usr/include/newlib/c++/9.2.1/bits/basic_string.h **** 	       && !__are_same<_Tp, const _CharT*>::__value
 301:/usr/include/newlib/c++/9.2.1/bits/basic_string.h **** 	       && !__are_same<_Tp, iterator>::__value
 302:/usr/include/newlib/c++/9.2.1/bits/basic_string.h **** 	       && !__are_same<_Tp, const_iterator>::__value>
 303:/usr/include/newlib/c++/9.2.1/bits/basic_string.h **** 	struct __enable_if_not_native_iterator
 304:/usr/include/newlib/c++/9.2.1/bits/basic_string.h **** 	{ typedef basic_string& __type; };
 305:/usr/include/newlib/c++/9.2.1/bits/basic_string.h ****       template<typename _Tp>
 306:/usr/include/newlib/c++/9.2.1/bits/basic_string.h **** 	struct __enable_if_not_native_iterator<_Tp, false> { };
 307:/usr/include/newlib/c++/9.2.1/bits/basic_string.h **** #endif
 308:/usr/include/newlib/c++/9.2.1/bits/basic_string.h **** 
ARM GAS  /tmp/cc00lao6.s 			page 44


 309:/usr/include/newlib/c++/9.2.1/bits/basic_string.h ****       size_type
 310:/usr/include/newlib/c++/9.2.1/bits/basic_string.h ****       _M_check(size_type __pos, const char* __s) const
 311:/usr/include/newlib/c++/9.2.1/bits/basic_string.h ****       {
 312:/usr/include/newlib/c++/9.2.1/bits/basic_string.h **** 	if (__pos > this->size())
 313:/usr/include/newlib/c++/9.2.1/bits/basic_string.h **** 	  __throw_out_of_range_fmt(__N("%s: __pos (which is %zu) > "
 314:/usr/include/newlib/c++/9.2.1/bits/basic_string.h **** 				       "this->size() (which is %zu)"),
 315:/usr/include/newlib/c++/9.2.1/bits/basic_string.h **** 				   __s, __pos, this->size());
 316:/usr/include/newlib/c++/9.2.1/bits/basic_string.h **** 	return __pos;
 317:/usr/include/newlib/c++/9.2.1/bits/basic_string.h ****       }
 318:/usr/include/newlib/c++/9.2.1/bits/basic_string.h **** 
 319:/usr/include/newlib/c++/9.2.1/bits/basic_string.h ****       void
 320:/usr/include/newlib/c++/9.2.1/bits/basic_string.h ****       _M_check_length(size_type __n1, size_type __n2, const char* __s) const
 321:/usr/include/newlib/c++/9.2.1/bits/basic_string.h ****       {
 322:/usr/include/newlib/c++/9.2.1/bits/basic_string.h **** 	if (this->max_size() - (this->size() - __n1) < __n2)
 323:/usr/include/newlib/c++/9.2.1/bits/basic_string.h **** 	  __throw_length_error(__N(__s));
 324:/usr/include/newlib/c++/9.2.1/bits/basic_string.h ****       }
 325:/usr/include/newlib/c++/9.2.1/bits/basic_string.h **** 
 326:/usr/include/newlib/c++/9.2.1/bits/basic_string.h **** 
 327:/usr/include/newlib/c++/9.2.1/bits/basic_string.h ****       // NB: _M_limit doesn't check for a bad __pos value.
 328:/usr/include/newlib/c++/9.2.1/bits/basic_string.h ****       size_type
 329:/usr/include/newlib/c++/9.2.1/bits/basic_string.h ****       _M_limit(size_type __pos, size_type __off) const _GLIBCXX_NOEXCEPT
 330:/usr/include/newlib/c++/9.2.1/bits/basic_string.h ****       {
 331:/usr/include/newlib/c++/9.2.1/bits/basic_string.h **** 	const bool __testoff =  __off < this->size() - __pos;
 332:/usr/include/newlib/c++/9.2.1/bits/basic_string.h **** 	return __testoff ? __off : this->size() - __pos;
 333:/usr/include/newlib/c++/9.2.1/bits/basic_string.h ****       }
 334:/usr/include/newlib/c++/9.2.1/bits/basic_string.h **** 
 335:/usr/include/newlib/c++/9.2.1/bits/basic_string.h ****       // True if _Rep and source do not overlap.
 336:/usr/include/newlib/c++/9.2.1/bits/basic_string.h ****       bool
 337:/usr/include/newlib/c++/9.2.1/bits/basic_string.h ****       _M_disjunct(const _CharT* __s) const _GLIBCXX_NOEXCEPT
 338:/usr/include/newlib/c++/9.2.1/bits/basic_string.h ****       {
 339:/usr/include/newlib/c++/9.2.1/bits/basic_string.h **** 	return (less<const _CharT*>()(__s, _M_data())
 340:/usr/include/newlib/c++/9.2.1/bits/basic_string.h **** 		|| less<const _CharT*>()(_M_data() + this->size(), __s));
 341:/usr/include/newlib/c++/9.2.1/bits/basic_string.h ****       }
 342:/usr/include/newlib/c++/9.2.1/bits/basic_string.h **** 
 343:/usr/include/newlib/c++/9.2.1/bits/basic_string.h ****       // When __n = 1 way faster than the general multichar
 344:/usr/include/newlib/c++/9.2.1/bits/basic_string.h ****       // traits_type::copy/move/assign.
 345:/usr/include/newlib/c++/9.2.1/bits/basic_string.h ****       static void
 346:/usr/include/newlib/c++/9.2.1/bits/basic_string.h ****       _S_copy(_CharT* __d, const _CharT* __s, size_type __n)
 347:/usr/include/newlib/c++/9.2.1/bits/basic_string.h ****       {
 348:/usr/include/newlib/c++/9.2.1/bits/basic_string.h **** 	if (__n == 1)
 349:/usr/include/newlib/c++/9.2.1/bits/basic_string.h **** 	  traits_type::assign(*__d, *__s);
 350:/usr/include/newlib/c++/9.2.1/bits/basic_string.h **** 	else
 351:/usr/include/newlib/c++/9.2.1/bits/basic_string.h **** 	  traits_type::copy(__d, __s, __n);
 352:/usr/include/newlib/c++/9.2.1/bits/basic_string.h ****       }
 353:/usr/include/newlib/c++/9.2.1/bits/basic_string.h **** 
 354:/usr/include/newlib/c++/9.2.1/bits/basic_string.h ****       static void
 355:/usr/include/newlib/c++/9.2.1/bits/basic_string.h ****       _S_move(_CharT* __d, const _CharT* __s, size_type __n)
 356:/usr/include/newlib/c++/9.2.1/bits/basic_string.h ****       {
 357:/usr/include/newlib/c++/9.2.1/bits/basic_string.h **** 	if (__n == 1)
 358:/usr/include/newlib/c++/9.2.1/bits/basic_string.h **** 	  traits_type::assign(*__d, *__s);
 359:/usr/include/newlib/c++/9.2.1/bits/basic_string.h **** 	else
 360:/usr/include/newlib/c++/9.2.1/bits/basic_string.h **** 	  traits_type::move(__d, __s, __n);
 361:/usr/include/newlib/c++/9.2.1/bits/basic_string.h ****       }
 362:/usr/include/newlib/c++/9.2.1/bits/basic_string.h **** 
 363:/usr/include/newlib/c++/9.2.1/bits/basic_string.h ****       static void
 364:/usr/include/newlib/c++/9.2.1/bits/basic_string.h ****       _S_assign(_CharT* __d, size_type __n, _CharT __c)
 365:/usr/include/newlib/c++/9.2.1/bits/basic_string.h ****       {
ARM GAS  /tmp/cc00lao6.s 			page 45


 366:/usr/include/newlib/c++/9.2.1/bits/basic_string.h **** 	if (__n == 1)
 367:/usr/include/newlib/c++/9.2.1/bits/basic_string.h **** 	  traits_type::assign(*__d, __c);
 368:/usr/include/newlib/c++/9.2.1/bits/basic_string.h **** 	else
 369:/usr/include/newlib/c++/9.2.1/bits/basic_string.h **** 	  traits_type::assign(__d, __n, __c);
 370:/usr/include/newlib/c++/9.2.1/bits/basic_string.h ****       }
 371:/usr/include/newlib/c++/9.2.1/bits/basic_string.h **** 
 372:/usr/include/newlib/c++/9.2.1/bits/basic_string.h ****       // _S_copy_chars is a separate template to permit specialization
 373:/usr/include/newlib/c++/9.2.1/bits/basic_string.h ****       // to optimize for the common case of pointers as iterators.
 374:/usr/include/newlib/c++/9.2.1/bits/basic_string.h ****       template<class _Iterator>
 375:/usr/include/newlib/c++/9.2.1/bits/basic_string.h ****         static void
 376:/usr/include/newlib/c++/9.2.1/bits/basic_string.h ****         _S_copy_chars(_CharT* __p, _Iterator __k1, _Iterator __k2)
 377:/usr/include/newlib/c++/9.2.1/bits/basic_string.h ****         {
 378:/usr/include/newlib/c++/9.2.1/bits/basic_string.h **** 	  for (; __k1 != __k2; ++__k1, (void)++__p)
 379:/usr/include/newlib/c++/9.2.1/bits/basic_string.h **** 	    traits_type::assign(*__p, *__k1); // These types are off.
 380:/usr/include/newlib/c++/9.2.1/bits/basic_string.h **** 	}
 381:/usr/include/newlib/c++/9.2.1/bits/basic_string.h **** 
 382:/usr/include/newlib/c++/9.2.1/bits/basic_string.h ****       static void
 383:/usr/include/newlib/c++/9.2.1/bits/basic_string.h ****       _S_copy_chars(_CharT* __p, iterator __k1, iterator __k2) _GLIBCXX_NOEXCEPT
 384:/usr/include/newlib/c++/9.2.1/bits/basic_string.h ****       { _S_copy_chars(__p, __k1.base(), __k2.base()); }
 385:/usr/include/newlib/c++/9.2.1/bits/basic_string.h **** 
 386:/usr/include/newlib/c++/9.2.1/bits/basic_string.h ****       static void
 387:/usr/include/newlib/c++/9.2.1/bits/basic_string.h ****       _S_copy_chars(_CharT* __p, const_iterator __k1, const_iterator __k2)
 388:/usr/include/newlib/c++/9.2.1/bits/basic_string.h ****       _GLIBCXX_NOEXCEPT
 389:/usr/include/newlib/c++/9.2.1/bits/basic_string.h ****       { _S_copy_chars(__p, __k1.base(), __k2.base()); }
 390:/usr/include/newlib/c++/9.2.1/bits/basic_string.h **** 
 391:/usr/include/newlib/c++/9.2.1/bits/basic_string.h ****       static void
 392:/usr/include/newlib/c++/9.2.1/bits/basic_string.h ****       _S_copy_chars(_CharT* __p, _CharT* __k1, _CharT* __k2) _GLIBCXX_NOEXCEPT
 393:/usr/include/newlib/c++/9.2.1/bits/basic_string.h ****       { _S_copy(__p, __k1, __k2 - __k1); }
 394:/usr/include/newlib/c++/9.2.1/bits/basic_string.h **** 
 395:/usr/include/newlib/c++/9.2.1/bits/basic_string.h ****       static void
 396:/usr/include/newlib/c++/9.2.1/bits/basic_string.h ****       _S_copy_chars(_CharT* __p, const _CharT* __k1, const _CharT* __k2)
 397:/usr/include/newlib/c++/9.2.1/bits/basic_string.h ****       _GLIBCXX_NOEXCEPT
 398:/usr/include/newlib/c++/9.2.1/bits/basic_string.h ****       { _S_copy(__p, __k1, __k2 - __k1); }
 399:/usr/include/newlib/c++/9.2.1/bits/basic_string.h **** 
 400:/usr/include/newlib/c++/9.2.1/bits/basic_string.h ****       static int
 401:/usr/include/newlib/c++/9.2.1/bits/basic_string.h ****       _S_compare(size_type __n1, size_type __n2) _GLIBCXX_NOEXCEPT
 402:/usr/include/newlib/c++/9.2.1/bits/basic_string.h ****       {
 403:/usr/include/newlib/c++/9.2.1/bits/basic_string.h **** 	const difference_type __d = difference_type(__n1 - __n2);
 404:/usr/include/newlib/c++/9.2.1/bits/basic_string.h **** 
 405:/usr/include/newlib/c++/9.2.1/bits/basic_string.h **** 	if (__d > __gnu_cxx::__numeric_traits<int>::__max)
 406:/usr/include/newlib/c++/9.2.1/bits/basic_string.h **** 	  return __gnu_cxx::__numeric_traits<int>::__max;
 407:/usr/include/newlib/c++/9.2.1/bits/basic_string.h **** 	else if (__d < __gnu_cxx::__numeric_traits<int>::__min)
 408:/usr/include/newlib/c++/9.2.1/bits/basic_string.h **** 	  return __gnu_cxx::__numeric_traits<int>::__min;
 409:/usr/include/newlib/c++/9.2.1/bits/basic_string.h **** 	else
 410:/usr/include/newlib/c++/9.2.1/bits/basic_string.h **** 	  return int(__d);
 411:/usr/include/newlib/c++/9.2.1/bits/basic_string.h ****       }
 412:/usr/include/newlib/c++/9.2.1/bits/basic_string.h **** 
 413:/usr/include/newlib/c++/9.2.1/bits/basic_string.h ****       void
 414:/usr/include/newlib/c++/9.2.1/bits/basic_string.h ****       _M_assign(const basic_string&);
 415:/usr/include/newlib/c++/9.2.1/bits/basic_string.h **** 
 416:/usr/include/newlib/c++/9.2.1/bits/basic_string.h ****       void
 417:/usr/include/newlib/c++/9.2.1/bits/basic_string.h ****       _M_mutate(size_type __pos, size_type __len1, const _CharT* __s,
 418:/usr/include/newlib/c++/9.2.1/bits/basic_string.h **** 		size_type __len2);
 419:/usr/include/newlib/c++/9.2.1/bits/basic_string.h **** 
 420:/usr/include/newlib/c++/9.2.1/bits/basic_string.h ****       void
 421:/usr/include/newlib/c++/9.2.1/bits/basic_string.h ****       _M_erase(size_type __pos, size_type __n);
 422:/usr/include/newlib/c++/9.2.1/bits/basic_string.h **** 
ARM GAS  /tmp/cc00lao6.s 			page 46


 423:/usr/include/newlib/c++/9.2.1/bits/basic_string.h ****     public:
 424:/usr/include/newlib/c++/9.2.1/bits/basic_string.h ****       // Construct/copy/destroy:
 425:/usr/include/newlib/c++/9.2.1/bits/basic_string.h ****       // NB: We overload ctors in some cases instead of using default
 426:/usr/include/newlib/c++/9.2.1/bits/basic_string.h ****       // arguments, per 17.4.4.4 para. 2 item 2.
 427:/usr/include/newlib/c++/9.2.1/bits/basic_string.h **** 
 428:/usr/include/newlib/c++/9.2.1/bits/basic_string.h ****       /**
 429:/usr/include/newlib/c++/9.2.1/bits/basic_string.h ****        *  @brief  Default constructor creates an empty string.
 430:/usr/include/newlib/c++/9.2.1/bits/basic_string.h ****        */
 431:/usr/include/newlib/c++/9.2.1/bits/basic_string.h ****       basic_string()
 432:/usr/include/newlib/c++/9.2.1/bits/basic_string.h ****       _GLIBCXX_NOEXCEPT_IF(is_nothrow_default_constructible<_Alloc>::value)
 433:/usr/include/newlib/c++/9.2.1/bits/basic_string.h ****       : _M_dataplus(_M_local_data())
 434:/usr/include/newlib/c++/9.2.1/bits/basic_string.h ****       { _M_set_length(0); }
 435:/usr/include/newlib/c++/9.2.1/bits/basic_string.h **** 
 436:/usr/include/newlib/c++/9.2.1/bits/basic_string.h ****       /**
 437:/usr/include/newlib/c++/9.2.1/bits/basic_string.h ****        *  @brief  Construct an empty string using allocator @a a.
 438:/usr/include/newlib/c++/9.2.1/bits/basic_string.h ****        */
 439:/usr/include/newlib/c++/9.2.1/bits/basic_string.h ****       explicit
 440:/usr/include/newlib/c++/9.2.1/bits/basic_string.h ****       basic_string(const _Alloc& __a) _GLIBCXX_NOEXCEPT
 441:/usr/include/newlib/c++/9.2.1/bits/basic_string.h ****       : _M_dataplus(_M_local_data(), __a)
 442:/usr/include/newlib/c++/9.2.1/bits/basic_string.h ****       { _M_set_length(0); }
 443:/usr/include/newlib/c++/9.2.1/bits/basic_string.h **** 
 444:/usr/include/newlib/c++/9.2.1/bits/basic_string.h ****       /**
 445:/usr/include/newlib/c++/9.2.1/bits/basic_string.h ****        *  @brief  Construct string with copy of value of @a __str.
 446:/usr/include/newlib/c++/9.2.1/bits/basic_string.h ****        *  @param  __str  Source string.
 447:/usr/include/newlib/c++/9.2.1/bits/basic_string.h ****        */
 448:/usr/include/newlib/c++/9.2.1/bits/basic_string.h ****       basic_string(const basic_string& __str)
 449:/usr/include/newlib/c++/9.2.1/bits/basic_string.h ****       : _M_dataplus(_M_local_data(),
 450:/usr/include/newlib/c++/9.2.1/bits/basic_string.h **** 		    _Alloc_traits::_S_select_on_copy(__str._M_get_allocator()))
 451:/usr/include/newlib/c++/9.2.1/bits/basic_string.h ****       { _M_construct(__str._M_data(), __str._M_data() + __str.length()); }
 452:/usr/include/newlib/c++/9.2.1/bits/basic_string.h **** 
 453:/usr/include/newlib/c++/9.2.1/bits/basic_string.h ****       // _GLIBCXX_RESOLVE_LIB_DEFECTS
 454:/usr/include/newlib/c++/9.2.1/bits/basic_string.h ****       // 2583. no way to supply an allocator for basic_string(str, pos)
 455:/usr/include/newlib/c++/9.2.1/bits/basic_string.h ****       /**
 456:/usr/include/newlib/c++/9.2.1/bits/basic_string.h ****        *  @brief  Construct string as copy of a substring.
 457:/usr/include/newlib/c++/9.2.1/bits/basic_string.h ****        *  @param  __str  Source string.
 458:/usr/include/newlib/c++/9.2.1/bits/basic_string.h ****        *  @param  __pos  Index of first character to copy from.
 459:/usr/include/newlib/c++/9.2.1/bits/basic_string.h ****        *  @param  __a  Allocator to use.
 460:/usr/include/newlib/c++/9.2.1/bits/basic_string.h ****        */
 461:/usr/include/newlib/c++/9.2.1/bits/basic_string.h ****       basic_string(const basic_string& __str, size_type __pos,
 462:/usr/include/newlib/c++/9.2.1/bits/basic_string.h **** 		   const _Alloc& __a = _Alloc())
 463:/usr/include/newlib/c++/9.2.1/bits/basic_string.h ****       : _M_dataplus(_M_local_data(), __a)
 464:/usr/include/newlib/c++/9.2.1/bits/basic_string.h ****       {
 465:/usr/include/newlib/c++/9.2.1/bits/basic_string.h **** 	const _CharT* __start = __str._M_data()
 466:/usr/include/newlib/c++/9.2.1/bits/basic_string.h **** 	  + __str._M_check(__pos, "basic_string::basic_string");
 467:/usr/include/newlib/c++/9.2.1/bits/basic_string.h **** 	_M_construct(__start, __start + __str._M_limit(__pos, npos));
 468:/usr/include/newlib/c++/9.2.1/bits/basic_string.h ****       }
 469:/usr/include/newlib/c++/9.2.1/bits/basic_string.h **** 
 470:/usr/include/newlib/c++/9.2.1/bits/basic_string.h ****       /**
 471:/usr/include/newlib/c++/9.2.1/bits/basic_string.h ****        *  @brief  Construct string as copy of a substring.
 472:/usr/include/newlib/c++/9.2.1/bits/basic_string.h ****        *  @param  __str  Source string.
 473:/usr/include/newlib/c++/9.2.1/bits/basic_string.h ****        *  @param  __pos  Index of first character to copy from.
 474:/usr/include/newlib/c++/9.2.1/bits/basic_string.h ****        *  @param  __n  Number of characters to copy.
 475:/usr/include/newlib/c++/9.2.1/bits/basic_string.h ****        */
 476:/usr/include/newlib/c++/9.2.1/bits/basic_string.h ****       basic_string(const basic_string& __str, size_type __pos,
 477:/usr/include/newlib/c++/9.2.1/bits/basic_string.h **** 		   size_type __n)
 478:/usr/include/newlib/c++/9.2.1/bits/basic_string.h ****       : _M_dataplus(_M_local_data())
 479:/usr/include/newlib/c++/9.2.1/bits/basic_string.h ****       {
ARM GAS  /tmp/cc00lao6.s 			page 47


 480:/usr/include/newlib/c++/9.2.1/bits/basic_string.h **** 	const _CharT* __start = __str._M_data()
 481:/usr/include/newlib/c++/9.2.1/bits/basic_string.h **** 	  + __str._M_check(__pos, "basic_string::basic_string");
 482:/usr/include/newlib/c++/9.2.1/bits/basic_string.h **** 	_M_construct(__start, __start + __str._M_limit(__pos, __n));
 483:/usr/include/newlib/c++/9.2.1/bits/basic_string.h ****       }
 484:/usr/include/newlib/c++/9.2.1/bits/basic_string.h **** 
 485:/usr/include/newlib/c++/9.2.1/bits/basic_string.h ****       /**
 486:/usr/include/newlib/c++/9.2.1/bits/basic_string.h ****        *  @brief  Construct string as copy of a substring.
 487:/usr/include/newlib/c++/9.2.1/bits/basic_string.h ****        *  @param  __str  Source string.
 488:/usr/include/newlib/c++/9.2.1/bits/basic_string.h ****        *  @param  __pos  Index of first character to copy from.
 489:/usr/include/newlib/c++/9.2.1/bits/basic_string.h ****        *  @param  __n  Number of characters to copy.
 490:/usr/include/newlib/c++/9.2.1/bits/basic_string.h ****        *  @param  __a  Allocator to use.
 491:/usr/include/newlib/c++/9.2.1/bits/basic_string.h ****        */
 492:/usr/include/newlib/c++/9.2.1/bits/basic_string.h ****       basic_string(const basic_string& __str, size_type __pos,
 493:/usr/include/newlib/c++/9.2.1/bits/basic_string.h **** 		   size_type __n, const _Alloc& __a)
 494:/usr/include/newlib/c++/9.2.1/bits/basic_string.h ****       : _M_dataplus(_M_local_data(), __a)
 495:/usr/include/newlib/c++/9.2.1/bits/basic_string.h ****       {
 496:/usr/include/newlib/c++/9.2.1/bits/basic_string.h **** 	const _CharT* __start
 497:/usr/include/newlib/c++/9.2.1/bits/basic_string.h **** 	  = __str._M_data() + __str._M_check(__pos, "string::string");
 498:/usr/include/newlib/c++/9.2.1/bits/basic_string.h **** 	_M_construct(__start, __start + __str._M_limit(__pos, __n));
 499:/usr/include/newlib/c++/9.2.1/bits/basic_string.h ****       }
 500:/usr/include/newlib/c++/9.2.1/bits/basic_string.h **** 
 501:/usr/include/newlib/c++/9.2.1/bits/basic_string.h ****       /**
 502:/usr/include/newlib/c++/9.2.1/bits/basic_string.h ****        *  @brief  Construct string initialized by a character %array.
 503:/usr/include/newlib/c++/9.2.1/bits/basic_string.h ****        *  @param  __s  Source character %array.
 504:/usr/include/newlib/c++/9.2.1/bits/basic_string.h ****        *  @param  __n  Number of characters to copy.
 505:/usr/include/newlib/c++/9.2.1/bits/basic_string.h ****        *  @param  __a  Allocator to use (default is default allocator).
 506:/usr/include/newlib/c++/9.2.1/bits/basic_string.h ****        *
 507:/usr/include/newlib/c++/9.2.1/bits/basic_string.h ****        *  NB: @a __s must have at least @a __n characters, &apos;\\0&apos;
 508:/usr/include/newlib/c++/9.2.1/bits/basic_string.h ****        *  has no special meaning.
 509:/usr/include/newlib/c++/9.2.1/bits/basic_string.h ****        */
 510:/usr/include/newlib/c++/9.2.1/bits/basic_string.h ****       basic_string(const _CharT* __s, size_type __n,
 511:/usr/include/newlib/c++/9.2.1/bits/basic_string.h **** 		   const _Alloc& __a = _Alloc())
 512:/usr/include/newlib/c++/9.2.1/bits/basic_string.h ****       : _M_dataplus(_M_local_data(), __a)
 513:/usr/include/newlib/c++/9.2.1/bits/basic_string.h ****       { _M_construct(__s, __s + __n); }
 514:/usr/include/newlib/c++/9.2.1/bits/basic_string.h **** 
 515:/usr/include/newlib/c++/9.2.1/bits/basic_string.h ****       /**
 516:/usr/include/newlib/c++/9.2.1/bits/basic_string.h ****        *  @brief  Construct string as copy of a C string.
 517:/usr/include/newlib/c++/9.2.1/bits/basic_string.h ****        *  @param  __s  Source C string.
 518:/usr/include/newlib/c++/9.2.1/bits/basic_string.h ****        *  @param  __a  Allocator to use (default is default allocator).
 519:/usr/include/newlib/c++/9.2.1/bits/basic_string.h ****        */
 520:/usr/include/newlib/c++/9.2.1/bits/basic_string.h **** #if __cpp_deduction_guides && ! defined _GLIBCXX_DEFINING_STRING_INSTANTIATIONS
 521:/usr/include/newlib/c++/9.2.1/bits/basic_string.h ****       // _GLIBCXX_RESOLVE_LIB_DEFECTS
 522:/usr/include/newlib/c++/9.2.1/bits/basic_string.h ****       // 3076. basic_string CTAD ambiguity
 523:/usr/include/newlib/c++/9.2.1/bits/basic_string.h ****       template<typename = _RequireAllocator<_Alloc>>
 524:/usr/include/newlib/c++/9.2.1/bits/basic_string.h **** #endif
 525:/usr/include/newlib/c++/9.2.1/bits/basic_string.h ****       basic_string(const _CharT* __s, const _Alloc& __a = _Alloc())
 526:/usr/include/newlib/c++/9.2.1/bits/basic_string.h ****       : _M_dataplus(_M_local_data(), __a)
 527:/usr/include/newlib/c++/9.2.1/bits/basic_string.h ****       { _M_construct(__s, __s ? __s + traits_type::length(__s) : __s+npos); }
 528:/usr/include/newlib/c++/9.2.1/bits/basic_string.h **** 
 529:/usr/include/newlib/c++/9.2.1/bits/basic_string.h ****       /**
 530:/usr/include/newlib/c++/9.2.1/bits/basic_string.h ****        *  @brief  Construct string as multiple characters.
 531:/usr/include/newlib/c++/9.2.1/bits/basic_string.h ****        *  @param  __n  Number of characters.
 532:/usr/include/newlib/c++/9.2.1/bits/basic_string.h ****        *  @param  __c  Character to use.
 533:/usr/include/newlib/c++/9.2.1/bits/basic_string.h ****        *  @param  __a  Allocator to use (default is default allocator).
 534:/usr/include/newlib/c++/9.2.1/bits/basic_string.h ****        */
 535:/usr/include/newlib/c++/9.2.1/bits/basic_string.h **** #if __cpp_deduction_guides && ! defined _GLIBCXX_DEFINING_STRING_INSTANTIATIONS
 536:/usr/include/newlib/c++/9.2.1/bits/basic_string.h ****       // _GLIBCXX_RESOLVE_LIB_DEFECTS
ARM GAS  /tmp/cc00lao6.s 			page 48


 537:/usr/include/newlib/c++/9.2.1/bits/basic_string.h ****       // 3076. basic_string CTAD ambiguity
 538:/usr/include/newlib/c++/9.2.1/bits/basic_string.h ****       template<typename = _RequireAllocator<_Alloc>>
 539:/usr/include/newlib/c++/9.2.1/bits/basic_string.h **** #endif
 540:/usr/include/newlib/c++/9.2.1/bits/basic_string.h ****       basic_string(size_type __n, _CharT __c, const _Alloc& __a = _Alloc())
 541:/usr/include/newlib/c++/9.2.1/bits/basic_string.h ****       : _M_dataplus(_M_local_data(), __a)
 542:/usr/include/newlib/c++/9.2.1/bits/basic_string.h ****       { _M_construct(__n, __c); }
 543:/usr/include/newlib/c++/9.2.1/bits/basic_string.h **** 
 544:/usr/include/newlib/c++/9.2.1/bits/basic_string.h **** #if __cplusplus >= 201103L
 545:/usr/include/newlib/c++/9.2.1/bits/basic_string.h ****       /**
 546:/usr/include/newlib/c++/9.2.1/bits/basic_string.h ****        *  @brief  Move construct string.
 547:/usr/include/newlib/c++/9.2.1/bits/basic_string.h ****        *  @param  __str  Source string.
 548:/usr/include/newlib/c++/9.2.1/bits/basic_string.h ****        *
 549:/usr/include/newlib/c++/9.2.1/bits/basic_string.h ****        *  The newly-created string contains the exact contents of @a __str.
 550:/usr/include/newlib/c++/9.2.1/bits/basic_string.h ****        *  @a __str is a valid, but unspecified string.
 551:/usr/include/newlib/c++/9.2.1/bits/basic_string.h ****        **/
 552:/usr/include/newlib/c++/9.2.1/bits/basic_string.h ****       basic_string(basic_string&& __str) noexcept
 553:/usr/include/newlib/c++/9.2.1/bits/basic_string.h ****       : _M_dataplus(_M_local_data(), std::move(__str._M_get_allocator()))
 554:/usr/include/newlib/c++/9.2.1/bits/basic_string.h ****       {
 555:/usr/include/newlib/c++/9.2.1/bits/basic_string.h **** 	if (__str._M_is_local())
 556:/usr/include/newlib/c++/9.2.1/bits/basic_string.h **** 	  {
 557:/usr/include/newlib/c++/9.2.1/bits/basic_string.h **** 	    traits_type::copy(_M_local_buf, __str._M_local_buf,
 558:/usr/include/newlib/c++/9.2.1/bits/basic_string.h **** 			      _S_local_capacity + 1);
 559:/usr/include/newlib/c++/9.2.1/bits/basic_string.h **** 	  }
 560:/usr/include/newlib/c++/9.2.1/bits/basic_string.h **** 	else
 561:/usr/include/newlib/c++/9.2.1/bits/basic_string.h **** 	  {
 562:/usr/include/newlib/c++/9.2.1/bits/basic_string.h **** 	    _M_data(__str._M_data());
 563:/usr/include/newlib/c++/9.2.1/bits/basic_string.h **** 	    _M_capacity(__str._M_allocated_capacity);
 564:/usr/include/newlib/c++/9.2.1/bits/basic_string.h **** 	  }
 565:/usr/include/newlib/c++/9.2.1/bits/basic_string.h **** 
 566:/usr/include/newlib/c++/9.2.1/bits/basic_string.h **** 	// Must use _M_length() here not _M_set_length() because
 567:/usr/include/newlib/c++/9.2.1/bits/basic_string.h **** 	// basic_stringbuf relies on writing into unallocated capacity so
 568:/usr/include/newlib/c++/9.2.1/bits/basic_string.h **** 	// we mess up the contents if we put a '\0' in the string.
 569:/usr/include/newlib/c++/9.2.1/bits/basic_string.h **** 	_M_length(__str.length());
 570:/usr/include/newlib/c++/9.2.1/bits/basic_string.h **** 	__str._M_data(__str._M_local_data());
 571:/usr/include/newlib/c++/9.2.1/bits/basic_string.h **** 	__str._M_set_length(0);
 572:/usr/include/newlib/c++/9.2.1/bits/basic_string.h ****       }
 573:/usr/include/newlib/c++/9.2.1/bits/basic_string.h **** 
 574:/usr/include/newlib/c++/9.2.1/bits/basic_string.h ****       /**
 575:/usr/include/newlib/c++/9.2.1/bits/basic_string.h ****        *  @brief  Construct string from an initializer %list.
 576:/usr/include/newlib/c++/9.2.1/bits/basic_string.h ****        *  @param  __l  std::initializer_list of characters.
 577:/usr/include/newlib/c++/9.2.1/bits/basic_string.h ****        *  @param  __a  Allocator to use (default is default allocator).
 578:/usr/include/newlib/c++/9.2.1/bits/basic_string.h ****        */
 579:/usr/include/newlib/c++/9.2.1/bits/basic_string.h ****       basic_string(initializer_list<_CharT> __l, const _Alloc& __a = _Alloc())
 580:/usr/include/newlib/c++/9.2.1/bits/basic_string.h ****       : _M_dataplus(_M_local_data(), __a)
 581:/usr/include/newlib/c++/9.2.1/bits/basic_string.h ****       { _M_construct(__l.begin(), __l.end()); }
 582:/usr/include/newlib/c++/9.2.1/bits/basic_string.h **** 
 583:/usr/include/newlib/c++/9.2.1/bits/basic_string.h ****       basic_string(const basic_string& __str, const _Alloc& __a)
 584:/usr/include/newlib/c++/9.2.1/bits/basic_string.h ****       : _M_dataplus(_M_local_data(), __a)
 585:/usr/include/newlib/c++/9.2.1/bits/basic_string.h ****       { _M_construct(__str.begin(), __str.end()); }
 586:/usr/include/newlib/c++/9.2.1/bits/basic_string.h **** 
 587:/usr/include/newlib/c++/9.2.1/bits/basic_string.h ****       basic_string(basic_string&& __str, const _Alloc& __a)
 588:/usr/include/newlib/c++/9.2.1/bits/basic_string.h ****       noexcept(_Alloc_traits::_S_always_equal())
 589:/usr/include/newlib/c++/9.2.1/bits/basic_string.h ****       : _M_dataplus(_M_local_data(), __a)
 590:/usr/include/newlib/c++/9.2.1/bits/basic_string.h ****       {
 591:/usr/include/newlib/c++/9.2.1/bits/basic_string.h **** 	if (__str._M_is_local())
 592:/usr/include/newlib/c++/9.2.1/bits/basic_string.h **** 	  {
 593:/usr/include/newlib/c++/9.2.1/bits/basic_string.h **** 	    traits_type::copy(_M_local_buf, __str._M_local_buf,
ARM GAS  /tmp/cc00lao6.s 			page 49


 594:/usr/include/newlib/c++/9.2.1/bits/basic_string.h **** 			      _S_local_capacity + 1);
 595:/usr/include/newlib/c++/9.2.1/bits/basic_string.h **** 	    _M_length(__str.length());
 596:/usr/include/newlib/c++/9.2.1/bits/basic_string.h **** 	    __str._M_set_length(0);
 597:/usr/include/newlib/c++/9.2.1/bits/basic_string.h **** 	  }
 598:/usr/include/newlib/c++/9.2.1/bits/basic_string.h **** 	else if (_Alloc_traits::_S_always_equal()
 599:/usr/include/newlib/c++/9.2.1/bits/basic_string.h **** 	    || __str.get_allocator() == __a)
 600:/usr/include/newlib/c++/9.2.1/bits/basic_string.h **** 	  {
 601:/usr/include/newlib/c++/9.2.1/bits/basic_string.h **** 	    _M_data(__str._M_data());
 602:/usr/include/newlib/c++/9.2.1/bits/basic_string.h **** 	    _M_length(__str.length());
 603:/usr/include/newlib/c++/9.2.1/bits/basic_string.h **** 	    _M_capacity(__str._M_allocated_capacity);
 604:/usr/include/newlib/c++/9.2.1/bits/basic_string.h **** 	    __str._M_data(__str._M_local_buf);
 605:/usr/include/newlib/c++/9.2.1/bits/basic_string.h **** 	    __str._M_set_length(0);
 606:/usr/include/newlib/c++/9.2.1/bits/basic_string.h **** 	  }
 607:/usr/include/newlib/c++/9.2.1/bits/basic_string.h **** 	else
 608:/usr/include/newlib/c++/9.2.1/bits/basic_string.h **** 	  _M_construct(__str.begin(), __str.end());
 609:/usr/include/newlib/c++/9.2.1/bits/basic_string.h ****       }
 610:/usr/include/newlib/c++/9.2.1/bits/basic_string.h **** 
 611:/usr/include/newlib/c++/9.2.1/bits/basic_string.h **** #endif // C++11
 612:/usr/include/newlib/c++/9.2.1/bits/basic_string.h **** 
 613:/usr/include/newlib/c++/9.2.1/bits/basic_string.h ****       /**
 614:/usr/include/newlib/c++/9.2.1/bits/basic_string.h ****        *  @brief  Construct string as copy of a range.
 615:/usr/include/newlib/c++/9.2.1/bits/basic_string.h ****        *  @param  __beg  Start of range.
 616:/usr/include/newlib/c++/9.2.1/bits/basic_string.h ****        *  @param  __end  End of range.
 617:/usr/include/newlib/c++/9.2.1/bits/basic_string.h ****        *  @param  __a  Allocator to use (default is default allocator).
 618:/usr/include/newlib/c++/9.2.1/bits/basic_string.h ****        */
 619:/usr/include/newlib/c++/9.2.1/bits/basic_string.h **** #if __cplusplus >= 201103L
 620:/usr/include/newlib/c++/9.2.1/bits/basic_string.h ****       template<typename _InputIterator,
 621:/usr/include/newlib/c++/9.2.1/bits/basic_string.h **** 	       typename = std::_RequireInputIter<_InputIterator>>
 622:/usr/include/newlib/c++/9.2.1/bits/basic_string.h **** #else
 623:/usr/include/newlib/c++/9.2.1/bits/basic_string.h ****       template<typename _InputIterator>
 624:/usr/include/newlib/c++/9.2.1/bits/basic_string.h **** #endif
 625:/usr/include/newlib/c++/9.2.1/bits/basic_string.h ****         basic_string(_InputIterator __beg, _InputIterator __end,
 626:/usr/include/newlib/c++/9.2.1/bits/basic_string.h **** 		     const _Alloc& __a = _Alloc())
 627:/usr/include/newlib/c++/9.2.1/bits/basic_string.h **** 	: _M_dataplus(_M_local_data(), __a)
 628:/usr/include/newlib/c++/9.2.1/bits/basic_string.h **** 	{ _M_construct(__beg, __end); }
 629:/usr/include/newlib/c++/9.2.1/bits/basic_string.h **** 
 630:/usr/include/newlib/c++/9.2.1/bits/basic_string.h **** #if __cplusplus >= 201703L
 631:/usr/include/newlib/c++/9.2.1/bits/basic_string.h ****       /**
 632:/usr/include/newlib/c++/9.2.1/bits/basic_string.h ****        *  @brief  Construct string from a substring of a string_view.
 633:/usr/include/newlib/c++/9.2.1/bits/basic_string.h ****        *  @param  __t   Source object convertible to string view.
 634:/usr/include/newlib/c++/9.2.1/bits/basic_string.h ****        *  @param  __pos The index of the first character to copy from __t.
 635:/usr/include/newlib/c++/9.2.1/bits/basic_string.h ****        *  @param  __n   The number of characters to copy from __t.
 636:/usr/include/newlib/c++/9.2.1/bits/basic_string.h ****        *  @param  __a   Allocator to use.
 637:/usr/include/newlib/c++/9.2.1/bits/basic_string.h ****        */
 638:/usr/include/newlib/c++/9.2.1/bits/basic_string.h ****       template<typename _Tp, typename = _If_sv<_Tp, void>>
 639:/usr/include/newlib/c++/9.2.1/bits/basic_string.h **** 	basic_string(const _Tp& __t, size_type __pos, size_type __n,
 640:/usr/include/newlib/c++/9.2.1/bits/basic_string.h **** 		     const _Alloc& __a = _Alloc())
 641:/usr/include/newlib/c++/9.2.1/bits/basic_string.h **** 	: basic_string(_S_to_string_view(__t).substr(__pos, __n), __a) { }
 642:/usr/include/newlib/c++/9.2.1/bits/basic_string.h **** 
 643:/usr/include/newlib/c++/9.2.1/bits/basic_string.h ****       /**
 644:/usr/include/newlib/c++/9.2.1/bits/basic_string.h ****        *  @brief  Construct string from a string_view.
 645:/usr/include/newlib/c++/9.2.1/bits/basic_string.h ****        *  @param  __t  Source object convertible to string view.
 646:/usr/include/newlib/c++/9.2.1/bits/basic_string.h ****        *  @param  __a  Allocator to use (default is default allocator).
 647:/usr/include/newlib/c++/9.2.1/bits/basic_string.h ****        */
 648:/usr/include/newlib/c++/9.2.1/bits/basic_string.h ****       template<typename _Tp, typename = _If_sv<_Tp, void>>
 649:/usr/include/newlib/c++/9.2.1/bits/basic_string.h **** 	explicit
 650:/usr/include/newlib/c++/9.2.1/bits/basic_string.h **** 	basic_string(const _Tp& __t, const _Alloc& __a = _Alloc())
ARM GAS  /tmp/cc00lao6.s 			page 50


 651:/usr/include/newlib/c++/9.2.1/bits/basic_string.h **** 	: basic_string(__sv_wrapper(_S_to_string_view(__t)), __a) { }
 652:/usr/include/newlib/c++/9.2.1/bits/basic_string.h **** #endif // C++17
 653:/usr/include/newlib/c++/9.2.1/bits/basic_string.h **** 
 654:/usr/include/newlib/c++/9.2.1/bits/basic_string.h ****       /**
 655:/usr/include/newlib/c++/9.2.1/bits/basic_string.h ****        *  @brief  Destroy the string instance.
 656:/usr/include/newlib/c++/9.2.1/bits/basic_string.h ****        */
 657:/usr/include/newlib/c++/9.2.1/bits/basic_string.h ****       ~basic_string()
 294              		.loc 15 657 7 view .LVU49
 295              	.LBB3836:
 296              	.LBI3836:
 229:/usr/include/newlib/c++/9.2.1/bits/basic_string.h ****       {
 297              		.loc 15 229 7 view .LVU50
 298              	.LBB3837:
 299              	.LBB3838:
 300              	.LBI3838:
 221:/usr/include/newlib/c++/9.2.1/bits/basic_string.h ****       { return _M_data() == _M_local_data(); }
 301              		.loc 15 221 7 view .LVU51
 221:/usr/include/newlib/c++/9.2.1/bits/basic_string.h ****       { return _M_data() == _M_local_data(); }
 302              		.loc 15 221 7 is_stmt 0 view .LVU52
 303              	.LBE3838:
 304              	.LBB3840:
 305              	.LBI3840:
 236:/usr/include/newlib/c++/9.2.1/bits/basic_string.h ****       { _Alloc_traits::deallocate(_M_get_allocator(), _M_data(), __size + 1); }
 306              		.loc 15 236 7 is_stmt 1 view .LVU53
 236:/usr/include/newlib/c++/9.2.1/bits/basic_string.h ****       { _Alloc_traits::deallocate(_M_get_allocator(), _M_data(), __size + 1); }
 307              		.loc 15 236 7 is_stmt 0 view .LVU54
 308              	.LBE3840:
 309              	.LBB3848:
 310              	.LBB3839:
 222:/usr/include/newlib/c++/9.2.1/bits/basic_string.h **** 
 311              		.loc 15 222 26 view .LVU55
 312 0010 54F8080C 		ldr	r0, [r4, #-8]
 313              	.LVL13:
 222:/usr/include/newlib/c++/9.2.1/bits/basic_string.h **** 
 314              		.loc 15 222 26 view .LVU56
 315              	.LBE3839:
 316              	.LBE3848:
 317              	.LBB3849:
 318              	.LBB3841:
 319              	.LBB3842:
 320              	.LBI3842:
 321              		.file 16 "/usr/include/newlib/c++/9.2.1/bits/alloc_traits.h"
   1:/usr/include/newlib/c++/9.2.1/bits/alloc_traits.h **** // Allocator traits -*- C++ -*-
   2:/usr/include/newlib/c++/9.2.1/bits/alloc_traits.h **** 
   3:/usr/include/newlib/c++/9.2.1/bits/alloc_traits.h **** // Copyright (C) 2011-2019 Free Software Foundation, Inc.
   4:/usr/include/newlib/c++/9.2.1/bits/alloc_traits.h **** //
   5:/usr/include/newlib/c++/9.2.1/bits/alloc_traits.h **** // This file is part of the GNU ISO C++ Library.  This library is free
   6:/usr/include/newlib/c++/9.2.1/bits/alloc_traits.h **** // software; you can redistribute it and/or modify it under the
   7:/usr/include/newlib/c++/9.2.1/bits/alloc_traits.h **** // terms of the GNU General Public License as published by the
   8:/usr/include/newlib/c++/9.2.1/bits/alloc_traits.h **** // Free Software Foundation; either version 3, or (at your option)
   9:/usr/include/newlib/c++/9.2.1/bits/alloc_traits.h **** // any later version.
  10:/usr/include/newlib/c++/9.2.1/bits/alloc_traits.h **** 
  11:/usr/include/newlib/c++/9.2.1/bits/alloc_traits.h **** // This library is distributed in the hope that it will be useful,
  12:/usr/include/newlib/c++/9.2.1/bits/alloc_traits.h **** // but WITHOUT ANY WARRANTY; without even the implied warranty of
  13:/usr/include/newlib/c++/9.2.1/bits/alloc_traits.h **** // MERCHANTABILITY or FITNESS FOR A PARTICULAR PURPOSE.  See the
  14:/usr/include/newlib/c++/9.2.1/bits/alloc_traits.h **** // GNU General Public License for more details.
  15:/usr/include/newlib/c++/9.2.1/bits/alloc_traits.h **** 
ARM GAS  /tmp/cc00lao6.s 			page 51


  16:/usr/include/newlib/c++/9.2.1/bits/alloc_traits.h **** // Under Section 7 of GPL version 3, you are granted additional
  17:/usr/include/newlib/c++/9.2.1/bits/alloc_traits.h **** // permissions described in the GCC Runtime Library Exception, version
  18:/usr/include/newlib/c++/9.2.1/bits/alloc_traits.h **** // 3.1, as published by the Free Software Foundation.
  19:/usr/include/newlib/c++/9.2.1/bits/alloc_traits.h **** 
  20:/usr/include/newlib/c++/9.2.1/bits/alloc_traits.h **** // You should have received a copy of the GNU General Public License and
  21:/usr/include/newlib/c++/9.2.1/bits/alloc_traits.h **** // a copy of the GCC Runtime Library Exception along with this program;
  22:/usr/include/newlib/c++/9.2.1/bits/alloc_traits.h **** // see the files COPYING3 and COPYING.RUNTIME respectively.  If not, see
  23:/usr/include/newlib/c++/9.2.1/bits/alloc_traits.h **** // <http://www.gnu.org/licenses/>.
  24:/usr/include/newlib/c++/9.2.1/bits/alloc_traits.h **** 
  25:/usr/include/newlib/c++/9.2.1/bits/alloc_traits.h **** /** @file bits/alloc_traits.h
  26:/usr/include/newlib/c++/9.2.1/bits/alloc_traits.h ****  *  This is an internal header file, included by other library headers.
  27:/usr/include/newlib/c++/9.2.1/bits/alloc_traits.h ****  *  Do not attempt to use it directly. @headername{memory}
  28:/usr/include/newlib/c++/9.2.1/bits/alloc_traits.h ****  */
  29:/usr/include/newlib/c++/9.2.1/bits/alloc_traits.h **** 
  30:/usr/include/newlib/c++/9.2.1/bits/alloc_traits.h **** #ifndef _ALLOC_TRAITS_H
  31:/usr/include/newlib/c++/9.2.1/bits/alloc_traits.h **** #define _ALLOC_TRAITS_H 1
  32:/usr/include/newlib/c++/9.2.1/bits/alloc_traits.h **** 
  33:/usr/include/newlib/c++/9.2.1/bits/alloc_traits.h **** #if __cplusplus >= 201103L
  34:/usr/include/newlib/c++/9.2.1/bits/alloc_traits.h **** 
  35:/usr/include/newlib/c++/9.2.1/bits/alloc_traits.h **** #include <bits/memoryfwd.h>
  36:/usr/include/newlib/c++/9.2.1/bits/alloc_traits.h **** #include <bits/ptr_traits.h>
  37:/usr/include/newlib/c++/9.2.1/bits/alloc_traits.h **** #include <ext/numeric_traits.h>
  38:/usr/include/newlib/c++/9.2.1/bits/alloc_traits.h **** 
  39:/usr/include/newlib/c++/9.2.1/bits/alloc_traits.h **** #define __cpp_lib_allocator_traits_is_always_equal 201411
  40:/usr/include/newlib/c++/9.2.1/bits/alloc_traits.h **** 
  41:/usr/include/newlib/c++/9.2.1/bits/alloc_traits.h **** namespace std _GLIBCXX_VISIBILITY(default)
  42:/usr/include/newlib/c++/9.2.1/bits/alloc_traits.h **** {
  43:/usr/include/newlib/c++/9.2.1/bits/alloc_traits.h **** _GLIBCXX_BEGIN_NAMESPACE_VERSION
  44:/usr/include/newlib/c++/9.2.1/bits/alloc_traits.h **** 
  45:/usr/include/newlib/c++/9.2.1/bits/alloc_traits.h ****   struct __allocator_traits_base
  46:/usr/include/newlib/c++/9.2.1/bits/alloc_traits.h ****   {
  47:/usr/include/newlib/c++/9.2.1/bits/alloc_traits.h ****     template<typename _Tp, typename _Up, typename = void>
  48:/usr/include/newlib/c++/9.2.1/bits/alloc_traits.h ****       struct __rebind : __replace_first_arg<_Tp, _Up> { };
  49:/usr/include/newlib/c++/9.2.1/bits/alloc_traits.h **** 
  50:/usr/include/newlib/c++/9.2.1/bits/alloc_traits.h ****     template<typename _Tp, typename _Up>
  51:/usr/include/newlib/c++/9.2.1/bits/alloc_traits.h ****       struct __rebind<_Tp, _Up,
  52:/usr/include/newlib/c++/9.2.1/bits/alloc_traits.h **** 		      __void_t<typename _Tp::template rebind<_Up>::other>>
  53:/usr/include/newlib/c++/9.2.1/bits/alloc_traits.h ****       { using type = typename _Tp::template rebind<_Up>::other; };
  54:/usr/include/newlib/c++/9.2.1/bits/alloc_traits.h **** 
  55:/usr/include/newlib/c++/9.2.1/bits/alloc_traits.h ****   protected:
  56:/usr/include/newlib/c++/9.2.1/bits/alloc_traits.h ****     template<typename _Tp>
  57:/usr/include/newlib/c++/9.2.1/bits/alloc_traits.h ****       using __pointer = typename _Tp::pointer;
  58:/usr/include/newlib/c++/9.2.1/bits/alloc_traits.h ****     template<typename _Tp>
  59:/usr/include/newlib/c++/9.2.1/bits/alloc_traits.h ****       using __c_pointer = typename _Tp::const_pointer;
  60:/usr/include/newlib/c++/9.2.1/bits/alloc_traits.h ****     template<typename _Tp>
  61:/usr/include/newlib/c++/9.2.1/bits/alloc_traits.h ****       using __v_pointer = typename _Tp::void_pointer;
  62:/usr/include/newlib/c++/9.2.1/bits/alloc_traits.h ****     template<typename _Tp>
  63:/usr/include/newlib/c++/9.2.1/bits/alloc_traits.h ****       using __cv_pointer = typename _Tp::const_void_pointer;
  64:/usr/include/newlib/c++/9.2.1/bits/alloc_traits.h ****     template<typename _Tp>
  65:/usr/include/newlib/c++/9.2.1/bits/alloc_traits.h ****       using __pocca = typename _Tp::propagate_on_container_copy_assignment;
  66:/usr/include/newlib/c++/9.2.1/bits/alloc_traits.h ****     template<typename _Tp>
  67:/usr/include/newlib/c++/9.2.1/bits/alloc_traits.h ****       using __pocma = typename _Tp::propagate_on_container_move_assignment;
  68:/usr/include/newlib/c++/9.2.1/bits/alloc_traits.h ****     template<typename _Tp>
  69:/usr/include/newlib/c++/9.2.1/bits/alloc_traits.h ****       using __pocs = typename _Tp::propagate_on_container_swap;
  70:/usr/include/newlib/c++/9.2.1/bits/alloc_traits.h ****     template<typename _Tp>
  71:/usr/include/newlib/c++/9.2.1/bits/alloc_traits.h ****       using __equal = typename _Tp::is_always_equal;
  72:/usr/include/newlib/c++/9.2.1/bits/alloc_traits.h ****   };
ARM GAS  /tmp/cc00lao6.s 			page 52


  73:/usr/include/newlib/c++/9.2.1/bits/alloc_traits.h **** 
  74:/usr/include/newlib/c++/9.2.1/bits/alloc_traits.h ****   template<typename _Alloc, typename _Up>
  75:/usr/include/newlib/c++/9.2.1/bits/alloc_traits.h ****     using __alloc_rebind
  76:/usr/include/newlib/c++/9.2.1/bits/alloc_traits.h ****       = typename __allocator_traits_base::template __rebind<_Alloc, _Up>::type;
  77:/usr/include/newlib/c++/9.2.1/bits/alloc_traits.h **** 
  78:/usr/include/newlib/c++/9.2.1/bits/alloc_traits.h ****   /**
  79:/usr/include/newlib/c++/9.2.1/bits/alloc_traits.h ****    * @brief  Uniform interface to all allocator types.
  80:/usr/include/newlib/c++/9.2.1/bits/alloc_traits.h ****    * @ingroup allocators
  81:/usr/include/newlib/c++/9.2.1/bits/alloc_traits.h ****   */
  82:/usr/include/newlib/c++/9.2.1/bits/alloc_traits.h ****   template<typename _Alloc>
  83:/usr/include/newlib/c++/9.2.1/bits/alloc_traits.h ****     struct allocator_traits : __allocator_traits_base
  84:/usr/include/newlib/c++/9.2.1/bits/alloc_traits.h ****     {
  85:/usr/include/newlib/c++/9.2.1/bits/alloc_traits.h ****       /// The allocator type
  86:/usr/include/newlib/c++/9.2.1/bits/alloc_traits.h ****       typedef _Alloc allocator_type;
  87:/usr/include/newlib/c++/9.2.1/bits/alloc_traits.h ****       /// The allocated type
  88:/usr/include/newlib/c++/9.2.1/bits/alloc_traits.h ****       typedef typename _Alloc::value_type value_type;
  89:/usr/include/newlib/c++/9.2.1/bits/alloc_traits.h **** 
  90:/usr/include/newlib/c++/9.2.1/bits/alloc_traits.h ****       /**
  91:/usr/include/newlib/c++/9.2.1/bits/alloc_traits.h ****        * @brief   The allocator's pointer type.
  92:/usr/include/newlib/c++/9.2.1/bits/alloc_traits.h ****        *
  93:/usr/include/newlib/c++/9.2.1/bits/alloc_traits.h ****        * @c Alloc::pointer if that type exists, otherwise @c value_type*
  94:/usr/include/newlib/c++/9.2.1/bits/alloc_traits.h ****       */
  95:/usr/include/newlib/c++/9.2.1/bits/alloc_traits.h ****       using pointer = __detected_or_t<value_type*, __pointer, _Alloc>;
  96:/usr/include/newlib/c++/9.2.1/bits/alloc_traits.h **** 
  97:/usr/include/newlib/c++/9.2.1/bits/alloc_traits.h ****     private:
  98:/usr/include/newlib/c++/9.2.1/bits/alloc_traits.h ****       // Select _Func<_Alloc> or pointer_traits<pointer>::rebind<_Tp>
  99:/usr/include/newlib/c++/9.2.1/bits/alloc_traits.h ****       template<template<typename> class _Func, typename _Tp, typename = void>
 100:/usr/include/newlib/c++/9.2.1/bits/alloc_traits.h **** 	struct _Ptr
 101:/usr/include/newlib/c++/9.2.1/bits/alloc_traits.h **** 	{
 102:/usr/include/newlib/c++/9.2.1/bits/alloc_traits.h **** 	  using type = typename pointer_traits<pointer>::template rebind<_Tp>;
 103:/usr/include/newlib/c++/9.2.1/bits/alloc_traits.h **** 	};
 104:/usr/include/newlib/c++/9.2.1/bits/alloc_traits.h **** 
 105:/usr/include/newlib/c++/9.2.1/bits/alloc_traits.h ****       template<template<typename> class _Func, typename _Tp>
 106:/usr/include/newlib/c++/9.2.1/bits/alloc_traits.h **** 	struct _Ptr<_Func, _Tp, __void_t<_Func<_Alloc>>>
 107:/usr/include/newlib/c++/9.2.1/bits/alloc_traits.h **** 	{
 108:/usr/include/newlib/c++/9.2.1/bits/alloc_traits.h **** 	  using type = _Func<_Alloc>;
 109:/usr/include/newlib/c++/9.2.1/bits/alloc_traits.h **** 	};
 110:/usr/include/newlib/c++/9.2.1/bits/alloc_traits.h **** 
 111:/usr/include/newlib/c++/9.2.1/bits/alloc_traits.h ****       // Select _A2::difference_type or pointer_traits<_Ptr>::difference_type
 112:/usr/include/newlib/c++/9.2.1/bits/alloc_traits.h ****       template<typename _A2, typename _PtrT, typename = void>
 113:/usr/include/newlib/c++/9.2.1/bits/alloc_traits.h **** 	struct _Diff
 114:/usr/include/newlib/c++/9.2.1/bits/alloc_traits.h **** 	{ using type = typename pointer_traits<_PtrT>::difference_type; };
 115:/usr/include/newlib/c++/9.2.1/bits/alloc_traits.h **** 
 116:/usr/include/newlib/c++/9.2.1/bits/alloc_traits.h ****       template<typename _A2, typename _PtrT>
 117:/usr/include/newlib/c++/9.2.1/bits/alloc_traits.h **** 	struct _Diff<_A2, _PtrT, __void_t<typename _A2::difference_type>>
 118:/usr/include/newlib/c++/9.2.1/bits/alloc_traits.h **** 	{ using type = typename _A2::difference_type; };
 119:/usr/include/newlib/c++/9.2.1/bits/alloc_traits.h **** 
 120:/usr/include/newlib/c++/9.2.1/bits/alloc_traits.h ****       // Select _A2::size_type or make_unsigned<_DiffT>::type
 121:/usr/include/newlib/c++/9.2.1/bits/alloc_traits.h ****       template<typename _A2, typename _DiffT, typename = void>
 122:/usr/include/newlib/c++/9.2.1/bits/alloc_traits.h **** 	struct _Size : make_unsigned<_DiffT> { };
 123:/usr/include/newlib/c++/9.2.1/bits/alloc_traits.h **** 
 124:/usr/include/newlib/c++/9.2.1/bits/alloc_traits.h ****       template<typename _A2, typename _DiffT>
 125:/usr/include/newlib/c++/9.2.1/bits/alloc_traits.h **** 	struct _Size<_A2, _DiffT, __void_t<typename _A2::size_type>>
 126:/usr/include/newlib/c++/9.2.1/bits/alloc_traits.h **** 	{ using type = typename _A2::size_type; };
 127:/usr/include/newlib/c++/9.2.1/bits/alloc_traits.h **** 
 128:/usr/include/newlib/c++/9.2.1/bits/alloc_traits.h ****     public:
 129:/usr/include/newlib/c++/9.2.1/bits/alloc_traits.h ****       /**
ARM GAS  /tmp/cc00lao6.s 			page 53


 130:/usr/include/newlib/c++/9.2.1/bits/alloc_traits.h ****        * @brief   The allocator's const pointer type.
 131:/usr/include/newlib/c++/9.2.1/bits/alloc_traits.h ****        *
 132:/usr/include/newlib/c++/9.2.1/bits/alloc_traits.h ****        * @c Alloc::const_pointer if that type exists, otherwise
 133:/usr/include/newlib/c++/9.2.1/bits/alloc_traits.h ****        * <tt> pointer_traits<pointer>::rebind<const value_type> </tt>
 134:/usr/include/newlib/c++/9.2.1/bits/alloc_traits.h ****       */
 135:/usr/include/newlib/c++/9.2.1/bits/alloc_traits.h ****       using const_pointer = typename _Ptr<__c_pointer, const value_type>::type;
 136:/usr/include/newlib/c++/9.2.1/bits/alloc_traits.h **** 
 137:/usr/include/newlib/c++/9.2.1/bits/alloc_traits.h ****       /**
 138:/usr/include/newlib/c++/9.2.1/bits/alloc_traits.h ****        * @brief   The allocator's void pointer type.
 139:/usr/include/newlib/c++/9.2.1/bits/alloc_traits.h ****        *
 140:/usr/include/newlib/c++/9.2.1/bits/alloc_traits.h ****        * @c Alloc::void_pointer if that type exists, otherwise
 141:/usr/include/newlib/c++/9.2.1/bits/alloc_traits.h ****        * <tt> pointer_traits<pointer>::rebind<void> </tt>
 142:/usr/include/newlib/c++/9.2.1/bits/alloc_traits.h ****       */
 143:/usr/include/newlib/c++/9.2.1/bits/alloc_traits.h ****       using void_pointer = typename _Ptr<__v_pointer, void>::type;
 144:/usr/include/newlib/c++/9.2.1/bits/alloc_traits.h **** 
 145:/usr/include/newlib/c++/9.2.1/bits/alloc_traits.h ****       /**
 146:/usr/include/newlib/c++/9.2.1/bits/alloc_traits.h ****        * @brief   The allocator's const void pointer type.
 147:/usr/include/newlib/c++/9.2.1/bits/alloc_traits.h ****        *
 148:/usr/include/newlib/c++/9.2.1/bits/alloc_traits.h ****        * @c Alloc::const_void_pointer if that type exists, otherwise
 149:/usr/include/newlib/c++/9.2.1/bits/alloc_traits.h ****        * <tt> pointer_traits<pointer>::rebind<const void> </tt>
 150:/usr/include/newlib/c++/9.2.1/bits/alloc_traits.h ****       */
 151:/usr/include/newlib/c++/9.2.1/bits/alloc_traits.h ****       using const_void_pointer = typename _Ptr<__cv_pointer, const void>::type;
 152:/usr/include/newlib/c++/9.2.1/bits/alloc_traits.h **** 
 153:/usr/include/newlib/c++/9.2.1/bits/alloc_traits.h ****       /**
 154:/usr/include/newlib/c++/9.2.1/bits/alloc_traits.h ****        * @brief   The allocator's difference type
 155:/usr/include/newlib/c++/9.2.1/bits/alloc_traits.h ****        *
 156:/usr/include/newlib/c++/9.2.1/bits/alloc_traits.h ****        * @c Alloc::difference_type if that type exists, otherwise
 157:/usr/include/newlib/c++/9.2.1/bits/alloc_traits.h ****        * <tt> pointer_traits<pointer>::difference_type </tt>
 158:/usr/include/newlib/c++/9.2.1/bits/alloc_traits.h ****       */
 159:/usr/include/newlib/c++/9.2.1/bits/alloc_traits.h ****       using difference_type = typename _Diff<_Alloc, pointer>::type;
 160:/usr/include/newlib/c++/9.2.1/bits/alloc_traits.h **** 
 161:/usr/include/newlib/c++/9.2.1/bits/alloc_traits.h ****       /**
 162:/usr/include/newlib/c++/9.2.1/bits/alloc_traits.h ****        * @brief   The allocator's size type
 163:/usr/include/newlib/c++/9.2.1/bits/alloc_traits.h ****        *
 164:/usr/include/newlib/c++/9.2.1/bits/alloc_traits.h ****        * @c Alloc::size_type if that type exists, otherwise
 165:/usr/include/newlib/c++/9.2.1/bits/alloc_traits.h ****        * <tt> make_unsigned<difference_type>::type </tt>
 166:/usr/include/newlib/c++/9.2.1/bits/alloc_traits.h ****       */
 167:/usr/include/newlib/c++/9.2.1/bits/alloc_traits.h ****       using size_type = typename _Size<_Alloc, difference_type>::type;
 168:/usr/include/newlib/c++/9.2.1/bits/alloc_traits.h **** 
 169:/usr/include/newlib/c++/9.2.1/bits/alloc_traits.h ****       /**
 170:/usr/include/newlib/c++/9.2.1/bits/alloc_traits.h ****        * @brief   How the allocator is propagated on copy assignment
 171:/usr/include/newlib/c++/9.2.1/bits/alloc_traits.h ****        *
 172:/usr/include/newlib/c++/9.2.1/bits/alloc_traits.h ****        * @c Alloc::propagate_on_container_copy_assignment if that type exists,
 173:/usr/include/newlib/c++/9.2.1/bits/alloc_traits.h ****        * otherwise @c false_type
 174:/usr/include/newlib/c++/9.2.1/bits/alloc_traits.h ****       */
 175:/usr/include/newlib/c++/9.2.1/bits/alloc_traits.h ****       using propagate_on_container_copy_assignment
 176:/usr/include/newlib/c++/9.2.1/bits/alloc_traits.h **** 	= __detected_or_t<false_type, __pocca, _Alloc>;
 177:/usr/include/newlib/c++/9.2.1/bits/alloc_traits.h **** 
 178:/usr/include/newlib/c++/9.2.1/bits/alloc_traits.h ****       /**
 179:/usr/include/newlib/c++/9.2.1/bits/alloc_traits.h ****        * @brief   How the allocator is propagated on move assignment
 180:/usr/include/newlib/c++/9.2.1/bits/alloc_traits.h ****        *
 181:/usr/include/newlib/c++/9.2.1/bits/alloc_traits.h ****        * @c Alloc::propagate_on_container_move_assignment if that type exists,
 182:/usr/include/newlib/c++/9.2.1/bits/alloc_traits.h ****        * otherwise @c false_type
 183:/usr/include/newlib/c++/9.2.1/bits/alloc_traits.h ****       */
 184:/usr/include/newlib/c++/9.2.1/bits/alloc_traits.h ****       using propagate_on_container_move_assignment
 185:/usr/include/newlib/c++/9.2.1/bits/alloc_traits.h **** 	= __detected_or_t<false_type, __pocma, _Alloc>;
 186:/usr/include/newlib/c++/9.2.1/bits/alloc_traits.h **** 
ARM GAS  /tmp/cc00lao6.s 			page 54


 187:/usr/include/newlib/c++/9.2.1/bits/alloc_traits.h ****       /**
 188:/usr/include/newlib/c++/9.2.1/bits/alloc_traits.h ****        * @brief   How the allocator is propagated on swap
 189:/usr/include/newlib/c++/9.2.1/bits/alloc_traits.h ****        *
 190:/usr/include/newlib/c++/9.2.1/bits/alloc_traits.h ****        * @c Alloc::propagate_on_container_swap if that type exists,
 191:/usr/include/newlib/c++/9.2.1/bits/alloc_traits.h ****        * otherwise @c false_type
 192:/usr/include/newlib/c++/9.2.1/bits/alloc_traits.h ****       */
 193:/usr/include/newlib/c++/9.2.1/bits/alloc_traits.h ****       using propagate_on_container_swap
 194:/usr/include/newlib/c++/9.2.1/bits/alloc_traits.h **** 	= __detected_or_t<false_type, __pocs, _Alloc>;
 195:/usr/include/newlib/c++/9.2.1/bits/alloc_traits.h **** 
 196:/usr/include/newlib/c++/9.2.1/bits/alloc_traits.h ****       /**
 197:/usr/include/newlib/c++/9.2.1/bits/alloc_traits.h ****        * @brief   Whether all instances of the allocator type compare equal.
 198:/usr/include/newlib/c++/9.2.1/bits/alloc_traits.h ****        *
 199:/usr/include/newlib/c++/9.2.1/bits/alloc_traits.h ****        * @c Alloc::is_always_equal if that type exists,
 200:/usr/include/newlib/c++/9.2.1/bits/alloc_traits.h ****        * otherwise @c is_empty<Alloc>::type
 201:/usr/include/newlib/c++/9.2.1/bits/alloc_traits.h ****       */
 202:/usr/include/newlib/c++/9.2.1/bits/alloc_traits.h ****       using is_always_equal
 203:/usr/include/newlib/c++/9.2.1/bits/alloc_traits.h **** 	= __detected_or_t<typename is_empty<_Alloc>::type, __equal, _Alloc>;
 204:/usr/include/newlib/c++/9.2.1/bits/alloc_traits.h **** 
 205:/usr/include/newlib/c++/9.2.1/bits/alloc_traits.h ****       template<typename _Tp>
 206:/usr/include/newlib/c++/9.2.1/bits/alloc_traits.h **** 	using rebind_alloc = __alloc_rebind<_Alloc, _Tp>;
 207:/usr/include/newlib/c++/9.2.1/bits/alloc_traits.h ****       template<typename _Tp>
 208:/usr/include/newlib/c++/9.2.1/bits/alloc_traits.h **** 	using rebind_traits = allocator_traits<rebind_alloc<_Tp>>;
 209:/usr/include/newlib/c++/9.2.1/bits/alloc_traits.h **** 
 210:/usr/include/newlib/c++/9.2.1/bits/alloc_traits.h ****     private:
 211:/usr/include/newlib/c++/9.2.1/bits/alloc_traits.h ****       template<typename _Alloc2>
 212:/usr/include/newlib/c++/9.2.1/bits/alloc_traits.h **** 	static auto
 213:/usr/include/newlib/c++/9.2.1/bits/alloc_traits.h **** 	_S_allocate(_Alloc2& __a, size_type __n, const_void_pointer __hint, int)
 214:/usr/include/newlib/c++/9.2.1/bits/alloc_traits.h **** 	-> decltype(__a.allocate(__n, __hint))
 215:/usr/include/newlib/c++/9.2.1/bits/alloc_traits.h **** 	{ return __a.allocate(__n, __hint); }
 216:/usr/include/newlib/c++/9.2.1/bits/alloc_traits.h **** 
 217:/usr/include/newlib/c++/9.2.1/bits/alloc_traits.h ****       template<typename _Alloc2>
 218:/usr/include/newlib/c++/9.2.1/bits/alloc_traits.h **** 	static pointer
 219:/usr/include/newlib/c++/9.2.1/bits/alloc_traits.h **** 	_S_allocate(_Alloc2& __a, size_type __n, const_void_pointer, ...)
 220:/usr/include/newlib/c++/9.2.1/bits/alloc_traits.h **** 	{ return __a.allocate(__n); }
 221:/usr/include/newlib/c++/9.2.1/bits/alloc_traits.h **** 
 222:/usr/include/newlib/c++/9.2.1/bits/alloc_traits.h ****       template<typename _Tp, typename... _Args>
 223:/usr/include/newlib/c++/9.2.1/bits/alloc_traits.h **** 	struct __construct_helper
 224:/usr/include/newlib/c++/9.2.1/bits/alloc_traits.h **** 	{
 225:/usr/include/newlib/c++/9.2.1/bits/alloc_traits.h **** 	  template<typename _Alloc2,
 226:/usr/include/newlib/c++/9.2.1/bits/alloc_traits.h **** 	    typename = decltype(std::declval<_Alloc2*>()->construct(
 227:/usr/include/newlib/c++/9.2.1/bits/alloc_traits.h **** 		  std::declval<_Tp*>(), std::declval<_Args>()...))>
 228:/usr/include/newlib/c++/9.2.1/bits/alloc_traits.h **** 	    static true_type __test(int);
 229:/usr/include/newlib/c++/9.2.1/bits/alloc_traits.h **** 
 230:/usr/include/newlib/c++/9.2.1/bits/alloc_traits.h **** 	  template<typename>
 231:/usr/include/newlib/c++/9.2.1/bits/alloc_traits.h **** 	    static false_type __test(...);
 232:/usr/include/newlib/c++/9.2.1/bits/alloc_traits.h **** 
