ARM GAS  /tmp/ccBZcq6P.s 			page 1


   1              		.cpu cortex-m7
   2              		.eabi_attribute 28, 1
   3              		.eabi_attribute 20, 1
   4              		.eabi_attribute 21, 1
   5              		.eabi_attribute 23, 3
   6              		.eabi_attribute 24, 1
   7              		.eabi_attribute 25, 1
   8              		.eabi_attribute 26, 1
   9              		.eabi_attribute 30, 2
  10              		.eabi_attribute 34, 1
  11              		.eabi_attribute 18, 4
  12              		.file	"flanger.cpp"
  13              		.text
  14              	.Ltext0:
  15              		.cfi_sections	.debug_frame
  16              		.section	.text._ZN5daisy9DaisySeedD2Ev,"axG",%progbits,_ZN5daisy9DaisySeedD5Ev,comdat
  17              		.align	1
  18              		.p2align 2,,3
  19              		.weak	_ZN5daisy9DaisySeedD2Ev
  20              		.arch armv7e-m
  21              		.syntax unified
  22              		.thumb
  23              		.thumb_func
  24              		.fpu fpv5-d16
  26              	_ZN5daisy9DaisySeedD2Ev:
  27              	.LVL0:
  28              	.LFB2037:
  29              		.file 1 "../../libdaisy/src/daisy_seed.h"
   1:../../libdaisy/src/daisy_seed.h **** #pragma once
   2:../../libdaisy/src/daisy_seed.h **** #ifndef DSY_SEED_H
   3:../../libdaisy/src/daisy_seed.h **** #define DSY_SEED_H
   4:../../libdaisy/src/daisy_seed.h **** 
   5:../../libdaisy/src/daisy_seed.h **** #include "daisy.h"
   6:../../libdaisy/src/daisy_seed.h **** 
   7:../../libdaisy/src/daisy_seed.h **** //Uncomment this out if you're still using the rev2 hardware
   8:../../libdaisy/src/daisy_seed.h **** //#define SEED_REV2
   9:../../libdaisy/src/daisy_seed.h **** 
  10:../../libdaisy/src/daisy_seed.h **** namespace daisy
  11:../../libdaisy/src/daisy_seed.h **** {
  12:../../libdaisy/src/daisy_seed.h **** /**
  13:../../libdaisy/src/daisy_seed.h ****    @brief This is the higher-level interface for the Daisy board. \n 
  14:../../libdaisy/src/daisy_seed.h ****     All basic peripheral configuration/initialization is setup here. \n
  15:../../libdaisy/src/daisy_seed.h **** 
  16:../../libdaisy/src/daisy_seed.h ****    @ingroup boards
  17:../../libdaisy/src/daisy_seed.h **** */
  18:../../libdaisy/src/daisy_seed.h **** class DaisySeed
  19:../../libdaisy/src/daisy_seed.h **** {
  20:../../libdaisy/src/daisy_seed.h ****   public:
  21:../../libdaisy/src/daisy_seed.h ****     DaisySeed() {}
  22:../../libdaisy/src/daisy_seed.h ****     ~DaisySeed() {}
  30              		.loc 1 22 5 view -0
  31              		.cfi_startproc
  32              		@ args = 0, pretend = 0, frame = 0
  33              		@ frame_needed = 0, uses_anonymous_args = 0
  34              		@ link register save eliminated.
  35              	.LBB99:
  36              	.LBI99:
ARM GAS  /tmp/ccBZcq6P.s 			page 2


  37              		.file 2 "../../libdaisy/src/sys/system.h"
   1:../../libdaisy/src/sys/system.h **** #ifndef DSY_SYSTEM_H
   2:../../libdaisy/src/sys/system.h **** #define DSY_SYSTEM_H
   3:../../libdaisy/src/sys/system.h **** 
   4:../../libdaisy/src/sys/system.h **** #ifndef UNIT_TEST // for unit tests, a dummy implementation is provided below
   5:../../libdaisy/src/sys/system.h **** 
   6:../../libdaisy/src/sys/system.h **** #include <cstdint>
   7:../../libdaisy/src/sys/system.h **** #include "per/tim.h"
   8:../../libdaisy/src/sys/system.h **** 
   9:../../libdaisy/src/sys/system.h **** namespace daisy
  10:../../libdaisy/src/sys/system.h **** {
  11:../../libdaisy/src/sys/system.h **** /** A handle for interacting with the Core System. 
  12:../../libdaisy/src/sys/system.h ****  ** This includes the Clock tree, MPU, global DMA initialization,
  13:../../libdaisy/src/sys/system.h ****  ** cache handling, and any other necessary global initiailzation
  14:../../libdaisy/src/sys/system.h ****  **
  15:../../libdaisy/src/sys/system.h ****  ** @author shensley
  16:../../libdaisy/src/sys/system.h ****  ** @addtogroup system
  17:../../libdaisy/src/sys/system.h ****  */
  18:../../libdaisy/src/sys/system.h **** class System
  19:../../libdaisy/src/sys/system.h **** {
  20:../../libdaisy/src/sys/system.h ****   public:
  21:../../libdaisy/src/sys/system.h ****     /** Contains settings for initializing the System */
  22:../../libdaisy/src/sys/system.h ****     struct Config
  23:../../libdaisy/src/sys/system.h ****     {
  24:../../libdaisy/src/sys/system.h ****         /** Specifies the system clock frequency that feeds APB/AHB clocks, etc. */
  25:../../libdaisy/src/sys/system.h ****         enum class SysClkFreq
  26:../../libdaisy/src/sys/system.h ****         {
  27:../../libdaisy/src/sys/system.h ****             FREQ_400MHZ,
  28:../../libdaisy/src/sys/system.h ****             FREQ_480MHZ,
  29:../../libdaisy/src/sys/system.h ****         };
  30:../../libdaisy/src/sys/system.h **** 
  31:../../libdaisy/src/sys/system.h ****         /** Method to call on the struct to set to defaults
  32:../../libdaisy/src/sys/system.h ****          ** CPU Freq set to 400MHz
  33:../../libdaisy/src/sys/system.h ****          ** Cache Enabled 
  34:../../libdaisy/src/sys/system.h ****          ** */
  35:../../libdaisy/src/sys/system.h ****         void Defaults()
  36:../../libdaisy/src/sys/system.h ****         {
  37:../../libdaisy/src/sys/system.h ****             cpu_freq   = SysClkFreq::FREQ_400MHZ;
  38:../../libdaisy/src/sys/system.h ****             use_dcache = true;
  39:../../libdaisy/src/sys/system.h ****             use_icache = true;
  40:../../libdaisy/src/sys/system.h ****         }
  41:../../libdaisy/src/sys/system.h **** 
  42:../../libdaisy/src/sys/system.h ****         /** Method to call on the struct to set to boost mode:
  43:../../libdaisy/src/sys/system.h ****          ** CPU Freq set to 480MHz
  44:../../libdaisy/src/sys/system.h ****          ** Cache Enabled 
  45:../../libdaisy/src/sys/system.h ****          ** */
  46:../../libdaisy/src/sys/system.h ****         void Boost()
  47:../../libdaisy/src/sys/system.h ****         {
  48:../../libdaisy/src/sys/system.h ****             cpu_freq   = SysClkFreq::FREQ_480MHZ;
  49:../../libdaisy/src/sys/system.h ****             use_dcache = true;
  50:../../libdaisy/src/sys/system.h ****             use_icache = true;
  51:../../libdaisy/src/sys/system.h ****         }
  52:../../libdaisy/src/sys/system.h **** 
  53:../../libdaisy/src/sys/system.h ****         SysClkFreq cpu_freq;
  54:../../libdaisy/src/sys/system.h ****         bool       use_dcache;
  55:../../libdaisy/src/sys/system.h ****         bool       use_icache;
  56:../../libdaisy/src/sys/system.h ****     };
ARM GAS  /tmp/ccBZcq6P.s 			page 3


  57:../../libdaisy/src/sys/system.h **** 
  58:../../libdaisy/src/sys/system.h ****     System() {}
  59:../../libdaisy/src/sys/system.h ****     ~System() {}
  38              		.loc 2 59 5 view .LVU1
  39              		.loc 2 59 5 is_stmt 0 view .LVU2
  40              	.LBE99:
  41              	.LBB100:
  42              	.LBI100:
  43              		.file 3 "../../libdaisy/src/hid/usb.h"
   1:../../libdaisy/src/hid/usb.h **** #pragma once
   2:../../libdaisy/src/hid/usb.h **** #ifndef DSY_HID_USB_H
   3:../../libdaisy/src/hid/usb.h **** #define DSY_HID_USB_H
   4:../../libdaisy/src/hid/usb.h **** #include <stdint.h>
   5:../../libdaisy/src/hid/usb.h **** #include <stdlib.h>
   6:../../libdaisy/src/hid/usb.h **** 
   7:../../libdaisy/src/hid/usb.h **** namespace daisy
   8:../../libdaisy/src/hid/usb.h **** /** @addtogroup externals
   9:../../libdaisy/src/hid/usb.h ****     @{
  10:../../libdaisy/src/hid/usb.h **** */
  11:../../libdaisy/src/hid/usb.h **** 
  12:../../libdaisy/src/hid/usb.h **** {
  13:../../libdaisy/src/hid/usb.h **** /** 
  14:../../libdaisy/src/hid/usb.h ****     @brief Interface for initializing and using the USB Peripherals on the daisy
  15:../../libdaisy/src/hid/usb.h ****     @author Stephen Hensley
  16:../../libdaisy/src/hid/usb.h ****     @date December 2019
  17:../../libdaisy/src/hid/usb.h **** */
  18:../../libdaisy/src/hid/usb.h **** class UsbHandle
  19:../../libdaisy/src/hid/usb.h **** {
  20:../../libdaisy/src/hid/usb.h ****   public:
  21:../../libdaisy/src/hid/usb.h ****     /** Return values for USBHandle Functions */
  22:../../libdaisy/src/hid/usb.h ****     enum class Result
  23:../../libdaisy/src/hid/usb.h ****     {
  24:../../libdaisy/src/hid/usb.h ****         OK,
  25:../../libdaisy/src/hid/usb.h ****         ERR,
  26:../../libdaisy/src/hid/usb.h ****     };
  27:../../libdaisy/src/hid/usb.h **** 
  28:../../libdaisy/src/hid/usb.h ****     /** Specified which of the two USB Peripherals to initialize. */
  29:../../libdaisy/src/hid/usb.h ****     enum UsbPeriph
  30:../../libdaisy/src/hid/usb.h ****     {
  31:../../libdaisy/src/hid/usb.h ****         FS_INTERNAL, /**< Internal pin */
  32:../../libdaisy/src/hid/usb.h ****         FS_EXTERNAL, /**< FS External D+ pin is Pin 38 (GPIO32). FS External D- pin is Pin 37 (GPIO
  33:../../libdaisy/src/hid/usb.h ****         FS_BOTH,     /**< Both */
  34:../../libdaisy/src/hid/usb.h ****     };
  35:../../libdaisy/src/hid/usb.h **** 
  36:../../libdaisy/src/hid/usb.h **** 
  37:../../libdaisy/src/hid/usb.h ****     /** Function called upon reception of a buffer */
  38:../../libdaisy/src/hid/usb.h ****     typedef void (*ReceiveCallback)(uint8_t* buff, uint32_t* len);
  39:../../libdaisy/src/hid/usb.h **** 
  40:../../libdaisy/src/hid/usb.h ****     UsbHandle() {}
  41:../../libdaisy/src/hid/usb.h **** 
  42:../../libdaisy/src/hid/usb.h ****     ~UsbHandle() {}
  44              		.loc 3 42 5 is_stmt 1 view .LVU3
  45              		.loc 3 42 5 is_stmt 0 view .LVU4
  46              	.LBE100:
  47              	.LBB101:
  48              	.LBI101:
  49              		.file 4 "../../libdaisy/src/per/adc.h"
ARM GAS  /tmp/ccBZcq6P.s 			page 4


   1:../../libdaisy/src/per/adc.h **** #pragma once
   2:../../libdaisy/src/per/adc.h **** #ifndef DSY_ADC_H
   3:../../libdaisy/src/per/adc.h **** #define DSY_ADC_H /**< Macro */
   4:../../libdaisy/src/per/adc.h **** #include <stdint.h>
   5:../../libdaisy/src/per/adc.h **** #include <stdlib.h>
   6:../../libdaisy/src/per/adc.h **** #include "daisy_core.h"
   7:../../libdaisy/src/per/adc.h **** #include "per/gpio.h"
   8:../../libdaisy/src/per/adc.h **** 
   9:../../libdaisy/src/per/adc.h **** #define DSY_ADC_MAX_CHANNELS 14 /**< Maximum number of ADC channels */
  10:../../libdaisy/src/per/adc.h **** 
  11:../../libdaisy/src/per/adc.h **** namespace daisy
  12:../../libdaisy/src/per/adc.h **** {
  13:../../libdaisy/src/per/adc.h **** /** @addtogroup analog_digital_conversion
  14:../../libdaisy/src/per/adc.h ****     @{
  15:../../libdaisy/src/per/adc.h **** */
  16:../../libdaisy/src/per/adc.h **** 
  17:../../libdaisy/src/per/adc.h **** /* While there may not be many configuration options here,
  18:../../libdaisy/src/per/adc.h **** using a struct like this allows us to add more configuration
  19:../../libdaisy/src/per/adc.h **** later without breaking existing functionality.
  20:../../libdaisy/src/per/adc.h **** */
  21:../../libdaisy/src/per/adc.h **** 
  22:../../libdaisy/src/per/adc.h **** /** Configuration Structure for a given channel */
  23:../../libdaisy/src/per/adc.h **** struct AdcChannelConfig
  24:../../libdaisy/src/per/adc.h **** {
  25:../../libdaisy/src/per/adc.h ****     /** Which pin to use for multiplexing */
  26:../../libdaisy/src/per/adc.h ****     enum MuxPin
  27:../../libdaisy/src/per/adc.h ****     {
  28:../../libdaisy/src/per/adc.h ****         MUX_SEL_0,    /**< & */
  29:../../libdaisy/src/per/adc.h ****         MUX_SEL_1,    /**< & */
  30:../../libdaisy/src/per/adc.h ****         MUX_SEL_2,    /**< & */
  31:../../libdaisy/src/per/adc.h ****         MUX_SEL_LAST, /**< & */
  32:../../libdaisy/src/per/adc.h ****     };
  33:../../libdaisy/src/per/adc.h **** 
  34:../../libdaisy/src/per/adc.h ****     /** Initializes a single ADC pin as an ADC. 
  35:../../libdaisy/src/per/adc.h ****     \param pin Pin to init.
  36:../../libdaisy/src/per/adc.h ****      */
  37:../../libdaisy/src/per/adc.h ****     void InitSingle(dsy_gpio_pin pin);
  38:../../libdaisy/src/per/adc.h **** 
  39:../../libdaisy/src/per/adc.h ****     /** 
  40:../../libdaisy/src/per/adc.h ****     Initializes a single ADC pin as a Multiplexed ADC.
  41:../../libdaisy/src/per/adc.h ****     Requires a CD405X Multiplexer connected to the pin.
  42:../../libdaisy/src/per/adc.h ****     You only need to supply the mux pins that are required,
  43:../../libdaisy/src/per/adc.h ****     e.g. a 4052 mux would only require mux_0 and mux_1.
  44:../../libdaisy/src/per/adc.h ****     Internal Callbacks handle the pin addressing.
  45:../../libdaisy/src/per/adc.h ****     \param mux_channels must be 1-8
  46:../../libdaisy/src/per/adc.h ****     \param mux_0 First mux pin
  47:../../libdaisy/src/per/adc.h ****     \param mux_1 Second mux pin
  48:../../libdaisy/src/per/adc.h ****     \param mux_2 Third mux pin
  49:../../libdaisy/src/per/adc.h ****     \param adc_pin &
  50:../../libdaisy/src/per/adc.h ****     */
  51:../../libdaisy/src/per/adc.h ****     void InitMux(dsy_gpio_pin adc_pin,
  52:../../libdaisy/src/per/adc.h ****                  size_t       mux_channels,
  53:../../libdaisy/src/per/adc.h ****                  dsy_gpio_pin mux_0,
  54:../../libdaisy/src/per/adc.h ****                  dsy_gpio_pin mux_1 = {DSY_GPIOX, 0},
  55:../../libdaisy/src/per/adc.h ****                  dsy_gpio_pin mux_2 = {DSY_GPIOX, 0});
  56:../../libdaisy/src/per/adc.h **** 
  57:../../libdaisy/src/per/adc.h ****     dsy_gpio pin_;                   /**< & */
ARM GAS  /tmp/ccBZcq6P.s 			page 5


  58:../../libdaisy/src/per/adc.h ****     dsy_gpio mux_pin_[MUX_SEL_LAST]; /**< & */
  59:../../libdaisy/src/per/adc.h ****     uint8_t  mux_channels_;          /**< & */
  60:../../libdaisy/src/per/adc.h **** };
  61:../../libdaisy/src/per/adc.h **** 
  62:../../libdaisy/src/per/adc.h **** /**
  63:../../libdaisy/src/per/adc.h ****    Handler for analog to digital conversion
  64:../../libdaisy/src/per/adc.h **** */
  65:../../libdaisy/src/per/adc.h **** class AdcHandle
  66:../../libdaisy/src/per/adc.h **** {
  67:../../libdaisy/src/per/adc.h ****   public:
  68:../../libdaisy/src/per/adc.h ****     /** Supported oversampling amounts */
  69:../../libdaisy/src/per/adc.h ****     enum OverSampling
  70:../../libdaisy/src/per/adc.h ****     {
  71:../../libdaisy/src/per/adc.h ****         OVS_NONE, /**< & */
  72:../../libdaisy/src/per/adc.h ****         OVS_4,    /**< & */
  73:../../libdaisy/src/per/adc.h ****         OVS_8,    /**< & */
  74:../../libdaisy/src/per/adc.h ****         OVS_16,   /**< & */
  75:../../libdaisy/src/per/adc.h ****         OVS_32,   /**< & */
  76:../../libdaisy/src/per/adc.h ****         OVS_64,   /**< & */
  77:../../libdaisy/src/per/adc.h ****         OVS_128,  /**< & */
  78:../../libdaisy/src/per/adc.h ****         OVS_256,  /**< & */
  79:../../libdaisy/src/per/adc.h ****         OVS_512,  /**< & */
  80:../../libdaisy/src/per/adc.h ****         OVS_1024, /**< & */
  81:../../libdaisy/src/per/adc.h ****         OVS_LAST, /**< & */
  82:../../libdaisy/src/per/adc.h ****     };
  83:../../libdaisy/src/per/adc.h **** 
  84:../../libdaisy/src/per/adc.h ****     AdcHandle() {}
  85:../../libdaisy/src/per/adc.h ****     ~AdcHandle() {}
  50              		.loc 4 85 5 is_stmt 1 view .LVU5
  51              		.loc 4 85 5 is_stmt 0 view .LVU6
  52              	.LBE101:
  53              	.LBB102:
  54              	.LBI102:
  55              		.file 5 "../../libdaisy/src/hid/audio.h"
   1:../../libdaisy/src/hid/audio.h **** #ifndef DSY_AUDIO_H
   2:../../libdaisy/src/hid/audio.h **** #define DSY_AUDIO_H /**< & */
   3:../../libdaisy/src/hid/audio.h **** 
   4:../../libdaisy/src/hid/audio.h **** #include "per/sai.h"
   5:../../libdaisy/src/hid/audio.h **** 
   6:../../libdaisy/src/hid/audio.h **** namespace daisy
   7:../../libdaisy/src/hid/audio.h **** {
   8:../../libdaisy/src/hid/audio.h **** class AudioHandle
   9:../../libdaisy/src/hid/audio.h **** {
  10:../../libdaisy/src/hid/audio.h ****   public:
  11:../../libdaisy/src/hid/audio.h ****     /** Manually configurable details about the Audio Engine */
  12:../../libdaisy/src/hid/audio.h ****     /** TODO: Figure out how to get samplerate in here. */
  13:../../libdaisy/src/hid/audio.h ****     struct Config
  14:../../libdaisy/src/hid/audio.h ****     {
  15:../../libdaisy/src/hid/audio.h ****         size_t                        blocksize;
  16:../../libdaisy/src/hid/audio.h ****         SaiHandle::Config::SampleRate samplerate;
  17:../../libdaisy/src/hid/audio.h ****         float                         postgain;
  18:../../libdaisy/src/hid/audio.h ****     };
  19:../../libdaisy/src/hid/audio.h **** 
  20:../../libdaisy/src/hid/audio.h ****     enum class Result
  21:../../libdaisy/src/hid/audio.h ****     {
  22:../../libdaisy/src/hid/audio.h ****         OK,
  23:../../libdaisy/src/hid/audio.h ****         ERR,
ARM GAS  /tmp/ccBZcq6P.s 			page 6


  24:../../libdaisy/src/hid/audio.h ****     };
  25:../../libdaisy/src/hid/audio.h **** 
  26:../../libdaisy/src/hid/audio.h ****     /** Non-Interleaving input buffer
  27:../../libdaisy/src/hid/audio.h ****      * Buffer arranged by float[chn][sample] 
  28:../../libdaisy/src/hid/audio.h ****      * const so that the user can't modify the input
  29:../../libdaisy/src/hid/audio.h ****     */
  30:../../libdaisy/src/hid/audio.h ****     typedef const float* const* InputBuffer;
  31:../../libdaisy/src/hid/audio.h **** 
  32:../../libdaisy/src/hid/audio.h ****     /** Non-Interleaving output buffer
  33:../../libdaisy/src/hid/audio.h ****      * Arranged by float[chn][sample] 
  34:../../libdaisy/src/hid/audio.h ****     */
  35:../../libdaisy/src/hid/audio.h ****     typedef float** OutputBuffer;
  36:../../libdaisy/src/hid/audio.h **** 
  37:../../libdaisy/src/hid/audio.h ****     /** Type for a Non-Interleaving audio callback 
  38:../../libdaisy/src/hid/audio.h ****    * Non-Interleaving audio callbacks in daisy will be of this type
  39:../../libdaisy/src/hid/audio.h ****   */
  40:../../libdaisy/src/hid/audio.h ****     typedef void (*AudioCallback)(InputBuffer  in,
  41:../../libdaisy/src/hid/audio.h ****                                   OutputBuffer out,
  42:../../libdaisy/src/hid/audio.h ****                                   size_t       size);
  43:../../libdaisy/src/hid/audio.h **** 
  44:../../libdaisy/src/hid/audio.h ****     /** Interleaving Input buffer
  45:../../libdaisy/src/hid/audio.h ****      ** audio is prepared as { L0, R0, L1, R1, . . . LN, RN }]
  46:../../libdaisy/src/hid/audio.h ****      ** this is const, as the user shouldn't modify it
  47:../../libdaisy/src/hid/audio.h ****     */
  48:../../libdaisy/src/hid/audio.h ****     typedef const float* InterleavingInputBuffer;
  49:../../libdaisy/src/hid/audio.h **** 
  50:../../libdaisy/src/hid/audio.h ****     /** Interleaving Output buffer 
  51:../../libdaisy/src/hid/audio.h ****      ** audio is prepared as { L0, R0, L1, R1, . . . LN, RN }
  52:../../libdaisy/src/hid/audio.h ****     */
  53:../../libdaisy/src/hid/audio.h ****     typedef float* InterleavingOutputBuffer;
  54:../../libdaisy/src/hid/audio.h **** 
  55:../../libdaisy/src/hid/audio.h ****     /** Interleaving Audio Callback 
  56:../../libdaisy/src/hid/audio.h ****    * Interleaving audio callbacks in daisy must be of this type
  57:../../libdaisy/src/hid/audio.h ****   */
  58:../../libdaisy/src/hid/audio.h ****     typedef void (*InterleavingAudioCallback)(InterleavingInputBuffer  in,
  59:../../libdaisy/src/hid/audio.h ****                                               InterleavingOutputBuffer out,
  60:../../libdaisy/src/hid/audio.h ****                                               size_t                   size);
  61:../../libdaisy/src/hid/audio.h **** 
  62:../../libdaisy/src/hid/audio.h ****     AudioHandle() : pimpl_(nullptr) {}
  63:../../libdaisy/src/hid/audio.h ****     ~AudioHandle() {}
  56              		.loc 5 63 5 is_stmt 1 view .LVU7
  57              		.loc 5 63 5 is_stmt 0 view .LVU8
  58              	.LBE102:
  59              		.loc 1 22 19 view .LVU9
  60 0000 7047     		bx	lr
  61              		.cfi_endproc
  62              	.LFE2037:
  64              		.weak	_ZN5daisy9DaisySeedD1Ev
  65              		.thumb_set _ZN5daisy9DaisySeedD1Ev,_ZN5daisy9DaisySeedD2Ev
  66 0002 00BF     		.section	.text._ZN7daisysp10OscillatorD2Ev,"axG",%progbits,_ZN7daisysp10OscillatorD5Ev,comdat
  67              		.align	1
  68              		.p2align 2,,3
  69              		.weak	_ZN7daisysp10OscillatorD2Ev
  70              		.syntax unified
  71              		.thumb
  72              		.thumb_func
  73              		.fpu fpv5-d16
ARM GAS  /tmp/ccBZcq6P.s 			page 7


  75              	_ZN7daisysp10OscillatorD2Ev:
  76              	.LVL1:
  77              	.LFB3674:
  78              		.file 6 "../../DaisySP/Source/Synthesis/oscillator.h"
   1:../../DaisySP/Source/Synthesis/oscillator.h **** #pragma once
   2:../../DaisySP/Source/Synthesis/oscillator.h **** #ifndef DSY_OSCILLATOR_H
   3:../../DaisySP/Source/Synthesis/oscillator.h **** #define DSY_OSCILLATOR_H
   4:../../DaisySP/Source/Synthesis/oscillator.h **** #include <stdint.h>
   5:../../DaisySP/Source/Synthesis/oscillator.h **** #include "Utility/dsp.h"
   6:../../DaisySP/Source/Synthesis/oscillator.h **** #ifdef __cplusplus
   7:../../DaisySP/Source/Synthesis/oscillator.h **** 
   8:../../DaisySP/Source/Synthesis/oscillator.h **** namespace daisysp
   9:../../DaisySP/Source/Synthesis/oscillator.h **** {
  10:../../DaisySP/Source/Synthesis/oscillator.h **** /** Synthesis of several waveforms, including polyBLEP bandlimited waveforms.
  11:../../DaisySP/Source/Synthesis/oscillator.h **** */
  12:../../DaisySP/Source/Synthesis/oscillator.h **** class Oscillator
  13:../../DaisySP/Source/Synthesis/oscillator.h **** {
  14:../../DaisySP/Source/Synthesis/oscillator.h ****   public:
  15:../../DaisySP/Source/Synthesis/oscillator.h ****     Oscillator() {}
  16:../../DaisySP/Source/Synthesis/oscillator.h ****     ~Oscillator() {}
  79              		.loc 6 16 5 is_stmt 1 view -0
  80              		.cfi_startproc
  81              		@ args = 0, pretend = 0, frame = 0
  82              		@ frame_needed = 0, uses_anonymous_args = 0
  83              		@ link register save eliminated.
  84              		.loc 6 16 20 is_stmt 0 view .LVU11
  85 0000 7047     		bx	lr
  86              		.cfi_endproc
  87              	.LFE3674:
  89              		.weak	_ZN7daisysp10OscillatorD1Ev
  90              		.thumb_set _ZN7daisysp10OscillatorD1Ev,_ZN7daisysp10OscillatorD2Ev
  91 0002 00BF     		.section	.text._ZN7daisysp5MetroD2Ev,"axG",%progbits,_ZN7daisysp5MetroD5Ev,comdat
  92              		.align	1
  93              		.p2align 2,,3
  94              		.weak	_ZN7daisysp5MetroD2Ev
  95              		.syntax unified
  96              		.thumb
  97              		.thumb_func
  98              		.fpu fpv5-d16
 100              	_ZN7daisysp5MetroD2Ev:
 101              	.LVL2:
 102              	.LFB4183:
 103              		.file 7 "../../DaisySP/Source/Utility/metro.h"
   1:../../DaisySP/Source/Utility/metro.h **** #pragma once
   2:../../DaisySP/Source/Utility/metro.h **** #ifndef DSY_METRO_H
   3:../../DaisySP/Source/Utility/metro.h **** #define DSY_METRO_H
   4:../../DaisySP/Source/Utility/metro.h **** #include <stdint.h>
   5:../../DaisySP/Source/Utility/metro.h **** #ifdef __cplusplus
   6:../../DaisySP/Source/Utility/metro.h **** 
   7:../../DaisySP/Source/Utility/metro.h **** namespace daisysp
   8:../../DaisySP/Source/Utility/metro.h **** {
   9:../../DaisySP/Source/Utility/metro.h **** /** Creates a clock signal at a specific frequency.
  10:../../DaisySP/Source/Utility/metro.h **** */
  11:../../DaisySP/Source/Utility/metro.h **** class Metro
  12:../../DaisySP/Source/Utility/metro.h **** {
  13:../../DaisySP/Source/Utility/metro.h ****   public:
  14:../../DaisySP/Source/Utility/metro.h ****     Metro() {}
ARM GAS  /tmp/ccBZcq6P.s 			page 8


  15:../../DaisySP/Source/Utility/metro.h ****     ~Metro() {}
 104              		.loc 7 15 5 is_stmt 1 view -0
 105              		.cfi_startproc
 106              		@ args = 0, pretend = 0, frame = 0
 107              		@ frame_needed = 0, uses_anonymous_args = 0
 108              		@ link register save eliminated.
 109              		.loc 7 15 15 is_stmt 0 view .LVU13
 110 0000 7047     		bx	lr
 111              		.cfi_endproc
 112              	.LFE4183:
 114              		.weak	_ZN7daisysp5MetroD1Ev
 115              		.thumb_set _ZN7daisysp5MetroD1Ev,_ZN7daisysp5MetroD2Ev
 116 0002 00BF     		.section	.text._ZN7daisysp7FlangerD2Ev,"axG",%progbits,_ZN7daisysp7FlangerD5Ev,comdat
 117              		.align	1
 118              		.p2align 2,,3
 119              		.weak	_ZN7daisysp7FlangerD2Ev
 120              		.syntax unified
 121              		.thumb
 122              		.thumb_func
 123              		.fpu fpv5-d16
 125              	_ZN7daisysp7FlangerD2Ev:
 126              	.LVL3:
 127              	.LFB4769:
 128              		.file 8 "../../DaisySP/Source/Effects/flanger.h"
   1:../../DaisySP/Source/Effects/flanger.h **** #pragma once
   2:../../DaisySP/Source/Effects/flanger.h **** #ifndef DSY_FLANGER_H
   3:../../DaisySP/Source/Effects/flanger.h **** #define DSY_FLANGER_H
   4:../../DaisySP/Source/Effects/flanger.h **** #ifdef __cplusplus
   5:../../DaisySP/Source/Effects/flanger.h **** 
   6:../../DaisySP/Source/Effects/flanger.h **** #include <stdint.h>
   7:../../DaisySP/Source/Effects/flanger.h **** #include "Utility/delayline.h"
   8:../../DaisySP/Source/Effects/flanger.h **** 
   9:../../DaisySP/Source/Effects/flanger.h **** /** @file flanger.h */
  10:../../DaisySP/Source/Effects/flanger.h **** 
  11:../../DaisySP/Source/Effects/flanger.h **** namespace daisysp
  12:../../DaisySP/Source/Effects/flanger.h **** {
  13:../../DaisySP/Source/Effects/flanger.h **** /** @brief Flanging Audio Effect 
  14:../../DaisySP/Source/Effects/flanger.h ****  *
  15:../../DaisySP/Source/Effects/flanger.h ****  * Generates a modulating phase shifted copy of a signal, and recombines
  16:../../DaisySP/Source/Effects/flanger.h ****  * with the original to create a 'flanging' sound effect.
  17:../../DaisySP/Source/Effects/flanger.h ****  */
  18:../../DaisySP/Source/Effects/flanger.h **** class Flanger
 129              		.loc 8 18 7 is_stmt 1 view -0
 130              		.cfi_startproc
 131              		@ args = 0, pretend = 0, frame = 0
 132              		@ frame_needed = 0, uses_anonymous_args = 0
 133              		@ link register save eliminated.
 134              	.LBB103:
 135              	.LBI103:
 136              		.file 9 "../../DaisySP/Source/Utility/delayline.h"
   1:../../DaisySP/Source/Utility/delayline.h **** #pragma once
   2:../../DaisySP/Source/Utility/delayline.h **** #ifndef DSY_DELAY_H
   3:../../DaisySP/Source/Utility/delayline.h **** #define DSY_DELAY_H
   4:../../DaisySP/Source/Utility/delayline.h **** #include <stdlib.h>
   5:../../DaisySP/Source/Utility/delayline.h **** #include <stdint.h>
   6:../../DaisySP/Source/Utility/delayline.h **** namespace daisysp
   7:../../DaisySP/Source/Utility/delayline.h **** {
ARM GAS  /tmp/ccBZcq6P.s 			page 9


   8:../../DaisySP/Source/Utility/delayline.h **** /** Simple Delay line.
   9:../../DaisySP/Source/Utility/delayline.h **** November 2019
  10:../../DaisySP/Source/Utility/delayline.h **** 
  11:../../DaisySP/Source/Utility/delayline.h **** Converted to Template December 2019
  12:../../DaisySP/Source/Utility/delayline.h **** 
  13:../../DaisySP/Source/Utility/delayline.h **** declaration example: (1 second of floats)
  14:../../DaisySP/Source/Utility/delayline.h **** 
  15:../../DaisySP/Source/Utility/delayline.h **** DelayLine<float, SAMPLE_RATE> del;
  16:../../DaisySP/Source/Utility/delayline.h **** 
  17:../../DaisySP/Source/Utility/delayline.h **** By: shensley
  18:../../DaisySP/Source/Utility/delayline.h **** */
  19:../../DaisySP/Source/Utility/delayline.h **** template <typename T, size_t max_size>
  20:../../DaisySP/Source/Utility/delayline.h **** class DelayLine
  21:../../DaisySP/Source/Utility/delayline.h **** {
  22:../../DaisySP/Source/Utility/delayline.h ****   public:
  23:../../DaisySP/Source/Utility/delayline.h ****     DelayLine() {}
  24:../../DaisySP/Source/Utility/delayline.h ****     ~DelayLine() {}
 137              		.loc 9 24 5 view .LVU15
 138              		.loc 9 24 5 is_stmt 0 view .LVU16
 139              	.LBE103:
 140              		.loc 8 18 7 view .LVU17
 141 0000 7047     		bx	lr
 142              		.cfi_endproc
 143              	.LFE4769:
 145              		.weak	_ZN7daisysp7FlangerD1Ev
 146              		.thumb_set _ZN7daisysp7FlangerD1Ev,_ZN7daisysp7FlangerD2Ev
 147 0002 00BF     		.section	.text._Z13AudioCallbackPKPKfPPfj,"ax",%progbits
 148              		.align	1
 149              		.p2align 2,,3
 150              		.global	_Z13AudioCallbackPKPKfPPfj
 151              		.syntax unified
 152              		.thumb
 153              		.thumb_func
 154              		.fpu fpv5-d16
 156              	_Z13AudioCallbackPKPKfPPfj:
 157              	.LVL4:
 158              	.LFB4215:
 159              		.file 10 "flanger.cpp"
   1:flanger.cpp   **** #include "daisy_seed.h"
   2:flanger.cpp   **** #include "daisysp.h"
   3:flanger.cpp   **** 
   4:flanger.cpp   **** using namespace daisy;
   5:flanger.cpp   **** using namespace daisysp;
   6:flanger.cpp   **** 
   7:flanger.cpp   **** DaisySeed  hw;
   8:flanger.cpp   **** Oscillator osc, subosc;
   9:flanger.cpp   **** Metro      tick;
  10:flanger.cpp   **** Flanger    flanger0, flanger1;
  11:flanger.cpp   **** 
  12:flanger.cpp   **** float seq[] = {
  13:flanger.cpp   ****     130.81f,
  14:flanger.cpp   ****     155.56f,
  15:flanger.cpp   ****     116.54f,
  16:flanger.cpp   ****     98.f,
  17:flanger.cpp   **** };
  18:flanger.cpp   **** int pos = 0;
  19:flanger.cpp   **** 
ARM GAS  /tmp/ccBZcq6P.s 			page 10


  20:flanger.cpp   **** void AudioCallback(AudioHandle::InputBuffer  in,
  21:flanger.cpp   ****                    AudioHandle::OutputBuffer out,
  22:flanger.cpp   ****                    size_t                    size)
  23:flanger.cpp   **** {
 160              		.loc 10 23 1 is_stmt 1 view -0
 161              		.cfi_startproc
 162              		@ args = 0, pretend = 0, frame = 0
 163              		@ frame_needed = 0, uses_anonymous_args = 0
  24:flanger.cpp   ****     for(size_t i = 0; i < size; i++)
 164              		.loc 10 24 5 view .LVU19
 165              	.LBB104:
 166              		.loc 10 24 25 view .LVU20
 167 0000 002A     		cmp	r2, #0
 168 0002 55D0     		beq	.L18
 169              	.LBE104:
  23:flanger.cpp   ****     for(size_t i = 0; i < size; i++)
 170              		.loc 10 23 1 is_stmt 0 view .LVU21
 171 0004 2DE9F84F 		push	{r3, r4, r5, r6, r7, r8, r9, r10, fp, lr}
 172              		.cfi_def_cfa_offset 40
 173              		.cfi_offset 3, -40
 174              		.cfi_offset 4, -36
 175              		.cfi_offset 5, -32
 176              		.cfi_offset 6, -28
 177              		.cfi_offset 7, -24
 178              		.cfi_offset 8, -20
 179              		.cfi_offset 9, -16
 180              		.cfi_offset 10, -12
 181              		.cfi_offset 11, -8
 182              		.cfi_offset 14, -4
 183 0008 0F46     		mov	r7, r1
 184 000a 9046     		mov	r8, r2
 185              	.LBB119:
 186              		.loc 10 24 16 view .LVU22
 187 000c 0024     		movs	r4, #0
 188 000e 17E0     		b	.L9
 189              	.LVL5:
 190              	.L8:
  25:flanger.cpp   ****     {
  26:flanger.cpp   ****         if(tick.Process())
  27:flanger.cpp   ****         {
  28:flanger.cpp   ****             pos = (pos + 1) % 4;
  29:flanger.cpp   ****             osc.SetFreq(seq[pos]);
  30:flanger.cpp   ****             subosc.SetFreq(seq[pos] * .5f);
  31:flanger.cpp   ****         }
  32:flanger.cpp   **** 
  33:flanger.cpp   ****         out[0][i] = flanger0.Process(osc.Process());
 191              		.loc 10 33 9 is_stmt 1 discriminator 2 view .LVU23
 192              		.loc 10 33 37 is_stmt 0 discriminator 2 view .LVU24
 193 0010 2848     		ldr	r0, .L22
 194 0012 FFF7FEFF 		bl	_ZN7daisysp10Oscillator7ProcessEv
 195              	.LVL6:
 196              		.loc 10 33 17 discriminator 2 view .LVU25
 197 0016 3B68     		ldr	r3, [r7]
 198              		.loc 10 33 37 discriminator 2 view .LVU26
 199 0018 2748     		ldr	r0, .L22+4
 200              		.loc 10 33 17 discriminator 2 view .LVU27
 201 001a 03EB8406 		add	r6, r3, r4, lsl #2
ARM GAS  /tmp/ccBZcq6P.s 			page 11


  24:flanger.cpp   ****     {
 202              		.loc 10 24 5 discriminator 2 view .LVU28
 203 001e 0134     		adds	r4, r4, #1
 204              	.LVL7:
 205              		.loc 10 33 37 discriminator 2 view .LVU29
 206 0020 FFF7FEFF 		bl	_ZN7daisysp7Flanger7ProcessEf
 207              	.LVL8:
  34:flanger.cpp   ****         out[1][i] = flanger1.Process(subosc.Process());
 208              		.loc 10 34 37 discriminator 2 view .LVU30
 209 0024 2548     		ldr	r0, .L22+8
  33:flanger.cpp   ****         out[1][i] = flanger1.Process(subosc.Process());
 210              		.loc 10 33 19 discriminator 2 view .LVU31
 211 0026 86ED000A 		vstr.32	s0, [r6]
 212              		.loc 10 34 9 is_stmt 1 discriminator 2 view .LVU32
 213              		.loc 10 34 37 is_stmt 0 discriminator 2 view .LVU33
 214 002a FFF7FEFF 		bl	_ZN7daisysp10Oscillator7ProcessEv
 215              	.LVL9:
 216              		.loc 10 34 17 discriminator 2 view .LVU34
 217 002e 7B68     		ldr	r3, [r7, #4]
 218              		.loc 10 34 37 discriminator 2 view .LVU35
 219 0030 2348     		ldr	r0, .L22+12
 220              		.loc 10 34 17 discriminator 2 view .LVU36
 221 0032 1D44     		add	r5, r5, r3
 222              		.loc 10 34 37 discriminator 2 view .LVU37
 223 0034 FFF7FEFF 		bl	_ZN7daisysp7Flanger7ProcessEf
 224              	.LVL10:
  24:flanger.cpp   ****     {
 225              		.loc 10 24 25 discriminator 2 view .LVU38
 226 0038 A045     		cmp	r8, r4
 227              		.loc 10 34 19 discriminator 2 view .LVU39
 228 003a 85ED000A 		vstr.32	s0, [r5]
  24:flanger.cpp   ****     {
 229              		.loc 10 24 5 is_stmt 1 discriminator 2 view .LVU40
 230              	.LVL11:
  24:flanger.cpp   ****     {
 231              		.loc 10 24 25 discriminator 2 view .LVU41
 232 003e 35D0     		beq	.L21
 233              	.LVL12:
 234              	.L9:
  26:flanger.cpp   ****         {
 235              		.loc 10 26 9 view .LVU42
  26:flanger.cpp   ****         {
 236              		.loc 10 26 24 is_stmt 0 view .LVU43
 237 0040 2048     		ldr	r0, .L22+16
 238 0042 A500     		lsls	r5, r4, #2
 239 0044 FFF7FEFF 		bl	_ZN7daisysp5Metro7ProcessEv
 240              	.LVL13:
  26:flanger.cpp   ****         {
 241              		.loc 10 26 9 view .LVU44
 242 0048 0028     		cmp	r0, #0
 243 004a E1D0     		beq	.L8
  28:flanger.cpp   ****             osc.SetFreq(seq[pos]);
 244              		.loc 10 28 13 is_stmt 1 view .LVU45
  28:flanger.cpp   ****             osc.SetFreq(seq[pos]);
 245              		.loc 10 28 24 is_stmt 0 view .LVU46
 246 004c DFF87CB0 		ldr	fp, .L22+24
  29:flanger.cpp   ****             subosc.SetFreq(seq[pos] * .5f);
ARM GAS  /tmp/ccBZcq6P.s 			page 12


 247              		.loc 10 29 24 view .LVU47
 248 0050 1D4E     		ldr	r6, .L22+20
  28:flanger.cpp   ****             osc.SetFreq(seq[pos]);
 249              		.loc 10 28 24 view .LVU48
 250 0052 DBF80030 		ldr	r3, [fp]
 251              	.LBB105:
 252              	.LBB106:
  17:../../DaisySP/Source/Synthesis/oscillator.h ****     /** Choices for output waveforms, POLYBLEP are appropriately labeled. Others are naive forms.
  18:../../DaisySP/Source/Synthesis/oscillator.h ****     */
  19:../../DaisySP/Source/Synthesis/oscillator.h ****     enum
  20:../../DaisySP/Source/Synthesis/oscillator.h ****     {
  21:../../DaisySP/Source/Synthesis/oscillator.h ****         WAVE_SIN,
  22:../../DaisySP/Source/Synthesis/oscillator.h ****         WAVE_TRI,
  23:../../DaisySP/Source/Synthesis/oscillator.h ****         WAVE_SAW,
  24:../../DaisySP/Source/Synthesis/oscillator.h ****         WAVE_RAMP,
  25:../../DaisySP/Source/Synthesis/oscillator.h ****         WAVE_SQUARE,
  26:../../DaisySP/Source/Synthesis/oscillator.h ****         WAVE_POLYBLEP_TRI,
  27:../../DaisySP/Source/Synthesis/oscillator.h ****         WAVE_POLYBLEP_SAW,
  28:../../DaisySP/Source/Synthesis/oscillator.h ****         WAVE_POLYBLEP_SQUARE,
  29:../../DaisySP/Source/Synthesis/oscillator.h ****         WAVE_LAST,
  30:../../DaisySP/Source/Synthesis/oscillator.h ****     };
  31:../../DaisySP/Source/Synthesis/oscillator.h **** 
  32:../../DaisySP/Source/Synthesis/oscillator.h **** 
  33:../../DaisySP/Source/Synthesis/oscillator.h ****     /** Initializes the Oscillator
  34:../../DaisySP/Source/Synthesis/oscillator.h **** 
  35:../../DaisySP/Source/Synthesis/oscillator.h ****         \param sample_rate - sample rate of the audio engine being run, and the frequency that the 
  36:../../DaisySP/Source/Synthesis/oscillator.h **** 
  37:../../DaisySP/Source/Synthesis/oscillator.h ****         Defaults:
  38:../../DaisySP/Source/Synthesis/oscillator.h ****         - freq_ = 100 Hz
  39:../../DaisySP/Source/Synthesis/oscillator.h ****         - amp_ = 0.5
  40:../../DaisySP/Source/Synthesis/oscillator.h ****         - waveform_ = sine wave.
  41:../../DaisySP/Source/Synthesis/oscillator.h ****     */
  42:../../DaisySP/Source/Synthesis/oscillator.h ****     void Init(float sample_rate)
  43:../../DaisySP/Source/Synthesis/oscillator.h ****     {
  44:../../DaisySP/Source/Synthesis/oscillator.h ****         sr_        = sample_rate;
  45:../../DaisySP/Source/Synthesis/oscillator.h ****         sr_recip_  = 1.0f / sample_rate;
  46:../../DaisySP/Source/Synthesis/oscillator.h ****         freq_      = 100.0f;
  47:../../DaisySP/Source/Synthesis/oscillator.h ****         amp_       = 0.5f;
  48:../../DaisySP/Source/Synthesis/oscillator.h ****         phase_     = 0.0f;
  49:../../DaisySP/Source/Synthesis/oscillator.h ****         phase_inc_ = CalcPhaseInc(freq_);
  50:../../DaisySP/Source/Synthesis/oscillator.h ****         waveform_  = WAVE_SIN;
  51:../../DaisySP/Source/Synthesis/oscillator.h ****         eoc_       = true;
  52:../../DaisySP/Source/Synthesis/oscillator.h ****         eor_       = true;
  53:../../DaisySP/Source/Synthesis/oscillator.h ****     }
  54:../../DaisySP/Source/Synthesis/oscillator.h **** 
  55:../../DaisySP/Source/Synthesis/oscillator.h **** 
  56:../../DaisySP/Source/Synthesis/oscillator.h ****     /** Changes the frequency of the Oscillator, and recalculates phase increment.
  57:../../DaisySP/Source/Synthesis/oscillator.h ****     */
  58:../../DaisySP/Source/Synthesis/oscillator.h ****     inline void SetFreq(const float f)
  59:../../DaisySP/Source/Synthesis/oscillator.h ****     {
  60:../../DaisySP/Source/Synthesis/oscillator.h ****         freq_      = f;
 253              		.loc 6 60 20 view .LVU49
 254 0056 DFF85CA0 		ldr	r10, .L22
 255              	.LBE106:
 256              	.LBE105:
  28:flanger.cpp   ****             osc.SetFreq(seq[pos]);
 257              		.loc 10 28 24 view .LVU50
ARM GAS  /tmp/ccBZcq6P.s 			page 13


 258 005a 0133     		adds	r3, r3, #1
 259              	.LBB110:
 260              	.LBB111:
 261              		.loc 6 60 20 view .LVU51
 262 005c DFF85C90 		ldr	r9, .L22+8
 263              	.LBE111:
 264              	.LBE110:
 265              	.LBB114:
 266              	.LBB107:
  61:../../DaisySP/Source/Synthesis/oscillator.h ****         phase_inc_ = CalcPhaseInc(f);
 267              		.loc 6 61 34 view .LVU52
 268 0060 5046     		mov	r0, r10
 269              	.LBE107:
 270              	.LBE114:
  28:flanger.cpp   ****             osc.SetFreq(seq[pos]);
 271              		.loc 10 28 29 view .LVU53
 272 0062 5A42     		rsbs	r2, r3, #0
 273 0064 03F00303 		and	r3, r3, #3
 274 0068 02F00302 		and	r2, r2, #3
 275 006c 58BF     		it	pl
 276 006e 5342     		rsbpl	r3, r2, #0
  29:flanger.cpp   ****             subosc.SetFreq(seq[pos] * .5f);
 277              		.loc 10 29 24 view .LVU54
 278 0070 06EB8302 		add	r2, r6, r3, lsl #2
  28:flanger.cpp   ****             osc.SetFreq(seq[pos]);
 279              		.loc 10 28 17 view .LVU55
 280 0074 CBF80030 		str	r3, [fp]
  29:flanger.cpp   ****             subosc.SetFreq(seq[pos] * .5f);
 281              		.loc 10 29 13 is_stmt 1 view .LVU56
  29:flanger.cpp   ****             subosc.SetFreq(seq[pos] * .5f);
 282              		.loc 10 29 24 is_stmt 0 view .LVU57
 283 0078 92ED000A 		vldr.32	s0, [r2]
 284              	.LVL14:
 285              	.LBB115:
 286              	.LBI105:
  58:../../DaisySP/Source/Synthesis/oscillator.h ****     {
 287              		.loc 6 58 17 is_stmt 1 view .LVU58
 288              	.LBB108:
  60:../../DaisySP/Source/Synthesis/oscillator.h ****         phase_inc_ = CalcPhaseInc(f);
 289              		.loc 6 60 9 view .LVU59
  60:../../DaisySP/Source/Synthesis/oscillator.h ****         phase_inc_ = CalcPhaseInc(f);
 290              		.loc 6 60 20 is_stmt 0 view .LVU60
 291 007c 8AED020A 		vstr.32	s0, [r10, #8]
 292              		.loc 6 61 9 is_stmt 1 view .LVU61
 293              		.loc 6 61 34 is_stmt 0 view .LVU62
 294 0080 FFF7FEFF 		bl	_ZN7daisysp10Oscillator12CalcPhaseIncEf
 295              	.LVL15:
 296              		.loc 6 61 34 view .LVU63
 297              	.LBE108:
 298              	.LBE115:
  30:flanger.cpp   ****         }
 299              		.loc 10 30 35 view .LVU64
 300 0084 DBF80030 		ldr	r3, [fp]
  30:flanger.cpp   ****         }
 301              		.loc 10 30 27 view .LVU65
 302 0088 F6EE007A 		vmov.f32	s15, #5.0e-1
 303              	.LBB116:
ARM GAS  /tmp/ccBZcq6P.s 			page 14


 304              	.LBB109:
 305              		.loc 6 61 20 view .LVU66
 306 008c 8AED060A 		vstr.32	s0, [r10, #24]
 307              	.LVL16:
 308              		.loc 6 61 20 view .LVU67
 309              	.LBE109:
 310              	.LBE116:
  30:flanger.cpp   ****         }
 311              		.loc 10 30 13 is_stmt 1 view .LVU68
 312              	.LBB117:
 313              	.LBB112:
 314              		.loc 6 61 34 is_stmt 0 view .LVU69
 315 0090 4846     		mov	r0, r9
 316              	.LBE112:
 317              	.LBE117:
  30:flanger.cpp   ****         }
 318              		.loc 10 30 35 view .LVU70
 319 0092 06EB8306 		add	r6, r6, r3, lsl #2
  30:flanger.cpp   ****         }
 320              		.loc 10 30 27 view .LVU71
 321 0096 96ED000A 		vldr.32	s0, [r6]
 322 009a 20EE270A 		vmul.f32	s0, s0, s15
 323              	.LVL17:
 324              	.LBB118:
 325              	.LBI110:
  58:../../DaisySP/Source/Synthesis/oscillator.h ****     {
 326              		.loc 6 58 17 is_stmt 1 view .LVU72
 327              	.LBB113:
  60:../../DaisySP/Source/Synthesis/oscillator.h ****         phase_inc_ = CalcPhaseInc(f);
 328              		.loc 6 60 9 view .LVU73
  60:../../DaisySP/Source/Synthesis/oscillator.h ****         phase_inc_ = CalcPhaseInc(f);
 329              		.loc 6 60 20 is_stmt 0 view .LVU74
 330 009e 89ED020A 		vstr.32	s0, [r9, #8]
 331              		.loc 6 61 9 is_stmt 1 view .LVU75
 332              		.loc 6 61 34 is_stmt 0 view .LVU76
 333 00a2 FFF7FEFF 		bl	_ZN7daisysp10Oscillator12CalcPhaseIncEf
 334              	.LVL18:
 335              		.loc 6 61 20 view .LVU77
 336 00a6 89ED060A 		vstr.32	s0, [r9, #24]
  62:../../DaisySP/Source/Synthesis/oscillator.h ****     }
 337              		.loc 6 62 5 view .LVU78
 338 00aa B1E7     		b	.L8
 339              	.LVL19:
 340              	.L21:
 341              		.loc 6 62 5 view .LVU79
 342              	.LBE113:
 343              	.LBE118:
 344              	.LBE119:
  35:flanger.cpp   ****     }
  36:flanger.cpp   **** }
 345              		.loc 10 36 1 view .LVU80
 346 00ac BDE8F88F 		pop	{r3, r4, r5, r6, r7, r8, r9, r10, fp, pc}
 347              	.LVL20:
 348              	.L18:
 349              		.cfi_def_cfa_offset 0
 350              		.cfi_restore 3
 351              		.cfi_restore 4
ARM GAS  /tmp/ccBZcq6P.s 			page 15


 352              		.cfi_restore 5
 353              		.cfi_restore 6
 354              		.cfi_restore 7
 355              		.cfi_restore 8
 356              		.cfi_restore 9
 357              		.cfi_restore 10
 358              		.cfi_restore 11
 359              		.cfi_restore 14
 360              		.loc 10 36 1 view .LVU81
 361 00b0 7047     		bx	lr
 362              	.L23:
 363 00b2 00BF     		.align	2
 364              	.L22:
 365 00b4 00000000 		.word	.LANCHOR3
 366 00b8 00000000 		.word	.LANCHOR5
 367 00bc 00000000 		.word	.LANCHOR4
 368 00c0 00000000 		.word	.LANCHOR6
 369 00c4 00000000 		.word	.LANCHOR0
 370 00c8 00000000 		.word	.LANCHOR2
 371 00cc 00000000 		.word	.LANCHOR1
 372              		.cfi_endproc
 373              	.LFE4215:
 375              		.section	.text.startup.main,"ax",%progbits
 376              		.align	1
 377              		.p2align 2,,3
 378              		.global	main
 379              		.syntax unified
 380              		.thumb
 381              		.thumb_func
 382              		.fpu fpv5-d16
 384              	main:
 385              	.LFB4216:
  37:flanger.cpp   **** 
  38:flanger.cpp   **** int main(void)
  39:flanger.cpp   **** {
 386              		.loc 10 39 1 is_stmt 1 view -0
 387              		.cfi_startproc
 388              		@ args = 0, pretend = 0, frame = 0
 389              		@ frame_needed = 0, uses_anonymous_args = 0
  40:flanger.cpp   ****     hw.Configure();
 390              		.loc 10 40 5 view .LVU83
  39:flanger.cpp   ****     hw.Configure();
 391              		.loc 10 39 1 is_stmt 0 view .LVU84
 392 0000 2DE9F843 		push	{r3, r4, r5, r6, r7, r8, r9, lr}
 393              		.cfi_def_cfa_offset 32
 394              		.cfi_offset 3, -32
 395              		.cfi_offset 4, -28
 396              		.cfi_offset 5, -24
 397              		.cfi_offset 6, -20
 398              		.cfi_offset 7, -16
 399              		.cfi_offset 8, -12
 400              		.cfi_offset 9, -8
 401              		.cfi_offset 14, -4
 402              		.loc 10 40 17 view .LVU85
 403 0004 3948     		ldr	r0, .L27
 404              	.LBB120:
 405              	.LBB121:
ARM GAS  /tmp/ccBZcq6P.s 			page 16


  47:../../DaisySP/Source/Synthesis/oscillator.h ****         phase_     = 0.0f;
 406              		.loc 6 47 20 view .LVU86
 407 0006 4FF07C59 		mov	r9, #1056964608
  44:../../DaisySP/Source/Synthesis/oscillator.h ****         sr_recip_  = 1.0f / sample_rate;
 408              		.loc 6 44 20 view .LVU87
 409 000a 394D     		ldr	r5, .L27+4
  48:../../DaisySP/Source/Synthesis/oscillator.h ****         phase_inc_ = CalcPhaseInc(freq_);
 410              		.loc 6 48 20 view .LVU88
 411 000c 4FF00008 		mov	r8, #0
 412              	.LBE121:
 413              	.LBE120:
 414              	.LBB126:
 415              	.LBB127:
  44:../../DaisySP/Source/Synthesis/oscillator.h ****         sr_recip_  = 1.0f / sample_rate;
 416              		.loc 6 44 20 view .LVU89
 417 0010 384C     		ldr	r4, .L27+8
 418              	.LBE127:
 419              	.LBE126:
 420              	.LBB133:
 421              	.LBB122:
  52:../../DaisySP/Source/Synthesis/oscillator.h ****     }
 422              		.loc 6 52 20 view .LVU90
 423 0012 40F20117 		movw	r7, #257
 424              	.LBE122:
 425              	.LBE133:
 426              	.LBB134:
 427              	.LBB135:
  63:../../DaisySP/Source/Synthesis/oscillator.h **** 
  64:../../DaisySP/Source/Synthesis/oscillator.h **** 
  65:../../DaisySP/Source/Synthesis/oscillator.h ****     /** Sets the amplitude of the waveform.
  66:../../DaisySP/Source/Synthesis/oscillator.h ****     */
  67:../../DaisySP/Source/Synthesis/oscillator.h ****     inline void SetAmp(const float a) { amp_ = a; }
  68:../../DaisySP/Source/Synthesis/oscillator.h ****     /** Sets the waveform to be synthesized by the Process() function.
  69:../../DaisySP/Source/Synthesis/oscillator.h ****     */
  70:../../DaisySP/Source/Synthesis/oscillator.h ****     inline void SetWaveform(const uint8_t wf)
  71:../../DaisySP/Source/Synthesis/oscillator.h ****     {
  72:../../DaisySP/Source/Synthesis/oscillator.h ****         waveform_ = wf < WAVE_LAST ? wf : WAVE_SIN;
 428              		.loc 6 72 19 view .LVU91
 429 0016 0226     		movs	r6, #2
 430              	.LBE135:
 431              	.LBE134:
  39:flanger.cpp   ****     hw.Configure();
 432              		.loc 10 39 1 view .LVU92
 433 0018 2DED048B 		vpush.64	{d8, d9}
 434              		.cfi_def_cfa_offset 48
 435              		.cfi_offset 80, -48
 436              		.cfi_offset 81, -44
 437              		.cfi_offset 82, -40
 438              		.cfi_offset 83, -36
 439              		.loc 10 40 17 view .LVU93
 440 001c FFF7FEFF 		bl	_ZN5daisy9DaisySeed9ConfigureEv
 441              	.LVL21:
  41:flanger.cpp   ****     hw.Init();
 442              		.loc 10 41 5 is_stmt 1 view .LVU94
 443              		.loc 10 41 12 is_stmt 0 view .LVU95
 444 0020 0021     		movs	r1, #0
 445 0022 3248     		ldr	r0, .L27
ARM GAS  /tmp/ccBZcq6P.s 			page 17


 446 0024 FFF7FEFF 		bl	_ZN5daisy9DaisySeed4InitEb
 447              	.LVL22:
  42:flanger.cpp   ****     float sample_rate = hw.AudioSampleRate();
 448              		.loc 10 42 5 is_stmt 1 view .LVU96
 449              		.loc 10 42 43 is_stmt 0 view .LVU97
 450 0028 3048     		ldr	r0, .L27
 451 002a FFF7FEFF 		bl	_ZN5daisy9DaisySeed15AudioSampleRateEv
 452              	.LVL23:
  43:flanger.cpp   **** 
  44:flanger.cpp   ****     flanger0.Init(sample_rate);
 453              		.loc 10 44 18 view .LVU98
 454 002e 3248     		ldr	r0, .L27+12
  42:flanger.cpp   ****     float sample_rate = hw.AudioSampleRate();
 455              		.loc 10 42 43 view .LVU99
 456 0030 B0EE408A 		vmov.f32	s16, s0
 457              	.LVL24:
 458              		.loc 10 44 5 is_stmt 1 view .LVU100
 459              		.loc 10 44 18 is_stmt 0 view .LVU101
 460 0034 FFF7FEFF 		bl	_ZN7daisysp7Flanger4InitEf
 461              	.LVL25:
  45:flanger.cpp   ****     flanger0.SetLfoDepth(.5f);
 462              		.loc 10 45 5 is_stmt 1 view .LVU102
 463              		.loc 10 45 25 is_stmt 0 view .LVU103
 464 0038 00EE109A 		vmov	s0, r9
 465 003c 2E48     		ldr	r0, .L27+12
 466 003e FFF7FEFF 		bl	_ZN7daisysp7Flanger11SetLfoDepthEf
 467              	.LVL26:
  46:flanger.cpp   ****     flanger0.SetFeedback(.83f);
 468              		.loc 10 46 5 is_stmt 1 view .LVU104
 469              		.loc 10 46 25 is_stmt 0 view .LVU105
 470 0042 9FED2E0A 		vldr.32	s0, .L27+16
 471 0046 2C48     		ldr	r0, .L27+12
 472 0048 FFF7FEFF 		bl	_ZN7daisysp7Flanger11SetFeedbackEf
 473              	.LVL27:
  47:flanger.cpp   **** 
  48:flanger.cpp   ****     flanger1.Init(sample_rate);
 474              		.loc 10 48 5 is_stmt 1 view .LVU106
 475              		.loc 10 48 18 is_stmt 0 view .LVU107
 476 004c B0EE480A 		vmov.f32	s0, s16
 477 0050 2B48     		ldr	r0, .L27+20
 478 0052 FFF7FEFF 		bl	_ZN7daisysp7Flanger4InitEf
 479              	.LVL28:
  49:flanger.cpp   ****     flanger1.SetLfoDepth(0.8f);
 480              		.loc 10 49 5 is_stmt 1 view .LVU108
 481              		.loc 10 49 25 is_stmt 0 view .LVU109
 482 0056 9FED2B0A 		vldr.32	s0, .L27+24
 483 005a 2948     		ldr	r0, .L27+20
 484 005c FFF7FEFF 		bl	_ZN7daisysp7Flanger11SetLfoDepthEf
 485              	.LVL29:
  50:flanger.cpp   ****     flanger1.SetLfoFreq(.33f);
 486              		.loc 10 50 5 is_stmt 1 view .LVU110
 487              		.loc 10 50 24 is_stmt 0 view .LVU111
 488 0060 9FED290A 		vldr.32	s0, .L27+28
 489 0064 2648     		ldr	r0, .L27+20
 490 0066 FFF7FEFF 		bl	_ZN7daisysp7Flanger10SetLfoFreqEf
 491              	.LVL30:
  51:flanger.cpp   ****     flanger1.SetFeedback(.83f);
ARM GAS  /tmp/ccBZcq6P.s 			page 18


 492              		.loc 10 51 5 is_stmt 1 view .LVU112
 493              		.loc 10 51 25 is_stmt 0 view .LVU113
 494 006a 9FED240A 		vldr.32	s0, .L27+16
 495 006e 2448     		ldr	r0, .L27+20
 496 0070 FFF7FEFF 		bl	_ZN7daisysp7Flanger11SetFeedbackEf
 497              	.LVL31:
  52:flanger.cpp   **** 
  53:flanger.cpp   ****     osc.Init(sample_rate);
 498              		.loc 10 53 5 is_stmt 1 view .LVU114
 499              	.LBB137:
 500              	.LBI120:
  42:../../DaisySP/Source/Synthesis/oscillator.h ****     {
 501              		.loc 6 42 10 view .LVU115
 502              	.LBB123:
  44:../../DaisySP/Source/Synthesis/oscillator.h ****         sr_recip_  = 1.0f / sample_rate;
 503              		.loc 6 44 9 view .LVU116
  45:../../DaisySP/Source/Synthesis/oscillator.h ****         freq_      = 100.0f;
 504              		.loc 6 45 27 is_stmt 0 view .LVU117
 505 0074 F7EE007A 		vmov.f32	s15, #1.0e+0
  46:../../DaisySP/Source/Synthesis/oscillator.h ****         amp_       = 0.5f;
 506              		.loc 6 46 20 view .LVU118
 507 0078 DFED248A 		vldr.32	s17, .L27+32
  49:../../DaisySP/Source/Synthesis/oscillator.h ****         waveform_  = WAVE_SIN;
 508              		.loc 6 49 34 view .LVU119
 509 007c 2846     		mov	r0, r5
  44:../../DaisySP/Source/Synthesis/oscillator.h ****         sr_recip_  = 1.0f / sample_rate;
 510              		.loc 6 44 20 view .LVU120
 511 007e 85ED038A 		vstr.32	s16, [r5, #12]
  45:../../DaisySP/Source/Synthesis/oscillator.h ****         freq_      = 100.0f;
 512              		.loc 6 45 9 is_stmt 1 view .LVU121
  45:../../DaisySP/Source/Synthesis/oscillator.h ****         freq_      = 100.0f;
 513              		.loc 6 45 27 is_stmt 0 view .LVU122
 514 0082 87EE889A 		vdiv.f32	s18, s15, s16
  46:../../DaisySP/Source/Synthesis/oscillator.h ****         amp_       = 0.5f;
 515              		.loc 6 46 20 view .LVU123
 516 0086 C5ED028A 		vstr.32	s17, [r5, #8]
  47:../../DaisySP/Source/Synthesis/oscillator.h ****         phase_     = 0.0f;
 517              		.loc 6 47 20 view .LVU124
 518 008a C5F80490 		str	r9, [r5, #4]	@ float
  48:../../DaisySP/Source/Synthesis/oscillator.h ****         phase_inc_ = CalcPhaseInc(freq_);
 519              		.loc 6 48 20 view .LVU125
 520 008e C5F81480 		str	r8, [r5, #20]	@ float
  49:../../DaisySP/Source/Synthesis/oscillator.h ****         waveform_  = WAVE_SIN;
 521              		.loc 6 49 34 view .LVU126
 522 0092 B0EE680A 		vmov.f32	s0, s17
  45:../../DaisySP/Source/Synthesis/oscillator.h ****         freq_      = 100.0f;
 523              		.loc 6 45 20 view .LVU127
 524 0096 85ED049A 		vstr.32	s18, [r5, #16]
  46:../../DaisySP/Source/Synthesis/oscillator.h ****         amp_       = 0.5f;
 525              		.loc 6 46 9 is_stmt 1 view .LVU128
  47:../../DaisySP/Source/Synthesis/oscillator.h ****         phase_     = 0.0f;
 526              		.loc 6 47 9 view .LVU129
  48:../../DaisySP/Source/Synthesis/oscillator.h ****         phase_inc_ = CalcPhaseInc(freq_);
 527              		.loc 6 48 9 view .LVU130
  49:../../DaisySP/Source/Synthesis/oscillator.h ****         waveform_  = WAVE_SIN;
 528              		.loc 6 49 9 view .LVU131
  49:../../DaisySP/Source/Synthesis/oscillator.h ****         waveform_  = WAVE_SIN;
ARM GAS  /tmp/ccBZcq6P.s 			page 19


 529              		.loc 6 49 34 is_stmt 0 view .LVU132
 530 009a FFF7FEFF 		bl	_ZN7daisysp10Oscillator12CalcPhaseIncEf
 531              	.LVL32:
 532 009e F0EE407A 		vmov.f32	s15, s0
 533              	.LBE123:
 534              	.LBE137:
 535              	.LBB138:
 536              	.LBB128:
 537 00a2 2046     		mov	r0, r4
 538 00a4 B0EE680A 		vmov.f32	s0, s17
  45:../../DaisySP/Source/Synthesis/oscillator.h ****         freq_      = 100.0f;
 539              		.loc 6 45 20 view .LVU133
 540 00a8 84ED049A 		vstr.32	s18, [r4, #16]
  44:../../DaisySP/Source/Synthesis/oscillator.h ****         sr_recip_  = 1.0f / sample_rate;
 541              		.loc 6 44 20 view .LVU134
 542 00ac 84ED038A 		vstr.32	s16, [r4, #12]
 543              	.LBE128:
 544              	.LBE138:
 545              	.LBB139:
 546              	.LBB124:
  49:../../DaisySP/Source/Synthesis/oscillator.h ****         waveform_  = WAVE_SIN;
 547              		.loc 6 49 20 view .LVU135
 548 00b0 C5ED067A 		vstr.32	s15, [r5, #24]
  50:../../DaisySP/Source/Synthesis/oscillator.h ****         eoc_       = true;
 549              		.loc 6 50 9 is_stmt 1 view .LVU136
  51:../../DaisySP/Source/Synthesis/oscillator.h ****         eor_       = true;
 550              		.loc 6 51 9 view .LVU137
  52:../../DaisySP/Source/Synthesis/oscillator.h ****     }
 551              		.loc 6 52 9 view .LVU138
 552              	.LBE124:
 553              	.LBE139:
 554              	.LBB140:
 555              	.LBB129:
  46:../../DaisySP/Source/Synthesis/oscillator.h ****         amp_       = 0.5f;
 556              		.loc 6 46 20 is_stmt 0 view .LVU139
 557 00b4 C4ED028A 		vstr.32	s17, [r4, #8]
  47:../../DaisySP/Source/Synthesis/oscillator.h ****         phase_     = 0.0f;
 558              		.loc 6 47 20 view .LVU140
 559 00b8 C4F80490 		str	r9, [r4, #4]	@ float
  48:../../DaisySP/Source/Synthesis/oscillator.h ****         phase_inc_ = CalcPhaseInc(freq_);
 560              		.loc 6 48 20 view .LVU141
 561 00bc C4F81480 		str	r8, [r4, #20]	@ float
 562              	.LBE129:
 563              	.LBE140:
 564              	.LBB141:
 565              	.LBB125:
  52:../../DaisySP/Source/Synthesis/oscillator.h ****     }
 566              		.loc 6 52 20 view .LVU142
 567 00c0 AF84     		strh	r7, [r5, #36]	@ movhi
 568              	.LVL33:
  52:../../DaisySP/Source/Synthesis/oscillator.h ****     }
 569              		.loc 6 52 20 view .LVU143
 570              	.LBE125:
 571              	.LBE141:
  54:flanger.cpp   ****     osc.SetWaveform(Oscillator::WAVE_SAW);
 572              		.loc 10 54 5 is_stmt 1 view .LVU144
 573              	.LBB142:
ARM GAS  /tmp/ccBZcq6P.s 			page 20


 574              	.LBI134:
  70:../../DaisySP/Source/Synthesis/oscillator.h ****     {
 575              		.loc 6 70 17 view .LVU145
 576              	.LBB136:
 577              		.loc 6 72 9 view .LVU146
 578              		.loc 6 72 19 is_stmt 0 view .LVU147
 579 00c2 2E70     		strb	r6, [r5]
 580              	.LVL34:
 581              		.loc 6 72 19 view .LVU148
 582              	.LBE136:
 583              	.LBE142:
  55:flanger.cpp   **** 
  56:flanger.cpp   ****     subosc.Init(sample_rate);
 584              		.loc 10 56 5 is_stmt 1 view .LVU149
 585              	.LBB143:
 586              	.LBI126:
  42:../../DaisySP/Source/Synthesis/oscillator.h ****     {
 587              		.loc 6 42 10 view .LVU150
 588              	.LBB130:
  44:../../DaisySP/Source/Synthesis/oscillator.h ****         sr_recip_  = 1.0f / sample_rate;
 589              		.loc 6 44 9 view .LVU151
  45:../../DaisySP/Source/Synthesis/oscillator.h ****         freq_      = 100.0f;
 590              		.loc 6 45 9 view .LVU152
  46:../../DaisySP/Source/Synthesis/oscillator.h ****         amp_       = 0.5f;
 591              		.loc 6 46 9 view .LVU153
  47:../../DaisySP/Source/Synthesis/oscillator.h ****         phase_     = 0.0f;
 592              		.loc 6 47 9 view .LVU154
  48:../../DaisySP/Source/Synthesis/oscillator.h ****         phase_inc_ = CalcPhaseInc(freq_);
 593              		.loc 6 48 9 view .LVU155
  49:../../DaisySP/Source/Synthesis/oscillator.h ****         waveform_  = WAVE_SIN;
 594              		.loc 6 49 9 view .LVU156
  49:../../DaisySP/Source/Synthesis/oscillator.h ****         waveform_  = WAVE_SIN;
 595              		.loc 6 49 34 is_stmt 0 view .LVU157
 596 00c4 FFF7FEFF 		bl	_ZN7daisysp10Oscillator12CalcPhaseIncEf
 597              	.LVL35:
 598 00c8 F0EE407A 		vmov.f32	s15, s0
 599              	.LBE130:
 600              	.LBE143:
  57:flanger.cpp   ****     subosc.SetWaveform(Oscillator::WAVE_SAW);
  58:flanger.cpp   **** 
  59:flanger.cpp   **** 
  60:flanger.cpp   ****     tick.Init(3.f, sample_rate);
 601              		.loc 10 60 14 view .LVU158
 602 00cc 1048     		ldr	r0, .L27+36
 603 00ce F0EE480A 		vmov.f32	s1, s16
 604              	.LBB144:
 605              	.LBB131:
  52:../../DaisySP/Source/Synthesis/oscillator.h ****     }
 606              		.loc 6 52 20 view .LVU159
 607 00d2 A784     		strh	r7, [r4, #36]	@ movhi
 608              	.LBE131:
 609              	.LBE144:
 610              		.loc 10 60 14 view .LVU160
 611 00d4 B0EE080A 		vmov.f32	s0, #3.0e+0
 612              	.LBB145:
 613              	.LBB146:
 614              		.loc 6 72 19 view .LVU161
ARM GAS  /tmp/ccBZcq6P.s 			page 21


 615 00d8 2670     		strb	r6, [r4]
 616              	.LBE146:
 617              	.LBE145:
 618              	.LBB148:
 619              	.LBB132:
  49:../../DaisySP/Source/Synthesis/oscillator.h ****         waveform_  = WAVE_SIN;
 620              		.loc 6 49 20 view .LVU162
 621 00da C4ED067A 		vstr.32	s15, [r4, #24]
  50:../../DaisySP/Source/Synthesis/oscillator.h ****         eoc_       = true;
 622              		.loc 6 50 9 is_stmt 1 view .LVU163
  51:../../DaisySP/Source/Synthesis/oscillator.h ****         eor_       = true;
 623              		.loc 6 51 9 view .LVU164
  52:../../DaisySP/Source/Synthesis/oscillator.h ****     }
 624              		.loc 6 52 9 view .LVU165
 625              	.LVL36:
  52:../../DaisySP/Source/Synthesis/oscillator.h ****     }
 626              		.loc 6 52 9 is_stmt 0 view .LVU166
 627              	.LBE132:
 628              	.LBE148:
  57:flanger.cpp   **** 
 629              		.loc 10 57 5 is_stmt 1 view .LVU167
 630              	.LBB149:
 631              	.LBI145:
  70:../../DaisySP/Source/Synthesis/oscillator.h ****     {
 632              		.loc 6 70 17 view .LVU168
 633              	.LBB147:
 634              		.loc 6 72 9 view .LVU169
 635              		.loc 6 72 9 is_stmt 0 view .LVU170
 636              	.LBE147:
 637              	.LBE149:
 638              		.loc 10 60 5 is_stmt 1 view .LVU171
 639              		.loc 10 60 14 is_stmt 0 view .LVU172
 640 00de FFF7FEFF 		bl	_ZN7daisysp5Metro4InitEff
 641              	.LVL37:
  61:flanger.cpp   **** 
  62:flanger.cpp   ****     hw.StartAudio(AudioCallback);
 642              		.loc 10 62 5 is_stmt 1 view .LVU173
 643              		.loc 10 62 18 is_stmt 0 view .LVU174
 644 00e2 0C49     		ldr	r1, .L27+40
 645 00e4 0148     		ldr	r0, .L27
 646 00e6 FFF7FEFF 		bl	_ZN5daisy9DaisySeed10StartAudioEPFvPKPKfPPfjE
 647              	.LVL38:
 648              	.L25:
  63:flanger.cpp   ****     while(1) {}
 649              		.loc 10 63 5 is_stmt 1 discriminator 1 view .LVU175
 650              		.loc 10 63 5 discriminator 1 view .LVU176
 651              		.loc 10 63 5 discriminator 1 view .LVU177
 652              		.loc 10 63 5 discriminator 1 view .LVU178
 653 00ea FEE7     		b	.L25
 654              	.L28:
 655              		.align	2
 656              	.L27:
 657 00ec 00000000 		.word	.LANCHOR7
 658 00f0 00000000 		.word	.LANCHOR3
 659 00f4 00000000 		.word	.LANCHOR4
 660 00f8 00000000 		.word	.LANCHOR5
 661 00fc E17A543F 		.word	1062501089
ARM GAS  /tmp/ccBZcq6P.s 			page 22


 662 0100 00000000 		.word	.LANCHOR6
 663 0104 CDCC4C3F 		.word	1061997773
 664 0108 C3F5A83E 		.word	1051260355
 665 010c 0000C842 		.word	1120403456
 666 0110 00000000 		.word	.LANCHOR0
 667 0114 00000000 		.word	_Z13AudioCallbackPKPKfPPfj
 668              		.cfi_endproc
 669              	.LFE4216:
 671              		.section	.text.startup._GLOBAL__sub_I_hw,"ax",%progbits
 672              		.align	1
 673              		.p2align 2,,3
 674              		.syntax unified
 675              		.thumb
 676              		.thumb_func
 677              		.fpu fpv5-d16
 679              	_GLOBAL__sub_I_hw:
 680              	.LFB4771:
  64:flanger.cpp   **** }
 681              		.loc 10 64 1 view -0
 682              		.cfi_startproc
 683              		@ args = 0, pretend = 0, frame = 0
 684              		@ frame_needed = 0, uses_anonymous_args = 0
 685              	.LBB177:
 686              	.LBI177:
 687              		.loc 10 64 1 view .LVU180
 688              	.LVL39:
 689              	.LBB178:
 690              	.LBB179:
 691              	.LBI179:
  21:../../libdaisy/src/daisy_seed.h ****     ~DaisySeed() {}
 692              		.loc 1 21 5 view .LVU181
 693              	.LBB180:
 694              	.LBB181:
 695              	.LBI181:
  62:../../libdaisy/src/hid/audio.h ****     ~AudioHandle() {}
 696              		.loc 5 62 5 view .LVU182
 697              	.LBB182:
 698              	.LBB183:
  62:../../libdaisy/src/hid/audio.h ****     ~AudioHandle() {}
 699              		.loc 5 62 35 is_stmt 0 view .LVU183
 700 0000 0023     		movs	r3, #0
 701 0002 1248     		ldr	r0, .L31
 702              	.LBE183:
 703              	.LBE182:
 704              	.LBE181:
 705              	.LBE180:
 706              	.LBE179:
   7:flanger.cpp   **** Oscillator osc, subosc;
 707              		.loc 10 7 12 view .LVU184
 708 0004 124A     		ldr	r2, .L31+4
 709 0006 1349     		ldr	r1, .L31+8
 710              	.LBE178:
 711              	.LBE177:
 712              		.loc 10 64 1 view .LVU185
 713 0008 10B5     		push	{r4, lr}
 714              		.cfi_def_cfa_offset 8
 715              		.cfi_offset 4, -8
ARM GAS  /tmp/ccBZcq6P.s 			page 23


 716              		.cfi_offset 14, -4
 717              	.LBB204:
 718              	.LBB202:
   8:flanger.cpp   **** Metro      tick;
 719              		.loc 10 8 12 view .LVU186
 720 000a 134C     		ldr	r4, .L31+12
 721              	.LBB194:
 722              	.LBB193:
 723              	.LBB186:
 724              	.LBB185:
 725              	.LBB184:
  62:../../libdaisy/src/hid/audio.h ****     ~AudioHandle() {}
 726              		.loc 5 62 35 view .LVU187
 727 000c 4361     		str	r3, [r0, #20]
 728              	.LVL40:
  62:../../libdaisy/src/hid/audio.h ****     ~AudioHandle() {}
 729              		.loc 5 62 35 view .LVU188
 730              	.LBE184:
 731              	.LBE185:
 732              	.LBE186:
 733              	.LBB187:
 734              	.LBI187:
  84:../../libdaisy/src/per/adc.h ****     ~AdcHandle() {}
 735              		.loc 4 84 5 is_stmt 1 view .LVU189
  84:../../libdaisy/src/per/adc.h ****     ~AdcHandle() {}
 736              		.loc 4 84 5 is_stmt 0 view .LVU190
 737              	.LBE187:
 738              	.LBB188:
 739              	.LBI188:
 740              		.file 11 "../../libdaisy/src/per/dac.h"
   1:../../libdaisy/src/per/dac.h **** #pragma once
   2:../../libdaisy/src/per/dac.h **** #ifndef DSY_DAC_H
   3:../../libdaisy/src/per/dac.h **** #define DSY_DAC_H
   4:../../libdaisy/src/per/dac.h **** 
   5:../../libdaisy/src/per/dac.h **** #include "daisy_core.h"
   6:../../libdaisy/src/per/dac.h **** 
   7:../../libdaisy/src/per/dac.h **** namespace daisy
   8:../../libdaisy/src/per/dac.h **** {
   9:../../libdaisy/src/per/dac.h **** /** DAC handle for Built-in DAC Peripheral 
  10:../../libdaisy/src/per/dac.h ****  ** 
  11:../../libdaisy/src/per/dac.h ****  ** For now only Normal Mode is supported,
  12:../../libdaisy/src/per/dac.h ****  ** Sample and hold mode provides reduced power consumption, but requires a bit more setup.
  13:../../libdaisy/src/per/dac.h ****  **
  14:../../libdaisy/src/per/dac.h ****  ** For now connecting the DAC through other internal periphearls is also not supported.
  15:../../libdaisy/src/per/dac.h ****  **
  16:../../libdaisy/src/per/dac.h ****  ** Since the DAC channels have dedicated pins we don't need to pass in a pin config like with
  17:../../libdaisy/src/per/dac.h ****  ** other modules. However, it is still important to not try to use the DAC pins for anything else.
  18:../../libdaisy/src/per/dac.h ****  ** DAC Channel 1 is on PA4, and DAC Channel 2 is on PA5
  19:../../libdaisy/src/per/dac.h ****  ***/
  20:../../libdaisy/src/per/dac.h **** class DacHandle
  21:../../libdaisy/src/per/dac.h **** {
  22:../../libdaisy/src/per/dac.h ****   public:
  23:../../libdaisy/src/per/dac.h ****     /** Return Values for the DacHandle class */
  24:../../libdaisy/src/per/dac.h ****     enum class Result
  25:../../libdaisy/src/per/dac.h ****     {
  26:../../libdaisy/src/per/dac.h ****         OK,
  27:../../libdaisy/src/per/dac.h ****         ERR,
ARM GAS  /tmp/ccBZcq6P.s 			page 24


  28:../../libdaisy/src/per/dac.h ****     };
  29:../../libdaisy/src/per/dac.h **** 
  30:../../libdaisy/src/per/dac.h ****     /** Selects which channel(s) will be configured for use. */
  31:../../libdaisy/src/per/dac.h ****     enum class Channel
  32:../../libdaisy/src/per/dac.h ****     {
  33:../../libdaisy/src/per/dac.h ****         ONE,
  34:../../libdaisy/src/per/dac.h ****         TWO,
  35:../../libdaisy/src/per/dac.h ****         BOTH,
  36:../../libdaisy/src/per/dac.h ****     };
  37:../../libdaisy/src/per/dac.h **** 
  38:../../libdaisy/src/per/dac.h ****     /** Sets the Mode for the DAC channels.
  39:../../libdaisy/src/per/dac.h ****      **
  40:../../libdaisy/src/per/dac.h ****      ** Polling mode uses the blocking mode to transmit a single value at a time.
  41:../../libdaisy/src/per/dac.h ****      **
  42:../../libdaisy/src/per/dac.h ****      ** DMA mode uses a buffer, and periodically transmits it triggering a 
  43:../../libdaisy/src/per/dac.h ****      ** callback to fill the buffer when it is ready for more samples.
  44:../../libdaisy/src/per/dac.h ****      ***/
  45:../../libdaisy/src/per/dac.h ****     enum class Mode
  46:../../libdaisy/src/per/dac.h ****     {
  47:../../libdaisy/src/per/dac.h ****         POLLING,
  48:../../libdaisy/src/per/dac.h ****         DMA,
  49:../../libdaisy/src/per/dac.h ****     };
  50:../../libdaisy/src/per/dac.h **** 
  51:../../libdaisy/src/per/dac.h ****     /** Sets the number of bits per sample transmitted out of the DAC.
  52:../../libdaisy/src/per/dac.h ****      ** The output range will be: 0V - VDDA
  53:../../libdaisy/src/per/dac.h ****      ** The resolution will be roughly: bitdepth / (VDDA - 0V) 
  54:../../libdaisy/src/per/dac.h ****      ***/
  55:../../libdaisy/src/per/dac.h ****     enum class BitDepth
  56:../../libdaisy/src/per/dac.h ****     {
  57:../../libdaisy/src/per/dac.h ****         BITS_8,
  58:../../libdaisy/src/per/dac.h ****         BITS_12
  59:../../libdaisy/src/per/dac.h ****     };
  60:../../libdaisy/src/per/dac.h **** 
  61:../../libdaisy/src/per/dac.h ****     /** Sets whether the DAC output is buffered for higher drive ability. */
  62:../../libdaisy/src/per/dac.h ****     enum class BufferState
  63:../../libdaisy/src/per/dac.h ****     {
  64:../../libdaisy/src/per/dac.h ****         ENABLED,
  65:../../libdaisy/src/per/dac.h ****         DISABLED,
  66:../../libdaisy/src/per/dac.h ****     };
  67:../../libdaisy/src/per/dac.h **** 
  68:../../libdaisy/src/per/dac.h ****     /** Configuration structure for initializing the DAC structure. */
  69:../../libdaisy/src/per/dac.h ****     struct Config
  70:../../libdaisy/src/per/dac.h ****     {
  71:../../libdaisy/src/per/dac.h ****         /** Target Samplerate in Hz used to configure the internal 
  72:../../libdaisy/src/per/dac.h ****          ** timebase for DMA mode. Does nothing in POLLING mode.
  73:../../libdaisy/src/per/dac.h ****          ** If the value is 0 at Init time this will default to 48000Hz 
  74:../../libdaisy/src/per/dac.h ****          ** otherwise the driver will attempt meet the target.*/
  75:../../libdaisy/src/per/dac.h ****         uint32_t target_samplerate;
  76:../../libdaisy/src/per/dac.h **** 
  77:../../libdaisy/src/per/dac.h ****         Channel     chn;
  78:../../libdaisy/src/per/dac.h ****         Mode        mode;
  79:../../libdaisy/src/per/dac.h ****         BitDepth    bitdepth;
  80:../../libdaisy/src/per/dac.h ****         BufferState buff_state;
  81:../../libdaisy/src/per/dac.h ****     };
  82:../../libdaisy/src/per/dac.h **** 
  83:../../libdaisy/src/per/dac.h ****     DacHandle() : pimpl_(nullptr) {}
 741              		.loc 11 83 5 is_stmt 1 view .LVU191
ARM GAS  /tmp/ccBZcq6P.s 			page 25


 742              	.LBB189:
 743              	.LBB190:
 744              		.loc 11 83 33 is_stmt 0 view .LVU192
 745 000e 0362     		str	r3, [r0, #32]
 746              	.LVL41:
 747              		.loc 11 83 33 view .LVU193
 748              	.LBE190:
 749              	.LBE189:
 750              	.LBE188:
 751              	.LBB191:
 752              	.LBI191:
  40:../../libdaisy/src/hid/usb.h **** 
 753              		.loc 3 40 5 is_stmt 1 view .LVU194
  40:../../libdaisy/src/hid/usb.h **** 
 754              		.loc 3 40 5 is_stmt 0 view .LVU195
 755              	.LBE191:
 756              	.LBB192:
 757              	.LBI192:
  58:../../libdaisy/src/sys/system.h ****     ~System() {}
 758              		.loc 2 58 5 is_stmt 1 view .LVU196
  58:../../libdaisy/src/sys/system.h ****     ~System() {}
 759              		.loc 2 58 5 is_stmt 0 view .LVU197
 760              	.LBE192:
 761              	.LBE193:
 762              	.LBE194:
   7:flanger.cpp   **** Oscillator osc, subosc;
 763              		.loc 10 7 12 view .LVU198
 764 0010 FFF7FEFF 		bl	__aeabi_atexit
 765              	.LVL42:
 766              	.LBB195:
 767              	.LBI195:
  15:../../DaisySP/Source/Synthesis/oscillator.h ****     ~Oscillator() {}
 768              		.loc 6 15 5 is_stmt 1 view .LVU199
  15:../../DaisySP/Source/Synthesis/oscillator.h ****     ~Oscillator() {}
 769              		.loc 6 15 5 is_stmt 0 view .LVU200
 770              	.LBE195:
   8:flanger.cpp   **** Metro      tick;
 771              		.loc 10 8 12 view .LVU201
 772 0014 2146     		mov	r1, r4
 773 0016 0E4A     		ldr	r2, .L31+4
 774 0018 1048     		ldr	r0, .L31+16
 775 001a FFF7FEFF 		bl	__aeabi_atexit
 776              	.LVL43:
 777              	.LBB196:
 778              	.LBI196:
  15:../../DaisySP/Source/Synthesis/oscillator.h ****     ~Oscillator() {}
 779              		.loc 6 15 5 is_stmt 1 view .LVU202
  15:../../DaisySP/Source/Synthesis/oscillator.h ****     ~Oscillator() {}
 780              		.loc 6 15 5 is_stmt 0 view .LVU203
 781              	.LBE196:
   8:flanger.cpp   **** Metro      tick;
 782              		.loc 10 8 17 view .LVU204
 783 001e 2146     		mov	r1, r4
 784 0020 0B4A     		ldr	r2, .L31+4
  10:flanger.cpp   **** 
 785              		.loc 10 10 12 view .LVU205
 786 0022 0F4C     		ldr	r4, .L31+20
ARM GAS  /tmp/ccBZcq6P.s 			page 26


   8:flanger.cpp   **** Metro      tick;
 787              		.loc 10 8 17 view .LVU206
 788 0024 0F48     		ldr	r0, .L31+24
 789 0026 FFF7FEFF 		bl	__aeabi_atexit
 790              	.LVL44:
 791              	.LBB197:
 792              	.LBI197:
  14:../../DaisySP/Source/Utility/metro.h ****     ~Metro() {}
 793              		.loc 7 14 5 is_stmt 1 view .LVU207
  14:../../DaisySP/Source/Utility/metro.h ****     ~Metro() {}
 794              		.loc 7 14 5 is_stmt 0 view .LVU208
 795              	.LBE197:
   9:flanger.cpp   **** Flanger    flanger0, flanger1;
 796              		.loc 10 9 12 view .LVU209
 797 002a 094A     		ldr	r2, .L31+4
 798 002c 0E49     		ldr	r1, .L31+28
 799 002e 0F48     		ldr	r0, .L31+32
 800 0030 FFF7FEFF 		bl	__aeabi_atexit
 801              	.LVL45:
 802              	.LBB198:
 803              	.LBI198:
 804              		.loc 8 18 7 is_stmt 1 view .LVU210
 805              	.LBB199:
 806              	.LBI199:
  23:../../DaisySP/Source/Utility/delayline.h ****     ~DelayLine() {}
 807              		.loc 9 23 5 view .LVU211
  23:../../DaisySP/Source/Utility/delayline.h ****     ~DelayLine() {}
 808              		.loc 9 23 5 is_stmt 0 view .LVU212
 809              	.LBE199:
 810              	.LBE198:
  10:flanger.cpp   **** 
 811              		.loc 10 10 12 view .LVU213
 812 0034 2146     		mov	r1, r4
 813 0036 064A     		ldr	r2, .L31+4
 814 0038 0D48     		ldr	r0, .L31+36
 815 003a FFF7FEFF 		bl	__aeabi_atexit
 816              	.LVL46:
 817              	.LBB200:
 818              	.LBI200:
 819              		.loc 8 18 7 is_stmt 1 view .LVU214
 820              	.LBB201:
 821              	.LBI201:
  23:../../DaisySP/Source/Utility/delayline.h ****     ~DelayLine() {}
 822              		.loc 9 23 5 view .LVU215
  23:../../DaisySP/Source/Utility/delayline.h ****     ~DelayLine() {}
 823              		.loc 9 23 5 is_stmt 0 view .LVU216
 824              	.LBE201:
 825              	.LBE200:
  10:flanger.cpp   **** 
 826              		.loc 10 10 22 view .LVU217
 827 003e 2146     		mov	r1, r4
 828 0040 034A     		ldr	r2, .L31+4
 829 0042 0C48     		ldr	r0, .L31+40
 830              	.LBE202:
 831              	.LBE204:
 832              		.loc 10 64 1 view .LVU218
 833 0044 BDE81040 		pop	{r4, lr}
ARM GAS  /tmp/ccBZcq6P.s 			page 27


 834              		.cfi_restore 14
 835              		.cfi_restore 4
 836              		.cfi_def_cfa_offset 0
 837              	.LBB205:
 838              	.LBB203:
  10:flanger.cpp   **** 
 839              		.loc 10 10 22 view .LVU219
 840 0048 FFF7FEBF 		b	__aeabi_atexit
 841              	.LVL47:
 842              	.L32:
 843              		.align	2
 844              	.L31:
 845 004c 00000000 		.word	.LANCHOR7
 846 0050 00000000 		.word	__dso_handle
 847 0054 00000000 		.word	_ZN5daisy9DaisySeedD1Ev
 848 0058 00000000 		.word	_ZN7daisysp10OscillatorD1Ev
 849 005c 00000000 		.word	.LANCHOR3
 850 0060 00000000 		.word	_ZN7daisysp7FlangerD1Ev
 851 0064 00000000 		.word	.LANCHOR4
 852 0068 00000000 		.word	_ZN7daisysp5MetroD1Ev
 853 006c 00000000 		.word	.LANCHOR0
 854 0070 00000000 		.word	.LANCHOR5
 855 0074 00000000 		.word	.LANCHOR6
 856              	.LBE203:
 857              	.LBE205:
 858              		.cfi_endproc
 859              	.LFE4771:
 861              		.section	.init_array,"aw",%init_array
 862              		.align	2
 863 0000 00000000 		.word	_GLOBAL__sub_I_hw(target1)
 864              		.global	pos
 865              		.global	seq
 866              		.global	flanger1
 867              		.global	flanger0
 868              		.global	tick
 869              		.global	subosc
 870              		.global	osc
 871              		.global	hw
 872              		.section	.bss.flanger0,"aw",%nobits
 873              		.align	2
 874              		.set	.LANCHOR5,. + 0
 877              	flanger0:
 878 0000 00000000 		.space	3876
 878      00000000 
 878      00000000 
 878      00000000 
 878      00000000 
 879              		.section	.bss.flanger1,"aw",%nobits
 880              		.align	2
 881              		.set	.LANCHOR6,. + 0
 884              	flanger1:
 885 0000 00000000 		.space	3876
 885      00000000 
 885      00000000 
 885      00000000 
 885      00000000 
 886              		.section	.bss.hw,"aw",%nobits
ARM GAS  /tmp/ccBZcq6P.s 			page 28


 887              		.align	2
 888              		.set	.LANCHOR7,. + 0
 891              	hw:
 892 0000 00000000 		.space	60
 892      00000000 
 892      00000000 
 892      00000000 
 892      00000000 
 893              		.section	.bss.osc,"aw",%nobits
 894              		.align	2
 895              		.set	.LANCHOR3,. + 0
 898              	osc:
 899 0000 00000000 		.space	40
 899      00000000 
 899      00000000 
 899      00000000 
 899      00000000 
 900              		.section	.bss.pos,"aw",%nobits
 901              		.align	2
 902              		.set	.LANCHOR1,. + 0
 905              	pos:
 906 0000 00000000 		.space	4
 907              		.section	.bss.subosc,"aw",%nobits
 908              		.align	2
 909              		.set	.LANCHOR4,. + 0
 912              	subosc:
 913 0000 00000000 		.space	40
 913      00000000 
 913      00000000 
 913      00000000 
 913      00000000 
 914              		.section	.bss.tick,"aw",%nobits
 915              		.align	2
 916              		.set	.LANCHOR0,. + 0
 919              	tick:
 920 0000 00000000 		.space	16
 920      00000000 
 920      00000000 
 920      00000000 
 921              		.section	.data.seq,"aw"
 922              		.align	2
 923              		.set	.LANCHOR2,. + 0
 926              	seq:
 927 0000 5CCF0243 		.word	1124257628
 928 0004 5C8F1B43 		.word	1125879644
 929 0008 7B14E942 		.word	1122571387
 930 000c 0000C442 		.word	1120141312
 931              		.text
 932              	.Letext0:
 933              		.file 12 "/usr/lib/gcc/arm-none-eabi/9.2.1/include/stdint.h"
 934              		.file 13 "../../libdaisy/Drivers/CMSIS/Include/core_cm7.h"
 935              		.file 14 "../../libdaisy/Drivers/CMSIS/Device/ST/STM32H7xx/Include/system_stm32h7xx.h"
 936              		.file 15 "/usr/lib/gcc/arm-none-eabi/9.2.1/include/stddef.h"
 937              		.file 16 "/usr/include/newlib/c++/9.2.1/cmath"
 938              		.file 17 "/usr/include/newlib/c++/9.2.1/bits/std_abs.h"
 939              		.file 18 "/usr/include/newlib/c++/9.2.1/cstdlib"
 940              		.file 19 "/usr/include/newlib/c++/9.2.1/cstdint"
ARM GAS  /tmp/ccBZcq6P.s 			page 29


 941              		.file 20 "/usr/include/newlib/c++/9.2.1/type_traits"
 942              		.file 21 "/usr/include/newlib/c++/9.2.1/arm-none-eabi/thumb/v7e-m+dp/hard/bits/c++config.h"
 943              		.file 22 "/usr/include/newlib/c++/9.2.1/bits/stl_pair.h"
 944              		.file 23 "/usr/include/newlib/c++/9.2.1/debug/debug.h"
 945              		.file 24 "/usr/include/newlib/c++/9.2.1/bits/algorithmfwd.h"
 946              		.file 25 "/usr/include/newlib/c++/9.2.1/bits/exception_ptr.h"
 947              		.file 26 "/usr/include/newlib/c++/9.2.1/new"
 948              		.file 27 "/usr/include/newlib/c++/9.2.1/cstdarg"
 949              		.file 28 "/usr/include/newlib/c++/9.2.1/cstdio"
 950              		.file 29 "/usr/include/newlib/c++/9.2.1/cwchar"
 951              		.file 30 "/usr/include/newlib/c++/9.2.1/clocale"
 952              		.file 31 "/usr/include/newlib/c++/9.2.1/bits/basic_string.h"
 953              		.file 32 "/usr/include/newlib/c++/9.2.1/bits/uniform_int_dist.h"
 954              		.file 33 "/usr/include/newlib/c++/9.2.1/bits/random.h"
 955              		.file 34 "/usr/include/newlib/c++/9.2.1/cstring"
 956              		.file 35 "/usr/include/newlib/c++/9.2.1/bits/predefined_ops.h"
 957              		.file 36 "/usr/include/newlib/c++/9.2.1/ext/numeric_traits.h"
 958              		.file 37 "/usr/include/newlib/c++/9.2.1/ext/new_allocator.h"
 959              		.file 38 "/usr/include/newlib/sys/_types.h"
 960              		.file 39 "<built-in>"
 961              		.file 40 "/usr/include/newlib/sys/reent.h"
 962              		.file 41 "/usr/include/newlib/sys/lock.h"
 963              		.file 42 "/usr/include/newlib/math.h"
 964              		.file 43 "/usr/include/newlib/stdlib.h"
 965              		.file 44 "/usr/include/newlib/c++/9.2.1/math.h"
 966              		.file 45 "../../libdaisy/Drivers/STM32H7xx_HAL_Driver/Inc/stm32h7xx_hal_def.h"
 967              		.file 46 "../../libdaisy/Drivers/STM32H7xx_HAL_Driver/Inc/stm32h7xx_hal_flash.h"
 968              		.file 47 "/usr/include/newlib/c++/9.2.1/stdlib.h"
 969              		.file 48 "../../libdaisy/src/daisy_core.h"
 970              		.file 49 "../../libdaisy/src/per/tim.h"
 971              		.file 50 "../../libdaisy/src/per/sai.h"
 972              		.file 51 "../../libdaisy/src/util/wav_format.h"
 973              		.file 52 "../../libdaisy/src/per/qspi.h"
 974              		.file 53 "../../libdaisy/src/per/gpio.h"
 975              		.file 54 "../../libdaisy/src/dev/sdram.h"
 976              		.file 55 "/usr/lib/gcc/arm-none-eabi/9.2.1/include/stdarg.h"
 977              		.file 56 "/usr/include/newlib/stdio.h"
 978              		.file 57 "/usr/include/newlib/sys/unistd.h"
 979              		.file 58 "../../libdaisy/src/util/oled_fonts.h"
 980              		.file 59 "../../libdaisy/Middlewares/Third_Party/FatFs/src/integer.h"
 981              		.file 60 "../../libdaisy/Middlewares/Third_Party/FatFs/src/ff.h"
 982              		.file 61 "../../libdaisy/Middlewares/Third_Party/FatFs/src/diskio.h"
 983              		.file 62 "../../libdaisy/Middlewares/Third_Party/FatFs/src/ff_gen_drv.h"
 984              		.file 63 "../../libdaisy/src/util/sd_diskio.h"
 985              		.file 64 "../../libdaisy/src/sys/fatfs.h"
 986              		.file 65 "../../DaisySP/Source/Control/adenv.h"
 987              		.file 66 "../../DaisySP/Source/Utility/dsp.h"
 988              		.file 67 "/usr/include/newlib/wchar.h"
 989              		.file 68 "/usr/include/newlib/locale.h"
 990              		.file 69 "/usr/include/newlib/ctype.h"
 991              		.file 70 "/usr/include/newlib/sys/errno.h"
 992              		.file 71 "/usr/include/newlib/string.h"
 993              		.file 72 "../../libdaisy/src/dev/sr_595.h"
ARM GAS  /tmp/ccBZcq6P.s 			page 30

