ARM GAS  /tmp/cceTyTr4.s 			page 1


   1              		.cpu cortex-m7
   2              		.eabi_attribute 28, 1
   3              		.eabi_attribute 20, 1
   4              		.eabi_attribute 21, 1
   5              		.eabi_attribute 23, 3
   6              		.eabi_attribute 24, 1
   7              		.eabi_attribute 25, 1
   8              		.eabi_attribute 26, 1
   9              		.eabi_attribute 30, 2
  10              		.eabi_attribute 34, 1
  11              		.eabi_attribute 18, 4
  12              		.file	"MultiEffect.cpp"
  13              		.text
  14              	.Ltext0:
  15              		.cfi_sections	.debug_frame
  16              		.section	.text._ZN7daisysp8ReverbScD2Ev,"axG",%progbits,_ZN7daisysp8ReverbScD5Ev,comdat
  17              		.align	1
  18              		.p2align 2,,3
  19              		.weak	_ZN7daisysp8ReverbScD2Ev
  20              		.arch armv7e-m
  21              		.syntax unified
  22              		.thumb
  23              		.thumb_func
  24              		.fpu fpv5-d16
  26              	_ZN7daisysp8ReverbScD2Ev:
  27              	.LVL0:
  28              	.LFB3000:
  29              		.file 1 "../../DaisySP/Source/Effects/reverbsc.h"
   1:../../DaisySP/Source/Effects/reverbsc.h **** #pragma once
   2:../../DaisySP/Source/Effects/reverbsc.h **** #ifndef DSYSP_REVERBSC_H
   3:../../DaisySP/Source/Effects/reverbsc.h **** #define DSYSP_REVERBSC_H
   4:../../DaisySP/Source/Effects/reverbsc.h **** 
   5:../../DaisySP/Source/Effects/reverbsc.h **** #define DSY_REVERBSC_MAX_SIZE 98936
   6:../../DaisySP/Source/Effects/reverbsc.h **** 
   7:../../DaisySP/Source/Effects/reverbsc.h **** namespace daisysp
   8:../../DaisySP/Source/Effects/reverbsc.h **** {
   9:../../DaisySP/Source/Effects/reverbsc.h **** /**Delay line for internal reverb use
  10:../../DaisySP/Source/Effects/reverbsc.h **** */
  11:../../DaisySP/Source/Effects/reverbsc.h **** typedef struct
  12:../../DaisySP/Source/Effects/reverbsc.h **** {
  13:../../DaisySP/Source/Effects/reverbsc.h ****     int    write_pos;         /**< write position */
  14:../../DaisySP/Source/Effects/reverbsc.h ****     int    buffer_size;       /**< buffer size */
  15:../../DaisySP/Source/Effects/reverbsc.h ****     int    read_pos;          /**< read position */
  16:../../DaisySP/Source/Effects/reverbsc.h ****     int    read_pos_frac;     /**< fractional component of read pos */
  17:../../DaisySP/Source/Effects/reverbsc.h ****     int    read_pos_frac_inc; /**< increment for fractional */
  18:../../DaisySP/Source/Effects/reverbsc.h ****     int    dummy;             /**<  dummy var */
  19:../../DaisySP/Source/Effects/reverbsc.h ****     int    seed_val;          /**< randseed */
  20:../../DaisySP/Source/Effects/reverbsc.h ****     int    rand_line_cnt;     /**< number of random lines */
  21:../../DaisySP/Source/Effects/reverbsc.h ****     float  filter_state;      /**< state of filter */
  22:../../DaisySP/Source/Effects/reverbsc.h ****     float *buf;               /**< buffer ptr */
  23:../../DaisySP/Source/Effects/reverbsc.h **** } ReverbScDl;
  24:../../DaisySP/Source/Effects/reverbsc.h **** 
  25:../../DaisySP/Source/Effects/reverbsc.h **** /** Stereo Reverb
  26:../../DaisySP/Source/Effects/reverbsc.h **** 
  27:../../DaisySP/Source/Effects/reverbsc.h **** Reverb SC:               Ported from csound/soundpipe
  28:../../DaisySP/Source/Effects/reverbsc.h **** 
  29:../../DaisySP/Source/Effects/reverbsc.h **** Original author(s):        Sean Costello, Istvan Varga
ARM GAS  /tmp/cceTyTr4.s 			page 2


  30:../../DaisySP/Source/Effects/reverbsc.h **** 
  31:../../DaisySP/Source/Effects/reverbsc.h **** Year:                    1999, 2005
  32:../../DaisySP/Source/Effects/reverbsc.h **** 
  33:../../DaisySP/Source/Effects/reverbsc.h **** Ported to soundpipe by:  Paul Batchelor
  34:../../DaisySP/Source/Effects/reverbsc.h **** 
  35:../../DaisySP/Source/Effects/reverbsc.h **** Ported by:                Stephen Hensley
  36:../../DaisySP/Source/Effects/reverbsc.h **** */
  37:../../DaisySP/Source/Effects/reverbsc.h **** class ReverbSc
  38:../../DaisySP/Source/Effects/reverbsc.h **** {
  39:../../DaisySP/Source/Effects/reverbsc.h ****   public:
  40:../../DaisySP/Source/Effects/reverbsc.h ****     ReverbSc() {}
  41:../../DaisySP/Source/Effects/reverbsc.h ****     ~ReverbSc() {}
  30              		.loc 1 41 5 view -0
  31              		.cfi_startproc
  32              		@ args = 0, pretend = 0, frame = 0
  33              		@ frame_needed = 0, uses_anonymous_args = 0
  34              		@ link register save eliminated.
  35              		.loc 1 41 18 is_stmt 0 view .LVU1
  36 0000 7047     		bx	lr
  37              		.cfi_endproc
  38              	.LFE3000:
  40              		.weak	_ZN7daisysp8ReverbScD1Ev
  41              		.thumb_set _ZN7daisysp8ReverbScD1Ev,_ZN7daisysp8ReverbScD2Ev
  42 0002 00BF     		.section	.text._ZN7daisysp4ToneD2Ev,"axG",%progbits,_ZN7daisysp4ToneD5Ev,comdat
  43              		.align	1
  44              		.p2align 2,,3
  45              		.weak	_ZN7daisysp4ToneD2Ev
  46              		.syntax unified
  47              		.thumb
  48              		.thumb_func
  49              		.fpu fpv5-d16
  51              	_ZN7daisysp4ToneD2Ev:
  52              	.LVL1:
  53              	.LFB3099:
  54              		.file 2 "../../DaisySP/Source/Filters/tone.h"
   1:../../DaisySP/Source/Filters/tone.h **** #pragma once
   2:../../DaisySP/Source/Filters/tone.h **** #ifndef DSY_TONE_H
   3:../../DaisySP/Source/Filters/tone.h **** #define DSY_TONE_H
   4:../../DaisySP/Source/Filters/tone.h **** 
   5:../../DaisySP/Source/Filters/tone.h **** #include <stdint.h>
   6:../../DaisySP/Source/Filters/tone.h **** #ifdef __cplusplus
   7:../../DaisySP/Source/Filters/tone.h **** 
   8:../../DaisySP/Source/Filters/tone.h **** namespace daisysp
   9:../../DaisySP/Source/Filters/tone.h **** {
  10:../../DaisySP/Source/Filters/tone.h **** /** A first-order recursive low-pass filter with variable frequency response.
  11:../../DaisySP/Source/Filters/tone.h **** */
  12:../../DaisySP/Source/Filters/tone.h **** class Tone
  13:../../DaisySP/Source/Filters/tone.h **** {
  14:../../DaisySP/Source/Filters/tone.h ****   public:
  15:../../DaisySP/Source/Filters/tone.h ****     Tone() {}
  16:../../DaisySP/Source/Filters/tone.h ****     ~Tone() {}
  55              		.loc 2 16 5 is_stmt 1 view -0
  56              		.cfi_startproc
  57              		@ args = 0, pretend = 0, frame = 0
  58              		@ frame_needed = 0, uses_anonymous_args = 0
  59              		@ link register save eliminated.
  60              		.loc 2 16 14 is_stmt 0 view .LVU3
ARM GAS  /tmp/cceTyTr4.s 			page 3


  61 0000 7047     		bx	lr
  62              		.cfi_endproc
  63              	.LFE3099:
  65              		.weak	_ZN7daisysp4ToneD1Ev
  66              		.thumb_set _ZN7daisysp4ToneD1Ev,_ZN7daisysp4ToneD2Ev
  67 0002 00BF     		.section	.text._ZN5daisy9ParameterD2Ev,"axG",%progbits,_ZN5daisy9ParameterD5Ev,comdat
  68              		.align	1
  69              		.p2align 2,,3
  70              		.weak	_ZN5daisy9ParameterD2Ev
  71              		.syntax unified
  72              		.thumb
  73              		.thumb_func
  74              		.fpu fpv5-d16
  76              	_ZN5daisy9ParameterD2Ev:
  77              	.LVL2:
  78              	.LFB3778:
  79              		.file 3 "../../libdaisy/src/hid/parameter.h"
   1:../../libdaisy/src/hid/parameter.h **** #pragma once
   2:../../libdaisy/src/hid/parameter.h **** #include <stdint.h>
   3:../../libdaisy/src/hid/parameter.h **** #include "hid/ctrl.h"
   4:../../libdaisy/src/hid/parameter.h **** 
   5:../../libdaisy/src/hid/parameter.h **** namespace daisy
   6:../../libdaisy/src/hid/parameter.h **** {
   7:../../libdaisy/src/hid/parameter.h **** /** @addtogroup controls
   8:../../libdaisy/src/hid/parameter.h ****     @{
   9:../../libdaisy/src/hid/parameter.h **** */
  10:../../libdaisy/src/hid/parameter.h **** 
  11:../../libdaisy/src/hid/parameter.h **** /**      Simple parameter mapping tool that takes a 0-1 input from an hid_ctrl. */
  12:../../libdaisy/src/hid/parameter.h **** class Parameter
  13:../../libdaisy/src/hid/parameter.h **** {
  14:../../libdaisy/src/hid/parameter.h ****   public:
  15:../../libdaisy/src/hid/parameter.h ****     /** Curves are applied to the output signal */
  16:../../libdaisy/src/hid/parameter.h ****     enum Curve
  17:../../libdaisy/src/hid/parameter.h ****     {
  18:../../libdaisy/src/hid/parameter.h ****         LINEAR,      /**< Linear curve */
  19:../../libdaisy/src/hid/parameter.h ****         EXPONENTIAL, /**< Exponential curve */
  20:../../libdaisy/src/hid/parameter.h ****         LOGARITHMIC, /**<  Logarithmic curve */
  21:../../libdaisy/src/hid/parameter.h ****         CUBE,        /**< Cubic curve */
  22:../../libdaisy/src/hid/parameter.h ****         LAST,        /**< Final enum element. */
  23:../../libdaisy/src/hid/parameter.h ****     };
  24:../../libdaisy/src/hid/parameter.h ****     /** Constructor */
  25:../../libdaisy/src/hid/parameter.h ****     Parameter() {}
  26:../../libdaisy/src/hid/parameter.h ****     /** Destructor */
  27:../../libdaisy/src/hid/parameter.h ****     ~Parameter() {}
  80              		.loc 3 27 5 is_stmt 1 view -0
  81              		.cfi_startproc
  82              		@ args = 0, pretend = 0, frame = 0
  83              		@ frame_needed = 0, uses_anonymous_args = 0
  84              		@ link register save eliminated.
  85              	.LBB398:
  86              	.LBI398:
  87              		.file 4 "../../libdaisy/src/hid/ctrl.h"
   1:../../libdaisy/src/hid/ctrl.h **** #pragma once
   2:../../libdaisy/src/hid/ctrl.h **** #ifndef DSY_KNOB_H
   3:../../libdaisy/src/hid/ctrl.h **** #define DSY_KNOB_H /**< & */
   4:../../libdaisy/src/hid/ctrl.h **** #include <stdint.h>
   5:../../libdaisy/src/hid/ctrl.h **** 
ARM GAS  /tmp/cceTyTr4.s 			page 4


   6:../../libdaisy/src/hid/ctrl.h **** #ifdef __cplusplus
   7:../../libdaisy/src/hid/ctrl.h **** namespace daisy
   8:../../libdaisy/src/hid/ctrl.h **** {
   9:../../libdaisy/src/hid/ctrl.h **** /**
  10:../../libdaisy/src/hid/ctrl.h ****     @brief Hardware Interface for control inputs \n 
  11:../../libdaisy/src/hid/ctrl.h ****     Primarily designed for ADC input controls such as \n 
  12:../../libdaisy/src/hid/ctrl.h ****     potentiometers, and control voltage. \n 
  13:../../libdaisy/src/hid/ctrl.h ****     @author Stephen Hensley
  14:../../libdaisy/src/hid/ctrl.h ****     @date November 2019
  15:../../libdaisy/src/hid/ctrl.h ****     @ingroup controls
  16:../../libdaisy/src/hid/ctrl.h **** */
  17:../../libdaisy/src/hid/ctrl.h **** class AnalogControl
  18:../../libdaisy/src/hid/ctrl.h **** {
  19:../../libdaisy/src/hid/ctrl.h ****   public:
  20:../../libdaisy/src/hid/ctrl.h ****     /** Constructor */
  21:../../libdaisy/src/hid/ctrl.h ****     AnalogControl() {}
  22:../../libdaisy/src/hid/ctrl.h ****     /** destructor */
  23:../../libdaisy/src/hid/ctrl.h ****     ~AnalogControl() {}
  88              		.loc 4 23 5 view .LVU5
  89              		.loc 4 23 5 is_stmt 0 view .LVU6
  90              	.LBE398:
  91              		.loc 3 27 19 view .LVU7
  92 0000 7047     		bx	lr
  93              		.cfi_endproc
  94              	.LFE3778:
  96              		.weak	_ZN5daisy9ParameterD1Ev
  97              		.thumb_set _ZN5daisy9ParameterD1Ev,_ZN5daisy9ParameterD2Ev
  98 0002 00BF     		.section	.text._ZN5daisy8DaisyPodD2Ev,"axG",%progbits,_ZN5daisy8DaisyPodD5Ev,comdat
  99              		.align	1
 100              		.p2align 2,,3
 101              		.weak	_ZN5daisy8DaisyPodD2Ev
 102              		.syntax unified
 103              		.thumb
 104              		.thumb_func
 105              		.fpu fpv5-d16
 107              	_ZN5daisy8DaisyPodD2Ev:
 108              	.LVL3:
 109              	.LFB4216:
 110              		.file 5 "../../libdaisy/src/daisy_pod.h"
   1:../../libdaisy/src/daisy_pod.h **** #pragma once
   2:../../libdaisy/src/daisy_pod.h **** #ifndef DSY_POD_BSP_H
   3:../../libdaisy/src/daisy_pod.h **** #define DSY_POD_BSP_H
   4:../../libdaisy/src/daisy_pod.h **** 
   5:../../libdaisy/src/daisy_pod.h **** #include "daisy_seed.h"
   6:../../libdaisy/src/daisy_pod.h **** 
   7:../../libdaisy/src/daisy_pod.h **** namespace daisy
   8:../../libdaisy/src/daisy_pod.h **** {
   9:../../libdaisy/src/daisy_pod.h **** /**
  10:../../libdaisy/src/daisy_pod.h ****     @brief Class that handles initializing all of the hardware specific to the Daisy Patch Board. \
  11:../../libdaisy/src/daisy_pod.h ****     Helper funtions are also in place to provide easy access to built-in controls and peripherals.
  12:../../libdaisy/src/daisy_pod.h ****     @author Stephen Hensley
  13:../../libdaisy/src/daisy_pod.h ****     @date November 2019
  14:../../libdaisy/src/daisy_pod.h ****     @ingroup boards
  15:../../libdaisy/src/daisy_pod.h **** */
  16:../../libdaisy/src/daisy_pod.h **** class DaisyPod
  17:../../libdaisy/src/daisy_pod.h **** {
  18:../../libdaisy/src/daisy_pod.h ****   public:
ARM GAS  /tmp/cceTyTr4.s 			page 5


  19:../../libdaisy/src/daisy_pod.h ****     /** Switches */
  20:../../libdaisy/src/daisy_pod.h ****     enum Sw
  21:../../libdaisy/src/daisy_pod.h ****     {
  22:../../libdaisy/src/daisy_pod.h ****         BUTTON_1,    /** & */
  23:../../libdaisy/src/daisy_pod.h ****         BUTTON_2,    /** & */
  24:../../libdaisy/src/daisy_pod.h ****         BUTTON_LAST, /** &  */
  25:../../libdaisy/src/daisy_pod.h ****     };
  26:../../libdaisy/src/daisy_pod.h **** 
  27:../../libdaisy/src/daisy_pod.h ****     /** Knobs */
  28:../../libdaisy/src/daisy_pod.h ****     enum Knob
  29:../../libdaisy/src/daisy_pod.h ****     {
  30:../../libdaisy/src/daisy_pod.h ****         KNOB_1,    /** &  */
  31:../../libdaisy/src/daisy_pod.h ****         KNOB_2,    /** & */
  32:../../libdaisy/src/daisy_pod.h ****         KNOB_LAST, /** & */
  33:../../libdaisy/src/daisy_pod.h ****     };
  34:../../libdaisy/src/daisy_pod.h **** 
  35:../../libdaisy/src/daisy_pod.h ****     DaisyPod() {}
  36:../../libdaisy/src/daisy_pod.h ****     ~DaisyPod() {}
 111              		.loc 5 36 5 is_stmt 1 view -0
 112              		.cfi_startproc
 113              		@ args = 0, pretend = 0, frame = 0
 114              		@ frame_needed = 0, uses_anonymous_args = 0
 115              		@ link register save eliminated.
 116              	.LBB399:
 117              	.LBI399:
 118              		.file 6 "../../libdaisy/src/hid/midi.h"
   1:../../libdaisy/src/hid/midi.h **** #pragma once
   2:../../libdaisy/src/hid/midi.h **** #ifndef DSY_MIDI_H
   3:../../libdaisy/src/hid/midi.h **** #define DSY_MIDI_H
   4:../../libdaisy/src/hid/midi.h **** 
   5:../../libdaisy/src/hid/midi.h **** // TODO: make this adjustable
   6:../../libdaisy/src/hid/midi.h **** #define SYSEX_BUFFER_LEN 128
   7:../../libdaisy/src/hid/midi.h **** 
   8:../../libdaisy/src/hid/midi.h **** #include <stdint.h>
   9:../../libdaisy/src/hid/midi.h **** #include <stdlib.h>
  10:../../libdaisy/src/hid/midi.h **** #include "per/uart.h"
  11:../../libdaisy/src/hid/midi.h **** #include "util/ringbuffer.h"
  12:../../libdaisy/src/hid/midi.h **** #include "hid/MidiEvent.h"
  13:../../libdaisy/src/hid/midi.h **** #include "sys/system.h"
  14:../../libdaisy/src/hid/midi.h **** 
  15:../../libdaisy/src/hid/midi.h **** namespace daisy
  16:../../libdaisy/src/hid/midi.h **** {
  17:../../libdaisy/src/hid/midi.h **** /** @addtogroup external 
  18:../../libdaisy/src/hid/midi.h ****     @{ 
  19:../../libdaisy/src/hid/midi.h **** */
  20:../../libdaisy/src/hid/midi.h **** 
  21:../../libdaisy/src/hid/midi.h **** class MidiUartTransport
  22:../../libdaisy/src/hid/midi.h **** {
  23:../../libdaisy/src/hid/midi.h ****   public:
  24:../../libdaisy/src/hid/midi.h ****     MidiUartTransport() {}
  25:../../libdaisy/src/hid/midi.h ****     ~MidiUartTransport() {}
  26:../../libdaisy/src/hid/midi.h **** 
  27:../../libdaisy/src/hid/midi.h ****     struct Config
  28:../../libdaisy/src/hid/midi.h ****     {
  29:../../libdaisy/src/hid/midi.h ****         UartHandler::Config::Peripheral periph;
  30:../../libdaisy/src/hid/midi.h ****         dsy_gpio_pin                    rx;
  31:../../libdaisy/src/hid/midi.h ****         dsy_gpio_pin                    tx;
ARM GAS  /tmp/cceTyTr4.s 			page 6


  32:../../libdaisy/src/hid/midi.h **** 
  33:../../libdaisy/src/hid/midi.h ****         Config()
  34:../../libdaisy/src/hid/midi.h ****         {
  35:../../libdaisy/src/hid/midi.h ****             periph = UartHandler::Config::Peripheral::USART_1;
  36:../../libdaisy/src/hid/midi.h ****             rx     = {DSY_GPIOB, 7};
  37:../../libdaisy/src/hid/midi.h ****             tx     = {DSY_GPIOB, 6};
  38:../../libdaisy/src/hid/midi.h ****         }
  39:../../libdaisy/src/hid/midi.h ****     };
  40:../../libdaisy/src/hid/midi.h **** 
  41:../../libdaisy/src/hid/midi.h ****     inline void Init(Config config)
  42:../../libdaisy/src/hid/midi.h ****     {
  43:../../libdaisy/src/hid/midi.h ****         UartHandler::Config uart_config;
  44:../../libdaisy/src/hid/midi.h **** 
  45:../../libdaisy/src/hid/midi.h ****         //defaults
  46:../../libdaisy/src/hid/midi.h ****         uart_config.baudrate   = 31250;
  47:../../libdaisy/src/hid/midi.h ****         uart_config.stopbits   = UartHandler::Config::StopBits::BITS_1;
  48:../../libdaisy/src/hid/midi.h ****         uart_config.parity     = UartHandler::Config::Parity::NONE;
  49:../../libdaisy/src/hid/midi.h ****         uart_config.mode       = UartHandler::Config::Mode::TX_RX;
  50:../../libdaisy/src/hid/midi.h ****         uart_config.wordlength = UartHandler::Config::WordLength::BITS_8;
  51:../../libdaisy/src/hid/midi.h **** 
  52:../../libdaisy/src/hid/midi.h ****         //user settings
  53:../../libdaisy/src/hid/midi.h ****         uart_config.periph        = config.periph;
  54:../../libdaisy/src/hid/midi.h ****         uart_config.pin_config.rx = config.rx;
  55:../../libdaisy/src/hid/midi.h ****         uart_config.pin_config.tx = config.tx;
  56:../../libdaisy/src/hid/midi.h **** 
  57:../../libdaisy/src/hid/midi.h ****         uart_.Init(uart_config);
  58:../../libdaisy/src/hid/midi.h ****     }
  59:../../libdaisy/src/hid/midi.h **** 
  60:../../libdaisy/src/hid/midi.h ****     inline void    StartRx() { uart_.StartRx(); }
  61:../../libdaisy/src/hid/midi.h ****     inline size_t  Readable() { return uart_.Readable(); }
  62:../../libdaisy/src/hid/midi.h ****     inline uint8_t Rx() { return uart_.PopRx(); }
  63:../../libdaisy/src/hid/midi.h ****     inline bool    RxActive() { return uart_.RxActive(); }
  64:../../libdaisy/src/hid/midi.h ****     inline void    FlushRx() { uart_.FlushRx(); }
  65:../../libdaisy/src/hid/midi.h ****     inline void    Tx(uint8_t* buff, size_t size) { uart_.PollTx(buff, size); }
  66:../../libdaisy/src/hid/midi.h **** 
  67:../../libdaisy/src/hid/midi.h ****   private:
  68:../../libdaisy/src/hid/midi.h ****     UartHandler uart_;
  69:../../libdaisy/src/hid/midi.h **** };
  70:../../libdaisy/src/hid/midi.h **** 
  71:../../libdaisy/src/hid/midi.h **** /** 
  72:../../libdaisy/src/hid/midi.h ****     @brief Simple MIDI Handler \n 
  73:../../libdaisy/src/hid/midi.h ****     Parses bytes from an input into valid MidiEvents. \n 
  74:../../libdaisy/src/hid/midi.h ****     The MidiEvents fill a FIFO queue that the user can pop messages from.
  75:../../libdaisy/src/hid/midi.h ****     @author shensley
  76:../../libdaisy/src/hid/midi.h ****     @date March 2020
  77:../../libdaisy/src/hid/midi.h **** */
  78:../../libdaisy/src/hid/midi.h **** template <typename Transport>
  79:../../libdaisy/src/hid/midi.h **** class MidiHandler
  80:../../libdaisy/src/hid/midi.h **** {
  81:../../libdaisy/src/hid/midi.h ****   public:
  82:../../libdaisy/src/hid/midi.h ****     MidiHandler() {}
  83:../../libdaisy/src/hid/midi.h ****     ~MidiHandler() {}
 119              		.loc 6 83 5 view .LVU9
 120              	.LBB400:
 121              	.LBI400:
  25:../../libdaisy/src/hid/midi.h **** 
 122              		.loc 6 25 5 view .LVU10
ARM GAS  /tmp/cceTyTr4.s 			page 7


  25:../../libdaisy/src/hid/midi.h **** 
 123              		.loc 6 25 5 is_stmt 0 view .LVU11
 124              	.LBE400:
 125              	.LBE399:
 126              	.LBB401:
 127              	.LBI401:
 128              		.file 7 "../../libdaisy/src/hid/rgb_led.h"
   1:../../libdaisy/src/hid/rgb_led.h **** #pragma once
   2:../../libdaisy/src/hid/rgb_led.h **** #ifndef DSY_RGB_LED_H
   3:../../libdaisy/src/hid/rgb_led.h **** #define DSY_RGB_LED_H
   4:../../libdaisy/src/hid/rgb_led.h **** #include "hid/led.h"
   5:../../libdaisy/src/hid/rgb_led.h **** #include "util/color.h"
   6:../../libdaisy/src/hid/rgb_led.h **** 
   7:../../libdaisy/src/hid/rgb_led.h **** namespace daisy
   8:../../libdaisy/src/hid/rgb_led.h **** {
   9:../../libdaisy/src/hid/rgb_led.h **** /** @addtogroup feedback
  10:../../libdaisy/src/hid/rgb_led.h ****     @{
  11:../../libdaisy/src/hid/rgb_led.h **** */
  12:../../libdaisy/src/hid/rgb_led.h **** 
  13:../../libdaisy/src/hid/rgb_led.h **** /** 3x LEDs configured as an RGB for ease of use. */
  14:../../libdaisy/src/hid/rgb_led.h **** class RgbLed
  15:../../libdaisy/src/hid/rgb_led.h **** {
  16:../../libdaisy/src/hid/rgb_led.h ****   public:
  17:../../libdaisy/src/hid/rgb_led.h ****     RgbLed() {}
  18:../../libdaisy/src/hid/rgb_led.h ****     ~RgbLed() {}
 129              		.loc 7 18 5 is_stmt 1 view .LVU12
 130              	.LBB402:
 131              	.LBI402:
 132              		.file 8 "../../libdaisy/src/hid/led.h"
   1:../../libdaisy/src/hid/led.h **** 
   2:../../libdaisy/src/hid/led.h **** #pragma once
   3:../../libdaisy/src/hid/led.h **** #ifndef DSY_LED_H
   4:../../libdaisy/src/hid/led.h **** #define DSY_LED_H
   5:../../libdaisy/src/hid/led.h **** #include "daisy_core.h"
   6:../../libdaisy/src/hid/led.h **** #include "per/gpio.h"
   7:../../libdaisy/src/hid/led.h **** 
   8:../../libdaisy/src/hid/led.h **** /* TODO - Get this set up to work with the dev_leddriver stuff as well
   9:../../libdaisy/src/hid/led.h **** - Setup Hardware PWM for pins that have it
  10:../../libdaisy/src/hid/led.h **** */
  11:../../libdaisy/src/hid/led.h **** 
  12:../../libdaisy/src/hid/led.h **** namespace daisy
  13:../../libdaisy/src/hid/led.h **** {
  14:../../libdaisy/src/hid/led.h **** /**
  15:../../libdaisy/src/hid/led.h ****     @brief LED Class providing simple Software PWM ability, etc \n 
  16:../../libdaisy/src/hid/led.h ****     Eventually this will work with hardware PWM, and external LED Driver devices as well.
  17:../../libdaisy/src/hid/led.h ****     @author shensley
  18:../../libdaisy/src/hid/led.h ****     @date March 2020
  19:../../libdaisy/src/hid/led.h ****     @ingroup feedback
  20:../../libdaisy/src/hid/led.h **** */
  21:../../libdaisy/src/hid/led.h **** class Led
  22:../../libdaisy/src/hid/led.h **** {
  23:../../libdaisy/src/hid/led.h ****   public:
  24:../../libdaisy/src/hid/led.h ****     Led() {}
  25:../../libdaisy/src/hid/led.h ****     ~Led() {}
 133              		.loc 8 25 5 view .LVU13
 134              		.loc 8 25 5 is_stmt 0 view .LVU14
 135              	.LBE402:
ARM GAS  /tmp/cceTyTr4.s 			page 8


 136              	.LBB403:
 137              	.LBI403:
 138              		.loc 8 25 5 is_stmt 1 view .LVU15
 139              		.loc 8 25 5 is_stmt 0 view .LVU16
 140              	.LBE403:
 141              	.LBB404:
 142              	.LBI404:
 143              		.loc 8 25 5 is_stmt 1 view .LVU17
 144              		.loc 8 25 5 is_stmt 0 view .LVU18
 145              	.LBE404:
 146              	.LBE401:
 147              	.LBB405:
 148              	.LBI405:
 149              		.loc 7 18 5 is_stmt 1 view .LVU19
 150              	.LBB406:
 151              	.LBI406:
 152              		.loc 8 25 5 view .LVU20
 153              		.loc 8 25 5 is_stmt 0 view .LVU21
 154              	.LBE406:
 155              	.LBB407:
 156              	.LBI407:
 157              		.loc 8 25 5 is_stmt 1 view .LVU22
 158              		.loc 8 25 5 is_stmt 0 view .LVU23
 159              	.LBE407:
 160              	.LBB408:
 161              	.LBI408:
 162              		.loc 8 25 5 is_stmt 1 view .LVU24
 163              		.loc 8 25 5 is_stmt 0 view .LVU25
 164              	.LBE408:
 165              	.LBE405:
 166              	.LBB409:
 167              	.LBI409:
 168              		.file 9 "../../libdaisy/src/hid/switch.h"
   1:../../libdaisy/src/hid/switch.h **** #pragma once
   2:../../libdaisy/src/hid/switch.h **** #ifndef DSY_SWITCH_H
   3:../../libdaisy/src/hid/switch.h **** #define DSY_SWITCH_H
   4:../../libdaisy/src/hid/switch.h **** #include "daisy_core.h"
   5:../../libdaisy/src/hid/switch.h **** #include "per/gpio.h"
   6:../../libdaisy/src/hid/switch.h **** 
   7:../../libdaisy/src/hid/switch.h **** namespace daisy
   8:../../libdaisy/src/hid/switch.h **** {
   9:../../libdaisy/src/hid/switch.h **** /** 
  10:../../libdaisy/src/hid/switch.h ****     Generic Class for handling momentary/latching switches \n 
  11:../../libdaisy/src/hid/switch.h ****     Inspired/influenced by Mutable Instruments (pichenettes) Switch classes
  12:../../libdaisy/src/hid/switch.h ****     @author Stephen Hensley
  13:../../libdaisy/src/hid/switch.h ****     @date December 2019
  14:../../libdaisy/src/hid/switch.h ****     @ingroup controls
  15:../../libdaisy/src/hid/switch.h **** */
  16:../../libdaisy/src/hid/switch.h **** class Switch
  17:../../libdaisy/src/hid/switch.h **** {
  18:../../libdaisy/src/hid/switch.h ****   public:
  19:../../libdaisy/src/hid/switch.h ****     /** Specifies the expected behavior of the switch */
  20:../../libdaisy/src/hid/switch.h ****     enum Type
  21:../../libdaisy/src/hid/switch.h ****     {
  22:../../libdaisy/src/hid/switch.h ****         TYPE_TOGGLE,    /**< & */
  23:../../libdaisy/src/hid/switch.h ****         TYPE_MOMENTARY, /**< & */
  24:../../libdaisy/src/hid/switch.h ****     };
ARM GAS  /tmp/cceTyTr4.s 			page 9


  25:../../libdaisy/src/hid/switch.h ****     /** Specifies whether the pressed is HIGH or LOW. */
  26:../../libdaisy/src/hid/switch.h ****     enum Polarity
  27:../../libdaisy/src/hid/switch.h ****     {
  28:../../libdaisy/src/hid/switch.h ****         POLARITY_NORMAL,   /**< & */
  29:../../libdaisy/src/hid/switch.h ****         POLARITY_INVERTED, /**< & */
  30:../../libdaisy/src/hid/switch.h ****     };
  31:../../libdaisy/src/hid/switch.h **** 
  32:../../libdaisy/src/hid/switch.h ****     /** Specifies whether to use built-in Pull Up/Down resistors to hold button at a given state wh
  33:../../libdaisy/src/hid/switch.h ****     enum Pull
  34:../../libdaisy/src/hid/switch.h ****     {
  35:../../libdaisy/src/hid/switch.h ****         PULL_UP,   /**< & */
  36:../../libdaisy/src/hid/switch.h ****         PULL_DOWN, /**< & */
  37:../../libdaisy/src/hid/switch.h ****         PULL_NONE, /**< & */
  38:../../libdaisy/src/hid/switch.h ****     };
  39:../../libdaisy/src/hid/switch.h **** 
  40:../../libdaisy/src/hid/switch.h ****     Switch() {}
  41:../../libdaisy/src/hid/switch.h ****     ~Switch() {}
 169              		.loc 9 41 5 is_stmt 1 view .LVU26
 170              		.loc 9 41 5 is_stmt 0 view .LVU27
 171              	.LBE409:
 172              	.LBB410:
 173              	.LBI410:
 174              		.loc 9 41 5 is_stmt 1 view .LVU28
 175              		.loc 9 41 5 is_stmt 0 view .LVU29
 176              	.LBE410:
 177              	.LBB411:
 178              	.LBI411:
 179              		.loc 4 23 5 is_stmt 1 view .LVU30
 180              		.loc 4 23 5 is_stmt 0 view .LVU31
 181              	.LBE411:
 182              	.LBB412:
 183              	.LBI412:
 184              		.loc 4 23 5 is_stmt 1 view .LVU32
 185              		.loc 4 23 5 is_stmt 0 view .LVU33
 186              	.LBE412:
 187              	.LBB413:
 188              	.LBI413:
 189              		.file 10 "../../libdaisy/src/hid/encoder.h"
   1:../../libdaisy/src/hid/encoder.h **** #pragma once
   2:../../libdaisy/src/hid/encoder.h **** #ifndef DSY_ENCODER_H
   3:../../libdaisy/src/hid/encoder.h **** #define DSY_ENCODER_H
   4:../../libdaisy/src/hid/encoder.h **** #include "daisy_core.h"
   5:../../libdaisy/src/hid/encoder.h **** #include "per/gpio.h"
   6:../../libdaisy/src/hid/encoder.h **** #include "hid/switch.h"
   7:../../libdaisy/src/hid/encoder.h **** 
   8:../../libdaisy/src/hid/encoder.h **** namespace daisy
   9:../../libdaisy/src/hid/encoder.h **** {
  10:../../libdaisy/src/hid/encoder.h **** /** 
  11:../../libdaisy/src/hid/encoder.h ****     @brief Generic Class for handling Quadrature Encoders \n 
  12:../../libdaisy/src/hid/encoder.h ****     Inspired/influenced by Mutable Instruments (pichenettes) Encoder classes
  13:../../libdaisy/src/hid/encoder.h ****     @author Stephen Hensley
  14:../../libdaisy/src/hid/encoder.h ****     @date December 2019
  15:../../libdaisy/src/hid/encoder.h ****     @ingroup controls
  16:../../libdaisy/src/hid/encoder.h **** */
  17:../../libdaisy/src/hid/encoder.h **** class Encoder
  18:../../libdaisy/src/hid/encoder.h **** {
  19:../../libdaisy/src/hid/encoder.h ****   public:
ARM GAS  /tmp/cceTyTr4.s 			page 10


  20:../../libdaisy/src/hid/encoder.h ****     Encoder() {}
  21:../../libdaisy/src/hid/encoder.h ****     ~Encoder() {}
 190              		.loc 10 21 5 is_stmt 1 view .LVU34
 191              	.LBB414:
 192              	.LBI414:
 193              		.loc 9 41 5 view .LVU35
 194              		.loc 9 41 5 is_stmt 0 view .LVU36
 195              	.LBE414:
 196              	.LBE413:
 197              	.LBB415:
 198              	.LBI415:
 199              		.file 11 "../../libdaisy/src/daisy_seed.h"
   1:../../libdaisy/src/daisy_seed.h **** #pragma once
   2:../../libdaisy/src/daisy_seed.h **** #ifndef DSY_SEED_H
   3:../../libdaisy/src/daisy_seed.h **** #define DSY_SEED_H
   4:../../libdaisy/src/daisy_seed.h **** 
   5:../../libdaisy/src/daisy_seed.h **** #include "daisy.h"
   6:../../libdaisy/src/daisy_seed.h **** 
   7:../../libdaisy/src/daisy_seed.h **** //Uncomment this out if you're still using the rev2 hardware
   8:../../libdaisy/src/daisy_seed.h **** //#define SEED_REV2
   9:../../libdaisy/src/daisy_seed.h **** 
  10:../../libdaisy/src/daisy_seed.h **** namespace daisy
  11:../../libdaisy/src/daisy_seed.h **** {
  12:../../libdaisy/src/daisy_seed.h **** /**
  13:../../libdaisy/src/daisy_seed.h ****    @brief This is the higher-level interface for the Daisy board. \n 
  14:../../libdaisy/src/daisy_seed.h ****     All basic peripheral configuration/initialization is setup here. \n
  15:../../libdaisy/src/daisy_seed.h **** 
  16:../../libdaisy/src/daisy_seed.h ****    @ingroup boards
  17:../../libdaisy/src/daisy_seed.h **** */
  18:../../libdaisy/src/daisy_seed.h **** class DaisySeed
  19:../../libdaisy/src/daisy_seed.h **** {
  20:../../libdaisy/src/daisy_seed.h ****   public:
  21:../../libdaisy/src/daisy_seed.h ****     DaisySeed() {}
  22:../../libdaisy/src/daisy_seed.h ****     ~DaisySeed() {}
 200              		.loc 11 22 5 is_stmt 1 view .LVU37
 201              	.LBB416:
 202              	.LBI416:
 203              		.file 12 "../../libdaisy/src/sys/system.h"
   1:../../libdaisy/src/sys/system.h **** #ifndef DSY_SYSTEM_H
   2:../../libdaisy/src/sys/system.h **** #define DSY_SYSTEM_H
   3:../../libdaisy/src/sys/system.h **** 
   4:../../libdaisy/src/sys/system.h **** #ifndef UNIT_TEST // for unit tests, a dummy implementation is provided below
   5:../../libdaisy/src/sys/system.h **** 
   6:../../libdaisy/src/sys/system.h **** #include <cstdint>
   7:../../libdaisy/src/sys/system.h **** #include "per/tim.h"
   8:../../libdaisy/src/sys/system.h **** 
   9:../../libdaisy/src/sys/system.h **** namespace daisy
  10:../../libdaisy/src/sys/system.h **** {
  11:../../libdaisy/src/sys/system.h **** /** A handle for interacting with the Core System. 
  12:../../libdaisy/src/sys/system.h ****  ** This includes the Clock tree, MPU, global DMA initialization,
  13:../../libdaisy/src/sys/system.h ****  ** cache handling, and any other necessary global initiailzation
  14:../../libdaisy/src/sys/system.h ****  **
  15:../../libdaisy/src/sys/system.h ****  ** @author shensley
  16:../../libdaisy/src/sys/system.h ****  ** @addtogroup system
  17:../../libdaisy/src/sys/system.h ****  */
  18:../../libdaisy/src/sys/system.h **** class System
  19:../../libdaisy/src/sys/system.h **** {
ARM GAS  /tmp/cceTyTr4.s 			page 11


  20:../../libdaisy/src/sys/system.h ****   public:
  21:../../libdaisy/src/sys/system.h ****     /** Contains settings for initializing the System */
  22:../../libdaisy/src/sys/system.h ****     struct Config
  23:../../libdaisy/src/sys/system.h ****     {
  24:../../libdaisy/src/sys/system.h ****         /** Specifies the system clock frequency that feeds APB/AHB clocks, etc. */
  25:../../libdaisy/src/sys/system.h ****         enum class SysClkFreq
  26:../../libdaisy/src/sys/system.h ****         {
  27:../../libdaisy/src/sys/system.h ****             FREQ_400MHZ,
  28:../../libdaisy/src/sys/system.h ****             FREQ_480MHZ,
  29:../../libdaisy/src/sys/system.h ****         };
  30:../../libdaisy/src/sys/system.h **** 
  31:../../libdaisy/src/sys/system.h ****         /** Method to call on the struct to set to defaults
  32:../../libdaisy/src/sys/system.h ****          ** CPU Freq set to 400MHz
  33:../../libdaisy/src/sys/system.h ****          ** Cache Enabled 
  34:../../libdaisy/src/sys/system.h ****          ** */
  35:../../libdaisy/src/sys/system.h ****         void Defaults()
  36:../../libdaisy/src/sys/system.h ****         {
  37:../../libdaisy/src/sys/system.h ****             cpu_freq   = SysClkFreq::FREQ_400MHZ;
  38:../../libdaisy/src/sys/system.h ****             use_dcache = true;
  39:../../libdaisy/src/sys/system.h ****             use_icache = true;
  40:../../libdaisy/src/sys/system.h ****         }
  41:../../libdaisy/src/sys/system.h **** 
  42:../../libdaisy/src/sys/system.h ****         /** Method to call on the struct to set to boost mode:
  43:../../libdaisy/src/sys/system.h ****          ** CPU Freq set to 480MHz
  44:../../libdaisy/src/sys/system.h ****          ** Cache Enabled 
  45:../../libdaisy/src/sys/system.h ****          ** */
  46:../../libdaisy/src/sys/system.h ****         void Boost()
  47:../../libdaisy/src/sys/system.h ****         {
  48:../../libdaisy/src/sys/system.h ****             cpu_freq   = SysClkFreq::FREQ_480MHZ;
  49:../../libdaisy/src/sys/system.h ****             use_dcache = true;
  50:../../libdaisy/src/sys/system.h ****             use_icache = true;
  51:../../libdaisy/src/sys/system.h ****         }
  52:../../libdaisy/src/sys/system.h **** 
  53:../../libdaisy/src/sys/system.h ****         SysClkFreq cpu_freq;
  54:../../libdaisy/src/sys/system.h ****         bool       use_dcache;
  55:../../libdaisy/src/sys/system.h ****         bool       use_icache;
  56:../../libdaisy/src/sys/system.h ****     };
  57:../../libdaisy/src/sys/system.h **** 
  58:../../libdaisy/src/sys/system.h ****     System() {}
  59:../../libdaisy/src/sys/system.h ****     ~System() {}
 204              		.loc 12 59 5 view .LVU38
 205              		.loc 12 59 5 is_stmt 0 view .LVU39
 206              	.LBE416:
 207              	.LBB417:
 208              	.LBI417:
 209              		.file 13 "../../libdaisy/src/hid/usb.h"
   1:../../libdaisy/src/hid/usb.h **** #pragma once
   2:../../libdaisy/src/hid/usb.h **** #ifndef DSY_HID_USB_H
   3:../../libdaisy/src/hid/usb.h **** #define DSY_HID_USB_H
   4:../../libdaisy/src/hid/usb.h **** #include <stdint.h>
   5:../../libdaisy/src/hid/usb.h **** #include <stdlib.h>
   6:../../libdaisy/src/hid/usb.h **** 
   7:../../libdaisy/src/hid/usb.h **** namespace daisy
   8:../../libdaisy/src/hid/usb.h **** /** @addtogroup externals
   9:../../libdaisy/src/hid/usb.h ****     @{
  10:../../libdaisy/src/hid/usb.h **** */
  11:../../libdaisy/src/hid/usb.h **** 
ARM GAS  /tmp/cceTyTr4.s 			page 12


  12:../../libdaisy/src/hid/usb.h **** {
  13:../../libdaisy/src/hid/usb.h **** /** 
  14:../../libdaisy/src/hid/usb.h ****     @brief Interface for initializing and using the USB Peripherals on the daisy
  15:../../libdaisy/src/hid/usb.h ****     @author Stephen Hensley
  16:../../libdaisy/src/hid/usb.h ****     @date December 2019
  17:../../libdaisy/src/hid/usb.h **** */
  18:../../libdaisy/src/hid/usb.h **** class UsbHandle
  19:../../libdaisy/src/hid/usb.h **** {
  20:../../libdaisy/src/hid/usb.h ****   public:
  21:../../libdaisy/src/hid/usb.h ****     /** Return values for USBHandle Functions */
  22:../../libdaisy/src/hid/usb.h ****     enum class Result
  23:../../libdaisy/src/hid/usb.h ****     {
  24:../../libdaisy/src/hid/usb.h ****         OK,
  25:../../libdaisy/src/hid/usb.h ****         ERR,
  26:../../libdaisy/src/hid/usb.h ****     };
  27:../../libdaisy/src/hid/usb.h **** 
  28:../../libdaisy/src/hid/usb.h ****     /** Specified which of the two USB Peripherals to initialize. */
  29:../../libdaisy/src/hid/usb.h ****     enum UsbPeriph
  30:../../libdaisy/src/hid/usb.h ****     {
  31:../../libdaisy/src/hid/usb.h ****         FS_INTERNAL, /**< Internal pin */
  32:../../libdaisy/src/hid/usb.h ****         FS_EXTERNAL, /**< FS External D+ pin is Pin 38 (GPIO32). FS External D- pin is Pin 37 (GPIO
  33:../../libdaisy/src/hid/usb.h ****         FS_BOTH,     /**< Both */
  34:../../libdaisy/src/hid/usb.h ****     };
  35:../../libdaisy/src/hid/usb.h **** 
  36:../../libdaisy/src/hid/usb.h **** 
  37:../../libdaisy/src/hid/usb.h ****     /** Function called upon reception of a buffer */
  38:../../libdaisy/src/hid/usb.h ****     typedef void (*ReceiveCallback)(uint8_t* buff, uint32_t* len);
  39:../../libdaisy/src/hid/usb.h **** 
  40:../../libdaisy/src/hid/usb.h ****     UsbHandle() {}
  41:../../libdaisy/src/hid/usb.h **** 
  42:../../libdaisy/src/hid/usb.h ****     ~UsbHandle() {}
 210              		.loc 13 42 5 is_stmt 1 view .LVU40
 211              		.loc 13 42 5 is_stmt 0 view .LVU41
 212              	.LBE417:
 213              	.LBB418:
 214              	.LBI418:
 215              		.file 14 "../../libdaisy/src/per/adc.h"
   1:../../libdaisy/src/per/adc.h **** #pragma once
   2:../../libdaisy/src/per/adc.h **** #ifndef DSY_ADC_H
   3:../../libdaisy/src/per/adc.h **** #define DSY_ADC_H /**< Macro */
   4:../../libdaisy/src/per/adc.h **** #include <stdint.h>
   5:../../libdaisy/src/per/adc.h **** #include <stdlib.h>
   6:../../libdaisy/src/per/adc.h **** #include "daisy_core.h"
   7:../../libdaisy/src/per/adc.h **** #include "per/gpio.h"
   8:../../libdaisy/src/per/adc.h **** 
   9:../../libdaisy/src/per/adc.h **** #define DSY_ADC_MAX_CHANNELS 14 /**< Maximum number of ADC channels */
  10:../../libdaisy/src/per/adc.h **** 
  11:../../libdaisy/src/per/adc.h **** namespace daisy
  12:../../libdaisy/src/per/adc.h **** {
  13:../../libdaisy/src/per/adc.h **** /** @addtogroup analog_digital_conversion
  14:../../libdaisy/src/per/adc.h ****     @{
  15:../../libdaisy/src/per/adc.h **** */
  16:../../libdaisy/src/per/adc.h **** 
  17:../../libdaisy/src/per/adc.h **** /* While there may not be many configuration options here,
  18:../../libdaisy/src/per/adc.h **** using a struct like this allows us to add more configuration
  19:../../libdaisy/src/per/adc.h **** later without breaking existing functionality.
  20:../../libdaisy/src/per/adc.h **** */
ARM GAS  /tmp/cceTyTr4.s 			page 13


  21:../../libdaisy/src/per/adc.h **** 
  22:../../libdaisy/src/per/adc.h **** /** Configuration Structure for a given channel */
  23:../../libdaisy/src/per/adc.h **** struct AdcChannelConfig
  24:../../libdaisy/src/per/adc.h **** {
  25:../../libdaisy/src/per/adc.h ****     /** Which pin to use for multiplexing */
  26:../../libdaisy/src/per/adc.h ****     enum MuxPin
  27:../../libdaisy/src/per/adc.h ****     {
  28:../../libdaisy/src/per/adc.h ****         MUX_SEL_0,    /**< & */
  29:../../libdaisy/src/per/adc.h ****         MUX_SEL_1,    /**< & */
  30:../../libdaisy/src/per/adc.h ****         MUX_SEL_2,    /**< & */
  31:../../libdaisy/src/per/adc.h ****         MUX_SEL_LAST, /**< & */
  32:../../libdaisy/src/per/adc.h ****     };
  33:../../libdaisy/src/per/adc.h **** 
  34:../../libdaisy/src/per/adc.h ****     /** Initializes a single ADC pin as an ADC. 
  35:../../libdaisy/src/per/adc.h ****     \param pin Pin to init.
  36:../../libdaisy/src/per/adc.h ****      */
  37:../../libdaisy/src/per/adc.h ****     void InitSingle(dsy_gpio_pin pin);
  38:../../libdaisy/src/per/adc.h **** 
  39:../../libdaisy/src/per/adc.h ****     /** 
  40:../../libdaisy/src/per/adc.h ****     Initializes a single ADC pin as a Multiplexed ADC.
  41:../../libdaisy/src/per/adc.h ****     Requires a CD405X Multiplexer connected to the pin.
  42:../../libdaisy/src/per/adc.h ****     You only need to supply the mux pins that are required,
  43:../../libdaisy/src/per/adc.h ****     e.g. a 4052 mux would only require mux_0 and mux_1.
  44:../../libdaisy/src/per/adc.h ****     Internal Callbacks handle the pin addressing.
  45:../../libdaisy/src/per/adc.h ****     \param mux_channels must be 1-8
  46:../../libdaisy/src/per/adc.h ****     \param mux_0 First mux pin
  47:../../libdaisy/src/per/adc.h ****     \param mux_1 Second mux pin
  48:../../libdaisy/src/per/adc.h ****     \param mux_2 Third mux pin
  49:../../libdaisy/src/per/adc.h ****     \param adc_pin &
  50:../../libdaisy/src/per/adc.h ****     */
  51:../../libdaisy/src/per/adc.h ****     void InitMux(dsy_gpio_pin adc_pin,
  52:../../libdaisy/src/per/adc.h ****                  size_t       mux_channels,
  53:../../libdaisy/src/per/adc.h ****                  dsy_gpio_pin mux_0,
  54:../../libdaisy/src/per/adc.h ****                  dsy_gpio_pin mux_1 = {DSY_GPIOX, 0},
  55:../../libdaisy/src/per/adc.h ****                  dsy_gpio_pin mux_2 = {DSY_GPIOX, 0});
  56:../../libdaisy/src/per/adc.h **** 
  57:../../libdaisy/src/per/adc.h ****     dsy_gpio pin_;                   /**< & */
  58:../../libdaisy/src/per/adc.h ****     dsy_gpio mux_pin_[MUX_SEL_LAST]; /**< & */
  59:../../libdaisy/src/per/adc.h ****     uint8_t  mux_channels_;          /**< & */
  60:../../libdaisy/src/per/adc.h **** };
  61:../../libdaisy/src/per/adc.h **** 
  62:../../libdaisy/src/per/adc.h **** /**
  63:../../libdaisy/src/per/adc.h ****    Handler for analog to digital conversion
  64:../../libdaisy/src/per/adc.h **** */
  65:../../libdaisy/src/per/adc.h **** class AdcHandle
  66:../../libdaisy/src/per/adc.h **** {
  67:../../libdaisy/src/per/adc.h ****   public:
  68:../../libdaisy/src/per/adc.h ****     /** Supported oversampling amounts */
  69:../../libdaisy/src/per/adc.h ****     enum OverSampling
  70:../../libdaisy/src/per/adc.h ****     {
  71:../../libdaisy/src/per/adc.h ****         OVS_NONE, /**< & */
  72:../../libdaisy/src/per/adc.h ****         OVS_4,    /**< & */
  73:../../libdaisy/src/per/adc.h ****         OVS_8,    /**< & */
  74:../../libdaisy/src/per/adc.h ****         OVS_16,   /**< & */
  75:../../libdaisy/src/per/adc.h ****         OVS_32,   /**< & */
  76:../../libdaisy/src/per/adc.h ****         OVS_64,   /**< & */
  77:../../libdaisy/src/per/adc.h ****         OVS_128,  /**< & */
ARM GAS  /tmp/cceTyTr4.s 			page 14


  78:../../libdaisy/src/per/adc.h ****         OVS_256,  /**< & */
  79:../../libdaisy/src/per/adc.h ****         OVS_512,  /**< & */
  80:../../libdaisy/src/per/adc.h ****         OVS_1024, /**< & */
  81:../../libdaisy/src/per/adc.h ****         OVS_LAST, /**< & */
  82:../../libdaisy/src/per/adc.h ****     };
  83:../../libdaisy/src/per/adc.h **** 
  84:../../libdaisy/src/per/adc.h ****     AdcHandle() {}
  85:../../libdaisy/src/per/adc.h ****     ~AdcHandle() {}
 216              		.loc 14 85 5 is_stmt 1 view .LVU42
 217              		.loc 14 85 5 is_stmt 0 view .LVU43
 218              	.LBE418:
 219              	.LBB419:
 220              	.LBI419:
 221              		.file 15 "../../libdaisy/src/hid/audio.h"
   1:../../libdaisy/src/hid/audio.h **** #ifndef DSY_AUDIO_H
   2:../../libdaisy/src/hid/audio.h **** #define DSY_AUDIO_H /**< & */
   3:../../libdaisy/src/hid/audio.h **** 
   4:../../libdaisy/src/hid/audio.h **** #include "per/sai.h"
   5:../../libdaisy/src/hid/audio.h **** 
   6:../../libdaisy/src/hid/audio.h **** namespace daisy
   7:../../libdaisy/src/hid/audio.h **** {
   8:../../libdaisy/src/hid/audio.h **** class AudioHandle
   9:../../libdaisy/src/hid/audio.h **** {
  10:../../libdaisy/src/hid/audio.h ****   public:
  11:../../libdaisy/src/hid/audio.h ****     /** Manually configurable details about the Audio Engine */
  12:../../libdaisy/src/hid/audio.h ****     /** TODO: Figure out how to get samplerate in here. */
  13:../../libdaisy/src/hid/audio.h ****     struct Config
  14:../../libdaisy/src/hid/audio.h ****     {
  15:../../libdaisy/src/hid/audio.h ****         size_t                        blocksize;
  16:../../libdaisy/src/hid/audio.h ****         SaiHandle::Config::SampleRate samplerate;
  17:../../libdaisy/src/hid/audio.h ****         float                         postgain;
  18:../../libdaisy/src/hid/audio.h ****     };
  19:../../libdaisy/src/hid/audio.h **** 
  20:../../libdaisy/src/hid/audio.h ****     enum class Result
  21:../../libdaisy/src/hid/audio.h ****     {
  22:../../libdaisy/src/hid/audio.h ****         OK,
  23:../../libdaisy/src/hid/audio.h ****         ERR,
  24:../../libdaisy/src/hid/audio.h ****     };
  25:../../libdaisy/src/hid/audio.h **** 
  26:../../libdaisy/src/hid/audio.h ****     /** Non-Interleaving input buffer
  27:../../libdaisy/src/hid/audio.h ****      * Buffer arranged by float[chn][sample] 
  28:../../libdaisy/src/hid/audio.h ****      * const so that the user can't modify the input
  29:../../libdaisy/src/hid/audio.h ****     */
  30:../../libdaisy/src/hid/audio.h ****     typedef const float* const* InputBuffer;
  31:../../libdaisy/src/hid/audio.h **** 
  32:../../libdaisy/src/hid/audio.h ****     /** Non-Interleaving output buffer
  33:../../libdaisy/src/hid/audio.h ****      * Arranged by float[chn][sample] 
  34:../../libdaisy/src/hid/audio.h ****     */
  35:../../libdaisy/src/hid/audio.h ****     typedef float** OutputBuffer;
  36:../../libdaisy/src/hid/audio.h **** 
  37:../../libdaisy/src/hid/audio.h ****     /** Type for a Non-Interleaving audio callback 
  38:../../libdaisy/src/hid/audio.h ****    * Non-Interleaving audio callbacks in daisy will be of this type
  39:../../libdaisy/src/hid/audio.h ****   */
  40:../../libdaisy/src/hid/audio.h ****     typedef void (*AudioCallback)(InputBuffer  in,
  41:../../libdaisy/src/hid/audio.h ****                                   OutputBuffer out,
  42:../../libdaisy/src/hid/audio.h ****                                   size_t       size);
  43:../../libdaisy/src/hid/audio.h **** 
ARM GAS  /tmp/cceTyTr4.s 			page 15


  44:../../libdaisy/src/hid/audio.h ****     /** Interleaving Input buffer
  45:../../libdaisy/src/hid/audio.h ****      ** audio is prepared as { L0, R0, L1, R1, . . . LN, RN }]
  46:../../libdaisy/src/hid/audio.h ****      ** this is const, as the user shouldn't modify it
  47:../../libdaisy/src/hid/audio.h ****     */
  48:../../libdaisy/src/hid/audio.h ****     typedef const float* InterleavingInputBuffer;
  49:../../libdaisy/src/hid/audio.h **** 
  50:../../libdaisy/src/hid/audio.h ****     /** Interleaving Output buffer 
  51:../../libdaisy/src/hid/audio.h ****      ** audio is prepared as { L0, R0, L1, R1, . . . LN, RN }
  52:../../libdaisy/src/hid/audio.h ****     */
  53:../../libdaisy/src/hid/audio.h ****     typedef float* InterleavingOutputBuffer;
  54:../../libdaisy/src/hid/audio.h **** 
  55:../../libdaisy/src/hid/audio.h ****     /** Interleaving Audio Callback 
  56:../../libdaisy/src/hid/audio.h ****    * Interleaving audio callbacks in daisy must be of this type
  57:../../libdaisy/src/hid/audio.h ****   */
  58:../../libdaisy/src/hid/audio.h ****     typedef void (*InterleavingAudioCallback)(InterleavingInputBuffer  in,
  59:../../libdaisy/src/hid/audio.h ****                                               InterleavingOutputBuffer out,
  60:../../libdaisy/src/hid/audio.h ****                                               size_t                   size);
  61:../../libdaisy/src/hid/audio.h **** 
  62:../../libdaisy/src/hid/audio.h ****     AudioHandle() : pimpl_(nullptr) {}
  63:../../libdaisy/src/hid/audio.h ****     ~AudioHandle() {}
 222              		.loc 15 63 5 is_stmt 1 view .LVU44
 223              		.loc 15 63 5 is_stmt 0 view .LVU45
 224              	.LBE419:
 225              	.LBE415:
 226              		.loc 5 36 18 view .LVU46
 227 0000 7047     		bx	lr
 228              		.cfi_endproc
 229              	.LFE4216:
 231              		.weak	_ZN5daisy8DaisyPodD1Ev
 232              		.thumb_set _ZN5daisy8DaisyPodD1Ev,_ZN5daisy8DaisyPodD2Ev
 233 0002 00BF     		.section	.text._ZN7daisysp9DelayLineIfLj120000EED2Ev,"axG",%progbits,_ZN7daisysp9DelayLineIfLj1200
 234              		.align	1
 235              		.p2align 2,,3
 236              		.weak	_ZN7daisysp9DelayLineIfLj120000EED2Ev
 237              		.syntax unified
 238              		.thumb
 239              		.thumb_func
 240              		.fpu fpv5-d16
 242              	_ZN7daisysp9DelayLineIfLj120000EED2Ev:
 243              	.LVL4:
 244              	.LFB4794:
 245              		.file 16 "../../DaisySP/Source/Utility/delayline.h"
   1:../../DaisySP/Source/Utility/delayline.h **** #pragma once
   2:../../DaisySP/Source/Utility/delayline.h **** #ifndef DSY_DELAY_H
   3:../../DaisySP/Source/Utility/delayline.h **** #define DSY_DELAY_H
   4:../../DaisySP/Source/Utility/delayline.h **** #include <stdlib.h>
   5:../../DaisySP/Source/Utility/delayline.h **** #include <stdint.h>
   6:../../DaisySP/Source/Utility/delayline.h **** namespace daisysp
   7:../../DaisySP/Source/Utility/delayline.h **** {
   8:../../DaisySP/Source/Utility/delayline.h **** /** Simple Delay line.
   9:../../DaisySP/Source/Utility/delayline.h **** November 2019
  10:../../DaisySP/Source/Utility/delayline.h **** 
  11:../../DaisySP/Source/Utility/delayline.h **** Converted to Template December 2019
  12:../../DaisySP/Source/Utility/delayline.h **** 
  13:../../DaisySP/Source/Utility/delayline.h **** declaration example: (1 second of floats)
  14:../../DaisySP/Source/Utility/delayline.h **** 
  15:../../DaisySP/Source/Utility/delayline.h **** DelayLine<float, SAMPLE_RATE> del;
ARM GAS  /tmp/cceTyTr4.s 			page 16


  16:../../DaisySP/Source/Utility/delayline.h **** 
  17:../../DaisySP/Source/Utility/delayline.h **** By: shensley
  18:../../DaisySP/Source/Utility/delayline.h **** */
  19:../../DaisySP/Source/Utility/delayline.h **** template <typename T, size_t max_size>
  20:../../DaisySP/Source/Utility/delayline.h **** class DelayLine
  21:../../DaisySP/Source/Utility/delayline.h **** {
  22:../../DaisySP/Source/Utility/delayline.h ****   public:
  23:../../DaisySP/Source/Utility/delayline.h ****     DelayLine() {}
  24:../../DaisySP/Source/Utility/delayline.h ****     ~DelayLine() {}
 246              		.loc 16 24 5 is_stmt 1 view -0
 247              		.cfi_startproc
 248              		@ args = 0, pretend = 0, frame = 0
 249              		@ frame_needed = 0, uses_anonymous_args = 0
 250              		@ link register save eliminated.
 251              		.loc 16 24 19 is_stmt 0 view .LVU48
 252 0000 7047     		bx	lr
 253              		.cfi_endproc
 254              	.LFE4794:
 256              		.weak	_ZN7daisysp9DelayLineIfLj120000EED1Ev
 257              		.thumb_set _ZN7daisysp9DelayLineIfLj120000EED1Ev,_ZN7daisysp9DelayLineIfLj120000EED2Ev
 258 0002 00BF     		.section	.text.startup.main,"ax",%progbits
 259              		.align	1
 260              		.p2align 2,,3
 261              		.global	main
 262              		.syntax unified
 263              		.thumb
 264              		.thumb_func
 265              		.fpu fpv5-d16
 267              	main:
 268              	.LFB4220:
 269              		.file 17 "MultiEffect.cpp"
   1:MultiEffect.cpp **** #include "daisysp.h"
   2:MultiEffect.cpp **** #include "daisy_pod.h"
   3:MultiEffect.cpp **** 
   4:MultiEffect.cpp **** // Set max delay time to 0.75 of samplerate.
   5:MultiEffect.cpp **** #define MAX_DELAY static_cast<size_t>(48000 * 2.5f)
   6:MultiEffect.cpp **** #define REV 0
   7:MultiEffect.cpp **** #define DEL 1
   8:MultiEffect.cpp **** #define CRU 2
   9:MultiEffect.cpp **** 
  10:MultiEffect.cpp **** 
  11:MultiEffect.cpp **** using namespace daisysp;
  12:MultiEffect.cpp **** using namespace daisy;
  13:MultiEffect.cpp **** 
  14:MultiEffect.cpp **** static DaisyPod pod;
  15:MultiEffect.cpp **** 
  16:MultiEffect.cpp **** static ReverbSc                                  rev;
  17:MultiEffect.cpp **** static DelayLine<float, MAX_DELAY> DSY_SDRAM_BSS dell;
  18:MultiEffect.cpp **** static DelayLine<float, MAX_DELAY> DSY_SDRAM_BSS delr;
  19:MultiEffect.cpp **** static Tone                                      tone;
  20:MultiEffect.cpp **** static Parameter deltime, cutoffParam, crushrate;
  21:MultiEffect.cpp **** int              mode = REV;
  22:MultiEffect.cpp **** 
  23:MultiEffect.cpp **** float currentDelay, feedback, delayTarget, cutoff;
  24:MultiEffect.cpp **** 
  25:MultiEffect.cpp **** int   crushmod, crushcount;
  26:MultiEffect.cpp **** float crushsl, crushsr, drywet;
ARM GAS  /tmp/cceTyTr4.s 			page 17


  27:MultiEffect.cpp **** 
  28:MultiEffect.cpp **** 
  29:MultiEffect.cpp **** //Helper functions
  30:MultiEffect.cpp **** void Controls();
  31:MultiEffect.cpp **** 
  32:MultiEffect.cpp **** void GetReverbSample(float &outl, float &outr, float inl, float inr);
  33:MultiEffect.cpp **** 
  34:MultiEffect.cpp **** void GetDelaySample(float &outl, float &outr, float inl, float inr);
  35:MultiEffect.cpp **** 
  36:MultiEffect.cpp **** void GetCrushSample(float &outl, float &outr, float inl, float inr);
  37:MultiEffect.cpp **** 
  38:MultiEffect.cpp **** 
  39:MultiEffect.cpp **** void AudioCallback(AudioHandle::InterleavingInputBuffer  in,
  40:MultiEffect.cpp ****                    AudioHandle::InterleavingOutputBuffer out,
  41:MultiEffect.cpp ****                    size_t                                size)
  42:MultiEffect.cpp **** {
  43:MultiEffect.cpp ****     float outl, outr, inl, inr;
  44:MultiEffect.cpp **** 
  45:MultiEffect.cpp ****     Controls();
  46:MultiEffect.cpp **** 
  47:MultiEffect.cpp ****     //audio
  48:MultiEffect.cpp ****     for(size_t i = 0; i < size; i += 2)
  49:MultiEffect.cpp ****     {
  50:MultiEffect.cpp ****         inl = in[i];
  51:MultiEffect.cpp ****         inr = in[i + 1];
  52:MultiEffect.cpp **** 
  53:MultiEffect.cpp ****         switch(mode)
  54:MultiEffect.cpp ****         {
  55:MultiEffect.cpp ****             case REV: GetReverbSample(outl, outr, inl, inr); break;
  56:MultiEffect.cpp ****             case DEL: GetDelaySample(outl, outr, inl, inr); break;
  57:MultiEffect.cpp ****             case CRU: GetCrushSample(outl, outr, inl, inr); break;
  58:MultiEffect.cpp ****             default: outl = outr = 0;
  59:MultiEffect.cpp ****         }
  60:MultiEffect.cpp **** 
  61:MultiEffect.cpp ****         // left out
  62:MultiEffect.cpp ****         out[i] = outl;
  63:MultiEffect.cpp **** 
  64:MultiEffect.cpp ****         // right out
  65:MultiEffect.cpp ****         out[i + 1] = outr;
  66:MultiEffect.cpp ****     }
  67:MultiEffect.cpp **** }
  68:MultiEffect.cpp **** 
  69:MultiEffect.cpp **** int main(void)
  70:MultiEffect.cpp **** {
 270              		.loc 17 70 1 is_stmt 1 view -0
 271              		.cfi_startproc
 272              		@ args = 0, pretend = 0, frame = 32
 273              		@ frame_needed = 0, uses_anonymous_args = 0
  71:MultiEffect.cpp ****     // initialize pod hardware and oscillator daisysp module
  72:MultiEffect.cpp ****     float sample_rate;
 274              		.loc 17 72 5 view .LVU50
  73:MultiEffect.cpp **** 
  74:MultiEffect.cpp ****     //Inits and sample rate
  75:MultiEffect.cpp ****     pod.Init();
 275              		.loc 17 75 5 view .LVU51
  70:MultiEffect.cpp ****     // initialize pod hardware and oscillator daisysp module
 276              		.loc 17 70 1 is_stmt 0 view .LVU52
ARM GAS  /tmp/cceTyTr4.s 			page 18


 277 0000 2DE9F043 		push	{r4, r5, r6, r7, r8, r9, lr}
 278              		.cfi_def_cfa_offset 28
 279              		.cfi_offset 4, -28
 280              		.cfi_offset 5, -24
 281              		.cfi_offset 6, -20
 282              		.cfi_offset 7, -16
 283              		.cfi_offset 8, -12
 284              		.cfi_offset 9, -8
 285              		.cfi_offset 14, -4
 286              		.loc 17 75 13 view .LVU53
 287 0004 0021     		movs	r1, #0
 288 0006 4C48     		ldr	r0, .L14+8
  70:MultiEffect.cpp ****     // initialize pod hardware and oscillator daisysp module
 289              		.loc 17 70 1 view .LVU54
 290 0008 2DED028B 		vpush.64	{d8}
 291              		.cfi_def_cfa_offset 36
 292              		.cfi_offset 80, -36
 293              		.cfi_offset 81, -32
 294 000c 89B0     		sub	sp, sp, #36
 295              		.cfi_def_cfa_offset 72
 296              		.loc 17 75 13 view .LVU55
 297 000e FFF7FEFF 		bl	_ZN5daisy8DaisyPod4InitEb
 298              	.LVL5:
  76:MultiEffect.cpp ****     sample_rate = pod.AudioSampleRate();
 299              		.loc 17 76 5 is_stmt 1 view .LVU56
 300              		.loc 17 76 38 is_stmt 0 view .LVU57
 301 0012 4948     		ldr	r0, .L14+8
 302 0014 FFF7FEFF 		bl	_ZN5daisy8DaisyPod15AudioSampleRateEv
 303              	.LVL6:
  77:MultiEffect.cpp ****     rev.Init(sample_rate);
 304              		.loc 17 77 13 view .LVU58
 305 0018 4848     		ldr	r0, .L14+12
  76:MultiEffect.cpp ****     sample_rate = pod.AudioSampleRate();
 306              		.loc 17 76 38 view .LVU59
 307 001a B0EE408A 		vmov.f32	s16, s0
 308              	.LVL7:
 309              		.loc 17 77 5 is_stmt 1 view .LVU60
 310              		.loc 17 77 13 is_stmt 0 view .LVU61
 311 001e FFF7FEFF 		bl	_ZN7daisysp8ReverbSc4InitEf
 312              	.LVL8:
  78:MultiEffect.cpp ****     dell.Init();
 313              		.loc 17 78 5 is_stmt 1 view .LVU62
 314              	.LBB420:
 315              	.LBI420:
  25:../../DaisySP/Source/Utility/delayline.h ****     /** initializes the delay line by clearing the values within, and setting delay to 1 sample.
  26:../../DaisySP/Source/Utility/delayline.h ****     */
  27:../../DaisySP/Source/Utility/delayline.h ****     void Init() { Reset(); }
 316              		.loc 16 27 10 view .LVU63
 317              	.LBB421:
 318              	.LBI421:
  28:../../DaisySP/Source/Utility/delayline.h ****     /** clears buffer, sets write ptr to 0, and delay to 1 sample.
  29:../../DaisySP/Source/Utility/delayline.h ****     */
  30:../../DaisySP/Source/Utility/delayline.h ****     void Reset()
 319              		.loc 16 30 10 view .LVU64
 320              	.LBB422:
 321              	.LBB423:
  31:../../DaisySP/Source/Utility/delayline.h ****     {
ARM GAS  /tmp/cceTyTr4.s 			page 19


  32:../../DaisySP/Source/Utility/delayline.h ****         for(size_t i = 0; i < max_size; i++)
 322              		.loc 16 32 29 view .LVU65
 323 0022 474B     		ldr	r3, .L14+16
 324 0024 4749     		ldr	r1, .L14+20
 325              	.LVL9:
 326              	.L8:
  33:../../DaisySP/Source/Utility/delayline.h ****         {
  34:../../DaisySP/Source/Utility/delayline.h ****             line_[i] = T(0);
 327              		.loc 16 34 13 is_stmt 0 view .LVU66
 328 0026 0022     		movs	r2, #0
 329 0028 43F8042B 		str	r2, [r3], #4	@ float
  32:../../DaisySP/Source/Utility/delayline.h ****         {
 330              		.loc 16 32 9 is_stmt 1 view .LVU67
  32:../../DaisySP/Source/Utility/delayline.h ****         {
 331              		.loc 16 32 29 view .LVU68
 332 002c 8B42     		cmp	r3, r1
 333 002e FAD1     		bne	.L8
 334              	.LBE423:
  35:../../DaisySP/Source/Utility/delayline.h ****         }
  36:../../DaisySP/Source/Utility/delayline.h ****         write_ptr_ = 0;
 335              		.loc 16 36 9 is_stmt 0 view .LVU69
 336 0030 DFF85881 		ldr	r8, .L14+92
 337 0034 0020     		movs	r0, #0
  37:../../DaisySP/Source/Utility/delayline.h ****         delay_     = 1;
 338              		.loc 16 37 9 view .LVU70
 339 0036 0122     		movs	r2, #1
 340 0038 434B     		ldr	r3, .L14+24
 341 003a 4449     		ldr	r1, .L14+28
 342 003c C8E90102 		strd	r0, r2, [r8, #4]
 343              	.LVL10:
 344              		.loc 16 37 9 view .LVU71
 345              	.LBE422:
 346              	.LBE421:
 347              	.LBE420:
 348              	.LBB424:
 349              	.LBB425:
 350              	.LBB426:
 351              	.LBB427:
  32:../../DaisySP/Source/Utility/delayline.h ****         {
 352              		.loc 16 32 29 is_stmt 1 view .LVU72
 353              	.L9:
  34:../../DaisySP/Source/Utility/delayline.h ****         }
 354              		.loc 16 34 13 is_stmt 0 view .LVU73
 355 0040 0022     		movs	r2, #0
 356 0042 43F8042B 		str	r2, [r3], #4	@ float
  32:../../DaisySP/Source/Utility/delayline.h ****         {
 357              		.loc 16 32 9 is_stmt 1 view .LVU74
  32:../../DaisySP/Source/Utility/delayline.h ****         {
 358              		.loc 16 32 29 view .LVU75
 359 0046 8B42     		cmp	r3, r1
 360 0048 FAD1     		bne	.L9
 361              	.LBE427:
  36:../../DaisySP/Source/Utility/delayline.h ****         delay_     = 1;
 362              		.loc 16 36 9 is_stmt 0 view .LVU76
 363 004a DFF84491 		ldr	r9, .L14+96
 364 004e 0022     		movs	r2, #0
 365              		.loc 16 37 9 view .LVU77
ARM GAS  /tmp/cceTyTr4.s 			page 20


 366 0050 0123     		movs	r3, #1
 367              	.LBE426:
 368              	.LBE425:
 369              	.LBE424:
  79:MultiEffect.cpp ****     delr.Init();
  80:MultiEffect.cpp ****     tone.Init(sample_rate);
 370              		.loc 17 80 14 view .LVU78
 371 0052 B0EE480A 		vmov.f32	s0, s16
 372 0056 3E48     		ldr	r0, .L14+32
  81:MultiEffect.cpp **** 
  82:MultiEffect.cpp ****     //set parameters
  83:MultiEffect.cpp ****     deltime.Init(pod.knob1, sample_rate * .05, MAX_DELAY, deltime.LOGARITHMIC);
 373              		.loc 17 83 22 view .LVU79
 374 0058 6D46     		mov	r5, sp
 375 005a 3E4C     		ldr	r4, .L14+36
  84:MultiEffect.cpp ****     cutoffParam.Init(pod.knob1, 500, 20000, cutoffParam.LOGARITHMIC);
 376              		.loc 17 84 26 view .LVU80
 377 005c 6E46     		mov	r6, sp
 378              	.LBB430:
 379              	.LBB429:
 380              	.LBB428:
 381              		.loc 16 37 9 view .LVU81
 382 005e C9E90123 		strd	r2, r3, [r9, #4]
 383              	.LBE428:
 384              	.LBE429:
 385              	.LBE430:
  80:MultiEffect.cpp **** 
 386              		.loc 17 80 5 is_stmt 1 view .LVU82
  80:MultiEffect.cpp **** 
 387              		.loc 17 80 14 is_stmt 0 view .LVU83
 388 0062 FFF7FEFF 		bl	_ZN7daisysp4Tone4InitEf
 389              	.LVL11:
  83:MultiEffect.cpp ****     cutoffParam.Init(pod.knob1, 500, 20000, cutoffParam.LOGARITHMIC);
 390              		.loc 17 83 5 is_stmt 1 view .LVU84
  83:MultiEffect.cpp ****     cutoffParam.Init(pod.knob1, 500, 20000, cutoffParam.LOGARITHMIC);
 391              		.loc 17 83 29 is_stmt 0 view .LVU85
 392 0066 B7EEC87A 		vcvt.f64.f32	d7, s16
  83:MultiEffect.cpp ****     cutoffParam.Init(pod.knob1, 500, 20000, cutoffParam.LOGARITHMIC);
 393              		.loc 17 83 17 view .LVU86
 394 006a DFED3B0A 		vldr.32	s1, .L14+40
  83:MultiEffect.cpp ****     cutoffParam.Init(pod.knob1, 500, 20000, cutoffParam.LOGARITHMIC);
 395              		.loc 17 83 41 view .LVU87
 396 006e 9FED306B 		vldr.64	d6, .L14
  83:MultiEffect.cpp ****     cutoffParam.Init(pod.knob1, 500, 20000, cutoffParam.LOGARITHMIC);
 397              		.loc 17 83 22 view .LVU88
 398 0072 0FCC     		ldmia	r4!, {r0, r1, r2, r3}
  83:MultiEffect.cpp ****     cutoffParam.Init(pod.knob1, 500, 20000, cutoffParam.LOGARITHMIC);
 399              		.loc 17 83 41 view .LVU89
 400 0074 27EE067B 		vmul.f64	d7, d7, d6
 401              		.loc 17 84 26 view .LVU90
 402 0078 A4F11007 		sub	r7, r4, #16
  83:MultiEffect.cpp ****     cutoffParam.Init(pod.knob1, 500, 20000, cutoffParam.LOGARITHMIC);
 403              		.loc 17 83 22 view .LVU91
 404 007c 0FC5     		stmia	r5!, {r0, r1, r2, r3}
 405 007e 94E80F00 		ldm	r4, {r0, r1, r2, r3}
  83:MultiEffect.cpp ****     cutoffParam.Init(pod.knob1, 500, 20000, cutoffParam.LOGARITHMIC);
 406              		.loc 17 83 17 view .LVU92
ARM GAS  /tmp/cceTyTr4.s 			page 21


 407 0082 B7EEC70B 		vcvt.f32.f64	s0, d7
  83:MultiEffect.cpp ****     cutoffParam.Init(pod.knob1, 500, 20000, cutoffParam.LOGARITHMIC);
 408              		.loc 17 83 22 view .LVU93
 409 0086 85E80F00 		stm	r5, {r0, r1, r2, r3}
  83:MultiEffect.cpp ****     cutoffParam.Init(pod.knob1, 500, 20000, cutoffParam.LOGARITHMIC);
 410              		.loc 17 83 17 view .LVU94
 411 008a 6946     		mov	r1, sp
 412 008c 0222     		movs	r2, #2
 413 008e 3348     		ldr	r0, .L14+44
 414 0090 FFF7FEFF 		bl	_ZN5daisy9Parameter4InitENS_13AnalogControlEffNS0_5CurveE
 415              	.LVL12:
 416              	.LBB431:
 417              	.LBI431:
 418              		.loc 4 23 5 is_stmt 1 view .LVU95
 419              		.loc 4 23 5 is_stmt 0 view .LVU96
 420              	.LBE431:
 421              		.loc 17 84 5 is_stmt 1 view .LVU97
 422              		.loc 17 84 21 is_stmt 0 view .LVU98
 423 0094 DFED320A 		vldr.32	s1, .L14+48
 424 0098 9FED320A 		vldr.32	s0, .L14+52
 425              		.loc 17 84 26 view .LVU99
 426 009c 0FCF     		ldmia	r7!, {r0, r1, r2, r3}
 427 009e 0FC6     		stmia	r6!, {r0, r1, r2, r3}
 428 00a0 94E80F00 		ldm	r4, {r0, r1, r2, r3}
  85:MultiEffect.cpp ****     crushrate.Init(pod.knob2, 1, 50, crushrate.LOGARITHMIC);
 429              		.loc 17 85 24 view .LVU100
 430 00a4 04F11006 		add	r6, r4, #16
 431 00a8 6F46     		mov	r7, sp
  84:MultiEffect.cpp ****     crushrate.Init(pod.knob2, 1, 50, crushrate.LOGARITHMIC);
 432              		.loc 17 84 26 view .LVU101
 433 00aa 85E80F00 		stm	r5, {r0, r1, r2, r3}
  84:MultiEffect.cpp ****     crushrate.Init(pod.knob2, 1, 50, crushrate.LOGARITHMIC);
 434              		.loc 17 84 21 view .LVU102
 435 00ae 6946     		mov	r1, sp
 436 00b0 0222     		movs	r2, #2
 437 00b2 2D48     		ldr	r0, .L14+56
 438 00b4 FFF7FEFF 		bl	_ZN5daisy9Parameter4InitENS_13AnalogControlEffNS0_5CurveE
 439              	.LVL13:
 440              	.LBB432:
 441              	.LBI432:
 442              		.loc 4 23 5 is_stmt 1 view .LVU103
 443              		.loc 4 23 5 is_stmt 0 view .LVU104
 444              	.LBE432:
 445              		.loc 17 85 5 is_stmt 1 view .LVU105
 446              		.loc 17 85 19 is_stmt 0 view .LVU106
 447 00b8 B7EE000A 		vmov.f32	s0, #1.0e+0
 448 00bc DFED2B0A 		vldr.32	s1, .L14+60
 449              		.loc 17 85 24 view .LVU107
 450 00c0 0FCE     		ldmia	r6!, {r0, r1, r2, r3}
 451 00c2 0FC7     		stmia	r7!, {r0, r1, r2, r3}
 452 00c4 96E80F00 		ldm	r6, {r0, r1, r2, r3}
 453 00c8 85E80F00 		stm	r5, {r0, r1, r2, r3}
 454              		.loc 17 85 19 view .LVU108
 455 00cc 6946     		mov	r1, sp
 456 00ce 0222     		movs	r2, #2
 457 00d0 2748     		ldr	r0, .L14+64
 458 00d2 FFF7FEFF 		bl	_ZN5daisy9Parameter4InitENS_13AnalogControlEffNS0_5CurveE
ARM GAS  /tmp/cceTyTr4.s 			page 22


 459              	.LVL14:
 460              	.LBB433:
 461              	.LBI433:
 462              		.loc 4 23 5 is_stmt 1 view .LVU109
 463              		.loc 4 23 5 is_stmt 0 view .LVU110
 464              	.LBE433:
  86:MultiEffect.cpp **** 
  87:MultiEffect.cpp ****     //reverb parameters
  88:MultiEffect.cpp ****     rev.SetLpFreq(18000.0f);
 465              		.loc 17 88 5 is_stmt 1 view .LVU111
 466              	.LBB434:
 467              	.LBI434:
  42:../../DaisySP/Source/Effects/reverbsc.h ****     /** Initializes the reverb module, and sets the sample_rate at which the Process function will 
  43:../../DaisySP/Source/Effects/reverbsc.h ****         Returns 0 if all good, or 1 if it runs out of delay times exceed maximum allowed.
  44:../../DaisySP/Source/Effects/reverbsc.h ****     */
  45:../../DaisySP/Source/Effects/reverbsc.h ****     int Init(float sample_rate);
  46:../../DaisySP/Source/Effects/reverbsc.h **** 
  47:../../DaisySP/Source/Effects/reverbsc.h ****     /** Process the input through the reverb, and updates values of out1, and out2 with the new pro
  48:../../DaisySP/Source/Effects/reverbsc.h ****     */
  49:../../DaisySP/Source/Effects/reverbsc.h ****     int Process(const float &in1, const float &in2, float *out1, float *out2);
  50:../../DaisySP/Source/Effects/reverbsc.h **** 
  51:../../DaisySP/Source/Effects/reverbsc.h ****     /** controls the reverb time. reverb tail becomes infinite when set to 1.0
  52:../../DaisySP/Source/Effects/reverbsc.h ****         \param fb - sets reverb time. range: 0.0 to 1.0
  53:../../DaisySP/Source/Effects/reverbsc.h ****     */
  54:../../DaisySP/Source/Effects/reverbsc.h ****     inline void SetFeedback(const float &fb) { feedback_ = fb; }
  55:../../DaisySP/Source/Effects/reverbsc.h ****     /** controls the internal dampening filter's cutoff frequency.
  56:../../DaisySP/Source/Effects/reverbsc.h ****         \param freq - low pass frequency. range: 0.0 to sample_rate / 2
  57:../../DaisySP/Source/Effects/reverbsc.h ****     */
  58:../../DaisySP/Source/Effects/reverbsc.h ****     inline void SetLpFreq(const float &freq) { lpfreq_ = freq; }
 468              		.loc 1 58 17 view .LVU112
 469              	.LBB435:
 470              		.loc 1 58 48 view .LVU113
 471              	.LBE435:
 472              	.LBE434:
  89:MultiEffect.cpp ****     rev.SetFeedback(0.85f);
  90:MultiEffect.cpp **** 
  91:MultiEffect.cpp ****     //delay parameters
  92:MultiEffect.cpp ****     currentDelay = delayTarget = sample_rate * 0.75f;
 473              		.loc 17 92 46 is_stmt 0 view .LVU114
 474 00d6 F6EE087A 		vmov.f32	s15, #7.5e-1
 475              		.loc 17 92 18 view .LVU115
 476 00da 264E     		ldr	r6, .L14+68
  93:MultiEffect.cpp ****     dell.SetDelay(currentDelay);
  94:MultiEffect.cpp ****     delr.SetDelay(currentDelay);
  95:MultiEffect.cpp **** 
  96:MultiEffect.cpp ****     // start callback
  97:MultiEffect.cpp ****     pod.StartAdc();
 477              		.loc 17 97 17 view .LVU116
 478 00dc A4F16C00 		sub	r0, r4, #108
 479              	.LBB439:
 480              	.LBB440:
  38:../../DaisySP/Source/Utility/delayline.h ****     }
  39:../../DaisySP/Source/Utility/delayline.h **** 
  40:../../DaisySP/Source/Utility/delayline.h ****     /** sets the delay time in samples
  41:../../DaisySP/Source/Utility/delayline.h ****         If a float is passed in, a fractional component will be calculated for interpolating the de
  42:../../DaisySP/Source/Utility/delayline.h ****     */
  43:../../DaisySP/Source/Utility/delayline.h ****     inline void SetDelay(size_t delay)
ARM GAS  /tmp/cceTyTr4.s 			page 23


  44:../../DaisySP/Source/Utility/delayline.h ****     {
  45:../../DaisySP/Source/Utility/delayline.h ****         frac_  = 0.0f;
  46:../../DaisySP/Source/Utility/delayline.h ****         delay_ = delay < max_size ? delay : max_size - 1;
  47:../../DaisySP/Source/Utility/delayline.h ****     }
  48:../../DaisySP/Source/Utility/delayline.h **** 
  49:../../DaisySP/Source/Utility/delayline.h ****     /** sets the delay time in samples
  50:../../DaisySP/Source/Utility/delayline.h ****         If a float is passed in, a fractional component will be calculated for interpolating the de
  51:../../DaisySP/Source/Utility/delayline.h ****     */
  52:../../DaisySP/Source/Utility/delayline.h ****     inline void SetDelay(float delay)
  53:../../DaisySP/Source/Utility/delayline.h ****     {
  54:../../DaisySP/Source/Utility/delayline.h ****         int32_t int_delay = static_cast<int32_t>(delay);
  55:../../DaisySP/Source/Utility/delayline.h ****         frac_             = delay - static_cast<float>(int_delay);
  56:../../DaisySP/Source/Utility/delayline.h ****         delay_ = static_cast<size_t>(int_delay) < max_size ? int_delay
 481              		.loc 16 56 9 view .LVU117
 482 00e0 254B     		ldr	r3, .L14+72
 483              	.LBE440:
 484              	.LBE439:
  92:MultiEffect.cpp ****     dell.SetDelay(currentDelay);
 485              		.loc 17 92 46 view .LVU118
 486 00e2 68EE277A 		vmul.f32	s15, s16, s15
  92:MultiEffect.cpp ****     dell.SetDelay(currentDelay);
 487              		.loc 17 92 32 view .LVU119
 488 00e6 254F     		ldr	r7, .L14+76
 489              	.LBB445:
 490              	.LBB436:
 491              		.loc 1 58 56 view .LVU120
 492 00e8 144A     		ldr	r2, .L14+12
 493              	.LBE436:
 494              	.LBE445:
 495              	.LBB446:
 496              	.LBB447:
  54:../../DaisySP/Source/Effects/reverbsc.h ****     /** controls the internal dampening filter's cutoff frequency.
 497              		.loc 1 54 58 view .LVU121
 498 00ea 2549     		ldr	r1, .L14+80
 499              	.LBE447:
 500              	.LBE446:
 501              	.LBB450:
 502              	.LBB441:
  54:../../DaisySP/Source/Utility/delayline.h ****         frac_             = delay - static_cast<float>(int_delay);
 503              		.loc 16 54 17 view .LVU122
 504 00ec BDEEE77A 		vcvt.s32.f32	s14, s15
 505              	.LBE441:
 506              	.LBE450:
  92:MultiEffect.cpp ****     dell.SetDelay(currentDelay);
 507              		.loc 17 92 18 view .LVU123
 508 00f0 C6ED007A 		vstr.32	s15, [r6]
  92:MultiEffect.cpp ****     dell.SetDelay(currentDelay);
 509              		.loc 17 92 32 view .LVU124
 510 00f4 C7ED007A 		vstr.32	s15, [r7]
 511              	.LBB451:
 512              	.LBB437:
 513              		.loc 1 58 56 view .LVU125
 514 00f8 224D     		ldr	r5, .L14+84
 515              	.LBE437:
 516              	.LBE451:
 517              	.LBB452:
 518              	.LBB442:
ARM GAS  /tmp/cceTyTr4.s 			page 24


 519              		.loc 16 56 9 view .LVU126
 520 00fa 17EE106A 		vmov	r6, s14	@ int
  55:../../DaisySP/Source/Utility/delayline.h ****         delay_ = static_cast<size_t>(int_delay) < max_size ? int_delay
 521              		.loc 16 55 35 view .LVU127
 522 00fe F8EEC76A 		vcvt.f32.s32	s13, s14
 523              	.LBE442:
 524              	.LBE452:
 525              	.LBB453:
 526              	.LBB448:
  54:../../DaisySP/Source/Effects/reverbsc.h ****     /** controls the internal dampening filter's cutoff frequency.
 527              		.loc 1 54 58 view .LVU128
 528 0102 1160     		str	r1, [r2]	@ float
 529              	.LBE448:
 530              	.LBE453:
 531              	.LBB454:
 532              	.LBB443:
 533              		.loc 16 56 9 view .LVU129
 534 0104 9E42     		cmp	r6, r3
 535              	.LBE443:
 536              	.LBE454:
 537              	.LBB455:
 538              	.LBB438:
 539              		.loc 1 58 56 view .LVU130
 540 0106 5560     		str	r5, [r2, #4]	@ float
 541              	.LBE438:
 542              	.LBE455:
  89:MultiEffect.cpp **** 
 543              		.loc 17 89 5 is_stmt 1 view .LVU131
 544              	.LBB456:
 545              	.LBI446:
  54:../../DaisySP/Source/Effects/reverbsc.h ****     /** controls the internal dampening filter's cutoff frequency.
 546              		.loc 1 54 17 view .LVU132
 547              	.LVL15:
 548              	.LBB449:
  54:../../DaisySP/Source/Effects/reverbsc.h ****     /** controls the internal dampening filter's cutoff frequency.
 549              		.loc 1 54 48 view .LVU133
 550              	.LBE449:
 551              	.LBE456:
 552              	.LBB457:
 553              	.LBB444:
  55:../../DaisySP/Source/Utility/delayline.h ****         delay_ = static_cast<size_t>(int_delay) < max_size ? int_delay
 554              		.loc 16 55 35 is_stmt 0 view .LVU134
 555 0108 77EEE67A 		vsub.f32	s15, s15, s13
 556              		.loc 16 56 9 view .LVU135
 557 010c 28BF     		it	cs
 558 010e 1E46     		movcs	r6, r3
  55:../../DaisySP/Source/Utility/delayline.h ****         delay_ = static_cast<size_t>(int_delay) < max_size ? int_delay
 559              		.loc 16 55 9 view .LVU136
 560 0110 C8ED007A 		vstr.32	s15, [r8]
 561              		.loc 16 56 9 view .LVU137
 562 0114 C8F80860 		str	r6, [r8, #8]
 563              	.LBE444:
 564              	.LBE457:
  92:MultiEffect.cpp ****     dell.SetDelay(currentDelay);
 565              		.loc 17 92 5 is_stmt 1 view .LVU138
  93:MultiEffect.cpp ****     delr.SetDelay(currentDelay);
 566              		.loc 17 93 5 view .LVU139
ARM GAS  /tmp/cceTyTr4.s 			page 25


 567              	.LVL16:
 568              	.LBB458:
 569              	.LBI439:
  52:../../DaisySP/Source/Utility/delayline.h ****     {
 570              		.loc 16 52 17 view .LVU140
  52:../../DaisySP/Source/Utility/delayline.h ****     {
 571              		.loc 16 52 17 is_stmt 0 view .LVU141
 572              	.LBE458:
  94:MultiEffect.cpp **** 
 573              		.loc 17 94 5 is_stmt 1 view .LVU142
 574              	.LBB459:
 575              	.LBI459:
  52:../../DaisySP/Source/Utility/delayline.h ****     {
 576              		.loc 16 52 17 view .LVU143
  52:../../DaisySP/Source/Utility/delayline.h ****     {
 577              		.loc 16 52 17 is_stmt 0 view .LVU144
 578              	.LBE459:
 579              		.loc 17 97 5 is_stmt 1 view .LVU145
 580              	.LBB461:
 581              	.LBB460:
 582              		.loc 16 56 9 is_stmt 0 view .LVU146
 583 0118 C9F80860 		str	r6, [r9, #8]
  55:../../DaisySP/Source/Utility/delayline.h ****         delay_ = static_cast<size_t>(int_delay) < max_size ? int_delay
 584              		.loc 16 55 9 view .LVU147
 585 011c C9ED007A 		vstr.32	s15, [r9]
 586              	.LBE460:
 587              	.LBE461:
 588              		.loc 17 97 17 view .LVU148
 589 0120 FFF7FEFF 		bl	_ZN5daisy8DaisyPod8StartAdcEv
 590              	.LVL17:
  98:MultiEffect.cpp ****     pod.StartAudio(AudioCallback);
 591              		.loc 17 98 5 is_stmt 1 view .LVU149
 592              		.loc 17 98 19 is_stmt 0 view .LVU150
 593 0124 A4F16C00 		sub	r0, r4, #108
 594 0128 1749     		ldr	r1, .L14+88
 595 012a FFF7FEFF 		bl	_ZN5daisy8DaisyPod10StartAudioEPFvPKfPfjE
 596              	.LVL18:
 597              	.L10:
  99:MultiEffect.cpp **** 
 100:MultiEffect.cpp ****     while(1) {}
 598              		.loc 17 100 5 is_stmt 1 discriminator 1 view .LVU151
 599              		.loc 17 100 5 discriminator 1 view .LVU152
 600              		.loc 17 100 5 discriminator 1 view .LVU153
 601              		.loc 17 100 5 discriminator 1 view .LVU154
 602 012e FEE7     		b	.L10
 603              	.L15:
 604              		.align	3
 605              	.L14:
 606 0130 9A999999 		.word	2576980378
 607 0134 9999A93F 		.word	1068079513
 608 0138 00000000 		.word	_ZL3pod
 609 013c 00000000 		.word	_ZL3rev
 610 0140 18530700 		.word	_ZL4dell+12
 611 0144 18A60E00 		.word	_ZL4dell+480012
 612 0148 0C000000 		.word	_ZL4delr+12
 613 014c 0C530700 		.word	_ZL4delr+480012
 614 0150 00000000 		.word	.LANCHOR0
ARM GAS  /tmp/cceTyTr4.s 			page 26


 615 0154 5C000000 		.word	_ZL3pod+92
 616 0158 0060EA47 		.word	1206542336
 617 015c 00000000 		.word	.LANCHOR1
 618 0160 00409C46 		.word	1184645120
 619 0164 0000FA43 		.word	1140457472
 620 0168 00000000 		.word	.LANCHOR2
 621 016c 00004842 		.word	1112014848
 622 0170 00000000 		.word	.LANCHOR3
 623 0174 00000000 		.word	.LANCHOR5
 624 0178 BFD40100 		.word	119999
 625 017c 00000000 		.word	.LANCHOR4
 626 0180 9A99593F 		.word	1062836634
 627 0184 00A08C46 		.word	1183621120
 628 0188 00000000 		.word	_Z13AudioCallbackPKfPfj
 629 018c 0C530700 		.word	_ZL4dell
 630 0190 00000000 		.word	_ZL4delr
 631              		.cfi_endproc
 632              	.LFE4220:
 634              		.section	.text._Z11UpdateKnobsRfS_,"ax",%progbits
 635              		.align	1
 636              		.p2align 2,,3
 637              		.global	_Z11UpdateKnobsRfS_
 638              		.syntax unified
 639              		.thumb
 640              		.thumb_func
 641              		.fpu fpv5-d16
 643              	_Z11UpdateKnobsRfS_:
 644              	.LVL19:
 645              	.LFB4221:
 101:MultiEffect.cpp **** }
 102:MultiEffect.cpp **** 
 103:MultiEffect.cpp **** void UpdateKnobs(float &k1, float &k2)
 104:MultiEffect.cpp **** {
 646              		.loc 17 104 1 view -0
 647              		.cfi_startproc
 648              		@ args = 0, pretend = 0, frame = 0
 649              		@ frame_needed = 0, uses_anonymous_args = 0
 650              		.loc 17 104 1 is_stmt 0 view .LVU156
 651 0000 38B5     		push	{r3, r4, r5, lr}
 652              		.cfi_def_cfa_offset 16
 653              		.cfi_offset 3, -16
 654              		.cfi_offset 4, -12
 655              		.cfi_offset 5, -8
 656              		.cfi_offset 14, -4
 657              		.loc 17 104 1 view .LVU157
 658 0002 0546     		mov	r5, r0
 105:MultiEffect.cpp ****     k1 = pod.knob1.Process();
 659              		.loc 17 105 27 view .LVU158
 660 0004 1B48     		ldr	r0, .L22
 661              	.LVL20:
 662              		.loc 17 105 5 is_stmt 1 view .LVU159
 104:MultiEffect.cpp ****     k1 = pod.knob1.Process();
 663              		.loc 17 104 1 is_stmt 0 view .LVU160
 664 0006 0C46     		mov	r4, r1
 665              		.loc 17 105 27 view .LVU161
 666 0008 FFF7FEFF 		bl	_ZN5daisy13AnalogControl7ProcessEv
 667              	.LVL21:
ARM GAS  /tmp/cceTyTr4.s 			page 27


 106:MultiEffect.cpp ****     k2 = pod.knob2.Process();
 668              		.loc 17 106 27 view .LVU162
 669 000c 1A48     		ldr	r0, .L22+4
 105:MultiEffect.cpp ****     k1 = pod.knob1.Process();
 670              		.loc 17 105 8 view .LVU163
 671 000e 85ED000A 		vstr.32	s0, [r5]
 672              		.loc 17 106 5 is_stmt 1 view .LVU164
 673              		.loc 17 106 27 is_stmt 0 view .LVU165
 674 0012 FFF7FEFF 		bl	_ZN5daisy13AnalogControl7ProcessEv
 675              	.LVL22:
 107:MultiEffect.cpp **** 
 108:MultiEffect.cpp ****     switch(mode)
 676              		.loc 17 108 5 view .LVU166
 677 0016 194B     		ldr	r3, .L22+8
 106:MultiEffect.cpp ****     k2 = pod.knob2.Process();
 678              		.loc 17 106 8 view .LVU167
 679 0018 84ED000A 		vstr.32	s0, [r4]
 680              		.loc 17 108 5 is_stmt 1 view .LVU168
 681 001c 1B68     		ldr	r3, [r3]
 682 001e 012B     		cmp	r3, #1
 683 0020 1ED0     		beq	.L17
 684 0022 022B     		cmp	r3, #2
 685 0024 08D0     		beq	.L18
 686 0026 03B1     		cbz	r3, .L21
 109:MultiEffect.cpp ****     {
 110:MultiEffect.cpp ****         case REV:
 111:MultiEffect.cpp ****             drywet = k1;
 112:MultiEffect.cpp ****             rev.SetFeedback(k2);
 113:MultiEffect.cpp ****             break;
 114:MultiEffect.cpp ****         case DEL:
 115:MultiEffect.cpp ****             delayTarget = deltime.Process();
 116:MultiEffect.cpp ****             feedback    = k2;
 117:MultiEffect.cpp ****             break;
 118:MultiEffect.cpp ****         case CRU:
 119:MultiEffect.cpp ****             cutoff = cutoffParam.Process();
 120:MultiEffect.cpp ****             tone.SetFreq(cutoff);
 121:MultiEffect.cpp ****             crushmod = (int)crushrate.Process();
 122:MultiEffect.cpp ****     }
 123:MultiEffect.cpp **** }
 687              		.loc 17 123 1 is_stmt 0 view .LVU169
 688 0028 38BD     		pop	{r3, r4, r5, pc}
 689              	.LVL23:
 690              	.L21:
 110:MultiEffect.cpp ****             drywet = k1;
 691              		.loc 17 110 9 is_stmt 1 view .LVU170
 111:MultiEffect.cpp ****             rev.SetFeedback(k2);
 692              		.loc 17 111 13 view .LVU171
 111:MultiEffect.cpp ****             rev.SetFeedback(k2);
 693              		.loc 17 111 22 is_stmt 0 view .LVU172
 694 002a 2968     		ldr	r1, [r5]	@ float
 111:MultiEffect.cpp ****             rev.SetFeedback(k2);
 695              		.loc 17 111 20 view .LVU173
 696 002c 144A     		ldr	r2, .L22+12
 697              	.LBB470:
 698              	.LBB471:
  54:../../DaisySP/Source/Effects/reverbsc.h ****     /** controls the internal dampening filter's cutoff frequency.
 699              		.loc 1 54 58 view .LVU174
ARM GAS  /tmp/cceTyTr4.s 			page 28


 700 002e 154B     		ldr	r3, .L22+16
 701              	.LBE471:
 702              	.LBE470:
 111:MultiEffect.cpp ****             rev.SetFeedback(k2);
 703              		.loc 17 111 20 view .LVU175
 704 0030 1160     		str	r1, [r2]	@ float
 112:MultiEffect.cpp ****             break;
 705              		.loc 17 112 13 is_stmt 1 view .LVU176
 112:MultiEffect.cpp ****             break;
 706              		.loc 17 112 28 is_stmt 0 view .LVU177
 707 0032 2268     		ldr	r2, [r4]	@ float
 708              	.LBB473:
 709              	.LBI470:
  54:../../DaisySP/Source/Effects/reverbsc.h ****     /** controls the internal dampening filter's cutoff frequency.
 710              		.loc 1 54 17 is_stmt 1 view .LVU178
 711              	.LVL24:
 712              	.LBB472:
  54:../../DaisySP/Source/Effects/reverbsc.h ****     /** controls the internal dampening filter's cutoff frequency.
 713              		.loc 1 54 48 view .LVU179
  54:../../DaisySP/Source/Effects/reverbsc.h ****     /** controls the internal dampening filter's cutoff frequency.
 714              		.loc 1 54 58 is_stmt 0 view .LVU180
 715 0034 1A60     		str	r2, [r3]	@ float
 716              	.LBE472:
 717              	.LBE473:
 718              		.loc 17 123 1 view .LVU181
 719 0036 38BD     		pop	{r3, r4, r5, pc}
 720              	.LVL25:
 721              	.L18:
 722              	.LBB474:
 723              	.LBI474:
 103:MultiEffect.cpp **** {
 724              		.loc 17 103 6 is_stmt 1 view .LVU182
 725              	.LBB475:
 118:MultiEffect.cpp ****             cutoff = cutoffParam.Process();
 726              		.loc 17 118 9 view .LVU183
 119:MultiEffect.cpp ****             tone.SetFreq(cutoff);
 727              		.loc 17 119 13 view .LVU184
 119:MultiEffect.cpp ****             tone.SetFreq(cutoff);
 728              		.loc 17 119 41 is_stmt 0 view .LVU185
 729 0038 1348     		ldr	r0, .L22+20
 730 003a FFF7FEFF 		bl	_ZN5daisy9Parameter7ProcessEv
 731              	.LVL26:
 119:MultiEffect.cpp ****             tone.SetFreq(cutoff);
 732              		.loc 17 119 20 view .LVU186
 733 003e 134B     		ldr	r3, .L22+24
 734              	.LBB476:
 735              	.LBB477:
  17:../../DaisySP/Source/Filters/tone.h ****     /** Initializes the Tone module.
  18:../../DaisySP/Source/Filters/tone.h ****         sample_rate - The sample rate of the audio engine being run. 
  19:../../DaisySP/Source/Filters/tone.h ****     */
  20:../../DaisySP/Source/Filters/tone.h ****     void Init(float sample_rate);
  21:../../DaisySP/Source/Filters/tone.h **** 
  22:../../DaisySP/Source/Filters/tone.h **** 
  23:../../DaisySP/Source/Filters/tone.h ****     /** Processes one sample through the filter and returns one sample.
  24:../../DaisySP/Source/Filters/tone.h ****         in - input signal 
  25:../../DaisySP/Source/Filters/tone.h ****     */
  26:../../DaisySP/Source/Filters/tone.h ****     float Process(float &in);
ARM GAS  /tmp/cceTyTr4.s 			page 29


  27:../../DaisySP/Source/Filters/tone.h **** 
  28:../../DaisySP/Source/Filters/tone.h ****     /** Sets the cutoff frequency or half-way point of the filter.
  29:../../DaisySP/Source/Filters/tone.h **** 
  30:../../DaisySP/Source/Filters/tone.h ****         \param freq - frequency value in Hz. Range: Any positive value.
  31:../../DaisySP/Source/Filters/tone.h ****     */
  32:../../DaisySP/Source/Filters/tone.h ****     inline void SetFreq(float &freq)
  33:../../DaisySP/Source/Filters/tone.h ****     {
  34:../../DaisySP/Source/Filters/tone.h ****         freq_ = freq;
 736              		.loc 2 34 15 view .LVU187
 737 0040 1348     		ldr	r0, .L22+28
 738              	.LBE477:
 739              	.LBE476:
 119:MultiEffect.cpp ****             tone.SetFreq(cutoff);
 740              		.loc 17 119 20 view .LVU188
 741 0042 83ED000A 		vstr.32	s0, [r3]
 120:MultiEffect.cpp ****             crushmod = (int)crushrate.Process();
 742              		.loc 17 120 13 is_stmt 1 view .LVU189
 743              	.LVL27:
 744              	.LBB479:
 745              	.LBI476:
  32:../../DaisySP/Source/Filters/tone.h ****     {
 746              		.loc 2 32 17 view .LVU190
 747              	.LBB478:
 748              		.loc 2 34 9 view .LVU191
 749              		.loc 2 34 15 is_stmt 0 view .LVU192
 750 0046 80ED030A 		vstr.32	s0, [r0, #12]
  35:../../DaisySP/Source/Filters/tone.h ****         CalculateCoefficients();
 751              		.loc 2 35 9 is_stmt 1 view .LVU193
 752              		.loc 2 35 30 is_stmt 0 view .LVU194
 753 004a FFF7FEFF 		bl	_ZN7daisysp4Tone21CalculateCoefficientsEv
 754              	.LVL28:
 755              		.loc 2 35 30 view .LVU195
 756              	.LBE478:
 757              	.LBE479:
 121:MultiEffect.cpp ****     }
 758              		.loc 17 121 13 is_stmt 1 view .LVU196
 121:MultiEffect.cpp ****     }
 759              		.loc 17 121 46 is_stmt 0 view .LVU197
 760 004e 1148     		ldr	r0, .L22+32
 761 0050 FFF7FEFF 		bl	_ZN5daisy9Parameter7ProcessEv
 762              	.LVL29:
 121:MultiEffect.cpp ****     }
 763              		.loc 17 121 24 view .LVU198
 764 0054 BDEEC00A 		vcvt.s32.f32	s0, s0
 121:MultiEffect.cpp ****     }
 765              		.loc 17 121 22 view .LVU199
 766 0058 0F4B     		ldr	r3, .L22+36
 121:MultiEffect.cpp ****     }
 767              		.loc 17 121 24 view .LVU200
 768 005a 83ED000A 		vstr.32	s0, [r3]	@ int
 769              	.LVL30:
 121:MultiEffect.cpp ****     }
 770              		.loc 17 121 24 view .LVU201
 771              	.LBE475:
 772              	.LBE474:
 773              		.loc 17 123 1 view .LVU202
 774 005e 38BD     		pop	{r3, r4, r5, pc}
ARM GAS  /tmp/cceTyTr4.s 			page 30


 775              	.LVL31:
 776              	.L17:
 114:MultiEffect.cpp ****             delayTarget = deltime.Process();
 777              		.loc 17 114 9 is_stmt 1 view .LVU203
 115:MultiEffect.cpp ****             feedback    = k2;
 778              		.loc 17 115 13 view .LVU204
 115:MultiEffect.cpp ****             feedback    = k2;
 779              		.loc 17 115 42 is_stmt 0 view .LVU205
 780 0060 0E48     		ldr	r0, .L22+40
 781 0062 FFF7FEFF 		bl	_ZN5daisy9Parameter7ProcessEv
 782              	.LVL32:
 115:MultiEffect.cpp ****             feedback    = k2;
 783              		.loc 17 115 25 view .LVU206
 784 0066 0E4A     		ldr	r2, .L22+44
 116:MultiEffect.cpp ****             break;
 785              		.loc 17 116 25 view .LVU207
 786 0068 0E4B     		ldr	r3, .L22+48
 115:MultiEffect.cpp ****             feedback    = k2;
 787              		.loc 17 115 25 view .LVU208
 788 006a 82ED000A 		vstr.32	s0, [r2]
 116:MultiEffect.cpp ****             break;
 789              		.loc 17 116 13 is_stmt 1 view .LVU209
 116:MultiEffect.cpp ****             break;
 790              		.loc 17 116 27 is_stmt 0 view .LVU210
 791 006e 2268     		ldr	r2, [r4]	@ float
 116:MultiEffect.cpp ****             break;
 792              		.loc 17 116 25 view .LVU211
 793 0070 1A60     		str	r2, [r3]	@ float
 117:MultiEffect.cpp ****         case CRU:
 794              		.loc 17 117 13 is_stmt 1 view .LVU212
 795              		.loc 17 123 1 is_stmt 0 view .LVU213
 796 0072 38BD     		pop	{r3, r4, r5, pc}
 797              	.LVL33:
 798              	.L23:
 799              		.loc 17 123 1 view .LVU214
 800              		.align	2
 801              	.L22:
 802 0074 5C000000 		.word	_ZL3pod+92
 803 0078 7C000000 		.word	_ZL3pod+124
 804 007c 00000000 		.word	.LANCHOR6
 805 0080 00000000 		.word	.LANCHOR7
 806 0084 00000000 		.word	_ZL3rev
 807 0088 00000000 		.word	.LANCHOR2
 808 008c 00000000 		.word	.LANCHOR9
 809 0090 00000000 		.word	.LANCHOR0
 810 0094 00000000 		.word	.LANCHOR3
 811 0098 00000000 		.word	.LANCHOR10
 812 009c 00000000 		.word	.LANCHOR1
 813 00a0 00000000 		.word	.LANCHOR4
 814 00a4 00000000 		.word	.LANCHOR8
 815              		.cfi_endproc
 816              	.LFE4221:
 818              		.section	.text._Z13UpdateEncoderv,"ax",%progbits
 819              		.align	1
 820              		.p2align 2,,3
 821              		.global	_Z13UpdateEncoderv
 822              		.syntax unified
ARM GAS  /tmp/cceTyTr4.s 			page 31


 823              		.thumb
 824              		.thumb_func
 825              		.fpu fpv5-d16
 827              	_Z13UpdateEncoderv:
 828              	.LFB4222:
 124:MultiEffect.cpp **** 
 125:MultiEffect.cpp **** void UpdateEncoder()
 126:MultiEffect.cpp **** {
 829              		.loc 17 126 1 is_stmt 1 view -0
 830              		.cfi_startproc
 831              		@ args = 0, pretend = 0, frame = 0
 832              		@ frame_needed = 0, uses_anonymous_args = 0
 833              		@ link register save eliminated.
 127:MultiEffect.cpp ****     mode = mode + pod.encoder.Increment();
 834              		.loc 17 127 5 view .LVU216
 835              	.LVL34:
  22:../../libdaisy/src/hid/encoder.h **** 
  23:../../libdaisy/src/hid/encoder.h ****     /** Initializes the encoder with the specified hardware pins.
  24:../../libdaisy/src/hid/encoder.h **** */
  25:../../libdaisy/src/hid/encoder.h ****     //
  26:../../libdaisy/src/hid/encoder.h ****     /** Update rate should be the rate at which Debounce() gets called
  27:../../libdaisy/src/hid/encoder.h **** in Hertz.
  28:../../libdaisy/src/hid/encoder.h **** */
  29:../../libdaisy/src/hid/encoder.h ****     //
  30:../../libdaisy/src/hid/encoder.h ****     void
  31:../../libdaisy/src/hid/encoder.h ****     Init(dsy_gpio_pin a, dsy_gpio_pin b, dsy_gpio_pin click, float update_rate);
  32:../../libdaisy/src/hid/encoder.h ****     /** Called at update_rate to debounce and handle timing for the switch.
  33:../../libdaisy/src/hid/encoder.h **** */
  34:../../libdaisy/src/hid/encoder.h ****     //
  35:../../libdaisy/src/hid/encoder.h ****     /** In order for events not to be missed, its important that the Edge/Pressed checks
  36:../../libdaisy/src/hid/encoder.h **** be made at the same rate as the debounce function is being called.
  37:../../libdaisy/src/hid/encoder.h **** */
  38:../../libdaisy/src/hid/encoder.h ****     void Debounce();
  39:../../libdaisy/src/hid/encoder.h ****     /** Returns +1 if the encoder was turned clockwise, -1 if it was turned counter-clockwise, or 0
  40:../../libdaisy/src/hid/encoder.h **** */
  41:../../libdaisy/src/hid/encoder.h ****     inline int32_t Increment() const { return inc_; }
 836              		.loc 10 41 40 view .LVU217
 128:MultiEffect.cpp ****     mode = (mode % 3 + 3) % 3;
 837              		.loc 17 128 5 view .LVU218
 838              		.loc 17 128 10 is_stmt 0 view .LVU219
 839 0000 0B48     		ldr	r0, .L25
 127:MultiEffect.cpp ****     mode = mode + pod.encoder.Increment();
 840              		.loc 17 127 40 view .LVU220
 841 0002 0C4A     		ldr	r2, .L25+4
 127:MultiEffect.cpp ****     mode = mode + pod.encoder.Increment();
 842              		.loc 17 127 17 view .LVU221
 843 0004 0368     		ldr	r3, [r0]
 844 0006 916D     		ldr	r1, [r2, #88]
 845              		.loc 17 128 18 view .LVU222
 846 0008 0B4A     		ldr	r2, .L25+8
 127:MultiEffect.cpp ****     mode = mode + pod.encoder.Increment();
 847              		.loc 17 127 17 view .LVU223
 848 000a 0B44     		add	r3, r3, r1
 849              		.loc 17 128 27 view .LVU224
 850 000c 0B49     		ldr	r1, .L25+12
 851              		.loc 17 128 18 view .LVU225
 852 000e 82FB03C2 		smull	ip, r2, r2, r3
ARM GAS  /tmp/cceTyTr4.s 			page 32


 853 0012 A2EBE372 		sub	r2, r2, r3, asr #31
 854 0016 02EB4202 		add	r2, r2, r2, lsl #1
 855 001a 9B1A     		subs	r3, r3, r2
 856              		.loc 17 128 22 view .LVU226
 857 001c 0333     		adds	r3, r3, #3
 858              		.loc 17 128 27 view .LVU227
 859 001e A1FB0312 		umull	r1, r2, r1, r3
 860 0022 22F00101 		bic	r1, r2, #1
 861 0026 01EB5202 		add	r2, r1, r2, lsr #1
 862 002a 9B1A     		subs	r3, r3, r2
 863              		.loc 17 128 10 view .LVU228
 864 002c 0360     		str	r3, [r0]
 129:MultiEffect.cpp **** }
 865              		.loc 17 129 1 view .LVU229
 866 002e 7047     		bx	lr
 867              	.L26:
 868              		.align	2
 869              	.L25:
 870 0030 00000000 		.word	.LANCHOR6
 871 0034 00000000 		.word	_ZL3pod
 872 0038 56555555 		.word	1431655766
 873 003c ABAAAAAA 		.word	-1431655765
 874              		.cfi_endproc
 875              	.LFE4222:
 877              		.section	.text._Z10UpdateLedsff,"ax",%progbits
 878              		.align	1
 879              		.p2align 2,,3
 880              		.global	_Z10UpdateLedsff
 881              		.syntax unified
 882              		.thumb
 883              		.thumb_func
 884              		.fpu fpv5-d16
 886              	_Z10UpdateLedsff:
 887              	.LVL35:
 888              	.LFB4223:
 130:MultiEffect.cpp **** 
 131:MultiEffect.cpp **** void UpdateLeds(float k1, float k2)
 132:MultiEffect.cpp **** {
 889              		.loc 17 132 1 is_stmt 1 view -0
 890              		.cfi_startproc
 891              		@ args = 0, pretend = 0, frame = 0
 892              		@ frame_needed = 0, uses_anonymous_args = 0
 133:MultiEffect.cpp ****     pod.led1.Set(
 893              		.loc 17 133 5 view .LVU231
 132:MultiEffect.cpp ****     pod.led1.Set(
 894              		.loc 17 132 1 is_stmt 0 view .LVU232
 895 0000 10B5     		push	{r4, lr}
 896              		.cfi_def_cfa_offset 8
 897              		.cfi_offset 4, -8
 898              		.cfi_offset 14, -4
 134:MultiEffect.cpp ****         k1 * (mode == 2), k1 * (mode == 1), k1 * (mode == 0 || mode == 2));
 899              		.loc 17 134 20 view .LVU233
 900 0002 254C     		ldr	r4, .L37
 132:MultiEffect.cpp ****     pod.led1.Set(
 901              		.loc 17 132 1 view .LVU234
 902 0004 F0EE407A 		vmov.f32	s15, s0
 903              		.loc 17 134 20 view .LVU235
ARM GAS  /tmp/cceTyTr4.s 			page 33


 904 0008 2368     		ldr	r3, [r4]
 133:MultiEffect.cpp ****     pod.led1.Set(
 905              		.loc 17 133 17 view .LVU236
 906 000a 022B     		cmp	r3, #2
 132:MultiEffect.cpp ****     pod.led1.Set(
 907              		.loc 17 132 1 view .LVU237
 908 000c 2DED028B 		vpush.64	{d8}
 909              		.cfi_def_cfa_offset 16
 910              		.cfi_offset 80, -16
 911              		.cfi_offset 81, -12
 132:MultiEffect.cpp ****     pod.led1.Set(
 912              		.loc 17 132 1 view .LVU238
 913 0010 B0EE608A 		vmov.f32	s16, s1
 133:MultiEffect.cpp ****     pod.led1.Set(
 914              		.loc 17 133 17 view .LVU239
 915 0014 33D0     		beq	.L35
 133:MultiEffect.cpp ****     pod.led1.Set(
 916              		.loc 17 133 17 discriminator 4 view .LVU240
 917 0016 9FED210A 		vldr.32	s0, .L37+4
 918              	.LVL36:
 133:MultiEffect.cpp ****     pod.led1.Set(
 919              		.loc 17 133 17 discriminator 4 view .LVU241
 920 001a 012B     		cmp	r3, #1
 921 001c 27EE800A 		vmul.f32	s0, s15, s0
 922 0020 47FE800A 		vseleq.f32	s1, s15, s0
 923              	.LVL37:
 924              	.L29:
 925              		.loc 17 134 61 discriminator 8 view .LVU242
 926 0024 33F00203 		bics	r3, r3, #2
 133:MultiEffect.cpp ****     pod.led1.Set(
 927              		.loc 17 133 17 discriminator 8 view .LVU243
 928 0028 1D48     		ldr	r0, .L37+8
 929              		.loc 17 134 61 discriminator 8 view .LVU244
 930 002a 0CBF     		ite	eq
 931 002c 0123     		moveq	r3, #1
 932 002e 0023     		movne	r3, #0
 933 0030 01EE103A 		vmov	s2, r3	@ int
 133:MultiEffect.cpp ****     pod.led1.Set(
 934              		.loc 17 133 17 discriminator 8 view .LVU245
 935 0034 B8EEC11A 		vcvt.f32.s32	s2, s2
 936 0038 21EE271A 		vmul.f32	s2, s2, s15
 937 003c FFF7FEFF 		bl	_ZN5daisy6RgbLed3SetEfff
 938              	.LVL38:
 135:MultiEffect.cpp ****     pod.led2.Set(
 939              		.loc 17 135 5 is_stmt 1 discriminator 8 view .LVU246
 136:MultiEffect.cpp ****         k2 * (mode == 2), k2 * (mode == 1), k2 * (mode == 0 || mode == 2));
 940              		.loc 17 136 20 is_stmt 0 discriminator 8 view .LVU247
 941 0040 2368     		ldr	r3, [r4]
 135:MultiEffect.cpp ****     pod.led2.Set(
 942              		.loc 17 135 17 discriminator 8 view .LVU248
 943 0042 022B     		cmp	r3, #2
 944 0044 20D0     		beq	.L36
 135:MultiEffect.cpp ****     pod.led2.Set(
 945              		.loc 17 135 17 discriminator 4 view .LVU249
 946 0046 9FED150A 		vldr.32	s0, .L37+4
 947 004a 012B     		cmp	r3, #1
 948 004c 28EE000A 		vmul.f32	s0, s16, s0
ARM GAS  /tmp/cceTyTr4.s 			page 34


 949 0050 48FE000A 		vseleq.f32	s1, s16, s0
 950              	.L31:
 951              		.loc 17 136 61 discriminator 8 view .LVU250
 952 0054 33F00203 		bics	r3, r3, #2
 135:MultiEffect.cpp ****     pod.led2.Set(
 953              		.loc 17 135 17 discriminator 8 view .LVU251
 954 0058 1248     		ldr	r0, .L37+12
 955              		.loc 17 136 61 discriminator 8 view .LVU252
 956 005a 0CBF     		ite	eq
 957 005c 0123     		moveq	r3, #1
 958 005e 0023     		movne	r3, #0
 959 0060 01EE103A 		vmov	s2, r3	@ int
 135:MultiEffect.cpp ****     pod.led2.Set(
 960              		.loc 17 135 17 discriminator 8 view .LVU253
 961 0064 B8EEC11A 		vcvt.f32.s32	s2, s2
 962 0068 21EE081A 		vmul.f32	s2, s2, s16
 963 006c FFF7FEFF 		bl	_ZN5daisy6RgbLed3SetEfff
 964              	.LVL39:
 137:MultiEffect.cpp **** 
 138:MultiEffect.cpp ****     pod.UpdateLeds();
 965              		.loc 17 138 5 is_stmt 1 discriminator 8 view .LVU254
 966              		.loc 17 138 19 is_stmt 0 discriminator 8 view .LVU255
 967 0070 0D48     		ldr	r0, .L37+16
 139:MultiEffect.cpp **** }
 968              		.loc 17 139 1 discriminator 8 view .LVU256
 969 0072 BDEC028B 		vldm	sp!, {d8}
 970              		.cfi_remember_state
 971              		.cfi_restore 80
 972              		.cfi_restore 81
 973              		.cfi_def_cfa_offset 8
 974              	.LVL40:
 975              		.loc 17 139 1 discriminator 8 view .LVU257
 976 0076 BDE81040 		pop	{r4, lr}
 977              		.cfi_restore 14
 978              		.cfi_restore 4
 979              		.cfi_def_cfa_offset 0
 138:MultiEffect.cpp **** }
 980              		.loc 17 138 19 discriminator 8 view .LVU258
 981 007a FFF7FEBF 		b	_ZN5daisy8DaisyPod10UpdateLedsEv
 982              	.LVL41:
 983              	.L35:
 984              		.cfi_restore_state
 138:MultiEffect.cpp **** }
 985              		.loc 17 138 19 discriminator 8 view .LVU259
 986 007e DFED070A 		vldr.32	s1, .L37+4
 987              	.LVL42:
 138:MultiEffect.cpp **** }
 988              		.loc 17 138 19 discriminator 8 view .LVU260
 989 0082 60EE200A 		vmul.f32	s1, s0, s1
 990 0086 CDE7     		b	.L29
 991              	.LVL43:
 992              	.L36:
 138:MultiEffect.cpp **** }
 993              		.loc 17 138 19 discriminator 8 view .LVU261
 994 0088 DFED040A 		vldr.32	s1, .L37+4
 135:MultiEffect.cpp ****         k2 * (mode == 2), k2 * (mode == 1), k2 * (mode == 0 || mode == 2));
 995              		.loc 17 135 17 view .LVU262
ARM GAS  /tmp/cceTyTr4.s 			page 35


 996 008c B0EE480A 		vmov.f32	s0, s16
 997 0090 68EE200A 		vmul.f32	s1, s16, s1
 998 0094 DEE7     		b	.L31
 999              	.L38:
 1000 0096 00BF     		.align	2
 1001              	.L37:
 1002 0098 00000000 		.word	.LANCHOR6
 1003 009c 00000000 		.word	0
 1004 00a0 CC000000 		.word	_ZL3pod+204
 1005 00a4 20010000 		.word	_ZL3pod+288
 1006 00a8 00000000 		.word	_ZL3pod
 1007              		.cfi_endproc
 1008              	.LFE4223:
 1010              		.section	.text._Z8Controlsv,"ax",%progbits
 1011              		.align	1
 1012              		.p2align 2,,3
 1013              		.global	_Z8Controlsv
 1014              		.syntax unified
 1015              		.thumb
 1016              		.thumb_func
 1017              		.fpu fpv5-d16
 1019              	_Z8Controlsv:
 1020              	.LFB4224:
 140:MultiEffect.cpp **** 
 141:MultiEffect.cpp **** void Controls()
 142:MultiEffect.cpp **** {
 1021              		.loc 17 142 1 is_stmt 1 view -0
 1022              		.cfi_startproc
 1023              		@ args = 0, pretend = 0, frame = 8
 1024              		@ frame_needed = 0, uses_anonymous_args = 0
 143:MultiEffect.cpp ****     float k1, k2;
 1025              		.loc 17 143 5 view .LVU264
 144:MultiEffect.cpp ****     delayTarget = feedback = drywet = 0;
 1026              		.loc 17 144 5 view .LVU265
 142:MultiEffect.cpp ****     float k1, k2;
 1027              		.loc 17 142 1 is_stmt 0 view .LVU266
 1028 0000 30B5     		push	{r4, r5, lr}
 1029              		.cfi_def_cfa_offset 12
 1030              		.cfi_offset 4, -12
 1031              		.cfi_offset 5, -8
 1032              		.cfi_offset 14, -4
 145:MultiEffect.cpp **** 
 146:MultiEffect.cpp ****     pod.ProcessAnalogControls();
 1033              		.loc 17 146 30 view .LVU267
 1034 0002 184C     		ldr	r4, .L41
 144:MultiEffect.cpp **** 
 1035              		.loc 17 144 37 view .LVU268
 1036 0004 0023     		movs	r3, #0
 144:MultiEffect.cpp **** 
 1037              		.loc 17 144 17 view .LVU269
 1038 0006 184A     		ldr	r2, .L41+4
 142:MultiEffect.cpp ****     float k1, k2;
 1039              		.loc 17 142 1 view .LVU270
 1040 0008 83B0     		sub	sp, sp, #12
 1041              		.cfi_def_cfa_offset 24
 144:MultiEffect.cpp **** 
 1042              		.loc 17 144 28 view .LVU271
ARM GAS  /tmp/cceTyTr4.s 			page 36


 1043 000a 1849     		ldr	r1, .L41+8
 1044              		.loc 17 146 30 view .LVU272
 1045 000c 2046     		mov	r0, r4
 144:MultiEffect.cpp **** 
 1046              		.loc 17 144 37 view .LVU273
 1047 000e 184D     		ldr	r5, .L41+12
 144:MultiEffect.cpp **** 
 1048              		.loc 17 144 28 view .LVU274
 1049 0010 0B60     		str	r3, [r1]	@ float
 144:MultiEffect.cpp **** 
 1050              		.loc 17 144 37 view .LVU275
 1051 0012 2B60     		str	r3, [r5]	@ float
 144:MultiEffect.cpp **** 
 1052              		.loc 17 144 17 view .LVU276
 1053 0014 1360     		str	r3, [r2]	@ float
 1054              		.loc 17 146 5 is_stmt 1 view .LVU277
 1055              		.loc 17 146 30 is_stmt 0 view .LVU278
 1056 0016 FFF7FEFF 		bl	_ZN5daisy8DaisyPod21ProcessAnalogControlsEv
 1057              	.LVL44:
 147:MultiEffect.cpp ****     pod.ProcessDigitalControls();
 1058              		.loc 17 147 5 is_stmt 1 view .LVU279
 1059              		.loc 17 147 31 is_stmt 0 view .LVU280
 1060 001a 2046     		mov	r0, r4
 1061 001c FFF7FEFF 		bl	_ZN5daisy8DaisyPod22ProcessDigitalControlsEv
 1062              	.LVL45:
 148:MultiEffect.cpp **** 
 149:MultiEffect.cpp ****     UpdateKnobs(k1, k2);
 1063              		.loc 17 149 5 is_stmt 1 view .LVU281
 1064              		.loc 17 149 16 is_stmt 0 view .LVU282
 1065 0020 01A9     		add	r1, sp, #4
 1066 0022 6846     		mov	r0, sp
 1067 0024 FFF7FEFF 		bl	_Z11UpdateKnobsRfS_
 1068              	.LVL46:
 150:MultiEffect.cpp **** 
 151:MultiEffect.cpp ****     UpdateEncoder();
 1069              		.loc 17 151 5 is_stmt 1 view .LVU283
 1070              	.LBB480:
 1071              	.LBI480:
 125:MultiEffect.cpp **** {
 1072              		.loc 17 125 6 view .LVU284
 1073              	.LBB481:
 127:MultiEffect.cpp ****     mode = (mode % 3 + 3) % 3;
 1074              		.loc 17 127 5 view .LVU285
 127:MultiEffect.cpp ****     mode = (mode % 3 + 3) % 3;
 1075              		.loc 17 127 5 is_stmt 0 view .LVU286
 1076              	.LBE481:
 1077              	.LBE480:
 1078              		.loc 10 41 40 is_stmt 1 view .LVU287
 1079              	.LBB485:
 1080              	.LBB482:
 128:MultiEffect.cpp **** }
 1081              		.loc 17 128 5 view .LVU288
 128:MultiEffect.cpp **** }
 1082              		.loc 17 128 10 is_stmt 0 view .LVU289
 1083 0028 1248     		ldr	r0, .L41+16
 127:MultiEffect.cpp ****     mode = (mode % 3 + 3) % 3;
 1084              		.loc 17 127 17 view .LVU290
ARM GAS  /tmp/cceTyTr4.s 			page 37


 1085 002a A36D     		ldr	r3, [r4, #88]
 1086 002c 0168     		ldr	r1, [r0]
 128:MultiEffect.cpp **** }
 1087              		.loc 17 128 18 view .LVU291
 1088 002e 124A     		ldr	r2, .L41+20
 127:MultiEffect.cpp ****     mode = (mode % 3 + 3) % 3;
 1089              		.loc 17 127 17 view .LVU292
 1090 0030 0B44     		add	r3, r3, r1
 128:MultiEffect.cpp **** }
 1091              		.loc 17 128 27 view .LVU293
 1092 0032 1249     		ldr	r1, .L41+24
 1093              	.LBE482:
 1094              	.LBE485:
 152:MultiEffect.cpp **** 
 153:MultiEffect.cpp ****     UpdateLeds(k1, k2);
 1095              		.loc 17 153 15 view .LVU294
 1096 0034 DDED010A 		vldr.32	s1, [sp, #4]
 1097              	.LBB486:
 1098              	.LBB483:
 128:MultiEffect.cpp **** }
 1099              		.loc 17 128 18 view .LVU295
 1100 0038 82FB0342 		smull	r4, r2, r2, r3
 1101              	.LBE483:
 1102              	.LBE486:
 1103              		.loc 17 153 15 view .LVU296
 1104 003c 9DED000A 		vldr.32	s0, [sp]
 1105              	.LBB487:
 1106              	.LBB484:
 128:MultiEffect.cpp **** }
 1107              		.loc 17 128 18 view .LVU297
 1108 0040 A2EBE372 		sub	r2, r2, r3, asr #31
 1109 0044 02EB4202 		add	r2, r2, r2, lsl #1
 1110 0048 9B1A     		subs	r3, r3, r2
 128:MultiEffect.cpp **** }
 1111              		.loc 17 128 22 view .LVU298
 1112 004a 0333     		adds	r3, r3, #3
 128:MultiEffect.cpp **** }
 1113              		.loc 17 128 27 view .LVU299
 1114 004c A1FB0312 		umull	r1, r2, r1, r3
 1115 0050 22F00101 		bic	r1, r2, #1
 1116 0054 01EB5202 		add	r2, r1, r2, lsr #1
 1117 0058 9B1A     		subs	r3, r3, r2
 128:MultiEffect.cpp **** }
 1118              		.loc 17 128 10 view .LVU300
 1119 005a 0360     		str	r3, [r0]
 1120              	.LBE484:
 1121              	.LBE487:
 1122              		.loc 17 153 5 is_stmt 1 view .LVU301
 1123              		.loc 17 153 15 is_stmt 0 view .LVU302
 1124 005c FFF7FEFF 		bl	_Z10UpdateLedsff
 1125              	.LVL47:
 154:MultiEffect.cpp **** }
 1126              		.loc 17 154 1 view .LVU303
 1127 0060 03B0     		add	sp, sp, #12
 1128              		.cfi_def_cfa_offset 12
 1129              		@ sp needed
 1130 0062 30BD     		pop	{r4, r5, pc}
ARM GAS  /tmp/cceTyTr4.s 			page 38


 1131              	.L42:
 1132              		.align	2
 1133              	.L41:
 1134 0064 00000000 		.word	_ZL3pod
 1135 0068 00000000 		.word	.LANCHOR4
 1136 006c 00000000 		.word	.LANCHOR8
 1137 0070 00000000 		.word	.LANCHOR7
 1138 0074 00000000 		.word	.LANCHOR6
 1139 0078 56555555 		.word	1431655766
 1140 007c ABAAAAAA 		.word	-1431655765
 1141              		.cfi_endproc
 1142              	.LFE4224:
 1144              		.section	.text._Z15GetReverbSampleRfS_ff,"ax",%progbits
 1145              		.align	1
 1146              		.p2align 2,,3
 1147              		.global	_Z15GetReverbSampleRfS_ff
 1148              		.syntax unified
 1149              		.thumb
 1150              		.thumb_func
 1151              		.fpu fpv5-d16
 1153              	_Z15GetReverbSampleRfS_ff:
 1154              	.LVL48:
 1155              	.LFB4225:
 155:MultiEffect.cpp **** 
 156:MultiEffect.cpp **** void GetReverbSample(float &outl, float &outr, float inl, float inr)
 157:MultiEffect.cpp **** {
 1156              		.loc 17 157 1 is_stmt 1 view -0
 1157              		.cfi_startproc
 1158              		@ args = 0, pretend = 0, frame = 8
 1159              		@ frame_needed = 0, uses_anonymous_args = 0
 158:MultiEffect.cpp ****     rev.Process(inl, inr, &outl, &outr);
 1160              		.loc 17 158 5 view .LVU305
 157:MultiEffect.cpp ****     rev.Process(inl, inr, &outl, &outr);
 1161              		.loc 17 157 1 is_stmt 0 view .LVU306
 1162 0000 30B5     		push	{r4, r5, lr}
 1163              		.cfi_def_cfa_offset 12
 1164              		.cfi_offset 4, -12
 1165              		.cfi_offset 5, -8
 1166              		.cfi_offset 14, -4
 1167 0002 0C46     		mov	r4, r1
 1168 0004 85B0     		sub	sp, sp, #20
 1169              		.cfi_def_cfa_offset 32
 157:MultiEffect.cpp ****     rev.Process(inl, inr, &outl, &outr);
 1170              		.loc 17 157 1 view .LVU307
 1171 0006 0546     		mov	r5, r0
 1172              		.loc 17 158 16 view .LVU308
 1173 0008 1548     		ldr	r0, .L45
 1174              	.LVL49:
 1175              		.loc 17 158 16 view .LVU309
 1176 000a 02AA     		add	r2, sp, #8
 1177 000c 03A9     		add	r1, sp, #12
 1178              	.LVL50:
 1179              		.loc 17 158 16 view .LVU310
 1180 000e 2B46     		mov	r3, r5
 1181 0010 0094     		str	r4, [sp]
 157:MultiEffect.cpp ****     rev.Process(inl, inr, &outl, &outr);
 1182              		.loc 17 157 1 view .LVU311
ARM GAS  /tmp/cceTyTr4.s 			page 39


 1183 0012 8DED030A 		vstr.32	s0, [sp, #12]
 1184 0016 CDED020A 		vstr.32	s1, [sp, #8]
 1185              		.loc 17 158 16 view .LVU312
 1186 001a FFF7FEFF 		bl	_ZN7daisysp8ReverbSc7ProcessERKfS2_PfS3_
 1187              	.LVL51:
 159:MultiEffect.cpp ****     outl = drywet * outl + (1 - drywet) * inl;
 1188              		.loc 17 159 5 is_stmt 1 view .LVU313
 1189              		.loc 17 159 19 is_stmt 0 view .LVU314
 1190 001e 114B     		ldr	r3, .L45+4
 1191              		.loc 17 159 31 view .LVU315
 1192 0020 F7EE007A 		vmov.f32	s15, #1.0e+0
 1193              		.loc 17 159 41 view .LVU316
 1194 0024 9DED035A 		vldr.32	s10, [sp, #12]
 1195              		.loc 17 159 19 view .LVU317
 1196 0028 D3ED006A 		vldr.32	s13, [r3]
 1197              		.loc 17 159 26 view .LVU318
 1198 002c D5ED005A 		vldr.32	s11, [r5]
 1199              		.loc 17 159 31 view .LVU319
 1200 0030 37EEE67A 		vsub.f32	s14, s15, s13
 160:MultiEffect.cpp ****     outr = drywet * outr + (1 - drywet) * inr;
 1201              		.loc 17 160 41 view .LVU320
 1202 0034 9DED026A 		vldr.32	s12, [sp, #8]
 159:MultiEffect.cpp ****     outl = drywet * outl + (1 - drywet) * inl;
 1203              		.loc 17 159 41 view .LVU321
 1204 0038 27EE057A 		vmul.f32	s14, s14, s10
 159:MultiEffect.cpp ****     outl = drywet * outl + (1 - drywet) * inl;
 1205              		.loc 17 159 26 view .LVU322
 1206 003c A5EEA67A 		vfma.f32	s14, s11, s13
 159:MultiEffect.cpp ****     outl = drywet * outl + (1 - drywet) * inl;
 1207              		.loc 17 159 10 view .LVU323
 1208 0040 85ED007A 		vstr.32	s14, [r5]
 1209              		.loc 17 160 5 is_stmt 1 view .LVU324
 1210              		.loc 17 160 19 is_stmt 0 view .LVU325
 1211 0044 93ED007A 		vldr.32	s14, [r3]
 1212              		.loc 17 160 26 view .LVU326
 1213 0048 D4ED006A 		vldr.32	s13, [r4]
 1214              		.loc 17 160 31 view .LVU327
 1215 004c 77EEC77A 		vsub.f32	s15, s15, s14
 1216              		.loc 17 160 41 view .LVU328
 1217 0050 67EE867A 		vmul.f32	s15, s15, s12
 1218              		.loc 17 160 26 view .LVU329
 1219 0054 E6EE877A 		vfma.f32	s15, s13, s14
 1220              		.loc 17 160 10 view .LVU330
 1221 0058 C4ED007A 		vstr.32	s15, [r4]
 161:MultiEffect.cpp **** }
 1222              		.loc 17 161 1 view .LVU331
 1223 005c 05B0     		add	sp, sp, #20
 1224              		.cfi_def_cfa_offset 12
 1225              		@ sp needed
 1226 005e 30BD     		pop	{r4, r5, pc}
 1227              	.LVL52:
 1228              	.L46:
 1229              		.loc 17 161 1 view .LVU332
 1230              		.align	2
 1231              	.L45:
 1232 0060 00000000 		.word	_ZL3rev
 1233 0064 00000000 		.word	.LANCHOR7
ARM GAS  /tmp/cceTyTr4.s 			page 40


 1234              		.cfi_endproc
 1235              	.LFE4225:
 1237              		.section	.text._Z14GetDelaySampleRfS_ff,"ax",%progbits
 1238              		.align	1
 1239              		.p2align 2,,3
 1240              		.global	_Z14GetDelaySampleRfS_ff
 1241              		.syntax unified
 1242              		.thumb
 1243              		.thumb_func
 1244              		.fpu fpv5-d16
 1246              	_Z14GetDelaySampleRfS_ff:
 1247              	.LVL53:
 1248              	.LFB4226:
 162:MultiEffect.cpp **** 
 163:MultiEffect.cpp **** void GetDelaySample(float &outl, float &outr, float inl, float inr)
 164:MultiEffect.cpp **** {
 1249              		.loc 17 164 1 is_stmt 1 view -0
 1250              		.cfi_startproc
 1251              		@ args = 0, pretend = 0, frame = 8
 1252              		@ frame_needed = 0, uses_anonymous_args = 0
 165:MultiEffect.cpp ****     fonepole(currentDelay, delayTarget, .00007f);
 1253              		.loc 17 165 5 view .LVU334
 1254              	.LBB488:
 1255              	.LBI488:
 1256              		.file 18 "../../DaisySP/Source/Utility/dsp.h"
   1:../../DaisySP/Source/Utility/dsp.h **** /** Helpful defines, functions, and other utilities for use in/with daisysp modules.
   2:../../DaisySP/Source/Utility/dsp.h **** */
   3:../../DaisySP/Source/Utility/dsp.h **** #pragma once
   4:../../DaisySP/Source/Utility/dsp.h **** #ifndef DSY_CORE_DSP
   5:../../DaisySP/Source/Utility/dsp.h **** #define DSY_CORE_DSP
   6:../../DaisySP/Source/Utility/dsp.h **** #include <cassert>
   7:../../DaisySP/Source/Utility/dsp.h **** #include <cstdint>
   8:../../DaisySP/Source/Utility/dsp.h **** #include <random>
   9:../../DaisySP/Source/Utility/dsp.h **** #include <cmath>
  10:../../DaisySP/Source/Utility/dsp.h **** 
  11:../../DaisySP/Source/Utility/dsp.h **** /** PIs
  12:../../DaisySP/Source/Utility/dsp.h **** */
  13:../../DaisySP/Source/Utility/dsp.h **** #define PI_F 3.1415927410125732421875f
  14:../../DaisySP/Source/Utility/dsp.h **** #define TWOPI_F (2.0f * PI_F)
  15:../../DaisySP/Source/Utility/dsp.h **** #define HALFPI_F (PI_F * 0.5f)
  16:../../DaisySP/Source/Utility/dsp.h **** #define DSY_MIN(in, mn) (in < mn ? in : mn)
  17:../../DaisySP/Source/Utility/dsp.h **** #define DSY_MAX(in, mx) (in > mx ? in : mx)
  18:../../DaisySP/Source/Utility/dsp.h **** #define DSY_CLAMP(in, mn, mx) (DSY_MIN(DSY_MAX(in, mn), mx))
  19:../../DaisySP/Source/Utility/dsp.h **** #define DSY_COUNTOF(_arr) (sizeof(_arr) / sizeof(_arr[0]))
  20:../../DaisySP/Source/Utility/dsp.h **** 
  21:../../DaisySP/Source/Utility/dsp.h **** namespace daisysp
  22:../../DaisySP/Source/Utility/dsp.h **** {
  23:../../DaisySP/Source/Utility/dsp.h **** //Avoids division for random floats. e.g. rand() * kRandFrac
  24:../../DaisySP/Source/Utility/dsp.h **** static constexpr float kRandFrac = 1.f / (float)RAND_MAX;
  25:../../DaisySP/Source/Utility/dsp.h **** 
  26:../../DaisySP/Source/Utility/dsp.h **** //Convert from semitones to other units. e.g. 2 ^ (kOneTwelfth * x)
  27:../../DaisySP/Source/Utility/dsp.h **** static constexpr float kOneTwelfth = 1.f / 12.f;
  28:../../DaisySP/Source/Utility/dsp.h **** 
  29:../../DaisySP/Source/Utility/dsp.h **** /** efficient floating point min/max
  30:../../DaisySP/Source/Utility/dsp.h **** c/o stephen mccaul
  31:../../DaisySP/Source/Utility/dsp.h **** */
  32:../../DaisySP/Source/Utility/dsp.h **** inline float fmax(float a, float b)
ARM GAS  /tmp/cceTyTr4.s 			page 41


  33:../../DaisySP/Source/Utility/dsp.h **** {
  34:../../DaisySP/Source/Utility/dsp.h ****     float r;
  35:../../DaisySP/Source/Utility/dsp.h **** #ifdef __arm__
  36:../../DaisySP/Source/Utility/dsp.h ****     asm("vmaxnm.f32 %[d], %[n], %[m]" : [d] "=t"(r) : [n] "t"(a), [m] "t"(b) :);
  37:../../DaisySP/Source/Utility/dsp.h **** #else
  38:../../DaisySP/Source/Utility/dsp.h ****     r = (a > b) ? a : b;
  39:../../DaisySP/Source/Utility/dsp.h **** #endif // __arm__
  40:../../DaisySP/Source/Utility/dsp.h ****     return r;
  41:../../DaisySP/Source/Utility/dsp.h **** }
  42:../../DaisySP/Source/Utility/dsp.h **** 
  43:../../DaisySP/Source/Utility/dsp.h **** inline float fmin(float a, float b)
  44:../../DaisySP/Source/Utility/dsp.h **** {
  45:../../DaisySP/Source/Utility/dsp.h ****     float r;
  46:../../DaisySP/Source/Utility/dsp.h **** #ifdef __arm__
  47:../../DaisySP/Source/Utility/dsp.h ****     asm("vminnm.f32 %[d], %[n], %[m]" : [d] "=t"(r) : [n] "t"(a), [m] "t"(b) :);
  48:../../DaisySP/Source/Utility/dsp.h **** #else
  49:../../DaisySP/Source/Utility/dsp.h ****     r = (a < b) ? a : b;
  50:../../DaisySP/Source/Utility/dsp.h **** #endif // __arm__
  51:../../DaisySP/Source/Utility/dsp.h ****     return r;
  52:../../DaisySP/Source/Utility/dsp.h **** }
  53:../../DaisySP/Source/Utility/dsp.h **** 
  54:../../DaisySP/Source/Utility/dsp.h **** /** quick fp clamp
  55:../../DaisySP/Source/Utility/dsp.h **** */
  56:../../DaisySP/Source/Utility/dsp.h **** inline float fclamp(float in, float min, float max)
  57:../../DaisySP/Source/Utility/dsp.h **** {
  58:../../DaisySP/Source/Utility/dsp.h ****     return fmin(fmax(in, min), max);
  59:../../DaisySP/Source/Utility/dsp.h **** }
  60:../../DaisySP/Source/Utility/dsp.h **** 
  61:../../DaisySP/Source/Utility/dsp.h **** /** From Musicdsp.org "Fast power and root estimates for 32bit floats)
  62:../../DaisySP/Source/Utility/dsp.h **** Original code by Stefan Stenzel
  63:../../DaisySP/Source/Utility/dsp.h **** These are approximations
  64:../../DaisySP/Source/Utility/dsp.h **** */
  65:../../DaisySP/Source/Utility/dsp.h **** inline float fastpower(float f, int n)
  66:../../DaisySP/Source/Utility/dsp.h **** {
  67:../../DaisySP/Source/Utility/dsp.h ****     long *lp, l;
  68:../../DaisySP/Source/Utility/dsp.h ****     lp = (long *)(&f);
  69:../../DaisySP/Source/Utility/dsp.h ****     l  = *lp;
  70:../../DaisySP/Source/Utility/dsp.h ****     l -= 0x3F800000;
  71:../../DaisySP/Source/Utility/dsp.h ****     l <<= (n - 1);
  72:../../DaisySP/Source/Utility/dsp.h ****     l += 0x3F800000;
  73:../../DaisySP/Source/Utility/dsp.h ****     *lp = l;
  74:../../DaisySP/Source/Utility/dsp.h ****     return f;
  75:../../DaisySP/Source/Utility/dsp.h **** }
  76:../../DaisySP/Source/Utility/dsp.h **** 
  77:../../DaisySP/Source/Utility/dsp.h **** inline float fastroot(float f, int n)
  78:../../DaisySP/Source/Utility/dsp.h **** {
  79:../../DaisySP/Source/Utility/dsp.h ****     long *lp, l;
  80:../../DaisySP/Source/Utility/dsp.h ****     lp = (long *)(&f);
  81:../../DaisySP/Source/Utility/dsp.h ****     l  = *lp;
  82:../../DaisySP/Source/Utility/dsp.h ****     l -= 0x3F800000;
  83:../../DaisySP/Source/Utility/dsp.h ****     l >>= (n = 1);
  84:../../DaisySP/Source/Utility/dsp.h ****     l += 0x3F800000;
  85:../../DaisySP/Source/Utility/dsp.h ****     *lp = l;
  86:../../DaisySP/Source/Utility/dsp.h ****     return f;
  87:../../DaisySP/Source/Utility/dsp.h **** }
  88:../../DaisySP/Source/Utility/dsp.h **** 
  89:../../DaisySP/Source/Utility/dsp.h **** /** From http://openaudio.blogspot.com/2017/02/faster-log10-and-pow.html
ARM GAS  /tmp/cceTyTr4.s 			page 42


  90:../../DaisySP/Source/Utility/dsp.h **** No approximation, pow10f(x) gives a 90% speed increase over powf(10.f, x)
  91:../../DaisySP/Source/Utility/dsp.h **** */
  92:../../DaisySP/Source/Utility/dsp.h **** inline float pow10f(float f)
  93:../../DaisySP/Source/Utility/dsp.h **** {
  94:../../DaisySP/Source/Utility/dsp.h ****     return expf(2.302585092994046f * f);
  95:../../DaisySP/Source/Utility/dsp.h **** }
  96:../../DaisySP/Source/Utility/dsp.h **** 
  97:../../DaisySP/Source/Utility/dsp.h **** /* Original code for fastlog2f by Dr. Paul Beckmann from the ARM community forum, adapted from the 
  98:../../DaisySP/Source/Utility/dsp.h **** About 25% performance increase over std::log10f
  99:../../DaisySP/Source/Utility/dsp.h **** */
 100:../../DaisySP/Source/Utility/dsp.h **** inline float fastlog2f(float f)
 101:../../DaisySP/Source/Utility/dsp.h **** {
 102:../../DaisySP/Source/Utility/dsp.h ****     float frac;
 103:../../DaisySP/Source/Utility/dsp.h ****     int   exp;
 104:../../DaisySP/Source/Utility/dsp.h ****     frac = frexpf(fabsf(f), &exp);
 105:../../DaisySP/Source/Utility/dsp.h ****     f    = 1.23149591368684f;
 106:../../DaisySP/Source/Utility/dsp.h ****     f *= frac;
 107:../../DaisySP/Source/Utility/dsp.h ****     f += -4.11852516267426f;
 108:../../DaisySP/Source/Utility/dsp.h ****     f *= frac;
 109:../../DaisySP/Source/Utility/dsp.h ****     f += 6.02197014179219f;
 110:../../DaisySP/Source/Utility/dsp.h ****     f *= frac;
 111:../../DaisySP/Source/Utility/dsp.h ****     f += -3.13396450166353f;
 112:../../DaisySP/Source/Utility/dsp.h ****     f += exp;
 113:../../DaisySP/Source/Utility/dsp.h ****     return (f);
 114:../../DaisySP/Source/Utility/dsp.h **** }
 115:../../DaisySP/Source/Utility/dsp.h **** 
 116:../../DaisySP/Source/Utility/dsp.h **** inline float fastlog10f(float f)
 117:../../DaisySP/Source/Utility/dsp.h **** {
 118:../../DaisySP/Source/Utility/dsp.h ****     return fastlog2f(f) * 0.3010299956639812f;
 119:../../DaisySP/Source/Utility/dsp.h **** }
 120:../../DaisySP/Source/Utility/dsp.h **** 
 121:../../DaisySP/Source/Utility/dsp.h **** /** Midi to frequency helper
 122:../../DaisySP/Source/Utility/dsp.h **** */
 123:../../DaisySP/Source/Utility/dsp.h **** inline float mtof(float m)
 124:../../DaisySP/Source/Utility/dsp.h **** {
 125:../../DaisySP/Source/Utility/dsp.h ****     return powf(2, (m - 69.0f) / 12.0f) * 440.0f;
 126:../../DaisySP/Source/Utility/dsp.h **** }
 127:../../DaisySP/Source/Utility/dsp.h **** 
 128:../../DaisySP/Source/Utility/dsp.h **** 
 129:../../DaisySP/Source/Utility/dsp.h **** /** one pole lpf
 130:../../DaisySP/Source/Utility/dsp.h **** out is passed by reference, and must be retained between
 131:../../DaisySP/Source/Utility/dsp.h **** calls to properly filter the signal
 132:../../DaisySP/Source/Utility/dsp.h **** coeff can be calculated:
 133:../../DaisySP/Source/Utility/dsp.h **** coeff = 1.0 / (time * sample_rate) ; where time is in seconds
 134:../../DaisySP/Source/Utility/dsp.h **** */
 135:../../DaisySP/Source/Utility/dsp.h **** inline void fonepole(float &out, float in, float coeff)
 1257              		.loc 18 135 13 view .LVU335
 1258              	.LBB489:
 136:../../DaisySP/Source/Utility/dsp.h **** {
 137:../../DaisySP/Source/Utility/dsp.h ****     out += coeff * (in - out);
 1259              		.loc 18 137 5 view .LVU336
 1260              	.LBE489:
 1261              	.LBE488:
 164:MultiEffect.cpp ****     fonepole(currentDelay, delayTarget, .00007f);
 1262              		.loc 17 164 1 is_stmt 0 view .LVU337
 1263 0000 2DE9F04F 		push	{r4, r5, r6, r7, r8, r9, r10, fp, lr}
 1264              		.cfi_def_cfa_offset 36
ARM GAS  /tmp/cceTyTr4.s 			page 43


 1265              		.cfi_offset 4, -36
 1266              		.cfi_offset 5, -32
 1267              		.cfi_offset 6, -28
 1268              		.cfi_offset 7, -24
 1269              		.cfi_offset 8, -20
 1270              		.cfi_offset 9, -16
 1271              		.cfi_offset 10, -12
 1272              		.cfi_offset 11, -8
 1273              		.cfi_offset 14, -4
 1274              		.loc 17 165 13 view .LVU338
 1275 0004 524B     		ldr	r3, .L49
 164:MultiEffect.cpp ****     fonepole(currentDelay, delayTarget, .00007f);
 1276              		.loc 17 164 1 view .LVU339
 1277 0006 83B0     		sub	sp, sp, #12
 1278              		.cfi_def_cfa_offset 48
 1279              	.LBB494:
 1280              	.LBB490:
 1281              		.loc 18 137 9 view .LVU340
 1282 0008 524C     		ldr	r4, .L49+4
 1283              	.LBE490:
 1284              	.LBE494:
 166:MultiEffect.cpp ****     delr.SetDelay(currentDelay);
 167:MultiEffect.cpp ****     dell.SetDelay(currentDelay);
 168:MultiEffect.cpp ****     outl = dell.Read();
 169:MultiEffect.cpp ****     outr = delr.Read();
 170:MultiEffect.cpp **** 
 171:MultiEffect.cpp ****     dell.Write((feedback * outl) + inl);
 172:MultiEffect.cpp ****     outl = (feedback * outl) + ((1.0f - feedback) * inl);
 1285              		.loc 17 172 39 view .LVU341
 1286 000a B7EE007A 		vmov.f32	s14, #1.0e+0
 1287              	.LBB495:
 1288              	.LBB491:
 1289              		.loc 18 137 24 view .LVU342
 1290 000e D3ED006A 		vldr.32	s13, [r3]
 1291              		.loc 18 137 9 view .LVU343
 1292 0012 D4ED007A 		vldr.32	s15, [r4]
 1293 0016 9FED506A 		vldr.32	s12, .L49+8
 1294              		.loc 18 137 24 view .LVU344
 1295 001a 76EEE76A 		vsub.f32	s13, s13, s15
 1296              	.LBE491:
 1297              	.LBE495:
 1298              	.LBB496:
 1299              	.LBB497:
 1300              		.loc 16 56 9 view .LVU345
 1301 001e DFF84CE1 		ldr	lr, .L49+28
 1302              	.LBE497:
 1303              	.LBE496:
 1304              	.LBB503:
 1305              	.LBB504:
  55:../../DaisySP/Source/Utility/delayline.h ****         delay_ = static_cast<size_t>(int_delay) < max_size ? int_delay
 1306              		.loc 16 55 9 view .LVU346
 1307 0022 4E4D     		ldr	r5, .L49+12
 1308              	.LBE504:
 1309              	.LBE503:
 1310              	.LBB507:
 1311              	.LBB508:
  57:../../DaisySP/Source/Utility/delayline.h ****                                                            : max_size - 1;
ARM GAS  /tmp/cceTyTr4.s 			page 44


  58:../../DaisySP/Source/Utility/delayline.h ****     }
  59:../../DaisySP/Source/Utility/delayline.h **** 
  60:../../DaisySP/Source/Utility/delayline.h ****     /** writes the sample of type T to the delay line, and advances the write ptr
  61:../../DaisySP/Source/Utility/delayline.h ****     */
  62:../../DaisySP/Source/Utility/delayline.h ****     inline void Write(const T sample)
  63:../../DaisySP/Source/Utility/delayline.h ****     {
  64:../../DaisySP/Source/Utility/delayline.h ****         line_[write_ptr_] = sample;
  65:../../DaisySP/Source/Utility/delayline.h ****         write_ptr_        = (write_ptr_ - 1 + max_size) % max_size;
  66:../../DaisySP/Source/Utility/delayline.h ****     }
  67:../../DaisySP/Source/Utility/delayline.h **** 
  68:../../DaisySP/Source/Utility/delayline.h ****     /** returns the next sample of type T in the delay line, interpolated if necessary.
  69:../../DaisySP/Source/Utility/delayline.h ****     */
  70:../../DaisySP/Source/Utility/delayline.h ****     inline const T Read() const
  71:../../DaisySP/Source/Utility/delayline.h ****     {
  72:../../DaisySP/Source/Utility/delayline.h ****         T a = line_[(write_ptr_ + delay_) % max_size];
 1312              		.loc 16 72 43 view .LVU347
 1313 0024 4E4B     		ldr	r3, .L49+16
 1314              	.LBE508:
 1315              	.LBE507:
 1316              	.LBB518:
 1317              	.LBB492:
 1318              		.loc 18 137 9 view .LVU348
 1319 0026 E6EE867A 		vfma.f32	s15, s13, s12
 1320              	.LBE492:
 1321              	.LBE518:
 1322              	.LBB519:
 1323              	.LBB509:
 1324              		.loc 16 72 22 view .LVU349
 1325 002a 6E68     		ldr	r6, [r5, #4]
 1326              		.loc 16 72 43 view .LVU350
 1327 002c DFF840C1 		ldr	ip, .L49+32
 1328              	.LBE509:
 1329              	.LBE519:
 1330              	.LBB520:
 1331              	.LBB521:
  64:../../DaisySP/Source/Utility/delayline.h ****         write_ptr_        = (write_ptr_ - 1 + max_size) % max_size;
 1332              		.loc 16 64 9 view .LVU351
 1333 0030 05EB8607 		add	r7, r5, r6, lsl #2
  65:../../DaisySP/Source/Utility/delayline.h ****     }
 1334              		.loc 16 65 45 view .LVU352
 1335 0034 06EB0E08 		add	r8, r6, lr
 1336              	.LBE521:
 1337              	.LBE520:
 1338              	.LBB529:
 1339              	.LBB498:
  55:../../DaisySP/Source/Utility/delayline.h ****         delay_ = static_cast<size_t>(int_delay) < max_size ? int_delay
 1340              		.loc 16 55 9 view .LVU353
 1341 0038 4A4A     		ldr	r2, .L49+20
 1342              	.LBE498:
 1343              	.LBE529:
 1344              	.LBB530:
 1345              	.LBB522:
  64:../../DaisySP/Source/Utility/delayline.h ****         write_ptr_        = (write_ptr_ - 1 + max_size) % max_size;
 1346              		.loc 16 64 9 view .LVU354
 1347 003a 0197     		str	r7, [sp, #4]
 1348              	.LBE522:
 1349              	.LBE530:
ARM GAS  /tmp/cceTyTr4.s 			page 45


 1350              	.LBB531:
 1351              	.LBB499:
  54:../../DaisySP/Source/Utility/delayline.h ****         frac_             = delay - static_cast<float>(int_delay);
 1352              		.loc 16 54 17 view .LVU355
 1353 003c FDEEE76A 		vcvt.s32.f32	s13, s15
 1354              	.LBE499:
 1355              	.LBE531:
 1356              	.LBB532:
 1357              	.LBB493:
 1358              		.loc 18 137 9 view .LVU356
 1359 0040 C4ED007A 		vstr.32	s15, [r4]
 1360              	.LVL54:
 1361              		.loc 18 137 9 view .LVU357
 1362              	.LBE493:
 1363              	.LBE532:
 166:MultiEffect.cpp ****     dell.SetDelay(currentDelay);
 1364              		.loc 17 166 5 is_stmt 1 view .LVU358
 1365              	.LBB533:
 1366              	.LBI496:
  52:../../DaisySP/Source/Utility/delayline.h ****     {
 1367              		.loc 16 52 17 view .LVU359
 1368              	.LBB500:
  56:../../DaisySP/Source/Utility/delayline.h ****                                                            : max_size - 1;
 1369              		.loc 16 56 9 is_stmt 0 view .LVU360
 1370 0044 16EE904A 		vmov	r4, s13	@ int
  55:../../DaisySP/Source/Utility/delayline.h ****         delay_ = static_cast<size_t>(int_delay) < max_size ? int_delay
 1371              		.loc 16 55 35 view .LVU361
 1372 0048 F8EEE66A 		vcvt.f32.s32	s13, s13
 1373              	.LVL55:
  56:../../DaisySP/Source/Utility/delayline.h ****                                                            : max_size - 1;
 1374              		.loc 16 56 9 view .LVU362
 1375 004c 7445     		cmp	r4, lr
  55:../../DaisySP/Source/Utility/delayline.h ****         delay_ = static_cast<size_t>(int_delay) < max_size ? int_delay
 1376              		.loc 16 55 35 view .LVU363
 1377 004e 77EEE67A 		vsub.f32	s15, s15, s13
 1378              	.LVL56:
  56:../../DaisySP/Source/Utility/delayline.h ****                                                            : max_size - 1;
 1379              		.loc 16 56 9 view .LVU364
 1380 0052 28BF     		it	cs
 1381 0054 7446     		movcs	r4, lr
 1382              	.LVL57:
  56:../../DaisySP/Source/Utility/delayline.h ****                                                            : max_size - 1;
 1383              		.loc 16 56 9 view .LVU365
 1384              	.LBE500:
 1385              	.LBE533:
 1386              	.LBB534:
 1387              	.LBB510:
 1388              		.loc 16 72 33 view .LVU366
 1389 0056 06EB0409 		add	r9, r6, r4
 1390              	.LBE510:
 1391              	.LBE534:
 1392              	.LBB535:
 1393              	.LBB505:
  56:../../DaisySP/Source/Utility/delayline.h ****                                                            : max_size - 1;
 1394              		.loc 16 56 9 view .LVU367
 1395 005a AC60     		str	r4, [r5, #8]
 1396              	.LBE505:
ARM GAS  /tmp/cceTyTr4.s 			page 46


 1397              	.LBE535:
 1398              	.LBB536:
 1399              	.LBB501:
 1400 005c 9460     		str	r4, [r2, #8]
 1401              	.LVL58:
  56:../../DaisySP/Source/Utility/delayline.h ****                                                            : max_size - 1;
 1402              		.loc 16 56 9 view .LVU368
 1403              	.LBE501:
 1404              	.LBE536:
 167:MultiEffect.cpp ****     outl = dell.Read();
 1405              		.loc 17 167 5 is_stmt 1 view .LVU369
 1406              	.LBB537:
 1407              	.LBI503:
  52:../../DaisySP/Source/Utility/delayline.h ****     {
 1408              		.loc 16 52 17 view .LVU370
  52:../../DaisySP/Source/Utility/delayline.h ****     {
 1409              		.loc 16 52 17 is_stmt 0 view .LVU371
 1410              	.LBE537:
 168:MultiEffect.cpp ****     outr = delr.Read();
 1411              		.loc 17 168 5 is_stmt 1 view .LVU372
 1412              	.LBB538:
 1413              	.LBI507:
  70:../../DaisySP/Source/Utility/delayline.h ****     {
 1414              		.loc 16 70 20 view .LVU373
 1415              	.LBB511:
  73:../../DaisySP/Source/Utility/delayline.h ****         T b = line_[(write_ptr_ + delay_ + 1) % max_size];
 1416              		.loc 16 73 42 is_stmt 0 view .LVU374
 1417 005e 09F1010B 		add	fp, r9, #1
 1418              	.LBE511:
 1419              	.LBE538:
 1420              	.LBB539:
 1421              	.LBB502:
  55:../../DaisySP/Source/Utility/delayline.h ****         delay_ = static_cast<size_t>(int_delay) < max_size ? int_delay
 1422              		.loc 16 55 9 view .LVU375
 1423 0062 C2ED007A 		vstr.32	s15, [r2]
 1424              	.LBE502:
 1425              	.LBE539:
 1426              	.LBB540:
 1427              	.LBB506:
 1428 0066 C5ED007A 		vstr.32	s15, [r5]
 1429              	.LBE506:
 1430              	.LBE540:
 1431              	.LBB541:
 1432              	.LBB512:
 1433              		.loc 16 73 47 view .LVU376
 1434 006a A3FB0B67 		umull	r6, r7, r3, fp
  72:../../DaisySP/Source/Utility/delayline.h ****         T b = line_[(write_ptr_ + delay_ + 1) % max_size];
 1435              		.loc 16 72 43 view .LVU377
 1436 006e A3FB09A6 		umull	r10, r6, r3, r9
 1437              		.loc 16 73 47 view .LVU378
 1438 0072 FF0B     		lsrs	r7, r7, #15
  72:../../DaisySP/Source/Utility/delayline.h ****         T b = line_[(write_ptr_ + delay_ + 1) % max_size];
 1439              		.loc 16 72 43 view .LVU379
 1440 0074 F60B     		lsrs	r6, r6, #15
 1441              		.loc 16 73 47 view .LVU380
 1442 0076 0CFB17B7 		mls	r7, ip, r7, fp
  72:../../DaisySP/Source/Utility/delayline.h ****         T b = line_[(write_ptr_ + delay_ + 1) % max_size];
ARM GAS  /tmp/cceTyTr4.s 			page 47


 1443              		.loc 16 72 43 view .LVU381
 1444 007a 0CFB1696 		mls	r6, ip, r6, r9
 1445              	.LBE512:
 1446              	.LBE541:
 1447              	.LBB542:
 1448              	.LBB543:
  72:../../DaisySP/Source/Utility/delayline.h ****         T b = line_[(write_ptr_ + delay_ + 1) % max_size];
 1449              		.loc 16 72 22 view .LVU382
 1450 007e D2F80490 		ldr	r9, [r2, #4]
 1451              	.LBE543:
 1452              	.LBE542:
 1453              	.LBB553:
 1454              	.LBB513:
 1455              		.loc 16 73 11 view .LVU383
 1456 0082 05EB8707 		add	r7, r5, r7, lsl #2
  72:../../DaisySP/Source/Utility/delayline.h ****         T b = line_[(write_ptr_ + delay_ + 1) % max_size];
 1457              		.loc 16 72 11 view .LVU384
 1458 0086 05EB8606 		add	r6, r5, r6, lsl #2
 1459              	.LBE513:
 1460              	.LBE553:
 1461              	.LBB554:
 1462              	.LBB544:
  72:../../DaisySP/Source/Utility/delayline.h ****         T b = line_[(write_ptr_ + delay_ + 1) % max_size];
 1463              		.loc 16 72 33 view .LVU385
 1464 008a 4C44     		add	r4, r4, r9
 1465              	.LBE544:
 1466              	.LBE554:
 1467              	.LBB555:
 1468              	.LBB514:
  74:../../DaisySP/Source/Utility/delayline.h ****         return a + (b - a) * frac_;
 1469              		.loc 16 74 23 view .LVU386
 1470 008c 97ED036A 		vldr.32	s12, [r7, #12]
 1471              	.LBE514:
 1472              	.LBE555:
 1473              	.LBB556:
 1474              	.LBB557:
  65:../../DaisySP/Source/Utility/delayline.h ****     }
 1475              		.loc 16 65 45 view .LVU387
 1476 0090 CE44     		add	lr, lr, r9
 1477              	.LBE557:
 1478              	.LBE556:
 1479              	.LBB564:
 1480              	.LBB515:
  72:../../DaisySP/Source/Utility/delayline.h ****         T b = line_[(write_ptr_ + delay_ + 1) % max_size];
 1481              		.loc 16 72 11 view .LVU388
 1482 0092 D6ED036A 		vldr.32	s13, [r6, #12]
 1483              	.LVL59:
  72:../../DaisySP/Source/Utility/delayline.h ****         T b = line_[(write_ptr_ + delay_ + 1) % max_size];
 1484              		.loc 16 72 11 view .LVU389
 1485              	.LBE515:
 1486              	.LBE564:
 1487              	.LBB565:
 1488              	.LBB545:
  73:../../DaisySP/Source/Utility/delayline.h ****         return a + (b - a) * frac_;
 1489              		.loc 16 73 42 view .LVU390
 1490 0096 04F1010B 		add	fp, r4, #1
 1491              	.LVL60:
ARM GAS  /tmp/cceTyTr4.s 			page 48


  72:../../DaisySP/Source/Utility/delayline.h ****         T b = line_[(write_ptr_ + delay_ + 1) % max_size];
 1492              		.loc 16 72 43 view .LVU391
 1493 009a A3FB0467 		umull	r6, r7, r3, r4
 1494              	.LBE545:
 1495              	.LBE565:
 1496              	.LBB566:
 1497              	.LBB558:
  64:../../DaisySP/Source/Utility/delayline.h ****         write_ptr_        = (write_ptr_ - 1 + max_size) % max_size;
 1498              		.loc 16 64 9 view .LVU392
 1499 009e 02EB8909 		add	r9, r2, r9, lsl #2
 1500              	.LBE558:
 1501              	.LBE566:
 1502              	.LBB567:
 1503              	.LBB516:
 1504              		.loc 16 74 23 view .LVU393
 1505 00a2 36EE666A 		vsub.f32	s12, s12, s13
 1506              	.LBE516:
 1507              	.LBE567:
 1508              	.LBB568:
 1509              	.LBB546:
  73:../../DaisySP/Source/Utility/delayline.h ****         return a + (b - a) * frac_;
 1510              		.loc 16 73 47 view .LVU394
 1511 00a6 A3FB0BA6 		umull	r10, r6, r3, fp
  72:../../DaisySP/Source/Utility/delayline.h ****         T b = line_[(write_ptr_ + delay_ + 1) % max_size];
 1512              		.loc 16 72 43 view .LVU395
 1513 00aa FF0B     		lsrs	r7, r7, #15
  73:../../DaisySP/Source/Utility/delayline.h ****         return a + (b - a) * frac_;
 1514              		.loc 16 73 47 view .LVU396
 1515 00ac F60B     		lsrs	r6, r6, #15
 1516              	.LBE546:
 1517              	.LBE568:
 1518              	.LBB569:
 1519              	.LBB517:
 1520              		.loc 16 74 30 view .LVU397
 1521 00ae E6EE276A 		vfma.f32	s13, s12, s15
 1522              	.LVL61:
 1523              		.loc 16 74 30 view .LVU398
 1524              	.LBE517:
 1525              	.LBE569:
 1526              	.LBB570:
 1527              	.LBB547:
  72:../../DaisySP/Source/Utility/delayline.h ****         T b = line_[(write_ptr_ + delay_ + 1) % max_size];
 1528              		.loc 16 72 43 view .LVU399
 1529 00b2 0CFB1744 		mls	r4, ip, r7, r4
  73:../../DaisySP/Source/Utility/delayline.h ****         return a + (b - a) * frac_;
 1530              		.loc 16 73 47 view .LVU400
 1531 00b6 0CFB16B6 		mls	r6, ip, r6, fp
 1532              	.LBE547:
 1533              	.LBE570:
 1534              	.LBB571:
 1535              	.LBB523:
  64:../../DaisySP/Source/Utility/delayline.h ****         write_ptr_        = (write_ptr_ - 1 + max_size) % max_size;
 1536              		.loc 16 64 9 view .LVU401
 1537 00ba 019F     		ldr	r7, [sp, #4]
 1538              	.LBE523:
 1539              	.LBE571:
 1540              	.LBB572:
ARM GAS  /tmp/cceTyTr4.s 			page 49


 1541              	.LBB548:
  72:../../DaisySP/Source/Utility/delayline.h ****         T b = line_[(write_ptr_ + delay_ + 1) % max_size];
 1542              		.loc 16 72 11 view .LVU402
 1543 00bc 02EB8404 		add	r4, r2, r4, lsl #2
  73:../../DaisySP/Source/Utility/delayline.h ****         return a + (b - a) * frac_;
 1544              		.loc 16 73 11 view .LVU403
 1545 00c0 02EB8606 		add	r6, r2, r6, lsl #2
 1546              	.LBE548:
 1547              	.LBE572:
 168:MultiEffect.cpp ****     outr = delr.Read();
 1548              		.loc 17 168 10 view .LVU404
 1549 00c4 C0ED006A 		vstr.32	s13, [r0]
 169:MultiEffect.cpp **** 
 1550              		.loc 17 169 5 is_stmt 1 view .LVU405
 1551              	.LVL62:
 1552              	.LBB573:
 1553              	.LBI542:
  70:../../DaisySP/Source/Utility/delayline.h ****     {
 1554              		.loc 16 70 20 view .LVU406
 1555              	.LBB549:
 1556              		.loc 16 74 23 is_stmt 0 view .LVU407
 1557 00c8 D6ED036A 		vldr.32	s13, [r6, #12]
  72:../../DaisySP/Source/Utility/delayline.h ****         T b = line_[(write_ptr_ + delay_ + 1) % max_size];
 1558              		.loc 16 72 11 view .LVU408
 1559 00cc D4ED037A 		vldr.32	s15, [r4, #12]
 1560              	.LVL63:
  72:../../DaisySP/Source/Utility/delayline.h ****         T b = line_[(write_ptr_ + delay_ + 1) % max_size];
 1561              		.loc 16 72 11 view .LVU409
 1562              	.LBE549:
 1563              	.LBE573:
 1564              	.LBB574:
 1565              	.LBB524:
  65:../../DaisySP/Source/Utility/delayline.h ****     }
 1566              		.loc 16 65 57 view .LVU410
 1567 00d0 A3FB0864 		umull	r6, r4, r3, r8
 1568              	.LBE524:
 1569              	.LBE574:
 1570              	.LBB575:
 1571              	.LBB550:
 1572              		.loc 16 74 30 view .LVU411
 1573 00d4 92ED006A 		vldr.32	s12, [r2]
 1574              	.LBE550:
 1575              	.LBE575:
 1576              	.LBB576:
 1577              	.LBB559:
  65:../../DaisySP/Source/Utility/delayline.h ****     }
 1578              		.loc 16 65 57 view .LVU412
 1579 00d8 A3FB0E63 		umull	r6, r3, r3, lr
 1580              	.LBE559:
 1581              	.LBE576:
 1582              	.LBB577:
 1583              	.LBB551:
 1584              		.loc 16 74 23 view .LVU413
 1585 00dc 76EEE76A 		vsub.f32	s13, s13, s15
 1586              	.LBE551:
 1587              	.LBE577:
 171:MultiEffect.cpp ****     outl = (feedback * outl) + ((1.0f - feedback) * inl);
ARM GAS  /tmp/cceTyTr4.s 			page 50


 1588              		.loc 17 171 26 view .LVU414
 1589 00e0 214E     		ldr	r6, .L49+24
 1590              	.LBB578:
 1591              	.LBB525:
  65:../../DaisySP/Source/Utility/delayline.h ****     }
 1592              		.loc 16 65 57 view .LVU415
 1593 00e2 E40B     		lsrs	r4, r4, #15
 1594              	.LBE525:
 1595              	.LBE578:
 1596              	.LBB579:
 1597              	.LBB560:
 1598 00e4 DB0B     		lsrs	r3, r3, #15
 1599              	.LBE560:
 1600              	.LBE579:
 1601              	.LBB580:
 1602              	.LBB552:
 1603              		.loc 16 74 30 view .LVU416
 1604 00e6 E6EE867A 		vfma.f32	s15, s13, s12
 1605              	.LVL64:
 1606              		.loc 16 74 30 view .LVU417
 1607              	.LBE552:
 1608              	.LBE580:
 1609              	.LBB581:
 1610              	.LBB526:
  65:../../DaisySP/Source/Utility/delayline.h ****     }
 1611              		.loc 16 65 57 view .LVU418
 1612 00ea 0CFB1484 		mls	r4, ip, r4, r8
 1613              	.LBE526:
 1614              	.LBE581:
 171:MultiEffect.cpp ****     outl = (feedback * outl) + ((1.0f - feedback) * inl);
 1615              		.loc 17 171 15 view .LVU419
 1616 00ee B0EE406A 		vmov.f32	s12, s0
 1617              	.LBB582:
 1618              	.LBB561:
  65:../../DaisySP/Source/Utility/delayline.h ****     }
 1619              		.loc 16 65 57 view .LVU420
 1620 00f2 0CFB13E3 		mls	r3, ip, r3, lr
 1621              	.LBE561:
 1622              	.LBE582:
 169:MultiEffect.cpp **** 
 1623              		.loc 17 169 10 view .LVU421
 1624 00f6 C1ED007A 		vstr.32	s15, [r1]
 171:MultiEffect.cpp ****     outl = (feedback * outl) + ((1.0f - feedback) * inl);
 1625              		.loc 17 171 5 is_stmt 1 view .LVU422
 171:MultiEffect.cpp ****     outl = (feedback * outl) + ((1.0f - feedback) * inl);
 1626              		.loc 17 171 15 is_stmt 0 view .LVU423
 1627 00fa D0ED007A 		vldr.32	s15, [r0]
 171:MultiEffect.cpp ****     outl = (feedback * outl) + ((1.0f - feedback) * inl);
 1628              		.loc 17 171 26 view .LVU424
 1629 00fe D6ED006A 		vldr.32	s13, [r6]
 1630              	.LBB583:
 1631              	.LBB527:
  65:../../DaisySP/Source/Utility/delayline.h ****     }
 1632              		.loc 16 65 9 view .LVU425
 1633 0102 6C60     		str	r4, [r5, #4]
 1634              	.LBE527:
 1635              	.LBE583:
ARM GAS  /tmp/cceTyTr4.s 			page 51


 171:MultiEffect.cpp ****     outl = (feedback * outl) + ((1.0f - feedback) * inl);
 1636              		.loc 17 171 15 view .LVU426
 1637 0104 A7EEA66A 		vfma.f32	s12, s15, s13
 1638              	.LVL65:
 1639              	.LBB584:
 1640              	.LBI520:
  62:../../DaisySP/Source/Utility/delayline.h ****     {
 1641              		.loc 16 62 17 is_stmt 1 view .LVU427
  62:../../DaisySP/Source/Utility/delayline.h ****     {
 1642              		.loc 16 62 17 is_stmt 0 view .LVU428
 1643              	.LBE584:
 1644              		.loc 17 172 5 is_stmt 1 view .LVU429
 1645              		.loc 17 172 39 is_stmt 0 view .LVU430
 1646 0108 77EE667A 		vsub.f32	s15, s14, s13
 1647              		.loc 17 172 51 view .LVU431
 1648 010c 27EE800A 		vmul.f32	s0, s15, s0
 1649              	.LVL66:
 1650              	.LBB585:
 1651              	.LBB528:
  64:../../DaisySP/Source/Utility/delayline.h ****         write_ptr_        = (write_ptr_ - 1 + max_size) % max_size;
 1652              		.loc 16 64 9 view .LVU432
 1653 0110 87ED036A 		vstr.32	s12, [r7, #12]
 1654              	.LBE528:
 1655              	.LBE585:
 173:MultiEffect.cpp **** 
 174:MultiEffect.cpp ****     delr.Write((feedback * outr) + inr);
 1656              		.loc 17 174 15 view .LVU433
 1657 0114 B0EE606A 		vmov.f32	s12, s1
 172:MultiEffect.cpp **** 
 1658              		.loc 17 172 30 view .LVU434
 1659 0118 D0ED007A 		vldr.32	s15, [r0]
 1660 011c A6EEA70A 		vfma.f32	s0, s13, s15
 172:MultiEffect.cpp **** 
 1661              		.loc 17 172 10 view .LVU435
 1662 0120 80ED000A 		vstr.32	s0, [r0]
 1663              		.loc 17 174 5 is_stmt 1 view .LVU436
 1664              		.loc 17 174 15 is_stmt 0 view .LVU437
 1665 0124 D1ED007A 		vldr.32	s15, [r1]
 1666              		.loc 17 174 26 view .LVU438
 1667 0128 D6ED006A 		vldr.32	s13, [r6]
 1668              	.LBB586:
 1669              	.LBB562:
  65:../../DaisySP/Source/Utility/delayline.h ****     }
 1670              		.loc 16 65 9 view .LVU439
 1671 012c 5360     		str	r3, [r2, #4]
 1672              	.LBE562:
 1673              	.LBE586:
 1674              		.loc 17 174 15 view .LVU440
 1675 012e A7EEA66A 		vfma.f32	s12, s15, s13
 1676              	.LVL67:
 1677              	.LBB587:
 1678              	.LBI556:
  62:../../DaisySP/Source/Utility/delayline.h ****     {
 1679              		.loc 16 62 17 is_stmt 1 view .LVU441
  62:../../DaisySP/Source/Utility/delayline.h ****     {
 1680              		.loc 16 62 17 is_stmt 0 view .LVU442
 1681              	.LBE587:
ARM GAS  /tmp/cceTyTr4.s 			page 52


 175:MultiEffect.cpp ****     outr = (feedback * outr) + ((1.0f - feedback) * inr);
 1682              		.loc 17 175 5 is_stmt 1 view .LVU443
 1683              		.loc 17 175 39 is_stmt 0 view .LVU444
 1684 0132 77EE667A 		vsub.f32	s15, s14, s13
 1685              		.loc 17 175 51 view .LVU445
 1686 0136 27EEA07A 		vmul.f32	s14, s15, s1
 1687              	.LBB588:
 1688              	.LBB563:
  64:../../DaisySP/Source/Utility/delayline.h ****         write_ptr_        = (write_ptr_ - 1 + max_size) % max_size;
 1689              		.loc 16 64 9 view .LVU446
 1690 013a 89ED036A 		vstr.32	s12, [r9, #12]
 1691              	.LBE563:
 1692              	.LBE588:
 1693              		.loc 17 175 30 view .LVU447
 1694 013e D1ED007A 		vldr.32	s15, [r1]
 1695 0142 A6EEA77A 		vfma.f32	s14, s13, s15
 1696              		.loc 17 175 10 view .LVU448
 1697 0146 81ED007A 		vstr.32	s14, [r1]
 176:MultiEffect.cpp **** }
 1698              		.loc 17 176 1 view .LVU449
 1699 014a 03B0     		add	sp, sp, #12
 1700              		.cfi_def_cfa_offset 36
 1701              		@ sp needed
 1702 014c BDE8F08F 		pop	{r4, r5, r6, r7, r8, r9, r10, fp, pc}
 1703              	.L50:
 1704              		.align	2
 1705              	.L49:
 1706 0150 00000000 		.word	.LANCHOR4
 1707 0154 00000000 		.word	.LANCHOR5
 1708 0158 F7CC9238 		.word	949144823
 1709 015c 0C530700 		.word	_ZL4dell
 1710 0160 73B2E745 		.word	1172812403
 1711 0164 00000000 		.word	_ZL4delr
 1712 0168 00000000 		.word	.LANCHOR8
 1713 016c BFD40100 		.word	119999
 1714 0170 C0D40100 		.word	120000
 1715              		.cfi_endproc
 1716              	.LFE4226:
 1718              		.section	.text._Z14GetCrushSampleRfS_ff,"ax",%progbits
 1719              		.align	1
 1720              		.p2align 2,,3
 1721              		.global	_Z14GetCrushSampleRfS_ff
 1722              		.syntax unified
 1723              		.thumb
 1724              		.thumb_func
 1725              		.fpu fpv5-d16
 1727              	_Z14GetCrushSampleRfS_ff:
 1728              	.LVL68:
 1729              	.LFB4227:
 177:MultiEffect.cpp **** 
 178:MultiEffect.cpp **** void GetCrushSample(float &outl, float &outr, float inl, float inr)
 179:MultiEffect.cpp **** {
 1730              		.loc 17 179 1 is_stmt 1 view -0
 1731              		.cfi_startproc
 1732              		@ args = 0, pretend = 0, frame = 0
 1733              		@ frame_needed = 0, uses_anonymous_args = 0
 180:MultiEffect.cpp ****     crushcount++;
ARM GAS  /tmp/cceTyTr4.s 			page 53


 1734              		.loc 17 180 5 view .LVU451
 181:MultiEffect.cpp ****     crushcount %= crushmod;
 1735              		.loc 17 181 5 view .LVU452
 179:MultiEffect.cpp ****     crushcount++;
 1736              		.loc 17 179 1 is_stmt 0 view .LVU453
 1737 0000 70B5     		push	{r4, r5, r6, lr}
 1738              		.cfi_def_cfa_offset 16
 1739              		.cfi_offset 4, -16
 1740              		.cfi_offset 5, -12
 1741              		.cfi_offset 6, -8
 1742              		.cfi_offset 14, -4
 180:MultiEffect.cpp ****     crushcount++;
 1743              		.loc 17 180 15 view .LVU454
 1744 0002 104E     		ldr	r6, .L54
 179:MultiEffect.cpp ****     crushcount++;
 1745              		.loc 17 179 1 view .LVU455
 1746 0004 0546     		mov	r5, r0
 1747              		.loc 17 181 16 view .LVU456
 1748 0006 104A     		ldr	r2, .L54+4
 179:MultiEffect.cpp ****     crushcount++;
 1749              		.loc 17 179 1 view .LVU457
 1750 0008 0C46     		mov	r4, r1
 180:MultiEffect.cpp ****     crushcount++;
 1751              		.loc 17 180 15 view .LVU458
 1752 000a 3368     		ldr	r3, [r6]
 1753              		.loc 17 181 16 view .LVU459
 1754 000c 1068     		ldr	r0, [r2]
 1755              	.LVL69:
 180:MultiEffect.cpp ****     crushcount++;
 1756              		.loc 17 180 15 view .LVU460
 1757 000e 5A1C     		adds	r2, r3, #1
 1758              		.loc 17 181 16 view .LVU461
 1759 0010 92FBF0F3 		sdiv	r3, r2, r0
 1760 0014 00FB1323 		mls	r3, r0, r3, r2
 1761 0018 3360     		str	r3, [r6]
 182:MultiEffect.cpp ****     if(crushcount == 0)
 1762              		.loc 17 182 5 is_stmt 1 view .LVU462
 1763 001a 2BB9     		cbnz	r3, .L52
 183:MultiEffect.cpp ****     {
 184:MultiEffect.cpp ****         crushsr = inr;
 1764              		.loc 17 184 9 view .LVU463
 1765              		.loc 17 184 17 is_stmt 0 view .LVU464
 1766 001c 0B4A     		ldr	r2, .L54+8
 185:MultiEffect.cpp ****         crushsl = inl;
 1767              		.loc 17 185 17 view .LVU465
 1768 001e 0C4B     		ldr	r3, .L54+12
 184:MultiEffect.cpp ****         crushsl = inl;
 1769              		.loc 17 184 17 view .LVU466
 1770 0020 C2ED000A 		vstr.32	s1, [r2]
 1771              		.loc 17 185 9 is_stmt 1 view .LVU467
 1772              		.loc 17 185 17 is_stmt 0 view .LVU468
 1773 0024 83ED000A 		vstr.32	s0, [r3]
 1774              	.L52:
 186:MultiEffect.cpp ****     }
 187:MultiEffect.cpp ****     outl = tone.Process(crushsl);
 1775              		.loc 17 187 5 is_stmt 1 view .LVU469
 1776              		.loc 17 187 24 is_stmt 0 view .LVU470
ARM GAS  /tmp/cceTyTr4.s 			page 54


 1777 0028 0949     		ldr	r1, .L54+12
 1778              	.LVL70:
 1779              		.loc 17 187 24 view .LVU471
 1780 002a 0A48     		ldr	r0, .L54+16
 1781 002c FFF7FEFF 		bl	_ZN7daisysp4Tone7ProcessERf
 1782              	.LVL71:
 188:MultiEffect.cpp ****     outr = tone.Process(crushsr);
 1783              		.loc 17 188 24 view .LVU472
 1784 0030 0649     		ldr	r1, .L54+8
 1785 0032 0848     		ldr	r0, .L54+16
 187:MultiEffect.cpp ****     outr = tone.Process(crushsr);
 1786              		.loc 17 187 10 view .LVU473
 1787 0034 85ED000A 		vstr.32	s0, [r5]
 1788              		.loc 17 188 5 is_stmt 1 view .LVU474
 1789              		.loc 17 188 24 is_stmt 0 view .LVU475
 1790 0038 FFF7FEFF 		bl	_ZN7daisysp4Tone7ProcessERf
 1791              	.LVL72:
 1792              		.loc 17 188 10 view .LVU476
 1793 003c 84ED000A 		vstr.32	s0, [r4]
 189:MultiEffect.cpp **** }
 1794              		.loc 17 189 1 view .LVU477
 1795 0040 70BD     		pop	{r4, r5, r6, pc}
 1796              	.LVL73:
 1797              	.L55:
 1798              		.loc 17 189 1 view .LVU478
 1799 0042 00BF     		.align	2
 1800              	.L54:
 1801 0044 00000000 		.word	.LANCHOR11
 1802 0048 00000000 		.word	.LANCHOR10
 1803 004c 00000000 		.word	.LANCHOR12
 1804 0050 00000000 		.word	.LANCHOR13
 1805 0054 00000000 		.word	.LANCHOR0
 1806              		.cfi_endproc
 1807              	.LFE4227:
 1809              		.section	.text._Z13AudioCallbackPKfPfj,"ax",%progbits
 1810              		.align	1
 1811              		.p2align 2,,3
 1812              		.global	_Z13AudioCallbackPKfPfj
 1813              		.syntax unified
 1814              		.thumb
 1815              		.thumb_func
 1816              		.fpu fpv5-d16
 1818              	_Z13AudioCallbackPKfPfj:
 1819              	.LVL74:
 1820              	.LFB4219:
  42:MultiEffect.cpp ****     float outl, outr, inl, inr;
 1821              		.loc 17 42 1 is_stmt 1 view -0
 1822              		.cfi_startproc
 1823              		@ args = 0, pretend = 0, frame = 8
 1824              		@ frame_needed = 0, uses_anonymous_args = 0
  43:MultiEffect.cpp **** 
 1825              		.loc 17 43 5 view .LVU480
  45:MultiEffect.cpp **** 
 1826              		.loc 17 45 5 view .LVU481
  42:MultiEffect.cpp ****     float outl, outr, inl, inr;
 1827              		.loc 17 42 1 is_stmt 0 view .LVU482
 1828 0000 F0B5     		push	{r4, r5, r6, r7, lr}
ARM GAS  /tmp/cceTyTr4.s 			page 55


 1829              		.cfi_def_cfa_offset 20
 1830              		.cfi_offset 4, -20
 1831              		.cfi_offset 5, -16
 1832              		.cfi_offset 6, -12
 1833              		.cfi_offset 7, -8
 1834              		.cfi_offset 14, -4
 1835 0002 1646     		mov	r6, r2
 1836 0004 83B0     		sub	sp, sp, #12
 1837              		.cfi_def_cfa_offset 32
  42:MultiEffect.cpp ****     float outl, outr, inl, inr;
 1838              		.loc 17 42 1 view .LVU483
 1839 0006 0446     		mov	r4, r0
 1840 0008 0D46     		mov	r5, r1
  45:MultiEffect.cpp **** 
 1841              		.loc 17 45 13 view .LVU484
 1842 000a FFF7FEFF 		bl	_Z8Controlsv
 1843              	.LVL75:
  48:MultiEffect.cpp ****     {
 1844              		.loc 17 48 5 is_stmt 1 view .LVU485
 1845              	.LBB589:
  48:MultiEffect.cpp ****     {
 1846              		.loc 17 48 25 view .LVU486
 1847 000e 002E     		cmp	r6, #0
 1848 0010 31D0     		beq	.L56
 1849 0012 013E     		subs	r6, r6, #1
 1850              	.LVL76:
  48:MultiEffect.cpp ****     {
 1851              		.loc 17 48 25 is_stmt 0 view .LVU487
 1852 0014 194F     		ldr	r7, .L67
 1853 0016 7308     		lsrs	r3, r6, #1
 1854 0018 04F10806 		add	r6, r4, #8
 1855              	.LVL77:
  48:MultiEffect.cpp ****     {
 1856              		.loc 17 48 25 view .LVU488
 1857 001c 06EBC306 		add	r6, r6, r3, lsl #3
 1858 0020 09E0     		b	.L63
 1859              	.LVL78:
 1860              	.L66:
  53:MultiEffect.cpp ****         {
 1861              		.loc 17 53 9 view .LVU489
 1862 0022 0BB3     		cbz	r3, .L65
  58:MultiEffect.cpp ****         }
 1863              		.loc 17 58 27 view .LVU490
 1864 0024 0B46     		mov	r3, r1	@ float
  58:MultiEffect.cpp ****         }
 1865              		.loc 17 58 34 view .LVU491
 1866 0026 0191     		str	r1, [sp, #4]	@ float
  58:MultiEffect.cpp ****         }
 1867              		.loc 17 58 27 view .LVU492
 1868 0028 0091     		str	r1, [sp]	@ float
 1869              	.LVL79:
 1870              	.L61:
  62:MultiEffect.cpp **** 
 1871              		.loc 17 62 9 is_stmt 1 discriminator 2 view .LVU493
 1872 002a 0834     		adds	r4, r4, #8
  62:MultiEffect.cpp **** 
 1873              		.loc 17 62 16 is_stmt 0 discriminator 2 view .LVU494
ARM GAS  /tmp/cceTyTr4.s 			page 56


 1874 002c 2B60     		str	r3, [r5]	@ float
  65:MultiEffect.cpp ****     }
 1875              		.loc 17 65 9 is_stmt 1 discriminator 2 view .LVU495
  65:MultiEffect.cpp ****     }
 1876              		.loc 17 65 20 is_stmt 0 discriminator 2 view .LVU496
 1877 002e 6A60     		str	r2, [r5, #4]	@ float
  48:MultiEffect.cpp ****     {
 1878              		.loc 17 48 5 is_stmt 1 discriminator 2 view .LVU497
  48:MultiEffect.cpp ****     {
 1879              		.loc 17 48 25 discriminator 2 view .LVU498
 1880 0030 0835     		adds	r5, r5, #8
 1881 0032 A642     		cmp	r6, r4
 1882 0034 1FD0     		beq	.L56
 1883              	.L63:
  50:MultiEffect.cpp ****         inr = in[i + 1];
 1884              		.loc 17 50 9 view .LVU499
  53:MultiEffect.cpp ****         {
 1885              		.loc 17 53 9 is_stmt 0 view .LVU500
 1886 0036 3B68     		ldr	r3, [r7]
  50:MultiEffect.cpp ****         inr = in[i + 1];
 1887              		.loc 17 50 13 view .LVU501
 1888 0038 94ED000A 		vldr.32	s0, [r4]
 1889              	.LVL80:
  51:MultiEffect.cpp **** 
 1890              		.loc 17 51 9 is_stmt 1 view .LVU502
  53:MultiEffect.cpp ****         {
 1891              		.loc 17 53 9 is_stmt 0 view .LVU503
 1892 003c 012B     		cmp	r3, #1
  51:MultiEffect.cpp **** 
 1893              		.loc 17 51 13 view .LVU504
 1894 003e D4ED010A 		vldr.32	s1, [r4, #4]
 1895              	.LVL81:
  53:MultiEffect.cpp ****         {
 1896              		.loc 17 53 9 is_stmt 1 view .LVU505
 1897 0042 0AD0     		beq	.L58
  58:MultiEffect.cpp ****         }
 1898              		.loc 17 58 13 view .LVU506
  58:MultiEffect.cpp ****         }
 1899              		.loc 17 58 22 view .LVU507
  58:MultiEffect.cpp ****         }
 1900              		.loc 17 58 34 is_stmt 0 view .LVU508
 1901 0044 0021     		movs	r1, #0
  53:MultiEffect.cpp ****         {
 1902              		.loc 17 53 9 view .LVU509
 1903 0046 022B     		cmp	r3, #2
  58:MultiEffect.cpp ****         }
 1904              		.loc 17 58 27 view .LVU510
 1905 0048 0A46     		mov	r2, r1	@ float
  53:MultiEffect.cpp ****         {
 1906              		.loc 17 53 9 view .LVU511
 1907 004a EAD1     		bne	.L66
  57:MultiEffect.cpp ****             default: outl = outr = 0;
 1908              		.loc 17 57 13 is_stmt 1 view .LVU512
  57:MultiEffect.cpp ****             default: outl = outr = 0;
 1909              		.loc 17 57 23 view .LVU513
  57:MultiEffect.cpp ****             default: outl = outr = 0;
 1910              		.loc 17 57 37 is_stmt 0 view .LVU514
ARM GAS  /tmp/cceTyTr4.s 			page 57


 1911 004c 01A9     		add	r1, sp, #4
 1912 004e 6846     		mov	r0, sp
 1913 0050 FFF7FEFF 		bl	_Z14GetCrushSampleRfS_ff
 1914              	.LVL82:
  57:MultiEffect.cpp ****             default: outl = outr = 0;
 1915              		.loc 17 57 61 is_stmt 1 view .LVU515
 1916 0054 009B     		ldr	r3, [sp]	@ float
 1917 0056 019A     		ldr	r2, [sp, #4]	@ float
 1918 0058 E7E7     		b	.L61
 1919              	.LVL83:
 1920              	.L58:
  56:MultiEffect.cpp ****             case CRU: GetCrushSample(outl, outr, inl, inr); break;
 1921              		.loc 17 56 13 view .LVU516
  56:MultiEffect.cpp ****             case CRU: GetCrushSample(outl, outr, inl, inr); break;
 1922              		.loc 17 56 23 view .LVU517
  56:MultiEffect.cpp ****             case CRU: GetCrushSample(outl, outr, inl, inr); break;
 1923              		.loc 17 56 37 is_stmt 0 view .LVU518
 1924 005a 01A9     		add	r1, sp, #4
 1925 005c 6846     		mov	r0, sp
 1926 005e FFF7FEFF 		bl	_Z14GetDelaySampleRfS_ff
 1927              	.LVL84:
  56:MultiEffect.cpp ****             case CRU: GetCrushSample(outl, outr, inl, inr); break;
 1928              		.loc 17 56 61 is_stmt 1 view .LVU519
 1929 0062 009B     		ldr	r3, [sp]	@ float
 1930 0064 019A     		ldr	r2, [sp, #4]	@ float
 1931 0066 E0E7     		b	.L61
 1932              	.LVL85:
 1933              	.L65:
  55:MultiEffect.cpp ****             case DEL: GetDelaySample(outl, outr, inl, inr); break;
 1934              		.loc 17 55 13 view .LVU520
  55:MultiEffect.cpp ****             case DEL: GetDelaySample(outl, outr, inl, inr); break;
 1935              		.loc 17 55 23 view .LVU521
  55:MultiEffect.cpp ****             case DEL: GetDelaySample(outl, outr, inl, inr); break;
 1936              		.loc 17 55 38 is_stmt 0 view .LVU522
 1937 0068 01A9     		add	r1, sp, #4
 1938 006a 6846     		mov	r0, sp
 1939 006c FFF7FEFF 		bl	_Z15GetReverbSampleRfS_ff
 1940              	.LVL86:
  55:MultiEffect.cpp ****             case DEL: GetDelaySample(outl, outr, inl, inr); break;
 1941              		.loc 17 55 62 is_stmt 1 view .LVU523
 1942 0070 009B     		ldr	r3, [sp]	@ float
 1943 0072 019A     		ldr	r2, [sp, #4]	@ float
 1944 0074 D9E7     		b	.L61
 1945              	.L56:
  55:MultiEffect.cpp ****             case DEL: GetDelaySample(outl, outr, inl, inr); break;
 1946              		.loc 17 55 62 is_stmt 0 view .LVU524
 1947              	.LBE589:
  67:MultiEffect.cpp **** 
 1948              		.loc 17 67 1 view .LVU525
 1949 0076 03B0     		add	sp, sp, #12
 1950              		.cfi_def_cfa_offset 20
 1951              		@ sp needed
 1952 0078 F0BD     		pop	{r4, r5, r6, r7, pc}
 1953              	.L68:
 1954 007a 00BF     		.align	2
 1955              	.L67:
 1956 007c 00000000 		.word	.LANCHOR6
ARM GAS  /tmp/cceTyTr4.s 			page 58


 1957              		.cfi_endproc
 1958              	.LFE4219:
 1960              		.section	.text.startup._GLOBAL__sub_I_mode,"ax",%progbits
 1961              		.align	1
 1962              		.p2align 2,,3
 1963              		.syntax unified
 1964              		.thumb
 1965              		.thumb_func
 1966              		.fpu fpv5-d16
 1968              	_GLOBAL__sub_I_mode:
 1969              	.LFB4796:
 1970              		.loc 17 189 1 is_stmt 1 view -0
 1971              		.cfi_startproc
 1972              		@ args = 0, pretend = 0, frame = 0
 1973              		@ frame_needed = 0, uses_anonymous_args = 0
 1974              	.LBB671:
 1975              	.LBI671:
 1976              		.loc 17 189 1 view .LVU527
 1977              	.LVL87:
 1978              	.LBB672:
 1979              	.LBB673:
 1980              	.LBI673:
  35:../../libdaisy/src/daisy_pod.h ****     ~DaisyPod() {}
 1981              		.loc 5 35 5 view .LVU528
 1982              	.LBB674:
 1983              	.LBB675:
 1984              	.LBI675:
  21:../../libdaisy/src/daisy_seed.h ****     ~DaisySeed() {}
 1985              		.loc 11 21 5 view .LVU529
 1986              	.LBB676:
 1987              	.LBB677:
 1988              	.LBI677:
  62:../../libdaisy/src/hid/audio.h ****     ~AudioHandle() {}
 1989              		.loc 15 62 5 view .LVU530
 1990              	.LBE677:
 1991              	.LBE676:
 1992              	.LBE675:
 1993              	.LBB696:
 1994              	.LBB697:
 1995              	.LBB698:
 1996              	.LBB699:
 1997              	.LBB700:
 1998              	.LBB701:
 1999              	.LBB702:
  36:../../libdaisy/src/hid/midi.h ****             tx     = {DSY_GPIOB, 6};
 2000              		.loc 6 36 20 is_stmt 0 view .LVU531
 2001 0000 274A     		ldr	r2, .L71
  37:../../libdaisy/src/hid/midi.h ****         }
 2002              		.loc 6 37 20 view .LVU532
 2003 0002 49F22221 		movw	r1, #37410
 2004              	.LBE702:
 2005              	.LBE701:
 2006              	.LBE700:
 2007              	.LBE699:
 2008              	.LBE698:
 2009              	.LBE697:
 2010              	.LBE696:
ARM GAS  /tmp/cceTyTr4.s 			page 59


 2011              	.LBB743:
 2012              	.LBB693:
 2013              	.LBB684:
 2014              	.LBB678:
 2015              	.LBB679:
  62:../../libdaisy/src/hid/audio.h ****     ~AudioHandle() {}
 2016              		.loc 15 62 35 view .LVU533
 2017 0006 2748     		ldr	r0, .L71+4
 2018              	.LBE679:
 2019              	.LBE678:
 2020              	.LBE684:
 2021              	.LBE693:
 2022              	.LBE743:
 2023              	.LBE674:
 2024              	.LBE673:
 2025              	.LBE672:
 2026              	.LBE671:
 2027              		.loc 17 189 1 view .LVU534
 2028 0008 F8B5     		push	{r3, r4, r5, r6, r7, lr}
 2029              		.cfi_def_cfa_offset 24
 2030              		.cfi_offset 3, -24
 2031              		.cfi_offset 4, -20
 2032              		.cfi_offset 5, -16
 2033              		.cfi_offset 6, -12
 2034              		.cfi_offset 7, -8
 2035              		.cfi_offset 14, -4
 2036              	.LBB789:
 2037              	.LBB787:
 2038              	.LBB771:
 2039              	.LBB768:
 2040              	.LBB744:
 2041              	.LBB738:
 2042              	.LBB733:
 2043              	.LBB715:
 2044              	.LBB711:
 2045              	.LBB707:
 2046              	.LBB703:
  36:../../libdaisy/src/hid/midi.h ****             tx     = {DSY_GPIOB, 6};
 2047              		.loc 6 36 20 view .LVU535
 2048 000a 1688     		ldrh	r6, [r2]
 2049 000c 49F22025 		movw	r5, #37408
  37:../../libdaisy/src/hid/midi.h ****         }
 2050              		.loc 6 37 20 view .LVU536
 2051 0010 9288     		ldrh	r2, [r2, #4]
 2052              	.LBE703:
 2053              	.LBE707:
 2054              	.LBE711:
 2055              	.LBE715:
 2056              	.LBE733:
 2057              	.LBE738:
 2058              	.LBE744:
 2059              	.LBB745:
 2060              	.LBB694:
 2061              	.LBB685:
 2062              	.LBB682:
 2063              	.LBB680:
  62:../../libdaisy/src/hid/audio.h ****     ~AudioHandle() {}
ARM GAS  /tmp/cceTyTr4.s 			page 60


 2064              		.loc 15 62 35 view .LVU537
 2065 0012 0023     		movs	r3, #0
 2066              	.LBE680:
 2067              	.LBE682:
 2068              	.LBE685:
 2069              	.LBE694:
 2070              	.LBE745:
 2071              	.LBB746:
 2072              	.LBB739:
 2073              	.LBB734:
 2074              	.LBB716:
 2075              	.LBB712:
 2076              	.LBB708:
 2077              	.LBB704:
  36:../../libdaisy/src/hid/midi.h ****             tx     = {DSY_GPIOB, 6};
 2078              		.loc 6 36 20 view .LVU538
 2079 0014 4653     		strh	r6, [r0, r5]	@ movhi
  35:../../libdaisy/src/hid/midi.h ****             rx     = {DSY_GPIOB, 7};
 2080              		.loc 6 35 20 view .LVU539
 2081 0016 49F21C27 		movw	r7, #37404
  37:../../libdaisy/src/hid/midi.h ****         }
 2082              		.loc 6 37 20 view .LVU540
 2083 001a 4252     		strh	r2, [r0, r1]	@ movhi
 2084              	.LBE704:
 2085              	.LBE708:
 2086              	.LBE712:
 2087              	.LBE716:
 2088              	.LBB717:
 2089              	.LBB718:
 2090              	.LBB719:
 2091              	.LBB720:
 2092              		.file 19 "../../libdaisy/src/per/uart.h"
   1:../../libdaisy/src/per/uart.h **** /* 
   2:../../libdaisy/src/per/uart.h **** TODO
   3:../../libdaisy/src/per/uart.h **** - UART1 defaults to DMA, add flexible config for DMA on all periphs
   4:../../libdaisy/src/per/uart.h **** - Transmit function improvements.
   5:../../libdaisy/src/per/uart.h **** - Overflow handling, etc. for Rx Queue.
   6:../../libdaisy/src/per/uart.h **** */
   7:../../libdaisy/src/per/uart.h **** 
   8:../../libdaisy/src/per/uart.h **** #pragma once
   9:../../libdaisy/src/per/uart.h **** #ifndef DSY_UART_H
  10:../../libdaisy/src/per/uart.h **** #define DSY_UART_H /**< macro */
  11:../../libdaisy/src/per/uart.h **** #include "daisy_core.h"
  12:../../libdaisy/src/per/uart.h **** 
  13:../../libdaisy/src/per/uart.h **** 
  14:../../libdaisy/src/per/uart.h **** namespace daisy
  15:../../libdaisy/src/per/uart.h **** {
  16:../../libdaisy/src/per/uart.h **** /** @addtogroup serial
  17:../../libdaisy/src/per/uart.h ****     @{
  18:../../libdaisy/src/per/uart.h ****     */
  19:../../libdaisy/src/per/uart.h **** 
  20:../../libdaisy/src/per/uart.h **** /** 
  21:../../libdaisy/src/per/uart.h ****     Uart Peripheral
  22:../../libdaisy/src/per/uart.h ****     @author shensley
  23:../../libdaisy/src/per/uart.h ****     @date March 2020
  24:../../libdaisy/src/per/uart.h ****     */
  25:../../libdaisy/src/per/uart.h **** class UartHandler
ARM GAS  /tmp/cceTyTr4.s 			page 61


  26:../../libdaisy/src/per/uart.h **** {
  27:../../libdaisy/src/per/uart.h ****   public:
  28:../../libdaisy/src/per/uart.h ****     struct Config
  29:../../libdaisy/src/per/uart.h ****     {
  30:../../libdaisy/src/per/uart.h ****         enum class Peripheral
  31:../../libdaisy/src/per/uart.h ****         {
  32:../../libdaisy/src/per/uart.h ****             USART_1,
  33:../../libdaisy/src/per/uart.h ****             USART_2,
  34:../../libdaisy/src/per/uart.h ****             USART_3,
  35:../../libdaisy/src/per/uart.h ****             UART_4,
  36:../../libdaisy/src/per/uart.h ****             UART_5,
  37:../../libdaisy/src/per/uart.h ****             USART_6,
  38:../../libdaisy/src/per/uart.h ****             UART_7,
  39:../../libdaisy/src/per/uart.h ****             UART_8,
  40:../../libdaisy/src/per/uart.h ****             LPUART_1,
  41:../../libdaisy/src/per/uart.h ****         };
  42:../../libdaisy/src/per/uart.h **** 
  43:../../libdaisy/src/per/uart.h ****         enum class StopBits
  44:../../libdaisy/src/per/uart.h ****         {
  45:../../libdaisy/src/per/uart.h ****             BITS_0_5,
  46:../../libdaisy/src/per/uart.h ****             BITS_1,
  47:../../libdaisy/src/per/uart.h ****             BITS_1_5,
  48:../../libdaisy/src/per/uart.h ****             BITS_2,
  49:../../libdaisy/src/per/uart.h ****         };
  50:../../libdaisy/src/per/uart.h **** 
  51:../../libdaisy/src/per/uart.h ****         enum class Parity
  52:../../libdaisy/src/per/uart.h ****         {
  53:../../libdaisy/src/per/uart.h ****             NONE,
  54:../../libdaisy/src/per/uart.h ****             EVEN,
  55:../../libdaisy/src/per/uart.h ****             ODD,
  56:../../libdaisy/src/per/uart.h ****         };
  57:../../libdaisy/src/per/uart.h **** 
  58:../../libdaisy/src/per/uart.h ****         enum class Mode
  59:../../libdaisy/src/per/uart.h ****         {
  60:../../libdaisy/src/per/uart.h ****             RX,
  61:../../libdaisy/src/per/uart.h ****             TX,
  62:../../libdaisy/src/per/uart.h ****             TX_RX,
  63:../../libdaisy/src/per/uart.h ****         };
  64:../../libdaisy/src/per/uart.h **** 
  65:../../libdaisy/src/per/uart.h ****         enum class WordLength
  66:../../libdaisy/src/per/uart.h ****         {
  67:../../libdaisy/src/per/uart.h ****             BITS_7,
  68:../../libdaisy/src/per/uart.h ****             BITS_8,
  69:../../libdaisy/src/per/uart.h ****             BITS_9,
  70:../../libdaisy/src/per/uart.h ****         };
  71:../../libdaisy/src/per/uart.h **** 
  72:../../libdaisy/src/per/uart.h ****         struct
  73:../../libdaisy/src/per/uart.h ****         {
  74:../../libdaisy/src/per/uart.h ****             dsy_gpio_pin tx; /**< & */
  75:../../libdaisy/src/per/uart.h ****             dsy_gpio_pin rx; /**< & */
  76:../../libdaisy/src/per/uart.h ****         } pin_config;        /**< & */
  77:../../libdaisy/src/per/uart.h **** 
  78:../../libdaisy/src/per/uart.h ****         Peripheral periph;
  79:../../libdaisy/src/per/uart.h ****         StopBits   stopbits;
  80:../../libdaisy/src/per/uart.h ****         Parity     parity;
  81:../../libdaisy/src/per/uart.h ****         Mode       mode;
  82:../../libdaisy/src/per/uart.h ****         WordLength wordlength;
ARM GAS  /tmp/cceTyTr4.s 			page 62


  83:../../libdaisy/src/per/uart.h ****         uint32_t   baudrate;
  84:../../libdaisy/src/per/uart.h ****     };
  85:../../libdaisy/src/per/uart.h **** 
  86:../../libdaisy/src/per/uart.h **** 
  87:../../libdaisy/src/per/uart.h ****     UartHandler() : pimpl_(nullptr) {}
 2093              		.loc 19 87 35 view .LVU541
 2094 001c 49F22425 		movw	r5, #37412
 2095              	.LBE720:
 2096              	.LBE719:
 2097              	.LBE718:
 2098              	.LBE717:
  82:../../libdaisy/src/hid/midi.h ****     ~MidiHandler() {}
 2099              		.loc 6 82 19 view .LVU542
 2100 0020 49F22C21 		movw	r1, #37420
 2101 0024 4FF60F06 		movw	r6, #63503
 2102              	.LBE734:
 2103              	.LBE739:
 2104              	.LBE746:
 2105              	.LBE768:
 2106              	.LBE771:
  14:MultiEffect.cpp **** 
 2107              		.loc 17 14 17 view .LVU543
 2108 0028 1F4C     		ldr	r4, .L71+8
 2109              	.LBB772:
 2110              	.LBB769:
 2111              	.LBB747:
 2112              	.LBB740:
 2113              	.LBB735:
  82:../../libdaisy/src/hid/midi.h ****     ~MidiHandler() {}
 2114              		.loc 6 82 19 view .LVU544
 2115 002a 49F22822 		movw	r2, #37416
 2116              	.LBB725:
 2117              	.LBB713:
 2118              	.LBB709:
 2119              	.LBB705:
  35:../../libdaisy/src/hid/midi.h ****             rx     = {DSY_GPIOB, 7};
 2120              		.loc 6 35 20 view .LVU545
 2121 002e C351     		str	r3, [r0, r7]
 2122              	.LBE705:
 2123              	.LBE709:
 2124              	.LBE713:
 2125              	.LBE725:
 2126              	.LBB726:
 2127              	.LBB723:
 2128              	.LBB722:
 2129              	.LBB721:
 2130              		.loc 19 87 35 view .LVU546
 2131 0030 4351     		str	r3, [r0, r5]
 2132              	.LBE721:
 2133              	.LBE722:
 2134              	.LBE723:
 2135              	.LBE726:
  82:../../libdaisy/src/hid/midi.h ****     ~MidiHandler() {}
 2136              		.loc 6 82 19 view .LVU547
 2137 0032 4652     		strh	r6, [r0, r1]	@ movhi
 2138 0034 0721     		movs	r1, #7
 2139 0036 1D4D     		ldr	r5, .L71+12
ARM GAS  /tmp/cceTyTr4.s 			page 63


 2140              	.LBE735:
 2141              	.LBE740:
 2142              	.LBE747:
 2143              	.LBB748:
 2144              	.LBB695:
 2145              	.LBB686:
 2146              	.LBB683:
 2147              	.LBB681:
  62:../../libdaisy/src/hid/audio.h ****     ~AudioHandle() {}
 2148              		.loc 15 62 35 view .LVU548
 2149 0038 4361     		str	r3, [r0, #20]
 2150              	.LVL88:
  62:../../libdaisy/src/hid/audio.h ****     ~AudioHandle() {}
 2151              		.loc 15 62 35 view .LVU549
 2152              	.LBE681:
 2153              	.LBE683:
 2154              	.LBE686:
 2155              	.LBB687:
 2156              	.LBI687:
  84:../../libdaisy/src/per/adc.h ****     ~AdcHandle() {}
 2157              		.loc 14 84 5 is_stmt 1 view .LVU550
  84:../../libdaisy/src/per/adc.h ****     ~AdcHandle() {}
 2158              		.loc 14 84 5 is_stmt 0 view .LVU551
 2159              	.LBE687:
 2160              	.LBB688:
 2161              	.LBI688:
 2162              		.file 20 "../../libdaisy/src/per/dac.h"
   1:../../libdaisy/src/per/dac.h **** #pragma once
   2:../../libdaisy/src/per/dac.h **** #ifndef DSY_DAC_H
   3:../../libdaisy/src/per/dac.h **** #define DSY_DAC_H
   4:../../libdaisy/src/per/dac.h **** 
   5:../../libdaisy/src/per/dac.h **** #include "daisy_core.h"
   6:../../libdaisy/src/per/dac.h **** 
   7:../../libdaisy/src/per/dac.h **** namespace daisy
   8:../../libdaisy/src/per/dac.h **** {
   9:../../libdaisy/src/per/dac.h **** /** DAC handle for Built-in DAC Peripheral 
  10:../../libdaisy/src/per/dac.h ****  ** 
  11:../../libdaisy/src/per/dac.h ****  ** For now only Normal Mode is supported,
  12:../../libdaisy/src/per/dac.h ****  ** Sample and hold mode provides reduced power consumption, but requires a bit more setup.
  13:../../libdaisy/src/per/dac.h ****  **
  14:../../libdaisy/src/per/dac.h ****  ** For now connecting the DAC through other internal periphearls is also not supported.
  15:../../libdaisy/src/per/dac.h ****  **
  16:../../libdaisy/src/per/dac.h ****  ** Since the DAC channels have dedicated pins we don't need to pass in a pin config like with
  17:../../libdaisy/src/per/dac.h ****  ** other modules. However, it is still important to not try to use the DAC pins for anything else.
  18:../../libdaisy/src/per/dac.h ****  ** DAC Channel 1 is on PA4, and DAC Channel 2 is on PA5
  19:../../libdaisy/src/per/dac.h ****  ***/
  20:../../libdaisy/src/per/dac.h **** class DacHandle
  21:../../libdaisy/src/per/dac.h **** {
  22:../../libdaisy/src/per/dac.h ****   public:
  23:../../libdaisy/src/per/dac.h ****     /** Return Values for the DacHandle class */
  24:../../libdaisy/src/per/dac.h ****     enum class Result
  25:../../libdaisy/src/per/dac.h ****     {
  26:../../libdaisy/src/per/dac.h ****         OK,
  27:../../libdaisy/src/per/dac.h ****         ERR,
  28:../../libdaisy/src/per/dac.h ****     };
  29:../../libdaisy/src/per/dac.h **** 
  30:../../libdaisy/src/per/dac.h ****     /** Selects which channel(s) will be configured for use. */
ARM GAS  /tmp/cceTyTr4.s 			page 64


  31:../../libdaisy/src/per/dac.h ****     enum class Channel
  32:../../libdaisy/src/per/dac.h ****     {
  33:../../libdaisy/src/per/dac.h ****         ONE,
  34:../../libdaisy/src/per/dac.h ****         TWO,
  35:../../libdaisy/src/per/dac.h ****         BOTH,
  36:../../libdaisy/src/per/dac.h ****     };
  37:../../libdaisy/src/per/dac.h **** 
  38:../../libdaisy/src/per/dac.h ****     /** Sets the Mode for the DAC channels.
  39:../../libdaisy/src/per/dac.h ****      **
  40:../../libdaisy/src/per/dac.h ****      ** Polling mode uses the blocking mode to transmit a single value at a time.
  41:../../libdaisy/src/per/dac.h ****      **
  42:../../libdaisy/src/per/dac.h ****      ** DMA mode uses a buffer, and periodically transmits it triggering a 
  43:../../libdaisy/src/per/dac.h ****      ** callback to fill the buffer when it is ready for more samples.
  44:../../libdaisy/src/per/dac.h ****      ***/
  45:../../libdaisy/src/per/dac.h ****     enum class Mode
  46:../../libdaisy/src/per/dac.h ****     {
  47:../../libdaisy/src/per/dac.h ****         POLLING,
  48:../../libdaisy/src/per/dac.h ****         DMA,
  49:../../libdaisy/src/per/dac.h ****     };
  50:../../libdaisy/src/per/dac.h **** 
  51:../../libdaisy/src/per/dac.h ****     /** Sets the number of bits per sample transmitted out of the DAC.
  52:../../libdaisy/src/per/dac.h ****      ** The output range will be: 0V - VDDA
  53:../../libdaisy/src/per/dac.h ****      ** The resolution will be roughly: bitdepth / (VDDA - 0V) 
  54:../../libdaisy/src/per/dac.h ****      ***/
  55:../../libdaisy/src/per/dac.h ****     enum class BitDepth
  56:../../libdaisy/src/per/dac.h ****     {
  57:../../libdaisy/src/per/dac.h ****         BITS_8,
  58:../../libdaisy/src/per/dac.h ****         BITS_12
  59:../../libdaisy/src/per/dac.h ****     };
  60:../../libdaisy/src/per/dac.h **** 
  61:../../libdaisy/src/per/dac.h ****     /** Sets whether the DAC output is buffered for higher drive ability. */
  62:../../libdaisy/src/per/dac.h ****     enum class BufferState
  63:../../libdaisy/src/per/dac.h ****     {
  64:../../libdaisy/src/per/dac.h ****         ENABLED,
  65:../../libdaisy/src/per/dac.h ****         DISABLED,
  66:../../libdaisy/src/per/dac.h ****     };
  67:../../libdaisy/src/per/dac.h **** 
  68:../../libdaisy/src/per/dac.h ****     /** Configuration structure for initializing the DAC structure. */
  69:../../libdaisy/src/per/dac.h ****     struct Config
  70:../../libdaisy/src/per/dac.h ****     {
  71:../../libdaisy/src/per/dac.h ****         /** Target Samplerate in Hz used to configure the internal 
  72:../../libdaisy/src/per/dac.h ****          ** timebase for DMA mode. Does nothing in POLLING mode.
  73:../../libdaisy/src/per/dac.h ****          ** If the value is 0 at Init time this will default to 48000Hz 
  74:../../libdaisy/src/per/dac.h ****          ** otherwise the driver will attempt meet the target.*/
  75:../../libdaisy/src/per/dac.h ****         uint32_t target_samplerate;
  76:../../libdaisy/src/per/dac.h **** 
  77:../../libdaisy/src/per/dac.h ****         Channel     chn;
  78:../../libdaisy/src/per/dac.h ****         Mode        mode;
  79:../../libdaisy/src/per/dac.h ****         BitDepth    bitdepth;
  80:../../libdaisy/src/per/dac.h ****         BufferState buff_state;
  81:../../libdaisy/src/per/dac.h ****     };
  82:../../libdaisy/src/per/dac.h **** 
  83:../../libdaisy/src/per/dac.h ****     DacHandle() : pimpl_(nullptr) {}
 2163              		.loc 20 83 5 is_stmt 1 view .LVU552
 2164              	.LBB689:
 2165              	.LBB690:
 2166              		.loc 20 83 33 is_stmt 0 view .LVU553
ARM GAS  /tmp/cceTyTr4.s 			page 65


 2167 003a 0362     		str	r3, [r0, #32]
 2168              	.LVL89:
 2169              		.loc 20 83 33 view .LVU554
 2170              	.LBE690:
 2171              	.LBE689:
 2172              	.LBE688:
 2173              	.LBB691:
 2174              	.LBI691:
  40:../../libdaisy/src/hid/usb.h **** 
 2175              		.loc 13 40 5 is_stmt 1 view .LVU555
  40:../../libdaisy/src/hid/usb.h **** 
 2176              		.loc 13 40 5 is_stmt 0 view .LVU556
 2177              	.LBE691:
 2178              	.LBB692:
 2179              	.LBI692:
  58:../../libdaisy/src/sys/system.h ****     ~System() {}
 2180              		.loc 12 58 5 is_stmt 1 view .LVU557
  58:../../libdaisy/src/sys/system.h ****     ~System() {}
 2181              		.loc 12 58 5 is_stmt 0 view .LVU558
 2182              	.LBE692:
 2183              	.LBE695:
 2184              	.LBE748:
 2185              	.LBB749:
 2186              	.LBI749:
  20:../../libdaisy/src/hid/encoder.h ****     ~Encoder() {}
 2187              		.loc 10 20 5 is_stmt 1 view .LVU559
 2188              	.LBB750:
 2189              	.LBB751:
 2190              	.LBI751:
  40:../../libdaisy/src/hid/switch.h ****     ~Switch() {}
 2191              		.loc 9 40 5 view .LVU560
  40:../../libdaisy/src/hid/switch.h ****     ~Switch() {}
 2192              		.loc 9 40 5 is_stmt 0 view .LVU561
 2193              	.LBE751:
 2194              	.LBE750:
 2195              	.LBE749:
 2196              	.LBB752:
 2197              	.LBI752:
  21:../../libdaisy/src/hid/ctrl.h ****     /** destructor */
 2198              		.loc 4 21 5 is_stmt 1 view .LVU562
  21:../../libdaisy/src/hid/ctrl.h ****     /** destructor */
 2199              		.loc 4 21 5 is_stmt 0 view .LVU563
 2200              	.LBE752:
 2201              	.LBB753:
 2202              	.LBI753:
  21:../../libdaisy/src/hid/ctrl.h ****     /** destructor */
 2203              		.loc 4 21 5 is_stmt 1 view .LVU564
  21:../../libdaisy/src/hid/ctrl.h ****     /** destructor */
 2204              		.loc 4 21 5 is_stmt 0 view .LVU565
 2205              	.LBE753:
 2206              	.LBB754:
 2207              	.LBI754:
  40:../../libdaisy/src/hid/switch.h ****     ~Switch() {}
 2208              		.loc 9 40 5 is_stmt 1 view .LVU566
  40:../../libdaisy/src/hid/switch.h ****     ~Switch() {}
 2209              		.loc 9 40 5 is_stmt 0 view .LVU567
 2210              	.LBE754:
ARM GAS  /tmp/cceTyTr4.s 			page 66


 2211              	.LBB755:
 2212              	.LBI755:
  40:../../libdaisy/src/hid/switch.h ****     ~Switch() {}
 2213              		.loc 9 40 5 is_stmt 1 view .LVU568
  40:../../libdaisy/src/hid/switch.h ****     ~Switch() {}
 2214              		.loc 9 40 5 is_stmt 0 view .LVU569
 2215              	.LBE755:
 2216              	.LBB756:
 2217              	.LBI756:
  17:../../libdaisy/src/hid/rgb_led.h ****     ~RgbLed() {}
 2218              		.loc 7 17 5 is_stmt 1 view .LVU570
 2219              	.LBB757:
 2220              	.LBB758:
 2221              	.LBI758:
  24:../../libdaisy/src/hid/led.h ****     ~Led() {}
 2222              		.loc 8 24 5 view .LVU571
  24:../../libdaisy/src/hid/led.h ****     ~Led() {}
 2223              		.loc 8 24 5 is_stmt 0 view .LVU572
 2224              	.LBE758:
 2225              	.LBB759:
 2226              	.LBI759:
  24:../../libdaisy/src/hid/led.h ****     ~Led() {}
 2227              		.loc 8 24 5 is_stmt 1 view .LVU573
  24:../../libdaisy/src/hid/led.h ****     ~Led() {}
 2228              		.loc 8 24 5 is_stmt 0 view .LVU574
 2229              	.LBE759:
 2230              	.LBB760:
 2231              	.LBI760:
  24:../../libdaisy/src/hid/led.h ****     ~Led() {}
 2232              		.loc 8 24 5 is_stmt 1 view .LVU575
  24:../../libdaisy/src/hid/led.h ****     ~Led() {}
 2233              		.loc 8 24 5 is_stmt 0 view .LVU576
 2234              	.LBE760:
 2235              	.LBE757:
 2236              	.LBE756:
 2237              	.LBB761:
 2238              	.LBI761:
  17:../../libdaisy/src/hid/rgb_led.h ****     ~RgbLed() {}
 2239              		.loc 7 17 5 is_stmt 1 view .LVU577
 2240              	.LBB762:
 2241              	.LBB763:
 2242              	.LBI763:
  24:../../libdaisy/src/hid/led.h ****     ~Led() {}
 2243              		.loc 8 24 5 view .LVU578
  24:../../libdaisy/src/hid/led.h ****     ~Led() {}
 2244              		.loc 8 24 5 is_stmt 0 view .LVU579
 2245              	.LBE763:
 2246              	.LBB764:
 2247              	.LBI764:
  24:../../libdaisy/src/hid/led.h ****     ~Led() {}
 2248              		.loc 8 24 5 is_stmt 1 view .LVU580
  24:../../libdaisy/src/hid/led.h ****     ~Led() {}
 2249              		.loc 8 24 5 is_stmt 0 view .LVU581
 2250              	.LBE764:
 2251              	.LBB765:
 2252              	.LBI765:
  24:../../libdaisy/src/hid/led.h ****     ~Led() {}
ARM GAS  /tmp/cceTyTr4.s 			page 67


 2253              		.loc 8 24 5 is_stmt 1 view .LVU582
  24:../../libdaisy/src/hid/led.h ****     ~Led() {}
 2254              		.loc 8 24 5 is_stmt 0 view .LVU583
 2255              	.LBE765:
 2256              	.LBE762:
 2257              	.LBE761:
 2258              	.LBB766:
 2259              	.LBI696:
  82:../../libdaisy/src/hid/midi.h ****     ~MidiHandler() {}
 2260              		.loc 6 82 5 is_stmt 1 view .LVU584
 2261              	.LBB741:
 2262              	.LBB736:
 2263              	.LBB727:
 2264              	.LBI727:
 2265              		.loc 19 87 5 view .LVU585
 2266              	.LBB728:
 2267              	.LBB729:
 2268              		.loc 19 87 35 is_stmt 0 view .LVU586
 2269 003c C0F87431 		str	r3, [r0, #372]
 2270              	.LVL90:
 2271              		.loc 19 87 35 view .LVU587
 2272              	.LBE729:
 2273              	.LBE728:
 2274              	.LBE727:
 2275              	.LBB730:
 2276              	.LBI730:
 2277              		.file 21 "../../libdaisy/src/util/ringbuffer.h"
   1:../../libdaisy/src/util/ringbuffer.h **** #pragma once
   2:../../libdaisy/src/util/ringbuffer.h **** #ifndef DSY_RINGBUFFER_H
   3:../../libdaisy/src/util/ringbuffer.h **** #define DSY_RINGBUFFER_H
   4:../../libdaisy/src/util/ringbuffer.h **** 
   5:../../libdaisy/src/util/ringbuffer.h **** #include <algorithm>
   6:../../libdaisy/src/util/ringbuffer.h **** 
   7:../../libdaisy/src/util/ringbuffer.h **** namespace daisy
   8:../../libdaisy/src/util/ringbuffer.h **** {
   9:../../libdaisy/src/util/ringbuffer.h **** /** @addtogroup utility
  10:../../libdaisy/src/util/ringbuffer.h ****     @{
  11:../../libdaisy/src/util/ringbuffer.h **** */
  12:../../libdaisy/src/util/ringbuffer.h **** 
  13:../../libdaisy/src/util/ringbuffer.h **** /**
  14:../../libdaisy/src/util/ringbuffer.h **** Utility Ring Buffer \n 
  15:../../libdaisy/src/util/ringbuffer.h **** imported from pichenettes/stmlib
  16:../../libdaisy/src/util/ringbuffer.h **** */
  17:../../libdaisy/src/util/ringbuffer.h **** template <typename T, size_t size>
  18:../../libdaisy/src/util/ringbuffer.h **** class RingBuffer
  19:../../libdaisy/src/util/ringbuffer.h **** {
  20:../../libdaisy/src/util/ringbuffer.h ****   public:
  21:../../libdaisy/src/util/ringbuffer.h ****     RingBuffer() {}
 2278              		.loc 21 21 5 is_stmt 1 view .LVU588
 2279              		.loc 21 21 5 is_stmt 0 view .LVU589
 2280              	.LBE730:
 2281              	.LBB731:
 2282              	.LBI699:
  84:../../libdaisy/src/hid/midi.h **** 
  85:../../libdaisy/src/hid/midi.h ****     struct Config
 2283              		.loc 6 85 12 is_stmt 1 view .LVU590
 2284              	.LBB714:
ARM GAS  /tmp/cceTyTr4.s 			page 68


 2285              	.LBI700:
  33:../../libdaisy/src/hid/midi.h ****         {
 2286              		.loc 6 33 9 view .LVU591
 2287              	.LBB710:
 2288              	.LBB706:
  35:../../libdaisy/src/hid/midi.h ****             rx     = {DSY_GPIOB, 7};
 2289              		.loc 6 35 13 view .LVU592
  36:../../libdaisy/src/hid/midi.h ****             tx     = {DSY_GPIOB, 6};
 2290              		.loc 6 36 13 view .LVU593
  37:../../libdaisy/src/hid/midi.h ****         }
 2291              		.loc 6 37 13 view .LVU594
  37:../../libdaisy/src/hid/midi.h ****         }
 2292              		.loc 6 37 13 is_stmt 0 view .LVU595
 2293              	.LBE706:
 2294              	.LBE710:
 2295              	.LBE714:
 2296              	.LBE731:
 2297              	.LBB732:
 2298              	.LBI717:
  24:../../libdaisy/src/hid/midi.h ****     ~MidiUartTransport() {}
 2299              		.loc 6 24 5 is_stmt 1 view .LVU596
 2300              	.LBB724:
 2301              	.LBI718:
 2302              		.loc 19 87 5 view .LVU597
 2303              		.loc 19 87 5 is_stmt 0 view .LVU598
 2304              	.LBE724:
 2305              	.LBE732:
  82:../../libdaisy/src/hid/midi.h ****     ~MidiHandler() {}
 2306              		.loc 6 82 19 view .LVU599
 2307 0040 49F22E23 		movw	r3, #37422
 2308 0044 8550     		str	r5, [r0, r2]
 2309              	.LBE736:
 2310              	.LBE741:
 2311              	.LBE766:
 2312              	.LBE769:
 2313              	.LBE772:
  14:MultiEffect.cpp **** 
 2314              		.loc 17 14 17 view .LVU600
 2315 0046 2246     		mov	r2, r4
 2316              	.LBB773:
 2317              	.LBB770:
 2318              	.LBB767:
 2319              	.LBB742:
 2320              	.LBB737:
  82:../../libdaisy/src/hid/midi.h ****     ~MidiHandler() {}
 2321              		.loc 6 82 19 view .LVU601
 2322 0048 C154     		strb	r1, [r0, r3]
 2323              	.LVL91:
  82:../../libdaisy/src/hid/midi.h ****     ~MidiHandler() {}
 2324              		.loc 6 82 19 view .LVU602
 2325              	.LBE737:
 2326              	.LBE742:
 2327              	.LBE767:
 2328              	.LBE770:
 2329              	.LBE773:
  17:MultiEffect.cpp **** static DelayLine<float, MAX_DELAY> DSY_SDRAM_BSS delr;
 2330              		.loc 17 17 50 view .LVU603
ARM GAS  /tmp/cceTyTr4.s 			page 69


 2331 004a 194D     		ldr	r5, .L71+16
  14:MultiEffect.cpp **** 
 2332              		.loc 17 14 17 view .LVU604
 2333 004c 1949     		ldr	r1, .L71+20
 2334 004e FFF7FEFF 		bl	__aeabi_atexit
 2335              	.LVL92:
 2336              	.LBB774:
 2337              	.LBI774:
  40:../../DaisySP/Source/Effects/reverbsc.h ****     ~ReverbSc() {}
 2338              		.loc 1 40 5 is_stmt 1 view .LVU605
  40:../../DaisySP/Source/Effects/reverbsc.h ****     ~ReverbSc() {}
 2339              		.loc 1 40 5 is_stmt 0 view .LVU606
 2340              	.LBE774:
  16:MultiEffect.cpp **** static DelayLine<float, MAX_DELAY> DSY_SDRAM_BSS dell;
 2341              		.loc 17 16 50 view .LVU607
 2342 0052 2246     		mov	r2, r4
 2343 0054 1849     		ldr	r1, .L71+24
 2344 0056 1948     		ldr	r0, .L71+28
 2345 0058 FFF7FEFF 		bl	__aeabi_atexit
 2346              	.LVL93:
 2347              	.LBB775:
 2348              	.LBI775:
  23:../../DaisySP/Source/Utility/delayline.h ****     ~DelayLine() {}
 2349              		.loc 16 23 5 is_stmt 1 view .LVU608
  23:../../DaisySP/Source/Utility/delayline.h ****     ~DelayLine() {}
 2350              		.loc 16 23 5 is_stmt 0 view .LVU609
 2351              	.LBE775:
  17:MultiEffect.cpp **** static DelayLine<float, MAX_DELAY> DSY_SDRAM_BSS delr;
 2352              		.loc 17 17 50 view .LVU610
 2353 005c 2246     		mov	r2, r4
 2354 005e 2946     		mov	r1, r5
 2355 0060 1748     		ldr	r0, .L71+32
 2356 0062 FFF7FEFF 		bl	__aeabi_atexit
 2357              	.LVL94:
 2358              	.LBB776:
 2359              	.LBI776:
  23:../../DaisySP/Source/Utility/delayline.h ****     ~DelayLine() {}
 2360              		.loc 16 23 5 is_stmt 1 view .LVU611
  23:../../DaisySP/Source/Utility/delayline.h ****     ~DelayLine() {}
 2361              		.loc 16 23 5 is_stmt 0 view .LVU612
 2362              	.LBE776:
  18:MultiEffect.cpp **** static Tone                                      tone;
 2363              		.loc 17 18 50 view .LVU613
 2364 0066 2246     		mov	r2, r4
 2365 0068 2946     		mov	r1, r5
 2366 006a 1648     		ldr	r0, .L71+36
  20:MultiEffect.cpp **** int              mode = REV;
 2367              		.loc 17 20 18 view .LVU614
 2368 006c 164D     		ldr	r5, .L71+40
  18:MultiEffect.cpp **** static Tone                                      tone;
 2369              		.loc 17 18 50 view .LVU615
 2370 006e FFF7FEFF 		bl	__aeabi_atexit
 2371              	.LVL95:
 2372              	.LBB777:
 2373              	.LBI777:
  15:../../DaisySP/Source/Filters/tone.h ****     ~Tone() {}
 2374              		.loc 2 15 5 is_stmt 1 view .LVU616
ARM GAS  /tmp/cceTyTr4.s 			page 70


  15:../../DaisySP/Source/Filters/tone.h ****     ~Tone() {}
 2375              		.loc 2 15 5 is_stmt 0 view .LVU617
 2376              	.LBE777:
  19:MultiEffect.cpp **** static Parameter deltime, cutoffParam, crushrate;
 2377              		.loc 17 19 50 view .LVU618
 2378 0072 2246     		mov	r2, r4
 2379 0074 1549     		ldr	r1, .L71+44
 2380 0076 1648     		ldr	r0, .L71+48
 2381 0078 FFF7FEFF 		bl	__aeabi_atexit
 2382              	.LVL96:
 2383              	.LBB778:
 2384              	.LBI778:
  25:../../libdaisy/src/hid/parameter.h ****     /** Destructor */
 2385              		.loc 3 25 5 is_stmt 1 view .LVU619
 2386              	.LBB779:
 2387              	.LBB780:
 2388              	.LBI780:
  21:../../libdaisy/src/hid/ctrl.h ****     /** destructor */
 2389              		.loc 4 21 5 view .LVU620
  21:../../libdaisy/src/hid/ctrl.h ****     /** destructor */
 2390              		.loc 4 21 5 is_stmt 0 view .LVU621
 2391              	.LBE780:
 2392              	.LBE779:
 2393              	.LBE778:
  20:MultiEffect.cpp **** int              mode = REV;
 2394              		.loc 17 20 18 view .LVU622
 2395 007c 2246     		mov	r2, r4
 2396 007e 2946     		mov	r1, r5
 2397 0080 1448     		ldr	r0, .L71+52
 2398 0082 FFF7FEFF 		bl	__aeabi_atexit
 2399              	.LVL97:
 2400              	.LBB781:
 2401              	.LBI781:
  25:../../libdaisy/src/hid/parameter.h ****     /** Destructor */
 2402              		.loc 3 25 5 is_stmt 1 view .LVU623
 2403              	.LBB782:
 2404              	.LBB783:
 2405              	.LBI783:
  21:../../libdaisy/src/hid/ctrl.h ****     /** destructor */
 2406              		.loc 4 21 5 view .LVU624
  21:../../libdaisy/src/hid/ctrl.h ****     /** destructor */
 2407              		.loc 4 21 5 is_stmt 0 view .LVU625
 2408              	.LBE783:
 2409              	.LBE782:
 2410              	.LBE781:
  20:MultiEffect.cpp **** int              mode = REV;
 2411              		.loc 17 20 27 view .LVU626
 2412 0086 2246     		mov	r2, r4
 2413 0088 2946     		mov	r1, r5
 2414 008a 1348     		ldr	r0, .L71+56
 2415 008c FFF7FEFF 		bl	__aeabi_atexit
 2416              	.LVL98:
 2417              	.LBB784:
 2418              	.LBI784:
  25:../../libdaisy/src/hid/parameter.h ****     /** Destructor */
 2419              		.loc 3 25 5 is_stmt 1 view .LVU627
 2420              	.LBB785:
ARM GAS  /tmp/cceTyTr4.s 			page 71


 2421              	.LBB786:
 2422              	.LBI786:
  21:../../libdaisy/src/hid/ctrl.h ****     /** destructor */
 2423              		.loc 4 21 5 view .LVU628
  21:../../libdaisy/src/hid/ctrl.h ****     /** destructor */
 2424              		.loc 4 21 5 is_stmt 0 view .LVU629
 2425              	.LBE786:
 2426              	.LBE785:
 2427              	.LBE784:
  20:MultiEffect.cpp **** int              mode = REV;
 2428              		.loc 17 20 40 view .LVU630
 2429 0090 2246     		mov	r2, r4
 2430 0092 2946     		mov	r1, r5
 2431 0094 1148     		ldr	r0, .L71+60
 2432              	.LBE787:
 2433              	.LBE789:
 2434              		.loc 17 189 1 view .LVU631
 2435 0096 BDE8F840 		pop	{r3, r4, r5, r6, r7, lr}
 2436              		.cfi_restore 14
 2437              		.cfi_restore 7
 2438              		.cfi_restore 6
 2439              		.cfi_restore 5
 2440              		.cfi_restore 4
 2441              		.cfi_restore 3
 2442              		.cfi_def_cfa_offset 0
 2443              	.LBB790:
 2444              	.LBB788:
  20:MultiEffect.cpp **** int              mode = REV;
 2445              		.loc 17 20 40 view .LVU632
 2446 009a FFF7FEBF 		b	__aeabi_atexit
 2447              	.LVL99:
 2448              	.L72:
 2449 009e 00BF     		.align	2
 2450              	.L71:
 2451 00a0 00000000 		.word	.LANCHOR14
 2452 00a4 00000000 		.word	_ZL3pod
 2453 00a8 00000000 		.word	__dso_handle
 2454 00ac 80707FF0 		.word	-260083584
 2455 00b0 00000000 		.word	_ZN7daisysp9DelayLineIfLj120000EED1Ev
 2456 00b4 00000000 		.word	_ZN5daisy8DaisyPodD1Ev
 2457 00b8 00000000 		.word	_ZN7daisysp8ReverbScD1Ev
 2458 00bc 00000000 		.word	_ZL3rev
 2459 00c0 0C530700 		.word	_ZL4dell
 2460 00c4 00000000 		.word	_ZL4delr
 2461 00c8 00000000 		.word	_ZN5daisy9ParameterD1Ev
 2462 00cc 00000000 		.word	_ZN7daisysp4ToneD1Ev
 2463 00d0 00000000 		.word	.LANCHOR0
 2464 00d4 00000000 		.word	.LANCHOR1
 2465 00d8 00000000 		.word	.LANCHOR2
 2466 00dc 00000000 		.word	.LANCHOR3
 2467              	.LBE788:
 2468              	.LBE790:
 2469              		.cfi_endproc
 2470              	.LFE4796:
 2472              		.section	.init_array,"aw",%init_array
 2473              		.align	2
 2474 0000 00000000 		.word	_GLOBAL__sub_I_mode(target1)
ARM GAS  /tmp/cceTyTr4.s 			page 72


 2475              		.global	drywet
 2476              		.global	crushsr
 2477              		.global	crushsl
 2478              		.global	crushcount
 2479              		.global	crushmod
 2480              		.global	cutoff
 2481              		.global	delayTarget
 2482              		.global	feedback
 2483              		.global	currentDelay
 2484              		.global	mode
 2485              		.section	.rodata
 2486              		.align	2
 2487              		.set	.LANCHOR14,. + 0
 2488              	.LC0:
 2489 0000 01       		.byte	1
 2490 0001 07       		.byte	7
 2491 0002 0000     		.space	2
 2492              	.LC1:
 2493 0004 01       		.byte	1
 2494 0005 06       		.byte	6
 2495              		.section	.bss._ZL11cutoffParam,"aw",%nobits
 2496              		.align	2
 2497              		.set	.LANCHOR2,. + 0
 2500              	_ZL11cutoffParam:
 2501 0000 00000000 		.space	56
 2501      00000000 
 2501      00000000 
 2501      00000000 
 2501      00000000 
 2502              		.section	.bss._ZL3pod,"aw",%nobits
 2503              		.align	2
 2506              	_ZL3pod:
 2507 0000 00000000 		.space	37424
 2507      00000000 
 2507      00000000 
 2507      00000000 
 2507      00000000 
 2508              		.section	.bss._ZL3rev,"aw",%nobits
 2509              		.align	2
 2512              	_ZL3rev:
 2513 0000 00000000 		.space	396100
 2513      00000000 
 2513      00000000 
 2513      00000000 
 2513      00000000 
 2514              		.section	.bss._ZL4tone,"aw",%nobits
 2515              		.align	2
 2516              		.set	.LANCHOR0,. + 0
 2519              	_ZL4tone:
 2520 0000 00000000 		.space	28
 2520      00000000 
 2520      00000000 
 2520      00000000 
 2520      00000000 
 2521              		.section	.bss._ZL7deltime,"aw",%nobits
 2522              		.align	2
 2523              		.set	.LANCHOR1,. + 0
ARM GAS  /tmp/cceTyTr4.s 			page 73


 2526              	_ZL7deltime:
 2527 0000 00000000 		.space	56
 2527      00000000 
 2527      00000000 
 2527      00000000 
 2527      00000000 
 2528              		.section	.bss._ZL9crushrate,"aw",%nobits
 2529              		.align	2
 2530              		.set	.LANCHOR3,. + 0
 2533              	_ZL9crushrate:
 2534 0000 00000000 		.space	56
 2534      00000000 
 2534      00000000 
 2534      00000000 
 2534      00000000 
 2535              		.section	.bss.crushcount,"aw",%nobits
 2536              		.align	2
 2537              		.set	.LANCHOR11,. + 0
 2540              	crushcount:
 2541 0000 00000000 		.space	4
 2542              		.section	.bss.crushmod,"aw",%nobits
 2543              		.align	2
 2544              		.set	.LANCHOR10,. + 0
 2547              	crushmod:
 2548 0000 00000000 		.space	4
 2549              		.section	.bss.crushsl,"aw",%nobits
 2550              		.align	2
 2551              		.set	.LANCHOR13,. + 0
 2554              	crushsl:
 2555 0000 00000000 		.space	4
 2556              		.section	.bss.crushsr,"aw",%nobits
 2557              		.align	2
 2558              		.set	.LANCHOR12,. + 0
 2561              	crushsr:
 2562 0000 00000000 		.space	4
 2563              		.section	.bss.currentDelay,"aw",%nobits
 2564              		.align	2
 2565              		.set	.LANCHOR5,. + 0
 2568              	currentDelay:
 2569 0000 00000000 		.space	4
 2570              		.section	.bss.cutoff,"aw",%nobits
 2571              		.align	2
 2572              		.set	.LANCHOR9,. + 0
 2575              	cutoff:
 2576 0000 00000000 		.space	4
 2577              		.section	.bss.delayTarget,"aw",%nobits
 2578              		.align	2
 2579              		.set	.LANCHOR4,. + 0
 2582              	delayTarget:
 2583 0000 00000000 		.space	4
 2584              		.section	.bss.drywet,"aw",%nobits
 2585              		.align	2
 2586              		.set	.LANCHOR7,. + 0
 2589              	drywet:
 2590 0000 00000000 		.space	4
 2591              		.section	.bss.feedback,"aw",%nobits
 2592              		.align	2
ARM GAS  /tmp/cceTyTr4.s 			page 74


 2593              		.set	.LANCHOR8,. + 0
 2596              	feedback:
 2597 0000 00000000 		.space	4
 2598              		.section	.bss.mode,"aw",%nobits
 2599              		.align	2
 2600              		.set	.LANCHOR6,. + 0
 2603              	mode:
 2604 0000 00000000 		.space	4
 2605              		.section	.sdram_bss,"aw"
 2606              		.align	2
 2609              	_ZL4delr:
 2610 0000 00000000 		.space	480012
 2610      00000000 
 2610      00000000 
 2610      00000000 
 2610      00000000 
 2613              	_ZL4dell:
 2614 7530c 00000000 		.space	480012
 2614      00000000 
 2614      00000000 
 2614      00000000 
 2614      00000000 
 2615              		.text
 2616              	.Letext0:
 2617              		.file 22 "/usr/lib/gcc/arm-none-eabi/9.2.1/include/stdint.h"
 2618              		.file 23 "../../libdaisy/Drivers/CMSIS/Include/core_cm7.h"
 2619              		.file 24 "../../libdaisy/Drivers/CMSIS/Device/ST/STM32H7xx/Include/system_stm32h7xx.h"
 2620              		.file 25 "/usr/lib/gcc/arm-none-eabi/9.2.1/include/stddef.h"
 2621              		.file 26 "/usr/include/newlib/c++/9.2.1/cmath"
 2622              		.file 27 "/usr/include/newlib/c++/9.2.1/bits/std_abs.h"
 2623              		.file 28 "/usr/include/newlib/c++/9.2.1/cstdint"
 2624              		.file 29 "/usr/include/newlib/c++/9.2.1/cstdlib"
 2625              		.file 30 "/usr/include/newlib/c++/9.2.1/type_traits"
 2626              		.file 31 "/usr/include/newlib/c++/9.2.1/arm-none-eabi/thumb/v7e-m+dp/hard/bits/c++config.h"
 2627              		.file 32 "/usr/include/newlib/c++/9.2.1/bits/stl_pair.h"
 2628              		.file 33 "/usr/include/newlib/c++/9.2.1/debug/debug.h"
 2629              		.file 34 "/usr/include/newlib/c++/9.2.1/cwchar"
 2630              		.file 35 "/usr/include/newlib/c++/9.2.1/bits/exception_ptr.h"
 2631              		.file 36 "/usr/include/newlib/c++/9.2.1/new"
 2632              		.file 37 "/usr/include/newlib/c++/9.2.1/clocale"
 2633              		.file 38 "/usr/include/newlib/c++/9.2.1/cstdio"
 2634              		.file 39 "/usr/include/newlib/c++/9.2.1/bits/basic_string.h"
 2635              		.file 40 "/usr/include/newlib/c++/9.2.1/bits/uniform_int_dist.h"
 2636              		.file 41 "/usr/include/newlib/c++/9.2.1/bits/random.h"
 2637              		.file 42 "/usr/include/newlib/c++/9.2.1/cstring"
 2638              		.file 43 "/usr/include/newlib/c++/9.2.1/bits/algorithmfwd.h"
 2639              		.file 44 "/usr/include/newlib/c++/9.2.1/cstdarg"
 2640              		.file 45 "/usr/include/newlib/c++/9.2.1/bits/predefined_ops.h"
 2641              		.file 46 "/usr/include/newlib/c++/9.2.1/ext/new_allocator.h"
 2642              		.file 47 "/usr/include/newlib/c++/9.2.1/ext/numeric_traits.h"
 2643              		.file 48 "/usr/include/newlib/sys/_types.h"
 2644              		.file 49 "<built-in>"
 2645              		.file 50 "/usr/include/newlib/sys/reent.h"
 2646              		.file 51 "/usr/include/newlib/sys/lock.h"
 2647              		.file 52 "/usr/include/newlib/math.h"
 2648              		.file 53 "/usr/include/newlib/stdlib.h"
 2649              		.file 54 "/usr/include/newlib/c++/9.2.1/math.h"
ARM GAS  /tmp/cceTyTr4.s 			page 75


 2650              		.file 55 "../../libdaisy/Drivers/STM32H7xx_HAL_Driver/Inc/stm32h7xx_hal_def.h"
 2651              		.file 56 "../../libdaisy/Drivers/STM32H7xx_HAL_Driver/Inc/stm32h7xx_hal_flash.h"
 2652              		.file 57 "../../DaisySP/Source/Control/adenv.h"
 2653              		.file 58 "/usr/lib/gcc/arm-none-eabi/9.2.1/include/stdarg.h"
 2654              		.file 59 "/usr/include/newlib/wchar.h"
 2655              		.file 60 "/usr/include/newlib/locale.h"
 2656              		.file 61 "/usr/include/newlib/ctype.h"
 2657              		.file 62 "/usr/include/newlib/stdio.h"
 2658              		.file 63 "/usr/include/newlib/sys/errno.h"
 2659              		.file 64 "/usr/include/newlib/c++/9.2.1/stdlib.h"
 2660              		.file 65 "/usr/include/newlib/string.h"
 2661              		.file 66 "../../libdaisy/src/daisy_core.h"
 2662              		.file 67 "../../libdaisy/src/per/tim.h"
 2663              		.file 68 "../../libdaisy/src/per/sai.h"
 2664              		.file 69 "../../libdaisy/src/hid/MidiEvent.h"
 2665              		.file 70 "../../libdaisy/src/util/wav_format.h"
 2666              		.file 71 "../../libdaisy/src/util/color.h"
 2667              		.file 72 "../../libdaisy/src/per/qspi.h"
 2668              		.file 73 "../../libdaisy/src/per/gpio.h"
 2669              		.file 74 "../../libdaisy/src/dev/sdram.h"
 2670              		.file 75 "/usr/include/newlib/sys/unistd.h"
 2671              		.file 76 "../../libdaisy/src/util/oled_fonts.h"
 2672              		.file 77 "../../libdaisy/Middlewares/Third_Party/FatFs/src/integer.h"
 2673              		.file 78 "../../libdaisy/Middlewares/Third_Party/FatFs/src/ff.h"
 2674              		.file 79 "../../libdaisy/Middlewares/Third_Party/FatFs/src/diskio.h"
 2675              		.file 80 "../../libdaisy/Middlewares/Third_Party/FatFs/src/ff_gen_drv.h"
 2676              		.file 81 "../../libdaisy/src/util/sd_diskio.h"
 2677              		.file 82 "../../libdaisy/src/sys/fatfs.h"
 2678              		.file 83 "../../libdaisy/src/dev/sr_595.h"
ARM GAS  /tmp/cceTyTr4.s 			page 76

