ARM GAS  /tmp/ccpr9r5K.s 			page 1


   1              		.cpu cortex-m7
   2              		.eabi_attribute 28, 1
   3              		.eabi_attribute 20, 1
   4              		.eabi_attribute 21, 1
   5              		.eabi_attribute 23, 3
   6              		.eabi_attribute 24, 1
   7              		.eabi_attribute 25, 1
   8              		.eabi_attribute 26, 1
   9              		.eabi_attribute 30, 2
  10              		.eabi_attribute 34, 1
  11              		.eabi_attribute 18, 4
  12              		.file	"ex_vco.cpp"
  13              		.text
  14              	.Ltext0:
  15              		.cfi_sections	.debug_frame
  16              		.section	.text._ZN7daisysp10OscillatorD2Ev,"axG",%progbits,_ZN7daisysp10OscillatorD5Ev,comdat
  17              		.align	1
  18              		.p2align 2,,3
  19              		.weak	_ZN7daisysp10OscillatorD2Ev
  20              		.arch armv7e-m
  21              		.syntax unified
  22              		.thumb
  23              		.thumb_func
  24              		.fpu fpv5-d16
  26              	_ZN7daisysp10OscillatorD2Ev:
  27              	.LVL0:
  28              	.LFB2797:
  29              		.file 1 "../../DaisySP/Source/Synthesis/oscillator.h"
   1:../../DaisySP/Source/Synthesis/oscillator.h **** #pragma once
   2:../../DaisySP/Source/Synthesis/oscillator.h **** #ifndef DSY_OSCILLATOR_H
   3:../../DaisySP/Source/Synthesis/oscillator.h **** #define DSY_OSCILLATOR_H
   4:../../DaisySP/Source/Synthesis/oscillator.h **** #include <stdint.h>
   5:../../DaisySP/Source/Synthesis/oscillator.h **** #include "Utility/dsp.h"
   6:../../DaisySP/Source/Synthesis/oscillator.h **** #ifdef __cplusplus
   7:../../DaisySP/Source/Synthesis/oscillator.h **** 
   8:../../DaisySP/Source/Synthesis/oscillator.h **** namespace daisysp
   9:../../DaisySP/Source/Synthesis/oscillator.h **** {
  10:../../DaisySP/Source/Synthesis/oscillator.h **** /** Synthesis of several waveforms, including polyBLEP bandlimited waveforms.
  11:../../DaisySP/Source/Synthesis/oscillator.h **** */
  12:../../DaisySP/Source/Synthesis/oscillator.h **** class Oscillator
  13:../../DaisySP/Source/Synthesis/oscillator.h **** {
  14:../../DaisySP/Source/Synthesis/oscillator.h ****   public:
  15:../../DaisySP/Source/Synthesis/oscillator.h ****     Oscillator() {}
  16:../../DaisySP/Source/Synthesis/oscillator.h ****     ~Oscillator() {}
  30              		.loc 1 16 5 view -0
  31              		.cfi_startproc
  32              		@ args = 0, pretend = 0, frame = 0
  33              		@ frame_needed = 0, uses_anonymous_args = 0
  34              		@ link register save eliminated.
  35              		.loc 1 16 20 is_stmt 0 view .LVU1
  36 0000 7047     		bx	lr
  37              		.cfi_endproc
  38              	.LFE2797:
  40              		.weak	_ZN7daisysp10OscillatorD1Ev
  41              		.thumb_set _ZN7daisysp10OscillatorD1Ev,_ZN7daisysp10OscillatorD2Ev
  42 0002 00BF     		.section	.text._ZN5daisy9ParameterD2Ev,"axG",%progbits,_ZN5daisy9ParameterD5Ev,comdat
  43              		.align	1
ARM GAS  /tmp/ccpr9r5K.s 			page 2


  44              		.p2align 2,,3
  45              		.weak	_ZN5daisy9ParameterD2Ev
  46              		.syntax unified
  47              		.thumb
  48              		.thumb_func
  49              		.fpu fpv5-d16
  51              	_ZN5daisy9ParameterD2Ev:
  52              	.LVL1:
  53              	.LFB3778:
  54              		.file 2 "../../libdaisy/src/hid/parameter.h"
   1:../../libdaisy/src/hid/parameter.h **** #pragma once
   2:../../libdaisy/src/hid/parameter.h **** #include <stdint.h>
   3:../../libdaisy/src/hid/parameter.h **** #include "hid/ctrl.h"
   4:../../libdaisy/src/hid/parameter.h **** 
   5:../../libdaisy/src/hid/parameter.h **** namespace daisy
   6:../../libdaisy/src/hid/parameter.h **** {
   7:../../libdaisy/src/hid/parameter.h **** /** @addtogroup controls
   8:../../libdaisy/src/hid/parameter.h ****     @{
   9:../../libdaisy/src/hid/parameter.h **** */
  10:../../libdaisy/src/hid/parameter.h **** 
  11:../../libdaisy/src/hid/parameter.h **** /**      Simple parameter mapping tool that takes a 0-1 input from an hid_ctrl. */
  12:../../libdaisy/src/hid/parameter.h **** class Parameter
  13:../../libdaisy/src/hid/parameter.h **** {
  14:../../libdaisy/src/hid/parameter.h ****   public:
  15:../../libdaisy/src/hid/parameter.h ****     /** Curves are applied to the output signal */
  16:../../libdaisy/src/hid/parameter.h ****     enum Curve
  17:../../libdaisy/src/hid/parameter.h ****     {
  18:../../libdaisy/src/hid/parameter.h ****         LINEAR,      /**< Linear curve */
  19:../../libdaisy/src/hid/parameter.h ****         EXPONENTIAL, /**< Exponential curve */
  20:../../libdaisy/src/hid/parameter.h ****         LOGARITHMIC, /**<  Logarithmic curve */
  21:../../libdaisy/src/hid/parameter.h ****         CUBE,        /**< Cubic curve */
  22:../../libdaisy/src/hid/parameter.h ****         LAST,        /**< Final enum element. */
  23:../../libdaisy/src/hid/parameter.h ****     };
  24:../../libdaisy/src/hid/parameter.h ****     /** Constructor */
  25:../../libdaisy/src/hid/parameter.h ****     Parameter() {}
  26:../../libdaisy/src/hid/parameter.h ****     /** Destructor */
  27:../../libdaisy/src/hid/parameter.h ****     ~Parameter() {}
  55              		.loc 2 27 5 is_stmt 1 view -0
  56              		.cfi_startproc
  57              		@ args = 0, pretend = 0, frame = 0
  58              		@ frame_needed = 0, uses_anonymous_args = 0
  59              		@ link register save eliminated.
  60              	.LBB634:
  61              	.LBI634:
  62              		.file 3 "../../libdaisy/src/hid/ctrl.h"
   1:../../libdaisy/src/hid/ctrl.h **** #pragma once
   2:../../libdaisy/src/hid/ctrl.h **** #ifndef DSY_KNOB_H
   3:../../libdaisy/src/hid/ctrl.h **** #define DSY_KNOB_H /**< & */
   4:../../libdaisy/src/hid/ctrl.h **** #include <stdint.h>
   5:../../libdaisy/src/hid/ctrl.h **** 
   6:../../libdaisy/src/hid/ctrl.h **** #ifdef __cplusplus
   7:../../libdaisy/src/hid/ctrl.h **** namespace daisy
   8:../../libdaisy/src/hid/ctrl.h **** {
   9:../../libdaisy/src/hid/ctrl.h **** /**
  10:../../libdaisy/src/hid/ctrl.h ****     @brief Hardware Interface for control inputs \n 
  11:../../libdaisy/src/hid/ctrl.h ****     Primarily designed for ADC input controls such as \n 
  12:../../libdaisy/src/hid/ctrl.h ****     potentiometers, and control voltage. \n 
ARM GAS  /tmp/ccpr9r5K.s 			page 3


  13:../../libdaisy/src/hid/ctrl.h ****     @author Stephen Hensley
  14:../../libdaisy/src/hid/ctrl.h ****     @date November 2019
  15:../../libdaisy/src/hid/ctrl.h ****     @ingroup controls
  16:../../libdaisy/src/hid/ctrl.h **** */
  17:../../libdaisy/src/hid/ctrl.h **** class AnalogControl
  18:../../libdaisy/src/hid/ctrl.h **** {
  19:../../libdaisy/src/hid/ctrl.h ****   public:
  20:../../libdaisy/src/hid/ctrl.h ****     /** Constructor */
  21:../../libdaisy/src/hid/ctrl.h ****     AnalogControl() {}
  22:../../libdaisy/src/hid/ctrl.h ****     /** destructor */
  23:../../libdaisy/src/hid/ctrl.h ****     ~AnalogControl() {}
  63              		.loc 3 23 5 view .LVU3
  64              		.loc 3 23 5 is_stmt 0 view .LVU4
  65              	.LBE634:
  66              		.loc 2 27 19 view .LVU5
  67 0000 7047     		bx	lr
  68              		.cfi_endproc
  69              	.LFE3778:
  71              		.weak	_ZN5daisy9ParameterD1Ev
  72              		.thumb_set _ZN5daisy9ParameterD1Ev,_ZN5daisy9ParameterD2Ev
  73 0002 00BF     		.section	.text._ZN5daisy10DaisyPatchD2Ev,"axG",%progbits,_ZN5daisy10DaisyPatchD5Ev,comdat
  74              		.align	1
  75              		.p2align 2,,3
  76              		.weak	_ZN5daisy10DaisyPatchD2Ev
  77              		.syntax unified
  78              		.thumb
  79              		.thumb_func
  80              		.fpu fpv5-d16
  82              	_ZN5daisy10DaisyPatchD2Ev:
  83              	.LVL2:
  84              	.LFB4230:
  85              		.file 4 "../../libdaisy/src/daisy_patch.h"
   1:../../libdaisy/src/daisy_patch.h **** #pragma once
   2:../../libdaisy/src/daisy_patch.h **** #ifndef DSY_PATCH_BSP_H
   3:../../libdaisy/src/daisy_patch.h **** #define DSY_PATCH_BSP_H
   4:../../libdaisy/src/daisy_patch.h **** #include "daisy_seed.h"
   5:../../libdaisy/src/daisy_patch.h **** #include "dev/oled_ssd130x.h"
   6:../../libdaisy/src/daisy_patch.h **** 
   7:../../libdaisy/src/daisy_patch.h **** namespace daisy
   8:../../libdaisy/src/daisy_patch.h **** {
   9:../../libdaisy/src/daisy_patch.h **** /**
  10:../../libdaisy/src/daisy_patch.h ****     @brief Class that handles initializing all of the hardware specific to the Daisy Patch Board. \
  11:../../libdaisy/src/daisy_patch.h ****     Helper funtions are also in place to provide easy access to built-in controls and peripherals.
  12:../../libdaisy/src/daisy_patch.h ****     @author Stephen Hensley
  13:../../libdaisy/src/daisy_patch.h ****     @date November 2019
  14:../../libdaisy/src/daisy_patch.h ****     @ingroup boards
  15:../../libdaisy/src/daisy_patch.h **** */
  16:../../libdaisy/src/daisy_patch.h **** class DaisyPatch
  17:../../libdaisy/src/daisy_patch.h **** {
  18:../../libdaisy/src/daisy_patch.h ****   public:
  19:../../libdaisy/src/daisy_patch.h ****     /** Enum of Ctrls to represent the four CV/Knob combos on the Patch
  20:../../libdaisy/src/daisy_patch.h ****      */
  21:../../libdaisy/src/daisy_patch.h ****     enum Ctrl
  22:../../libdaisy/src/daisy_patch.h ****     {
  23:../../libdaisy/src/daisy_patch.h ****         CTRL_1,    /**< */
  24:../../libdaisy/src/daisy_patch.h ****         CTRL_2,    /**< */
  25:../../libdaisy/src/daisy_patch.h ****         CTRL_3,    /**< */
ARM GAS  /tmp/ccpr9r5K.s 			page 4


  26:../../libdaisy/src/daisy_patch.h ****         CTRL_4,    /**< */
  27:../../libdaisy/src/daisy_patch.h ****         CTRL_LAST, /**< */
  28:../../libdaisy/src/daisy_patch.h ****     };
  29:../../libdaisy/src/daisy_patch.h **** 
  30:../../libdaisy/src/daisy_patch.h ****     /** Daisy patch gate inputs */
  31:../../libdaisy/src/daisy_patch.h ****     enum GateInput
  32:../../libdaisy/src/daisy_patch.h ****     {
  33:../../libdaisy/src/daisy_patch.h ****         GATE_IN_1,    /**< */
  34:../../libdaisy/src/daisy_patch.h ****         GATE_IN_2,    /** <*/
  35:../../libdaisy/src/daisy_patch.h ****         GATE_IN_LAST, /**< */
  36:../../libdaisy/src/daisy_patch.h ****     };
  37:../../libdaisy/src/daisy_patch.h **** 
  38:../../libdaisy/src/daisy_patch.h ****     /** Constructor */
  39:../../libdaisy/src/daisy_patch.h ****     DaisyPatch() {}
  40:../../libdaisy/src/daisy_patch.h ****     /** Destructor */
  41:../../libdaisy/src/daisy_patch.h ****     ~DaisyPatch() {}
  86              		.loc 4 41 5 is_stmt 1 view -0
  87              		.cfi_startproc
  88              		@ args = 0, pretend = 0, frame = 0
  89              		@ frame_needed = 0, uses_anonymous_args = 0
  90              		@ link register save eliminated.
  91              	.LBB635:
  92              	.LBI635:
  93              		.file 5 "../../libdaisy/src/hid/disp/oled_display.h"
   1:../../libdaisy/src/hid/disp/oled_display.h **** #pragma once
   2:../../libdaisy/src/hid/disp/oled_display.h **** #ifndef DSY_OLED_DISPLAY_H
   3:../../libdaisy/src/hid/disp/oled_display.h **** #define DSY_OLED_DISPLAY_H /**< Macro */
   4:../../libdaisy/src/hid/disp/oled_display.h **** 
   5:../../libdaisy/src/hid/disp/oled_display.h **** #include "display.h"
   6:../../libdaisy/src/hid/disp/oled_display.h **** 
   7:../../libdaisy/src/hid/disp/oled_display.h **** namespace daisy
   8:../../libdaisy/src/hid/disp/oled_display.h **** {
   9:../../libdaisy/src/hid/disp/oled_display.h **** /** 
  10:../../libdaisy/src/hid/disp/oled_display.h ****  * This class is for drawing to a monochrome OLED display. 
  11:../../libdaisy/src/hid/disp/oled_display.h **** */
  12:../../libdaisy/src/hid/disp/oled_display.h **** template <typename DisplayDriver>
  13:../../libdaisy/src/hid/disp/oled_display.h **** class OledDisplay : public OneBitGraphicsDisplayImpl<OledDisplay<DisplayDriver>>
  14:../../libdaisy/src/hid/disp/oled_display.h **** {
  15:../../libdaisy/src/hid/disp/oled_display.h ****   public:
  16:../../libdaisy/src/hid/disp/oled_display.h ****     OledDisplay() {}
  17:../../libdaisy/src/hid/disp/oled_display.h ****     virtual ~OledDisplay() {}
  94              		.loc 5 17 13 view .LVU7
  95              	.LBB636:
  96              	.LBI636:
  97              		.file 6 "../../libdaisy/src/hid/disp/display.h"
   1:../../libdaisy/src/hid/disp/display.h **** #pragma once
   2:../../libdaisy/src/hid/disp/display.h **** #ifndef DSY_DISPLAY_H
   3:../../libdaisy/src/hid/disp/display.h **** #define DSY_DISPLAY_H /**< Macro */
   4:../../libdaisy/src/hid/disp/display.h **** #include <cmath>
   5:../../libdaisy/src/hid/disp/display.h **** #include "util/oled_fonts.h"
   6:../../libdaisy/src/hid/disp/display.h **** #include "daisy_core.h"
   7:../../libdaisy/src/hid/disp/display.h **** #include "graphics_common.h"
   8:../../libdaisy/src/hid/disp/display.h **** 
   9:../../libdaisy/src/hid/disp/display.h **** #ifndef deg2rad
  10:../../libdaisy/src/hid/disp/display.h **** #define deg2rad(deg) ((deg)*3.141592 / 180.0)
  11:../../libdaisy/src/hid/disp/display.h **** #endif
  12:../../libdaisy/src/hid/disp/display.h **** 
ARM GAS  /tmp/ccpr9r5K.s 			page 5


  13:../../libdaisy/src/hid/disp/display.h **** namespace daisy
  14:../../libdaisy/src/hid/disp/display.h **** {
  15:../../libdaisy/src/hid/disp/display.h **** /** 
  16:../../libdaisy/src/hid/disp/display.h ****  * This interface is used as a base class for all types of 1bit-per-pixel
  17:../../libdaisy/src/hid/disp/display.h ****  * graphics displays.
  18:../../libdaisy/src/hid/disp/display.h **** */
  19:../../libdaisy/src/hid/disp/display.h **** class OneBitGraphicsDisplay
  20:../../libdaisy/src/hid/disp/display.h **** {
  21:../../libdaisy/src/hid/disp/display.h ****   public:
  22:../../libdaisy/src/hid/disp/display.h ****     OneBitGraphicsDisplay() {}
  23:../../libdaisy/src/hid/disp/display.h ****     virtual ~OneBitGraphicsDisplay() {}
  24:../../libdaisy/src/hid/disp/display.h **** 
  25:../../libdaisy/src/hid/disp/display.h ****     virtual uint16_t Height() const = 0;
  26:../../libdaisy/src/hid/disp/display.h ****     virtual uint16_t Width() const  = 0;
  27:../../libdaisy/src/hid/disp/display.h **** 
  28:../../libdaisy/src/hid/disp/display.h ****     Rectangle GetBounds() const
  29:../../libdaisy/src/hid/disp/display.h ****     {
  30:../../libdaisy/src/hid/disp/display.h ****         return Rectangle(int16_t(Width()), int16_t(Height()));
  31:../../libdaisy/src/hid/disp/display.h ****     }
  32:../../libdaisy/src/hid/disp/display.h **** 
  33:../../libdaisy/src/hid/disp/display.h **** 
  34:../../libdaisy/src/hid/disp/display.h ****     size_t CurrentX() { return currentX_; };
  35:../../libdaisy/src/hid/disp/display.h ****     size_t CurrentY() { return currentY_; };
  36:../../libdaisy/src/hid/disp/display.h **** 
  37:../../libdaisy/src/hid/disp/display.h ****     /** 
  38:../../libdaisy/src/hid/disp/display.h ****     Fills the entire display with either on/off.
  39:../../libdaisy/src/hid/disp/display.h ****     \param on Sets on or off.
  40:../../libdaisy/src/hid/disp/display.h ****     */
  41:../../libdaisy/src/hid/disp/display.h ****     virtual void Fill(bool on) = 0;
  42:../../libdaisy/src/hid/disp/display.h **** 
  43:../../libdaisy/src/hid/disp/display.h ****     /**
  44:../../libdaisy/src/hid/disp/display.h ****     Sets the pixel at the specified coordinate to be on/off.
  45:../../libdaisy/src/hid/disp/display.h ****     \param x   x Coordinate
  46:../../libdaisy/src/hid/disp/display.h ****     \param y   y coordinate
  47:../../libdaisy/src/hid/disp/display.h ****     \param on  on or off
  48:../../libdaisy/src/hid/disp/display.h ****     */
  49:../../libdaisy/src/hid/disp/display.h ****     virtual void DrawPixel(uint_fast8_t x, uint_fast8_t y, bool on) = 0;
  50:../../libdaisy/src/hid/disp/display.h **** 
  51:../../libdaisy/src/hid/disp/display.h ****     /**
  52:../../libdaisy/src/hid/disp/display.h ****     Draws a line from (x1, y1) to (y1, y2)
  53:../../libdaisy/src/hid/disp/display.h ****     \param x1  x Coordinate of the starting point
  54:../../libdaisy/src/hid/disp/display.h ****     \param y1  y Coordinate of the starting point
  55:../../libdaisy/src/hid/disp/display.h ****     \param x2  x Coordinate of the ending point
  56:../../libdaisy/src/hid/disp/display.h ****     \param y2  y Coordinate of the ending point
  57:../../libdaisy/src/hid/disp/display.h ****     \param on  on or off
  58:../../libdaisy/src/hid/disp/display.h ****     */
  59:../../libdaisy/src/hid/disp/display.h ****     virtual void DrawLine(uint_fast8_t x1,
  60:../../libdaisy/src/hid/disp/display.h ****                           uint_fast8_t y1,
  61:../../libdaisy/src/hid/disp/display.h ****                           uint_fast8_t x2,
  62:../../libdaisy/src/hid/disp/display.h ****                           uint_fast8_t y2,
  63:../../libdaisy/src/hid/disp/display.h ****                           bool         on)
  64:../../libdaisy/src/hid/disp/display.h ****         = 0;
  65:../../libdaisy/src/hid/disp/display.h **** 
  66:../../libdaisy/src/hid/disp/display.h ****     /**
  67:../../libdaisy/src/hid/disp/display.h ****     Draws a rectangle based on two coordinates.
  68:../../libdaisy/src/hid/disp/display.h ****     \param x1 x Coordinate of the first point
  69:../../libdaisy/src/hid/disp/display.h ****     \param y1 y Coordinate of the first point
ARM GAS  /tmp/ccpr9r5K.s 			page 6


  70:../../libdaisy/src/hid/disp/display.h ****     \param x2 x Coordinate of the second point
  71:../../libdaisy/src/hid/disp/display.h ****     \param y2 y Coordinate of the second point
  72:../../libdaisy/src/hid/disp/display.h ****     \param on on or off
  73:../../libdaisy/src/hid/disp/display.h ****     \param fill fill the rectangle or draw only the outline
  74:../../libdaisy/src/hid/disp/display.h ****     */
  75:../../libdaisy/src/hid/disp/display.h ****     virtual void DrawRect(uint_fast8_t x1,
  76:../../libdaisy/src/hid/disp/display.h ****                           uint_fast8_t y1,
  77:../../libdaisy/src/hid/disp/display.h ****                           uint_fast8_t x2,
  78:../../libdaisy/src/hid/disp/display.h ****                           uint_fast8_t y2,
  79:../../libdaisy/src/hid/disp/display.h ****                           bool         on,
  80:../../libdaisy/src/hid/disp/display.h ****                           bool         fill = false)
  81:../../libdaisy/src/hid/disp/display.h ****         = 0;
  82:../../libdaisy/src/hid/disp/display.h **** 
  83:../../libdaisy/src/hid/disp/display.h ****     /**
  84:../../libdaisy/src/hid/disp/display.h ****     Draws a rectangle.
  85:../../libdaisy/src/hid/disp/display.h ****     \param rect the rectangle
  86:../../libdaisy/src/hid/disp/display.h ****     \param on   on or off
  87:../../libdaisy/src/hid/disp/display.h ****     \param fill fill the rectangle or draw only the outline
  88:../../libdaisy/src/hid/disp/display.h ****     */
  89:../../libdaisy/src/hid/disp/display.h ****     void DrawRect(const Rectangle& rect, bool on, bool fill = false)
  90:../../libdaisy/src/hid/disp/display.h ****     {
  91:../../libdaisy/src/hid/disp/display.h ****         DrawRect(rect.GetX(),
  92:../../libdaisy/src/hid/disp/display.h ****                  rect.GetY(),
  93:../../libdaisy/src/hid/disp/display.h ****                  rect.GetRight(),
  94:../../libdaisy/src/hid/disp/display.h ****                  rect.GetBottom(),
  95:../../libdaisy/src/hid/disp/display.h ****                  on,
  96:../../libdaisy/src/hid/disp/display.h ****                  fill);
  97:../../libdaisy/src/hid/disp/display.h ****     }
  98:../../libdaisy/src/hid/disp/display.h **** 
  99:../../libdaisy/src/hid/disp/display.h ****     /**
 100:../../libdaisy/src/hid/disp/display.h ****     Draws an arc around the specified coordinate
 101:../../libdaisy/src/hid/disp/display.h ****     \param x           x Coordinate of the center of the arc
 102:../../libdaisy/src/hid/disp/display.h ****     \param y           y Coordinate of the center of the arc
 103:../../libdaisy/src/hid/disp/display.h ****     \param radius      radius of the arc
 104:../../libdaisy/src/hid/disp/display.h ****     \param start_angle angle where to start the arc
 105:../../libdaisy/src/hid/disp/display.h ****     \param sweep       total angle of the arc
 106:../../libdaisy/src/hid/disp/display.h ****     \param on  on or off
 107:../../libdaisy/src/hid/disp/display.h ****     */
 108:../../libdaisy/src/hid/disp/display.h ****     virtual void DrawArc(uint_fast8_t x,
 109:../../libdaisy/src/hid/disp/display.h ****                          uint_fast8_t y,
 110:../../libdaisy/src/hid/disp/display.h ****                          uint_fast8_t radius,
 111:../../libdaisy/src/hid/disp/display.h ****                          int_fast16_t start_angle,
 112:../../libdaisy/src/hid/disp/display.h ****                          int_fast16_t sweep,
 113:../../libdaisy/src/hid/disp/display.h ****                          bool         on)
 114:../../libdaisy/src/hid/disp/display.h ****         = 0;
 115:../../libdaisy/src/hid/disp/display.h **** 
 116:../../libdaisy/src/hid/disp/display.h ****     /**
 117:../../libdaisy/src/hid/disp/display.h ****     Draws a circle around the specified coordinate
 118:../../libdaisy/src/hid/disp/display.h ****     \param x           x Coordinate of the center of the circle
 119:../../libdaisy/src/hid/disp/display.h ****     \param y           y Coordinate of the center of the circle
 120:../../libdaisy/src/hid/disp/display.h ****     \param radius      radius of the circle
 121:../../libdaisy/src/hid/disp/display.h ****     \param on  on or off
 122:../../libdaisy/src/hid/disp/display.h ****     */
 123:../../libdaisy/src/hid/disp/display.h ****     void
 124:../../libdaisy/src/hid/disp/display.h ****     DrawCircle(uint_fast8_t x, uint_fast8_t y, uint_fast8_t radius, bool on)
 125:../../libdaisy/src/hid/disp/display.h ****     {
 126:../../libdaisy/src/hid/disp/display.h ****         DrawArc(x, y, radius, 0, 360, on);
ARM GAS  /tmp/ccpr9r5K.s 			page 7


 127:../../libdaisy/src/hid/disp/display.h ****     };
 128:../../libdaisy/src/hid/disp/display.h **** 
 129:../../libdaisy/src/hid/disp/display.h ****     /** 
 130:../../libdaisy/src/hid/disp/display.h ****     Writes the character with the specific FontDef
 131:../../libdaisy/src/hid/disp/display.h ****     to the display buffer at the current Cursor position.
 132:../../libdaisy/src/hid/disp/display.h ****     \param ch character to be written
 133:../../libdaisy/src/hid/disp/display.h ****     \param font font to be written in
 134:../../libdaisy/src/hid/disp/display.h ****     \param on    on or off
 135:../../libdaisy/src/hid/disp/display.h ****     \return &
 136:../../libdaisy/src/hid/disp/display.h ****     */
 137:../../libdaisy/src/hid/disp/display.h ****     virtual char WriteChar(char ch, FontDef font, bool on) = 0;
 138:../../libdaisy/src/hid/disp/display.h **** 
 139:../../libdaisy/src/hid/disp/display.h ****     /** 
 140:../../libdaisy/src/hid/disp/display.h ****     Similar to WriteChar, except it will handle an entire String.
 141:../../libdaisy/src/hid/disp/display.h ****     Wrapping does not happen automatically, so the width
 142:../../libdaisy/src/hid/disp/display.h ****     of the string must be kept within the dimensions of the screen.
 143:../../libdaisy/src/hid/disp/display.h ****     \param str string to be written
 144:../../libdaisy/src/hid/disp/display.h ****     \param font font to use
 145:../../libdaisy/src/hid/disp/display.h ****     \param on  on or off
 146:../../libdaisy/src/hid/disp/display.h ****     \return &
 147:../../libdaisy/src/hid/disp/display.h ****     */
 148:../../libdaisy/src/hid/disp/display.h ****     virtual char WriteString(const char* str, FontDef font, bool on) = 0;
 149:../../libdaisy/src/hid/disp/display.h **** 
 150:../../libdaisy/src/hid/disp/display.h ****     /** 
 151:../../libdaisy/src/hid/disp/display.h ****     Similar to WriteString but justified within a bounding box.
 152:../../libdaisy/src/hid/disp/display.h ****     \param str          string to be written
 153:../../libdaisy/src/hid/disp/display.h ****     \param font         font to use
 154:../../libdaisy/src/hid/disp/display.h ****     \param boundingBox  the bounding box to draw the text in
 155:../../libdaisy/src/hid/disp/display.h ****     \param alignment    the alignment to use
 156:../../libdaisy/src/hid/disp/display.h ****     \param on           on or off
 157:../../libdaisy/src/hid/disp/display.h ****     \return The rectangle that was drawn to
 158:../../libdaisy/src/hid/disp/display.h ****     */
 159:../../libdaisy/src/hid/disp/display.h ****     virtual Rectangle WriteStringAligned(const char*    str,
 160:../../libdaisy/src/hid/disp/display.h ****                                          const FontDef& font,
 161:../../libdaisy/src/hid/disp/display.h ****                                          Rectangle      boundingBox,
 162:../../libdaisy/src/hid/disp/display.h ****                                          Alignment      alignment,
 163:../../libdaisy/src/hid/disp/display.h ****                                          bool           on)
 164:../../libdaisy/src/hid/disp/display.h ****         = 0;
 165:../../libdaisy/src/hid/disp/display.h **** 
 166:../../libdaisy/src/hid/disp/display.h ****     /** 
 167:../../libdaisy/src/hid/disp/display.h ****     Moves the 'Cursor' position used for WriteChar, and WriteStr to the specified coordinate.
 168:../../libdaisy/src/hid/disp/display.h ****     \param x x pos
 169:../../libdaisy/src/hid/disp/display.h ****     \param y y pos
 170:../../libdaisy/src/hid/disp/display.h ****     */
 171:../../libdaisy/src/hid/disp/display.h ****     void SetCursor(uint16_t x, uint16_t y)
 172:../../libdaisy/src/hid/disp/display.h ****     {
 173:../../libdaisy/src/hid/disp/display.h ****         currentX_ = (x >= Width()) ? Width() - 1 : x;
 174:../../libdaisy/src/hid/disp/display.h ****         currentY_ = (y >= Height()) ? Height() - 1 : y;
 175:../../libdaisy/src/hid/disp/display.h ****     }
 176:../../libdaisy/src/hid/disp/display.h **** 
 177:../../libdaisy/src/hid/disp/display.h ****     /** 
 178:../../libdaisy/src/hid/disp/display.h ****     Writes the current display buffer to the OLED device using SPI or I2C depending on 
 179:../../libdaisy/src/hid/disp/display.h ****     how the object was initialized.
 180:../../libdaisy/src/hid/disp/display.h ****     */
 181:../../libdaisy/src/hid/disp/display.h ****     virtual void Update() = 0;
 182:../../libdaisy/src/hid/disp/display.h **** 
 183:../../libdaisy/src/hid/disp/display.h ****   protected:
ARM GAS  /tmp/ccpr9r5K.s 			page 8


 184:../../libdaisy/src/hid/disp/display.h ****     uint16_t currentX_;
 185:../../libdaisy/src/hid/disp/display.h ****     uint16_t currentY_;
 186:../../libdaisy/src/hid/disp/display.h **** };
 187:../../libdaisy/src/hid/disp/display.h **** 
 188:../../libdaisy/src/hid/disp/display.h **** /** This class is intended as a intermediary class for your actual implementation of the OneBitGrap
 189:../../libdaisy/src/hid/disp/display.h ****  *  interface. It uses the CRTP design pattern where the template argument is the child class. It p
 190:../../libdaisy/src/hid/disp/display.h ****  *  implementations for most of the functions, except DrawPixel(), Update() and Fill(), which you'l
 191:../../libdaisy/src/hid/disp/display.h ****  *  to provide in your child class.
 192:../../libdaisy/src/hid/disp/display.h ****  *  The main goal of this class is to provide common drawing functions without relying on massive a
 193:../../libdaisy/src/hid/disp/display.h ****  *  virtual function calls that would result in a performance loss. To achieve this, any drawing fu
 194:../../libdaisy/src/hid/disp/display.h ****  *  is implemented here and internally calls other drawing functions (e.g. DrawRect() which interna
 195:../../libdaisy/src/hid/disp/display.h ****  *  DrawPixel() and DrawLine()) makes these calls via the qualified name of these functions to expl
 196:../../libdaisy/src/hid/disp/display.h ****  *  suppress the virtual dispatch mechanism like this:
 197:../../libdaisy/src/hid/disp/display.h ****  * 
 198:../../libdaisy/src/hid/disp/display.h ****  *      ChildType::DrawPixel(...); // no virtual function call; direct call into the child class fu
 199:../../libdaisy/src/hid/disp/display.h ****  *  
 200:../../libdaisy/src/hid/disp/display.h ****  *  To create a custom OneBitGraphicsDisplay implementation, you can 
 201:../../libdaisy/src/hid/disp/display.h ****  *  A) inherit from OneBitGraphicsDisplay directly and provide all the drawing functions yourself
 202:../../libdaisy/src/hid/disp/display.h ****  *  B) Inherit from OneBitGraphicsDisplayImpl and only provide DrawPixel(), Fill() and Update()
 203:../../libdaisy/src/hid/disp/display.h ****  *     like this:
 204:../../libdaisy/src/hid/disp/display.h ****  *  
 205:../../libdaisy/src/hid/disp/display.h ****  *      class MyDisplayClass : public OneBitGraphicsDisplayImpl<MyDisplayClass> 
 206:../../libdaisy/src/hid/disp/display.h ****  *      {
 207:../../libdaisy/src/hid/disp/display.h ****  *      public:
 208:../../libdaisy/src/hid/disp/display.h ****  *          void Fill() override { ... };
 209:../../libdaisy/src/hid/disp/display.h ****  *          void DrawPixel(uint_fast8_t x, uint_fast8_t y, bool on) override { ... };
 210:../../libdaisy/src/hid/disp/display.h ****  *          void Update() override { ... }
 211:../../libdaisy/src/hid/disp/display.h ****  *      };
 212:../../libdaisy/src/hid/disp/display.h ****  *  
 213:../../libdaisy/src/hid/disp/display.h ****  */
 214:../../libdaisy/src/hid/disp/display.h **** template <class ChildType>
 215:../../libdaisy/src/hid/disp/display.h **** class OneBitGraphicsDisplayImpl : public OneBitGraphicsDisplay
 216:../../libdaisy/src/hid/disp/display.h **** {
 217:../../libdaisy/src/hid/disp/display.h ****   public:
 218:../../libdaisy/src/hid/disp/display.h ****     OneBitGraphicsDisplayImpl() {}
 219:../../libdaisy/src/hid/disp/display.h ****     virtual ~OneBitGraphicsDisplayImpl() {}
  98              		.loc 6 219 13 view .LVU8
  99              	.LBB637:
 100              	.LBI637:
  23:../../libdaisy/src/hid/disp/display.h **** 
 101              		.loc 6 23 13 view .LVU9
  23:../../libdaisy/src/hid/disp/display.h **** 
 102              		.loc 6 23 13 is_stmt 0 view .LVU10
 103              	.LBE637:
 104              	.LBE636:
 105              	.LBE635:
 106              	.LBB638:
 107              	.LBI638:
 108              		.file 7 "../../libdaisy/src/hid/midi.h"
   1:../../libdaisy/src/hid/midi.h **** #pragma once
   2:../../libdaisy/src/hid/midi.h **** #ifndef DSY_MIDI_H
   3:../../libdaisy/src/hid/midi.h **** #define DSY_MIDI_H
   4:../../libdaisy/src/hid/midi.h **** 
   5:../../libdaisy/src/hid/midi.h **** // TODO: make this adjustable
   6:../../libdaisy/src/hid/midi.h **** #define SYSEX_BUFFER_LEN 128
   7:../../libdaisy/src/hid/midi.h **** 
   8:../../libdaisy/src/hid/midi.h **** #include <stdint.h>
ARM GAS  /tmp/ccpr9r5K.s 			page 9


   9:../../libdaisy/src/hid/midi.h **** #include <stdlib.h>
  10:../../libdaisy/src/hid/midi.h **** #include "per/uart.h"
  11:../../libdaisy/src/hid/midi.h **** #include "util/ringbuffer.h"
  12:../../libdaisy/src/hid/midi.h **** #include "hid/MidiEvent.h"
  13:../../libdaisy/src/hid/midi.h **** #include "sys/system.h"
  14:../../libdaisy/src/hid/midi.h **** 
  15:../../libdaisy/src/hid/midi.h **** namespace daisy
  16:../../libdaisy/src/hid/midi.h **** {
  17:../../libdaisy/src/hid/midi.h **** /** @addtogroup external 
  18:../../libdaisy/src/hid/midi.h ****     @{ 
  19:../../libdaisy/src/hid/midi.h **** */
  20:../../libdaisy/src/hid/midi.h **** 
  21:../../libdaisy/src/hid/midi.h **** class MidiUartTransport
  22:../../libdaisy/src/hid/midi.h **** {
  23:../../libdaisy/src/hid/midi.h ****   public:
  24:../../libdaisy/src/hid/midi.h ****     MidiUartTransport() {}
  25:../../libdaisy/src/hid/midi.h ****     ~MidiUartTransport() {}
  26:../../libdaisy/src/hid/midi.h **** 
  27:../../libdaisy/src/hid/midi.h ****     struct Config
  28:../../libdaisy/src/hid/midi.h ****     {
  29:../../libdaisy/src/hid/midi.h ****         UartHandler::Config::Peripheral periph;
  30:../../libdaisy/src/hid/midi.h ****         dsy_gpio_pin                    rx;
  31:../../libdaisy/src/hid/midi.h ****         dsy_gpio_pin                    tx;
  32:../../libdaisy/src/hid/midi.h **** 
  33:../../libdaisy/src/hid/midi.h ****         Config()
  34:../../libdaisy/src/hid/midi.h ****         {
  35:../../libdaisy/src/hid/midi.h ****             periph = UartHandler::Config::Peripheral::USART_1;
  36:../../libdaisy/src/hid/midi.h ****             rx     = {DSY_GPIOB, 7};
  37:../../libdaisy/src/hid/midi.h ****             tx     = {DSY_GPIOB, 6};
  38:../../libdaisy/src/hid/midi.h ****         }
  39:../../libdaisy/src/hid/midi.h ****     };
  40:../../libdaisy/src/hid/midi.h **** 
  41:../../libdaisy/src/hid/midi.h ****     inline void Init(Config config)
  42:../../libdaisy/src/hid/midi.h ****     {
  43:../../libdaisy/src/hid/midi.h ****         UartHandler::Config uart_config;
  44:../../libdaisy/src/hid/midi.h **** 
  45:../../libdaisy/src/hid/midi.h ****         //defaults
  46:../../libdaisy/src/hid/midi.h ****         uart_config.baudrate   = 31250;
  47:../../libdaisy/src/hid/midi.h ****         uart_config.stopbits   = UartHandler::Config::StopBits::BITS_1;
  48:../../libdaisy/src/hid/midi.h ****         uart_config.parity     = UartHandler::Config::Parity::NONE;
  49:../../libdaisy/src/hid/midi.h ****         uart_config.mode       = UartHandler::Config::Mode::TX_RX;
  50:../../libdaisy/src/hid/midi.h ****         uart_config.wordlength = UartHandler::Config::WordLength::BITS_8;
  51:../../libdaisy/src/hid/midi.h **** 
  52:../../libdaisy/src/hid/midi.h ****         //user settings
  53:../../libdaisy/src/hid/midi.h ****         uart_config.periph        = config.periph;
  54:../../libdaisy/src/hid/midi.h ****         uart_config.pin_config.rx = config.rx;
  55:../../libdaisy/src/hid/midi.h ****         uart_config.pin_config.tx = config.tx;
  56:../../libdaisy/src/hid/midi.h **** 
  57:../../libdaisy/src/hid/midi.h ****         uart_.Init(uart_config);
  58:../../libdaisy/src/hid/midi.h ****     }
  59:../../libdaisy/src/hid/midi.h **** 
  60:../../libdaisy/src/hid/midi.h ****     inline void    StartRx() { uart_.StartRx(); }
  61:../../libdaisy/src/hid/midi.h ****     inline size_t  Readable() { return uart_.Readable(); }
  62:../../libdaisy/src/hid/midi.h ****     inline uint8_t Rx() { return uart_.PopRx(); }
  63:../../libdaisy/src/hid/midi.h ****     inline bool    RxActive() { return uart_.RxActive(); }
  64:../../libdaisy/src/hid/midi.h ****     inline void    FlushRx() { uart_.FlushRx(); }
  65:../../libdaisy/src/hid/midi.h ****     inline void    Tx(uint8_t* buff, size_t size) { uart_.PollTx(buff, size); }
ARM GAS  /tmp/ccpr9r5K.s 			page 10


  66:../../libdaisy/src/hid/midi.h **** 
  67:../../libdaisy/src/hid/midi.h ****   private:
  68:../../libdaisy/src/hid/midi.h ****     UartHandler uart_;
  69:../../libdaisy/src/hid/midi.h **** };
  70:../../libdaisy/src/hid/midi.h **** 
  71:../../libdaisy/src/hid/midi.h **** /** 
  72:../../libdaisy/src/hid/midi.h ****     @brief Simple MIDI Handler \n 
  73:../../libdaisy/src/hid/midi.h ****     Parses bytes from an input into valid MidiEvents. \n 
  74:../../libdaisy/src/hid/midi.h ****     The MidiEvents fill a FIFO queue that the user can pop messages from.
  75:../../libdaisy/src/hid/midi.h ****     @author shensley
  76:../../libdaisy/src/hid/midi.h ****     @date March 2020
  77:../../libdaisy/src/hid/midi.h **** */
  78:../../libdaisy/src/hid/midi.h **** template <typename Transport>
  79:../../libdaisy/src/hid/midi.h **** class MidiHandler
  80:../../libdaisy/src/hid/midi.h **** {
  81:../../libdaisy/src/hid/midi.h ****   public:
  82:../../libdaisy/src/hid/midi.h ****     MidiHandler() {}
  83:../../libdaisy/src/hid/midi.h ****     ~MidiHandler() {}
 109              		.loc 7 83 5 is_stmt 1 view .LVU11
 110              	.LBB639:
 111              	.LBI639:
  25:../../libdaisy/src/hid/midi.h **** 
 112              		.loc 7 25 5 view .LVU12
  25:../../libdaisy/src/hid/midi.h **** 
 113              		.loc 7 25 5 is_stmt 0 view .LVU13
 114              	.LBE639:
 115              	.LBE638:
 116              	.LBB640:
 117              	.LBI640:
 118              		.file 8 "../../libdaisy/src/hid/encoder.h"
   1:../../libdaisy/src/hid/encoder.h **** #pragma once
   2:../../libdaisy/src/hid/encoder.h **** #ifndef DSY_ENCODER_H
   3:../../libdaisy/src/hid/encoder.h **** #define DSY_ENCODER_H
   4:../../libdaisy/src/hid/encoder.h **** #include "daisy_core.h"
   5:../../libdaisy/src/hid/encoder.h **** #include "per/gpio.h"
   6:../../libdaisy/src/hid/encoder.h **** #include "hid/switch.h"
   7:../../libdaisy/src/hid/encoder.h **** 
   8:../../libdaisy/src/hid/encoder.h **** namespace daisy
   9:../../libdaisy/src/hid/encoder.h **** {
  10:../../libdaisy/src/hid/encoder.h **** /** 
  11:../../libdaisy/src/hid/encoder.h ****     @brief Generic Class for handling Quadrature Encoders \n 
  12:../../libdaisy/src/hid/encoder.h ****     Inspired/influenced by Mutable Instruments (pichenettes) Encoder classes
  13:../../libdaisy/src/hid/encoder.h ****     @author Stephen Hensley
  14:../../libdaisy/src/hid/encoder.h ****     @date December 2019
  15:../../libdaisy/src/hid/encoder.h ****     @ingroup controls
  16:../../libdaisy/src/hid/encoder.h **** */
  17:../../libdaisy/src/hid/encoder.h **** class Encoder
  18:../../libdaisy/src/hid/encoder.h **** {
  19:../../libdaisy/src/hid/encoder.h ****   public:
  20:../../libdaisy/src/hid/encoder.h ****     Encoder() {}
  21:../../libdaisy/src/hid/encoder.h ****     ~Encoder() {}
 119              		.loc 8 21 5 is_stmt 1 view .LVU14
 120              	.LBB641:
 121              	.LBI641:
 122              		.file 9 "../../libdaisy/src/hid/switch.h"
   1:../../libdaisy/src/hid/switch.h **** #pragma once
   2:../../libdaisy/src/hid/switch.h **** #ifndef DSY_SWITCH_H
ARM GAS  /tmp/ccpr9r5K.s 			page 11


   3:../../libdaisy/src/hid/switch.h **** #define DSY_SWITCH_H
   4:../../libdaisy/src/hid/switch.h **** #include "daisy_core.h"
   5:../../libdaisy/src/hid/switch.h **** #include "per/gpio.h"
   6:../../libdaisy/src/hid/switch.h **** 
   7:../../libdaisy/src/hid/switch.h **** namespace daisy
   8:../../libdaisy/src/hid/switch.h **** {
   9:../../libdaisy/src/hid/switch.h **** /** 
  10:../../libdaisy/src/hid/switch.h ****     Generic Class for handling momentary/latching switches \n 
  11:../../libdaisy/src/hid/switch.h ****     Inspired/influenced by Mutable Instruments (pichenettes) Switch classes
  12:../../libdaisy/src/hid/switch.h ****     @author Stephen Hensley
  13:../../libdaisy/src/hid/switch.h ****     @date December 2019
  14:../../libdaisy/src/hid/switch.h ****     @ingroup controls
  15:../../libdaisy/src/hid/switch.h **** */
  16:../../libdaisy/src/hid/switch.h **** class Switch
  17:../../libdaisy/src/hid/switch.h **** {
  18:../../libdaisy/src/hid/switch.h ****   public:
  19:../../libdaisy/src/hid/switch.h ****     /** Specifies the expected behavior of the switch */
  20:../../libdaisy/src/hid/switch.h ****     enum Type
  21:../../libdaisy/src/hid/switch.h ****     {
  22:../../libdaisy/src/hid/switch.h ****         TYPE_TOGGLE,    /**< & */
  23:../../libdaisy/src/hid/switch.h ****         TYPE_MOMENTARY, /**< & */
  24:../../libdaisy/src/hid/switch.h ****     };
  25:../../libdaisy/src/hid/switch.h ****     /** Specifies whether the pressed is HIGH or LOW. */
  26:../../libdaisy/src/hid/switch.h ****     enum Polarity
  27:../../libdaisy/src/hid/switch.h ****     {
  28:../../libdaisy/src/hid/switch.h ****         POLARITY_NORMAL,   /**< & */
  29:../../libdaisy/src/hid/switch.h ****         POLARITY_INVERTED, /**< & */
  30:../../libdaisy/src/hid/switch.h ****     };
  31:../../libdaisy/src/hid/switch.h **** 
  32:../../libdaisy/src/hid/switch.h ****     /** Specifies whether to use built-in Pull Up/Down resistors to hold button at a given state wh
  33:../../libdaisy/src/hid/switch.h ****     enum Pull
  34:../../libdaisy/src/hid/switch.h ****     {
  35:../../libdaisy/src/hid/switch.h ****         PULL_UP,   /**< & */
  36:../../libdaisy/src/hid/switch.h ****         PULL_DOWN, /**< & */
  37:../../libdaisy/src/hid/switch.h ****         PULL_NONE, /**< & */
  38:../../libdaisy/src/hid/switch.h ****     };
  39:../../libdaisy/src/hid/switch.h **** 
  40:../../libdaisy/src/hid/switch.h ****     Switch() {}
  41:../../libdaisy/src/hid/switch.h ****     ~Switch() {}
 123              		.loc 9 41 5 view .LVU15
 124              		.loc 9 41 5 is_stmt 0 view .LVU16
 125              	.LBE641:
 126              	.LBE640:
 127              	.LBB642:
 128              	.LBI642:
 129              		.file 10 "../../libdaisy/src/daisy_seed.h"
   1:../../libdaisy/src/daisy_seed.h **** #pragma once
   2:../../libdaisy/src/daisy_seed.h **** #ifndef DSY_SEED_H
   3:../../libdaisy/src/daisy_seed.h **** #define DSY_SEED_H
   4:../../libdaisy/src/daisy_seed.h **** 
   5:../../libdaisy/src/daisy_seed.h **** #include "daisy.h"
   6:../../libdaisy/src/daisy_seed.h **** 
   7:../../libdaisy/src/daisy_seed.h **** //Uncomment this out if you're still using the rev2 hardware
   8:../../libdaisy/src/daisy_seed.h **** //#define SEED_REV2
   9:../../libdaisy/src/daisy_seed.h **** 
  10:../../libdaisy/src/daisy_seed.h **** namespace daisy
  11:../../libdaisy/src/daisy_seed.h **** {
ARM GAS  /tmp/ccpr9r5K.s 			page 12


  12:../../libdaisy/src/daisy_seed.h **** /**
  13:../../libdaisy/src/daisy_seed.h ****    @brief This is the higher-level interface for the Daisy board. \n 
  14:../../libdaisy/src/daisy_seed.h ****     All basic peripheral configuration/initialization is setup here. \n
  15:../../libdaisy/src/daisy_seed.h **** 
  16:../../libdaisy/src/daisy_seed.h ****    @ingroup boards
  17:../../libdaisy/src/daisy_seed.h **** */
  18:../../libdaisy/src/daisy_seed.h **** class DaisySeed
  19:../../libdaisy/src/daisy_seed.h **** {
  20:../../libdaisy/src/daisy_seed.h ****   public:
  21:../../libdaisy/src/daisy_seed.h ****     DaisySeed() {}
  22:../../libdaisy/src/daisy_seed.h ****     ~DaisySeed() {}
 130              		.loc 10 22 5 is_stmt 1 view .LVU17
 131              	.LBB643:
 132              	.LBI643:
 133              		.file 11 "../../libdaisy/src/sys/system.h"
   1:../../libdaisy/src/sys/system.h **** #ifndef DSY_SYSTEM_H
   2:../../libdaisy/src/sys/system.h **** #define DSY_SYSTEM_H
   3:../../libdaisy/src/sys/system.h **** 
   4:../../libdaisy/src/sys/system.h **** #ifndef UNIT_TEST // for unit tests, a dummy implementation is provided below
   5:../../libdaisy/src/sys/system.h **** 
   6:../../libdaisy/src/sys/system.h **** #include <cstdint>
   7:../../libdaisy/src/sys/system.h **** #include "per/tim.h"
   8:../../libdaisy/src/sys/system.h **** 
   9:../../libdaisy/src/sys/system.h **** namespace daisy
  10:../../libdaisy/src/sys/system.h **** {
  11:../../libdaisy/src/sys/system.h **** /** A handle for interacting with the Core System. 
  12:../../libdaisy/src/sys/system.h ****  ** This includes the Clock tree, MPU, global DMA initialization,
  13:../../libdaisy/src/sys/system.h ****  ** cache handling, and any other necessary global initiailzation
  14:../../libdaisy/src/sys/system.h ****  **
  15:../../libdaisy/src/sys/system.h ****  ** @author shensley
  16:../../libdaisy/src/sys/system.h ****  ** @addtogroup system
  17:../../libdaisy/src/sys/system.h ****  */
  18:../../libdaisy/src/sys/system.h **** class System
  19:../../libdaisy/src/sys/system.h **** {
  20:../../libdaisy/src/sys/system.h ****   public:
  21:../../libdaisy/src/sys/system.h ****     /** Contains settings for initializing the System */
  22:../../libdaisy/src/sys/system.h ****     struct Config
  23:../../libdaisy/src/sys/system.h ****     {
  24:../../libdaisy/src/sys/system.h ****         /** Specifies the system clock frequency that feeds APB/AHB clocks, etc. */
  25:../../libdaisy/src/sys/system.h ****         enum class SysClkFreq
  26:../../libdaisy/src/sys/system.h ****         {
  27:../../libdaisy/src/sys/system.h ****             FREQ_400MHZ,
  28:../../libdaisy/src/sys/system.h ****             FREQ_480MHZ,
  29:../../libdaisy/src/sys/system.h ****         };
  30:../../libdaisy/src/sys/system.h **** 
  31:../../libdaisy/src/sys/system.h ****         /** Method to call on the struct to set to defaults
  32:../../libdaisy/src/sys/system.h ****          ** CPU Freq set to 400MHz
  33:../../libdaisy/src/sys/system.h ****          ** Cache Enabled 
  34:../../libdaisy/src/sys/system.h ****          ** */
  35:../../libdaisy/src/sys/system.h ****         void Defaults()
  36:../../libdaisy/src/sys/system.h ****         {
  37:../../libdaisy/src/sys/system.h ****             cpu_freq   = SysClkFreq::FREQ_400MHZ;
  38:../../libdaisy/src/sys/system.h ****             use_dcache = true;
  39:../../libdaisy/src/sys/system.h ****             use_icache = true;
  40:../../libdaisy/src/sys/system.h ****         }
  41:../../libdaisy/src/sys/system.h **** 
  42:../../libdaisy/src/sys/system.h ****         /** Method to call on the struct to set to boost mode:
ARM GAS  /tmp/ccpr9r5K.s 			page 13


  43:../../libdaisy/src/sys/system.h ****          ** CPU Freq set to 480MHz
  44:../../libdaisy/src/sys/system.h ****          ** Cache Enabled 
  45:../../libdaisy/src/sys/system.h ****          ** */
  46:../../libdaisy/src/sys/system.h ****         void Boost()
  47:../../libdaisy/src/sys/system.h ****         {
  48:../../libdaisy/src/sys/system.h ****             cpu_freq   = SysClkFreq::FREQ_480MHZ;
  49:../../libdaisy/src/sys/system.h ****             use_dcache = true;
  50:../../libdaisy/src/sys/system.h ****             use_icache = true;
  51:../../libdaisy/src/sys/system.h ****         }
  52:../../libdaisy/src/sys/system.h **** 
  53:../../libdaisy/src/sys/system.h ****         SysClkFreq cpu_freq;
  54:../../libdaisy/src/sys/system.h ****         bool       use_dcache;
  55:../../libdaisy/src/sys/system.h ****         bool       use_icache;
  56:../../libdaisy/src/sys/system.h ****     };
  57:../../libdaisy/src/sys/system.h **** 
  58:../../libdaisy/src/sys/system.h ****     System() {}
  59:../../libdaisy/src/sys/system.h ****     ~System() {}
 134              		.loc 11 59 5 view .LVU18
 135              		.loc 11 59 5 is_stmt 0 view .LVU19
 136              	.LBE643:
 137              	.LBB644:
 138              	.LBI644:
 139              		.file 12 "../../libdaisy/src/hid/usb.h"
   1:../../libdaisy/src/hid/usb.h **** #pragma once
   2:../../libdaisy/src/hid/usb.h **** #ifndef DSY_HID_USB_H
   3:../../libdaisy/src/hid/usb.h **** #define DSY_HID_USB_H
   4:../../libdaisy/src/hid/usb.h **** #include <stdint.h>
   5:../../libdaisy/src/hid/usb.h **** #include <stdlib.h>
   6:../../libdaisy/src/hid/usb.h **** 
   7:../../libdaisy/src/hid/usb.h **** namespace daisy
   8:../../libdaisy/src/hid/usb.h **** /** @addtogroup externals
   9:../../libdaisy/src/hid/usb.h ****     @{
  10:../../libdaisy/src/hid/usb.h **** */
  11:../../libdaisy/src/hid/usb.h **** 
  12:../../libdaisy/src/hid/usb.h **** {
  13:../../libdaisy/src/hid/usb.h **** /** 
  14:../../libdaisy/src/hid/usb.h ****     @brief Interface for initializing and using the USB Peripherals on the daisy
  15:../../libdaisy/src/hid/usb.h ****     @author Stephen Hensley
  16:../../libdaisy/src/hid/usb.h ****     @date December 2019
  17:../../libdaisy/src/hid/usb.h **** */
  18:../../libdaisy/src/hid/usb.h **** class UsbHandle
  19:../../libdaisy/src/hid/usb.h **** {
  20:../../libdaisy/src/hid/usb.h ****   public:
  21:../../libdaisy/src/hid/usb.h ****     /** Return values for USBHandle Functions */
  22:../../libdaisy/src/hid/usb.h ****     enum class Result
  23:../../libdaisy/src/hid/usb.h ****     {
  24:../../libdaisy/src/hid/usb.h ****         OK,
  25:../../libdaisy/src/hid/usb.h ****         ERR,
  26:../../libdaisy/src/hid/usb.h ****     };
  27:../../libdaisy/src/hid/usb.h **** 
  28:../../libdaisy/src/hid/usb.h ****     /** Specified which of the two USB Peripherals to initialize. */
  29:../../libdaisy/src/hid/usb.h ****     enum UsbPeriph
  30:../../libdaisy/src/hid/usb.h ****     {
  31:../../libdaisy/src/hid/usb.h ****         FS_INTERNAL, /**< Internal pin */
  32:../../libdaisy/src/hid/usb.h ****         FS_EXTERNAL, /**< FS External D+ pin is Pin 38 (GPIO32). FS External D- pin is Pin 37 (GPIO
  33:../../libdaisy/src/hid/usb.h ****         FS_BOTH,     /**< Both */
  34:../../libdaisy/src/hid/usb.h ****     };
ARM GAS  /tmp/ccpr9r5K.s 			page 14


  35:../../libdaisy/src/hid/usb.h **** 
  36:../../libdaisy/src/hid/usb.h **** 
  37:../../libdaisy/src/hid/usb.h ****     /** Function called upon reception of a buffer */
  38:../../libdaisy/src/hid/usb.h ****     typedef void (*ReceiveCallback)(uint8_t* buff, uint32_t* len);
  39:../../libdaisy/src/hid/usb.h **** 
  40:../../libdaisy/src/hid/usb.h ****     UsbHandle() {}
  41:../../libdaisy/src/hid/usb.h **** 
  42:../../libdaisy/src/hid/usb.h ****     ~UsbHandle() {}
 140              		.loc 12 42 5 is_stmt 1 view .LVU20
 141              		.loc 12 42 5 is_stmt 0 view .LVU21
 142              	.LBE644:
 143              	.LBB645:
 144              	.LBI645:
 145              		.file 13 "../../libdaisy/src/per/adc.h"
   1:../../libdaisy/src/per/adc.h **** #pragma once
   2:../../libdaisy/src/per/adc.h **** #ifndef DSY_ADC_H
   3:../../libdaisy/src/per/adc.h **** #define DSY_ADC_H /**< Macro */
   4:../../libdaisy/src/per/adc.h **** #include <stdint.h>
   5:../../libdaisy/src/per/adc.h **** #include <stdlib.h>
   6:../../libdaisy/src/per/adc.h **** #include "daisy_core.h"
   7:../../libdaisy/src/per/adc.h **** #include "per/gpio.h"
   8:../../libdaisy/src/per/adc.h **** 
   9:../../libdaisy/src/per/adc.h **** #define DSY_ADC_MAX_CHANNELS 14 /**< Maximum number of ADC channels */
  10:../../libdaisy/src/per/adc.h **** 
  11:../../libdaisy/src/per/adc.h **** namespace daisy
  12:../../libdaisy/src/per/adc.h **** {
  13:../../libdaisy/src/per/adc.h **** /** @addtogroup analog_digital_conversion
  14:../../libdaisy/src/per/adc.h ****     @{
  15:../../libdaisy/src/per/adc.h **** */
  16:../../libdaisy/src/per/adc.h **** 
  17:../../libdaisy/src/per/adc.h **** /* While there may not be many configuration options here,
  18:../../libdaisy/src/per/adc.h **** using a struct like this allows us to add more configuration
  19:../../libdaisy/src/per/adc.h **** later without breaking existing functionality.
  20:../../libdaisy/src/per/adc.h **** */
  21:../../libdaisy/src/per/adc.h **** 
  22:../../libdaisy/src/per/adc.h **** /** Configuration Structure for a given channel */
  23:../../libdaisy/src/per/adc.h **** struct AdcChannelConfig
  24:../../libdaisy/src/per/adc.h **** {
  25:../../libdaisy/src/per/adc.h ****     /** Which pin to use for multiplexing */
  26:../../libdaisy/src/per/adc.h ****     enum MuxPin
  27:../../libdaisy/src/per/adc.h ****     {
  28:../../libdaisy/src/per/adc.h ****         MUX_SEL_0,    /**< & */
  29:../../libdaisy/src/per/adc.h ****         MUX_SEL_1,    /**< & */
  30:../../libdaisy/src/per/adc.h ****         MUX_SEL_2,    /**< & */
  31:../../libdaisy/src/per/adc.h ****         MUX_SEL_LAST, /**< & */
  32:../../libdaisy/src/per/adc.h ****     };
  33:../../libdaisy/src/per/adc.h **** 
  34:../../libdaisy/src/per/adc.h ****     /** Initializes a single ADC pin as an ADC. 
  35:../../libdaisy/src/per/adc.h ****     \param pin Pin to init.
  36:../../libdaisy/src/per/adc.h ****      */
  37:../../libdaisy/src/per/adc.h ****     void InitSingle(dsy_gpio_pin pin);
  38:../../libdaisy/src/per/adc.h **** 
  39:../../libdaisy/src/per/adc.h ****     /** 
  40:../../libdaisy/src/per/adc.h ****     Initializes a single ADC pin as a Multiplexed ADC.
  41:../../libdaisy/src/per/adc.h ****     Requires a CD405X Multiplexer connected to the pin.
  42:../../libdaisy/src/per/adc.h ****     You only need to supply the mux pins that are required,
  43:../../libdaisy/src/per/adc.h ****     e.g. a 4052 mux would only require mux_0 and mux_1.
ARM GAS  /tmp/ccpr9r5K.s 			page 15


  44:../../libdaisy/src/per/adc.h ****     Internal Callbacks handle the pin addressing.
  45:../../libdaisy/src/per/adc.h ****     \param mux_channels must be 1-8
  46:../../libdaisy/src/per/adc.h ****     \param mux_0 First mux pin
  47:../../libdaisy/src/per/adc.h ****     \param mux_1 Second mux pin
  48:../../libdaisy/src/per/adc.h ****     \param mux_2 Third mux pin
  49:../../libdaisy/src/per/adc.h ****     \param adc_pin &
  50:../../libdaisy/src/per/adc.h ****     */
  51:../../libdaisy/src/per/adc.h ****     void InitMux(dsy_gpio_pin adc_pin,
  52:../../libdaisy/src/per/adc.h ****                  size_t       mux_channels,
  53:../../libdaisy/src/per/adc.h ****                  dsy_gpio_pin mux_0,
  54:../../libdaisy/src/per/adc.h ****                  dsy_gpio_pin mux_1 = {DSY_GPIOX, 0},
  55:../../libdaisy/src/per/adc.h ****                  dsy_gpio_pin mux_2 = {DSY_GPIOX, 0});
  56:../../libdaisy/src/per/adc.h **** 
  57:../../libdaisy/src/per/adc.h ****     dsy_gpio pin_;                   /**< & */
  58:../../libdaisy/src/per/adc.h ****     dsy_gpio mux_pin_[MUX_SEL_LAST]; /**< & */
  59:../../libdaisy/src/per/adc.h ****     uint8_t  mux_channels_;          /**< & */
  60:../../libdaisy/src/per/adc.h **** };
  61:../../libdaisy/src/per/adc.h **** 
  62:../../libdaisy/src/per/adc.h **** /**
  63:../../libdaisy/src/per/adc.h ****    Handler for analog to digital conversion
  64:../../libdaisy/src/per/adc.h **** */
  65:../../libdaisy/src/per/adc.h **** class AdcHandle
  66:../../libdaisy/src/per/adc.h **** {
  67:../../libdaisy/src/per/adc.h ****   public:
  68:../../libdaisy/src/per/adc.h ****     /** Supported oversampling amounts */
  69:../../libdaisy/src/per/adc.h ****     enum OverSampling
  70:../../libdaisy/src/per/adc.h ****     {
  71:../../libdaisy/src/per/adc.h ****         OVS_NONE, /**< & */
  72:../../libdaisy/src/per/adc.h ****         OVS_4,    /**< & */
  73:../../libdaisy/src/per/adc.h ****         OVS_8,    /**< & */
  74:../../libdaisy/src/per/adc.h ****         OVS_16,   /**< & */
  75:../../libdaisy/src/per/adc.h ****         OVS_32,   /**< & */
  76:../../libdaisy/src/per/adc.h ****         OVS_64,   /**< & */
  77:../../libdaisy/src/per/adc.h ****         OVS_128,  /**< & */
  78:../../libdaisy/src/per/adc.h ****         OVS_256,  /**< & */
  79:../../libdaisy/src/per/adc.h ****         OVS_512,  /**< & */
  80:../../libdaisy/src/per/adc.h ****         OVS_1024, /**< & */
  81:../../libdaisy/src/per/adc.h ****         OVS_LAST, /**< & */
  82:../../libdaisy/src/per/adc.h ****     };
  83:../../libdaisy/src/per/adc.h **** 
  84:../../libdaisy/src/per/adc.h ****     AdcHandle() {}
  85:../../libdaisy/src/per/adc.h ****     ~AdcHandle() {}
 146              		.loc 13 85 5 is_stmt 1 view .LVU22
 147              		.loc 13 85 5 is_stmt 0 view .LVU23
 148              	.LBE645:
 149              	.LBB646:
 150              	.LBI646:
 151              		.file 14 "../../libdaisy/src/hid/audio.h"
   1:../../libdaisy/src/hid/audio.h **** #ifndef DSY_AUDIO_H
   2:../../libdaisy/src/hid/audio.h **** #define DSY_AUDIO_H /**< & */
   3:../../libdaisy/src/hid/audio.h **** 
   4:../../libdaisy/src/hid/audio.h **** #include "per/sai.h"
   5:../../libdaisy/src/hid/audio.h **** 
   6:../../libdaisy/src/hid/audio.h **** namespace daisy
   7:../../libdaisy/src/hid/audio.h **** {
   8:../../libdaisy/src/hid/audio.h **** class AudioHandle
   9:../../libdaisy/src/hid/audio.h **** {
ARM GAS  /tmp/ccpr9r5K.s 			page 16


  10:../../libdaisy/src/hid/audio.h ****   public:
  11:../../libdaisy/src/hid/audio.h ****     /** Manually configurable details about the Audio Engine */
  12:../../libdaisy/src/hid/audio.h ****     /** TODO: Figure out how to get samplerate in here. */
  13:../../libdaisy/src/hid/audio.h ****     struct Config
  14:../../libdaisy/src/hid/audio.h ****     {
  15:../../libdaisy/src/hid/audio.h ****         size_t                        blocksize;
  16:../../libdaisy/src/hid/audio.h ****         SaiHandle::Config::SampleRate samplerate;
  17:../../libdaisy/src/hid/audio.h ****         float                         postgain;
  18:../../libdaisy/src/hid/audio.h ****     };
  19:../../libdaisy/src/hid/audio.h **** 
  20:../../libdaisy/src/hid/audio.h ****     enum class Result
  21:../../libdaisy/src/hid/audio.h ****     {
  22:../../libdaisy/src/hid/audio.h ****         OK,
  23:../../libdaisy/src/hid/audio.h ****         ERR,
  24:../../libdaisy/src/hid/audio.h ****     };
  25:../../libdaisy/src/hid/audio.h **** 
  26:../../libdaisy/src/hid/audio.h ****     /** Non-Interleaving input buffer
  27:../../libdaisy/src/hid/audio.h ****      * Buffer arranged by float[chn][sample] 
  28:../../libdaisy/src/hid/audio.h ****      * const so that the user can't modify the input
  29:../../libdaisy/src/hid/audio.h ****     */
  30:../../libdaisy/src/hid/audio.h ****     typedef const float* const* InputBuffer;
  31:../../libdaisy/src/hid/audio.h **** 
  32:../../libdaisy/src/hid/audio.h ****     /** Non-Interleaving output buffer
  33:../../libdaisy/src/hid/audio.h ****      * Arranged by float[chn][sample] 
  34:../../libdaisy/src/hid/audio.h ****     */
  35:../../libdaisy/src/hid/audio.h ****     typedef float** OutputBuffer;
  36:../../libdaisy/src/hid/audio.h **** 
  37:../../libdaisy/src/hid/audio.h ****     /** Type for a Non-Interleaving audio callback 
  38:../../libdaisy/src/hid/audio.h ****    * Non-Interleaving audio callbacks in daisy will be of this type
  39:../../libdaisy/src/hid/audio.h ****   */
  40:../../libdaisy/src/hid/audio.h ****     typedef void (*AudioCallback)(InputBuffer  in,
  41:../../libdaisy/src/hid/audio.h ****                                   OutputBuffer out,
  42:../../libdaisy/src/hid/audio.h ****                                   size_t       size);
  43:../../libdaisy/src/hid/audio.h **** 
  44:../../libdaisy/src/hid/audio.h ****     /** Interleaving Input buffer
  45:../../libdaisy/src/hid/audio.h ****      ** audio is prepared as { L0, R0, L1, R1, . . . LN, RN }]
  46:../../libdaisy/src/hid/audio.h ****      ** this is const, as the user shouldn't modify it
  47:../../libdaisy/src/hid/audio.h ****     */
  48:../../libdaisy/src/hid/audio.h ****     typedef const float* InterleavingInputBuffer;
  49:../../libdaisy/src/hid/audio.h **** 
  50:../../libdaisy/src/hid/audio.h ****     /** Interleaving Output buffer 
  51:../../libdaisy/src/hid/audio.h ****      ** audio is prepared as { L0, R0, L1, R1, . . . LN, RN }
  52:../../libdaisy/src/hid/audio.h ****     */
  53:../../libdaisy/src/hid/audio.h ****     typedef float* InterleavingOutputBuffer;
  54:../../libdaisy/src/hid/audio.h **** 
  55:../../libdaisy/src/hid/audio.h ****     /** Interleaving Audio Callback 
  56:../../libdaisy/src/hid/audio.h ****    * Interleaving audio callbacks in daisy must be of this type
  57:../../libdaisy/src/hid/audio.h ****   */
  58:../../libdaisy/src/hid/audio.h ****     typedef void (*InterleavingAudioCallback)(InterleavingInputBuffer  in,
  59:../../libdaisy/src/hid/audio.h ****                                               InterleavingOutputBuffer out,
  60:../../libdaisy/src/hid/audio.h ****                                               size_t                   size);
  61:../../libdaisy/src/hid/audio.h **** 
  62:../../libdaisy/src/hid/audio.h ****     AudioHandle() : pimpl_(nullptr) {}
  63:../../libdaisy/src/hid/audio.h ****     ~AudioHandle() {}
 152              		.loc 14 63 5 is_stmt 1 view .LVU24
 153              		.loc 14 63 5 is_stmt 0 view .LVU25
 154              	.LBE646:
ARM GAS  /tmp/ccpr9r5K.s 			page 17


 155              	.LBE642:
 156              		.loc 4 41 20 view .LVU26
 157 0000 7047     		bx	lr
 158              		.cfi_endproc
 159              	.LFE4230:
 161              		.weak	_ZN5daisy10DaisyPatchD1Ev
 162              		.thumb_set _ZN5daisy10DaisyPatchD1Ev,_ZN5daisy10DaisyPatchD2Ev
 163 0002 00BF     		.section	.text._ZN5daisy11OledDisplayINS_13SSD130xDriverILj128ELj64ENS_24SSD130x4WireSpiTransportE
 164              		.align	1
 165              		.p2align 2,,3
 166              		.weak	_ZN5daisy11OledDisplayINS_13SSD130xDriverILj128ELj64ENS_24SSD130x4WireSpiTransportEEEED2Ev
 167              		.syntax unified
 168              		.thumb
 169              		.thumb_func
 170              		.fpu fpv5-d16
 172              	_ZN5daisy11OledDisplayINS_13SSD130xDriverILj128ELj64ENS_24SSD130x4WireSpiTransportEEEED2Ev:
 173              	.LVL3:
 174              	.LFB4549:
 175              		.loc 5 17 13 is_stmt 1 view -0
 176              		.cfi_startproc
 177              		@ args = 0, pretend = 0, frame = 0
 178              		@ frame_needed = 0, uses_anonymous_args = 0
 179              		@ link register save eliminated.
 180              	.LBB647:
 181              	.LBI647:
 182              		.loc 6 219 13 view .LVU28
 183              	.LBB648:
 184              	.LBI648:
  23:../../libdaisy/src/hid/disp/display.h **** 
 185              		.loc 6 23 13 view .LVU29
  23:../../libdaisy/src/hid/disp/display.h **** 
 186              		.loc 6 23 13 is_stmt 0 view .LVU30
 187              	.LBE648:
 188              	.LBE647:
 189              		.loc 5 17 29 view .LVU31
 190 0000 7047     		bx	lr
 191              		.cfi_endproc
 192              	.LFE4549:
 194              		.weak	_ZN5daisy11OledDisplayINS_13SSD130xDriverILj128ELj64ENS_24SSD130x4WireSpiTransportEEEED1Ev
 195              		.thumb_set _ZN5daisy11OledDisplayINS_13SSD130xDriverILj128ELj64ENS_24SSD130x4WireSpiTransportEEEED
 196 0002 00BF     		.section	.text._ZNK5daisy11OledDisplayINS_13SSD130xDriverILj128ELj64ENS_24SSD130x4WireSpiTransport
 197              		.align	1
 198              		.p2align 2,,3
 199              		.weak	_ZNK5daisy11OledDisplayINS_13SSD130xDriverILj128ELj64ENS_24SSD130x4WireSpiTransportEEEE6Heig
 200              		.syntax unified
 201              		.thumb
 202              		.thumb_func
 203              		.fpu fpv5-d16
 205              	_ZNK5daisy11OledDisplayINS_13SSD130xDriverILj128ELj64ENS_24SSD130x4WireSpiTransportEEEE6HeightEv:
 206              	.LVL4:
 207              	.LFB4819:
  18:../../libdaisy/src/hid/disp/oled_display.h **** 
  19:../../libdaisy/src/hid/disp/oled_display.h ****     struct Config
  20:../../libdaisy/src/hid/disp/oled_display.h ****     {
  21:../../libdaisy/src/hid/disp/oled_display.h ****         typename DisplayDriver::Config driver_config;
  22:../../libdaisy/src/hid/disp/oled_display.h ****     };
  23:../../libdaisy/src/hid/disp/oled_display.h **** 
ARM GAS  /tmp/ccpr9r5K.s 			page 18


  24:../../libdaisy/src/hid/disp/oled_display.h ****     void Init(Config config) { driver_.Init(config.driver_config); }
  25:../../libdaisy/src/hid/disp/oled_display.h **** 
  26:../../libdaisy/src/hid/disp/oled_display.h ****     uint16_t Height() const override { return driver_.Height(); }
 208              		.loc 5 26 14 is_stmt 1 view -0
 209              		.cfi_startproc
 210              		@ args = 0, pretend = 0, frame = 0
 211              		@ frame_needed = 0, uses_anonymous_args = 0
 212              		@ link register save eliminated.
 213              		.loc 5 26 65 is_stmt 0 view .LVU33
 214 0000 4020     		movs	r0, #64
 215              	.LVL5:
 216              		.loc 5 26 65 view .LVU34
 217 0002 7047     		bx	lr
 218              		.cfi_endproc
 219              	.LFE4819:
 221              		.section	.text._ZNK5daisy11OledDisplayINS_13SSD130xDriverILj128ELj64ENS_24SSD130x4WireSpiTransport
 222              		.align	1
 223              		.p2align 2,,3
 224              		.weak	_ZNK5daisy11OledDisplayINS_13SSD130xDriverILj128ELj64ENS_24SSD130x4WireSpiTransportEEEE5Widt
 225              		.syntax unified
 226              		.thumb
 227              		.thumb_func
 228              		.fpu fpv5-d16
 230              	_ZNK5daisy11OledDisplayINS_13SSD130xDriverILj128ELj64ENS_24SSD130x4WireSpiTransportEEEE5WidthEv:
 231              	.LVL6:
 232              	.LFB4820:
  27:../../libdaisy/src/hid/disp/oled_display.h ****     uint16_t Width() const override { return driver_.Width(); }
 233              		.loc 5 27 14 is_stmt 1 view -0
 234              		.cfi_startproc
 235              		@ args = 0, pretend = 0, frame = 0
 236              		@ frame_needed = 0, uses_anonymous_args = 0
 237              		@ link register save eliminated.
 238              		.loc 5 27 63 is_stmt 0 view .LVU36
 239 0000 8020     		movs	r0, #128
 240              	.LVL7:
 241              		.loc 5 27 63 view .LVU37
 242 0002 7047     		bx	lr
 243              		.cfi_endproc
 244              	.LFE4820:
 246              		.section	.text._ZN5daisy11OledDisplayINS_13SSD130xDriverILj128ELj64ENS_24SSD130x4WireSpiTransportE
 247              		.align	1
 248              		.p2align 2,,3
 249              		.weak	_ZN5daisy11OledDisplayINS_13SSD130xDriverILj128ELj64ENS_24SSD130x4WireSpiTransportEEEE4FillE
 250              		.syntax unified
 251              		.thumb
 252              		.thumb_func
 253              		.fpu fpv5-d16
 255              	_ZN5daisy11OledDisplayINS_13SSD130xDriverILj128ELj64ENS_24SSD130x4WireSpiTransportEEEE4FillEb:
 256              	.LVL8:
 257              	.LFB4821:
  28:../../libdaisy/src/hid/disp/oled_display.h **** 
  29:../../libdaisy/src/hid/disp/oled_display.h ****     /** 
  30:../../libdaisy/src/hid/disp/oled_display.h ****     Fills the entire display with either on/off.
  31:../../libdaisy/src/hid/disp/oled_display.h ****     \param on Sets on or off.
  32:../../libdaisy/src/hid/disp/oled_display.h ****     */
  33:../../libdaisy/src/hid/disp/oled_display.h ****     void Fill(bool on) override { driver_.Fill(on); }
 258              		.loc 5 33 10 is_stmt 1 view -0
ARM GAS  /tmp/ccpr9r5K.s 			page 19


 259              		.cfi_startproc
 260              		@ args = 0, pretend = 0, frame = 0
 261              		@ frame_needed = 0, uses_anonymous_args = 0
 262              		@ link register save eliminated.
 263              	.LBB649:
 264              	.LBI649:
 265              		.file 15 "../../libdaisy/src/dev/oled_ssd130x.h"
   1:../../libdaisy/src/dev/oled_ssd130x.h **** #pragma once
   2:../../libdaisy/src/dev/oled_ssd130x.h **** #ifndef SA_OLED_SSD130X_H
   3:../../libdaisy/src/dev/oled_ssd130x.h **** #define SA_OLED_SSD130X_H /**< & */
   4:../../libdaisy/src/dev/oled_ssd130x.h **** 
   5:../../libdaisy/src/dev/oled_ssd130x.h **** #include "per/i2c.h"
   6:../../libdaisy/src/dev/oled_ssd130x.h **** #include "per/spi.h"
   7:../../libdaisy/src/dev/oled_ssd130x.h **** #include "per/gpio.h"
   8:../../libdaisy/src/dev/oled_ssd130x.h **** #include "sys/system.h"
   9:../../libdaisy/src/dev/oled_ssd130x.h **** 
  10:../../libdaisy/src/dev/oled_ssd130x.h **** namespace daisy
  11:../../libdaisy/src/dev/oled_ssd130x.h **** {
  12:../../libdaisy/src/dev/oled_ssd130x.h **** /**
  13:../../libdaisy/src/dev/oled_ssd130x.h ****  * I2C Transport for SSD1306 / SSD1309 OLED display devices
  14:../../libdaisy/src/dev/oled_ssd130x.h ****  */
  15:../../libdaisy/src/dev/oled_ssd130x.h **** class SSD130xI2CTransport
  16:../../libdaisy/src/dev/oled_ssd130x.h **** {
  17:../../libdaisy/src/dev/oled_ssd130x.h ****   public:
  18:../../libdaisy/src/dev/oled_ssd130x.h ****     struct Config
  19:../../libdaisy/src/dev/oled_ssd130x.h ****     {
  20:../../libdaisy/src/dev/oled_ssd130x.h ****         I2CHandle::Config i2c_config;
  21:../../libdaisy/src/dev/oled_ssd130x.h ****         uint8_t           i2c_address;
  22:../../libdaisy/src/dev/oled_ssd130x.h ****         void              Defaults()
  23:../../libdaisy/src/dev/oled_ssd130x.h ****         {
  24:../../libdaisy/src/dev/oled_ssd130x.h ****             i2c_config.periph         = I2CHandle::Config::Peripheral::I2C_1;
  25:../../libdaisy/src/dev/oled_ssd130x.h ****             i2c_config.speed          = I2CHandle::Config::Speed::I2C_1MHZ;
  26:../../libdaisy/src/dev/oled_ssd130x.h ****             i2c_config.mode           = I2CHandle::Config::Mode::I2C_MASTER;
  27:../../libdaisy/src/dev/oled_ssd130x.h ****             i2c_config.pin_config.scl = {DSY_GPIOB, 8};
  28:../../libdaisy/src/dev/oled_ssd130x.h ****             i2c_config.pin_config.sda = {DSY_GPIOB, 9};
  29:../../libdaisy/src/dev/oled_ssd130x.h ****             i2c_address               = 0x3C;
  30:../../libdaisy/src/dev/oled_ssd130x.h ****         }
  31:../../libdaisy/src/dev/oled_ssd130x.h ****     };
  32:../../libdaisy/src/dev/oled_ssd130x.h ****     void Init(const Config& config)
  33:../../libdaisy/src/dev/oled_ssd130x.h ****     {
  34:../../libdaisy/src/dev/oled_ssd130x.h ****         i2c_address_ = config.i2c_address;
  35:../../libdaisy/src/dev/oled_ssd130x.h ****         i2c_.Init(config.i2c_config);
  36:../../libdaisy/src/dev/oled_ssd130x.h ****     };
  37:../../libdaisy/src/dev/oled_ssd130x.h ****     void SendCommand(uint8_t cmd)
  38:../../libdaisy/src/dev/oled_ssd130x.h ****     {
  39:../../libdaisy/src/dev/oled_ssd130x.h ****         uint8_t buf[2] = {0X00, cmd};
  40:../../libdaisy/src/dev/oled_ssd130x.h ****         i2c_.TransmitBlocking(i2c_address_, buf, 2, 1000);
  41:../../libdaisy/src/dev/oled_ssd130x.h ****     };
  42:../../libdaisy/src/dev/oled_ssd130x.h **** 
  43:../../libdaisy/src/dev/oled_ssd130x.h ****     void SendData(uint8_t* buff, size_t size)
  44:../../libdaisy/src/dev/oled_ssd130x.h ****     {
  45:../../libdaisy/src/dev/oled_ssd130x.h ****         for(size_t i = 0; i < size; i++)
  46:../../libdaisy/src/dev/oled_ssd130x.h ****         {
  47:../../libdaisy/src/dev/oled_ssd130x.h ****             uint8_t buf[2] = {0X40, buff[i]};
  48:../../libdaisy/src/dev/oled_ssd130x.h ****             i2c_.TransmitBlocking(i2c_address_, buf, 2, 1000);
  49:../../libdaisy/src/dev/oled_ssd130x.h ****         }
  50:../../libdaisy/src/dev/oled_ssd130x.h ****     };
ARM GAS  /tmp/ccpr9r5K.s 			page 20


  51:../../libdaisy/src/dev/oled_ssd130x.h **** 
  52:../../libdaisy/src/dev/oled_ssd130x.h ****   private:
  53:../../libdaisy/src/dev/oled_ssd130x.h ****     daisy::I2CHandle i2c_;
  54:../../libdaisy/src/dev/oled_ssd130x.h ****     uint8_t          i2c_address_;
  55:../../libdaisy/src/dev/oled_ssd130x.h **** };
  56:../../libdaisy/src/dev/oled_ssd130x.h **** 
  57:../../libdaisy/src/dev/oled_ssd130x.h **** /**
  58:../../libdaisy/src/dev/oled_ssd130x.h ****  * 4 Wire SPI Transport for SSD1306 / SSD1309 OLED display devices
  59:../../libdaisy/src/dev/oled_ssd130x.h ****  */
  60:../../libdaisy/src/dev/oled_ssd130x.h **** class SSD130x4WireSpiTransport
  61:../../libdaisy/src/dev/oled_ssd130x.h **** {
  62:../../libdaisy/src/dev/oled_ssd130x.h ****   public:
  63:../../libdaisy/src/dev/oled_ssd130x.h ****     struct Config
  64:../../libdaisy/src/dev/oled_ssd130x.h ****     {
  65:../../libdaisy/src/dev/oled_ssd130x.h ****         struct
  66:../../libdaisy/src/dev/oled_ssd130x.h ****         {
  67:../../libdaisy/src/dev/oled_ssd130x.h ****             dsy_gpio_pin dc;    /**< & */
  68:../../libdaisy/src/dev/oled_ssd130x.h ****             dsy_gpio_pin reset; /**< & */
  69:../../libdaisy/src/dev/oled_ssd130x.h ****         } pin_config;
  70:../../libdaisy/src/dev/oled_ssd130x.h ****         void Defaults()
  71:../../libdaisy/src/dev/oled_ssd130x.h ****         {
  72:../../libdaisy/src/dev/oled_ssd130x.h ****             pin_config.dc    = {DSY_GPIOB, 4};
  73:../../libdaisy/src/dev/oled_ssd130x.h ****             pin_config.reset = {DSY_GPIOB, 15};
  74:../../libdaisy/src/dev/oled_ssd130x.h ****         }
  75:../../libdaisy/src/dev/oled_ssd130x.h ****     };
  76:../../libdaisy/src/dev/oled_ssd130x.h ****     void Init(const Config& config)
  77:../../libdaisy/src/dev/oled_ssd130x.h ****     {
  78:../../libdaisy/src/dev/oled_ssd130x.h ****         // Initialize both GPIO
  79:../../libdaisy/src/dev/oled_ssd130x.h ****         pin_dc_.mode = DSY_GPIO_MODE_OUTPUT_PP;
  80:../../libdaisy/src/dev/oled_ssd130x.h ****         pin_dc_.pin  = config.pin_config.dc;
  81:../../libdaisy/src/dev/oled_ssd130x.h ****         dsy_gpio_init(&pin_dc_);
  82:../../libdaisy/src/dev/oled_ssd130x.h ****         pin_reset_.mode = DSY_GPIO_MODE_OUTPUT_PP;
  83:../../libdaisy/src/dev/oled_ssd130x.h ****         pin_reset_.pin  = config.pin_config.reset;
  84:../../libdaisy/src/dev/oled_ssd130x.h ****         dsy_gpio_init(&pin_reset_);
  85:../../libdaisy/src/dev/oled_ssd130x.h ****         // Initialize SPI
  86:../../libdaisy/src/dev/oled_ssd130x.h ****         SpiHandle::Config spi_config;
  87:../../libdaisy/src/dev/oled_ssd130x.h ****         spi_config.periph    = SpiHandle::Config::Peripheral::SPI_1;
  88:../../libdaisy/src/dev/oled_ssd130x.h ****         spi_config.mode      = SpiHandle::Config::Mode::MASTER;
  89:../../libdaisy/src/dev/oled_ssd130x.h ****         spi_config.direction = SpiHandle::Config::Direction::TWO_LINES_TX_ONLY;
  90:../../libdaisy/src/dev/oled_ssd130x.h ****         spi_config.datasize  = 8;
  91:../../libdaisy/src/dev/oled_ssd130x.h ****         spi_config.clock_polarity = SpiHandle::Config::ClockPolarity::LOW;
  92:../../libdaisy/src/dev/oled_ssd130x.h ****         spi_config.clock_phase    = SpiHandle::Config::ClockPhase::ONE_EDGE;
  93:../../libdaisy/src/dev/oled_ssd130x.h ****         spi_config.nss            = SpiHandle::Config::NSS::HARD_OUTPUT;
  94:../../libdaisy/src/dev/oled_ssd130x.h ****         spi_config.baud_prescaler = SpiHandle::Config::BaudPrescaler::PS_8;
  95:../../libdaisy/src/dev/oled_ssd130x.h **** 
  96:../../libdaisy/src/dev/oled_ssd130x.h ****         spi_config.pin_config.sclk = {DSY_GPIOG, 11};
  97:../../libdaisy/src/dev/oled_ssd130x.h ****         spi_config.pin_config.miso = {DSY_GPIOX, 0};
  98:../../libdaisy/src/dev/oled_ssd130x.h ****         spi_config.pin_config.mosi = {DSY_GPIOB, 5};
  99:../../libdaisy/src/dev/oled_ssd130x.h ****         spi_config.pin_config.nss  = {DSY_GPIOG, 10};
 100:../../libdaisy/src/dev/oled_ssd130x.h **** 
 101:../../libdaisy/src/dev/oled_ssd130x.h ****         spi_.Init(spi_config);
 102:../../libdaisy/src/dev/oled_ssd130x.h **** 
 103:../../libdaisy/src/dev/oled_ssd130x.h ****         // Reset and Configure OLED.
 104:../../libdaisy/src/dev/oled_ssd130x.h ****         dsy_gpio_write(&pin_reset_, 0);
 105:../../libdaisy/src/dev/oled_ssd130x.h ****         System::Delay(10);
 106:../../libdaisy/src/dev/oled_ssd130x.h ****         dsy_gpio_write(&pin_reset_, 1);
 107:../../libdaisy/src/dev/oled_ssd130x.h ****         System::Delay(10);
ARM GAS  /tmp/ccpr9r5K.s 			page 21


 108:../../libdaisy/src/dev/oled_ssd130x.h ****     };
 109:../../libdaisy/src/dev/oled_ssd130x.h ****     void SendCommand(uint8_t cmd)
 110:../../libdaisy/src/dev/oled_ssd130x.h ****     {
 111:../../libdaisy/src/dev/oled_ssd130x.h ****         dsy_gpio_write(&pin_dc_, 0);
 112:../../libdaisy/src/dev/oled_ssd130x.h ****         spi_.BlockingTransmit(&cmd, 1);
 113:../../libdaisy/src/dev/oled_ssd130x.h ****     };
 114:../../libdaisy/src/dev/oled_ssd130x.h **** 
 115:../../libdaisy/src/dev/oled_ssd130x.h ****     void SendData(uint8_t* buff, size_t size)
 116:../../libdaisy/src/dev/oled_ssd130x.h ****     {
 117:../../libdaisy/src/dev/oled_ssd130x.h ****         dsy_gpio_write(&pin_dc_, 1);
 118:../../libdaisy/src/dev/oled_ssd130x.h ****         spi_.BlockingTransmit(buff, size);
 119:../../libdaisy/src/dev/oled_ssd130x.h ****     };
 120:../../libdaisy/src/dev/oled_ssd130x.h **** 
 121:../../libdaisy/src/dev/oled_ssd130x.h ****   private:
 122:../../libdaisy/src/dev/oled_ssd130x.h ****     SpiHandle spi_;
 123:../../libdaisy/src/dev/oled_ssd130x.h ****     dsy_gpio  pin_reset_;
 124:../../libdaisy/src/dev/oled_ssd130x.h ****     dsy_gpio  pin_dc_;
 125:../../libdaisy/src/dev/oled_ssd130x.h **** };
 126:../../libdaisy/src/dev/oled_ssd130x.h **** 
 127:../../libdaisy/src/dev/oled_ssd130x.h **** 
 128:../../libdaisy/src/dev/oled_ssd130x.h **** /**
 129:../../libdaisy/src/dev/oled_ssd130x.h ****  * A driver implementation for the SSD1306/SSD1309
 130:../../libdaisy/src/dev/oled_ssd130x.h ****  */
 131:../../libdaisy/src/dev/oled_ssd130x.h **** template <size_t width, size_t height, typename Transport>
 132:../../libdaisy/src/dev/oled_ssd130x.h **** class SSD130xDriver
 133:../../libdaisy/src/dev/oled_ssd130x.h **** {
 134:../../libdaisy/src/dev/oled_ssd130x.h ****   public:
 135:../../libdaisy/src/dev/oled_ssd130x.h ****     struct Config
 136:../../libdaisy/src/dev/oled_ssd130x.h ****     {
 137:../../libdaisy/src/dev/oled_ssd130x.h ****         typename Transport::Config transport_config;
 138:../../libdaisy/src/dev/oled_ssd130x.h ****     };
 139:../../libdaisy/src/dev/oled_ssd130x.h **** 
 140:../../libdaisy/src/dev/oled_ssd130x.h ****     void Init(Config config)
 141:../../libdaisy/src/dev/oled_ssd130x.h ****     {
 142:../../libdaisy/src/dev/oled_ssd130x.h ****         transport_.Init(config.transport_config);
 143:../../libdaisy/src/dev/oled_ssd130x.h **** 
 144:../../libdaisy/src/dev/oled_ssd130x.h ****         // Init routine...
 145:../../libdaisy/src/dev/oled_ssd130x.h **** 
 146:../../libdaisy/src/dev/oled_ssd130x.h ****         // Display Off
 147:../../libdaisy/src/dev/oled_ssd130x.h ****         transport_.SendCommand(0xaE);
 148:../../libdaisy/src/dev/oled_ssd130x.h ****         // Dimension dependent commands...
 149:../../libdaisy/src/dev/oled_ssd130x.h ****         switch(height)
 150:../../libdaisy/src/dev/oled_ssd130x.h ****         {
 151:../../libdaisy/src/dev/oled_ssd130x.h ****             case 16:
 152:../../libdaisy/src/dev/oled_ssd130x.h ****                 // Display Clock Divide Ratio
 153:../../libdaisy/src/dev/oled_ssd130x.h ****                 transport_.SendCommand(0xD5);
 154:../../libdaisy/src/dev/oled_ssd130x.h ****                 transport_.SendCommand(0x60);
 155:../../libdaisy/src/dev/oled_ssd130x.h ****                 // Multiplex Ratio
 156:../../libdaisy/src/dev/oled_ssd130x.h ****                 transport_.SendCommand(0xA8);
 157:../../libdaisy/src/dev/oled_ssd130x.h ****                 transport_.SendCommand(0x0F);
 158:../../libdaisy/src/dev/oled_ssd130x.h ****                 // COM Pins
 159:../../libdaisy/src/dev/oled_ssd130x.h ****                 transport_.SendCommand(0xDA);
 160:../../libdaisy/src/dev/oled_ssd130x.h ****                 transport_.SendCommand(0x02);
 161:../../libdaisy/src/dev/oled_ssd130x.h ****                 break;
 162:../../libdaisy/src/dev/oled_ssd130x.h ****             case 32:
 163:../../libdaisy/src/dev/oled_ssd130x.h ****                 // Display Clock Divide Ratio
 164:../../libdaisy/src/dev/oled_ssd130x.h ****                 transport_.SendCommand(0xD5);
ARM GAS  /tmp/ccpr9r5K.s 			page 22


 165:../../libdaisy/src/dev/oled_ssd130x.h ****                 transport_.SendCommand(0x80);
 166:../../libdaisy/src/dev/oled_ssd130x.h ****                 // Multiplex Ratio
 167:../../libdaisy/src/dev/oled_ssd130x.h ****                 transport_.SendCommand(0xA8);
 168:../../libdaisy/src/dev/oled_ssd130x.h ****                 transport_.SendCommand(0x1F);
 169:../../libdaisy/src/dev/oled_ssd130x.h ****                 // COM Pins
 170:../../libdaisy/src/dev/oled_ssd130x.h ****                 transport_.SendCommand(0xDA);
 171:../../libdaisy/src/dev/oled_ssd130x.h ****                 if(width == 64)
 172:../../libdaisy/src/dev/oled_ssd130x.h ****                 {
 173:../../libdaisy/src/dev/oled_ssd130x.h ****                     transport_.SendCommand(0x12);
 174:../../libdaisy/src/dev/oled_ssd130x.h ****                 }
 175:../../libdaisy/src/dev/oled_ssd130x.h ****                 else
 176:../../libdaisy/src/dev/oled_ssd130x.h ****                 {
 177:../../libdaisy/src/dev/oled_ssd130x.h ****                     transport_.SendCommand(0x02);
 178:../../libdaisy/src/dev/oled_ssd130x.h ****                 }
 179:../../libdaisy/src/dev/oled_ssd130x.h **** 
 180:../../libdaisy/src/dev/oled_ssd130x.h ****                 break;
 181:../../libdaisy/src/dev/oled_ssd130x.h ****             case 48:
 182:../../libdaisy/src/dev/oled_ssd130x.h ****                 // Display Clock Divide Ratio
 183:../../libdaisy/src/dev/oled_ssd130x.h ****                 transport_.SendCommand(0xD5);
 184:../../libdaisy/src/dev/oled_ssd130x.h ****                 transport_.SendCommand(0x80);
 185:../../libdaisy/src/dev/oled_ssd130x.h ****                 // Multiplex Ratio
 186:../../libdaisy/src/dev/oled_ssd130x.h ****                 transport_.SendCommand(0xA8);
 187:../../libdaisy/src/dev/oled_ssd130x.h ****                 transport_.SendCommand(0x2F);
 188:../../libdaisy/src/dev/oled_ssd130x.h ****                 // COM Pins
 189:../../libdaisy/src/dev/oled_ssd130x.h ****                 transport_.SendCommand(0xDA);
 190:../../libdaisy/src/dev/oled_ssd130x.h ****                 transport_.SendCommand(0x12);
 191:../../libdaisy/src/dev/oled_ssd130x.h ****                 break;
 192:../../libdaisy/src/dev/oled_ssd130x.h ****             default: // 128
 193:../../libdaisy/src/dev/oled_ssd130x.h ****                 // Display Clock Divide Ratio
 194:../../libdaisy/src/dev/oled_ssd130x.h ****                 transport_.SendCommand(0xD5);
 195:../../libdaisy/src/dev/oled_ssd130x.h ****                 transport_.SendCommand(0x80);
 196:../../libdaisy/src/dev/oled_ssd130x.h ****                 // Multiplex Ratio
 197:../../libdaisy/src/dev/oled_ssd130x.h ****                 transport_.SendCommand(0xA8);
 198:../../libdaisy/src/dev/oled_ssd130x.h ****                 transport_.SendCommand(0x3F);
 199:../../libdaisy/src/dev/oled_ssd130x.h ****                 // COM Pins
 200:../../libdaisy/src/dev/oled_ssd130x.h ****                 transport_.SendCommand(0xDA);
 201:../../libdaisy/src/dev/oled_ssd130x.h ****                 transport_.SendCommand(0x12);
 202:../../libdaisy/src/dev/oled_ssd130x.h ****                 break;
 203:../../libdaisy/src/dev/oled_ssd130x.h ****         }
 204:../../libdaisy/src/dev/oled_ssd130x.h **** 
 205:../../libdaisy/src/dev/oled_ssd130x.h ****         // Display Offset
 206:../../libdaisy/src/dev/oled_ssd130x.h ****         transport_.SendCommand(0xD3);
 207:../../libdaisy/src/dev/oled_ssd130x.h ****         transport_.SendCommand(0x00);
 208:../../libdaisy/src/dev/oled_ssd130x.h ****         // Start Line Address
 209:../../libdaisy/src/dev/oled_ssd130x.h ****         transport_.SendCommand(0x40);
 210:../../libdaisy/src/dev/oled_ssd130x.h ****         // Normal Display
 211:../../libdaisy/src/dev/oled_ssd130x.h ****         transport_.SendCommand(0xA6);
 212:../../libdaisy/src/dev/oled_ssd130x.h ****         // All On Resume
 213:../../libdaisy/src/dev/oled_ssd130x.h ****         transport_.SendCommand(0xA4);
 214:../../libdaisy/src/dev/oled_ssd130x.h ****         // Charge Pump
 215:../../libdaisy/src/dev/oled_ssd130x.h ****         transport_.SendCommand(0x8D);
 216:../../libdaisy/src/dev/oled_ssd130x.h ****         transport_.SendCommand(0x14);
 217:../../libdaisy/src/dev/oled_ssd130x.h ****         // Set Segment Remap
 218:../../libdaisy/src/dev/oled_ssd130x.h ****         transport_.SendCommand(0xA1);
 219:../../libdaisy/src/dev/oled_ssd130x.h ****         // COM Output Scan Direction
 220:../../libdaisy/src/dev/oled_ssd130x.h ****         transport_.SendCommand(0xC8);
 221:../../libdaisy/src/dev/oled_ssd130x.h ****         // Contrast Control
ARM GAS  /tmp/ccpr9r5K.s 			page 23


 222:../../libdaisy/src/dev/oled_ssd130x.h ****         transport_.SendCommand(0x81);
 223:../../libdaisy/src/dev/oled_ssd130x.h ****         transport_.SendCommand(0x8F);
 224:../../libdaisy/src/dev/oled_ssd130x.h ****         // Pre Charge
 225:../../libdaisy/src/dev/oled_ssd130x.h ****         transport_.SendCommand(0xD9);
 226:../../libdaisy/src/dev/oled_ssd130x.h ****         transport_.SendCommand(0x25);
 227:../../libdaisy/src/dev/oled_ssd130x.h ****         // VCOM Detect
 228:../../libdaisy/src/dev/oled_ssd130x.h ****         transport_.SendCommand(0xDB);
 229:../../libdaisy/src/dev/oled_ssd130x.h ****         transport_.SendCommand(0x34);
 230:../../libdaisy/src/dev/oled_ssd130x.h **** 
 231:../../libdaisy/src/dev/oled_ssd130x.h **** 
 232:../../libdaisy/src/dev/oled_ssd130x.h ****         // Display On
 233:../../libdaisy/src/dev/oled_ssd130x.h ****         transport_.SendCommand(0xAF); //--turn on oled panel
 234:../../libdaisy/src/dev/oled_ssd130x.h ****     };
 235:../../libdaisy/src/dev/oled_ssd130x.h **** 
 236:../../libdaisy/src/dev/oled_ssd130x.h ****     size_t Width() const { return width; };
 237:../../libdaisy/src/dev/oled_ssd130x.h ****     size_t Height() const { return height; };
 238:../../libdaisy/src/dev/oled_ssd130x.h **** 
 239:../../libdaisy/src/dev/oled_ssd130x.h ****     void DrawPixel(uint_fast8_t x, uint_fast8_t y, bool on)
 240:../../libdaisy/src/dev/oled_ssd130x.h ****     {
 241:../../libdaisy/src/dev/oled_ssd130x.h ****         if(x >= width || y >= height)
 242:../../libdaisy/src/dev/oled_ssd130x.h ****             return;
 243:../../libdaisy/src/dev/oled_ssd130x.h ****         if(on)
 244:../../libdaisy/src/dev/oled_ssd130x.h ****             buffer_[x + (y / 8) * width] |= (1 << (y % 8));
 245:../../libdaisy/src/dev/oled_ssd130x.h ****         else
 246:../../libdaisy/src/dev/oled_ssd130x.h ****             buffer_[x + (y / 8) * width] &= ~(1 << (y % 8));
 247:../../libdaisy/src/dev/oled_ssd130x.h ****     }
 248:../../libdaisy/src/dev/oled_ssd130x.h **** 
 249:../../libdaisy/src/dev/oled_ssd130x.h ****     void Fill(bool on)
 266              		.loc 15 249 10 view .LVU39
 267              	.LBB650:
 250:../../libdaisy/src/dev/oled_ssd130x.h ****     {
 251:../../libdaisy/src/dev/oled_ssd130x.h ****         for(size_t i = 0; i < sizeof(buffer_); i++)
 268              		.loc 15 251 29 view .LVU40
 269 0000 4942     		rsbs	r1, r1, #0
 270              	.LVL9:
 271              		.loc 15 251 29 is_stmt 0 view .LVU41
 272 0002 00F11303 		add	r3, r0, #19
 273 0006 00F21342 		addw	r2, r0, #1043
 274 000a C9B2     		uxtb	r1, r1
 275              	.LVL10:
 276              	.L9:
 252:../../libdaisy/src/dev/oled_ssd130x.h ****         {
 253:../../libdaisy/src/dev/oled_ssd130x.h ****             buffer_[i] = on ? 0xff : 0x00;
 277              		.loc 15 253 13 view .LVU42
 278 000c 03F8011F 		strb	r1, [r3, #1]!
 279              	.LVL11:
 251:../../libdaisy/src/dev/oled_ssd130x.h ****         {
 280              		.loc 15 251 9 is_stmt 1 view .LVU43
 251:../../libdaisy/src/dev/oled_ssd130x.h ****         {
 281              		.loc 15 251 29 view .LVU44
 282 0010 9342     		cmp	r3, r2
 283 0012 FBD1     		bne	.L9
 284              	.LBE650:
 285              	.LBE649:
 286              		.loc 5 33 53 is_stmt 0 view .LVU45
 287 0014 7047     		bx	lr
 288              		.cfi_endproc
ARM GAS  /tmp/ccpr9r5K.s 			page 24


 289              	.LFE4821:
 291 0016 00BF     		.section	.text._ZL13AudioCallbackPKPKfPPfj,"ax",%progbits
 292              		.align	1
 293              		.p2align 2,,3
 294              		.syntax unified
 295              		.thumb
 296              		.thumb_func
 297              		.fpu fpv5-d16
 299              	_ZL13AudioCallbackPKPKfPPfj:
 300              	.LVL12:
 301              	.LFB4233:
 302              		.file 16 "ex_vco.cpp"
   1:ex_vco.cpp    **** #include "daisysp.h"
   2:ex_vco.cpp    **** #include "daisy_patch.h"
   3:ex_vco.cpp    **** #include <string>
   4:ex_vco.cpp    **** 
   5:ex_vco.cpp    **** using namespace daisy;
   6:ex_vco.cpp    **** using namespace daisysp;
   7:ex_vco.cpp    **** 
   8:ex_vco.cpp    **** DaisyPatch patch;
   9:ex_vco.cpp    **** Oscillator osc;
  10:ex_vco.cpp    **** Parameter  freqctrl, wavectrl, ampctrl, finectrl;
  11:ex_vco.cpp    **** 
  12:ex_vco.cpp    **** static void AudioCallback(AudioHandle::InputBuffer  in,
  13:ex_vco.cpp    ****                           AudioHandle::OutputBuffer out,
  14:ex_vco.cpp    ****                           size_t                    size)
  15:ex_vco.cpp    **** {
 303              		.loc 16 15 1 is_stmt 1 view -0
 304              		.cfi_startproc
 305              		@ args = 0, pretend = 0, frame = 8
 306              		@ frame_needed = 0, uses_anonymous_args = 0
  16:ex_vco.cpp    ****     float  sig, freq, amp;
 307              		.loc 16 16 5 view .LVU47
  17:ex_vco.cpp    ****     size_t wave;
 308              		.loc 16 17 5 view .LVU48
  18:ex_vco.cpp    **** 
  19:ex_vco.cpp    ****     patch.ProcessAnalogControls();
 309              		.loc 16 19 5 view .LVU49
  15:ex_vco.cpp    ****     float  sig, freq, amp;
 310              		.loc 16 15 1 is_stmt 0 view .LVU50
 311 0000 2DE9F041 		push	{r4, r5, r6, r7, r8, lr}
 312              		.cfi_def_cfa_offset 24
 313              		.cfi_offset 4, -24
 314              		.cfi_offset 5, -20
 315              		.cfi_offset 6, -16
 316              		.cfi_offset 7, -12
 317              		.cfi_offset 8, -8
 318              		.cfi_offset 14, -4
 319 0004 1546     		mov	r5, r2
 320              		.loc 16 19 32 view .LVU51
 321 0006 2F48     		ldr	r0, .L22
 322              	.LVL13:
  15:ex_vco.cpp    ****     float  sig, freq, amp;
 323              		.loc 16 15 1 view .LVU52
 324 0008 0F46     		mov	r7, r1
 325 000a 2DED028B 		vpush.64	{d8}
 326              		.cfi_def_cfa_offset 32
ARM GAS  /tmp/ccpr9r5K.s 			page 25


 327              		.cfi_offset 80, -32
 328              		.cfi_offset 81, -28
 329 000e 82B0     		sub	sp, sp, #8
 330              		.cfi_def_cfa_offset 40
 331              		.loc 16 19 32 view .LVU53
 332 0010 FFF7FEFF 		bl	_ZN5daisy10DaisyPatch21ProcessAnalogControlsEv
 333              	.LVL14:
  20:ex_vco.cpp    **** 
  21:ex_vco.cpp    ****     for(size_t i = 0; i < size; i++)
 334              		.loc 16 21 5 is_stmt 1 view .LVU54
 335              	.LBB651:
 336              		.loc 16 21 25 view .LVU55
 337 0014 002D     		cmp	r5, #0
 338 0016 50D0     		beq	.L11
 339 0018 3E1F     		subs	r6, r7, #4
 340              		.loc 16 21 16 is_stmt 0 view .LVU56
 341 001a 4FF00008 		mov	r8, #0
 342 001e 2A4C     		ldr	r4, .L22+4
 343 0020 0C37     		adds	r7, r7, #12
 344              	.LVL15:
 345              	.L15:
 346              	.LBB652:
  22:ex_vco.cpp    ****     {
  23:ex_vco.cpp    ****         // Read Knobs
  24:ex_vco.cpp    ****         freq = mtof(freqctrl.Process() + finectrl.Process());
 347              		.loc 16 24 9 is_stmt 1 view .LVU57
 348              		.loc 16 24 37 is_stmt 0 view .LVU58
 349 0022 2A48     		ldr	r0, .L22+8
 350 0024 FFF7FEFF 		bl	_ZN5daisy9Parameter7ProcessEv
 351              	.LVL16:
 352 0028 B0EE408A 		vmov.f32	s16, s0
 353              		.loc 16 24 58 view .LVU59
 354 002c 2848     		ldr	r0, .L22+12
 355 002e FFF7FEFF 		bl	_ZN5daisy9Parameter7ProcessEv
 356              	.LVL17:
 357              	.LBB653:
 358              	.LBI653:
 359              		.file 17 "../../DaisySP/Source/Utility/dsp.h"
   1:../../DaisySP/Source/Utility/dsp.h **** /** Helpful defines, functions, and other utilities for use in/with daisysp modules.
   2:../../DaisySP/Source/Utility/dsp.h **** */
   3:../../DaisySP/Source/Utility/dsp.h **** #pragma once
   4:../../DaisySP/Source/Utility/dsp.h **** #ifndef DSY_CORE_DSP
   5:../../DaisySP/Source/Utility/dsp.h **** #define DSY_CORE_DSP
   6:../../DaisySP/Source/Utility/dsp.h **** #include <cassert>
   7:../../DaisySP/Source/Utility/dsp.h **** #include <cstdint>
   8:../../DaisySP/Source/Utility/dsp.h **** #include <random>
   9:../../DaisySP/Source/Utility/dsp.h **** #include <cmath>
  10:../../DaisySP/Source/Utility/dsp.h **** 
  11:../../DaisySP/Source/Utility/dsp.h **** /** PIs
  12:../../DaisySP/Source/Utility/dsp.h **** */
  13:../../DaisySP/Source/Utility/dsp.h **** #define PI_F 3.1415927410125732421875f
  14:../../DaisySP/Source/Utility/dsp.h **** #define TWOPI_F (2.0f * PI_F)
  15:../../DaisySP/Source/Utility/dsp.h **** #define HALFPI_F (PI_F * 0.5f)
  16:../../DaisySP/Source/Utility/dsp.h **** #define DSY_MIN(in, mn) (in < mn ? in : mn)
  17:../../DaisySP/Source/Utility/dsp.h **** #define DSY_MAX(in, mx) (in > mx ? in : mx)
  18:../../DaisySP/Source/Utility/dsp.h **** #define DSY_CLAMP(in, mn, mx) (DSY_MIN(DSY_MAX(in, mn), mx))
  19:../../DaisySP/Source/Utility/dsp.h **** #define DSY_COUNTOF(_arr) (sizeof(_arr) / sizeof(_arr[0]))
ARM GAS  /tmp/ccpr9r5K.s 			page 26


  20:../../DaisySP/Source/Utility/dsp.h **** 
  21:../../DaisySP/Source/Utility/dsp.h **** namespace daisysp
  22:../../DaisySP/Source/Utility/dsp.h **** {
  23:../../DaisySP/Source/Utility/dsp.h **** //Avoids division for random floats. e.g. rand() * kRandFrac
  24:../../DaisySP/Source/Utility/dsp.h **** static constexpr float kRandFrac = 1.f / (float)RAND_MAX;
  25:../../DaisySP/Source/Utility/dsp.h **** 
  26:../../DaisySP/Source/Utility/dsp.h **** //Convert from semitones to other units. e.g. 2 ^ (kOneTwelfth * x)
  27:../../DaisySP/Source/Utility/dsp.h **** static constexpr float kOneTwelfth = 1.f / 12.f;
  28:../../DaisySP/Source/Utility/dsp.h **** 
  29:../../DaisySP/Source/Utility/dsp.h **** /** efficient floating point min/max
  30:../../DaisySP/Source/Utility/dsp.h **** c/o stephen mccaul
  31:../../DaisySP/Source/Utility/dsp.h **** */
  32:../../DaisySP/Source/Utility/dsp.h **** inline float fmax(float a, float b)
  33:../../DaisySP/Source/Utility/dsp.h **** {
  34:../../DaisySP/Source/Utility/dsp.h ****     float r;
  35:../../DaisySP/Source/Utility/dsp.h **** #ifdef __arm__
  36:../../DaisySP/Source/Utility/dsp.h ****     asm("vmaxnm.f32 %[d], %[n], %[m]" : [d] "=t"(r) : [n] "t"(a), [m] "t"(b) :);
  37:../../DaisySP/Source/Utility/dsp.h **** #else
  38:../../DaisySP/Source/Utility/dsp.h ****     r = (a > b) ? a : b;
  39:../../DaisySP/Source/Utility/dsp.h **** #endif // __arm__
  40:../../DaisySP/Source/Utility/dsp.h ****     return r;
  41:../../DaisySP/Source/Utility/dsp.h **** }
  42:../../DaisySP/Source/Utility/dsp.h **** 
  43:../../DaisySP/Source/Utility/dsp.h **** inline float fmin(float a, float b)
  44:../../DaisySP/Source/Utility/dsp.h **** {
  45:../../DaisySP/Source/Utility/dsp.h ****     float r;
  46:../../DaisySP/Source/Utility/dsp.h **** #ifdef __arm__
  47:../../DaisySP/Source/Utility/dsp.h ****     asm("vminnm.f32 %[d], %[n], %[m]" : [d] "=t"(r) : [n] "t"(a), [m] "t"(b) :);
  48:../../DaisySP/Source/Utility/dsp.h **** #else
  49:../../DaisySP/Source/Utility/dsp.h ****     r = (a < b) ? a : b;
  50:../../DaisySP/Source/Utility/dsp.h **** #endif // __arm__
  51:../../DaisySP/Source/Utility/dsp.h ****     return r;
  52:../../DaisySP/Source/Utility/dsp.h **** }
  53:../../DaisySP/Source/Utility/dsp.h **** 
  54:../../DaisySP/Source/Utility/dsp.h **** /** quick fp clamp
  55:../../DaisySP/Source/Utility/dsp.h **** */
  56:../../DaisySP/Source/Utility/dsp.h **** inline float fclamp(float in, float min, float max)
  57:../../DaisySP/Source/Utility/dsp.h **** {
  58:../../DaisySP/Source/Utility/dsp.h ****     return fmin(fmax(in, min), max);
  59:../../DaisySP/Source/Utility/dsp.h **** }
  60:../../DaisySP/Source/Utility/dsp.h **** 
  61:../../DaisySP/Source/Utility/dsp.h **** /** From Musicdsp.org "Fast power and root estimates for 32bit floats)
  62:../../DaisySP/Source/Utility/dsp.h **** Original code by Stefan Stenzel
  63:../../DaisySP/Source/Utility/dsp.h **** These are approximations
  64:../../DaisySP/Source/Utility/dsp.h **** */
  65:../../DaisySP/Source/Utility/dsp.h **** inline float fastpower(float f, int n)
  66:../../DaisySP/Source/Utility/dsp.h **** {
  67:../../DaisySP/Source/Utility/dsp.h ****     long *lp, l;
  68:../../DaisySP/Source/Utility/dsp.h ****     lp = (long *)(&f);
  69:../../DaisySP/Source/Utility/dsp.h ****     l  = *lp;
  70:../../DaisySP/Source/Utility/dsp.h ****     l -= 0x3F800000;
  71:../../DaisySP/Source/Utility/dsp.h ****     l <<= (n - 1);
  72:../../DaisySP/Source/Utility/dsp.h ****     l += 0x3F800000;
  73:../../DaisySP/Source/Utility/dsp.h ****     *lp = l;
  74:../../DaisySP/Source/Utility/dsp.h ****     return f;
  75:../../DaisySP/Source/Utility/dsp.h **** }
  76:../../DaisySP/Source/Utility/dsp.h **** 
ARM GAS  /tmp/ccpr9r5K.s 			page 27


  77:../../DaisySP/Source/Utility/dsp.h **** inline float fastroot(float f, int n)
  78:../../DaisySP/Source/Utility/dsp.h **** {
  79:../../DaisySP/Source/Utility/dsp.h ****     long *lp, l;
  80:../../DaisySP/Source/Utility/dsp.h ****     lp = (long *)(&f);
  81:../../DaisySP/Source/Utility/dsp.h ****     l  = *lp;
  82:../../DaisySP/Source/Utility/dsp.h ****     l -= 0x3F800000;
  83:../../DaisySP/Source/Utility/dsp.h ****     l >>= (n = 1);
  84:../../DaisySP/Source/Utility/dsp.h ****     l += 0x3F800000;
  85:../../DaisySP/Source/Utility/dsp.h ****     *lp = l;
  86:../../DaisySP/Source/Utility/dsp.h ****     return f;
  87:../../DaisySP/Source/Utility/dsp.h **** }
  88:../../DaisySP/Source/Utility/dsp.h **** 
  89:../../DaisySP/Source/Utility/dsp.h **** /** From http://openaudio.blogspot.com/2017/02/faster-log10-and-pow.html
  90:../../DaisySP/Source/Utility/dsp.h **** No approximation, pow10f(x) gives a 90% speed increase over powf(10.f, x)
  91:../../DaisySP/Source/Utility/dsp.h **** */
  92:../../DaisySP/Source/Utility/dsp.h **** inline float pow10f(float f)
  93:../../DaisySP/Source/Utility/dsp.h **** {
  94:../../DaisySP/Source/Utility/dsp.h ****     return expf(2.302585092994046f * f);
  95:../../DaisySP/Source/Utility/dsp.h **** }
  96:../../DaisySP/Source/Utility/dsp.h **** 
  97:../../DaisySP/Source/Utility/dsp.h **** /* Original code for fastlog2f by Dr. Paul Beckmann from the ARM community forum, adapted from the 
  98:../../DaisySP/Source/Utility/dsp.h **** About 25% performance increase over std::log10f
  99:../../DaisySP/Source/Utility/dsp.h **** */
 100:../../DaisySP/Source/Utility/dsp.h **** inline float fastlog2f(float f)
 101:../../DaisySP/Source/Utility/dsp.h **** {
 102:../../DaisySP/Source/Utility/dsp.h ****     float frac;
 103:../../DaisySP/Source/Utility/dsp.h ****     int   exp;
 104:../../DaisySP/Source/Utility/dsp.h ****     frac = frexpf(fabsf(f), &exp);
 105:../../DaisySP/Source/Utility/dsp.h ****     f    = 1.23149591368684f;
 106:../../DaisySP/Source/Utility/dsp.h ****     f *= frac;
 107:../../DaisySP/Source/Utility/dsp.h ****     f += -4.11852516267426f;
 108:../../DaisySP/Source/Utility/dsp.h ****     f *= frac;
 109:../../DaisySP/Source/Utility/dsp.h ****     f += 6.02197014179219f;
 110:../../DaisySP/Source/Utility/dsp.h ****     f *= frac;
 111:../../DaisySP/Source/Utility/dsp.h ****     f += -3.13396450166353f;
 112:../../DaisySP/Source/Utility/dsp.h ****     f += exp;
 113:../../DaisySP/Source/Utility/dsp.h ****     return (f);
 114:../../DaisySP/Source/Utility/dsp.h **** }
 115:../../DaisySP/Source/Utility/dsp.h **** 
 116:../../DaisySP/Source/Utility/dsp.h **** inline float fastlog10f(float f)
 117:../../DaisySP/Source/Utility/dsp.h **** {
 118:../../DaisySP/Source/Utility/dsp.h ****     return fastlog2f(f) * 0.3010299956639812f;
 119:../../DaisySP/Source/Utility/dsp.h **** }
 120:../../DaisySP/Source/Utility/dsp.h **** 
 121:../../DaisySP/Source/Utility/dsp.h **** /** Midi to frequency helper
 122:../../DaisySP/Source/Utility/dsp.h **** */
 123:../../DaisySP/Source/Utility/dsp.h **** inline float mtof(float m)
 360              		.loc 17 123 14 is_stmt 1 view .LVU60
 361              	.LBB654:
 124:../../DaisySP/Source/Utility/dsp.h **** {
 125:../../DaisySP/Source/Utility/dsp.h ****     return powf(2, (m - 69.0f) / 12.0f) * 440.0f;
 362              		.loc 17 125 5 view .LVU61
 363              		.loc 17 125 23 is_stmt 0 view .LVU62
 364 0032 DFED287A 		vldr.32	s15, .L22+16
 365              	.LBE654:
 366              	.LBE653:
 367              		.loc 16 24 20 view .LVU63
ARM GAS  /tmp/ccpr9r5K.s 			page 28


 368 0036 38EE008A 		vadd.f32	s16, s16, s0
 369              	.LVL18:
 370              	.LBB657:
 371              	.LBB655:
 372              		.loc 17 125 16 view .LVU64
 373 003a F2EE080A 		vmov.f32	s1, #1.2e+1
 374 003e B0EE000A 		vmov.f32	s0, #2.0e+0
 375              		.loc 17 125 23 view .LVU65
 376 0042 38EE678A 		vsub.f32	s16, s16, s15
 377              	.LVL19:
 378              		.loc 17 125 16 view .LVU66
 379 0046 C8EE200A 		vdiv.f32	s1, s16, s1
 380              		.loc 17 125 43 view .LVU67
 381 004a 9FED238A 		vldr.32	s16, .L22+20
 382              		.loc 17 125 16 view .LVU68
 383 004e FFF7FEFF 		bl	powf
 384              	.LVL20:
 385              	.LBE655:
 386              	.LBE657:
  25:ex_vco.cpp    ****         wave = wavectrl.Process();
 387              		.loc 16 25 32 view .LVU69
 388 0052 2248     		ldr	r0, .L22+24
 389              	.LBB658:
 390              	.LBB656:
 391              		.loc 17 125 43 view .LVU70
 392 0054 20EE088A 		vmul.f32	s16, s0, s16
 393              	.LVL21:
 394              		.loc 17 125 43 view .LVU71
 395              	.LBE656:
 396              	.LBE658:
 397              		.loc 16 25 9 is_stmt 1 view .LVU72
 398              		.loc 16 25 32 is_stmt 0 view .LVU73
 399 0058 FFF7FEFF 		bl	_ZN5daisy9Parameter7ProcessEv
 400              	.LVL22:
  26:ex_vco.cpp    ****         amp  = ampctrl.Process();
 401              		.loc 16 26 31 view .LVU74
 402 005c 2048     		ldr	r0, .L22+28
  25:ex_vco.cpp    ****         wave = wavectrl.Process();
 403              		.loc 16 25 32 view .LVU75
 404 005e F0EE408A 		vmov.f32	s17, s0
 405              	.LVL23:
 406              		.loc 16 26 9 is_stmt 1 view .LVU76
 407              		.loc 16 26 31 is_stmt 0 view .LVU77
 408 0062 FFF7FEFF 		bl	_ZN5daisy9Parameter7ProcessEv
 409              	.LVL24:
 410              		.loc 16 26 31 view .LVU78
 411 0066 F0EE407A 		vmov.f32	s15, s0
 412              	.LBB659:
 413              	.LBB660:
  17:../../DaisySP/Source/Synthesis/oscillator.h ****     /** Choices for output waveforms, POLYBLEP are appropriately labeled. Others are naive forms.
  18:../../DaisySP/Source/Synthesis/oscillator.h ****     */
  19:../../DaisySP/Source/Synthesis/oscillator.h ****     enum
  20:../../DaisySP/Source/Synthesis/oscillator.h ****     {
  21:../../DaisySP/Source/Synthesis/oscillator.h ****         WAVE_SIN,
  22:../../DaisySP/Source/Synthesis/oscillator.h ****         WAVE_TRI,
  23:../../DaisySP/Source/Synthesis/oscillator.h ****         WAVE_SAW,
  24:../../DaisySP/Source/Synthesis/oscillator.h ****         WAVE_RAMP,
ARM GAS  /tmp/ccpr9r5K.s 			page 29


  25:../../DaisySP/Source/Synthesis/oscillator.h ****         WAVE_SQUARE,
  26:../../DaisySP/Source/Synthesis/oscillator.h ****         WAVE_POLYBLEP_TRI,
  27:../../DaisySP/Source/Synthesis/oscillator.h ****         WAVE_POLYBLEP_SAW,
  28:../../DaisySP/Source/Synthesis/oscillator.h ****         WAVE_POLYBLEP_SQUARE,
  29:../../DaisySP/Source/Synthesis/oscillator.h ****         WAVE_LAST,
  30:../../DaisySP/Source/Synthesis/oscillator.h ****     };
  31:../../DaisySP/Source/Synthesis/oscillator.h **** 
  32:../../DaisySP/Source/Synthesis/oscillator.h **** 
  33:../../DaisySP/Source/Synthesis/oscillator.h ****     /** Initializes the Oscillator
  34:../../DaisySP/Source/Synthesis/oscillator.h **** 
  35:../../DaisySP/Source/Synthesis/oscillator.h ****         \param sample_rate - sample rate of the audio engine being run, and the frequency that the 
  36:../../DaisySP/Source/Synthesis/oscillator.h **** 
  37:../../DaisySP/Source/Synthesis/oscillator.h ****         Defaults:
  38:../../DaisySP/Source/Synthesis/oscillator.h ****         - freq_ = 100 Hz
  39:../../DaisySP/Source/Synthesis/oscillator.h ****         - amp_ = 0.5
  40:../../DaisySP/Source/Synthesis/oscillator.h ****         - waveform_ = sine wave.
  41:../../DaisySP/Source/Synthesis/oscillator.h ****     */
  42:../../DaisySP/Source/Synthesis/oscillator.h ****     void Init(float sample_rate)
  43:../../DaisySP/Source/Synthesis/oscillator.h ****     {
  44:../../DaisySP/Source/Synthesis/oscillator.h ****         sr_        = sample_rate;
  45:../../DaisySP/Source/Synthesis/oscillator.h ****         sr_recip_  = 1.0f / sample_rate;
  46:../../DaisySP/Source/Synthesis/oscillator.h ****         freq_      = 100.0f;
  47:../../DaisySP/Source/Synthesis/oscillator.h ****         amp_       = 0.5f;
  48:../../DaisySP/Source/Synthesis/oscillator.h ****         phase_     = 0.0f;
  49:../../DaisySP/Source/Synthesis/oscillator.h ****         phase_inc_ = CalcPhaseInc(freq_);
  50:../../DaisySP/Source/Synthesis/oscillator.h ****         waveform_  = WAVE_SIN;
  51:../../DaisySP/Source/Synthesis/oscillator.h ****         eoc_       = true;
  52:../../DaisySP/Source/Synthesis/oscillator.h ****         eor_       = true;
  53:../../DaisySP/Source/Synthesis/oscillator.h ****     }
  54:../../DaisySP/Source/Synthesis/oscillator.h **** 
  55:../../DaisySP/Source/Synthesis/oscillator.h **** 
  56:../../DaisySP/Source/Synthesis/oscillator.h ****     /** Changes the frequency of the Oscillator, and recalculates phase increment.
  57:../../DaisySP/Source/Synthesis/oscillator.h ****     */
  58:../../DaisySP/Source/Synthesis/oscillator.h ****     inline void SetFreq(const float f)
  59:../../DaisySP/Source/Synthesis/oscillator.h ****     {
  60:../../DaisySP/Source/Synthesis/oscillator.h ****         freq_      = f;
  61:../../DaisySP/Source/Synthesis/oscillator.h ****         phase_inc_ = CalcPhaseInc(f);
 414              		.loc 1 61 34 view .LVU79
 415 006a 1748     		ldr	r0, .L22+4
 416 006c B0EE480A 		vmov.f32	s0, s16
  60:../../DaisySP/Source/Synthesis/oscillator.h ****         phase_inc_ = CalcPhaseInc(f);
 417              		.loc 1 60 20 view .LVU80
 418 0070 84ED028A 		vstr.32	s16, [r4, #8]
 419              	.LBE660:
 420              	.LBE659:
 421              		.loc 16 26 31 view .LVU81
 422 0074 B0EE678A 		vmov.f32	s16, s15
 423              	.LVL25:
  27:ex_vco.cpp    ****         // Set osc params
  28:ex_vco.cpp    ****         osc.SetFreq(freq);
 424              		.loc 16 28 9 is_stmt 1 view .LVU82
 425              	.LBB663:
 426              	.LBI659:
  58:../../DaisySP/Source/Synthesis/oscillator.h ****     {
 427              		.loc 1 58 17 view .LVU83
 428              	.LBB661:
  60:../../DaisySP/Source/Synthesis/oscillator.h ****         phase_inc_ = CalcPhaseInc(f);
ARM GAS  /tmp/ccpr9r5K.s 			page 30


 429              		.loc 1 60 9 view .LVU84
 430              		.loc 1 61 9 view .LVU85
 431              		.loc 1 61 34 is_stmt 0 view .LVU86
 432 0078 FFF7FEFF 		bl	_ZN7daisysp10Oscillator12CalcPhaseIncEf
 433              	.LVL26:
 434              		.loc 1 61 34 view .LVU87
 435              	.LBE661:
 436              	.LBE663:
  25:ex_vco.cpp    ****         amp  = ampctrl.Process();
 437              		.loc 16 25 14 view .LVU88
 438 007c FCEEE87A 		vcvt.u32.f32	s15, s17
  29:ex_vco.cpp    ****         osc.SetWaveform(wave);
  30:ex_vco.cpp    ****         osc.SetAmp(amp);
  31:ex_vco.cpp    ****         //.Process
  32:ex_vco.cpp    ****         sig = osc.Process();
 439              		.loc 16 32 26 view .LVU89
 440 0080 1148     		ldr	r0, .L22+4
 441              	.LBB664:
 442              	.LBB662:
 443              		.loc 1 61 20 view .LVU90
 444 0082 84ED060A 		vstr.32	s0, [r4, #24]
 445              	.LVL27:
 446              		.loc 1 61 20 view .LVU91
 447              	.LBE662:
 448              	.LBE664:
  29:ex_vco.cpp    ****         osc.SetWaveform(wave);
 449              		.loc 16 29 9 is_stmt 1 view .LVU92
 450              	.LBB665:
 451              	.LBB666:
  62:../../DaisySP/Source/Synthesis/oscillator.h ****     }
  63:../../DaisySP/Source/Synthesis/oscillator.h **** 
  64:../../DaisySP/Source/Synthesis/oscillator.h **** 
  65:../../DaisySP/Source/Synthesis/oscillator.h ****     /** Sets the amplitude of the waveform.
  66:../../DaisySP/Source/Synthesis/oscillator.h ****     */
  67:../../DaisySP/Source/Synthesis/oscillator.h ****     inline void SetAmp(const float a) { amp_ = a; }
 452              		.loc 1 67 46 is_stmt 0 view .LVU93
 453 0086 84ED018A 		vstr.32	s16, [r4, #4]
 454              	.LBE666:
 455              	.LBE665:
  25:ex_vco.cpp    ****         amp  = ampctrl.Process();
 456              		.loc 16 25 14 view .LVU94
 457 008a CDED017A 		vstr.32	s15, [sp, #4]	@ int
  29:ex_vco.cpp    ****         osc.SetWaveform(wave);
 458              		.loc 16 29 24 view .LVU95
 459 008e 9DF80430 		ldrb	r3, [sp, #4]	@ zero_extendqisi2
 460              	.LVL28:
 461              	.LBB668:
 462              	.LBI668:
  68:../../DaisySP/Source/Synthesis/oscillator.h ****     /** Sets the waveform to be synthesized by the Process() function.
  69:../../DaisySP/Source/Synthesis/oscillator.h ****     */
  70:../../DaisySP/Source/Synthesis/oscillator.h ****     inline void SetWaveform(const uint8_t wf)
 463              		.loc 1 70 17 is_stmt 1 view .LVU96
 464              	.LBB669:
  71:../../DaisySP/Source/Synthesis/oscillator.h ****     {
  72:../../DaisySP/Source/Synthesis/oscillator.h ****         waveform_ = wf < WAVE_LAST ? wf : WAVE_SIN;
 465              		.loc 1 72 9 view .LVU97
 466              		.loc 1 72 19 is_stmt 0 view .LVU98
ARM GAS  /tmp/ccpr9r5K.s 			page 31


 467 0092 082B     		cmp	r3, #8
 468 0094 28BF     		it	cs
 469 0096 0023     		movcs	r3, #0
 470              	.LVL29:
 471              		.loc 1 72 19 view .LVU99
 472 0098 2370     		strb	r3, [r4]
 473              	.LVL30:
 474              		.loc 1 72 19 view .LVU100
 475              	.LBE669:
 476              	.LBE668:
  30:ex_vco.cpp    ****         //.Process
 477              		.loc 16 30 9 is_stmt 1 view .LVU101
 478              	.LBB670:
 479              	.LBI665:
  67:../../DaisySP/Source/Synthesis/oscillator.h ****     /** Sets the waveform to be synthesized by the Process() function.
 480              		.loc 1 67 17 view .LVU102
 481              	.LBB667:
  67:../../DaisySP/Source/Synthesis/oscillator.h ****     /** Sets the waveform to be synthesized by the Process() function.
 482              		.loc 1 67 41 view .LVU103
  67:../../DaisySP/Source/Synthesis/oscillator.h ****     /** Sets the waveform to be synthesized by the Process() function.
 483              		.loc 1 67 41 is_stmt 0 view .LVU104
 484              	.LBE667:
 485              	.LBE670:
 486              		.loc 16 32 9 is_stmt 1 view .LVU105
 487              		.loc 16 32 26 is_stmt 0 view .LVU106
 488 009a FFF7FEFF 		bl	_ZN7daisysp10Oscillator7ProcessEv
 489              	.LVL31:
 490 009e 4FEA8800 		lsl	r0, r8, #2
 491 00a2 3146     		mov	r1, r6
 492              	.LVL32:
  33:ex_vco.cpp    ****         // Assign Synthesized Waveform to all four outputs.
  34:ex_vco.cpp    ****         for(size_t chn = 0; chn < 4; chn++)
 493              		.loc 16 34 9 is_stmt 1 view .LVU107
 494              	.LBB671:
 495              		.loc 16 34 33 view .LVU108
 496              	.L14:
  35:ex_vco.cpp    ****         {
  36:ex_vco.cpp    ****             out[chn][i] = sig;
 497              		.loc 16 36 13 discriminator 2 view .LVU109
 498              		.loc 16 36 25 is_stmt 0 discriminator 2 view .LVU110
 499 00a4 51F8043F 		ldr	r3, [r1, #4]!
 500 00a8 0344     		add	r3, r3, r0
  34:ex_vco.cpp    ****         {
 501              		.loc 16 34 33 discriminator 2 view .LVU111
 502 00aa B942     		cmp	r1, r7
 503              		.loc 16 36 25 discriminator 2 view .LVU112
 504 00ac 83ED000A 		vstr.32	s0, [r3]
  34:ex_vco.cpp    ****         {
 505              		.loc 16 34 9 is_stmt 1 discriminator 2 view .LVU113
  34:ex_vco.cpp    ****         {
 506              		.loc 16 34 33 discriminator 2 view .LVU114
 507 00b0 F8D1     		bne	.L14
  34:ex_vco.cpp    ****         {
 508              		.loc 16 34 33 is_stmt 0 discriminator 2 view .LVU115
 509              	.LBE671:
 510              	.LBE652:
  21:ex_vco.cpp    ****     {
ARM GAS  /tmp/ccpr9r5K.s 			page 32


 511              		.loc 16 21 5 is_stmt 1 discriminator 2 view .LVU116
 512 00b2 08F10108 		add	r8, r8, #1
 513              	.LVL33:
  21:ex_vco.cpp    ****     {
 514              		.loc 16 21 25 discriminator 2 view .LVU117
 515 00b6 4545     		cmp	r5, r8
 516 00b8 B3D1     		bne	.L15
 517              	.LVL34:
 518              	.L11:
  21:ex_vco.cpp    ****     {
 519              		.loc 16 21 25 is_stmt 0 discriminator 2 view .LVU118
 520              	.LBE651:
  37:ex_vco.cpp    ****         }
  38:ex_vco.cpp    ****     }
  39:ex_vco.cpp    **** }
 521              		.loc 16 39 1 view .LVU119
 522 00ba 02B0     		add	sp, sp, #8
 523              		.cfi_def_cfa_offset 32
 524              		@ sp needed
 525 00bc BDEC028B 		vldm	sp!, {d8}
 526              		.cfi_restore 80
 527              		.cfi_restore 81
 528              		.cfi_def_cfa_offset 24
 529 00c0 BDE8F081 		pop	{r4, r5, r6, r7, r8, pc}
 530              	.LVL35:
 531              	.L23:
 532              		.loc 16 39 1 view .LVU120
 533              		.align	2
 534              	.L22:
 535 00c4 00000000 		.word	patch
 536 00c8 00000000 		.word	.LANCHOR4
 537 00cc 00000000 		.word	.LANCHOR0
 538 00d0 00000000 		.word	.LANCHOR1
 539 00d4 00008A42 		.word	1116340224
 540 00d8 0000DC43 		.word	1138491392
 541 00dc 00000000 		.word	.LANCHOR2
 542 00e0 00000000 		.word	.LANCHOR3
 543              		.cfi_endproc
 544              	.LFE4233:
 546              		.section	.text._ZN5daisy11OledDisplayINS_13SSD130xDriverILj128ELj64ENS_24SSD130x4WireSpiTransportE
 547              		.align	1
 548              		.p2align 2,,3
 549              		.weak	_ZN5daisy11OledDisplayINS_13SSD130xDriverILj128ELj64ENS_24SSD130x4WireSpiTransportEEEED0Ev
 550              		.syntax unified
 551              		.thumb
 552              		.thumb_func
 553              		.fpu fpv5-d16
 555              	_ZN5daisy11OledDisplayINS_13SSD130xDriverILj128ELj64ENS_24SSD130x4WireSpiTransportEEEED0Ev:
 556              	.LVL36:
 557              	.LFB4551:
  17:../../libdaisy/src/hid/disp/oled_display.h **** 
 558              		.loc 5 17 13 is_stmt 1 view -0
 559              		.cfi_startproc
 560              		@ args = 0, pretend = 0, frame = 0
 561              		@ frame_needed = 0, uses_anonymous_args = 0
  17:../../libdaisy/src/hid/disp/oled_display.h **** 
 562              		.loc 5 17 13 is_stmt 0 view .LVU122
ARM GAS  /tmp/ccpr9r5K.s 			page 33


 563 0000 10B5     		push	{r4, lr}
 564              		.cfi_def_cfa_offset 8
 565              		.cfi_offset 4, -8
 566              		.cfi_offset 14, -4
  17:../../libdaisy/src/hid/disp/oled_display.h **** 
 567              		.loc 5 17 13 view .LVU123
 568 0002 0446     		mov	r4, r0
 569              	.LVL37:
 570              	.LBB672:
 571              	.LBI672:
  17:../../libdaisy/src/hid/disp/oled_display.h **** 
 572              		.loc 5 17 13 is_stmt 1 view .LVU124
 573              	.LBB673:
 574              	.LBI673:
 575              		.loc 6 219 13 view .LVU125
 576              	.LBB674:
 577              	.LBI674:
  23:../../libdaisy/src/hid/disp/display.h **** 
 578              		.loc 6 23 13 view .LVU126
  23:../../libdaisy/src/hid/disp/display.h **** 
 579              		.loc 6 23 13 is_stmt 0 view .LVU127
 580              	.LBE674:
 581              	.LBE673:
 582              	.LBE672:
  17:../../libdaisy/src/hid/disp/oled_display.h **** 
 583              		.loc 5 17 29 view .LVU128
 584 0004 40F21441 		movw	r1, #1044
 585 0008 FFF7FEFF 		bl	_ZdlPvj
 586              	.LVL38:
  17:../../libdaisy/src/hid/disp/oled_display.h **** 
 587              		.loc 5 17 29 view .LVU129
 588 000c 2046     		mov	r0, r4
 589 000e 10BD     		pop	{r4, pc}
  17:../../libdaisy/src/hid/disp/oled_display.h **** 
 590              		.loc 5 17 29 view .LVU130
 591              		.cfi_endproc
 592              	.LFE4551:
 594              		.section	.text._ZN5daisy11OledDisplayINS_13SSD130xDriverILj128ELj64ENS_24SSD130x4WireSpiTransportE
 595              		.align	1
 596              		.p2align 2,,3
 597              		.weak	_ZN5daisy11OledDisplayINS_13SSD130xDriverILj128ELj64ENS_24SSD130x4WireSpiTransportEEEE6Updat
 598              		.syntax unified
 599              		.thumb
 600              		.thumb_func
 601              		.fpu fpv5-d16
 603              	_ZN5daisy11OledDisplayINS_13SSD130xDriverILj128ELj64ENS_24SSD130x4WireSpiTransportEEEE6UpdateEv:
 604              	.LVL39:
 605              	.LFB4554:
  34:../../libdaisy/src/hid/disp/oled_display.h **** 
  35:../../libdaisy/src/hid/disp/oled_display.h ****     /**
  36:../../libdaisy/src/hid/disp/oled_display.h ****     Sets the pixel at the specified coordinate to be on/off.
  37:../../libdaisy/src/hid/disp/oled_display.h ****     \param x   x Coordinate
  38:../../libdaisy/src/hid/disp/oled_display.h ****     \param y   y coordinate
  39:../../libdaisy/src/hid/disp/oled_display.h ****     \param on  on or off
  40:../../libdaisy/src/hid/disp/oled_display.h ****     */
  41:../../libdaisy/src/hid/disp/oled_display.h ****     void DrawPixel(uint_fast8_t x, uint_fast8_t y, bool on) override
  42:../../libdaisy/src/hid/disp/oled_display.h ****     {
ARM GAS  /tmp/ccpr9r5K.s 			page 34


  43:../../libdaisy/src/hid/disp/oled_display.h ****         driver_.DrawPixel(x, y, on);
  44:../../libdaisy/src/hid/disp/oled_display.h ****     }
  45:../../libdaisy/src/hid/disp/oled_display.h **** 
  46:../../libdaisy/src/hid/disp/oled_display.h ****     /** 
  47:../../libdaisy/src/hid/disp/oled_display.h ****     Writes the current display buffer to the OLED device using SPI or I2C depending on 
  48:../../libdaisy/src/hid/disp/oled_display.h ****     how the object was initialized.
  49:../../libdaisy/src/hid/disp/oled_display.h ****     */
  50:../../libdaisy/src/hid/disp/oled_display.h ****     void Update() override { driver_.Update(); }
 606              		.loc 5 50 10 is_stmt 1 view -0
 607              		.cfi_startproc
 608              		@ args = 0, pretend = 0, frame = 8
 609              		@ frame_needed = 0, uses_anonymous_args = 0
 610              	.LBB685:
 611              	.LBI685:
 254:../../libdaisy/src/dev/oled_ssd130x.h ****         }
 255:../../libdaisy/src/dev/oled_ssd130x.h ****     };
 256:../../libdaisy/src/dev/oled_ssd130x.h **** 
 257:../../libdaisy/src/dev/oled_ssd130x.h ****     /**
 258:../../libdaisy/src/dev/oled_ssd130x.h ****      * Update the display 
 259:../../libdaisy/src/dev/oled_ssd130x.h ****     */
 260:../../libdaisy/src/dev/oled_ssd130x.h ****     void Update()
 612              		.loc 15 260 10 view .LVU132
 613              	.LBB686:
 261:../../libdaisy/src/dev/oled_ssd130x.h ****     {
 262:../../libdaisy/src/dev/oled_ssd130x.h ****         uint8_t i;
 263:../../libdaisy/src/dev/oled_ssd130x.h ****         uint8_t high_column_addr;
 264:../../libdaisy/src/dev/oled_ssd130x.h ****         switch(height)
 265:../../libdaisy/src/dev/oled_ssd130x.h ****         {
 266:../../libdaisy/src/dev/oled_ssd130x.h ****             case 32: high_column_addr = 0x12; break;
 267:../../libdaisy/src/dev/oled_ssd130x.h **** 
 268:../../libdaisy/src/dev/oled_ssd130x.h ****             default: high_column_addr = 0x10; break;
 269:../../libdaisy/src/dev/oled_ssd130x.h ****         }
 270:../../libdaisy/src/dev/oled_ssd130x.h ****         for(i = 0; i < (height / 8); i++)
 614              		.loc 15 270 22 view .LVU133
 615              	.LBE686:
 616              	.LBE685:
 617              		.loc 5 50 10 is_stmt 0 view .LVU134
 618 0000 2DE9F041 		push	{r4, r5, r6, r7, r8, lr}
 619              		.cfi_def_cfa_offset 24
 620              		.cfi_offset 4, -24
 621              		.cfi_offset 5, -20
 622              		.cfi_offset 6, -16
 623              		.cfi_offset 7, -12
 624              		.cfi_offset 8, -8
 625              		.cfi_offset 14, -4
 626 0004 B025     		movs	r5, #176
 627 0006 82B0     		sub	sp, sp, #8
 628              		.cfi_def_cfa_offset 32
 629 0008 00F10807 		add	r7, r0, #8
 630 000c 00F11006 		add	r6, r0, #16
 631 0010 00F11404 		add	r4, r0, #20
 632              	.LVL40:
 633              	.L27:
 634              	.LBB699:
 635              	.LBB698:
 636              	.LBB687:
 637              	.LBB688:
ARM GAS  /tmp/ccpr9r5K.s 			page 35


 111:../../libdaisy/src/dev/oled_ssd130x.h ****         spi_.BlockingTransmit(&cmd, 1);
 638              		.loc 15 111 23 view .LVU135
 639 0014 0021     		movs	r1, #0
 640 0016 3046     		mov	r0, r6
 641 0018 8DF80750 		strb	r5, [sp, #7]
 642              	.LVL41:
 111:../../libdaisy/src/dev/oled_ssd130x.h ****         spi_.BlockingTransmit(&cmd, 1);
 643              		.loc 15 111 23 view .LVU136
 644              	.LBE688:
 645              	.LBI687:
 109:../../libdaisy/src/dev/oled_ssd130x.h ****     {
 646              		.loc 15 109 10 is_stmt 1 view .LVU137
 647              	.LBB689:
 111:../../libdaisy/src/dev/oled_ssd130x.h ****         spi_.BlockingTransmit(&cmd, 1);
 648              		.loc 15 111 9 view .LVU138
 649 001c 0135     		adds	r5, r5, #1
 650              	.LVL42:
 111:../../libdaisy/src/dev/oled_ssd130x.h ****         spi_.BlockingTransmit(&cmd, 1);
 651              		.loc 15 111 9 is_stmt 0 view .LVU139
 652 001e 8846     		mov	r8, r1
 111:../../libdaisy/src/dev/oled_ssd130x.h ****         spi_.BlockingTransmit(&cmd, 1);
 653              		.loc 15 111 23 view .LVU140
 654 0020 FFF7FEFF 		bl	dsy_gpio_write
 655              	.LVL43:
 112:../../libdaisy/src/dev/oled_ssd130x.h ****     };
 656              		.loc 15 112 9 is_stmt 1 view .LVU141
 112:../../libdaisy/src/dev/oled_ssd130x.h ****     };
 657              		.loc 15 112 30 is_stmt 0 view .LVU142
 658 0024 6423     		movs	r3, #100
 659 0026 0122     		movs	r2, #1
 660 0028 0DF10701 		add	r1, sp, #7
 661 002c 3846     		mov	r0, r7
 662 002e FFF7FEFF 		bl	_ZN5daisy9SpiHandle16BlockingTransmitEPhjm
 663              	.LVL44:
 112:../../libdaisy/src/dev/oled_ssd130x.h ****     };
 664              		.loc 15 112 30 view .LVU143
 665              	.LBE689:
 666              	.LBE687:
 667              	.LBB690:
 668              	.LBB691:
 111:../../libdaisy/src/dev/oled_ssd130x.h ****         spi_.BlockingTransmit(&cmd, 1);
 669              		.loc 15 111 23 view .LVU144
 670 0032 4146     		mov	r1, r8
 671 0034 3046     		mov	r0, r6
 672 0036 8DF80780 		strb	r8, [sp, #7]
 673              	.LVL45:
 111:../../libdaisy/src/dev/oled_ssd130x.h ****         spi_.BlockingTransmit(&cmd, 1);
 674              		.loc 15 111 23 view .LVU145
 675              	.LBE691:
 676              	.LBI690:
 109:../../libdaisy/src/dev/oled_ssd130x.h ****     {
 677              		.loc 15 109 10 is_stmt 1 view .LVU146
 678              	.LBB692:
 111:../../libdaisy/src/dev/oled_ssd130x.h ****         spi_.BlockingTransmit(&cmd, 1);
 679              		.loc 15 111 9 view .LVU147
 111:../../libdaisy/src/dev/oled_ssd130x.h ****         spi_.BlockingTransmit(&cmd, 1);
 680              		.loc 15 111 23 is_stmt 0 view .LVU148
ARM GAS  /tmp/ccpr9r5K.s 			page 36


 681 003a FFF7FEFF 		bl	dsy_gpio_write
 682              	.LVL46:
 112:../../libdaisy/src/dev/oled_ssd130x.h ****     };
 683              		.loc 15 112 9 is_stmt 1 view .LVU149
 112:../../libdaisy/src/dev/oled_ssd130x.h ****     };
 684              		.loc 15 112 30 is_stmt 0 view .LVU150
 685 003e 0122     		movs	r2, #1
 686 0040 6423     		movs	r3, #100
 687 0042 0DF10701 		add	r1, sp, #7
 688 0046 3846     		mov	r0, r7
 689 0048 EDB2     		uxtb	r5, r5
 690 004a FFF7FEFF 		bl	_ZN5daisy9SpiHandle16BlockingTransmitEPhjm
 691              	.LVL47:
 112:../../libdaisy/src/dev/oled_ssd130x.h ****     };
 692              		.loc 15 112 30 view .LVU151
 693 004e 1023     		movs	r3, #16
 694              	.LBE692:
 695              	.LBE690:
 696              	.LBB693:
 697              	.LBB694:
 111:../../libdaisy/src/dev/oled_ssd130x.h ****         spi_.BlockingTransmit(&cmd, 1);
 698              		.loc 15 111 23 view .LVU152
 699 0050 4146     		mov	r1, r8
 700 0052 3046     		mov	r0, r6
 701 0054 8DF80730 		strb	r3, [sp, #7]
 702              	.LVL48:
 111:../../libdaisy/src/dev/oled_ssd130x.h ****         spi_.BlockingTransmit(&cmd, 1);
 703              		.loc 15 111 23 view .LVU153
 704              	.LBE694:
 705              	.LBI693:
 109:../../libdaisy/src/dev/oled_ssd130x.h ****     {
 706              		.loc 15 109 10 is_stmt 1 view .LVU154
 707              	.LBB695:
 111:../../libdaisy/src/dev/oled_ssd130x.h ****         spi_.BlockingTransmit(&cmd, 1);
 708              		.loc 15 111 9 view .LVU155
 111:../../libdaisy/src/dev/oled_ssd130x.h ****         spi_.BlockingTransmit(&cmd, 1);
 709              		.loc 15 111 23 is_stmt 0 view .LVU156
 710 0058 FFF7FEFF 		bl	dsy_gpio_write
 711              	.LVL49:
 112:../../libdaisy/src/dev/oled_ssd130x.h ****     };
 712              		.loc 15 112 9 is_stmt 1 view .LVU157
 112:../../libdaisy/src/dev/oled_ssd130x.h ****     };
 713              		.loc 15 112 30 is_stmt 0 view .LVU158
 714 005c 6423     		movs	r3, #100
 715 005e 0122     		movs	r2, #1
 716 0060 0DF10701 		add	r1, sp, #7
 717 0064 3846     		mov	r0, r7
 718 0066 FFF7FEFF 		bl	_ZN5daisy9SpiHandle16BlockingTransmitEPhjm
 719              	.LVL50:
 112:../../libdaisy/src/dev/oled_ssd130x.h ****     };
 720              		.loc 15 112 30 view .LVU159
 721              	.LBE695:
 722              	.LBE693:
 723              	.LBB696:
 724              	.LBI696:
 115:../../libdaisy/src/dev/oled_ssd130x.h ****     {
 725              		.loc 15 115 10 is_stmt 1 view .LVU160
ARM GAS  /tmp/ccpr9r5K.s 			page 37


 726              	.LBB697:
 117:../../libdaisy/src/dev/oled_ssd130x.h ****         spi_.BlockingTransmit(buff, size);
 727              		.loc 15 117 9 view .LVU161
 117:../../libdaisy/src/dev/oled_ssd130x.h ****         spi_.BlockingTransmit(buff, size);
 728              		.loc 15 117 23 is_stmt 0 view .LVU162
 729 006a 0121     		movs	r1, #1
 730 006c 3046     		mov	r0, r6
 731 006e FFF7FEFF 		bl	dsy_gpio_write
 732              	.LVL51:
 118:../../libdaisy/src/dev/oled_ssd130x.h ****     };
 733              		.loc 15 118 9 is_stmt 1 view .LVU163
 118:../../libdaisy/src/dev/oled_ssd130x.h ****     };
 734              		.loc 15 118 30 is_stmt 0 view .LVU164
 735 0072 8022     		movs	r2, #128
 736 0074 2146     		mov	r1, r4
 737 0076 6423     		movs	r3, #100
 738 0078 3846     		mov	r0, r7
 739 007a 1444     		add	r4, r4, r2
 740              	.LVL52:
 118:../../libdaisy/src/dev/oled_ssd130x.h ****     };
 741              		.loc 15 118 30 view .LVU165
 742 007c FFF7FEFF 		bl	_ZN5daisy9SpiHandle16BlockingTransmitEPhjm
 743              	.LVL53:
 118:../../libdaisy/src/dev/oled_ssd130x.h ****     };
 744              		.loc 15 118 30 view .LVU166
 745              	.LBE697:
 746              	.LBE696:
 747              		.loc 15 270 9 is_stmt 1 view .LVU167
 748              		.loc 15 270 22 view .LVU168
 749 0080 B82D     		cmp	r5, #184
 750 0082 C7D1     		bne	.L27
 751              	.LBE698:
 752              	.LBE699:
 753              		.loc 5 50 48 is_stmt 0 view .LVU169
 754 0084 02B0     		add	sp, sp, #8
 755              		.cfi_def_cfa_offset 24
 756              		@ sp needed
 757 0086 BDE8F081 		pop	{r4, r5, r6, r7, r8, pc}
 758              		.loc 5 50 48 view .LVU170
 759              		.cfi_endproc
 760              	.LFE4554:
 762 008a 00BF     		.section	.text._ZN5daisy25OneBitGraphicsDisplayImplINS_11OledDisplayINS_13SSD130xDriverILj128ELj64
 763              		.align	1
 764              		.p2align 2,,3
 765              		.weak	_ZN5daisy25OneBitGraphicsDisplayImplINS_11OledDisplayINS_13SSD130xDriverILj128ELj64ENS_24SSD
 766              		.syntax unified
 767              		.thumb
 768              		.thumb_func
 769              		.fpu fpv5-d16
 771              	_ZN5daisy25OneBitGraphicsDisplayImplINS_11OledDisplayINS_13SSD130xDriverILj128ELj64ENS_24SSD130x4Wi
 772              	.LVL54:
 773              	.LFB4553:
 220:../../libdaisy/src/hid/disp/display.h **** 
 221:../../libdaisy/src/hid/disp/display.h ****     void DrawLine(uint_fast8_t x1,
 222:../../libdaisy/src/hid/disp/display.h ****                   uint_fast8_t y1,
 223:../../libdaisy/src/hid/disp/display.h ****                   uint_fast8_t x2,
 224:../../libdaisy/src/hid/disp/display.h ****                   uint_fast8_t y2,
ARM GAS  /tmp/ccpr9r5K.s 			page 38


 225:../../libdaisy/src/hid/disp/display.h ****                   bool         on) override
 226:../../libdaisy/src/hid/disp/display.h ****     {
 227:../../libdaisy/src/hid/disp/display.h ****         int_fast16_t deltaX = abs((int_fast16_t)x2 - (int_fast16_t)x1);
 228:../../libdaisy/src/hid/disp/display.h ****         int_fast16_t deltaY = abs((int_fast16_t)y2 - (int_fast16_t)y1);
 229:../../libdaisy/src/hid/disp/display.h ****         int_fast16_t signX  = ((x1 < x2) ? 1 : -1);
 230:../../libdaisy/src/hid/disp/display.h ****         int_fast16_t signY  = ((y1 < y2) ? 1 : -1);
 231:../../libdaisy/src/hid/disp/display.h ****         int_fast16_t error  = deltaX - deltaY;
 232:../../libdaisy/src/hid/disp/display.h ****         int_fast16_t error2;
 233:../../libdaisy/src/hid/disp/display.h **** 
 234:../../libdaisy/src/hid/disp/display.h ****         // If we write "ChildType::DrawPixel(x2, y2, on);", we end up with
 235:../../libdaisy/src/hid/disp/display.h ****         // all sorts of weird compiler errors when the Child class is a template
 236:../../libdaisy/src/hid/disp/display.h ****         // class. The only way around this is to use this very verbose syntax:
 237:../../libdaisy/src/hid/disp/display.h ****         ((ChildType*)(this))->ChildType::DrawPixel(x2, y2, on);
 238:../../libdaisy/src/hid/disp/display.h **** 
 239:../../libdaisy/src/hid/disp/display.h ****         while((x1 != x2) || (y1 != y2))
 240:../../libdaisy/src/hid/disp/display.h ****         {
 241:../../libdaisy/src/hid/disp/display.h ****             ((ChildType*)(this))->ChildType::DrawPixel(x1, y1, on);
 242:../../libdaisy/src/hid/disp/display.h ****             error2 = error * 2;
 243:../../libdaisy/src/hid/disp/display.h ****             if(error2 > -deltaY)
 244:../../libdaisy/src/hid/disp/display.h ****             {
 245:../../libdaisy/src/hid/disp/display.h ****                 error -= deltaY;
 246:../../libdaisy/src/hid/disp/display.h ****                 x1 += signX;
 247:../../libdaisy/src/hid/disp/display.h ****             }
 248:../../libdaisy/src/hid/disp/display.h **** 
 249:../../libdaisy/src/hid/disp/display.h ****             if(error2 < deltaX)
 250:../../libdaisy/src/hid/disp/display.h ****             {
 251:../../libdaisy/src/hid/disp/display.h ****                 error += deltaX;
 252:../../libdaisy/src/hid/disp/display.h ****                 y1 += signY;
 253:../../libdaisy/src/hid/disp/display.h ****             }
 254:../../libdaisy/src/hid/disp/display.h ****         }
 255:../../libdaisy/src/hid/disp/display.h ****     }
 256:../../libdaisy/src/hid/disp/display.h **** 
 257:../../libdaisy/src/hid/disp/display.h ****     void DrawRect(uint_fast8_t x1,
 258:../../libdaisy/src/hid/disp/display.h ****                   uint_fast8_t y1,
 259:../../libdaisy/src/hid/disp/display.h ****                   uint_fast8_t x2,
 260:../../libdaisy/src/hid/disp/display.h ****                   uint_fast8_t y2,
 261:../../libdaisy/src/hid/disp/display.h ****                   bool         on,
 262:../../libdaisy/src/hid/disp/display.h ****                   bool         fill = false) override
 263:../../libdaisy/src/hid/disp/display.h ****     {
 264:../../libdaisy/src/hid/disp/display.h ****         if(fill)
 265:../../libdaisy/src/hid/disp/display.h ****         {
 266:../../libdaisy/src/hid/disp/display.h ****             for(uint_fast8_t x = x1; x <= x2; x++)
 267:../../libdaisy/src/hid/disp/display.h ****             {
 268:../../libdaisy/src/hid/disp/display.h ****                 for(uint_fast8_t y = y1; y <= y2; y++)
 269:../../libdaisy/src/hid/disp/display.h ****                 {
 270:../../libdaisy/src/hid/disp/display.h ****                     ((ChildType*)(this))->ChildType::DrawPixel(x, y, on);
 271:../../libdaisy/src/hid/disp/display.h ****                 }
 272:../../libdaisy/src/hid/disp/display.h ****             }
 273:../../libdaisy/src/hid/disp/display.h ****         }
 274:../../libdaisy/src/hid/disp/display.h ****         else
 275:../../libdaisy/src/hid/disp/display.h ****         {
 276:../../libdaisy/src/hid/disp/display.h ****             ((ChildType*)(this))->ChildType::DrawLine(x1, y1, x2, y1, on);
 277:../../libdaisy/src/hid/disp/display.h ****             ((ChildType*)(this))->ChildType::DrawLine(x2, y1, x2, y2, on);
 278:../../libdaisy/src/hid/disp/display.h ****             ((ChildType*)(this))->ChildType::DrawLine(x2, y2, x1, y2, on);
 279:../../libdaisy/src/hid/disp/display.h ****             ((ChildType*)(this))->ChildType::DrawLine(x1, y2, x1, y1, on);
 280:../../libdaisy/src/hid/disp/display.h ****         }
 281:../../libdaisy/src/hid/disp/display.h ****     }
ARM GAS  /tmp/ccpr9r5K.s 			page 39


 282:../../libdaisy/src/hid/disp/display.h **** 
 283:../../libdaisy/src/hid/disp/display.h ****     void DrawArc(uint_fast8_t x,
 284:../../libdaisy/src/hid/disp/display.h ****                  uint_fast8_t y,
 285:../../libdaisy/src/hid/disp/display.h ****                  uint_fast8_t radius,
 286:../../libdaisy/src/hid/disp/display.h ****                  int_fast16_t start_angle,
 287:../../libdaisy/src/hid/disp/display.h ****                  int_fast16_t sweep,
 288:../../libdaisy/src/hid/disp/display.h ****                  bool         on) override
 289:../../libdaisy/src/hid/disp/display.h ****     {
 290:../../libdaisy/src/hid/disp/display.h ****         // Values to calculate the circle
 291:../../libdaisy/src/hid/disp/display.h ****         int_fast16_t t_x, t_y, err, e2;
 292:../../libdaisy/src/hid/disp/display.h **** 
 293:../../libdaisy/src/hid/disp/display.h ****         // Temporary values to speed up comparisons
 294:../../libdaisy/src/hid/disp/display.h ****         float t_sxy, t_syx, t_sxny, t_synx;
 295:../../libdaisy/src/hid/disp/display.h ****         float t_exy, t_eyx, t_exny, t_eynx;
 296:../../libdaisy/src/hid/disp/display.h **** 
 297:../../libdaisy/src/hid/disp/display.h ****         float start_angle_rad, end_angle_rad;
 298:../../libdaisy/src/hid/disp/display.h ****         float start_x, start_y, end_x, end_y;
 299:../../libdaisy/src/hid/disp/display.h **** 
 300:../../libdaisy/src/hid/disp/display.h ****         bool d1, d2, d3, d4;
 301:../../libdaisy/src/hid/disp/display.h **** 
 302:../../libdaisy/src/hid/disp/display.h ****         d1 = d2 = d3 = d4 = true;
 303:../../libdaisy/src/hid/disp/display.h **** 
 304:../../libdaisy/src/hid/disp/display.h ****         bool circle = false;
 305:../../libdaisy/src/hid/disp/display.h **** 
 306:../../libdaisy/src/hid/disp/display.h ****         if(sweep < 0)
 307:../../libdaisy/src/hid/disp/display.h ****         {
 308:../../libdaisy/src/hid/disp/display.h ****             start_angle += sweep;
 309:../../libdaisy/src/hid/disp/display.h ****             sweep = -sweep;
 310:../../libdaisy/src/hid/disp/display.h ****         }
 311:../../libdaisy/src/hid/disp/display.h **** 
 312:../../libdaisy/src/hid/disp/display.h ****         start_angle_rad = deg2rad(start_angle);
 313:../../libdaisy/src/hid/disp/display.h ****         end_angle_rad   = deg2rad(start_angle + sweep);
 314:../../libdaisy/src/hid/disp/display.h **** 
 315:../../libdaisy/src/hid/disp/display.h ****         start_x = cos(start_angle_rad) * radius;
 316:../../libdaisy/src/hid/disp/display.h ****         start_y = -sin(start_angle_rad) * radius;
 317:../../libdaisy/src/hid/disp/display.h ****         end_x   = cos(end_angle_rad) * radius;
 318:../../libdaisy/src/hid/disp/display.h ****         end_y   = -sin(end_angle_rad) * radius;
 319:../../libdaisy/src/hid/disp/display.h **** 
 320:../../libdaisy/src/hid/disp/display.h ****         // Check if start and endpoint are very near
 321:../../libdaisy/src/hid/disp/display.h ****         if((end_x - start_x) * (end_x - start_x)
 322:../../libdaisy/src/hid/disp/display.h ****                + (end_y - start_y) * (end_y - start_y)
 323:../../libdaisy/src/hid/disp/display.h ****            < 2.0f)
 324:../../libdaisy/src/hid/disp/display.h ****         {
 325:../../libdaisy/src/hid/disp/display.h ****             if(sweep > 180)
 326:../../libdaisy/src/hid/disp/display.h ****                 circle = true;
 327:../../libdaisy/src/hid/disp/display.h ****             else
 328:../../libdaisy/src/hid/disp/display.h ****                 // Nothing to draw
 329:../../libdaisy/src/hid/disp/display.h ****                 return;
 330:../../libdaisy/src/hid/disp/display.h ****         }
 331:../../libdaisy/src/hid/disp/display.h **** 
 332:../../libdaisy/src/hid/disp/display.h ****         t_x = -radius;
 333:../../libdaisy/src/hid/disp/display.h ****         t_y = 0;
 334:../../libdaisy/src/hid/disp/display.h ****         err = 2 - 2 * radius;
 335:../../libdaisy/src/hid/disp/display.h **** 
 336:../../libdaisy/src/hid/disp/display.h ****         do
 337:../../libdaisy/src/hid/disp/display.h ****         {
 338:../../libdaisy/src/hid/disp/display.h ****             if(!circle)
ARM GAS  /tmp/ccpr9r5K.s 			page 40


 339:../../libdaisy/src/hid/disp/display.h ****             {
 340:../../libdaisy/src/hid/disp/display.h ****                 t_sxy  = start_x * t_y;
 341:../../libdaisy/src/hid/disp/display.h ****                 t_syx  = start_y * t_x;
 342:../../libdaisy/src/hid/disp/display.h ****                 t_sxny = start_x * -t_y;
 343:../../libdaisy/src/hid/disp/display.h ****                 t_synx = start_y * -t_x;
 344:../../libdaisy/src/hid/disp/display.h ****                 t_exy  = end_x * t_y;
 345:../../libdaisy/src/hid/disp/display.h ****                 t_eyx  = end_y * t_x;
 346:../../libdaisy/src/hid/disp/display.h ****                 t_exny = end_x * -t_y;
 347:../../libdaisy/src/hid/disp/display.h ****                 t_eynx = end_y * -t_x;
 348:../../libdaisy/src/hid/disp/display.h **** 
 349:../../libdaisy/src/hid/disp/display.h ****                 if(sweep > 180)
 350:../../libdaisy/src/hid/disp/display.h ****                 {
 351:../../libdaisy/src/hid/disp/display.h ****                     d1 = (t_sxy - t_synx < 0 || t_exy - t_eynx > 0);
 352:../../libdaisy/src/hid/disp/display.h ****                     d2 = (t_sxy - t_syx < 0 || t_exy - t_eyx > 0);
 353:../../libdaisy/src/hid/disp/display.h ****                     d3 = (t_sxny - t_syx < 0 || t_exny - t_eyx > 0);
 354:../../libdaisy/src/hid/disp/display.h ****                     d4 = (t_sxny - t_synx < 0 || t_exny - t_eynx > 0);
 355:../../libdaisy/src/hid/disp/display.h ****                 }
 356:../../libdaisy/src/hid/disp/display.h ****                 else
 357:../../libdaisy/src/hid/disp/display.h ****                 {
 358:../../libdaisy/src/hid/disp/display.h ****                     d1 = (t_sxy - t_synx < 0 && t_exy - t_eynx > 0);
 359:../../libdaisy/src/hid/disp/display.h ****                     d2 = (t_sxy - t_syx < 0 && t_exy - t_eyx > 0);
 360:../../libdaisy/src/hid/disp/display.h ****                     d3 = (t_sxny - t_syx < 0 && t_exny - t_eyx > 0);
 361:../../libdaisy/src/hid/disp/display.h ****                     d4 = (t_sxny - t_synx < 0 && t_exny - t_eynx > 0);
 362:../../libdaisy/src/hid/disp/display.h ****                 }
 363:../../libdaisy/src/hid/disp/display.h ****             }
 364:../../libdaisy/src/hid/disp/display.h **** 
 365:../../libdaisy/src/hid/disp/display.h ****             if(d1)
 366:../../libdaisy/src/hid/disp/display.h ****                 ((ChildType*)(this))
 367:../../libdaisy/src/hid/disp/display.h ****                     ->ChildType::DrawPixel(x - t_x, y + t_y, on);
 368:../../libdaisy/src/hid/disp/display.h ****             if(d2)
 369:../../libdaisy/src/hid/disp/display.h ****                 ((ChildType*)(this))
 370:../../libdaisy/src/hid/disp/display.h ****                     ->ChildType::DrawPixel(x + t_x, y + t_y, on);
 371:../../libdaisy/src/hid/disp/display.h ****             if(d3)
 372:../../libdaisy/src/hid/disp/display.h ****                 ((ChildType*)(this))
 373:../../libdaisy/src/hid/disp/display.h ****                     ->ChildType::DrawPixel(x + t_x, y - t_y, on);
 374:../../libdaisy/src/hid/disp/display.h ****             if(d4)
 375:../../libdaisy/src/hid/disp/display.h ****                 ((ChildType*)(this))
 376:../../libdaisy/src/hid/disp/display.h ****                     ->ChildType::DrawPixel(x - t_x, y - t_y, on);
 377:../../libdaisy/src/hid/disp/display.h **** 
 378:../../libdaisy/src/hid/disp/display.h ****             e2 = err;
 379:../../libdaisy/src/hid/disp/display.h ****             if(e2 <= t_y)
 380:../../libdaisy/src/hid/disp/display.h ****             {
 381:../../libdaisy/src/hid/disp/display.h ****                 t_y++;
 382:../../libdaisy/src/hid/disp/display.h ****                 err = err + (t_y * 2 + 1);
 383:../../libdaisy/src/hid/disp/display.h ****                 if(-t_x == t_y && e2 <= t_x)
 384:../../libdaisy/src/hid/disp/display.h ****                 {
 385:../../libdaisy/src/hid/disp/display.h ****                     e2 = 0;
 386:../../libdaisy/src/hid/disp/display.h ****                 }
 387:../../libdaisy/src/hid/disp/display.h ****             }
 388:../../libdaisy/src/hid/disp/display.h ****             if(e2 > t_x)
 389:../../libdaisy/src/hid/disp/display.h ****             {
 390:../../libdaisy/src/hid/disp/display.h ****                 t_x++;
 391:../../libdaisy/src/hid/disp/display.h ****                 err = err + (t_x * 2 + 1);
 392:../../libdaisy/src/hid/disp/display.h ****             }
 393:../../libdaisy/src/hid/disp/display.h ****         } while(t_x <= 0);
 394:../../libdaisy/src/hid/disp/display.h ****     }
 395:../../libdaisy/src/hid/disp/display.h **** 
ARM GAS  /tmp/ccpr9r5K.s 			page 41


 396:../../libdaisy/src/hid/disp/display.h ****     char WriteChar(char ch, FontDef font, bool on) override
 397:../../libdaisy/src/hid/disp/display.h ****     {
 398:../../libdaisy/src/hid/disp/display.h ****         uint32_t i, b, j;
 399:../../libdaisy/src/hid/disp/display.h **** 
 400:../../libdaisy/src/hid/disp/display.h ****         // Check if character is valid
 401:../../libdaisy/src/hid/disp/display.h ****         if(ch < 32 || ch > 126)
 402:../../libdaisy/src/hid/disp/display.h ****             return 0;
 403:../../libdaisy/src/hid/disp/display.h **** 
 404:../../libdaisy/src/hid/disp/display.h ****         // Check remaining space on current line
 405:../../libdaisy/src/hid/disp/display.h ****         if(Width() < (currentX_ + font.FontWidth)
 406:../../libdaisy/src/hid/disp/display.h ****            || Height() < (currentY_ + font.FontHeight))
 407:../../libdaisy/src/hid/disp/display.h ****         {
 408:../../libdaisy/src/hid/disp/display.h ****             // Not enough space on current line
 409:../../libdaisy/src/hid/disp/display.h ****             return 0;
 410:../../libdaisy/src/hid/disp/display.h ****         }
 411:../../libdaisy/src/hid/disp/display.h **** 
 412:../../libdaisy/src/hid/disp/display.h ****         // Use the font to write
 413:../../libdaisy/src/hid/disp/display.h ****         for(i = 0; i < font.FontHeight; i++)
 414:../../libdaisy/src/hid/disp/display.h ****         {
 415:../../libdaisy/src/hid/disp/display.h ****             b = font.data[(ch - 32) * font.FontHeight + i];
 416:../../libdaisy/src/hid/disp/display.h ****             for(j = 0; j < font.FontWidth; j++)
 417:../../libdaisy/src/hid/disp/display.h ****             {
 418:../../libdaisy/src/hid/disp/display.h ****                 if((b << j) & 0x8000)
 419:../../libdaisy/src/hid/disp/display.h ****                 {
 420:../../libdaisy/src/hid/disp/display.h ****                     ((ChildType*)(this))
 421:../../libdaisy/src/hid/disp/display.h ****                         ->ChildType::DrawPixel(
 422:../../libdaisy/src/hid/disp/display.h ****                             currentX_ + j, (currentY_ + i), on);
 423:../../libdaisy/src/hid/disp/display.h ****                 }
 424:../../libdaisy/src/hid/disp/display.h ****                 else
 425:../../libdaisy/src/hid/disp/display.h ****                 {
 426:../../libdaisy/src/hid/disp/display.h ****                     ((ChildType*)(this))
 427:../../libdaisy/src/hid/disp/display.h ****                         ->ChildType::DrawPixel(
 428:../../libdaisy/src/hid/disp/display.h ****                             currentX_ + j, (currentY_ + i), !on);
 429:../../libdaisy/src/hid/disp/display.h ****                 }
 430:../../libdaisy/src/hid/disp/display.h ****             }
 431:../../libdaisy/src/hid/disp/display.h ****         }
 432:../../libdaisy/src/hid/disp/display.h **** 
 433:../../libdaisy/src/hid/disp/display.h ****         // The current space is now taken
 434:../../libdaisy/src/hid/disp/display.h ****         SetCursor(currentX_ + font.FontWidth, currentY_);
 435:../../libdaisy/src/hid/disp/display.h **** 
 436:../../libdaisy/src/hid/disp/display.h ****         // Return written char for validation
 437:../../libdaisy/src/hid/disp/display.h ****         return ch;
 438:../../libdaisy/src/hid/disp/display.h ****     }
 439:../../libdaisy/src/hid/disp/display.h **** 
 440:../../libdaisy/src/hid/disp/display.h ****     char WriteString(const char* str, FontDef font, bool on) override
 774              		.loc 6 440 10 is_stmt 1 view -0
 775              		.cfi_startproc
 776              		@ args = 4, pretend = 0, frame = 32
 777              		@ frame_needed = 0, uses_anonymous_args = 0
 778              		.loc 6 440 10 is_stmt 0 view .LVU172
 779 0000 2DE9F04F 		push	{r4, r5, r6, r7, r8, r9, r10, fp, lr}
 780              		.cfi_def_cfa_offset 36
 781              		.cfi_offset 4, -36
 782              		.cfi_offset 5, -32
 783              		.cfi_offset 6, -28
 784              		.cfi_offset 7, -24
 785              		.cfi_offset 8, -20
ARM GAS  /tmp/ccpr9r5K.s 			page 42


 786              		.cfi_offset 9, -16
 787              		.cfi_offset 10, -12
 788              		.cfi_offset 11, -8
 789              		.cfi_offset 14, -4
 790 0004 89B0     		sub	sp, sp, #36
 791              		.cfi_def_cfa_offset 72
 792              		.loc 6 440 10 view .LVU173
 793 0006 8B46     		mov	fp, r1
 441:../../libdaisy/src/hid/disp/display.h ****     {
 442:../../libdaisy/src/hid/disp/display.h ****         // Write until null-byte
 443:../../libdaisy/src/hid/disp/display.h ****         while(*str)
 794              		.loc 6 443 9 is_stmt 1 view .LVU174
 795 0008 91F80090 		ldrb	r9, [r1]	@ zero_extendqisi2
 440:../../libdaisy/src/hid/disp/display.h ****     {
 796              		.loc 6 440 10 is_stmt 0 view .LVU175
 797 000c 9DF84840 		ldrb	r4, [sp, #72]	@ zero_extendqisi2
 798 0010 08A9     		add	r1, sp, #32
 799              	.LVL55:
 440:../../libdaisy/src/hid/disp/display.h ****     {
 800              		.loc 6 440 10 view .LVU176
 801 0012 0494     		str	r4, [sp, #16]
 802 0014 01E90C00 		stmdb	r1, {r2, r3}
 803              		.loc 6 443 9 view .LVU177
 804 0018 B9F1000F 		cmp	r9, #0
 805 001c 00F0B780 		beq	.L54
 806 0020 9DF81930 		ldrb	r3, [sp, #25]	@ zero_extendqisi2
 807 0024 8046     		mov	r8, r0
 808 0026 9DF818A0 		ldrb	r10, [sp, #24]	@ zero_extendqisi2
 809 002a 4D46     		mov	r5, r9
 810 002c 0193     		str	r3, [sp, #4]
 811 002e 079B     		ldr	r3, [sp, #28]
 812 0030 0593     		str	r3, [sp, #20]
 813              	.LVL56:
 814              	.L55:
 815              	.LBB728:
 816              	.LBI728:
 396:../../libdaisy/src/hid/disp/display.h ****     {
 817              		.loc 6 396 10 is_stmt 1 view .LVU178
 818              	.LBB729:
 401:../../libdaisy/src/hid/disp/display.h ****             return 0;
 819              		.loc 6 401 20 is_stmt 0 view .LVU179
 820 0032 A5F12004 		sub	r4, r5, #32
 401:../../libdaisy/src/hid/disp/display.h ****             return 0;
 821              		.loc 6 401 9 view .LVU180
 822 0036 E3B2     		uxtb	r3, r4
 823 0038 5E2B     		cmp	r3, #94
 824 003a 00F2AC80 		bhi	.L36
 405:../../libdaisy/src/hid/disp/display.h ****            || Height() < (currentY_ + font.FontHeight))
 825              		.loc 6 405 17 view .LVU181
 826 003e D8F80030 		ldr	r3, [r8]
 827 0042 654A     		ldr	r2, .L76
 828 0044 DB68     		ldr	r3, [r3, #12]
 829 0046 9342     		cmp	r3, r2
 830 0048 40F0A780 		bne	.L69
 831 004c 8020     		movs	r0, #128
 832              	.L35:
 405:../../libdaisy/src/hid/disp/display.h ****            || Height() < (currentY_ + font.FontHeight))
ARM GAS  /tmp/ccpr9r5K.s 			page 43


 833              		.loc 6 405 23 view .LVU182
 834 004e B8F80430 		ldrh	r3, [r8, #4]
 405:../../libdaisy/src/hid/disp/display.h ****            || Height() < (currentY_ + font.FontHeight))
 835              		.loc 6 405 33 view .LVU183
 836 0052 5344     		add	r3, r3, r10
 406:../../libdaisy/src/hid/disp/display.h ****         {
 837              		.loc 6 406 12 view .LVU184
 838 0054 8342     		cmp	r3, r0
 839 0056 00F39E80 		bgt	.L36
 406:../../libdaisy/src/hid/disp/display.h ****         {
 840              		.loc 6 406 21 view .LVU185
 841 005a D8F80030 		ldr	r3, [r8]
 842 005e 5F4A     		ldr	r2, .L76+4
 843 0060 9B68     		ldr	r3, [r3, #8]
 844 0062 9342     		cmp	r3, r2
 845 0064 40F09C80 		bne	.L70
 846 0068 4020     		movs	r0, #64
 847              	.L37:
 406:../../libdaisy/src/hid/disp/display.h ****         {
 848              		.loc 6 406 27 view .LVU186
 849 006a B8F80610 		ldrh	r1, [r8, #6]
 406:../../libdaisy/src/hid/disp/display.h ****         {
 850              		.loc 6 406 37 view .LVU187
 851 006e 019A     		ldr	r2, [sp, #4]
 406:../../libdaisy/src/hid/disp/display.h ****         {
 852              		.loc 6 406 27 view .LVU188
 853 0070 0091     		str	r1, [sp]
 406:../../libdaisy/src/hid/disp/display.h ****         {
 854              		.loc 6 406 37 view .LVU189
 855 0072 8B18     		adds	r3, r1, r2
 406:../../libdaisy/src/hid/disp/display.h ****         {
 856              		.loc 6 406 12 view .LVU190
 857 0074 8342     		cmp	r3, r0
 858 0076 00F38E80 		bgt	.L36
 859              	.LVL57:
 413:../../libdaisy/src/hid/disp/display.h ****         {
 860              		.loc 6 413 22 is_stmt 1 view .LVU191
 861 007a 1046     		mov	r0, r2
 862 007c 002A     		cmp	r2, #0
 863 007e 00F09A80 		beq	.L38
 415:../../libdaisy/src/hid/disp/display.h ****             for(j = 0; j < font.FontWidth; j++)
 864              		.loc 6 415 37 is_stmt 0 view .LVU192
 865 0082 1346     		mov	r3, r2
 866 0084 6FF00046 		mvn	r6, #-2147483648
 867 0088 B8F80470 		ldrh	r7, [r8, #4]
 868 008c 03FB04F3 		mul	r3, r3, r4
 869 0090 059C     		ldr	r4, [sp, #20]
 870 0092 BE46     		mov	lr, r7
 871 0094 CDF80CB0 		str	fp, [sp, #12]
 872 0098 1E44     		add	r6, r6, r3
 873 009a A21E     		subs	r2, r4, #2
 874 009c 0344     		add	r3, r3, r0
 875 009e 5746     		mov	r7, r10
 876 00a0 04EB4606 		add	r6, r4, r6, lsl #1
 877 00a4 DDF81090 		ldr	r9, [sp, #16]
 878 00a8 02EB4303 		add	r3, r2, r3, lsl #1
 879 00ac 0295     		str	r5, [sp, #8]
ARM GAS  /tmp/ccpr9r5K.s 			page 44


 880 00ae 9B46     		mov	fp, r3
 881              	.LVL58:
 882              	.L41:
 415:../../libdaisy/src/hid/disp/display.h ****             for(j = 0; j < font.FontWidth; j++)
 883              		.loc 6 415 13 view .LVU193
 884 00b0 36F802AF 		ldrh	r10, [r6, #2]!
 885              	.LVL59:
 416:../../libdaisy/src/hid/disp/display.h ****             {
 886              		.loc 6 416 26 is_stmt 1 view .LVU194
 887 00b4 A7B3     		cbz	r7, .L46
 888              	.LBB730:
 889              	.LBB731:
 890              	.LBB732:
 891              	.LBB733:
 892              	.LBB734:
 246:../../libdaisy/src/dev/oled_ssd130x.h ****     }
 893              		.loc 15 246 49 is_stmt 0 view .LVU195
 894 00b6 0124     		movs	r4, #1
 246:../../libdaisy/src/dev/oled_ssd130x.h ****     }
 895              		.loc 15 246 55 view .LVU196
 896 00b8 01F00702 		and	r2, r1, #7
 246:../../libdaisy/src/dev/oled_ssd130x.h ****     }
 897              		.loc 15 246 28 view .LVU197
 898 00bc C808     		lsrs	r0, r1, #3
 899 00be 0EF11403 		add	r3, lr, #20
 246:../../libdaisy/src/dev/oled_ssd130x.h ****     }
 900              		.loc 15 246 49 view .LVU198
 901 00c2 04FA02F2 		lsl	r2, r4, r2
 902 00c6 7446     		mov	r4, lr
 903 00c8 03EBC013 		add	r3, r3, r0, lsl #7
 904              	.LBE734:
 905              	.LBE733:
 906              	.LBE732:
 907              	.LBE731:
 908              	.LBE730:
 416:../../libdaisy/src/hid/disp/display.h ****             {
 909              		.loc 6 416 19 view .LVU199
 910 00cc 0020     		movs	r0, #0
 911              	.LBB752:
 912              	.LBB747:
 913              	.LBB742:
 914              	.LBB738:
 915              	.LBB735:
 246:../../libdaisy/src/dev/oled_ssd130x.h ****     }
 916              		.loc 15 246 42 view .LVU200
 917 00ce 52B2     		sxtb	r2, r2
 918 00d0 4344     		add	r3, r3, r8
 919 00d2 6FEA020C 		mvn	ip, r2
 920 00d6 0EE0     		b	.L47
 921              	.LVL60:
 922              	.L71:
 246:../../libdaisy/src/dev/oled_ssd130x.h ****     }
 923              		.loc 15 246 42 view .LVU201
 924              	.LBE735:
 925              	.LBE738:
 926              	.LBE742:
 927              	.LBE747:
ARM GAS  /tmp/ccpr9r5K.s 			page 45


 928              	.LBE752:
 929              	.LBB753:
 930              	.LBI753:
  41:../../libdaisy/src/hid/disp/oled_display.h ****     {
 931              		.loc 5 41 10 is_stmt 1 view .LVU202
 932              	.LBB754:
 933              	.LBI754:
 239:../../libdaisy/src/dev/oled_ssd130x.h ****     {
 934              		.loc 15 239 10 view .LVU203
 935              	.LBB755:
 241:../../libdaisy/src/dev/oled_ssd130x.h ****             return;
 936              		.loc 15 241 9 is_stmt 0 view .LVU204
 937 00d8 7F2C     		cmp	r4, #127
 938 00da 07D8     		bhi	.L43
 939 00dc 3F29     		cmp	r1, #63
 940 00de 05D8     		bhi	.L43
 244:../../libdaisy/src/dev/oled_ssd130x.h ****         else
 941              		.loc 15 244 42 view .LVU205
 942 00e0 1D78     		ldrb	r5, [r3]	@ zero_extendqisi2
 243:../../libdaisy/src/dev/oled_ssd130x.h ****             buffer_[x + (y / 8) * width] |= (1 << (y % 8));
 943              		.loc 15 243 9 view .LVU206
 944 00e2 B9F1000F 		cmp	r9, #0
 945 00e6 12D0     		beq	.L45
 946              	.L68:
 243:../../libdaisy/src/dev/oled_ssd130x.h ****             buffer_[x + (y / 8) * width] |= (1 << (y % 8));
 947              		.loc 15 243 9 view .LVU207
 948              	.LBE755:
 949              	.LBE754:
 950              	.LBE753:
 951              	.LBB756:
 952              	.LBB748:
 953              	.LBB743:
 244:../../libdaisy/src/dev/oled_ssd130x.h ****         else
 954              		.loc 15 244 42 view .LVU208
 955 00e8 1543     		orrs	r5, r5, r2
 244:../../libdaisy/src/dev/oled_ssd130x.h ****         else
 956              		.loc 15 244 13 view .LVU209
 957 00ea 1D70     		strb	r5, [r3]
 958              	.L43:
 959              	.LBE743:
 960              	.LBE748:
 961              	.LBE756:
 416:../../libdaisy/src/hid/disp/display.h ****             {
 962              		.loc 6 416 13 is_stmt 1 view .LVU210
 963 00ec 0130     		adds	r0, r0, #1
 964              	.LVL61:
 416:../../libdaisy/src/hid/disp/display.h ****             {
 965              		.loc 6 416 26 view .LVU211
 966 00ee 0133     		adds	r3, r3, #1
 967 00f0 0134     		adds	r4, r4, #1
 968 00f2 B842     		cmp	r0, r7
 969 00f4 14D0     		beq	.L46
 970              	.LVL62:
 971              	.L47:
 418:../../libdaisy/src/hid/disp/display.h ****                 {
 972              		.loc 6 418 23 is_stmt 0 view .LVU212
 973 00f6 0AFA00F5 		lsl	r5, r10, r0
ARM GAS  /tmp/ccpr9r5K.s 			page 46


 418:../../libdaisy/src/hid/disp/display.h ****                 {
 974              		.loc 6 418 17 view .LVU213
 975 00fa 2D04     		lsls	r5, r5, #16
 976 00fc ECD4     		bmi	.L71
 977              	.LVL63:
 978              	.LBB757:
 979              	.LBI730:
  41:../../libdaisy/src/hid/disp/oled_display.h ****     {
 980              		.loc 5 41 10 is_stmt 1 view .LVU214
 981              	.LBB749:
 982              	.LBI731:
 239:../../libdaisy/src/dev/oled_ssd130x.h ****     {
 983              		.loc 15 239 10 view .LVU215
 984              	.LBB744:
 241:../../libdaisy/src/dev/oled_ssd130x.h ****             return;
 985              		.loc 15 241 9 is_stmt 0 view .LVU216
 986 00fe 7F2C     		cmp	r4, #127
 987 0100 F4D8     		bhi	.L43
 988 0102 3F29     		cmp	r1, #63
 989 0104 F2D8     		bhi	.L43
 244:../../libdaisy/src/dev/oled_ssd130x.h ****         else
 990              		.loc 15 244 42 view .LVU217
 991 0106 1D78     		ldrb	r5, [r3]	@ zero_extendqisi2
 243:../../libdaisy/src/dev/oled_ssd130x.h ****             buffer_[x + (y / 8) * width] |= (1 << (y % 8));
 992              		.loc 15 243 9 view .LVU218
 993 0108 B9F1000F 		cmp	r9, #0
 994 010c ECD0     		beq	.L68
 995              	.L45:
 996              	.LVL64:
 997              	.LBB739:
 998              	.LBI733:
 239:../../libdaisy/src/dev/oled_ssd130x.h ****     {
 999              		.loc 15 239 10 is_stmt 1 view .LVU219
 239:../../libdaisy/src/dev/oled_ssd130x.h ****     {
 1000              		.loc 15 239 10 is_stmt 0 view .LVU220
 1001              	.LBE739:
 1002              	.LBE744:
 1003              	.LBE749:
 1004              	.LBE757:
 416:../../libdaisy/src/hid/disp/display.h ****             {
 1005              		.loc 6 416 13 view .LVU221
 1006 010e 0130     		adds	r0, r0, #1
 1007              	.LVL65:
 1008              	.LBB758:
 1009              	.LBB750:
 1010              	.LBB745:
 1011              	.LBB740:
 1012              	.LBB736:
 246:../../libdaisy/src/dev/oled_ssd130x.h ****     }
 1013              		.loc 15 246 42 view .LVU222
 1014 0110 0CEA0505 		and	r5, ip, r5
 1015 0114 0133     		adds	r3, r3, #1
 1016 0116 0134     		adds	r4, r4, #1
 1017              	.LBE736:
 1018              	.LBE740:
 1019              	.LBE745:
 1020              	.LBE750:
ARM GAS  /tmp/ccpr9r5K.s 			page 47


 1021              	.LBE758:
 416:../../libdaisy/src/hid/disp/display.h ****             {
 1022              		.loc 6 416 26 view .LVU223
 1023 0118 B842     		cmp	r0, r7
 1024              	.LBB759:
 1025              	.LBB751:
 1026              	.LBB746:
 1027              	.LBB741:
 1028              	.LBB737:
 246:../../libdaisy/src/dev/oled_ssd130x.h ****     }
 1029              		.loc 15 246 13 view .LVU224
 1030 011a 03F8015C 		strb	r5, [r3, #-1]
 246:../../libdaisy/src/dev/oled_ssd130x.h ****     }
 1031              		.loc 15 246 13 view .LVU225
 1032              	.LBE737:
 1033              	.LBE741:
 1034              	.LBE746:
 1035              	.LBE751:
 1036              	.LBE759:
 416:../../libdaisy/src/hid/disp/display.h ****             {
 1037              		.loc 6 416 13 is_stmt 1 view .LVU226
 1038              	.LVL66:
 416:../../libdaisy/src/hid/disp/display.h ****             {
 1039              		.loc 6 416 26 view .LVU227
 1040 011e EAD1     		bne	.L47
 1041              	.LVL67:
 1042              	.L46:
 413:../../libdaisy/src/hid/disp/display.h ****         {
 1043              		.loc 6 413 9 view .LVU228
 413:../../libdaisy/src/hid/disp/display.h ****         {
 1044              		.loc 6 413 22 view .LVU229
 1045 0120 5E45     		cmp	r6, fp
 1046 0122 01F10101 		add	r1, r1, #1
 1047 0126 C3D1     		bne	.L41
 1048 0128 BA46     		mov	r10, r7
 1049              	.LVL68:
 413:../../libdaisy/src/hid/disp/display.h ****         {
 1050              		.loc 6 413 22 is_stmt 0 view .LVU230
 1051 012a 029D     		ldr	r5, [sp, #8]
 1052 012c 7746     		mov	r7, lr
 1053 012e DDF80CB0 		ldr	fp, [sp, #12]
 1054              	.L40:
 1055              	.LBB760:
 1056              	.LBB761:
 173:../../libdaisy/src/hid/disp/display.h ****         currentY_ = (y >= Height()) ? Height() - 1 : y;
 1057              		.loc 6 173 33 view .LVU231
 1058 0132 D8F80020 		ldr	r2, [r8]
 1059              	.LBE761:
 1060              	.LBE760:
 434:../../libdaisy/src/hid/disp/display.h **** 
 1061              		.loc 6 434 18 view .LVU232
 1062 0136 5744     		add	r7, r7, r10
 1063 0138 2749     		ldr	r1, .L76
 1064              	.LBB765:
 1065              	.LBB762:
 173:../../libdaisy/src/hid/disp/display.h ****         currentY_ = (y >= Height()) ? Height() - 1 : y;
 1066              		.loc 6 173 33 view .LVU233
ARM GAS  /tmp/ccpr9r5K.s 			page 48


 1067 013a D368     		ldr	r3, [r2, #12]
 1068              	.LBE762:
 1069              	.LBE765:
 434:../../libdaisy/src/hid/disp/display.h **** 
 1070              		.loc 6 434 18 view .LVU234
 1071 013c BFB2     		uxth	r7, r7
 1072              	.LVL69:
 1073              	.LBB766:
 1074              	.LBI760:
 171:../../libdaisy/src/hid/disp/display.h ****     {
 1075              		.loc 6 171 10 is_stmt 1 view .LVU235
 1076              	.LBB763:
 173:../../libdaisy/src/hid/disp/display.h ****         currentY_ = (y >= Height()) ? Height() - 1 : y;
 1077              		.loc 6 173 9 view .LVU236
 1078 013e 8B42     		cmp	r3, r1
 1079 0140 34D1     		bne	.L72
 173:../../libdaisy/src/hid/disp/display.h ****         currentY_ = (y >= Height()) ? Height() - 1 : y;
 1080              		.loc 6 173 33 is_stmt 0 view .LVU237
 1081 0142 8020     		movs	r0, #128
 1082              	.L48:
 173:../../libdaisy/src/hid/disp/display.h ****         currentY_ = (y >= Height()) ? Height() - 1 : y;
 1083              		.loc 6 173 19 view .LVU238
 1084 0144 8742     		cmp	r7, r0
 1085 0146 04D3     		bcc	.L49
 173:../../libdaisy/src/hid/disp/display.h ****         currentY_ = (y >= Height()) ? Height() - 1 : y;
 1086              		.loc 6 173 44 view .LVU239
 1087 0148 D368     		ldr	r3, [r2, #12]
 1088 014a 2349     		ldr	r1, .L76
 1089 014c 8B42     		cmp	r3, r1
 1090 014e 3BD1     		bne	.L73
 1091 0150 7F27     		movs	r7, #127
 1092              	.LVL70:
 1093              	.L49:
 174:../../libdaisy/src/hid/disp/display.h ****     }
 1094              		.loc 6 174 34 view .LVU240
 1095 0152 9368     		ldr	r3, [r2, #8]
 1096 0154 214A     		ldr	r2, .L76+4
 173:../../libdaisy/src/hid/disp/display.h ****         currentY_ = (y >= Height()) ? Height() - 1 : y;
 1097              		.loc 6 173 19 view .LVU241
 1098 0156 A8F80470 		strh	r7, [r8, #4]	@ movhi
 174:../../libdaisy/src/hid/disp/display.h ****     }
 1099              		.loc 6 174 9 is_stmt 1 view .LVU242
 1100 015a 9342     		cmp	r3, r2
 1101 015c 23D1     		bne	.L74
 174:../../libdaisy/src/hid/disp/display.h ****     }
 1102              		.loc 6 174 34 is_stmt 0 view .LVU243
 1103 015e 4020     		movs	r0, #64
 1104              	.L51:
 174:../../libdaisy/src/hid/disp/display.h ****     }
 1105              		.loc 6 174 19 view .LVU244
 1106 0160 009B     		ldr	r3, [sp]
 1107 0162 8342     		cmp	r3, r0
 1108 0164 07D3     		bcc	.L52
 174:../../libdaisy/src/hid/disp/display.h ****     }
 1109              		.loc 6 174 46 view .LVU245
 1110 0166 D8F80030 		ldr	r3, [r8]
 1111 016a 1C4A     		ldr	r2, .L76+4
ARM GAS  /tmp/ccpr9r5K.s 			page 49


 1112 016c 9B68     		ldr	r3, [r3, #8]
 1113 016e 9342     		cmp	r3, r2
 1114 0170 24D1     		bne	.L75
 1115 0172 3F23     		movs	r3, #63
 1116 0174 0093     		str	r3, [sp]
 1117              	.LVL71:
 1118              	.L52:
 174:../../libdaisy/src/hid/disp/display.h ****     }
 1119              		.loc 6 174 19 view .LVU246
 1120 0176 009B     		ldr	r3, [sp]
 1121 0178 A8F80630 		strh	r3, [r8, #6]	@ movhi
 1122              	.LVL72:
 1123              	.L34:
 174:../../libdaisy/src/hid/disp/display.h ****     }
 1124              		.loc 6 174 19 view .LVU247
 1125              	.LBE763:
 1126              	.LBE766:
 1127              	.LBE729:
 1128              	.LBE728:
 444:../../libdaisy/src/hid/disp/display.h ****         {
 445:../../libdaisy/src/hid/disp/display.h ****             if(((ChildType*)(this))->ChildType::WriteChar(*str, font, on)
 446:../../libdaisy/src/hid/disp/display.h ****                != *str)
 1129              		.loc 6 446 16 view .LVU248
 1130 017c 9BF80000 		ldrb	r0, [fp]	@ zero_extendqisi2
 445:../../libdaisy/src/hid/disp/display.h ****                != *str)
 1131              		.loc 6 445 13 view .LVU249
 1132 0180 A842     		cmp	r0, r5
 1133 0182 05D1     		bne	.L32
 1134              	.LVL73:
 443:../../libdaisy/src/hid/disp/display.h ****         {
 1135              		.loc 6 443 9 is_stmt 1 view .LVU250
 1136 0184 1BF8015F 		ldrb	r5, [fp, #1]!	@ zero_extendqisi2
 1137              	.LVL74:
 443:../../libdaisy/src/hid/disp/display.h ****         {
 1138              		.loc 6 443 9 is_stmt 0 view .LVU251
 1139 0188 002D     		cmp	r5, #0
 1140 018a 7FF452AF 		bne	.L55
 1141              	.LVL75:
 1142              	.L54:
 1143              	.LBB770:
 1144              	.LBB768:
 402:../../libdaisy/src/hid/disp/display.h **** 
 1145              		.loc 6 402 20 view .LVU252
 1146 018e 0020     		movs	r0, #0
 1147              	.LVL76:
 1148              	.L32:
 402:../../libdaisy/src/hid/disp/display.h **** 
 1149              		.loc 6 402 20 view .LVU253
 1150              	.LBE768:
 1151              	.LBE770:
 447:../../libdaisy/src/hid/disp/display.h ****             {
 448:../../libdaisy/src/hid/disp/display.h ****                 // Char could not be written
 449:../../libdaisy/src/hid/disp/display.h ****                 return *str;
 450:../../libdaisy/src/hid/disp/display.h ****             }
 451:../../libdaisy/src/hid/disp/display.h **** 
 452:../../libdaisy/src/hid/disp/display.h ****             // Next char
 453:../../libdaisy/src/hid/disp/display.h ****             str++;
ARM GAS  /tmp/ccpr9r5K.s 			page 50


 454:../../libdaisy/src/hid/disp/display.h ****         }
 455:../../libdaisy/src/hid/disp/display.h **** 
 456:../../libdaisy/src/hid/disp/display.h ****         // Everything ok
 457:../../libdaisy/src/hid/disp/display.h ****         return *str;
 458:../../libdaisy/src/hid/disp/display.h ****     }
 1152              		.loc 6 458 5 view .LVU254
 1153 0190 09B0     		add	sp, sp, #36
 1154              		.cfi_remember_state
 1155              		.cfi_def_cfa_offset 36
 1156              		@ sp needed
 1157 0192 BDE8F08F 		pop	{r4, r5, r6, r7, r8, r9, r10, fp, pc}
 1158              	.LVL77:
 1159              	.L36:
 1160              		.cfi_restore_state
 1161              	.LBB771:
 1162              	.LBB769:
 402:../../libdaisy/src/hid/disp/display.h **** 
 1163              		.loc 6 402 20 view .LVU255
 1164 0196 0025     		movs	r5, #0
 1165              	.LVL78:
 402:../../libdaisy/src/hid/disp/display.h **** 
 1166              		.loc 6 402 20 view .LVU256
 1167 0198 F0E7     		b	.L34
 1168              	.LVL79:
 1169              	.L69:
 405:../../libdaisy/src/hid/disp/display.h ****            || Height() < (currentY_ + font.FontHeight))
 1170              		.loc 6 405 17 view .LVU257
 1171 019a 4046     		mov	r0, r8
 1172 019c 9847     		blx	r3
 1173              	.LVL80:
 1174 019e 56E7     		b	.L35
 1175              	.L70:
 406:../../libdaisy/src/hid/disp/display.h ****         {
 1176              		.loc 6 406 21 view .LVU258
 1177 01a0 4046     		mov	r0, r8
 1178 01a2 9847     		blx	r3
 1179              	.LVL81:
 1180 01a4 61E7     		b	.L37
 1181              	.LVL82:
 1182              	.L74:
 1183              	.LBB767:
 1184              	.LBB764:
 174:../../libdaisy/src/hid/disp/display.h ****     }
 1185              		.loc 6 174 33 view .LVU259
 1186 01a6 4046     		mov	r0, r8
 1187 01a8 9847     		blx	r3
 1188              	.LVL83:
 1189 01aa D9E7     		b	.L51
 1190              	.LVL84:
 1191              	.L72:
 173:../../libdaisy/src/hid/disp/display.h ****         currentY_ = (y >= Height()) ? Height() - 1 : y;
 1192              		.loc 6 173 32 view .LVU260
 1193 01ac 4046     		mov	r0, r8
 1194 01ae 9847     		blx	r3
 1195              	.LVL85:
 1196 01b0 D8F80020 		ldr	r2, [r8]
 1197 01b4 C6E7     		b	.L48
ARM GAS  /tmp/ccpr9r5K.s 			page 51


 1198              	.LVL86:
 1199              	.L38:
 173:../../libdaisy/src/hid/disp/display.h ****         currentY_ = (y >= Height()) ? Height() - 1 : y;
 1200              		.loc 6 173 32 view .LVU261
 1201 01b6 B8F80470 		ldrh	r7, [r8, #4]
 1202 01ba BAE7     		b	.L40
 1203              	.LVL87:
 1204              	.L75:
 174:../../libdaisy/src/hid/disp/display.h ****     }
 1205              		.loc 6 174 45 view .LVU262
 1206 01bc 4046     		mov	r0, r8
 1207 01be 9847     		blx	r3
 1208              	.LVL88:
 1209 01c0 0138     		subs	r0, r0, #1
 1210 01c2 83B2     		uxth	r3, r0
 1211 01c4 0093     		str	r3, [sp]
 1212              	.LVL89:
 174:../../libdaisy/src/hid/disp/display.h ****     }
 1213              		.loc 6 174 45 view .LVU263
 1214 01c6 D6E7     		b	.L52
 1215              	.LVL90:
 1216              	.L73:
 173:../../libdaisy/src/hid/disp/display.h ****         currentY_ = (y >= Height()) ? Height() - 1 : y;
 1217              		.loc 6 173 43 view .LVU264
 1218 01c8 4046     		mov	r0, r8
 1219 01ca 9847     		blx	r3
 1220              	.LVL91:
 1221 01cc 0138     		subs	r0, r0, #1
 1222 01ce D8F80020 		ldr	r2, [r8]
 1223 01d2 87B2     		uxth	r7, r0
 1224              	.LVL92:
 173:../../libdaisy/src/hid/disp/display.h ****         currentY_ = (y >= Height()) ? Height() - 1 : y;
 1225              		.loc 6 173 43 view .LVU265
 1226 01d4 BDE7     		b	.L49
 1227              	.L77:
 1228 01d6 00BF     		.align	2
 1229              	.L76:
 1230 01d8 00000000 		.word	_ZNK5daisy11OledDisplayINS_13SSD130xDriverILj128ELj64ENS_24SSD130x4WireSpiTransportEEEE5Widt
 1231 01dc 00000000 		.word	_ZNK5daisy11OledDisplayINS_13SSD130xDriverILj128ELj64ENS_24SSD130x4WireSpiTransportEEEE6Heig
 1232              	.LBE764:
 1233              	.LBE767:
 1234              	.LBE769:
 1235              	.LBE771:
 1236              		.cfi_endproc
 1237              	.LFE4553:
 1239              		.section	.text._ZN5daisy25OneBitGraphicsDisplayImplINS_11OledDisplayINS_13SSD130xDriverILj128ELj64
 1240              		.align	1
 1241              		.p2align 2,,3
 1242              		.weak	_ZN5daisy25OneBitGraphicsDisplayImplINS_11OledDisplayINS_13SSD130xDriverILj128ELj64ENS_24SSD
 1243              		.syntax unified
 1244              		.thumb
 1245              		.thumb_func
 1246              		.fpu fpv5-d16
 1248              	_ZN5daisy25OneBitGraphicsDisplayImplINS_11OledDisplayINS_13SSD130xDriverILj128ELj64ENS_24SSD130x4Wi
 1249              	.LVL93:
 1250              	.LFB4680:
 396:../../libdaisy/src/hid/disp/display.h ****     {
ARM GAS  /tmp/ccpr9r5K.s 			page 52


 1251              		.loc 6 396 10 is_stmt 1 view -0
 1252              		.cfi_startproc
 1253              		@ args = 4, pretend = 0, frame = 16
 1254              		@ frame_needed = 0, uses_anonymous_args = 0
 396:../../libdaisy/src/hid/disp/display.h ****     {
 1255              		.loc 6 396 10 is_stmt 0 view .LVU267
 1256 0000 2DE9F04F 		push	{r4, r5, r6, r7, r8, r9, r10, fp, lr}
 1257              		.cfi_def_cfa_offset 36
 1258              		.cfi_offset 4, -36
 1259              		.cfi_offset 5, -32
 1260              		.cfi_offset 6, -28
 1261              		.cfi_offset 7, -24
 1262              		.cfi_offset 8, -20
 1263              		.cfi_offset 9, -16
 1264              		.cfi_offset 10, -12
 1265              		.cfi_offset 11, -8
 1266              		.cfi_offset 14, -4
 1267 0004 85B0     		sub	sp, sp, #20
 1268              		.cfi_def_cfa_offset 56
 1269              	.LVL94:
 401:../../libdaisy/src/hid/disp/display.h ****             return 0;
 1270              		.loc 6 401 20 view .LVU268
 1271 0006 A1F12004 		sub	r4, r1, #32
 396:../../libdaisy/src/hid/disp/display.h ****     {
 1272              		.loc 6 396 10 view .LVU269
 1273 000a 0091     		str	r1, [sp]
 1274 000c 04A9     		add	r1, sp, #16
 1275              	.LVL95:
 396:../../libdaisy/src/hid/disp/display.h ****     {
 1276              		.loc 6 396 10 view .LVU270
 1277 000e 9DF83880 		ldrb	r8, [sp, #56]	@ zero_extendqisi2
 1278 0012 01E90C00 		stmdb	r1, {r2, r3}
 1279              	.LVL96:
 401:../../libdaisy/src/hid/disp/display.h ****             return 0;
 1280              		.loc 6 401 9 view .LVU271
 1281 0016 E3B2     		uxtb	r3, r4
 1282 0018 5E2B     		cmp	r3, #94
 1283 001a 00F29480 		bhi	.L82
 405:../../libdaisy/src/hid/disp/display.h ****            || Height() < (currentY_ + font.FontHeight))
 1284              		.loc 6 405 17 view .LVU272
 1285 001e 0368     		ldr	r3, [r0]
 1286 0020 8146     		mov	r9, r0
 1287 0022 5E4A     		ldr	r2, .L118
 1288 0024 DB68     		ldr	r3, [r3, #12]
 1289 0026 9DF80860 		ldrb	r6, [sp, #8]	@ zero_extendqisi2
 1290 002a 9342     		cmp	r3, r2
 1291 002c 9DF80950 		ldrb	r5, [sp, #9]	@ zero_extendqisi2
 1292 0030 40F09380 		bne	.L109
 1293 0034 8022     		movs	r2, #128
 1294              	.LVL97:
 1295              	.L81:
 405:../../libdaisy/src/hid/disp/display.h ****            || Height() < (currentY_ + font.FontHeight))
 1296              		.loc 6 405 23 view .LVU273
 1297 0036 B9F80430 		ldrh	r3, [r9, #4]
 405:../../libdaisy/src/hid/disp/display.h ****            || Height() < (currentY_ + font.FontHeight))
 1298              		.loc 6 405 33 view .LVU274
 1299 003a 3344     		add	r3, r3, r6
ARM GAS  /tmp/ccpr9r5K.s 			page 53


 406:../../libdaisy/src/hid/disp/display.h ****         {
 1300              		.loc 6 406 12 view .LVU275
 1301 003c 9342     		cmp	r3, r2
 1302 003e 00F38280 		bgt	.L82
 406:../../libdaisy/src/hid/disp/display.h ****         {
 1303              		.loc 6 406 21 discriminator 2 view .LVU276
 1304 0042 D9F80030 		ldr	r3, [r9]
 1305 0046 564A     		ldr	r2, .L118+4
 1306 0048 9B68     		ldr	r3, [r3, #8]
 1307 004a 9342     		cmp	r3, r2
 1308 004c 40F08980 		bne	.L110
 406:../../libdaisy/src/hid/disp/display.h ****         {
 1309              		.loc 6 406 21 view .LVU277
 1310 0050 4023     		movs	r3, #64
 1311              	.L83:
 406:../../libdaisy/src/hid/disp/display.h ****         {
 1312              		.loc 6 406 27 discriminator 2 view .LVU278
 1313 0052 B9F80610 		ldrh	r1, [r9, #6]
 406:../../libdaisy/src/hid/disp/display.h ****         {
 1314              		.loc 6 406 37 discriminator 2 view .LVU279
 1315 0056 4A19     		adds	r2, r1, r5
 406:../../libdaisy/src/hid/disp/display.h ****         {
 1316              		.loc 6 406 27 discriminator 2 view .LVU280
 1317 0058 0191     		str	r1, [sp, #4]
 406:../../libdaisy/src/hid/disp/display.h ****         {
 1318              		.loc 6 406 12 discriminator 2 view .LVU281
 1319 005a 9A42     		cmp	r2, r3
 1320 005c 73DC     		bgt	.L82
 1321              	.LVL98:
 413:../../libdaisy/src/hid/disp/display.h ****         {
 1322              		.loc 6 413 22 is_stmt 1 view .LVU282
 1323 005e 002D     		cmp	r5, #0
 1324 0060 00F08C80 		beq	.L84
 415:../../libdaisy/src/hid/disp/display.h ****             for(j = 0; j < font.FontWidth; j++)
 1325              		.loc 6 415 37 is_stmt 0 view .LVU283
 1326 0064 05FB04F4 		mul	r4, r5, r4
 415:../../libdaisy/src/hid/disp/display.h ****             for(j = 0; j < font.FontWidth; j++)
 1327              		.loc 6 415 22 view .LVU284
 1328 0068 039A     		ldr	r2, [sp, #12]
 1329 006a 6FF00043 		mvn	r3, #-2147483648
 1330 006e B9F804A0 		ldrh	r10, [r9, #4]
 1331 0072 2544     		add	r5, r5, r4
 1332 0074 A2F1020B 		sub	fp, r2, #2
 1333 0078 2344     		add	r3, r3, r4
 1334 007a 0BEB450B 		add	fp, fp, r5, lsl #1
 1335 007e 0D46     		mov	r5, r1
 1336 0080 02EB430E 		add	lr, r2, r3, lsl #1
 1337              	.LVL99:
 1338              	.L87:
 415:../../libdaisy/src/hid/disp/display.h ****             for(j = 0; j < font.FontWidth; j++)
 1339              		.loc 6 415 13 view .LVU285
 1340 0084 3EF8024F 		ldrh	r4, [lr, #2]!
 1341              	.LVL100:
 416:../../libdaisy/src/hid/disp/display.h ****             {
 1342              		.loc 6 416 26 is_stmt 1 view .LVU286
 1343 0088 A6B3     		cbz	r6, .L92
 1344              	.LBB802:
ARM GAS  /tmp/ccpr9r5K.s 			page 54


 1345              	.LBB803:
 1346              	.LBB804:
 1347              	.LBB805:
 1348              	.LBB806:
 246:../../libdaisy/src/dev/oled_ssd130x.h ****     }
 1349              		.loc 15 246 55 is_stmt 0 view .LVU287
 1350 008a 05F00703 		and	r3, r5, #7
 246:../../libdaisy/src/dev/oled_ssd130x.h ****     }
 1351              		.loc 15 246 49 view .LVU288
 1352 008e 0127     		movs	r7, #1
 246:../../libdaisy/src/dev/oled_ssd130x.h ****     }
 1353              		.loc 15 246 28 view .LVU289
 1354 0090 E808     		lsrs	r0, r5, #3
 246:../../libdaisy/src/dev/oled_ssd130x.h ****     }
 1355              		.loc 15 246 42 view .LVU290
 1356 0092 4146     		mov	r1, r8
 246:../../libdaisy/src/dev/oled_ssd130x.h ****     }
 1357              		.loc 15 246 49 view .LVU291
 1358 0094 9F40     		lsls	r7, r7, r3
 1359              	.LBE806:
 1360              	.LBE805:
 1361              	.LBE804:
 1362              	.LBE803:
 1363              	.LBE802:
 416:../../libdaisy/src/hid/disp/display.h ****             {
 1364              		.loc 6 416 19 view .LVU292
 1365 0096 0022     		movs	r2, #0
 1366 0098 0AEBC013 		add	r3, r10, r0, lsl #7
 1367              	.LBB824:
 1368              	.LBB819:
 1369              	.LBB814:
 1370              	.LBB810:
 1371              	.LBB807:
 246:../../libdaisy/src/dev/oled_ssd130x.h ****     }
 1372              		.loc 15 246 42 view .LVU293
 1373 009c 7FB2     		sxtb	r7, r7
 1374 009e 4B44     		add	r3, r3, r9
 1375 00a0 09EBC010 		add	r0, r9, r0, lsl #7
 1376 00a4 6FEA070C 		mvn	ip, r7
 1377 00a8 B846     		mov	r8, r7
 1378 00aa 0F46     		mov	r7, r1
 1379 00ac 0CE0     		b	.L93
 1380              	.LVL101:
 1381              	.L112:
 246:../../libdaisy/src/dev/oled_ssd130x.h ****     }
 1382              		.loc 15 246 42 view .LVU294
 1383              	.LBE807:
 1384              	.LBE810:
 1385              	.LBE814:
 1386              	.LBE819:
 1387              	.LBE824:
 1388              	.LBB825:
 1389              	.LBI825:
  41:../../libdaisy/src/hid/disp/oled_display.h ****     {
 1390              		.loc 5 41 10 is_stmt 1 view .LVU295
 1391              	.LBB826:
 1392              	.LBI826:
ARM GAS  /tmp/ccpr9r5K.s 			page 55


 239:../../libdaisy/src/dev/oled_ssd130x.h ****     {
 1393              		.loc 15 239 10 view .LVU296
 1394              	.LBB827:
 241:../../libdaisy/src/dev/oled_ssd130x.h ****             return;
 1395              		.loc 15 241 9 is_stmt 0 view .LVU297
 1396 00ae 7F29     		cmp	r1, #127
 1397 00b0 06D8     		bhi	.L89
 1398 00b2 3F2D     		cmp	r5, #63
 1399 00b4 04D8     		bhi	.L89
 244:../../libdaisy/src/dev/oled_ssd130x.h ****         else
 1400              		.loc 15 244 42 view .LVU298
 1401 00b6 197D     		ldrb	r1, [r3, #20]	@ zero_extendqisi2
 243:../../libdaisy/src/dev/oled_ssd130x.h ****             buffer_[x + (y / 8) * width] |= (1 << (y % 8));
 1402              		.loc 15 243 9 view .LVU299
 1403 00b8 A7B1     		cbz	r7, .L91
 1404              	.L108:
 243:../../libdaisy/src/dev/oled_ssd130x.h ****             buffer_[x + (y / 8) * width] |= (1 << (y % 8));
 1405              		.loc 15 243 9 view .LVU300
 1406              	.LBE827:
 1407              	.LBE826:
 1408              	.LBE825:
 1409              	.LBB830:
 1410              	.LBB820:
 1411              	.LBB815:
 244:../../libdaisy/src/dev/oled_ssd130x.h ****         else
 1412              		.loc 15 244 42 view .LVU301
 1413 00ba 48EA0101 		orr	r1, r8, r1
 244:../../libdaisy/src/dev/oled_ssd130x.h ****         else
 1414              		.loc 15 244 13 view .LVU302
 1415 00be 1975     		strb	r1, [r3, #20]
 1416              	.L89:
 1417              	.LBE815:
 1418              	.LBE820:
 1419              	.LBE830:
 416:../../libdaisy/src/hid/disp/display.h ****             {
 1420              		.loc 6 416 13 is_stmt 1 discriminator 2 view .LVU303
 1421 00c0 0132     		adds	r2, r2, #1
 1422              	.LVL102:
 416:../../libdaisy/src/hid/disp/display.h ****             {
 1423              		.loc 6 416 26 discriminator 2 view .LVU304
 1424 00c2 0133     		adds	r3, r3, #1
 1425 00c4 9642     		cmp	r6, r2
 1426 00c6 14D0     		beq	.L111
 1427              	.LVL103:
 1428              	.L93:
 418:../../libdaisy/src/hid/disp/display.h ****                 {
 1429              		.loc 6 418 23 is_stmt 0 view .LVU305
 1430 00c8 04FA02F1 		lsl	r1, r4, r2
 418:../../libdaisy/src/hid/disp/display.h ****                 {
 1431              		.loc 6 418 17 view .LVU306
 1432 00cc 11F4004F 		tst	r1, #32768
 1433              	.LBB831:
 1434              	.LBB829:
 1435              	.LBB828:
 241:../../libdaisy/src/dev/oled_ssd130x.h ****             return;
 1436              		.loc 15 241 14 view .LVU307
 1437 00d0 A3EB0001 		sub	r1, r3, r0
ARM GAS  /tmp/ccpr9r5K.s 			page 56


 1438              	.LBE828:
 1439              	.LBE829:
 1440              	.LBE831:
 418:../../libdaisy/src/hid/disp/display.h ****                 {
 1441              		.loc 6 418 17 view .LVU308
 1442 00d4 EBD1     		bne	.L112
 1443              	.LVL104:
 1444              	.LBB832:
 1445              	.LBI802:
  41:../../libdaisy/src/hid/disp/oled_display.h ****     {
 1446              		.loc 5 41 10 is_stmt 1 view .LVU309
 1447              	.LBB821:
 1448              	.LBI803:
 239:../../libdaisy/src/dev/oled_ssd130x.h ****     {
 1449              		.loc 15 239 10 view .LVU310
 1450              	.LBB816:
 241:../../libdaisy/src/dev/oled_ssd130x.h ****             return;
 1451              		.loc 15 241 9 is_stmt 0 view .LVU311
 1452 00d6 7F29     		cmp	r1, #127
 1453 00d8 F2D8     		bhi	.L89
 1454 00da 3F2D     		cmp	r5, #63
 1455 00dc F0D8     		bhi	.L89
 244:../../libdaisy/src/dev/oled_ssd130x.h ****         else
 1456              		.loc 15 244 42 view .LVU312
 1457 00de 197D     		ldrb	r1, [r3, #20]	@ zero_extendqisi2
 243:../../libdaisy/src/dev/oled_ssd130x.h ****             buffer_[x + (y / 8) * width] |= (1 << (y % 8));
 1458              		.loc 15 243 9 view .LVU313
 1459 00e0 002F     		cmp	r7, #0
 1460 00e2 EAD0     		beq	.L108
 1461              	.L91:
 1462              	.LVL105:
 1463              	.LBB811:
 1464              	.LBI805:
 239:../../libdaisy/src/dev/oled_ssd130x.h ****     {
 1465              		.loc 15 239 10 is_stmt 1 view .LVU314
 239:../../libdaisy/src/dev/oled_ssd130x.h ****     {
 1466              		.loc 15 239 10 is_stmt 0 view .LVU315
 1467              	.LBE811:
 1468              	.LBE816:
 1469              	.LBE821:
 1470              	.LBE832:
 416:../../libdaisy/src/hid/disp/display.h ****             {
 1471              		.loc 6 416 13 view .LVU316
 1472 00e4 0132     		adds	r2, r2, #1
 1473              	.LVL106:
 1474              	.LBB833:
 1475              	.LBB822:
 1476              	.LBB817:
 1477              	.LBB812:
 1478              	.LBB808:
 246:../../libdaisy/src/dev/oled_ssd130x.h ****     }
 1479              		.loc 15 246 42 view .LVU317
 1480 00e6 0CEA0101 		and	r1, ip, r1
 1481 00ea 0133     		adds	r3, r3, #1
 1482              	.LBE808:
 1483              	.LBE812:
 1484              	.LBE817:
ARM GAS  /tmp/ccpr9r5K.s 			page 57


 1485              	.LBE822:
 1486              	.LBE833:
 416:../../libdaisy/src/hid/disp/display.h ****             {
 1487              		.loc 6 416 26 view .LVU318
 1488 00ec 9642     		cmp	r6, r2
 1489              	.LBB834:
 1490              	.LBB823:
 1491              	.LBB818:
 1492              	.LBB813:
 1493              	.LBB809:
 246:../../libdaisy/src/dev/oled_ssd130x.h ****     }
 1494              		.loc 15 246 13 view .LVU319
 1495 00ee D974     		strb	r1, [r3, #19]
 246:../../libdaisy/src/dev/oled_ssd130x.h ****     }
 1496              		.loc 15 246 13 view .LVU320
 1497              	.LBE809:
 1498              	.LBE813:
 1499              	.LBE818:
 1500              	.LBE823:
 1501              	.LBE834:
 416:../../libdaisy/src/hid/disp/display.h ****             {
 1502              		.loc 6 416 13 is_stmt 1 view .LVU321
 1503              	.LVL107:
 416:../../libdaisy/src/hid/disp/display.h ****             {
 1504              		.loc 6 416 26 view .LVU322
 1505 00f0 EAD1     		bne	.L93
 1506              	.L111:
 416:../../libdaisy/src/hid/disp/display.h ****             {
 1507              		.loc 6 416 26 is_stmt 0 view .LVU323
 1508 00f2 B846     		mov	r8, r7
 1509              	.LVL108:
 1510              	.L92:
 413:../../libdaisy/src/hid/disp/display.h ****         {
 1511              		.loc 6 413 9 is_stmt 1 view .LVU324
 413:../../libdaisy/src/hid/disp/display.h ****         {
 1512              		.loc 6 413 22 view .LVU325
 1513 00f4 F345     		cmp	fp, lr
 1514 00f6 05F10105 		add	r5, r5, #1
 1515 00fa C3D1     		bne	.L87
 1516              	.LVL109:
 1517              	.L86:
 1518              	.LBB835:
 1519              	.LBB836:
 173:../../libdaisy/src/hid/disp/display.h ****         currentY_ = (y >= Height()) ? Height() - 1 : y;
 1520              		.loc 6 173 33 is_stmt 0 view .LVU326
 1521 00fc D9F80030 		ldr	r3, [r9]
 1522              	.LBE836:
 1523              	.LBE835:
 434:../../libdaisy/src/hid/disp/display.h **** 
 1524              		.loc 6 434 18 view .LVU327
 1525 0100 0AEB0604 		add	r4, r10, r6
 1526 0104 2549     		ldr	r1, .L118
 1527              	.LBB841:
 1528              	.LBB837:
 173:../../libdaisy/src/hid/disp/display.h ****         currentY_ = (y >= Height()) ? Height() - 1 : y;
 1529              		.loc 6 173 33 view .LVU328
 1530 0106 DA68     		ldr	r2, [r3, #12]
ARM GAS  /tmp/ccpr9r5K.s 			page 58


 1531              	.LBE837:
 1532              	.LBE841:
 434:../../libdaisy/src/hid/disp/display.h **** 
 1533              		.loc 6 434 18 view .LVU329
 1534 0108 A4B2     		uxth	r4, r4
 1535              	.LVL110:
 1536              	.LBB842:
 1537              	.LBI835:
 171:../../libdaisy/src/hid/disp/display.h ****     {
 1538              		.loc 6 171 10 is_stmt 1 view .LVU330
 1539              	.LBB838:
 173:../../libdaisy/src/hid/disp/display.h ****         currentY_ = (y >= Height()) ? Height() - 1 : y;
 1540              		.loc 6 173 9 view .LVU331
 1541 010a 8A42     		cmp	r2, r1
 1542 010c 31D1     		bne	.L113
 173:../../libdaisy/src/hid/disp/display.h ****         currentY_ = (y >= Height()) ? Height() - 1 : y;
 1543              		.loc 6 173 33 is_stmt 0 view .LVU332
 1544 010e 8020     		movs	r0, #128
 1545              	.L94:
 173:../../libdaisy/src/hid/disp/display.h ****         currentY_ = (y >= Height()) ? Height() - 1 : y;
 1546              		.loc 6 173 19 view .LVU333
 1547 0110 8442     		cmp	r4, r0
 1548 0112 1CD2     		bcs	.L114
 1549              	.LVL111:
 1550              	.L95:
 174:../../libdaisy/src/hid/disp/display.h ****     }
 1551              		.loc 6 174 34 view .LVU334
 1552 0114 9B68     		ldr	r3, [r3, #8]
 1553 0116 224A     		ldr	r2, .L118+4
 173:../../libdaisy/src/hid/disp/display.h ****         currentY_ = (y >= Height()) ? Height() - 1 : y;
 1554              		.loc 6 173 19 view .LVU335
 1555 0118 A9F80440 		strh	r4, [r9, #4]	@ movhi
 174:../../libdaisy/src/hid/disp/display.h ****     }
 1556              		.loc 6 174 9 is_stmt 1 view .LVU336
 1557 011c 9342     		cmp	r3, r2
 1558 011e 25D1     		bne	.L115
 174:../../libdaisy/src/hid/disp/display.h ****     }
 1559              		.loc 6 174 34 is_stmt 0 view .LVU337
 1560 0120 4020     		movs	r0, #64
 1561              	.L97:
 174:../../libdaisy/src/hid/disp/display.h ****     }
 1562              		.loc 6 174 19 view .LVU338
 1563 0122 019B     		ldr	r3, [sp, #4]
 1564 0124 8342     		cmp	r3, r0
 1565 0126 07D3     		bcc	.L98
 174:../../libdaisy/src/hid/disp/display.h ****     }
 1566              		.loc 6 174 46 view .LVU339
 1567 0128 D9F80030 		ldr	r3, [r9]
 1568 012c 1C4A     		ldr	r2, .L118+4
 1569 012e 9B68     		ldr	r3, [r3, #8]
 1570 0130 9342     		cmp	r3, r2
 1571 0132 2DD1     		bne	.L116
 1572 0134 3F23     		movs	r3, #63
 1573 0136 0193     		str	r3, [sp, #4]
 1574              	.LVL112:
 1575              	.L98:
 174:../../libdaisy/src/hid/disp/display.h ****     }
ARM GAS  /tmp/ccpr9r5K.s 			page 59


 1576              		.loc 6 174 19 view .LVU340
 1577 0138 DDE90003 		ldrd	r0, r3, [sp]
 1578 013c A9F80630 		strh	r3, [r9, #6]	@ movhi
 1579              	.LVL113:
 174:../../libdaisy/src/hid/disp/display.h ****     }
 1580              		.loc 6 174 19 view .LVU341
 1581              	.LBE838:
 1582              	.LBE842:
 438:../../libdaisy/src/hid/disp/display.h **** 
 1583              		.loc 6 438 5 view .LVU342
 1584 0140 05B0     		add	sp, sp, #20
 1585              		.cfi_remember_state
 1586              		.cfi_def_cfa_offset 36
 1587              		@ sp needed
 1588 0142 BDE8F08F 		pop	{r4, r5, r6, r7, r8, r9, r10, fp, pc}
 1589              	.LVL114:
 1590              	.L82:
 1591              		.cfi_restore_state
 402:../../libdaisy/src/hid/disp/display.h **** 
 1592              		.loc 6 402 20 view .LVU343
 1593 0146 0020     		movs	r0, #0
 438:../../libdaisy/src/hid/disp/display.h **** 
 1594              		.loc 6 438 5 view .LVU344
 1595 0148 05B0     		add	sp, sp, #20
 1596              		.cfi_remember_state
 1597              		.cfi_def_cfa_offset 36
 1598              		@ sp needed
 1599 014a BDE8F08F 		pop	{r4, r5, r6, r7, r8, r9, r10, fp, pc}
 1600              	.LVL115:
 1601              	.L114:
 1602              		.cfi_restore_state
 1603              	.LBB843:
 1604              	.LBB839:
 173:../../libdaisy/src/hid/disp/display.h ****         currentY_ = (y >= Height()) ? Height() - 1 : y;
 1605              		.loc 6 173 44 view .LVU345
 1606 014e DA68     		ldr	r2, [r3, #12]
 1607 0150 1249     		ldr	r1, .L118
 1608 0152 8A42     		cmp	r2, r1
 1609 0154 15D1     		bne	.L117
 1610 0156 7F24     		movs	r4, #127
 1611              	.LVL116:
 173:../../libdaisy/src/hid/disp/display.h ****         currentY_ = (y >= Height()) ? Height() - 1 : y;
 1612              		.loc 6 173 44 view .LVU346
 1613 0158 DCE7     		b	.L95
 1614              	.LVL117:
 1615              	.L109:
 173:../../libdaisy/src/hid/disp/display.h ****         currentY_ = (y >= Height()) ? Height() - 1 : y;
 1616              		.loc 6 173 44 view .LVU347
 1617              	.LBE839:
 1618              	.LBE843:
 405:../../libdaisy/src/hid/disp/display.h ****            || Height() < (currentY_ + font.FontHeight))
 1619              		.loc 6 405 17 view .LVU348
 1620 015a 9847     		blx	r3
 1621              	.LVL118:
 405:../../libdaisy/src/hid/disp/display.h ****            || Height() < (currentY_ + font.FontHeight))
 1622              		.loc 6 405 17 view .LVU349
 1623 015c 0246     		mov	r2, r0
ARM GAS  /tmp/ccpr9r5K.s 			page 60


 1624 015e 0190     		str	r0, [sp, #4]
 1625 0160 69E7     		b	.L81
 1626              	.L110:
 406:../../libdaisy/src/hid/disp/display.h ****         {
 1627              		.loc 6 406 21 discriminator 2 view .LVU350
 1628 0162 4846     		mov	r0, r9
 1629 0164 9847     		blx	r3
 1630              	.LVL119:
 1631 0166 0346     		mov	r3, r0
 1632 0168 0190     		str	r0, [sp, #4]
 1633 016a 72E7     		b	.L83
 1634              	.LVL120:
 1635              	.L115:
 1636              	.LBB844:
 1637              	.LBB840:
 174:../../libdaisy/src/hid/disp/display.h ****     }
 1638              		.loc 6 174 33 view .LVU351
 1639 016c 4846     		mov	r0, r9
 1640 016e 9847     		blx	r3
 1641              	.LVL121:
 1642 0170 D7E7     		b	.L97
 1643              	.LVL122:
 1644              	.L113:
 173:../../libdaisy/src/hid/disp/display.h ****         currentY_ = (y >= Height()) ? Height() - 1 : y;
 1645              		.loc 6 173 32 view .LVU352
 1646 0172 4846     		mov	r0, r9
 1647 0174 9047     		blx	r2
 1648              	.LVL123:
 1649 0176 D9F80030 		ldr	r3, [r9]
 1650 017a C9E7     		b	.L94
 1651              	.LVL124:
 1652              	.L84:
 173:../../libdaisy/src/hid/disp/display.h ****         currentY_ = (y >= Height()) ? Height() - 1 : y;
 1653              		.loc 6 173 32 view .LVU353
 1654 017c B9F804A0 		ldrh	r10, [r9, #4]
 1655 0180 BCE7     		b	.L86
 1656              	.LVL125:
 1657              	.L117:
 173:../../libdaisy/src/hid/disp/display.h ****         currentY_ = (y >= Height()) ? Height() - 1 : y;
 1658              		.loc 6 173 43 view .LVU354
 1659 0182 4846     		mov	r0, r9
 1660 0184 9047     		blx	r2
 1661              	.LVL126:
 1662 0186 0138     		subs	r0, r0, #1
 1663 0188 D9F80030 		ldr	r3, [r9]
 1664 018c 84B2     		uxth	r4, r0
 1665              	.LVL127:
 173:../../libdaisy/src/hid/disp/display.h ****         currentY_ = (y >= Height()) ? Height() - 1 : y;
 1666              		.loc 6 173 43 view .LVU355
 1667 018e C1E7     		b	.L95
 1668              	.L116:
 174:../../libdaisy/src/hid/disp/display.h ****     }
 1669              		.loc 6 174 45 view .LVU356
 1670 0190 4846     		mov	r0, r9
 1671 0192 9847     		blx	r3
 1672              	.LVL128:
 1673 0194 0138     		subs	r0, r0, #1
ARM GAS  /tmp/ccpr9r5K.s 			page 61


 1674 0196 83B2     		uxth	r3, r0
 1675 0198 0193     		str	r3, [sp, #4]
 1676              	.LVL129:
 174:../../libdaisy/src/hid/disp/display.h ****     }
 1677              		.loc 6 174 45 view .LVU357
 1678 019a CDE7     		b	.L98
 1679              	.L119:
 1680              		.align	2
 1681              	.L118:
 1682 019c 00000000 		.word	_ZNK5daisy11OledDisplayINS_13SSD130xDriverILj128ELj64ENS_24SSD130x4WireSpiTransportEEEE5Widt
 1683 01a0 00000000 		.word	_ZNK5daisy11OledDisplayINS_13SSD130xDriverILj128ELj64ENS_24SSD130x4WireSpiTransportEEEE6Heig
 1684              	.LBE840:
 1685              	.LBE844:
 1686              		.cfi_endproc
 1687              	.LFE4680:
 1689              		.section	.text._ZN5daisy25OneBitGraphicsDisplayImplINS_11OledDisplayINS_13SSD130xDriverILj128ELj64
 1690              		.align	1
 1691              		.p2align 2,,3
 1692              		.weak	_ZN5daisy25OneBitGraphicsDisplayImplINS_11OledDisplayINS_13SSD130xDriverILj128ELj64ENS_24SSD
 1693              		.syntax unified
 1694              		.thumb
 1695              		.thumb_func
 1696              		.fpu fpv5-d16
 1698              	_ZN5daisy25OneBitGraphicsDisplayImplINS_11OledDisplayINS_13SSD130xDriverILj128ELj64ENS_24SSD130x4Wi
 1699              	.LVL130:
 1700              	.LFB4825:
 459:../../libdaisy/src/hid/disp/display.h **** 
 460:../../libdaisy/src/hid/disp/display.h ****     Rectangle WriteStringAligned(const char*    str,
 1701              		.loc 6 460 15 is_stmt 1 view -0
 1702              		.cfi_startproc
 1703              		@ args = 12, pretend = 0, frame = 40
 1704              		@ frame_needed = 0, uses_anonymous_args = 0
 1705              		.loc 6 460 15 is_stmt 0 view .LVU359
 1706 0000 2DE9F04F 		push	{r4, r5, r6, r7, r8, r9, r10, fp, lr}
 1707              		.cfi_def_cfa_offset 36
 1708              		.cfi_offset 4, -36
 1709              		.cfi_offset 5, -32
 1710              		.cfi_offset 6, -28
 1711              		.cfi_offset 7, -24
 1712              		.cfi_offset 8, -20
 1713              		.cfi_offset 9, -16
 1714              		.cfi_offset 10, -12
 1715              		.cfi_offset 11, -8
 1716              		.cfi_offset 14, -4
 1717 0004 0C46     		mov	r4, r1
 1718 0006 8BB0     		sub	sp, sp, #44
 1719              		.cfi_def_cfa_offset 80
 1720              	.LBB979:
 1721              	.LBB980:
 1722              	.LBB981:
 1723              	.LBB982:
 461:../../libdaisy/src/hid/disp/display.h ****                                  const FontDef& font,
 462:../../libdaisy/src/hid/disp/display.h ****                                  Rectangle      boundingBox,
 463:../../libdaisy/src/hid/disp/display.h ****                                  Alignment      alignment,
 464:../../libdaisy/src/hid/disp/display.h ****                                  bool           on) override
 465:../../libdaisy/src/hid/disp/display.h ****     {
 466:../../libdaisy/src/hid/disp/display.h ****         const auto alignedRect
ARM GAS  /tmp/ccpr9r5K.s 			page 62


 467:../../libdaisy/src/hid/disp/display.h ****             = GetTextRect(str, font).AlignedWithin(boundingBox, alignment);
 468:../../libdaisy/src/hid/disp/display.h ****         SetCursor(alignedRect.GetX(), alignedRect.GetY());
 469:../../libdaisy/src/hid/disp/display.h ****         ((ChildType*)(this))->ChildType::WriteString(str, font, on);
 470:../../libdaisy/src/hid/disp/display.h ****         return alignedRect;
 471:../../libdaisy/src/hid/disp/display.h ****     }
 472:../../libdaisy/src/hid/disp/display.h **** 
 473:../../libdaisy/src/hid/disp/display.h ****   private:
 474:../../libdaisy/src/hid/disp/display.h ****     uint32_t strlen(const char* string)
 475:../../libdaisy/src/hid/disp/display.h ****     {
 476:../../libdaisy/src/hid/disp/display.h ****         uint32_t result = 0;
 477:../../libdaisy/src/hid/disp/display.h ****         while(*string++ != '\0')
 1724              		.loc 6 477 25 view .LVU360
 1725 0008 1146     		mov	r1, r2
 1726              	.LVL131:
 1727              		.loc 6 477 25 view .LVU361
 1728              	.LBE982:
 1729              	.LBE981:
 1730              	.LBE980:
 1731              	.LBE979:
 460:../../libdaisy/src/hid/disp/display.h ****                                  const FontDef& font,
 1732              		.loc 6 460 15 view .LVU362
 1733 000a 9046     		mov	r8, r2
 1734 000c 0990     		str	r0, [sp, #36]
 1735 000e 1D46     		mov	r5, r3
 1736              	.LVL132:
 1737              	.LBB997:
 1738              	.LBI979:
 478:../../libdaisy/src/hid/disp/display.h ****             result++;
 479:../../libdaisy/src/hid/disp/display.h ****         return result;
 480:../../libdaisy/src/hid/disp/display.h ****     }
 481:../../libdaisy/src/hid/disp/display.h **** 
 482:../../libdaisy/src/hid/disp/display.h ****     Rectangle GetTextRect(const char* text, const FontDef& font)
 1739              		.loc 6 482 15 is_stmt 1 view .LVU363
 1740              	.LBB993:
 1741              	.LBB986:
 1742              	.LBB983:
 477:../../libdaisy/src/hid/disp/display.h ****             result++;
 1743              		.loc 6 477 25 view .LVU364
 477:../../libdaisy/src/hid/disp/display.h ****             result++;
 1744              		.loc 6 477 25 is_stmt 0 view .LVU365
 1745              	.LBE983:
 1746              	.LBE986:
 1747              	.LBE993:
 1748              	.LBE997:
 460:../../libdaisy/src/hid/disp/display.h ****                                  const FontDef& font,
 1749              		.loc 6 460 15 view .LVU366
 1750 0010 9DF85800 		ldrb	r0, [sp, #88]	@ zero_extendqisi2
 1751              	.LVL133:
 1752              	.LBB998:
 1753              	.LBB994:
 1754              	.LBB987:
 1755              	.LBB984:
 477:../../libdaisy/src/hid/disp/display.h ****             result++;
 1756              		.loc 6 477 25 view .LVU367
 1757 0014 11F8012B 		ldrb	r2, [r1], #1	@ zero_extendqisi2
 1758              	.LVL134:
 477:../../libdaisy/src/hid/disp/display.h ****             result++;
ARM GAS  /tmp/ccpr9r5K.s 			page 63


 1759              		.loc 6 477 25 view .LVU368
 1760              	.LBE984:
 1761              	.LBE987:
 1762              	.LBE994:
 1763              	.LBE998:
 460:../../libdaisy/src/hid/disp/display.h ****                                  const FontDef& font,
 1764              		.loc 6 460 15 view .LVU369
 1765 0018 0890     		str	r0, [sp, #32]
 1766 001a DDE91463 		ldrd	r6, r3, [sp, #80]
 1767              	.LVL135:
 1768              	.LBB999:
 1769              	.LBB995:
 1770              	.LBB988:
 1771              	.LBB985:
 477:../../libdaisy/src/hid/disp/display.h ****             result++;
 1772              		.loc 6 477 25 view .LVU370
 1773 001e 32B1     		cbz	r2, .L121
 476:../../libdaisy/src/hid/disp/display.h ****         while(*string++ != '\0')
 1774              		.loc 6 476 18 view .LVU371
 1775 0020 0022     		movs	r2, #0
 1776              	.LVL136:
 1777              	.L122:
 477:../../libdaisy/src/hid/disp/display.h ****             result++;
 1778              		.loc 6 477 25 view .LVU372
 1779 0022 11F8010B 		ldrb	r0, [r1], #1	@ zero_extendqisi2
 1780              	.LVL137:
 478:../../libdaisy/src/hid/disp/display.h ****             result++;
 1781              		.loc 6 478 13 view .LVU373
 1782 0026 0132     		adds	r2, r2, #1
 1783              	.LVL138:
 477:../../libdaisy/src/hid/disp/display.h ****             result++;
 1784              		.loc 6 477 25 is_stmt 1 view .LVU374
 1785 0028 0028     		cmp	r0, #0
 1786 002a FAD1     		bne	.L122
 1787 002c 92B2     		uxth	r2, r2
 1788              	.LVL139:
 1789              	.L121:
 477:../../libdaisy/src/hid/disp/display.h ****             result++;
 1790              		.loc 6 477 25 is_stmt 0 view .LVU375
 1791              	.LBE985:
 1792              	.LBE988:
 483:../../libdaisy/src/hid/disp/display.h ****     {
 484:../../libdaisy/src/hid/disp/display.h ****         const auto numChars = strlen(text);
 485:../../libdaisy/src/hid/disp/display.h ****         return {int16_t(numChars * font.FontWidth), font.FontHeight};
 1793              		.loc 6 485 68 view .LVU376
 1794 002e 2978     		ldrb	r1, [r5]	@ zero_extendqisi2
 1795              		.loc 6 485 58 view .LVU377
 1796 0030 6878     		ldrb	r0, [r5, #1]	@ zero_extendqisi2
 1797              		.loc 6 485 68 view .LVU378
 1798 0032 11FB02F2 		smulbb	r2, r1, r2
 1799 0036 01B2     		sxth	r1, r0
 1800              	.LVL140:
 1801              	.LBB989:
 1802              	.LBI989:
 1803              		.file 18 "../../libdaisy/src/hid/disp/graphics_common.h"
   1:../../libdaisy/src/hid/disp/graphics_common.h **** #pragma once
   2:../../libdaisy/src/hid/disp/graphics_common.h **** 
ARM GAS  /tmp/ccpr9r5K.s 			page 64


   3:../../libdaisy/src/hid/disp/graphics_common.h **** #include <cstdint>
   4:../../libdaisy/src/hid/disp/graphics_common.h **** 
   5:../../libdaisy/src/hid/disp/graphics_common.h **** namespace daisy
   6:../../libdaisy/src/hid/disp/graphics_common.h **** {
   7:../../libdaisy/src/hid/disp/graphics_common.h **** /** Justifications */
   8:../../libdaisy/src/hid/disp/graphics_common.h **** enum class Alignment
   9:../../libdaisy/src/hid/disp/graphics_common.h **** {
  10:../../libdaisy/src/hid/disp/graphics_common.h ****     centered,
  11:../../libdaisy/src/hid/disp/graphics_common.h ****     topLeft,
  12:../../libdaisy/src/hid/disp/graphics_common.h ****     topCentered,
  13:../../libdaisy/src/hid/disp/graphics_common.h ****     topRight,
  14:../../libdaisy/src/hid/disp/graphics_common.h ****     bottomLeft,
  15:../../libdaisy/src/hid/disp/graphics_common.h ****     bottomCentered,
  16:../../libdaisy/src/hid/disp/graphics_common.h ****     bottomRight,
  17:../../libdaisy/src/hid/disp/graphics_common.h ****     centeredLeft,
  18:../../libdaisy/src/hid/disp/graphics_common.h ****     centeredRight
  19:../../libdaisy/src/hid/disp/graphics_common.h **** };
  20:../../libdaisy/src/hid/disp/graphics_common.h **** 
  21:../../libdaisy/src/hid/disp/graphics_common.h **** class Rectangle
  22:../../libdaisy/src/hid/disp/graphics_common.h **** {
  23:../../libdaisy/src/hid/disp/graphics_common.h ****   public:
  24:../../libdaisy/src/hid/disp/graphics_common.h ****     Rectangle() : x_(0), y_(0), width_(0), height_(0) {}
  25:../../libdaisy/src/hid/disp/graphics_common.h **** 
  26:../../libdaisy/src/hid/disp/graphics_common.h ****     Rectangle(int16_t width, int16_t height)
 1804              		.loc 18 26 5 is_stmt 1 view .LVU379
 1805              	.LBB990:
 1806              	.LBI990:
  27:../../libdaisy/src/hid/disp/graphics_common.h ****     : x_(0), y_(0), width_(max(0, width)), height_(max(0, height))
  28:../../libdaisy/src/hid/disp/graphics_common.h ****     {
  29:../../libdaisy/src/hid/disp/graphics_common.h ****     }
  30:../../libdaisy/src/hid/disp/graphics_common.h **** 
  31:../../libdaisy/src/hid/disp/graphics_common.h ****     Rectangle(int16_t x, int16_t y, int16_t width, int16_t height)
  32:../../libdaisy/src/hid/disp/graphics_common.h ****     : x_(x), y_(y), width_(max(0, width)), height_(max(0, height))
  33:../../libdaisy/src/hid/disp/graphics_common.h ****     {
  34:../../libdaisy/src/hid/disp/graphics_common.h ****     }
  35:../../libdaisy/src/hid/disp/graphics_common.h **** 
  36:../../libdaisy/src/hid/disp/graphics_common.h ****     Rectangle(const Rectangle& other) { *this = other; }
  37:../../libdaisy/src/hid/disp/graphics_common.h **** 
  38:../../libdaisy/src/hid/disp/graphics_common.h ****     Rectangle& operator=(const Rectangle& other)
  39:../../libdaisy/src/hid/disp/graphics_common.h ****     {
  40:../../libdaisy/src/hid/disp/graphics_common.h ****         x_      = other.x_;
  41:../../libdaisy/src/hid/disp/graphics_common.h ****         y_      = other.y_;
  42:../../libdaisy/src/hid/disp/graphics_common.h ****         width_  = other.width_;
  43:../../libdaisy/src/hid/disp/graphics_common.h ****         height_ = other.height_;
  44:../../libdaisy/src/hid/disp/graphics_common.h ****         return *this;
  45:../../libdaisy/src/hid/disp/graphics_common.h ****     }
  46:../../libdaisy/src/hid/disp/graphics_common.h **** 
  47:../../libdaisy/src/hid/disp/graphics_common.h ****     bool operator==(const Rectangle& other) const
  48:../../libdaisy/src/hid/disp/graphics_common.h ****     {
  49:../../libdaisy/src/hid/disp/graphics_common.h ****         return (x_ == other.x_) && (y_ == other.y_) && (width_ == other.width_)
  50:../../libdaisy/src/hid/disp/graphics_common.h ****                && (height_ == other.height_);
  51:../../libdaisy/src/hid/disp/graphics_common.h ****     }
  52:../../libdaisy/src/hid/disp/graphics_common.h ****     bool operator!=(const Rectangle& other) const { return !(*this == other); }
  53:../../libdaisy/src/hid/disp/graphics_common.h **** 
  54:../../libdaisy/src/hid/disp/graphics_common.h ****     bool IsEmpty() const { return (width_ <= 0) || (height_ <= 0); }
  55:../../libdaisy/src/hid/disp/graphics_common.h **** 
  56:../../libdaisy/src/hid/disp/graphics_common.h ****     int16_t GetX() const { return x_; }
ARM GAS  /tmp/ccpr9r5K.s 			page 65


  57:../../libdaisy/src/hid/disp/graphics_common.h ****     int16_t GetY() const { return y_; }
  58:../../libdaisy/src/hid/disp/graphics_common.h ****     int16_t GetWidth() const { return width_; }
  59:../../libdaisy/src/hid/disp/graphics_common.h ****     int16_t GetHeight() const { return height_; }
  60:../../libdaisy/src/hid/disp/graphics_common.h ****     int16_t GetRight() const { return x_ + width_; }
  61:../../libdaisy/src/hid/disp/graphics_common.h ****     int16_t GetBottom() const { return y_ + height_; }
  62:../../libdaisy/src/hid/disp/graphics_common.h ****     int16_t GetCenterX() const { return x_ + width_ / 2; }
  63:../../libdaisy/src/hid/disp/graphics_common.h ****     int16_t GetCenterY() const { return y_ + height_ / 2; }
  64:../../libdaisy/src/hid/disp/graphics_common.h **** 
  65:../../libdaisy/src/hid/disp/graphics_common.h ****     Rectangle WithX(int16_t x) const { return {x, y_, width_, height_}; }
  66:../../libdaisy/src/hid/disp/graphics_common.h ****     Rectangle WithY(int16_t y) const { return {x_, y, width_, height_}; }
  67:../../libdaisy/src/hid/disp/graphics_common.h ****     Rectangle WithWidth(int16_t width) const
  68:../../libdaisy/src/hid/disp/graphics_common.h ****     {
  69:../../libdaisy/src/hid/disp/graphics_common.h ****         return {x_, y_, width, height_};
  70:../../libdaisy/src/hid/disp/graphics_common.h ****     }
  71:../../libdaisy/src/hid/disp/graphics_common.h ****     Rectangle WithHeight(int16_t height) const
  72:../../libdaisy/src/hid/disp/graphics_common.h ****     {
  73:../../libdaisy/src/hid/disp/graphics_common.h ****         return {x_, y_, width_, height};
  74:../../libdaisy/src/hid/disp/graphics_common.h ****     }
  75:../../libdaisy/src/hid/disp/graphics_common.h ****     Rectangle WithSize(int16_t width, int16_t height) const
  76:../../libdaisy/src/hid/disp/graphics_common.h ****     {
  77:../../libdaisy/src/hid/disp/graphics_common.h ****         return {x_, y_, width, height};
  78:../../libdaisy/src/hid/disp/graphics_common.h ****     }
  79:../../libdaisy/src/hid/disp/graphics_common.h ****     Rectangle WithWidthKeepingCenter(int16_t width) const
  80:../../libdaisy/src/hid/disp/graphics_common.h ****     {
  81:../../libdaisy/src/hid/disp/graphics_common.h ****         return Rectangle(x_, y_, width, height_)
  82:../../libdaisy/src/hid/disp/graphics_common.h ****             .WithCenter(GetCenterX(), GetCenterY());
  83:../../libdaisy/src/hid/disp/graphics_common.h ****     }
  84:../../libdaisy/src/hid/disp/graphics_common.h ****     Rectangle WithHeightKeepingCenter(int16_t height) const
  85:../../libdaisy/src/hid/disp/graphics_common.h ****     {
  86:../../libdaisy/src/hid/disp/graphics_common.h ****         return Rectangle(x_, y_, width_, height)
  87:../../libdaisy/src/hid/disp/graphics_common.h ****             .WithCenter(GetCenterX(), GetCenterY());
  88:../../libdaisy/src/hid/disp/graphics_common.h ****     }
  89:../../libdaisy/src/hid/disp/graphics_common.h ****     Rectangle WithSizeKeepingCenter(int16_t width, int16_t height) const
  90:../../libdaisy/src/hid/disp/graphics_common.h ****     {
  91:../../libdaisy/src/hid/disp/graphics_common.h ****         return Rectangle(x_, y_, width, height)
  92:../../libdaisy/src/hid/disp/graphics_common.h ****             .WithCenter(GetCenterX(), GetCenterY());
  93:../../libdaisy/src/hid/disp/graphics_common.h ****     }
  94:../../libdaisy/src/hid/disp/graphics_common.h **** 
  95:../../libdaisy/src/hid/disp/graphics_common.h ****     Rectangle Reduced(int16_t sizeToReduce) const
  96:../../libdaisy/src/hid/disp/graphics_common.h ****     {
  97:../../libdaisy/src/hid/disp/graphics_common.h ****         return {int16_t(x_ + sizeToReduce),
  98:../../libdaisy/src/hid/disp/graphics_common.h ****                 int16_t(y_ + sizeToReduce),
  99:../../libdaisy/src/hid/disp/graphics_common.h ****                 int16_t(width_ - 2 * sizeToReduce),
 100:../../libdaisy/src/hid/disp/graphics_common.h ****                 int16_t(height_ - 2 * sizeToReduce)};
 101:../../libdaisy/src/hid/disp/graphics_common.h ****     }
 102:../../libdaisy/src/hid/disp/graphics_common.h ****     Rectangle Reduced(int16_t xToReduce, int16_t yToReduce) const
 103:../../libdaisy/src/hid/disp/graphics_common.h ****     {
 104:../../libdaisy/src/hid/disp/graphics_common.h ****         return {int16_t(x_ + xToReduce),
 105:../../libdaisy/src/hid/disp/graphics_common.h ****                 int16_t(y_ + yToReduce),
 106:../../libdaisy/src/hid/disp/graphics_common.h ****                 int16_t(width_ - 2 * xToReduce),
 107:../../libdaisy/src/hid/disp/graphics_common.h ****                 int16_t(height_ - 2 * yToReduce)};
 108:../../libdaisy/src/hid/disp/graphics_common.h ****     }
 109:../../libdaisy/src/hid/disp/graphics_common.h **** 
 110:../../libdaisy/src/hid/disp/graphics_common.h ****     Rectangle Translated(int16_t x, int16_t y) const
 111:../../libdaisy/src/hid/disp/graphics_common.h ****     {
 112:../../libdaisy/src/hid/disp/graphics_common.h ****         return {int16_t(x_ + x), int16_t(y_ + y), width_, height_};
 113:../../libdaisy/src/hid/disp/graphics_common.h ****     }
ARM GAS  /tmp/ccpr9r5K.s 			page 66


 114:../../libdaisy/src/hid/disp/graphics_common.h **** 
 115:../../libdaisy/src/hid/disp/graphics_common.h ****     Rectangle WithLeft(int16_t left) const
 116:../../libdaisy/src/hid/disp/graphics_common.h ****     {
 117:../../libdaisy/src/hid/disp/graphics_common.h ****         const auto newWidth = int16_t((x_ - left) + width_);
 118:../../libdaisy/src/hid/disp/graphics_common.h ****         return {left, y_, newWidth, height_};
 119:../../libdaisy/src/hid/disp/graphics_common.h ****     }
 120:../../libdaisy/src/hid/disp/graphics_common.h **** 
 121:../../libdaisy/src/hid/disp/graphics_common.h ****     Rectangle WithRight(int16_t right) const
 122:../../libdaisy/src/hid/disp/graphics_common.h ****     {
 123:../../libdaisy/src/hid/disp/graphics_common.h ****         const auto newWidth = int16_t(right - x_);
 124:../../libdaisy/src/hid/disp/graphics_common.h ****         return {x_, y_, newWidth, height_};
 125:../../libdaisy/src/hid/disp/graphics_common.h ****     }
 126:../../libdaisy/src/hid/disp/graphics_common.h **** 
 127:../../libdaisy/src/hid/disp/graphics_common.h ****     Rectangle WithTop(int16_t top) const
 128:../../libdaisy/src/hid/disp/graphics_common.h ****     {
 129:../../libdaisy/src/hid/disp/graphics_common.h ****         const auto newHeight = int16_t((y_ - top) + height_);
 130:../../libdaisy/src/hid/disp/graphics_common.h ****         return {x_, top, width_, newHeight};
 131:../../libdaisy/src/hid/disp/graphics_common.h ****     }
 132:../../libdaisy/src/hid/disp/graphics_common.h **** 
 133:../../libdaisy/src/hid/disp/graphics_common.h ****     Rectangle WithBottom(int16_t bottom) const
 134:../../libdaisy/src/hid/disp/graphics_common.h ****     {
 135:../../libdaisy/src/hid/disp/graphics_common.h ****         const auto newHeight = int16_t(bottom - y_);
 136:../../libdaisy/src/hid/disp/graphics_common.h ****         return {x_, y_, width_, newHeight};
 137:../../libdaisy/src/hid/disp/graphics_common.h ****     }
 138:../../libdaisy/src/hid/disp/graphics_common.h **** 
 139:../../libdaisy/src/hid/disp/graphics_common.h ****     Rectangle WithTrimmedLeft(int16_t pxToTrim) const
 140:../../libdaisy/src/hid/disp/graphics_common.h ****     {
 141:../../libdaisy/src/hid/disp/graphics_common.h ****         return {
 142:../../libdaisy/src/hid/disp/graphics_common.h ****             int16_t(x_ + pxToTrim), y_, int16_t(width_ - pxToTrim), height_};
 143:../../libdaisy/src/hid/disp/graphics_common.h ****     }
 144:../../libdaisy/src/hid/disp/graphics_common.h **** 
 145:../../libdaisy/src/hid/disp/graphics_common.h ****     Rectangle WithTrimmedRight(int16_t pxToTrim) const
 146:../../libdaisy/src/hid/disp/graphics_common.h ****     {
 147:../../libdaisy/src/hid/disp/graphics_common.h ****         return {x_, y_, int16_t(width_ - pxToTrim), height_};
 148:../../libdaisy/src/hid/disp/graphics_common.h ****     }
 149:../../libdaisy/src/hid/disp/graphics_common.h **** 
 150:../../libdaisy/src/hid/disp/graphics_common.h ****     Rectangle WithTrimmedTop(int16_t pxToTrim) const
 151:../../libdaisy/src/hid/disp/graphics_common.h ****     {
 152:../../libdaisy/src/hid/disp/graphics_common.h ****         return {
 153:../../libdaisy/src/hid/disp/graphics_common.h ****             x_, int16_t(y_ + pxToTrim), width_, int16_t(height_ - pxToTrim)};
 154:../../libdaisy/src/hid/disp/graphics_common.h ****     }
 155:../../libdaisy/src/hid/disp/graphics_common.h **** 
 156:../../libdaisy/src/hid/disp/graphics_common.h ****     Rectangle WithTrimmedBottom(int16_t pxToTrim) const
 157:../../libdaisy/src/hid/disp/graphics_common.h ****     {
 158:../../libdaisy/src/hid/disp/graphics_common.h ****         return {x_, y_, width_, int16_t(height_ - pxToTrim)};
 159:../../libdaisy/src/hid/disp/graphics_common.h ****     }
 160:../../libdaisy/src/hid/disp/graphics_common.h **** 
 161:../../libdaisy/src/hid/disp/graphics_common.h ****     Rectangle WithCenterX(int16_t centerX) const
 162:../../libdaisy/src/hid/disp/graphics_common.h ****     {
 163:../../libdaisy/src/hid/disp/graphics_common.h ****         return {int16_t(x_ + centerX - GetCenterX()), y_, width_, height_};
 164:../../libdaisy/src/hid/disp/graphics_common.h ****     }
 165:../../libdaisy/src/hid/disp/graphics_common.h **** 
 166:../../libdaisy/src/hid/disp/graphics_common.h ****     Rectangle WithCenterY(int16_t centerY) const
 167:../../libdaisy/src/hid/disp/graphics_common.h ****     {
 168:../../libdaisy/src/hid/disp/graphics_common.h ****         return {x_, int16_t(y_ + centerY - GetCenterY()), width_, height_};
 169:../../libdaisy/src/hid/disp/graphics_common.h ****     }
 170:../../libdaisy/src/hid/disp/graphics_common.h **** 
ARM GAS  /tmp/ccpr9r5K.s 			page 67


 171:../../libdaisy/src/hid/disp/graphics_common.h ****     Rectangle WithCenter(int16_t centerX, int16_t centerY) const
 172:../../libdaisy/src/hid/disp/graphics_common.h ****     {
 173:../../libdaisy/src/hid/disp/graphics_common.h ****         return {int16_t(x_ + centerX - GetCenterX()),
 174:../../libdaisy/src/hid/disp/graphics_common.h ****                 int16_t(y_ + centerY - GetCenterY()),
 175:../../libdaisy/src/hid/disp/graphics_common.h ****                 width_,
 176:../../libdaisy/src/hid/disp/graphics_common.h ****                 height_};
 177:../../libdaisy/src/hid/disp/graphics_common.h ****     }
 178:../../libdaisy/src/hid/disp/graphics_common.h **** 
 179:../../libdaisy/src/hid/disp/graphics_common.h ****     Rectangle RemoveFromLeft(int16_t pxToRemove)
 180:../../libdaisy/src/hid/disp/graphics_common.h ****     {
 181:../../libdaisy/src/hid/disp/graphics_common.h ****         const auto result = this->WithWidth(min(pxToRemove, width_));
 182:../../libdaisy/src/hid/disp/graphics_common.h ****         x_ += min(pxToRemove, width_);
 183:../../libdaisy/src/hid/disp/graphics_common.h ****         width_ = max(int16_t(width_ - pxToRemove), 0);
 184:../../libdaisy/src/hid/disp/graphics_common.h ****         return result;
 185:../../libdaisy/src/hid/disp/graphics_common.h ****     }
 186:../../libdaisy/src/hid/disp/graphics_common.h **** 
 187:../../libdaisy/src/hid/disp/graphics_common.h ****     Rectangle RemoveFromRight(int16_t pxToRemove)
 188:../../libdaisy/src/hid/disp/graphics_common.h ****     {
 189:../../libdaisy/src/hid/disp/graphics_common.h ****         const auto canRemove = min(pxToRemove, width_);
 190:../../libdaisy/src/hid/disp/graphics_common.h ****         width_ -= canRemove;
 191:../../libdaisy/src/hid/disp/graphics_common.h ****         return {int16_t(x_ + width_), y_, canRemove, height_};
 192:../../libdaisy/src/hid/disp/graphics_common.h ****     }
 193:../../libdaisy/src/hid/disp/graphics_common.h **** 
 194:../../libdaisy/src/hid/disp/graphics_common.h ****     Rectangle RemoveFromTop(int16_t pxToRemove)
 195:../../libdaisy/src/hid/disp/graphics_common.h ****     {
 196:../../libdaisy/src/hid/disp/graphics_common.h ****         const auto result = this->WithHeight(min(pxToRemove, height_));
 197:../../libdaisy/src/hid/disp/graphics_common.h ****         y_ += min(pxToRemove, height_);
 198:../../libdaisy/src/hid/disp/graphics_common.h ****         height_ = max(height_ - pxToRemove, 0);
 199:../../libdaisy/src/hid/disp/graphics_common.h ****         return result;
 200:../../libdaisy/src/hid/disp/graphics_common.h ****     }
 201:../../libdaisy/src/hid/disp/graphics_common.h **** 
 202:../../libdaisy/src/hid/disp/graphics_common.h ****     Rectangle RemoveFromBottom(int16_t pxToRemove)
 203:../../libdaisy/src/hid/disp/graphics_common.h ****     {
 204:../../libdaisy/src/hid/disp/graphics_common.h ****         const auto canRemove = min(pxToRemove, height_);
 205:../../libdaisy/src/hid/disp/graphics_common.h ****         height_ -= canRemove;
 206:../../libdaisy/src/hid/disp/graphics_common.h ****         return {x_, int16_t(y_ + height_), width_, canRemove};
 207:../../libdaisy/src/hid/disp/graphics_common.h ****     }
 208:../../libdaisy/src/hid/disp/graphics_common.h **** 
 209:../../libdaisy/src/hid/disp/graphics_common.h ****     Rectangle AlignedWithin(const Rectangle& other, Alignment alignment) const
 210:../../libdaisy/src/hid/disp/graphics_common.h ****     {
 211:../../libdaisy/src/hid/disp/graphics_common.h ****         switch(alignment)
 212:../../libdaisy/src/hid/disp/graphics_common.h ****         {
 213:../../libdaisy/src/hid/disp/graphics_common.h ****             case Alignment::topLeft:
 214:../../libdaisy/src/hid/disp/graphics_common.h ****                 return {other.x_, other.y_, width_, height_};
 215:../../libdaisy/src/hid/disp/graphics_common.h ****             case Alignment::topRight:
 216:../../libdaisy/src/hid/disp/graphics_common.h ****                 return {int16_t(other.GetRight() - width_),
 217:../../libdaisy/src/hid/disp/graphics_common.h ****                         other.y_,
 218:../../libdaisy/src/hid/disp/graphics_common.h ****                         width_,
 219:../../libdaisy/src/hid/disp/graphics_common.h ****                         height_};
 220:../../libdaisy/src/hid/disp/graphics_common.h ****             case Alignment::topCentered:
 221:../../libdaisy/src/hid/disp/graphics_common.h ****                 return {int16_t(x_ + (other.GetCenterX() - GetCenterX())),
 222:../../libdaisy/src/hid/disp/graphics_common.h ****                         other.y_,
 223:../../libdaisy/src/hid/disp/graphics_common.h ****                         width_,
 224:../../libdaisy/src/hid/disp/graphics_common.h ****                         height_};
 225:../../libdaisy/src/hid/disp/graphics_common.h ****             case Alignment::bottomLeft:
 226:../../libdaisy/src/hid/disp/graphics_common.h ****                 return {other.x_,
 227:../../libdaisy/src/hid/disp/graphics_common.h ****                         int16_t(other.GetBottom() - height_),
ARM GAS  /tmp/ccpr9r5K.s 			page 68


 228:../../libdaisy/src/hid/disp/graphics_common.h ****                         width_,
 229:../../libdaisy/src/hid/disp/graphics_common.h ****                         height_};
 230:../../libdaisy/src/hid/disp/graphics_common.h ****             case Alignment::bottomRight:
 231:../../libdaisy/src/hid/disp/graphics_common.h ****                 return {int16_t(other.GetRight() - width_),
 232:../../libdaisy/src/hid/disp/graphics_common.h ****                         int16_t(other.GetBottom() - height_),
 233:../../libdaisy/src/hid/disp/graphics_common.h ****                         width_,
 234:../../libdaisy/src/hid/disp/graphics_common.h ****                         height_};
 235:../../libdaisy/src/hid/disp/graphics_common.h ****             case Alignment::bottomCentered:
 236:../../libdaisy/src/hid/disp/graphics_common.h ****                 return {int16_t(x_ + (other.GetCenterX() - GetCenterX())),
 237:../../libdaisy/src/hid/disp/graphics_common.h ****                         int16_t(other.GetBottom() - height_),
 238:../../libdaisy/src/hid/disp/graphics_common.h ****                         width_,
 239:../../libdaisy/src/hid/disp/graphics_common.h ****                         height_};
 240:../../libdaisy/src/hid/disp/graphics_common.h ****             case Alignment::centeredLeft:
 241:../../libdaisy/src/hid/disp/graphics_common.h ****                 return {other.x_,
 242:../../libdaisy/src/hid/disp/graphics_common.h ****                         int16_t(y_ + (other.GetCenterY() - GetCenterY())),
 243:../../libdaisy/src/hid/disp/graphics_common.h ****                         width_,
 244:../../libdaisy/src/hid/disp/graphics_common.h ****                         height_};
 245:../../libdaisy/src/hid/disp/graphics_common.h ****             case Alignment::centeredRight:
 246:../../libdaisy/src/hid/disp/graphics_common.h ****                 return {int16_t(other.GetRight() - width_),
 247:../../libdaisy/src/hid/disp/graphics_common.h ****                         int16_t(y_ + (other.GetCenterY() - GetCenterY())),
 248:../../libdaisy/src/hid/disp/graphics_common.h ****                         width_,
 249:../../libdaisy/src/hid/disp/graphics_common.h ****                         height_};
 250:../../libdaisy/src/hid/disp/graphics_common.h ****             case Alignment::centered:
 251:../../libdaisy/src/hid/disp/graphics_common.h ****                 return {int16_t(x_ + (other.GetCenterX() - GetCenterX())),
 252:../../libdaisy/src/hid/disp/graphics_common.h ****                         int16_t(y_ + (other.GetCenterY() - GetCenterY())),
 253:../../libdaisy/src/hid/disp/graphics_common.h ****                         width_,
 254:../../libdaisy/src/hid/disp/graphics_common.h ****                         height_};
 255:../../libdaisy/src/hid/disp/graphics_common.h ****             default: return {};
 256:../../libdaisy/src/hid/disp/graphics_common.h ****         }
 257:../../libdaisy/src/hid/disp/graphics_common.h ****     }
 258:../../libdaisy/src/hid/disp/graphics_common.h **** 
 259:../../libdaisy/src/hid/disp/graphics_common.h ****   private:
 260:../../libdaisy/src/hid/disp/graphics_common.h ****     int16_t x_, y_, width_, height_;
 261:../../libdaisy/src/hid/disp/graphics_common.h ****     int16_t max(int16_t a, int16_t b) { return (a > b) ? a : b; }
 1807              		.loc 18 261 13 view .LVU380
 1808              		.loc 18 261 13 is_stmt 0 view .LVU381
 1809              	.LBE990:
 1810              	.LBE989:
 1811              	.LBE995:
 1812              	.LBE999:
 1813              		.loc 18 261 41 is_stmt 1 view .LVU382
 1814 0038 12B2     		sxth	r2, r2
 1815 003a 22EAE272 		bic	r2, r2, r2, asr #31
 1816              	.LVL141:
 1817              	.LBB1000:
 1818              	.LBB996:
 1819              	.LBB992:
 1820              	.LBB991:
 1821              	.LBI991:
 1822              		.loc 18 261 13 view .LVU383
 1823              		.loc 18 261 13 is_stmt 0 view .LVU384
 1824              	.LBE991:
 1825              	.LBE992:
 1826              	.LBE996:
 1827              	.LBE1000:
 1828              		.loc 18 261 41 is_stmt 1 view .LVU385
 1829              	.LBB1001:
ARM GAS  /tmp/ccpr9r5K.s 			page 69


 1830              	.LBI1001:
 209:../../libdaisy/src/hid/disp/graphics_common.h ****     {
 1831              		.loc 18 209 15 view .LVU386
 1832              	.LBB1002:
 211:../../libdaisy/src/hid/disp/graphics_common.h ****         {
 1833              		.loc 18 211 9 view .LVU387
 1834 003e 082B     		cmp	r3, #8
 1835 0040 00F2AD81 		bhi	.L123
 1836 0044 DFE813F0 		tbh	[pc, r3, lsl #1]
 1837              	.L125:
 1838 0048 0001     		.2byte	(.L133-.L125)/2
 1839 004a 1201     		.2byte	(.L132-.L125)/2
 1840 004c 1E01     		.2byte	(.L131-.L125)/2
 1841 004e 3201     		.2byte	(.L130-.L125)/2
 1842 0050 4001     		.2byte	(.L129-.L125)/2
 1843 0052 5001     		.2byte	(.L128-.L125)/2
 1844 0054 6B01     		.2byte	(.L127-.L125)/2
 1845 0056 7801     		.2byte	(.L126-.L125)/2
 1846 0058 0900     		.2byte	(.L124-.L125)/2
 1847              		.p2align 1
 1848              	.L124:
 245:../../libdaisy/src/hid/disp/graphics_common.h ****                 return {int16_t(other.GetRight() - width_),
 1849              		.loc 18 245 13 view .LVU388
 246:../../libdaisy/src/hid/disp/graphics_common.h ****                         int16_t(y_ + (other.GetCenterY() - GetCenterY())),
 1850              		.loc 18 246 17 view .LVU389
 1851              	.LBB1003:
 1852              	.LBI1003:
  60:../../libdaisy/src/hid/disp/graphics_common.h ****     int16_t GetBottom() const { return y_ + height_; }
 1853              		.loc 18 60 13 view .LVU390
 1854              	.LVL142:
 1855              	.LBB1004:
  60:../../libdaisy/src/hid/disp/graphics_common.h ****     int16_t GetBottom() const { return y_ + height_; }
 1856              		.loc 18 60 32 view .LVU391
  60:../../libdaisy/src/hid/disp/graphics_common.h ****     int16_t GetBottom() const { return y_ + height_; }
 1857              		.loc 18 60 42 is_stmt 0 view .LVU392
 1858 005a 3788     		ldrh	r7, [r6]
 1859 005c B088     		ldrh	r0, [r6, #4]
 1860              	.LBE1004:
 1861              	.LBE1003:
 1862              	.LBB1006:
 1863              	.LBB1007:
  63:../../libdaisy/src/hid/disp/graphics_common.h **** 
 1864              		.loc 18 63 54 view .LVU393
 1865 005e B6F90630 		ldrsh	r3, [r6, #6]
 1866              	.LVL143:
  63:../../libdaisy/src/hid/disp/graphics_common.h **** 
 1867              		.loc 18 63 54 view .LVU394
 1868              	.LBE1007:
 1869              	.LBE1006:
 1870              	.LBB1011:
 1871              	.LBB1005:
  60:../../libdaisy/src/hid/disp/graphics_common.h ****     int16_t GetBottom() const { return y_ + height_; }
 1872              		.loc 18 60 42 view .LVU395
 1873 0062 0744     		add	r7, r7, r0
 1874              	.LBE1005:
 1875              	.LBE1011:
 1876              	.LBB1012:
ARM GAS  /tmp/ccpr9r5K.s 			page 70


 1877              	.LBB1008:
  63:../../libdaisy/src/hid/disp/graphics_common.h **** 
 1878              		.loc 18 63 54 view .LVU396
 1879 0064 002B     		cmp	r3, #0
 1880              	.LBE1008:
 1881              	.LBE1012:
 246:../../libdaisy/src/hid/disp/graphics_common.h ****                         int16_t(y_ + (other.GetCenterY() - GetCenterY())),
 1882              		.loc 18 246 50 view .LVU397
 1883 0066 A7EB0207 		sub	r7, r7, r2
 1884 006a BFB2     		uxth	r7, r7
 1885              	.LBB1013:
 1886              	.LBI1006:
  63:../../libdaisy/src/hid/disp/graphics_common.h **** 
 1887              		.loc 18 63 13 is_stmt 1 view .LVU398
 1888              	.LVL144:
 1889              	.LBB1009:
  63:../../libdaisy/src/hid/disp/graphics_common.h **** 
 1890              		.loc 18 63 34 view .LVU399
  63:../../libdaisy/src/hid/disp/graphics_common.h **** 
 1891              		.loc 18 63 34 is_stmt 0 view .LVU400
 1892              	.LBE1009:
 1893              	.LBE1013:
 1894              	.LBB1014:
 1895              	.LBI1014:
  63:../../libdaisy/src/hid/disp/graphics_common.h **** 
 1896              		.loc 18 63 13 is_stmt 1 view .LVU401
 1897              	.LBB1015:
  63:../../libdaisy/src/hid/disp/graphics_common.h **** 
 1898              		.loc 18 63 34 view .LVU402
 1899              	.LBE1015:
 1900              	.LBE1014:
 1901              	.LBB1016:
 1902              	.LBB1010:
  63:../../libdaisy/src/hid/disp/graphics_common.h **** 
 1903              		.loc 18 63 54 is_stmt 0 view .LVU403
 1904 006c C0F2FC80 		blt	.L197
 1905              	.LVL145:
 1906              	.L140:
  63:../../libdaisy/src/hid/disp/graphics_common.h **** 
 1907              		.loc 18 63 54 view .LVU404
 1908              	.LBE1010:
 1909              	.LBE1016:
 1910              	.LBB1017:
 1911              	.LBB1018:
  63:../../libdaisy/src/hid/disp/graphics_common.h **** 
 1912              		.loc 18 63 44 view .LVU405
 1913 0070 B6F802C0 		ldrh	ip, [r6, #2]
 1914              	.LBE1018:
 1915              	.LBE1017:
 1916              	.LBB1024:
 1917              	.LBB1025:
 1918              	.LBB1026:
  32:../../libdaisy/src/hid/disp/graphics_common.h ****     {
 1919              		.loc 18 32 66 view .LVU406
 1920 0074 0998     		ldr	r0, [sp, #36]
 1921              	.LBE1026:
 1922              	.LBE1025:
ARM GAS  /tmp/ccpr9r5K.s 			page 71


 1923              	.LBE1024:
 1924              	.LBB1035:
 1925              	.LBB1019:
  63:../../libdaisy/src/hid/disp/graphics_common.h **** 
 1926              		.loc 18 63 44 view .LVU407
 1927 0076 0CEB6306 		add	r6, ip, r3, asr #1
 1928              	.LVL146:
  63:../../libdaisy/src/hid/disp/graphics_common.h **** 
 1929              		.loc 18 63 44 view .LVU408
 1930              	.LBE1019:
 1931              	.LBE1035:
 1932              	.LBB1036:
 1933              	.LBB1032:
 1934              	.LBB1029:
  32:../../libdaisy/src/hid/disp/graphics_common.h ****     {
 1935              		.loc 18 32 66 view .LVU409
 1936 007a 0346     		mov	r3, r0
 1937 007c 0780     		strh	r7, [r0]	@ movhi
 1938              	.L195:
  32:../../libdaisy/src/hid/disp/graphics_common.h ****     {
 1939              		.loc 18 32 66 view .LVU410
 1940 007e 8280     		strh	r2, [r0, #4]	@ movhi
 1941 0080 D980     		strh	r1, [r3, #6]	@ movhi
 1942              	.LBE1029:
 1943              	.LBE1032:
 1944              	.LBE1036:
 252:../../libdaisy/src/hid/disp/graphics_common.h ****                         width_,
 1945              		.loc 18 252 58 view .LVU411
 1946 0082 A6EB5101 		sub	r1, r6, r1, lsr #1
 1947 0086 8EB2     		uxth	r6, r1
 1948              	.LVL147:
 1949              	.LBB1037:
 1950              	.LBI1024:
  31:../../libdaisy/src/hid/disp/graphics_common.h ****     : x_(x), y_(y), width_(max(0, width)), height_(max(0, height))
 1951              		.loc 18 31 5 is_stmt 1 view .LVU412
 1952              	.LBB1033:
 1953              	.LBB1030:
  32:../../libdaisy/src/hid/disp/graphics_common.h ****     {
 1954              		.loc 18 32 66 is_stmt 0 view .LVU413
 1955 0088 5E80     		strh	r6, [r3, #2]	@ movhi
 1956              	.LVL148:
 1957              	.LBB1027:
 1958              	.LBI1027:
 1959              		.loc 18 261 13 is_stmt 1 view .LVU414
 1960              		.loc 18 261 13 is_stmt 0 view .LVU415
 1961              	.LBE1027:
 1962              	.LBE1030:
 1963              	.LBE1033:
 1964              	.LBE1037:
 1965              	.LBE1002:
 1966              	.LBE1001:
 1967              		.loc 18 261 41 is_stmt 1 view .LVU416
 1968              	.LBB1222:
 1969              	.LBB1207:
 1970              	.LBB1038:
 1971              	.LBB1034:
 1972              	.LBB1031:
ARM GAS  /tmp/ccpr9r5K.s 			page 72


 1973              	.LBB1028:
 1974              	.LBI1028:
 1975              		.loc 18 261 13 view .LVU417
 1976              		.loc 18 261 13 is_stmt 0 view .LVU418
 1977              	.LBE1028:
 1978              	.LBE1031:
 1979              	.LBE1034:
 1980              	.LBE1038:
 1981              	.LBE1207:
 1982              	.LBE1222:
 1983              		.loc 18 261 41 is_stmt 1 view .LVU419
 1984              	.L134:
  56:../../libdaisy/src/hid/disp/graphics_common.h ****     int16_t GetY() const { return y_; }
 1985              		.loc 18 56 28 view .LVU420
  57:../../libdaisy/src/hid/disp/graphics_common.h ****     int16_t GetWidth() const { return width_; }
 1986              		.loc 18 57 28 view .LVU421
 1987              	.LBB1223:
 1988              	.LBI1223:
 171:../../libdaisy/src/hid/disp/display.h ****     {
 1989              		.loc 6 171 10 view .LVU422
 1990              	.LBB1224:
 173:../../libdaisy/src/hid/disp/display.h ****         currentY_ = (y >= Height()) ? Height() - 1 : y;
 1991              		.loc 6 173 9 view .LVU423
 1992 008a B64A     		ldr	r2, .L207
 173:../../libdaisy/src/hid/disp/display.h ****         currentY_ = (y >= Height()) ? Height() - 1 : y;
 1993              		.loc 6 173 33 is_stmt 0 view .LVU424
 1994 008c 2368     		ldr	r3, [r4]
 1995 008e 1146     		mov	r1, r2
 1996 0090 0192     		str	r2, [sp, #4]
 1997 0092 DA68     		ldr	r2, [r3, #12]
 1998 0094 8A42     		cmp	r2, r1
 1999 0096 40F08F81 		bne	.L142
 2000 009a 8020     		movs	r0, #128
 2001              	.LVL149:
 2002              	.L143:
 173:../../libdaisy/src/hid/disp/display.h ****         currentY_ = (y >= Height()) ? Height() - 1 : y;
 2003              		.loc 6 173 19 view .LVU425
 2004 009c B842     		cmp	r0, r7
 2005 009e 05D8     		bhi	.L144
 173:../../libdaisy/src/hid/disp/display.h ****         currentY_ = (y >= Height()) ? Height() - 1 : y;
 2006              		.loc 6 173 44 view .LVU426
 2007 00a0 DA68     		ldr	r2, [r3, #12]
 2008 00a2 0199     		ldr	r1, [sp, #4]
 2009 00a4 8A42     		cmp	r2, r1
 2010 00a6 40F09A81 		bne	.L198
 2011 00aa 7F27     		movs	r7, #127
 2012              	.L144:
 174:../../libdaisy/src/hid/disp/display.h ****     }
 2013              		.loc 6 174 34 view .LVU427
 2014 00ac 9B68     		ldr	r3, [r3, #8]
 2015 00ae AE4A     		ldr	r2, .L207+4
 173:../../libdaisy/src/hid/disp/display.h ****         currentY_ = (y >= Height()) ? Height() - 1 : y;
 2016              		.loc 6 173 19 view .LVU428
 2017 00b0 A780     		strh	r7, [r4, #4]	@ movhi
 174:../../libdaisy/src/hid/disp/display.h ****     }
 2018              		.loc 6 174 9 is_stmt 1 view .LVU429
 2019 00b2 9342     		cmp	r3, r2
ARM GAS  /tmp/ccpr9r5K.s 			page 73


 2020 00b4 0392     		str	r2, [sp, #12]
 2021 00b6 40F08A81 		bne	.L174
 174:../../libdaisy/src/hid/disp/display.h ****     }
 2022              		.loc 6 174 34 is_stmt 0 view .LVU430
 2023 00ba 4020     		movs	r0, #64
 2024              	.L146:
 174:../../libdaisy/src/hid/disp/display.h ****     }
 2025              		.loc 6 174 19 view .LVU431
 2026 00bc B042     		cmp	r0, r6
 2027 00be 06D8     		bhi	.L148
 174:../../libdaisy/src/hid/disp/display.h ****     }
 2028              		.loc 6 174 46 view .LVU432
 2029 00c0 2368     		ldr	r3, [r4]
 2030 00c2 039A     		ldr	r2, [sp, #12]
 2031 00c4 9B68     		ldr	r3, [r3, #8]
 2032 00c6 9342     		cmp	r3, r2
 2033 00c8 40F08481 		bne	.L199
 2034 00cc 3F26     		movs	r6, #63
 2035              	.L148:
 174:../../libdaisy/src/hid/disp/display.h ****     }
 2036              		.loc 6 174 46 view .LVU433
 2037 00ce 6B78     		ldrb	r3, [r5, #1]	@ zero_extendqisi2
 174:../../libdaisy/src/hid/disp/display.h ****     }
 2038              		.loc 6 174 19 view .LVU434
 2039 00d0 E680     		strh	r6, [r4, #6]	@ movhi
 2040              	.LVL150:
 174:../../libdaisy/src/hid/disp/display.h ****     }
 2041              		.loc 6 174 19 view .LVU435
 2042 00d2 0493     		str	r3, [sp, #16]
 2043              	.LBE1224:
 2044              	.LBE1223:
 2045              	.LBB1228:
 2046              	.LBB1229:
 443:../../libdaisy/src/hid/disp/display.h ****         {
 2047              		.loc 6 443 9 view .LVU436
 2048 00d4 98F80060 		ldrb	r6, [r8]	@ zero_extendqisi2
 2049 00d8 6B68     		ldr	r3, [r5, #4]
 2050 00da 95F800B0 		ldrb	fp, [r5]	@ zero_extendqisi2
 2051              	.LVL151:
 443:../../libdaisy/src/hid/disp/display.h ****         {
 2052              		.loc 6 443 9 view .LVU437
 2053 00de 0793     		str	r3, [sp, #28]
 2054              	.LVL152:
 443:../../libdaisy/src/hid/disp/display.h ****         {
 2055              		.loc 6 443 9 view .LVU438
 2056              	.LBE1229:
 2057              	.LBI1228:
 440:../../libdaisy/src/hid/disp/display.h ****     {
 2058              		.loc 6 440 10 is_stmt 1 view .LVU439
 2059              	.LBB1272:
 443:../../libdaisy/src/hid/disp/display.h ****         {
 2060              		.loc 6 443 9 view .LVU440
 2061 00e0 002E     		cmp	r6, #0
 2062 00e2 00F0AD80 		beq	.L120
 2063              	.LVL153:
 2064              	.L150:
 2065              	.LBB1230:
ARM GAS  /tmp/ccpr9r5K.s 			page 74


 2066              	.LBI1230:
 396:../../libdaisy/src/hid/disp/display.h ****     {
 2067              		.loc 6 396 10 view .LVU441
 2068              	.LBB1231:
 401:../../libdaisy/src/hid/disp/display.h ****             return 0;
 2069              		.loc 6 401 20 is_stmt 0 view .LVU442
 2070 00e6 A6F12005 		sub	r5, r6, #32
 401:../../libdaisy/src/hid/disp/display.h ****             return 0;
 2071              		.loc 6 401 9 view .LVU443
 2072 00ea EBB2     		uxtb	r3, r5
 2073 00ec 5E2B     		cmp	r3, #94
 2074 00ee 00F23481 		bhi	.L154
 405:../../libdaisy/src/hid/disp/display.h ****            || Height() < (currentY_ + font.FontHeight))
 2075              		.loc 6 405 17 view .LVU444
 2076 00f2 2368     		ldr	r3, [r4]
 2077 00f4 019A     		ldr	r2, [sp, #4]
 2078 00f6 DB68     		ldr	r3, [r3, #12]
 2079 00f8 9342     		cmp	r3, r2
 2080 00fa 40F03081 		bne	.L200
 2081 00fe 8020     		movs	r0, #128
 2082              	.L153:
 405:../../libdaisy/src/hid/disp/display.h ****            || Height() < (currentY_ + font.FontHeight))
 2083              		.loc 6 405 23 view .LVU445
 2084 0100 A388     		ldrh	r3, [r4, #4]
 405:../../libdaisy/src/hid/disp/display.h ****            || Height() < (currentY_ + font.FontHeight))
 2085              		.loc 6 405 33 view .LVU446
 2086 0102 5B44     		add	r3, r3, fp
 406:../../libdaisy/src/hid/disp/display.h ****         {
 2087              		.loc 6 406 12 view .LVU447
 2088 0104 9842     		cmp	r0, r3
 2089 0106 C0F22881 		blt	.L154
 406:../../libdaisy/src/hid/disp/display.h ****         {
 2090              		.loc 6 406 21 view .LVU448
 2091 010a 2368     		ldr	r3, [r4]
 2092 010c 039A     		ldr	r2, [sp, #12]
 2093 010e 9B68     		ldr	r3, [r3, #8]
 2094 0110 9342     		cmp	r3, r2
 2095 0112 40F02B81 		bne	.L201
 2096 0116 4020     		movs	r0, #64
 2097              	.L155:
 406:../../libdaisy/src/hid/disp/display.h ****         {
 2098              		.loc 6 406 27 view .LVU449
 2099 0118 E188     		ldrh	r1, [r4, #6]
 406:../../libdaisy/src/hid/disp/display.h ****         {
 2100              		.loc 6 406 37 view .LVU450
 2101 011a 049A     		ldr	r2, [sp, #16]
 406:../../libdaisy/src/hid/disp/display.h ****         {
 2102              		.loc 6 406 27 view .LVU451
 2103 011c 0291     		str	r1, [sp, #8]
 406:../../libdaisy/src/hid/disp/display.h ****         {
 2104              		.loc 6 406 37 view .LVU452
 2105 011e 8B18     		adds	r3, r1, r2
 406:../../libdaisy/src/hid/disp/display.h ****         {
 2106              		.loc 6 406 12 view .LVU453
 2107 0120 9842     		cmp	r0, r3
 2108 0122 C0F21A81 		blt	.L154
 2109              	.LVL154:
ARM GAS  /tmp/ccpr9r5K.s 			page 75


 413:../../libdaisy/src/hid/disp/display.h ****         {
 2110              		.loc 6 413 22 is_stmt 1 view .LVU454
 2111 0126 1046     		mov	r0, r2
 2112 0128 002A     		cmp	r2, #0
 2113 012a 00F02981 		beq	.L156
 415:../../libdaisy/src/hid/disp/display.h ****             for(j = 0; j < font.FontWidth; j++)
 2114              		.loc 6 415 37 is_stmt 0 view .LVU455
 2115 012e 1346     		mov	r3, r2
 2116 0130 6FF00047 		mvn	r7, #-2147483648
 2117 0134 B4F804C0 		ldrh	ip, [r4, #4]
 2118 0138 03FB05F3 		mul	r3, r3, r5
 2119 013c 079D     		ldr	r5, [sp, #28]
 2120 013e CDF81880 		str	r8, [sp, #24]
 2121 0142 AA1E     		subs	r2, r5, #2
 2122 0144 1F44     		add	r7, r7, r3
 2123 0146 0344     		add	r3, r3, r0
 2124 0148 DDF82090 		ldr	r9, [sp, #32]
 2125 014c 05EB4707 		add	r7, r5, r7, lsl #1
 2126 0150 0596     		str	r6, [sp, #20]
 2127 0152 02EB4303 		add	r3, r2, r3, lsl #1
 2128 0156 2246     		mov	r2, r4
 2129 0158 5C46     		mov	r4, fp
 2130              	.LVL155:
 415:../../libdaisy/src/hid/disp/display.h ****             for(j = 0; j < font.FontWidth; j++)
 2131              		.loc 6 415 37 view .LVU456
 2132 015a 9846     		mov	r8, r3
 2133              	.LVL156:
 415:../../libdaisy/src/hid/disp/display.h ****             for(j = 0; j < font.FontWidth; j++)
 2134              		.loc 6 415 37 view .LVU457
 2135 015c 9346     		mov	fp, r2
 2136              	.LVL157:
 2137              	.L159:
 415:../../libdaisy/src/hid/disp/display.h ****             for(j = 0; j < font.FontWidth; j++)
 2138              		.loc 6 415 13 view .LVU458
 2139 015e 37F802AF 		ldrh	r10, [r7, #2]!
 2140              	.LVL158:
 416:../../libdaisy/src/hid/disp/display.h ****             {
 2141              		.loc 6 416 26 is_stmt 1 view .LVU459
 2142 0162 A4B3     		cbz	r4, .L164
 2143              	.LBB1232:
 2144              	.LBB1233:
 2145              	.LBB1234:
 2146              	.LBB1235:
 2147              	.LBB1236:
 246:../../libdaisy/src/dev/oled_ssd130x.h ****     }
 2148              		.loc 15 246 49 is_stmt 0 view .LVU460
 2149 0164 0125     		movs	r5, #1
 246:../../libdaisy/src/dev/oled_ssd130x.h ****     }
 2150              		.loc 15 246 55 view .LVU461
 2151 0166 01F00702 		and	r2, r1, #7
 246:../../libdaisy/src/dev/oled_ssd130x.h ****     }
 2152              		.loc 15 246 28 view .LVU462
 2153 016a C808     		lsrs	r0, r1, #3
 2154 016c 0CF11403 		add	r3, ip, #20
 246:../../libdaisy/src/dev/oled_ssd130x.h ****     }
 2155              		.loc 15 246 49 view .LVU463
 2156 0170 05FA02F2 		lsl	r2, r5, r2
ARM GAS  /tmp/ccpr9r5K.s 			page 76


 2157 0174 6546     		mov	r5, ip
 2158 0176 03EBC013 		add	r3, r3, r0, lsl #7
 2159              	.LBE1236:
 2160              	.LBE1235:
 2161              	.LBE1234:
 2162              	.LBE1233:
 2163              	.LBE1232:
 416:../../libdaisy/src/hid/disp/display.h ****             {
 2164              		.loc 6 416 19 view .LVU464
 2165 017a 0020     		movs	r0, #0
 2166              	.LBB1254:
 2167              	.LBB1249:
 2168              	.LBB1244:
 2169              	.LBB1240:
 2170              	.LBB1237:
 246:../../libdaisy/src/dev/oled_ssd130x.h ****     }
 2171              		.loc 15 246 42 view .LVU465
 2172 017c 52B2     		sxtb	r2, r2
 2173 017e 5B44     		add	r3, r3, fp
 2174 0180 6FEA020E 		mvn	lr, r2
 2175 0184 0EE0     		b	.L165
 2176              	.LVL159:
 2177              	.L202:
 246:../../libdaisy/src/dev/oled_ssd130x.h ****     }
 2178              		.loc 15 246 42 view .LVU466
 2179              	.LBE1237:
 2180              	.LBE1240:
 2181              	.LBE1244:
 2182              	.LBE1249:
 2183              	.LBE1254:
 2184              	.LBB1255:
 2185              	.LBI1255:
  41:../../libdaisy/src/hid/disp/oled_display.h ****     {
 2186              		.loc 5 41 10 is_stmt 1 view .LVU467
 2187              	.LBB1256:
 2188              	.LBI1256:
 239:../../libdaisy/src/dev/oled_ssd130x.h ****     {
 2189              		.loc 15 239 10 view .LVU468
 2190              	.LBB1257:
 241:../../libdaisy/src/dev/oled_ssd130x.h ****             return;
 2191              		.loc 15 241 9 is_stmt 0 view .LVU469
 2192 0186 7F2D     		cmp	r5, #127
 2193 0188 07D8     		bhi	.L161
 2194 018a 3F29     		cmp	r1, #63
 2195 018c 05D8     		bhi	.L161
 244:../../libdaisy/src/dev/oled_ssd130x.h ****         else
 2196              		.loc 15 244 42 view .LVU470
 2197 018e 1E78     		ldrb	r6, [r3]	@ zero_extendqisi2
 243:../../libdaisy/src/dev/oled_ssd130x.h ****             buffer_[x + (y / 8) * width] |= (1 << (y % 8));
 2198              		.loc 15 243 9 view .LVU471
 2199 0190 B9F1000F 		cmp	r9, #0
 2200 0194 12D0     		beq	.L163
 2201              	.L196:
 243:../../libdaisy/src/dev/oled_ssd130x.h ****             buffer_[x + (y / 8) * width] |= (1 << (y % 8));
 2202              		.loc 15 243 9 view .LVU472
 2203              	.LBE1257:
 2204              	.LBE1256:
ARM GAS  /tmp/ccpr9r5K.s 			page 77


 2205              	.LBE1255:
 2206              	.LBB1258:
 2207              	.LBB1250:
 2208              	.LBB1245:
 244:../../libdaisy/src/dev/oled_ssd130x.h ****         else
 2209              		.loc 15 244 42 view .LVU473
 2210 0196 1643     		orrs	r6, r6, r2
 244:../../libdaisy/src/dev/oled_ssd130x.h ****         else
 2211              		.loc 15 244 13 view .LVU474
 2212 0198 1E70     		strb	r6, [r3]
 2213              	.L161:
 2214              	.LBE1245:
 2215              	.LBE1250:
 2216              	.LBE1258:
 416:../../libdaisy/src/hid/disp/display.h ****             {
 2217              		.loc 6 416 13 is_stmt 1 view .LVU475
 2218 019a 0130     		adds	r0, r0, #1
 2219              	.LVL160:
 416:../../libdaisy/src/hid/disp/display.h ****             {
 2220              		.loc 6 416 26 view .LVU476
 2221 019c 0133     		adds	r3, r3, #1
 2222 019e 0135     		adds	r5, r5, #1
 2223 01a0 8442     		cmp	r4, r0
 2224 01a2 14D0     		beq	.L164
 2225              	.LVL161:
 2226              	.L165:
 418:../../libdaisy/src/hid/disp/display.h ****                 {
 2227              		.loc 6 418 23 is_stmt 0 view .LVU477
 2228 01a4 0AFA00F6 		lsl	r6, r10, r0
 418:../../libdaisy/src/hid/disp/display.h ****                 {
 2229              		.loc 6 418 17 view .LVU478
 2230 01a8 3604     		lsls	r6, r6, #16
 2231 01aa ECD4     		bmi	.L202
 2232              	.LVL162:
 2233              	.LBB1259:
 2234              	.LBI1232:
  41:../../libdaisy/src/hid/disp/oled_display.h ****     {
 2235              		.loc 5 41 10 is_stmt 1 view .LVU479
 2236              	.LBB1251:
 2237              	.LBI1233:
 239:../../libdaisy/src/dev/oled_ssd130x.h ****     {
 2238              		.loc 15 239 10 view .LVU480
 2239              	.LBB1246:
 241:../../libdaisy/src/dev/oled_ssd130x.h ****             return;
 2240              		.loc 15 241 9 is_stmt 0 view .LVU481
 2241 01ac 7F2D     		cmp	r5, #127
 2242 01ae F4D8     		bhi	.L161
 2243 01b0 3F29     		cmp	r1, #63
 2244 01b2 F2D8     		bhi	.L161
 244:../../libdaisy/src/dev/oled_ssd130x.h ****         else
 2245              		.loc 15 244 42 view .LVU482
 2246 01b4 1E78     		ldrb	r6, [r3]	@ zero_extendqisi2
 243:../../libdaisy/src/dev/oled_ssd130x.h ****             buffer_[x + (y / 8) * width] |= (1 << (y % 8));
 2247              		.loc 15 243 9 view .LVU483
 2248 01b6 B9F1000F 		cmp	r9, #0
 2249 01ba ECD0     		beq	.L196
 2250              	.L163:
ARM GAS  /tmp/ccpr9r5K.s 			page 78


 2251              	.LVL163:
 2252              	.LBB1241:
 2253              	.LBI1235:
 239:../../libdaisy/src/dev/oled_ssd130x.h ****     {
 2254              		.loc 15 239 10 is_stmt 1 view .LVU484
 239:../../libdaisy/src/dev/oled_ssd130x.h ****     {
 2255              		.loc 15 239 10 is_stmt 0 view .LVU485
 2256              	.LBE1241:
 2257              	.LBE1246:
 2258              	.LBE1251:
 2259              	.LBE1259:
 416:../../libdaisy/src/hid/disp/display.h ****             {
 2260              		.loc 6 416 13 view .LVU486
 2261 01bc 0130     		adds	r0, r0, #1
 2262              	.LVL164:
 2263              	.LBB1260:
 2264              	.LBB1252:
 2265              	.LBB1247:
 2266              	.LBB1242:
 2267              	.LBB1238:
 246:../../libdaisy/src/dev/oled_ssd130x.h ****     }
 2268              		.loc 15 246 42 view .LVU487
 2269 01be 0EEA0606 		and	r6, lr, r6
 2270 01c2 0133     		adds	r3, r3, #1
 2271 01c4 0135     		adds	r5, r5, #1
 2272              	.LBE1238:
 2273              	.LBE1242:
 2274              	.LBE1247:
 2275              	.LBE1252:
 2276              	.LBE1260:
 416:../../libdaisy/src/hid/disp/display.h ****             {
 2277              		.loc 6 416 26 view .LVU488
 2278 01c6 8442     		cmp	r4, r0
 2279              	.LBB1261:
 2280              	.LBB1253:
 2281              	.LBB1248:
 2282              	.LBB1243:
 2283              	.LBB1239:
 246:../../libdaisy/src/dev/oled_ssd130x.h ****     }
 2284              		.loc 15 246 13 view .LVU489
 2285 01c8 03F8016C 		strb	r6, [r3, #-1]
 246:../../libdaisy/src/dev/oled_ssd130x.h ****     }
 2286              		.loc 15 246 13 view .LVU490
 2287              	.LBE1239:
 2288              	.LBE1243:
 2289              	.LBE1248:
 2290              	.LBE1253:
 2291              	.LBE1261:
 416:../../libdaisy/src/hid/disp/display.h ****             {
 2292              		.loc 6 416 13 is_stmt 1 view .LVU491
 2293              	.LVL165:
 416:../../libdaisy/src/hid/disp/display.h ****             {
 2294              		.loc 6 416 26 view .LVU492
 2295 01cc EAD1     		bne	.L165
 2296              	.LVL166:
 2297              	.L164:
 413:../../libdaisy/src/hid/disp/display.h ****         {
ARM GAS  /tmp/ccpr9r5K.s 			page 79


 2298              		.loc 6 413 9 view .LVU493
 413:../../libdaisy/src/hid/disp/display.h ****         {
 2299              		.loc 6 413 22 view .LVU494
 2300 01ce B845     		cmp	r8, r7
 2301 01d0 01F10101 		add	r1, r1, #1
 2302 01d4 C3D1     		bne	.L159
 2303 01d6 5B46     		mov	r3, fp
 2304 01d8 059E     		ldr	r6, [sp, #20]
 2305 01da A346     		mov	fp, r4
 2306              	.LVL167:
 413:../../libdaisy/src/hid/disp/display.h ****         {
 2307              		.loc 6 413 22 is_stmt 0 view .LVU495
 2308 01dc DDF81880 		ldr	r8, [sp, #24]
 2309 01e0 1C46     		mov	r4, r3
 2310              	.LVL168:
 2311              	.L158:
 2312              	.LBB1262:
 2313              	.LBB1263:
 173:../../libdaisy/src/hid/disp/display.h ****         currentY_ = (y >= Height()) ? Height() - 1 : y;
 2314              		.loc 6 173 33 view .LVU496
 2315 01e2 2268     		ldr	r2, [r4]
 2316              	.LBE1263:
 2317              	.LBE1262:
 434:../../libdaisy/src/hid/disp/display.h **** 
 2318              		.loc 6 434 18 view .LVU497
 2319 01e4 DC44     		add	ip, ip, fp
 2320 01e6 0199     		ldr	r1, [sp, #4]
 2321              	.LBB1267:
 2322              	.LBB1264:
 173:../../libdaisy/src/hid/disp/display.h ****         currentY_ = (y >= Height()) ? Height() - 1 : y;
 2323              		.loc 6 173 33 view .LVU498
 2324 01e8 D368     		ldr	r3, [r2, #12]
 2325              	.LBE1264:
 2326              	.LBE1267:
 434:../../libdaisy/src/hid/disp/display.h **** 
 2327              		.loc 6 434 18 view .LVU499
 2328 01ea 1FFA8CF5 		uxth	r5, ip
 2329              	.LVL169:
 2330              	.LBB1268:
 2331              	.LBI1262:
 171:../../libdaisy/src/hid/disp/display.h ****     {
 2332              		.loc 6 171 10 is_stmt 1 view .LVU500
 2333              	.LBB1265:
 173:../../libdaisy/src/hid/disp/display.h ****         currentY_ = (y >= Height()) ? Height() - 1 : y;
 2334              		.loc 6 173 9 view .LVU501
 2335 01ee 8B42     		cmp	r3, r1
 2336 01f0 40F0C280 		bne	.L203
 173:../../libdaisy/src/hid/disp/display.h ****         currentY_ = (y >= Height()) ? Height() - 1 : y;
 2337              		.loc 6 173 33 is_stmt 0 view .LVU502
 2338 01f4 8020     		movs	r0, #128
 2339              	.L166:
 173:../../libdaisy/src/hid/disp/display.h ****         currentY_ = (y >= Height()) ? Height() - 1 : y;
 2340              		.loc 6 173 19 view .LVU503
 2341 01f6 8542     		cmp	r5, r0
 2342 01f8 05D3     		bcc	.L167
 173:../../libdaisy/src/hid/disp/display.h ****         currentY_ = (y >= Height()) ? Height() - 1 : y;
 2343              		.loc 6 173 44 view .LVU504
ARM GAS  /tmp/ccpr9r5K.s 			page 80


 2344 01fa D368     		ldr	r3, [r2, #12]
 2345 01fc 0199     		ldr	r1, [sp, #4]
 2346 01fe 8B42     		cmp	r3, r1
 2347 0200 40F0C780 		bne	.L204
 2348 0204 7F25     		movs	r5, #127
 2349              	.LVL170:
 2350              	.L167:
 174:../../libdaisy/src/hid/disp/display.h ****     }
 2351              		.loc 6 174 34 view .LVU505
 2352 0206 9368     		ldr	r3, [r2, #8]
 2353 0208 039A     		ldr	r2, [sp, #12]
 173:../../libdaisy/src/hid/disp/display.h ****         currentY_ = (y >= Height()) ? Height() - 1 : y;
 2354              		.loc 6 173 19 view .LVU506
 2355 020a A580     		strh	r5, [r4, #4]	@ movhi
 174:../../libdaisy/src/hid/disp/display.h ****     }
 2356              		.loc 6 174 9 is_stmt 1 view .LVU507
 2357 020c 9342     		cmp	r3, r2
 2358 020e 40F0B080 		bne	.L205
 174:../../libdaisy/src/hid/disp/display.h ****     }
 2359              		.loc 6 174 34 is_stmt 0 view .LVU508
 2360 0212 4020     		movs	r0, #64
 2361              	.L169:
 174:../../libdaisy/src/hid/disp/display.h ****     }
 2362              		.loc 6 174 19 view .LVU509
 2363 0214 029B     		ldr	r3, [sp, #8]
 2364 0216 8342     		cmp	r3, r0
 2365 0218 07D3     		bcc	.L170
 174:../../libdaisy/src/hid/disp/display.h ****     }
 2366              		.loc 6 174 46 view .LVU510
 2367 021a 2368     		ldr	r3, [r4]
 2368 021c 039A     		ldr	r2, [sp, #12]
 2369 021e 9B68     		ldr	r3, [r3, #8]
 2370 0220 9342     		cmp	r3, r2
 2371 0222 40F0B080 		bne	.L206
 2372 0226 3F23     		movs	r3, #63
 2373 0228 0293     		str	r3, [sp, #8]
 2374              	.LVL171:
 2375              	.L170:
 174:../../libdaisy/src/hid/disp/display.h ****     }
 2376              		.loc 6 174 19 view .LVU511
 2377 022a 029B     		ldr	r3, [sp, #8]
 2378 022c E380     		strh	r3, [r4, #6]	@ movhi
 2379              	.LVL172:
 2380              	.L152:
 174:../../libdaisy/src/hid/disp/display.h ****     }
 2381              		.loc 6 174 19 view .LVU512
 2382              	.LBE1265:
 2383              	.LBE1268:
 2384              	.LBE1231:
 2385              	.LBE1230:
 445:../../libdaisy/src/hid/disp/display.h ****                != *str)
 2386              		.loc 6 445 13 view .LVU513
 2387 022e 98F80030 		ldrb	r3, [r8]	@ zero_extendqisi2
 2388 0232 B342     		cmp	r3, r6
 2389 0234 04D1     		bne	.L120
 2390              	.LVL173:
 443:../../libdaisy/src/hid/disp/display.h ****         {
ARM GAS  /tmp/ccpr9r5K.s 			page 81


 2391              		.loc 6 443 9 is_stmt 1 view .LVU514
 2392 0236 18F8016F 		ldrb	r6, [r8, #1]!	@ zero_extendqisi2
 2393              	.LVL174:
 443:../../libdaisy/src/hid/disp/display.h ****         {
 2394              		.loc 6 443 9 is_stmt 0 view .LVU515
 2395 023a 002E     		cmp	r6, #0
 2396 023c 7FF453AF 		bne	.L150
 2397              	.LVL175:
 2398              	.L120:
 443:../../libdaisy/src/hid/disp/display.h ****         {
 2399              		.loc 6 443 9 view .LVU516
 2400              	.LBE1272:
 2401              	.LBE1228:
 471:../../libdaisy/src/hid/disp/display.h **** 
 2402              		.loc 6 471 5 view .LVU517
 2403 0240 0998     		ldr	r0, [sp, #36]
 2404 0242 0BB0     		add	sp, sp, #44
 2405              		.cfi_remember_state
 2406              		.cfi_def_cfa_offset 36
 2407              		@ sp needed
 2408 0244 BDE8F08F 		pop	{r4, r5, r6, r7, r8, r9, r10, fp, pc}
 2409              	.LVL176:
 2410              	.L133:
 2411              		.cfi_restore_state
 2412              	.LBB1274:
 2413              	.LBB1208:
 250:../../libdaisy/src/hid/disp/graphics_common.h ****                 return {int16_t(x_ + (other.GetCenterX() - GetCenterX())),
 2414              		.loc 18 250 13 is_stmt 1 view .LVU518
 251:../../libdaisy/src/hid/disp/graphics_common.h ****                         int16_t(y_ + (other.GetCenterY() - GetCenterY())),
 2415              		.loc 18 251 17 view .LVU519
 2416              	.LBB1039:
 2417              	.LBI1039:
  62:../../libdaisy/src/hid/disp/graphics_common.h ****     int16_t GetCenterY() const { return y_ + height_ / 2; }
 2418              		.loc 18 62 13 view .LVU520
 2419              	.LBB1040:
  62:../../libdaisy/src/hid/disp/graphics_common.h ****     int16_t GetCenterY() const { return y_ + height_ / 2; }
 2420              		.loc 18 62 34 view .LVU521
  62:../../libdaisy/src/hid/disp/graphics_common.h ****     int16_t GetCenterY() const { return y_ + height_ / 2; }
 2421              		.loc 18 62 34 is_stmt 0 view .LVU522
 2422              	.LBE1040:
 2423              	.LBE1039:
 2424              	.LBB1044:
 2425              	.LBI1044:
  62:../../libdaisy/src/hid/disp/graphics_common.h ****     int16_t GetCenterY() const { return y_ + height_ / 2; }
 2426              		.loc 18 62 13 is_stmt 1 view .LVU523
 2427              	.LBB1045:
  62:../../libdaisy/src/hid/disp/graphics_common.h ****     int16_t GetCenterY() const { return y_ + height_ / 2; }
 2428              		.loc 18 62 34 view .LVU524
 2429              	.LBE1045:
 2430              	.LBE1044:
 2431              	.LBB1046:
 2432              	.LBB1041:
  62:../../libdaisy/src/hid/disp/graphics_common.h ****     int16_t GetCenterY() const { return y_ + height_ / 2; }
 2433              		.loc 18 62 53 is_stmt 0 view .LVU525
 2434 0248 B6F90400 		ldrsh	r0, [r6, #4]
  62:../../libdaisy/src/hid/disp/graphics_common.h ****     int16_t GetCenterY() const { return y_ + height_ / 2; }
 2435              		.loc 18 62 44 view .LVU526
ARM GAS  /tmp/ccpr9r5K.s 			page 82


 2436 024c 3788     		ldrh	r7, [r6]
  62:../../libdaisy/src/hid/disp/graphics_common.h ****     int16_t GetCenterY() const { return y_ + height_ / 2; }
 2437              		.loc 18 62 53 view .LVU527
 2438 024e 0028     		cmp	r0, #0
 2439              	.LBE1041:
 2440              	.LBE1046:
 2441              	.LBB1047:
 2442              	.LBB1020:
  63:../../libdaisy/src/hid/disp/graphics_common.h **** 
 2443              		.loc 18 63 54 view .LVU528
 2444 0250 B6F90630 		ldrsh	r3, [r6, #6]
 2445              	.LVL177:
  63:../../libdaisy/src/hid/disp/graphics_common.h **** 
 2446              		.loc 18 63 54 view .LVU529
 2447              	.LBE1020:
 2448              	.LBE1047:
 2449              	.LBB1048:
 2450              	.LBB1042:
  62:../../libdaisy/src/hid/disp/graphics_common.h ****     int16_t GetCenterY() const { return y_ + height_ / 2; }
 2451              		.loc 18 62 53 view .LVU530
 2452 0254 B8BF     		it	lt
 2453 0256 0130     		addlt	r0, r0, #1
 2454              	.LBE1042:
 2455              	.LBE1048:
 2456              	.LBB1049:
 2457              	.LBB1021:
  63:../../libdaisy/src/hid/disp/graphics_common.h **** 
 2458              		.loc 18 63 54 view .LVU531
 2459 0258 002B     		cmp	r3, #0
 2460              	.LBE1021:
 2461              	.LBE1049:
 2462              	.LBB1050:
 2463              	.LBB1043:
  62:../../libdaisy/src/hid/disp/graphics_common.h ****     int16_t GetCenterY() const { return y_ + height_ / 2; }
 2464              		.loc 18 62 44 view .LVU532
 2465 025a 07EB6007 		add	r7, r7, r0, asr #1
 2466              	.LBE1043:
 2467              	.LBE1050:
 251:../../libdaisy/src/hid/disp/graphics_common.h ****                         int16_t(y_ + (other.GetCenterY() - GetCenterY())),
 2468              		.loc 18 251 58 view .LVU533
 2469 025e A7EB6207 		sub	r7, r7, r2, asr #1
 2470 0262 BFB2     		uxth	r7, r7
 2471              	.LBB1051:
 2472              	.LBI1017:
  63:../../libdaisy/src/hid/disp/graphics_common.h **** 
 2473              		.loc 18 63 13 is_stmt 1 view .LVU534
 2474              	.LVL178:
 2475              	.LBB1022:
  63:../../libdaisy/src/hid/disp/graphics_common.h **** 
 2476              		.loc 18 63 34 view .LVU535
  63:../../libdaisy/src/hid/disp/graphics_common.h **** 
 2477              		.loc 18 63 34 is_stmt 0 view .LVU536
 2478              	.LBE1022:
 2479              	.LBE1051:
 2480              	.LBB1052:
 2481              	.LBI1052:
  63:../../libdaisy/src/hid/disp/graphics_common.h **** 
ARM GAS  /tmp/ccpr9r5K.s 			page 83


 2482              		.loc 18 63 13 is_stmt 1 view .LVU537
 2483              	.LBB1053:
  63:../../libdaisy/src/hid/disp/graphics_common.h **** 
 2484              		.loc 18 63 34 view .LVU538
 2485              	.LBE1053:
 2486              	.LBE1052:
 2487              	.LBB1054:
 2488              	.LBB1023:
  63:../../libdaisy/src/hid/disp/graphics_common.h **** 
 2489              		.loc 18 63 54 is_stmt 0 view .LVU539
 2490 0264 BFF604AF 		bge	.L140
 2491              	.LVL179:
 2492              	.L197:
  63:../../libdaisy/src/hid/disp/graphics_common.h **** 
 2493              		.loc 18 63 54 view .LVU540
 2494 0268 0133     		adds	r3, r3, #1
 2495 026a 01E7     		b	.L140
 2496              	.LVL180:
 2497              	.L132:
  63:../../libdaisy/src/hid/disp/graphics_common.h **** 
 2498              		.loc 18 63 54 view .LVU541
 2499              	.LBE1023:
 2500              	.LBE1054:
 213:../../libdaisy/src/hid/disp/graphics_common.h ****                 return {other.x_, other.y_, width_, height_};
 2501              		.loc 18 213 13 is_stmt 1 view .LVU542
 214:../../libdaisy/src/hid/disp/graphics_common.h ****             case Alignment::topRight:
 2502              		.loc 18 214 17 view .LVU543
 214:../../libdaisy/src/hid/disp/graphics_common.h ****             case Alignment::topRight:
 2503              		.loc 18 214 31 is_stmt 0 view .LVU544
 2504 026c B6F90070 		ldrsh	r7, [r6]
 2505              	.LBB1055:
 2506              	.LBB1056:
 2507              	.LBB1057:
  32:../../libdaisy/src/hid/disp/graphics_common.h ****     {
 2508              		.loc 18 32 66 view .LVU545
 2509 0270 099B     		ldr	r3, [sp, #36]
 2510              	.LVL181:
  32:../../libdaisy/src/hid/disp/graphics_common.h ****     {
 2511              		.loc 18 32 66 view .LVU546
 2512              	.LBE1057:
 2513              	.LBE1056:
 2514              	.LBE1055:
 214:../../libdaisy/src/hid/disp/graphics_common.h ****             case Alignment::topRight:
 2515              		.loc 18 214 41 view .LVU547
 2516 0272 B6F90260 		ldrsh	r6, [r6, #2]
 2517              	.LVL182:
 2518              	.LBB1066:
 2519              	.LBI1055:
  31:../../libdaisy/src/hid/disp/graphics_common.h ****     : x_(x), y_(y), width_(max(0, width)), height_(max(0, height))
 2520              		.loc 18 31 5 is_stmt 1 view .LVU548
 2521              	.LBB1063:
 2522              	.LBB1060:
  32:../../libdaisy/src/hid/disp/graphics_common.h ****     {
 2523              		.loc 18 32 66 is_stmt 0 view .LVU549
 2524 0276 1F80     		strh	r7, [r3]	@ movhi
 2525 0278 BFB2     		uxth	r7, r7
 2526              	.LVL183:
ARM GAS  /tmp/ccpr9r5K.s 			page 84


  32:../../libdaisy/src/hid/disp/graphics_common.h ****     {
 2527              		.loc 18 32 66 view .LVU550
 2528 027a 5E80     		strh	r6, [r3, #2]	@ movhi
 2529              	.LVL184:
 2530              	.LBB1058:
 2531              	.LBI1058:
 2532              		.loc 18 261 13 is_stmt 1 view .LVU551
 2533              		.loc 18 261 13 is_stmt 0 view .LVU552
 2534              	.LBE1058:
 2535              	.LBE1060:
 2536              	.LBE1063:
 2537              	.LBE1066:
 2538              	.LBE1208:
 2539              	.LBE1274:
 2540              		.loc 18 261 41 is_stmt 1 view .LVU553
 2541              		.loc 18 261 41 is_stmt 0 view .LVU554
 2542 027c B6B2     		uxth	r6, r6
 2543              	.LVL185:
 2544              	.LBB1275:
 2545              	.LBB1209:
 2546              	.LBB1067:
 2547              	.LBB1064:
 2548              	.LBB1061:
  32:../../libdaisy/src/hid/disp/graphics_common.h ****     {
 2549              		.loc 18 32 66 view .LVU555
 2550 027e 9A80     		strh	r2, [r3, #4]	@ movhi
 2551              	.LVL186:
 2552              	.LBB1059:
 2553              	.LBI1059:
 2554              		.loc 18 261 13 is_stmt 1 view .LVU556
 2555              		.loc 18 261 13 is_stmt 0 view .LVU557
 2556              	.LBE1059:
 2557              	.LBE1061:
 2558              	.LBE1064:
 2559              	.LBE1067:
 2560              	.LBE1209:
 2561              	.LBE1275:
 2562              		.loc 18 261 41 is_stmt 1 view .LVU558
 2563              	.LBB1276:
 2564              	.LBB1210:
 2565              	.LBB1068:
 2566              	.LBB1065:
 2567              	.LBB1062:
  32:../../libdaisy/src/hid/disp/graphics_common.h ****     {
 2568              		.loc 18 32 66 is_stmt 0 view .LVU559
 2569 0280 D980     		strh	r1, [r3, #6]	@ movhi
 2570              	.LBE1062:
  34:../../libdaisy/src/hid/disp/graphics_common.h **** 
 2571              		.loc 18 34 5 view .LVU560
 2572 0282 02E7     		b	.L134
 2573              	.LVL187:
 2574              	.L131:
  34:../../libdaisy/src/hid/disp/graphics_common.h **** 
 2575              		.loc 18 34 5 view .LVU561
 2576              	.LBE1065:
 2577              	.LBE1068:
 220:../../libdaisy/src/hid/disp/graphics_common.h ****                 return {int16_t(x_ + (other.GetCenterX() - GetCenterX())),
ARM GAS  /tmp/ccpr9r5K.s 			page 85


 2578              		.loc 18 220 13 is_stmt 1 view .LVU562
 221:../../libdaisy/src/hid/disp/graphics_common.h ****                         other.y_,
 2579              		.loc 18 221 17 view .LVU563
 2580              	.LBB1069:
 2581              	.LBI1069:
  62:../../libdaisy/src/hid/disp/graphics_common.h ****     int16_t GetCenterY() const { return y_ + height_ / 2; }
 2582              		.loc 18 62 13 view .LVU564
 2583              	.LBB1070:
  62:../../libdaisy/src/hid/disp/graphics_common.h ****     int16_t GetCenterY() const { return y_ + height_ / 2; }
 2584              		.loc 18 62 34 view .LVU565
  62:../../libdaisy/src/hid/disp/graphics_common.h ****     int16_t GetCenterY() const { return y_ + height_ / 2; }
 2585              		.loc 18 62 34 is_stmt 0 view .LVU566
 2586              	.LBE1070:
 2587              	.LBE1069:
 2588              	.LBB1073:
 2589              	.LBI1073:
  62:../../libdaisy/src/hid/disp/graphics_common.h ****     int16_t GetCenterY() const { return y_ + height_ / 2; }
 2590              		.loc 18 62 13 is_stmt 1 view .LVU567
 2591              	.LBB1074:
  62:../../libdaisy/src/hid/disp/graphics_common.h ****     int16_t GetCenterY() const { return y_ + height_ / 2; }
 2592              		.loc 18 62 34 view .LVU568
 2593              	.LBE1074:
 2594              	.LBE1073:
 2595              	.LBB1075:
 2596              	.LBB1071:
  62:../../libdaisy/src/hid/disp/graphics_common.h ****     int16_t GetCenterY() const { return y_ + height_ / 2; }
 2597              		.loc 18 62 53 is_stmt 0 view .LVU569
 2598 0284 B6F90430 		ldrsh	r3, [r6, #4]
 2599              	.LVL188:
  62:../../libdaisy/src/hid/disp/graphics_common.h ****     int16_t GetCenterY() const { return y_ + height_ / 2; }
 2600              		.loc 18 62 44 view .LVU570
 2601 0288 3788     		ldrh	r7, [r6]
  62:../../libdaisy/src/hid/disp/graphics_common.h ****     int16_t GetCenterY() const { return y_ + height_ / 2; }
 2602              		.loc 18 62 53 view .LVU571
 2603 028a 002B     		cmp	r3, #0
 2604              	.LBE1071:
 2605              	.LBE1075:
 222:../../libdaisy/src/hid/disp/graphics_common.h ****                         width_,
 2606              		.loc 18 222 31 view .LVU572
 2607 028c B6F90260 		ldrsh	r6, [r6, #2]
 2608              	.LVL189:
 2609              	.LBB1076:
 2610              	.LBB1072:
  62:../../libdaisy/src/hid/disp/graphics_common.h ****     int16_t GetCenterY() const { return y_ + height_ / 2; }
 2611              		.loc 18 62 53 view .LVU573
 2612 0290 B8BF     		it	lt
 2613 0292 0133     		addlt	r3, r3, #1
  62:../../libdaisy/src/hid/disp/graphics_common.h ****     int16_t GetCenterY() const { return y_ + height_ / 2; }
 2614              		.loc 18 62 44 view .LVU574
 2615 0294 07EB6307 		add	r7, r7, r3, asr #1
 2616              	.LBE1072:
 2617              	.LBE1076:
 2618              	.LBB1077:
 2619              	.LBB1078:
 2620              	.LBB1079:
  32:../../libdaisy/src/hid/disp/graphics_common.h ****     {
 2621              		.loc 18 32 66 view .LVU575
ARM GAS  /tmp/ccpr9r5K.s 			page 86


 2622 0298 099B     		ldr	r3, [sp, #36]
 2623 029a 9A80     		strh	r2, [r3, #4]	@ movhi
 2624              	.LBE1079:
 2625              	.LBE1078:
 2626              	.LBE1077:
 221:../../libdaisy/src/hid/disp/graphics_common.h ****                         other.y_,
 2627              		.loc 18 221 58 view .LVU576
 2628 029c A7EB6202 		sub	r2, r7, r2, asr #1
 2629              	.LBB1090:
 2630              	.LBB1086:
 2631              	.LBB1082:
  32:../../libdaisy/src/hid/disp/graphics_common.h ****     {
 2632              		.loc 18 32 66 view .LVU577
 2633 02a0 5E80     		strh	r6, [r3, #2]	@ movhi
 2634 02a2 B6B2     		uxth	r6, r6
 2635              	.LBE1082:
 2636              	.LBE1086:
 2637              	.LBE1090:
 221:../../libdaisy/src/hid/disp/graphics_common.h ****                         other.y_,
 2638              		.loc 18 221 58 view .LVU578
 2639 02a4 97B2     		uxth	r7, r2
 2640              	.LVL190:
 2641              	.LBB1091:
 2642              	.LBI1077:
  31:../../libdaisy/src/hid/disp/graphics_common.h ****     : x_(x), y_(y), width_(max(0, width)), height_(max(0, height))
 2643              		.loc 18 31 5 is_stmt 1 view .LVU579
 2644              	.LBB1087:
 2645              	.LBB1083:
 2646              	.LBB1080:
 2647              	.LBI1080:
 2648              		.loc 18 261 13 view .LVU580
 2649              		.loc 18 261 13 is_stmt 0 view .LVU581
 2650              	.LBE1080:
 2651              	.LBE1083:
 2652              	.LBE1087:
 2653              	.LBE1091:
 2654              	.LBE1210:
 2655              	.LBE1276:
 2656              		.loc 18 261 41 is_stmt 1 view .LVU582
 2657              	.LBB1277:
 2658              	.LBB1211:
 2659              	.LBB1092:
 2660              	.LBB1088:
 2661              	.LBB1084:
 2662              	.LBB1081:
 2663              	.LBI1081:
 2664              		.loc 18 261 13 view .LVU583
 2665              		.loc 18 261 13 is_stmt 0 view .LVU584
 2666              	.LBE1081:
 2667              	.LBE1084:
 2668              	.LBE1088:
 2669              	.LBE1092:
 2670              	.LBE1211:
 2671              	.LBE1277:
 2672              		.loc 18 261 41 is_stmt 1 view .LVU585
 2673              	.LBB1278:
 2674              	.LBB1212:
ARM GAS  /tmp/ccpr9r5K.s 			page 87


 2675              	.LBB1093:
 2676              	.LBB1089:
 2677              	.LBB1085:
  32:../../libdaisy/src/hid/disp/graphics_common.h ****     {
 2678              		.loc 18 32 66 is_stmt 0 view .LVU586
 2679 02a6 D980     		strh	r1, [r3, #6]	@ movhi
 2680 02a8 1F80     		strh	r7, [r3]	@ movhi
 2681              	.LBE1085:
  34:../../libdaisy/src/hid/disp/graphics_common.h **** 
 2682              		.loc 18 34 5 view .LVU587
 2683 02aa EEE6     		b	.L134
 2684              	.LVL191:
 2685              	.L130:
  34:../../libdaisy/src/hid/disp/graphics_common.h **** 
 2686              		.loc 18 34 5 view .LVU588
 2687              	.LBE1089:
 2688              	.LBE1093:
 215:../../libdaisy/src/hid/disp/graphics_common.h ****                 return {int16_t(other.GetRight() - width_),
 2689              		.loc 18 215 13 is_stmt 1 view .LVU589
 216:../../libdaisy/src/hid/disp/graphics_common.h ****                         other.y_,
 2690              		.loc 18 216 17 view .LVU590
 2691              	.LBB1094:
 2692              	.LBI1094:
  60:../../libdaisy/src/hid/disp/graphics_common.h ****     int16_t GetBottom() const { return y_ + height_; }
 2693              		.loc 18 60 13 view .LVU591
 2694              	.LBB1095:
  60:../../libdaisy/src/hid/disp/graphics_common.h ****     int16_t GetBottom() const { return y_ + height_; }
 2695              		.loc 18 60 32 view .LVU592
  60:../../libdaisy/src/hid/disp/graphics_common.h ****     int16_t GetBottom() const { return y_ + height_; }
 2696              		.loc 18 60 42 is_stmt 0 view .LVU593
 2697 02ac B388     		ldrh	r3, [r6, #4]
 2698              	.LVL192:
  60:../../libdaisy/src/hid/disp/graphics_common.h ****     int16_t GetBottom() const { return y_ + height_; }
 2699              		.loc 18 60 42 view .LVU594
 2700 02ae 3788     		ldrh	r7, [r6]
 2701              	.LBE1095:
 2702              	.LBE1094:
 217:../../libdaisy/src/hid/disp/graphics_common.h ****                         width_,
 2703              		.loc 18 217 31 view .LVU595
 2704 02b0 B6F90260 		ldrsh	r6, [r6, #2]
 2705              	.LVL193:
 2706              	.LBB1097:
 2707              	.LBB1096:
  60:../../libdaisy/src/hid/disp/graphics_common.h ****     int16_t GetBottom() const { return y_ + height_; }
 2708              		.loc 18 60 42 view .LVU596
 2709 02b4 1F44     		add	r7, r7, r3
 2710              	.LBE1096:
 2711              	.LBE1097:
 2712              	.LBB1098:
 2713              	.LBB1099:
 2714              	.LBB1100:
  32:../../libdaisy/src/hid/disp/graphics_common.h ****     {
 2715              		.loc 18 32 66 view .LVU597
 2716 02b6 099B     		ldr	r3, [sp, #36]
 2717 02b8 9A80     		strh	r2, [r3, #4]	@ movhi
 2718              	.LBE1100:
 2719              	.LBE1099:
ARM GAS  /tmp/ccpr9r5K.s 			page 88


 2720              	.LBE1098:
 216:../../libdaisy/src/hid/disp/graphics_common.h ****                         other.y_,
 2721              		.loc 18 216 50 view .LVU598
 2722 02ba BA1A     		subs	r2, r7, r2
 2723              	.LBB1111:
 2724              	.LBB1107:
 2725              	.LBB1103:
  32:../../libdaisy/src/hid/disp/graphics_common.h ****     {
 2726              		.loc 18 32 66 view .LVU599
 2727 02bc 5E80     		strh	r6, [r3, #2]	@ movhi
 2728 02be B6B2     		uxth	r6, r6
 2729              	.LBE1103:
 2730              	.LBE1107:
 2731              	.LBE1111:
 216:../../libdaisy/src/hid/disp/graphics_common.h ****                         other.y_,
 2732              		.loc 18 216 50 view .LVU600
 2733 02c0 97B2     		uxth	r7, r2
 2734              	.LVL194:
 2735              	.LBB1112:
 2736              	.LBI1098:
  31:../../libdaisy/src/hid/disp/graphics_common.h ****     : x_(x), y_(y), width_(max(0, width)), height_(max(0, height))
 2737              		.loc 18 31 5 is_stmt 1 view .LVU601
 2738              	.LBB1108:
 2739              	.LBB1104:
 2740              	.LBB1101:
 2741              	.LBI1101:
 2742              		.loc 18 261 13 view .LVU602
 2743              		.loc 18 261 13 is_stmt 0 view .LVU603
 2744              	.LBE1101:
 2745              	.LBE1104:
 2746              	.LBE1108:
 2747              	.LBE1112:
 2748              	.LBE1212:
 2749              	.LBE1278:
 2750              		.loc 18 261 41 is_stmt 1 view .LVU604
 2751              	.LBB1279:
 2752              	.LBB1213:
 2753              	.LBB1113:
 2754              	.LBB1109:
 2755              	.LBB1105:
 2756              	.LBB1102:
 2757              	.LBI1102:
 2758              		.loc 18 261 13 view .LVU605
 2759              		.loc 18 261 13 is_stmt 0 view .LVU606
 2760              	.LBE1102:
 2761              	.LBE1105:
 2762              	.LBE1109:
 2763              	.LBE1113:
 2764              	.LBE1213:
 2765              	.LBE1279:
 2766              		.loc 18 261 41 is_stmt 1 view .LVU607
 2767              	.LBB1280:
 2768              	.LBB1214:
 2769              	.LBB1114:
 2770              	.LBB1110:
 2771              	.LBB1106:
  32:../../libdaisy/src/hid/disp/graphics_common.h ****     {
ARM GAS  /tmp/ccpr9r5K.s 			page 89


 2772              		.loc 18 32 66 is_stmt 0 view .LVU608
 2773 02c2 D980     		strh	r1, [r3, #6]	@ movhi
 2774 02c4 1F80     		strh	r7, [r3]	@ movhi
 2775              	.LBE1106:
  34:../../libdaisy/src/hid/disp/graphics_common.h **** 
 2776              		.loc 18 34 5 view .LVU609
 2777 02c6 E0E6     		b	.L134
 2778              	.LVL195:
 2779              	.L129:
  34:../../libdaisy/src/hid/disp/graphics_common.h **** 
 2780              		.loc 18 34 5 view .LVU610
 2781              	.LBE1110:
 2782              	.LBE1114:
 225:../../libdaisy/src/hid/disp/graphics_common.h ****                 return {other.x_,
 2783              		.loc 18 225 13 is_stmt 1 view .LVU611
 226:../../libdaisy/src/hid/disp/graphics_common.h ****                         int16_t(other.GetBottom() - height_),
 2784              		.loc 18 226 17 view .LVU612
 2785              	.LBB1115:
 2786              	.LBB1116:
  61:../../libdaisy/src/hid/disp/graphics_common.h ****     int16_t GetCenterX() const { return x_ + width_ / 2; }
 2787              		.loc 18 61 43 is_stmt 0 view .LVU613
 2788 02c8 7388     		ldrh	r3, [r6, #2]
 2789              	.LVL196:
  61:../../libdaisy/src/hid/disp/graphics_common.h ****     int16_t GetCenterX() const { return x_ + width_ / 2; }
 2790              		.loc 18 61 43 view .LVU614
 2791 02ca B6F806C0 		ldrh	ip, [r6, #6]
 2792              	.LBE1116:
 2793              	.LBE1115:
 226:../../libdaisy/src/hid/disp/graphics_common.h ****                         int16_t(other.GetBottom() - height_),
 2794              		.loc 18 226 31 view .LVU615
 2795 02ce B6F90070 		ldrsh	r7, [r6]
 2796              	.LBB1118:
 2797              	.LBI1115:
  61:../../libdaisy/src/hid/disp/graphics_common.h ****     int16_t GetCenterX() const { return x_ + width_ / 2; }
 2798              		.loc 18 61 13 is_stmt 1 view .LVU616
 2799              	.LVL197:
 2800              	.LBB1117:
  61:../../libdaisy/src/hid/disp/graphics_common.h ****     int16_t GetCenterX() const { return x_ + width_ / 2; }
 2801              		.loc 18 61 33 view .LVU617
  61:../../libdaisy/src/hid/disp/graphics_common.h ****     int16_t GetCenterX() const { return x_ + width_ / 2; }
 2802              		.loc 18 61 43 is_stmt 0 view .LVU618
 2803 02d2 9C44     		add	ip, ip, r3
 2804              	.LBE1117:
 2805              	.LBE1118:
 2806              	.LBB1119:
 2807              	.LBB1120:
 2808              	.LBB1121:
  32:../../libdaisy/src/hid/disp/graphics_common.h ****     {
 2809              		.loc 18 32 66 view .LVU619
 2810 02d4 099B     		ldr	r3, [sp, #36]
 2811              	.LBE1121:
 2812              	.LBE1120:
 2813              	.LBE1119:
 227:../../libdaisy/src/hid/disp/graphics_common.h ****                         width_,
 2814              		.loc 18 227 51 view .LVU620
 2815 02d6 ACEB0000 		sub	r0, ip, r0
 2816              	.LBB1131:
ARM GAS  /tmp/ccpr9r5K.s 			page 90


 2817              	.LBB1127:
 2818              	.LBB1124:
  32:../../libdaisy/src/hid/disp/graphics_common.h ****     {
 2819              		.loc 18 32 66 view .LVU621
 2820 02da 1F80     		strh	r7, [r3]	@ movhi
 2821 02dc 9A80     		strh	r2, [r3, #4]	@ movhi
 2822 02de BFB2     		uxth	r7, r7
 2823              	.LBE1124:
 2824              	.LBE1127:
 2825              	.LBE1131:
 227:../../libdaisy/src/hid/disp/graphics_common.h ****                         width_,
 2826              		.loc 18 227 51 view .LVU622
 2827 02e0 86B2     		uxth	r6, r0
 2828              	.LVL198:
 2829              	.LBB1132:
 2830              	.LBI1119:
  31:../../libdaisy/src/hid/disp/graphics_common.h ****     : x_(x), y_(y), width_(max(0, width)), height_(max(0, height))
 2831              		.loc 18 31 5 is_stmt 1 view .LVU623
 2832              	.LBB1128:
 2833              	.LBB1125:
  32:../../libdaisy/src/hid/disp/graphics_common.h ****     {
 2834              		.loc 18 32 66 is_stmt 0 view .LVU624
 2835 02e2 D980     		strh	r1, [r3, #6]	@ movhi
 2836 02e4 5E80     		strh	r6, [r3, #2]	@ movhi
 2837              	.LVL199:
 2838              	.LBB1122:
 2839              	.LBI1122:
 2840              		.loc 18 261 13 is_stmt 1 view .LVU625
 2841              		.loc 18 261 13 is_stmt 0 view .LVU626
 2842              	.LBE1122:
 2843              	.LBE1125:
 2844              	.LBE1128:
 2845              	.LBE1132:
 2846              	.LBE1214:
 2847              	.LBE1280:
 2848              		.loc 18 261 41 is_stmt 1 view .LVU627
 2849              	.LBB1281:
 2850              	.LBB1215:
 2851              	.LBB1133:
 2852              	.LBB1129:
 2853              	.LBB1126:
 2854              	.LBB1123:
 2855              	.LBI1123:
 2856              		.loc 18 261 13 view .LVU628
 2857              		.loc 18 261 13 is_stmt 0 view .LVU629
 2858              	.LBE1123:
 2859              	.LBE1126:
 2860              	.LBE1129:
 2861              	.LBE1133:
 2862              	.LBE1215:
 2863              	.LBE1281:
 2864              		.loc 18 261 41 is_stmt 1 view .LVU630
 2865              	.LBB1282:
 2866              	.LBB1216:
 2867              	.LBB1134:
 2868              	.LBB1130:
  34:../../libdaisy/src/hid/disp/graphics_common.h **** 
ARM GAS  /tmp/ccpr9r5K.s 			page 91


 2869              		.loc 18 34 5 is_stmt 0 view .LVU631
 2870 02e6 D0E6     		b	.L134
 2871              	.LVL200:
 2872              	.L128:
  34:../../libdaisy/src/hid/disp/graphics_common.h **** 
 2873              		.loc 18 34 5 view .LVU632
 2874              	.LBE1130:
 2875              	.LBE1134:
 235:../../libdaisy/src/hid/disp/graphics_common.h ****                 return {int16_t(x_ + (other.GetCenterX() - GetCenterX())),
 2876              		.loc 18 235 13 is_stmt 1 view .LVU633
 236:../../libdaisy/src/hid/disp/graphics_common.h ****                         int16_t(other.GetBottom() - height_),
 2877              		.loc 18 236 17 view .LVU634
 2878              	.LBB1135:
 2879              	.LBI1135:
  62:../../libdaisy/src/hid/disp/graphics_common.h ****     int16_t GetCenterY() const { return y_ + height_ / 2; }
 2880              		.loc 18 62 13 view .LVU635
 2881              	.LBB1136:
  62:../../libdaisy/src/hid/disp/graphics_common.h ****     int16_t GetCenterY() const { return y_ + height_ / 2; }
 2882              		.loc 18 62 34 view .LVU636
  62:../../libdaisy/src/hid/disp/graphics_common.h ****     int16_t GetCenterY() const { return y_ + height_ / 2; }
 2883              		.loc 18 62 34 is_stmt 0 view .LVU637
 2884              	.LBE1136:
 2885              	.LBE1135:
 2886              	.LBB1140:
 2887              	.LBI1140:
  62:../../libdaisy/src/hid/disp/graphics_common.h ****     int16_t GetCenterY() const { return y_ + height_ / 2; }
 2888              		.loc 18 62 13 is_stmt 1 view .LVU638
 2889              	.LBB1141:
  62:../../libdaisy/src/hid/disp/graphics_common.h ****     int16_t GetCenterY() const { return y_ + height_ / 2; }
 2890              		.loc 18 62 34 view .LVU639
 2891              	.LBE1141:
 2892              	.LBE1140:
 2893              	.LBB1142:
 2894              	.LBB1137:
  62:../../libdaisy/src/hid/disp/graphics_common.h ****     int16_t GetCenterY() const { return y_ + height_ / 2; }
 2895              		.loc 18 62 53 is_stmt 0 view .LVU640
 2896 02e8 B6F904C0 		ldrsh	ip, [r6, #4]
  62:../../libdaisy/src/hid/disp/graphics_common.h ****     int16_t GetCenterY() const { return y_ + height_ / 2; }
 2897              		.loc 18 62 44 view .LVU641
 2898 02ec 3788     		ldrh	r7, [r6]
  62:../../libdaisy/src/hid/disp/graphics_common.h ****     int16_t GetCenterY() const { return y_ + height_ / 2; }
 2899              		.loc 18 62 53 view .LVU642
 2900 02ee BCF1000F 		cmp	ip, #0
 2901              	.LBE1137:
 2902              	.LBE1142:
 2903              	.LBB1143:
 2904              	.LBB1144:
  61:../../libdaisy/src/hid/disp/graphics_common.h ****     int16_t GetCenterX() const { return x_ + width_ / 2; }
 2905              		.loc 18 61 43 view .LVU643
 2906 02f2 7388     		ldrh	r3, [r6, #2]
 2907              	.LVL201:
  61:../../libdaisy/src/hid/disp/graphics_common.h ****     int16_t GetCenterX() const { return x_ + width_ / 2; }
 2908              		.loc 18 61 43 view .LVU644
 2909 02f4 B6F806E0 		ldrh	lr, [r6, #6]
 2910              	.LBE1144:
 2911              	.LBE1143:
 2912              	.LBB1147:
ARM GAS  /tmp/ccpr9r5K.s 			page 92


 2913              	.LBB1138:
  62:../../libdaisy/src/hid/disp/graphics_common.h ****     int16_t GetCenterY() const { return y_ + height_ / 2; }
 2914              		.loc 18 62 53 view .LVU645
 2915 02f8 B8BF     		it	lt
 2916 02fa 0CF1010C 		addlt	ip, ip, #1
 2917              	.LBE1138:
 2918              	.LBE1147:
 2919              	.LBB1148:
 2920              	.LBB1149:
 2921              	.LBB1150:
  32:../../libdaisy/src/hid/disp/graphics_common.h ****     {
 2922              		.loc 18 32 66 view .LVU646
 2923 02fe 099E     		ldr	r6, [sp, #36]
 2924              	.LVL202:
  32:../../libdaisy/src/hid/disp/graphics_common.h ****     {
 2925              		.loc 18 32 66 view .LVU647
 2926              	.LBE1150:
 2927              	.LBE1149:
 2928              	.LBE1148:
 2929              	.LBB1162:
 2930              	.LBB1139:
  62:../../libdaisy/src/hid/disp/graphics_common.h ****     int16_t GetCenterY() const { return y_ + height_ / 2; }
 2931              		.loc 18 62 44 view .LVU648
 2932 0300 07EB6C07 		add	r7, r7, ip, asr #1
 2933              	.LBE1139:
 2934              	.LBE1162:
 2935              	.LBB1163:
 2936              	.LBB1157:
 2937              	.LBB1153:
  32:../../libdaisy/src/hid/disp/graphics_common.h ****     {
 2938              		.loc 18 32 66 view .LVU649
 2939 0304 B280     		strh	r2, [r6, #4]	@ movhi
 2940              	.LBE1153:
 2941              	.LBE1157:
 2942              	.LBE1163:
 2943              	.LBB1164:
 2944              	.LBB1145:
  61:../../libdaisy/src/hid/disp/graphics_common.h ****     int16_t GetCenterX() const { return x_ + width_ / 2; }
 2945              		.loc 18 61 43 view .LVU650
 2946 0306 0EEB0306 		add	r6, lr, r3
 2947              	.LBE1145:
 2948              	.LBE1164:
 236:../../libdaisy/src/hid/disp/graphics_common.h ****                         int16_t(other.GetBottom() - height_),
 2949              		.loc 18 236 58 view .LVU651
 2950 030a A7EB6202 		sub	r2, r7, r2, asr #1
 2951              	.LVL203:
 2952              	.L194:
 237:../../libdaisy/src/hid/disp/graphics_common.h ****                         width_,
 2953              		.loc 18 237 51 view .LVU652
 2954 030e 301A     		subs	r0, r6, r0
 2955              	.LBB1165:
 2956              	.LBB1158:
 2957              	.LBB1154:
  32:../../libdaisy/src/hid/disp/graphics_common.h ****     {
 2958              		.loc 18 32 66 view .LVU653
 2959 0310 099B     		ldr	r3, [sp, #36]
 2960              	.LBE1154:
ARM GAS  /tmp/ccpr9r5K.s 			page 93


 2961              	.LBE1158:
 2962              	.LBE1165:
 236:../../libdaisy/src/hid/disp/graphics_common.h ****                         int16_t(other.GetBottom() - height_),
 2963              		.loc 18 236 58 view .LVU654
 2964 0312 97B2     		uxth	r7, r2
 2965              	.LBB1166:
 2966              	.LBI1143:
  61:../../libdaisy/src/hid/disp/graphics_common.h ****     int16_t GetCenterX() const { return x_ + width_ / 2; }
 2967              		.loc 18 61 13 is_stmt 1 view .LVU655
 2968              	.LVL204:
 2969              	.LBB1146:
  61:../../libdaisy/src/hid/disp/graphics_common.h ****     int16_t GetCenterX() const { return x_ + width_ / 2; }
 2970              		.loc 18 61 33 view .LVU656
 2971              	.LBE1146:
 2972              	.LBE1166:
 237:../../libdaisy/src/hid/disp/graphics_common.h ****                         width_,
 2973              		.loc 18 237 51 is_stmt 0 view .LVU657
 2974 0314 86B2     		uxth	r6, r0
 2975              	.LVL205:
 2976              	.LBB1167:
 2977              	.LBI1148:
  31:../../libdaisy/src/hid/disp/graphics_common.h ****     : x_(x), y_(y), width_(max(0, width)), height_(max(0, height))
 2978              		.loc 18 31 5 is_stmt 1 view .LVU658
 2979              	.LBB1159:
 2980              	.LBB1155:
  32:../../libdaisy/src/hid/disp/graphics_common.h ****     {
 2981              		.loc 18 32 66 is_stmt 0 view .LVU659
 2982 0316 D980     		strh	r1, [r3, #6]	@ movhi
 2983 0318 1F80     		strh	r7, [r3]	@ movhi
 2984 031a 5E80     		strh	r6, [r3, #2]	@ movhi
 2985              	.LVL206:
 2986              	.LBB1151:
 2987              	.LBI1151:
 2988              		.loc 18 261 13 is_stmt 1 view .LVU660
 2989              		.loc 18 261 13 is_stmt 0 view .LVU661
 2990              	.LBE1151:
 2991              	.LBE1155:
 2992              	.LBE1159:
 2993              	.LBE1167:
 2994              	.LBE1216:
 2995              	.LBE1282:
 2996              		.loc 18 261 41 is_stmt 1 view .LVU662
 2997              	.LBB1283:
 2998              	.LBB1217:
 2999              	.LBB1168:
 3000              	.LBB1160:
 3001              	.LBB1156:
 3002              	.LBB1152:
 3003              	.LBI1152:
 3004              		.loc 18 261 13 view .LVU663
 3005              		.loc 18 261 13 is_stmt 0 view .LVU664
 3006              	.LBE1152:
 3007              	.LBE1156:
 3008              	.LBE1160:
 3009              	.LBE1168:
 3010              	.LBE1217:
 3011              	.LBE1283:
ARM GAS  /tmp/ccpr9r5K.s 			page 94


 3012              		.loc 18 261 41 is_stmt 1 view .LVU665
 3013              	.LBB1284:
 3014              	.LBB1218:
 3015              	.LBB1169:
 3016              	.LBB1161:
  34:../../libdaisy/src/hid/disp/graphics_common.h **** 
 3017              		.loc 18 34 5 is_stmt 0 view .LVU666
 3018 031c B5E6     		b	.L134
 3019              	.LVL207:
 3020              	.L127:
  34:../../libdaisy/src/hid/disp/graphics_common.h **** 
 3021              		.loc 18 34 5 view .LVU667
 3022              	.LBE1161:
 3023              	.LBE1169:
 230:../../libdaisy/src/hid/disp/graphics_common.h ****                 return {int16_t(other.GetRight() - width_),
 3024              		.loc 18 230 13 is_stmt 1 view .LVU668
 231:../../libdaisy/src/hid/disp/graphics_common.h ****                         int16_t(other.GetBottom() - height_),
 3025              		.loc 18 231 17 view .LVU669
 3026              	.LBB1170:
 3027              	.LBI1170:
  60:../../libdaisy/src/hid/disp/graphics_common.h ****     int16_t GetBottom() const { return y_ + height_; }
 3028              		.loc 18 60 13 view .LVU670
 3029              	.LBB1171:
  60:../../libdaisy/src/hid/disp/graphics_common.h ****     int16_t GetBottom() const { return y_ + height_; }
 3030              		.loc 18 60 32 view .LVU671
  60:../../libdaisy/src/hid/disp/graphics_common.h ****     int16_t GetBottom() const { return y_ + height_; }
 3031              		.loc 18 60 42 is_stmt 0 view .LVU672
 3032 031e B6F804C0 		ldrh	ip, [r6, #4]
 3033 0322 3788     		ldrh	r7, [r6]
 3034              	.LBE1171:
 3035              	.LBE1170:
 3036              	.LBB1173:
 3037              	.LBB1174:
  61:../../libdaisy/src/hid/disp/graphics_common.h ****     int16_t GetCenterX() const { return x_ + width_ / 2; }
 3038              		.loc 18 61 43 view .LVU673
 3039 0324 7388     		ldrh	r3, [r6, #2]
 3040              	.LVL208:
  61:../../libdaisy/src/hid/disp/graphics_common.h ****     int16_t GetCenterX() const { return x_ + width_ / 2; }
 3041              		.loc 18 61 43 view .LVU674
 3042 0326 B6F806E0 		ldrh	lr, [r6, #6]
 3043              	.LBE1174:
 3044              	.LBE1173:
 3045              	.LBB1176:
 3046              	.LBB1172:
  60:../../libdaisy/src/hid/disp/graphics_common.h ****     int16_t GetBottom() const { return y_ + height_; }
 3047              		.loc 18 60 42 view .LVU675
 3048 032a 6744     		add	r7, r7, ip
 3049              	.LBE1172:
 3050              	.LBE1176:
 3051              	.LBB1177:
 3052              	.LBB1178:
 3053              	.LBB1179:
  32:../../libdaisy/src/hid/disp/graphics_common.h ****     {
 3054              		.loc 18 32 66 view .LVU676
 3055 032c 099E     		ldr	r6, [sp, #36]
 3056              	.LVL209:
  32:../../libdaisy/src/hid/disp/graphics_common.h ****     {
ARM GAS  /tmp/ccpr9r5K.s 			page 95


 3057              		.loc 18 32 66 view .LVU677
 3058 032e B280     		strh	r2, [r6, #4]	@ movhi
 3059              	.LBE1179:
 3060              	.LBE1178:
 3061              	.LBE1177:
 3062              	.LBB1180:
 3063              	.LBB1175:
  61:../../libdaisy/src/hid/disp/graphics_common.h ****     int16_t GetCenterX() const { return x_ + width_ / 2; }
 3064              		.loc 18 61 43 view .LVU678
 3065 0330 0EEB0306 		add	r6, lr, r3
 3066              	.LBE1175:
 3067              	.LBE1180:
 231:../../libdaisy/src/hid/disp/graphics_common.h ****                         int16_t(other.GetBottom() - height_),
 3068              		.loc 18 231 50 view .LVU679
 3069 0334 BA1A     		subs	r2, r7, r2
 3070 0336 EAE7     		b	.L194
 3071              	.LVL210:
 3072              	.L126:
 240:../../libdaisy/src/hid/disp/graphics_common.h ****                 return {other.x_,
 3073              		.loc 18 240 13 is_stmt 1 view .LVU680
 241:../../libdaisy/src/hid/disp/graphics_common.h ****                         int16_t(y_ + (other.GetCenterY() - GetCenterY())),
 3074              		.loc 18 241 17 view .LVU681
 3075              	.LBB1181:
 3076              	.LBB1182:
  63:../../libdaisy/src/hid/disp/graphics_common.h **** 
 3077              		.loc 18 63 54 is_stmt 0 view .LVU682
 3078 0338 B6F90630 		ldrsh	r3, [r6, #6]
 3079              	.LVL211:
  63:../../libdaisy/src/hid/disp/graphics_common.h **** 
 3080              		.loc 18 63 54 view .LVU683
 3081              	.LBE1182:
 3082              	.LBE1181:
 241:../../libdaisy/src/hid/disp/graphics_common.h ****                         int16_t(y_ + (other.GetCenterY() - GetCenterY())),
 3083              		.loc 18 241 31 view .LVU684
 3084 033c B6F90000 		ldrsh	r0, [r6]
 3085              	.LBB1187:
 3086              	.LBI1181:
  63:../../libdaisy/src/hid/disp/graphics_common.h **** 
 3087              		.loc 18 63 13 is_stmt 1 view .LVU685
 3088              	.LVL212:
 3089              	.LBB1183:
  63:../../libdaisy/src/hid/disp/graphics_common.h **** 
 3090              		.loc 18 63 34 view .LVU686
  63:../../libdaisy/src/hid/disp/graphics_common.h **** 
 3091              		.loc 18 63 34 is_stmt 0 view .LVU687
 3092              	.LBE1183:
 3093              	.LBE1187:
 3094              	.LBB1188:
 3095              	.LBI1188:
  63:../../libdaisy/src/hid/disp/graphics_common.h **** 
 3096              		.loc 18 63 13 is_stmt 1 view .LVU688
 3097              	.LBB1189:
  63:../../libdaisy/src/hid/disp/graphics_common.h **** 
 3098              		.loc 18 63 34 view .LVU689
 3099              	.LBE1189:
 3100              	.LBE1188:
 3101              	.LBB1190:
ARM GAS  /tmp/ccpr9r5K.s 			page 96


 3102              	.LBB1184:
  63:../../libdaisy/src/hid/disp/graphics_common.h **** 
 3103              		.loc 18 63 54 is_stmt 0 view .LVU690
 3104 0340 002B     		cmp	r3, #0
  63:../../libdaisy/src/hid/disp/graphics_common.h **** 
 3105              		.loc 18 63 44 view .LVU691
 3106 0342 B6F802C0 		ldrh	ip, [r6, #2]
 3107              	.LBE1184:
 3108              	.LBE1190:
 3109              	.LBB1191:
 3110              	.LBB1192:
 3111              	.LBB1193:
  32:../../libdaisy/src/hid/disp/graphics_common.h ****     {
 3112              		.loc 18 32 66 view .LVU692
 3113 0346 099E     		ldr	r6, [sp, #36]
 3114              	.LVL213:
  32:../../libdaisy/src/hid/disp/graphics_common.h ****     {
 3115              		.loc 18 32 66 view .LVU693
 3116 0348 87B2     		uxth	r7, r0
 3117              	.LBE1193:
 3118              	.LBE1192:
 3119              	.LBE1191:
 3120              	.LBB1198:
 3121              	.LBB1185:
  63:../../libdaisy/src/hid/disp/graphics_common.h **** 
 3122              		.loc 18 63 54 view .LVU694
 3123 034a B8BF     		it	lt
 3124 034c 0133     		addlt	r3, r3, #1
 3125              	.LBE1185:
 3126              	.LBE1198:
 3127              	.LBB1199:
 3128              	.LBB1196:
 3129              	.LBB1194:
  32:../../libdaisy/src/hid/disp/graphics_common.h ****     {
 3130              		.loc 18 32 66 view .LVU695
 3131 034e 3080     		strh	r0, [r6]	@ movhi
 3132              	.LBE1194:
 3133              	.LBE1196:
 3134              	.LBE1199:
 3135              	.LBB1200:
 3136              	.LBB1186:
  63:../../libdaisy/src/hid/disp/graphics_common.h **** 
 3137              		.loc 18 63 44 view .LVU696
 3138 0350 0CEB6306 		add	r6, ip, r3, asr #1
 3139              	.LBE1186:
 3140              	.LBE1200:
 3141              	.LBB1201:
 3142              	.LBB1197:
 3143              	.LBB1195:
  32:../../libdaisy/src/hid/disp/graphics_common.h ****     {
 3144              		.loc 18 32 66 view .LVU697
 3145 0354 099B     		ldr	r3, [sp, #36]
 3146 0356 1846     		mov	r0, r3
 3147 0358 91E6     		b	.L195
 3148              	.LVL214:
 3149              	.L154:
  32:../../libdaisy/src/hid/disp/graphics_common.h ****     {
ARM GAS  /tmp/ccpr9r5K.s 			page 97


 3150              		.loc 18 32 66 view .LVU698
 3151              	.LBE1195:
 3152              	.LBE1197:
 3153              	.LBE1201:
 3154              	.LBE1218:
 3155              	.LBE1284:
 3156              	.LBB1285:
 3157              	.LBB1273:
 3158              	.LBB1271:
 3159              	.LBB1270:
 402:../../libdaisy/src/hid/disp/display.h **** 
 3160              		.loc 6 402 20 view .LVU699
 3161 035a 0026     		movs	r6, #0
 3162              	.LVL215:
 402:../../libdaisy/src/hid/disp/display.h **** 
 3163              		.loc 6 402 20 view .LVU700
 3164 035c 67E7     		b	.L152
 3165              	.LVL216:
 3166              	.L200:
 405:../../libdaisy/src/hid/disp/display.h ****            || Height() < (currentY_ + font.FontHeight))
 3167              		.loc 6 405 17 view .LVU701
 3168 035e 2046     		mov	r0, r4
 3169 0360 9847     		blx	r3
 3170              	.LVL217:
 3171 0362 CDE6     		b	.L153
 3172              	.L208:
 3173              		.align	2
 3174              	.L207:
 3175 0364 00000000 		.word	_ZNK5daisy11OledDisplayINS_13SSD130xDriverILj128ELj64ENS_24SSD130x4WireSpiTransportEEEE5Widt
 3176 0368 00000000 		.word	_ZNK5daisy11OledDisplayINS_13SSD130xDriverILj128ELj64ENS_24SSD130x4WireSpiTransportEEEE6Heig
 3177              	.L201:
 406:../../libdaisy/src/hid/disp/display.h ****         {
 3178              		.loc 6 406 21 view .LVU702
 3179 036c 2046     		mov	r0, r4
 3180 036e 9847     		blx	r3
 3181              	.LVL218:
 3182 0370 D2E6     		b	.L155
 3183              	.LVL219:
 3184              	.L205:
 3185              	.LBB1269:
 3186              	.LBB1266:
 174:../../libdaisy/src/hid/disp/display.h ****     }
 3187              		.loc 6 174 33 view .LVU703
 3188 0372 2046     		mov	r0, r4
 3189 0374 9847     		blx	r3
 3190              	.LVL220:
 3191 0376 4DE7     		b	.L169
 3192              	.LVL221:
 3193              	.L203:
 173:../../libdaisy/src/hid/disp/display.h ****         currentY_ = (y >= Height()) ? Height() - 1 : y;
 3194              		.loc 6 173 32 view .LVU704
 3195 0378 2046     		mov	r0, r4
 3196 037a 9847     		blx	r3
 3197              	.LVL222:
 3198 037c 2268     		ldr	r2, [r4]
 3199 037e 3AE7     		b	.L166
 3200              	.LVL223:
ARM GAS  /tmp/ccpr9r5K.s 			page 98


 3201              	.L156:
 173:../../libdaisy/src/hid/disp/display.h ****         currentY_ = (y >= Height()) ? Height() - 1 : y;
 3202              		.loc 6 173 32 view .LVU705
 3203 0380 B4F804C0 		ldrh	ip, [r4, #4]
 3204 0384 2DE7     		b	.L158
 3205              	.LVL224:
 3206              	.L206:
 174:../../libdaisy/src/hid/disp/display.h ****     }
 3207              		.loc 6 174 45 view .LVU706
 3208 0386 2046     		mov	r0, r4
 3209 0388 9847     		blx	r3
 3210              	.LVL225:
 3211 038a 0138     		subs	r0, r0, #1
 3212 038c 83B2     		uxth	r3, r0
 3213 038e 0293     		str	r3, [sp, #8]
 3214              	.LVL226:
 174:../../libdaisy/src/hid/disp/display.h ****     }
 3215              		.loc 6 174 45 view .LVU707
 3216 0390 4BE7     		b	.L170
 3217              	.LVL227:
 3218              	.L204:
 173:../../libdaisy/src/hid/disp/display.h ****         currentY_ = (y >= Height()) ? Height() - 1 : y;
 3219              		.loc 6 173 43 view .LVU708
 3220 0392 2046     		mov	r0, r4
 3221 0394 9847     		blx	r3
 3222              	.LVL228:
 3223 0396 0138     		subs	r0, r0, #1
 3224 0398 2268     		ldr	r2, [r4]
 3225 039a 85B2     		uxth	r5, r0
 3226              	.LVL229:
 173:../../libdaisy/src/hid/disp/display.h ****         currentY_ = (y >= Height()) ? Height() - 1 : y;
 3227              		.loc 6 173 43 view .LVU709
 3228 039c 33E7     		b	.L167
 3229              	.LVL230:
 3230              	.L123:
 173:../../libdaisy/src/hid/disp/display.h ****         currentY_ = (y >= Height()) ? Height() - 1 : y;
 3231              		.loc 6 173 43 view .LVU710
 3232              	.LBE1266:
 3233              	.LBE1269:
 3234              	.LBE1270:
 3235              	.LBE1271:
 3236              	.LBE1273:
 3237              	.LBE1285:
 3238              	.LBB1286:
 3239              	.LBB1219:
 255:../../libdaisy/src/hid/disp/graphics_common.h ****         }
 3240              		.loc 18 255 13 is_stmt 1 view .LVU711
 255:../../libdaisy/src/hid/disp/graphics_common.h ****         }
 3241              		.loc 18 255 22 view .LVU712
 3242              	.LBB1202:
 3243              	.LBI1202:
  24:../../libdaisy/src/hid/disp/graphics_common.h **** 
 3244              		.loc 18 24 5 view .LVU713
 3245              	.LBE1202:
 3246              	.LBE1219:
 3247              	.LBE1286:
 3248              	.LBB1287:
ARM GAS  /tmp/ccpr9r5K.s 			page 99


 3249              	.LBB1225:
 173:../../libdaisy/src/hid/disp/display.h ****         currentY_ = (y >= Height()) ? Height() - 1 : y;
 3250              		.loc 6 173 33 is_stmt 0 view .LVU714
 3251 039e 2368     		ldr	r3, [r4]
 3252              	.LVL231:
 173:../../libdaisy/src/hid/disp/display.h ****         currentY_ = (y >= Height()) ? Height() - 1 : y;
 3253              		.loc 6 173 33 view .LVU715
 3254              	.LBE1225:
 3255              	.LBE1287:
 3256              	.LBB1288:
 3257              	.LBB1220:
 3258              	.LBB1205:
 3259              	.LBB1203:
  24:../../libdaisy/src/hid/disp/graphics_common.h **** 
 3260              		.loc 18 24 53 view .LVU716
 3261 03a0 0026     		movs	r6, #0
 3262              	.LVL232:
  24:../../libdaisy/src/hid/disp/graphics_common.h **** 
 3263              		.loc 18 24 53 view .LVU717
 3264 03a2 124F     		ldr	r7, .L209
 3265              	.LBE1203:
 3266              	.LBE1205:
 3267              	.LBE1220:
 3268              	.LBE1288:
 3269              	.LBB1289:
 3270              	.LBB1226:
 173:../../libdaisy/src/hid/disp/display.h ****         currentY_ = (y >= Height()) ? Height() - 1 : y;
 3271              		.loc 6 173 33 view .LVU718
 3272 03a4 DA68     		ldr	r2, [r3, #12]
 3273              	.LBE1226:
 3274              	.LBE1289:
 3275              	.LBB1290:
 3276              	.LBB1221:
 3277              	.LBB1206:
 3278              	.LBB1204:
  24:../../libdaisy/src/hid/disp/graphics_common.h **** 
 3279              		.loc 18 24 53 view .LVU719
 3280 03a6 0999     		ldr	r1, [sp, #36]
 3281 03a8 BA42     		cmp	r2, r7
 3282 03aa 0197     		str	r7, [sp, #4]
 3283 03ac 0E80     		strh	r6, [r1]	@ movhi
 3284 03ae 4E80     		strh	r6, [r1, #2]	@ movhi
 3285 03b0 8E80     		strh	r6, [r1, #4]	@ movhi
 3286 03b2 CE80     		strh	r6, [r1, #6]	@ movhi
 3287              	.LVL233:
  24:../../libdaisy/src/hid/disp/graphics_common.h **** 
 3288              		.loc 18 24 53 view .LVU720
 3289              	.LBE1204:
 3290              	.LBE1206:
 3291              	.LBE1221:
 3292              	.LBE1290:
  56:../../libdaisy/src/hid/disp/graphics_common.h ****     int16_t GetY() const { return y_; }
 3293              		.loc 18 56 28 is_stmt 1 view .LVU721
  57:../../libdaisy/src/hid/disp/graphics_common.h ****     int16_t GetWidth() const { return width_; }
 3294              		.loc 18 57 28 view .LVU722
 3295              	.LBB1291:
 171:../../libdaisy/src/hid/disp/display.h ****     {
ARM GAS  /tmp/ccpr9r5K.s 			page 100


 3296              		.loc 6 171 10 view .LVU723
 3297              	.LBB1227:
 173:../../libdaisy/src/hid/disp/display.h ****         currentY_ = (y >= Height()) ? Height() - 1 : y;
 3298              		.loc 6 173 9 view .LVU724
 3299 03b4 04D0     		beq	.L141
 173:../../libdaisy/src/hid/disp/display.h ****         currentY_ = (y >= Height()) ? Height() - 1 : y;
 3300              		.loc 6 173 33 is_stmt 0 view .LVU725
 3301 03b6 3746     		mov	r7, r6
 3302              	.LVL234:
 3303              	.L142:
 173:../../libdaisy/src/hid/disp/display.h ****         currentY_ = (y >= Height()) ? Height() - 1 : y;
 3304              		.loc 6 173 32 view .LVU726
 3305 03b8 2046     		mov	r0, r4
 3306 03ba 9047     		blx	r2
 3307              	.LVL235:
 3308 03bc 2368     		ldr	r3, [r4]
 3309 03be 6DE6     		b	.L143
 3310              	.LVL236:
 3311              	.L141:
 174:../../libdaisy/src/hid/disp/display.h ****     }
 3312              		.loc 6 174 34 view .LVU727
 3313 03c0 9B68     		ldr	r3, [r3, #8]
 3314 03c2 0B4A     		ldr	r2, .L209+4
 173:../../libdaisy/src/hid/disp/display.h ****         currentY_ = (y >= Height()) ? Height() - 1 : y;
 3315              		.loc 6 173 19 view .LVU728
 3316 03c4 A680     		strh	r6, [r4, #4]	@ movhi
 174:../../libdaisy/src/hid/disp/display.h ****     }
 3317              		.loc 6 174 9 is_stmt 1 view .LVU729
 3318 03c6 9342     		cmp	r3, r2
 3319 03c8 0392     		str	r2, [sp, #12]
 3320 03ca 3FF480AE 		beq	.L148
 3321              	.LVL237:
 3322              	.L174:
 174:../../libdaisy/src/hid/disp/display.h ****     }
 3323              		.loc 6 174 33 is_stmt 0 view .LVU730
 3324 03ce 2046     		mov	r0, r4
 3325 03d0 9847     		blx	r3
 3326              	.LVL238:
 3327 03d2 73E6     		b	.L146
 3328              	.L199:
 174:../../libdaisy/src/hid/disp/display.h ****     }
 3329              		.loc 6 174 45 view .LVU731
 3330 03d4 2046     		mov	r0, r4
 3331 03d6 9847     		blx	r3
 3332              	.LVL239:
 3333 03d8 0138     		subs	r0, r0, #1
 3334 03da 86B2     		uxth	r6, r0
 3335 03dc 77E6     		b	.L148
 3336              	.L198:
 173:../../libdaisy/src/hid/disp/display.h ****         currentY_ = (y >= Height()) ? Height() - 1 : y;
 3337              		.loc 6 173 43 view .LVU732
 3338 03de 2046     		mov	r0, r4
 3339 03e0 9047     		blx	r2
 3340              	.LVL240:
 3341 03e2 0138     		subs	r0, r0, #1
 3342 03e4 2368     		ldr	r3, [r4]
 3343 03e6 87B2     		uxth	r7, r0
ARM GAS  /tmp/ccpr9r5K.s 			page 101


 3344 03e8 60E6     		b	.L144
 3345              	.L210:
 3346 03ea 00BF     		.align	2
 3347              	.L209:
 3348 03ec 00000000 		.word	_ZNK5daisy11OledDisplayINS_13SSD130xDriverILj128ELj64ENS_24SSD130x4WireSpiTransportEEEE5Widt
 3349 03f0 00000000 		.word	_ZNK5daisy11OledDisplayINS_13SSD130xDriverILj128ELj64ENS_24SSD130x4WireSpiTransportEEEE6Heig
 3350              	.LBE1227:
 3351              	.LBE1291:
 3352              		.cfi_endproc
 3353              	.LFE4825:
 3355              		.section	.text._ZN5daisy11OledDisplayINS_13SSD130xDriverILj128ELj64ENS_24SSD130x4WireSpiTransportE
 3356              		.align	1
 3357              		.p2align 2,,3
 3358              		.weak	_ZN5daisy11OledDisplayINS_13SSD130xDriverILj128ELj64ENS_24SSD130x4WireSpiTransportEEEE9DrawP
 3359              		.syntax unified
 3360              		.thumb
 3361              		.thumb_func
 3362              		.fpu fpv5-d16
 3364              	_ZN5daisy11OledDisplayINS_13SSD130xDriverILj128ELj64ENS_24SSD130x4WireSpiTransportEEEE9DrawPixelEjj
 3365              	.LVL241:
 3366              	.LFB4718:
  41:../../libdaisy/src/hid/disp/oled_display.h ****     {
 3367              		.loc 5 41 10 is_stmt 1 view -0
 3368              		.cfi_startproc
 3369              		@ args = 0, pretend = 0, frame = 0
 3370              		@ frame_needed = 0, uses_anonymous_args = 0
 3371              		@ link register save eliminated.
 3372              	.LBB1296:
 3373              	.LBI1296:
 239:../../libdaisy/src/dev/oled_ssd130x.h ****     {
 3374              		.loc 15 239 10 view .LVU734
 3375              	.LBB1297:
 241:../../libdaisy/src/dev/oled_ssd130x.h ****             return;
 3376              		.loc 15 241 9 is_stmt 0 view .LVU735
 3377 0000 7F29     		cmp	r1, #127
 3378 0002 21D8     		bhi	.L215
 3379 0004 3F2A     		cmp	r2, #63
 3380 0006 1FD8     		bhi	.L215
 3381              	.LBE1297:
 3382              	.LBE1296:
  41:../../libdaisy/src/hid/disp/oled_display.h ****     {
 3383              		.loc 5 41 10 view .LVU736
 3384 0008 10B4     		push	{r4}
 3385              		.cfi_def_cfa_offset 4
 3386              		.cfi_offset 4, -4
 3387              	.LBB1302:
 3388              	.LBB1300:
 243:../../libdaisy/src/dev/oled_ssd130x.h ****             buffer_[x + (y / 8) * width] |= (1 << (y % 8));
 3389              		.loc 15 243 9 view .LVU737
 3390 000a 73B9     		cbnz	r3, .L218
 3391              	.LVL242:
 3392              	.LBB1298:
 3393              	.LBI1298:
 239:../../libdaisy/src/dev/oled_ssd130x.h ****     {
 3394              		.loc 15 239 10 is_stmt 1 view .LVU738
 3395              	.LBB1299:
 246:../../libdaisy/src/dev/oled_ssd130x.h ****     }
ARM GAS  /tmp/ccpr9r5K.s 			page 102


 3396              		.loc 15 246 28 is_stmt 0 view .LVU739
 3397 000c D308     		lsrs	r3, r2, #3
 3398              	.LVL243:
 246:../../libdaisy/src/dev/oled_ssd130x.h ****     }
 3399              		.loc 15 246 49 view .LVU740
 3400 000e 0124     		movs	r4, #1
 246:../../libdaisy/src/dev/oled_ssd130x.h ****     }
 3401              		.loc 15 246 55 view .LVU741
 3402 0010 02F00702 		and	r2, r2, #7
 3403              	.LVL244:
 246:../../libdaisy/src/dev/oled_ssd130x.h ****     }
 3404              		.loc 15 246 42 view .LVU742
 3405 0014 01EBC313 		add	r3, r1, r3, lsl #7
 246:../../libdaisy/src/dev/oled_ssd130x.h ****     }
 3406              		.loc 15 246 49 view .LVU743
 3407 0018 9440     		lsls	r4, r4, r2
 246:../../libdaisy/src/dev/oled_ssd130x.h ****     }
 3408              		.loc 15 246 13 view .LVU744
 3409 001a C118     		adds	r1, r0, r3
 3410              	.LVL245:
 246:../../libdaisy/src/dev/oled_ssd130x.h ****     }
 3411              		.loc 15 246 42 view .LVU745
 3412 001c 0A7D     		ldrb	r2, [r1, #20]	@ zero_extendqisi2
 3413 001e 22EA0402 		bic	r2, r2, r4
 246:../../libdaisy/src/dev/oled_ssd130x.h ****     }
 3414              		.loc 15 246 13 view .LVU746
 3415 0022 0A75     		strb	r2, [r1, #20]
 3416              	.LVL246:
 246:../../libdaisy/src/dev/oled_ssd130x.h ****     }
 3417              		.loc 15 246 13 view .LVU747
 3418              	.LBE1299:
 3419              	.LBE1298:
 3420              	.LBE1300:
 3421              	.LBE1302:
  44:../../libdaisy/src/hid/disp/oled_display.h **** 
 3422              		.loc 5 44 5 view .LVU748
 3423 0024 5DF8044B 		ldr	r4, [sp], #4
 3424              		.cfi_remember_state
 3425              		.cfi_restore 4
 3426              		.cfi_def_cfa_offset 0
 3427 0028 7047     		bx	lr
 3428              	.LVL247:
 3429              	.L218:
 3430              		.cfi_restore_state
 3431              	.LBB1303:
 3432              	.LBB1301:
 244:../../libdaisy/src/dev/oled_ssd130x.h ****         else
 3433              		.loc 15 244 28 view .LVU749
 3434 002a D408     		lsrs	r4, r2, #3
 244:../../libdaisy/src/dev/oled_ssd130x.h ****         else
 3435              		.loc 15 244 48 view .LVU750
 3436 002c 0123     		movs	r3, #1
 3437              	.LVL248:
 244:../../libdaisy/src/dev/oled_ssd130x.h ****         else
 3438              		.loc 15 244 54 view .LVU751
 3439 002e 02F00702 		and	r2, r2, #7
 3440              	.LVL249:
ARM GAS  /tmp/ccpr9r5K.s 			page 103


 244:../../libdaisy/src/dev/oled_ssd130x.h ****         else
 3441              		.loc 15 244 42 view .LVU752
 3442 0032 01EBC414 		add	r4, r1, r4, lsl #7
 244:../../libdaisy/src/dev/oled_ssd130x.h ****         else
 3443              		.loc 15 244 48 view .LVU753
 3444 0036 03FA02F2 		lsl	r2, r3, r2
 244:../../libdaisy/src/dev/oled_ssd130x.h ****         else
 3445              		.loc 15 244 13 view .LVU754
 3446 003a 0119     		adds	r1, r0, r4
 3447              	.LVL250:
 244:../../libdaisy/src/dev/oled_ssd130x.h ****         else
 3448              		.loc 15 244 42 view .LVU755
 3449 003c 0B7D     		ldrb	r3, [r1, #20]	@ zero_extendqisi2
 3450 003e 1A43     		orrs	r2, r2, r3
 244:../../libdaisy/src/dev/oled_ssd130x.h ****         else
 3451              		.loc 15 244 13 view .LVU756
 3452 0040 0A75     		strb	r2, [r1, #20]
 3453              	.LBE1301:
 3454              	.LBE1303:
  44:../../libdaisy/src/hid/disp/oled_display.h **** 
 3455              		.loc 5 44 5 view .LVU757
 3456 0042 5DF8044B 		ldr	r4, [sp], #4
 3457              		.cfi_restore 4
 3458              		.cfi_def_cfa_offset 0
 3459 0046 7047     		bx	lr
 3460              	.LVL251:
 3461              	.L215:
  44:../../libdaisy/src/hid/disp/oled_display.h **** 
 3462              		.loc 5 44 5 view .LVU758
 3463 0048 7047     		bx	lr
 3464              		.cfi_endproc
 3465              	.LFE4718:
 3467 004a 00BF     		.section	.text._ZN5daisy25OneBitGraphicsDisplayImplINS_11OledDisplayINS_13SSD130xDriverILj128ELj64
 3468              		.align	1
 3469              		.p2align 2,,3
 3470              		.weak	_ZN5daisy25OneBitGraphicsDisplayImplINS_11OledDisplayINS_13SSD130xDriverILj128ELj64ENS_24SSD
 3471              		.syntax unified
 3472              		.thumb
 3473              		.thumb_func
 3474              		.fpu fpv5-d16
 3476              	_ZN5daisy25OneBitGraphicsDisplayImplINS_11OledDisplayINS_13SSD130xDriverILj128ELj64ENS_24SSD130x4Wi
 3477              	.LVL252:
 3478              	.LFB4822:
 221:../../libdaisy/src/hid/disp/display.h ****                   uint_fast8_t y1,
 3479              		.loc 6 221 10 is_stmt 1 view -0
 3480              		.cfi_startproc
 3481              		@ args = 8, pretend = 0, frame = 8
 3482              		@ frame_needed = 0, uses_anonymous_args = 0
 221:../../libdaisy/src/hid/disp/display.h ****                   uint_fast8_t y1,
 3483              		.loc 6 221 10 is_stmt 0 view .LVU760
 3484 0000 2DE9F04F 		push	{r4, r5, r6, r7, r8, r9, r10, fp, lr}
 3485              		.cfi_def_cfa_offset 36
 3486              		.cfi_offset 4, -36
 3487              		.cfi_offset 5, -32
 3488              		.cfi_offset 6, -28
 3489              		.cfi_offset 7, -24
 3490              		.cfi_offset 8, -20
ARM GAS  /tmp/ccpr9r5K.s 			page 104


 3491              		.cfi_offset 9, -16
 3492              		.cfi_offset 10, -12
 3493              		.cfi_offset 11, -8
 3494              		.cfi_offset 14, -4
 3495 0004 83B0     		sub	sp, sp, #12
 3496              		.cfi_def_cfa_offset 48
 227:../../libdaisy/src/hid/disp/display.h ****         int_fast16_t deltaY = abs((int_fast16_t)y2 - (int_fast16_t)y1);
 3497              		.loc 6 227 52 view .LVU761
 3498 0006 5E1A     		subs	r6, r3, r1
 221:../../libdaisy/src/hid/disp/display.h ****                   uint_fast8_t y1,
 3499              		.loc 6 221 10 view .LVU762
 3500 0008 0C9F     		ldr	r7, [sp, #48]
 3501 000a 9DF83480 		ldrb	r8, [sp, #52]	@ zero_extendqisi2
 228:../../libdaisy/src/hid/disp/display.h ****         int_fast16_t signX  = ((x1 < x2) ? 1 : -1);
 3502              		.loc 6 228 52 view .LVU763
 3503 000e A7EB020E 		sub	lr, r7, r2
 228:../../libdaisy/src/hid/disp/display.h ****         int_fast16_t signX  = ((x1 < x2) ? 1 : -1);
 3504              		.loc 6 228 22 view .LVU764
 3505 0012 BEF1000F 		cmp	lr, #0
 3506 0016 B8BF     		it	lt
 3507 0018 CEF1000E 		rsblt	lr, lr, #0
 229:../../libdaisy/src/hid/disp/display.h ****         int_fast16_t signY  = ((y1 < y2) ? 1 : -1);
 3508              		.loc 6 229 22 view .LVU765
 3509 001c 8B42     		cmp	r3, r1
 3510 001e 8CBF     		ite	hi
 3511 0020 4FF00109 		movhi	r9, #1
 3512 0024 4FF0FF39 		movls	r9, #-1
 227:../../libdaisy/src/hid/disp/display.h ****         int_fast16_t deltaY = abs((int_fast16_t)y2 - (int_fast16_t)y1);
 3513              		.loc 6 227 22 view .LVU766
 3514 0028 002E     		cmp	r6, #0
 3515 002a B8BF     		it	lt
 3516 002c 7642     		rsblt	r6, r6, #0
 3517              	.LVL253:
 230:../../libdaisy/src/hid/disp/display.h ****         int_fast16_t error  = deltaX - deltaY;
 3518              		.loc 6 230 22 view .LVU767
 3519 002e 9742     		cmp	r7, r2
 231:../../libdaisy/src/hid/disp/display.h ****         int_fast16_t error2;
 3520              		.loc 6 231 22 view .LVU768
 3521 0030 A6EB0E04 		sub	r4, r6, lr
 230:../../libdaisy/src/hid/disp/display.h ****         int_fast16_t error  = deltaX - deltaY;
 3522              		.loc 6 230 22 view .LVU769
 3523 0034 4FD8     		bhi	.L221
 3524              	.LVL254:
 3525              	.LBB1320:
 3526              	.LBI1320:
  41:../../libdaisy/src/hid/disp/oled_display.h ****     {
 3527              		.loc 5 41 10 is_stmt 1 discriminator 4 view .LVU770
 3528              	.LBB1321:
 3529              	.LBI1321:
 239:../../libdaisy/src/dev/oled_ssd130x.h ****     {
 3530              		.loc 15 239 10 discriminator 4 view .LVU771
 3531              	.LBE1321:
 3532              	.LBE1320:
 230:../../libdaisy/src/hid/disp/display.h ****         int_fast16_t error  = deltaX - deltaY;
 3533              		.loc 6 230 22 is_stmt 0 discriminator 4 view .LVU772
 3534 0036 4FF0FF35 		mov	r5, #-1
 3535              	.LBB1337:
ARM GAS  /tmp/ccpr9r5K.s 			page 105


 3536              	.LBB1331:
 3537              	.LBB1322:
 241:../../libdaisy/src/dev/oled_ssd130x.h ****             return;
 3538              		.loc 15 241 9 discriminator 4 view .LVU773
 3539 003a 7F2B     		cmp	r3, #127
 3540              	.LBE1322:
 3541              	.LBE1331:
 3542              	.LBE1337:
 230:../../libdaisy/src/hid/disp/display.h ****         int_fast16_t error  = deltaX - deltaY;
 3543              		.loc 6 230 22 discriminator 4 view .LVU774
 3544 003c 0195     		str	r5, [sp, #4]
 3545              	.LBB1338:
 3546              	.LBB1332:
 3547              	.LBB1327:
 241:../../libdaisy/src/dev/oled_ssd130x.h ****             return;
 3548              		.loc 15 241 9 discriminator 4 view .LVU775
 3549 003e 14D8     		bhi	.L222
 3550 0040 3F2F     		cmp	r7, #63
 3551 0042 12D8     		bhi	.L222
 3552              	.LVL255:
 3553              	.L233:
 244:../../libdaisy/src/dev/oled_ssd130x.h ****         else
 3554              		.loc 15 244 28 view .LVU776
 3555 0044 FD08     		lsrs	r5, r7, #3
 244:../../libdaisy/src/dev/oled_ssd130x.h ****         else
 3556              		.loc 15 244 54 view .LVU777
 3557 0046 07F0070C 		and	ip, r7, #7
 244:../../libdaisy/src/dev/oled_ssd130x.h ****         else
 3558              		.loc 15 244 48 view .LVU778
 3559 004a 4FF0010A 		mov	r10, #1
 244:../../libdaisy/src/dev/oled_ssd130x.h ****         else
 3560              		.loc 15 244 42 view .LVU779
 3561 004e 03EBC515 		add	r5, r3, r5, lsl #7
 243:../../libdaisy/src/dev/oled_ssd130x.h ****             buffer_[x + (y / 8) * width] |= (1 << (y % 8));
 3562              		.loc 15 243 9 view .LVU780
 3563 0052 B8F1000F 		cmp	r8, #0
 3564 0056 45D0     		beq	.L223
 244:../../libdaisy/src/dev/oled_ssd130x.h ****         else
 3565              		.loc 15 244 13 view .LVU781
 3566 0058 0544     		add	r5, r5, r0
 244:../../libdaisy/src/dev/oled_ssd130x.h ****         else
 3567              		.loc 15 244 48 view .LVU782
 3568 005a 0AFA0CFC 		lsl	ip, r10, ip
 244:../../libdaisy/src/dev/oled_ssd130x.h ****         else
 3569              		.loc 15 244 42 view .LVU783
 3570 005e 95F814A0 		ldrb	r10, [r5, #20]	@ zero_extendqisi2
 3571 0062 4CEA0A0C 		orr	ip, ip, r10
 244:../../libdaisy/src/dev/oled_ssd130x.h ****         else
 3572              		.loc 15 244 13 view .LVU784
 3573 0066 85F814C0 		strb	ip, [r5, #20]
 3574              	.L222:
 3575              	.LVL256:
 244:../../libdaisy/src/dev/oled_ssd130x.h ****         else
 3576              		.loc 15 244 13 view .LVU785
 3577              	.LBE1327:
 3578              	.LBE1332:
 3579              	.LBE1338:
ARM GAS  /tmp/ccpr9r5K.s 			page 106


 239:../../libdaisy/src/hid/disp/display.h ****         {
 3580              		.loc 6 239 26 is_stmt 1 view .LVU786
 3581 006a 9742     		cmp	r7, r2
 3582 006c 01D1     		bne	.L226
 3583              	.L245:
 239:../../libdaisy/src/hid/disp/display.h ****         {
 3584              		.loc 6 239 26 is_stmt 0 view .LVU787
 3585 006e 8B42     		cmp	r3, r1
 3586 0070 29D0     		beq	.L219
 3587              	.L226:
 3588              	.LVL257:
 239:../../libdaisy/src/hid/disp/display.h ****         {
 3589              		.loc 6 239 26 view .LVU788
 3590 0072 CEF1000C 		rsb	ip, lr, #0
 3591              	.L228:
 3592              	.LVL258:
 3593              	.LBB1339:
 3594              	.LBI1339:
  41:../../libdaisy/src/hid/disp/oled_display.h ****     {
 3595              		.loc 5 41 10 is_stmt 1 view .LVU789
 3596              	.LBB1340:
 3597              	.LBI1340:
 239:../../libdaisy/src/dev/oled_ssd130x.h ****     {
 3598              		.loc 15 239 10 view .LVU790
 3599              	.LBB1341:
 241:../../libdaisy/src/dev/oled_ssd130x.h ****             return;
 3600              		.loc 15 241 9 is_stmt 0 view .LVU791
 3601 0076 7F29     		cmp	r1, #127
 3602 0078 14D8     		bhi	.L229
 3603 007a 3F2A     		cmp	r2, #63
 3604 007c 12D8     		bhi	.L229
 244:../../libdaisy/src/dev/oled_ssd130x.h ****         else
 3605              		.loc 15 244 28 view .LVU792
 3606 007e D508     		lsrs	r5, r2, #3
 244:../../libdaisy/src/dev/oled_ssd130x.h ****         else
 3607              		.loc 15 244 48 view .LVU793
 3608 0080 4FF0010B 		mov	fp, #1
 244:../../libdaisy/src/dev/oled_ssd130x.h ****         else
 3609              		.loc 15 244 54 view .LVU794
 3610 0084 02F0070A 		and	r10, r2, #7
 244:../../libdaisy/src/dev/oled_ssd130x.h ****         else
 3611              		.loc 15 244 42 view .LVU795
 3612 0088 01EBC515 		add	r5, r1, r5, lsl #7
 244:../../libdaisy/src/dev/oled_ssd130x.h ****         else
 3613              		.loc 15 244 48 view .LVU796
 3614 008c 0BFA0AFA 		lsl	r10, fp, r10
 244:../../libdaisy/src/dev/oled_ssd130x.h ****         else
 3615              		.loc 15 244 13 view .LVU797
 3616 0090 0544     		add	r5, r5, r0
 244:../../libdaisy/src/dev/oled_ssd130x.h ****         else
 3617              		.loc 15 244 42 view .LVU798
 3618 0092 95F814B0 		ldrb	fp, [r5, #20]	@ zero_extendqisi2
 243:../../libdaisy/src/dev/oled_ssd130x.h ****             buffer_[x + (y / 8) * width] |= (1 << (y % 8));
 3619              		.loc 15 243 9 view .LVU799
 3620 0096 B8F1000F 		cmp	r8, #0
 3621 009a 17D0     		beq	.L230
 244:../../libdaisy/src/dev/oled_ssd130x.h ****         else
ARM GAS  /tmp/ccpr9r5K.s 			page 107


 3622              		.loc 15 244 42 view .LVU800
 3623 009c 4AEA0B0A 		orr	r10, r10, fp
 244:../../libdaisy/src/dev/oled_ssd130x.h ****         else
 3624              		.loc 15 244 13 view .LVU801
 3625 00a0 85F814A0 		strb	r10, [r5, #20]
 3626              	.L229:
 3627              	.LVL259:
 244:../../libdaisy/src/dev/oled_ssd130x.h ****         else
 3628              		.loc 15 244 13 view .LVU802
 3629              	.LBE1341:
 3630              	.LBE1340:
 3631              	.LBE1339:
 243:../../libdaisy/src/hid/disp/display.h ****             {
 3632              		.loc 6 243 13 view .LVU803
 3633 00a4 BCEB440F 		cmp	ip, r4, lsl #1
 242:../../libdaisy/src/hid/disp/display.h ****             if(error2 > -deltaY)
 3634              		.loc 6 242 13 view .LVU804
 3635 00a8 4FEA4405 		lsl	r5, r4, #1
 3636              	.LVL260:
 243:../../libdaisy/src/hid/disp/display.h ****             {
 3637              		.loc 6 243 13 view .LVU805
 3638 00ac 02DA     		bge	.L231
 245:../../libdaisy/src/hid/disp/display.h ****                 x1 += signX;
 3639              		.loc 6 245 17 view .LVU806
 3640 00ae A4EB0E04 		sub	r4, r4, lr
 3641              	.LVL261:
 246:../../libdaisy/src/hid/disp/display.h ****             }
 3642              		.loc 6 246 17 view .LVU807
 3643 00b2 4944     		add	r1, r1, r9
 3644              	.LVL262:
 3645              	.L231:
 249:../../libdaisy/src/hid/disp/display.h ****             {
 3646              		.loc 6 249 13 view .LVU808
 3647 00b4 AE42     		cmp	r6, r5
 3648 00b6 02DD     		ble	.L232
 252:../../libdaisy/src/hid/disp/display.h ****             }
 3649              		.loc 6 252 17 view .LVU809
 3650 00b8 019D     		ldr	r5, [sp, #4]
 3651              	.LVL263:
 251:../../libdaisy/src/hid/disp/display.h ****                 y1 += signY;
 3652              		.loc 6 251 17 view .LVU810
 3653 00ba 3444     		add	r4, r4, r6
 3654              	.LVL264:
 252:../../libdaisy/src/hid/disp/display.h ****             }
 3655              		.loc 6 252 17 view .LVU811
 3656 00bc 2A44     		add	r2, r2, r5
 3657              	.LVL265:
 3658              	.L232:
 239:../../libdaisy/src/hid/disp/display.h ****         {
 3659              		.loc 6 239 26 is_stmt 1 view .LVU812
 3660 00be 9942     		cmp	r1, r3
 3661 00c0 D9D1     		bne	.L228
 239:../../libdaisy/src/hid/disp/display.h ****         {
 3662              		.loc 6 239 26 is_stmt 0 view .LVU813
 3663 00c2 9742     		cmp	r7, r2
 3664 00c4 D7D1     		bne	.L228
 3665              	.L219:
ARM GAS  /tmp/ccpr9r5K.s 			page 108


 255:../../libdaisy/src/hid/disp/display.h **** 
 3666              		.loc 6 255 5 view .LVU814
 3667 00c6 03B0     		add	sp, sp, #12
 3668              		.cfi_remember_state
 3669              		.cfi_def_cfa_offset 36
 3670              		@ sp needed
 3671 00c8 BDE8F08F 		pop	{r4, r5, r6, r7, r8, r9, r10, fp, pc}
 3672              	.LVL266:
 3673              	.L230:
 3674              		.cfi_restore_state
 3675              	.LBB1346:
 3676              	.LBB1345:
 3677              	.LBB1344:
 3678              	.LBB1342:
 3679              	.LBI1342:
 239:../../libdaisy/src/dev/oled_ssd130x.h ****     {
 3680              		.loc 15 239 10 is_stmt 1 view .LVU815
 3681              	.LBB1343:
 246:../../libdaisy/src/dev/oled_ssd130x.h ****     }
 3682              		.loc 15 246 42 is_stmt 0 view .LVU816
 3683 00cc 2BEA0A0A 		bic	r10, fp, r10
 246:../../libdaisy/src/dev/oled_ssd130x.h ****     }
 3684              		.loc 15 246 13 view .LVU817
 3685 00d0 85F814A0 		strb	r10, [r5, #20]
 3686 00d4 E6E7     		b	.L229
 3687              	.LVL267:
 3688              	.L221:
 246:../../libdaisy/src/dev/oled_ssd130x.h ****     }
 3689              		.loc 15 246 13 view .LVU818
 3690              	.LBE1343:
 3691              	.LBE1342:
 3692              	.LBE1344:
 3693              	.LBE1345:
 3694              	.LBE1346:
 3695              	.LBB1347:
  41:../../libdaisy/src/hid/disp/oled_display.h ****     {
 3696              		.loc 5 41 10 is_stmt 1 view .LVU819
 3697              	.LBB1333:
 239:../../libdaisy/src/dev/oled_ssd130x.h ****     {
 3698              		.loc 15 239 10 view .LVU820
 3699              	.LBE1333:
 3700              	.LBE1347:
 230:../../libdaisy/src/hid/disp/display.h ****         int_fast16_t error  = deltaX - deltaY;
 3701              		.loc 6 230 22 is_stmt 0 view .LVU821
 3702 00d6 0125     		movs	r5, #1
 3703              	.LBB1348:
 3704              	.LBB1334:
 3705              	.LBB1328:
 241:../../libdaisy/src/dev/oled_ssd130x.h ****             return;
 3706              		.loc 15 241 9 view .LVU822
 3707 00d8 7F2B     		cmp	r3, #127
 3708              	.LBE1328:
 3709              	.LBE1334:
 3710              	.LBE1348:
 230:../../libdaisy/src/hid/disp/display.h ****         int_fast16_t error  = deltaX - deltaY;
 3711              		.loc 6 230 22 view .LVU823
 3712 00da 0195     		str	r5, [sp, #4]
ARM GAS  /tmp/ccpr9r5K.s 			page 109


 3713              	.LBB1349:
 3714              	.LBB1335:
 3715              	.LBB1329:
 241:../../libdaisy/src/dev/oled_ssd130x.h ****             return;
 3716              		.loc 15 241 9 view .LVU824
 3717 00dc C9D8     		bhi	.L226
 3718 00de 3F2F     		cmp	r7, #63
 3719 00e0 B0D9     		bls	.L233
 3720 00e2 C6E7     		b	.L226
 3721              	.LVL268:
 3722              	.L223:
 3723              	.LBB1323:
 3724              	.LBI1323:
 239:../../libdaisy/src/dev/oled_ssd130x.h ****     {
 3725              		.loc 15 239 10 is_stmt 1 view .LVU825
 3726              	.LBB1324:
 246:../../libdaisy/src/dev/oled_ssd130x.h ****     }
 3727              		.loc 15 246 13 is_stmt 0 view .LVU826
 3728 00e4 0544     		add	r5, r5, r0
 246:../../libdaisy/src/dev/oled_ssd130x.h ****     }
 3729              		.loc 15 246 49 view .LVU827
 3730 00e6 0AFA0CFA 		lsl	r10, r10, ip
 3731              	.LBE1324:
 3732              	.LBE1323:
 3733              	.LBE1329:
 3734              	.LBE1335:
 3735              	.LBE1349:
 239:../../libdaisy/src/hid/disp/display.h ****         {
 3736              		.loc 6 239 26 view .LVU828
 3737 00ea 9742     		cmp	r7, r2
 3738              	.LBB1350:
 3739              	.LBB1336:
 3740              	.LBB1330:
 3741              	.LBB1326:
 3742              	.LBB1325:
 246:../../libdaisy/src/dev/oled_ssd130x.h ****     }
 3743              		.loc 15 246 42 view .LVU829
 3744 00ec 95F814C0 		ldrb	ip, [r5, #20]	@ zero_extendqisi2
 3745 00f0 2CEA0A0C 		bic	ip, ip, r10
 246:../../libdaisy/src/dev/oled_ssd130x.h ****     }
 3746              		.loc 15 246 13 view .LVU830
 3747 00f4 85F814C0 		strb	ip, [r5, #20]
 3748              	.LVL269:
 246:../../libdaisy/src/dev/oled_ssd130x.h ****     }
 3749              		.loc 15 246 13 view .LVU831
 3750              	.LBE1325:
 3751              	.LBE1326:
 3752              	.LBE1330:
 3753              	.LBE1336:
 3754              	.LBE1350:
 239:../../libdaisy/src/hid/disp/display.h ****         {
 3755              		.loc 6 239 26 is_stmt 1 view .LVU832
 3756 00f8 B9D0     		beq	.L245
 3757 00fa BAE7     		b	.L226
 3758              		.cfi_endproc
 3759              	.LFE4822:
 3761              		.section	.text._ZN5daisy25OneBitGraphicsDisplayImplINS_11OledDisplayINS_13SSD130xDriverILj128ELj64
ARM GAS  /tmp/ccpr9r5K.s 			page 110


 3762              		.align	1
 3763              		.p2align 2,,3
 3764              		.weak	_ZN5daisy25OneBitGraphicsDisplayImplINS_11OledDisplayINS_13SSD130xDriverILj128ELj64ENS_24SSD
 3765              		.syntax unified
 3766              		.thumb
 3767              		.thumb_func
 3768              		.fpu fpv5-d16
 3770              	_ZN5daisy25OneBitGraphicsDisplayImplINS_11OledDisplayINS_13SSD130xDriverILj128ELj64ENS_24SSD130x4Wi
 3771              	.LVL270:
 3772              	.LFB4824:
 283:../../libdaisy/src/hid/disp/display.h ****                  uint_fast8_t y,
 3773              		.loc 6 283 10 view -0
 3774              		.cfi_startproc
 3775              		@ args = 12, pretend = 0, frame = 16
 3776              		@ frame_needed = 0, uses_anonymous_args = 0
 283:../../libdaisy/src/hid/disp/display.h ****                  uint_fast8_t y,
 3777              		.loc 6 283 10 is_stmt 0 view .LVU834
 3778 0000 2DE9F04F 		push	{r4, r5, r6, r7, r8, r9, r10, fp, lr}
 3779              		.cfi_def_cfa_offset 36
 3780              		.cfi_offset 4, -36
 3781              		.cfi_offset 5, -32
 3782              		.cfi_offset 6, -28
 3783              		.cfi_offset 7, -24
 3784              		.cfi_offset 8, -20
 3785              		.cfi_offset 9, -16
 3786              		.cfi_offset 10, -12
 3787              		.cfi_offset 11, -8
 3788              		.cfi_offset 14, -4
 3789 0004 2DED068B 		vpush.64	{d8, d9, d10}
 3790              		.cfi_def_cfa_offset 60
 3791              		.cfi_offset 80, -60
 3792              		.cfi_offset 81, -56
 3793              		.cfi_offset 82, -52
 3794              		.cfi_offset 83, -48
 3795              		.cfi_offset 84, -44
 3796              		.cfi_offset 85, -40
 3797 0008 85B0     		sub	sp, sp, #20
 3798              		.cfi_def_cfa_offset 80
 283:../../libdaisy/src/hid/disp/display.h ****                  uint_fast8_t y,
 3799              		.loc 6 283 10 view .LVU835
 3800 000a 1C46     		mov	r4, r3
 3801 000c 0F46     		mov	r7, r1
 3802 000e 9046     		mov	r8, r2
 3803 0010 9DF85830 		ldrb	r3, [sp, #88]	@ zero_extendqisi2
 3804              	.LVL271:
 283:../../libdaisy/src/hid/disp/display.h ****                  uint_fast8_t y,
 3805              		.loc 6 283 10 view .LVU836
 3806 0014 0390     		str	r0, [sp, #12]
 3807 0016 0293     		str	r3, [sp, #8]
 306:../../libdaisy/src/hid/disp/display.h ****         {
 3808              		.loc 6 306 9 view .LVU837
 3809 0018 159B     		ldr	r3, [sp, #84]
 3810 001a 002B     		cmp	r3, #0
 3811 001c C0F2F281 		blt	.L247
 3812 0020 149A     		ldr	r2, [sp, #80]
 3813              	.LVL272:
 306:../../libdaisy/src/hid/disp/display.h ****         {
ARM GAS  /tmp/ccpr9r5K.s 			page 111


 3814              		.loc 6 306 9 view .LVU838
 3815 0022 1344     		add	r3, r3, r2
 3816 0024 06EE103A 		vmov	s12, r3	@ int
 3817              	.LVL273:
 3818              	.L248:
 312:../../libdaisy/src/hid/disp/display.h ****         end_angle_rad   = deg2rad(start_angle + sweep);
 3819              		.loc 6 312 27 view .LVU839
 3820 0028 DDED147A 		vldr.32	s15, [sp, #80]	@ int
 313:../../libdaisy/src/hid/disp/display.h **** 
 3821              		.loc 6 313 27 view .LVU840
 3822 002c B8EEC66B 		vcvt.f64.s32	d6, s12
 312:../../libdaisy/src/hid/disp/display.h ****         end_angle_rad   = deg2rad(start_angle + sweep);
 3823              		.loc 6 312 27 view .LVU841
 3824 0030 9FEDD54B 		vldr.64	d4, .L321
 3825 0034 B8EEE77B 		vcvt.f64.s32	d7, s15
 3826 0038 9FEDD55B 		vldr.64	d5, .L321+8
 3827 003c 27EE047B 		vmul.f64	d7, d7, d4
 313:../../libdaisy/src/hid/disp/display.h **** 
 3828              		.loc 6 313 27 view .LVU842
 3829 0040 26EE046B 		vmul.f64	d6, d6, d4
 312:../../libdaisy/src/hid/disp/display.h ****         end_angle_rad   = deg2rad(start_angle + sweep);
 3830              		.loc 6 312 27 view .LVU843
 3831 0044 87EE050B 		vdiv.f64	d0, d7, d5
 313:../../libdaisy/src/hid/disp/display.h **** 
 3832              		.loc 6 313 27 view .LVU844
 3833 0048 86EE05AB 		vdiv.f64	d10, d6, d5
 312:../../libdaisy/src/hid/disp/display.h ****         end_angle_rad   = deg2rad(start_angle + sweep);
 3834              		.loc 6 312 9 view .LVU845
 3835 004c F7EEC08B 		vcvt.f32.f64	s17, d0
 3836              	.LVL274:
 3837              	.LBB1383:
 3838              	.LBB1384:
 3839              		.file 19 "/usr/include/newlib/c++/9.2.1/cmath"
   1:/usr/include/newlib/c++/9.2.1/cmath **** // -*- C++ -*- C forwarding header.
   2:/usr/include/newlib/c++/9.2.1/cmath **** 
   3:/usr/include/newlib/c++/9.2.1/cmath **** // Copyright (C) 1997-2019 Free Software Foundation, Inc.
   4:/usr/include/newlib/c++/9.2.1/cmath **** //
   5:/usr/include/newlib/c++/9.2.1/cmath **** // This file is part of the GNU ISO C++ Library.  This library is free
   6:/usr/include/newlib/c++/9.2.1/cmath **** // software; you can redistribute it and/or modify it under the
   7:/usr/include/newlib/c++/9.2.1/cmath **** // terms of the GNU General Public License as published by the
   8:/usr/include/newlib/c++/9.2.1/cmath **** // Free Software Foundation; either version 3, or (at your option)
   9:/usr/include/newlib/c++/9.2.1/cmath **** // any later version.
  10:/usr/include/newlib/c++/9.2.1/cmath **** 
  11:/usr/include/newlib/c++/9.2.1/cmath **** // This library is distributed in the hope that it will be useful,
  12:/usr/include/newlib/c++/9.2.1/cmath **** // but WITHOUT ANY WARRANTY; without even the implied warranty of
  13:/usr/include/newlib/c++/9.2.1/cmath **** // MERCHANTABILITY or FITNESS FOR A PARTICULAR PURPOSE.  See the
  14:/usr/include/newlib/c++/9.2.1/cmath **** // GNU General Public License for more details.
  15:/usr/include/newlib/c++/9.2.1/cmath **** 
  16:/usr/include/newlib/c++/9.2.1/cmath **** // Under Section 7 of GPL version 3, you are granted additional
  17:/usr/include/newlib/c++/9.2.1/cmath **** // permissions described in the GCC Runtime Library Exception, version
  18:/usr/include/newlib/c++/9.2.1/cmath **** // 3.1, as published by the Free Software Foundation.
  19:/usr/include/newlib/c++/9.2.1/cmath **** 
  20:/usr/include/newlib/c++/9.2.1/cmath **** // You should have received a copy of the GNU General Public License and
  21:/usr/include/newlib/c++/9.2.1/cmath **** // a copy of the GCC Runtime Library Exception along with this program;
  22:/usr/include/newlib/c++/9.2.1/cmath **** // see the files COPYING3 and COPYING.RUNTIME respectively.  If not, see
  23:/usr/include/newlib/c++/9.2.1/cmath **** // <http://www.gnu.org/licenses/>.
  24:/usr/include/newlib/c++/9.2.1/cmath **** 
ARM GAS  /tmp/ccpr9r5K.s 			page 112


  25:/usr/include/newlib/c++/9.2.1/cmath **** /** @file include/cmath
  26:/usr/include/newlib/c++/9.2.1/cmath ****  *  This is a Standard C++ Library file.  You should @c \#include this file
  27:/usr/include/newlib/c++/9.2.1/cmath ****  *  in your programs, rather than any of the @a *.h implementation files.
  28:/usr/include/newlib/c++/9.2.1/cmath ****  *
  29:/usr/include/newlib/c++/9.2.1/cmath ****  *  This is the C++ version of the Standard C Library header @c math.h,
  30:/usr/include/newlib/c++/9.2.1/cmath ****  *  and its contents are (mostly) the same as that header, but are all
  31:/usr/include/newlib/c++/9.2.1/cmath ****  *  contained in the namespace @c std (except for names which are defined
  32:/usr/include/newlib/c++/9.2.1/cmath ****  *  as macros in C).
  33:/usr/include/newlib/c++/9.2.1/cmath ****  */
  34:/usr/include/newlib/c++/9.2.1/cmath **** 
  35:/usr/include/newlib/c++/9.2.1/cmath **** //
  36:/usr/include/newlib/c++/9.2.1/cmath **** // ISO C++ 14882: 26.5  C library
  37:/usr/include/newlib/c++/9.2.1/cmath **** //
  38:/usr/include/newlib/c++/9.2.1/cmath **** 
  39:/usr/include/newlib/c++/9.2.1/cmath **** #pragma GCC system_header
  40:/usr/include/newlib/c++/9.2.1/cmath **** 
  41:/usr/include/newlib/c++/9.2.1/cmath **** #include <bits/c++config.h>
  42:/usr/include/newlib/c++/9.2.1/cmath **** #include <bits/cpp_type_traits.h>
  43:/usr/include/newlib/c++/9.2.1/cmath **** #include <ext/type_traits.h>
  44:/usr/include/newlib/c++/9.2.1/cmath **** #define _GLIBCXX_INCLUDE_NEXT_C_HEADERS
  45:/usr/include/newlib/c++/9.2.1/cmath **** #include_next <math.h>
  46:/usr/include/newlib/c++/9.2.1/cmath **** #undef _GLIBCXX_INCLUDE_NEXT_C_HEADERS
  47:/usr/include/newlib/c++/9.2.1/cmath **** #include <bits/std_abs.h>
  48:/usr/include/newlib/c++/9.2.1/cmath **** 
  49:/usr/include/newlib/c++/9.2.1/cmath **** #ifndef _GLIBCXX_CMATH
  50:/usr/include/newlib/c++/9.2.1/cmath **** #define _GLIBCXX_CMATH 1
  51:/usr/include/newlib/c++/9.2.1/cmath **** 
  52:/usr/include/newlib/c++/9.2.1/cmath **** // Get rid of those macros defined in <math.h> in lieu of real functions.
  53:/usr/include/newlib/c++/9.2.1/cmath **** #undef div
  54:/usr/include/newlib/c++/9.2.1/cmath **** #undef acos
  55:/usr/include/newlib/c++/9.2.1/cmath **** #undef asin
  56:/usr/include/newlib/c++/9.2.1/cmath **** #undef atan
  57:/usr/include/newlib/c++/9.2.1/cmath **** #undef atan2
  58:/usr/include/newlib/c++/9.2.1/cmath **** #undef ceil
  59:/usr/include/newlib/c++/9.2.1/cmath **** #undef cos
  60:/usr/include/newlib/c++/9.2.1/cmath **** #undef cosh
  61:/usr/include/newlib/c++/9.2.1/cmath **** #undef exp
  62:/usr/include/newlib/c++/9.2.1/cmath **** #undef fabs
  63:/usr/include/newlib/c++/9.2.1/cmath **** #undef floor
  64:/usr/include/newlib/c++/9.2.1/cmath **** #undef fmod
  65:/usr/include/newlib/c++/9.2.1/cmath **** #undef frexp
  66:/usr/include/newlib/c++/9.2.1/cmath **** #undef ldexp
  67:/usr/include/newlib/c++/9.2.1/cmath **** #undef log
  68:/usr/include/newlib/c++/9.2.1/cmath **** #undef log10
  69:/usr/include/newlib/c++/9.2.1/cmath **** #undef modf
  70:/usr/include/newlib/c++/9.2.1/cmath **** #undef pow
  71:/usr/include/newlib/c++/9.2.1/cmath **** #undef sin
  72:/usr/include/newlib/c++/9.2.1/cmath **** #undef sinh
  73:/usr/include/newlib/c++/9.2.1/cmath **** #undef sqrt
  74:/usr/include/newlib/c++/9.2.1/cmath **** #undef tan
  75:/usr/include/newlib/c++/9.2.1/cmath **** #undef tanh
  76:/usr/include/newlib/c++/9.2.1/cmath **** 
  77:/usr/include/newlib/c++/9.2.1/cmath **** extern "C++"
  78:/usr/include/newlib/c++/9.2.1/cmath **** {
  79:/usr/include/newlib/c++/9.2.1/cmath **** namespace std _GLIBCXX_VISIBILITY(default)
  80:/usr/include/newlib/c++/9.2.1/cmath **** {
  81:/usr/include/newlib/c++/9.2.1/cmath **** _GLIBCXX_BEGIN_NAMESPACE_VERSION
ARM GAS  /tmp/ccpr9r5K.s 			page 113


  82:/usr/include/newlib/c++/9.2.1/cmath **** 
  83:/usr/include/newlib/c++/9.2.1/cmath ****   using ::acos;
  84:/usr/include/newlib/c++/9.2.1/cmath **** 
  85:/usr/include/newlib/c++/9.2.1/cmath **** #ifndef __CORRECT_ISO_CPP_MATH_H_PROTO
  86:/usr/include/newlib/c++/9.2.1/cmath ****   inline _GLIBCXX_CONSTEXPR float
  87:/usr/include/newlib/c++/9.2.1/cmath ****   acos(float __x)
  88:/usr/include/newlib/c++/9.2.1/cmath ****   { return __builtin_acosf(__x); }
  89:/usr/include/newlib/c++/9.2.1/cmath **** 
  90:/usr/include/newlib/c++/9.2.1/cmath ****   inline _GLIBCXX_CONSTEXPR long double
  91:/usr/include/newlib/c++/9.2.1/cmath ****   acos(long double __x)
  92:/usr/include/newlib/c++/9.2.1/cmath ****   { return __builtin_acosl(__x); }
  93:/usr/include/newlib/c++/9.2.1/cmath **** #endif
  94:/usr/include/newlib/c++/9.2.1/cmath **** 
  95:/usr/include/newlib/c++/9.2.1/cmath ****   template<typename _Tp>
  96:/usr/include/newlib/c++/9.2.1/cmath ****     inline _GLIBCXX_CONSTEXPR
  97:/usr/include/newlib/c++/9.2.1/cmath ****     typename __gnu_cxx::__enable_if<__is_integer<_Tp>::__value, 
  98:/usr/include/newlib/c++/9.2.1/cmath ****                                     double>::__type
  99:/usr/include/newlib/c++/9.2.1/cmath ****     acos(_Tp __x)
 100:/usr/include/newlib/c++/9.2.1/cmath ****     { return __builtin_acos(__x); }
 101:/usr/include/newlib/c++/9.2.1/cmath **** 
 102:/usr/include/newlib/c++/9.2.1/cmath ****   using ::asin;
 103:/usr/include/newlib/c++/9.2.1/cmath **** 
 104:/usr/include/newlib/c++/9.2.1/cmath **** #ifndef __CORRECT_ISO_CPP_MATH_H_PROTO
 105:/usr/include/newlib/c++/9.2.1/cmath ****   inline _GLIBCXX_CONSTEXPR float
 106:/usr/include/newlib/c++/9.2.1/cmath ****   asin(float __x)
 107:/usr/include/newlib/c++/9.2.1/cmath ****   { return __builtin_asinf(__x); }
 108:/usr/include/newlib/c++/9.2.1/cmath **** 
 109:/usr/include/newlib/c++/9.2.1/cmath ****   inline _GLIBCXX_CONSTEXPR long double
 110:/usr/include/newlib/c++/9.2.1/cmath ****   asin(long double __x)
 111:/usr/include/newlib/c++/9.2.1/cmath ****   { return __builtin_asinl(__x); }
 112:/usr/include/newlib/c++/9.2.1/cmath **** #endif
 113:/usr/include/newlib/c++/9.2.1/cmath **** 
 114:/usr/include/newlib/c++/9.2.1/cmath ****   template<typename _Tp>
 115:/usr/include/newlib/c++/9.2.1/cmath ****     inline _GLIBCXX_CONSTEXPR
 116:/usr/include/newlib/c++/9.2.1/cmath ****     typename __gnu_cxx::__enable_if<__is_integer<_Tp>::__value,
 117:/usr/include/newlib/c++/9.2.1/cmath ****                                     double>::__type
 118:/usr/include/newlib/c++/9.2.1/cmath ****     asin(_Tp __x)
 119:/usr/include/newlib/c++/9.2.1/cmath ****     { return __builtin_asin(__x); }
 120:/usr/include/newlib/c++/9.2.1/cmath **** 
 121:/usr/include/newlib/c++/9.2.1/cmath ****   using ::atan;
 122:/usr/include/newlib/c++/9.2.1/cmath **** 
 123:/usr/include/newlib/c++/9.2.1/cmath **** #ifndef __CORRECT_ISO_CPP_MATH_H_PROTO
 124:/usr/include/newlib/c++/9.2.1/cmath ****   inline _GLIBCXX_CONSTEXPR float
 125:/usr/include/newlib/c++/9.2.1/cmath ****   atan(float __x)
 126:/usr/include/newlib/c++/9.2.1/cmath ****   { return __builtin_atanf(__x); }
 127:/usr/include/newlib/c++/9.2.1/cmath **** 
 128:/usr/include/newlib/c++/9.2.1/cmath ****   inline _GLIBCXX_CONSTEXPR long double
 129:/usr/include/newlib/c++/9.2.1/cmath ****   atan(long double __x)
 130:/usr/include/newlib/c++/9.2.1/cmath ****   { return __builtin_atanl(__x); }
 131:/usr/include/newlib/c++/9.2.1/cmath **** #endif
 132:/usr/include/newlib/c++/9.2.1/cmath **** 
 133:/usr/include/newlib/c++/9.2.1/cmath ****   template<typename _Tp>
 134:/usr/include/newlib/c++/9.2.1/cmath ****     inline _GLIBCXX_CONSTEXPR
 135:/usr/include/newlib/c++/9.2.1/cmath ****     typename __gnu_cxx::__enable_if<__is_integer<_Tp>::__value,
 136:/usr/include/newlib/c++/9.2.1/cmath ****                                     double>::__type
 137:/usr/include/newlib/c++/9.2.1/cmath ****     atan(_Tp __x)
 138:/usr/include/newlib/c++/9.2.1/cmath ****     { return __builtin_atan(__x); }
ARM GAS  /tmp/ccpr9r5K.s 			page 114


 139:/usr/include/newlib/c++/9.2.1/cmath **** 
 140:/usr/include/newlib/c++/9.2.1/cmath ****   using ::atan2;
 141:/usr/include/newlib/c++/9.2.1/cmath **** 
 142:/usr/include/newlib/c++/9.2.1/cmath **** #ifndef __CORRECT_ISO_CPP_MATH_H_PROTO
 143:/usr/include/newlib/c++/9.2.1/cmath ****   inline _GLIBCXX_CONSTEXPR float
 144:/usr/include/newlib/c++/9.2.1/cmath ****   atan2(float __y, float __x)
 145:/usr/include/newlib/c++/9.2.1/cmath ****   { return __builtin_atan2f(__y, __x); }
 146:/usr/include/newlib/c++/9.2.1/cmath **** 
 147:/usr/include/newlib/c++/9.2.1/cmath ****   inline _GLIBCXX_CONSTEXPR long double
 148:/usr/include/newlib/c++/9.2.1/cmath ****   atan2(long double __y, long double __x)
 149:/usr/include/newlib/c++/9.2.1/cmath ****   { return __builtin_atan2l(__y, __x); }
 150:/usr/include/newlib/c++/9.2.1/cmath **** #endif
 151:/usr/include/newlib/c++/9.2.1/cmath **** 
 152:/usr/include/newlib/c++/9.2.1/cmath ****   template<typename _Tp, typename _Up>
 153:/usr/include/newlib/c++/9.2.1/cmath ****     inline _GLIBCXX_CONSTEXPR
 154:/usr/include/newlib/c++/9.2.1/cmath ****     typename __gnu_cxx::__promote_2<_Tp, _Up>::__type
 155:/usr/include/newlib/c++/9.2.1/cmath ****     atan2(_Tp __y, _Up __x)
 156:/usr/include/newlib/c++/9.2.1/cmath ****     {
 157:/usr/include/newlib/c++/9.2.1/cmath ****       typedef typename __gnu_cxx::__promote_2<_Tp, _Up>::__type __type;
 158:/usr/include/newlib/c++/9.2.1/cmath ****       return atan2(__type(__y), __type(__x));
 159:/usr/include/newlib/c++/9.2.1/cmath ****     }
 160:/usr/include/newlib/c++/9.2.1/cmath **** 
 161:/usr/include/newlib/c++/9.2.1/cmath ****   using ::ceil;
 162:/usr/include/newlib/c++/9.2.1/cmath **** 
 163:/usr/include/newlib/c++/9.2.1/cmath **** #ifndef __CORRECT_ISO_CPP_MATH_H_PROTO
 164:/usr/include/newlib/c++/9.2.1/cmath ****   inline _GLIBCXX_CONSTEXPR float
 165:/usr/include/newlib/c++/9.2.1/cmath ****   ceil(float __x)
 166:/usr/include/newlib/c++/9.2.1/cmath ****   { return __builtin_ceilf(__x); }
 167:/usr/include/newlib/c++/9.2.1/cmath **** 
 168:/usr/include/newlib/c++/9.2.1/cmath ****   inline _GLIBCXX_CONSTEXPR long double
 169:/usr/include/newlib/c++/9.2.1/cmath ****   ceil(long double __x)
 170:/usr/include/newlib/c++/9.2.1/cmath ****   { return __builtin_ceill(__x); }
 171:/usr/include/newlib/c++/9.2.1/cmath **** #endif
 172:/usr/include/newlib/c++/9.2.1/cmath **** 
 173:/usr/include/newlib/c++/9.2.1/cmath ****   template<typename _Tp>
 174:/usr/include/newlib/c++/9.2.1/cmath ****     inline _GLIBCXX_CONSTEXPR
 175:/usr/include/newlib/c++/9.2.1/cmath ****     typename __gnu_cxx::__enable_if<__is_integer<_Tp>::__value, 
 176:/usr/include/newlib/c++/9.2.1/cmath ****                                     double>::__type
 177:/usr/include/newlib/c++/9.2.1/cmath ****     ceil(_Tp __x)
 178:/usr/include/newlib/c++/9.2.1/cmath ****     { return __builtin_ceil(__x); }
 179:/usr/include/newlib/c++/9.2.1/cmath **** 
 180:/usr/include/newlib/c++/9.2.1/cmath ****   using ::cos;
 181:/usr/include/newlib/c++/9.2.1/cmath **** 
 182:/usr/include/newlib/c++/9.2.1/cmath **** #ifndef __CORRECT_ISO_CPP_MATH_H_PROTO
 183:/usr/include/newlib/c++/9.2.1/cmath ****   inline _GLIBCXX_CONSTEXPR float
 184:/usr/include/newlib/c++/9.2.1/cmath ****   cos(float __x)
 185:/usr/include/newlib/c++/9.2.1/cmath ****   { return __builtin_cosf(__x); }
 3840              		.loc 19 185 26 view .LVU846
 3841 0050 B0EE680A 		vmov.f32	s0, s17
 3842 0054 FFF7FEFF 		bl	cosf
 3843              	.LVL275:
 3844              		.loc 19 185 26 view .LVU847
 3845              	.LBE1384:
 3846              	.LBE1383:
 313:../../libdaisy/src/hid/disp/display.h **** 
 3847              		.loc 6 313 9 view .LVU848
 3848 0058 B7EECAAB 		vcvt.f32.f64	s20, d10
ARM GAS  /tmp/ccpr9r5K.s 			page 115


 3849              	.LVL276:
 3850              	.LBB1387:
 3851              	.LBI1383:
 184:/usr/include/newlib/c++/9.2.1/cmath ****   { return __builtin_cosf(__x); }
 3852              		.loc 19 184 3 is_stmt 1 view .LVU849
 3853              	.LBB1385:
 3854              		.loc 19 185 5 view .LVU850
 3855              		.loc 19 185 5 is_stmt 0 view .LVU851
 3856              	.LBE1385:
 3857              	.LBE1387:
 315:../../libdaisy/src/hid/disp/display.h ****         start_y = -sin(start_angle_rad) * radius;
 3858              		.loc 6 315 9 view .LVU852
 3859 005c 07EE904A 		vmov	s15, r4	@ int
 3860              	.LBB1388:
 3861              	.LBB1386:
 3862              		.loc 19 185 26 view .LVU853
 3863 0060 B0EE408A 		vmov.f32	s16, s0
 3864              	.LBE1386:
 3865              	.LBE1388:
 3866              	.LBB1389:
 3867              	.LBB1390:
 186:/usr/include/newlib/c++/9.2.1/cmath **** 
 187:/usr/include/newlib/c++/9.2.1/cmath ****   inline _GLIBCXX_CONSTEXPR long double
 188:/usr/include/newlib/c++/9.2.1/cmath ****   cos(long double __x)
 189:/usr/include/newlib/c++/9.2.1/cmath ****   { return __builtin_cosl(__x); }
 190:/usr/include/newlib/c++/9.2.1/cmath **** #endif
 191:/usr/include/newlib/c++/9.2.1/cmath **** 
 192:/usr/include/newlib/c++/9.2.1/cmath ****   template<typename _Tp>
 193:/usr/include/newlib/c++/9.2.1/cmath ****     inline _GLIBCXX_CONSTEXPR
 194:/usr/include/newlib/c++/9.2.1/cmath ****     typename __gnu_cxx::__enable_if<__is_integer<_Tp>::__value,
 195:/usr/include/newlib/c++/9.2.1/cmath ****                                     double>::__type
 196:/usr/include/newlib/c++/9.2.1/cmath ****     cos(_Tp __x)
 197:/usr/include/newlib/c++/9.2.1/cmath ****     { return __builtin_cos(__x); }
 198:/usr/include/newlib/c++/9.2.1/cmath **** 
 199:/usr/include/newlib/c++/9.2.1/cmath ****   using ::cosh;
 200:/usr/include/newlib/c++/9.2.1/cmath **** 
 201:/usr/include/newlib/c++/9.2.1/cmath **** #ifndef __CORRECT_ISO_CPP_MATH_H_PROTO
 202:/usr/include/newlib/c++/9.2.1/cmath ****   inline _GLIBCXX_CONSTEXPR float
 203:/usr/include/newlib/c++/9.2.1/cmath ****   cosh(float __x)
 204:/usr/include/newlib/c++/9.2.1/cmath ****   { return __builtin_coshf(__x); }
 205:/usr/include/newlib/c++/9.2.1/cmath **** 
 206:/usr/include/newlib/c++/9.2.1/cmath ****   inline _GLIBCXX_CONSTEXPR long double
 207:/usr/include/newlib/c++/9.2.1/cmath ****   cosh(long double __x)
 208:/usr/include/newlib/c++/9.2.1/cmath ****   { return __builtin_coshl(__x); }
 209:/usr/include/newlib/c++/9.2.1/cmath **** #endif
 210:/usr/include/newlib/c++/9.2.1/cmath **** 
 211:/usr/include/newlib/c++/9.2.1/cmath ****   template<typename _Tp>
 212:/usr/include/newlib/c++/9.2.1/cmath ****     inline _GLIBCXX_CONSTEXPR
 213:/usr/include/newlib/c++/9.2.1/cmath ****     typename __gnu_cxx::__enable_if<__is_integer<_Tp>::__value,
 214:/usr/include/newlib/c++/9.2.1/cmath ****                                     double>::__type
 215:/usr/include/newlib/c++/9.2.1/cmath ****     cosh(_Tp __x)
 216:/usr/include/newlib/c++/9.2.1/cmath ****     { return __builtin_cosh(__x); }
 217:/usr/include/newlib/c++/9.2.1/cmath **** 
 218:/usr/include/newlib/c++/9.2.1/cmath ****   using ::exp;
 219:/usr/include/newlib/c++/9.2.1/cmath **** 
 220:/usr/include/newlib/c++/9.2.1/cmath **** #ifndef __CORRECT_ISO_CPP_MATH_H_PROTO
 221:/usr/include/newlib/c++/9.2.1/cmath ****   inline _GLIBCXX_CONSTEXPR float
ARM GAS  /tmp/ccpr9r5K.s 			page 116


 222:/usr/include/newlib/c++/9.2.1/cmath ****   exp(float __x)
 223:/usr/include/newlib/c++/9.2.1/cmath ****   { return __builtin_expf(__x); }
 224:/usr/include/newlib/c++/9.2.1/cmath **** 
 225:/usr/include/newlib/c++/9.2.1/cmath ****   inline _GLIBCXX_CONSTEXPR long double
 226:/usr/include/newlib/c++/9.2.1/cmath ****   exp(long double __x)
 227:/usr/include/newlib/c++/9.2.1/cmath ****   { return __builtin_expl(__x); }
 228:/usr/include/newlib/c++/9.2.1/cmath **** #endif
 229:/usr/include/newlib/c++/9.2.1/cmath **** 
 230:/usr/include/newlib/c++/9.2.1/cmath ****   template<typename _Tp>
 231:/usr/include/newlib/c++/9.2.1/cmath ****     inline _GLIBCXX_CONSTEXPR
 232:/usr/include/newlib/c++/9.2.1/cmath ****     typename __gnu_cxx::__enable_if<__is_integer<_Tp>::__value,
 233:/usr/include/newlib/c++/9.2.1/cmath ****                                     double>::__type
 234:/usr/include/newlib/c++/9.2.1/cmath ****     exp(_Tp __x)
 235:/usr/include/newlib/c++/9.2.1/cmath ****     { return __builtin_exp(__x); }
 236:/usr/include/newlib/c++/9.2.1/cmath **** 
 237:/usr/include/newlib/c++/9.2.1/cmath ****   using ::fabs;
 238:/usr/include/newlib/c++/9.2.1/cmath **** 
 239:/usr/include/newlib/c++/9.2.1/cmath **** #ifndef __CORRECT_ISO_CPP_MATH_H_PROTO
 240:/usr/include/newlib/c++/9.2.1/cmath ****   inline _GLIBCXX_CONSTEXPR float
 241:/usr/include/newlib/c++/9.2.1/cmath ****   fabs(float __x)
 242:/usr/include/newlib/c++/9.2.1/cmath ****   { return __builtin_fabsf(__x); }
 243:/usr/include/newlib/c++/9.2.1/cmath **** 
 244:/usr/include/newlib/c++/9.2.1/cmath ****   inline _GLIBCXX_CONSTEXPR long double
 245:/usr/include/newlib/c++/9.2.1/cmath ****   fabs(long double __x)
 246:/usr/include/newlib/c++/9.2.1/cmath ****   { return __builtin_fabsl(__x); }
 247:/usr/include/newlib/c++/9.2.1/cmath **** #endif
 248:/usr/include/newlib/c++/9.2.1/cmath **** 
 249:/usr/include/newlib/c++/9.2.1/cmath ****   template<typename _Tp>
 250:/usr/include/newlib/c++/9.2.1/cmath ****     inline _GLIBCXX_CONSTEXPR
 251:/usr/include/newlib/c++/9.2.1/cmath ****     typename __gnu_cxx::__enable_if<__is_integer<_Tp>::__value,
 252:/usr/include/newlib/c++/9.2.1/cmath ****                                     double>::__type
 253:/usr/include/newlib/c++/9.2.1/cmath ****     fabs(_Tp __x)
 254:/usr/include/newlib/c++/9.2.1/cmath ****     { return __builtin_fabs(__x); }
 255:/usr/include/newlib/c++/9.2.1/cmath **** 
 256:/usr/include/newlib/c++/9.2.1/cmath ****   using ::floor;
 257:/usr/include/newlib/c++/9.2.1/cmath **** 
 258:/usr/include/newlib/c++/9.2.1/cmath **** #ifndef __CORRECT_ISO_CPP_MATH_H_PROTO
 259:/usr/include/newlib/c++/9.2.1/cmath ****   inline _GLIBCXX_CONSTEXPR float
 260:/usr/include/newlib/c++/9.2.1/cmath ****   floor(float __x)
 261:/usr/include/newlib/c++/9.2.1/cmath ****   { return __builtin_floorf(__x); }
 262:/usr/include/newlib/c++/9.2.1/cmath **** 
 263:/usr/include/newlib/c++/9.2.1/cmath ****   inline _GLIBCXX_CONSTEXPR long double
 264:/usr/include/newlib/c++/9.2.1/cmath ****   floor(long double __x)
 265:/usr/include/newlib/c++/9.2.1/cmath ****   { return __builtin_floorl(__x); }
 266:/usr/include/newlib/c++/9.2.1/cmath **** #endif
 267:/usr/include/newlib/c++/9.2.1/cmath **** 
 268:/usr/include/newlib/c++/9.2.1/cmath ****   template<typename _Tp>
 269:/usr/include/newlib/c++/9.2.1/cmath ****     inline _GLIBCXX_CONSTEXPR
 270:/usr/include/newlib/c++/9.2.1/cmath ****     typename __gnu_cxx::__enable_if<__is_integer<_Tp>::__value,
 271:/usr/include/newlib/c++/9.2.1/cmath ****                                     double>::__type
 272:/usr/include/newlib/c++/9.2.1/cmath ****     floor(_Tp __x)
 273:/usr/include/newlib/c++/9.2.1/cmath ****     { return __builtin_floor(__x); }
 274:/usr/include/newlib/c++/9.2.1/cmath **** 
 275:/usr/include/newlib/c++/9.2.1/cmath ****   using ::fmod;
 276:/usr/include/newlib/c++/9.2.1/cmath **** 
 277:/usr/include/newlib/c++/9.2.1/cmath **** #ifndef __CORRECT_ISO_CPP_MATH_H_PROTO
 278:/usr/include/newlib/c++/9.2.1/cmath ****   inline _GLIBCXX_CONSTEXPR float
ARM GAS  /tmp/ccpr9r5K.s 			page 117


 279:/usr/include/newlib/c++/9.2.1/cmath ****   fmod(float __x, float __y)
 280:/usr/include/newlib/c++/9.2.1/cmath ****   { return __builtin_fmodf(__x, __y); }
 281:/usr/include/newlib/c++/9.2.1/cmath **** 
 282:/usr/include/newlib/c++/9.2.1/cmath ****   inline _GLIBCXX_CONSTEXPR long double
 283:/usr/include/newlib/c++/9.2.1/cmath ****   fmod(long double __x, long double __y)
 284:/usr/include/newlib/c++/9.2.1/cmath ****   { return __builtin_fmodl(__x, __y); }
 285:/usr/include/newlib/c++/9.2.1/cmath **** #endif
 286:/usr/include/newlib/c++/9.2.1/cmath **** 
 287:/usr/include/newlib/c++/9.2.1/cmath ****   template<typename _Tp, typename _Up>
 288:/usr/include/newlib/c++/9.2.1/cmath ****     inline _GLIBCXX_CONSTEXPR
 289:/usr/include/newlib/c++/9.2.1/cmath ****     typename __gnu_cxx::__promote_2<_Tp, _Up>::__type
 290:/usr/include/newlib/c++/9.2.1/cmath ****     fmod(_Tp __x, _Up __y)
 291:/usr/include/newlib/c++/9.2.1/cmath ****     {
 292:/usr/include/newlib/c++/9.2.1/cmath ****       typedef typename __gnu_cxx::__promote_2<_Tp, _Up>::__type __type;
 293:/usr/include/newlib/c++/9.2.1/cmath ****       return fmod(__type(__x), __type(__y));
 294:/usr/include/newlib/c++/9.2.1/cmath ****     }
 295:/usr/include/newlib/c++/9.2.1/cmath **** 
 296:/usr/include/newlib/c++/9.2.1/cmath ****   using ::frexp;
 297:/usr/include/newlib/c++/9.2.1/cmath **** 
 298:/usr/include/newlib/c++/9.2.1/cmath **** #ifndef __CORRECT_ISO_CPP_MATH_H_PROTO
 299:/usr/include/newlib/c++/9.2.1/cmath ****   inline float
 300:/usr/include/newlib/c++/9.2.1/cmath ****   frexp(float __x, int* __exp)
 301:/usr/include/newlib/c++/9.2.1/cmath ****   { return __builtin_frexpf(__x, __exp); }
 302:/usr/include/newlib/c++/9.2.1/cmath **** 
 303:/usr/include/newlib/c++/9.2.1/cmath ****   inline long double
 304:/usr/include/newlib/c++/9.2.1/cmath ****   frexp(long double __x, int* __exp)
 305:/usr/include/newlib/c++/9.2.1/cmath ****   { return __builtin_frexpl(__x, __exp); }
 306:/usr/include/newlib/c++/9.2.1/cmath **** #endif
 307:/usr/include/newlib/c++/9.2.1/cmath **** 
 308:/usr/include/newlib/c++/9.2.1/cmath ****   template<typename _Tp>
 309:/usr/include/newlib/c++/9.2.1/cmath ****     inline _GLIBCXX_CONSTEXPR
 310:/usr/include/newlib/c++/9.2.1/cmath ****     typename __gnu_cxx::__enable_if<__is_integer<_Tp>::__value, 
 311:/usr/include/newlib/c++/9.2.1/cmath ****                                     double>::__type
 312:/usr/include/newlib/c++/9.2.1/cmath ****     frexp(_Tp __x, int* __exp)
 313:/usr/include/newlib/c++/9.2.1/cmath ****     { return __builtin_frexp(__x, __exp); }
 314:/usr/include/newlib/c++/9.2.1/cmath **** 
 315:/usr/include/newlib/c++/9.2.1/cmath ****   using ::ldexp;
 316:/usr/include/newlib/c++/9.2.1/cmath **** 
 317:/usr/include/newlib/c++/9.2.1/cmath **** #ifndef __CORRECT_ISO_CPP_MATH_H_PROTO
 318:/usr/include/newlib/c++/9.2.1/cmath ****   inline _GLIBCXX_CONSTEXPR float
 319:/usr/include/newlib/c++/9.2.1/cmath ****   ldexp(float __x, int __exp)
 320:/usr/include/newlib/c++/9.2.1/cmath ****   { return __builtin_ldexpf(__x, __exp); }
 321:/usr/include/newlib/c++/9.2.1/cmath **** 
 322:/usr/include/newlib/c++/9.2.1/cmath ****   inline _GLIBCXX_CONSTEXPR long double
 323:/usr/include/newlib/c++/9.2.1/cmath ****   ldexp(long double __x, int __exp)
 324:/usr/include/newlib/c++/9.2.1/cmath ****   { return __builtin_ldexpl(__x, __exp); }
 325:/usr/include/newlib/c++/9.2.1/cmath **** #endif
 326:/usr/include/newlib/c++/9.2.1/cmath **** 
 327:/usr/include/newlib/c++/9.2.1/cmath ****   template<typename _Tp>
 328:/usr/include/newlib/c++/9.2.1/cmath ****     inline _GLIBCXX_CONSTEXPR
 329:/usr/include/newlib/c++/9.2.1/cmath ****     typename __gnu_cxx::__enable_if<__is_integer<_Tp>::__value, 
 330:/usr/include/newlib/c++/9.2.1/cmath ****                                     double>::__type
 331:/usr/include/newlib/c++/9.2.1/cmath ****     ldexp(_Tp __x, int __exp)
 332:/usr/include/newlib/c++/9.2.1/cmath ****     { return __builtin_ldexp(__x, __exp); }
 333:/usr/include/newlib/c++/9.2.1/cmath **** 
 334:/usr/include/newlib/c++/9.2.1/cmath ****   using ::log;
 335:/usr/include/newlib/c++/9.2.1/cmath **** 
ARM GAS  /tmp/ccpr9r5K.s 			page 118


 336:/usr/include/newlib/c++/9.2.1/cmath **** #ifndef __CORRECT_ISO_CPP_MATH_H_PROTO
 337:/usr/include/newlib/c++/9.2.1/cmath ****   inline _GLIBCXX_CONSTEXPR float
 338:/usr/include/newlib/c++/9.2.1/cmath ****   log(float __x)
 339:/usr/include/newlib/c++/9.2.1/cmath ****   { return __builtin_logf(__x); }
 340:/usr/include/newlib/c++/9.2.1/cmath **** 
 341:/usr/include/newlib/c++/9.2.1/cmath ****   inline _GLIBCXX_CONSTEXPR long double
 342:/usr/include/newlib/c++/9.2.1/cmath ****   log(long double __x)
 343:/usr/include/newlib/c++/9.2.1/cmath ****   { return __builtin_logl(__x); }
 344:/usr/include/newlib/c++/9.2.1/cmath **** #endif
 345:/usr/include/newlib/c++/9.2.1/cmath **** 
 346:/usr/include/newlib/c++/9.2.1/cmath ****   template<typename _Tp>
 347:/usr/include/newlib/c++/9.2.1/cmath ****     inline _GLIBCXX_CONSTEXPR
 348:/usr/include/newlib/c++/9.2.1/cmath ****     typename __gnu_cxx::__enable_if<__is_integer<_Tp>::__value, 
 349:/usr/include/newlib/c++/9.2.1/cmath ****                                     double>::__type
 350:/usr/include/newlib/c++/9.2.1/cmath ****     log(_Tp __x)
 351:/usr/include/newlib/c++/9.2.1/cmath ****     { return __builtin_log(__x); }
 352:/usr/include/newlib/c++/9.2.1/cmath **** 
 353:/usr/include/newlib/c++/9.2.1/cmath ****   using ::log10;
 354:/usr/include/newlib/c++/9.2.1/cmath **** 
 355:/usr/include/newlib/c++/9.2.1/cmath **** #ifndef __CORRECT_ISO_CPP_MATH_H_PROTO
 356:/usr/include/newlib/c++/9.2.1/cmath ****   inline _GLIBCXX_CONSTEXPR float
 357:/usr/include/newlib/c++/9.2.1/cmath ****   log10(float __x)
 358:/usr/include/newlib/c++/9.2.1/cmath ****   { return __builtin_log10f(__x); }
 359:/usr/include/newlib/c++/9.2.1/cmath **** 
 360:/usr/include/newlib/c++/9.2.1/cmath ****   inline _GLIBCXX_CONSTEXPR long double
 361:/usr/include/newlib/c++/9.2.1/cmath ****   log10(long double __x)
 362:/usr/include/newlib/c++/9.2.1/cmath ****   { return __builtin_log10l(__x); }
 363:/usr/include/newlib/c++/9.2.1/cmath **** #endif
 364:/usr/include/newlib/c++/9.2.1/cmath **** 
 365:/usr/include/newlib/c++/9.2.1/cmath ****   template<typename _Tp>
 366:/usr/include/newlib/c++/9.2.1/cmath ****     inline _GLIBCXX_CONSTEXPR
 367:/usr/include/newlib/c++/9.2.1/cmath ****     typename __gnu_cxx::__enable_if<__is_integer<_Tp>::__value,
 368:/usr/include/newlib/c++/9.2.1/cmath ****                                     double>::__type
 369:/usr/include/newlib/c++/9.2.1/cmath ****     log10(_Tp __x)
 370:/usr/include/newlib/c++/9.2.1/cmath ****     { return __builtin_log10(__x); }
 371:/usr/include/newlib/c++/9.2.1/cmath **** 
 372:/usr/include/newlib/c++/9.2.1/cmath ****   using ::modf;
 373:/usr/include/newlib/c++/9.2.1/cmath **** 
 374:/usr/include/newlib/c++/9.2.1/cmath **** #ifndef __CORRECT_ISO_CPP_MATH_H_PROTO
 375:/usr/include/newlib/c++/9.2.1/cmath ****   inline float
 376:/usr/include/newlib/c++/9.2.1/cmath ****   modf(float __x, float* __iptr)
 377:/usr/include/newlib/c++/9.2.1/cmath ****   { return __builtin_modff(__x, __iptr); }
 378:/usr/include/newlib/c++/9.2.1/cmath **** 
 379:/usr/include/newlib/c++/9.2.1/cmath ****   inline long double
 380:/usr/include/newlib/c++/9.2.1/cmath ****   modf(long double __x, long double* __iptr)
 381:/usr/include/newlib/c++/9.2.1/cmath ****   { return __builtin_modfl(__x, __iptr); }
 382:/usr/include/newlib/c++/9.2.1/cmath **** #endif
 383:/usr/include/newlib/c++/9.2.1/cmath **** 
 384:/usr/include/newlib/c++/9.2.1/cmath ****   using ::pow;
 385:/usr/include/newlib/c++/9.2.1/cmath **** 
 386:/usr/include/newlib/c++/9.2.1/cmath **** #ifndef __CORRECT_ISO_CPP_MATH_H_PROTO
 387:/usr/include/newlib/c++/9.2.1/cmath ****   inline _GLIBCXX_CONSTEXPR float
 388:/usr/include/newlib/c++/9.2.1/cmath ****   pow(float __x, float __y)
 389:/usr/include/newlib/c++/9.2.1/cmath ****   { return __builtin_powf(__x, __y); }
 390:/usr/include/newlib/c++/9.2.1/cmath **** 
 391:/usr/include/newlib/c++/9.2.1/cmath ****   inline _GLIBCXX_CONSTEXPR long double
 392:/usr/include/newlib/c++/9.2.1/cmath ****   pow(long double __x, long double __y)
ARM GAS  /tmp/ccpr9r5K.s 			page 119


 393:/usr/include/newlib/c++/9.2.1/cmath ****   { return __builtin_powl(__x, __y); }
 394:/usr/include/newlib/c++/9.2.1/cmath **** 
 395:/usr/include/newlib/c++/9.2.1/cmath **** #if __cplusplus < 201103L
 396:/usr/include/newlib/c++/9.2.1/cmath ****   // _GLIBCXX_RESOLVE_LIB_DEFECTS
 397:/usr/include/newlib/c++/9.2.1/cmath ****   // DR 550. What should the return type of pow(float,int) be?
 398:/usr/include/newlib/c++/9.2.1/cmath ****   inline double
 399:/usr/include/newlib/c++/9.2.1/cmath ****   pow(double __x, int __i)
 400:/usr/include/newlib/c++/9.2.1/cmath ****   { return __builtin_powi(__x, __i); }
 401:/usr/include/newlib/c++/9.2.1/cmath **** 
 402:/usr/include/newlib/c++/9.2.1/cmath ****   inline float
 403:/usr/include/newlib/c++/9.2.1/cmath ****   pow(float __x, int __n)
 404:/usr/include/newlib/c++/9.2.1/cmath ****   { return __builtin_powif(__x, __n); }
 405:/usr/include/newlib/c++/9.2.1/cmath **** 
 406:/usr/include/newlib/c++/9.2.1/cmath ****   inline long double
 407:/usr/include/newlib/c++/9.2.1/cmath ****   pow(long double __x, int __n)
 408:/usr/include/newlib/c++/9.2.1/cmath ****   { return __builtin_powil(__x, __n); }
 409:/usr/include/newlib/c++/9.2.1/cmath **** #endif
 410:/usr/include/newlib/c++/9.2.1/cmath **** #endif
 411:/usr/include/newlib/c++/9.2.1/cmath **** 
 412:/usr/include/newlib/c++/9.2.1/cmath ****   template<typename _Tp, typename _Up>
 413:/usr/include/newlib/c++/9.2.1/cmath ****     inline _GLIBCXX_CONSTEXPR
 414:/usr/include/newlib/c++/9.2.1/cmath ****     typename __gnu_cxx::__promote_2<_Tp, _Up>::__type
 415:/usr/include/newlib/c++/9.2.1/cmath ****     pow(_Tp __x, _Up __y)
 416:/usr/include/newlib/c++/9.2.1/cmath ****     {
 417:/usr/include/newlib/c++/9.2.1/cmath ****       typedef typename __gnu_cxx::__promote_2<_Tp, _Up>::__type __type;
 418:/usr/include/newlib/c++/9.2.1/cmath ****       return pow(__type(__x), __type(__y));
 419:/usr/include/newlib/c++/9.2.1/cmath ****     }
 420:/usr/include/newlib/c++/9.2.1/cmath **** 
 421:/usr/include/newlib/c++/9.2.1/cmath ****   using ::sin;
 422:/usr/include/newlib/c++/9.2.1/cmath **** 
 423:/usr/include/newlib/c++/9.2.1/cmath **** #ifndef __CORRECT_ISO_CPP_MATH_H_PROTO
 424:/usr/include/newlib/c++/9.2.1/cmath ****   inline _GLIBCXX_CONSTEXPR float
 425:/usr/include/newlib/c++/9.2.1/cmath ****   sin(float __x)
 426:/usr/include/newlib/c++/9.2.1/cmath ****   { return __builtin_sinf(__x); }
 3868              		.loc 19 426 26 view .LVU854
 3869 0064 B0EE680A 		vmov.f32	s0, s17
 3870              	.LBE1390:
 3871              	.LBE1389:
 315:../../libdaisy/src/hid/disp/display.h ****         start_y = -sin(start_angle_rad) * radius;
 3872              		.loc 6 315 9 view .LVU855
 3873 0068 F8EE679A 		vcvt.f32.u32	s19, s15
 3874              	.LBB1393:
 3875              	.LBB1391:
 3876              		.loc 19 426 26 view .LVU856
 3877 006c FFF7FEFF 		bl	sinf
 3878              	.LVL277:
 3879 0070 F0EE408A 		vmov.f32	s17, s0
 3880              	.LVL278:
 3881              		.loc 19 426 26 view .LVU857
 3882              	.LBE1391:
 3883              	.LBE1393:
 3884              	.LBB1394:
 3885              	.LBB1395:
 185:/usr/include/newlib/c++/9.2.1/cmath **** 
 3886              		.loc 19 185 26 view .LVU858
 3887 0074 B0EE4A0A 		vmov.f32	s0, s20
 3888 0078 FFF7FEFF 		bl	cosf
ARM GAS  /tmp/ccpr9r5K.s 			page 120


 3889              	.LVL279:
 3890 007c B0EE409A 		vmov.f32	s18, s0
 3891              	.LBE1395:
 3892              	.LBE1394:
 3893              	.LBB1397:
 3894              	.LBB1398:
 3895              		.loc 19 426 26 view .LVU859
 3896 0080 B0EE4A0A 		vmov.f32	s0, s20
 3897 0084 FFF7FEFF 		bl	sinf
 3898              	.LVL280:
 3899              	.LBE1398:
 3900              	.LBE1397:
 316:../../libdaisy/src/hid/disp/display.h ****         end_x   = cos(end_angle_rad) * radius;
 3901              		.loc 6 316 9 view .LVU860
 3902 0088 68EEE98A 		vnmul.f32	s17, s17, s19
 318:../../libdaisy/src/hid/disp/display.h **** 
 3903              		.loc 6 318 9 view .LVU861
 3904 008c 20EE690A 		vnmul.f32	s0, s0, s19
 315:../../libdaisy/src/hid/disp/display.h ****         start_y = -sin(start_angle_rad) * radius;
 3905              		.loc 6 315 9 view .LVU862
 3906 0090 29EE888A 		vmul.f32	s16, s19, s16
 3907              	.LVL281:
 3908              	.LBB1400:
 3909              	.LBI1389:
 425:/usr/include/newlib/c++/9.2.1/cmath ****   { return __builtin_sinf(__x); }
 3910              		.loc 19 425 3 is_stmt 1 view .LVU863
 3911              	.LBB1392:
 3912              		.loc 19 426 5 view .LVU864
 3913              		.loc 19 426 5 is_stmt 0 view .LVU865
 3914              	.LBE1392:
 3915              	.LBE1400:
 3916              	.LBB1401:
 3917              	.LBI1394:
 184:/usr/include/newlib/c++/9.2.1/cmath ****   { return __builtin_cosf(__x); }
 3918              		.loc 19 184 3 is_stmt 1 view .LVU866
 3919              	.LBB1396:
 185:/usr/include/newlib/c++/9.2.1/cmath **** 
 3920              		.loc 19 185 5 view .LVU867
 185:/usr/include/newlib/c++/9.2.1/cmath **** 
 3921              		.loc 19 185 5 is_stmt 0 view .LVU868
 3922              	.LBE1396:
 3923              	.LBE1401:
 317:../../libdaisy/src/hid/disp/display.h ****         end_y   = -sin(end_angle_rad) * radius;
 3924              		.loc 6 317 9 view .LVU869
 3925 0094 29EE899A 		vmul.f32	s18, s19, s18
 3926              	.LVL282:
 3927              	.LBB1402:
 3928              	.LBI1397:
 425:/usr/include/newlib/c++/9.2.1/cmath ****   { return __builtin_sinf(__x); }
 3929              		.loc 19 425 3 is_stmt 1 view .LVU870
 3930              	.LBB1399:
 3931              		.loc 19 426 5 view .LVU871
 3932              		.loc 19 426 5 is_stmt 0 view .LVU872
 3933              	.LBE1399:
 3934              	.LBE1402:
 322:../../libdaisy/src/hid/disp/display.h ****            < 2.0f)
 3935              		.loc 6 322 25 view .LVU873
ARM GAS  /tmp/ccpr9r5K.s 			page 121


 3936 0098 70EE687A 		vsub.f32	s15, s0, s17
 321:../../libdaisy/src/hid/disp/display.h ****                + (end_y - start_y) * (end_y - start_y)
 3937              		.loc 6 321 9 view .LVU874
 3938 009c F0EE006A 		vmov.f32	s13, #2.0e+0
 321:../../libdaisy/src/hid/disp/display.h ****                + (end_y - start_y) * (end_y - start_y)
 3939              		.loc 6 321 19 view .LVU875
 3940 00a0 39EE487A 		vsub.f32	s14, s18, s16
 322:../../libdaisy/src/hid/disp/display.h ****            < 2.0f)
 3941              		.loc 6 322 36 view .LVU876
 3942 00a4 67EEA77A 		vmul.f32	s15, s15, s15
 322:../../libdaisy/src/hid/disp/display.h ****            < 2.0f)
 3943              		.loc 6 322 16 view .LVU877
 3944 00a8 E7EE077A 		vfma.f32	s15, s14, s14
 321:../../libdaisy/src/hid/disp/display.h ****                + (end_y - start_y) * (end_y - start_y)
 3945              		.loc 6 321 9 view .LVU878
 3946 00ac F4EEE67A 		vcmpe.f32	s15, s13
 3947 00b0 F1EE10FA 		vmrs	APSR_nzcv, FPSCR
 3948 00b4 06D5     		bpl	.L305
 325:../../libdaisy/src/hid/disp/display.h ****                 circle = true;
 3949              		.loc 6 325 13 view .LVU879
 3950 00b6 159B     		ldr	r3, [sp, #84]
 3951 00b8 B42B     		cmp	r3, #180
 3952 00ba 40F3EE80 		ble	.L246
 326:../../libdaisy/src/hid/disp/display.h ****             else
 3953              		.loc 6 326 17 view .LVU880
 3954 00be 4FF0010E 		mov	lr, #1
 3955 00c2 01E0     		b	.L249
 3956              	.L305:
 304:../../libdaisy/src/hid/disp/display.h **** 
 3957              		.loc 6 304 14 view .LVU881
 3958 00c4 4FF0000E 		mov	lr, #0
 3959              	.L249:
 3960              	.LVL283:
 302:../../libdaisy/src/hid/disp/display.h **** 
 3961              		.loc 6 302 9 view .LVU882
 3962 00c8 0126     		movs	r6, #1
 334:../../libdaisy/src/hid/disp/display.h **** 
 3963              		.loc 6 334 17 view .LVU883
 3964 00ca C4F10103 		rsb	r3, r4, #1
 302:../../libdaisy/src/hid/disp/display.h **** 
 3965              		.loc 6 302 9 view .LVU884
 3966 00ce 3A46     		mov	r2, r7
 332:../../libdaisy/src/hid/disp/display.h ****         t_y = 0;
 3967              		.loc 6 332 9 view .LVU885
 3968 00d0 6042     		rsbs	r0, r4, #0
 3969              	.LVL284:
 334:../../libdaisy/src/hid/disp/display.h **** 
 3970              		.loc 6 334 17 view .LVU886
 3971 00d2 B340     		lsls	r3, r3, r6
 3972              	.LVL285:
 333:../../libdaisy/src/hid/disp/display.h ****         err = 2 - 2 * radius;
 3973              		.loc 6 333 9 view .LVU887
 3974 00d4 0024     		movs	r4, #0
 3975              	.LVL286:
 302:../../libdaisy/src/hid/disp/display.h **** 
 3976              		.loc 6 302 9 view .LVU888
 3977 00d6 3146     		mov	r1, r6
ARM GAS  /tmp/ccpr9r5K.s 			page 122


 3978 00d8 3746     		mov	r7, r6
 3979              	.LVL287:
 302:../../libdaisy/src/hid/disp/display.h **** 
 3980              		.loc 6 302 9 view .LVU889
 3981 00da 9446     		mov	ip, r2
 3982 00dc 0196     		str	r6, [sp, #4]
 3983              	.LVL288:
 3984              	.L275:
 338:../../libdaisy/src/hid/disp/display.h ****             {
 3985              		.loc 6 338 13 view .LVU890
 3986 00de BEF1000F 		cmp	lr, #0
 3987 00e2 6AD1     		bne	.L251
 343:../../libdaisy/src/hid/disp/display.h ****                 t_exy  = end_x * t_y;
 3988              		.loc 6 343 34 view .LVU891
 3989 00e4 4242     		rsbs	r2, r0, #0
 340:../../libdaisy/src/hid/disp/display.h ****                 t_syx  = start_y * t_x;
 3990              		.loc 6 340 17 view .LVU892
 3991 00e6 06EE904A 		vmov	s13, r4	@ int
 342:../../libdaisy/src/hid/disp/display.h ****                 t_synx = start_y * -t_x;
 3992              		.loc 6 342 34 view .LVU893
 3993 00ea 6142     		rsbs	r1, r4, #0
 3994              	.LVL289:
 343:../../libdaisy/src/hid/disp/display.h ****                 t_exy  = end_x * t_y;
 3995              		.loc 6 343 34 view .LVU894
 3996 00ec 07EE102A 		vmov	s14, r2	@ int
 340:../../libdaisy/src/hid/disp/display.h ****                 t_syx  = start_y * t_x;
 3997              		.loc 6 340 17 view .LVU895
 3998 00f0 F8EEE66A 		vcvt.f32.s32	s13, s13
 342:../../libdaisy/src/hid/disp/display.h ****                 t_synx = start_y * -t_x;
 3999              		.loc 6 342 34 view .LVU896
 4000 00f4 07EE901A 		vmov	s15, r1	@ int
 349:../../libdaisy/src/hid/disp/display.h ****                 {
 4001              		.loc 6 349 17 view .LVU897
 4002 00f8 159A     		ldr	r2, [sp, #84]
 343:../../libdaisy/src/hid/disp/display.h ****                 t_exy  = end_x * t_y;
 4003              		.loc 6 343 34 view .LVU898
 4004 00fa B8EEC77A 		vcvt.f32.s32	s14, s14
 340:../../libdaisy/src/hid/disp/display.h ****                 t_syx  = start_y * t_x;
 4005              		.loc 6 340 17 view .LVU899
 4006 00fe 66EE884A 		vmul.f32	s9, s13, s16
 4007              	.LVL290:
 349:../../libdaisy/src/hid/disp/display.h ****                 {
 4008              		.loc 6 349 17 view .LVU900
 4009 0102 B42A     		cmp	r2, #180
 344:../../libdaisy/src/hid/disp/display.h ****                 t_eyx  = end_y * t_x;
 4010              		.loc 6 344 17 view .LVU901
 4011 0104 26EE896A 		vmul.f32	s12, s13, s18
 341:../../libdaisy/src/hid/disp/display.h ****                 t_sxny = start_x * -t_y;
 4012              		.loc 6 341 17 view .LVU902
 4013 0108 06EE900A 		vmov	s13, r0	@ int
 343:../../libdaisy/src/hid/disp/display.h ****                 t_exy  = end_x * t_y;
 4014              		.loc 6 343 17 view .LVU903
 4015 010c 27EE284A 		vmul.f32	s8, s14, s17
 342:../../libdaisy/src/hid/disp/display.h ****                 t_synx = start_y * -t_x;
 4016              		.loc 6 342 34 view .LVU904
 4017 0110 F8EEE77A 		vcvt.f32.s32	s15, s15
 341:../../libdaisy/src/hid/disp/display.h ****                 t_sxny = start_x * -t_y;
ARM GAS  /tmp/ccpr9r5K.s 			page 123


 4018              		.loc 6 341 17 view .LVU905
 4019 0114 F8EEE66A 		vcvt.f32.s32	s13, s13
 351:../../libdaisy/src/hid/disp/display.h ****                     d2 = (t_sxy - t_syx < 0 || t_exy - t_eyx > 0);
 4020              		.loc 6 351 33 view .LVU906
 4021 0118 74EEC43A 		vsub.f32	s7, s9, s8
 342:../../libdaisy/src/hid/disp/display.h ****                 t_synx = start_y * -t_x;
 4022              		.loc 6 342 17 view .LVU907
 4023 011c 67EE885A 		vmul.f32	s11, s15, s16
 341:../../libdaisy/src/hid/disp/display.h ****                 t_sxny = start_x * -t_y;
 4024              		.loc 6 341 17 view .LVU908
 4025 0120 26EEA85A 		vmul.f32	s10, s13, s17
 4026              	.LVL291:
 346:../../libdaisy/src/hid/disp/display.h ****                 t_eynx = end_y * -t_x;
 4027              		.loc 6 346 17 view .LVU909
 4028 0124 67EE897A 		vmul.f32	s15, s15, s18
 347:../../libdaisy/src/hid/disp/display.h **** 
 4029              		.loc 6 347 17 view .LVU910
 4030 0128 27EE007A 		vmul.f32	s14, s14, s0
 345:../../libdaisy/src/hid/disp/display.h ****                 t_exny = end_x * -t_y;
 4031              		.loc 6 345 17 view .LVU911
 4032 012c 66EE806A 		vmul.f32	s13, s13, s0
 4033              	.LVL292:
 351:../../libdaisy/src/hid/disp/display.h ****                     d2 = (t_sxy - t_syx < 0 || t_exy - t_eyx > 0);
 4034              		.loc 6 351 46 view .LVU912
 4035 0130 F5EEC03A 		vcmpe.f32	s7, #0
 349:../../libdaisy/src/hid/disp/display.h ****                 {
 4036              		.loc 6 349 17 view .LVU913
 4037 0134 40F3DC80 		ble	.L252
 351:../../libdaisy/src/hid/disp/display.h ****                     d2 = (t_sxy - t_syx < 0 || t_exy - t_eyx > 0);
 4038              		.loc 6 351 46 view .LVU914
 4039 0138 F1EE10FA 		vmrs	APSR_nzcv, FPSCR
 4040 013c 00F14D81 		bmi	.L278
 351:../../libdaisy/src/hid/disp/display.h ****                     d2 = (t_sxy - t_syx < 0 || t_exy - t_eyx > 0);
 4041              		.loc 6 351 55 discriminator 2 view .LVU915
 4042 0140 76EE473A 		vsub.f32	s7, s12, s14
 352:../../libdaisy/src/hid/disp/display.h ****                     d3 = (t_sxny - t_syx < 0 || t_exny - t_eyx > 0);
 4043              		.loc 6 352 33 discriminator 2 view .LVU916
 4044 0144 74EEC54A 		vsub.f32	s9, s9, s10
 4045              	.LVL293:
 351:../../libdaisy/src/hid/disp/display.h ****                     d2 = (t_sxy - t_syx < 0 || t_exy - t_eyx > 0);
 4046              		.loc 6 351 46 discriminator 2 view .LVU917
 4047 0148 F5EEC03A 		vcmpe.f32	s7, #0
 4048 014c F1EE10FA 		vmrs	APSR_nzcv, FPSCR
 352:../../libdaisy/src/hid/disp/display.h ****                     d3 = (t_sxny - t_syx < 0 || t_exny - t_eyx > 0);
 4049              		.loc 6 352 45 discriminator 2 view .LVU918
 4050 0150 F5EEC04A 		vcmpe.f32	s9, #0
 351:../../libdaisy/src/hid/disp/display.h ****                     d2 = (t_sxy - t_syx < 0 || t_exy - t_eyx > 0);
 4051              		.loc 6 351 46 discriminator 2 view .LVU919
 4052 0154 CCBF     		ite	gt
 4053 0156 0122     		movgt	r2, #1
 4054 0158 0022     		movle	r2, #0
 352:../../libdaisy/src/hid/disp/display.h ****                     d3 = (t_sxny - t_syx < 0 || t_exny - t_eyx > 0);
 4055              		.loc 6 352 45 discriminator 2 view .LVU920
 4056 015a F1EE10FA 		vmrs	APSR_nzcv, FPSCR
 351:../../libdaisy/src/hid/disp/display.h ****                     d2 = (t_sxy - t_syx < 0 || t_exy - t_eyx > 0);
 4057              		.loc 6 351 46 discriminator 2 view .LVU921
 4058 015e 0192     		str	r2, [sp, #4]
ARM GAS  /tmp/ccpr9r5K.s 			page 124


 4059              	.LVL294:
 352:../../libdaisy/src/hid/disp/display.h ****                     d3 = (t_sxny - t_syx < 0 || t_exny - t_eyx > 0);
 4060              		.loc 6 352 45 discriminator 2 view .LVU922
 4061 0160 00F14581 		bmi	.L279
 4062              	.L319:
 352:../../libdaisy/src/hid/disp/display.h ****                     d3 = (t_sxny - t_syx < 0 || t_exny - t_eyx > 0);
 4063              		.loc 6 352 54 discriminator 2 view .LVU923
 4064 0164 36EE666A 		vsub.f32	s12, s12, s13
 4065              	.LVL295:
 353:../../libdaisy/src/hid/disp/display.h ****                     d4 = (t_sxny - t_synx < 0 || t_exny - t_eynx > 0);
 4066              		.loc 6 353 34 discriminator 2 view .LVU924
 4067 0168 35EEC55A 		vsub.f32	s10, s11, s10
 4068              	.LVL296:
 352:../../libdaisy/src/hid/disp/display.h ****                     d3 = (t_sxny - t_syx < 0 || t_exny - t_eyx > 0);
 4069              		.loc 6 352 45 discriminator 2 view .LVU925
 4070 016c B5EEC06A 		vcmpe.f32	s12, #0
 4071 0170 F1EE10FA 		vmrs	APSR_nzcv, FPSCR
 353:../../libdaisy/src/hid/disp/display.h ****                     d4 = (t_sxny - t_synx < 0 || t_exny - t_eynx > 0);
 4072              		.loc 6 353 46 discriminator 2 view .LVU926
 4073 0174 B5EEC05A 		vcmpe.f32	s10, #0
 352:../../libdaisy/src/hid/disp/display.h ****                     d3 = (t_sxny - t_syx < 0 || t_exny - t_eyx > 0);
 4074              		.loc 6 352 45 discriminator 2 view .LVU927
 4075 0178 CCBF     		ite	gt
 4076 017a 0121     		movgt	r1, #1
 4077 017c 0021     		movle	r1, #0
 4078              	.LVL297:
 353:../../libdaisy/src/hid/disp/display.h ****                     d4 = (t_sxny - t_synx < 0 || t_exny - t_eynx > 0);
 4079              		.loc 6 353 46 discriminator 2 view .LVU928
 4080 017e F1EE10FA 		vmrs	APSR_nzcv, FPSCR
 4081 0182 00F13D81 		bmi	.L280
 4082              	.L320:
 353:../../libdaisy/src/hid/disp/display.h ****                     d4 = (t_sxny - t_synx < 0 || t_exny - t_eynx > 0);
 4083              		.loc 6 353 56 discriminator 2 view .LVU929
 4084 0186 77EEE66A 		vsub.f32	s13, s15, s13
 4085              	.LVL298:
 353:../../libdaisy/src/hid/disp/display.h ****                     d4 = (t_sxny - t_synx < 0 || t_exny - t_eynx > 0);
 4086              		.loc 6 353 46 discriminator 2 view .LVU930
 4087 018a F5EEC06A 		vcmpe.f32	s13, #0
 4088 018e F1EE10FA 		vmrs	APSR_nzcv, FPSCR
 4089 0192 CCBF     		ite	gt
 4090 0194 0126     		movgt	r6, #1
 4091              	.LVL299:
 353:../../libdaisy/src/hid/disp/display.h ****                     d4 = (t_sxny - t_synx < 0 || t_exny - t_eynx > 0);
 4092              		.loc 6 353 46 discriminator 2 view .LVU931
 4093 0196 0026     		movle	r6, #0
 4094              	.L255:
 4095              	.LVL300:
 354:../../libdaisy/src/hid/disp/display.h ****                 }
 4096              		.loc 6 354 34 discriminator 6 view .LVU932
 4097 0198 75EEC45A 		vsub.f32	s11, s11, s8
 4098              	.LVL301:
 354:../../libdaisy/src/hid/disp/display.h ****                 }
 4099              		.loc 6 354 47 discriminator 6 view .LVU933
 4100 019c F5EEC05A 		vcmpe.f32	s11, #0
 4101 01a0 F1EE10FA 		vmrs	APSR_nzcv, FPSCR
 4102 01a4 00F11781 		bmi	.L281
 4103              	.L311:
ARM GAS  /tmp/ccpr9r5K.s 			page 125


 361:../../libdaisy/src/hid/disp/display.h ****                 }
 4104              		.loc 6 361 57 discriminator 1 view .LVU934
 4105 01a8 77EEC77A 		vsub.f32	s15, s15, s14
 4106              	.LVL302:
 361:../../libdaisy/src/hid/disp/display.h ****                 }
 4107              		.loc 6 361 47 discriminator 1 view .LVU935
 4108 01ac F5EEC07A 		vcmpe.f32	s15, #0
 4109 01b0 F1EE10FA 		vmrs	APSR_nzcv, FPSCR
 4110 01b4 CCBF     		ite	gt
 4111 01b6 0127     		movgt	r7, #1
 4112              	.LVL303:
 361:../../libdaisy/src/hid/disp/display.h ****                 }
 4113              		.loc 6 361 47 discriminator 1 view .LVU936
 4114 01b8 0027     		movle	r7, #0
 4115              	.LVL304:
 4116              	.L251:
 365:../../libdaisy/src/hid/disp/display.h ****                 ((ChildType*)(this))
 4117              		.loc 6 365 13 view .LVU937
 4118 01ba 019A     		ldr	r2, [sp, #4]
 4119 01bc F2B1     		cbz	r2, .L263
 366:../../libdaisy/src/hid/disp/display.h ****                     ->ChildType::DrawPixel(x - t_x, y + t_y, on);
 4120              		.loc 6 366 17 view .LVU938
 4121 01be ACEB0009 		sub	r9, ip, r0
 4122 01c2 04EB0805 		add	r5, r4, r8
 4123              	.LVL305:
 4124              	.LBB1403:
 4125              	.LBI1403:
  41:../../libdaisy/src/hid/disp/oled_display.h ****     {
 4126              		.loc 5 41 10 is_stmt 1 view .LVU939
 4127              	.LBB1404:
 4128              	.LBI1404:
 239:../../libdaisy/src/dev/oled_ssd130x.h ****     {
 4129              		.loc 15 239 10 view .LVU940
 4130              	.LBB1405:
 241:../../libdaisy/src/dev/oled_ssd130x.h ****             return;
 4131              		.loc 15 241 9 is_stmt 0 view .LVU941
 4132 01c6 B9F17F0F 		cmp	r9, #127
 4133 01ca 17D8     		bhi	.L263
 4134 01cc 3F2D     		cmp	r5, #63
 4135 01ce 15D8     		bhi	.L263
 244:../../libdaisy/src/dev/oled_ssd130x.h ****         else
 4136              		.loc 15 244 28 view .LVU942
 4137 01d0 4FEAD50A 		lsr	r10, r5, #3
 244:../../libdaisy/src/dev/oled_ssd130x.h ****         else
 4138              		.loc 15 244 48 view .LVU943
 4139 01d4 4FF0010B 		mov	fp, #1
 244:../../libdaisy/src/dev/oled_ssd130x.h ****         else
 4140              		.loc 15 244 54 view .LVU944
 4141 01d8 05F00705 		and	r5, r5, #7
 4142              	.LVL306:
 243:../../libdaisy/src/dev/oled_ssd130x.h ****             buffer_[x + (y / 8) * width] |= (1 << (y % 8));
 4143              		.loc 15 243 9 view .LVU945
 4144 01dc 029A     		ldr	r2, [sp, #8]
 244:../../libdaisy/src/dev/oled_ssd130x.h ****         else
 4145              		.loc 15 244 42 view .LVU946
 4146 01de 09EBCA19 		add	r9, r9, r10, lsl #7
 4147              	.LVL307:
ARM GAS  /tmp/ccpr9r5K.s 			page 126


 244:../../libdaisy/src/dev/oled_ssd130x.h ****         else
 4148              		.loc 15 244 48 view .LVU947
 4149 01e2 0BFA05F5 		lsl	r5, fp, r5
 243:../../libdaisy/src/dev/oled_ssd130x.h ****             buffer_[x + (y / 8) * width] |= (1 << (y % 8));
 4150              		.loc 15 243 9 view .LVU948
 4151 01e6 002A     		cmp	r2, #0
 4152 01e8 00F0C280 		beq	.L264
 244:../../libdaisy/src/dev/oled_ssd130x.h ****         else
 4153              		.loc 15 244 13 view .LVU949
 4154 01ec 039A     		ldr	r2, [sp, #12]
 4155 01ee 9144     		add	r9, r9, r2
 244:../../libdaisy/src/dev/oled_ssd130x.h ****         else
 4156              		.loc 15 244 42 view .LVU950
 4157 01f0 99F814B0 		ldrb	fp, [r9, #20]	@ zero_extendqisi2
 4158 01f4 45EA0B05 		orr	r5, r5, fp
 244:../../libdaisy/src/dev/oled_ssd130x.h ****         else
 4159              		.loc 15 244 13 view .LVU951
 4160 01f8 89F81450 		strb	r5, [r9, #20]
 4161              	.LVL308:
 4162              	.L263:
 244:../../libdaisy/src/dev/oled_ssd130x.h ****         else
 4163              		.loc 15 244 13 view .LVU952
 4164              	.LBE1405:
 4165              	.LBE1404:
 4166              	.LBE1403:
 368:../../libdaisy/src/hid/disp/display.h ****                 ((ChildType*)(this))
 4167              		.loc 6 368 13 view .LVU953
 4168 01fc F1B1     		cbz	r1, .L265
 4169              	.L318:
 369:../../libdaisy/src/hid/disp/display.h ****                     ->ChildType::DrawPixel(x + t_x, y + t_y, on);
 4170              		.loc 6 369 17 view .LVU954
 4171 01fe 00EB0C09 		add	r9, r0, ip
 4172 0202 04EB0805 		add	r5, r4, r8
 4173              	.LVL309:
 4174              	.LBB1410:
 4175              	.LBI1410:
  41:../../libdaisy/src/hid/disp/oled_display.h ****     {
 4176              		.loc 5 41 10 is_stmt 1 view .LVU955
 4177              	.LBB1411:
 4178              	.LBI1411:
 239:../../libdaisy/src/dev/oled_ssd130x.h ****     {
 4179              		.loc 15 239 10 view .LVU956
 4180              	.LBB1412:
 241:../../libdaisy/src/dev/oled_ssd130x.h ****             return;
 4181              		.loc 15 241 9 is_stmt 0 view .LVU957
 4182 0206 B9F17F0F 		cmp	r9, #127
 4183 020a 17D8     		bhi	.L265
 4184 020c 3F2D     		cmp	r5, #63
 4185 020e 15D8     		bhi	.L265
 244:../../libdaisy/src/dev/oled_ssd130x.h ****         else
 4186              		.loc 15 244 28 view .LVU958
 4187 0210 4FEAD50A 		lsr	r10, r5, #3
 244:../../libdaisy/src/dev/oled_ssd130x.h ****         else
 4188              		.loc 15 244 48 view .LVU959
 4189 0214 4FF0010B 		mov	fp, #1
 244:../../libdaisy/src/dev/oled_ssd130x.h ****         else
 4190              		.loc 15 244 54 view .LVU960
ARM GAS  /tmp/ccpr9r5K.s 			page 127


 4191 0218 05F00705 		and	r5, r5, #7
 4192              	.LVL310:
 243:../../libdaisy/src/dev/oled_ssd130x.h ****             buffer_[x + (y / 8) * width] |= (1 << (y % 8));
 4193              		.loc 15 243 9 view .LVU961
 4194 021c 029A     		ldr	r2, [sp, #8]
 244:../../libdaisy/src/dev/oled_ssd130x.h ****         else
 4195              		.loc 15 244 42 view .LVU962
 4196 021e 09EBCA19 		add	r9, r9, r10, lsl #7
 4197              	.LVL311:
 244:../../libdaisy/src/dev/oled_ssd130x.h ****         else
 4198              		.loc 15 244 48 view .LVU963
 4199 0222 0BFA05F5 		lsl	r5, fp, r5
 243:../../libdaisy/src/dev/oled_ssd130x.h ****             buffer_[x + (y / 8) * width] |= (1 << (y % 8));
 4200              		.loc 15 243 9 view .LVU964
 4201 0226 002A     		cmp	r2, #0
 4202 0228 00F08E80 		beq	.L266
 244:../../libdaisy/src/dev/oled_ssd130x.h ****         else
 4203              		.loc 15 244 13 view .LVU965
 4204 022c 039A     		ldr	r2, [sp, #12]
 4205 022e 9144     		add	r9, r9, r2
 244:../../libdaisy/src/dev/oled_ssd130x.h ****         else
 4206              		.loc 15 244 42 view .LVU966
 4207 0230 99F814B0 		ldrb	fp, [r9, #20]	@ zero_extendqisi2
 4208 0234 45EA0B05 		orr	r5, r5, fp
 244:../../libdaisy/src/dev/oled_ssd130x.h ****         else
 4209              		.loc 15 244 13 view .LVU967
 4210 0238 89F81450 		strb	r5, [r9, #20]
 4211              	.LVL312:
 4212              	.L265:
 244:../../libdaisy/src/dev/oled_ssd130x.h ****         else
 4213              		.loc 15 244 13 view .LVU968
 4214              	.LBE1412:
 4215              	.LBE1411:
 4216              	.LBE1410:
 371:../../libdaisy/src/hid/disp/display.h ****                 ((ChildType*)(this))
 4217              		.loc 6 371 13 view .LVU969
 4218 023c EEB1     		cbz	r6, .L267
 4219              	.L317:
 372:../../libdaisy/src/hid/disp/display.h ****                     ->ChildType::DrawPixel(x + t_x, y - t_y, on);
 4220              		.loc 6 372 17 view .LVU970
 4221 023e 00EB0C09 		add	r9, r0, ip
 4222 0242 A8EB0405 		sub	r5, r8, r4
 4223              	.LVL313:
 4224              	.LBB1417:
 4225              	.LBI1417:
  41:../../libdaisy/src/hid/disp/oled_display.h ****     {
 4226              		.loc 5 41 10 is_stmt 1 view .LVU971
 4227              	.LBB1418:
 4228              	.LBI1418:
 239:../../libdaisy/src/dev/oled_ssd130x.h ****     {
 4229              		.loc 15 239 10 view .LVU972
 4230              	.LBB1419:
 241:../../libdaisy/src/dev/oled_ssd130x.h ****             return;
 4231              		.loc 15 241 9 is_stmt 0 view .LVU973
 4232 0246 B9F17F0F 		cmp	r9, #127
 4233 024a 16D8     		bhi	.L267
 4234 024c 3F2D     		cmp	r5, #63
ARM GAS  /tmp/ccpr9r5K.s 			page 128


 4235 024e 14D8     		bhi	.L267
 244:../../libdaisy/src/dev/oled_ssd130x.h ****         else
 4236              		.loc 15 244 28 view .LVU974
 4237 0250 4FEAD50A 		lsr	r10, r5, #3
 244:../../libdaisy/src/dev/oled_ssd130x.h ****         else
 4238              		.loc 15 244 48 view .LVU975
 4239 0254 4FF0010B 		mov	fp, #1
 244:../../libdaisy/src/dev/oled_ssd130x.h ****         else
 4240              		.loc 15 244 54 view .LVU976
 4241 0258 05F00705 		and	r5, r5, #7
 4242              	.LVL314:
 243:../../libdaisy/src/dev/oled_ssd130x.h ****             buffer_[x + (y / 8) * width] |= (1 << (y % 8));
 4243              		.loc 15 243 9 view .LVU977
 4244 025c 029A     		ldr	r2, [sp, #8]
 244:../../libdaisy/src/dev/oled_ssd130x.h ****         else
 4245              		.loc 15 244 42 view .LVU978
 4246 025e 09EBCA19 		add	r9, r9, r10, lsl #7
 4247              	.LVL315:
 244:../../libdaisy/src/dev/oled_ssd130x.h ****         else
 4248              		.loc 15 244 48 view .LVU979
 4249 0262 0BFA05F5 		lsl	r5, fp, r5
 243:../../libdaisy/src/dev/oled_ssd130x.h ****             buffer_[x + (y / 8) * width] |= (1 << (y % 8));
 4250              		.loc 15 243 9 view .LVU980
 4251 0266 002A     		cmp	r2, #0
 4252 0268 65D0     		beq	.L268
 244:../../libdaisy/src/dev/oled_ssd130x.h ****         else
 4253              		.loc 15 244 13 view .LVU981
 4254 026a 039A     		ldr	r2, [sp, #12]
 4255 026c 9144     		add	r9, r9, r2
 244:../../libdaisy/src/dev/oled_ssd130x.h ****         else
 4256              		.loc 15 244 42 view .LVU982
 4257 026e 99F814B0 		ldrb	fp, [r9, #20]	@ zero_extendqisi2
 4258 0272 45EA0B05 		orr	r5, r5, fp
 244:../../libdaisy/src/dev/oled_ssd130x.h ****         else
 4259              		.loc 15 244 13 view .LVU983
 4260 0276 89F81450 		strb	r5, [r9, #20]
 4261              	.LVL316:
 4262              	.L267:
 244:../../libdaisy/src/dev/oled_ssd130x.h ****         else
 4263              		.loc 15 244 13 view .LVU984
 4264              	.LBE1419:
 4265              	.LBE1418:
 4266              	.LBE1417:
 374:../../libdaisy/src/hid/disp/display.h ****                 ((ChildType*)(this))
 4267              		.loc 6 374 13 view .LVU985
 4268 027a D7B9     		cbnz	r7, .L312
 4269              	.L269:
 4270              	.LVL317:
 379:../../libdaisy/src/hid/disp/display.h ****             {
 4271              		.loc 6 379 13 view .LVU986
 4272 027c 9C42     		cmp	r4, r3
 4273 027e 16DB     		blt	.L286
 381:../../libdaisy/src/hid/disp/display.h ****                 err = err + (t_y * 2 + 1);
 4274              		.loc 6 381 17 view .LVU987
 4275 0280 0134     		adds	r4, r4, #1
 4276              	.LVL318:
 382:../../libdaisy/src/hid/disp/display.h ****                 if(-t_x == t_y && e2 <= t_x)
ARM GAS  /tmp/ccpr9r5K.s 			page 129


 4277              		.loc 6 382 38 view .LVU988
 4278 0282 03EB4405 		add	r5, r3, r4, lsl #1
 383:../../libdaisy/src/hid/disp/display.h ****                 {
 4279              		.loc 6 383 17 view .LVU989
 4280 0286 C442     		cmn	r4, r0
 382:../../libdaisy/src/hid/disp/display.h ****                 if(-t_x == t_y && e2 <= t_x)
 4281              		.loc 6 382 17 view .LVU990
 4282 0288 05F10105 		add	r5, r5, #1
 4283              	.LVL319:
 383:../../libdaisy/src/hid/disp/display.h ****                 {
 4284              		.loc 6 383 17 view .LVU991
 4285 028c 4FD0     		beq	.L313
 4286              	.LVL320:
 4287              	.L271:
 388:../../libdaisy/src/hid/disp/display.h ****             {
 4288              		.loc 6 388 13 view .LVU992
 4289 028e 9842     		cmp	r0, r3
 4290 0290 08DB     		blt	.L272
 388:../../libdaisy/src/hid/disp/display.h ****             {
 4291              		.loc 6 388 13 view .LVU993
 4292 0292 2B46     		mov	r3, r5
 4293              	.LVL321:
 4294              	.L273:
 393:../../libdaisy/src/hid/disp/display.h ****     }
 4295              		.loc 6 393 21 is_stmt 1 view .LVU994
 4296 0294 0028     		cmp	r0, #0
 4297 0296 7FF722AF 		ble	.L275
 4298              	.LVL322:
 4299              	.L246:
 394:../../libdaisy/src/hid/disp/display.h **** 
 4300              		.loc 6 394 5 is_stmt 0 view .LVU995
 4301 029a 05B0     		add	sp, sp, #20
 4302              		.cfi_remember_state
 4303              		.cfi_def_cfa_offset 60
 4304              		@ sp needed
 4305 029c BDEC068B 		vldm	sp!, {d8-d10}
 4306              		.cfi_restore 84
 4307              		.cfi_restore 85
 4308              		.cfi_restore 82
 4309              		.cfi_restore 83
 4310              		.cfi_restore 80
 4311              		.cfi_restore 81
 4312              		.cfi_def_cfa_offset 36
 4313              	.LVL323:
 394:../../libdaisy/src/hid/disp/display.h **** 
 4314              		.loc 6 394 5 view .LVU996
 4315 02a0 BDE8F08F 		pop	{r4, r5, r6, r7, r8, r9, r10, fp, pc}
 4316              	.LVL324:
 4317              	.L272:
 4318              		.cfi_restore_state
 390:../../libdaisy/src/hid/disp/display.h ****                 err = err + (t_x * 2 + 1);
 4319              		.loc 6 390 17 view .LVU997
 4320 02a4 0130     		adds	r0, r0, #1
 4321              	.LVL325:
 391:../../libdaisy/src/hid/disp/display.h ****             }
 4322              		.loc 6 391 38 view .LVU998
 4323 02a6 05EB4003 		add	r3, r5, r0, lsl #1
ARM GAS  /tmp/ccpr9r5K.s 			page 130


 391:../../libdaisy/src/hid/disp/display.h ****             }
 4324              		.loc 6 391 17 view .LVU999
 4325 02aa 0133     		adds	r3, r3, #1
 4326              	.LVL326:
 391:../../libdaisy/src/hid/disp/display.h ****             }
 4327              		.loc 6 391 17 view .LVU1000
 4328 02ac F2E7     		b	.L273
 4329              	.LVL327:
 4330              	.L286:
 391:../../libdaisy/src/hid/disp/display.h ****             }
 4331              		.loc 6 391 17 view .LVU1001
 4332 02ae 1D46     		mov	r5, r3
 4333 02b0 EDE7     		b	.L271
 4334              	.LVL328:
 4335              	.L312:
 375:../../libdaisy/src/hid/disp/display.h ****                     ->ChildType::DrawPixel(x - t_x, y - t_y, on);
 4336              		.loc 6 375 17 view .LVU1002
 4337 02b2 ACEB0009 		sub	r9, ip, r0
 4338 02b6 A8EB0405 		sub	r5, r8, r4
 4339              	.LVL329:
 4340              	.LBB1424:
 4341              	.LBI1424:
  41:../../libdaisy/src/hid/disp/oled_display.h ****     {
 4342              		.loc 5 41 10 is_stmt 1 view .LVU1003
 4343              	.LBB1425:
 4344              	.LBI1425:
 239:../../libdaisy/src/dev/oled_ssd130x.h ****     {
 4345              		.loc 15 239 10 view .LVU1004
 4346              	.LBB1426:
 241:../../libdaisy/src/dev/oled_ssd130x.h ****             return;
 4347              		.loc 15 241 9 is_stmt 0 view .LVU1005
 4348 02ba B9F17F0F 		cmp	r9, #127
 4349 02be DDD8     		bhi	.L269
 4350 02c0 3F2D     		cmp	r5, #63
 4351 02c2 DBD8     		bhi	.L269
 244:../../libdaisy/src/dev/oled_ssd130x.h ****         else
 4352              		.loc 15 244 28 view .LVU1006
 4353 02c4 4FEAD50A 		lsr	r10, r5, #3
 244:../../libdaisy/src/dev/oled_ssd130x.h ****         else
 4354              		.loc 15 244 48 view .LVU1007
 4355 02c8 4FF0010B 		mov	fp, #1
 244:../../libdaisy/src/dev/oled_ssd130x.h ****         else
 4356              		.loc 15 244 54 view .LVU1008
 4357 02cc 05F00705 		and	r5, r5, #7
 4358              	.LVL330:
 243:../../libdaisy/src/dev/oled_ssd130x.h ****             buffer_[x + (y / 8) * width] |= (1 << (y % 8));
 4359              		.loc 15 243 9 view .LVU1009
 4360 02d0 029A     		ldr	r2, [sp, #8]
 244:../../libdaisy/src/dev/oled_ssd130x.h ****         else
 4361              		.loc 15 244 42 view .LVU1010
 4362 02d2 09EBCA19 		add	r9, r9, r10, lsl #7
 4363              	.LVL331:
 244:../../libdaisy/src/dev/oled_ssd130x.h ****         else
 4364              		.loc 15 244 48 view .LVU1011
 4365 02d6 0BFA05F5 		lsl	r5, fp, r5
 243:../../libdaisy/src/dev/oled_ssd130x.h ****             buffer_[x + (y / 8) * width] |= (1 << (y % 8));
 4366              		.loc 15 243 9 view .LVU1012
ARM GAS  /tmp/ccpr9r5K.s 			page 131


 4367 02da 002A     		cmp	r2, #0
 4368 02dc 3FD0     		beq	.L270
 244:../../libdaisy/src/dev/oled_ssd130x.h ****         else
 4369              		.loc 15 244 13 view .LVU1013
 4370 02de 039A     		ldr	r2, [sp, #12]
 4371 02e0 9144     		add	r9, r9, r2
 244:../../libdaisy/src/dev/oled_ssd130x.h ****         else
 4372              		.loc 15 244 42 view .LVU1014
 4373 02e2 99F814B0 		ldrb	fp, [r9, #20]	@ zero_extendqisi2
 4374 02e6 45EA0B05 		orr	r5, r5, fp
 244:../../libdaisy/src/dev/oled_ssd130x.h ****         else
 4375              		.loc 15 244 13 view .LVU1015
 4376 02ea 89F81450 		strb	r5, [r9, #20]
 4377 02ee C5E7     		b	.L269
 4378              	.LVL332:
 4379              	.L252:
 244:../../libdaisy/src/dev/oled_ssd130x.h ****         else
 4380              		.loc 15 244 13 view .LVU1016
 4381              	.LBE1426:
 4382              	.LBE1425:
 4383              	.LBE1424:
 358:../../libdaisy/src/hid/disp/display.h ****                     d2 = (t_sxy - t_syx < 0 && t_exy - t_eyx > 0);
 4384              		.loc 6 358 46 view .LVU1017
 4385 02f0 F1EE10FA 		vmrs	APSR_nzcv, FPSCR
 4386 02f4 64D4     		bmi	.L314
 4387 02f6 CDF804E0 		str	lr, [sp, #4]
 4388              	.LVL333:
 4389              	.L256:
 359:../../libdaisy/src/hid/disp/display.h ****                     d3 = (t_sxny - t_syx < 0 && t_exny - t_eyx > 0);
 4390              		.loc 6 359 33 discriminator 6 view .LVU1018
 4391 02fa 74EEC54A 		vsub.f32	s9, s9, s10
 4392              	.LVL334:
 359:../../libdaisy/src/hid/disp/display.h ****                     d3 = (t_sxny - t_syx < 0 && t_exny - t_eyx > 0);
 4393              		.loc 6 359 45 discriminator 6 view .LVU1019
 4394 02fe F5EEC04A 		vcmpe.f32	s9, #0
 4395 0302 F1EE10FA 		vmrs	APSR_nzcv, FPSCR
 4396 0306 51D4     		bmi	.L315
 359:../../libdaisy/src/hid/disp/display.h ****                     d3 = (t_sxny - t_syx < 0 && t_exny - t_eyx > 0);
 4397              		.loc 6 359 45 view .LVU1020
 4398 0308 0021     		movs	r1, #0
 4399              	.LVL335:
 4400              	.L258:
 360:../../libdaisy/src/hid/disp/display.h ****                     d4 = (t_sxny - t_synx < 0 && t_exny - t_eynx > 0);
 4401              		.loc 6 360 34 discriminator 6 view .LVU1021
 4402 030a 35EEC55A 		vsub.f32	s10, s11, s10
 4403              	.LVL336:
 360:../../libdaisy/src/hid/disp/display.h ****                     d4 = (t_sxny - t_synx < 0 && t_exny - t_eynx > 0);
 4404              		.loc 6 360 46 discriminator 6 view .LVU1022
 4405 030e B5EEC05A 		vcmpe.f32	s10, #0
 4406 0312 F1EE10FA 		vmrs	APSR_nzcv, FPSCR
 4407 0316 3FD4     		bmi	.L316
 360:../../libdaisy/src/hid/disp/display.h ****                     d4 = (t_sxny - t_synx < 0 && t_exny - t_eynx > 0);
 4408              		.loc 6 360 46 view .LVU1023
 4409 0318 0026     		movs	r6, #0
 4410              	.LVL337:
 4411              	.L260:
 361:../../libdaisy/src/hid/disp/display.h ****                 }
ARM GAS  /tmp/ccpr9r5K.s 			page 132


 4412              		.loc 6 361 34 discriminator 6 view .LVU1024
 4413 031a 75EEC45A 		vsub.f32	s11, s11, s8
 4414              	.LVL338:
 361:../../libdaisy/src/hid/disp/display.h ****                 }
 4415              		.loc 6 361 47 discriminator 6 view .LVU1025
 4416 031e F5EEC05A 		vcmpe.f32	s11, #0
 4417 0322 F1EE10FA 		vmrs	APSR_nzcv, FPSCR
 4418 0326 3FF53FAF 		bmi	.L311
 361:../../libdaisy/src/hid/disp/display.h ****                 }
 4419              		.loc 6 361 47 view .LVU1026
 4420 032a 0027     		movs	r7, #0
 4421              	.LVL339:
 361:../../libdaisy/src/hid/disp/display.h ****                 }
 4422              		.loc 6 361 47 view .LVU1027
 4423 032c 45E7     		b	.L251
 4424              	.LVL340:
 4425              	.L313:
 383:../../libdaisy/src/hid/disp/display.h ****                 {
 4426              		.loc 6 383 32 discriminator 1 view .LVU1028
 4427 032e 9842     		cmp	r0, r3
 4428 0330 B8DB     		blt	.L272
 385:../../libdaisy/src/hid/disp/display.h ****                 }
 4429              		.loc 6 385 21 view .LVU1029
 4430 0332 0023     		movs	r3, #0
 4431              	.LVL341:
 385:../../libdaisy/src/hid/disp/display.h ****                 }
 4432              		.loc 6 385 21 view .LVU1030
 4433 0334 ABE7     		b	.L271
 4434              	.LVL342:
 4435              	.L268:
 4436              	.LBB1431:
 4437              	.LBB1423:
 4438              	.LBB1422:
 4439              	.LBB1420:
 4440              	.LBI1420:
 239:../../libdaisy/src/dev/oled_ssd130x.h ****     {
 4441              		.loc 15 239 10 is_stmt 1 view .LVU1031
 4442              	.LBB1421:
 246:../../libdaisy/src/dev/oled_ssd130x.h ****     }
 4443              		.loc 15 246 13 is_stmt 0 view .LVU1032
 4444 0336 039A     		ldr	r2, [sp, #12]
 4445 0338 9144     		add	r9, r9, r2
 4446              	.LVL343:
 246:../../libdaisy/src/dev/oled_ssd130x.h ****     }
 4447              		.loc 15 246 42 view .LVU1033
 4448 033a 99F814B0 		ldrb	fp, [r9, #20]	@ zero_extendqisi2
 4449 033e 2BEA0505 		bic	r5, fp, r5
 4450              	.LVL344:
 246:../../libdaisy/src/dev/oled_ssd130x.h ****     }
 4451              		.loc 15 246 13 view .LVU1034
 4452 0342 89F81450 		strb	r5, [r9, #20]
 4453 0346 98E7     		b	.L267
 4454              	.LVL345:
 4455              	.L266:
 246:../../libdaisy/src/dev/oled_ssd130x.h ****     }
 4456              		.loc 15 246 13 view .LVU1035
 4457              	.LBE1421:
ARM GAS  /tmp/ccpr9r5K.s 			page 133


 4458              	.LBE1420:
 4459              	.LBE1422:
 4460              	.LBE1423:
 4461              	.LBE1431:
 4462              	.LBB1432:
 4463              	.LBB1416:
 4464              	.LBB1415:
 4465              	.LBB1413:
 4466              	.LBI1413:
 239:../../libdaisy/src/dev/oled_ssd130x.h ****     {
 4467              		.loc 15 239 10 is_stmt 1 view .LVU1036
 4468              	.LBB1414:
 246:../../libdaisy/src/dev/oled_ssd130x.h ****     }
 4469              		.loc 15 246 13 is_stmt 0 view .LVU1037
 4470 0348 039A     		ldr	r2, [sp, #12]
 4471 034a 9144     		add	r9, r9, r2
 4472              	.LVL346:
 246:../../libdaisy/src/dev/oled_ssd130x.h ****     }
 4473              		.loc 15 246 42 view .LVU1038
 4474 034c 99F814B0 		ldrb	fp, [r9, #20]	@ zero_extendqisi2
 4475 0350 2BEA0505 		bic	r5, fp, r5
 4476              	.LVL347:
 246:../../libdaisy/src/dev/oled_ssd130x.h ****     }
 4477              		.loc 15 246 13 view .LVU1039
 4478 0354 89F81450 		strb	r5, [r9, #20]
 4479              	.LVL348:
 246:../../libdaisy/src/dev/oled_ssd130x.h ****     }
 4480              		.loc 15 246 13 view .LVU1040
 4481              	.LBE1414:
 4482              	.LBE1413:
 4483              	.LBE1415:
 4484              	.LBE1416:
 4485              	.LBE1432:
 371:../../libdaisy/src/hid/disp/display.h ****                 ((ChildType*)(this))
 4486              		.loc 6 371 13 view .LVU1041
 4487 0358 002E     		cmp	r6, #0
 4488 035a 8ED0     		beq	.L267
 4489 035c 6FE7     		b	.L317
 4490              	.LVL349:
 4491              	.L270:
 4492              	.LBB1433:
 4493              	.LBB1430:
 4494              	.LBB1429:
 4495              	.LBB1427:
 4496              	.LBI1427:
 239:../../libdaisy/src/dev/oled_ssd130x.h ****     {
 4497              		.loc 15 239 10 is_stmt 1 view .LVU1042
 4498              	.LBB1428:
 246:../../libdaisy/src/dev/oled_ssd130x.h ****     }
 4499              		.loc 15 246 13 is_stmt 0 view .LVU1043
 4500 035e 039A     		ldr	r2, [sp, #12]
 4501 0360 9144     		add	r9, r9, r2
 4502              	.LVL350:
 246:../../libdaisy/src/dev/oled_ssd130x.h ****     }
 4503              		.loc 15 246 42 view .LVU1044
 4504 0362 99F814B0 		ldrb	fp, [r9, #20]	@ zero_extendqisi2
 4505 0366 2BEA0505 		bic	r5, fp, r5
ARM GAS  /tmp/ccpr9r5K.s 			page 134


 4506              	.LVL351:
 246:../../libdaisy/src/dev/oled_ssd130x.h ****     }
 4507              		.loc 15 246 13 view .LVU1045
 4508 036a 89F81450 		strb	r5, [r9, #20]
 4509 036e 85E7     		b	.L269
 4510              	.LVL352:
 4511              	.L264:
 246:../../libdaisy/src/dev/oled_ssd130x.h ****     }
 4512              		.loc 15 246 13 view .LVU1046
 4513              	.LBE1428:
 4514              	.LBE1427:
 4515              	.LBE1429:
 4516              	.LBE1430:
 4517              	.LBE1433:
 4518              	.LBB1434:
 4519              	.LBB1409:
 4520              	.LBB1408:
 4521              	.LBB1406:
 4522              	.LBI1406:
 239:../../libdaisy/src/dev/oled_ssd130x.h ****     {
 4523              		.loc 15 239 10 is_stmt 1 view .LVU1047
 4524              	.LBB1407:
 246:../../libdaisy/src/dev/oled_ssd130x.h ****     }
 4525              		.loc 15 246 13 is_stmt 0 view .LVU1048
 4526 0370 039A     		ldr	r2, [sp, #12]
 4527 0372 9144     		add	r9, r9, r2
 4528              	.LVL353:
 246:../../libdaisy/src/dev/oled_ssd130x.h ****     }
 4529              		.loc 15 246 42 view .LVU1049
 4530 0374 99F814B0 		ldrb	fp, [r9, #20]	@ zero_extendqisi2
 4531 0378 2BEA0505 		bic	r5, fp, r5
 4532              	.LVL354:
 246:../../libdaisy/src/dev/oled_ssd130x.h ****     }
 4533              		.loc 15 246 13 view .LVU1050
 4534 037c 89F81450 		strb	r5, [r9, #20]
 4535              	.LVL355:
 246:../../libdaisy/src/dev/oled_ssd130x.h ****     }
 4536              		.loc 15 246 13 view .LVU1051
 4537              	.LBE1407:
 4538              	.LBE1406:
 4539              	.LBE1408:
 4540              	.LBE1409:
 4541              	.LBE1434:
 368:../../libdaisy/src/hid/disp/display.h ****                 ((ChildType*)(this))
 4542              		.loc 6 368 13 view .LVU1052
 4543 0380 0029     		cmp	r1, #0
 4544 0382 3FF45BAF 		beq	.L265
 4545 0386 3AE7     		b	.L318
 4546              	.L322:
 4547              		.align	3
 4548              	.L321:
 4549 0388 7A008BFC 		.word	4236968058
 4550 038c FA210940 		.word	1074340346
 4551 0390 00000000 		.word	0
 4552 0394 00806640 		.word	1080459264
 4553              	.LVL356:
 4554              	.L316:
ARM GAS  /tmp/ccpr9r5K.s 			page 135


 360:../../libdaisy/src/hid/disp/display.h ****                     d4 = (t_sxny - t_synx < 0 && t_exny - t_eynx > 0);
 4555              		.loc 6 360 56 discriminator 1 view .LVU1053
 4556 0398 77EEE66A 		vsub.f32	s13, s15, s13
 4557              	.LVL357:
 360:../../libdaisy/src/hid/disp/display.h ****                     d4 = (t_sxny - t_synx < 0 && t_exny - t_eynx > 0);
 4558              		.loc 6 360 46 discriminator 1 view .LVU1054
 4559 039c F5EEC06A 		vcmpe.f32	s13, #0
 4560 03a0 F1EE10FA 		vmrs	APSR_nzcv, FPSCR
 4561 03a4 CCBF     		ite	gt
 4562 03a6 0126     		movgt	r6, #1
 4563              	.LVL358:
 360:../../libdaisy/src/hid/disp/display.h ****                     d4 = (t_sxny - t_synx < 0 && t_exny - t_eynx > 0);
 4564              		.loc 6 360 46 discriminator 1 view .LVU1055
 4565 03a8 0026     		movle	r6, #0
 4566 03aa B6E7     		b	.L260
 4567              	.LVL359:
 4568              	.L315:
 359:../../libdaisy/src/hid/disp/display.h ****                     d3 = (t_sxny - t_syx < 0 && t_exny - t_eyx > 0);
 4569              		.loc 6 359 54 discriminator 1 view .LVU1056
 4570 03ac 36EE666A 		vsub.f32	s12, s12, s13
 4571              	.LVL360:
 359:../../libdaisy/src/hid/disp/display.h ****                     d3 = (t_sxny - t_syx < 0 && t_exny - t_eyx > 0);
 4572              		.loc 6 359 45 discriminator 1 view .LVU1057
 4573 03b0 B5EEC06A 		vcmpe.f32	s12, #0
 4574 03b4 F1EE10FA 		vmrs	APSR_nzcv, FPSCR
 4575 03b8 CCBF     		ite	gt
 4576 03ba 0121     		movgt	r1, #1
 4577 03bc 0021     		movle	r1, #0
 4578 03be A4E7     		b	.L258
 4579              	.LVL361:
 4580              	.L314:
 358:../../libdaisy/src/hid/disp/display.h ****                     d2 = (t_sxy - t_syx < 0 && t_exy - t_eyx > 0);
 4581              		.loc 6 358 55 discriminator 1 view .LVU1058
 4582 03c0 76EE473A 		vsub.f32	s7, s12, s14
 358:../../libdaisy/src/hid/disp/display.h ****                     d2 = (t_sxy - t_syx < 0 && t_exy - t_eyx > 0);
 4583              		.loc 6 358 46 discriminator 1 view .LVU1059
 4584 03c4 F5EEC03A 		vcmpe.f32	s7, #0
 4585 03c8 F1EE10FA 		vmrs	APSR_nzcv, FPSCR
 4586 03cc CCBF     		ite	gt
 4587 03ce 0122     		movgt	r2, #1
 4588 03d0 0022     		movle	r2, #0
 4589 03d2 0192     		str	r2, [sp, #4]
 4590              	.LVL362:
 358:../../libdaisy/src/hid/disp/display.h ****                     d2 = (t_sxy - t_syx < 0 && t_exy - t_eyx > 0);
 4591              		.loc 6 358 46 discriminator 1 view .LVU1060
 4592 03d4 91E7     		b	.L256
 4593              	.LVL363:
 4594              	.L281:
 354:../../libdaisy/src/hid/disp/display.h ****                 }
 4595              		.loc 6 354 47 view .LVU1061
 4596 03d6 0127     		movs	r7, #1
 4597              	.LVL364:
 354:../../libdaisy/src/hid/disp/display.h ****                 }
 4598              		.loc 6 354 47 view .LVU1062
 4599 03d8 EFE6     		b	.L251
 4600              	.LVL365:
 4601              	.L278:
ARM GAS  /tmp/ccpr9r5K.s 			page 136


 352:../../libdaisy/src/hid/disp/display.h ****                     d3 = (t_sxny - t_syx < 0 || t_exny - t_eyx > 0);
 4602              		.loc 6 352 33 view .LVU1063
 4603 03da 74EEC54A 		vsub.f32	s9, s9, s10
 4604              	.LVL366:
 351:../../libdaisy/src/hid/disp/display.h ****                     d2 = (t_sxy - t_syx < 0 || t_exy - t_eyx > 0);
 4605              		.loc 6 351 46 view .LVU1064
 4606 03de 0122     		movs	r2, #1
 4607 03e0 0192     		str	r2, [sp, #4]
 4608              	.LVL367:
 352:../../libdaisy/src/hid/disp/display.h ****                     d3 = (t_sxny - t_syx < 0 || t_exny - t_eyx > 0);
 4609              		.loc 6 352 45 view .LVU1065
 4610 03e2 F5EEC04A 		vcmpe.f32	s9, #0
 4611 03e6 F1EE10FA 		vmrs	APSR_nzcv, FPSCR
 4612 03ea 7FF5BBAE 		bpl	.L319
 4613              	.L279:
 353:../../libdaisy/src/hid/disp/display.h ****                     d4 = (t_sxny - t_synx < 0 || t_exny - t_eynx > 0);
 4614              		.loc 6 353 34 view .LVU1066
 4615 03ee 35EEC55A 		vsub.f32	s10, s11, s10
 4616              	.LVL368:
 352:../../libdaisy/src/hid/disp/display.h ****                     d3 = (t_sxny - t_syx < 0 || t_exny - t_eyx > 0);
 4617              		.loc 6 352 45 view .LVU1067
 4618 03f2 0121     		movs	r1, #1
 4619              	.LVL369:
 353:../../libdaisy/src/hid/disp/display.h ****                     d4 = (t_sxny - t_synx < 0 || t_exny - t_eynx > 0);
 4620              		.loc 6 353 46 view .LVU1068
 4621 03f4 B5EEC05A 		vcmpe.f32	s10, #0
 4622 03f8 F1EE10FA 		vmrs	APSR_nzcv, FPSCR
 4623 03fc 7FF5C3AE 		bpl	.L320
 4624              	.LVL370:
 4625              	.L280:
 353:../../libdaisy/src/hid/disp/display.h ****                     d4 = (t_sxny - t_synx < 0 || t_exny - t_eynx > 0);
 4626              		.loc 6 353 46 view .LVU1069
 4627 0400 0126     		movs	r6, #1
 4628              	.LVL371:
 353:../../libdaisy/src/hid/disp/display.h ****                     d4 = (t_sxny - t_synx < 0 || t_exny - t_eynx > 0);
 4629              		.loc 6 353 46 view .LVU1070
 4630 0402 C9E6     		b	.L255
 4631              	.LVL372:
 4632              	.L247:
 308:../../libdaisy/src/hid/disp/display.h ****             sweep = -sweep;
 4633              		.loc 6 308 13 view .LVU1071
 4634 0404 DDE91423 		ldrd	r2, r3, [sp, #80]
 4635              	.LVL373:
 308:../../libdaisy/src/hid/disp/display.h ****             sweep = -sweep;
 4636              		.loc 6 308 13 view .LVU1072
 4637 0408 1344     		add	r3, r3, r2
 4638              	.LVL374:
 308:../../libdaisy/src/hid/disp/display.h ****             sweep = -sweep;
 4639              		.loc 6 308 13 view .LVU1073
 4640 040a 06EE102A 		vmov	s12, r2	@ int
 4641 040e 1493     		str	r3, [sp, #80]
 4642 0410 159B     		ldr	r3, [sp, #84]
 4643              	.LVL375:
 308:../../libdaisy/src/hid/disp/display.h ****             sweep = -sweep;
 4644              		.loc 6 308 13 view .LVU1074
 4645 0412 5B42     		rsbs	r3, r3, #0
 4646 0414 1593     		str	r3, [sp, #84]
ARM GAS  /tmp/ccpr9r5K.s 			page 137


 4647              	.LVL376:
 308:../../libdaisy/src/hid/disp/display.h ****             sweep = -sweep;
 4648              		.loc 6 308 13 view .LVU1075
 4649 0416 07E6     		b	.L248
 4650              		.cfi_endproc
 4651              	.LFE4824:
 4653              		.section	.text._ZN5daisy25OneBitGraphicsDisplayImplINS_11OledDisplayINS_13SSD130xDriverILj128ELj64
 4654              		.align	1
 4655              		.p2align 2,,3
 4656              		.weak	_ZN5daisy25OneBitGraphicsDisplayImplINS_11OledDisplayINS_13SSD130xDriverILj128ELj64ENS_24SSD
 4657              		.syntax unified
 4658              		.thumb
 4659              		.thumb_func
 4660              		.fpu fpv5-d16
 4662              	_ZN5daisy25OneBitGraphicsDisplayImplINS_11OledDisplayINS_13SSD130xDriverILj128ELj64ENS_24SSD130x4Wi
 4663              	.LVL377:
 4664              	.LFB4823:
 257:../../libdaisy/src/hid/disp/display.h ****                   uint_fast8_t y1,
 4665              		.loc 6 257 10 is_stmt 1 view -0
 4666              		.cfi_startproc
 4667              		@ args = 12, pretend = 0, frame = 24
 4668              		@ frame_needed = 0, uses_anonymous_args = 0
 257:../../libdaisy/src/hid/disp/display.h ****                   uint_fast8_t y1,
 4669              		.loc 6 257 10 is_stmt 0 view .LVU1077
 4670 0000 2DE9F04F 		push	{r4, r5, r6, r7, r8, r9, r10, fp, lr}
 4671              		.cfi_def_cfa_offset 36
 4672              		.cfi_offset 4, -36
 4673              		.cfi_offset 5, -32
 4674              		.cfi_offset 6, -28
 4675              		.cfi_offset 7, -24
 4676              		.cfi_offset 8, -20
 4677              		.cfi_offset 9, -16
 4678              		.cfi_offset 10, -12
 4679              		.cfi_offset 11, -8
 4680              		.cfi_offset 14, -4
 4681 0004 87B0     		sub	sp, sp, #28
 4682              		.cfi_def_cfa_offset 64
 257:../../libdaisy/src/hid/disp/display.h ****                   uint_fast8_t y1,
 4683              		.loc 6 257 10 view .LVU1078
 4684 0006 9DF84860 		ldrb	r6, [sp, #72]	@ zero_extendqisi2
 4685 000a 109C     		ldr	r4, [sp, #64]
 4686 000c 9DF84450 		ldrb	r5, [sp, #68]	@ zero_extendqisi2
 4687 0010 0196     		str	r6, [sp, #4]
 4688              	.LBB1507:
 264:../../libdaisy/src/hid/disp/display.h ****         {
 4689              		.loc 6 264 9 view .LVU1079
 4690 0012 9EB3     		cbz	r6, .L324
 4691              	.LVL378:
 4692              	.LBB1508:
 266:../../libdaisy/src/hid/disp/display.h ****             {
 4693              		.loc 6 266 40 is_stmt 1 view .LVU1080
 4694 0014 9942     		cmp	r1, r3
 4695 0016 2ED8     		bhi	.L323
 4696 0018 9A46     		mov	r10, r3
 4697              	.LVL379:
 4698              	.L327:
 4699              	.LBB1509:
ARM GAS  /tmp/ccpr9r5K.s 			page 138


 268:../../libdaisy/src/hid/disp/display.h ****                 {
 4700              		.loc 6 268 44 view .LVU1081
 4701 001a A242     		cmp	r2, r4
 4702 001c 28D8     		bhi	.L330
 268:../../libdaisy/src/hid/disp/display.h ****                 {
 4703              		.loc 6 268 44 is_stmt 0 view .LVU1082
 4704 001e 7F29     		cmp	r1, #127
 4705 0020 1646     		mov	r6, r2
 4706 0022 94BF     		ite	ls
 4707 0024 0023     		movls	r3, #0
 4708 0026 0123     		movhi	r3, #1
 4709 0028 08E0     		b	.L331
 4710              	.LVL380:
 4711              	.L413:
 4712              	.LBB1510:
 4713              	.LBB1511:
 4714              	.LBB1512:
 244:../../libdaisy/src/dev/oled_ssd130x.h ****         else
 4715              		.loc 15 244 42 view .LVU1083
 4716 002a 9CF81490 		ldrb	r9, [ip, #20]	@ zero_extendqisi2
 4717 002e 4EEA090E 		orr	lr, lr, r9
 244:../../libdaisy/src/dev/oled_ssd130x.h ****         else
 4718              		.loc 15 244 13 view .LVU1084
 4719 0032 8CF814E0 		strb	lr, [ip, #20]
 4720              	.LVL381:
 4721              	.L328:
 244:../../libdaisy/src/dev/oled_ssd130x.h ****         else
 4722              		.loc 15 244 13 view .LVU1085
 4723              	.LBE1512:
 4724              	.LBE1511:
 4725              	.LBE1510:
 268:../../libdaisy/src/hid/disp/display.h ****                 {
 4726              		.loc 6 268 17 is_stmt 1 view .LVU1086
 4727 0036 0136     		adds	r6, r6, #1
 4728              	.LVL382:
 268:../../libdaisy/src/hid/disp/display.h ****                 {
 4729              		.loc 6 268 44 view .LVU1087
 4730 0038 B442     		cmp	r4, r6
 4731 003a 19D3     		bcc	.L330
 4732              	.L331:
 4733              	.LVL383:
 4734              	.LBB1526:
 4735              	.LBI1510:
  41:../../libdaisy/src/hid/disp/oled_display.h ****     {
 4736              		.loc 5 41 10 view .LVU1088
 4737              	.LBB1523:
 4738              	.LBI1511:
 239:../../libdaisy/src/dev/oled_ssd130x.h ****     {
 4739              		.loc 15 239 10 view .LVU1089
 4740              	.LBB1520:
 241:../../libdaisy/src/dev/oled_ssd130x.h ****             return;
 4741              		.loc 15 241 9 is_stmt 0 view .LVU1090
 4742 003c 3F2E     		cmp	r6, #63
 4743 003e FAD8     		bhi	.L328
 241:../../libdaisy/src/dev/oled_ssd130x.h ****             return;
 4744              		.loc 15 241 9 view .LVU1091
 4745 0040 002B     		cmp	r3, #0
ARM GAS  /tmp/ccpr9r5K.s 			page 139


 4746 0042 F8D1     		bne	.L328
 4747              	.LVL384:
 4748              	.LBB1513:
 4749              	.LBI1513:
 239:../../libdaisy/src/dev/oled_ssd130x.h ****     {
 4750              		.loc 15 239 10 is_stmt 1 view .LVU1092
 239:../../libdaisy/src/dev/oled_ssd130x.h ****     {
 4751              		.loc 15 239 10 is_stmt 0 view .LVU1093
 4752              	.LBE1513:
 244:../../libdaisy/src/dev/oled_ssd130x.h ****         else
 4753              		.loc 15 244 28 view .LVU1094
 4754 0044 4FEAD60C 		lsr	ip, r6, #3
 244:../../libdaisy/src/dev/oled_ssd130x.h ****         else
 4755              		.loc 15 244 54 view .LVU1095
 4756 0048 06F0070E 		and	lr, r6, #7
 244:../../libdaisy/src/dev/oled_ssd130x.h ****         else
 4757              		.loc 15 244 48 view .LVU1096
 4758 004c 4FF00109 		mov	r9, #1
 244:../../libdaisy/src/dev/oled_ssd130x.h ****         else
 4759              		.loc 15 244 42 view .LVU1097
 4760 0050 01EBCC1C 		add	ip, r1, ip, lsl #7
 244:../../libdaisy/src/dev/oled_ssd130x.h ****         else
 4761              		.loc 15 244 48 view .LVU1098
 4762 0054 09FA0EFE 		lsl	lr, r9, lr
 244:../../libdaisy/src/dev/oled_ssd130x.h ****         else
 4763              		.loc 15 244 13 view .LVU1099
 4764 0058 8444     		add	ip, ip, r0
 243:../../libdaisy/src/dev/oled_ssd130x.h ****             buffer_[x + (y / 8) * width] |= (1 << (y % 8));
 4765              		.loc 15 243 9 view .LVU1100
 4766 005a 002D     		cmp	r5, #0
 4767 005c E5D1     		bne	.L413
 4768              	.LBB1517:
 4769              	.LBB1514:
 246:../../libdaisy/src/dev/oled_ssd130x.h ****     }
 4770              		.loc 15 246 42 view .LVU1101
 4771 005e 9CF814B0 		ldrb	fp, [ip, #20]	@ zero_extendqisi2
 4772              	.LBE1514:
 4773              	.LBE1517:
 4774              	.LBE1520:
 4775              	.LBE1523:
 4776              	.LBE1526:
 268:../../libdaisy/src/hid/disp/display.h ****                 {
 4777              		.loc 6 268 17 view .LVU1102
 4778 0062 0136     		adds	r6, r6, #1
 4779              	.LVL385:
 4780              	.LBB1527:
 4781              	.LBB1524:
 4782              	.LBB1521:
 4783              	.LBB1518:
 4784              	.LBB1515:
 246:../../libdaisy/src/dev/oled_ssd130x.h ****     }
 4785              		.loc 15 246 42 view .LVU1103
 4786 0064 2BEA0E08 		bic	r8, fp, lr
 4787              	.LBE1515:
 4788              	.LBE1518:
 4789              	.LBE1521:
 4790              	.LBE1524:
ARM GAS  /tmp/ccpr9r5K.s 			page 140


 4791              	.LBE1527:
 268:../../libdaisy/src/hid/disp/display.h ****                 {
 4792              		.loc 6 268 44 view .LVU1104
 4793 0068 B442     		cmp	r4, r6
 4794              	.LBB1528:
 4795              	.LBB1525:
 4796              	.LBB1522:
 4797              	.LBB1519:
 4798              	.LBB1516:
 246:../../libdaisy/src/dev/oled_ssd130x.h ****     }
 4799              		.loc 15 246 13 view .LVU1105
 4800 006a 8CF81480 		strb	r8, [ip, #20]
 4801              	.LVL386:
 246:../../libdaisy/src/dev/oled_ssd130x.h ****     }
 4802              		.loc 15 246 13 view .LVU1106
 4803              	.LBE1516:
 4804              	.LBE1519:
 4805              	.LBE1522:
 4806              	.LBE1525:
 4807              	.LBE1528:
 268:../../libdaisy/src/hid/disp/display.h ****                 {
 4808              		.loc 6 268 17 is_stmt 1 view .LVU1107
 268:../../libdaisy/src/hid/disp/display.h ****                 {
 4809              		.loc 6 268 44 view .LVU1108
 4810 006e E5D2     		bcs	.L331
 4811              	.LVL387:
 4812              	.L330:
 268:../../libdaisy/src/hid/disp/display.h ****                 {
 4813              		.loc 6 268 44 is_stmt 0 view .LVU1109
 4814              	.LBE1509:
 266:../../libdaisy/src/hid/disp/display.h ****             {
 4815              		.loc 6 266 13 is_stmt 1 view .LVU1110
 4816 0070 0131     		adds	r1, r1, #1
 4817              	.LVL388:
 266:../../libdaisy/src/hid/disp/display.h ****             {
 4818              		.loc 6 266 40 view .LVU1111
 4819 0072 8A45     		cmp	r10, r1
 4820 0074 D1D2     		bcs	.L327
 4821              	.LVL389:
 4822              	.L323:
 266:../../libdaisy/src/hid/disp/display.h ****             {
 4823              		.loc 6 266 40 is_stmt 0 view .LVU1112
 4824              	.LBE1508:
 4825              	.LBE1507:
 281:../../libdaisy/src/hid/disp/display.h **** 
 4826              		.loc 6 281 5 view .LVU1113
 4827 0076 07B0     		add	sp, sp, #28
 4828              		.cfi_remember_state
 4829              		.cfi_def_cfa_offset 36
 4830              		@ sp needed
 4831 0078 BDE8F08F 		pop	{r4, r5, r6, r7, r8, r9, r10, fp, pc}
 4832              	.LVL390:
 4833              	.L324:
 4834              		.cfi_restore_state
 4835              	.LBB1529:
 4836              	.LBI1529:
 257:../../libdaisy/src/hid/disp/display.h ****                   uint_fast8_t y1,
ARM GAS  /tmp/ccpr9r5K.s 			page 141


 4837              		.loc 6 257 10 is_stmt 1 view .LVU1114
 4838              	.LBB1530:
 4839              	.LBI1530:
 221:../../libdaisy/src/hid/disp/display.h ****                   uint_fast8_t y1,
 4840              		.loc 6 221 10 view .LVU1115
 4841              	.LBB1531:
 227:../../libdaisy/src/hid/disp/display.h ****         int_fast16_t deltaY = abs((int_fast16_t)y2 - (int_fast16_t)y1);
 4842              		.loc 6 227 52 is_stmt 0 view .LVU1116
 4843 007c A3EB0108 		sub	r8, r3, r1
 227:../../libdaisy/src/hid/disp/display.h ****         int_fast16_t deltaY = abs((int_fast16_t)y2 - (int_fast16_t)y1);
 4844              		.loc 6 227 22 view .LVU1117
 4845 0080 B8F1000F 		cmp	r8, #0
 4846 0084 B8BF     		it	lt
 4847 0086 C8F10008 		rsblt	r8, r8, #0
 4848              	.LVL391:
 229:../../libdaisy/src/hid/disp/display.h ****         int_fast16_t signY  = ((y1 < y2) ? 1 : -1);
 4849              		.loc 6 229 22 view .LVU1118
 4850 008a 9942     		cmp	r1, r3
 4851 008c 80F05481 		bcs	.L414
 4852              	.LVL392:
 4853              	.LBB1532:
 4854              	.LBI1532:
  41:../../libdaisy/src/hid/disp/oled_display.h ****     {
 4855              		.loc 5 41 10 is_stmt 1 view .LVU1119
 4856              	.LBB1533:
 4857              	.LBI1533:
 239:../../libdaisy/src/dev/oled_ssd130x.h ****     {
 4858              		.loc 15 239 10 view .LVU1120
 4859              	.LBB1534:
 241:../../libdaisy/src/dev/oled_ssd130x.h ****             return;
 4860              		.loc 15 241 28 is_stmt 0 view .LVU1121
 4861 0090 3F2A     		cmp	r2, #63
 4862              	.LBE1534:
 4863              	.LBE1533:
 4864              	.LBE1532:
 229:../../libdaisy/src/hid/disp/display.h ****         int_fast16_t signY  = ((y1 < y2) ? 1 : -1);
 4865              		.loc 6 229 22 view .LVU1122
 4866 0092 4FF00109 		mov	r9, #1
 4867              	.LBB1543:
 4868              	.LBB1540:
 4869              	.LBB1537:
 241:../../libdaisy/src/dev/oled_ssd130x.h ****             return;
 4870              		.loc 15 241 28 view .LVU1123
 4871 0096 94BF     		ite	ls
 4872 0098 0026     		movls	r6, #0
 4873 009a 0126     		movhi	r6, #1
 241:../../libdaisy/src/dev/oled_ssd130x.h ****             return;
 4874              		.loc 15 241 14 view .LVU1124
 4875 009c 7F2B     		cmp	r3, #127
 241:../../libdaisy/src/dev/oled_ssd130x.h ****             return;
 4876              		.loc 15 241 28 view .LVU1125
 4877 009e 0296     		str	r6, [sp, #8]
 241:../../libdaisy/src/dev/oled_ssd130x.h ****             return;
 4878              		.loc 15 241 14 view .LVU1126
 4879 00a0 94BF     		ite	ls
 4880 00a2 0027     		movls	r7, #0
 4881 00a4 0127     		movhi	r7, #1
ARM GAS  /tmp/ccpr9r5K.s 			page 142


 4882 00a6 0097     		str	r7, [sp]
 241:../../libdaisy/src/dev/oled_ssd130x.h ****             return;
 4883              		.loc 15 241 9 view .LVU1127
 4884 00a8 DEB9     		cbnz	r6, .L336
 4885 00aa D7B9     		cbnz	r7, .L336
 243:../../libdaisy/src/dev/oled_ssd130x.h ****             buffer_[x + (y / 8) * width] |= (1 << (y % 8));
 4886              		.loc 15 243 9 view .LVU1128
 4887 00ac 002D     		cmp	r5, #0
 4888 00ae 00F05881 		beq	.L334
 4889              	.LVL393:
 4890              	.L417:
 243:../../libdaisy/src/dev/oled_ssd130x.h ****             buffer_[x + (y / 8) * width] |= (1 << (y % 8));
 4891              		.loc 15 243 9 view .LVU1129
 4892 00b2 0026     		movs	r6, #0
 244:../../libdaisy/src/dev/oled_ssd130x.h ****         else
 4893              		.loc 15 244 28 view .LVU1130
 4894 00b4 4FEAD20E 		lsr	lr, r2, #3
 244:../../libdaisy/src/dev/oled_ssd130x.h ****         else
 4895              		.loc 15 244 48 view .LVU1131
 4896 00b8 4FF0010C 		mov	ip, #1
 244:../../libdaisy/src/dev/oled_ssd130x.h ****         else
 4897              		.loc 15 244 54 view .LVU1132
 4898 00bc 02F00707 		and	r7, r2, #7
 244:../../libdaisy/src/dev/oled_ssd130x.h ****         else
 4899              		.loc 15 244 42 view .LVU1133
 4900 00c0 03EBCE1E 		add	lr, r3, lr, lsl #7
 4901 00c4 0296     		str	r6, [sp, #8]
 4902 00c6 0026     		movs	r6, #0
 244:../../libdaisy/src/dev/oled_ssd130x.h ****         else
 4903              		.loc 15 244 48 view .LVU1134
 4904 00c8 0CFA07F7 		lsl	r7, ip, r7
 4905 00cc 0096     		str	r6, [sp]
 244:../../libdaisy/src/dev/oled_ssd130x.h ****         else
 4906              		.loc 15 244 13 view .LVU1135
 4907 00ce 0EEB0006 		add	r6, lr, r0
 244:../../libdaisy/src/dev/oled_ssd130x.h ****         else
 4908              		.loc 15 244 42 view .LVU1136
 4909 00d2 96F814C0 		ldrb	ip, [r6, #20]	@ zero_extendqisi2
 4910 00d6 47EA0C07 		orr	r7, r7, ip
 244:../../libdaisy/src/dev/oled_ssd130x.h ****         else
 4911              		.loc 15 244 13 view .LVU1137
 4912 00da 3775     		strb	r7, [r6, #20]
 4913              	.L333:
 4914              	.LVL394:
 244:../../libdaisy/src/dev/oled_ssd130x.h ****         else
 4915              		.loc 15 244 13 view .LVU1138
 4916              	.LBE1537:
 4917              	.LBE1540:
 4918              	.LBE1543:
 239:../../libdaisy/src/hid/disp/display.h ****         {
 4919              		.loc 6 239 26 is_stmt 1 view .LVU1139
 4920 00dc 9942     		cmp	r1, r3
 4921 00de 00F09781 		beq	.L415
 4922              	.L336:
 4923              	.LVL395:
 227:../../libdaisy/src/hid/disp/display.h ****         int_fast16_t deltaY = abs((int_fast16_t)y2 - (int_fast16_t)y1);
 4924              		.loc 6 227 22 is_stmt 0 view .LVU1140
ARM GAS  /tmp/ccpr9r5K.s 			page 143


 4925 00e2 C446     		mov	ip, r8
 4926 00e4 1646     		mov	r6, r2
 4927 00e6 0F46     		mov	r7, r1
 4928              	.L338:
 4929              	.LVL396:
 4930              	.LBB1544:
 4931              	.LBI1544:
  41:../../libdaisy/src/hid/disp/oled_display.h ****     {
 4932              		.loc 5 41 10 is_stmt 1 view .LVU1141
 4933              	.LBB1545:
 4934              	.LBI1545:
 239:../../libdaisy/src/dev/oled_ssd130x.h ****     {
 4935              		.loc 15 239 10 view .LVU1142
 4936              	.LBB1546:
 241:../../libdaisy/src/dev/oled_ssd130x.h ****             return;
 4937              		.loc 15 241 9 is_stmt 0 view .LVU1143
 4938 00e8 7F2F     		cmp	r7, #127
 4939 00ea 15D8     		bhi	.L339
 4940 00ec 3F2E     		cmp	r6, #63
 4941 00ee 13D8     		bhi	.L339
 244:../../libdaisy/src/dev/oled_ssd130x.h ****         else
 4942              		.loc 15 244 28 view .LVU1144
 4943 00f0 4FEAD60E 		lsr	lr, r6, #3
 244:../../libdaisy/src/dev/oled_ssd130x.h ****         else
 4944              		.loc 15 244 48 view .LVU1145
 4945 00f4 4FF0010B 		mov	fp, #1
 244:../../libdaisy/src/dev/oled_ssd130x.h ****         else
 4946              		.loc 15 244 54 view .LVU1146
 4947 00f8 06F0070A 		and	r10, r6, #7
 244:../../libdaisy/src/dev/oled_ssd130x.h ****         else
 4948              		.loc 15 244 42 view .LVU1147
 4949 00fc 07EBCE1E 		add	lr, r7, lr, lsl #7
 244:../../libdaisy/src/dev/oled_ssd130x.h ****         else
 4950              		.loc 15 244 48 view .LVU1148
 4951 0100 0BFA0AFA 		lsl	r10, fp, r10
 244:../../libdaisy/src/dev/oled_ssd130x.h ****         else
 4952              		.loc 15 244 13 view .LVU1149
 4953 0104 8644     		add	lr, lr, r0
 244:../../libdaisy/src/dev/oled_ssd130x.h ****         else
 4954              		.loc 15 244 42 view .LVU1150
 4955 0106 9EF814B0 		ldrb	fp, [lr, #20]	@ zero_extendqisi2
 243:../../libdaisy/src/dev/oled_ssd130x.h ****             buffer_[x + (y / 8) * width] |= (1 << (y % 8));
 4956              		.loc 15 243 9 view .LVU1151
 4957 010a 002D     		cmp	r5, #0
 4958 010c 00F04581 		beq	.L340
 244:../../libdaisy/src/dev/oled_ssd130x.h ****         else
 4959              		.loc 15 244 42 view .LVU1152
 4960 0110 4AEA0B0A 		orr	r10, r10, fp
 244:../../libdaisy/src/dev/oled_ssd130x.h ****         else
 4961              		.loc 15 244 13 view .LVU1153
 4962 0114 8EF814A0 		strb	r10, [lr, #20]
 4963              	.L339:
 4964              	.LVL397:
 244:../../libdaisy/src/dev/oled_ssd130x.h ****         else
 4965              		.loc 15 244 13 view .LVU1154
 4966              	.LBE1546:
 4967              	.LBE1545:
ARM GAS  /tmp/ccpr9r5K.s 			page 144


 4968              	.LBE1544:
 243:../../libdaisy/src/hid/disp/display.h ****             {
 4969              		.loc 6 243 13 view .LVU1155
 4970 0118 5FEA4C0E 		lsls	lr, ip, #1
 4971              	.LVL398:
 246:../../libdaisy/src/hid/disp/display.h ****             }
 4972              		.loc 6 246 17 view .LVU1156
 4973 011c 18BF     		it	ne
 4974 011e 4F44     		addne	r7, r7, r9
 4975              	.LVL399:
 249:../../libdaisy/src/hid/disp/display.h ****             {
 4976              		.loc 6 249 13 view .LVU1157
 4977 0120 F045     		cmp	r8, lr
 4978 0122 01DD     		ble	.L342
 251:../../libdaisy/src/hid/disp/display.h ****                 y1 += signY;
 4979              		.loc 6 251 17 view .LVU1158
 4980 0124 C444     		add	ip, ip, r8
 4981              	.LVL400:
 252:../../libdaisy/src/hid/disp/display.h ****             }
 4982              		.loc 6 252 17 view .LVU1159
 4983 0126 013E     		subs	r6, r6, #1
 4984              	.LVL401:
 4985              	.L342:
 239:../../libdaisy/src/hid/disp/display.h ****         {
 4986              		.loc 6 239 26 is_stmt 1 view .LVU1160
 4987 0128 BB42     		cmp	r3, r7
 4988 012a DDD1     		bne	.L338
 239:../../libdaisy/src/hid/disp/display.h ****         {
 4989              		.loc 6 239 26 is_stmt 0 view .LVU1161
 4990 012c B242     		cmp	r2, r6
 4991 012e DBD1     		bne	.L338
 4992 0130 0026     		movs	r6, #0
 4993              	.LVL402:
 239:../../libdaisy/src/hid/disp/display.h ****         {
 4994              		.loc 6 239 26 view .LVU1162
 4995 0132 0496     		str	r6, [sp, #16]
 4996              	.LVL403:
 4997              	.L335:
 239:../../libdaisy/src/hid/disp/display.h ****         {
 4998              		.loc 6 239 26 view .LVU1163
 4999              	.LBE1531:
 5000              	.LBE1530:
 5001              	.LBB1557:
 5002              	.LBI1557:
 221:../../libdaisy/src/hid/disp/display.h ****                   uint_fast8_t y1,
 5003              		.loc 6 221 10 is_stmt 1 view .LVU1164
 5004              	.LBB1558:
 228:../../libdaisy/src/hid/disp/display.h ****         int_fast16_t signX  = ((x1 < x2) ? 1 : -1);
 5005              		.loc 6 228 52 is_stmt 0 view .LVU1165
 5006 0134 A4EB0209 		sub	r9, r4, r2
 228:../../libdaisy/src/hid/disp/display.h ****         int_fast16_t signX  = ((x1 < x2) ? 1 : -1);
 5007              		.loc 6 228 22 view .LVU1166
 5008 0138 B9F1000F 		cmp	r9, #0
 5009 013c B8BF     		it	lt
 5010 013e C9F10009 		rsblt	r9, r9, #0
 5011              	.LVL404:
 5012              	.LBB1559:
ARM GAS  /tmp/ccpr9r5K.s 			page 145


 5013              	.LBB1560:
 5014              	.LBB1561:
 241:../../libdaisy/src/dev/oled_ssd130x.h ****             return;
 5015              		.loc 15 241 28 view .LVU1167
 5016 0142 3F2C     		cmp	r4, #63
 5017 0144 94BF     		ite	ls
 5018 0146 0026     		movls	r6, #0
 5019 0148 0126     		movhi	r6, #1
 5020              	.LBE1561:
 5021              	.LBE1560:
 5022              	.LBE1559:
 230:../../libdaisy/src/hid/disp/display.h ****         int_fast16_t error  = deltaX - deltaY;
 5023              		.loc 6 230 22 view .LVU1168
 5024 014a A242     		cmp	r2, r4
 231:../../libdaisy/src/hid/disp/display.h ****         int_fast16_t error2;
 5025              		.loc 6 231 22 view .LVU1169
 5026 014c C9F10008 		rsb	r8, r9, #0
 5027              	.LBB1574:
 5028              	.LBB1569:
 5029              	.LBB1564:
 241:../../libdaisy/src/dev/oled_ssd130x.h ****             return;
 5030              		.loc 15 241 28 view .LVU1170
 5031 0150 0396     		str	r6, [sp, #12]
 5032              	.LBE1564:
 5033              	.LBE1569:
 5034              	.LBE1574:
 230:../../libdaisy/src/hid/disp/display.h ****         int_fast16_t error  = deltaX - deltaY;
 5035              		.loc 6 230 22 view .LVU1171
 5036 0152 C0F03181 		bcc	.L343
 5037              	.LVL405:
 5038              	.LBB1575:
 5039              	.LBI1559:
  41:../../libdaisy/src/hid/disp/oled_display.h ****     {
 5040              		.loc 5 41 10 is_stmt 1 view .LVU1172
 5041              	.LBB1570:
 5042              	.LBI1560:
 239:../../libdaisy/src/dev/oled_ssd130x.h ****     {
 5043              		.loc 15 239 10 view .LVU1173
 5044              	.LBB1565:
 241:../../libdaisy/src/dev/oled_ssd130x.h ****             return;
 5045              		.loc 15 241 9 is_stmt 0 view .LVU1174
 5046 0156 002E     		cmp	r6, #0
 5047 0158 40F05381 		bne	.L378
 5048 015c 009E     		ldr	r6, [sp]
 5049 015e 002E     		cmp	r6, #0
 5050 0160 40F04F81 		bne	.L378
 5051              	.LBE1565:
 5052              	.LBE1570:
 5053              	.LBE1575:
 230:../../libdaisy/src/hid/disp/display.h ****         int_fast16_t error  = deltaX - deltaY;
 5054              		.loc 6 230 22 view .LVU1175
 5055 0164 4FF0FF36 		mov	r6, #-1
 5056 0168 0096     		str	r6, [sp]
 5057              	.LBB1576:
 5058              	.LBB1571:
 5059              	.LBB1566:
 243:../../libdaisy/src/dev/oled_ssd130x.h ****             buffer_[x + (y / 8) * width] |= (1 << (y % 8));
ARM GAS  /tmp/ccpr9r5K.s 			page 146


 5060              		.loc 15 243 9 view .LVU1176
 5061 016a 002D     		cmp	r5, #0
 5062 016c 00F02C81 		beq	.L345
 5063              	.LVL406:
 5064              	.L418:
 243:../../libdaisy/src/dev/oled_ssd130x.h ****             buffer_[x + (y / 8) * width] |= (1 << (y % 8));
 5065              		.loc 15 243 9 view .LVU1177
 5066 0170 0026     		movs	r6, #0
 244:../../libdaisy/src/dev/oled_ssd130x.h ****         else
 5067              		.loc 15 244 28 view .LVU1178
 5068 0172 4FEAD40E 		lsr	lr, r4, #3
 244:../../libdaisy/src/dev/oled_ssd130x.h ****         else
 5069              		.loc 15 244 48 view .LVU1179
 5070 0176 4FF0010C 		mov	ip, #1
 244:../../libdaisy/src/dev/oled_ssd130x.h ****         else
 5071              		.loc 15 244 54 view .LVU1180
 5072 017a 04F00707 		and	r7, r4, #7
 5073 017e 0396     		str	r6, [sp, #12]
 244:../../libdaisy/src/dev/oled_ssd130x.h ****         else
 5074              		.loc 15 244 42 view .LVU1181
 5075 0180 03EBCE16 		add	r6, r3, lr, lsl #7
 244:../../libdaisy/src/dev/oled_ssd130x.h ****         else
 5076              		.loc 15 244 48 view .LVU1182
 5077 0184 0CFA07F7 		lsl	r7, ip, r7
 244:../../libdaisy/src/dev/oled_ssd130x.h ****         else
 5078              		.loc 15 244 13 view .LVU1183
 5079 0188 0644     		add	r6, r6, r0
 244:../../libdaisy/src/dev/oled_ssd130x.h ****         else
 5080              		.loc 15 244 42 view .LVU1184
 5081 018a 96F814C0 		ldrb	ip, [r6, #20]	@ zero_extendqisi2
 5082 018e 47EA0C07 		orr	r7, r7, ip
 244:../../libdaisy/src/dev/oled_ssd130x.h ****         else
 5083              		.loc 15 244 13 view .LVU1185
 5084 0192 3775     		strb	r7, [r6, #20]
 5085              	.L344:
 5086              	.LVL407:
 244:../../libdaisy/src/dev/oled_ssd130x.h ****         else
 5087              		.loc 15 244 13 view .LVU1186
 5088              	.LBE1566:
 5089              	.LBE1571:
 5090              	.LBE1576:
 239:../../libdaisy/src/hid/disp/display.h ****         {
 5091              		.loc 6 239 26 is_stmt 1 view .LVU1187
 5092 0194 A242     		cmp	r2, r4
 5093 0196 00F03E81 		beq	.L416
 5094              	.L347:
 5095              	.LVL408:
 230:../../libdaisy/src/hid/disp/display.h ****         int_fast16_t error  = deltaX - deltaY;
 5096              		.loc 6 230 22 is_stmt 0 view .LVU1188
 5097 019a C446     		mov	ip, r8
 5098 019c 1646     		mov	r6, r2
 5099 019e 1F46     		mov	r7, r3
 5100 01a0 0592     		str	r2, [sp, #20]
 5101              	.LVL409:
 5102              	.L349:
 5103              	.LBB1577:
 5104              	.LBI1577:
ARM GAS  /tmp/ccpr9r5K.s 			page 147


  41:../../libdaisy/src/hid/disp/oled_display.h ****     {
 5105              		.loc 5 41 10 is_stmt 1 view .LVU1189
 5106              	.LBB1578:
 5107              	.LBI1578:
 239:../../libdaisy/src/dev/oled_ssd130x.h ****     {
 5108              		.loc 15 239 10 view .LVU1190
 5109              	.LBB1579:
 241:../../libdaisy/src/dev/oled_ssd130x.h ****             return;
 5110              		.loc 15 241 9 is_stmt 0 view .LVU1191
 5111 01a2 7F2F     		cmp	r7, #127
 5112 01a4 15D8     		bhi	.L350
 5113 01a6 3F2E     		cmp	r6, #63
 5114 01a8 13D8     		bhi	.L350
 244:../../libdaisy/src/dev/oled_ssd130x.h ****         else
 5115              		.loc 15 244 28 view .LVU1192
 5116 01aa 4FEAD60E 		lsr	lr, r6, #3
 244:../../libdaisy/src/dev/oled_ssd130x.h ****         else
 5117              		.loc 15 244 48 view .LVU1193
 5118 01ae 4FF0010B 		mov	fp, #1
 244:../../libdaisy/src/dev/oled_ssd130x.h ****         else
 5119              		.loc 15 244 54 view .LVU1194
 5120 01b2 06F0070A 		and	r10, r6, #7
 244:../../libdaisy/src/dev/oled_ssd130x.h ****         else
 5121              		.loc 15 244 42 view .LVU1195
 5122 01b6 07EBCE1E 		add	lr, r7, lr, lsl #7
 244:../../libdaisy/src/dev/oled_ssd130x.h ****         else
 5123              		.loc 15 244 48 view .LVU1196
 5124 01ba 0BFA0AFA 		lsl	r10, fp, r10
 244:../../libdaisy/src/dev/oled_ssd130x.h ****         else
 5125              		.loc 15 244 13 view .LVU1197
 5126 01be 8644     		add	lr, lr, r0
 244:../../libdaisy/src/dev/oled_ssd130x.h ****         else
 5127              		.loc 15 244 42 view .LVU1198
 5128 01c0 9EF814B0 		ldrb	fp, [lr, #20]	@ zero_extendqisi2
 243:../../libdaisy/src/dev/oled_ssd130x.h ****             buffer_[x + (y / 8) * width] |= (1 << (y % 8));
 5129              		.loc 15 243 9 view .LVU1199
 5130 01c4 002D     		cmp	r5, #0
 5131 01c6 00F0ED80 		beq	.L351
 244:../../libdaisy/src/dev/oled_ssd130x.h ****         else
 5132              		.loc 15 244 42 view .LVU1200
 5133 01ca 4AEA0B0A 		orr	r10, r10, fp
 244:../../libdaisy/src/dev/oled_ssd130x.h ****         else
 5134              		.loc 15 244 13 view .LVU1201
 5135 01ce 8EF814A0 		strb	r10, [lr, #20]
 5136              	.L350:
 5137              	.LVL410:
 244:../../libdaisy/src/dev/oled_ssd130x.h ****         else
 5138              		.loc 15 244 13 view .LVU1202
 5139              	.LBE1579:
 5140              	.LBE1578:
 5141              	.LBE1577:
 243:../../libdaisy/src/hid/disp/display.h ****             {
 5142              		.loc 6 243 13 view .LVU1203
 5143 01d2 B8EB4C0F 		cmp	r8, ip, lsl #1
 242:../../libdaisy/src/hid/disp/display.h ****             if(error2 > -deltaY)
 5144              		.loc 6 242 13 view .LVU1204
 5145 01d6 4FEA4C0E 		lsl	lr, ip, #1
ARM GAS  /tmp/ccpr9r5K.s 			page 148


 5146              	.LVL411:
 243:../../libdaisy/src/hid/disp/display.h ****             {
 5147              		.loc 6 243 13 view .LVU1205
 5148 01da 02DA     		bge	.L352
 245:../../libdaisy/src/hid/disp/display.h ****                 x1 += signX;
 5149              		.loc 6 245 17 view .LVU1206
 5150 01dc ACEB090C 		sub	ip, ip, r9
 5151              	.LVL412:
 246:../../libdaisy/src/hid/disp/display.h ****             }
 5152              		.loc 6 246 17 view .LVU1207
 5153 01e0 013F     		subs	r7, r7, #1
 5154              	.LVL413:
 5155              	.L352:
 249:../../libdaisy/src/hid/disp/display.h ****             {
 5156              		.loc 6 249 13 view .LVU1208
 5157 01e2 BEF1000F 		cmp	lr, #0
 5158 01e6 01D0     		beq	.L353
 252:../../libdaisy/src/hid/disp/display.h ****             }
 5159              		.loc 6 252 17 view .LVU1209
 5160 01e8 009A     		ldr	r2, [sp]
 5161 01ea 1644     		add	r6, r6, r2
 5162              	.LVL414:
 5163              	.L353:
 239:../../libdaisy/src/hid/disp/display.h ****         {
 5164              		.loc 6 239 26 is_stmt 1 view .LVU1210
 5165 01ec BB42     		cmp	r3, r7
 5166 01ee D8D1     		bne	.L349
 239:../../libdaisy/src/hid/disp/display.h ****         {
 5167              		.loc 6 239 26 is_stmt 0 view .LVU1211
 5168 01f0 B442     		cmp	r4, r6
 5169 01f2 D6D1     		bne	.L349
 5170 01f4 059A     		ldr	r2, [sp, #20]
 5171              	.LVL415:
 5172              	.L346:
 239:../../libdaisy/src/hid/disp/display.h ****         {
 5173              		.loc 6 239 26 view .LVU1212
 5174              	.LBE1558:
 5175              	.LBE1557:
 5176              	.LBB1591:
 5177              	.LBI1591:
 221:../../libdaisy/src/hid/disp/display.h ****                   uint_fast8_t y1,
 5178              		.loc 6 221 10 is_stmt 1 view .LVU1213
 5179              	.LBB1592:
 5180              	.LBB1593:
 5181              	.LBB1594:
 5182              	.LBB1595:
 241:../../libdaisy/src/dev/oled_ssd130x.h ****             return;
 5183              		.loc 15 241 14 is_stmt 0 view .LVU1214
 5184 01f6 7F29     		cmp	r1, #127
 5185              	.LBE1595:
 5186              	.LBE1594:
 5187              	.LBE1593:
 227:../../libdaisy/src/hid/disp/display.h ****         int_fast16_t deltaY = abs((int_fast16_t)y2 - (int_fast16_t)y1);
 5188              		.loc 6 227 52 view .LVU1215
 5189 01f8 A1EB030E 		sub	lr, r1, r3
 5190              	.LBB1604:
 5191              	.LBB1601:
ARM GAS  /tmp/ccpr9r5K.s 			page 149


 5192              	.LBB1598:
 241:../../libdaisy/src/dev/oled_ssd130x.h ****             return;
 5193              		.loc 15 241 14 view .LVU1216
 5194 01fc 94BF     		ite	ls
 5195 01fe 4FF00009 		movls	r9, #0
 5196 0202 4FF00109 		movhi	r9, #1
 5197              	.LBE1598:
 5198              	.LBE1601:
 5199              	.LBE1604:
 229:../../libdaisy/src/hid/disp/display.h ****         int_fast16_t signY  = ((y1 < y2) ? 1 : -1);
 5200              		.loc 6 229 22 view .LVU1217
 5201 0206 9942     		cmp	r1, r3
 5202 0208 8CBF     		ite	hi
 5203 020a 4FF00108 		movhi	r8, #1
 5204 020e 4FF0FF38 		movls	r8, #-1
 227:../../libdaisy/src/hid/disp/display.h ****         int_fast16_t deltaY = abs((int_fast16_t)y2 - (int_fast16_t)y1);
 5205              		.loc 6 227 22 view .LVU1218
 5206 0212 BEF1000F 		cmp	lr, #0
 5207 0216 B8BF     		it	lt
 5208 0218 CEF1000E 		rsblt	lr, lr, #0
 5209              	.LVL416:
 5210              	.LBB1605:
 5211              	.LBI1593:
  41:../../libdaisy/src/hid/disp/oled_display.h ****     {
 5212              		.loc 5 41 10 is_stmt 1 view .LVU1219
 5213              	.LBB1602:
 5214              	.LBI1594:
 239:../../libdaisy/src/dev/oled_ssd130x.h ****     {
 5215              		.loc 15 239 10 view .LVU1220
 5216              	.LBB1599:
 241:../../libdaisy/src/dev/oled_ssd130x.h ****             return;
 5217              		.loc 15 241 9 is_stmt 0 view .LVU1221
 5218 021c B9F1000F 		cmp	r9, #0
 5219 0220 13D1     		bne	.L355
 5220 0222 039E     		ldr	r6, [sp, #12]
 5221 0224 8EB9     		cbnz	r6, .L355
 244:../../libdaisy/src/dev/oled_ssd130x.h ****         else
 5222              		.loc 15 244 28 view .LVU1222
 5223 0226 E608     		lsrs	r6, r4, #3
 244:../../libdaisy/src/dev/oled_ssd130x.h ****         else
 5224              		.loc 15 244 48 view .LVU1223
 5225 0228 4FF0010C 		mov	ip, #1
 244:../../libdaisy/src/dev/oled_ssd130x.h ****         else
 5226              		.loc 15 244 54 view .LVU1224
 5227 022c 04F00707 		and	r7, r4, #7
 244:../../libdaisy/src/dev/oled_ssd130x.h ****         else
 5228              		.loc 15 244 42 view .LVU1225
 5229 0230 01EBC616 		add	r6, r1, r6, lsl #7
 244:../../libdaisy/src/dev/oled_ssd130x.h ****         else
 5230              		.loc 15 244 48 view .LVU1226
 5231 0234 0CFA07F7 		lsl	r7, ip, r7
 244:../../libdaisy/src/dev/oled_ssd130x.h ****         else
 5232              		.loc 15 244 13 view .LVU1227
 5233 0238 0644     		add	r6, r6, r0
 244:../../libdaisy/src/dev/oled_ssd130x.h ****         else
 5234              		.loc 15 244 42 view .LVU1228
 5235 023a 96F814C0 		ldrb	ip, [r6, #20]	@ zero_extendqisi2
ARM GAS  /tmp/ccpr9r5K.s 			page 150


 243:../../libdaisy/src/dev/oled_ssd130x.h ****             buffer_[x + (y / 8) * width] |= (1 << (y % 8));
 5236              		.loc 15 243 9 view .LVU1229
 5237 023e 002D     		cmp	r5, #0
 5238 0240 00F0DB80 		beq	.L356
 244:../../libdaisy/src/dev/oled_ssd130x.h ****         else
 5239              		.loc 15 244 42 view .LVU1230
 5240 0244 47EA0C07 		orr	r7, r7, ip
 244:../../libdaisy/src/dev/oled_ssd130x.h ****         else
 5241              		.loc 15 244 13 view .LVU1231
 5242 0248 3775     		strb	r7, [r6, #20]
 5243              	.L355:
 5244              	.LVL417:
 244:../../libdaisy/src/dev/oled_ssd130x.h ****         else
 5245              		.loc 15 244 13 view .LVU1232
 5246              	.LBE1599:
 5247              	.LBE1602:
 5248              	.LBE1605:
 239:../../libdaisy/src/hid/disp/display.h ****         {
 5249              		.loc 6 239 26 is_stmt 1 view .LVU1233
 5250 024a 049E     		ldr	r6, [sp, #16]
 5251 024c 2EBB     		cbnz	r6, .L357
 227:../../libdaisy/src/hid/disp/display.h ****         int_fast16_t deltaY = abs((int_fast16_t)y2 - (int_fast16_t)y1);
 5252              		.loc 6 227 22 is_stmt 0 view .LVU1234
 5253 024e 7746     		mov	r7, lr
 239:../../libdaisy/src/hid/disp/display.h ****         {
 5254              		.loc 6 239 26 view .LVU1235
 5255 0250 2646     		mov	r6, r4
 5256              	.LVL418:
 5257              	.L358:
 5258              	.LBB1606:
 5259              	.LBI1606:
  41:../../libdaisy/src/hid/disp/oled_display.h ****     {
 5260              		.loc 5 41 10 is_stmt 1 view .LVU1236
 5261              	.LBB1607:
 5262              	.LBI1607:
 239:../../libdaisy/src/dev/oled_ssd130x.h ****     {
 5263              		.loc 15 239 10 view .LVU1237
 5264              	.LBB1608:
 241:../../libdaisy/src/dev/oled_ssd130x.h ****             return;
 5265              		.loc 15 241 9 is_stmt 0 view .LVU1238
 5266 0252 7F2B     		cmp	r3, #127
 5267 0254 15D8     		bhi	.L360
 241:../../libdaisy/src/dev/oled_ssd130x.h ****             return;
 5268              		.loc 15 241 9 view .LVU1239
 5269 0256 3F2E     		cmp	r6, #63
 5270 0258 13D8     		bhi	.L360
 244:../../libdaisy/src/dev/oled_ssd130x.h ****         else
 5271              		.loc 15 244 28 view .LVU1240
 5272 025a 4FEAD60C 		lsr	ip, r6, #3
 244:../../libdaisy/src/dev/oled_ssd130x.h ****         else
 5273              		.loc 15 244 48 view .LVU1241
 5274 025e 4FF0010B 		mov	fp, #1
 244:../../libdaisy/src/dev/oled_ssd130x.h ****         else
 5275              		.loc 15 244 54 view .LVU1242
 5276 0262 06F0070A 		and	r10, r6, #7
 244:../../libdaisy/src/dev/oled_ssd130x.h ****         else
 5277              		.loc 15 244 42 view .LVU1243
ARM GAS  /tmp/ccpr9r5K.s 			page 151


 5278 0266 03EBCC1C 		add	ip, r3, ip, lsl #7
 244:../../libdaisy/src/dev/oled_ssd130x.h ****         else
 5279              		.loc 15 244 48 view .LVU1244
 5280 026a 0BFA0AFA 		lsl	r10, fp, r10
 244:../../libdaisy/src/dev/oled_ssd130x.h ****         else
 5281              		.loc 15 244 13 view .LVU1245
 5282 026e 8444     		add	ip, ip, r0
 244:../../libdaisy/src/dev/oled_ssd130x.h ****         else
 5283              		.loc 15 244 42 view .LVU1246
 5284 0270 9CF814B0 		ldrb	fp, [ip, #20]	@ zero_extendqisi2
 243:../../libdaisy/src/dev/oled_ssd130x.h ****             buffer_[x + (y / 8) * width] |= (1 << (y % 8));
 5285              		.loc 15 243 9 view .LVU1247
 5286 0274 002D     		cmp	r5, #0
 5287 0276 00F09A80 		beq	.L361
 244:../../libdaisy/src/dev/oled_ssd130x.h ****         else
 5288              		.loc 15 244 42 view .LVU1248
 5289 027a 4AEA0B0A 		orr	r10, r10, fp
 244:../../libdaisy/src/dev/oled_ssd130x.h ****         else
 5290              		.loc 15 244 13 view .LVU1249
 5291 027e 8CF814A0 		strb	r10, [ip, #20]
 5292              	.L360:
 5293              	.LVL419:
 244:../../libdaisy/src/dev/oled_ssd130x.h ****         else
 5294              		.loc 15 244 13 view .LVU1250
 5295              	.LBE1608:
 5296              	.LBE1607:
 5297              	.LBE1606:
 243:../../libdaisy/src/hid/disp/display.h ****             {
 5298              		.loc 6 243 13 view .LVU1251
 5299 0282 5FEA470C 		lsls	ip, r7, #1
 5300              	.LVL420:
 246:../../libdaisy/src/hid/disp/display.h ****             }
 5301              		.loc 6 246 17 view .LVU1252
 5302 0286 18BF     		it	ne
 5303 0288 4344     		addne	r3, r3, r8
 5304              	.LVL421:
 249:../../libdaisy/src/hid/disp/display.h ****             {
 5305              		.loc 6 249 13 view .LVU1253
 5306 028a E645     		cmp	lr, ip
 5307 028c 01DD     		ble	.L363
 251:../../libdaisy/src/hid/disp/display.h ****                 y1 += signY;
 5308              		.loc 6 251 17 view .LVU1254
 5309 028e 7744     		add	r7, r7, lr
 5310              	.LVL422:
 252:../../libdaisy/src/hid/disp/display.h ****             }
 5311              		.loc 6 252 17 view .LVU1255
 5312 0290 013E     		subs	r6, r6, #1
 5313              	.LVL423:
 5314              	.L363:
 239:../../libdaisy/src/hid/disp/display.h ****         {
 5315              		.loc 6 239 26 is_stmt 1 view .LVU1256
 5316 0292 9942     		cmp	r1, r3
 5317 0294 DDD1     		bne	.L358
 239:../../libdaisy/src/hid/disp/display.h ****         {
 5318              		.loc 6 239 26 is_stmt 0 view .LVU1257
 5319 0296 B442     		cmp	r4, r6
 5320 0298 DBD1     		bne	.L358
ARM GAS  /tmp/ccpr9r5K.s 			page 152


 5321              	.LVL424:
 5322              	.L357:
 239:../../libdaisy/src/hid/disp/display.h ****         {
 5323              		.loc 6 239 26 view .LVU1258
 5324              	.LBE1592:
 5325              	.LBE1591:
 5326              	.LBB1617:
 5327              	.LBI1617:
 221:../../libdaisy/src/hid/disp/display.h ****                   uint_fast8_t y1,
 5328              		.loc 6 221 10 is_stmt 1 view .LVU1259
 5329              	.LBB1618:
 228:../../libdaisy/src/hid/disp/display.h ****         int_fast16_t signX  = ((x1 < x2) ? 1 : -1);
 5330              		.loc 6 228 52 is_stmt 0 view .LVU1260
 5331 029a A2EB040E 		sub	lr, r2, r4
 230:../../libdaisy/src/hid/disp/display.h ****         int_fast16_t error  = deltaX - deltaY;
 5332              		.loc 6 230 22 view .LVU1261
 5333 029e A242     		cmp	r2, r4
 5334 02a0 8CBF     		ite	hi
 5335 02a2 4FF00108 		movhi	r8, #1
 5336 02a6 4FF0FF38 		movls	r8, #-1
 5337              	.LVL425:
 228:../../libdaisy/src/hid/disp/display.h ****         int_fast16_t signX  = ((x1 < x2) ? 1 : -1);
 5338              		.loc 6 228 22 view .LVU1262
 5339 02aa BEF1000F 		cmp	lr, #0
 5340 02ae B8BF     		it	lt
 5341 02b0 CEF1000E 		rsblt	lr, lr, #0
 5342              	.LVL426:
 231:../../libdaisy/src/hid/disp/display.h ****         int_fast16_t error2;
 5343              		.loc 6 231 22 view .LVU1263
 5344 02b4 CEF1000C 		rsb	ip, lr, #0
 5345              	.LVL427:
 5346              	.LBB1619:
 5347              	.LBI1619:
  41:../../libdaisy/src/hid/disp/oled_display.h ****     {
 5348              		.loc 5 41 10 is_stmt 1 view .LVU1264
 5349              	.LBB1620:
 5350              	.LBI1620:
 239:../../libdaisy/src/dev/oled_ssd130x.h ****     {
 5351              		.loc 15 239 10 view .LVU1265
 5352              	.LBB1621:
 241:../../libdaisy/src/dev/oled_ssd130x.h ****             return;
 5353              		.loc 15 241 9 is_stmt 0 view .LVU1266
 5354 02b8 B9F1000F 		cmp	r9, #0
 5355 02bc 0FD1     		bne	.L365
 5356 02be 029B     		ldr	r3, [sp, #8]
 5357 02c0 6BB9     		cbnz	r3, .L365
 244:../../libdaisy/src/dev/oled_ssd130x.h ****         else
 5358              		.loc 15 244 28 view .LVU1267
 5359 02c2 D308     		lsrs	r3, r2, #3
 244:../../libdaisy/src/dev/oled_ssd130x.h ****         else
 5360              		.loc 15 244 54 view .LVU1268
 5361 02c4 02F00707 		and	r7, r2, #7
 244:../../libdaisy/src/dev/oled_ssd130x.h ****         else
 5362              		.loc 15 244 48 view .LVU1269
 5363 02c8 0126     		movs	r6, #1
 244:../../libdaisy/src/dev/oled_ssd130x.h ****         else
 5364              		.loc 15 244 42 view .LVU1270
ARM GAS  /tmp/ccpr9r5K.s 			page 153


 5365 02ca 01EBC313 		add	r3, r1, r3, lsl #7
 243:../../libdaisy/src/dev/oled_ssd130x.h ****             buffer_[x + (y / 8) * width] |= (1 << (y % 8));
 5366              		.loc 15 243 9 view .LVU1271
 5367 02ce 002D     		cmp	r5, #0
 5368 02d0 00F08B80 		beq	.L366
 244:../../libdaisy/src/dev/oled_ssd130x.h ****         else
 5369              		.loc 15 244 13 view .LVU1272
 5370 02d4 0344     		add	r3, r3, r0
 244:../../libdaisy/src/dev/oled_ssd130x.h ****         else
 5371              		.loc 15 244 48 view .LVU1273
 5372 02d6 BE40     		lsls	r6, r6, r7
 244:../../libdaisy/src/dev/oled_ssd130x.h ****         else
 5373              		.loc 15 244 42 view .LVU1274
 5374 02d8 1F7D     		ldrb	r7, [r3, #20]	@ zero_extendqisi2
 5375 02da 3E43     		orrs	r6, r6, r7
 244:../../libdaisy/src/dev/oled_ssd130x.h ****         else
 5376              		.loc 15 244 13 view .LVU1275
 5377 02dc 1E75     		strb	r6, [r3, #20]
 5378              	.L365:
 5379              	.LVL428:
 244:../../libdaisy/src/dev/oled_ssd130x.h ****         else
 5380              		.loc 15 244 13 view .LVU1276
 5381              	.LBE1621:
 5382              	.LBE1620:
 5383              	.LBE1619:
 239:../../libdaisy/src/hid/disp/display.h ****         {
 5384              		.loc 6 239 26 is_stmt 1 view .LVU1277
 5385 02de 019B     		ldr	r3, [sp, #4]
 5386 02e0 002B     		cmp	r3, #0
 5387 02e2 7FF4C8AE 		bne	.L323
 5388 02e6 6646     		mov	r6, ip
 5389 02e8 0B46     		mov	r3, r1
 5390              	.LVL429:
 5391              	.L367:
 5392              	.LBB1626:
 5393              	.LBI1626:
  41:../../libdaisy/src/hid/disp/oled_display.h ****     {
 5394              		.loc 5 41 10 view .LVU1278
 5395              	.LBB1627:
 5396              	.LBI1627:
 239:../../libdaisy/src/dev/oled_ssd130x.h ****     {
 5397              		.loc 15 239 10 view .LVU1279
 5398              	.LBB1628:
 241:../../libdaisy/src/dev/oled_ssd130x.h ****             return;
 5399              		.loc 15 241 9 is_stmt 0 view .LVU1280
 5400 02ea 7F2B     		cmp	r3, #127
 5401 02ec 13D8     		bhi	.L369
 241:../../libdaisy/src/dev/oled_ssd130x.h ****             return;
 5402              		.loc 15 241 9 view .LVU1281
 5403 02ee 3F2C     		cmp	r4, #63
 5404 02f0 11D8     		bhi	.L369
 244:../../libdaisy/src/dev/oled_ssd130x.h ****         else
 5405              		.loc 15 244 28 view .LVU1282
 5406 02f2 E708     		lsrs	r7, r4, #3
 244:../../libdaisy/src/dev/oled_ssd130x.h ****         else
 5407              		.loc 15 244 54 view .LVU1283
 5408 02f4 04F0070A 		and	r10, r4, #7
ARM GAS  /tmp/ccpr9r5K.s 			page 154


 244:../../libdaisy/src/dev/oled_ssd130x.h ****         else
 5409              		.loc 15 244 48 view .LVU1284
 5410 02f8 4FF00109 		mov	r9, #1
 244:../../libdaisy/src/dev/oled_ssd130x.h ****         else
 5411              		.loc 15 244 42 view .LVU1285
 5412 02fc 03EBC717 		add	r7, r3, r7, lsl #7
 243:../../libdaisy/src/dev/oled_ssd130x.h ****             buffer_[x + (y / 8) * width] |= (1 << (y % 8));
 5413              		.loc 15 243 9 view .LVU1286
 5414 0300 002D     		cmp	r5, #0
 5415 0302 40D0     		beq	.L370
 244:../../libdaisy/src/dev/oled_ssd130x.h ****         else
 5416              		.loc 15 244 13 view .LVU1287
 5417 0304 0744     		add	r7, r7, r0
 244:../../libdaisy/src/dev/oled_ssd130x.h ****         else
 5418              		.loc 15 244 48 view .LVU1288
 5419 0306 09FA0AF9 		lsl	r9, r9, r10
 244:../../libdaisy/src/dev/oled_ssd130x.h ****         else
 5420              		.loc 15 244 42 view .LVU1289
 5421 030a 97F814A0 		ldrb	r10, [r7, #20]	@ zero_extendqisi2
 5422 030e 49EA0A09 		orr	r9, r9, r10
 244:../../libdaisy/src/dev/oled_ssd130x.h ****         else
 5423              		.loc 15 244 13 view .LVU1290
 5424 0312 87F81490 		strb	r9, [r7, #20]
 5425              	.L369:
 5426              	.LVL430:
 244:../../libdaisy/src/dev/oled_ssd130x.h ****         else
 5427              		.loc 15 244 13 view .LVU1291
 5428              	.LBE1628:
 5429              	.LBE1627:
 5430              	.LBE1626:
 243:../../libdaisy/src/hid/disp/display.h ****             {
 5431              		.loc 6 243 13 view .LVU1292
 5432 0316 BCEB460F 		cmp	ip, r6, lsl #1
 242:../../libdaisy/src/hid/disp/display.h ****             if(error2 > -deltaY)
 5433              		.loc 6 242 13 view .LVU1293
 5434 031a 4FEA4607 		lsl	r7, r6, #1
 5435              	.LVL431:
 243:../../libdaisy/src/hid/disp/display.h ****             {
 5436              		.loc 6 243 13 view .LVU1294
 5437 031e 02DA     		bge	.L371
 245:../../libdaisy/src/hid/disp/display.h ****                 x1 += signX;
 5438              		.loc 6 245 17 view .LVU1295
 5439 0320 A6EB0E06 		sub	r6, r6, lr
 5440              	.LVL432:
 246:../../libdaisy/src/hid/disp/display.h ****             }
 5441              		.loc 6 246 17 view .LVU1296
 5442 0324 013B     		subs	r3, r3, #1
 5443              	.LVL433:
 5444              	.L371:
 249:../../libdaisy/src/hid/disp/display.h ****             {
 5445              		.loc 6 249 13 view .LVU1297
 5446 0326 07B1     		cbz	r7, .L372
 252:../../libdaisy/src/hid/disp/display.h ****             }
 5447              		.loc 6 252 17 view .LVU1298
 5448 0328 4444     		add	r4, r4, r8
 5449              	.LVL434:
 5450              	.L372:
ARM GAS  /tmp/ccpr9r5K.s 			page 155


 239:../../libdaisy/src/hid/disp/display.h ****         {
 5451              		.loc 6 239 26 is_stmt 1 view .LVU1299
 5452 032a 9942     		cmp	r1, r3
 5453 032c DDD1     		bne	.L367
 239:../../libdaisy/src/hid/disp/display.h ****         {
 5454              		.loc 6 239 26 is_stmt 0 view .LVU1300
 5455 032e A242     		cmp	r2, r4
 5456 0330 DBD1     		bne	.L367
 5457              	.LBE1618:
 5458              	.LBE1617:
 5459              	.LBE1529:
 281:../../libdaisy/src/hid/disp/display.h **** 
 5460              		.loc 6 281 5 view .LVU1301
 5461 0332 07B0     		add	sp, sp, #28
 5462              		.cfi_remember_state
 5463              		.cfi_def_cfa_offset 36
 5464              		@ sp needed
 5465 0334 BDE8F08F 		pop	{r4, r5, r6, r7, r8, r9, r10, fp, pc}
 5466              	.LVL435:
 5467              	.L414:
 5468              		.cfi_restore_state
 5469              	.LBB1648:
 5470              	.LBB1637:
 5471              	.LBB1554:
 5472              	.LBB1551:
  41:../../libdaisy/src/hid/disp/oled_display.h ****     {
 5473              		.loc 5 41 10 is_stmt 1 view .LVU1302
 5474              	.LBB1541:
 239:../../libdaisy/src/dev/oled_ssd130x.h ****     {
 5475              		.loc 15 239 10 view .LVU1303
 5476              	.LBB1538:
 241:../../libdaisy/src/dev/oled_ssd130x.h ****             return;
 5477              		.loc 15 241 14 is_stmt 0 view .LVU1304
 5478 0338 7F2B     		cmp	r3, #127
 5479              	.LBE1538:
 5480              	.LBE1541:
 5481              	.LBE1551:
 229:../../libdaisy/src/hid/disp/display.h ****         int_fast16_t signY  = ((y1 < y2) ? 1 : -1);
 5482              		.loc 6 229 22 view .LVU1305
 5483 033a 4FF0FF39 		mov	r9, #-1
 5484              	.LBB1552:
 5485              	.LBB1542:
 5486              	.LBB1539:
 241:../../libdaisy/src/dev/oled_ssd130x.h ****             return;
 5487              		.loc 15 241 14 view .LVU1306
 5488 033e 94BF     		ite	ls
 5489 0340 0026     		movls	r6, #0
 5490 0342 0126     		movhi	r6, #1
 241:../../libdaisy/src/dev/oled_ssd130x.h ****             return;
 5491              		.loc 15 241 28 view .LVU1307
 5492 0344 3F2A     		cmp	r2, #63
 241:../../libdaisy/src/dev/oled_ssd130x.h ****             return;
 5493              		.loc 15 241 14 view .LVU1308
 5494 0346 0096     		str	r6, [sp]
 241:../../libdaisy/src/dev/oled_ssd130x.h ****             return;
 5495              		.loc 15 241 28 view .LVU1309
 5496 0348 94BF     		ite	ls
ARM GAS  /tmp/ccpr9r5K.s 			page 156


 5497 034a 0027     		movls	r7, #0
 5498 034c 0127     		movhi	r7, #1
 5499 034e 0297     		str	r7, [sp, #8]
 241:../../libdaisy/src/dev/oled_ssd130x.h ****             return;
 5500              		.loc 15 241 9 view .LVU1310
 5501 0350 002E     		cmp	r6, #0
 5502 0352 7FF4C3AE 		bne	.L333
 5503 0356 002F     		cmp	r7, #0
 5504 0358 7FF4C0AE 		bne	.L333
 243:../../libdaisy/src/dev/oled_ssd130x.h ****             buffer_[x + (y / 8) * width] |= (1 << (y % 8));
 5505              		.loc 15 243 9 view .LVU1311
 5506 035c 002D     		cmp	r5, #0
 5507 035e 7FF4A8AE 		bne	.L417
 5508              	.LVL436:
 5509              	.L334:
 5510              	.LBB1535:
 5511              	.LBI1535:
 239:../../libdaisy/src/dev/oled_ssd130x.h ****     {
 5512              		.loc 15 239 10 is_stmt 1 view .LVU1312
 5513              	.LBB1536:
 246:../../libdaisy/src/dev/oled_ssd130x.h ****     }
 5514              		.loc 15 246 28 is_stmt 0 view .LVU1313
 5515 0362 D608     		lsrs	r6, r2, #3
 246:../../libdaisy/src/dev/oled_ssd130x.h ****     }
 5516              		.loc 15 246 49 view .LVU1314
 5517 0364 4FF0010C 		mov	ip, #1
 246:../../libdaisy/src/dev/oled_ssd130x.h ****     }
 5518              		.loc 15 246 55 view .LVU1315
 5519 0368 02F00707 		and	r7, r2, #7
 246:../../libdaisy/src/dev/oled_ssd130x.h ****     }
 5520              		.loc 15 246 13 view .LVU1316
 5521 036c 0295     		str	r5, [sp, #8]
 246:../../libdaisy/src/dev/oled_ssd130x.h ****     }
 5522              		.loc 15 246 42 view .LVU1317
 5523 036e 03EBC616 		add	r6, r3, r6, lsl #7
 246:../../libdaisy/src/dev/oled_ssd130x.h ****     }
 5524              		.loc 15 246 13 view .LVU1318
 5525 0372 0095     		str	r5, [sp]
 246:../../libdaisy/src/dev/oled_ssd130x.h ****     }
 5526              		.loc 15 246 49 view .LVU1319
 5527 0374 0CFA07F7 		lsl	r7, ip, r7
 246:../../libdaisy/src/dev/oled_ssd130x.h ****     }
 5528              		.loc 15 246 13 view .LVU1320
 5529 0378 0644     		add	r6, r6, r0
 246:../../libdaisy/src/dev/oled_ssd130x.h ****     }
 5530              		.loc 15 246 42 view .LVU1321
 5531 037a 96F814C0 		ldrb	ip, [r6, #20]	@ zero_extendqisi2
 5532 037e 2CEA0707 		bic	r7, ip, r7
 246:../../libdaisy/src/dev/oled_ssd130x.h ****     }
 5533              		.loc 15 246 13 view .LVU1322
 5534 0382 3775     		strb	r7, [r6, #20]
 5535 0384 AAE6     		b	.L333
 5536              	.LVL437:
 5537              	.L370:
 246:../../libdaisy/src/dev/oled_ssd130x.h ****     }
 5538              		.loc 15 246 13 view .LVU1323
 5539              	.LBE1536:
ARM GAS  /tmp/ccpr9r5K.s 			page 157


 5540              	.LBE1535:
 5541              	.LBE1539:
 5542              	.LBE1542:
 5543              	.LBE1552:
 5544              	.LBE1554:
 5545              	.LBE1637:
 5546              	.LBB1638:
 5547              	.LBB1635:
 5548              	.LBB1633:
 5549              	.LBB1632:
 5550              	.LBB1631:
 5551              	.LBB1629:
 5552              	.LBI1629:
 239:../../libdaisy/src/dev/oled_ssd130x.h ****     {
 5553              		.loc 15 239 10 is_stmt 1 view .LVU1324
 5554              	.LBB1630:
 246:../../libdaisy/src/dev/oled_ssd130x.h ****     }
 5555              		.loc 15 246 13 is_stmt 0 view .LVU1325
 5556 0386 0744     		add	r7, r7, r0
 246:../../libdaisy/src/dev/oled_ssd130x.h ****     }
 5557              		.loc 15 246 49 view .LVU1326
 5558 0388 09FA0AFA 		lsl	r10, r9, r10
 246:../../libdaisy/src/dev/oled_ssd130x.h ****     }
 5559              		.loc 15 246 42 view .LVU1327
 5560 038c 97F81490 		ldrb	r9, [r7, #20]	@ zero_extendqisi2
 5561 0390 29EA0A09 		bic	r9, r9, r10
 246:../../libdaisy/src/dev/oled_ssd130x.h ****     }
 5562              		.loc 15 246 13 view .LVU1328
 5563 0394 87F81490 		strb	r9, [r7, #20]
 5564 0398 BDE7     		b	.L369
 5565              	.LVL438:
 5566              	.L340:
 246:../../libdaisy/src/dev/oled_ssd130x.h ****     }
 5567              		.loc 15 246 13 view .LVU1329
 5568              	.LBE1630:
 5569              	.LBE1629:
 5570              	.LBE1631:
 5571              	.LBE1632:
 5572              	.LBE1633:
 5573              	.LBE1635:
 5574              	.LBE1638:
 5575              	.LBB1639:
 5576              	.LBB1555:
 5577              	.LBB1553:
 5578              	.LBB1550:
 5579              	.LBB1549:
 5580              	.LBB1547:
 5581              	.LBI1547:
 239:../../libdaisy/src/dev/oled_ssd130x.h ****     {
 5582              		.loc 15 239 10 is_stmt 1 view .LVU1330
 5583              	.LBB1548:
 246:../../libdaisy/src/dev/oled_ssd130x.h ****     }
 5584              		.loc 15 246 42 is_stmt 0 view .LVU1331
 5585 039a 2BEA0A0A 		bic	r10, fp, r10
 246:../../libdaisy/src/dev/oled_ssd130x.h ****     }
 5586              		.loc 15 246 13 view .LVU1332
 5587 039e 8EF814A0 		strb	r10, [lr, #20]
ARM GAS  /tmp/ccpr9r5K.s 			page 158


 5588 03a2 B9E6     		b	.L339
 5589              	.LVL439:
 5590              	.L351:
 246:../../libdaisy/src/dev/oled_ssd130x.h ****     }
 5591              		.loc 15 246 13 view .LVU1333
 5592              	.LBE1548:
 5593              	.LBE1547:
 5594              	.LBE1549:
 5595              	.LBE1550:
 5596              	.LBE1553:
 5597              	.LBE1555:
 5598              	.LBE1639:
 5599              	.LBB1640:
 5600              	.LBB1587:
 5601              	.LBB1584:
 5602              	.LBB1583:
 5603              	.LBB1582:
 5604              	.LBB1580:
 5605              	.LBI1580:
 239:../../libdaisy/src/dev/oled_ssd130x.h ****     {
 5606              		.loc 15 239 10 is_stmt 1 view .LVU1334
 5607              	.LBB1581:
 246:../../libdaisy/src/dev/oled_ssd130x.h ****     }
 5608              		.loc 15 246 42 is_stmt 0 view .LVU1335
 5609 03a4 2BEA0A0A 		bic	r10, fp, r10
 246:../../libdaisy/src/dev/oled_ssd130x.h ****     }
 5610              		.loc 15 246 13 view .LVU1336
 5611 03a8 8EF814A0 		strb	r10, [lr, #20]
 5612 03ac 11E7     		b	.L350
 5613              	.LVL440:
 5614              	.L361:
 246:../../libdaisy/src/dev/oled_ssd130x.h ****     }
 5615              		.loc 15 246 13 view .LVU1337
 5616              	.LBE1581:
 5617              	.LBE1580:
 5618              	.LBE1582:
 5619              	.LBE1583:
 5620              	.LBE1584:
 5621              	.LBE1587:
 5622              	.LBE1640:
 5623              	.LBB1641:
 5624              	.LBB1615:
 5625              	.LBB1613:
 5626              	.LBB1612:
 5627              	.LBB1611:
 5628              	.LBB1609:
 5629              	.LBI1609:
 239:../../libdaisy/src/dev/oled_ssd130x.h ****     {
 5630              		.loc 15 239 10 is_stmt 1 view .LVU1338
 5631              	.LBB1610:
 246:../../libdaisy/src/dev/oled_ssd130x.h ****     }
 5632              		.loc 15 246 42 is_stmt 0 view .LVU1339
 5633 03ae 2BEA0A0A 		bic	r10, fp, r10
 246:../../libdaisy/src/dev/oled_ssd130x.h ****     }
 5634              		.loc 15 246 13 view .LVU1340
 5635 03b2 8CF814A0 		strb	r10, [ip, #20]
 5636 03b6 64E7     		b	.L360
ARM GAS  /tmp/ccpr9r5K.s 			page 159


 5637              	.LVL441:
 5638              	.L343:
 246:../../libdaisy/src/dev/oled_ssd130x.h ****     }
 5639              		.loc 15 246 13 view .LVU1341
 5640              	.LBE1610:
 5641              	.LBE1609:
 5642              	.LBE1611:
 5643              	.LBE1612:
 5644              	.LBE1613:
 5645              	.LBE1615:
 5646              	.LBE1641:
 5647              	.LBB1642:
 5648              	.LBB1588:
 5649              	.LBB1585:
  41:../../libdaisy/src/hid/disp/oled_display.h ****     {
 5650              		.loc 5 41 10 is_stmt 1 view .LVU1342
 5651              	.LBB1572:
 239:../../libdaisy/src/dev/oled_ssd130x.h ****     {
 5652              		.loc 15 239 10 view .LVU1343
 5653              	.LBB1567:
 241:../../libdaisy/src/dev/oled_ssd130x.h ****             return;
 5654              		.loc 15 241 9 is_stmt 0 view .LVU1344
 5655 03b8 3EBB     		cbnz	r6, .L382
 5656 03ba 009E     		ldr	r6, [sp]
 5657 03bc 2EBB     		cbnz	r6, .L382
 5658              	.LBE1567:
 5659              	.LBE1572:
 5660              	.LBE1585:
 230:../../libdaisy/src/hid/disp/display.h ****         int_fast16_t error  = deltaX - deltaY;
 5661              		.loc 6 230 22 view .LVU1345
 5662 03be 0126     		movs	r6, #1
 5663 03c0 0096     		str	r6, [sp]
 5664              	.LBB1586:
 5665              	.LBB1573:
 5666              	.LBB1568:
 243:../../libdaisy/src/dev/oled_ssd130x.h ****             buffer_[x + (y / 8) * width] |= (1 << (y % 8));
 5667              		.loc 15 243 9 view .LVU1346
 5668 03c2 002D     		cmp	r5, #0
 5669 03c4 7FF4D4AE 		bne	.L418
 5670              	.LVL442:
 5671              	.L345:
 5672              	.LBB1562:
 5673              	.LBI1562:
 239:../../libdaisy/src/dev/oled_ssd130x.h ****     {
 5674              		.loc 15 239 10 is_stmt 1 view .LVU1347
 5675              	.LBB1563:
 246:../../libdaisy/src/dev/oled_ssd130x.h ****     }
 5676              		.loc 15 246 28 is_stmt 0 view .LVU1348
 5677 03c8 E608     		lsrs	r6, r4, #3
 246:../../libdaisy/src/dev/oled_ssd130x.h ****     }
 5678              		.loc 15 246 49 view .LVU1349
 5679 03ca 4FF0010C 		mov	ip, #1
 246:../../libdaisy/src/dev/oled_ssd130x.h ****     }
 5680              		.loc 15 246 55 view .LVU1350
 5681 03ce 04F00707 		and	r7, r4, #7
 246:../../libdaisy/src/dev/oled_ssd130x.h ****     }
 5682              		.loc 15 246 13 view .LVU1351
ARM GAS  /tmp/ccpr9r5K.s 			page 160


 5683 03d2 0395     		str	r5, [sp, #12]
 246:../../libdaisy/src/dev/oled_ssd130x.h ****     }
 5684              		.loc 15 246 42 view .LVU1352
 5685 03d4 03EBC616 		add	r6, r3, r6, lsl #7
 246:../../libdaisy/src/dev/oled_ssd130x.h ****     }
 5686              		.loc 15 246 49 view .LVU1353
 5687 03d8 0CFA07F7 		lsl	r7, ip, r7
 246:../../libdaisy/src/dev/oled_ssd130x.h ****     }
 5688              		.loc 15 246 13 view .LVU1354
 5689 03dc 0644     		add	r6, r6, r0
 246:../../libdaisy/src/dev/oled_ssd130x.h ****     }
 5690              		.loc 15 246 42 view .LVU1355
 5691 03de 96F814C0 		ldrb	ip, [r6, #20]	@ zero_extendqisi2
 5692 03e2 2CEA0707 		bic	r7, ip, r7
 246:../../libdaisy/src/dev/oled_ssd130x.h ****     }
 5693              		.loc 15 246 13 view .LVU1356
 5694 03e6 3775     		strb	r7, [r6, #20]
 5695 03e8 D4E6     		b	.L344
 5696              	.LVL443:
 5697              	.L366:
 246:../../libdaisy/src/dev/oled_ssd130x.h ****     }
 5698              		.loc 15 246 13 view .LVU1357
 5699              	.LBE1563:
 5700              	.LBE1562:
 5701              	.LBE1568:
 5702              	.LBE1573:
 5703              	.LBE1586:
 5704              	.LBE1588:
 5705              	.LBE1642:
 5706              	.LBB1643:
 5707              	.LBB1636:
 5708              	.LBB1634:
 5709              	.LBB1625:
 5710              	.LBB1624:
 5711              	.LBB1622:
 5712              	.LBI1622:
 239:../../libdaisy/src/dev/oled_ssd130x.h ****     {
 5713              		.loc 15 239 10 is_stmt 1 view .LVU1358
 5714              	.LBB1623:
 246:../../libdaisy/src/dev/oled_ssd130x.h ****     }
 5715              		.loc 15 246 13 is_stmt 0 view .LVU1359
 5716 03ea 0344     		add	r3, r3, r0
 246:../../libdaisy/src/dev/oled_ssd130x.h ****     }
 5717              		.loc 15 246 49 view .LVU1360
 5718 03ec 06FA07F7 		lsl	r7, r6, r7
 246:../../libdaisy/src/dev/oled_ssd130x.h ****     }
 5719              		.loc 15 246 42 view .LVU1361
 5720 03f0 1E7D     		ldrb	r6, [r3, #20]	@ zero_extendqisi2
 5721 03f2 26EA0706 		bic	r6, r6, r7
 246:../../libdaisy/src/dev/oled_ssd130x.h ****     }
 5722              		.loc 15 246 13 view .LVU1362
 5723 03f6 1E75     		strb	r6, [r3, #20]
 5724 03f8 71E7     		b	.L365
 5725              	.LVL444:
 5726              	.L356:
 246:../../libdaisy/src/dev/oled_ssd130x.h ****     }
 5727              		.loc 15 246 13 view .LVU1363
ARM GAS  /tmp/ccpr9r5K.s 			page 161


 5728              	.LBE1623:
 5729              	.LBE1622:
 5730              	.LBE1624:
 5731              	.LBE1625:
 5732              	.LBE1634:
 5733              	.LBE1636:
 5734              	.LBE1643:
 5735              	.LBB1644:
 5736              	.LBB1616:
 5737              	.LBB1614:
 5738              	.LBB1603:
 5739              	.LBB1600:
 5740              	.LBB1596:
 5741              	.LBI1596:
 239:../../libdaisy/src/dev/oled_ssd130x.h ****     {
 5742              		.loc 15 239 10 is_stmt 1 view .LVU1364
 5743              	.LBB1597:
 246:../../libdaisy/src/dev/oled_ssd130x.h ****     }
 5744              		.loc 15 246 42 is_stmt 0 view .LVU1365
 5745 03fa 2CEA0707 		bic	r7, ip, r7
 246:../../libdaisy/src/dev/oled_ssd130x.h ****     }
 5746              		.loc 15 246 13 view .LVU1366
 5747 03fe 3775     		strb	r7, [r6, #20]
 5748 0400 23E7     		b	.L355
 5749              	.LVL445:
 5750              	.L378:
 246:../../libdaisy/src/dev/oled_ssd130x.h ****     }
 5751              		.loc 15 246 13 view .LVU1367
 5752              	.LBE1597:
 5753              	.LBE1596:
 5754              	.LBE1600:
 5755              	.LBE1603:
 5756              	.LBE1614:
 5757              	.LBE1616:
 5758              	.LBE1644:
 5759              	.LBB1645:
 5760              	.LBB1589:
 230:../../libdaisy/src/hid/disp/display.h ****         int_fast16_t error  = deltaX - deltaY;
 5761              		.loc 6 230 22 view .LVU1368
 5762 0402 4FF0FF36 		mov	r6, #-1
 5763 0406 0096     		str	r6, [sp]
 5764 0408 C4E6     		b	.L344
 5765              	.LVL446:
 5766              	.L382:
 230:../../libdaisy/src/hid/disp/display.h ****         int_fast16_t error  = deltaX - deltaY;
 5767              		.loc 6 230 22 view .LVU1369
 5768 040a 0126     		movs	r6, #1
 5769 040c 0096     		str	r6, [sp]
 5770 040e C4E6     		b	.L347
 5771              	.LVL447:
 5772              	.L415:
 230:../../libdaisy/src/hid/disp/display.h ****         int_fast16_t error  = deltaX - deltaY;
 5773              		.loc 6 230 22 view .LVU1370
 5774              	.LBE1589:
 5775              	.LBE1645:
 5776              	.LBB1646:
 5777              	.LBB1556:
ARM GAS  /tmp/ccpr9r5K.s 			page 162


 239:../../libdaisy/src/hid/disp/display.h ****         {
 5778              		.loc 6 239 19 view .LVU1371
 5779 0410 0126     		movs	r6, #1
 5780 0412 0496     		str	r6, [sp, #16]
 5781 0414 8EE6     		b	.L335
 5782              	.LVL448:
 5783              	.L416:
 239:../../libdaisy/src/hid/disp/display.h ****         {
 5784              		.loc 6 239 19 view .LVU1372
 5785              	.LBE1556:
 5786              	.LBE1646:
 5787              	.LBB1647:
 5788              	.LBB1590:
 239:../../libdaisy/src/hid/disp/display.h ****         {
 5789              		.loc 6 239 33 view .LVU1373
 5790 0416 0126     		movs	r6, #1
 5791 0418 0196     		str	r6, [sp, #4]
 5792 041a ECE6     		b	.L346
 5793              	.LBE1590:
 5794              	.LBE1647:
 5795              	.LBE1648:
 5796              		.cfi_endproc
 5797              	.LFE4823:
 5799              		.section	.text._ZN5daisy13SSD130xDriverILj128ELj64ENS_24SSD130x4WireSpiTransportEE6UpdateEv,"axG",
 5800              		.align	1
 5801              		.p2align 2,,3
 5802              		.weak	_ZN5daisy13SSD130xDriverILj128ELj64ENS_24SSD130x4WireSpiTransportEE6UpdateEv
 5803              		.syntax unified
 5804              		.thumb
 5805              		.thumb_func
 5806              		.fpu fpv5-d16
 5808              	_ZN5daisy13SSD130xDriverILj128ELj64ENS_24SSD130x4WireSpiTransportEE6UpdateEv:
 5809              	.LVL449:
 5810              	.LFB4681:
 260:../../libdaisy/src/dev/oled_ssd130x.h ****     {
 5811              		.loc 15 260 10 is_stmt 1 view -0
 5812              		.cfi_startproc
 5813              		@ args = 0, pretend = 0, frame = 8
 5814              		@ frame_needed = 0, uses_anonymous_args = 0
 5815              		.loc 15 270 22 view .LVU1375
 260:../../libdaisy/src/dev/oled_ssd130x.h ****     {
 5816              		.loc 15 260 10 is_stmt 0 view .LVU1376
 5817 0000 2DE9F041 		push	{r4, r5, r6, r7, r8, lr}
 5818              		.cfi_def_cfa_offset 24
 5819              		.cfi_offset 4, -24
 5820              		.cfi_offset 5, -20
 5821              		.cfi_offset 6, -16
 5822              		.cfi_offset 7, -12
 5823              		.cfi_offset 8, -8
 5824              		.cfi_offset 14, -4
 5825 0004 B024     		movs	r4, #176
 5826 0006 82B0     		sub	sp, sp, #8
 5827              		.cfi_def_cfa_offset 32
 260:../../libdaisy/src/dev/oled_ssd130x.h ****     {
 5828              		.loc 15 260 10 view .LVU1377
 5829 0008 0546     		mov	r5, r0
 5830 000a 00F10806 		add	r6, r0, #8
ARM GAS  /tmp/ccpr9r5K.s 			page 163


 5831 000e 00F10C08 		add	r8, r0, #12
 5832              	.LVL450:
 5833              	.L420:
 5834              	.LBB1657:
 5835              	.LBB1658:
 111:../../libdaisy/src/dev/oled_ssd130x.h ****         spi_.BlockingTransmit(&cmd, 1);
 5836              		.loc 15 111 23 discriminator 2 view .LVU1378
 5837 0012 0021     		movs	r1, #0
 5838 0014 3046     		mov	r0, r6
 5839 0016 8DF80740 		strb	r4, [sp, #7]
 5840              	.LVL451:
 111:../../libdaisy/src/dev/oled_ssd130x.h ****         spi_.BlockingTransmit(&cmd, 1);
 5841              		.loc 15 111 23 discriminator 2 view .LVU1379
 5842              	.LBE1658:
 5843              	.LBI1657:
 109:../../libdaisy/src/dev/oled_ssd130x.h ****     {
 5844              		.loc 15 109 10 is_stmt 1 discriminator 2 view .LVU1380
 5845              	.LBB1659:
 111:../../libdaisy/src/dev/oled_ssd130x.h ****         spi_.BlockingTransmit(&cmd, 1);
 5846              		.loc 15 111 9 discriminator 2 view .LVU1381
 5847 001a 0134     		adds	r4, r4, #1
 5848              	.LVL452:
 111:../../libdaisy/src/dev/oled_ssd130x.h ****         spi_.BlockingTransmit(&cmd, 1);
 5849              		.loc 15 111 9 is_stmt 0 discriminator 2 view .LVU1382
 5850 001c 0F46     		mov	r7, r1
 111:../../libdaisy/src/dev/oled_ssd130x.h ****         spi_.BlockingTransmit(&cmd, 1);
 5851              		.loc 15 111 23 discriminator 2 view .LVU1383
 5852 001e FFF7FEFF 		bl	dsy_gpio_write
 5853              	.LVL453:
 112:../../libdaisy/src/dev/oled_ssd130x.h ****     };
 5854              		.loc 15 112 9 is_stmt 1 discriminator 2 view .LVU1384
 112:../../libdaisy/src/dev/oled_ssd130x.h ****     };
 5855              		.loc 15 112 30 is_stmt 0 discriminator 2 view .LVU1385
 5856 0022 6423     		movs	r3, #100
 5857 0024 0122     		movs	r2, #1
 5858 0026 0DF10701 		add	r1, sp, #7
 5859 002a 2846     		mov	r0, r5
 5860 002c FFF7FEFF 		bl	_ZN5daisy9SpiHandle16BlockingTransmitEPhjm
 5861              	.LVL454:
 112:../../libdaisy/src/dev/oled_ssd130x.h ****     };
 5862              		.loc 15 112 30 discriminator 2 view .LVU1386
 5863              	.LBE1659:
 5864              	.LBE1657:
 5865              	.LBB1660:
 5866              	.LBB1661:
 111:../../libdaisy/src/dev/oled_ssd130x.h ****         spi_.BlockingTransmit(&cmd, 1);
 5867              		.loc 15 111 23 discriminator 2 view .LVU1387
 5868 0030 3946     		mov	r1, r7
 5869 0032 3046     		mov	r0, r6
 5870 0034 8DF80770 		strb	r7, [sp, #7]
 5871              	.LVL455:
 111:../../libdaisy/src/dev/oled_ssd130x.h ****         spi_.BlockingTransmit(&cmd, 1);
 5872              		.loc 15 111 23 discriminator 2 view .LVU1388
 5873              	.LBE1661:
 5874              	.LBI1660:
 109:../../libdaisy/src/dev/oled_ssd130x.h ****     {
 5875              		.loc 15 109 10 is_stmt 1 discriminator 2 view .LVU1389
ARM GAS  /tmp/ccpr9r5K.s 			page 164


 5876              	.LBB1662:
 111:../../libdaisy/src/dev/oled_ssd130x.h ****         spi_.BlockingTransmit(&cmd, 1);
 5877              		.loc 15 111 9 discriminator 2 view .LVU1390
 111:../../libdaisy/src/dev/oled_ssd130x.h ****         spi_.BlockingTransmit(&cmd, 1);
 5878              		.loc 15 111 23 is_stmt 0 discriminator 2 view .LVU1391
 5879 0038 FFF7FEFF 		bl	dsy_gpio_write
 5880              	.LVL456:
 112:../../libdaisy/src/dev/oled_ssd130x.h ****     };
 5881              		.loc 15 112 9 is_stmt 1 discriminator 2 view .LVU1392
 112:../../libdaisy/src/dev/oled_ssd130x.h ****     };
 5882              		.loc 15 112 30 is_stmt 0 discriminator 2 view .LVU1393
 5883 003c 0122     		movs	r2, #1
 5884 003e 6423     		movs	r3, #100
 5885 0040 0DF10701 		add	r1, sp, #7
 5886 0044 2846     		mov	r0, r5
 5887 0046 E4B2     		uxtb	r4, r4
 5888 0048 FFF7FEFF 		bl	_ZN5daisy9SpiHandle16BlockingTransmitEPhjm
 5889              	.LVL457:
 112:../../libdaisy/src/dev/oled_ssd130x.h ****     };
 5890              		.loc 15 112 30 discriminator 2 view .LVU1394
 5891 004c 1023     		movs	r3, #16
 5892              	.LBE1662:
 5893              	.LBE1660:
 5894              	.LBB1663:
 5895              	.LBB1664:
 111:../../libdaisy/src/dev/oled_ssd130x.h ****         spi_.BlockingTransmit(&cmd, 1);
 5896              		.loc 15 111 23 discriminator 2 view .LVU1395
 5897 004e 3946     		mov	r1, r7
 5898 0050 3046     		mov	r0, r6
 5899 0052 8DF80730 		strb	r3, [sp, #7]
 5900              	.LVL458:
 111:../../libdaisy/src/dev/oled_ssd130x.h ****         spi_.BlockingTransmit(&cmd, 1);
 5901              		.loc 15 111 23 discriminator 2 view .LVU1396
 5902              	.LBE1664:
 5903              	.LBI1663:
 109:../../libdaisy/src/dev/oled_ssd130x.h ****     {
 5904              		.loc 15 109 10 is_stmt 1 discriminator 2 view .LVU1397
 5905              	.LBB1665:
 111:../../libdaisy/src/dev/oled_ssd130x.h ****         spi_.BlockingTransmit(&cmd, 1);
 5906              		.loc 15 111 9 discriminator 2 view .LVU1398
 111:../../libdaisy/src/dev/oled_ssd130x.h ****         spi_.BlockingTransmit(&cmd, 1);
 5907              		.loc 15 111 23 is_stmt 0 discriminator 2 view .LVU1399
 5908 0056 FFF7FEFF 		bl	dsy_gpio_write
 5909              	.LVL459:
 112:../../libdaisy/src/dev/oled_ssd130x.h ****     };
 5910              		.loc 15 112 9 is_stmt 1 discriminator 2 view .LVU1400
 112:../../libdaisy/src/dev/oled_ssd130x.h ****     };
 5911              		.loc 15 112 30 is_stmt 0 discriminator 2 view .LVU1401
 5912 005a 6423     		movs	r3, #100
 5913 005c 0122     		movs	r2, #1
 5914 005e 0DF10701 		add	r1, sp, #7
 5915 0062 2846     		mov	r0, r5
 5916 0064 FFF7FEFF 		bl	_ZN5daisy9SpiHandle16BlockingTransmitEPhjm
 5917              	.LVL460:
 112:../../libdaisy/src/dev/oled_ssd130x.h ****     };
 5918              		.loc 15 112 30 discriminator 2 view .LVU1402
 5919              	.LBE1665:
ARM GAS  /tmp/ccpr9r5K.s 			page 165


 5920              	.LBE1663:
 5921              	.LBB1666:
 5922              	.LBI1666:
 115:../../libdaisy/src/dev/oled_ssd130x.h ****     {
 5923              		.loc 15 115 10 is_stmt 1 discriminator 2 view .LVU1403
 5924              	.LBB1667:
 117:../../libdaisy/src/dev/oled_ssd130x.h ****         spi_.BlockingTransmit(buff, size);
 5925              		.loc 15 117 9 discriminator 2 view .LVU1404
 117:../../libdaisy/src/dev/oled_ssd130x.h ****         spi_.BlockingTransmit(buff, size);
 5926              		.loc 15 117 23 is_stmt 0 discriminator 2 view .LVU1405
 5927 0068 0121     		movs	r1, #1
 5928 006a 3046     		mov	r0, r6
 5929 006c FFF7FEFF 		bl	dsy_gpio_write
 5930              	.LVL461:
 118:../../libdaisy/src/dev/oled_ssd130x.h ****     };
 5931              		.loc 15 118 9 is_stmt 1 discriminator 2 view .LVU1406
 118:../../libdaisy/src/dev/oled_ssd130x.h ****     };
 5932              		.loc 15 118 30 is_stmt 0 discriminator 2 view .LVU1407
 5933 0070 8022     		movs	r2, #128
 5934 0072 4146     		mov	r1, r8
 5935 0074 6423     		movs	r3, #100
 5936 0076 2846     		mov	r0, r5
 5937 0078 9044     		add	r8, r8, r2
 5938              	.LVL462:
 118:../../libdaisy/src/dev/oled_ssd130x.h ****     };
 5939              		.loc 15 118 30 discriminator 2 view .LVU1408
 5940 007a FFF7FEFF 		bl	_ZN5daisy9SpiHandle16BlockingTransmitEPhjm
 5941              	.LVL463:
 118:../../libdaisy/src/dev/oled_ssd130x.h ****     };
 5942              		.loc 15 118 30 discriminator 2 view .LVU1409
 5943              	.LBE1667:
 5944              	.LBE1666:
 5945              		.loc 15 270 9 is_stmt 1 discriminator 2 view .LVU1410
 5946              		.loc 15 270 22 discriminator 2 view .LVU1411
 5947 007e B82C     		cmp	r4, #184
 5948 0080 C7D1     		bne	.L420
 271:../../libdaisy/src/dev/oled_ssd130x.h ****         {
 272:../../libdaisy/src/dev/oled_ssd130x.h ****             transport_.SendCommand(0xB0 + i);
 273:../../libdaisy/src/dev/oled_ssd130x.h ****             transport_.SendCommand(0x00);
 274:../../libdaisy/src/dev/oled_ssd130x.h ****             transport_.SendCommand(high_column_addr);
 275:../../libdaisy/src/dev/oled_ssd130x.h ****             transport_.SendData(&buffer_[width * i], width);
 276:../../libdaisy/src/dev/oled_ssd130x.h ****         }
 277:../../libdaisy/src/dev/oled_ssd130x.h ****     };
 5949              		.loc 15 277 5 is_stmt 0 view .LVU1412
 5950 0082 02B0     		add	sp, sp, #8
 5951              		.cfi_def_cfa_offset 24
 5952              		@ sp needed
 5953 0084 BDE8F081 		pop	{r4, r5, r6, r7, r8, pc}
 5954              		.loc 15 277 5 view .LVU1413
 5955              		.cfi_endproc
 5956              	.LFE4681:
 5958              		.section	.rodata.main.str1.4,"aMS",%progbits,1
 5959              		.align	2
 5960              	.LC2:
 5961 0000 56434F00 		.ascii	"VCO\000"
 5962              		.section	.text.startup.main,"ax",%progbits
 5963              		.align	1
ARM GAS  /tmp/ccpr9r5K.s 			page 166


 5964              		.p2align 2,,3
 5965              		.global	main
 5966              		.syntax unified
 5967              		.thumb
 5968              		.thumb_func
 5969              		.fpu fpv5-d16
 5971              	main:
 5972              	.LFB4234:
  40:ex_vco.cpp    **** 
  41:ex_vco.cpp    **** int main(void)
  42:ex_vco.cpp    **** {
 5973              		.loc 16 42 1 is_stmt 1 view -0
 5974              		.cfi_startproc
 5975              		@ args = 0, pretend = 0, frame = 32
 5976              		@ frame_needed = 0, uses_anonymous_args = 0
  43:ex_vco.cpp    ****     float samplerate;
 5977              		.loc 16 43 5 view .LVU1415
  44:ex_vco.cpp    ****     int   num_waves = Oscillator::WAVE_LAST - 1;
 5978              		.loc 16 44 5 view .LVU1416
 5979              	.LVL464:
  45:ex_vco.cpp    ****     patch.Init(); // Initialize hardware (daisy seed, and patch)
 5980              		.loc 16 45 5 view .LVU1417
  42:ex_vco.cpp    ****     float samplerate;
 5981              		.loc 16 42 1 is_stmt 0 view .LVU1418
 5982 0000 F0B5     		push	{r4, r5, r6, r7, lr}
 5983              		.cfi_def_cfa_offset 20
 5984              		.cfi_offset 4, -20
 5985              		.cfi_offset 5, -16
 5986              		.cfi_offset 6, -12
 5987              		.cfi_offset 7, -8
 5988              		.cfi_offset 14, -4
 5989              		.loc 16 45 15 view .LVU1419
 5990 0002 0021     		movs	r1, #0
 5991 0004 5148     		ldr	r0, .L426
 5992              	.LBB1724:
 5993              	.LBB1725:
  44:../../DaisySP/Source/Synthesis/oscillator.h ****         sr_recip_  = 1.0f / sample_rate;
 5994              		.loc 1 44 20 view .LVU1420
 5995 0006 524E     		ldr	r6, .L426+4
  50:../../DaisySP/Source/Synthesis/oscillator.h ****         eoc_       = true;
 5996              		.loc 1 50 20 view .LVU1421
 5997 0008 0027     		movs	r7, #0
 5998              	.LBE1725:
 5999              	.LBE1724:
  46:ex_vco.cpp    ****     samplerate = patch.AudioSampleRate();
  47:ex_vco.cpp    **** 
  48:ex_vco.cpp    ****     osc.Init(samplerate); // Init oscillator
  49:ex_vco.cpp    **** 
  50:ex_vco.cpp    ****     freqctrl.Init(
  51:ex_vco.cpp    ****         patch.controls[patch.CTRL_1], 10.0, 110.0f, Parameter::LINEAR);
 6000              		.loc 16 51 36 view .LVU1422
 6001 000a 524D     		ldr	r5, .L426+8
  42:ex_vco.cpp    ****     float samplerate;
 6002              		.loc 16 42 1 view .LVU1423
 6003 000c 2DED028B 		vpush.64	{d8}
 6004              		.cfi_def_cfa_offset 28
 6005              		.cfi_offset 80, -28
ARM GAS  /tmp/ccpr9r5K.s 			page 167


 6006              		.cfi_offset 81, -24
 6007 0010 8BB0     		sub	sp, sp, #44
 6008              		.cfi_def_cfa_offset 72
 6009              	.LBB1731:
 6010              	.LBB1726:
  47:../../DaisySP/Source/Synthesis/oscillator.h ****         phase_     = 0.0f;
 6011              		.loc 1 47 20 view .LVU1424
 6012 0012 F6EE008A 		vmov.f32	s17, #5.0e-1
 6013              	.LBE1726:
 6014              	.LBE1731:
  45:ex_vco.cpp    ****     samplerate = patch.AudioSampleRate();
 6015              		.loc 16 45 15 view .LVU1425
 6016 0016 FFF7FEFF 		bl	_ZN5daisy10DaisyPatch4InitEb
 6017              	.LVL465:
  46:ex_vco.cpp    **** 
 6018              		.loc 16 46 5 is_stmt 1 view .LVU1426
  46:ex_vco.cpp    **** 
 6019              		.loc 16 46 39 is_stmt 0 view .LVU1427
 6020 001a 4C48     		ldr	r0, .L426
 6021 001c FFF7FEFF 		bl	_ZN5daisy10DaisyPatch15AudioSampleRateEv
 6022              	.LVL466:
 6023              	.LBB1732:
 6024              	.LBB1727:
  45:../../DaisySP/Source/Synthesis/oscillator.h ****         freq_      = 100.0f;
 6025              		.loc 1 45 27 view .LVU1428
 6026 0020 F7EE006A 		vmov.f32	s13, #1.0e+0
 6027              	.LBE1727:
 6028              	.LBE1732:
  46:ex_vco.cpp    **** 
 6029              		.loc 16 46 39 view .LVU1429
 6030 0024 F0EE407A 		vmov.f32	s15, s0
 6031              	.LVL467:
  48:ex_vco.cpp    **** 
 6032              		.loc 16 48 5 is_stmt 1 view .LVU1430
 6033              	.LBB1733:
 6034              	.LBI1724:
  42:../../DaisySP/Source/Synthesis/oscillator.h ****     {
 6035              		.loc 1 42 10 view .LVU1431
 6036              	.LBB1728:
  44:../../DaisySP/Source/Synthesis/oscillator.h ****         sr_recip_  = 1.0f / sample_rate;
 6037              		.loc 1 44 9 view .LVU1432
  48:../../DaisySP/Source/Synthesis/oscillator.h ****         phase_inc_ = CalcPhaseInc(freq_);
 6038              		.loc 1 48 20 is_stmt 0 view .LVU1433
 6039 0028 9FED4B8A 		vldr.32	s16, .L426+12
  46:../../DaisySP/Source/Synthesis/oscillator.h ****         amp_       = 0.5f;
 6040              		.loc 1 46 20 view .LVU1434
 6041 002c 9FED4B0A 		vldr.32	s0, .L426+16
 6042              	.LVL468:
  49:../../DaisySP/Source/Synthesis/oscillator.h ****         waveform_  = WAVE_SIN;
 6043              		.loc 1 49 34 view .LVU1435
 6044 0030 3046     		mov	r0, r6
  47:../../DaisySP/Source/Synthesis/oscillator.h ****         phase_     = 0.0f;
 6045              		.loc 1 47 20 view .LVU1436
 6046 0032 C6ED018A 		vstr.32	s17, [r6, #4]
 6047              	.LBE1728:
 6048              	.LBE1733:
 6049              		.loc 16 51 36 view .LVU1437
ARM GAS  /tmp/ccpr9r5K.s 			page 168


 6050 0036 02AC     		add	r4, sp, #8
 6051              	.LBB1734:
 6052              	.LBB1729:
  45:../../DaisySP/Source/Synthesis/oscillator.h ****         freq_      = 100.0f;
 6053              		.loc 1 45 27 view .LVU1438
 6054 0038 86EEA77A 		vdiv.f32	s14, s13, s15
  44:../../DaisySP/Source/Synthesis/oscillator.h ****         sr_recip_  = 1.0f / sample_rate;
 6055              		.loc 1 44 20 view .LVU1439
 6056 003c C6ED037A 		vstr.32	s15, [r6, #12]
  45:../../DaisySP/Source/Synthesis/oscillator.h ****         freq_      = 100.0f;
 6057              		.loc 1 45 9 is_stmt 1 view .LVU1440
  46:../../DaisySP/Source/Synthesis/oscillator.h ****         amp_       = 0.5f;
 6058              		.loc 1 46 20 is_stmt 0 view .LVU1441
 6059 0040 86ED020A 		vstr.32	s0, [r6, #8]
  48:../../DaisySP/Source/Synthesis/oscillator.h ****         phase_inc_ = CalcPhaseInc(freq_);
 6060              		.loc 1 48 20 view .LVU1442
 6061 0044 86ED058A 		vstr.32	s16, [r6, #20]
  45:../../DaisySP/Source/Synthesis/oscillator.h ****         freq_      = 100.0f;
 6062              		.loc 1 45 20 view .LVU1443
 6063 0048 86ED047A 		vstr.32	s14, [r6, #16]
  46:../../DaisySP/Source/Synthesis/oscillator.h ****         amp_       = 0.5f;
 6064              		.loc 1 46 9 is_stmt 1 view .LVU1444
  47:../../DaisySP/Source/Synthesis/oscillator.h ****         phase_     = 0.0f;
 6065              		.loc 1 47 9 view .LVU1445
  48:../../DaisySP/Source/Synthesis/oscillator.h ****         phase_inc_ = CalcPhaseInc(freq_);
 6066              		.loc 1 48 9 view .LVU1446
  49:../../DaisySP/Source/Synthesis/oscillator.h ****         waveform_  = WAVE_SIN;
 6067              		.loc 1 49 9 view .LVU1447
  49:../../DaisySP/Source/Synthesis/oscillator.h ****         waveform_  = WAVE_SIN;
 6068              		.loc 1 49 34 is_stmt 0 view .LVU1448
 6069 004c FFF7FEFF 		bl	_ZN7daisysp10Oscillator12CalcPhaseIncEf
 6070              	.LVL469:
  52:../../DaisySP/Source/Synthesis/oscillator.h ****     }
 6071              		.loc 1 52 20 view .LVU1449
 6072 0050 40F20113 		movw	r3, #257
  49:../../DaisySP/Source/Synthesis/oscillator.h ****         waveform_  = WAVE_SIN;
 6073              		.loc 1 49 34 view .LVU1450
 6074 0054 F0EE407A 		vmov.f32	s15, s0
  50:../../DaisySP/Source/Synthesis/oscillator.h ****         eoc_       = true;
 6075              		.loc 1 50 20 view .LVU1451
 6076 0058 3770     		strb	r7, [r6]
 6077              	.LBE1729:
 6078              	.LBE1734:
  50:ex_vco.cpp    ****         patch.controls[patch.CTRL_1], 10.0, 110.0f, Parameter::LINEAR);
 6079              		.loc 16 50 18 view .LVU1452
 6080 005a B2EE040A 		vmov.f32	s0, #1.0e+1
 6081              	.LBB1735:
 6082              	.LBB1730:
  52:../../DaisySP/Source/Synthesis/oscillator.h ****     }
 6083              		.loc 1 52 20 view .LVU1453
 6084 005e B384     		strh	r3, [r6, #36]	@ movhi
  49:../../DaisySP/Source/Synthesis/oscillator.h ****         waveform_  = WAVE_SIN;
 6085              		.loc 1 49 20 view .LVU1454
 6086 0060 C6ED067A 		vstr.32	s15, [r6, #24]
  50:../../DaisySP/Source/Synthesis/oscillator.h ****         eoc_       = true;
 6087              		.loc 1 50 9 is_stmt 1 view .LVU1455
  51:../../DaisySP/Source/Synthesis/oscillator.h ****         eor_       = true;
ARM GAS  /tmp/ccpr9r5K.s 			page 169


 6088              		.loc 1 51 9 view .LVU1456
  52:../../DaisySP/Source/Synthesis/oscillator.h ****     }
 6089              		.loc 1 52 9 view .LVU1457
 6090              	.LVL470:
  52:../../DaisySP/Source/Synthesis/oscillator.h ****     }
 6091              		.loc 1 52 9 is_stmt 0 view .LVU1458
 6092              	.LBE1730:
 6093              	.LBE1735:
  50:ex_vco.cpp    ****         patch.controls[patch.CTRL_1], 10.0, 110.0f, Parameter::LINEAR);
 6094              		.loc 16 50 5 is_stmt 1 view .LVU1459
  50:ex_vco.cpp    ****         patch.controls[patch.CTRL_1], 10.0, 110.0f, Parameter::LINEAR);
 6095              		.loc 16 50 18 is_stmt 0 view .LVU1460
 6096 0064 DFED3E0A 		vldr.32	s1, .L426+20
 6097              		.loc 16 51 36 view .LVU1461
 6098 0068 0FCD     		ldmia	r5!, {r0, r1, r2, r3}
 6099 006a 0FC4     		stmia	r4!, {r0, r1, r2, r3}
 6100 006c 95E80F00 		ldm	r5, {r0, r1, r2, r3}
  52:ex_vco.cpp    ****     finectrl.Init(patch.controls[patch.CTRL_2], 0.f, 7.f, Parameter::LINEAR);
 6101              		.loc 16 52 46 view .LVU1462
 6102 0070 05F11006 		add	r6, r5, #16
  51:ex_vco.cpp    ****     finectrl.Init(patch.controls[patch.CTRL_2], 0.f, 7.f, Parameter::LINEAR);
 6103              		.loc 16 51 36 view .LVU1463
 6104 0074 84E80F00 		stm	r4, {r0, r1, r2, r3}
  50:ex_vco.cpp    ****         patch.controls[patch.CTRL_1], 10.0, 110.0f, Parameter::LINEAR);
 6105              		.loc 16 50 18 view .LVU1464
 6106 0078 3A46     		mov	r2, r7
 6107 007a 02A9     		add	r1, sp, #8
 6108 007c 3948     		ldr	r0, .L426+24
 6109 007e FFF7FEFF 		bl	_ZN5daisy9Parameter4InitENS_13AnalogControlEffNS0_5CurveE
 6110              	.LVL471:
 6111              	.LBB1736:
 6112              	.LBI1736:
 6113              		.loc 3 23 5 is_stmt 1 view .LVU1465
 6114              		.loc 3 23 5 is_stmt 0 view .LVU1466
 6115              	.LBE1736:
 6116              		.loc 16 52 5 is_stmt 1 view .LVU1467
 6117              		.loc 16 52 46 is_stmt 0 view .LVU1468
 6118 0082 0DF1080C 		add	ip, sp, #8
 6119              		.loc 16 52 18 view .LVU1469
 6120 0086 B0EE480A 		vmov.f32	s0, s16
 6121 008a F1EE0C0A 		vmov.f32	s1, #7.0e+0
 6122              		.loc 16 52 46 view .LVU1470
 6123 008e 0FCE     		ldmia	r6!, {r0, r1, r2, r3}
 6124 0090 ACE80F00 		stmia	ip!, {r0, r1, r2, r3}
 6125 0094 96E80F00 		ldm	r6, {r0, r1, r2, r3}
  53:ex_vco.cpp    ****     wavectrl.Init(
  54:ex_vco.cpp    ****         patch.controls[patch.CTRL_3], 0.0, num_waves, Parameter::LINEAR);
 6126              		.loc 16 54 36 view .LVU1471
 6127 0098 05F13006 		add	r6, r5, #48
  52:ex_vco.cpp    ****     wavectrl.Init(
 6128              		.loc 16 52 46 view .LVU1472
 6129 009c 84E80F00 		stm	r4, {r0, r1, r2, r3}
  52:ex_vco.cpp    ****     wavectrl.Init(
 6130              		.loc 16 52 18 view .LVU1473
 6131 00a0 3A46     		mov	r2, r7
 6132 00a2 02A9     		add	r1, sp, #8
 6133 00a4 3048     		ldr	r0, .L426+28
ARM GAS  /tmp/ccpr9r5K.s 			page 170


 6134 00a6 FFF7FEFF 		bl	_ZN5daisy9Parameter4InitENS_13AnalogControlEffNS0_5CurveE
 6135              	.LVL472:
 6136              	.LBB1737:
 6137              	.LBI1737:
 6138              		.loc 3 23 5 is_stmt 1 view .LVU1474
 6139              		.loc 3 23 5 is_stmt 0 view .LVU1475
 6140              	.LBE1737:
  53:ex_vco.cpp    ****     wavectrl.Init(
 6141              		.loc 16 53 5 is_stmt 1 view .LVU1476
 6142              		.loc 16 54 36 is_stmt 0 view .LVU1477
 6143 00aa 0DF1080C 		add	ip, sp, #8
  53:ex_vco.cpp    ****     wavectrl.Init(
 6144              		.loc 16 53 18 view .LVU1478
 6145 00ae B0EE480A 		vmov.f32	s0, s16
 6146 00b2 F1EE0C0A 		vmov.f32	s1, #7.0e+0
 6147              		.loc 16 54 36 view .LVU1479
 6148 00b6 0FCE     		ldmia	r6!, {r0, r1, r2, r3}
 6149 00b8 ACE80F00 		stmia	ip!, {r0, r1, r2, r3}
 6150 00bc 96E80F00 		ldm	r6, {r0, r1, r2, r3}
  55:ex_vco.cpp    ****     ampctrl.Init(patch.controls[patch.CTRL_4], 0.0, 0.5f, Parameter::LINEAR);
 6151              		.loc 16 55 45 view .LVU1480
 6152 00c0 05F15006 		add	r6, r5, #80
  54:ex_vco.cpp    ****     ampctrl.Init(patch.controls[patch.CTRL_4], 0.0, 0.5f, Parameter::LINEAR);
 6153              		.loc 16 54 36 view .LVU1481
 6154 00c4 84E80F00 		stm	r4, {r0, r1, r2, r3}
  53:ex_vco.cpp    ****         patch.controls[patch.CTRL_3], 0.0, num_waves, Parameter::LINEAR);
 6155              		.loc 16 53 18 view .LVU1482
 6156 00c8 3A46     		mov	r2, r7
 6157 00ca 02A9     		add	r1, sp, #8
 6158 00cc 2748     		ldr	r0, .L426+32
 6159 00ce FFF7FEFF 		bl	_ZN5daisy9Parameter4InitENS_13AnalogControlEffNS0_5CurveE
 6160              	.LVL473:
 6161              	.LBB1738:
 6162              	.LBI1738:
 6163              		.loc 3 23 5 is_stmt 1 view .LVU1483
 6164              		.loc 3 23 5 is_stmt 0 view .LVU1484
 6165              	.LBE1738:
 6166              		.loc 16 55 5 is_stmt 1 view .LVU1485
 6167              		.loc 16 55 45 is_stmt 0 view .LVU1486
 6168 00d2 0DF1080C 		add	ip, sp, #8
 6169              		.loc 16 55 17 view .LVU1487
 6170 00d6 F0EE680A 		vmov.f32	s1, s17
 6171 00da B0EE480A 		vmov.f32	s0, s16
 6172              		.loc 16 55 45 view .LVU1488
 6173 00de 0FCE     		ldmia	r6!, {r0, r1, r2, r3}
 6174 00e0 ACE80F00 		stmia	ip!, {r0, r1, r2, r3}
 6175 00e4 96E80F00 		ldm	r6, {r0, r1, r2, r3}
 6176 00e8 84E80F00 		stm	r4, {r0, r1, r2, r3}
 6177              		.loc 16 55 17 view .LVU1489
 6178 00ec 02A9     		add	r1, sp, #8
 6179 00ee 3A46     		mov	r2, r7
 6180 00f0 1F48     		ldr	r0, .L426+36
 6181              	.LBB1739:
 6182              	.LBB1740:
 6183              	.LBB1741:
 6184              	.LBB1742:
 6185              	.LBB1743:
ARM GAS  /tmp/ccpr9r5K.s 			page 171


 6186              	.LBB1744:
 6187              	.LBB1745:
 6188              	.LBB1746:
 6189              	.LBB1747:
 6190              	.LBB1748:
 6191              	.LBB1749:
 6192              		.file 20 "/usr/include/newlib/c++/9.2.1/bits/basic_string.h"
   1:/usr/include/newlib/c++/9.2.1/bits/basic_string.h **** // Components for manipulating sequences of characters -*- C++ -*-
   2:/usr/include/newlib/c++/9.2.1/bits/basic_string.h **** 
   3:/usr/include/newlib/c++/9.2.1/bits/basic_string.h **** // Copyright (C) 1997-2019 Free Software Foundation, Inc.
   4:/usr/include/newlib/c++/9.2.1/bits/basic_string.h **** //
   5:/usr/include/newlib/c++/9.2.1/bits/basic_string.h **** // This file is part of the GNU ISO C++ Library.  This library is free
   6:/usr/include/newlib/c++/9.2.1/bits/basic_string.h **** // software; you can redistribute it and/or modify it under the
   7:/usr/include/newlib/c++/9.2.1/bits/basic_string.h **** // terms of the GNU General Public License as published by the
   8:/usr/include/newlib/c++/9.2.1/bits/basic_string.h **** // Free Software Foundation; either version 3, or (at your option)
   9:/usr/include/newlib/c++/9.2.1/bits/basic_string.h **** // any later version.
  10:/usr/include/newlib/c++/9.2.1/bits/basic_string.h **** 
  11:/usr/include/newlib/c++/9.2.1/bits/basic_string.h **** // This library is distributed in the hope that it will be useful,
  12:/usr/include/newlib/c++/9.2.1/bits/basic_string.h **** // but WITHOUT ANY WARRANTY; without even the implied warranty of
  13:/usr/include/newlib/c++/9.2.1/bits/basic_string.h **** // MERCHANTABILITY or FITNESS FOR A PARTICULAR PURPOSE.  See the
  14:/usr/include/newlib/c++/9.2.1/bits/basic_string.h **** // GNU General Public License for more details.
  15:/usr/include/newlib/c++/9.2.1/bits/basic_string.h **** 
  16:/usr/include/newlib/c++/9.2.1/bits/basic_string.h **** // Under Section 7 of GPL version 3, you are granted additional
  17:/usr/include/newlib/c++/9.2.1/bits/basic_string.h **** // permissions described in the GCC Runtime Library Exception, version
  18:/usr/include/newlib/c++/9.2.1/bits/basic_string.h **** // 3.1, as published by the Free Software Foundation.
  19:/usr/include/newlib/c++/9.2.1/bits/basic_string.h **** 
  20:/usr/include/newlib/c++/9.2.1/bits/basic_string.h **** // You should have received a copy of the GNU General Public License and
  21:/usr/include/newlib/c++/9.2.1/bits/basic_string.h **** // a copy of the GCC Runtime Library Exception along with this program;
  22:/usr/include/newlib/c++/9.2.1/bits/basic_string.h **** // see the files COPYING3 and COPYING.RUNTIME respectively.  If not, see
  23:/usr/include/newlib/c++/9.2.1/bits/basic_string.h **** // <http://www.gnu.org/licenses/>.
  24:/usr/include/newlib/c++/9.2.1/bits/basic_string.h **** 
  25:/usr/include/newlib/c++/9.2.1/bits/basic_string.h **** /** @file bits/basic_string.h
  26:/usr/include/newlib/c++/9.2.1/bits/basic_string.h ****  *  This is an internal header file, included by other library headers.
  27:/usr/include/newlib/c++/9.2.1/bits/basic_string.h ****  *  Do not attempt to use it directly. @headername{string}
  28:/usr/include/newlib/c++/9.2.1/bits/basic_string.h ****  */
  29:/usr/include/newlib/c++/9.2.1/bits/basic_string.h **** 
  30:/usr/include/newlib/c++/9.2.1/bits/basic_string.h **** //
  31:/usr/include/newlib/c++/9.2.1/bits/basic_string.h **** // ISO C++ 14882: 21 Strings library
  32:/usr/include/newlib/c++/9.2.1/bits/basic_string.h **** //
  33:/usr/include/newlib/c++/9.2.1/bits/basic_string.h **** 
  34:/usr/include/newlib/c++/9.2.1/bits/basic_string.h **** #ifndef _BASIC_STRING_H
  35:/usr/include/newlib/c++/9.2.1/bits/basic_string.h **** #define _BASIC_STRING_H 1
  36:/usr/include/newlib/c++/9.2.1/bits/basic_string.h **** 
  37:/usr/include/newlib/c++/9.2.1/bits/basic_string.h **** #pragma GCC system_header
  38:/usr/include/newlib/c++/9.2.1/bits/basic_string.h **** 
  39:/usr/include/newlib/c++/9.2.1/bits/basic_string.h **** #include <ext/atomicity.h>
  40:/usr/include/newlib/c++/9.2.1/bits/basic_string.h **** #include <ext/alloc_traits.h>
  41:/usr/include/newlib/c++/9.2.1/bits/basic_string.h **** #include <debug/debug.h>
  42:/usr/include/newlib/c++/9.2.1/bits/basic_string.h **** 
  43:/usr/include/newlib/c++/9.2.1/bits/basic_string.h **** #if __cplusplus >= 201103L
  44:/usr/include/newlib/c++/9.2.1/bits/basic_string.h **** #include <initializer_list>
  45:/usr/include/newlib/c++/9.2.1/bits/basic_string.h **** #endif
  46:/usr/include/newlib/c++/9.2.1/bits/basic_string.h **** 
  47:/usr/include/newlib/c++/9.2.1/bits/basic_string.h **** #if __cplusplus >= 201703L
  48:/usr/include/newlib/c++/9.2.1/bits/basic_string.h **** # include <string_view>
  49:/usr/include/newlib/c++/9.2.1/bits/basic_string.h **** #endif
  50:/usr/include/newlib/c++/9.2.1/bits/basic_string.h **** 
ARM GAS  /tmp/ccpr9r5K.s 			page 172


  51:/usr/include/newlib/c++/9.2.1/bits/basic_string.h **** 
  52:/usr/include/newlib/c++/9.2.1/bits/basic_string.h **** namespace std _GLIBCXX_VISIBILITY(default)
  53:/usr/include/newlib/c++/9.2.1/bits/basic_string.h **** {
  54:/usr/include/newlib/c++/9.2.1/bits/basic_string.h **** _GLIBCXX_BEGIN_NAMESPACE_VERSION
  55:/usr/include/newlib/c++/9.2.1/bits/basic_string.h **** 
  56:/usr/include/newlib/c++/9.2.1/bits/basic_string.h **** #if _GLIBCXX_USE_CXX11_ABI
  57:/usr/include/newlib/c++/9.2.1/bits/basic_string.h **** _GLIBCXX_BEGIN_NAMESPACE_CXX11
  58:/usr/include/newlib/c++/9.2.1/bits/basic_string.h ****   /**
  59:/usr/include/newlib/c++/9.2.1/bits/basic_string.h ****    *  @class basic_string basic_string.h <string>
  60:/usr/include/newlib/c++/9.2.1/bits/basic_string.h ****    *  @brief  Managing sequences of characters and character-like objects.
  61:/usr/include/newlib/c++/9.2.1/bits/basic_string.h ****    *
  62:/usr/include/newlib/c++/9.2.1/bits/basic_string.h ****    *  @ingroup strings
  63:/usr/include/newlib/c++/9.2.1/bits/basic_string.h ****    *  @ingroup sequences
  64:/usr/include/newlib/c++/9.2.1/bits/basic_string.h ****    *
  65:/usr/include/newlib/c++/9.2.1/bits/basic_string.h ****    *  @tparam _CharT  Type of character
  66:/usr/include/newlib/c++/9.2.1/bits/basic_string.h ****    *  @tparam _Traits  Traits for character type, defaults to
  67:/usr/include/newlib/c++/9.2.1/bits/basic_string.h ****    *                   char_traits<_CharT>.
  68:/usr/include/newlib/c++/9.2.1/bits/basic_string.h ****    *  @tparam _Alloc  Allocator type, defaults to allocator<_CharT>.
  69:/usr/include/newlib/c++/9.2.1/bits/basic_string.h ****    *
  70:/usr/include/newlib/c++/9.2.1/bits/basic_string.h ****    *  Meets the requirements of a <a href="tables.html#65">container</a>, a
  71:/usr/include/newlib/c++/9.2.1/bits/basic_string.h ****    *  <a href="tables.html#66">reversible container</a>, and a
  72:/usr/include/newlib/c++/9.2.1/bits/basic_string.h ****    *  <a href="tables.html#67">sequence</a>.  Of the
  73:/usr/include/newlib/c++/9.2.1/bits/basic_string.h ****    *  <a href="tables.html#68">optional sequence requirements</a>, only
  74:/usr/include/newlib/c++/9.2.1/bits/basic_string.h ****    *  @c push_back, @c at, and @c %array access are supported.
  75:/usr/include/newlib/c++/9.2.1/bits/basic_string.h ****    */
  76:/usr/include/newlib/c++/9.2.1/bits/basic_string.h ****   template<typename _CharT, typename _Traits, typename _Alloc>
  77:/usr/include/newlib/c++/9.2.1/bits/basic_string.h ****     class basic_string
  78:/usr/include/newlib/c++/9.2.1/bits/basic_string.h ****     {
  79:/usr/include/newlib/c++/9.2.1/bits/basic_string.h ****       typedef typename __gnu_cxx::__alloc_traits<_Alloc>::template
  80:/usr/include/newlib/c++/9.2.1/bits/basic_string.h **** 	rebind<_CharT>::other _Char_alloc_type;
  81:/usr/include/newlib/c++/9.2.1/bits/basic_string.h ****       typedef __gnu_cxx::__alloc_traits<_Char_alloc_type> _Alloc_traits;
  82:/usr/include/newlib/c++/9.2.1/bits/basic_string.h **** 
  83:/usr/include/newlib/c++/9.2.1/bits/basic_string.h ****       // Types:
  84:/usr/include/newlib/c++/9.2.1/bits/basic_string.h ****     public:
  85:/usr/include/newlib/c++/9.2.1/bits/basic_string.h ****       typedef _Traits					traits_type;
  86:/usr/include/newlib/c++/9.2.1/bits/basic_string.h ****       typedef typename _Traits::char_type		value_type;
  87:/usr/include/newlib/c++/9.2.1/bits/basic_string.h ****       typedef _Char_alloc_type				allocator_type;
  88:/usr/include/newlib/c++/9.2.1/bits/basic_string.h ****       typedef typename _Alloc_traits::size_type		size_type;
  89:/usr/include/newlib/c++/9.2.1/bits/basic_string.h ****       typedef typename _Alloc_traits::difference_type	difference_type;
  90:/usr/include/newlib/c++/9.2.1/bits/basic_string.h ****       typedef typename _Alloc_traits::reference		reference;
  91:/usr/include/newlib/c++/9.2.1/bits/basic_string.h ****       typedef typename _Alloc_traits::const_reference	const_reference;
  92:/usr/include/newlib/c++/9.2.1/bits/basic_string.h ****       typedef typename _Alloc_traits::pointer		pointer;
  93:/usr/include/newlib/c++/9.2.1/bits/basic_string.h ****       typedef typename _Alloc_traits::const_pointer	const_pointer;
  94:/usr/include/newlib/c++/9.2.1/bits/basic_string.h ****       typedef __gnu_cxx::__normal_iterator<pointer, basic_string>  iterator;
  95:/usr/include/newlib/c++/9.2.1/bits/basic_string.h ****       typedef __gnu_cxx::__normal_iterator<const_pointer, basic_string>
  96:/usr/include/newlib/c++/9.2.1/bits/basic_string.h **** 							const_iterator;
  97:/usr/include/newlib/c++/9.2.1/bits/basic_string.h ****       typedef std::reverse_iterator<const_iterator>	const_reverse_iterator;
  98:/usr/include/newlib/c++/9.2.1/bits/basic_string.h ****       typedef std::reverse_iterator<iterator>		reverse_iterator;
  99:/usr/include/newlib/c++/9.2.1/bits/basic_string.h **** 
 100:/usr/include/newlib/c++/9.2.1/bits/basic_string.h ****       ///  Value returned by various member functions when they fail.
 101:/usr/include/newlib/c++/9.2.1/bits/basic_string.h ****       static const size_type	npos = static_cast<size_type>(-1);
 102:/usr/include/newlib/c++/9.2.1/bits/basic_string.h **** 
 103:/usr/include/newlib/c++/9.2.1/bits/basic_string.h ****     protected:
 104:/usr/include/newlib/c++/9.2.1/bits/basic_string.h ****       // type used for positions in insert, erase etc.
 105:/usr/include/newlib/c++/9.2.1/bits/basic_string.h **** #if __cplusplus < 201103L
 106:/usr/include/newlib/c++/9.2.1/bits/basic_string.h ****       typedef iterator __const_iterator;
 107:/usr/include/newlib/c++/9.2.1/bits/basic_string.h **** #else
ARM GAS  /tmp/ccpr9r5K.s 			page 173


 108:/usr/include/newlib/c++/9.2.1/bits/basic_string.h ****       typedef const_iterator __const_iterator;
 109:/usr/include/newlib/c++/9.2.1/bits/basic_string.h **** #endif
 110:/usr/include/newlib/c++/9.2.1/bits/basic_string.h **** 
 111:/usr/include/newlib/c++/9.2.1/bits/basic_string.h ****     private:
 112:/usr/include/newlib/c++/9.2.1/bits/basic_string.h **** #if __cplusplus >= 201703L
 113:/usr/include/newlib/c++/9.2.1/bits/basic_string.h ****       // A helper type for avoiding boiler-plate.
 114:/usr/include/newlib/c++/9.2.1/bits/basic_string.h ****       typedef basic_string_view<_CharT, _Traits> __sv_type;
 115:/usr/include/newlib/c++/9.2.1/bits/basic_string.h **** 
 116:/usr/include/newlib/c++/9.2.1/bits/basic_string.h ****       template<typename _Tp, typename _Res>
 117:/usr/include/newlib/c++/9.2.1/bits/basic_string.h **** 	using _If_sv = enable_if_t<
 118:/usr/include/newlib/c++/9.2.1/bits/basic_string.h **** 	  __and_<is_convertible<const _Tp&, __sv_type>,
 119:/usr/include/newlib/c++/9.2.1/bits/basic_string.h **** 		 __not_<is_convertible<const _Tp*, const basic_string*>>,
 120:/usr/include/newlib/c++/9.2.1/bits/basic_string.h **** 		 __not_<is_convertible<const _Tp&, const _CharT*>>>::value,
 121:/usr/include/newlib/c++/9.2.1/bits/basic_string.h **** 	  _Res>;
 122:/usr/include/newlib/c++/9.2.1/bits/basic_string.h **** 
 123:/usr/include/newlib/c++/9.2.1/bits/basic_string.h ****       // Allows an implicit conversion to __sv_type.
 124:/usr/include/newlib/c++/9.2.1/bits/basic_string.h ****       static __sv_type
 125:/usr/include/newlib/c++/9.2.1/bits/basic_string.h ****       _S_to_string_view(__sv_type __svt) noexcept
 126:/usr/include/newlib/c++/9.2.1/bits/basic_string.h ****       { return __svt; }
 127:/usr/include/newlib/c++/9.2.1/bits/basic_string.h **** 
 128:/usr/include/newlib/c++/9.2.1/bits/basic_string.h ****       // Wraps a string_view by explicit conversion and thus
 129:/usr/include/newlib/c++/9.2.1/bits/basic_string.h ****       // allows to add an internal constructor that does not
 130:/usr/include/newlib/c++/9.2.1/bits/basic_string.h ****       // participate in overload resolution when a string_view
 131:/usr/include/newlib/c++/9.2.1/bits/basic_string.h ****       // is provided.
 132:/usr/include/newlib/c++/9.2.1/bits/basic_string.h ****       struct __sv_wrapper
 133:/usr/include/newlib/c++/9.2.1/bits/basic_string.h ****       {
 134:/usr/include/newlib/c++/9.2.1/bits/basic_string.h **** 	explicit __sv_wrapper(__sv_type __sv) noexcept : _M_sv(__sv) { }
 135:/usr/include/newlib/c++/9.2.1/bits/basic_string.h **** 	__sv_type _M_sv;
 136:/usr/include/newlib/c++/9.2.1/bits/basic_string.h ****       };
 137:/usr/include/newlib/c++/9.2.1/bits/basic_string.h **** 
 138:/usr/include/newlib/c++/9.2.1/bits/basic_string.h ****       /**
 139:/usr/include/newlib/c++/9.2.1/bits/basic_string.h ****        *  @brief  Only internally used: Construct string from a string view
 140:/usr/include/newlib/c++/9.2.1/bits/basic_string.h ****        *          wrapper.
 141:/usr/include/newlib/c++/9.2.1/bits/basic_string.h ****        *  @param  __svw  string view wrapper.
 142:/usr/include/newlib/c++/9.2.1/bits/basic_string.h ****        *  @param  __a  Allocator to use.
 143:/usr/include/newlib/c++/9.2.1/bits/basic_string.h ****        */
 144:/usr/include/newlib/c++/9.2.1/bits/basic_string.h ****       explicit
 145:/usr/include/newlib/c++/9.2.1/bits/basic_string.h ****       basic_string(__sv_wrapper __svw, const _Alloc& __a)
 146:/usr/include/newlib/c++/9.2.1/bits/basic_string.h ****       : basic_string(__svw._M_sv.data(), __svw._M_sv.size(), __a) { }
 147:/usr/include/newlib/c++/9.2.1/bits/basic_string.h **** #endif
 148:/usr/include/newlib/c++/9.2.1/bits/basic_string.h **** 
 149:/usr/include/newlib/c++/9.2.1/bits/basic_string.h ****       // Use empty-base optimization: http://www.cantrip.org/emptyopt.html
 150:/usr/include/newlib/c++/9.2.1/bits/basic_string.h ****       struct _Alloc_hider : allocator_type // TODO check __is_final
 151:/usr/include/newlib/c++/9.2.1/bits/basic_string.h ****       {
 152:/usr/include/newlib/c++/9.2.1/bits/basic_string.h **** #if __cplusplus < 201103L
 153:/usr/include/newlib/c++/9.2.1/bits/basic_string.h **** 	_Alloc_hider(pointer __dat, const _Alloc& __a = _Alloc())
 154:/usr/include/newlib/c++/9.2.1/bits/basic_string.h **** 	: allocator_type(__a), _M_p(__dat) { }
 155:/usr/include/newlib/c++/9.2.1/bits/basic_string.h **** #else
 156:/usr/include/newlib/c++/9.2.1/bits/basic_string.h **** 	_Alloc_hider(pointer __dat, const _Alloc& __a)
 157:/usr/include/newlib/c++/9.2.1/bits/basic_string.h **** 	: allocator_type(__a), _M_p(__dat) { }
 158:/usr/include/newlib/c++/9.2.1/bits/basic_string.h **** 
 159:/usr/include/newlib/c++/9.2.1/bits/basic_string.h **** 	_Alloc_hider(pointer __dat, _Alloc&& __a = _Alloc())
 160:/usr/include/newlib/c++/9.2.1/bits/basic_string.h **** 	: allocator_type(std::move(__a)), _M_p(__dat) { }
 161:/usr/include/newlib/c++/9.2.1/bits/basic_string.h **** #endif
 162:/usr/include/newlib/c++/9.2.1/bits/basic_string.h **** 
 163:/usr/include/newlib/c++/9.2.1/bits/basic_string.h **** 	pointer _M_p; // The actual data.
 164:/usr/include/newlib/c++/9.2.1/bits/basic_string.h ****       };
ARM GAS  /tmp/ccpr9r5K.s 			page 174


 165:/usr/include/newlib/c++/9.2.1/bits/basic_string.h **** 
 166:/usr/include/newlib/c++/9.2.1/bits/basic_string.h ****       _Alloc_hider	_M_dataplus;
 167:/usr/include/newlib/c++/9.2.1/bits/basic_string.h ****       size_type		_M_string_length;
 168:/usr/include/newlib/c++/9.2.1/bits/basic_string.h **** 
 169:/usr/include/newlib/c++/9.2.1/bits/basic_string.h ****       enum { _S_local_capacity = 15 / sizeof(_CharT) };
 170:/usr/include/newlib/c++/9.2.1/bits/basic_string.h **** 
 171:/usr/include/newlib/c++/9.2.1/bits/basic_string.h ****       union
 172:/usr/include/newlib/c++/9.2.1/bits/basic_string.h ****       {
 173:/usr/include/newlib/c++/9.2.1/bits/basic_string.h **** 	_CharT           _M_local_buf[_S_local_capacity + 1];
 174:/usr/include/newlib/c++/9.2.1/bits/basic_string.h **** 	size_type        _M_allocated_capacity;
 175:/usr/include/newlib/c++/9.2.1/bits/basic_string.h ****       };
 176:/usr/include/newlib/c++/9.2.1/bits/basic_string.h **** 
 177:/usr/include/newlib/c++/9.2.1/bits/basic_string.h ****       void
 178:/usr/include/newlib/c++/9.2.1/bits/basic_string.h ****       _M_data(pointer __p)
 179:/usr/include/newlib/c++/9.2.1/bits/basic_string.h ****       { _M_dataplus._M_p = __p; }
 180:/usr/include/newlib/c++/9.2.1/bits/basic_string.h **** 
 181:/usr/include/newlib/c++/9.2.1/bits/basic_string.h ****       void
 182:/usr/include/newlib/c++/9.2.1/bits/basic_string.h ****       _M_length(size_type __length)
 183:/usr/include/newlib/c++/9.2.1/bits/basic_string.h ****       { _M_string_length = __length; }
 6193              		.loc 20 183 9 view .LVU1490
 6194 00f2 0324     		movs	r4, #3
 6195              	.LBE1749:
 6196              	.LBE1748:
 6197              	.LBE1747:
 6198              	.LBE1746:
 6199              	.LBE1745:
 6200              	.LBE1744:
 6201              	.LBE1743:
 6202              	.LBE1742:
 6203              	.LBE1741:
 6204              	.LBE1740:
 6205              	.LBE1739:
 6206              		.loc 16 55 17 view .LVU1491
 6207 00f4 FFF7FEFF 		bl	_ZN5daisy9Parameter4InitENS_13AnalogControlEffNS0_5CurveE
 6208              	.LVL474:
 6209              	.LBB1822:
 6210              	.LBI1822:
 6211              		.loc 3 23 5 is_stmt 1 view .LVU1492
 6212              		.loc 3 23 5 is_stmt 0 view .LVU1493
 6213              	.LBE1822:
  56:ex_vco.cpp    **** 
  57:ex_vco.cpp    ****     //briefly display module name
  58:ex_vco.cpp    ****     std::string str  = "VCO";
 6214              		.loc 16 58 5 is_stmt 1 view .LVU1494
 6215              	.LBB1823:
 6216              	.LBI1823:
 6217              		.file 21 "/usr/include/newlib/c++/9.2.1/bits/allocator.h"
   1:/usr/include/newlib/c++/9.2.1/bits/allocator.h **** // Allocators -*- C++ -*-
   2:/usr/include/newlib/c++/9.2.1/bits/allocator.h **** 
   3:/usr/include/newlib/c++/9.2.1/bits/allocator.h **** // Copyright (C) 2001-2019 Free Software Foundation, Inc.
   4:/usr/include/newlib/c++/9.2.1/bits/allocator.h **** //
   5:/usr/include/newlib/c++/9.2.1/bits/allocator.h **** // This file is part of the GNU ISO C++ Library.  This library is free
   6:/usr/include/newlib/c++/9.2.1/bits/allocator.h **** // software; you can redistribute it and/or modify it under the
   7:/usr/include/newlib/c++/9.2.1/bits/allocator.h **** // terms of the GNU General Public License as published by the
   8:/usr/include/newlib/c++/9.2.1/bits/allocator.h **** // Free Software Foundation; either version 3, or (at your option)
   9:/usr/include/newlib/c++/9.2.1/bits/allocator.h **** // any later version.
  10:/usr/include/newlib/c++/9.2.1/bits/allocator.h **** 
ARM GAS  /tmp/ccpr9r5K.s 			page 175


  11:/usr/include/newlib/c++/9.2.1/bits/allocator.h **** // This library is distributed in the hope that it will be useful,
  12:/usr/include/newlib/c++/9.2.1/bits/allocator.h **** // but WITHOUT ANY WARRANTY; without even the implied warranty of
  13:/usr/include/newlib/c++/9.2.1/bits/allocator.h **** // MERCHANTABILITY or FITNESS FOR A PARTICULAR PURPOSE.  See the
  14:/usr/include/newlib/c++/9.2.1/bits/allocator.h **** // GNU General Public License for more details.
  15:/usr/include/newlib/c++/9.2.1/bits/allocator.h **** 
  16:/usr/include/newlib/c++/9.2.1/bits/allocator.h **** // Under Section 7 of GPL version 3, you are granted additional
  17:/usr/include/newlib/c++/9.2.1/bits/allocator.h **** // permissions described in the GCC Runtime Library Exception, version
  18:/usr/include/newlib/c++/9.2.1/bits/allocator.h **** // 3.1, as published by the Free Software Foundation.
  19:/usr/include/newlib/c++/9.2.1/bits/allocator.h **** 
  20:/usr/include/newlib/c++/9.2.1/bits/allocator.h **** // You should have received a copy of the GNU General Public License and
  21:/usr/include/newlib/c++/9.2.1/bits/allocator.h **** // a copy of the GCC Runtime Library Exception along with this program;
  22:/usr/include/newlib/c++/9.2.1/bits/allocator.h **** // see the files COPYING3 and COPYING.RUNTIME respectively.  If not, see
  23:/usr/include/newlib/c++/9.2.1/bits/allocator.h **** // <http://www.gnu.org/licenses/>.
  24:/usr/include/newlib/c++/9.2.1/bits/allocator.h **** 
  25:/usr/include/newlib/c++/9.2.1/bits/allocator.h **** /*
  26:/usr/include/newlib/c++/9.2.1/bits/allocator.h ****  * Copyright (c) 1996-1997
  27:/usr/include/newlib/c++/9.2.1/bits/allocator.h ****  * Silicon Graphics Computer Systems, Inc.
  28:/usr/include/newlib/c++/9.2.1/bits/allocator.h ****  *
  29:/usr/include/newlib/c++/9.2.1/bits/allocator.h ****  * Permission to use, copy, modify, distribute and sell this software
  30:/usr/include/newlib/c++/9.2.1/bits/allocator.h ****  * and its documentation for any purpose is hereby granted without fee,
  31:/usr/include/newlib/c++/9.2.1/bits/allocator.h ****  * provided that the above copyright notice appear in all copies and
  32:/usr/include/newlib/c++/9.2.1/bits/allocator.h ****  * that both that copyright notice and this permission notice appear
  33:/usr/include/newlib/c++/9.2.1/bits/allocator.h ****  * in supporting documentation.  Silicon Graphics makes no
  34:/usr/include/newlib/c++/9.2.1/bits/allocator.h ****  * representations about the suitability of this software for any
  35:/usr/include/newlib/c++/9.2.1/bits/allocator.h ****  * purpose.  It is provided "as is" without express or implied warranty.
  36:/usr/include/newlib/c++/9.2.1/bits/allocator.h ****  */
  37:/usr/include/newlib/c++/9.2.1/bits/allocator.h **** 
  38:/usr/include/newlib/c++/9.2.1/bits/allocator.h **** /** @file bits/allocator.h
  39:/usr/include/newlib/c++/9.2.1/bits/allocator.h ****  *  This is an internal header file, included by other library headers.
  40:/usr/include/newlib/c++/9.2.1/bits/allocator.h ****  *  Do not attempt to use it directly. @headername{memory}
  41:/usr/include/newlib/c++/9.2.1/bits/allocator.h ****  */
  42:/usr/include/newlib/c++/9.2.1/bits/allocator.h **** 
  43:/usr/include/newlib/c++/9.2.1/bits/allocator.h **** #ifndef _ALLOCATOR_H
  44:/usr/include/newlib/c++/9.2.1/bits/allocator.h **** #define _ALLOCATOR_H 1
  45:/usr/include/newlib/c++/9.2.1/bits/allocator.h **** 
  46:/usr/include/newlib/c++/9.2.1/bits/allocator.h **** #include <bits/c++allocator.h> // Define the base class to std::allocator.
  47:/usr/include/newlib/c++/9.2.1/bits/allocator.h **** #include <bits/memoryfwd.h>
  48:/usr/include/newlib/c++/9.2.1/bits/allocator.h **** #if __cplusplus >= 201103L
  49:/usr/include/newlib/c++/9.2.1/bits/allocator.h **** #include <type_traits>
  50:/usr/include/newlib/c++/9.2.1/bits/allocator.h **** #endif
  51:/usr/include/newlib/c++/9.2.1/bits/allocator.h **** 
  52:/usr/include/newlib/c++/9.2.1/bits/allocator.h **** #define __cpp_lib_incomplete_container_elements 201505
  53:/usr/include/newlib/c++/9.2.1/bits/allocator.h **** #if __cplusplus >= 201103L
  54:/usr/include/newlib/c++/9.2.1/bits/allocator.h **** # define __cpp_lib_allocator_is_always_equal 201411
  55:/usr/include/newlib/c++/9.2.1/bits/allocator.h **** #endif
  56:/usr/include/newlib/c++/9.2.1/bits/allocator.h **** 
  57:/usr/include/newlib/c++/9.2.1/bits/allocator.h **** namespace std _GLIBCXX_VISIBILITY(default)
  58:/usr/include/newlib/c++/9.2.1/bits/allocator.h **** {
  59:/usr/include/newlib/c++/9.2.1/bits/allocator.h **** _GLIBCXX_BEGIN_NAMESPACE_VERSION
  60:/usr/include/newlib/c++/9.2.1/bits/allocator.h **** 
  61:/usr/include/newlib/c++/9.2.1/bits/allocator.h ****   /**
  62:/usr/include/newlib/c++/9.2.1/bits/allocator.h ****    *  @addtogroup allocators
  63:/usr/include/newlib/c++/9.2.1/bits/allocator.h ****    *  @{
  64:/usr/include/newlib/c++/9.2.1/bits/allocator.h ****    */
  65:/usr/include/newlib/c++/9.2.1/bits/allocator.h **** 
  66:/usr/include/newlib/c++/9.2.1/bits/allocator.h ****   /// allocator<void> specialization.
  67:/usr/include/newlib/c++/9.2.1/bits/allocator.h ****   template<>
ARM GAS  /tmp/ccpr9r5K.s 			page 176


  68:/usr/include/newlib/c++/9.2.1/bits/allocator.h ****     class allocator<void>
  69:/usr/include/newlib/c++/9.2.1/bits/allocator.h ****     {
  70:/usr/include/newlib/c++/9.2.1/bits/allocator.h ****     public:
  71:/usr/include/newlib/c++/9.2.1/bits/allocator.h ****       typedef size_t      size_type;
  72:/usr/include/newlib/c++/9.2.1/bits/allocator.h ****       typedef ptrdiff_t   difference_type;
  73:/usr/include/newlib/c++/9.2.1/bits/allocator.h ****       typedef void*       pointer;
  74:/usr/include/newlib/c++/9.2.1/bits/allocator.h ****       typedef const void* const_pointer;
  75:/usr/include/newlib/c++/9.2.1/bits/allocator.h ****       typedef void        value_type;
  76:/usr/include/newlib/c++/9.2.1/bits/allocator.h **** 
  77:/usr/include/newlib/c++/9.2.1/bits/allocator.h ****       template<typename _Tp1>
  78:/usr/include/newlib/c++/9.2.1/bits/allocator.h **** 	struct rebind
  79:/usr/include/newlib/c++/9.2.1/bits/allocator.h **** 	{ typedef allocator<_Tp1> other; };
  80:/usr/include/newlib/c++/9.2.1/bits/allocator.h **** 
  81:/usr/include/newlib/c++/9.2.1/bits/allocator.h **** #if __cplusplus >= 201103L
  82:/usr/include/newlib/c++/9.2.1/bits/allocator.h ****       // _GLIBCXX_RESOLVE_LIB_DEFECTS
  83:/usr/include/newlib/c++/9.2.1/bits/allocator.h ****       // 2103. std::allocator propagate_on_container_move_assignment
  84:/usr/include/newlib/c++/9.2.1/bits/allocator.h ****       typedef true_type propagate_on_container_move_assignment;
  85:/usr/include/newlib/c++/9.2.1/bits/allocator.h **** 
  86:/usr/include/newlib/c++/9.2.1/bits/allocator.h ****       typedef true_type is_always_equal;
  87:/usr/include/newlib/c++/9.2.1/bits/allocator.h **** 
  88:/usr/include/newlib/c++/9.2.1/bits/allocator.h ****       template<typename _Up, typename... _Args>
  89:/usr/include/newlib/c++/9.2.1/bits/allocator.h **** 	void
  90:/usr/include/newlib/c++/9.2.1/bits/allocator.h **** 	construct(_Up* __p, _Args&&... __args)
  91:/usr/include/newlib/c++/9.2.1/bits/allocator.h **** 	noexcept(noexcept(::new((void *)__p)
  92:/usr/include/newlib/c++/9.2.1/bits/allocator.h **** 			    _Up(std::forward<_Args>(__args)...)))
  93:/usr/include/newlib/c++/9.2.1/bits/allocator.h **** 	{ ::new((void *)__p) _Up(std::forward<_Args>(__args)...); }
  94:/usr/include/newlib/c++/9.2.1/bits/allocator.h **** 
  95:/usr/include/newlib/c++/9.2.1/bits/allocator.h ****       template<typename _Up>
  96:/usr/include/newlib/c++/9.2.1/bits/allocator.h **** 	void
  97:/usr/include/newlib/c++/9.2.1/bits/allocator.h **** 	destroy(_Up* __p)
  98:/usr/include/newlib/c++/9.2.1/bits/allocator.h **** 	noexcept(noexcept(__p->~_Up()))
  99:/usr/include/newlib/c++/9.2.1/bits/allocator.h **** 	{ __p->~_Up(); }
 100:/usr/include/newlib/c++/9.2.1/bits/allocator.h **** #endif
 101:/usr/include/newlib/c++/9.2.1/bits/allocator.h ****     };
 102:/usr/include/newlib/c++/9.2.1/bits/allocator.h **** 
 103:/usr/include/newlib/c++/9.2.1/bits/allocator.h ****   /**
 104:/usr/include/newlib/c++/9.2.1/bits/allocator.h ****    * @brief  The @a standard allocator, as per [20.4].
 105:/usr/include/newlib/c++/9.2.1/bits/allocator.h ****    *
 106:/usr/include/newlib/c++/9.2.1/bits/allocator.h ****    *  See https://gcc.gnu.org/onlinedocs/libstdc++/manual/memory.html#std.util.memory.allocator
 107:/usr/include/newlib/c++/9.2.1/bits/allocator.h ****    *  for further details.
 108:/usr/include/newlib/c++/9.2.1/bits/allocator.h ****    *
 109:/usr/include/newlib/c++/9.2.1/bits/allocator.h ****    *  @tparam  _Tp  Type of allocated object.
 110:/usr/include/newlib/c++/9.2.1/bits/allocator.h ****    */
 111:/usr/include/newlib/c++/9.2.1/bits/allocator.h ****   template<typename _Tp>
 112:/usr/include/newlib/c++/9.2.1/bits/allocator.h ****     class allocator : public __allocator_base<_Tp>
 113:/usr/include/newlib/c++/9.2.1/bits/allocator.h ****     {
 114:/usr/include/newlib/c++/9.2.1/bits/allocator.h ****    public:
 115:/usr/include/newlib/c++/9.2.1/bits/allocator.h ****       typedef size_t     size_type;
 116:/usr/include/newlib/c++/9.2.1/bits/allocator.h ****       typedef ptrdiff_t  difference_type;
 117:/usr/include/newlib/c++/9.2.1/bits/allocator.h ****       typedef _Tp*       pointer;
 118:/usr/include/newlib/c++/9.2.1/bits/allocator.h ****       typedef const _Tp* const_pointer;
 119:/usr/include/newlib/c++/9.2.1/bits/allocator.h ****       typedef _Tp&       reference;
 120:/usr/include/newlib/c++/9.2.1/bits/allocator.h ****       typedef const _Tp& const_reference;
 121:/usr/include/newlib/c++/9.2.1/bits/allocator.h ****       typedef _Tp        value_type;
 122:/usr/include/newlib/c++/9.2.1/bits/allocator.h **** 
 123:/usr/include/newlib/c++/9.2.1/bits/allocator.h ****       template<typename _Tp1>
 124:/usr/include/newlib/c++/9.2.1/bits/allocator.h **** 	struct rebind
ARM GAS  /tmp/ccpr9r5K.s 			page 177


 125:/usr/include/newlib/c++/9.2.1/bits/allocator.h **** 	{ typedef allocator<_Tp1> other; };
 126:/usr/include/newlib/c++/9.2.1/bits/allocator.h **** 
 127:/usr/include/newlib/c++/9.2.1/bits/allocator.h **** #if __cplusplus >= 201103L
 128:/usr/include/newlib/c++/9.2.1/bits/allocator.h ****       // _GLIBCXX_RESOLVE_LIB_DEFECTS
 129:/usr/include/newlib/c++/9.2.1/bits/allocator.h ****       // 2103. std::allocator propagate_on_container_move_assignment
 130:/usr/include/newlib/c++/9.2.1/bits/allocator.h ****       typedef true_type propagate_on_container_move_assignment;
 131:/usr/include/newlib/c++/9.2.1/bits/allocator.h **** 
 132:/usr/include/newlib/c++/9.2.1/bits/allocator.h ****       typedef true_type is_always_equal;
 133:/usr/include/newlib/c++/9.2.1/bits/allocator.h **** #endif
 134:/usr/include/newlib/c++/9.2.1/bits/allocator.h **** 
 135:/usr/include/newlib/c++/9.2.1/bits/allocator.h ****       // _GLIBCXX_RESOLVE_LIB_DEFECTS
 136:/usr/include/newlib/c++/9.2.1/bits/allocator.h ****       // 3035. std::allocator's constructors should be constexpr
 137:/usr/include/newlib/c++/9.2.1/bits/allocator.h ****       _GLIBCXX20_CONSTEXPR
 138:/usr/include/newlib/c++/9.2.1/bits/allocator.h ****       allocator() _GLIBCXX_NOTHROW { }
 6218              		.loc 21 138 7 view .LVU1495
 6219              	.LBB1824:
 6220              	.LBI1824:
 6221              		.file 22 "/usr/include/newlib/c++/9.2.1/ext/new_allocator.h"
   1:/usr/include/newlib/c++/9.2.1/ext/new_allocator.h **** // Allocator that wraps operator new -*- C++ -*-
   2:/usr/include/newlib/c++/9.2.1/ext/new_allocator.h **** 
   3:/usr/include/newlib/c++/9.2.1/ext/new_allocator.h **** // Copyright (C) 2001-2019 Free Software Foundation, Inc.
   4:/usr/include/newlib/c++/9.2.1/ext/new_allocator.h **** //
   5:/usr/include/newlib/c++/9.2.1/ext/new_allocator.h **** // This file is part of the GNU ISO C++ Library.  This library is free
   6:/usr/include/newlib/c++/9.2.1/ext/new_allocator.h **** // software; you can redistribute it and/or modify it under the
   7:/usr/include/newlib/c++/9.2.1/ext/new_allocator.h **** // terms of the GNU General Public License as published by the
   8:/usr/include/newlib/c++/9.2.1/ext/new_allocator.h **** // Free Software Foundation; either version 3, or (at your option)
   9:/usr/include/newlib/c++/9.2.1/ext/new_allocator.h **** // any later version.
  10:/usr/include/newlib/c++/9.2.1/ext/new_allocator.h **** 
  11:/usr/include/newlib/c++/9.2.1/ext/new_allocator.h **** // This library is distributed in the hope that it will be useful,
  12:/usr/include/newlib/c++/9.2.1/ext/new_allocator.h **** // but WITHOUT ANY WARRANTY; without even the implied warranty of
  13:/usr/include/newlib/c++/9.2.1/ext/new_allocator.h **** // MERCHANTABILITY or FITNESS FOR A PARTICULAR PURPOSE.  See the
  14:/usr/include/newlib/c++/9.2.1/ext/new_allocator.h **** // GNU General Public License for more details.
  15:/usr/include/newlib/c++/9.2.1/ext/new_allocator.h **** 
  16:/usr/include/newlib/c++/9.2.1/ext/new_allocator.h **** // Under Section 7 of GPL version 3, you are granted additional
  17:/usr/include/newlib/c++/9.2.1/ext/new_allocator.h **** // permissions described in the GCC Runtime Library Exception, version
  18:/usr/include/newlib/c++/9.2.1/ext/new_allocator.h **** // 3.1, as published by the Free Software Foundation.
  19:/usr/include/newlib/c++/9.2.1/ext/new_allocator.h **** 
  20:/usr/include/newlib/c++/9.2.1/ext/new_allocator.h **** // You should have received a copy of the GNU General Public License and
  21:/usr/include/newlib/c++/9.2.1/ext/new_allocator.h **** // a copy of the GCC Runtime Library Exception along with this program;
  22:/usr/include/newlib/c++/9.2.1/ext/new_allocator.h **** // see the files COPYING3 and COPYING.RUNTIME respectively.  If not, see
  23:/usr/include/newlib/c++/9.2.1/ext/new_allocator.h **** // <http://www.gnu.org/licenses/>.
  24:/usr/include/newlib/c++/9.2.1/ext/new_allocator.h **** 
  25:/usr/include/newlib/c++/9.2.1/ext/new_allocator.h **** /** @file ext/new_allocator.h
  26:/usr/include/newlib/c++/9.2.1/ext/new_allocator.h ****  *  This file is a GNU extension to the Standard C++ Library.
  27:/usr/include/newlib/c++/9.2.1/ext/new_allocator.h ****  */
  28:/usr/include/newlib/c++/9.2.1/ext/new_allocator.h **** 
  29:/usr/include/newlib/c++/9.2.1/ext/new_allocator.h **** #ifndef _NEW_ALLOCATOR_H
  30:/usr/include/newlib/c++/9.2.1/ext/new_allocator.h **** #define _NEW_ALLOCATOR_H 1
  31:/usr/include/newlib/c++/9.2.1/ext/new_allocator.h **** 
  32:/usr/include/newlib/c++/9.2.1/ext/new_allocator.h **** #include <bits/c++config.h>
  33:/usr/include/newlib/c++/9.2.1/ext/new_allocator.h **** #include <new>
  34:/usr/include/newlib/c++/9.2.1/ext/new_allocator.h **** #include <bits/functexcept.h>
  35:/usr/include/newlib/c++/9.2.1/ext/new_allocator.h **** #include <bits/move.h>
  36:/usr/include/newlib/c++/9.2.1/ext/new_allocator.h **** #if __cplusplus >= 201103L
  37:/usr/include/newlib/c++/9.2.1/ext/new_allocator.h **** #include <type_traits>
  38:/usr/include/newlib/c++/9.2.1/ext/new_allocator.h **** #endif
  39:/usr/include/newlib/c++/9.2.1/ext/new_allocator.h **** 
ARM GAS  /tmp/ccpr9r5K.s 			page 178


  40:/usr/include/newlib/c++/9.2.1/ext/new_allocator.h **** namespace __gnu_cxx _GLIBCXX_VISIBILITY(default)
  41:/usr/include/newlib/c++/9.2.1/ext/new_allocator.h **** {
  42:/usr/include/newlib/c++/9.2.1/ext/new_allocator.h **** _GLIBCXX_BEGIN_NAMESPACE_VERSION
  43:/usr/include/newlib/c++/9.2.1/ext/new_allocator.h **** 
  44:/usr/include/newlib/c++/9.2.1/ext/new_allocator.h ****   using std::size_t;
  45:/usr/include/newlib/c++/9.2.1/ext/new_allocator.h ****   using std::ptrdiff_t;
  46:/usr/include/newlib/c++/9.2.1/ext/new_allocator.h **** 
  47:/usr/include/newlib/c++/9.2.1/ext/new_allocator.h ****   /**
  48:/usr/include/newlib/c++/9.2.1/ext/new_allocator.h ****    *  @brief  An allocator that uses global new, as per [20.4].
  49:/usr/include/newlib/c++/9.2.1/ext/new_allocator.h ****    *  @ingroup allocators
  50:/usr/include/newlib/c++/9.2.1/ext/new_allocator.h ****    *
  51:/usr/include/newlib/c++/9.2.1/ext/new_allocator.h ****    *  This is precisely the allocator defined in the C++ Standard.
  52:/usr/include/newlib/c++/9.2.1/ext/new_allocator.h ****    *    - all allocation calls operator new
  53:/usr/include/newlib/c++/9.2.1/ext/new_allocator.h ****    *    - all deallocation calls operator delete
  54:/usr/include/newlib/c++/9.2.1/ext/new_allocator.h ****    *
  55:/usr/include/newlib/c++/9.2.1/ext/new_allocator.h ****    *  @tparam  _Tp  Type of allocated object.
  56:/usr/include/newlib/c++/9.2.1/ext/new_allocator.h ****    */
  57:/usr/include/newlib/c++/9.2.1/ext/new_allocator.h ****   template<typename _Tp>
  58:/usr/include/newlib/c++/9.2.1/ext/new_allocator.h ****     class new_allocator
  59:/usr/include/newlib/c++/9.2.1/ext/new_allocator.h ****     {
  60:/usr/include/newlib/c++/9.2.1/ext/new_allocator.h ****     public:
  61:/usr/include/newlib/c++/9.2.1/ext/new_allocator.h ****       typedef size_t     size_type;
  62:/usr/include/newlib/c++/9.2.1/ext/new_allocator.h ****       typedef ptrdiff_t  difference_type;
  63:/usr/include/newlib/c++/9.2.1/ext/new_allocator.h ****       typedef _Tp*       pointer;
  64:/usr/include/newlib/c++/9.2.1/ext/new_allocator.h ****       typedef const _Tp* const_pointer;
  65:/usr/include/newlib/c++/9.2.1/ext/new_allocator.h ****       typedef _Tp&       reference;
  66:/usr/include/newlib/c++/9.2.1/ext/new_allocator.h ****       typedef const _Tp& const_reference;
  67:/usr/include/newlib/c++/9.2.1/ext/new_allocator.h ****       typedef _Tp        value_type;
  68:/usr/include/newlib/c++/9.2.1/ext/new_allocator.h **** 
  69:/usr/include/newlib/c++/9.2.1/ext/new_allocator.h ****       template<typename _Tp1>
  70:/usr/include/newlib/c++/9.2.1/ext/new_allocator.h **** 	struct rebind
  71:/usr/include/newlib/c++/9.2.1/ext/new_allocator.h **** 	{ typedef new_allocator<_Tp1> other; };
  72:/usr/include/newlib/c++/9.2.1/ext/new_allocator.h **** 
  73:/usr/include/newlib/c++/9.2.1/ext/new_allocator.h **** #if __cplusplus >= 201103L
  74:/usr/include/newlib/c++/9.2.1/ext/new_allocator.h ****       // _GLIBCXX_RESOLVE_LIB_DEFECTS
  75:/usr/include/newlib/c++/9.2.1/ext/new_allocator.h ****       // 2103. propagate_on_container_move_assignment
  76:/usr/include/newlib/c++/9.2.1/ext/new_allocator.h ****       typedef std::true_type propagate_on_container_move_assignment;
  77:/usr/include/newlib/c++/9.2.1/ext/new_allocator.h **** #endif
  78:/usr/include/newlib/c++/9.2.1/ext/new_allocator.h **** 
  79:/usr/include/newlib/c++/9.2.1/ext/new_allocator.h ****       _GLIBCXX20_CONSTEXPR
  80:/usr/include/newlib/c++/9.2.1/ext/new_allocator.h ****       new_allocator() _GLIBCXX_USE_NOEXCEPT { }
 6222              		.loc 22 80 7 view .LVU1496
 6223              		.loc 22 80 7 is_stmt 0 view .LVU1497
 6224              	.LBE1824:
 6225              	.LBE1823:
 6226              	.LBB1825:
 6227              	.LBI1739:
 184:/usr/include/newlib/c++/9.2.1/bits/basic_string.h **** 
 185:/usr/include/newlib/c++/9.2.1/bits/basic_string.h ****       pointer
 186:/usr/include/newlib/c++/9.2.1/bits/basic_string.h ****       _M_data() const
 187:/usr/include/newlib/c++/9.2.1/bits/basic_string.h ****       { return _M_dataplus._M_p; }
 188:/usr/include/newlib/c++/9.2.1/bits/basic_string.h **** 
 189:/usr/include/newlib/c++/9.2.1/bits/basic_string.h ****       pointer
 190:/usr/include/newlib/c++/9.2.1/bits/basic_string.h ****       _M_local_data()
 191:/usr/include/newlib/c++/9.2.1/bits/basic_string.h ****       {
 192:/usr/include/newlib/c++/9.2.1/bits/basic_string.h **** #if __cplusplus >= 201103L
 193:/usr/include/newlib/c++/9.2.1/bits/basic_string.h **** 	return std::pointer_traits<pointer>::pointer_to(*_M_local_buf);
ARM GAS  /tmp/ccpr9r5K.s 			page 179


 194:/usr/include/newlib/c++/9.2.1/bits/basic_string.h **** #else
 195:/usr/include/newlib/c++/9.2.1/bits/basic_string.h **** 	return pointer(_M_local_buf);
 196:/usr/include/newlib/c++/9.2.1/bits/basic_string.h **** #endif
 197:/usr/include/newlib/c++/9.2.1/bits/basic_string.h ****       }
 198:/usr/include/newlib/c++/9.2.1/bits/basic_string.h **** 
 199:/usr/include/newlib/c++/9.2.1/bits/basic_string.h ****       const_pointer
 200:/usr/include/newlib/c++/9.2.1/bits/basic_string.h ****       _M_local_data() const
 201:/usr/include/newlib/c++/9.2.1/bits/basic_string.h ****       {
 202:/usr/include/newlib/c++/9.2.1/bits/basic_string.h **** #if __cplusplus >= 201103L
 203:/usr/include/newlib/c++/9.2.1/bits/basic_string.h **** 	return std::pointer_traits<const_pointer>::pointer_to(*_M_local_buf);
 204:/usr/include/newlib/c++/9.2.1/bits/basic_string.h **** #else
 205:/usr/include/newlib/c++/9.2.1/bits/basic_string.h **** 	return const_pointer(_M_local_buf);
 206:/usr/include/newlib/c++/9.2.1/bits/basic_string.h **** #endif
 207:/usr/include/newlib/c++/9.2.1/bits/basic_string.h ****       }
 208:/usr/include/newlib/c++/9.2.1/bits/basic_string.h **** 
 209:/usr/include/newlib/c++/9.2.1/bits/basic_string.h ****       void
 210:/usr/include/newlib/c++/9.2.1/bits/basic_string.h ****       _M_capacity(size_type __capacity)
 211:/usr/include/newlib/c++/9.2.1/bits/basic_string.h ****       { _M_allocated_capacity = __capacity; }
 212:/usr/include/newlib/c++/9.2.1/bits/basic_string.h **** 
 213:/usr/include/newlib/c++/9.2.1/bits/basic_string.h ****       void
 214:/usr/include/newlib/c++/9.2.1/bits/basic_string.h ****       _M_set_length(size_type __n)
 215:/usr/include/newlib/c++/9.2.1/bits/basic_string.h ****       {
 216:/usr/include/newlib/c++/9.2.1/bits/basic_string.h **** 	_M_length(__n);
 217:/usr/include/newlib/c++/9.2.1/bits/basic_string.h **** 	traits_type::assign(_M_data()[__n], _CharT());
 218:/usr/include/newlib/c++/9.2.1/bits/basic_string.h ****       }
 219:/usr/include/newlib/c++/9.2.1/bits/basic_string.h **** 
 220:/usr/include/newlib/c++/9.2.1/bits/basic_string.h ****       bool
 221:/usr/include/newlib/c++/9.2.1/bits/basic_string.h ****       _M_is_local() const
 222:/usr/include/newlib/c++/9.2.1/bits/basic_string.h ****       { return _M_data() == _M_local_data(); }
 223:/usr/include/newlib/c++/9.2.1/bits/basic_string.h **** 
 224:/usr/include/newlib/c++/9.2.1/bits/basic_string.h ****       // Create & Destroy
 225:/usr/include/newlib/c++/9.2.1/bits/basic_string.h ****       pointer
 226:/usr/include/newlib/c++/9.2.1/bits/basic_string.h ****       _M_create(size_type&, size_type);
 227:/usr/include/newlib/c++/9.2.1/bits/basic_string.h **** 
 228:/usr/include/newlib/c++/9.2.1/bits/basic_string.h ****       void
 229:/usr/include/newlib/c++/9.2.1/bits/basic_string.h ****       _M_dispose()
 230:/usr/include/newlib/c++/9.2.1/bits/basic_string.h ****       {
 231:/usr/include/newlib/c++/9.2.1/bits/basic_string.h **** 	if (!_M_is_local())
 232:/usr/include/newlib/c++/9.2.1/bits/basic_string.h **** 	  _M_destroy(_M_allocated_capacity);
 233:/usr/include/newlib/c++/9.2.1/bits/basic_string.h ****       }
 234:/usr/include/newlib/c++/9.2.1/bits/basic_string.h **** 
 235:/usr/include/newlib/c++/9.2.1/bits/basic_string.h ****       void
 236:/usr/include/newlib/c++/9.2.1/bits/basic_string.h ****       _M_destroy(size_type __size) throw()
 237:/usr/include/newlib/c++/9.2.1/bits/basic_string.h ****       { _Alloc_traits::deallocate(_M_get_allocator(), _M_data(), __size + 1); }
 238:/usr/include/newlib/c++/9.2.1/bits/basic_string.h **** 
 239:/usr/include/newlib/c++/9.2.1/bits/basic_string.h ****       // _M_construct_aux is used to implement the 21.3.1 para 15 which
 240:/usr/include/newlib/c++/9.2.1/bits/basic_string.h ****       // requires special behaviour if _InIterator is an integral type
 241:/usr/include/newlib/c++/9.2.1/bits/basic_string.h ****       template<typename _InIterator>
 242:/usr/include/newlib/c++/9.2.1/bits/basic_string.h ****         void
 243:/usr/include/newlib/c++/9.2.1/bits/basic_string.h ****         _M_construct_aux(_InIterator __beg, _InIterator __end,
 244:/usr/include/newlib/c++/9.2.1/bits/basic_string.h **** 			 std::__false_type)
 245:/usr/include/newlib/c++/9.2.1/bits/basic_string.h **** 	{
 246:/usr/include/newlib/c++/9.2.1/bits/basic_string.h ****           typedef typename iterator_traits<_InIterator>::iterator_category _Tag;
 247:/usr/include/newlib/c++/9.2.1/bits/basic_string.h ****           _M_construct(__beg, __end, _Tag());
 248:/usr/include/newlib/c++/9.2.1/bits/basic_string.h **** 	}
 249:/usr/include/newlib/c++/9.2.1/bits/basic_string.h **** 
 250:/usr/include/newlib/c++/9.2.1/bits/basic_string.h ****       // _GLIBCXX_RESOLVE_LIB_DEFECTS
ARM GAS  /tmp/ccpr9r5K.s 			page 180


 251:/usr/include/newlib/c++/9.2.1/bits/basic_string.h ****       // 438. Ambiguity in the "do the right thing" clause
 252:/usr/include/newlib/c++/9.2.1/bits/basic_string.h ****       template<typename _Integer>
 253:/usr/include/newlib/c++/9.2.1/bits/basic_string.h ****         void
 254:/usr/include/newlib/c++/9.2.1/bits/basic_string.h ****         _M_construct_aux(_Integer __beg, _Integer __end, std::__true_type)
 255:/usr/include/newlib/c++/9.2.1/bits/basic_string.h **** 	{ _M_construct_aux_2(static_cast<size_type>(__beg), __end); }
 256:/usr/include/newlib/c++/9.2.1/bits/basic_string.h **** 
 257:/usr/include/newlib/c++/9.2.1/bits/basic_string.h ****       void
 258:/usr/include/newlib/c++/9.2.1/bits/basic_string.h ****       _M_construct_aux_2(size_type __req, _CharT __c)
 259:/usr/include/newlib/c++/9.2.1/bits/basic_string.h ****       { _M_construct(__req, __c); }
 260:/usr/include/newlib/c++/9.2.1/bits/basic_string.h **** 
 261:/usr/include/newlib/c++/9.2.1/bits/basic_string.h ****       template<typename _InIterator>
 262:/usr/include/newlib/c++/9.2.1/bits/basic_string.h ****         void
 263:/usr/include/newlib/c++/9.2.1/bits/basic_string.h ****         _M_construct(_InIterator __beg, _InIterator __end)
 264:/usr/include/newlib/c++/9.2.1/bits/basic_string.h **** 	{
 265:/usr/include/newlib/c++/9.2.1/bits/basic_string.h **** 	  typedef typename std::__is_integer<_InIterator>::__type _Integral;
 266:/usr/include/newlib/c++/9.2.1/bits/basic_string.h **** 	  _M_construct_aux(__beg, __end, _Integral());
 267:/usr/include/newlib/c++/9.2.1/bits/basic_string.h ****         }
 268:/usr/include/newlib/c++/9.2.1/bits/basic_string.h **** 
 269:/usr/include/newlib/c++/9.2.1/bits/basic_string.h ****       // For Input Iterators, used in istreambuf_iterators, etc.
 270:/usr/include/newlib/c++/9.2.1/bits/basic_string.h ****       template<typename _InIterator>
 271:/usr/include/newlib/c++/9.2.1/bits/basic_string.h ****         void
 272:/usr/include/newlib/c++/9.2.1/bits/basic_string.h ****         _M_construct(_InIterator __beg, _InIterator __end,
 273:/usr/include/newlib/c++/9.2.1/bits/basic_string.h **** 		     std::input_iterator_tag);
 274:/usr/include/newlib/c++/9.2.1/bits/basic_string.h **** 
 275:/usr/include/newlib/c++/9.2.1/bits/basic_string.h ****       // For forward_iterators up to random_access_iterators, used for
 276:/usr/include/newlib/c++/9.2.1/bits/basic_string.h ****       // string::iterator, _CharT*, etc.
 277:/usr/include/newlib/c++/9.2.1/bits/basic_string.h ****       template<typename _FwdIterator>
 278:/usr/include/newlib/c++/9.2.1/bits/basic_string.h ****         void
 279:/usr/include/newlib/c++/9.2.1/bits/basic_string.h ****         _M_construct(_FwdIterator __beg, _FwdIterator __end,
 280:/usr/include/newlib/c++/9.2.1/bits/basic_string.h **** 		     std::forward_iterator_tag);
 281:/usr/include/newlib/c++/9.2.1/bits/basic_string.h **** 
 282:/usr/include/newlib/c++/9.2.1/bits/basic_string.h ****       void
 283:/usr/include/newlib/c++/9.2.1/bits/basic_string.h ****       _M_construct(size_type __req, _CharT __c);
 284:/usr/include/newlib/c++/9.2.1/bits/basic_string.h **** 
 285:/usr/include/newlib/c++/9.2.1/bits/basic_string.h ****       allocator_type&
 286:/usr/include/newlib/c++/9.2.1/bits/basic_string.h ****       _M_get_allocator()
 287:/usr/include/newlib/c++/9.2.1/bits/basic_string.h ****       { return _M_dataplus; }
 288:/usr/include/newlib/c++/9.2.1/bits/basic_string.h **** 
 289:/usr/include/newlib/c++/9.2.1/bits/basic_string.h ****       const allocator_type&
 290:/usr/include/newlib/c++/9.2.1/bits/basic_string.h ****       _M_get_allocator() const
 291:/usr/include/newlib/c++/9.2.1/bits/basic_string.h ****       { return _M_dataplus; }
 292:/usr/include/newlib/c++/9.2.1/bits/basic_string.h **** 
 293:/usr/include/newlib/c++/9.2.1/bits/basic_string.h ****     private:
 294:/usr/include/newlib/c++/9.2.1/bits/basic_string.h **** 
 295:/usr/include/newlib/c++/9.2.1/bits/basic_string.h **** #ifdef _GLIBCXX_DISAMBIGUATE_REPLACE_INST
 296:/usr/include/newlib/c++/9.2.1/bits/basic_string.h ****       // The explicit instantiations in misc-inst.cc require this due to
 297:/usr/include/newlib/c++/9.2.1/bits/basic_string.h ****       // https://gcc.gnu.org/bugzilla/show_bug.cgi?id=64063
 298:/usr/include/newlib/c++/9.2.1/bits/basic_string.h ****       template<typename _Tp, bool _Requires =
 299:/usr/include/newlib/c++/9.2.1/bits/basic_string.h **** 	       !__are_same<_Tp, _CharT*>::__value
 300:/usr/include/newlib/c++/9.2.1/bits/basic_string.h **** 	       && !__are_same<_Tp, const _CharT*>::__value
 301:/usr/include/newlib/c++/9.2.1/bits/basic_string.h **** 	       && !__are_same<_Tp, iterator>::__value
 302:/usr/include/newlib/c++/9.2.1/bits/basic_string.h **** 	       && !__are_same<_Tp, const_iterator>::__value>
 303:/usr/include/newlib/c++/9.2.1/bits/basic_string.h **** 	struct __enable_if_not_native_iterator
 304:/usr/include/newlib/c++/9.2.1/bits/basic_string.h **** 	{ typedef basic_string& __type; };
 305:/usr/include/newlib/c++/9.2.1/bits/basic_string.h ****       template<typename _Tp>
 306:/usr/include/newlib/c++/9.2.1/bits/basic_string.h **** 	struct __enable_if_not_native_iterator<_Tp, false> { };
 307:/usr/include/newlib/c++/9.2.1/bits/basic_string.h **** #endif
ARM GAS  /tmp/ccpr9r5K.s 			page 181


 308:/usr/include/newlib/c++/9.2.1/bits/basic_string.h **** 
 309:/usr/include/newlib/c++/9.2.1/bits/basic_string.h ****       size_type
 310:/usr/include/newlib/c++/9.2.1/bits/basic_string.h ****       _M_check(size_type __pos, const char* __s) const
 311:/usr/include/newlib/c++/9.2.1/bits/basic_string.h ****       {
 312:/usr/include/newlib/c++/9.2.1/bits/basic_string.h **** 	if (__pos > this->size())
 313:/usr/include/newlib/c++/9.2.1/bits/basic_string.h **** 	  __throw_out_of_range_fmt(__N("%s: __pos (which is %zu) > "
 314:/usr/include/newlib/c++/9.2.1/bits/basic_string.h **** 				       "this->size() (which is %zu)"),
 315:/usr/include/newlib/c++/9.2.1/bits/basic_string.h **** 				   __s, __pos, this->size());
 316:/usr/include/newlib/c++/9.2.1/bits/basic_string.h **** 	return __pos;
 317:/usr/include/newlib/c++/9.2.1/bits/basic_string.h ****       }
 318:/usr/include/newlib/c++/9.2.1/bits/basic_string.h **** 
 319:/usr/include/newlib/c++/9.2.1/bits/basic_string.h ****       void
 320:/usr/include/newlib/c++/9.2.1/bits/basic_string.h ****       _M_check_length(size_type __n1, size_type __n2, const char* __s) const
 321:/usr/include/newlib/c++/9.2.1/bits/basic_string.h ****       {
 322:/usr/include/newlib/c++/9.2.1/bits/basic_string.h **** 	if (this->max_size() - (this->size() - __n1) < __n2)
 323:/usr/include/newlib/c++/9.2.1/bits/basic_string.h **** 	  __throw_length_error(__N(__s));
 324:/usr/include/newlib/c++/9.2.1/bits/basic_string.h ****       }
 325:/usr/include/newlib/c++/9.2.1/bits/basic_string.h **** 
 326:/usr/include/newlib/c++/9.2.1/bits/basic_string.h **** 
 327:/usr/include/newlib/c++/9.2.1/bits/basic_string.h ****       // NB: _M_limit doesn't check for a bad __pos value.
 328:/usr/include/newlib/c++/9.2.1/bits/basic_string.h ****       size_type
 329:/usr/include/newlib/c++/9.2.1/bits/basic_string.h ****       _M_limit(size_type __pos, size_type __off) const _GLIBCXX_NOEXCEPT
 330:/usr/include/newlib/c++/9.2.1/bits/basic_string.h ****       {
 331:/usr/include/newlib/c++/9.2.1/bits/basic_string.h **** 	const bool __testoff =  __off < this->size() - __pos;
 332:/usr/include/newlib/c++/9.2.1/bits/basic_string.h **** 	return __testoff ? __off : this->size() - __pos;
 333:/usr/include/newlib/c++/9.2.1/bits/basic_string.h ****       }
 334:/usr/include/newlib/c++/9.2.1/bits/basic_string.h **** 
 335:/usr/include/newlib/c++/9.2.1/bits/basic_string.h ****       // True if _Rep and source do not overlap.
 336:/usr/include/newlib/c++/9.2.1/bits/basic_string.h ****       bool
 337:/usr/include/newlib/c++/9.2.1/bits/basic_string.h ****       _M_disjunct(const _CharT* __s) const _GLIBCXX_NOEXCEPT
 338:/usr/include/newlib/c++/9.2.1/bits/basic_string.h ****       {
 339:/usr/include/newlib/c++/9.2.1/bits/basic_string.h **** 	return (less<const _CharT*>()(__s, _M_data())
 340:/usr/include/newlib/c++/9.2.1/bits/basic_string.h **** 		|| less<const _CharT*>()(_M_data() + this->size(), __s));
 341:/usr/include/newlib/c++/9.2.1/bits/basic_string.h ****       }
 342:/usr/include/newlib/c++/9.2.1/bits/basic_string.h **** 
 343:/usr/include/newlib/c++/9.2.1/bits/basic_string.h ****       // When __n = 1 way faster than the general multichar
 344:/usr/include/newlib/c++/9.2.1/bits/basic_string.h ****       // traits_type::copy/move/assign.
 345:/usr/include/newlib/c++/9.2.1/bits/basic_string.h ****       static void
 346:/usr/include/newlib/c++/9.2.1/bits/basic_string.h ****       _S_copy(_CharT* __d, const _CharT* __s, size_type __n)
 347:/usr/include/newlib/c++/9.2.1/bits/basic_string.h ****       {
 348:/usr/include/newlib/c++/9.2.1/bits/basic_string.h **** 	if (__n == 1)
 349:/usr/include/newlib/c++/9.2.1/bits/basic_string.h **** 	  traits_type::assign(*__d, *__s);
 350:/usr/include/newlib/c++/9.2.1/bits/basic_string.h **** 	else
 351:/usr/include/newlib/c++/9.2.1/bits/basic_string.h **** 	  traits_type::copy(__d, __s, __n);
 352:/usr/include/newlib/c++/9.2.1/bits/basic_string.h ****       }
 353:/usr/include/newlib/c++/9.2.1/bits/basic_string.h **** 
 354:/usr/include/newlib/c++/9.2.1/bits/basic_string.h ****       static void
 355:/usr/include/newlib/c++/9.2.1/bits/basic_string.h ****       _S_move(_CharT* __d, const _CharT* __s, size_type __n)
 356:/usr/include/newlib/c++/9.2.1/bits/basic_string.h ****       {
 357:/usr/include/newlib/c++/9.2.1/bits/basic_string.h **** 	if (__n == 1)
 358:/usr/include/newlib/c++/9.2.1/bits/basic_string.h **** 	  traits_type::assign(*__d, *__s);
 359:/usr/include/newlib/c++/9.2.1/bits/basic_string.h **** 	else
 360:/usr/include/newlib/c++/9.2.1/bits/basic_string.h **** 	  traits_type::move(__d, __s, __n);
 361:/usr/include/newlib/c++/9.2.1/bits/basic_string.h ****       }
 362:/usr/include/newlib/c++/9.2.1/bits/basic_string.h **** 
 363:/usr/include/newlib/c++/9.2.1/bits/basic_string.h ****       static void
 364:/usr/include/newlib/c++/9.2.1/bits/basic_string.h ****       _S_assign(_CharT* __d, size_type __n, _CharT __c)
ARM GAS  /tmp/ccpr9r5K.s 			page 182


 365:/usr/include/newlib/c++/9.2.1/bits/basic_string.h ****       {
 366:/usr/include/newlib/c++/9.2.1/bits/basic_string.h **** 	if (__n == 1)
 367:/usr/include/newlib/c++/9.2.1/bits/basic_string.h **** 	  traits_type::assign(*__d, __c);
 368:/usr/include/newlib/c++/9.2.1/bits/basic_string.h **** 	else
 369:/usr/include/newlib/c++/9.2.1/bits/basic_string.h **** 	  traits_type::assign(__d, __n, __c);
 370:/usr/include/newlib/c++/9.2.1/bits/basic_string.h ****       }
 371:/usr/include/newlib/c++/9.2.1/bits/basic_string.h **** 
 372:/usr/include/newlib/c++/9.2.1/bits/basic_string.h ****       // _S_copy_chars is a separate template to permit specialization
 373:/usr/include/newlib/c++/9.2.1/bits/basic_string.h ****       // to optimize for the common case of pointers as iterators.
 374:/usr/include/newlib/c++/9.2.1/bits/basic_string.h ****       template<class _Iterator>
 375:/usr/include/newlib/c++/9.2.1/bits/basic_string.h ****         static void
 376:/usr/include/newlib/c++/9.2.1/bits/basic_string.h ****         _S_copy_chars(_CharT* __p, _Iterator __k1, _Iterator __k2)
 377:/usr/include/newlib/c++/9.2.1/bits/basic_string.h ****         {
 378:/usr/include/newlib/c++/9.2.1/bits/basic_string.h **** 	  for (; __k1 != __k2; ++__k1, (void)++__p)
 379:/usr/include/newlib/c++/9.2.1/bits/basic_string.h **** 	    traits_type::assign(*__p, *__k1); // These types are off.
 380:/usr/include/newlib/c++/9.2.1/bits/basic_string.h **** 	}
 381:/usr/include/newlib/c++/9.2.1/bits/basic_string.h **** 
 382:/usr/include/newlib/c++/9.2.1/bits/basic_string.h ****       static void
 383:/usr/include/newlib/c++/9.2.1/bits/basic_string.h ****       _S_copy_chars(_CharT* __p, iterator __k1, iterator __k2) _GLIBCXX_NOEXCEPT
 384:/usr/include/newlib/c++/9.2.1/bits/basic_string.h ****       { _S_copy_chars(__p, __k1.base(), __k2.base()); }
 385:/usr/include/newlib/c++/9.2.1/bits/basic_string.h **** 
 386:/usr/include/newlib/c++/9.2.1/bits/basic_string.h ****       static void
 387:/usr/include/newlib/c++/9.2.1/bits/basic_string.h ****       _S_copy_chars(_CharT* __p, const_iterator __k1, const_iterator __k2)
 388:/usr/include/newlib/c++/9.2.1/bits/basic_string.h ****       _GLIBCXX_NOEXCEPT
 389:/usr/include/newlib/c++/9.2.1/bits/basic_string.h ****       { _S_copy_chars(__p, __k1.base(), __k2.base()); }
 390:/usr/include/newlib/c++/9.2.1/bits/basic_string.h **** 
 391:/usr/include/newlib/c++/9.2.1/bits/basic_string.h ****       static void
 392:/usr/include/newlib/c++/9.2.1/bits/basic_string.h ****       _S_copy_chars(_CharT* __p, _CharT* __k1, _CharT* __k2) _GLIBCXX_NOEXCEPT
 393:/usr/include/newlib/c++/9.2.1/bits/basic_string.h ****       { _S_copy(__p, __k1, __k2 - __k1); }
 394:/usr/include/newlib/c++/9.2.1/bits/basic_string.h **** 
 395:/usr/include/newlib/c++/9.2.1/bits/basic_string.h ****       static void
 396:/usr/include/newlib/c++/9.2.1/bits/basic_string.h ****       _S_copy_chars(_CharT* __p, const _CharT* __k1, const _CharT* __k2)
 397:/usr/include/newlib/c++/9.2.1/bits/basic_string.h ****       _GLIBCXX_NOEXCEPT
 398:/usr/include/newlib/c++/9.2.1/bits/basic_string.h ****       { _S_copy(__p, __k1, __k2 - __k1); }
 399:/usr/include/newlib/c++/9.2.1/bits/basic_string.h **** 
 400:/usr/include/newlib/c++/9.2.1/bits/basic_string.h ****       static int
 401:/usr/include/newlib/c++/9.2.1/bits/basic_string.h ****       _S_compare(size_type __n1, size_type __n2) _GLIBCXX_NOEXCEPT
 402:/usr/include/newlib/c++/9.2.1/bits/basic_string.h ****       {
 403:/usr/include/newlib/c++/9.2.1/bits/basic_string.h **** 	const difference_type __d = difference_type(__n1 - __n2);
 404:/usr/include/newlib/c++/9.2.1/bits/basic_string.h **** 
 405:/usr/include/newlib/c++/9.2.1/bits/basic_string.h **** 	if (__d > __gnu_cxx::__numeric_traits<int>::__max)
 406:/usr/include/newlib/c++/9.2.1/bits/basic_string.h **** 	  return __gnu_cxx::__numeric_traits<int>::__max;
 407:/usr/include/newlib/c++/9.2.1/bits/basic_string.h **** 	else if (__d < __gnu_cxx::__numeric_traits<int>::__min)
 408:/usr/include/newlib/c++/9.2.1/bits/basic_string.h **** 	  return __gnu_cxx::__numeric_traits<int>::__min;
 409:/usr/include/newlib/c++/9.2.1/bits/basic_string.h **** 	else
 410:/usr/include/newlib/c++/9.2.1/bits/basic_string.h **** 	  return int(__d);
 411:/usr/include/newlib/c++/9.2.1/bits/basic_string.h ****       }
 412:/usr/include/newlib/c++/9.2.1/bits/basic_string.h **** 
 413:/usr/include/newlib/c++/9.2.1/bits/basic_string.h ****       void
 414:/usr/include/newlib/c++/9.2.1/bits/basic_string.h ****       _M_assign(const basic_string&);
 415:/usr/include/newlib/c++/9.2.1/bits/basic_string.h **** 
 416:/usr/include/newlib/c++/9.2.1/bits/basic_string.h ****       void
 417:/usr/include/newlib/c++/9.2.1/bits/basic_string.h ****       _M_mutate(size_type __pos, size_type __len1, const _CharT* __s,
 418:/usr/include/newlib/c++/9.2.1/bits/basic_string.h **** 		size_type __len2);
 419:/usr/include/newlib/c++/9.2.1/bits/basic_string.h **** 
 420:/usr/include/newlib/c++/9.2.1/bits/basic_string.h ****       void
 421:/usr/include/newlib/c++/9.2.1/bits/basic_string.h ****       _M_erase(size_type __pos, size_type __n);
ARM GAS  /tmp/ccpr9r5K.s 			page 183


 422:/usr/include/newlib/c++/9.2.1/bits/basic_string.h **** 
 423:/usr/include/newlib/c++/9.2.1/bits/basic_string.h ****     public:
 424:/usr/include/newlib/c++/9.2.1/bits/basic_string.h ****       // Construct/copy/destroy:
 425:/usr/include/newlib/c++/9.2.1/bits/basic_string.h ****       // NB: We overload ctors in some cases instead of using default
 426:/usr/include/newlib/c++/9.2.1/bits/basic_string.h ****       // arguments, per 17.4.4.4 para. 2 item 2.
 427:/usr/include/newlib/c++/9.2.1/bits/basic_string.h **** 
 428:/usr/include/newlib/c++/9.2.1/bits/basic_string.h ****       /**
 429:/usr/include/newlib/c++/9.2.1/bits/basic_string.h ****        *  @brief  Default constructor creates an empty string.
 430:/usr/include/newlib/c++/9.2.1/bits/basic_string.h ****        */
 431:/usr/include/newlib/c++/9.2.1/bits/basic_string.h ****       basic_string()
 432:/usr/include/newlib/c++/9.2.1/bits/basic_string.h ****       _GLIBCXX_NOEXCEPT_IF(is_nothrow_default_constructible<_Alloc>::value)
 433:/usr/include/newlib/c++/9.2.1/bits/basic_string.h ****       : _M_dataplus(_M_local_data())
 434:/usr/include/newlib/c++/9.2.1/bits/basic_string.h ****       { _M_set_length(0); }
 435:/usr/include/newlib/c++/9.2.1/bits/basic_string.h **** 
 436:/usr/include/newlib/c++/9.2.1/bits/basic_string.h ****       /**
 437:/usr/include/newlib/c++/9.2.1/bits/basic_string.h ****        *  @brief  Construct an empty string using allocator @a a.
 438:/usr/include/newlib/c++/9.2.1/bits/basic_string.h ****        */
 439:/usr/include/newlib/c++/9.2.1/bits/basic_string.h ****       explicit
 440:/usr/include/newlib/c++/9.2.1/bits/basic_string.h ****       basic_string(const _Alloc& __a) _GLIBCXX_NOEXCEPT
 441:/usr/include/newlib/c++/9.2.1/bits/basic_string.h ****       : _M_dataplus(_M_local_data(), __a)
 442:/usr/include/newlib/c++/9.2.1/bits/basic_string.h ****       { _M_set_length(0); }
 443:/usr/include/newlib/c++/9.2.1/bits/basic_string.h **** 
 444:/usr/include/newlib/c++/9.2.1/bits/basic_string.h ****       /**
 445:/usr/include/newlib/c++/9.2.1/bits/basic_string.h ****        *  @brief  Construct string with copy of value of @a __str.
 446:/usr/include/newlib/c++/9.2.1/bits/basic_string.h ****        *  @param  __str  Source string.
 447:/usr/include/newlib/c++/9.2.1/bits/basic_string.h ****        */
 448:/usr/include/newlib/c++/9.2.1/bits/basic_string.h ****       basic_string(const basic_string& __str)
 449:/usr/include/newlib/c++/9.2.1/bits/basic_string.h ****       : _M_dataplus(_M_local_data(),
 450:/usr/include/newlib/c++/9.2.1/bits/basic_string.h **** 		    _Alloc_traits::_S_select_on_copy(__str._M_get_allocator()))
 451:/usr/include/newlib/c++/9.2.1/bits/basic_string.h ****       { _M_construct(__str._M_data(), __str._M_data() + __str.length()); }
 452:/usr/include/newlib/c++/9.2.1/bits/basic_string.h **** 
 453:/usr/include/newlib/c++/9.2.1/bits/basic_string.h ****       // _GLIBCXX_RESOLVE_LIB_DEFECTS
 454:/usr/include/newlib/c++/9.2.1/bits/basic_string.h ****       // 2583. no way to supply an allocator for basic_string(str, pos)
 455:/usr/include/newlib/c++/9.2.1/bits/basic_string.h ****       /**
 456:/usr/include/newlib/c++/9.2.1/bits/basic_string.h ****        *  @brief  Construct string as copy of a substring.
 457:/usr/include/newlib/c++/9.2.1/bits/basic_string.h ****        *  @param  __str  Source string.
 458:/usr/include/newlib/c++/9.2.1/bits/basic_string.h ****        *  @param  __pos  Index of first character to copy from.
 459:/usr/include/newlib/c++/9.2.1/bits/basic_string.h ****        *  @param  __a  Allocator to use.
 460:/usr/include/newlib/c++/9.2.1/bits/basic_string.h ****        */
 461:/usr/include/newlib/c++/9.2.1/bits/basic_string.h ****       basic_string(const basic_string& __str, size_type __pos,
 462:/usr/include/newlib/c++/9.2.1/bits/basic_string.h **** 		   const _Alloc& __a = _Alloc())
 463:/usr/include/newlib/c++/9.2.1/bits/basic_string.h ****       : _M_dataplus(_M_local_data(), __a)
 464:/usr/include/newlib/c++/9.2.1/bits/basic_string.h ****       {
 465:/usr/include/newlib/c++/9.2.1/bits/basic_string.h **** 	const _CharT* __start = __str._M_data()
 466:/usr/include/newlib/c++/9.2.1/bits/basic_string.h **** 	  + __str._M_check(__pos, "basic_string::basic_string");
 467:/usr/include/newlib/c++/9.2.1/bits/basic_string.h **** 	_M_construct(__start, __start + __str._M_limit(__pos, npos));
 468:/usr/include/newlib/c++/9.2.1/bits/basic_string.h ****       }
 469:/usr/include/newlib/c++/9.2.1/bits/basic_string.h **** 
 470:/usr/include/newlib/c++/9.2.1/bits/basic_string.h ****       /**
 471:/usr/include/newlib/c++/9.2.1/bits/basic_string.h ****        *  @brief  Construct string as copy of a substring.
 472:/usr/include/newlib/c++/9.2.1/bits/basic_string.h ****        *  @param  __str  Source string.
 473:/usr/include/newlib/c++/9.2.1/bits/basic_string.h ****        *  @param  __pos  Index of first character to copy from.
 474:/usr/include/newlib/c++/9.2.1/bits/basic_string.h ****        *  @param  __n  Number of characters to copy.
 475:/usr/include/newlib/c++/9.2.1/bits/basic_string.h ****        */
 476:/usr/include/newlib/c++/9.2.1/bits/basic_string.h ****       basic_string(const basic_string& __str, size_type __pos,
 477:/usr/include/newlib/c++/9.2.1/bits/basic_string.h **** 		   size_type __n)
 478:/usr/include/newlib/c++/9.2.1/bits/basic_string.h ****       : _M_dataplus(_M_local_data())
ARM GAS  /tmp/ccpr9r5K.s 			page 184


 479:/usr/include/newlib/c++/9.2.1/bits/basic_string.h ****       {
 480:/usr/include/newlib/c++/9.2.1/bits/basic_string.h **** 	const _CharT* __start = __str._M_data()
 481:/usr/include/newlib/c++/9.2.1/bits/basic_string.h **** 	  + __str._M_check(__pos, "basic_string::basic_string");
 482:/usr/include/newlib/c++/9.2.1/bits/basic_string.h **** 	_M_construct(__start, __start + __str._M_limit(__pos, __n));
 483:/usr/include/newlib/c++/9.2.1/bits/basic_string.h ****       }
 484:/usr/include/newlib/c++/9.2.1/bits/basic_string.h **** 
 485:/usr/include/newlib/c++/9.2.1/bits/basic_string.h ****       /**
 486:/usr/include/newlib/c++/9.2.1/bits/basic_string.h ****        *  @brief  Construct string as copy of a substring.
 487:/usr/include/newlib/c++/9.2.1/bits/basic_string.h ****        *  @param  __str  Source string.
 488:/usr/include/newlib/c++/9.2.1/bits/basic_string.h ****        *  @param  __pos  Index of first character to copy from.
 489:/usr/include/newlib/c++/9.2.1/bits/basic_string.h ****        *  @param  __n  Number of characters to copy.
 490:/usr/include/newlib/c++/9.2.1/bits/basic_string.h ****        *  @param  __a  Allocator to use.
 491:/usr/include/newlib/c++/9.2.1/bits/basic_string.h ****        */
 492:/usr/include/newlib/c++/9.2.1/bits/basic_string.h ****       basic_string(const basic_string& __str, size_type __pos,
 493:/usr/include/newlib/c++/9.2.1/bits/basic_string.h **** 		   size_type __n, const _Alloc& __a)
 494:/usr/include/newlib/c++/9.2.1/bits/basic_string.h ****       : _M_dataplus(_M_local_data(), __a)
 495:/usr/include/newlib/c++/9.2.1/bits/basic_string.h ****       {
 496:/usr/include/newlib/c++/9.2.1/bits/basic_string.h **** 	const _CharT* __start
 497:/usr/include/newlib/c++/9.2.1/bits/basic_string.h **** 	  = __str._M_data() + __str._M_check(__pos, "string::string");
 498:/usr/include/newlib/c++/9.2.1/bits/basic_string.h **** 	_M_construct(__start, __start + __str._M_limit(__pos, __n));
 499:/usr/include/newlib/c++/9.2.1/bits/basic_string.h ****       }
 500:/usr/include/newlib/c++/9.2.1/bits/basic_string.h **** 
 501:/usr/include/newlib/c++/9.2.1/bits/basic_string.h ****       /**
 502:/usr/include/newlib/c++/9.2.1/bits/basic_string.h ****        *  @brief  Construct string initialized by a character %array.
 503:/usr/include/newlib/c++/9.2.1/bits/basic_string.h ****        *  @param  __s  Source character %array.
 504:/usr/include/newlib/c++/9.2.1/bits/basic_string.h ****        *  @param  __n  Number of characters to copy.
 505:/usr/include/newlib/c++/9.2.1/bits/basic_string.h ****        *  @param  __a  Allocator to use (default is default allocator).
 506:/usr/include/newlib/c++/9.2.1/bits/basic_string.h ****        *
 507:/usr/include/newlib/c++/9.2.1/bits/basic_string.h ****        *  NB: @a __s must have at least @a __n characters, &apos;\\0&apos;
 508:/usr/include/newlib/c++/9.2.1/bits/basic_string.h ****        *  has no special meaning.
 509:/usr/include/newlib/c++/9.2.1/bits/basic_string.h ****        */
 510:/usr/include/newlib/c++/9.2.1/bits/basic_string.h ****       basic_string(const _CharT* __s, size_type __n,
 511:/usr/include/newlib/c++/9.2.1/bits/basic_string.h **** 		   const _Alloc& __a = _Alloc())
 512:/usr/include/newlib/c++/9.2.1/bits/basic_string.h ****       : _M_dataplus(_M_local_data(), __a)
 513:/usr/include/newlib/c++/9.2.1/bits/basic_string.h ****       { _M_construct(__s, __s + __n); }
 514:/usr/include/newlib/c++/9.2.1/bits/basic_string.h **** 
 515:/usr/include/newlib/c++/9.2.1/bits/basic_string.h ****       /**
 516:/usr/include/newlib/c++/9.2.1/bits/basic_string.h ****        *  @brief  Construct string as copy of a C string.
 517:/usr/include/newlib/c++/9.2.1/bits/basic_string.h ****        *  @param  __s  Source C string.
 518:/usr/include/newlib/c++/9.2.1/bits/basic_string.h ****        *  @param  __a  Allocator to use (default is default allocator).
 519:/usr/include/newlib/c++/9.2.1/bits/basic_string.h ****        */
 520:/usr/include/newlib/c++/9.2.1/bits/basic_string.h **** #if __cpp_deduction_guides && ! defined _GLIBCXX_DEFINING_STRING_INSTANTIATIONS
 521:/usr/include/newlib/c++/9.2.1/bits/basic_string.h ****       // _GLIBCXX_RESOLVE_LIB_DEFECTS
 522:/usr/include/newlib/c++/9.2.1/bits/basic_string.h ****       // 3076. basic_string CTAD ambiguity
 523:/usr/include/newlib/c++/9.2.1/bits/basic_string.h ****       template<typename = _RequireAllocator<_Alloc>>
 524:/usr/include/newlib/c++/9.2.1/bits/basic_string.h **** #endif
 525:/usr/include/newlib/c++/9.2.1/bits/basic_string.h ****       basic_string(const _CharT* __s, const _Alloc& __a = _Alloc())
 6228              		.loc 20 525 7 is_stmt 1 view .LVU1498
 6229              	.LBB1817:
 6230              	.LBB1803:
 6231              	.LBI1803:
 190:/usr/include/newlib/c++/9.2.1/bits/basic_string.h ****       {
 6232              		.loc 20 190 7 view .LVU1499
 190:/usr/include/newlib/c++/9.2.1/bits/basic_string.h ****       {
 6233              		.loc 20 190 7 is_stmt 0 view .LVU1500
 6234              	.LBE1803:
 6235              	.LBB1804:
ARM GAS  /tmp/ccpr9r5K.s 			page 185


 6236              	.LBI1804:
 156:/usr/include/newlib/c++/9.2.1/bits/basic_string.h **** 	: allocator_type(__a), _M_p(__dat) { }
 6237              		.loc 20 156 2 is_stmt 1 view .LVU1501
 6238              	.LBB1805:
 6239              	.LBB1806:
 6240              	.LBB1807:
 6241              	.LBI1807:
 139:/usr/include/newlib/c++/9.2.1/bits/allocator.h **** 
 140:/usr/include/newlib/c++/9.2.1/bits/allocator.h ****       _GLIBCXX20_CONSTEXPR
 141:/usr/include/newlib/c++/9.2.1/bits/allocator.h ****       allocator(const allocator& __a) _GLIBCXX_NOTHROW
 6242              		.loc 21 141 7 view .LVU1502
 6243              	.LBB1808:
 6244              	.LBI1808:
  81:/usr/include/newlib/c++/9.2.1/ext/new_allocator.h **** 
  82:/usr/include/newlib/c++/9.2.1/ext/new_allocator.h ****       _GLIBCXX20_CONSTEXPR
  83:/usr/include/newlib/c++/9.2.1/ext/new_allocator.h ****       new_allocator(const new_allocator&) _GLIBCXX_USE_NOEXCEPT { }
 6245              		.loc 22 83 7 view .LVU1503
 6246              		.loc 22 83 7 is_stmt 0 view .LVU1504
 6247              	.LBE1808:
 6248              	.LBE1807:
 6249              	.LBE1806:
 6250              	.LBE1805:
 6251              	.LBE1804:
 6252              	.LBB1811:
 6253              	.LBB1798:
 6254              	.LBB1793:
 6255              	.LBB1788:
 6256              	.LBB1783:
 6257              	.LBB1778:
 6258              	.LBB1756:
 6259              	.LBB1757:
 6260              	.LBB1758:
 6261              	.LBB1759:
 6262              	.LBB1760:
 6263              		.file 23 "/usr/include/newlib/c++/9.2.1/bits/char_traits.h"
   1:/usr/include/newlib/c++/9.2.1/bits/char_traits.h **** // Character Traits for use by standard string and iostream -*- C++ -*-
   2:/usr/include/newlib/c++/9.2.1/bits/char_traits.h **** 
   3:/usr/include/newlib/c++/9.2.1/bits/char_traits.h **** // Copyright (C) 1997-2019 Free Software Foundation, Inc.
   4:/usr/include/newlib/c++/9.2.1/bits/char_traits.h **** //
   5:/usr/include/newlib/c++/9.2.1/bits/char_traits.h **** // This file is part of the GNU ISO C++ Library.  This library is free
   6:/usr/include/newlib/c++/9.2.1/bits/char_traits.h **** // software; you can redistribute it and/or modify it under the
   7:/usr/include/newlib/c++/9.2.1/bits/char_traits.h **** // terms of the GNU General Public License as published by the
   8:/usr/include/newlib/c++/9.2.1/bits/char_traits.h **** // Free Software Foundation; either version 3, or (at your option)
   9:/usr/include/newlib/c++/9.2.1/bits/char_traits.h **** // any later version.
  10:/usr/include/newlib/c++/9.2.1/bits/char_traits.h **** 
  11:/usr/include/newlib/c++/9.2.1/bits/char_traits.h **** // This library is distributed in the hope that it will be useful,
  12:/usr/include/newlib/c++/9.2.1/bits/char_traits.h **** // but WITHOUT ANY WARRANTY; without even the implied warranty of
  13:/usr/include/newlib/c++/9.2.1/bits/char_traits.h **** // MERCHANTABILITY or FITNESS FOR A PARTICULAR PURPOSE.  See the
  14:/usr/include/newlib/c++/9.2.1/bits/char_traits.h **** // GNU General Public License for more details.
  15:/usr/include/newlib/c++/9.2.1/bits/char_traits.h **** 
  16:/usr/include/newlib/c++/9.2.1/bits/char_traits.h **** // Under Section 7 of GPL version 3, you are granted additional
  17:/usr/include/newlib/c++/9.2.1/bits/char_traits.h **** // permissions described in the GCC Runtime Library Exception, version
  18:/usr/include/newlib/c++/9.2.1/bits/char_traits.h **** // 3.1, as published by the Free Software Foundation.
  19:/usr/include/newlib/c++/9.2.1/bits/char_traits.h **** 
  20:/usr/include/newlib/c++/9.2.1/bits/char_traits.h **** // You should have received a copy of the GNU General Public License and
  21:/usr/include/newlib/c++/9.2.1/bits/char_traits.h **** // a copy of the GCC Runtime Library Exception along with this program;
  22:/usr/include/newlib/c++/9.2.1/bits/char_traits.h **** // see the files COPYING3 and COPYING.RUNTIME respectively.  If not, see
ARM GAS  /tmp/ccpr9r5K.s 			page 186


  23:/usr/include/newlib/c++/9.2.1/bits/char_traits.h **** // <http://www.gnu.org/licenses/>.
  24:/usr/include/newlib/c++/9.2.1/bits/char_traits.h **** 
  25:/usr/include/newlib/c++/9.2.1/bits/char_traits.h **** /** @file bits/char_traits.h
  26:/usr/include/newlib/c++/9.2.1/bits/char_traits.h ****  *  This is an internal header file, included by other library headers.
  27:/usr/include/newlib/c++/9.2.1/bits/char_traits.h ****  *  Do not attempt to use it directly. @headername{string}
  28:/usr/include/newlib/c++/9.2.1/bits/char_traits.h ****  */
  29:/usr/include/newlib/c++/9.2.1/bits/char_traits.h **** 
  30:/usr/include/newlib/c++/9.2.1/bits/char_traits.h **** //
  31:/usr/include/newlib/c++/9.2.1/bits/char_traits.h **** // ISO C++ 14882: 21  Strings library
  32:/usr/include/newlib/c++/9.2.1/bits/char_traits.h **** //
  33:/usr/include/newlib/c++/9.2.1/bits/char_traits.h **** 
  34:/usr/include/newlib/c++/9.2.1/bits/char_traits.h **** #ifndef _CHAR_TRAITS_H
  35:/usr/include/newlib/c++/9.2.1/bits/char_traits.h **** #define _CHAR_TRAITS_H 1
  36:/usr/include/newlib/c++/9.2.1/bits/char_traits.h **** 
  37:/usr/include/newlib/c++/9.2.1/bits/char_traits.h **** #pragma GCC system_header
  38:/usr/include/newlib/c++/9.2.1/bits/char_traits.h **** 
  39:/usr/include/newlib/c++/9.2.1/bits/char_traits.h **** #include <bits/stl_algobase.h>  // std::copy, std::fill_n
  40:/usr/include/newlib/c++/9.2.1/bits/char_traits.h **** #include <bits/postypes.h>      // For streampos
  41:/usr/include/newlib/c++/9.2.1/bits/char_traits.h **** #include <cwchar>               // For WEOF, wmemmove, wmemset, etc.
  42:/usr/include/newlib/c++/9.2.1/bits/char_traits.h **** 
  43:/usr/include/newlib/c++/9.2.1/bits/char_traits.h **** #ifndef _GLIBCXX_ALWAYS_INLINE
  44:/usr/include/newlib/c++/9.2.1/bits/char_traits.h **** # define _GLIBCXX_ALWAYS_INLINE inline __attribute__((__always_inline__))
  45:/usr/include/newlib/c++/9.2.1/bits/char_traits.h **** #endif
  46:/usr/include/newlib/c++/9.2.1/bits/char_traits.h **** 
  47:/usr/include/newlib/c++/9.2.1/bits/char_traits.h **** namespace __gnu_cxx _GLIBCXX_VISIBILITY(default)
  48:/usr/include/newlib/c++/9.2.1/bits/char_traits.h **** {
  49:/usr/include/newlib/c++/9.2.1/bits/char_traits.h **** _GLIBCXX_BEGIN_NAMESPACE_VERSION
  50:/usr/include/newlib/c++/9.2.1/bits/char_traits.h **** 
  51:/usr/include/newlib/c++/9.2.1/bits/char_traits.h ****   /**
  52:/usr/include/newlib/c++/9.2.1/bits/char_traits.h ****    *  @brief  Mapping from character type to associated types.
  53:/usr/include/newlib/c++/9.2.1/bits/char_traits.h ****    *
  54:/usr/include/newlib/c++/9.2.1/bits/char_traits.h ****    *  @note This is an implementation class for the generic version
  55:/usr/include/newlib/c++/9.2.1/bits/char_traits.h ****    *  of char_traits.  It defines int_type, off_type, pos_type, and
  56:/usr/include/newlib/c++/9.2.1/bits/char_traits.h ****    *  state_type.  By default these are unsigned long, streamoff,
  57:/usr/include/newlib/c++/9.2.1/bits/char_traits.h ****    *  streampos, and mbstate_t.  Users who need a different set of
  58:/usr/include/newlib/c++/9.2.1/bits/char_traits.h ****    *  types, but who don't need to change the definitions of any function
  59:/usr/include/newlib/c++/9.2.1/bits/char_traits.h ****    *  defined in char_traits, can specialize __gnu_cxx::_Char_types
  60:/usr/include/newlib/c++/9.2.1/bits/char_traits.h ****    *  while leaving __gnu_cxx::char_traits alone. */
  61:/usr/include/newlib/c++/9.2.1/bits/char_traits.h ****   template<typename _CharT>
  62:/usr/include/newlib/c++/9.2.1/bits/char_traits.h ****     struct _Char_types
  63:/usr/include/newlib/c++/9.2.1/bits/char_traits.h ****     {
  64:/usr/include/newlib/c++/9.2.1/bits/char_traits.h ****       typedef unsigned long   int_type;
  65:/usr/include/newlib/c++/9.2.1/bits/char_traits.h ****       typedef std::streampos  pos_type;
  66:/usr/include/newlib/c++/9.2.1/bits/char_traits.h ****       typedef std::streamoff  off_type;
  67:/usr/include/newlib/c++/9.2.1/bits/char_traits.h ****       typedef std::mbstate_t  state_type;
  68:/usr/include/newlib/c++/9.2.1/bits/char_traits.h ****     };
  69:/usr/include/newlib/c++/9.2.1/bits/char_traits.h **** 
  70:/usr/include/newlib/c++/9.2.1/bits/char_traits.h **** 
  71:/usr/include/newlib/c++/9.2.1/bits/char_traits.h ****   /**
  72:/usr/include/newlib/c++/9.2.1/bits/char_traits.h ****    *  @brief  Base class used to implement std::char_traits.
  73:/usr/include/newlib/c++/9.2.1/bits/char_traits.h ****    *
  74:/usr/include/newlib/c++/9.2.1/bits/char_traits.h ****    *  @note For any given actual character type, this definition is
  75:/usr/include/newlib/c++/9.2.1/bits/char_traits.h ****    *  probably wrong.  (Most of the member functions are likely to be
  76:/usr/include/newlib/c++/9.2.1/bits/char_traits.h ****    *  right, but the int_type and state_type typedefs, and the eof()
  77:/usr/include/newlib/c++/9.2.1/bits/char_traits.h ****    *  member function, are likely to be wrong.)  The reason this class
  78:/usr/include/newlib/c++/9.2.1/bits/char_traits.h ****    *  exists is so users can specialize it.  Classes in namespace std
  79:/usr/include/newlib/c++/9.2.1/bits/char_traits.h ****    *  may not be specialized for fundamental types, but classes in
ARM GAS  /tmp/ccpr9r5K.s 			page 187


  80:/usr/include/newlib/c++/9.2.1/bits/char_traits.h ****    *  namespace __gnu_cxx may be.
  81:/usr/include/newlib/c++/9.2.1/bits/char_traits.h ****    *
  82:/usr/include/newlib/c++/9.2.1/bits/char_traits.h ****    *  See https://gcc.gnu.org/onlinedocs/libstdc++/manual/strings.html#strings.string.character_typ
  83:/usr/include/newlib/c++/9.2.1/bits/char_traits.h ****    *  for advice on how to make use of this class for @a unusual character
  84:/usr/include/newlib/c++/9.2.1/bits/char_traits.h ****    *  types. Also, check out include/ext/pod_char_traits.h.  
  85:/usr/include/newlib/c++/9.2.1/bits/char_traits.h ****    */
  86:/usr/include/newlib/c++/9.2.1/bits/char_traits.h ****   template<typename _CharT>
  87:/usr/include/newlib/c++/9.2.1/bits/char_traits.h ****     struct char_traits
  88:/usr/include/newlib/c++/9.2.1/bits/char_traits.h ****     {
  89:/usr/include/newlib/c++/9.2.1/bits/char_traits.h ****       typedef _CharT                                    char_type;
  90:/usr/include/newlib/c++/9.2.1/bits/char_traits.h ****       typedef typename _Char_types<_CharT>::int_type    int_type;
  91:/usr/include/newlib/c++/9.2.1/bits/char_traits.h ****       typedef typename _Char_types<_CharT>::pos_type    pos_type;
  92:/usr/include/newlib/c++/9.2.1/bits/char_traits.h ****       typedef typename _Char_types<_CharT>::off_type    off_type;
  93:/usr/include/newlib/c++/9.2.1/bits/char_traits.h ****       typedef typename _Char_types<_CharT>::state_type  state_type;
  94:/usr/include/newlib/c++/9.2.1/bits/char_traits.h **** 
  95:/usr/include/newlib/c++/9.2.1/bits/char_traits.h ****       static _GLIBCXX14_CONSTEXPR void
  96:/usr/include/newlib/c++/9.2.1/bits/char_traits.h ****       assign(char_type& __c1, const char_type& __c2)
  97:/usr/include/newlib/c++/9.2.1/bits/char_traits.h ****       { __c1 = __c2; }
  98:/usr/include/newlib/c++/9.2.1/bits/char_traits.h **** 
  99:/usr/include/newlib/c++/9.2.1/bits/char_traits.h ****       static _GLIBCXX_CONSTEXPR bool
 100:/usr/include/newlib/c++/9.2.1/bits/char_traits.h ****       eq(const char_type& __c1, const char_type& __c2)
 101:/usr/include/newlib/c++/9.2.1/bits/char_traits.h ****       { return __c1 == __c2; }
 102:/usr/include/newlib/c++/9.2.1/bits/char_traits.h **** 
 103:/usr/include/newlib/c++/9.2.1/bits/char_traits.h ****       static _GLIBCXX_CONSTEXPR bool
 104:/usr/include/newlib/c++/9.2.1/bits/char_traits.h ****       lt(const char_type& __c1, const char_type& __c2)
 105:/usr/include/newlib/c++/9.2.1/bits/char_traits.h ****       { return __c1 < __c2; }
 106:/usr/include/newlib/c++/9.2.1/bits/char_traits.h **** 
 107:/usr/include/newlib/c++/9.2.1/bits/char_traits.h ****       static _GLIBCXX14_CONSTEXPR int
 108:/usr/include/newlib/c++/9.2.1/bits/char_traits.h ****       compare(const char_type* __s1, const char_type* __s2, std::size_t __n);
 109:/usr/include/newlib/c++/9.2.1/bits/char_traits.h **** 
 110:/usr/include/newlib/c++/9.2.1/bits/char_traits.h ****       static _GLIBCXX14_CONSTEXPR std::size_t
 111:/usr/include/newlib/c++/9.2.1/bits/char_traits.h ****       length(const char_type* __s);
 112:/usr/include/newlib/c++/9.2.1/bits/char_traits.h **** 
 113:/usr/include/newlib/c++/9.2.1/bits/char_traits.h ****       static _GLIBCXX14_CONSTEXPR const char_type*
 114:/usr/include/newlib/c++/9.2.1/bits/char_traits.h ****       find(const char_type* __s, std::size_t __n, const char_type& __a);
 115:/usr/include/newlib/c++/9.2.1/bits/char_traits.h **** 
 116:/usr/include/newlib/c++/9.2.1/bits/char_traits.h ****       static char_type*
 117:/usr/include/newlib/c++/9.2.1/bits/char_traits.h ****       move(char_type* __s1, const char_type* __s2, std::size_t __n);
 118:/usr/include/newlib/c++/9.2.1/bits/char_traits.h **** 
 119:/usr/include/newlib/c++/9.2.1/bits/char_traits.h ****       static char_type*
 120:/usr/include/newlib/c++/9.2.1/bits/char_traits.h ****       copy(char_type* __s1, const char_type* __s2, std::size_t __n);
 121:/usr/include/newlib/c++/9.2.1/bits/char_traits.h **** 
 122:/usr/include/newlib/c++/9.2.1/bits/char_traits.h ****       static char_type*
 123:/usr/include/newlib/c++/9.2.1/bits/char_traits.h ****       assign(char_type* __s, std::size_t __n, char_type __a);
 124:/usr/include/newlib/c++/9.2.1/bits/char_traits.h **** 
 125:/usr/include/newlib/c++/9.2.1/bits/char_traits.h ****       static _GLIBCXX_CONSTEXPR char_type
 126:/usr/include/newlib/c++/9.2.1/bits/char_traits.h ****       to_char_type(const int_type& __c)
 127:/usr/include/newlib/c++/9.2.1/bits/char_traits.h ****       { return static_cast<char_type>(__c); }
 128:/usr/include/newlib/c++/9.2.1/bits/char_traits.h **** 
 129:/usr/include/newlib/c++/9.2.1/bits/char_traits.h ****       static _GLIBCXX_CONSTEXPR int_type
 130:/usr/include/newlib/c++/9.2.1/bits/char_traits.h ****       to_int_type(const char_type& __c)
 131:/usr/include/newlib/c++/9.2.1/bits/char_traits.h ****       { return static_cast<int_type>(__c); }
 132:/usr/include/newlib/c++/9.2.1/bits/char_traits.h **** 
 133:/usr/include/newlib/c++/9.2.1/bits/char_traits.h ****       static _GLIBCXX_CONSTEXPR bool
 134:/usr/include/newlib/c++/9.2.1/bits/char_traits.h ****       eq_int_type(const int_type& __c1, const int_type& __c2)
 135:/usr/include/newlib/c++/9.2.1/bits/char_traits.h ****       { return __c1 == __c2; }
 136:/usr/include/newlib/c++/9.2.1/bits/char_traits.h **** 
ARM GAS  /tmp/ccpr9r5K.s 			page 188


 137:/usr/include/newlib/c++/9.2.1/bits/char_traits.h ****       static _GLIBCXX_CONSTEXPR int_type
 138:/usr/include/newlib/c++/9.2.1/bits/char_traits.h ****       eof()
 139:/usr/include/newlib/c++/9.2.1/bits/char_traits.h ****       { return static_cast<int_type>(_GLIBCXX_STDIO_EOF); }
 140:/usr/include/newlib/c++/9.2.1/bits/char_traits.h **** 
 141:/usr/include/newlib/c++/9.2.1/bits/char_traits.h ****       static _GLIBCXX_CONSTEXPR int_type
 142:/usr/include/newlib/c++/9.2.1/bits/char_traits.h ****       not_eof(const int_type& __c)
 143:/usr/include/newlib/c++/9.2.1/bits/char_traits.h ****       { return !eq_int_type(__c, eof()) ? __c : to_int_type(char_type()); }
 144:/usr/include/newlib/c++/9.2.1/bits/char_traits.h ****     };
 145:/usr/include/newlib/c++/9.2.1/bits/char_traits.h **** 
 146:/usr/include/newlib/c++/9.2.1/bits/char_traits.h ****   template<typename _CharT>
 147:/usr/include/newlib/c++/9.2.1/bits/char_traits.h ****     _GLIBCXX14_CONSTEXPR int
 148:/usr/include/newlib/c++/9.2.1/bits/char_traits.h ****     char_traits<_CharT>::
 149:/usr/include/newlib/c++/9.2.1/bits/char_traits.h ****     compare(const char_type* __s1, const char_type* __s2, std::size_t __n)
 150:/usr/include/newlib/c++/9.2.1/bits/char_traits.h ****     {
 151:/usr/include/newlib/c++/9.2.1/bits/char_traits.h ****       for (std::size_t __i = 0; __i < __n; ++__i)
 152:/usr/include/newlib/c++/9.2.1/bits/char_traits.h **** 	if (lt(__s1[__i], __s2[__i]))
 153:/usr/include/newlib/c++/9.2.1/bits/char_traits.h **** 	  return -1;
 154:/usr/include/newlib/c++/9.2.1/bits/char_traits.h **** 	else if (lt(__s2[__i], __s1[__i]))
 155:/usr/include/newlib/c++/9.2.1/bits/char_traits.h **** 	  return 1;
 156:/usr/include/newlib/c++/9.2.1/bits/char_traits.h ****       return 0;
 157:/usr/include/newlib/c++/9.2.1/bits/char_traits.h ****     }
 158:/usr/include/newlib/c++/9.2.1/bits/char_traits.h **** 
 159:/usr/include/newlib/c++/9.2.1/bits/char_traits.h ****   template<typename _CharT>
 160:/usr/include/newlib/c++/9.2.1/bits/char_traits.h ****     _GLIBCXX14_CONSTEXPR std::size_t
 161:/usr/include/newlib/c++/9.2.1/bits/char_traits.h ****     char_traits<_CharT>::
 162:/usr/include/newlib/c++/9.2.1/bits/char_traits.h ****     length(const char_type* __p)
 163:/usr/include/newlib/c++/9.2.1/bits/char_traits.h ****     {
 164:/usr/include/newlib/c++/9.2.1/bits/char_traits.h ****       std::size_t __i = 0;
 165:/usr/include/newlib/c++/9.2.1/bits/char_traits.h ****       while (!eq(__p[__i], char_type()))
 166:/usr/include/newlib/c++/9.2.1/bits/char_traits.h ****         ++__i;
 167:/usr/include/newlib/c++/9.2.1/bits/char_traits.h ****       return __i;
 168:/usr/include/newlib/c++/9.2.1/bits/char_traits.h ****     }
 169:/usr/include/newlib/c++/9.2.1/bits/char_traits.h **** 
 170:/usr/include/newlib/c++/9.2.1/bits/char_traits.h ****   template<typename _CharT>
 171:/usr/include/newlib/c++/9.2.1/bits/char_traits.h ****     _GLIBCXX14_CONSTEXPR const typename char_traits<_CharT>::char_type*
 172:/usr/include/newlib/c++/9.2.1/bits/char_traits.h ****     char_traits<_CharT>::
 173:/usr/include/newlib/c++/9.2.1/bits/char_traits.h ****     find(const char_type* __s, std::size_t __n, const char_type& __a)
 174:/usr/include/newlib/c++/9.2.1/bits/char_traits.h ****     {
 175:/usr/include/newlib/c++/9.2.1/bits/char_traits.h ****       for (std::size_t __i = 0; __i < __n; ++__i)
 176:/usr/include/newlib/c++/9.2.1/bits/char_traits.h ****         if (eq(__s[__i], __a))
 177:/usr/include/newlib/c++/9.2.1/bits/char_traits.h ****           return __s + __i;
 178:/usr/include/newlib/c++/9.2.1/bits/char_traits.h ****       return 0;
 179:/usr/include/newlib/c++/9.2.1/bits/char_traits.h ****     }
 180:/usr/include/newlib/c++/9.2.1/bits/char_traits.h **** 
 181:/usr/include/newlib/c++/9.2.1/bits/char_traits.h ****   template<typename _CharT>
 182:/usr/include/newlib/c++/9.2.1/bits/char_traits.h ****     typename char_traits<_CharT>::char_type*
 183:/usr/include/newlib/c++/9.2.1/bits/char_traits.h ****     char_traits<_CharT>::
 184:/usr/include/newlib/c++/9.2.1/bits/char_traits.h ****     move(char_type* __s1, const char_type* __s2, std::size_t __n)
 185:/usr/include/newlib/c++/9.2.1/bits/char_traits.h ****     {
 186:/usr/include/newlib/c++/9.2.1/bits/char_traits.h ****       if (__n == 0)
 187:/usr/include/newlib/c++/9.2.1/bits/char_traits.h **** 	return __s1;
 188:/usr/include/newlib/c++/9.2.1/bits/char_traits.h ****       return static_cast<_CharT*>(__builtin_memmove(__s1, __s2,
 189:/usr/include/newlib/c++/9.2.1/bits/char_traits.h **** 						    __n * sizeof(char_type)));
 190:/usr/include/newlib/c++/9.2.1/bits/char_traits.h ****     }
 191:/usr/include/newlib/c++/9.2.1/bits/char_traits.h **** 
 192:/usr/include/newlib/c++/9.2.1/bits/char_traits.h ****   template<typename _CharT>
 193:/usr/include/newlib/c++/9.2.1/bits/char_traits.h ****     typename char_traits<_CharT>::char_type*
ARM GAS  /tmp/ccpr9r5K.s 			page 189


 194:/usr/include/newlib/c++/9.2.1/bits/char_traits.h ****     char_traits<_CharT>::
 195:/usr/include/newlib/c++/9.2.1/bits/char_traits.h ****     copy(char_type* __s1, const char_type* __s2, std::size_t __n)
 196:/usr/include/newlib/c++/9.2.1/bits/char_traits.h ****     {
 197:/usr/include/newlib/c++/9.2.1/bits/char_traits.h ****       // NB: Inline std::copy so no recursive dependencies.
 198:/usr/include/newlib/c++/9.2.1/bits/char_traits.h ****       std::copy(__s2, __s2 + __n, __s1);
 199:/usr/include/newlib/c++/9.2.1/bits/char_traits.h ****       return __s1;
 200:/usr/include/newlib/c++/9.2.1/bits/char_traits.h ****     }
 201:/usr/include/newlib/c++/9.2.1/bits/char_traits.h **** 
 202:/usr/include/newlib/c++/9.2.1/bits/char_traits.h ****   template<typename _CharT>
 203:/usr/include/newlib/c++/9.2.1/bits/char_traits.h ****     typename char_traits<_CharT>::char_type*
 204:/usr/include/newlib/c++/9.2.1/bits/char_traits.h ****     char_traits<_CharT>::
 205:/usr/include/newlib/c++/9.2.1/bits/char_traits.h ****     assign(char_type* __s, std::size_t __n, char_type __a)
 206:/usr/include/newlib/c++/9.2.1/bits/char_traits.h ****     {
 207:/usr/include/newlib/c++/9.2.1/bits/char_traits.h ****       // NB: Inline std::fill_n so no recursive dependencies.
 208:/usr/include/newlib/c++/9.2.1/bits/char_traits.h ****       std::fill_n(__s, __n, __a);
 209:/usr/include/newlib/c++/9.2.1/bits/char_traits.h ****       return __s;
 210:/usr/include/newlib/c++/9.2.1/bits/char_traits.h ****     }
 211:/usr/include/newlib/c++/9.2.1/bits/char_traits.h **** 
 212:/usr/include/newlib/c++/9.2.1/bits/char_traits.h **** _GLIBCXX_END_NAMESPACE_VERSION
 213:/usr/include/newlib/c++/9.2.1/bits/char_traits.h **** } // namespace
 214:/usr/include/newlib/c++/9.2.1/bits/char_traits.h **** 
 215:/usr/include/newlib/c++/9.2.1/bits/char_traits.h **** namespace std _GLIBCXX_VISIBILITY(default)
 216:/usr/include/newlib/c++/9.2.1/bits/char_traits.h **** {
 217:/usr/include/newlib/c++/9.2.1/bits/char_traits.h **** _GLIBCXX_BEGIN_NAMESPACE_VERSION
 218:/usr/include/newlib/c++/9.2.1/bits/char_traits.h **** 
 219:/usr/include/newlib/c++/9.2.1/bits/char_traits.h **** #if __cplusplus >= 201703L
 220:/usr/include/newlib/c++/9.2.1/bits/char_traits.h **** #define __cpp_lib_constexpr_char_traits 201611
 221:/usr/include/newlib/c++/9.2.1/bits/char_traits.h **** 
 222:/usr/include/newlib/c++/9.2.1/bits/char_traits.h ****   /**
 223:/usr/include/newlib/c++/9.2.1/bits/char_traits.h ****    *  @brief Determine whether the characters of a NULL-terminated
 224:/usr/include/newlib/c++/9.2.1/bits/char_traits.h ****    *  string are known at compile time.
 225:/usr/include/newlib/c++/9.2.1/bits/char_traits.h ****    *  @param  __s  The string.
 226:/usr/include/newlib/c++/9.2.1/bits/char_traits.h ****    *
 227:/usr/include/newlib/c++/9.2.1/bits/char_traits.h ****    *  Assumes that _CharT is a built-in character type.
 228:/usr/include/newlib/c++/9.2.1/bits/char_traits.h ****    */
 229:/usr/include/newlib/c++/9.2.1/bits/char_traits.h ****   template<typename _CharT>
 230:/usr/include/newlib/c++/9.2.1/bits/char_traits.h ****     static _GLIBCXX_ALWAYS_INLINE constexpr bool
 231:/usr/include/newlib/c++/9.2.1/bits/char_traits.h ****     __constant_string_p(const _CharT* __s)
 232:/usr/include/newlib/c++/9.2.1/bits/char_traits.h ****     {
 233:/usr/include/newlib/c++/9.2.1/bits/char_traits.h **** #ifdef _GLIBCXX_HAVE_BUILTIN_IS_CONSTANT_EVALUATED
 234:/usr/include/newlib/c++/9.2.1/bits/char_traits.h ****       (void) __s;
 235:/usr/include/newlib/c++/9.2.1/bits/char_traits.h ****       // In constexpr contexts all strings should be constant.
 236:/usr/include/newlib/c++/9.2.1/bits/char_traits.h ****       return __builtin_is_constant_evaluated();
 237:/usr/include/newlib/c++/9.2.1/bits/char_traits.h **** #else
 238:/usr/include/newlib/c++/9.2.1/bits/char_traits.h ****       while (__builtin_constant_p(*__s) && *__s)
 239:/usr/include/newlib/c++/9.2.1/bits/char_traits.h **** 	__s++;
 240:/usr/include/newlib/c++/9.2.1/bits/char_traits.h ****       return __builtin_constant_p(*__s);
 241:/usr/include/newlib/c++/9.2.1/bits/char_traits.h **** #endif
 242:/usr/include/newlib/c++/9.2.1/bits/char_traits.h ****     }
 243:/usr/include/newlib/c++/9.2.1/bits/char_traits.h **** 
 244:/usr/include/newlib/c++/9.2.1/bits/char_traits.h ****   /**
 245:/usr/include/newlib/c++/9.2.1/bits/char_traits.h ****    *  @brief Determine whether the characters of a character array are
 246:/usr/include/newlib/c++/9.2.1/bits/char_traits.h ****    *  known at compile time.
 247:/usr/include/newlib/c++/9.2.1/bits/char_traits.h ****    *  @param  __a  The character array.
 248:/usr/include/newlib/c++/9.2.1/bits/char_traits.h ****    *  @param  __n  Number of characters.
 249:/usr/include/newlib/c++/9.2.1/bits/char_traits.h ****    *
 250:/usr/include/newlib/c++/9.2.1/bits/char_traits.h ****    *  Assumes that _CharT is a built-in character type.
ARM GAS  /tmp/ccpr9r5K.s 			page 190


 251:/usr/include/newlib/c++/9.2.1/bits/char_traits.h ****    */
 252:/usr/include/newlib/c++/9.2.1/bits/char_traits.h ****   template<typename _CharT>
 253:/usr/include/newlib/c++/9.2.1/bits/char_traits.h ****     static _GLIBCXX_ALWAYS_INLINE constexpr bool
 254:/usr/include/newlib/c++/9.2.1/bits/char_traits.h ****     __constant_char_array_p(const _CharT* __a, size_t __n)
 255:/usr/include/newlib/c++/9.2.1/bits/char_traits.h ****     {
 256:/usr/include/newlib/c++/9.2.1/bits/char_traits.h **** #ifdef _GLIBCXX_HAVE_BUILTIN_IS_CONSTANT_EVALUATED
 257:/usr/include/newlib/c++/9.2.1/bits/char_traits.h ****       (void) __a;
 258:/usr/include/newlib/c++/9.2.1/bits/char_traits.h ****       (void) __n;
 259:/usr/include/newlib/c++/9.2.1/bits/char_traits.h ****       // In constexpr contexts all character arrays should be constant.
 260:/usr/include/newlib/c++/9.2.1/bits/char_traits.h ****       return __builtin_is_constant_evaluated();
 261:/usr/include/newlib/c++/9.2.1/bits/char_traits.h **** #else
 262:/usr/include/newlib/c++/9.2.1/bits/char_traits.h ****       size_t __i = 0;
 263:/usr/include/newlib/c++/9.2.1/bits/char_traits.h ****       while (__i < __n && __builtin_constant_p(__a[__i]))
 264:/usr/include/newlib/c++/9.2.1/bits/char_traits.h **** 	__i++;
 265:/usr/include/newlib/c++/9.2.1/bits/char_traits.h ****       return __i == __n;
 266:/usr/include/newlib/c++/9.2.1/bits/char_traits.h **** #endif
 267:/usr/include/newlib/c++/9.2.1/bits/char_traits.h ****     }
 268:/usr/include/newlib/c++/9.2.1/bits/char_traits.h **** #endif
 269:/usr/include/newlib/c++/9.2.1/bits/char_traits.h **** 
 270:/usr/include/newlib/c++/9.2.1/bits/char_traits.h ****   // 21.1
 271:/usr/include/newlib/c++/9.2.1/bits/char_traits.h ****   /**
 272:/usr/include/newlib/c++/9.2.1/bits/char_traits.h ****    *  @brief  Basis for explicit traits specializations.
 273:/usr/include/newlib/c++/9.2.1/bits/char_traits.h ****    *
 274:/usr/include/newlib/c++/9.2.1/bits/char_traits.h ****    *  @note  For any given actual character type, this definition is
 275:/usr/include/newlib/c++/9.2.1/bits/char_traits.h ****    *  probably wrong.  Since this is just a thin wrapper around
 276:/usr/include/newlib/c++/9.2.1/bits/char_traits.h ****    *  __gnu_cxx::char_traits, it is possible to achieve a more
 277:/usr/include/newlib/c++/9.2.1/bits/char_traits.h ****    *  appropriate definition by specializing __gnu_cxx::char_traits.
 278:/usr/include/newlib/c++/9.2.1/bits/char_traits.h ****    *
 279:/usr/include/newlib/c++/9.2.1/bits/char_traits.h ****    *  See https://gcc.gnu.org/onlinedocs/libstdc++/manual/strings.html#strings.string.character_typ
 280:/usr/include/newlib/c++/9.2.1/bits/char_traits.h ****    *  for advice on how to make use of this class for @a unusual character
 281:/usr/include/newlib/c++/9.2.1/bits/char_traits.h ****    *  types. Also, check out include/ext/pod_char_traits.h.
 282:/usr/include/newlib/c++/9.2.1/bits/char_traits.h ****   */
 283:/usr/include/newlib/c++/9.2.1/bits/char_traits.h ****   template<class _CharT>
 284:/usr/include/newlib/c++/9.2.1/bits/char_traits.h ****     struct char_traits : public __gnu_cxx::char_traits<_CharT>
 285:/usr/include/newlib/c++/9.2.1/bits/char_traits.h ****     { };
 286:/usr/include/newlib/c++/9.2.1/bits/char_traits.h **** 
 287:/usr/include/newlib/c++/9.2.1/bits/char_traits.h **** 
 288:/usr/include/newlib/c++/9.2.1/bits/char_traits.h ****   /// 21.1.3.1  char_traits specializations
 289:/usr/include/newlib/c++/9.2.1/bits/char_traits.h ****   template<>
 290:/usr/include/newlib/c++/9.2.1/bits/char_traits.h ****     struct char_traits<char>
 291:/usr/include/newlib/c++/9.2.1/bits/char_traits.h ****     {
 292:/usr/include/newlib/c++/9.2.1/bits/char_traits.h ****       typedef char              char_type;
 293:/usr/include/newlib/c++/9.2.1/bits/char_traits.h ****       typedef int               int_type;
 294:/usr/include/newlib/c++/9.2.1/bits/char_traits.h ****       typedef streampos         pos_type;
 295:/usr/include/newlib/c++/9.2.1/bits/char_traits.h ****       typedef streamoff         off_type;
 296:/usr/include/newlib/c++/9.2.1/bits/char_traits.h ****       typedef mbstate_t         state_type;
 297:/usr/include/newlib/c++/9.2.1/bits/char_traits.h **** 
 298:/usr/include/newlib/c++/9.2.1/bits/char_traits.h ****       static _GLIBCXX17_CONSTEXPR void
 299:/usr/include/newlib/c++/9.2.1/bits/char_traits.h ****       assign(char_type& __c1, const char_type& __c2) _GLIBCXX_NOEXCEPT
 300:/usr/include/newlib/c++/9.2.1/bits/char_traits.h ****       { __c1 = __c2; }
 301:/usr/include/newlib/c++/9.2.1/bits/char_traits.h **** 
 302:/usr/include/newlib/c++/9.2.1/bits/char_traits.h ****       static _GLIBCXX_CONSTEXPR bool
 303:/usr/include/newlib/c++/9.2.1/bits/char_traits.h ****       eq(const char_type& __c1, const char_type& __c2) _GLIBCXX_NOEXCEPT
 304:/usr/include/newlib/c++/9.2.1/bits/char_traits.h ****       { return __c1 == __c2; }
 305:/usr/include/newlib/c++/9.2.1/bits/char_traits.h **** 
 306:/usr/include/newlib/c++/9.2.1/bits/char_traits.h ****       static _GLIBCXX_CONSTEXPR bool
 307:/usr/include/newlib/c++/9.2.1/bits/char_traits.h ****       lt(const char_type& __c1, const char_type& __c2) _GLIBCXX_NOEXCEPT
ARM GAS  /tmp/ccpr9r5K.s 			page 191


 308:/usr/include/newlib/c++/9.2.1/bits/char_traits.h ****       {
 309:/usr/include/newlib/c++/9.2.1/bits/char_traits.h **** 	// LWG 467.
 310:/usr/include/newlib/c++/9.2.1/bits/char_traits.h **** 	return (static_cast<unsigned char>(__c1)
 311:/usr/include/newlib/c++/9.2.1/bits/char_traits.h **** 		< static_cast<unsigned char>(__c2));
 312:/usr/include/newlib/c++/9.2.1/bits/char_traits.h ****       }
 313:/usr/include/newlib/c++/9.2.1/bits/char_traits.h **** 
 314:/usr/include/newlib/c++/9.2.1/bits/char_traits.h ****       static _GLIBCXX17_CONSTEXPR int
 315:/usr/include/newlib/c++/9.2.1/bits/char_traits.h ****       compare(const char_type* __s1, const char_type* __s2, size_t __n)
 316:/usr/include/newlib/c++/9.2.1/bits/char_traits.h ****       {
 317:/usr/include/newlib/c++/9.2.1/bits/char_traits.h **** 	if (__n == 0)
 318:/usr/include/newlib/c++/9.2.1/bits/char_traits.h **** 	  return 0;
 319:/usr/include/newlib/c++/9.2.1/bits/char_traits.h **** #if __cplusplus >= 201703L
 320:/usr/include/newlib/c++/9.2.1/bits/char_traits.h **** 	if (__builtin_constant_p(__n)
 321:/usr/include/newlib/c++/9.2.1/bits/char_traits.h **** 	    && __constant_char_array_p(__s1, __n)
 322:/usr/include/newlib/c++/9.2.1/bits/char_traits.h **** 	    && __constant_char_array_p(__s2, __n))
 323:/usr/include/newlib/c++/9.2.1/bits/char_traits.h **** 	  return __gnu_cxx::char_traits<char_type>::compare(__s1, __s2, __n);
 324:/usr/include/newlib/c++/9.2.1/bits/char_traits.h **** #endif
 325:/usr/include/newlib/c++/9.2.1/bits/char_traits.h **** 	return __builtin_memcmp(__s1, __s2, __n);
 326:/usr/include/newlib/c++/9.2.1/bits/char_traits.h ****       }
 327:/usr/include/newlib/c++/9.2.1/bits/char_traits.h **** 
 328:/usr/include/newlib/c++/9.2.1/bits/char_traits.h ****       static _GLIBCXX17_CONSTEXPR size_t
 329:/usr/include/newlib/c++/9.2.1/bits/char_traits.h ****       length(const char_type* __s)
 330:/usr/include/newlib/c++/9.2.1/bits/char_traits.h ****       {
 331:/usr/include/newlib/c++/9.2.1/bits/char_traits.h **** #if __cplusplus >= 201703L
 332:/usr/include/newlib/c++/9.2.1/bits/char_traits.h **** 	if (__constant_string_p(__s))
 333:/usr/include/newlib/c++/9.2.1/bits/char_traits.h **** 	  return __gnu_cxx::char_traits<char_type>::length(__s);
 334:/usr/include/newlib/c++/9.2.1/bits/char_traits.h **** #endif
 335:/usr/include/newlib/c++/9.2.1/bits/char_traits.h **** 	return __builtin_strlen(__s);
 336:/usr/include/newlib/c++/9.2.1/bits/char_traits.h ****       }
 337:/usr/include/newlib/c++/9.2.1/bits/char_traits.h **** 
 338:/usr/include/newlib/c++/9.2.1/bits/char_traits.h ****       static _GLIBCXX17_CONSTEXPR const char_type*
 339:/usr/include/newlib/c++/9.2.1/bits/char_traits.h ****       find(const char_type* __s, size_t __n, const char_type& __a)
 340:/usr/include/newlib/c++/9.2.1/bits/char_traits.h ****       {
 341:/usr/include/newlib/c++/9.2.1/bits/char_traits.h **** 	if (__n == 0)
 342:/usr/include/newlib/c++/9.2.1/bits/char_traits.h **** 	  return 0;
 343:/usr/include/newlib/c++/9.2.1/bits/char_traits.h **** #if __cplusplus >= 201703L
 344:/usr/include/newlib/c++/9.2.1/bits/char_traits.h **** 	if (__builtin_constant_p(__n)
 345:/usr/include/newlib/c++/9.2.1/bits/char_traits.h **** 	    && __builtin_constant_p(__a)
 346:/usr/include/newlib/c++/9.2.1/bits/char_traits.h **** 	    && __constant_char_array_p(__s, __n))
 347:/usr/include/newlib/c++/9.2.1/bits/char_traits.h **** 	  return __gnu_cxx::char_traits<char_type>::find(__s, __n, __a);
 348:/usr/include/newlib/c++/9.2.1/bits/char_traits.h **** #endif
 349:/usr/include/newlib/c++/9.2.1/bits/char_traits.h **** 	return static_cast<const char_type*>(__builtin_memchr(__s, __a, __n));
 350:/usr/include/newlib/c++/9.2.1/bits/char_traits.h ****       }
 351:/usr/include/newlib/c++/9.2.1/bits/char_traits.h **** 
 352:/usr/include/newlib/c++/9.2.1/bits/char_traits.h ****       static char_type*
 353:/usr/include/newlib/c++/9.2.1/bits/char_traits.h ****       move(char_type* __s1, const char_type* __s2, size_t __n)
 354:/usr/include/newlib/c++/9.2.1/bits/char_traits.h ****       {
 355:/usr/include/newlib/c++/9.2.1/bits/char_traits.h **** 	if (__n == 0)
 356:/usr/include/newlib/c++/9.2.1/bits/char_traits.h **** 	  return __s1;
 357:/usr/include/newlib/c++/9.2.1/bits/char_traits.h **** 	return static_cast<char_type*>(__builtin_memmove(__s1, __s2, __n));
 358:/usr/include/newlib/c++/9.2.1/bits/char_traits.h ****       }
 359:/usr/include/newlib/c++/9.2.1/bits/char_traits.h **** 
 360:/usr/include/newlib/c++/9.2.1/bits/char_traits.h ****       static char_type*
 361:/usr/include/newlib/c++/9.2.1/bits/char_traits.h ****       copy(char_type* __s1, const char_type* __s2, size_t __n)
 362:/usr/include/newlib/c++/9.2.1/bits/char_traits.h ****       {
 363:/usr/include/newlib/c++/9.2.1/bits/char_traits.h **** 	if (__n == 0)
 364:/usr/include/newlib/c++/9.2.1/bits/char_traits.h **** 	  return __s1;
ARM GAS  /tmp/ccpr9r5K.s 			page 192


 365:/usr/include/newlib/c++/9.2.1/bits/char_traits.h **** 	return static_cast<char_type*>(__builtin_memcpy(__s1, __s2, __n));
 6264              		.loc 23 365 49 view .LVU1505
 6265 00f8 1E4A     		ldr	r2, .L426+40
 6266              	.LBE1760:
 6267              	.LBE1759:
 6268              	.LBE1758:
 6269              	.LBE1757:
 6270              	.LBE1756:
 6271              	.LBE1778:
 6272              	.LBE1783:
 6273              	.LBE1788:
 6274              	.LBE1793:
 6275              	.LBE1798:
 6276              	.LBE1811:
 6277              	.LBE1817:
 6278              	.LBE1825:
  59:ex_vco.cpp    ****     char*       cstr = &str[0];
  60:ex_vco.cpp    ****     patch.display.WriteString(cstr, Font_7x10, true);
 6279              		.loc 16 60 30 view .LVU1506
 6280 00fa 0120     		movs	r0, #1
 6281 00fc 1E4B     		ldr	r3, .L426+44
 6282              	.LBB1826:
 6283              	.LBB1818:
 6284              	.LBB1812:
 6285              	.LBB1799:
 6286              	.LBB1794:
 6287              	.LBB1789:
 6288              	.LBB1784:
 6289              	.LBB1779:
 6290              	.LBB1773:
 6291              	.LBB1770:
 6292              	.LBB1767:
 6293              	.LBB1764:
 6294              	.LBB1761:
 6295              		.loc 23 365 49 view .LVU1507
 6296 00fe 1268     		ldr	r2, [r2]
 6297              	.LBE1761:
 6298              	.LBE1764:
 6299              	.LBE1767:
 6300              	.LBE1770:
 6301              	.LBE1773:
 6302              	.LBE1779:
 6303              	.LBE1784:
 6304              	.LBE1789:
 6305              	.LBE1794:
 6306              	.LBE1799:
 6307              	.LBE1812:
 6308              	.LBB1813:
 6309              	.LBB1810:
 6310              	.LBB1809:
 157:/usr/include/newlib/c++/9.2.1/bits/basic_string.h **** 
 6311              		.loc 20 157 35 view .LVU1508
 6312 0100 04A9     		add	r1, sp, #16
 6313              	.LVL475:
 157:/usr/include/newlib/c++/9.2.1/bits/basic_string.h **** 
 6314              		.loc 20 157 35 view .LVU1509
 6315              	.LBE1809:
ARM GAS  /tmp/ccpr9r5K.s 			page 193


 6316              	.LBE1810:
 6317              	.LBE1813:
 6318              	.LBE1818:
 6319              	.LBE1826:
 6320              		.loc 16 60 30 view .LVU1510
 6321 0102 0090     		str	r0, [sp]
 6322              	.LBB1827:
 6323              	.LBB1819:
 6324              	.LBB1814:
 6325              	.LBB1800:
 6326              	.LBB1795:
 6327              	.LBB1790:
 6328              	.LBB1785:
 6329              	.LBB1780:
 6330              	.LBB1774:
 6331              	.LBB1771:
 6332              	.LBB1768:
 6333              	.LBB1765:
 6334              	.LBB1762:
 6335              		.loc 23 365 49 view .LVU1511
 6336 0104 160C     		lsrs	r6, r2, #16
 6337 0106 ADF81020 		strh	r2, [sp, #16]	@ movhi
 6338              	.LBE1762:
 6339              	.LBE1765:
 6340              	.LBE1768:
 6341              	.LBE1771:
 6342              	.LBE1774:
 6343              	.LBE1780:
 6344              	.LBE1785:
 6345              	.LBE1790:
 6346              	.LBE1795:
 6347              	.LBE1800:
 6348              	.LBE1814:
 6349              	.LBE1819:
 6350              	.LBE1827:
 6351              		.loc 16 60 30 view .LVU1512
 6352 010a 1C48     		ldr	r0, .L426+48
 6353              	.LBB1828:
 6354              	.LBB1820:
 6355              	.LBB1815:
 6356              	.LBB1801:
 6357              	.LBB1796:
 6358              	.LBB1791:
 6359              	.LBB1786:
 6360              	.LBB1781:
 6361              	.LBB1775:
 6362              	.LBB1751:
 6363              	.LBB1752:
 300:/usr/include/newlib/c++/9.2.1/bits/char_traits.h **** 
 6364              		.loc 23 300 14 view .LVU1513
 6365 010c 8DF81370 		strb	r7, [sp, #19]
 6366              	.LBE1752:
 6367              	.LBE1751:
 6368              	.LBE1775:
 6369              	.LBB1776:
 6370              	.LBB1772:
 6371              	.LBB1769:
ARM GAS  /tmp/ccpr9r5K.s 			page 194


 6372              	.LBB1766:
 6373              	.LBB1763:
 6374              		.loc 23 365 49 view .LVU1514
 6375 0110 8DF81260 		strb	r6, [sp, #18]
 6376              	.LBE1763:
 6377              	.LBE1766:
 6378              	.LBE1769:
 6379              	.LBE1772:
 6380              	.LBE1776:
 6381              	.LBE1781:
 6382              	.LBE1786:
 6383              	.LBE1791:
 6384              	.LBE1796:
 6385              	.LBE1801:
 6386              	.LBE1815:
 6387              	.LBE1820:
 6388              	.LBE1828:
 6389              		.loc 16 60 30 view .LVU1515
 6390 0114 0CCB     		ldm	r3, {r2, r3}
 6391              	.LBB1829:
 6392              	.LBB1821:
 6393              	.LBB1816:
 6394              	.LBB1802:
 6395              	.LBB1797:
 6396              	.LBB1792:
 6397              	.LBB1787:
 6398              	.LBB1782:
 6399              	.LBB1777:
 6400              	.LBB1754:
 6401              	.LBB1750:
 183:/usr/include/newlib/c++/9.2.1/bits/basic_string.h **** 
 6402              		.loc 20 183 9 view .LVU1516
 6403 0116 CDE90214 		strd	r1, r4, [sp, #8]
 6404              	.LVL476:
 183:/usr/include/newlib/c++/9.2.1/bits/basic_string.h **** 
 6405              		.loc 20 183 9 view .LVU1517
 6406              	.LBE1750:
 6407              	.LBE1754:
 6408              	.LBB1755:
 6409              	.LBI1751:
 299:/usr/include/newlib/c++/9.2.1/bits/char_traits.h ****       { __c1 = __c2; }
 6410              		.loc 23 299 7 is_stmt 1 view .LVU1518
 6411              	.LBB1753:
 300:/usr/include/newlib/c++/9.2.1/bits/char_traits.h **** 
 6412              		.loc 23 300 9 view .LVU1519
 300:/usr/include/newlib/c++/9.2.1/bits/char_traits.h **** 
 6413              		.loc 23 300 9 is_stmt 0 view .LVU1520
 6414              	.LBE1753:
 6415              	.LBE1755:
 6416              	.LBE1777:
 6417              	.LBE1782:
 6418              	.LBE1787:
 6419              	.LBE1792:
 6420              	.LBE1797:
 6421              	.LBE1802:
 6422              	.LBE1816:
 6423              	.LBE1821:
ARM GAS  /tmp/ccpr9r5K.s 			page 195


 6424              	.LBE1829:
 6425              	.LBB1830:
 6426              	.LBI1830:
 142:/usr/include/newlib/c++/9.2.1/bits/allocator.h ****       : __allocator_base<_Tp>(__a) { }
 143:/usr/include/newlib/c++/9.2.1/bits/allocator.h **** 
 144:/usr/include/newlib/c++/9.2.1/bits/allocator.h **** #if __cplusplus >= 201103L
 145:/usr/include/newlib/c++/9.2.1/bits/allocator.h ****       // Avoid implicit deprecation.
 146:/usr/include/newlib/c++/9.2.1/bits/allocator.h ****       allocator& operator=(const allocator&) = default;
 147:/usr/include/newlib/c++/9.2.1/bits/allocator.h **** #endif
 148:/usr/include/newlib/c++/9.2.1/bits/allocator.h **** 
 149:/usr/include/newlib/c++/9.2.1/bits/allocator.h ****       template<typename _Tp1>
 150:/usr/include/newlib/c++/9.2.1/bits/allocator.h **** 	_GLIBCXX20_CONSTEXPR
 151:/usr/include/newlib/c++/9.2.1/bits/allocator.h **** 	allocator(const allocator<_Tp1>&) _GLIBCXX_NOTHROW { }
 152:/usr/include/newlib/c++/9.2.1/bits/allocator.h **** 
 153:/usr/include/newlib/c++/9.2.1/bits/allocator.h ****       ~allocator() _GLIBCXX_NOTHROW { }
 6427              		.loc 21 153 7 is_stmt 1 view .LVU1521
 6428              	.LBB1831:
 6429              	.LBI1831:
  84:/usr/include/newlib/c++/9.2.1/ext/new_allocator.h **** 
  85:/usr/include/newlib/c++/9.2.1/ext/new_allocator.h ****       template<typename _Tp1>
  86:/usr/include/newlib/c++/9.2.1/ext/new_allocator.h **** 	_GLIBCXX20_CONSTEXPR
  87:/usr/include/newlib/c++/9.2.1/ext/new_allocator.h **** 	new_allocator(const new_allocator<_Tp1>&) _GLIBCXX_USE_NOEXCEPT { }
  88:/usr/include/newlib/c++/9.2.1/ext/new_allocator.h **** 
  89:/usr/include/newlib/c++/9.2.1/ext/new_allocator.h ****       ~new_allocator() _GLIBCXX_USE_NOEXCEPT { }
 6430              		.loc 22 89 7 view .LVU1522
 6431              		.loc 22 89 7 is_stmt 0 view .LVU1523
 6432              	.LBE1831:
 6433              	.LBE1830:
  59:ex_vco.cpp    ****     patch.display.WriteString(cstr, Font_7x10, true);
 6434              		.loc 16 59 5 is_stmt 1 view .LVU1524
 6435              		.loc 16 60 5 view .LVU1525
 6436              		.loc 16 60 30 is_stmt 0 view .LVU1526
 6437 011a FFF7FEFF 		bl	_ZN5daisy25OneBitGraphicsDisplayImplINS_11OledDisplayINS_13SSD130xDriverILj128ELj64ENS_24SSD130
 6438              	.LVL477:
  61:ex_vco.cpp    ****     patch.display.Update();
 6439              		.loc 16 61 5 is_stmt 1 view .LVU1527
 6440              	.LBB1832:
 6441              	.LBI1832:
 6442              		.loc 5 50 10 view .LVU1528
 6443              	.LBB1833:
 6444              		.loc 5 50 30 is_stmt 0 view .LVU1529
 6445 011e 1848     		ldr	r0, .L426+52
 6446 0120 FFF7FEFF 		bl	_ZN5daisy13SSD130xDriverILj128ELj64ENS_24SSD130x4WireSpiTransportEE6UpdateEv
 6447              	.LVL478:
 6448              		.loc 5 50 30 view .LVU1530
 6449              	.LBE1833:
 6450              	.LBE1832:
  62:ex_vco.cpp    ****     patch.DelayMs(1000);
 6451              		.loc 16 62 5 is_stmt 1 view .LVU1531
 6452              		.loc 16 62 18 is_stmt 0 view .LVU1532
 6453 0124 4FF47A71 		mov	r1, #1000
 6454 0128 A5F16C00 		sub	r0, r5, #108
 6455 012c FFF7FEFF 		bl	_ZN5daisy10DaisyPatch7DelayMsEj
 6456              	.LVL479:
  63:ex_vco.cpp    **** 
  64:ex_vco.cpp    ****     patch.StartAdc();
 6457              		.loc 16 64 5 is_stmt 1 view .LVU1533
ARM GAS  /tmp/ccpr9r5K.s 			page 196


 6458              		.loc 16 64 19 is_stmt 0 view .LVU1534
 6459 0130 A5F16C00 		sub	r0, r5, #108
 6460 0134 FFF7FEFF 		bl	_ZN5daisy10DaisyPatch8StartAdcEv
 6461              	.LVL480:
  65:ex_vco.cpp    ****     patch.StartAudio(AudioCallback);
 6462              		.loc 16 65 5 is_stmt 1 view .LVU1535
 6463              		.loc 16 65 21 is_stmt 0 view .LVU1536
 6464 0138 A5F16C00 		sub	r0, r5, #108
 6465 013c 1149     		ldr	r1, .L426+56
 6466 013e FFF7FEFF 		bl	_ZN5daisy10DaisyPatch10StartAudioEPFvPKPKfPPfjE
 6467              	.LVL481:
 6468              	.L424:
  66:ex_vco.cpp    ****     while(1)
 6469              		.loc 16 66 5 is_stmt 1 discriminator 1 view .LVU1537
  67:ex_vco.cpp    ****     {
  68:ex_vco.cpp    ****         patch.DisplayControls(false);
 6470              		.loc 16 68 9 discriminator 1 view .LVU1538
 6471              		.loc 16 68 30 is_stmt 0 discriminator 1 view .LVU1539
 6472 0142 0021     		movs	r1, #0
 6473 0144 0148     		ldr	r0, .L426
 6474 0146 FFF7FEFF 		bl	_ZN5daisy10DaisyPatch15DisplayControlsEb
 6475              	.LVL482:
  66:ex_vco.cpp    ****     while(1)
 6476              		.loc 16 66 5 is_stmt 1 discriminator 1 view .LVU1540
 6477 014a FAE7     		b	.L424
 6478              	.L427:
 6479              		.align	2
 6480              	.L426:
 6481 014c 00000000 		.word	patch
 6482 0150 00000000 		.word	.LANCHOR4
 6483 0154 5C000000 		.word	patch+92
 6484 0158 00000000 		.word	0
 6485 015c 0000C842 		.word	1120403456
 6486 0160 0000DC42 		.word	1121714176
 6487 0164 00000000 		.word	.LANCHOR0
 6488 0168 00000000 		.word	.LANCHOR1
 6489 016c 00000000 		.word	.LANCHOR2
 6490 0170 00000000 		.word	.LANCHOR3
 6491 0174 00000000 		.word	.LC2
 6492 0178 00000000 		.word	Font_7x10
 6493 017c A4910000 		.word	patch+37284
 6494 0180 AC910000 		.word	patch+37292
 6495 0184 00000000 		.word	_ZL13AudioCallbackPKPKfPPfj
 6496              		.cfi_endproc
 6497              	.LFE4234:
 6499              		.section	.text.startup._GLOBAL__sub_I_patch,"ax",%progbits
 6500              		.align	1
 6501              		.p2align 2,,3
 6502              		.syntax unified
 6503              		.thumb
 6504              		.thumb_func
 6505              		.fpu fpv5-d16
 6507              	_GLOBAL__sub_I_patch:
 6508              	.LFB4831:
  69:ex_vco.cpp    ****     }
  70:ex_vco.cpp    **** }
 6509              		.loc 16 70 1 view -0
ARM GAS  /tmp/ccpr9r5K.s 			page 197


 6510              		.cfi_startproc
 6511              		@ args = 0, pretend = 0, frame = 0
 6512              		@ frame_needed = 0, uses_anonymous_args = 0
 6513              	.LBB1902:
 6514              	.LBI1902:
 6515              		.loc 16 70 1 view .LVU1542
 6516              	.LVL483:
 6517              	.LBB1903:
 6518              	.LBB1904:
 6519              	.LBI1904:
  39:../../libdaisy/src/daisy_patch.h ****     /** Destructor */
 6520              		.loc 4 39 5 view .LVU1543
 6521              	.LBB1905:
 6522              	.LBB1906:
 6523              	.LBI1906:
  21:../../libdaisy/src/daisy_seed.h ****     ~DaisySeed() {}
 6524              		.loc 10 21 5 view .LVU1544
 6525              	.LBB1907:
 6526              	.LBB1908:
 6527              	.LBI1908:
  62:../../libdaisy/src/hid/audio.h ****     ~AudioHandle() {}
 6528              		.loc 14 62 5 view .LVU1545
 6529              	.LBE1908:
 6530              	.LBE1907:
 6531              	.LBE1906:
 6532              	.LBB1929:
 6533              	.LBB1930:
 6534              	.LBB1931:
 6535              	.LBB1932:
 6536              	.LBB1933:
 6537              	.LBB1934:
 6538              	.LBB1935:
  36:../../libdaisy/src/hid/midi.h ****             tx     = {DSY_GPIOB, 6};
 6539              		.loc 7 36 20 is_stmt 0 view .LVU1546
 6540 0000 2449     		ldr	r1, .L430
 6541              	.LBE1935:
 6542              	.LBE1934:
 6543              	.LBE1933:
 6544              	.LBE1932:
 6545              	.LBE1931:
 6546              	.LBE1930:
 6547              	.LBE1929:
 6548              	.LBB1976:
 6549              	.LBB1925:
 6550              	.LBB1915:
 6551              	.LBB1909:
 6552              	.LBB1910:
  62:../../libdaisy/src/hid/audio.h ****     ~AudioHandle() {}
 6553              		.loc 14 62 35 view .LVU1547
 6554 0002 2548     		ldr	r0, .L430+4
 6555              	.LBE1910:
 6556              	.LBE1909:
 6557              	.LBE1915:
 6558              	.LBE1925:
 6559              	.LBE1976:
 6560              	.LBE1905:
 6561              	.LBE1904:
ARM GAS  /tmp/ccpr9r5K.s 			page 198


   8:ex_vco.cpp    **** Oscillator osc;
 6562              		.loc 16 8 12 view .LVU1548
 6563 0004 254A     		ldr	r2, .L430+8
 6564              	.LBE1903:
 6565              	.LBE1902:
 6566              		.loc 16 70 1 view .LVU1549
 6567 0006 F8B5     		push	{r3, r4, r5, r6, r7, lr}
 6568              		.cfi_def_cfa_offset 24
 6569              		.cfi_offset 3, -24
 6570              		.cfi_offset 4, -20
 6571              		.cfi_offset 5, -16
 6572              		.cfi_offset 6, -12
 6573              		.cfi_offset 7, -8
 6574              		.cfi_offset 14, -4
 6575              	.LBB2032:
 6576              	.LBB2029:
 6577              	.LBB2014:
 6578              	.LBB2012:
 6579              	.LBB1977:
 6580              	.LBB1971:
 6581              	.LBB1966:
 6582              	.LBB1948:
 6583              	.LBB1944:
 6584              	.LBB1940:
 6585              	.LBB1936:
  36:../../libdaisy/src/hid/midi.h ****             tx     = {DSY_GPIOB, 6};
 6586              		.loc 7 36 20 view .LVU1550
 6587 0008 0E88     		ldrh	r6, [r1]
 6588 000a 49F29415 		movw	r5, #37268
  37:../../libdaisy/src/hid/midi.h ****         }
 6589              		.loc 7 37 20 view .LVU1551
 6590 000e 8988     		ldrh	r1, [r1, #4]
 6591 0010 49F29614 		movw	r4, #37270
 6592              	.LBE1936:
 6593              	.LBE1940:
 6594              	.LBE1944:
 6595              	.LBE1948:
 6596              	.LBE1966:
 6597              	.LBE1971:
 6598              	.LBE1977:
 6599              	.LBB1978:
 6600              	.LBB1926:
 6601              	.LBB1916:
 6602              	.LBB1913:
 6603              	.LBB1911:
  62:../../libdaisy/src/hid/audio.h ****     ~AudioHandle() {}
 6604              		.loc 14 62 35 view .LVU1552
 6605 0014 0023     		movs	r3, #0
 6606              	.LBE1911:
 6607              	.LBE1913:
 6608              	.LBE1916:
 6609              	.LBE1926:
 6610              	.LBE1978:
 6611              	.LBB1979:
 6612              	.LBB1972:
 6613              	.LBB1967:
 6614              	.LBB1949:
ARM GAS  /tmp/ccpr9r5K.s 			page 199


 6615              	.LBB1945:
 6616              	.LBB1941:
 6617              	.LBB1937:
  36:../../libdaisy/src/hid/midi.h ****             tx     = {DSY_GPIOB, 6};
 6618              		.loc 7 36 20 view .LVU1553
 6619 0016 4653     		strh	r6, [r0, r5]	@ movhi
  37:../../libdaisy/src/hid/midi.h ****         }
 6620              		.loc 7 37 20 view .LVU1554
 6621 0018 0153     		strh	r1, [r0, r4]	@ movhi
 6622              	.LBE1937:
 6623              	.LBE1941:
 6624              	.LBE1945:
 6625              	.LBE1949:
 6626              	.LBB1950:
 6627              	.LBB1951:
 6628              	.LBB1952:
 6629              	.LBB1953:
 6630              		.file 24 "../../libdaisy/src/per/uart.h"
   1:../../libdaisy/src/per/uart.h **** /* 
   2:../../libdaisy/src/per/uart.h **** TODO
   3:../../libdaisy/src/per/uart.h **** - UART1 defaults to DMA, add flexible config for DMA on all periphs
   4:../../libdaisy/src/per/uart.h **** - Transmit function improvements.
   5:../../libdaisy/src/per/uart.h **** - Overflow handling, etc. for Rx Queue.
   6:../../libdaisy/src/per/uart.h **** */
   7:../../libdaisy/src/per/uart.h **** 
   8:../../libdaisy/src/per/uart.h **** #pragma once
   9:../../libdaisy/src/per/uart.h **** #ifndef DSY_UART_H
  10:../../libdaisy/src/per/uart.h **** #define DSY_UART_H /**< macro */
  11:../../libdaisy/src/per/uart.h **** #include "daisy_core.h"
  12:../../libdaisy/src/per/uart.h **** 
  13:../../libdaisy/src/per/uart.h **** 
  14:../../libdaisy/src/per/uart.h **** namespace daisy
  15:../../libdaisy/src/per/uart.h **** {
  16:../../libdaisy/src/per/uart.h **** /** @addtogroup serial
  17:../../libdaisy/src/per/uart.h ****     @{
  18:../../libdaisy/src/per/uart.h ****     */
  19:../../libdaisy/src/per/uart.h **** 
  20:../../libdaisy/src/per/uart.h **** /** 
  21:../../libdaisy/src/per/uart.h ****     Uart Peripheral
  22:../../libdaisy/src/per/uart.h ****     @author shensley
  23:../../libdaisy/src/per/uart.h ****     @date March 2020
  24:../../libdaisy/src/per/uart.h ****     */
  25:../../libdaisy/src/per/uart.h **** class UartHandler
  26:../../libdaisy/src/per/uart.h **** {
  27:../../libdaisy/src/per/uart.h ****   public:
  28:../../libdaisy/src/per/uart.h ****     struct Config
  29:../../libdaisy/src/per/uart.h ****     {
  30:../../libdaisy/src/per/uart.h ****         enum class Peripheral
  31:../../libdaisy/src/per/uart.h ****         {
  32:../../libdaisy/src/per/uart.h ****             USART_1,
  33:../../libdaisy/src/per/uart.h ****             USART_2,
  34:../../libdaisy/src/per/uart.h ****             USART_3,
  35:../../libdaisy/src/per/uart.h ****             UART_4,
  36:../../libdaisy/src/per/uart.h ****             UART_5,
  37:../../libdaisy/src/per/uart.h ****             USART_6,
  38:../../libdaisy/src/per/uart.h ****             UART_7,
  39:../../libdaisy/src/per/uart.h ****             UART_8,
ARM GAS  /tmp/ccpr9r5K.s 			page 200


  40:../../libdaisy/src/per/uart.h ****             LPUART_1,
  41:../../libdaisy/src/per/uart.h ****         };
  42:../../libdaisy/src/per/uart.h **** 
  43:../../libdaisy/src/per/uart.h ****         enum class StopBits
  44:../../libdaisy/src/per/uart.h ****         {
  45:../../libdaisy/src/per/uart.h ****             BITS_0_5,
  46:../../libdaisy/src/per/uart.h ****             BITS_1,
  47:../../libdaisy/src/per/uart.h ****             BITS_1_5,
  48:../../libdaisy/src/per/uart.h ****             BITS_2,
  49:../../libdaisy/src/per/uart.h ****         };
  50:../../libdaisy/src/per/uart.h **** 
  51:../../libdaisy/src/per/uart.h ****         enum class Parity
  52:../../libdaisy/src/per/uart.h ****         {
  53:../../libdaisy/src/per/uart.h ****             NONE,
  54:../../libdaisy/src/per/uart.h ****             EVEN,
  55:../../libdaisy/src/per/uart.h ****             ODD,
  56:../../libdaisy/src/per/uart.h ****         };
  57:../../libdaisy/src/per/uart.h **** 
  58:../../libdaisy/src/per/uart.h ****         enum class Mode
  59:../../libdaisy/src/per/uart.h ****         {
  60:../../libdaisy/src/per/uart.h ****             RX,
  61:../../libdaisy/src/per/uart.h ****             TX,
  62:../../libdaisy/src/per/uart.h ****             TX_RX,
  63:../../libdaisy/src/per/uart.h ****         };
  64:../../libdaisy/src/per/uart.h **** 
  65:../../libdaisy/src/per/uart.h ****         enum class WordLength
  66:../../libdaisy/src/per/uart.h ****         {
  67:../../libdaisy/src/per/uart.h ****             BITS_7,
  68:../../libdaisy/src/per/uart.h ****             BITS_8,
  69:../../libdaisy/src/per/uart.h ****             BITS_9,
  70:../../libdaisy/src/per/uart.h ****         };
  71:../../libdaisy/src/per/uart.h **** 
  72:../../libdaisy/src/per/uart.h ****         struct
  73:../../libdaisy/src/per/uart.h ****         {
  74:../../libdaisy/src/per/uart.h ****             dsy_gpio_pin tx; /**< & */
  75:../../libdaisy/src/per/uart.h ****             dsy_gpio_pin rx; /**< & */
  76:../../libdaisy/src/per/uart.h ****         } pin_config;        /**< & */
  77:../../libdaisy/src/per/uart.h **** 
  78:../../libdaisy/src/per/uart.h ****         Peripheral periph;
  79:../../libdaisy/src/per/uart.h ****         StopBits   stopbits;
  80:../../libdaisy/src/per/uart.h ****         Parity     parity;
  81:../../libdaisy/src/per/uart.h ****         Mode       mode;
  82:../../libdaisy/src/per/uart.h ****         WordLength wordlength;
  83:../../libdaisy/src/per/uart.h ****         uint32_t   baudrate;
  84:../../libdaisy/src/per/uart.h ****     };
  85:../../libdaisy/src/per/uart.h **** 
  86:../../libdaisy/src/per/uart.h **** 
  87:../../libdaisy/src/per/uart.h ****     UartHandler() : pimpl_(nullptr) {}
 6631              		.loc 24 87 35 view .LVU1555
 6632 001a 49F29815 		movw	r5, #37272
 6633              	.LBE1953:
 6634              	.LBE1952:
 6635              	.LBE1951:
 6636              	.LBE1950:
  82:../../libdaisy/src/hid/midi.h ****     ~MidiHandler() {}
 6637              		.loc 7 82 19 view .LVU1556
 6638 001e 49F2A011 		movw	r1, #37280
ARM GAS  /tmp/ccpr9r5K.s 			page 201


 6639 0022 4FF60F06 		movw	r6, #63503
 6640              	.LBB1958:
 6641              	.LBB1956:
 6642              	.LBB1955:
 6643              	.LBB1954:
 6644              		.loc 24 87 35 view .LVU1557
 6645 0026 4351     		str	r3, [r0, r5]
 6646              	.LBE1954:
 6647              	.LBE1955:
 6648              	.LBE1956:
 6649              	.LBE1958:
  82:../../libdaisy/src/hid/midi.h ****     ~MidiHandler() {}
 6650              		.loc 7 82 19 view .LVU1558
 6651 0028 49F29C14 		movw	r4, #37276
 6652 002c 4652     		strh	r6, [r0, r1]	@ movhi
 6653 002e 49F2A211 		movw	r1, #37282
 6654 0032 1B4D     		ldr	r5, .L430+12
 6655 0034 0726     		movs	r6, #7
 6656              	.LBB1959:
 6657              	.LBB1946:
 6658              	.LBB1942:
 6659              	.LBB1938:
  35:../../libdaisy/src/hid/midi.h ****             rx     = {DSY_GPIOB, 7};
 6660              		.loc 7 35 20 view .LVU1559
 6661 0036 49F29017 		movw	r7, #37264
 6662              	.LBE1938:
 6663              	.LBE1942:
 6664              	.LBE1946:
 6665              	.LBE1959:
 6666              	.LBE1967:
 6667              	.LBE1972:
 6668              	.LBE1979:
 6669              	.LBB1980:
 6670              	.LBB1927:
 6671              	.LBB1917:
 6672              	.LBB1914:
 6673              	.LBB1912:
  62:../../libdaisy/src/hid/audio.h ****     ~AudioHandle() {}
 6674              		.loc 14 62 35 view .LVU1560
 6675 003a 4361     		str	r3, [r0, #20]
 6676              	.LVL484:
  62:../../libdaisy/src/hid/audio.h ****     ~AudioHandle() {}
 6677              		.loc 14 62 35 view .LVU1561
 6678              	.LBE1912:
 6679              	.LBE1914:
 6680              	.LBE1917:
 6681              	.LBB1918:
 6682              	.LBI1918:
  84:../../libdaisy/src/per/adc.h ****     ~AdcHandle() {}
 6683              		.loc 13 84 5 is_stmt 1 view .LVU1562
  84:../../libdaisy/src/per/adc.h ****     ~AdcHandle() {}
 6684              		.loc 13 84 5 is_stmt 0 view .LVU1563
 6685              	.LBE1918:
 6686              	.LBB1919:
 6687              	.LBI1919:
 6688              		.file 25 "../../libdaisy/src/per/dac.h"
   1:../../libdaisy/src/per/dac.h **** #pragma once
ARM GAS  /tmp/ccpr9r5K.s 			page 202


   2:../../libdaisy/src/per/dac.h **** #ifndef DSY_DAC_H
   3:../../libdaisy/src/per/dac.h **** #define DSY_DAC_H
   4:../../libdaisy/src/per/dac.h **** 
   5:../../libdaisy/src/per/dac.h **** #include "daisy_core.h"
   6:../../libdaisy/src/per/dac.h **** 
   7:../../libdaisy/src/per/dac.h **** namespace daisy
   8:../../libdaisy/src/per/dac.h **** {
   9:../../libdaisy/src/per/dac.h **** /** DAC handle for Built-in DAC Peripheral 
  10:../../libdaisy/src/per/dac.h ****  ** 
  11:../../libdaisy/src/per/dac.h ****  ** For now only Normal Mode is supported,
  12:../../libdaisy/src/per/dac.h ****  ** Sample and hold mode provides reduced power consumption, but requires a bit more setup.
  13:../../libdaisy/src/per/dac.h ****  **
  14:../../libdaisy/src/per/dac.h ****  ** For now connecting the DAC through other internal periphearls is also not supported.
  15:../../libdaisy/src/per/dac.h ****  **
  16:../../libdaisy/src/per/dac.h ****  ** Since the DAC channels have dedicated pins we don't need to pass in a pin config like with
  17:../../libdaisy/src/per/dac.h ****  ** other modules. However, it is still important to not try to use the DAC pins for anything else.
  18:../../libdaisy/src/per/dac.h ****  ** DAC Channel 1 is on PA4, and DAC Channel 2 is on PA5
  19:../../libdaisy/src/per/dac.h ****  ***/
  20:../../libdaisy/src/per/dac.h **** class DacHandle
  21:../../libdaisy/src/per/dac.h **** {
  22:../../libdaisy/src/per/dac.h ****   public:
  23:../../libdaisy/src/per/dac.h ****     /** Return Values for the DacHandle class */
  24:../../libdaisy/src/per/dac.h ****     enum class Result
  25:../../libdaisy/src/per/dac.h ****     {
  26:../../libdaisy/src/per/dac.h ****         OK,
  27:../../libdaisy/src/per/dac.h ****         ERR,
  28:../../libdaisy/src/per/dac.h ****     };
  29:../../libdaisy/src/per/dac.h **** 
  30:../../libdaisy/src/per/dac.h ****     /** Selects which channel(s) will be configured for use. */
  31:../../libdaisy/src/per/dac.h ****     enum class Channel
  32:../../libdaisy/src/per/dac.h ****     {
  33:../../libdaisy/src/per/dac.h ****         ONE,
  34:../../libdaisy/src/per/dac.h ****         TWO,
  35:../../libdaisy/src/per/dac.h ****         BOTH,
  36:../../libdaisy/src/per/dac.h ****     };
  37:../../libdaisy/src/per/dac.h **** 
  38:../../libdaisy/src/per/dac.h ****     /** Sets the Mode for the DAC channels.
  39:../../libdaisy/src/per/dac.h ****      **
  40:../../libdaisy/src/per/dac.h ****      ** Polling mode uses the blocking mode to transmit a single value at a time.
  41:../../libdaisy/src/per/dac.h ****      **
  42:../../libdaisy/src/per/dac.h ****      ** DMA mode uses a buffer, and periodically transmits it triggering a 
  43:../../libdaisy/src/per/dac.h ****      ** callback to fill the buffer when it is ready for more samples.
  44:../../libdaisy/src/per/dac.h ****      ***/
  45:../../libdaisy/src/per/dac.h ****     enum class Mode
  46:../../libdaisy/src/per/dac.h ****     {
  47:../../libdaisy/src/per/dac.h ****         POLLING,
  48:../../libdaisy/src/per/dac.h ****         DMA,
  49:../../libdaisy/src/per/dac.h ****     };
  50:../../libdaisy/src/per/dac.h **** 
  51:../../libdaisy/src/per/dac.h ****     /** Sets the number of bits per sample transmitted out of the DAC.
  52:../../libdaisy/src/per/dac.h ****      ** The output range will be: 0V - VDDA
  53:../../libdaisy/src/per/dac.h ****      ** The resolution will be roughly: bitdepth / (VDDA - 0V) 
  54:../../libdaisy/src/per/dac.h ****      ***/
  55:../../libdaisy/src/per/dac.h ****     enum class BitDepth
  56:../../libdaisy/src/per/dac.h ****     {
  57:../../libdaisy/src/per/dac.h ****         BITS_8,
  58:../../libdaisy/src/per/dac.h ****         BITS_12
ARM GAS  /tmp/ccpr9r5K.s 			page 203


  59:../../libdaisy/src/per/dac.h ****     };
  60:../../libdaisy/src/per/dac.h **** 
  61:../../libdaisy/src/per/dac.h ****     /** Sets whether the DAC output is buffered for higher drive ability. */
  62:../../libdaisy/src/per/dac.h ****     enum class BufferState
  63:../../libdaisy/src/per/dac.h ****     {
  64:../../libdaisy/src/per/dac.h ****         ENABLED,
  65:../../libdaisy/src/per/dac.h ****         DISABLED,
  66:../../libdaisy/src/per/dac.h ****     };
  67:../../libdaisy/src/per/dac.h **** 
  68:../../libdaisy/src/per/dac.h ****     /** Configuration structure for initializing the DAC structure. */
  69:../../libdaisy/src/per/dac.h ****     struct Config
  70:../../libdaisy/src/per/dac.h ****     {
  71:../../libdaisy/src/per/dac.h ****         /** Target Samplerate in Hz used to configure the internal 
  72:../../libdaisy/src/per/dac.h ****          ** timebase for DMA mode. Does nothing in POLLING mode.
  73:../../libdaisy/src/per/dac.h ****          ** If the value is 0 at Init time this will default to 48000Hz 
  74:../../libdaisy/src/per/dac.h ****          ** otherwise the driver will attempt meet the target.*/
  75:../../libdaisy/src/per/dac.h ****         uint32_t target_samplerate;
  76:../../libdaisy/src/per/dac.h **** 
  77:../../libdaisy/src/per/dac.h ****         Channel     chn;
  78:../../libdaisy/src/per/dac.h ****         Mode        mode;
  79:../../libdaisy/src/per/dac.h ****         BitDepth    bitdepth;
  80:../../libdaisy/src/per/dac.h ****         BufferState buff_state;
  81:../../libdaisy/src/per/dac.h ****     };
  82:../../libdaisy/src/per/dac.h **** 
  83:../../libdaisy/src/per/dac.h ****     DacHandle() : pimpl_(nullptr) {}
 6689              		.loc 25 83 5 is_stmt 1 view .LVU1564
 6690              	.LBE1919:
 6691              	.LBE1927:
 6692              	.LBE1980:
 6693              	.LBB1981:
 6694              	.LBB1973:
 6695              	.LBB1968:
  82:../../libdaisy/src/hid/midi.h ****     ~MidiHandler() {}
 6696              		.loc 7 82 19 is_stmt 0 view .LVU1565
 6697 003c 0551     		str	r5, [r0, r4]
 6698              	.LBE1968:
 6699              	.LBE1973:
 6700              	.LBE1981:
 6701              	.LBB1982:
 6702              	.LBB1983:
 6703              	.LBB1984:
  16:../../libdaisy/src/hid/disp/oled_display.h ****     virtual ~OledDisplay() {}
 6704              		.loc 5 16 19 view .LVU1566
 6705 003e 49F2A414 		movw	r4, #37284
 6706              	.LBE1984:
 6707              	.LBE1983:
 6708              	.LBE1982:
 6709              	.LBB2004:
 6710              	.LBB1974:
 6711              	.LBB1969:
  82:../../libdaisy/src/hid/midi.h ****     ~MidiHandler() {}
 6712              		.loc 7 82 19 view .LVU1567
 6713 0042 4654     		strb	r6, [r0, r1]
 6714              	.LBE1969:
 6715              	.LBE1974:
 6716              	.LBE2004:
 6717              	.LBB2005:
ARM GAS  /tmp/ccpr9r5K.s 			page 204


 6718              	.LBB2002:
 6719              	.LBB2000:
 6720              	.LBB1985:
 6721              	.LBB1986:
 6722              	.LBB1987:
 6723              	.LBB1988:
 6724              	.LBB1989:
 6725              		.file 26 "../../libdaisy/src/per/spi.h"
   1:../../libdaisy/src/per/spi.h **** #pragma once
   2:../../libdaisy/src/per/spi.h **** #ifndef DSY_SPI_H
   3:../../libdaisy/src/per/spi.h **** #define DSY_SPI_H
   4:../../libdaisy/src/per/spi.h **** 
   5:../../libdaisy/src/per/spi.h **** #include "daisy_core.h"
   6:../../libdaisy/src/per/spi.h **** 
   7:../../libdaisy/src/per/spi.h **** /* TODO:
   8:../../libdaisy/src/per/spi.h **** - Add documentation
   9:../../libdaisy/src/per/spi.h **** - Add reception
  10:../../libdaisy/src/per/spi.h **** - Add IT
  11:../../libdaisy/src/per/spi.h **** - Add DMA
  12:../../libdaisy/src/per/spi.h **** */
  13:../../libdaisy/src/per/spi.h **** 
  14:../../libdaisy/src/per/spi.h **** namespace daisy
  15:../../libdaisy/src/per/spi.h **** {
  16:../../libdaisy/src/per/spi.h **** /** @addtogroup serial
  17:../../libdaisy/src/per/spi.h **** @{
  18:../../libdaisy/src/per/spi.h **** */
  19:../../libdaisy/src/per/spi.h **** 
  20:../../libdaisy/src/per/spi.h **** /**  Handler for serial peripheral interface */
  21:../../libdaisy/src/per/spi.h **** class SpiHandle
  22:../../libdaisy/src/per/spi.h **** {
  23:../../libdaisy/src/per/spi.h ****   public:
  24:../../libdaisy/src/per/spi.h ****     struct Config
  25:../../libdaisy/src/per/spi.h ****     {
  26:../../libdaisy/src/per/spi.h ****         enum class Peripheral
  27:../../libdaisy/src/per/spi.h ****         {
  28:../../libdaisy/src/per/spi.h ****             SPI_1,
  29:../../libdaisy/src/per/spi.h ****             SPI_2,
  30:../../libdaisy/src/per/spi.h ****             SPI_3,
  31:../../libdaisy/src/per/spi.h ****             SPI_4,
  32:../../libdaisy/src/per/spi.h ****             SPI_5,
  33:../../libdaisy/src/per/spi.h ****             SPI_6,
  34:../../libdaisy/src/per/spi.h ****         };
  35:../../libdaisy/src/per/spi.h **** 
  36:../../libdaisy/src/per/spi.h ****         enum class Mode
  37:../../libdaisy/src/per/spi.h ****         {
  38:../../libdaisy/src/per/spi.h ****             MASTER,
  39:../../libdaisy/src/per/spi.h ****             SLAVE,
  40:../../libdaisy/src/per/spi.h ****         };
  41:../../libdaisy/src/per/spi.h **** 
  42:../../libdaisy/src/per/spi.h ****         enum class Direction
  43:../../libdaisy/src/per/spi.h ****         {
  44:../../libdaisy/src/per/spi.h ****             TWO_LINES,
  45:../../libdaisy/src/per/spi.h ****             TWO_LINES_TX_ONLY,
  46:../../libdaisy/src/per/spi.h ****             TWO_LINES_RX_ONLY,
  47:../../libdaisy/src/per/spi.h ****             ONE_LINE,
  48:../../libdaisy/src/per/spi.h ****         };
  49:../../libdaisy/src/per/spi.h **** 
ARM GAS  /tmp/ccpr9r5K.s 			page 205


  50:../../libdaisy/src/per/spi.h ****         enum class ClockPolarity
  51:../../libdaisy/src/per/spi.h ****         {
  52:../../libdaisy/src/per/spi.h ****             LOW,
  53:../../libdaisy/src/per/spi.h ****             HIGH,
  54:../../libdaisy/src/per/spi.h ****         };
  55:../../libdaisy/src/per/spi.h **** 
  56:../../libdaisy/src/per/spi.h ****         enum class ClockPhase
  57:../../libdaisy/src/per/spi.h ****         {
  58:../../libdaisy/src/per/spi.h ****             ONE_EDGE,
  59:../../libdaisy/src/per/spi.h ****             TWO_EDGE,
  60:../../libdaisy/src/per/spi.h ****         };
  61:../../libdaisy/src/per/spi.h **** 
  62:../../libdaisy/src/per/spi.h ****         enum class NSS
  63:../../libdaisy/src/per/spi.h ****         {
  64:../../libdaisy/src/per/spi.h ****             SOFT,
  65:../../libdaisy/src/per/spi.h ****             HARD_INPUT,
  66:../../libdaisy/src/per/spi.h ****             HARD_OUTPUT,
  67:../../libdaisy/src/per/spi.h ****         };
  68:../../libdaisy/src/per/spi.h **** 
  69:../../libdaisy/src/per/spi.h ****         enum class BaudPrescaler
  70:../../libdaisy/src/per/spi.h ****         {
  71:../../libdaisy/src/per/spi.h ****             PS_2,
  72:../../libdaisy/src/per/spi.h ****             PS_4,
  73:../../libdaisy/src/per/spi.h ****             PS_8,
  74:../../libdaisy/src/per/spi.h ****             PS_16,
  75:../../libdaisy/src/per/spi.h ****             PS_32,
  76:../../libdaisy/src/per/spi.h ****             PS_64,
  77:../../libdaisy/src/per/spi.h ****             PS_128,
  78:../../libdaisy/src/per/spi.h ****             PS_256,
  79:../../libdaisy/src/per/spi.h ****         };
  80:../../libdaisy/src/per/spi.h **** 
  81:../../libdaisy/src/per/spi.h ****         struct
  82:../../libdaisy/src/per/spi.h ****         {
  83:../../libdaisy/src/per/spi.h ****             dsy_gpio_pin sclk; /**< & */
  84:../../libdaisy/src/per/spi.h ****             dsy_gpio_pin miso; /**< & */
  85:../../libdaisy/src/per/spi.h ****             dsy_gpio_pin mosi; /**< & */
  86:../../libdaisy/src/per/spi.h ****             dsy_gpio_pin nss;  /**< & */
  87:../../libdaisy/src/per/spi.h ****         } pin_config;
  88:../../libdaisy/src/per/spi.h **** 
  89:../../libdaisy/src/per/spi.h ****         Peripheral    periph;
  90:../../libdaisy/src/per/spi.h ****         Mode          mode;
  91:../../libdaisy/src/per/spi.h ****         Direction     direction;
  92:../../libdaisy/src/per/spi.h ****         unsigned long datasize;
  93:../../libdaisy/src/per/spi.h ****         ClockPolarity clock_polarity;
  94:../../libdaisy/src/per/spi.h ****         ClockPhase    clock_phase;
  95:../../libdaisy/src/per/spi.h ****         NSS           nss;
  96:../../libdaisy/src/per/spi.h ****         BaudPrescaler baud_prescaler;
  97:../../libdaisy/src/per/spi.h ****     };
  98:../../libdaisy/src/per/spi.h **** 
  99:../../libdaisy/src/per/spi.h ****     SpiHandle() : pimpl_(nullptr) {}
 6726              		.loc 26 99 33 view .LVU1568
 6727 0044 49F2AC11 		movw	r1, #37292
 6728              	.LBE1989:
 6729              	.LBE1988:
 6730              	.LBE1987:
 6731              	.LBE1986:
 6732              	.LBE1985:
ARM GAS  /tmp/ccpr9r5K.s 			page 206


  16:../../libdaisy/src/hid/disp/oled_display.h ****     virtual ~OledDisplay() {}
 6733              		.loc 5 16 19 view .LVU1569
 6734 0048 164D     		ldr	r5, .L430+16
 6735              	.LBB1996:
 6736              	.LBB1994:
 6737              	.LBB1992:
 6738              	.LBB1991:
 6739              	.LBB1990:
 6740              		.loc 26 99 33 view .LVU1570
 6741 004a 4350     		str	r3, [r0, r1]
 6742              	.LBE1990:
 6743              	.LBE1991:
 6744              	.LBE1992:
 6745              	.LBE1994:
 6746              	.LBE1996:
 6747              	.LBE2000:
 6748              	.LBE2002:
 6749              	.LBE2005:
 6750              	.LBB2006:
 6751              	.LBB1928:
 6752              	.LBB1922:
 6753              	.LBB1920:
 6754              	.LBB1921:
 6755              		.loc 25 83 33 view .LVU1571
 6756 004c 0362     		str	r3, [r0, #32]
 6757              	.LVL485:
 6758              		.loc 25 83 33 view .LVU1572
 6759              	.LBE1921:
 6760              	.LBE1920:
 6761              	.LBE1922:
 6762              	.LBB1923:
 6763              	.LBI1923:
  40:../../libdaisy/src/hid/usb.h **** 
 6764              		.loc 12 40 5 is_stmt 1 view .LVU1573
  40:../../libdaisy/src/hid/usb.h **** 
 6765              		.loc 12 40 5 is_stmt 0 view .LVU1574
 6766              	.LBE1923:
 6767              	.LBB1924:
 6768              	.LBI1924:
  58:../../libdaisy/src/sys/system.h ****     ~System() {}
 6769              		.loc 11 58 5 is_stmt 1 view .LVU1575
  58:../../libdaisy/src/sys/system.h ****     ~System() {}
 6770              		.loc 11 58 5 is_stmt 0 view .LVU1576
 6771              	.LBE1924:
 6772              	.LBE1928:
 6773              	.LBE2006:
 6774              	.LBB2007:
 6775              	.LBI2007:
  20:../../libdaisy/src/hid/encoder.h ****     ~Encoder() {}
 6776              		.loc 8 20 5 is_stmt 1 view .LVU1577
 6777              	.LBB2008:
 6778              	.LBB2009:
 6779              	.LBI2009:
  40:../../libdaisy/src/hid/switch.h ****     ~Switch() {}
 6780              		.loc 9 40 5 view .LVU1578
  40:../../libdaisy/src/hid/switch.h ****     ~Switch() {}
 6781              		.loc 9 40 5 is_stmt 0 view .LVU1579
ARM GAS  /tmp/ccpr9r5K.s 			page 207


 6782              	.LBE2009:
 6783              	.LBE2008:
 6784              	.LBE2007:
 6785              	.LBE2012:
 6786              	.LBE2014:
 6787              	.LBE2029:
 6788              	.LBE2032:
  39:../../libdaisy/src/daisy_patch.h ****     /** Destructor */
 6789              		.loc 4 39 18 is_stmt 1 view .LVU1580
  39:../../libdaisy/src/daisy_patch.h ****     /** Destructor */
 6790              		.loc 4 39 18 view .LVU1581
 6791              	.LBB2033:
 6792              	.LBB2030:
 6793              	.LBB2015:
 6794              	.LBB2013:
 6795              	.LBB2010:
 6796              	.LBI1929:
  82:../../libdaisy/src/hid/midi.h ****     ~MidiHandler() {}
 6797              		.loc 7 82 5 view .LVU1582
 6798              	.LBB1975:
 6799              	.LBB1970:
 6800              	.LBB1960:
 6801              	.LBI1960:
 6802              		.loc 24 87 5 view .LVU1583
 6803              	.LBB1961:
 6804              	.LBB1962:
 6805              		.loc 24 87 35 is_stmt 0 view .LVU1584
 6806 004e C0F8E830 		str	r3, [r0, #232]
 6807              	.LVL486:
 6808              		.loc 24 87 35 view .LVU1585
 6809              	.LBE1962:
 6810              	.LBE1961:
 6811              	.LBE1960:
 6812              	.LBB1963:
 6813              	.LBI1963:
 6814              		.file 27 "../../libdaisy/src/util/ringbuffer.h"
   1:../../libdaisy/src/util/ringbuffer.h **** #pragma once
   2:../../libdaisy/src/util/ringbuffer.h **** #ifndef DSY_RINGBUFFER_H
   3:../../libdaisy/src/util/ringbuffer.h **** #define DSY_RINGBUFFER_H
   4:../../libdaisy/src/util/ringbuffer.h **** 
   5:../../libdaisy/src/util/ringbuffer.h **** #include <algorithm>
   6:../../libdaisy/src/util/ringbuffer.h **** 
   7:../../libdaisy/src/util/ringbuffer.h **** namespace daisy
   8:../../libdaisy/src/util/ringbuffer.h **** {
   9:../../libdaisy/src/util/ringbuffer.h **** /** @addtogroup utility
  10:../../libdaisy/src/util/ringbuffer.h ****     @{
  11:../../libdaisy/src/util/ringbuffer.h **** */
  12:../../libdaisy/src/util/ringbuffer.h **** 
  13:../../libdaisy/src/util/ringbuffer.h **** /**
  14:../../libdaisy/src/util/ringbuffer.h **** Utility Ring Buffer \n 
  15:../../libdaisy/src/util/ringbuffer.h **** imported from pichenettes/stmlib
  16:../../libdaisy/src/util/ringbuffer.h **** */
  17:../../libdaisy/src/util/ringbuffer.h **** template <typename T, size_t size>
  18:../../libdaisy/src/util/ringbuffer.h **** class RingBuffer
  19:../../libdaisy/src/util/ringbuffer.h **** {
  20:../../libdaisy/src/util/ringbuffer.h ****   public:
  21:../../libdaisy/src/util/ringbuffer.h ****     RingBuffer() {}
ARM GAS  /tmp/ccpr9r5K.s 			page 208


 6815              		.loc 27 21 5 is_stmt 1 view .LVU1586
 6816              		.loc 27 21 5 is_stmt 0 view .LVU1587
 6817              	.LBE1963:
 6818              	.LBB1964:
 6819              	.LBI1932:
  84:../../libdaisy/src/hid/midi.h **** 
  85:../../libdaisy/src/hid/midi.h ****     struct Config
 6820              		.loc 7 85 12 is_stmt 1 view .LVU1588
 6821              	.LBB1947:
 6822              	.LBI1933:
  33:../../libdaisy/src/hid/midi.h ****         {
 6823              		.loc 7 33 9 view .LVU1589
 6824              	.LBB1943:
 6825              	.LBB1939:
  35:../../libdaisy/src/hid/midi.h ****             rx     = {DSY_GPIOB, 7};
 6826              		.loc 7 35 13 view .LVU1590
  35:../../libdaisy/src/hid/midi.h ****             rx     = {DSY_GPIOB, 7};
 6827              		.loc 7 35 20 is_stmt 0 view .LVU1591
 6828 0052 C351     		str	r3, [r0, r7]
  36:../../libdaisy/src/hid/midi.h ****             tx     = {DSY_GPIOB, 6};
 6829              		.loc 7 36 13 is_stmt 1 view .LVU1592
  37:../../libdaisy/src/hid/midi.h ****         }
 6830              		.loc 7 37 13 view .LVU1593
 6831              	.LVL487:
  37:../../libdaisy/src/hid/midi.h ****         }
 6832              		.loc 7 37 13 is_stmt 0 view .LVU1594
 6833              	.LBE1939:
 6834              	.LBE1943:
 6835              	.LBE1947:
 6836              	.LBE1964:
 6837              	.LBB1965:
 6838              	.LBI1950:
  24:../../libdaisy/src/hid/midi.h ****     ~MidiUartTransport() {}
 6839              		.loc 7 24 5 is_stmt 1 view .LVU1595
 6840              	.LBB1957:
 6841              	.LBI1951:
 6842              		.loc 24 87 5 view .LVU1596
 6843              		.loc 24 87 5 is_stmt 0 view .LVU1597
 6844              	.LBE1957:
 6845              	.LBE1965:
 6846              	.LBE1970:
 6847              	.LBE1975:
 6848              	.LBE2010:
 6849              	.LBB2011:
 6850              	.LBI1982:
  16:../../libdaisy/src/hid/disp/oled_display.h ****     virtual ~OledDisplay() {}
 6851              		.loc 5 16 5 is_stmt 1 view .LVU1598
 6852              	.LBB2003:
 6853              	.LBB2001:
 6854              	.LBB1997:
 6855              	.LBI1997:
 218:../../libdaisy/src/hid/disp/display.h ****     virtual ~OneBitGraphicsDisplayImpl() {}
 6856              		.loc 6 218 5 view .LVU1599
 6857              	.LBB1998:
 6858              	.LBI1998:
  22:../../libdaisy/src/hid/disp/display.h ****     virtual ~OneBitGraphicsDisplay() {}
 6859              		.loc 6 22 5 view .LVU1600
ARM GAS  /tmp/ccpr9r5K.s 			page 209


  22:../../libdaisy/src/hid/disp/display.h ****     virtual ~OneBitGraphicsDisplay() {}
 6860              		.loc 6 22 5 is_stmt 0 view .LVU1601
 6861              	.LBE1998:
 6862              	.LBE1997:
  16:../../libdaisy/src/hid/disp/oled_display.h ****     virtual ~OledDisplay() {}
 6863              		.loc 5 16 19 view .LVU1602
 6864 0054 0551     		str	r5, [r0, r4]
 6865              	.LVL488:
 6866              	.LBB1999:
 6867              	.LBI1985:
 132:../../libdaisy/src/dev/oled_ssd130x.h **** {
 6868              		.loc 15 132 7 is_stmt 1 view .LVU1603
 6869              	.LBB1995:
 6870              	.LBI1986:
  60:../../libdaisy/src/dev/oled_ssd130x.h **** {
 6871              		.loc 15 60 7 view .LVU1604
 6872              	.LBB1993:
 6873              	.LBI1987:
 6874              		.loc 26 99 5 view .LVU1605
 6875              		.loc 26 99 5 is_stmt 0 view .LVU1606
 6876              	.LBE1993:
 6877              	.LBE1995:
 6878              	.LBE1999:
 6879              	.LBE2001:
 6880              	.LBE2003:
 6881              	.LBE2011:
 6882              	.LBE2013:
 6883              	.LBE2015:
   8:ex_vco.cpp    **** Oscillator osc;
 6884              		.loc 16 8 12 view .LVU1607
 6885 0056 1449     		ldr	r1, .L430+20
  10:ex_vco.cpp    **** 
 6886              		.loc 16 10 12 view .LVU1608
 6887 0058 144C     		ldr	r4, .L430+24
   8:ex_vco.cpp    **** Oscillator osc;
 6888              		.loc 16 8 12 view .LVU1609
 6889 005a FFF7FEFF 		bl	__aeabi_atexit
 6890              	.LVL489:
 6891              	.LBB2016:
 6892              	.LBI2016:
  15:../../DaisySP/Source/Synthesis/oscillator.h ****     ~Oscillator() {}
 6893              		.loc 1 15 5 is_stmt 1 view .LVU1610
  15:../../DaisySP/Source/Synthesis/oscillator.h ****     ~Oscillator() {}
 6894              		.loc 1 15 5 is_stmt 0 view .LVU1611
 6895              	.LBE2016:
   9:ex_vco.cpp    **** Parameter  freqctrl, wavectrl, ampctrl, finectrl;
 6896              		.loc 16 9 12 view .LVU1612
 6897 005e 0F4A     		ldr	r2, .L430+8
 6898 0060 1349     		ldr	r1, .L430+28
 6899 0062 1448     		ldr	r0, .L430+32
 6900 0064 FFF7FEFF 		bl	__aeabi_atexit
 6901              	.LVL490:
 6902              	.LBB2017:
 6903              	.LBI2017:
  25:../../libdaisy/src/hid/parameter.h ****     /** Destructor */
 6904              		.loc 2 25 5 is_stmt 1 view .LVU1613
 6905              	.LBB2018:
ARM GAS  /tmp/ccpr9r5K.s 			page 210


 6906              	.LBB2019:
 6907              	.LBI2019:
  21:../../libdaisy/src/hid/ctrl.h ****     /** destructor */
 6908              		.loc 3 21 5 view .LVU1614
  21:../../libdaisy/src/hid/ctrl.h ****     /** destructor */
 6909              		.loc 3 21 5 is_stmt 0 view .LVU1615
 6910              	.LBE2019:
 6911              	.LBE2018:
 6912              	.LBE2017:
  10:ex_vco.cpp    **** 
 6913              		.loc 16 10 12 view .LVU1616
 6914 0068 2146     		mov	r1, r4
 6915 006a 0C4A     		ldr	r2, .L430+8
 6916 006c 1248     		ldr	r0, .L430+36
 6917 006e FFF7FEFF 		bl	__aeabi_atexit
 6918              	.LVL491:
 6919              	.LBB2020:
 6920              	.LBI2020:
  25:../../libdaisy/src/hid/parameter.h ****     /** Destructor */
 6921              		.loc 2 25 5 is_stmt 1 view .LVU1617
 6922              	.LBB2021:
 6923              	.LBB2022:
 6924              	.LBI2022:
  21:../../libdaisy/src/hid/ctrl.h ****     /** destructor */
 6925              		.loc 3 21 5 view .LVU1618
  21:../../libdaisy/src/hid/ctrl.h ****     /** destructor */
 6926              		.loc 3 21 5 is_stmt 0 view .LVU1619
 6927              	.LBE2022:
 6928              	.LBE2021:
 6929              	.LBE2020:
  10:ex_vco.cpp    **** 
 6930              		.loc 16 10 22 view .LVU1620
 6931 0072 2146     		mov	r1, r4
 6932 0074 094A     		ldr	r2, .L430+8
 6933 0076 1148     		ldr	r0, .L430+40
 6934 0078 FFF7FEFF 		bl	__aeabi_atexit
 6935              	.LVL492:
 6936              	.LBB2023:
 6937              	.LBI2023:
  25:../../libdaisy/src/hid/parameter.h ****     /** Destructor */
 6938              		.loc 2 25 5 is_stmt 1 view .LVU1621
 6939              	.LBB2024:
 6940              	.LBB2025:
 6941              	.LBI2025:
  21:../../libdaisy/src/hid/ctrl.h ****     /** destructor */
 6942              		.loc 3 21 5 view .LVU1622
  21:../../libdaisy/src/hid/ctrl.h ****     /** destructor */
 6943              		.loc 3 21 5 is_stmt 0 view .LVU1623
 6944              	.LBE2025:
 6945              	.LBE2024:
 6946              	.LBE2023:
  10:ex_vco.cpp    **** 
 6947              		.loc 16 10 32 view .LVU1624
 6948 007c 2146     		mov	r1, r4
 6949 007e 074A     		ldr	r2, .L430+8
 6950 0080 0F48     		ldr	r0, .L430+44
 6951 0082 FFF7FEFF 		bl	__aeabi_atexit
ARM GAS  /tmp/ccpr9r5K.s 			page 211


 6952              	.LVL493:
 6953              	.LBB2026:
 6954              	.LBI2026:
  25:../../libdaisy/src/hid/parameter.h ****     /** Destructor */
 6955              		.loc 2 25 5 is_stmt 1 view .LVU1625
 6956              	.LBB2027:
 6957              	.LBB2028:
 6958              	.LBI2028:
  21:../../libdaisy/src/hid/ctrl.h ****     /** destructor */
 6959              		.loc 3 21 5 view .LVU1626
  21:../../libdaisy/src/hid/ctrl.h ****     /** destructor */
 6960              		.loc 3 21 5 is_stmt 0 view .LVU1627
 6961              	.LBE2028:
 6962              	.LBE2027:
 6963              	.LBE2026:
  10:ex_vco.cpp    **** 
 6964              		.loc 16 10 41 view .LVU1628
 6965 0086 2146     		mov	r1, r4
 6966 0088 044A     		ldr	r2, .L430+8
 6967 008a 0E48     		ldr	r0, .L430+48
 6968              	.LBE2030:
 6969              	.LBE2033:
 6970              		.loc 16 70 1 view .LVU1629
 6971 008c BDE8F840 		pop	{r3, r4, r5, r6, r7, lr}
 6972              		.cfi_restore 14
 6973              		.cfi_restore 7
 6974              		.cfi_restore 6
 6975              		.cfi_restore 5
 6976              		.cfi_restore 4
 6977              		.cfi_restore 3
 6978              		.cfi_def_cfa_offset 0
 6979              	.LBB2034:
 6980              	.LBB2031:
  10:ex_vco.cpp    **** 
 6981              		.loc 16 10 41 view .LVU1630
 6982 0090 FFF7FEBF 		b	__aeabi_atexit
 6983              	.LVL494:
 6984              	.L431:
 6985              		.align	2
 6986              	.L430:
 6987 0094 00000000 		.word	.LANCHOR5
 6988 0098 00000000 		.word	patch
 6989 009c 00000000 		.word	__dso_handle
 6990 00a0 80707FF0 		.word	-260083584
 6991 00a4 08000000 		.word	_ZTVN5daisy11OledDisplayINS_13SSD130xDriverILj128ELj64ENS_24SSD130x4WireSpiTransportEEEEE+8
 6992 00a8 00000000 		.word	_ZN5daisy10DaisyPatchD1Ev
 6993 00ac 00000000 		.word	_ZN5daisy9ParameterD1Ev
 6994 00b0 00000000 		.word	_ZN7daisysp10OscillatorD1Ev
 6995 00b4 00000000 		.word	.LANCHOR4
 6996 00b8 00000000 		.word	.LANCHOR0
 6997 00bc 00000000 		.word	.LANCHOR2
 6998 00c0 00000000 		.word	.LANCHOR3
 6999 00c4 00000000 		.word	.LANCHOR1
 7000              	.LBE2031:
 7001              	.LBE2034:
 7002              		.cfi_endproc
 7003              	.LFE4831:
ARM GAS  /tmp/ccpr9r5K.s 			page 212


 7005              		.section	.init_array,"aw",%init_array
 7006              		.align	2
 7007 0000 00000000 		.word	_GLOBAL__sub_I_patch(target1)
 7008              		.weak	_ZTSN5daisy21OneBitGraphicsDisplayE
 7009              		.section	.rodata._ZTSN5daisy21OneBitGraphicsDisplayE,"aG",%progbits,_ZTSN5daisy21OneBitGraphicsDis
 7010              		.align	2
 7013              	_ZTSN5daisy21OneBitGraphicsDisplayE:
 7014 0000 4E356461 		.ascii	"N5daisy21OneBitGraphicsDisplayE\000"
 7014      69737932 
 7014      314F6E65 
 7014      42697447 
 7014      72617068 
 7015              		.weak	_ZTIN5daisy21OneBitGraphicsDisplayE
 7016              		.section	.rodata._ZTIN5daisy21OneBitGraphicsDisplayE,"aG",%progbits,_ZTIN5daisy21OneBitGraphicsDis
 7017              		.align	2
 7020              	_ZTIN5daisy21OneBitGraphicsDisplayE:
 7021 0000 08000000 		.word	_ZTVN10__cxxabiv117__class_type_infoE+8
 7022 0004 00000000 		.word	_ZTSN5daisy21OneBitGraphicsDisplayE
 7023              		.weak	_ZTSN5daisy25OneBitGraphicsDisplayImplINS_11OledDisplayINS_13SSD130xDriverILj128ELj64ENS_24S
 7024              		.section	.rodata._ZTSN5daisy25OneBitGraphicsDisplayImplINS_11OledDisplayINS_13SSD130xDriverILj128E
 7025              		.align	2
 7028              	_ZTSN5daisy25OneBitGraphicsDisplayImplINS_11OledDisplayINS_13SSD130xDriverILj128ELj64ENS_24SSD130x4
 7029 0000 4E356461 		.ascii	"N5daisy25OneBitGraphicsDisplayImplINS_11OledDisplay"
 7029      69737932 
 7029      354F6E65 
 7029      42697447 
 7029      72617068 
 7030 0033 494E535F 		.ascii	"INS_13SSD130xDriverILj128ELj64ENS_24SSD130x4WireSpi"
 7030      31335353 
 7030      44313330 
 7030      78447269 
 7030      76657249 
 7031 0066 5472616E 		.ascii	"TransportEEEEEEE\000"
 7031      73706F72 
 7031      74454545 
 7031      45454545 
 7031      00
 7032              		.weak	_ZTIN5daisy25OneBitGraphicsDisplayImplINS_11OledDisplayINS_13SSD130xDriverILj128ELj64ENS_24S
 7033              		.section	.rodata._ZTIN5daisy25OneBitGraphicsDisplayImplINS_11OledDisplayINS_13SSD130xDriverILj128E
 7034              		.align	2
 7037              	_ZTIN5daisy25OneBitGraphicsDisplayImplINS_11OledDisplayINS_13SSD130xDriverILj128ELj64ENS_24SSD130x4
 7038 0000 08000000 		.word	_ZTVN10__cxxabiv120__si_class_type_infoE+8
 7039 0004 00000000 		.word	_ZTSN5daisy25OneBitGraphicsDisplayImplINS_11OledDisplayINS_13SSD130xDriverILj128ELj64ENS_24S
 7040 0008 00000000 		.word	_ZTIN5daisy21OneBitGraphicsDisplayE
 7041              		.weak	_ZTSN5daisy11OledDisplayINS_13SSD130xDriverILj128ELj64ENS_24SSD130x4WireSpiTransportEEEEE
 7042              		.section	.rodata._ZTSN5daisy11OledDisplayINS_13SSD130xDriverILj128ELj64ENS_24SSD130x4WireSpiTransp
 7043              		.align	2
 7046              	_ZTSN5daisy11OledDisplayINS_13SSD130xDriverILj128ELj64ENS_24SSD130x4WireSpiTransportEEEEE:
 7047 0000 4E356461 		.ascii	"N5daisy11OledDisplayINS_13SSD130xDriverILj128ELj64E"
 7047      69737931 
 7047      314F6C65 
 7047      64446973 
 7047      706C6179 
 7048 0033 4E535F32 		.ascii	"NS_24SSD130x4WireSpiTransportEEEEE\000"
 7048      34535344 
 7048      31333078 
 7048      34576972 
ARM GAS  /tmp/ccpr9r5K.s 			page 213


 7048      65537069 
 7049              		.weak	_ZTIN5daisy11OledDisplayINS_13SSD130xDriverILj128ELj64ENS_24SSD130x4WireSpiTransportEEEEE
 7050              		.section	.rodata._ZTIN5daisy11OledDisplayINS_13SSD130xDriverILj128ELj64ENS_24SSD130x4WireSpiTransp
 7051              		.align	2
 7054              	_ZTIN5daisy11OledDisplayINS_13SSD130xDriverILj128ELj64ENS_24SSD130x4WireSpiTransportEEEEE:
 7055 0000 08000000 		.word	_ZTVN10__cxxabiv120__si_class_type_infoE+8
 7056 0004 00000000 		.word	_ZTSN5daisy11OledDisplayINS_13SSD130xDriverILj128ELj64ENS_24SSD130x4WireSpiTransportEEEEE
 7057 0008 00000000 		.word	_ZTIN5daisy25OneBitGraphicsDisplayImplINS_11OledDisplayINS_13SSD130xDriverILj128ELj64ENS_24S
 7058              		.weak	_ZTVN5daisy11OledDisplayINS_13SSD130xDriverILj128ELj64ENS_24SSD130x4WireSpiTransportEEEEE
 7059              		.section	.rodata._ZTVN5daisy11OledDisplayINS_13SSD130xDriverILj128ELj64ENS_24SSD130x4WireSpiTransp
 7060              		.align	2
 7063              	_ZTVN5daisy11OledDisplayINS_13SSD130xDriverILj128ELj64ENS_24SSD130x4WireSpiTransportEEEEE:
 7064 0000 00000000 		.word	0
 7065 0004 00000000 		.word	_ZTIN5daisy11OledDisplayINS_13SSD130xDriverILj128ELj64ENS_24SSD130x4WireSpiTransportEEEEE
 7066 0008 00000000 		.word	_ZN5daisy11OledDisplayINS_13SSD130xDriverILj128ELj64ENS_24SSD130x4WireSpiTransportEEEED1Ev
 7067 000c 00000000 		.word	_ZN5daisy11OledDisplayINS_13SSD130xDriverILj128ELj64ENS_24SSD130x4WireSpiTransportEEEED0Ev
 7068 0010 00000000 		.word	_ZNK5daisy11OledDisplayINS_13SSD130xDriverILj128ELj64ENS_24SSD130x4WireSpiTransportEEEE6Heig
 7069 0014 00000000 		.word	_ZNK5daisy11OledDisplayINS_13SSD130xDriverILj128ELj64ENS_24SSD130x4WireSpiTransportEEEE5Widt
 7070 0018 00000000 		.word	_ZN5daisy11OledDisplayINS_13SSD130xDriverILj128ELj64ENS_24SSD130x4WireSpiTransportEEEE4FillE
 7071 001c 00000000 		.word	_ZN5daisy11OledDisplayINS_13SSD130xDriverILj128ELj64ENS_24SSD130x4WireSpiTransportEEEE9DrawP
 7072 0020 00000000 		.word	_ZN5daisy25OneBitGraphicsDisplayImplINS_11OledDisplayINS_13SSD130xDriverILj128ELj64ENS_24SSD
 7073 0024 00000000 		.word	_ZN5daisy25OneBitGraphicsDisplayImplINS_11OledDisplayINS_13SSD130xDriverILj128ELj64ENS_24SSD
 7074 0028 00000000 		.word	_ZN5daisy25OneBitGraphicsDisplayImplINS_11OledDisplayINS_13SSD130xDriverILj128ELj64ENS_24SSD
 7075 002c 00000000 		.word	_ZN5daisy25OneBitGraphicsDisplayImplINS_11OledDisplayINS_13SSD130xDriverILj128ELj64ENS_24SSD
 7076 0030 00000000 		.word	_ZN5daisy25OneBitGraphicsDisplayImplINS_11OledDisplayINS_13SSD130xDriverILj128ELj64ENS_24SSD
 7077 0034 00000000 		.word	_ZN5daisy25OneBitGraphicsDisplayImplINS_11OledDisplayINS_13SSD130xDriverILj128ELj64ENS_24SSD
 7078 0038 00000000 		.word	_ZN5daisy11OledDisplayINS_13SSD130xDriverILj128ELj64ENS_24SSD130x4WireSpiTransportEEEE6Updat
 7079              		.global	finectrl
 7080              		.global	ampctrl
 7081              		.global	wavectrl
 7082              		.global	freqctrl
 7083              		.global	osc
 7084              		.global	patch
 7085              		.section	.rodata
 7086              		.align	2
 7087              		.set	.LANCHOR5,. + 0
 7088              	.LC0:
 7089 0000 01       		.byte	1
 7090 0001 07       		.byte	7
 7091 0002 0000     		.space	2
 7092              	.LC1:
 7093 0004 01       		.byte	1
 7094 0005 06       		.byte	6
 7095              		.section	.bss.ampctrl,"aw",%nobits
 7096              		.align	2
 7097              		.set	.LANCHOR3,. + 0
 7100              	ampctrl:
 7101 0000 00000000 		.space	56
 7101      00000000 
 7101      00000000 
 7101      00000000 
 7101      00000000 
 7102              		.section	.bss.finectrl,"aw",%nobits
 7103              		.align	2
 7104              		.set	.LANCHOR1,. + 0
 7107              	finectrl:
 7108 0000 00000000 		.space	56
ARM GAS  /tmp/ccpr9r5K.s 			page 214


 7108      00000000 
 7108      00000000 
 7108      00000000 
 7108      00000000 
 7109              		.section	.bss.freqctrl,"aw",%nobits
 7110              		.align	2
 7111              		.set	.LANCHOR0,. + 0
 7114              	freqctrl:
 7115 0000 00000000 		.space	56
 7115      00000000 
 7115      00000000 
 7115      00000000 
 7115      00000000 
 7116              		.section	.bss.osc,"aw",%nobits
 7117              		.align	2
 7118              		.set	.LANCHOR4,. + 0
 7121              	osc:
 7122 0000 00000000 		.space	40
 7122      00000000 
 7122      00000000 
 7122      00000000 
 7122      00000000 
 7123              		.section	.bss.patch,"aw",%nobits
 7124              		.align	2
 7127              	patch:
 7128 0000 00000000 		.space	38340
 7128      00000000 
 7128      00000000 
 7128      00000000 
 7128      00000000 
 7129              		.section	.bss.wavectrl,"aw",%nobits
 7130              		.align	2
 7131              		.set	.LANCHOR2,. + 0
 7134              	wavectrl:
 7135 0000 00000000 		.space	56
 7135      00000000 
 7135      00000000 
 7135      00000000 
 7135      00000000 
 7136              		.text
 7137              	.Letext0:
 7138              		.file 28 "/usr/lib/gcc/arm-none-eabi/9.2.1/include/stdint.h"
 7139              		.file 29 "../../libdaisy/Drivers/CMSIS/Include/core_cm7.h"
 7140              		.file 30 "../../libdaisy/Drivers/CMSIS/Device/ST/STM32H7xx/Include/system_stm32h7xx.h"
 7141              		.file 31 "/usr/lib/gcc/arm-none-eabi/9.2.1/include/stddef.h"
 7142              		.file 32 "/usr/include/newlib/c++/9.2.1/bits/basic_string.tcc"
 7143              		.file 33 "/usr/include/newlib/c++/9.2.1/bits/std_abs.h"
 7144              		.file 34 "/usr/include/newlib/c++/9.2.1/cstdint"
 7145              		.file 35 "/usr/include/newlib/c++/9.2.1/cstdlib"
 7146              		.file 36 "/usr/include/newlib/c++/9.2.1/type_traits"
 7147              		.file 37 "/usr/include/newlib/c++/9.2.1/arm-none-eabi/thumb/v7e-m+dp/hard/bits/c++config.h"
 7148              		.file 38 "/usr/include/newlib/c++/9.2.1/bits/stl_pair.h"
 7149              		.file 39 "/usr/include/newlib/c++/9.2.1/bits/cpp_type_traits.h"
 7150              		.file 40 "/usr/include/newlib/c++/9.2.1/bits/stl_iterator_base_types.h"
 7151              		.file 41 "/usr/include/newlib/c++/9.2.1/debug/debug.h"
 7152              		.file 42 "/usr/include/newlib/c++/9.2.1/cwchar"
 7153              		.file 43 "/usr/include/newlib/c++/9.2.1/bits/exception_ptr.h"
ARM GAS  /tmp/ccpr9r5K.s 			page 215


 7154              		.file 44 "/usr/include/newlib/c++/9.2.1/new"
 7155              		.file 45 "/usr/include/newlib/c++/9.2.1/clocale"
 7156              		.file 46 "/usr/include/newlib/c++/9.2.1/cstdio"
 7157              		.file 47 "/usr/include/newlib/c++/9.2.1/bits/alloc_traits.h"
 7158              		.file 48 "/usr/include/newlib/c++/9.2.1/initializer_list"
 7159              		.file 49 "/usr/include/newlib/c++/9.2.1/bits/stringfwd.h"
 7160              		.file 50 "/usr/include/newlib/c++/9.2.1/bits/uniform_int_dist.h"
 7161              		.file 51 "/usr/include/newlib/c++/9.2.1/bits/random.h"
 7162              		.file 52 "/usr/include/newlib/c++/9.2.1/cstring"
 7163              		.file 53 "/usr/include/newlib/c++/9.2.1/bits/algorithmfwd.h"
 7164              		.file 54 "/usr/include/newlib/c++/9.2.1/cstdarg"
 7165              		.file 55 "/usr/include/newlib/c++/9.2.1/bits/ptr_traits.h"
 7166              		.file 56 "/usr/include/newlib/c++/9.2.1/bits/stl_iterator_base_funcs.h"
 7167              		.file 57 "/usr/include/newlib/c++/9.2.1/bits/move.h"
 7168              		.file 58 "/usr/include/newlib/c++/9.2.1/bits/predefined_ops.h"
 7169              		.file 59 "/usr/include/newlib/c++/9.2.1/ext/numeric_traits.h"
 7170              		.file 60 "/usr/include/newlib/c++/9.2.1/ext/alloc_traits.h"
 7171              		.file 61 "/usr/include/newlib/c++/9.2.1/bits/stl_iterator.h"
 7172              		.file 62 "/usr/include/newlib/c++/9.2.1/ext/type_traits.h"
 7173              		.file 63 "/usr/include/newlib/sys/_types.h"
 7174              		.file 64 "/usr/include/newlib/sys/reent.h"
 7175              		.file 65 "/usr/include/newlib/sys/lock.h"
 7176              		.file 66 "/usr/include/newlib/math.h"
 7177              		.file 67 "/usr/include/newlib/stdlib.h"
 7178              		.file 68 "/usr/include/newlib/c++/9.2.1/math.h"
 7179              		.file 69 "../../libdaisy/Drivers/STM32H7xx_HAL_Driver/Inc/stm32h7xx_hal_def.h"
 7180              		.file 70 "../../libdaisy/Drivers/STM32H7xx_HAL_Driver/Inc/stm32h7xx_hal_flash.h"
 7181              		.file 71 "../../DaisySP/Source/Control/adenv.h"
 7182              		.file 72 "/usr/lib/gcc/arm-none-eabi/9.2.1/include/stdarg.h"
 7183              		.file 73 "/usr/include/newlib/wchar.h"
 7184              		.file 74 "/usr/include/newlib/locale.h"
 7185              		.file 75 "/usr/include/newlib/ctype.h"
 7186              		.file 76 "/usr/include/newlib/stdio.h"
 7187              		.file 77 "/usr/include/newlib/sys/errno.h"
 7188              		.file 78 "/usr/include/newlib/c++/9.2.1/stdlib.h"
 7189              		.file 79 "/usr/include/newlib/string.h"
 7190              		.file 80 "../../libdaisy/src/daisy_core.h"
 7191              		.file 81 "../../libdaisy/src/per/tim.h"
 7192              		.file 82 "../../libdaisy/src/per/sai.h"
 7193              		.file 83 "../../libdaisy/src/hid/MidiEvent.h"
 7194              		.file 84 "../../libdaisy/src/hid/gatein.h"
 7195              		.file 85 "../../libdaisy/src/hid/logger_impl.h"
 7196              		.file 86 "../../libdaisy/src/util/wav_format.h"
 7197              		.file 87 "../../libdaisy/src/per/qspi.h"
 7198              		.file 88 "../../libdaisy/src/per/gpio.h"
 7199              		.file 89 "../../libdaisy/src/dev/sdram.h"
 7200              		.file 90 "/usr/include/newlib/sys/unistd.h"
 7201              		.file 91 "../../libdaisy/src/util/oled_fonts.h"
 7202              		.file 92 "../../libdaisy/Middlewares/Third_Party/FatFs/src/integer.h"
 7203              		.file 93 "../../libdaisy/Middlewares/Third_Party/FatFs/src/ff.h"
 7204              		.file 94 "../../libdaisy/Middlewares/Third_Party/FatFs/src/diskio.h"
 7205              		.file 95 "../../libdaisy/Middlewares/Third_Party/FatFs/src/ff_gen_drv.h"
 7206              		.file 96 "../../libdaisy/src/util/sd_diskio.h"
 7207              		.file 97 "../../libdaisy/src/sys/fatfs.h"
 7208              		.file 98 "../../libdaisy/src/dev/sr_595.h"
 7209              		.file 99 "<built-in>"
ARM GAS  /tmp/ccpr9r5K.s 			page 216


DEFINED SYMBOLS
                            *ABS*:0000000000000000 ex_vco.cpp
     /tmp/ccpr9r5K.s:17     .text._ZN7daisysp10OscillatorD2Ev:0000000000000000 $t
     /tmp/ccpr9r5K.s:26     .text._ZN7daisysp10OscillatorD2Ev:0000000000000000 _ZN7daisysp10OscillatorD2Ev
     /tmp/ccpr9r5K.s:26     .text._ZN7daisysp10OscillatorD2Ev:0000000000000000 _ZN7daisysp10OscillatorD1Ev
     /tmp/ccpr9r5K.s:43     .text._ZN5daisy9ParameterD2Ev:0000000000000000 $t
     /tmp/ccpr9r5K.s:51     .text._ZN5daisy9ParameterD2Ev:0000000000000000 _ZN5daisy9ParameterD2Ev
     /tmp/ccpr9r5K.s:51     .text._ZN5daisy9ParameterD2Ev:0000000000000000 _ZN5daisy9ParameterD1Ev
     /tmp/ccpr9r5K.s:74     .text._ZN5daisy10DaisyPatchD2Ev:0000000000000000 $t
     /tmp/ccpr9r5K.s:82     .text._ZN5daisy10DaisyPatchD2Ev:0000000000000000 _ZN5daisy10DaisyPatchD2Ev
     /tmp/ccpr9r5K.s:82     .text._ZN5daisy10DaisyPatchD2Ev:0000000000000000 _ZN5daisy10DaisyPatchD1Ev
     /tmp/ccpr9r5K.s:164    .text._ZN5daisy11OledDisplayINS_13SSD130xDriverILj128ELj64ENS_24SSD130x4WireSpiTransportEEEED2Ev:0000000000000000 $t
     /tmp/ccpr9r5K.s:172    .text._ZN5daisy11OledDisplayINS_13SSD130xDriverILj128ELj64ENS_24SSD130x4WireSpiTransportEEEED2Ev:0000000000000000 _ZN5daisy11OledDisplayINS_13SSD130xDriverILj128ELj64ENS_24SSD130x4WireSpiTransportEEEED2Ev
     /tmp/ccpr9r5K.s:172    .text._ZN5daisy11OledDisplayINS_13SSD130xDriverILj128ELj64ENS_24SSD130x4WireSpiTransportEEEED2Ev:0000000000000000 _ZN5daisy11OledDisplayINS_13SSD130xDriverILj128ELj64ENS_24SSD130x4WireSpiTransportEEEED1Ev
     /tmp/ccpr9r5K.s:197    .text._ZNK5daisy11OledDisplayINS_13SSD130xDriverILj128ELj64ENS_24SSD130x4WireSpiTransportEEEE6HeightEv:0000000000000000 $t
     /tmp/ccpr9r5K.s:205    .text._ZNK5daisy11OledDisplayINS_13SSD130xDriverILj128ELj64ENS_24SSD130x4WireSpiTransportEEEE6HeightEv:0000000000000000 _ZNK5daisy11OledDisplayINS_13SSD130xDriverILj128ELj64ENS_24SSD130x4WireSpiTransportEEEE6HeightEv
     /tmp/ccpr9r5K.s:222    .text._ZNK5daisy11OledDisplayINS_13SSD130xDriverILj128ELj64ENS_24SSD130x4WireSpiTransportEEEE5WidthEv:0000000000000000 $t
     /tmp/ccpr9r5K.s:230    .text._ZNK5daisy11OledDisplayINS_13SSD130xDriverILj128ELj64ENS_24SSD130x4WireSpiTransportEEEE5WidthEv:0000000000000000 _ZNK5daisy11OledDisplayINS_13SSD130xDriverILj128ELj64ENS_24SSD130x4WireSpiTransportEEEE5WidthEv
     /tmp/ccpr9r5K.s:247    .text._ZN5daisy11OledDisplayINS_13SSD130xDriverILj128ELj64ENS_24SSD130x4WireSpiTransportEEEE4FillEb:0000000000000000 $t
     /tmp/ccpr9r5K.s:255    .text._ZN5daisy11OledDisplayINS_13SSD130xDriverILj128ELj64ENS_24SSD130x4WireSpiTransportEEEE4FillEb:0000000000000000 _ZN5daisy11OledDisplayINS_13SSD130xDriverILj128ELj64ENS_24SSD130x4WireSpiTransportEEEE4FillEb
     /tmp/ccpr9r5K.s:292    .text._ZL13AudioCallbackPKPKfPPfj:0000000000000000 $t
     /tmp/ccpr9r5K.s:299    .text._ZL13AudioCallbackPKPKfPPfj:0000000000000000 _ZL13AudioCallbackPKPKfPPfj
     /tmp/ccpr9r5K.s:535    .text._ZL13AudioCallbackPKPKfPPfj:00000000000000c4 $d
     /tmp/ccpr9r5K.s:7127   .bss.patch:0000000000000000 patch
     /tmp/ccpr9r5K.s:547    .text._ZN5daisy11OledDisplayINS_13SSD130xDriverILj128ELj64ENS_24SSD130x4WireSpiTransportEEEED0Ev:0000000000000000 $t
     /tmp/ccpr9r5K.s:555    .text._ZN5daisy11OledDisplayINS_13SSD130xDriverILj128ELj64ENS_24SSD130x4WireSpiTransportEEEED0Ev:0000000000000000 _ZN5daisy11OledDisplayINS_13SSD130xDriverILj128ELj64ENS_24SSD130x4WireSpiTransportEEEED0Ev
     /tmp/ccpr9r5K.s:595    .text._ZN5daisy11OledDisplayINS_13SSD130xDriverILj128ELj64ENS_24SSD130x4WireSpiTransportEEEE6UpdateEv:0000000000000000 $t
     /tmp/ccpr9r5K.s:603    .text._ZN5daisy11OledDisplayINS_13SSD130xDriverILj128ELj64ENS_24SSD130x4WireSpiTransportEEEE6UpdateEv:0000000000000000 _ZN5daisy11OledDisplayINS_13SSD130xDriverILj128ELj64ENS_24SSD130x4WireSpiTransportEEEE6UpdateEv
     /tmp/ccpr9r5K.s:763    .text._ZN5daisy25OneBitGraphicsDisplayImplINS_11OledDisplayINS_13SSD130xDriverILj128ELj64ENS_24SSD130x4WireSpiTransportEEEEEE11WriteStringEPKc7FontDefb:0000000000000000 $t
     /tmp/ccpr9r5K.s:771    .text._ZN5daisy25OneBitGraphicsDisplayImplINS_11OledDisplayINS_13SSD130xDriverILj128ELj64ENS_24SSD130x4WireSpiTransportEEEEEE11WriteStringEPKc7FontDefb:0000000000000000 _ZN5daisy25OneBitGraphicsDisplayImplINS_11OledDisplayINS_13SSD130xDriverILj128ELj64ENS_24SSD130x4WireSpiTransportEEEEEE11WriteStringEPKc7FontDefb
     /tmp/ccpr9r5K.s:1230   .text._ZN5daisy25OneBitGraphicsDisplayImplINS_11OledDisplayINS_13SSD130xDriverILj128ELj64ENS_24SSD130x4WireSpiTransportEEEEEE11WriteStringEPKc7FontDefb:00000000000001d8 $d
     /tmp/ccpr9r5K.s:1240   .text._ZN5daisy25OneBitGraphicsDisplayImplINS_11OledDisplayINS_13SSD130xDriverILj128ELj64ENS_24SSD130x4WireSpiTransportEEEEEE9WriteCharEc7FontDefb:0000000000000000 $t
     /tmp/ccpr9r5K.s:1248   .text._ZN5daisy25OneBitGraphicsDisplayImplINS_11OledDisplayINS_13SSD130xDriverILj128ELj64ENS_24SSD130x4WireSpiTransportEEEEEE9WriteCharEc7FontDefb:0000000000000000 _ZN5daisy25OneBitGraphicsDisplayImplINS_11OledDisplayINS_13SSD130xDriverILj128ELj64ENS_24SSD130x4WireSpiTransportEEEEEE9WriteCharEc7FontDefb
     /tmp/ccpr9r5K.s:1682   .text._ZN5daisy25OneBitGraphicsDisplayImplINS_11OledDisplayINS_13SSD130xDriverILj128ELj64ENS_24SSD130x4WireSpiTransportEEEEEE9WriteCharEc7FontDefb:000000000000019c $d
     /tmp/ccpr9r5K.s:1690   .text._ZN5daisy25OneBitGraphicsDisplayImplINS_11OledDisplayINS_13SSD130xDriverILj128ELj64ENS_24SSD130x4WireSpiTransportEEEEEE18WriteStringAlignedEPKcRK7FontDefNS_9RectangleENS_9AlignmentEb:0000000000000000 $t
     /tmp/ccpr9r5K.s:1698   .text._ZN5daisy25OneBitGraphicsDisplayImplINS_11OledDisplayINS_13SSD130xDriverILj128ELj64ENS_24SSD130x4WireSpiTransportEEEEEE18WriteStringAlignedEPKcRK7FontDefNS_9RectangleENS_9AlignmentEb:0000000000000000 _ZN5daisy25OneBitGraphicsDisplayImplINS_11OledDisplayINS_13SSD130xDriverILj128ELj64ENS_24SSD130x4WireSpiTransportEEEEEE18WriteStringAlignedEPKcRK7FontDefNS_9RectangleENS_9AlignmentEb
     /tmp/ccpr9r5K.s:1838   .text._ZN5daisy25OneBitGraphicsDisplayImplINS_11OledDisplayINS_13SSD130xDriverILj128ELj64ENS_24SSD130x4WireSpiTransportEEEEEE18WriteStringAlignedEPKcRK7FontDefNS_9RectangleENS_9AlignmentEb:0000000000000048 $d
     /tmp/ccpr9r5K.s:1847   .text._ZN5daisy25OneBitGraphicsDisplayImplINS_11OledDisplayINS_13SSD130xDriverILj128ELj64ENS_24SSD130x4WireSpiTransportEEEEEE18WriteStringAlignedEPKcRK7FontDefNS_9RectangleENS_9AlignmentEb:000000000000005a $t
     /tmp/ccpr9r5K.s:3175   .text._ZN5daisy25OneBitGraphicsDisplayImplINS_11OledDisplayINS_13SSD130xDriverILj128ELj64ENS_24SSD130x4WireSpiTransportEEEEEE18WriteStringAlignedEPKcRK7FontDefNS_9RectangleENS_9AlignmentEb:0000000000000364 $d
     /tmp/ccpr9r5K.s:3179   .text._ZN5daisy25OneBitGraphicsDisplayImplINS_11OledDisplayINS_13SSD130xDriverILj128ELj64ENS_24SSD130x4WireSpiTransportEEEEEE18WriteStringAlignedEPKcRK7FontDefNS_9RectangleENS_9AlignmentEb:000000000000036c $t
     /tmp/ccpr9r5K.s:3348   .text._ZN5daisy25OneBitGraphicsDisplayImplINS_11OledDisplayINS_13SSD130xDriverILj128ELj64ENS_24SSD130x4WireSpiTransportEEEEEE18WriteStringAlignedEPKcRK7FontDefNS_9RectangleENS_9AlignmentEb:00000000000003ec $d
     /tmp/ccpr9r5K.s:3356   .text._ZN5daisy11OledDisplayINS_13SSD130xDriverILj128ELj64ENS_24SSD130x4WireSpiTransportEEEE9DrawPixelEjjb:0000000000000000 $t
     /tmp/ccpr9r5K.s:3364   .text._ZN5daisy11OledDisplayINS_13SSD130xDriverILj128ELj64ENS_24SSD130x4WireSpiTransportEEEE9DrawPixelEjjb:0000000000000000 _ZN5daisy11OledDisplayINS_13SSD130xDriverILj128ELj64ENS_24SSD130x4WireSpiTransportEEEE9DrawPixelEjjb
     /tmp/ccpr9r5K.s:3468   .text._ZN5daisy25OneBitGraphicsDisplayImplINS_11OledDisplayINS_13SSD130xDriverILj128ELj64ENS_24SSD130x4WireSpiTransportEEEEEE8DrawLineEjjjjb:0000000000000000 $t
     /tmp/ccpr9r5K.s:3476   .text._ZN5daisy25OneBitGraphicsDisplayImplINS_11OledDisplayINS_13SSD130xDriverILj128ELj64ENS_24SSD130x4WireSpiTransportEEEEEE8DrawLineEjjjjb:0000000000000000 _ZN5daisy25OneBitGraphicsDisplayImplINS_11OledDisplayINS_13SSD130xDriverILj128ELj64ENS_24SSD130x4WireSpiTransportEEEEEE8DrawLineEjjjjb
     /tmp/ccpr9r5K.s:3762   .text._ZN5daisy25OneBitGraphicsDisplayImplINS_11OledDisplayINS_13SSD130xDriverILj128ELj64ENS_24SSD130x4WireSpiTransportEEEEEE7DrawArcEjjjiib:0000000000000000 $t
     /tmp/ccpr9r5K.s:3770   .text._ZN5daisy25OneBitGraphicsDisplayImplINS_11OledDisplayINS_13SSD130xDriverILj128ELj64ENS_24SSD130x4WireSpiTransportEEEEEE7DrawArcEjjjiib:0000000000000000 _ZN5daisy25OneBitGraphicsDisplayImplINS_11OledDisplayINS_13SSD130xDriverILj128ELj64ENS_24SSD130x4WireSpiTransportEEEEEE7DrawArcEjjjiib
     /tmp/ccpr9r5K.s:4549   .text._ZN5daisy25OneBitGraphicsDisplayImplINS_11OledDisplayINS_13SSD130xDriverILj128ELj64ENS_24SSD130x4WireSpiTransportEEEEEE7DrawArcEjjjiib:0000000000000388 $d
     /tmp/ccpr9r5K.s:4556   .text._ZN5daisy25OneBitGraphicsDisplayImplINS_11OledDisplayINS_13SSD130xDriverILj128ELj64ENS_24SSD130x4WireSpiTransportEEEEEE7DrawArcEjjjiib:0000000000000398 $t
     /tmp/ccpr9r5K.s:4654   .text._ZN5daisy25OneBitGraphicsDisplayImplINS_11OledDisplayINS_13SSD130xDriverILj128ELj64ENS_24SSD130x4WireSpiTransportEEEEEE8DrawRectEjjjjbb:0000000000000000 $t
     /tmp/ccpr9r5K.s:4662   .text._ZN5daisy25OneBitGraphicsDisplayImplINS_11OledDisplayINS_13SSD130xDriverILj128ELj64ENS_24SSD130x4WireSpiTransportEEEEEE8DrawRectEjjjjbb:0000000000000000 _ZN5daisy25OneBitGraphicsDisplayImplINS_11OledDisplayINS_13SSD130xDriverILj128ELj64ENS_24SSD130x4WireSpiTransportEEEEEE8DrawRectEjjjjbb
     /tmp/ccpr9r5K.s:5800   .text._ZN5daisy13SSD130xDriverILj128ELj64ENS_24SSD130x4WireSpiTransportEE6UpdateEv:0000000000000000 $t
     /tmp/ccpr9r5K.s:5808   .text._ZN5daisy13SSD130xDriverILj128ELj64ENS_24SSD130x4WireSpiTransportEE6UpdateEv:0000000000000000 _ZN5daisy13SSD130xDriverILj128ELj64ENS_24SSD130x4WireSpiTransportEE6UpdateEv
     /tmp/ccpr9r5K.s:5959   .rodata.main.str1.4:0000000000000000 $d
     /tmp/ccpr9r5K.s:5963   .text.startup.main:0000000000000000 $t
     /tmp/ccpr9r5K.s:5971   .text.startup.main:0000000000000000 main
     /tmp/ccpr9r5K.s:6481   .text.startup.main:000000000000014c $d
ARM GAS  /tmp/ccpr9r5K.s 			page 217


     /tmp/ccpr9r5K.s:6500   .text.startup._GLOBAL__sub_I_patch:0000000000000000 $t
     /tmp/ccpr9r5K.s:6507   .text.startup._GLOBAL__sub_I_patch:0000000000000000 _GLOBAL__sub_I_patch
     /tmp/ccpr9r5K.s:6987   .text.startup._GLOBAL__sub_I_patch:0000000000000094 $d
     /tmp/ccpr9r5K.s:7063   .rodata._ZTVN5daisy11OledDisplayINS_13SSD130xDriverILj128ELj64ENS_24SSD130x4WireSpiTransportEEEEE:0000000000000000 _ZTVN5daisy11OledDisplayINS_13SSD130xDriverILj128ELj64ENS_24SSD130x4WireSpiTransportEEEEE
     /tmp/ccpr9r5K.s:7006   .init_array:0000000000000000 $d
     /tmp/ccpr9r5K.s:7013   .rodata._ZTSN5daisy21OneBitGraphicsDisplayE:0000000000000000 _ZTSN5daisy21OneBitGraphicsDisplayE
     /tmp/ccpr9r5K.s:7010   .rodata._ZTSN5daisy21OneBitGraphicsDisplayE:0000000000000000 $d
     /tmp/ccpr9r5K.s:7020   .rodata._ZTIN5daisy21OneBitGraphicsDisplayE:0000000000000000 _ZTIN5daisy21OneBitGraphicsDisplayE
     /tmp/ccpr9r5K.s:7017   .rodata._ZTIN5daisy21OneBitGraphicsDisplayE:0000000000000000 $d
     /tmp/ccpr9r5K.s:7028   .rodata._ZTSN5daisy25OneBitGraphicsDisplayImplINS_11OledDisplayINS_13SSD130xDriverILj128ELj64ENS_24SSD130x4WireSpiTransportEEEEEEE:0000000000000000 _ZTSN5daisy25OneBitGraphicsDisplayImplINS_11OledDisplayINS_13SSD130xDriverILj128ELj64ENS_24SSD130x4WireSpiTransportEEEEEEE
     /tmp/ccpr9r5K.s:7025   .rodata._ZTSN5daisy25OneBitGraphicsDisplayImplINS_11OledDisplayINS_13SSD130xDriverILj128ELj64ENS_24SSD130x4WireSpiTransportEEEEEEE:0000000000000000 $d
     /tmp/ccpr9r5K.s:7037   .rodata._ZTIN5daisy25OneBitGraphicsDisplayImplINS_11OledDisplayINS_13SSD130xDriverILj128ELj64ENS_24SSD130x4WireSpiTransportEEEEEEE:0000000000000000 _ZTIN5daisy25OneBitGraphicsDisplayImplINS_11OledDisplayINS_13SSD130xDriverILj128ELj64ENS_24SSD130x4WireSpiTransportEEEEEEE
     /tmp/ccpr9r5K.s:7034   .rodata._ZTIN5daisy25OneBitGraphicsDisplayImplINS_11OledDisplayINS_13SSD130xDriverILj128ELj64ENS_24SSD130x4WireSpiTransportEEEEEEE:0000000000000000 $d
     /tmp/ccpr9r5K.s:7046   .rodata._ZTSN5daisy11OledDisplayINS_13SSD130xDriverILj128ELj64ENS_24SSD130x4WireSpiTransportEEEEE:0000000000000000 _ZTSN5daisy11OledDisplayINS_13SSD130xDriverILj128ELj64ENS_24SSD130x4WireSpiTransportEEEEE
     /tmp/ccpr9r5K.s:7043   .rodata._ZTSN5daisy11OledDisplayINS_13SSD130xDriverILj128ELj64ENS_24SSD130x4WireSpiTransportEEEEE:0000000000000000 $d
     /tmp/ccpr9r5K.s:7054   .rodata._ZTIN5daisy11OledDisplayINS_13SSD130xDriverILj128ELj64ENS_24SSD130x4WireSpiTransportEEEEE:0000000000000000 _ZTIN5daisy11OledDisplayINS_13SSD130xDriverILj128ELj64ENS_24SSD130x4WireSpiTransportEEEEE
     /tmp/ccpr9r5K.s:7051   .rodata._ZTIN5daisy11OledDisplayINS_13SSD130xDriverILj128ELj64ENS_24SSD130x4WireSpiTransportEEEEE:0000000000000000 $d
     /tmp/ccpr9r5K.s:7060   .rodata._ZTVN5daisy11OledDisplayINS_13SSD130xDriverILj128ELj64ENS_24SSD130x4WireSpiTransportEEEEE:0000000000000000 $d
     /tmp/ccpr9r5K.s:7107   .bss.finectrl:0000000000000000 finectrl
     /tmp/ccpr9r5K.s:7100   .bss.ampctrl:0000000000000000 ampctrl
     /tmp/ccpr9r5K.s:7134   .bss.wavectrl:0000000000000000 wavectrl
     /tmp/ccpr9r5K.s:7114   .bss.freqctrl:0000000000000000 freqctrl
     /tmp/ccpr9r5K.s:7121   .bss.osc:0000000000000000 osc
     /tmp/ccpr9r5K.s:7086   .rodata:0000000000000000 $d
     /tmp/ccpr9r5K.s:7096   .bss.ampctrl:0000000000000000 $d
     /tmp/ccpr9r5K.s:7103   .bss.finectrl:0000000000000000 $d
     /tmp/ccpr9r5K.s:7110   .bss.freqctrl:0000000000000000 $d
     /tmp/ccpr9r5K.s:7117   .bss.osc:0000000000000000 $d
     /tmp/ccpr9r5K.s:7124   .bss.patch:0000000000000000 $d
     /tmp/ccpr9r5K.s:7130   .bss.wavectrl:0000000000000000 $d
                           .group:0000000000000000 _ZN7daisysp10OscillatorD5Ev
                           .group:0000000000000000 _ZN5daisy9ParameterD5Ev
                           .group:0000000000000000 _ZN5daisy10DaisyPatchD5Ev
                           .group:0000000000000000 _ZN5daisy11OledDisplayINS_13SSD130xDriverILj128ELj64ENS_24SSD130x4WireSpiTransportEEEED5Ev

UNDEFINED SYMBOLS
_ZN5daisy10DaisyPatch21ProcessAnalogControlsEv
_ZN5daisy9Parameter7ProcessEv
powf
_ZN7daisysp10Oscillator12CalcPhaseIncEf
_ZN7daisysp10Oscillator7ProcessEv
_ZdlPvj
dsy_gpio_write
_ZN5daisy9SpiHandle16BlockingTransmitEPhjm
cosf
sinf
_ZN5daisy10DaisyPatch4InitEb
_ZN5daisy10DaisyPatch15AudioSampleRateEv
_ZN5daisy9Parameter4InitENS_13AnalogControlEffNS0_5CurveE
_ZN5daisy10DaisyPatch7DelayMsEj
_ZN5daisy10DaisyPatch8StartAdcEv
_ZN5daisy10DaisyPatch10StartAudioEPFvPKPKfPPfjE
_ZN5daisy10DaisyPatch15DisplayControlsEb
Font_7x10
__aeabi_atexit
__dso_handle
_ZTVN10__cxxabiv117__class_type_infoE
ARM GAS  /tmp/ccpr9r5K.s 			page 218


_ZTVN10__cxxabiv120__si_class_type_infoE
