ARM GAS  /tmp/ccpr9r5K.s 			page 1


   1              		.cpu cortex-m7
   2              		.eabi_attribute 28, 1
   3              		.eabi_attribute 20, 1
   4              		.eabi_attribute 21, 1
   5              		.eabi_attribute 23, 3
   6              		.eabi_attribute 24, 1
   7              		.eabi_attribute 25, 1
   8              		.eabi_attribute 26, 1
   9              		.eabi_attribute 30, 2
  10              		.eabi_attribute 34, 1
  11              		.eabi_attribute 18, 4
  12              		.file	"ex_vco.cpp"
  13              		.text
  14              	.Ltext0:
  15              		.cfi_sections	.debug_frame
  16              		.section	.text._ZN7daisysp10OscillatorD2Ev,"axG",%progbits,_ZN7daisysp10OscillatorD5Ev,comdat
  17              		.align	1
  18              		.p2align 2,,3
  19              		.weak	_ZN7daisysp10OscillatorD2Ev
  20              		.arch armv7e-m
  21              		.syntax unified
  22              		.thumb
  23              		.thumb_func
  24              		.fpu fpv5-d16
  26              	_ZN7daisysp10OscillatorD2Ev:
  27              	.LVL0:
  28              	.LFB2797:
  29              		.file 1 "../../DaisySP/Source/Synthesis/oscillator.h"
   1:../../DaisySP/Source/Synthesis/oscillator.h **** #pragma once
   2:../../DaisySP/Source/Synthesis/oscillator.h **** #ifndef DSY_OSCILLATOR_H
   3:../../DaisySP/Source/Synthesis/oscillator.h **** #define DSY_OSCILLATOR_H
   4:../../DaisySP/Source/Synthesis/oscillator.h **** #include <stdint.h>
   5:../../DaisySP/Source/Synthesis/oscillator.h **** #include "Utility/dsp.h"
   6:../../DaisySP/Source/Synthesis/oscillator.h **** #ifdef __cplusplus
   7:../../DaisySP/Source/Synthesis/oscillator.h **** 
   8:../../DaisySP/Source/Synthesis/oscillator.h **** namespace daisysp
   9:../../DaisySP/Source/Synthesis/oscillator.h **** {
  10:../../DaisySP/Source/Synthesis/oscillator.h **** /** Synthesis of several waveforms, including polyBLEP bandlimited waveforms.
  11:../../DaisySP/Source/Synthesis/oscillator.h **** */
  12:../../DaisySP/Source/Synthesis/oscillator.h **** class Oscillator
  13:../../DaisySP/Source/Synthesis/oscillator.h **** {
  14:../../DaisySP/Source/Synthesis/oscillator.h ****   public:
  15:../../DaisySP/Source/Synthesis/oscillator.h ****     Oscillator() {}
  16:../../DaisySP/Source/Synthesis/oscillator.h ****     ~Oscillator() {}
  30              		.loc 1 16 5 view -0
  31              		.cfi_startproc
  32              		@ args = 0, pretend = 0, frame = 0
  33              		@ frame_needed = 0, uses_anonymous_args = 0
  34              		@ link register save eliminated.
  35              		.loc 1 16 20 is_stmt 0 view .LVU1
  36 0000 7047     		bx	lr
  37              		.cfi_endproc
  38              	.LFE2797:
  40              		.weak	_ZN7daisysp10OscillatorD1Ev
  41              		.thumb_set _ZN7daisysp10OscillatorD1Ev,_ZN7daisysp10OscillatorD2Ev
  42 0002 00BF     		.section	.text._ZN5daisy9ParameterD2Ev,"axG",%progbits,_ZN5daisy9ParameterD5Ev,comdat
  43              		.align	1
ARM GAS  /tmp/ccpr9r5K.s 			page 2


  44              		.p2align 2,,3
  45              		.weak	_ZN5daisy9ParameterD2Ev
  46              		.syntax unified
  47              		.thumb
  48              		.thumb_func
  49              		.fpu fpv5-d16
  51              	_ZN5daisy9ParameterD2Ev:
  52              	.LVL1:
  53              	.LFB3778:
  54              		.file 2 "../../libdaisy/src/hid/parameter.h"
   1:../../libdaisy/src/hid/parameter.h **** #pragma once
   2:../../libdaisy/src/hid/parameter.h **** #include <stdint.h>
   3:../../libdaisy/src/hid/parameter.h **** #include "hid/ctrl.h"
   4:../../libdaisy/src/hid/parameter.h **** 
   5:../../libdaisy/src/hid/parameter.h **** namespace daisy
   6:../../libdaisy/src/hid/parameter.h **** {
   7:../../libdaisy/src/hid/parameter.h **** /** @addtogroup controls
   8:../../libdaisy/src/hid/parameter.h ****     @{
   9:../../libdaisy/src/hid/parameter.h **** */
  10:../../libdaisy/src/hid/parameter.h **** 
  11:../../libdaisy/src/hid/parameter.h **** /**      Simple parameter mapping tool that takes a 0-1 input from an hid_ctrl. */
  12:../../libdaisy/src/hid/parameter.h **** class Parameter
  13:../../libdaisy/src/hid/parameter.h **** {
  14:../../libdaisy/src/hid/parameter.h ****   public:
  15:../../libdaisy/src/hid/parameter.h ****     /** Curves are applied to the output signal */
  16:../../libdaisy/src/hid/parameter.h ****     enum Curve
  17:../../libdaisy/src/hid/parameter.h ****     {
  18:../../libdaisy/src/hid/parameter.h ****         LINEAR,      /**< Linear curve */
  19:../../libdaisy/src/hid/parameter.h ****         EXPONENTIAL, /**< Exponential curve */
  20:../../libdaisy/src/hid/parameter.h ****         LOGARITHMIC, /**<  Logarithmic curve */
  21:../../libdaisy/src/hid/parameter.h ****         CUBE,        /**< Cubic curve */
  22:../../libdaisy/src/hid/parameter.h ****         LAST,        /**< Final enum element. */
  23:../../libdaisy/src/hid/parameter.h ****     };
  24:../../libdaisy/src/hid/parameter.h ****     /** Constructor */
  25:../../libdaisy/src/hid/parameter.h ****     Parameter() {}
  26:../../libdaisy/src/hid/parameter.h ****     /** Destructor */
  27:../../libdaisy/src/hid/parameter.h ****     ~Parameter() {}
  55              		.loc 2 27 5 is_stmt 1 view -0
  56              		.cfi_startproc
  57              		@ args = 0, pretend = 0, frame = 0
  58              		@ frame_needed = 0, uses_anonymous_args = 0
  59              		@ link register save eliminated.
  60              	.LBB634:
  61              	.LBI634:
  62              		.file 3 "../../libdaisy/src/hid/ctrl.h"
   1:../../libdaisy/src/hid/ctrl.h **** #pragma once
   2:../../libdaisy/src/hid/ctrl.h **** #ifndef DSY_KNOB_H
   3:../../libdaisy/src/hid/ctrl.h **** #define DSY_KNOB_H /**< & */
   4:../../libdaisy/src/hid/ctrl.h **** #include <stdint.h>
   5:../../libdaisy/src/hid/ctrl.h **** 
   6:../../libdaisy/src/hid/ctrl.h **** #ifdef __cplusplus
   7:../../libdaisy/src/hid/ctrl.h **** namespace daisy
   8:../../libdaisy/src/hid/ctrl.h **** {
   9:../../libdaisy/src/hid/ctrl.h **** /**
  10:../../libdaisy/src/hid/ctrl.h ****     @brief Hardware Interface for control inputs \n 
  11:../../libdaisy/src/hid/ctrl.h ****     Primarily designed for ADC input controls such as \n 
  12:../../libdaisy/src/hid/ctrl.h ****     potentiometers, and control voltage. \n 
ARM GAS  /tmp/ccpr9r5K.s 			page 3


  13:../../libdaisy/src/hid/ctrl.h ****     @author Stephen Hensley
  14:../../libdaisy/src/hid/ctrl.h ****     @date November 2019
  15:../../libdaisy/src/hid/ctrl.h ****     @ingroup controls
  16:../../libdaisy/src/hid/ctrl.h **** */
  17:../../libdaisy/src/hid/ctrl.h **** class AnalogControl
  18:../../libdaisy/src/hid/ctrl.h **** {
  19:../../libdaisy/src/hid/ctrl.h ****   public:
  20:../../libdaisy/src/hid/ctrl.h ****     /** Constructor */
  21:../../libdaisy/src/hid/ctrl.h ****     AnalogControl() {}
  22:../../libdaisy/src/hid/ctrl.h ****     /** destructor */
  23:../../libdaisy/src/hid/ctrl.h ****     ~AnalogControl() {}
  63              		.loc 3 23 5 view .LVU3
  64              		.loc 3 23 5 is_stmt 0 view .LVU4
  65              	.LBE634:
  66              		.loc 2 27 19 view .LVU5
  67 0000 7047     		bx	lr
  68              		.cfi_endproc
  69              	.LFE3778:
  71              		.weak	_ZN5daisy9ParameterD1Ev
  72              		.thumb_set _ZN5daisy9ParameterD1Ev,_ZN5daisy9ParameterD2Ev
  73 0002 00BF     		.section	.text._ZN5daisy10DaisyPatchD2Ev,"axG",%progbits,_ZN5daisy10DaisyPatchD5Ev,comdat
  74              		.align	1
  75              		.p2align 2,,3
  76              		.weak	_ZN5daisy10DaisyPatchD2Ev
  77              		.syntax unified
  78              		.thumb
  79              		.thumb_func
  80              		.fpu fpv5-d16
  82              	_ZN5daisy10DaisyPatchD2Ev:
  83              	.LVL2:
  84              	.LFB4230:
  85              		.file 4 "../../libdaisy/src/daisy_patch.h"
   1:../../libdaisy/src/daisy_patch.h **** #pragma once
   2:../../libdaisy/src/daisy_patch.h **** #ifndef DSY_PATCH_BSP_H
   3:../../libdaisy/src/daisy_patch.h **** #define DSY_PATCH_BSP_H
   4:../../libdaisy/src/daisy_patch.h **** #include "daisy_seed.h"
   5:../../libdaisy/src/daisy_patch.h **** #include "dev/oled_ssd130x.h"
   6:../../libdaisy/src/daisy_patch.h **** 
   7:../../libdaisy/src/daisy_patch.h **** namespace daisy
   8:../../libdaisy/src/daisy_patch.h **** {
   9:../../libdaisy/src/daisy_patch.h **** /**
  10:../../libdaisy/src/daisy_patch.h ****     @brief Class that handles initializing all of the hardware specific to the Daisy Patch Board. \
  11:../../libdaisy/src/daisy_patch.h ****     Helper funtions are also in place to provide easy access to built-in controls and peripherals.
  12:../../libdaisy/src/daisy_patch.h ****     @author Stephen Hensley
  13:../../libdaisy/src/daisy_patch.h ****     @date November 2019
  14:../../libdaisy/src/daisy_patch.h ****     @ingroup boards
  15:../../libdaisy/src/daisy_patch.h **** */
  16:../../libdaisy/src/daisy_patch.h **** class DaisyPatch
  17:../../libdaisy/src/daisy_patch.h **** {
  18:../../libdaisy/src/daisy_patch.h ****   public:
  19:../../libdaisy/src/daisy_patch.h ****     /** Enum of Ctrls to represent the four CV/Knob combos on the Patch
  20:../../libdaisy/src/daisy_patch.h ****      */
  21:../../libdaisy/src/daisy_patch.h ****     enum Ctrl
  22:../../libdaisy/src/daisy_patch.h ****     {
  23:../../libdaisy/src/daisy_patch.h ****         CTRL_1,    /**< */
  24:../../libdaisy/src/daisy_patch.h ****         CTRL_2,    /**< */
  25:../../libdaisy/src/daisy_patch.h ****         CTRL_3,    /**< */
ARM GAS  /tmp/ccpr9r5K.s 			page 4


  26:../../libdaisy/src/daisy_patch.h ****         CTRL_4,    /**< */
  27:../../libdaisy/src/daisy_patch.h ****         CTRL_LAST, /**< */
  28:../../libdaisy/src/daisy_patch.h ****     };
  29:../../libdaisy/src/daisy_patch.h **** 
  30:../../libdaisy/src/daisy_patch.h ****     /** Daisy patch gate inputs */
  31:../../libdaisy/src/daisy_patch.h ****     enum GateInput
  32:../../libdaisy/src/daisy_patch.h ****     {
  33:../../libdaisy/src/daisy_patch.h ****         GATE_IN_1,    /**< */
  34:../../libdaisy/src/daisy_patch.h ****         GATE_IN_2,    /** <*/
  35:../../libdaisy/src/daisy_patch.h ****         GATE_IN_LAST, /**< */
  36:../../libdaisy/src/daisy_patch.h ****     };
  37:../../libdaisy/src/daisy_patch.h **** 
  38:../../libdaisy/src/daisy_patch.h ****     /** Constructor */
  39:../../libdaisy/src/daisy_patch.h ****     DaisyPatch() {}
  40:../../libdaisy/src/daisy_patch.h ****     /** Destructor */
  41:../../libdaisy/src/daisy_patch.h ****     ~DaisyPatch() {}
  86              		.loc 4 41 5 is_stmt 1 view -0
  87              		.cfi_startproc
  88              		@ args = 0, pretend = 0, frame = 0
  89              		@ frame_needed = 0, uses_anonymous_args = 0
  90              		@ link register save eliminated.
  91              	.LBB635:
  92              	.LBI635:
  93              		.file 5 "../../libdaisy/src/hid/disp/oled_display.h"
   1:../../libdaisy/src/hid/disp/oled_display.h **** #pragma once
   2:../../libdaisy/src/hid/disp/oled_display.h **** #ifndef DSY_OLED_DISPLAY_H
   3:../../libdaisy/src/hid/disp/oled_display.h **** #define DSY_OLED_DISPLAY_H /**< Macro */
   4:../../libdaisy/src/hid/disp/oled_display.h **** 
   5:../../libdaisy/src/hid/disp/oled_display.h **** #include "display.h"
   6:../../libdaisy/src/hid/disp/oled_display.h **** 
   7:../../libdaisy/src/hid/disp/oled_display.h **** namespace daisy
   8:../../libdaisy/src/hid/disp/oled_display.h **** {
   9:../../libdaisy/src/hid/disp/oled_display.h **** /** 
  10:../../libdaisy/src/hid/disp/oled_display.h ****  * This class is for drawing to a monochrome OLED display. 
  11:../../libdaisy/src/hid/disp/oled_display.h **** */
  12:../../libdaisy/src/hid/disp/oled_display.h **** template <typename DisplayDriver>
  13:../../libdaisy/src/hid/disp/oled_display.h **** class OledDisplay : public OneBitGraphicsDisplayImpl<OledDisplay<DisplayDriver>>
  14:../../libdaisy/src/hid/disp/oled_display.h **** {
  15:../../libdaisy/src/hid/disp/oled_display.h ****   public:
  16:../../libdaisy/src/hid/disp/oled_display.h ****     OledDisplay() {}
  17:../../libdaisy/src/hid/disp/oled_display.h ****     virtual ~OledDisplay() {}
  94              		.loc 5 17 13 view .LVU7
  95              	.LBB636:
  96              	.LBI636:
  97              		.file 6 "../../libdaisy/src/hid/disp/display.h"
   1:../../libdaisy/src/hid/disp/display.h **** #pragma once
   2:../../libdaisy/src/hid/disp/display.h **** #ifndef DSY_DISPLAY_H
   3:../../libdaisy/src/hid/disp/display.h **** #define DSY_DISPLAY_H /**< Macro */
   4:../../libdaisy/src/hid/disp/display.h **** #include <cmath>
   5:../../libdaisy/src/hid/disp/display.h **** #include "util/oled_fonts.h"
   6:../../libdaisy/src/hid/disp/display.h **** #include "daisy_core.h"
   7:../../libdaisy/src/hid/disp/display.h **** #include "graphics_common.h"
   8:../../libdaisy/src/hid/disp/display.h **** 
   9:../../libdaisy/src/hid/disp/display.h **** #ifndef deg2rad
  10:../../libdaisy/src/hid/disp/display.h **** #define deg2rad(deg) ((deg)*3.141592 / 180.0)
  11:../../libdaisy/src/hid/disp/display.h **** #endif
  12:../../libdaisy/src/hid/disp/display.h **** 
ARM GAS  /tmp/ccpr9r5K.s 			page 5


  13:../../libdaisy/src/hid/disp/display.h **** namespace daisy
  14:../../libdaisy/src/hid/disp/display.h **** {
  15:../../libdaisy/src/hid/disp/display.h **** /** 
  16:../../libdaisy/src/hid/disp/display.h ****  * This interface is used as a base class for all types of 1bit-per-pixel
  17:../../libdaisy/src/hid/disp/display.h ****  * graphics displays.
  18:../../libdaisy/src/hid/disp/display.h **** */
  19:../../libdaisy/src/hid/disp/display.h **** class OneBitGraphicsDisplay
  20:../../libdaisy/src/hid/disp/display.h **** {
  21:../../libdaisy/src/hid/disp/display.h ****   public:
  22:../../libdaisy/src/hid/disp/display.h ****     OneBitGraphicsDisplay() {}
  23:../../libdaisy/src/hid/disp/display.h ****     virtual ~OneBitGraphicsDisplay() {}
  24:../../libdaisy/src/hid/disp/display.h **** 
  25:../../libdaisy/src/hid/disp/display.h ****     virtual uint16_t Height() const = 0;
  26:../../libdaisy/src/hid/disp/display.h ****     virtual uint16_t Width() const  = 0;
  27:../../libdaisy/src/hid/disp/display.h **** 
  28:../../libdaisy/src/hid/disp/display.h ****     Rectangle GetBounds() const
  29:../../libdaisy/src/hid/disp/display.h ****     {
  30:../../libdaisy/src/hid/disp/display.h ****         return Rectangle(int16_t(Width()), int16_t(Height()));
  31:../../libdaisy/src/hid/disp/display.h ****     }
  32:../../libdaisy/src/hid/disp/display.h **** 
  33:../../libdaisy/src/hid/disp/display.h **** 
  34:../../libdaisy/src/hid/disp/display.h ****     size_t CurrentX() { return currentX_; };
  35:../../libdaisy/src/hid/disp/display.h ****     size_t CurrentY() { return currentY_; };
  36:../../libdaisy/src/hid/disp/display.h **** 
  37:../../libdaisy/src/hid/disp/display.h ****     /** 
  38:../../libdaisy/src/hid/disp/display.h ****     Fills the entire display with either on/off.
  39:../../libdaisy/src/hid/disp/display.h ****     \param on Sets on or off.
  40:../../libdaisy/src/hid/disp/display.h ****     */
  41:../../libdaisy/src/hid/disp/display.h ****     virtual void Fill(bool on) = 0;
  42:../../libdaisy/src/hid/disp/display.h **** 
  43:../../libdaisy/src/hid/disp/display.h ****     /**
  44:../../libdaisy/src/hid/disp/display.h ****     Sets the pixel at the specified coordinate to be on/off.
  45:../../libdaisy/src/hid/disp/display.h ****     \param x   x Coordinate
  46:../../libdaisy/src/hid/disp/display.h ****     \param y   y coordinate
  47:../../libdaisy/src/hid/disp/display.h ****     \param on  on or off
  48:../../libdaisy/src/hid/disp/display.h ****     */
  49:../../libdaisy/src/hid/disp/display.h ****     virtual void DrawPixel(uint_fast8_t x, uint_fast8_t y, bool on) = 0;
  50:../../libdaisy/src/hid/disp/display.h **** 
  51:../../libdaisy/src/hid/disp/display.h ****     /**
  52:../../libdaisy/src/hid/disp/display.h ****     Draws a line from (x1, y1) to (y1, y2)
  53:../../libdaisy/src/hid/disp/display.h ****     \param x1  x Coordinate of the starting point
  54:../../libdaisy/src/hid/disp/display.h ****     \param y1  y Coordinate of the starting point
  55:../../libdaisy/src/hid/disp/display.h ****     \param x2  x Coordinate of the ending point
  56:../../libdaisy/src/hid/disp/display.h ****     \param y2  y Coordinate of the ending point
  57:../../libdaisy/src/hid/disp/display.h ****     \param on  on or off
  58:../../libdaisy/src/hid/disp/display.h ****     */
  59:../../libdaisy/src/hid/disp/display.h ****     virtual void DrawLine(uint_fast8_t x1,
  60:../../libdaisy/src/hid/disp/display.h ****                           uint_fast8_t y1,
  61:../../libdaisy/src/hid/disp/display.h ****                           uint_fast8_t x2,
  62:../../libdaisy/src/hid/disp/display.h ****                           uint_fast8_t y2,
  63:../../libdaisy/src/hid/disp/display.h ****                           bool         on)
  64:../../libdaisy/src/hid/disp/display.h ****         = 0;
  65:../../libdaisy/src/hid/disp/display.h **** 
  66:../../libdaisy/src/hid/disp/display.h ****     /**
  67:../../libdaisy/src/hid/disp/display.h ****     Draws a rectangle based on two coordinates.
  68:../../libdaisy/src/hid/disp/display.h ****     \param x1 x Coordinate of the first point
  69:../../libdaisy/src/hid/disp/display.h ****     \param y1 y Coordinate of the first point
ARM GAS  /tmp/ccpr9r5K.s 			page 6


  70:../../libdaisy/src/hid/disp/display.h ****     \param x2 x Coordinate of the second point
  71:../../libdaisy/src/hid/disp/display.h ****     \param y2 y Coordinate of the second point
  72:../../libdaisy/src/hid/disp/display.h ****     \param on on or off
  73:../../libdaisy/src/hid/disp/display.h ****     \param fill fill the rectangle or draw only the outline
  74:../../libdaisy/src/hid/disp/display.h ****     */
  75:../../libdaisy/src/hid/disp/display.h ****     virtual void DrawRect(uint_fast8_t x1,
  76:../../libdaisy/src/hid/disp/display.h ****                           uint_fast8_t y1,
  77:../../libdaisy/src/hid/disp/display.h ****                           uint_fast8_t x2,
  78:../../libdaisy/src/hid/disp/display.h ****                           uint_fast8_t y2,
  79:../../libdaisy/src/hid/disp/display.h ****                           bool         on,
  80:../../libdaisy/src/hid/disp/display.h ****                           bool         fill = false)
  81:../../libdaisy/src/hid/disp/display.h ****         = 0;
  82:../../libdaisy/src/hid/disp/display.h **** 
  83:../../libdaisy/src/hid/disp/display.h ****     /**
  84:../../libdaisy/src/hid/disp/display.h ****     Draws a rectangle.
  85:../../libdaisy/src/hid/disp/display.h ****     \param rect the rectangle
  86:../../libdaisy/src/hid/disp/display.h ****     \param on   on or off
  87:../../libdaisy/src/hid/disp/display.h ****     \param fill fill the rectangle or draw only the outline
  88:../../libdaisy/src/hid/disp/display.h ****     */
  89:../../libdaisy/src/hid/disp/display.h ****     void DrawRect(const Rectangle& rect, bool on, bool fill = false)
  90:../../libdaisy/src/hid/disp/display.h ****     {
  91:../../libdaisy/src/hid/disp/display.h ****         DrawRect(rect.GetX(),
  92:../../libdaisy/src/hid/disp/display.h ****                  rect.GetY(),
  93:../../libdaisy/src/hid/disp/display.h ****                  rect.GetRight(),
  94:../../libdaisy/src/hid/disp/display.h ****                  rect.GetBottom(),
  95:../../libdaisy/src/hid/disp/display.h ****                  on,
  96:../../libdaisy/src/hid/disp/display.h ****                  fill);
  97:../../libdaisy/src/hid/disp/display.h ****     }
  98:../../libdaisy/src/hid/disp/display.h **** 
  99:../../libdaisy/src/hid/disp/display.h ****     /**
 100:../../libdaisy/src/hid/disp/display.h ****     Draws an arc around the specified coordinate
 101:../../libdaisy/src/hid/disp/display.h ****     \param x           x Coordinate of the center of the arc
 102:../../libdaisy/src/hid/disp/display.h ****     \param y           y Coordinate of the center of the arc
 103:../../libdaisy/src/hid/disp/display.h ****     \param radius      radius of the arc
 104:../../libdaisy/src/hid/disp/display.h ****     \param start_angle angle where to start the arc
 105:../../libdaisy/src/hid/disp/display.h ****     \param sweep       total angle of the arc
 106:../../libdaisy/src/hid/disp/display.h ****     \param on  on or off
 107:../../libdaisy/src/hid/disp/display.h ****     */
 108:../../libdaisy/src/hid/disp/display.h ****     virtual void DrawArc(uint_fast8_t x,
 109:../../libdaisy/src/hid/disp/display.h ****                          uint_fast8_t y,
 110:../../libdaisy/src/hid/disp/display.h ****                          uint_fast8_t radius,
 111:../../libdaisy/src/hid/disp/display.h ****                          int_fast16_t start_angle,
 112:../../libdaisy/src/hid/disp/display.h ****                          int_fast16_t sweep,
 113:../../libdaisy/src/hid/disp/display.h ****                          bool         on)
 114:../../libdaisy/src/hid/disp/display.h ****         = 0;
 115:../../libdaisy/src/hid/disp/display.h **** 
 116:../../libdaisy/src/hid/disp/display.h ****     /**
 117:../../libdaisy/src/hid/disp/display.h ****     Draws a circle around the specified coordinate
 118:../../libdaisy/src/hid/disp/display.h ****     \param x           x Coordinate of the center of the circle
 119:../../libdaisy/src/hid/disp/display.h ****     \param y           y Coordinate of the center of the circle
 120:../../libdaisy/src/hid/disp/display.h ****     \param radius      radius of the circle
 121:../../libdaisy/src/hid/disp/display.h ****     \param on  on or off
 122:../../libdaisy/src/hid/disp/display.h ****     */
 123:../../libdaisy/src/hid/disp/display.h ****     void
 124:../../libdaisy/src/hid/disp/display.h ****     DrawCircle(uint_fast8_t x, uint_fast8_t y, uint_fast8_t radius, bool on)
 125:../../libdaisy/src/hid/disp/display.h ****     {
 126:../../libdaisy/src/hid/disp/display.h ****         DrawArc(x, y, radius, 0, 360, on);
ARM GAS  /tmp/ccpr9r5K.s 			page 7


 127:../../libdaisy/src/hid/disp/display.h ****     };
 128:../../libdaisy/src/hid/disp/display.h **** 
 129:../../libdaisy/src/hid/disp/display.h ****     /** 
 130:../../libdaisy/src/hid/disp/display.h ****     Writes the character with the specific FontDef
 131:../../libdaisy/src/hid/disp/display.h ****     to the display buffer at the current Cursor position.
 132:../../libdaisy/src/hid/disp/display.h ****     \param ch character to be written
 133:../../libdaisy/src/hid/disp/display.h ****     \param font font to be written in
 134:../../libdaisy/src/hid/disp/display.h ****     \param on    on or off
 135:../../libdaisy/src/hid/disp/display.h ****     \return &
 136:../../libdaisy/src/hid/disp/display.h ****     */
 137:../../libdaisy/src/hid/disp/display.h ****     virtual char WriteChar(char ch, FontDef font, bool on) = 0;
 138:../../libdaisy/src/hid/disp/display.h **** 
 139:../../libdaisy/src/hid/disp/display.h ****     /** 
 140:../../libdaisy/src/hid/disp/display.h ****     Similar to WriteChar, except it will handle an entire String.
 141:../../libdaisy/src/hid/disp/display.h ****     Wrapping does not happen automatically, so the width
 142:../../libdaisy/src/hid/disp/display.h ****     of the string must be kept within the dimensions of the screen.
 143:../../libdaisy/src/hid/disp/display.h ****     \param str string to be written
 144:../../libdaisy/src/hid/disp/display.h ****     \param font font to use
 145:../../libdaisy/src/hid/disp/display.h ****     \param on  on or off
 146:../../libdaisy/src/hid/disp/display.h ****     \return &
 147:../../libdaisy/src/hid/disp/display.h ****     */
 148:../../libdaisy/src/hid/disp/display.h ****     virtual char WriteString(const char* str, FontDef font, bool on) = 0;
 149:../../libdaisy/src/hid/disp/display.h **** 
 150:../../libdaisy/src/hid/disp/display.h ****     /** 
 151:../../libdaisy/src/hid/disp/display.h ****     Similar to WriteString but justified within a bounding box.
 152:../../libdaisy/src/hid/disp/display.h ****     \param str          string to be written
 153:../../libdaisy/src/hid/disp/display.h ****     \param font         font to use
 154:../../libdaisy/src/hid/disp/display.h ****     \param boundingBox  the bounding box to draw the text in
 155:../../libdaisy/src/hid/disp/display.h ****     \param alignment    the alignment to use
 156:../../libdaisy/src/hid/disp/display.h ****     \param on           on or off
 157:../../libdaisy/src/hid/disp/display.h ****     \return The rectangle that was drawn to
 158:../../libdaisy/src/hid/disp/display.h ****     */
 159:../../libdaisy/src/hid/disp/display.h ****     virtual Rectangle WriteStringAligned(const char*    str,
 160:../../libdaisy/src/hid/disp/display.h ****                                          const FontDef& font,
 161:../../libdaisy/src/hid/disp/display.h ****                                          Rectangle      boundingBox,
 162:../../libdaisy/src/hid/disp/display.h ****                                          Alignment      alignment,
 163:../../libdaisy/src/hid/disp/display.h ****                                          bool           on)
 164:../../libdaisy/src/hid/disp/display.h ****         = 0;
 165:../../libdaisy/src/hid/disp/display.h **** 
 166:../../libdaisy/src/hid/disp/display.h ****     /** 
 167:../../libdaisy/src/hid/disp/display.h ****     Moves the 'Cursor' position used for WriteChar, and WriteStr to the specified coordinate.
 168:../../libdaisy/src/hid/disp/display.h ****     \param x x pos
 169:../../libdaisy/src/hid/disp/display.h ****     \param y y pos
 170:../../libdaisy/src/hid/disp/display.h ****     */
 171:../../libdaisy/src/hid/disp/display.h ****     void SetCursor(uint16_t x, uint16_t y)
 172:../../libdaisy/src/hid/disp/display.h ****     {
 173:../../libdaisy/src/hid/disp/display.h ****         currentX_ = (x >= Width()) ? Width() - 1 : x;
 174:../../libdaisy/src/hid/disp/display.h ****         currentY_ = (y >= Height()) ? Height() - 1 : y;
 175:../../libdaisy/src/hid/disp/display.h ****     }
 176:../../libdaisy/src/hid/disp/display.h **** 
 177:../../libdaisy/src/hid/disp/display.h ****     /** 
 178:../../libdaisy/src/hid/disp/display.h ****     Writes the current display buffer to the OLED device using SPI or I2C depending on 
 179:../../libdaisy/src/hid/disp/display.h ****     how the object was initialized.
 180:../../libdaisy/src/hid/disp/display.h ****     */
 181:../../libdaisy/src/hid/disp/display.h ****     virtual void Update() = 0;
 182:../../libdaisy/src/hid/disp/display.h **** 
 183:../../libdaisy/src/hid/disp/display.h ****   protected:
ARM GAS  /tmp/ccpr9r5K.s 			page 8


 184:../../libdaisy/src/hid/disp/display.h ****     uint16_t currentX_;
 185:../../libdaisy/src/hid/disp/display.h ****     uint16_t currentY_;
 186:../../libdaisy/src/hid/disp/display.h **** };
 187:../../libdaisy/src/hid/disp/display.h **** 
 188:../../libdaisy/src/hid/disp/display.h **** /** This class is intended as a intermediary class for your actual implementation of the OneBitGrap
 189:../../libdaisy/src/hid/disp/display.h ****  *  interface. It uses the CRTP design pattern where the template argument is the child class. It p
 190:../../libdaisy/src/hid/disp/display.h ****  *  implementations for most of the functions, except DrawPixel(), Update() and Fill(), which you'l
 191:../../libdaisy/src/hid/disp/display.h ****  *  to provide in your child class.
 192:../../libdaisy/src/hid/disp/display.h ****  *  The main goal of this class is to provide common drawing functions without relying on massive a
 193:../../libdaisy/src/hid/disp/display.h ****  *  virtual function calls that would result in a performance loss. To achieve this, any drawing fu
 194:../../libdaisy/src/hid/disp/display.h ****  *  is implemented here and internally calls other drawing functions (e.g. DrawRect() which interna
 195:../../libdaisy/src/hid/disp/display.h ****  *  DrawPixel() and DrawLine()) makes these calls via the qualified name of these functions to expl
 196:../../libdaisy/src/hid/disp/display.h ****  *  suppress the virtual dispatch mechanism like this:
 197:../../libdaisy/src/hid/disp/display.h ****  * 
 198:../../libdaisy/src/hid/disp/display.h ****  *      ChildType::DrawPixel(...); // no virtual function call; direct call into the child class fu
 199:../../libdaisy/src/hid/disp/display.h ****  *  
 200:../../libdaisy/src/hid/disp/display.h ****  *  To create a custom OneBitGraphicsDisplay implementation, you can 
 201:../../libdaisy/src/hid/disp/display.h ****  *  A) inherit from OneBitGraphicsDisplay directly and provide all the drawing functions yourself
 202:../../libdaisy/src/hid/disp/display.h ****  *  B) Inherit from OneBitGraphicsDisplayImpl and only provide DrawPixel(), Fill() and Update()
 203:../../libdaisy/src/hid/disp/display.h ****  *     like this:
 204:../../libdaisy/src/hid/disp/display.h ****  *  
 205:../../libdaisy/src/hid/disp/display.h ****  *      class MyDisplayClass : public OneBitGraphicsDisplayImpl<MyDisplayClass> 
 206:../../libdaisy/src/hid/disp/display.h ****  *      {
 207:../../libdaisy/src/hid/disp/display.h ****  *      public:
 208:../../libdaisy/src/hid/disp/display.h ****  *          void Fill() override { ... };
 209:../../libdaisy/src/hid/disp/display.h ****  *          void DrawPixel(uint_fast8_t x, uint_fast8_t y, bool on) override { ... };
 210:../../libdaisy/src/hid/disp/display.h ****  *          void Update() override { ... }
 211:../../libdaisy/src/hid/disp/display.h ****  *      };
 212:../../libdaisy/src/hid/disp/display.h ****  *  
 213:../../libdaisy/src/hid/disp/display.h ****  */
 214:../../libdaisy/src/hid/disp/display.h **** template <class ChildType>
 215:../../libdaisy/src/hid/disp/display.h **** class OneBitGraphicsDisplayImpl : public OneBitGraphicsDisplay
 216:../../libdaisy/src/hid/disp/display.h **** {
 217:../../libdaisy/src/hid/disp/display.h ****   public:
 218:../../libdaisy/src/hid/disp/display.h ****     OneBitGraphicsDisplayImpl() {}
 219:../../libdaisy/src/hid/disp/display.h ****     virtual ~OneBitGraphicsDisplayImpl() {}
  98              		.loc 6 219 13 view .LVU8
  99              	.LBB637:
 100              	.LBI637:
  23:../../libdaisy/src/hid/disp/display.h **** 
 101              		.loc 6 23 13 view .LVU9
  23:../../libdaisy/src/hid/disp/display.h **** 
 102              		.loc 6 23 13 is_stmt 0 view .LVU10
 103              	.LBE637:
 104              	.LBE636:
 105              	.LBE635:
 106              	.LBB638:
 107              	.LBI638:
 108              		.file 7 "../../libdaisy/src/hid/midi.h"
   1:../../libdaisy/src/hid/midi.h **** #pragma once
   2:../../libdaisy/src/hid/midi.h **** #ifndef DSY_MIDI_H
   3:../../libdaisy/src/hid/midi.h **** #define DSY_MIDI_H
   4:../../libdaisy/src/hid/midi.h **** 
   5:../../libdaisy/src/hid/midi.h **** // TODO: make this adjustable
   6:../../libdaisy/src/hid/midi.h **** #define SYSEX_BUFFER_LEN 128
   7:../../libdaisy/src/hid/midi.h **** 
   8:../../libdaisy/src/hid/midi.h **** #include <stdint.h>
ARM GAS  /tmp/ccpr9r5K.s 			page 9


   9:../../libdaisy/src/hid/midi.h **** #include <stdlib.h>
  10:../../libdaisy/src/hid/midi.h **** #include "per/uart.h"
  11:../../libdaisy/src/hid/midi.h **** #include "util/ringbuffer.h"
  12:../../libdaisy/src/hid/midi.h **** #include "hid/MidiEvent.h"
  13:../../libdaisy/src/hid/midi.h **** #include "sys/system.h"
  14:../../libdaisy/src/hid/midi.h **** 
  15:../../libdaisy/src/hid/midi.h **** namespace daisy
  16:../../libdaisy/src/hid/midi.h **** {
  17:../../libdaisy/src/hid/midi.h **** /** @addtogroup external 
  18:../../libdaisy/src/hid/midi.h ****     @{ 
  19:../../libdaisy/src/hid/midi.h **** */
  20:../../libdaisy/src/hid/midi.h **** 
  21:../../libdaisy/src/hid/midi.h **** class MidiUartTransport
  22:../../libdaisy/src/hid/midi.h **** {
  23:../../libdaisy/src/hid/midi.h ****   public:
  24:../../libdaisy/src/hid/midi.h ****     MidiUartTransport() {}
  25:../../libdaisy/src/hid/midi.h ****     ~MidiUartTransport() {}
  26:../../libdaisy/src/hid/midi.h **** 
  27:../../libdaisy/src/hid/midi.h ****     struct Config
  28:../../libdaisy/src/hid/midi.h ****     {
  29:../../libdaisy/src/hid/midi.h ****         UartHandler::Config::Peripheral periph;
  30:../../libdaisy/src/hid/midi.h ****         dsy_gpio_pin                    rx;
  31:../../libdaisy/src/hid/midi.h ****         dsy_gpio_pin                    tx;
  32:../../libdaisy/src/hid/midi.h **** 
  33:../../libdaisy/src/hid/midi.h ****         Config()
  34:../../libdaisy/src/hid/midi.h ****         {
  35:../../libdaisy/src/hid/midi.h ****             periph = UartHandler::Config::Peripheral::USART_1;
  36:../../libdaisy/src/hid/midi.h ****             rx     = {DSY_GPIOB, 7};
  37:../../libdaisy/src/hid/midi.h ****             tx     = {DSY_GPIOB, 6};
  38:../../libdaisy/src/hid/midi.h ****         }
  39:../../libdaisy/src/hid/midi.h ****     };
  40:../../libdaisy/src/hid/midi.h **** 
  41:../../libdaisy/src/hid/midi.h ****     inline void Init(Config config)
  42:../../libdaisy/src/hid/midi.h ****     {
  43:../../libdaisy/src/hid/midi.h ****         UartHandler::Config uart_config;
  44:../../libdaisy/src/hid/midi.h **** 
  45:../../libdaisy/src/hid/midi.h ****         //defaults
  46:../../libdaisy/src/hid/midi.h ****         uart_config.baudrate   = 31250;
  47:../../libdaisy/src/hid/midi.h ****         uart_config.stopbits   = UartHandler::Config::StopBits::BITS_1;
  48:../../libdaisy/src/hid/midi.h ****         uart_config.parity     = UartHandler::Config::Parity::NONE;
  49:../../libdaisy/src/hid/midi.h ****         uart_config.mode       = UartHandler::Config::Mode::TX_RX;
  50:../../libdaisy/src/hid/midi.h ****         uart_config.wordlength = UartHandler::Config::WordLength::BITS_8;
  51:../../libdaisy/src/hid/midi.h **** 
  52:../../libdaisy/src/hid/midi.h ****         //user settings
  53:../../libdaisy/src/hid/midi.h ****         uart_config.periph        = config.periph;
  54:../../libdaisy/src/hid/midi.h ****         uart_config.pin_config.rx = config.rx;
  55:../../libdaisy/src/hid/midi.h ****         uart_config.pin_config.tx = config.tx;
  56:../../libdaisy/src/hid/midi.h **** 
  57:../../libdaisy/src/hid/midi.h ****         uart_.Init(uart_config);
  58:../../libdaisy/src/hid/midi.h ****     }
  59:../../libdaisy/src/hid/midi.h **** 
  60:../../libdaisy/src/hid/midi.h ****     inline void    StartRx() { uart_.StartRx(); }
  61:../../libdaisy/src/hid/midi.h ****     inline size_t  Readable() { return uart_.Readable(); }
  62:../../libdaisy/src/hid/midi.h ****     inline uint8_t Rx() { return uart_.PopRx(); }
  63:../../libdaisy/src/hid/midi.h ****     inline bool    RxActive() { return uart_.RxActive(); }
  64:../../libdaisy/src/hid/midi.h ****     inline void    FlushRx() { uart_.FlushRx(); }
  65:../../libdaisy/src/hid/midi.h ****     inline void    Tx(uint8_t* buff, size_t size) { uart_.PollTx(buff, size); }
ARM GAS  /tmp/ccpr9r5K.s 			page 10


  66:../../libdaisy/src/hid/midi.h **** 
  67:../../libdaisy/src/hid/midi.h ****   private:
  68:../../libdaisy/src/hid/midi.h ****     UartHandler uart_;
  69:../../libdaisy/src/hid/midi.h **** };
  70:../../libdaisy/src/hid/midi.h **** 
  71:../../libdaisy/src/hid/midi.h **** /** 
  72:../../libdaisy/src/hid/midi.h ****     @brief Simple MIDI Handler \n 
  73:../../libdaisy/src/hid/midi.h ****     Parses bytes from an input into valid MidiEvents. \n 
  74:../../libdaisy/src/hid/midi.h ****     The MidiEvents fill a FIFO queue that the user can pop messages from.
  75:../../libdaisy/src/hid/midi.h ****     @author shensley
  76:../../libdaisy/src/hid/midi.h ****     @date March 2020
  77:../../libdaisy/src/hid/midi.h **** */
  78:../../libdaisy/src/hid/midi.h **** template <typename Transport>
  79:../../libdaisy/src/hid/midi.h **** class MidiHandler
  80:../../libdaisy/src/hid/midi.h **** {
  81:../../libdaisy/src/hid/midi.h ****   public:
  82:../../libdaisy/src/hid/midi.h ****     MidiHandler() {}
  83:../../libdaisy/src/hid/midi.h ****     ~MidiHandler() {}
 109              		.loc 7 83 5 is_stmt 1 view .LVU11
 110              	.LBB639:
 111              	.LBI639:
  25:../../libdaisy/src/hid/midi.h **** 
 112              		.loc 7 25 5 view .LVU12
  25:../../libdaisy/src/hid/midi.h **** 
 113              		.loc 7 25 5 is_stmt 0 view .LVU13
 114              	.LBE639:
 115              	.LBE638:
 116              	.LBB640:
 117              	.LBI640:
 118              		.file 8 "../../libdaisy/src/hid/encoder.h"
   1:../../libdaisy/src/hid/encoder.h **** #pragma once
   2:../../libdaisy/src/hid/encoder.h **** #ifndef DSY_ENCODER_H
   3:../../libdaisy/src/hid/encoder.h **** #define DSY_ENCODER_H
   4:../../libdaisy/src/hid/encoder.h **** #include "daisy_core.h"
   5:../../libdaisy/src/hid/encoder.h **** #include "per/gpio.h"
   6:../../libdaisy/src/hid/encoder.h **** #include "hid/switch.h"
   7:../../libdaisy/src/hid/encoder.h **** 
   8:../../libdaisy/src/hid/encoder.h **** namespace daisy
   9:../../libdaisy/src/hid/encoder.h **** {
  10:../../libdaisy/src/hid/encoder.h **** /** 
  11:../../libdaisy/src/hid/encoder.h ****     @brief Generic Class for handling Quadrature Encoders \n 
  12:../../libdaisy/src/hid/encoder.h ****     Inspired/influenced by Mutable Instruments (pichenettes) Encoder classes
  13:../../libdaisy/src/hid/encoder.h ****     @author Stephen Hensley
  14:../../libdaisy/src/hid/encoder.h ****     @date December 2019
  15:../../libdaisy/src/hid/encoder.h ****     @ingroup controls
  16:../../libdaisy/src/hid/encoder.h **** */
  17:../../libdaisy/src/hid/encoder.h **** class Encoder
  18:../../libdaisy/src/hid/encoder.h **** {
  19:../../libdaisy/src/hid/encoder.h ****   public:
  20:../../libdaisy/src/hid/encoder.h ****     Encoder() {}
  21:../../libdaisy/src/hid/encoder.h ****     ~Encoder() {}
 119              		.loc 8 21 5 is_stmt 1 view .LVU14
 120              	.LBB641:
 121              	.LBI641:
 122              		.file 9 "../../libdaisy/src/hid/switch.h"
   1:../../libdaisy/src/hid/switch.h **** #pragma once
   2:../../libdaisy/src/hid/switch.h **** #ifndef DSY_SWITCH_H
ARM GAS  /tmp/ccpr9r5K.s 			page 11


   3:../../libdaisy/src/hid/switch.h **** #define DSY_SWITCH_H
   4:../../libdaisy/src/hid/switch.h **** #include "daisy_core.h"
   5:../../libdaisy/src/hid/switch.h **** #include "per/gpio.h"
   6:../../libdaisy/src/hid/switch.h **** 
   7:../../libdaisy/src/hid/switch.h **** namespace daisy
   8:../../libdaisy/src/hid/switch.h **** {
   9:../../libdaisy/src/hid/switch.h **** /** 
  10:../../libdaisy/src/hid/switch.h ****     Generic Class for handling momentary/latching switches \n 
  11:../../libdaisy/src/hid/switch.h ****     Inspired/influenced by Mutable Instruments (pichenettes) Switch classes
  12:../../libdaisy/src/hid/switch.h ****     @author Stephen Hensley
  13:../../libdaisy/src/hid/switch.h ****     @date December 2019
  14:../../libdaisy/src/hid/switch.h ****     @ingroup controls
  15:../../libdaisy/src/hid/switch.h **** */
  16:../../libdaisy/src/hid/switch.h **** class Switch
  17:../../libdaisy/src/hid/switch.h **** {
  18:../../libdaisy/src/hid/switch.h ****   public:
  19:../../libdaisy/src/hid/switch.h ****     /** Specifies the expected behavior of the switch */
  20:../../libdaisy/src/hid/switch.h ****     enum Type
  21:../../libdaisy/src/hid/switch.h ****     {
  22:../../libdaisy/src/hid/switch.h ****         TYPE_TOGGLE,    /**< & */
  23:../../libdaisy/src/hid/switch.h ****         TYPE_MOMENTARY, /**< & */
  24:../../libdaisy/src/hid/switch.h ****     };
  25:../../libdaisy/src/hid/switch.h ****     /** Specifies whether the pressed is HIGH or LOW. */
  26:../../libdaisy/src/hid/switch.h ****     enum Polarity
  27:../../libdaisy/src/hid/switch.h ****     {
  28:../../libdaisy/src/hid/switch.h ****         POLARITY_NORMAL,   /**< & */
  29:../../libdaisy/src/hid/switch.h ****         POLARITY_INVERTED, /**< & */
  30:../../libdaisy/src/hid/switch.h ****     };
  31:../../libdaisy/src/hid/switch.h **** 
  32:../../libdaisy/src/hid/switch.h ****     /** Specifies whether to use built-in Pull Up/Down resistors to hold button at a given state wh
  33:../../libdaisy/src/hid/switch.h ****     enum Pull
  34:../../libdaisy/src/hid/switch.h ****     {
  35:../../libdaisy/src/hid/switch.h ****         PULL_UP,   /**< & */
  36:../../libdaisy/src/hid/switch.h ****         PULL_DOWN, /**< & */
  37:../../libdaisy/src/hid/switch.h ****         PULL_NONE, /**< & */
  38:../../libdaisy/src/hid/switch.h ****     };
  39:../../libdaisy/src/hid/switch.h **** 
  40:../../libdaisy/src/hid/switch.h ****     Switch() {}
  41:../../libdaisy/src/hid/switch.h ****     ~Switch() {}
 123              		.loc 9 41 5 view .LVU15
 124              		.loc 9 41 5 is_stmt 0 view .LVU16
 125              	.LBE641:
 126              	.LBE640:
 127              	.LBB642:
 128              	.LBI642:
 129              		.file 10 "../../libdaisy/src/daisy_seed.h"
   1:../../libdaisy/src/daisy_seed.h **** #pragma once
   2:../../libdaisy/src/daisy_seed.h **** #ifndef DSY_SEED_H
   3:../../libdaisy/src/daisy_seed.h **** #define DSY_SEED_H
   4:../../libdaisy/src/daisy_seed.h **** 
   5:../../libdaisy/src/daisy_seed.h **** #include "daisy.h"
   6:../../libdaisy/src/daisy_seed.h **** 
   7:../../libdaisy/src/daisy_seed.h **** //Uncomment this out if you're still using the rev2 hardware
   8:../../libdaisy/src/daisy_seed.h **** //#define SEED_REV2
   9:../../libdaisy/src/daisy_seed.h **** 
  10:../../libdaisy/src/daisy_seed.h **** namespace daisy
  11:../../libdaisy/src/daisy_seed.h **** {
ARM GAS  /tmp/ccpr9r5K.s 			page 12


  12:../../libdaisy/src/daisy_seed.h **** /**
  13:../../libdaisy/src/daisy_seed.h ****    @brief This is the higher-level interface for the Daisy board. \n 
  14:../../libdaisy/src/daisy_seed.h ****     All basic peripheral configuration/initialization is setup here. \n
  15:../../libdaisy/src/daisy_seed.h **** 
  16:../../libdaisy/src/daisy_seed.h ****    @ingroup boards
  17:../../libdaisy/src/daisy_seed.h **** */
  18:../../libdaisy/src/daisy_seed.h **** class DaisySeed
  19:../../libdaisy/src/daisy_seed.h **** {
  20:../../libdaisy/src/daisy_seed.h ****   public:
  21:../../libdaisy/src/daisy_seed.h ****     DaisySeed() {}
  22:../../libdaisy/src/daisy_seed.h ****     ~DaisySeed() {}
 130              		.loc 10 22 5 is_stmt 1 view .LVU17
 131              	.LBB643:
 132              	.LBI643:
 133              		.file 11 "../../libdaisy/src/sys/system.h"
   1:../../libdaisy/src/sys/system.h **** #ifndef DSY_SYSTEM_H
   2:../../libdaisy/src/sys/system.h **** #define DSY_SYSTEM_H
   3:../../libdaisy/src/sys/system.h **** 
   4:../../libdaisy/src/sys/system.h **** #ifndef UNIT_TEST // for unit tests, a dummy implementation is provided below
   5:../../libdaisy/src/sys/system.h **** 
   6:../../libdaisy/src/sys/system.h **** #include <cstdint>
   7:../../libdaisy/src/sys/system.h **** #include "per/tim.h"
   8:../../libdaisy/src/sys/system.h **** 
   9:../../libdaisy/src/sys/system.h **** namespace daisy
  10:../../libdaisy/src/sys/system.h **** {
  11:../../libdaisy/src/sys/system.h **** /** A handle for interacting with the Core System. 
  12:../../libdaisy/src/sys/system.h ****  ** This includes the Clock tree, MPU, global DMA initialization,
  13:../../libdaisy/src/sys/system.h ****  ** cache handling, and any other necessary global initiailzation
  14:../../libdaisy/src/sys/system.h ****  **
  15:../../libdaisy/src/sys/system.h ****  ** @author shensley
  16:../../libdaisy/src/sys/system.h ****  ** @addtogroup system
  17:../../libdaisy/src/sys/system.h ****  */
  18:../../libdaisy/src/sys/system.h **** class System
  19:../../libdaisy/src/sys/system.h **** {
  20:../../libdaisy/src/sys/system.h ****   public:
  21:../../libdaisy/src/sys/system.h ****     /** Contains settings for initializing the System */
  22:../../libdaisy/src/sys/system.h ****     struct Config
  23:../../libdaisy/src/sys/system.h ****     {
  24:../../libdaisy/src/sys/system.h ****         /** Specifies the system clock frequency that feeds APB/AHB clocks, etc. */
  25:../../libdaisy/src/sys/system.h ****         enum class SysClkFreq
  26:../../libdaisy/src/sys/system.h ****         {
  27:../../libdaisy/src/sys/system.h ****             FREQ_400MHZ,
  28:../../libdaisy/src/sys/system.h ****             FREQ_480MHZ,
  29:../../libdaisy/src/sys/system.h ****         };
  30:../../libdaisy/src/sys/system.h **** 
  31:../../libdaisy/src/sys/system.h ****         /** Method to call on the struct to set to defaults
  32:../../libdaisy/src/sys/system.h ****          ** CPU Freq set to 400MHz
  33:../../libdaisy/src/sys/system.h ****          ** Cache Enabled 
  34:../../libdaisy/src/sys/system.h ****          ** */
  35:../../libdaisy/src/sys/system.h ****         void Defaults()
  36:../../libdaisy/src/sys/system.h ****         {
  37:../../libdaisy/src/sys/system.h ****             cpu_freq   = SysClkFreq::FREQ_400MHZ;
  38:../../libdaisy/src/sys/system.h ****             use_dcache = true;
  39:../../libdaisy/src/sys/system.h ****             use_icache = true;
  40:../../libdaisy/src/sys/system.h ****         }
  41:../../libdaisy/src/sys/system.h **** 
  42:../../libdaisy/src/sys/system.h ****         /** Method to call on the struct to set to boost mode:
ARM GAS  /tmp/ccpr9r5K.s 			page 13


  43:../../libdaisy/src/sys/system.h ****          ** CPU Freq set to 480MHz
  44:../../libdaisy/src/sys/system.h ****          ** Cache Enabled 
  45:../../libdaisy/src/sys/system.h ****          ** */
  46:../../libdaisy/src/sys/system.h ****         void Boost()
  47:../../libdaisy/src/sys/system.h ****         {
  48:../../libdaisy/src/sys/system.h ****             cpu_freq   = SysClkFreq::FREQ_480MHZ;
  49:../../libdaisy/src/sys/system.h ****             use_dcache = true;
  50:../../libdaisy/src/sys/system.h ****             use_icache = true;
  51:../../libdaisy/src/sys/system.h ****         }
  52:../../libdaisy/src/sys/system.h **** 
  53:../../libdaisy/src/sys/system.h ****         SysClkFreq cpu_freq;
  54:../../libdaisy/src/sys/system.h ****         bool       use_dcache;
  55:../../libdaisy/src/sys/system.h ****         bool       use_icache;
  56:../../libdaisy/src/sys/system.h ****     };
  57:../../libdaisy/src/sys/system.h **** 
  58:../../libdaisy/src/sys/system.h ****     System() {}
  59:../../libdaisy/src/sys/system.h ****     ~System() {}
 134              		.loc 11 59 5 view .LVU18
 135              		.loc 11 59 5 is_stmt 0 view .LVU19
 136              	.LBE643:
 137              	.LBB644:
 138              	.LBI644:
 139              		.file 12 "../../libdaisy/src/hid/usb.h"
   1:../../libdaisy/src/hid/usb.h **** #pragma once
   2:../../libdaisy/src/hid/usb.h **** #ifndef DSY_HID_USB_H
   3:../../libdaisy/src/hid/usb.h **** #define DSY_HID_USB_H
   4:../../libdaisy/src/hid/usb.h **** #include <stdint.h>
   5:../../libdaisy/src/hid/usb.h **** #include <stdlib.h>
   6:../../libdaisy/src/hid/usb.h **** 
   7:../../libdaisy/src/hid/usb.h **** namespace daisy
   8:../../libdaisy/src/hid/usb.h **** /** @addtogroup externals
   9:../../libdaisy/src/hid/usb.h ****     @{
  10:../../libdaisy/src/hid/usb.h **** */
  11:../../libdaisy/src/hid/usb.h **** 
  12:../../libdaisy/src/hid/usb.h **** {
  13:../../libdaisy/src/hid/usb.h **** /** 
  14:../../libdaisy/src/hid/usb.h ****     @brief Interface for initializing and using the USB Peripherals on the daisy
  15:../../libdaisy/src/hid/usb.h ****     @author Stephen Hensley
  16:../../libdaisy/src/hid/usb.h ****     @date December 2019
  17:../../libdaisy/src/hid/usb.h **** */
  18:../../libdaisy/src/hid/usb.h **** class UsbHandle
  19:../../libdaisy/src/hid/usb.h **** {
  20:../../libdaisy/src/hid/usb.h ****   public:
  21:../../libdaisy/src/hid/usb.h ****     /** Return values for USBHandle Functions */
  22:../../libdaisy/src/hid/usb.h ****     enum class Result
  23:../../libdaisy/src/hid/usb.h ****     {
  24:../../libdaisy/src/hid/usb.h ****         OK,
  25:../../libdaisy/src/hid/usb.h ****         ERR,
  26:../../libdaisy/src/hid/usb.h ****     };
  27:../../libdaisy/src/hid/usb.h **** 
  28:../../libdaisy/src/hid/usb.h ****     /** Specified which of the two USB Peripherals to initialize. */
  29:../../libdaisy/src/hid/usb.h ****     enum UsbPeriph
  30:../../libdaisy/src/hid/usb.h ****     {
  31:../../libdaisy/src/hid/usb.h ****         FS_INTERNAL, /**< Internal pin */
  32:../../libdaisy/src/hid/usb.h ****         FS_EXTERNAL, /**< FS External D+ pin is Pin 38 (GPIO32). FS External D- pin is Pin 37 (GPIO
  33:../../libdaisy/src/hid/usb.h ****         FS_BOTH,     /**< Both */
  34:../../libdaisy/src/hid/usb.h ****     };
ARM GAS  /tmp/ccpr9r5K.s 			page 14


  35:../../libdaisy/src/hid/usb.h **** 
  36:../../libdaisy/src/hid/usb.h **** 
  37:../../libdaisy/src/hid/usb.h ****     /** Function called upon reception of a buffer */
  38:../../libdaisy/src/hid/usb.h ****     typedef void (*ReceiveCallback)(uint8_t* buff, uint32_t* len);
  39:../../libdaisy/src/hid/usb.h **** 
  40:../../libdaisy/src/hid/usb.h ****     UsbHandle() {}
  41:../../libdaisy/src/hid/usb.h **** 
  42:../../libdaisy/src/hid/usb.h ****     ~UsbHandle() {}
 140              		.loc 12 42 5 is_stmt 1 view .LVU20
 141              		.loc 12 42 5 is_stmt 0 view .LVU21
 142              	.LBE644:
 143              	.LBB645:
 144              	.LBI645:
 145              		.file 13 "../../libdaisy/src/per/adc.h"
   1:../../libdaisy/src/per/adc.h **** #pragma once
   2:../../libdaisy/src/per/adc.h **** #ifndef DSY_ADC_H
   3:../../libdaisy/src/per/adc.h **** #define DSY_ADC_H /**< Macro */
   4:../../libdaisy/src/per/adc.h **** #include <stdint.h>
   5:../../libdaisy/src/per/adc.h **** #include <stdlib.h>
   6:../../libdaisy/src/per/adc.h **** #include "daisy_core.h"
   7:../../libdaisy/src/per/adc.h **** #include "per/gpio.h"
   8:../../libdaisy/src/per/adc.h **** 
   9:../../libdaisy/src/per/adc.h **** #define DSY_ADC_MAX_CHANNELS 14 /**< Maximum number of ADC channels */
  10:../../libdaisy/src/per/adc.h **** 
  11:../../libdaisy/src/per/adc.h **** namespace daisy
  12:../../libdaisy/src/per/adc.h **** {
  13:../../libdaisy/src/per/adc.h **** /** @addtogroup analog_digital_conversion
  14:../../libdaisy/src/per/adc.h ****     @{
  15:../../libdaisy/src/per/adc.h **** */
  16:../../libdaisy/src/per/adc.h **** 
  17:../../libdaisy/src/per/adc.h **** /* While there may not be many configuration options here,
  18:../../libdaisy/src/per/adc.h **** using a struct like this allows us to add more configuration
  19:../../libdaisy/src/per/adc.h **** later without breaking existing functionality.
  20:../../libdaisy/src/per/adc.h **** */
  21:../../libdaisy/src/per/adc.h **** 
  22:../../libdaisy/src/per/adc.h **** /** Configuration Structure for a given channel */
  23:../../libdaisy/src/per/adc.h **** struct AdcChannelConfig
  24:../../libdaisy/src/per/adc.h **** {
  25:../../libdaisy/src/per/adc.h ****     /** Which pin to use for multiplexing */
  26:../../libdaisy/src/per/adc.h ****     enum MuxPin
  27:../../libdaisy/src/per/adc.h ****     {
  28:../../libdaisy/src/per/adc.h ****         MUX_SEL_0,    /**< & */
  29:../../libdaisy/src/per/adc.h ****         MUX_SEL_1,    /**< & */
  30:../../libdaisy/src/per/adc.h ****         MUX_SEL_2,    /**< & */
  31:../../libdaisy/src/per/adc.h ****         MUX_SEL_LAST, /**< & */
  32:../../libdaisy/src/per/adc.h ****     };
  33:../../libdaisy/src/per/adc.h **** 
  34:../../libdaisy/src/per/adc.h ****     /** Initializes a single ADC pin as an ADC. 
  35:../../libdaisy/src/per/adc.h ****     \param pin Pin to init.
  36:../../libdaisy/src/per/adc.h ****      */
  37:../../libdaisy/src/per/adc.h ****     void InitSingle(dsy_gpio_pin pin);
  38:../../libdaisy/src/per/adc.h **** 
  39:../../libdaisy/src/per/adc.h ****     /** 
  40:../../libdaisy/src/per/adc.h ****     Initializes a single ADC pin as a Multiplexed ADC.
  41:../../libdaisy/src/per/adc.h ****     Requires a CD405X Multiplexer connected to the pin.
  42:../../libdaisy/src/per/adc.h ****     You only need to supply the mux pins that are required,
  43:../../libdaisy/src/per/adc.h ****     e.g. a 4052 mux would only require mux_0 and mux_1.
ARM GAS  /tmp/ccpr9r5K.s 			page 15


  44:../../libdaisy/src/per/adc.h ****     Internal Callbacks handle the pin addressing.
  45:../../libdaisy/src/per/adc.h ****     \param mux_channels must be 1-8
  46:../../libdaisy/src/per/adc.h ****     \param mux_0 First mux pin
  47:../../libdaisy/src/per/adc.h ****     \param mux_1 Second mux pin
  48:../../libdaisy/src/per/adc.h ****     \param mux_2 Third mux pin
  49:../../libdaisy/src/per/adc.h ****     \param adc_pin &
  50:../../libdaisy/src/per/adc.h ****     */
  51:../../libdaisy/src/per/adc.h ****     void InitMux(dsy_gpio_pin adc_pin,
  52:../../libdaisy/src/per/adc.h ****                  size_t       mux_channels,
  53:../../libdaisy/src/per/adc.h ****                  dsy_gpio_pin mux_0,
  54:../../libdaisy/src/per/adc.h ****                  dsy_gpio_pin mux_1 = {DSY_GPIOX, 0},
  55:../../libdaisy/src/per/adc.h ****                  dsy_gpio_pin mux_2 = {DSY_GPIOX, 0});
  56:../../libdaisy/src/per/adc.h **** 
  57:../../libdaisy/src/per/adc.h ****     dsy_gpio pin_;                   /**< & */
  58:../../libdaisy/src/per/adc.h ****     dsy_gpio mux_pin_[MUX_SEL_LAST]; /**< & */
  59:../../libdaisy/src/per/adc.h ****     uint8_t  mux_channels_;          /**< & */
  60:../../libdaisy/src/per/adc.h **** };
  61:../../libdaisy/src/per/adc.h **** 
  62:../../libdaisy/src/per/adc.h **** /**
  63:../../libdaisy/src/per/adc.h ****    Handler for analog to digital conversion
  64:../../libdaisy/src/per/adc.h **** */
  65:../../libdaisy/src/per/adc.h **** class AdcHandle
  66:../../libdaisy/src/per/adc.h **** {
  67:../../libdaisy/src/per/adc.h ****   public:
  68:../../libdaisy/src/per/adc.h ****     /** Supported oversampling amounts */
  69:../../libdaisy/src/per/adc.h ****     enum OverSampling
  70:../../libdaisy/src/per/adc.h ****     {
  71:../../libdaisy/src/per/adc.h ****         OVS_NONE, /**< & */
  72:../../libdaisy/src/per/adc.h ****         OVS_4,    /**< & */
  73:../../libdaisy/src/per/adc.h ****         OVS_8,    /**< & */
  74:../../libdaisy/src/per/adc.h ****         OVS_16,   /**< & */
  75:../../libdaisy/src/per/adc.h ****         OVS_32,   /**< & */
  76:../../libdaisy/src/per/adc.h ****         OVS_64,   /**< & */
  77:../../libdaisy/src/per/adc.h ****         OVS_128,  /**< & */
  78:../../libdaisy/src/per/adc.h ****         OVS_256,  /**< & */
  79:../../libdaisy/src/per/adc.h ****         OVS_512,  /**< & */
  80:../../libdaisy/src/per/adc.h ****         OVS_1024, /**< & */
  81:../../libdaisy/src/per/adc.h ****         OVS_LAST, /**< & */
  82:../../libdaisy/src/per/adc.h ****     };
  83:../../libdaisy/src/per/adc.h **** 
  84:../../libdaisy/src/per/adc.h ****     AdcHandle() {}
  85:../../libdaisy/src/per/adc.h ****     ~AdcHandle() {}
 146              		.loc 13 85 5 is_stmt 1 view .LVU22
 147              		.loc 13 85 5 is_stmt 0 view .LVU23
 148              	.LBE645:
 149              	.LBB646:
 150              	.LBI646:
 151              		.file 14 "../../libdaisy/src/hid/audio.h"
   1:../../libdaisy/src/hid/audio.h **** #ifndef DSY_AUDIO_H
   2:../../libdaisy/src/hid/audio.h **** #define DSY_AUDIO_H /**< & */
   3:../../libdaisy/src/hid/audio.h **** 
   4:../../libdaisy/src/hid/audio.h **** #include "per/sai.h"
   5:../../libdaisy/src/hid/audio.h **** 
   6:../../libdaisy/src/hid/audio.h **** namespace daisy
   7:../../libdaisy/src/hid/audio.h **** {
   8:../../libdaisy/src/hid/audio.h **** class AudioHandle
   9:../../libdaisy/src/hid/audio.h **** {
ARM GAS  /tmp/ccpr9r5K.s 			page 16


  10:../../libdaisy/src/hid/audio.h ****   public:
  11:../../libdaisy/src/hid/audio.h ****     /** Manually configurable details about the Audio Engine */
  12:../../libdaisy/src/hid/audio.h ****     /** TODO: Figure out how to get samplerate in here. */
  13:../../libdaisy/src/hid/audio.h ****     struct Config
  14:../../libdaisy/src/hid/audio.h ****     {
  15:../../libdaisy/src/hid/audio.h ****         size_t                        blocksize;
  16:../../libdaisy/src/hid/audio.h ****         SaiHandle::Config::SampleRate samplerate;
  17:../../libdaisy/src/hid/audio.h ****         float                         postgain;
  18:../../libdaisy/src/hid/audio.h ****     };
  19:../../libdaisy/src/hid/audio.h **** 
  20:../../libdaisy/src/hid/audio.h ****     enum class Result
  21:../../libdaisy/src/hid/audio.h ****     {
  22:../../libdaisy/src/hid/audio.h ****         OK,
  23:../../libdaisy/src/hid/audio.h ****         ERR,
  24:../../libdaisy/src/hid/audio.h ****     };
  25:../../libdaisy/src/hid/audio.h **** 
  26:../../libdaisy/src/hid/audio.h ****     /** Non-Interleaving input buffer
  27:../../libdaisy/src/hid/audio.h ****      * Buffer arranged by float[chn][sample] 
  28:../../libdaisy/src/hid/audio.h ****      * const so that the user can't modify the input
  29:../../libdaisy/src/hid/audio.h ****     */
  30:../../libdaisy/src/hid/audio.h ****     typedef const float* const* InputBuffer;
  31:../../libdaisy/src/hid/audio.h **** 
  32:../../libdaisy/src/hid/audio.h ****     /** Non-Interleaving output buffer
  33:../../libdaisy/src/hid/audio.h ****      * Arranged by float[chn][sample] 
  34:../../libdaisy/src/hid/audio.h ****     */
  35:../../libdaisy/src/hid/audio.h ****     typedef float** OutputBuffer;
  36:../../libdaisy/src/hid/audio.h **** 
  37:../../libdaisy/src/hid/audio.h ****     /** Type for a Non-Interleaving audio callback 
  38:../../libdaisy/src/hid/audio.h ****    * Non-Interleaving audio callbacks in daisy will be of this type
  39:../../libdaisy/src/hid/audio.h ****   */
  40:../../libdaisy/src/hid/audio.h ****     typedef void (*AudioCallback)(InputBuffer  in,
  41:../../libdaisy/src/hid/audio.h ****                                   OutputBuffer out,
  42:../../libdaisy/src/hid/audio.h ****                                   size_t       size);
  43:../../libdaisy/src/hid/audio.h **** 
  44:../../libdaisy/src/hid/audio.h ****     /** Interleaving Input buffer
  45:../../libdaisy/src/hid/audio.h ****      ** audio is prepared as { L0, R0, L1, R1, . . . LN, RN }]
  46:../../libdaisy/src/hid/audio.h ****      ** this is const, as the user shouldn't modify it
  47:../../libdaisy/src/hid/audio.h ****     */
  48:../../libdaisy/src/hid/audio.h ****     typedef const float* InterleavingInputBuffer;
  49:../../libdaisy/src/hid/audio.h **** 
  50:../../libdaisy/src/hid/audio.h ****     /** Interleaving Output buffer 
  51:../../libdaisy/src/hid/audio.h ****      ** audio is prepared as { L0, R0, L1, R1, . . . LN, RN }
  52:../../libdaisy/src/hid/audio.h ****     */
  53:../../libdaisy/src/hid/audio.h ****     typedef float* InterleavingOutputBuffer;
  54:../../libdaisy/src/hid/audio.h **** 
  55:../../libdaisy/src/hid/audio.h ****     /** Interleaving Audio Callback 
  56:../../libdaisy/src/hid/audio.h ****    * Interleaving audio callbacks in daisy must be of this type
  57:../../libdaisy/src/hid/audio.h ****   */
  58:../../libdaisy/src/hid/audio.h ****     typedef void (*InterleavingAudioCallback)(InterleavingInputBuffer  in,
  59:../../libdaisy/src/hid/audio.h ****                                               InterleavingOutputBuffer out,
  60:../../libdaisy/src/hid/audio.h ****                                               size_t                   size);
  61:../../libdaisy/src/hid/audio.h **** 
  62:../../libdaisy/src/hid/audio.h ****     AudioHandle() : pimpl_(nullptr) {}
  63:../../libdaisy/src/hid/audio.h ****     ~AudioHandle() {}
 152              		.loc 14 63 5 is_stmt 1 view .LVU24
 153              		.loc 14 63 5 is_stmt 0 view .LVU25
 154              	.LBE646:
ARM GAS  /tmp/ccpr9r5K.s 			page 17


 155              	.LBE642:
 156              		.loc 4 41 20 view .LVU26
 157 0000 7047     		bx	lr
 158              		.cfi_endproc
 159              	.LFE4230:
 161              		.weak	_ZN5daisy10DaisyPatchD1Ev
 162              		.thumb_set _ZN5daisy10DaisyPatchD1Ev,_ZN5daisy10DaisyPatchD2Ev
 163 0002 00BF     		.section	.text._ZN5daisy11OledDisplayINS_13SSD130xDriverILj128ELj64ENS_24SSD130x4WireSpiTransportE
 164              		.align	1
 165              		.p2align 2,,3
 166              		.weak	_ZN5daisy11OledDisplayINS_13SSD130xDriverILj128ELj64ENS_24SSD130x4WireSpiTransportEEEED2Ev
 167              		.syntax unified
 168              		.thumb
 169              		.thumb_func
 170              		.fpu fpv5-d16
 172              	_ZN5daisy11OledDisplayINS_13SSD130xDriverILj128ELj64ENS_24SSD130x4WireSpiTransportEEEED2Ev:
 173              	.LVL3:
 174              	.LFB4549:
 175              		.loc 5 17 13 is_stmt 1 view -0
 176              		.cfi_startproc
 177              		@ args = 0, pretend = 0, frame = 0
 178              		@ frame_needed = 0, uses_anonymous_args = 0
 179              		@ link register save eliminated.
 180              	.LBB647:
 181              	.LBI647:
 182              		.loc 6 219 13 view .LVU28
 183              	.LBB648:
 184              	.LBI648:
  23:../../libdaisy/src/hid/disp/display.h **** 
 185              		.loc 6 23 13 view .LVU29
  23:../../libdaisy/src/hid/disp/display.h **** 
 186              		.loc 6 23 13 is_stmt 0 view .LVU30
 187              	.LBE648:
 188              	.LBE647:
 189              		.loc 5 17 29 view .LVU31
 190 0000 7047     		bx	lr
 191              		.cfi_endproc
 192              	.LFE4549:
 194              		.weak	_ZN5daisy11OledDisplayINS_13SSD130xDriverILj128ELj64ENS_24SSD130x4WireSpiTransportEEEED1Ev
 195              		.thumb_set _ZN5daisy11OledDisplayINS_13SSD130xDriverILj128ELj64ENS_24SSD130x4WireSpiTransportEEEED
 196 0002 00BF     		.section	.text._ZNK5daisy11OledDisplayINS_13SSD130xDriverILj128ELj64ENS_24SSD130x4WireSpiTransport
 197              		.align	1
 198              		.p2align 2,,3
 199              		.weak	_ZNK5daisy11OledDisplayINS_13SSD130xDriverILj128ELj64ENS_24SSD130x4WireSpiTransportEEEE6Heig
 200              		.syntax unified
 201              		.thumb
 202              		.thumb_func
 203              		.fpu fpv5-d16
 205              	_ZNK5daisy11OledDisplayINS_13SSD130xDriverILj128ELj64ENS_24SSD130x4WireSpiTransportEEEE6HeightEv:
 206              	.LVL4:
 207              	.LFB4819:
  18:../../libdaisy/src/hid/disp/oled_display.h **** 
  19:../../libdaisy/src/hid/disp/oled_display.h ****     struct Config
  20:../../libdaisy/src/hid/disp/oled_display.h ****     {
  21:../../libdaisy/src/hid/disp/oled_display.h ****         typename DisplayDriver::Config driver_config;
  22:../../libdaisy/src/hid/disp/oled_display.h ****     };
  23:../../libdaisy/src/hid/disp/oled_display.h **** 
ARM GAS  /tmp/ccpr9r5K.s 			page 18


  24:../../libdaisy/src/hid/disp/oled_display.h ****     void Init(Config config) { driver_.Init(config.driver_config); }
  25:../../libdaisy/src/hid/disp/oled_display.h **** 
  26:../../libdaisy/src/hid/disp/oled_display.h ****     uint16_t Height() const override { return driver_.Height(); }
 208              		.loc 5 26 14 is_stmt 1 view -0
 209              		.cfi_startproc
 210              		@ args = 0, pretend = 0, frame = 0
 211              		@ frame_needed = 0, uses_anonymous_args = 0
 212              		@ link register save eliminated.
 213              		.loc 5 26 65 is_stmt 0 view .LVU33
 214 0000 4020     		movs	r0, #64
 215              	.LVL5:
 216              		.loc 5 26 65 view .LVU34
 217 0002 7047     		bx	lr
 218              		.cfi_endproc
 219              	.LFE4819:
 221              		.section	.text._ZNK5daisy11OledDisplayINS_13SSD130xDriverILj128ELj64ENS_24SSD130x4WireSpiTransport
 222              		.align	1
 223              		.p2align 2,,3
 224              		.weak	_ZNK5daisy11OledDisplayINS_13SSD130xDriverILj128ELj64ENS_24SSD130x4WireSpiTransportEEEE5Widt
 225              		.syntax unified
 226              		.thumb
 227              		.thumb_func
 228              		.fpu fpv5-d16
 230              	_ZNK5daisy11OledDisplayINS_13SSD130xDriverILj128ELj64ENS_24SSD130x4WireSpiTransportEEEE5WidthEv:
 231              	.LVL6:
 232              	.LFB4820:
  27:../../libdaisy/src/hid/disp/oled_display.h ****     uint16_t Width() const override { return driver_.Width(); }
 233              		.loc 5 27 14 is_stmt 1 view -0
 234              		.cfi_startproc
 235              		@ args = 0, pretend = 0, frame = 0
 236              		@ frame_needed = 0, uses_anonymous_args = 0
 237              		@ link register save eliminated.
 238              		.loc 5 27 63 is_stmt 0 view .LVU36
 239 0000 8020     		movs	r0, #128
 240              	.LVL7:
 241              		.loc 5 27 63 view .LVU37
 242 0002 7047     		bx	lr
 243              		.cfi_endproc
 244              	.LFE4820:
 246              		.section	.text._ZN5daisy11OledDisplayINS_13SSD130xDriverILj128ELj64ENS_24SSD130x4WireSpiTransportE
 247              		.align	1
 248              		.p2align 2,,3
 249              		.weak	_ZN5daisy11OledDisplayINS_13SSD130xDriverILj128ELj64ENS_24SSD130x4WireSpiTransportEEEE4FillE
 250              		.syntax unified
 251              		.thumb
 252              		.thumb_func
 253              		.fpu fpv5-d16
 255              	_ZN5daisy11OledDisplayINS_13SSD130xDriverILj128ELj64ENS_24SSD130x4WireSpiTransportEEEE4FillEb:
 256              	.LVL8:
 257              	.LFB4821:
  28:../../libdaisy/src/hid/disp/oled_display.h **** 
  29:../../libdaisy/src/hid/disp/oled_display.h ****     /** 
  30:../../libdaisy/src/hid/disp/oled_display.h ****     Fills the entire display with either on/off.
  31:../../libdaisy/src/hid/disp/oled_display.h ****     \param on Sets on or off.
  32:../../libdaisy/src/hid/disp/oled_display.h ****     */
  33:../../libdaisy/src/hid/disp/oled_display.h ****     void Fill(bool on) override { driver_.Fill(on); }
 258              		.loc 5 33 10 is_stmt 1 view -0
ARM GAS  /tmp/ccpr9r5K.s 			page 19


 259              		.cfi_startproc
 260              		@ args = 0, pretend = 0, frame = 0
 261              		@ frame_needed = 0, uses_anonymous_args = 0
 262              		@ link register save eliminated.
 263              	.LBB649:
 264              	.LBI649:
 265              		.file 15 "../../libdaisy/src/dev/oled_ssd130x.h"
   1:../../libdaisy/src/dev/oled_ssd130x.h **** #pragma once
   2:../../libdaisy/src/dev/oled_ssd130x.h **** #ifndef SA_OLED_SSD130X_H
   3:../../libdaisy/src/dev/oled_ssd130x.h **** #define SA_OLED_SSD130X_H /**< & */
   4:../../libdaisy/src/dev/oled_ssd130x.h **** 
   5:../../libdaisy/src/dev/oled_ssd130x.h **** #include "per/i2c.h"
   6:../../libdaisy/src/dev/oled_ssd130x.h **** #include "per/spi.h"
   7:../../libdaisy/src/dev/oled_ssd130x.h **** #include "per/gpio.h"
   8:../../libdaisy/src/dev/oled_ssd130x.h **** #include "sys/system.h"
   9:../../libdaisy/src/dev/oled_ssd130x.h **** 
  10:../../libdaisy/src/dev/oled_ssd130x.h **** namespace daisy
  11:../../libdaisy/src/dev/oled_ssd130x.h **** {
  12:../../libdaisy/src/dev/oled_ssd130x.h **** /**
  13:../../libdaisy/src/dev/oled_ssd130x.h ****  * I2C Transport for SSD1306 / SSD1309 OLED display devices
  14:../../libdaisy/src/dev/oled_ssd130x.h ****  */
  15:../../libdaisy/src/dev/oled_ssd130x.h **** class SSD130xI2CTransport
  16:../../libdaisy/src/dev/oled_ssd130x.h **** {
  17:../../libdaisy/src/dev/oled_ssd130x.h ****   public:
  18:../../libdaisy/src/dev/oled_ssd130x.h ****     struct Config
  19:../../libdaisy/src/dev/oled_ssd130x.h ****     {
  20:../../libdaisy/src/dev/oled_ssd130x.h ****         I2CHandle::Config i2c_config;
  21:../../libdaisy/src/dev/oled_ssd130x.h ****         uint8_t           i2c_address;
  22:../../libdaisy/src/dev/oled_ssd130x.h ****         void              Defaults()
  23:../../libdaisy/src/dev/oled_ssd130x.h ****         {
  24:../../libdaisy/src/dev/oled_ssd130x.h ****             i2c_config.periph         = I2CHandle::Config::Peripheral::I2C_1;
  25:../../libdaisy/src/dev/oled_ssd130x.h ****             i2c_config.speed          = I2CHandle::Config::Speed::I2C_1MHZ;
  26:../../libdaisy/src/dev/oled_ssd130x.h ****             i2c_config.mode           = I2CHandle::Config::Mode::I2C_MASTER;
  27:../../libdaisy/src/dev/oled_ssd130x.h ****             i2c_config.pin_config.scl = {DSY_GPIOB, 8};
  28:../../libdaisy/src/dev/oled_ssd130x.h ****             i2c_config.pin_config.sda = {DSY_GPIOB, 9};
  29:../../libdaisy/src/dev/oled_ssd130x.h ****             i2c_address               = 0x3C;
  30:../../libdaisy/src/dev/oled_ssd130x.h ****         }
  31:../../libdaisy/src/dev/oled_ssd130x.h ****     };
  32:../../libdaisy/src/dev/oled_ssd130x.h ****     void Init(const Config& config)
  33:../../libdaisy/src/dev/oled_ssd130x.h ****     {
  34:../../libdaisy/src/dev/oled_ssd130x.h ****         i2c_address_ = config.i2c_address;
  35:../../libdaisy/src/dev/oled_ssd130x.h ****         i2c_.Init(config.i2c_config);
  36:../../libdaisy/src/dev/oled_ssd130x.h ****     };
  37:../../libdaisy/src/dev/oled_ssd130x.h ****     void SendCommand(uint8_t cmd)
  38:../../libdaisy/src/dev/oled_ssd130x.h ****     {
  39:../../libdaisy/src/dev/oled_ssd130x.h ****         uint8_t buf[2] = {0X00, cmd};
  40:../../libdaisy/src/dev/oled_ssd130x.h ****         i2c_.TransmitBlocking(i2c_address_, buf, 2, 1000);
  41:../../libdaisy/src/dev/oled_ssd130x.h ****     };
  42:../../libdaisy/src/dev/oled_ssd130x.h **** 
  43:../../libdaisy/src/dev/oled_ssd130x.h ****     void SendData(uint8_t* buff, size_t size)
  44:../../libdaisy/src/dev/oled_ssd130x.h ****     {
  45:../../libdaisy/src/dev/oled_ssd130x.h ****         for(size_t i = 0; i < size; i++)
  46:../../libdaisy/src/dev/oled_ssd130x.h ****         {
  47:../../libdaisy/src/dev/oled_ssd130x.h ****             uint8_t buf[2] = {0X40, buff[i]};
  48:../../libdaisy/src/dev/oled_ssd130x.h ****             i2c_.TransmitBlocking(i2c_address_, buf, 2, 1000);
  49:../../libdaisy/src/dev/oled_ssd130x.h ****         }
  50:../../libdaisy/src/dev/oled_ssd130x.h ****     };
ARM GAS  /tmp/ccpr9r5K.s 			page 20


  51:../../libdaisy/src/dev/oled_ssd130x.h **** 
  52:../../libdaisy/src/dev/oled_ssd130x.h ****   private:
  53:../../libdaisy/src/dev/oled_ssd130x.h ****     daisy::I2CHandle i2c_;
  54:../../libdaisy/src/dev/oled_ssd130x.h ****     uint8_t          i2c_address_;
  55:../../libdaisy/src/dev/oled_ssd130x.h **** };
  56:../../libdaisy/src/dev/oled_ssd130x.h **** 
  57:../../libdaisy/src/dev/oled_ssd130x.h **** /**
  58:../../libdaisy/src/dev/oled_ssd130x.h ****  * 4 Wire SPI Transport for SSD1306 / SSD1309 OLED display devices
  59:../../libdaisy/src/dev/oled_ssd130x.h ****  */
  60:../../libdaisy/src/dev/oled_ssd130x.h **** class SSD130x4WireSpiTransport
  61:../../libdaisy/src/dev/oled_ssd130x.h **** {
  62:../../libdaisy/src/dev/oled_ssd130x.h ****   public:
  63:../../libdaisy/src/dev/oled_ssd130x.h ****     struct Config
  64:../../libdaisy/src/dev/oled_ssd130x.h ****     {
  65:../../libdaisy/src/dev/oled_ssd130x.h ****         struct
  66:../../libdaisy/src/dev/oled_ssd130x.h ****         {
  67:../../libdaisy/src/dev/oled_ssd130x.h ****             dsy_gpio_pin dc;    /**< & */
  68:../../libdaisy/src/dev/oled_ssd130x.h ****             dsy_gpio_pin reset; /**< & */
  69:../../libdaisy/src/dev/oled_ssd130x.h ****         } pin_config;
  70:../../libdaisy/src/dev/oled_ssd130x.h ****         void Defaults()
  71:../../libdaisy/src/dev/oled_ssd130x.h ****         {
  72:../../libdaisy/src/dev/oled_ssd130x.h ****             pin_config.dc    = {DSY_GPIOB, 4};
  73:../../libdaisy/src/dev/oled_ssd130x.h ****             pin_config.reset = {DSY_GPIOB, 15};
  74:../../libdaisy/src/dev/oled_ssd130x.h ****         }
  75:../../libdaisy/src/dev/oled_ssd130x.h ****     };
  76:../../libdaisy/src/dev/oled_ssd130x.h ****     void Init(const Config& config)
  77:../../libdaisy/src/dev/oled_ssd130x.h ****     {
  78:../../libdaisy/src/dev/oled_ssd130x.h ****         // Initialize both GPIO
  79:../../libdaisy/src/dev/oled_ssd130x.h ****         pin_dc_.mode = DSY_GPIO_MODE_OUTPUT_PP;
  80:../../libdaisy/src/dev/oled_ssd130x.h ****         pin_dc_.pin  = config.pin_config.dc;
  81:../../libdaisy/src/dev/oled_ssd130x.h ****         dsy_gpio_init(&pin_dc_);
  82:../../libdaisy/src/dev/oled_ssd130x.h ****         pin_reset_.mode = DSY_GPIO_MODE_OUTPUT_PP;
  83:../../libdaisy/src/dev/oled_ssd130x.h ****         pin_reset_.pin  = config.pin_config.reset;
  84:../../libdaisy/src/dev/oled_ssd130x.h ****         dsy_gpio_init(&pin_reset_);
  85:../../libdaisy/src/dev/oled_ssd130x.h ****         // Initialize SPI
  86:../../libdaisy/src/dev/oled_ssd130x.h ****         SpiHandle::Config spi_config;
  87:../../libdaisy/src/dev/oled_ssd130x.h ****         spi_config.periph    = SpiHandle::Config::Peripheral::SPI_1;
  88:../../libdaisy/src/dev/oled_ssd130x.h ****         spi_config.mode      = SpiHandle::Config::Mode::MASTER;
  89:../../libdaisy/src/dev/oled_ssd130x.h ****         spi_config.direction = SpiHandle::Config::Direction::TWO_LINES_TX_ONLY;
  90:../../libdaisy/src/dev/oled_ssd130x.h ****         spi_config.datasize  = 8;
  91:../../libdaisy/src/dev/oled_ssd130x.h ****         spi_config.clock_polarity = SpiHandle::Config::ClockPolarity::LOW;
  92:../../libdaisy/src/dev/oled_ssd130x.h ****         spi_config.clock_phase    = SpiHandle::Config::ClockPhase::ONE_EDGE;
  93:../../libdaisy/src/dev/oled_ssd130x.h ****         spi_config.nss            = SpiHandle::Config::NSS::HARD_OUTPUT;
  94:../../libdaisy/src/dev/oled_ssd130x.h ****         spi_config.baud_prescaler = SpiHandle::Config::BaudPrescaler::PS_8;
  95:../../libdaisy/src/dev/oled_ssd130x.h **** 
  96:../../libdaisy/src/dev/oled_ssd130x.h ****         spi_config.pin_config.sclk = {DSY_GPIOG, 11};
  97:../../libdaisy/src/dev/oled_ssd130x.h ****         spi_config.pin_config.miso = {DSY_GPIOX, 0};
  98:../../libdaisy/src/dev/oled_ssd130x.h ****         spi_config.pin_config.mosi = {DSY_GPIOB, 5};
  99:../../libdaisy/src/dev/oled_ssd130x.h ****         spi_config.pin_config.nss  = {DSY_GPIOG, 10};
 100:../../libdaisy/src/dev/oled_ssd130x.h **** 
 101:../../libdaisy/src/dev/oled_ssd130x.h ****         spi_.Init(spi_config);
 102:../../libdaisy/src/dev/oled_ssd130x.h **** 
 103:../../libdaisy/src/dev/oled_ssd130x.h ****         // Reset and Configure OLED.
 104:../../libdaisy/src/dev/oled_ssd130x.h ****         dsy_gpio_write(&pin_reset_, 0);
 105:../../libdaisy/src/dev/oled_ssd130x.h ****         System::Delay(10);
 106:../../libdaisy/src/dev/oled_ssd130x.h ****         dsy_gpio_write(&pin_reset_, 1);
 107:../../libdaisy/src/dev/oled_ssd130x.h ****         System::Delay(10);
ARM GAS  /tmp/ccpr9r5K.s 			page 21


 108:../../libdaisy/src/dev/oled_ssd130x.h ****     };
 109:../../libdaisy/src/dev/oled_ssd130x.h ****     void SendCommand(uint8_t cmd)
 110:../../libdaisy/src/dev/oled_ssd130x.h ****     {
 111:../../libdaisy/src/dev/oled_ssd130x.h ****         dsy_gpio_write(&pin_dc_, 0);
 112:../../libdaisy/src/dev/oled_ssd130x.h ****         spi_.BlockingTransmit(&cmd, 1);
 113:../../libdaisy/src/dev/oled_ssd130x.h ****     };
 114:../../libdaisy/src/dev/oled_ssd130x.h **** 
 115:../../libdaisy/src/dev/oled_ssd130x.h ****     void SendData(uint8_t* buff, size_t size)
 116:../../libdaisy/src/dev/oled_ssd130x.h ****     {
 117:../../libdaisy/src/dev/oled_ssd130x.h ****         dsy_gpio_write(&pin_dc_, 1);
 118:../../libdaisy/src/dev/oled_ssd130x.h ****         spi_.BlockingTransmit(buff, size);
 119:../../libdaisy/src/dev/oled_ssd130x.h ****     };
 120:../../libdaisy/src/dev/oled_ssd130x.h **** 
 121:../../libdaisy/src/dev/oled_ssd130x.h ****   private:
 122:../../libdaisy/src/dev/oled_ssd130x.h ****     SpiHandle spi_;
 123:../../libdaisy/src/dev/oled_ssd130x.h ****     dsy_gpio  pin_reset_;
 124:../../libdaisy/src/dev/oled_ssd130x.h ****     dsy_gpio  pin_dc_;
 125:../../libdaisy/src/dev/oled_ssd130x.h **** };
 126:../../libdaisy/src/dev/oled_ssd130x.h **** 
 127:../../libdaisy/src/dev/oled_ssd130x.h **** 
 128:../../libdaisy/src/dev/oled_ssd130x.h **** /**
 129:../../libdaisy/src/dev/oled_ssd130x.h ****  * A driver implementation for the SSD1306/SSD1309
 130:../../libdaisy/src/dev/oled_ssd130x.h ****  */
 131:../../libdaisy/src/dev/oled_ssd130x.h **** template <size_t width, size_t height, typename Transport>
 132:../../libdaisy/src/dev/oled_ssd130x.h **** class SSD130xDriver
 133:../../libdaisy/src/dev/oled_ssd130x.h **** {
 134:../../libdaisy/src/dev/oled_ssd130x.h ****   public:
 135:../../libdaisy/src/dev/oled_ssd130x.h ****     struct Config
 136:../../libdaisy/src/dev/oled_ssd130x.h ****     {
 137:../../libdaisy/src/dev/oled_ssd130x.h ****         typename Transport::Config transport_config;
 138:../../libdaisy/src/dev/oled_ssd130x.h ****     };
 139:../../libdaisy/src/dev/oled_ssd130x.h **** 
 140:../../libdaisy/src/dev/oled_ssd130x.h ****     void Init(Config config)
 141:../../libdaisy/src/dev/oled_ssd130x.h ****     {
 142:../../libdaisy/src/dev/oled_ssd130x.h ****         transport_.Init(config.transport_config);
 143:../../libdaisy/src/dev/oled_ssd130x.h **** 
 144:../../libdaisy/src/dev/oled_ssd130x.h ****         // Init routine...
 145:../../libdaisy/src/dev/oled_ssd130x.h **** 
 146:../../libdaisy/src/dev/oled_ssd130x.h ****         // Display Off
 147:../../libdaisy/src/dev/oled_ssd130x.h ****         transport_.SendCommand(0xaE);
 148:../../libdaisy/src/dev/oled_ssd130x.h ****         // Dimension dependent commands...
 149:../../libdaisy/src/dev/oled_ssd130x.h ****         switch(height)
 150:../../libdaisy/src/dev/oled_ssd130x.h ****         {
 151:../../libdaisy/src/dev/oled_ssd130x.h ****             case 16:
 152:../../libdaisy/src/dev/oled_ssd130x.h ****                 // Display Clock Divide Ratio
 153:../../libdaisy/src/dev/oled_ssd130x.h ****                 transport_.SendCommand(0xD5);
 154:../../libdaisy/src/dev/oled_ssd130x.h ****                 transport_.SendCommand(0x60);
 155:../../libdaisy/src/dev/oled_ssd130x.h ****                 // Multiplex Ratio
 156:../../libdaisy/src/dev/oled_ssd130x.h ****                 transport_.SendCommand(0xA8);
 157:../../libdaisy/src/dev/oled_ssd130x.h ****                 transport_.SendCommand(0x0F);
 158:../../libdaisy/src/dev/oled_ssd130x.h ****                 // COM Pins
 159:../../libdaisy/src/dev/oled_ssd130x.h ****                 transport_.SendCommand(0xDA);
 160:../../libdaisy/src/dev/oled_ssd130x.h ****                 transport_.SendCommand(0x02);
 161:../../libdaisy/src/dev/oled_ssd130x.h ****                 break;
 162:../../libdaisy/src/dev/oled_ssd130x.h ****             case 32:
 163:../../libdaisy/src/dev/oled_ssd130x.h ****                 // Display Clock Divide Ratio
 164:../../libdaisy/src/dev/oled_ssd130x.h ****                 transport_.SendCommand(0xD5);
ARM GAS  /tmp/ccpr9r5K.s 			page 22


 165:../../libdaisy/src/dev/oled_ssd130x.h ****                 transport_.SendCommand(0x80);
 166:../../libdaisy/src/dev/oled_ssd130x.h ****                 // Multiplex Ratio
 167:../../libdaisy/src/dev/oled_ssd130x.h ****                 transport_.SendCommand(0xA8);
 168:../../libdaisy/src/dev/oled_ssd130x.h ****                 transport_.SendCommand(0x1F);
 169:../../libdaisy/src/dev/oled_ssd130x.h ****                 // COM Pins
 170:../../libdaisy/src/dev/oled_ssd130x.h ****                 transport_.SendCommand(0xDA);
 171:../../libdaisy/src/dev/oled_ssd130x.h ****                 if(width == 64)
 172:../../libdaisy/src/dev/oled_ssd130x.h ****                 {
 173:../../libdaisy/src/dev/oled_ssd130x.h ****                     transport_.SendCommand(0x12);
 174:../../libdaisy/src/dev/oled_ssd130x.h ****                 }
 175:../../libdaisy/src/dev/oled_ssd130x.h ****                 else
 176:../../libdaisy/src/dev/oled_ssd130x.h ****                 {
 177:../../libdaisy/src/dev/oled_ssd130x.h ****                     transport_.SendCommand(0x02);
 178:../../libdaisy/src/dev/oled_ssd130x.h ****                 }
 179:../../libdaisy/src/dev/oled_ssd130x.h **** 
 180:../../libdaisy/src/dev/oled_ssd130x.h ****                 break;
 181:../../libdaisy/src/dev/oled_ssd130x.h ****             case 48:
 182:../../libdaisy/src/dev/oled_ssd130x.h ****                 // Display Clock Divide Ratio
 183:../../libdaisy/src/dev/oled_ssd130x.h ****                 transport_.SendCommand(0xD5);
 184:../../libdaisy/src/dev/oled_ssd130x.h ****                 transport_.SendCommand(0x80);
 185:../../libdaisy/src/dev/oled_ssd130x.h ****                 // Multiplex Ratio
 186:../../libdaisy/src/dev/oled_ssd130x.h ****                 transport_.SendCommand(0xA8);
 187:../../libdaisy/src/dev/oled_ssd130x.h ****                 transport_.SendCommand(0x2F);
 188:../../libdaisy/src/dev/oled_ssd130x.h ****                 // COM Pins
 189:../../libdaisy/src/dev/oled_ssd130x.h ****                 transport_.SendCommand(0xDA);
 190:../../libdaisy/src/dev/oled_ssd130x.h ****                 transport_.SendCommand(0x12);
 191:../../libdaisy/src/dev/oled_ssd130x.h ****                 break;
 192:../../libdaisy/src/dev/oled_ssd130x.h ****             default: // 128
 193:../../libdaisy/src/dev/oled_ssd130x.h ****                 // Display Clock Divide Ratio
 194:../../libdaisy/src/dev/oled_ssd130x.h ****                 transport_.SendCommand(0xD5);
 195:../../libdaisy/src/dev/oled_ssd130x.h ****                 transport_.SendCommand(0x80);
 196:../../libdaisy/src/dev/oled_ssd130x.h ****                 // Multiplex Ratio
 197:../../libdaisy/src/dev/oled_ssd130x.h ****                 transport_.SendCommand(0xA8);
 198:../../libdaisy/src/dev/oled_ssd130x.h ****                 transport_.SendCommand(0x3F);
 199:../../libdaisy/src/dev/oled_ssd130x.h ****                 // COM Pins
 200:../../libdaisy/src/dev/oled_ssd130x.h ****                 transport_.SendCommand(0xDA);
 201:../../libdaisy/src/dev/oled_ssd130x.h ****                 transport_.SendCommand(0x12);
 202:../../libdaisy/src/dev/oled_ssd130x.h ****                 break;
 203:../../libdaisy/src/dev/oled_ssd130x.h ****         }
 204:../../libdaisy/src/dev/oled_ssd130x.h **** 
 205:../../libdaisy/src/dev/oled_ssd130x.h ****         // Display Offset
 206:../../libdaisy/src/dev/oled_ssd130x.h ****         transport_.SendCommand(0xD3);
 207:../../libdaisy/src/dev/oled_ssd130x.h ****         transport_.SendCommand(0x00);
 208:../../libdaisy/src/dev/oled_ssd130x.h ****         // Start Line Address
 209:../../libdaisy/src/dev/oled_ssd130x.h ****         transport_.SendCommand(0x40);
 210:../../libdaisy/src/dev/oled_ssd130x.h ****         // Normal Display
 211:../../libdaisy/src/dev/oled_ssd130x.h ****         transport_.SendCommand(0xA6);
 212:../../libdaisy/src/dev/oled_ssd130x.h ****         // All On Resume
 213:../../libdaisy/src/dev/oled_ssd130x.h ****         transport_.SendCommand(0xA4);
 214:../../libdaisy/src/dev/oled_ssd130x.h ****         // Charge Pump
 215:../../libdaisy/src/dev/oled_ssd130x.h ****         transport_.SendCommand(0x8D);
 216:../../libdaisy/src/dev/oled_ssd130x.h ****         transport_.SendCommand(0x14);
 217:../../libdaisy/src/dev/oled_ssd130x.h ****         // Set Segment Remap
 218:../../libdaisy/src/dev/oled_ssd130x.h ****         transport_.SendCommand(0xA1);
 219:../../libdaisy/src/dev/oled_ssd130x.h ****         // COM Output Scan Direction
 220:../../libdaisy/src/dev/oled_ssd130x.h ****         transport_.SendCommand(0xC8);
 221:../../libdaisy/src/dev/oled_ssd130x.h ****         // Contrast Control
ARM GAS  /tmp/ccpr9r5K.s 			page 23


 222:../../libdaisy/src/dev/oled_ssd130x.h ****         transport_.SendCommand(0x81);
 223:../../libdaisy/src/dev/oled_ssd130x.h ****         transport_.SendCommand(0x8F);
 224:../../libdaisy/src/dev/oled_ssd130x.h ****         // Pre Charge
 225:../../libdaisy/src/dev/oled_ssd130x.h ****         transport_.SendCommand(0xD9);
 226:../../libdaisy/src/dev/oled_ssd130x.h ****         transport_.SendCommand(0x25);
 227:../../libdaisy/src/dev/oled_ssd130x.h ****         // VCOM Detect
 228:../../libdaisy/src/dev/oled_ssd130x.h ****         transport_.SendCommand(0xDB);
 229:../../libdaisy/src/dev/oled_ssd130x.h ****         transport_.SendCommand(0x34);
 230:../../libdaisy/src/dev/oled_ssd130x.h **** 
 231:../../libdaisy/src/dev/oled_ssd130x.h **** 
 232:../../libdaisy/src/dev/oled_ssd130x.h ****         // Display On
 233:../../libdaisy/src/dev/oled_ssd130x.h ****         transport_.SendCommand(0xAF); //--turn on oled panel
 234:../../libdaisy/src/dev/oled_ssd130x.h ****     };
 235:../../libdaisy/src/dev/oled_ssd130x.h **** 
 236:../../libdaisy/src/dev/oled_ssd130x.h ****     size_t Width() const { return width; };
 237:../../libdaisy/src/dev/oled_ssd130x.h ****     size_t Height() const { return height; };
 238:../../libdaisy/src/dev/oled_ssd130x.h **** 
 239:../../libdaisy/src/dev/oled_ssd130x.h ****     void DrawPixel(uint_fast8_t x, uint_fast8_t y, bool on)
 240:../../libdaisy/src/dev/oled_ssd130x.h ****     {
 241:../../libdaisy/src/dev/oled_ssd130x.h ****         if(x >= width || y >= height)
 242:../../libdaisy/src/dev/oled_ssd130x.h ****             return;
 243:../../libdaisy/src/dev/oled_ssd130x.h ****         if(on)
 244:../../libdaisy/src/dev/oled_ssd130x.h ****             buffer_[x + (y / 8) * width] |= (1 << (y % 8));
 245:../../libdaisy/src/dev/oled_ssd130x.h ****         else
 246:../../libdaisy/src/dev/oled_ssd130x.h ****             buffer_[x + (y / 8) * width] &= ~(1 << (y % 8));
 247:../../libdaisy/src/dev/oled_ssd130x.h ****     }
 248:../../libdaisy/src/dev/oled_ssd130x.h **** 
 249:../../libdaisy/src/dev/oled_ssd130x.h ****     void Fill(bool on)
 266              		.loc 15 249 10 view .LVU39
 267              	.LBB650:
 250:../../libdaisy/src/dev/oled_ssd130x.h ****     {
 251:../../libdaisy/src/dev/oled_ssd130x.h ****         for(size_t i = 0; i < sizeof(buffer_); i++)
 268              		.loc 15 251 29 view .LVU40
 269 0000 4942     		rsbs	r1, r1, #0
 270              	.LVL9:
 271              		.loc 15 251 29 is_stmt 0 view .LVU41
 272 0002 00F11303 		add	r3, r0, #19
 273 0006 00F21342 		addw	r2, r0, #1043
 274 000a C9B2     		uxtb	r1, r1
 275              	.LVL10:
 276              	.L9:
 252:../../libdaisy/src/dev/oled_ssd130x.h ****         {
 253:../../libdaisy/src/dev/oled_ssd130x.h ****             buffer_[i] = on ? 0xff : 0x00;
 277              		.loc 15 253 13 view .LVU42
 278 000c 03F8011F 		strb	r1, [r3, #1]!
 279              	.LVL11:
 251:../../libdaisy/src/dev/oled_ssd130x.h ****         {
 280              		.loc 15 251 9 is_stmt 1 view .LVU43
 251:../../libdaisy/src/dev/oled_ssd130x.h ****         {
 281              		.loc 15 251 29 view .LVU44
 282 0010 9342     		cmp	r3, r2
 283 0012 FBD1     		bne	.L9
 284              	.LBE650:
 285              	.LBE649:
 286              		.loc 5 33 53 is_stmt 0 view .LVU45
 287 0014 7047     		bx	lr
 288              		.cfi_endproc
ARM GAS  /tmp/ccpr9r5K.s 			page 24


 289              	.LFE4821:
 291 0016 00BF     		.section	.text._ZL13AudioCallbackPKPKfPPfj,"ax",%progbits
 292              		.align	1
 293              		.p2align 2,,3
 294              		.syntax unified
 295              		.thumb
 296              		.thumb_func
 297              		.fpu fpv5-d16
 299              	_ZL13AudioCallbackPKPKfPPfj:
 300              	.LVL12:
 301              	.LFB4233:
 302              		.file 16 "ex_vco.cpp"
   1:ex_vco.cpp    **** #include "daisysp.h"
   2:ex_vco.cpp    **** #include "daisy_patch.h"
   3:ex_vco.cpp    **** #include <string>
   4:ex_vco.cpp    **** 
   5:ex_vco.cpp    **** using namespace daisy;
   6:ex_vco.cpp    **** using namespace daisysp;
   7:ex_vco.cpp    **** 
   8:ex_vco.cpp    **** DaisyPatch patch;
   9:ex_vco.cpp    **** Oscillator osc;
  10:ex_vco.cpp    **** Parameter  freqctrl, wavectrl, ampctrl, finectrl;
  11:ex_vco.cpp    **** 
  12:ex_vco.cpp    **** static void AudioCallback(AudioHandle::InputBuffer  in,
  13:ex_vco.cpp    ****                           AudioHandle::OutputBuffer out,
  14:ex_vco.cpp    ****                           size_t                    size)
  15:ex_vco.cpp    **** {
 303              		.loc 16 15 1 is_stmt 1 view -0
 304              		.cfi_startproc
 305              		@ args = 0, pretend = 0, frame = 8
 306              		@ frame_needed = 0, uses_anonymous_args = 0
  16:ex_vco.cpp    ****     float  sig, freq, amp;
 307              		.loc 16 16 5 view .LVU47
  17:ex_vco.cpp    ****     size_t wave;
 308              		.loc 16 17 5 view .LVU48
  18:ex_vco.cpp    **** 
  19:ex_vco.cpp    ****     patch.ProcessAnalogControls();
 309              		.loc 16 19 5 view .LVU49
  15:ex_vco.cpp    ****     float  sig, freq, amp;
 310              		.loc 16 15 1 is_stmt 0 view .LVU50
 311 0000 2DE9F041 		push	{r4, r5, r6, r7, r8, lr}
 312              		.cfi_def_cfa_offset 24
 313              		.cfi_offset 4, -24
 314              		.cfi_offset 5, -20
 315              		.cfi_offset 6, -16
 316              		.cfi_offset 7, -12
 317              		.cfi_offset 8, -8
 318              		.cfi_offset 14, -4
 319 0004 1546     		mov	r5, r2
 320              		.loc 16 19 32 view .LVU51
 321 0006 2F48     		ldr	r0, .L22
 322              	.LVL13:
  15:ex_vco.cpp    ****     float  sig, freq, amp;
 323              		.loc 16 15 1 view .LVU52
 324 0008 0F46     		mov	r7, r1
 325 000a 2DED028B 		vpush.64	{d8}
 326              		.cfi_def_cfa_offset 32
ARM GAS  /tmp/ccpr9r5K.s 			page 25


 327              		.cfi_offset 80, -32
 328              		.cfi_offset 81, -28
 329 000e 82B0     		sub	sp, sp, #8
 330              		.cfi_def_cfa_offset 40
 331              		.loc 16 19 32 view .LVU53
 332 0010 FFF7FEFF 		bl	_ZN5daisy10DaisyPatch21ProcessAnalogControlsEv
 333              	.LVL14:
  20:ex_vco.cpp    **** 
  21:ex_vco.cpp    ****     for(size_t i = 0; i < size; i++)
 334              		.loc 16 21 5 is_stmt 1 view .LVU54
 335              	.LBB651:
 336              		.loc 16 21 25 view .LVU55
 337 0014 002D     		cmp	r5, #0
 338 0016 50D0     		beq	.L11
 339 0018 3E1F     		subs	r6, r7, #4
 340              		.loc 16 21 16 is_stmt 0 view .LVU56
 341 001a 4FF00008 		mov	r8, #0
 342 001e 2A4C     		ldr	r4, .L22+4
 343 0020 0C37     		adds	r7, r7, #12
 344              	.LVL15:
 345              	.L15:
 346              	.LBB652:
  22:ex_vco.cpp    ****     {
  23:ex_vco.cpp    ****         // Read Knobs
  24:ex_vco.cpp    ****         freq = mtof(freqctrl.Process() + finectrl.Process());
 347              		.loc 16 24 9 is_stmt 1 view .LVU57
 348              		.loc 16 24 37 is_stmt 0 view .LVU58
 349 0022 2A48     		ldr	r0, .L22+8
 350 0024 FFF7FEFF 		bl	_ZN5daisy9Parameter7ProcessEv
 351              	.LVL16:
 352 0028 B0EE408A 		vmov.f32	s16, s0
 353              		.loc 16 24 58 view .LVU59
 354 002c 2848     		ldr	r0, .L22+12
 355 002e FFF7FEFF 		bl	_ZN5daisy9Parameter7ProcessEv
 356              	.LVL17:
 357              	.LBB653:
 358              	.LBI653:
 359              		.file 17 "../../DaisySP/Source/Utility/dsp.h"
   1:../../DaisySP/Source/Utility/dsp.h **** /** Helpful defines, functions, and other utilities for use in/with daisysp modules.
   2:../../DaisySP/Source/Utility/dsp.h **** */
   3:../../DaisySP/Source/Utility/dsp.h **** #pragma once
   4:../../DaisySP/Source/Utility/dsp.h **** #ifndef DSY_CORE_DSP
   5:../../DaisySP/Source/Utility/dsp.h **** #define DSY_CORE_DSP
   6:../../DaisySP/Source/Utility/dsp.h **** #include <cassert>
   7:../../DaisySP/Source/Utility/dsp.h **** #include <cstdint>
   8:../../DaisySP/Source/Utility/dsp.h **** #include <random>
   9:../../DaisySP/Source/Utility/dsp.h **** #include <cmath>
  10:../../DaisySP/Source/Utility/dsp.h **** 
  11:../../DaisySP/Source/Utility/dsp.h **** /** PIs
  12:../../DaisySP/Source/Utility/dsp.h **** */
  13:../../DaisySP/Source/Utility/dsp.h **** #define PI_F 3.1415927410125732421875f
  14:../../DaisySP/Source/Utility/dsp.h **** #define TWOPI_F (2.0f * PI_F)
  15:../../DaisySP/Source/Utility/dsp.h **** #define HALFPI_F (PI_F * 0.5f)
  16:../../DaisySP/Source/Utility/dsp.h **** #define DSY_MIN(in, mn) (in < mn ? in : mn)
  17:../../DaisySP/Source/Utility/dsp.h **** #define DSY_MAX(in, mx) (in > mx ? in : mx)
  18:../../DaisySP/Source/Utility/dsp.h **** #define DSY_CLAMP(in, mn, mx) (DSY_MIN(DSY_MAX(in, mn), mx))
  19:../../DaisySP/Source/Utility/dsp.h **** #define DSY_COUNTOF(_arr) (sizeof(_arr) / sizeof(_arr[0]))
ARM GAS  /tmp/ccpr9r5K.s 			page 26


  20:../../DaisySP/Source/Utility/dsp.h **** 
  21:../../DaisySP/Source/Utility/dsp.h **** namespace daisysp
  22:../../DaisySP/Source/Utility/dsp.h **** {
  23:../../DaisySP/Source/Utility/dsp.h **** //Avoids division for random floats. e.g. rand() * kRandFrac
  24:../../DaisySP/Source/Utility/dsp.h **** static constexpr float kRandFrac = 1.f / (float)RAND_MAX;
  25:../../DaisySP/Source/Utility/dsp.h **** 
  26:../../DaisySP/Source/Utility/dsp.h **** //Convert from semitones to other units. e.g. 2 ^ (kOneTwelfth * x)
  27:../../DaisySP/Source/Utility/dsp.h **** static constexpr float kOneTwelfth = 1.f / 12.f;
  28:../../DaisySP/Source/Utility/dsp.h **** 
  29:../../DaisySP/Source/Utility/dsp.h **** /** efficient floating point min/max
  30:../../DaisySP/Source/Utility/dsp.h **** c/o stephen mccaul
  31:../../DaisySP/Source/Utility/dsp.h **** */
  32:../../DaisySP/Source/Utility/dsp.h **** inline float fmax(float a, float b)
  33:../../DaisySP/Source/Utility/dsp.h **** {
  34:../../DaisySP/Source/Utility/dsp.h ****     float r;
  35:../../DaisySP/Source/Utility/dsp.h **** #ifdef __arm__
  36:../../DaisySP/Source/Utility/dsp.h ****     asm("vmaxnm.f32 %[d], %[n], %[m]" : [d] "=t"(r) : [n] "t"(a), [m] "t"(b) :);
  37:../../DaisySP/Source/Utility/dsp.h **** #else
  38:../../DaisySP/Source/Utility/dsp.h ****     r = (a > b) ? a : b;
  39:../../DaisySP/Source/Utility/dsp.h **** #endif // __arm__
  40:../../DaisySP/Source/Utility/dsp.h ****     return r;
  41:../../DaisySP/Source/Utility/dsp.h **** }
  42:../../DaisySP/Source/Utility/dsp.h **** 
  43:../../DaisySP/Source/Utility/dsp.h **** inline float fmin(float a, float b)
  44:../../DaisySP/Source/Utility/dsp.h **** {
  45:../../DaisySP/Source/Utility/dsp.h ****     float r;
  46:../../DaisySP/Source/Utility/dsp.h **** #ifdef __arm__
  47:../../DaisySP/Source/Utility/dsp.h ****     asm("vminnm.f32 %[d], %[n], %[m]" : [d] "=t"(r) : [n] "t"(a), [m] "t"(b) :);
  48:../../DaisySP/Source/Utility/dsp.h **** #else
  49:../../DaisySP/Source/Utility/dsp.h ****     r = (a < b) ? a : b;
  50:../../DaisySP/Source/Utility/dsp.h **** #endif // __arm__
  51:../../DaisySP/Source/Utility/dsp.h ****     return r;
  52:../../DaisySP/Source/Utility/dsp.h **** }
  53:../../DaisySP/Source/Utility/dsp.h **** 
  54:../../DaisySP/Source/Utility/dsp.h **** /** quick fp clamp
  55:../../DaisySP/Source/Utility/dsp.h **** */
  56:../../DaisySP/Source/Utility/dsp.h **** inline float fclamp(float in, float min, float max)
  57:../../DaisySP/Source/Utility/dsp.h **** {
  58:../../DaisySP/Source/Utility/dsp.h ****     return fmin(fmax(in, min), max);
  59:../../DaisySP/Source/Utility/dsp.h **** }
  60:../../DaisySP/Source/Utility/dsp.h **** 
  61:../../DaisySP/Source/Utility/dsp.h **** /** From Musicdsp.org "Fast power and root estimates for 32bit floats)
  62:../../DaisySP/Source/Utility/dsp.h **** Original code by Stefan Stenzel
  63:../../DaisySP/Source/Utility/dsp.h **** These are approximations
  64:../../DaisySP/Source/Utility/dsp.h **** */
  65:../../DaisySP/Source/Utility/dsp.h **** inline float fastpower(float f, int n)
  66:../../DaisySP/Source/Utility/dsp.h **** {
  67:../../DaisySP/Source/Utility/dsp.h ****     long *lp, l;
  68:../../DaisySP/Source/Utility/dsp.h ****     lp = (long *)(&f);
  69:../../DaisySP/Source/Utility/dsp.h ****     l  = *lp;
  70:../../DaisySP/Source/Utility/dsp.h ****     l -= 0x3F800000;
  71:../../DaisySP/Source/Utility/dsp.h ****     l <<= (n - 1);
  72:../../DaisySP/Source/Utility/dsp.h ****     l += 0x3F800000;
  73:../../DaisySP/Source/Utility/dsp.h ****     *lp = l;
  74:../../DaisySP/Source/Utility/dsp.h ****     return f;
  75:../../DaisySP/Source/Utility/dsp.h **** }
  76:../../DaisySP/Source/Utility/dsp.h **** 
ARM GAS  /tmp/ccpr9r5K.s 			page 27


  77:../../DaisySP/Source/Utility/dsp.h **** inline float fastroot(float f, int n)
  78:../../DaisySP/Source/Utility/dsp.h **** {
  79:../../DaisySP/Source/Utility/dsp.h ****     long *lp, l;
  80:../../DaisySP/Source/Utility/dsp.h ****     lp = (long *)(&f);
  81:../../DaisySP/Source/Utility/dsp.h ****     l  = *lp;
  82:../../DaisySP/Source/Utility/dsp.h ****     l -= 0x3F800000;
  83:../../DaisySP/Source/Utility/dsp.h ****     l >>= (n = 1);
  84:../../DaisySP/Source/Utility/dsp.h ****     l += 0x3F800000;
  85:../../DaisySP/Source/Utility/dsp.h ****     *lp = l;
  86:../../DaisySP/Source/Utility/dsp.h ****     return f;
  87:../../DaisySP/Source/Utility/dsp.h **** }
  88:../../DaisySP/Source/Utility/dsp.h **** 
  89:../../DaisySP/Source/Utility/dsp.h **** /** From http://openaudio.blogspot.com/2017/02/faster-log10-and-pow.html
  90:../../DaisySP/Source/Utility/dsp.h **** No approximation, pow10f(x) gives a 90% speed increase over powf(10.f, x)
  91:../../DaisySP/Source/Utility/dsp.h **** */
  92:../../DaisySP/Source/Utility/dsp.h **** inline float pow10f(float f)
  93:../../DaisySP/Source/Utility/dsp.h **** {
  94:../../DaisySP/Source/Utility/dsp.h ****     return expf(2.302585092994046f * f);
  95:../../DaisySP/Source/Utility/dsp.h **** }
  96:../../DaisySP/Source/Utility/dsp.h **** 
  97:../../DaisySP/Source/Utility/dsp.h **** /* Original code for fastlog2f by Dr. Paul Beckmann from the ARM community forum, adapted from the 
  98:../../DaisySP/Source/Utility/dsp.h **** About 25% performance increase over std::log10f
  99:../../DaisySP/Source/Utility/dsp.h **** */
 100:../../DaisySP/Source/Utility/dsp.h **** inline float fastlog2f(float f)
 101:../../DaisySP/Source/Utility/dsp.h **** {
 102:../../DaisySP/Source/Utility/dsp.h ****     float frac;
 103:../../DaisySP/Source/Utility/dsp.h ****     int   exp;
 104:../../DaisySP/Source/Utility/dsp.h ****     frac = frexpf(fabsf(f), &exp);
 105:../../DaisySP/Source/Utility/dsp.h ****     f    = 1.23149591368684f;
 106:../../DaisySP/Source/Utility/dsp.h ****     f *= frac;
 107:../../DaisySP/Source/Utility/dsp.h ****     f += -4.11852516267426f;
 108:../../DaisySP/Source/Utility/dsp.h ****     f *= frac;
 109:../../DaisySP/Source/Utility/dsp.h ****     f += 6.02197014179219f;
 110:../../DaisySP/Source/Utility/dsp.h ****     f *= frac;
 111:../../DaisySP/Source/Utility/dsp.h ****     f += -3.13396450166353f;
 112:../../DaisySP/Source/Utility/dsp.h ****     f += exp;
 113:../../DaisySP/Source/Utility/dsp.h ****     return (f);
 114:../../DaisySP/Source/Utility/dsp.h **** }
 115:../../DaisySP/Source/Utility/dsp.h **** 
 116:../../DaisySP/Source/Utility/dsp.h **** inline float fastlog10f(float f)
 117:../../DaisySP/Source/Utility/dsp.h **** {
 118:../../DaisySP/Source/Utility/dsp.h ****     return fastlog2f(f) * 0.3010299956639812f;
 119:../../DaisySP/Source/Utility/dsp.h **** }
 120:../../DaisySP/Source/Utility/dsp.h **** 
 121:../../DaisySP/Source/Utility/dsp.h **** /** Midi to frequency helper
 122:../../DaisySP/Source/Utility/dsp.h **** */
 123:../../DaisySP/Source/Utility/dsp.h **** inline float mtof(float m)
 360              		.loc 17 123 14 is_stmt 1 view .LVU60
 361              	.LBB654:
 124:../../DaisySP/Source/Utility/dsp.h **** {
 125:../../DaisySP/Source/Utility/dsp.h ****     return powf(2, (m - 69.0f) / 12.0f) * 440.0f;
 362              		.loc 17 125 5 view .LVU61
 363              		.loc 17 125 23 is_stmt 0 view .LVU62
 364 0032 DFED287A 		vldr.32	s15, .L22+16
 365              	.LBE654:
 366              	.LBE653:
 367              		.loc 16 24 20 view .LVU63
ARM GAS  /tmp/ccpr9r5K.s 			page 28


 368 0036 38EE008A 		vadd.f32	s16, s16, s0
 369              	.LVL18:
 370              	.LBB657:
 371              	.LBB655:
 372              		.loc 17 125 16 view .LVU64
 373 003a F2EE080A 		vmov.f32	s1, #1.2e+1
 374 003e B0EE000A 		vmov.f32	s0, #2.0e+0
 375              		.loc 17 125 23 view .LVU65
 376 0042 38EE678A 		vsub.f32	s16, s16, s15
 377              	.LVL19:
 378              		.loc 17 125 16 view .LVU66
 379 0046 C8EE200A 		vdiv.f32	s1, s16, s1
 380              		.loc 17 125 43 view .LVU67
 381 004a 9FED238A 		vldr.32	s16, .L22+20
 382              		.loc 17 125 16 view .LVU68
 383 004e FFF7FEFF 		bl	powf
 384              	.LVL20:
 385              	.LBE655:
 386              	.LBE657:
  25:ex_vco.cpp    ****         wave = wavectrl.Process();
 387              		.loc 16 25 32 view .LVU69
 388 0052 2248     		ldr	r0, .L22+24
 389              	.LBB658:
 390              	.LBB656:
 391              		.loc 17 125 43 view .LVU70
 392 0054 20EE088A 		vmul.f32	s16, s0, s16
 393              	.LVL21:
 394              		.loc 17 125 43 view .LVU71
 395              	.LBE656:
 396              	.LBE658:
 397              		.loc 16 25 9 is_stmt 1 view .LVU72
 398              		.loc 16 25 32 is_stmt 0 view .LVU73
 399 0058 FFF7FEFF 		bl	_ZN5daisy9Parameter7ProcessEv
 400              	.LVL22:
  26:ex_vco.cpp    ****         amp  = ampctrl.Process();
 401              		.loc 16 26 31 view .LVU74
 402 005c 2048     		ldr	r0, .L22+28
  25:ex_vco.cpp    ****         wave = wavectrl.Process();
 403              		.loc 16 25 32 view .LVU75
 404 005e F0EE408A 		vmov.f32	s17, s0
 405              	.LVL23:
 406              		.loc 16 26 9 is_stmt 1 view .LVU76
 407              		.loc 16 26 31 is_stmt 0 view .LVU77
 408 0062 FFF7FEFF 		bl	_ZN5daisy9Parameter7ProcessEv
 409              	.LVL24:
 410              		.loc 16 26 31 view .LVU78
 411 0066 F0EE407A 		vmov.f32	s15, s0
 412              	.LBB659:
 413              	.LBB660:
  17:../../DaisySP/Source/Synthesis/oscillator.h ****     /** Choices for output waveforms, POLYBLEP are appropriately labeled. Others are naive forms.
  18:../../DaisySP/Source/Synthesis/oscillator.h ****     */
  19:../../DaisySP/Source/Synthesis/oscillator.h ****     enum
  20:../../DaisySP/Source/Synthesis/oscillator.h ****     {
  21:../../DaisySP/Source/Synthesis/oscillator.h ****         WAVE_SIN,
  22:../../DaisySP/Source/Synthesis/oscillator.h ****         WAVE_TRI,
  23:../../DaisySP/Source/Synthesis/oscillator.h ****         WAVE_SAW,
  24:../../DaisySP/Source/Synthesis/oscillator.h ****         WAVE_RAMP,
ARM GAS  /tmp/ccpr9r5K.s 			page 29


  25:../../DaisySP/Source/Synthesis/oscillator.h ****         WAVE_SQUARE,
  26:../../DaisySP/Source/Synthesis/oscillator.h ****         WAVE_POLYBLEP_TRI,
  27:../../DaisySP/Source/Synthesis/oscillator.h ****         WAVE_POLYBLEP_SAW,
  28:../../DaisySP/Source/Synthesis/oscillator.h ****         WAVE_POLYBLEP_SQUARE,
  29:../../DaisySP/Source/Synthesis/oscillator.h ****         WAVE_LAST,
  30:../../DaisySP/Source/Synthesis/oscillator.h ****     };
  31:../../DaisySP/Source/Synthesis/oscillator.h **** 
  32:../../DaisySP/Source/Synthesis/oscillator.h **** 
  33:../../DaisySP/Source/Synthesis/oscillator.h ****     /** Initializes the Oscillator
  34:../../DaisySP/Source/Synthesis/oscillator.h **** 
  35:../../DaisySP/Source/Synthesis/oscillator.h ****         \param sample_rate - sample rate of the audio engine being run, and the frequency that the 
  36:../../DaisySP/Source/Synthesis/oscillator.h **** 
  37:../../DaisySP/Source/Synthesis/oscillator.h ****         Defaults:
  38:../../DaisySP/Source/Synthesis/oscillator.h ****         - freq_ = 100 Hz
  39:../../DaisySP/Source/Synthesis/oscillator.h ****         - amp_ = 0.5
  40:../../DaisySP/Source/Synthesis/oscillator.h ****         - waveform_ = sine wave.
  41:../../DaisySP/Source/Synthesis/oscillator.h ****     */
  42:../../DaisySP/Source/Synthesis/oscillator.h ****     void Init(float sample_rate)
  43:../../DaisySP/Source/Synthesis/oscillator.h ****     {
  44:../../DaisySP/Source/Synthesis/oscillator.h ****         sr_        = sample_rate;
  45:../../DaisySP/Source/Synthesis/oscillator.h ****         sr_recip_  = 1.0f / sample_rate;
  46:../../DaisySP/Source/Synthesis/oscillator.h ****         freq_      = 100.0f;
  47:../../DaisySP/Source/Synthesis/oscillator.h ****         amp_       = 0.5f;
  48:../../DaisySP/Source/Synthesis/oscillator.h ****         phase_     = 0.0f;
  49:../../DaisySP/Source/Synthesis/oscillator.h ****         phase_inc_ = CalcPhaseInc(freq_);
  50:../../DaisySP/Source/Synthesis/oscillator.h ****         waveform_  = WAVE_SIN;
  51:../../DaisySP/Source/Synthesis/oscillator.h ****         eoc_       = true;
  52:../../DaisySP/Source/Synthesis/oscillator.h ****         eor_       = true;
  53:../../DaisySP/Source/Synthesis/oscillator.h ****     }
  54:../../DaisySP/Source/Synthesis/oscillator.h **** 
  55:../../DaisySP/Source/Synthesis/oscillator.h **** 
  56:../../DaisySP/Source/Synthesis/oscillator.h ****     /** Changes the frequency of the Oscillator, and recalculates phase increment.
  57:../../DaisySP/Source/Synthesis/oscillator.h ****     */
  58:../../DaisySP/Source/Synthesis/oscillator.h ****     inline void SetFreq(const float f)
  59:../../DaisySP/Source/Synthesis/oscillator.h ****     {
  60:../../DaisySP/Source/Synthesis/oscillator.h ****         freq_      = f;
  61:../../DaisySP/Source/Synthesis/oscillator.h ****         phase_inc_ = CalcPhaseInc(f);
 414              		.loc 1 61 34 view .LVU79
 415 006a 1748     		ldr	r0, .L22+4
 416 006c B0EE480A 		vmov.f32	s0, s16
  60:../../DaisySP/Source/Synthesis/oscillator.h ****         phase_inc_ = CalcPhaseInc(f);
 417              		.loc 1 60 20 view .LVU80
 418 0070 84ED028A 		vstr.32	s16, [r4, #8]
 419              	.LBE660:
 420              	.LBE659:
 421              		.loc 16 26 31 view .LVU81
 422 0074 B0EE678A 		vmov.f32	s16, s15
 423              	.LVL25:
  27:ex_vco.cpp    ****         // Set osc params
  28:ex_vco.cpp    ****         osc.SetFreq(freq);
 424              		.loc 16 28 9 is_stmt 1 view .LVU82
 425              	.LBB663:
 426              	.LBI659:
  58:../../DaisySP/Source/Synthesis/oscillator.h ****     {
 427              		.loc 1 58 17 view .LVU83
 428              	.LBB661:
  60:../../DaisySP/Source/Synthesis/oscillator.h ****         phase_inc_ = CalcPhaseInc(f);
ARM GAS  /tmp/ccpr9r5K.s 			page 30


 429              		.loc 1 60 9 view .LVU84
 430              		.loc 1 61 9 view .LVU85
 431              		.loc 1 61 34 is_stmt 0 view .LVU86
 432 0078 FFF7FEFF 		bl	_ZN7daisysp10Oscillator12CalcPhaseIncEf
 433              	.LVL26:
 434              		.loc 1 61 34 view .LVU87
 435              	.LBE661:
 436              	.LBE663:
  25:ex_vco.cpp    ****         amp  = ampctrl.Process();
 437              		.loc 16 25 14 view .LVU88
 438 007c FCEEE87A 		vcvt.u32.f32	s15, s17
  29:ex_vco.cpp    ****         osc.SetWaveform(wave);
  30:ex_vco.cpp    ****         osc.SetAmp(amp);
  31:ex_vco.cpp    ****         //.Process
  32:ex_vco.cpp    ****         sig = osc.Process();
 439              		.loc 16 32 26 view .LVU89
 440 0080 1148     		ldr	r0, .L22+4
 441              	.LBB664:
 442              	.LBB662:
 443              		.loc 1 61 20 view .LVU90
 444 0082 84ED060A 		vstr.32	s0, [r4, #24]
 445              	.LVL27:
 446              		.loc 1 61 20 view .LVU91
 447              	.LBE662:
 448              	.LBE664:
  29:ex_vco.cpp    ****         osc.SetWaveform(wave);
 449              		.loc 16 29 9 is_stmt 1 view .LVU92
 450              	.LBB665:
 451              	.LBB666:
  62:../../DaisySP/Source/Synthesis/oscillator.h ****     }
  63:../../DaisySP/Source/Synthesis/oscillator.h **** 
  64:../../DaisySP/Source/Synthesis/oscillator.h **** 
  65:../../DaisySP/Source/Synthesis/oscillator.h ****     /** Sets the amplitude of the waveform.
  66:../../DaisySP/Source/Synthesis/oscillator.h ****     */
  67:../../DaisySP/Source/Synthesis/oscillator.h ****     inline void SetAmp(const float a) { amp_ = a; }
 452              		.loc 1 67 46 is_stmt 0 view .LVU93
 453 0086 84ED018A 		vstr.32	s16, [r4, #4]
 454              	.LBE666:
 455              	.LBE665:
  25:ex_vco.cpp    ****         amp  = ampctrl.Process();
 456              		.loc 16 25 14 view .LVU94
 457 008a CDED017A 		vstr.32	s15, [sp, #4]	@ int
  29:ex_vco.cpp    ****         osc.SetWaveform(wave);
 458              		.loc 16 29 24 view .LVU95
 459 008e 9DF80430 		ldrb	r3, [sp, #4]	@ zero_extendqisi2
 460              	.LVL28:
 461              	.LBB668:
 462              	.LBI668:
  68:../../DaisySP/Source/Synthesis/oscillator.h ****     /** Sets the waveform to be synthesized by the Process() function.
  69:../../DaisySP/Source/Synthesis/oscillator.h ****     */
  70:../../DaisySP/Source/Synthesis/oscillator.h ****     inline void SetWaveform(const uint8_t wf)
 463              		.loc 1 70 17 is_stmt 1 view .LVU96
 464              	.LBB669:
  71:../../DaisySP/Source/Synthesis/oscillator.h ****     {
  72:../../DaisySP/Source/Synthesis/oscillator.h ****         waveform_ = wf < WAVE_LAST ? wf : WAVE_SIN;
 465              		.loc 1 72 9 view .LVU97
 466              		.loc 1 72 19 is_stmt 0 view .LVU98
ARM GAS  /tmp/ccpr9r5K.s 			page 31


 467 0092 082B     		cmp	r3, #8
 468 0094 28BF     		it	cs
 469 0096 0023     		movcs	r3, #0
 470              	.LVL29:
 471              		.loc 1 72 19 view .LVU99
 472 0098 2370     		strb	r3, [r4]
 473              	.LVL30:
 474              		.loc 1 72 19 view .LVU100
 475              	.LBE669:
 476              	.LBE668:
  30:ex_vco.cpp    ****         //.Process
 477              		.loc 16 30 9 is_stmt 1 view .LVU101
 478              	.LBB670:
 479              	.LBI665:
  67:../../DaisySP/Source/Synthesis/oscillator.h ****     /** Sets the waveform to be synthesized by the Process() function.
 480              		.loc 1 67 17 view .LVU102
 481              	.LBB667:
  67:../../DaisySP/Source/Synthesis/oscillator.h ****     /** Sets the waveform to be synthesized by the Process() function.
 482              		.loc 1 67 41 view .LVU103
  67:../../DaisySP/Source/Synthesis/oscillator.h ****     /** Sets the waveform to be synthesized by the Process() function.
 483              		.loc 1 67 41 is_stmt 0 view .LVU104
 484              	.LBE667:
 485              	.LBE670:
 486              		.loc 16 32 9 is_stmt 1 view .LVU105
 487              		.loc 16 32 26 is_stmt 0 view .LVU106
 488 009a FFF7FEFF 		bl	_ZN7daisysp10Oscillator7ProcessEv
 489              	.LVL31:
 490 009e 4FEA8800 		lsl	r0, r8, #2
 491 00a2 3146     		mov	r1, r6
 492              	.LVL32:
  33:ex_vco.cpp    ****         // Assign Synthesized Waveform to all four outputs.
  34:ex_vco.cpp    ****         for(size_t chn = 0; chn < 4; chn++)
 493              		.loc 16 34 9 is_stmt 1 view .LVU107
 494              	.LBB671:
 495              		.loc 16 34 33 view .LVU108
 496              	.L14:
  35:ex_vco.cpp    ****         {
  36:ex_vco.cpp    ****             out[chn][i] = sig;
 497              		.loc 16 36 13 discriminator 2 view .LVU109
 498              		.loc 16 36 25 is_stmt 0 discriminator 2 view .LVU110
 499 00a4 51F8043F 		ldr	r3, [r1, #4]!
 500 00a8 0344     		add	r3, r3, r0
  34:ex_vco.cpp    ****         {
 501              		.loc 16 34 33 discriminator 2 view .LVU111
 502 00aa B942     		cmp	r1, r7
 503              		.loc 16 36 25 discriminator 2 view .LVU112
 504 00ac 83ED000A 		vstr.32	s0, [r3]
  34:ex_vco.cpp    ****         {
 505              		.loc 16 34 9 is_stmt 1 discriminator 2 view .LVU113
  34:ex_vco.cpp    ****         {
 506              		.loc 16 34 33 discriminator 2 view .LVU114
 507 00b0 F8D1     		bne	.L14
  34:ex_vco.cpp    ****         {
 508              		.loc 16 34 33 is_stmt 0 discriminator 2 view .LVU115
 509              	.LBE671:
 510              	.LBE652:
  21:ex_vco.cpp    ****     {
ARM GAS  /tmp/ccpr9r5K.s 			page 32


 511              		.loc 16 21 5 is_stmt 1 discriminator 2 view .LVU116
 512 00b2 08F10108 		add	r8, r8, #1
 513              	.LVL33:
  21:ex_vco.cpp    ****     {
 514              		.loc 16 21 25 discriminator 2 view .LVU117
 515 00b6 4545     		cmp	r5, r8
 516 00b8 B3D1     		bne	.L15
 517              	.LVL34:
 518              	.L11:
  21:ex_vco.cpp    ****     {
 519              		.loc 16 21 25 is_stmt 0 discriminator 2 view .LVU118
 520              	.LBE651:
  37:ex_vco.cpp    ****         }
  38:ex_vco.cpp    ****     }
  39:ex_vco.cpp    **** }
 521              		.loc 16 39 1 view .LVU119
 522 00ba 02B0     		add	sp, sp, #8
 523              		.cfi_def_cfa_offset 32
 524              		@ sp needed
 525 00bc BDEC028B 		vldm	sp!, {d8}
 526              		.cfi_restore 80
 527              		.cfi_restore 81
 528              		.cfi_def_cfa_offset 24
 529 00c0 BDE8F081 		pop	{r4, r5, r6, r7, r8, pc}
 530              	.LVL35:
 531              	.L23:
 532              		.loc 16 39 1 view .LVU120
 533              		.align	2
 534              	.L22:
 535 00c4 00000000 		.word	patch
 536 00c8 00000000 		.word	.LANCHOR4
 537 00cc 00000000 		.word	.LANCHOR0
 538 00d0 00000000 		.word	.LANCHOR1
 539 00d4 00008A42 		.word	1116340224
 540 00d8 0000DC43 		.word	1138491392
 541 00dc 00000000 		.word	.LANCHOR2
 542 00e0 00000000 		.word	.LANCHOR3
 543              		.cfi_endproc
 544              	.LFE4233:
 546              		.section	.text._ZN5daisy11OledDisplayINS_13SSD130xDriverILj128ELj64ENS_24SSD130x4WireSpiTransportE
 547              		.align	1
 548              		.p2align 2,,3
 549              		.weak	_ZN5daisy11OledDisplayINS_13SSD130xDriverILj128ELj64ENS_24SSD130x4WireSpiTransportEEEED0Ev
 550              		.syntax unified
 551              		.thumb
 552              		.thumb_func
 553              		.fpu fpv5-d16
 555              	_ZN5daisy11OledDisplayINS_13SSD130xDriverILj128ELj64ENS_24SSD130x4WireSpiTransportEEEED0Ev:
 556              	.LVL36:
 557              	.LFB4551:
  17:../../libdaisy/src/hid/disp/oled_display.h **** 
 558              		.loc 5 17 13 is_stmt 1 view -0
 559              		.cfi_startproc
 560              		@ args = 0, pretend = 0, frame = 0
 561              		@ frame_needed = 0, uses_anonymous_args = 0
  17:../../libdaisy/src/hid/disp/oled_display.h **** 
 562              		.loc 5 17 13 is_stmt 0 view .LVU122
ARM GAS  /tmp/ccpr9r5K.s 			page 33


 563 0000 10B5     		push	{r4, lr}
 564              		.cfi_def_cfa_offset 8
 565              		.cfi_offset 4, -8
 566              		.cfi_offset 14, -4
  17:../../libdaisy/src/hid/disp/oled_display.h **** 
 567              		.loc 5 17 13 view .LVU123
 568 0002 0446     		mov	r4, r0
 569              	.LVL37:
 570              	.LBB672:
 571              	.LBI672:
  17:../../libdaisy/src/hid/disp/oled_display.h **** 
 572              		.loc 5 17 13 is_stmt 1 view .LVU124
 573              	.LBB673:
 574              	.LBI673:
 575              		.loc 6 219 13 view .LVU125
 576              	.LBB674:
 577              	.LBI674:
  23:../../libdaisy/src/hid/disp/display.h **** 
 578              		.loc 6 23 13 view .LVU126
  23:../../libdaisy/src/hid/disp/display.h **** 
 579              		.loc 6 23 13 is_stmt 0 view .LVU127
 580              	.LBE674:
 581              	.LBE673:
 582              	.LBE672:
  17:../../libdaisy/src/hid/disp/oled_display.h **** 
 583              		.loc 5 17 29 view .LVU128
 584 0004 40F21441 		movw	r1, #1044
 585 0008 FFF7FEFF 		bl	_ZdlPvj
 586              	.LVL38:
  17:../../libdaisy/src/hid/disp/oled_display.h **** 
 587              		.loc 5 17 29 view .LVU129
 588 000c 2046     		mov	r0, r4
 589 000e 10BD     		pop	{r4, pc}
  17:../../libdaisy/src/hid/disp/oled_display.h **** 
 590              		.loc 5 17 29 view .LVU130
 591              		.cfi_endproc
 592              	.LFE4551:
 594              		.section	.text._ZN5daisy11OledDisplayINS_13SSD130xDriverILj128ELj64ENS_24SSD130x4WireSpiTransportE
 595              		.align	1
 596              		.p2align 2,,3
 597              		.weak	_ZN5daisy11OledDisplayINS_13SSD130xDriverILj128ELj64ENS_24SSD130x4WireSpiTransportEEEE6Updat
 598              		.syntax unified
 599              		.thumb
 600              		.thumb_func
 601              		.fpu fpv5-d16
 603              	_ZN5daisy11OledDisplayINS_13SSD130xDriverILj128ELj64ENS_24SSD130x4WireSpiTransportEEEE6UpdateEv:
 604              	.LVL39:
 605              	.LFB4554:
  34:../../libdaisy/src/hid/disp/oled_display.h **** 
  35:../../libdaisy/src/hid/disp/oled_display.h ****     /**
  36:../../libdaisy/src/hid/disp/oled_display.h ****     Sets the pixel at the specified coordinate to be on/off.
  37:../../libdaisy/src/hid/disp/oled_display.h ****     \param x   x Coordinate
  38:../../libdaisy/src/hid/disp/oled_display.h ****     \param y   y coordinate
  39:../../libdaisy/src/hid/disp/oled_display.h ****     \param on  on or off
  40:../../libdaisy/src/hid/disp/oled_display.h ****     */
  41:../../libdaisy/src/hid/disp/oled_display.h ****     void DrawPixel(uint_fast8_t x, uint_fast8_t y, bool on) override
  42:../../libdaisy/src/hid/disp/oled_display.h ****     {
ARM GAS  /tmp/ccpr9r5K.s 			page 34


  43:../../libdaisy/src/hid/disp/oled_display.h ****         driver_.DrawPixel(x, y, on);
  44:../../libdaisy/src/hid/disp/oled_display.h ****     }
  45:../../libdaisy/src/hid/disp/oled_display.h **** 
  46:../../libdaisy/src/hid/disp/oled_display.h ****     /** 
  47:../../libdaisy/src/hid/disp/oled_display.h ****     Writes the current display buffer to the OLED device using SPI or I2C depending on 
  48:../../libdaisy/src/hid/disp/oled_display.h ****     how the object was initialized.
  49:../../libdaisy/src/hid/disp/oled_display.h ****     */
  50:../../libdaisy/src/hid/disp/oled_display.h ****     void Update() override { driver_.Update(); }
 606              		.loc 5 50 10 is_stmt 1 view -0
 607              		.cfi_startproc
 608              		@ args = 0, pretend = 0, frame = 8
 609              		@ frame_needed = 0, uses_anonymous_args = 0
 610              	.LBB685:
 611              	.LBI685:
 254:../../libdaisy/src/dev/oled_ssd130x.h ****         }
 255:../../libdaisy/src/dev/oled_ssd130x.h ****     };
 256:../../libdaisy/src/dev/oled_ssd130x.h **** 
 257:../../libdaisy/src/dev/oled_ssd130x.h ****     /**
 258:../../libdaisy/src/dev/oled_ssd130x.h ****      * Update the display 
 259:../../libdaisy/src/dev/oled_ssd130x.h ****     */
 260:../../libdaisy/src/dev/oled_ssd130x.h ****     void Update()
 612              		.loc 15 260 10 view .LVU132
 613              	.LBB686:
 261:../../libdaisy/src/dev/oled_ssd130x.h ****     {
 262:../../libdaisy/src/dev/oled_ssd130x.h ****         uint8_t i;
 263:../../libdaisy/src/dev/oled_ssd130x.h ****         uint8_t high_column_addr;
 264:../../libdaisy/src/dev/oled_ssd130x.h ****         switch(height)
 265:../../libdaisy/src/dev/oled_ssd130x.h ****         {
 266:../../libdaisy/src/dev/oled_ssd130x.h ****             case 32: high_column_addr = 0x12; break;
 267:../../libdaisy/src/dev/oled_ssd130x.h **** 
 268:../../libdaisy/src/dev/oled_ssd130x.h ****             default: high_column_addr = 0x10; break;
 269:../../libdaisy/src/dev/oled_ssd130x.h ****         }
 270:../../libdaisy/src/dev/oled_ssd130x.h ****         for(i = 0; i < (height / 8); i++)
 614              		.loc 15 270 22 view .LVU133
 615              	.LBE686:
 616              	.LBE685:
 617              		.loc 5 50 10 is_stmt 0 view .LVU134
 618 0000 2DE9F041 		push	{r4, r5, r6, r7, r8, lr}
 619              		.cfi_def_cfa_offset 24
 620              		.cfi_offset 4, -24
 621              		.cfi_offset 5, -20
 622              		.cfi_offset 6, -16
 623              		.cfi_offset 7, -12
 624              		.cfi_offset 8, -8
 625              		.cfi_offset 14, -4
 626 0004 B025     		movs	r5, #176
 627 0006 82B0     		sub	sp, sp, #8
 628              		.cfi_def_cfa_offset 32
 629 0008 00F10807 		add	r7, r0, #8
 630 000c 00F11006 		add	r6, r0, #16
 631 0010 00F11404 		add	r4, r0, #20
 632              	.LVL40:
 633              	.L27:
 634              	.LBB699:
 635              	.LBB698:
 636              	.LBB687:
 637              	.LBB688:
ARM GAS  /tmp/ccpr9r5K.s 			page 35


 111:../../libdaisy/src/dev/oled_ssd130x.h ****         spi_.BlockingTransmit(&cmd, 1);
 638              		.loc 15 111 23 view .LVU135
 639 0014 0021     		movs	r1, #0
 640 0016 3046     		mov	r0, r6
 641 0018 8DF80750 		strb	r5, [sp, #7]
 642              	.LVL41:
 111:../../libdaisy/src/dev/oled_ssd130x.h ****         spi_.BlockingTransmit(&cmd, 1);
 643              		.loc 15 111 23 view .LVU136
 644              	.LBE688:
 645              	.LBI687:
 109:../../libdaisy/src/dev/oled_ssd130x.h ****     {
 646              		.loc 15 109 10 is_stmt 1 view .LVU137
 647              	.LBB689:
 111:../../libdaisy/src/dev/oled_ssd130x.h ****         spi_.BlockingTransmit(&cmd, 1);
 648              		.loc 15 111 9 view .LVU138
 649 001c 0135     		adds	r5, r5, #1
 650              	.LVL42:
 111:../../libdaisy/src/dev/oled_ssd130x.h ****         spi_.BlockingTransmit(&cmd, 1);
 651              		.loc 15 111 9 is_stmt 0 view .LVU139
 652 001e 8846     		mov	r8, r1
 111:../../libdaisy/src/dev/oled_ssd130x.h ****         spi_.BlockingTransmit(&cmd, 1);
 653              		.loc 15 111 23 view .LVU140
 654 0020 FFF7FEFF 		bl	dsy_gpio_write
 655              	.LVL43:
 112:../../libdaisy/src/dev/oled_ssd130x.h ****     };
 656              		.loc 15 112 9 is_stmt 1 view .LVU141
 112:../../libdaisy/src/dev/oled_ssd130x.h ****     };
 657              		.loc 15 112 30 is_stmt 0 view .LVU142
 658 0024 6423     		movs	r3, #100
 659 0026 0122     		movs	r2, #1
 660 0028 0DF10701 		add	r1, sp, #7
 661 002c 3846     		mov	r0, r7
 662 002e FFF7FEFF 		bl	_ZN5daisy9SpiHandle16BlockingTransmitEPhjm
 663              	.LVL44:
 112:../../libdaisy/src/dev/oled_ssd130x.h ****     };
 664              		.loc 15 112 30 view .LVU143
 665              	.LBE689:
 666              	.LBE687:
 667              	.LBB690:
 668              	.LBB691:
 111:../../libdaisy/src/dev/oled_ssd130x.h ****         spi_.BlockingTransmit(&cmd, 1);
 669              		.loc 15 111 23 view .LVU144
 670 0032 4146     		mov	r1, r8
 671 0034 3046     		mov	r0, r6
 672 0036 8DF80780 		strb	r8, [sp, #7]
 673              	.LVL45:
 111:../../libdaisy/src/dev/oled_ssd130x.h ****         spi_.BlockingTransmit(&cmd, 1);
 674              		.loc 15 111 23 view .LVU145
 675              	.LBE691:
 676              	.LBI690:
 109:../../libdaisy/src/dev/oled_ssd130x.h ****     {
 677              		.loc 15 109 10 is_stmt 1 view .LVU146
 678              	.LBB692:
 111:../../libdaisy/src/dev/oled_ssd130x.h ****         spi_.BlockingTransmit(&cmd, 1);
 679              		.loc 15 111 9 view .LVU147
 111:../../libdaisy/src/dev/oled_ssd130x.h ****         spi_.BlockingTransmit(&cmd, 1);
 680              		.loc 15 111 23 is_stmt 0 view .LVU148
ARM GAS  /tmp/ccpr9r5K.s 			page 36


 681 003a FFF7FEFF 		bl	dsy_gpio_write
 682              	.LVL46:
 112:../../libdaisy/src/dev/oled_ssd130x.h ****     };
 683              		.loc 15 112 9 is_stmt 1 view .LVU149
 112:../../libdaisy/src/dev/oled_ssd130x.h ****     };
 684              		.loc 15 112 30 is_stmt 0 view .LVU150
 685 003e 0122     		movs	r2, #1
 686 0040 6423     		movs	r3, #100
 687 0042 0DF10701 		add	r1, sp, #7
 688 0046 3846     		mov	r0, r7
 689 0048 EDB2     		uxtb	r5, r5
 690 004a FFF7FEFF 		bl	_ZN5daisy9SpiHandle16BlockingTransmitEPhjm
 691              	.LVL47:
 112:../../libdaisy/src/dev/oled_ssd130x.h ****     };
 692              		.loc 15 112 30 view .LVU151
 693 004e 1023     		movs	r3, #16
 694              	.LBE692:
 695              	.LBE690:
 696              	.LBB693:
 697              	.LBB694:
 111:../../libdaisy/src/dev/oled_ssd130x.h ****         spi_.BlockingTransmit(&cmd, 1);
 698              		.loc 15 111 23 view .LVU152
 699 0050 4146     		mov	r1, r8
 700 0052 3046     		mov	r0, r6
 701 0054 8DF80730 		strb	r3, [sp, #7]
 702              	.LVL48:
 111:../../libdaisy/src/dev/oled_ssd130x.h ****         spi_.BlockingTransmit(&cmd, 1);
 703              		.loc 15 111 23 view .LVU153
 704              	.LBE694:
 705              	.LBI693:
 109:../../libdaisy/src/dev/oled_ssd130x.h ****     {
 706              		.loc 15 109 10 is_stmt 1 view .LVU154
 707              	.LBB695:
 111:../../libdaisy/src/dev/oled_ssd130x.h ****         spi_.BlockingTransmit(&cmd, 1);
 708              		.loc 15 111 9 view .LVU155
 111:../../libdaisy/src/dev/oled_ssd130x.h ****         spi_.BlockingTransmit(&cmd, 1);
 709              		.loc 15 111 23 is_stmt 0 view .LVU156
 710 0058 FFF7FEFF 		bl	dsy_gpio_write
 711              	.LVL49:
 112:../../libdaisy/src/dev/oled_ssd130x.h ****     };
 712              		.loc 15 112 9 is_stmt 1 view .LVU157
 112:../../libdaisy/src/dev/oled_ssd130x.h ****     };
 713              		.loc 15 112 30 is_stmt 0 view .LVU158
 714 005c 6423     		movs	r3, #100
 715 005e 0122     		movs	r2, #1
 716 0060 0DF10701 		add	r1, sp, #7
 717 0064 3846     		mov	r0, r7
 718 0066 FFF7FEFF 		bl	_ZN5daisy9SpiHandle16BlockingTransmitEPhjm
 719              	.LVL50:
 112:../../libdaisy/src/dev/oled_ssd130x.h ****     };
 720              		.loc 15 112 30 view .LVU159
 721              	.LBE695:
 722              	.LBE693:
 723              	.LBB696:
 724              	.LBI696:
 115:../../libdaisy/src/dev/oled_ssd130x.h ****     {
 725              		.loc 15 115 10 is_stmt 1 view .LVU160
ARM GAS  /tmp/ccpr9r5K.s 			page 37


 726              	.LBB697:
 117:../../libdaisy/src/dev/oled_ssd130x.h ****         spi_.BlockingTransmit(buff, size);
 727              		.loc 15 117 9 view .LVU161
 117:../../libdaisy/src/dev/oled_ssd130x.h ****         spi_.BlockingTransmit(buff, size);
 728              		.loc 15 117 23 is_stmt 0 view .LVU162
 729 006a 0121     		movs	r1, #1
 730 006c 3046     		mov	r0, r6
 731 006e FFF7FEFF 		bl	dsy_gpio_write
 732              	.LVL51:
 118:../../libdaisy/src/dev/oled_ssd130x.h ****     };
 733              		.loc 15 118 9 is_stmt 1 view .LVU163
 118:../../libdaisy/src/dev/oled_ssd130x.h ****     };
 734              		.loc 15 118 30 is_stmt 0 view .LVU164
 735 0072 8022     		movs	r2, #128
 736 0074 2146     		mov	r1, r4
 737 0076 6423     		movs	r3, #100
 738 0078 3846     		mov	r0, r7
 739 007a 1444     		add	r4, r4, r2
 740              	.LVL52:
 118:../../libdaisy/src/dev/oled_ssd130x.h ****     };
 741              		.loc 15 118 30 view .LVU165
 742 007c FFF7FEFF 		bl	_ZN5daisy9SpiHandle16BlockingTransmitEPhjm
 743              	.LVL53:
 118:../../libdaisy/src/dev/oled_ssd130x.h ****     };
 744              		.loc 15 118 30 view .LVU166
 745              	.LBE697:
 746              	.LBE696:
 747              		.loc 15 270 9 is_stmt 1 view .LVU167
 748              		.loc 15 270 22 view .LVU168
 749 0080 B82D     		cmp	r5, #184
 750 0082 C7D1     		bne	.L27
 751              	.LBE698:
 752              	.LBE699:
 753              		.loc 5 50 48 is_stmt 0 view .LVU169
 754 0084 02B0     		add	sp, sp, #8
 755              		.cfi_def_cfa_offset 24
 756              		@ sp needed
 757 0086 BDE8F081 		pop	{r4, r5, r6, r7, r8, pc}
 758              		.loc 5 50 48 view .LVU170
 759              		.cfi_endproc
 760              	.LFE4554:
 762 008a 00BF     		.section	.text._ZN5daisy25OneBitGraphicsDisplayImplINS_11OledDisplayINS_13SSD130xDriverILj128ELj64
 763              		.align	1
 764              		.p2align 2,,3
 765              		.weak	_ZN5daisy25OneBitGraphicsDisplayImplINS_11OledDisplayINS_13SSD130xDriverILj128ELj64ENS_24SSD
 766              		.syntax unified
 767              		.thumb
 768              		.thumb_func
 769              		.fpu fpv5-d16
 771              	_ZN5daisy25OneBitGraphicsDisplayImplINS_11OledDisplayINS_13SSD130xDriverILj128ELj64ENS_24SSD130x4Wi
 772              	.LVL54:
 773              	.LFB4553:
 220:../../libdaisy/src/hid/disp/display.h **** 
 221:../../libdaisy/src/hid/disp/display.h ****     void DrawLine(uint_fast8_t x1,
 222:../../libdaisy/src/hid/disp/display.h ****                   uint_fast8_t y1,
 223:../../libdaisy/src/hid/disp/display.h ****                   uint_fast8_t x2,
 224:../../libdaisy/src/hid/disp/display.h ****                   uint_fast8_t y2,
ARM GAS  /tmp/ccpr9r5K.s 			page 38


 225:../../libdaisy/src/hid/disp/display.h ****                   bool         on) override
 226:../../libdaisy/src/hid/disp/display.h ****     {
 227:../../libdaisy/src/hid/disp/display.h ****         int_fast16_t deltaX = abs((int_fast16_t)x2 - (int_fast16_t)x1);
 228:../../libdaisy/src/hid/disp/display.h ****         int_fast16_t deltaY = abs((int_fast16_t)y2 - (int_fast16_t)y1);
 229:../../libdaisy/src/hid/disp/display.h ****         int_fast16_t signX  = ((x1 < x2) ? 1 : -1);
 230:../../libdaisy/src/hid/disp/display.h ****         int_fast16_t signY  = ((y1 < y2) ? 1 : -1);
 231:../../libdaisy/src/hid/disp/display.h ****         int_fast16_t error  = deltaX - deltaY;
 232:../../libdaisy/src/hid/disp/display.h ****         int_fast16_t error2;
 233:../../libdaisy/src/hid/disp/display.h **** 
 234:../../libdaisy/src/hid/disp/display.h ****         // If we write "ChildType::DrawPixel(x2, y2, on);", we end up with
 235:../../libdaisy/src/hid/disp/display.h ****         // all sorts of weird compiler errors when the Child class is a template
 236:../../libdaisy/src/hid/disp/display.h ****         // class. The only way around this is to use this very verbose syntax:
 237:../../libdaisy/src/hid/disp/display.h ****         ((ChildType*)(this))->ChildType::DrawPixel(x2, y2, on);
 238:../../libdaisy/src/hid/disp/display.h **** 
 239:../../libdaisy/src/hid/disp/display.h ****         while((x1 != x2) || (y1 != y2))
 240:../../libdaisy/src/hid/disp/display.h ****         {
 241:../../libdaisy/src/hid/disp/display.h ****             ((ChildType*)(this))->ChildType::DrawPixel(x1, y1, on);
 242:../../libdaisy/src/hid/disp/display.h ****             error2 = error * 2;
 243:../../libdaisy/src/hid/disp/display.h ****             if(error2 > -deltaY)
 244:../../libdaisy/src/hid/disp/display.h ****             {
 245:../../libdaisy/src/hid/disp/display.h ****                 error -= deltaY;
 246:../../libdaisy/src/hid/disp/display.h ****                 x1 += signX;
 247:../../libdaisy/src/hid/disp/display.h ****             }
 248:../../libdaisy/src/hid/disp/display.h **** 
 249:../../libdaisy/src/hid/disp/display.h ****             if(error2 < deltaX)
 250:../../libdaisy/src/hid/disp/display.h ****             {
 251:../../libdaisy/src/hid/disp/display.h ****                 error += deltaX;
 252:../../libdaisy/src/hid/disp/display.h ****                 y1 += signY;
 253:../../libdaisy/src/hid/disp/display.h ****             }
 254:../../libdaisy/src/hid/disp/display.h ****         }
 255:../../libdaisy/src/hid/disp/display.h ****     }
 256:../../libdaisy/src/hid/disp/display.h **** 
 257:../../libdaisy/src/hid/disp/display.h ****     void DrawRect(uint_fast8_t x1,
 258:../../libdaisy/src/hid/disp/display.h ****                   uint_fast8_t y1,
 259:../../libdaisy/src/hid/disp/display.h ****                   uint_fast8_t x2,
 260:../../libdaisy/src/hid/disp/display.h ****                   uint_fast8_t y2,
 261:../../libdaisy/src/hid/disp/display.h ****                   bool         on,
 262:../../libdaisy/src/hid/disp/display.h ****                   bool         fill = false) override
 263:../../libdaisy/src/hid/disp/display.h ****     {
 264:../../libdaisy/src/hid/disp/display.h ****         if(fill)
 265:../../libdaisy/src/hid/disp/display.h ****         {
 266:../../libdaisy/src/hid/disp/display.h ****             for(uint_fast8_t x = x1; x <= x2; x++)
 267:../../libdaisy/src/hid/disp/display.h ****             {
 268:../../libdaisy/src/hid/disp/display.h ****                 for(uint_fast8_t y = y1; y <= y2; y++)
 269:../../libdaisy/src/hid/disp/display.h ****                 {
 270:../../libdaisy/src/hid/disp/display.h ****                     ((ChildType*)(this))->ChildType::DrawPixel(x, y, on);
 271:../../libdaisy/src/hid/disp/display.h ****                 }
 272:../../libdaisy/src/hid/disp/display.h ****             }
 273:../../libdaisy/src/hid/disp/display.h ****         }
 274:../../libdaisy/src/hid/disp/display.h ****         else
 275:../../libdaisy/src/hid/disp/display.h ****         {
 276:../../libdaisy/src/hid/disp/display.h ****             ((ChildType*)(this))->ChildType::DrawLine(x1, y1, x2, y1, on);
 277:../../libdaisy/src/hid/disp/display.h ****             ((ChildType*)(this))->ChildType::DrawLine(x2, y1, x2, y2, on);
 278:../../libdaisy/src/hid/disp/display.h ****             ((ChildType*)(this))->ChildType::DrawLine(x2, y2, x1, y2, on);
 279:../../libdaisy/src/hid/disp/display.h ****             ((ChildType*)(this))->ChildType::DrawLine(x1, y2, x1, y1, on);
 280:../../libdaisy/src/hid/disp/display.h ****         }
 281:../../libdaisy/src/hid/disp/display.h ****     }
ARM GAS  /tmp/ccpr9r5K.s 			page 39


 282:../../libdaisy/src/hid/disp/display.h **** 
 283:../../libdaisy/src/hid/disp/display.h ****     void DrawArc(uint_fast8_t x,
 284:../../libdaisy/src/hid/disp/display.h ****                  uint_fast8_t y,
 285:../../libdaisy/src/hid/disp/display.h ****                  uint_fast8_t radius,
 286:../../libdaisy/src/hid/disp/display.h ****                  int_fast16_t start_angle,
 287:../../libdaisy/src/hid/disp/display.h ****                  int_fast16_t sweep,
 288:../../libdaisy/src/hid/disp/display.h ****                  bool         on) override
 289:../../libdaisy/src/hid/disp/display.h ****     {
 290:../../libdaisy/src/hid/disp/display.h ****         // Values to calculate the circle
 291:../../libdaisy/src/hid/disp/display.h ****         int_fast16_t t_x, t_y, err, e2;
 292:../../libdaisy/src/hid/disp/display.h **** 
 293:../../libdaisy/src/hid/disp/display.h ****         // Temporary values to speed up comparisons
 294:../../libdaisy/src/hid/disp/display.h ****         float t_sxy, t_syx, t_sxny, t_synx;
 295:../../libdaisy/src/hid/disp/display.h ****         float t_exy, t_eyx, t_exny, t_eynx;
 296:../../libdaisy/src/hid/disp/display.h **** 
 297:../../libdaisy/src/hid/disp/display.h ****         float start_angle_rad, end_angle_rad;
 298:../../libdaisy/src/hid/disp/display.h ****         float start_x, start_y, end_x, end_y;
 299:../../libdaisy/src/hid/disp/display.h **** 
 300:../../libdaisy/src/hid/disp/display.h ****         bool d1, d2, d3, d4;
 301:../../libdaisy/src/hid/disp/display.h **** 
 302:../../libdaisy/src/hid/disp/display.h ****         d1 = d2 = d3 = d4 = true;
 303:../../libdaisy/src/hid/disp/display.h **** 
 304:../../libdaisy/src/hid/disp/display.h ****         bool circle = false;
 305:../../libdaisy/src/hid/disp/display.h **** 
 306:../../libdaisy/src/hid/disp/display.h ****         if(sweep < 0)
 307:../../libdaisy/src/hid/disp/display.h ****         {
 308:../../libdaisy/src/hid/disp/display.h ****             start_angle += sweep;
 309:../../libdaisy/src/hid/disp/display.h ****             sweep = -sweep;
 310:../../libdaisy/src/hid/disp/display.h ****         }
 311:../../libdaisy/src/hid/disp/display.h **** 
 312:../../libdaisy/src/hid/disp/display.h ****         start_angle_rad = deg2rad(start_angle);
 313:../../libdaisy/src/hid/disp/display.h ****         end_angle_rad   = deg2rad(start_angle + sweep);
 314:../../libdaisy/src/hid/disp/display.h **** 
 315:../../libdaisy/src/hid/disp/display.h ****         start_x = cos(start_angle_rad) * radius;
 316:../../libdaisy/src/hid/disp/display.h ****         start_y = -sin(start_angle_rad) * radius;
 317:../../libdaisy/src/hid/disp/display.h ****         end_x   = cos(end_angle_rad) * radius;
 318:../../libdaisy/src/hid/disp/display.h ****         end_y   = -sin(end_angle_rad) * radius;
 319:../../libdaisy/src/hid/disp/display.h **** 
 320:../../libdaisy/src/hid/disp/display.h ****         // Check if start and endpoint are very near
 321:../../libdaisy/src/hid/disp/display.h ****         if((end_x - start_x) * (end_x - start_x)
 322:../../libdaisy/src/hid/disp/display.h ****                + (end_y - start_y) * (end_y - start_y)
 323:../../libdaisy/src/hid/disp/display.h ****            < 2.0f)
 324:../../libdaisy/src/hid/disp/display.h ****         {
 325:../../libdaisy/src/hid/disp/display.h ****             if(sweep > 180)
 326:../../libdaisy/src/hid/disp/display.h ****                 circle = true;
 327:../../libdaisy/src/hid/disp/display.h ****             else
 328:../../libdaisy/src/hid/disp/display.h ****                 // Nothing to draw
 329:../../libdaisy/src/hid/disp/display.h ****                 return;
 330:../../libdaisy/src/hid/disp/display.h ****         }
 331:../../libdaisy/src/hid/disp/display.h **** 
 332:../../libdaisy/src/hid/disp/display.h ****         t_x = -radius;
 333:../../libdaisy/src/hid/disp/display.h ****         t_y = 0;
 334:../../libdaisy/src/hid/disp/display.h ****         err = 2 - 2 * radius;
 335:../../libdaisy/src/hid/disp/display.h **** 
 336:../../libdaisy/src/hid/disp/display.h ****         do
 337:../../libdaisy/src/hid/disp/display.h ****         {
 338:../../libdaisy/src/hid/disp/display.h ****             if(!circle)
ARM GAS  /tmp/ccpr9r5K.s 			page 40


 339:../../libdaisy/src/hid/disp/display.h ****             {
 340:../../libdaisy/src/hid/disp/display.h ****                 t_sxy  = start_x * t_y;
 341:../../libdaisy/src/hid/disp/display.h ****                 t_syx  = start_y * t_x;
 342:../../libdaisy/src/hid/disp/display.h ****                 t_sxny = start_x * -t_y;
 343:../../libdaisy/src/hid/disp/display.h ****                 t_synx = start_y * -t_x;
 344:../../libdaisy/src/hid/disp/display.h ****                 t_exy  = end_x * t_y;
 345:../../libdaisy/src/hid/disp/display.h ****                 t_eyx  = end_y * t_x;
 346:../../libdaisy/src/hid/disp/display.h ****                 t_exny = end_x * -t_y;
 347:../../libdaisy/src/hid/disp/display.h ****                 t_eynx = end_y * -t_x;
 348:../../libdaisy/src/hid/disp/display.h **** 
 349:../../libdaisy/src/hid/disp/display.h ****                 if(sweep > 180)
 350:../../libdaisy/src/hid/disp/display.h ****                 {
 351:../../libdaisy/src/hid/disp/display.h ****                     d1 = (t_sxy - t_synx < 0 || t_exy - t_eynx > 0);
 352:../../libdaisy/src/hid/disp/display.h ****                     d2 = (t_sxy - t_syx < 0 || t_exy - t_eyx > 0);
 353:../../libdaisy/src/hid/disp/display.h ****                     d3 = (t_sxny - t_syx < 0 || t_exny - t_eyx > 0);
 354:../../libdaisy/src/hid/disp/display.h ****                     d4 = (t_sxny - t_synx < 0 || t_exny - t_eynx > 0);
 355:../../libdaisy/src/hid/disp/display.h ****                 }
 356:../../libdaisy/src/hid/disp/display.h ****                 else
 357:../../libdaisy/src/hid/disp/display.h ****                 {
 358:../../libdaisy/src/hid/disp/display.h ****                     d1 = (t_sxy - t_synx < 0 && t_exy - t_eynx > 0);
 359:../../libdaisy/src/hid/disp/display.h ****                     d2 = (t_sxy - t_syx < 0 && t_exy - t_eyx > 0);
 360:../../libdaisy/src/hid/disp/display.h ****                     d3 = (t_sxny - t_syx < 0 && t_exny - t_eyx > 0);
 361:../../libdaisy/src/hid/disp/display.h ****                     d4 = (t_sxny - t_synx < 0 && t_exny - t_eynx > 0);
 362:../../libdaisy/src/hid/disp/display.h ****                 }
 363:../../libdaisy/src/hid/disp/display.h ****             }
 364:../../libdaisy/src/hid/disp/display.h **** 
 365:../../libdaisy/src/hid/disp/display.h ****             if(d1)
 366:../../libdaisy/src/hid/disp/display.h ****                 ((ChildType*)(this))
 367:../../libdaisy/src/hid/disp/display.h ****                     ->ChildType::DrawPixel(x - t_x, y + t_y, on);
 368:../../libdaisy/src/hid/disp/display.h ****             if(d2)
 369:../../libdaisy/src/hid/disp/display.h ****                 ((ChildType*)(this))
 370:../../libdaisy/src/hid/disp/display.h ****                     ->ChildType::DrawPixel(x + t_x, y + t_y, on);
 371:../../libdaisy/src/hid/disp/display.h ****             if(d3)
 372:../../libdaisy/src/hid/disp/display.h ****                 ((ChildType*)(this))
 373:../../libdaisy/src/hid/disp/display.h ****                     ->ChildType::DrawPixel(x + t_x, y - t_y, on);
 374:../../libdaisy/src/hid/disp/display.h ****             if(d4)
 375:../../libdaisy/src/hid/disp/display.h ****                 ((ChildType*)(this))
 376:../../libdaisy/src/hid/disp/display.h ****                     ->ChildType::DrawPixel(x - t_x, y - t_y, on);
 377:../../libdaisy/src/hid/disp/display.h **** 
 378:../../libdaisy/src/hid/disp/display.h ****             e2 = err;
 379:../../libdaisy/src/hid/disp/display.h ****             if(e2 <= t_y)
 380:../../libdaisy/src/hid/disp/display.h ****             {
 381:../../libdaisy/src/hid/disp/display.h ****                 t_y++;
 382:../../libdaisy/src/hid/disp/display.h ****                 err = err + (t_y * 2 + 1);
 383:../../libdaisy/src/hid/disp/display.h ****                 if(-t_x == t_y && e2 <= t_x)
 384:../../libdaisy/src/hid/disp/display.h ****                 {
 385:../../libdaisy/src/hid/disp/display.h ****                     e2 = 0;
 386:../../libdaisy/src/hid/disp/display.h ****                 }
 387:../../libdaisy/src/hid/disp/display.h ****             }
 388:../../libdaisy/src/hid/disp/display.h ****             if(e2 > t_x)
 389:../../libdaisy/src/hid/disp/display.h ****             {
 390:../../libdaisy/src/hid/disp/display.h ****                 t_x++;
 391:../../libdaisy/src/hid/disp/display.h ****                 err = err + (t_x * 2 + 1);
 392:../../libdaisy/src/hid/disp/display.h ****             }
 393:../../libdaisy/src/hid/disp/display.h ****         } while(t_x <= 0);
 394:../../libdaisy/src/hid/disp/display.h ****     }
 395:../../libdaisy/src/hid/disp/display.h **** 
ARM GAS  /tmp/ccpr9r5K.s 			page 41


 396:../../libdaisy/src/hid/disp/display.h ****     char WriteChar(char ch, FontDef font, bool on) override
 397:../../libdaisy/src/hid/disp/display.h ****     {
 398:../../libdaisy/src/hid/disp/display.h ****         uint32_t i, b, j;
 399:../../libdaisy/src/hid/disp/display.h **** 
 400:../../libdaisy/src/hid/disp/display.h ****         // Check if character is valid
 401:../../libdaisy/src/hid/disp/display.h ****         if(ch < 32 || ch > 126)
 402:../../libdaisy/src/hid/disp/display.h ****             return 0;
 403:../../libdaisy/src/hid/disp/display.h **** 
 404:../../libdaisy/src/hid/disp/display.h ****         // Check remaining space on current line
 405:../../libdaisy/src/hid/disp/display.h ****         if(Width() < (currentX_ + font.FontWidth)
 406:../../libdaisy/src/hid/disp/display.h ****            || Height() < (currentY_ + font.FontHeight))
 407:../../libdaisy/src/hid/disp/display.h ****         {
 408:../../libdaisy/src/hid/disp/display.h ****             // Not enough space on current line
 409:../../libdaisy/src/hid/disp/display.h ****             return 0;
 410:../../libdaisy/src/hid/disp/display.h ****         }
 411:../../libdaisy/src/hid/disp/display.h **** 
 412:../../libdaisy/src/hid/disp/display.h ****         // Use the font to write
 413:../../libdaisy/src/hid/disp/display.h ****         for(i = 0; i < font.FontHeight; i++)
 414:../../libdaisy/src/hid/disp/display.h ****         {
 415:../../libdaisy/src/hid/disp/display.h ****             b = font.data[(ch - 32) * font.FontHeight + i];
 416:../../libdaisy/src/hid/disp/display.h ****             for(j = 0; j < font.FontWidth; j++)
 417:../../libdaisy/src/hid/disp/display.h ****             {
 418:../../libdaisy/src/hid/disp/display.h ****                 if((b << j) & 0x8000)
 419:../../libdaisy/src/hid/disp/display.h ****                 {
 420:../../libdaisy/src/hid/disp/display.h ****                     ((ChildType*)(this))
 421:../../libdaisy/src/hid/disp/display.h ****                         ->ChildType::DrawPixel(
 422:../../libdaisy/src/hid/disp/display.h ****                             currentX_ + j, (currentY_ + i), on);
 423:../../libdaisy/src/hid/disp/display.h ****                 }
 424:../../libdaisy/src/hid/disp/display.h ****                 else
 425:../../libdaisy/src/hid/disp/display.h ****                 {
 426:../../libdaisy/src/hid/disp/display.h ****                     ((ChildType*)(this))
 427:../../libdaisy/src/hid/disp/display.h ****                         ->ChildType::DrawPixel(
 428:../../libdaisy/src/hid/disp/display.h ****                             currentX_ + j, (currentY_ + i), !on);
 429:../../libdaisy/src/hid/disp/display.h ****                 }
 430:../../libdaisy/src/hid/disp/display.h ****             }
 431:../../libdaisy/src/hid/disp/display.h ****         }
 432:../../libdaisy/src/hid/disp/display.h **** 
 433:../../libdaisy/src/hid/disp/display.h ****         // The current space is now taken
 434:../../libdaisy/src/hid/disp/display.h ****         SetCursor(currentX_ + font.FontWidth, currentY_);
 435:../../libdaisy/src/hid/disp/display.h **** 
 436:../../libdaisy/src/hid/disp/display.h ****         // Return written char for validation
 437:../../libdaisy/src/hid/disp/display.h ****         return ch;
 438:../../libdaisy/src/hid/disp/display.h ****     }
 439:../../libdaisy/src/hid/disp/display.h **** 
 440:../../libdaisy/src/hid/disp/display.h ****     char WriteString(const char* str, FontDef font, bool on) override
 774              		.loc 6 440 10 is_stmt 1 view -0
 775              		.cfi_startproc
 776              		@ args = 4, pretend = 0, frame = 32
 777              		@ frame_needed = 0, uses_anonymous_args = 0
 778              		.loc 6 440 10 is_stmt 0 view .LVU172
 779 0000 2DE9F04F 		push	{r4, r5, r6, r7, r8, r9, r10, fp, lr}
 780              		.cfi_def_cfa_offset 36
 781              		.cfi_offset 4, -36
 782              		.cfi_offset 5, -32
 783              		.cfi_offset 6, -28
 784              		.cfi_offset 7, -24
 785              		.cfi_offset 8, -20
ARM GAS  /tmp/ccpr9r5K.s 			page 42


 786              		.cfi_offset 9, -16
 787              		.cfi_offset 10, -12
 788              		.cfi_offset 11, -8
 789              		.cfi_offset 14, -4
 790 0004 89B0     		sub	sp, sp, #36
 791              		.cfi_def_cfa_offset 72
 792              		.loc 6 440 10 view .LVU173
 793 0006 8B46     		mov	fp, r1
 441:../../libdaisy/src/hid/disp/display.h ****     {
 442:../../libdaisy/src/hid/disp/display.h ****         // Write until null-byte
 443:../../libdaisy/src/hid/disp/display.h ****         while(*str)
 794              		.loc 6 443 9 is_stmt 1 view .LVU174
 795 0008 91F80090 		ldrb	r9, [r1]	@ zero_extendqisi2
 440:../../libdaisy/src/hid/disp/display.h ****     {
 796              		.loc 6 440 10 is_stmt 0 view .LVU175
 797 000c 9DF84840 		ldrb	r4, [sp, #72]	@ zero_extendqisi2
 798 0010 08A9     		add	r1, sp, #32
 799              	.LVL55:
 440:../../libdaisy/src/hid/disp/display.h ****     {
 800              		.loc 6 440 10 view .LVU176
 801 0012 0494     		str	r4, [sp, #16]
 802 0014 01E90C00 		stmdb	r1, {r2, r3}
 803              		.loc 6 443 9 view .LVU177
 804 0018 B9F1000F 		cmp	r9, #0
 805 001c 00F0B780 		beq	.L54
 806 0020 9DF81930 		ldrb	r3, [sp, #25]	@ zero_extendqisi2
 807 0024 8046     		mov	r8, r0
 808 0026 9DF818A0 		ldrb	r10, [sp, #24]	@ zero_extendqisi2
 809 002a 4D46     		mov	r5, r9
 810 002c 0193     		str	r3, [sp, #4]
 811 002e 079B     		ldr	r3, [sp, #28]
 812 0030 0593     		str	r3, [sp, #20]
 813              	.LVL56:
 814              	.L55:
 815              	.LBB728:
 816              	.LBI728:
 396:../../libdaisy/src/hid/disp/display.h ****     {
 817              		.loc 6 396 10 is_stmt 1 view .LVU178
 818              	.LBB729:
 401:../../libdaisy/src/hid/disp/display.h ****             return 0;
 819              		.loc 6 401 20 is_stmt 0 view .LVU179
 820 0032 A5F12004 		sub	r4, r5, #32
 401:../../libdaisy/src/hid/disp/display.h ****             return 0;
 821              		.loc 6 401 9 view .LVU180
 822 0036 E3B2     		uxtb	r3, r4
 823 0038 5E2B     		cmp	r3, #94
 824 003a 00F2AC80 		bhi	.L36
 405:../../libdaisy/src/hid/disp/display.h ****            || Height() < (currentY_ + font.FontHeight))
 825              		.loc 6 405 17 view .LVU181
 826 003e D8F80030 		ldr	r3, [r8]
 827 0042 654A     		ldr	r2, .L76
 828 0044 DB68     		ldr	r3, [r3, #12]
 829 0046 9342     		cmp	r3, r2
 830 0048 40F0A780 		bne	.L69
 831 004c 8020     		movs	r0, #128
 832              	.L35:
 405:../../libdaisy/src/hid/disp/display.h ****            || Height() < (currentY_ + font.FontHeight))
ARM GAS  /tmp/ccpr9r5K.s 			page 43


 833              		.loc 6 405 23 view .LVU182
 834 004e B8F80430 		ldrh	r3, [r8, #4]
 405:../../libdaisy/src/hid/disp/display.h ****            || Height() < (currentY_ + font.FontHeight))
 835              		.loc 6 405 33 view .LVU183
 836 0052 5344     		add	r3, r3, r10
 406:../../libdaisy/src/hid/disp/display.h ****         {
 837              		.loc 6 406 12 view .LVU184
 838 0054 8342     		cmp	r3, r0
 839 0056 00F39E80 		bgt	.L36
 406:../../libdaisy/src/hid/disp/display.h ****         {
 840              		.loc 6 406 21 view .LVU185
 841 005a D8F80030 		ldr	r3, [r8]
 842 005e 5F4A     		ldr	r2, .L76+4
 843 0060 9B68     		ldr	r3, [r3, #8]
 844 0062 9342     		cmp	r3, r2
 845 0064 40F09C80 		bne	.L70
 846 0068 4020     		movs	r0, #64
 847              	.L37:
 406:../../libdaisy/src/hid/disp/display.h ****         {
 848              		.loc 6 406 27 view .LVU186
 849 006a B8F80610 		ldrh	r1, [r8, #6]
 406:../../libdaisy/src/hid/disp/display.h ****         {
 850              		.loc 6 406 37 view .LVU187
 851 006e 019A     		ldr	r2, [sp, #4]
 406:../../libdaisy/src/hid/disp/display.h ****         {
 852              		.loc 6 406 27 view .LVU188
 853 0070 0091     		str	r1, [sp]
 406:../../libdaisy/src/hid/disp/display.h ****         {
 854              		.loc 6 406 37 view .LVU189
 855 0072 8B18     		adds	r3, r1, r2
 406:../../libdaisy/src/hid/disp/display.h ****         {
 856              		.loc 6 406 12 view .LVU190
 857 0074 8342     		cmp	r3, r0
 858 0076 00F38E80 		bgt	.L36
 859              	.LVL57:
 413:../../libdaisy/src/hid/disp/display.h ****         {
 860              		.loc 6 413 22 is_stmt 1 view .LVU191
 861 007a 1046     		mov	r0, r2
 862 007c 002A     		cmp	r2, #0
 863 007e 00F09A80 		beq	.L38
 415:../../libdaisy/src/hid/disp/display.h ****             for(j = 0; j < font.FontWidth; j++)
 864              		.loc 6 415 37 is_stmt 0 view .LVU192
 865 0082 1346     		mov	r3, r2
 866 0084 6FF00046 		mvn	r6, #-2147483648
 867 0088 B8F80470 		ldrh	r7, [r8, #4]
 868 008c 03FB04F3 		mul	r3, r3, r4
 869 0090 059C     		ldr	r4, [sp, #20]
 870 0092 BE46     		mov	lr, r7
 871 0094 CDF80CB0 		str	fp, [sp, #12]
 872 0098 1E44     		add	r6, r6, r3
 873 009a A21E     		subs	r2, r4, #2
 874 009c 0344     		add	r3, r3, r0
 875 009e 5746     		mov	r7, r10
 876 00a0 04EB4606 		add	r6, r4, r6, lsl #1
 877 00a4 DDF81090 		ldr	r9, [sp, #16]
 878 00a8 02EB4303 		add	r3, r2, r3, lsl #1
 879 00ac 0295     		str	r5, [sp, #8]
ARM GAS  /tmp/ccpr9r5K.s 			page 44


 880 00ae 9B46     		mov	fp, r3
 881              	.LVL58:
 882              	.L41:
 415:../../libdaisy/src/hid/disp/display.h ****             for(j = 0; j < font.FontWidth; j++)
 883              		.loc 6 415 13 view .LVU193
 884 00b0 36F802AF 		ldrh	r10, [r6, #2]!
 885              	.LVL59:
 416:../../libdaisy/src/hid/disp/display.h ****             {
 886              		.loc 6 416 26 is_stmt 1 view .LVU194
 887 00b4 A7B3     		cbz	r7, .L46
 888              	.LBB730:
 889              	.LBB731:
 890              	.LBB732:
 891              	.LBB733:
 892              	.LBB734:
 246:../../libdaisy/src/dev/oled_ssd130x.h ****     }
 893              		.loc 15 246 49 is_stmt 0 view .LVU195
 894 00b6 0124     		movs	r4, #1
 246:../../libdaisy/src/dev/oled_ssd130x.h ****     }
 895              		.loc 15 246 55 view .LVU196
 896 00b8 01F00702 		and	r2, r1, #7
 246:../../libdaisy/src/dev/oled_ssd130x.h ****     }
 897              		.loc 15 246 28 view .LVU197
 898 00bc C808     		lsrs	r0, r1, #3
 899 00be 0EF11403 		add	r3, lr, #20
 246:../../libdaisy/src/dev/oled_ssd130x.h ****     }
 900              		.loc 15 246 49 view .LVU198
 901 00c2 04FA02F2 		lsl	r2, r4, r2
 902 00c6 7446     		mov	r4, lr
 903 00c8 03EBC013 		add	r3, r3, r0, lsl #7
 904              	.LBE734:
 905              	.LBE733:
 906              	.LBE732:
 907              	.LBE731:
 908              	.LBE730:
 416:../../libdaisy/src/hid/disp/display.h ****             {
 909              		.loc 6 416 19 view .LVU199
 910 00cc 0020     		movs	r0, #0
 911              	.LBB752:
 912              	.LBB747:
 913              	.LBB742:
 914              	.LBB738:
 915              	.LBB735:
 246:../../libdaisy/src/dev/oled_ssd130x.h ****     }
 916              		.loc 15 246 42 view .LVU200
 917 00ce 52B2     		sxtb	r2, r2
 918 00d0 4344     		add	r3, r3, r8
 919 00d2 6FEA020C 		mvn	ip, r2
 920 00d6 0EE0     		b	.L47
 921              	.LVL60:
 922              	.L71:
 246:../../libdaisy/src/dev/oled_ssd130x.h ****     }
 923              		.loc 15 246 42 view .LVU201
 924              	.LBE735:
 925              	.LBE738:
 926              	.LBE742:
 927              	.LBE747:
ARM GAS  /tmp/ccpr9r5K.s 			page 45


 928              	.LBE752:
 929              	.LBB753:
 930              	.LBI753:
  41:../../libdaisy/src/hid/disp/oled_display.h ****     {
 931              		.loc 5 41 10 is_stmt 1 view .LVU202
 932              	.LBB754:
 933              	.LBI754:
 239:../../libdaisy/src/dev/oled_ssd130x.h ****     {
 934              		.loc 15 239 10 view .LVU203
 935              	.LBB755:
 241:../../libdaisy/src/dev/oled_ssd130x.h ****             return;
 936              		.loc 15 241 9 is_stmt 0 view .LVU204
 937 00d8 7F2C     		cmp	r4, #127
 938 00da 07D8     		bhi	.L43
 939 00dc 3F29     		cmp	r1, #63
 940 00de 05D8     		bhi	.L43
 244:../../libdaisy/src/dev/oled_ssd130x.h ****         else
 941              		.loc 15 244 42 view .LVU205
 942 00e0 1D78     		ldrb	r5, [r3]	@ zero_extendqisi2
 243:../../libdaisy/src/dev/oled_ssd130x.h ****             buffer_[x + (y / 8) * width] |= (1 << (y % 8));
 943              		.loc 15 243 9 view .LVU206
 944 00e2 B9F1000F 		cmp	r9, #0
 945 00e6 12D0     		beq	.L45
 946              	.L68:
 243:../../libdaisy/src/dev/oled_ssd130x.h ****             buffer_[x + (y / 8) * width] |= (1 << (y % 8));
 947              		.loc 15 243 9 view .LVU207
 948              	.LBE755:
 949              	.LBE754:
 950              	.LBE753:
 951              	.LBB756:
 952              	.LBB748:
 953              	.LBB743:
 244:../../libdaisy/src/dev/oled_ssd130x.h ****         else
 954              		.loc 15 244 42 view .LVU208
 955 00e8 1543     		orrs	r5, r5, r2
 244:../../libdaisy/src/dev/oled_ssd130x.h ****         else
 956              		.loc 15 244 13 view .LVU209
 957 00ea 1D70     		strb	r5, [r3]
 958              	.L43:
 959              	.LBE743:
 960              	.LBE748:
 961              	.LBE756:
 416:../../libdaisy/src/hid/disp/display.h ****             {
 962              		.loc 6 416 13 is_stmt 1 view .LVU210
 963 00ec 0130     		adds	r0, r0, #1
 964              	.LVL61:
 416:../../libdaisy/src/hid/disp/display.h ****             {
 965              		.loc 6 416 26 view .LVU211
 966 00ee 0133     		adds	r3, r3, #1
 967 00f0 0134     		adds	r4, r4, #1
 968 00f2 B842     		cmp	r0, r7
 969 00f4 14D0     		beq	.L46
 970              	.LVL62:
 971              	.L47:
 418:../../libdaisy/src/hid/disp/display.h ****                 {
 972              		.loc 6 418 23 is_stmt 0 view .LVU212
 973 00f6 0AFA00F5 		lsl	r5, r10, r0
ARM GAS  /tmp/ccpr9r5K.s 			page 46


 418:../../libdaisy/src/hid/disp/display.h ****                 {
 974              		.loc 6 418 17 view .LVU213
 975 00fa 2D04     		lsls	r5, r5, #16
 976 00fc ECD4     		bmi	.L71
 977              	.LVL63:
 978              	.LBB757:
 979              	.LBI730:
  41:../../libdaisy/src/hid/disp/oled_display.h ****     {
 980              		.loc 5 41 10 is_stmt 1 view .LVU214
 981              	.LBB749:
 982              	.LBI731:
 239:../../libdaisy/src/dev/oled_ssd130x.h ****     {
 983              		.loc 15 239 10 view .LVU215
 984              	.LBB744:
 241:../../libdaisy/src/dev/oled_ssd130x.h ****             return;
 985              		.loc 15 241 9 is_stmt 0 view .LVU216
 986 00fe 7F2C     		cmp	r4, #127
 987 0100 F4D8     		bhi	.L43
 988 0102 3F29     		cmp	r1, #63
 989 0104 F2D8     		bhi	.L43
 244:../../libdaisy/src/dev/oled_ssd130x.h ****         else
 990              		.loc 15 244 42 view .LVU217
 991 0106 1D78     		ldrb	r5, [r3]	@ zero_extendqisi2
 243:../../libdaisy/src/dev/oled_ssd130x.h ****             buffer_[x + (y / 8) * width] |= (1 << (y % 8));
 992              		.loc 15 243 9 view .LVU218
 993 0108 B9F1000F 		cmp	r9, #0
 994 010c ECD0     		beq	.L68
 995              	.L45:
 996              	.LVL64:
 997              	.LBB739:
 998              	.LBI733:
 239:../../libdaisy/src/dev/oled_ssd130x.h ****     {
 999              		.loc 15 239 10 is_stmt 1 view .LVU219
 239:../../libdaisy/src/dev/oled_ssd130x.h ****     {
 1000              		.loc 15 239 10 is_stmt 0 view .LVU220
 1001              	.LBE739:
 1002              	.LBE744:
 1003              	.LBE749:
 1004              	.LBE757:
 416:../../libdaisy/src/hid/disp/display.h ****             {
 1005              		.loc 6 416 13 view .LVU221
 1006 010e 0130     		adds	r0, r0, #1
 1007              	.LVL65:
 1008              	.LBB758:
 1009              	.LBB750:
 1010              	.LBB745:
 1011              	.LBB740:
 1012              	.LBB736:
 246:../../libdaisy/src/dev/oled_ssd130x.h ****     }
 1013              		.loc 15 246 42 view .LVU222
 1014 0110 0CEA0505 		and	r5, ip, r5
 1015 0114 0133     		adds	r3, r3, #1
 1016 0116 0134     		adds	r4, r4, #1
 1017              	.LBE736:
 1018              	.LBE740:
 1019              	.LBE745:
 1020              	.LBE750:
ARM GAS  /tmp/ccpr9r5K.s 			page 47


 1021              	.LBE758:
 416:../../libdaisy/src/hid/disp/display.h ****             {
 1022              		.loc 6 416 26 view .LVU223
 1023 0118 B842     		cmp	r0, r7
 1024              	.LBB759:
 1025              	.LBB751:
 1026              	.LBB746:
 1027              	.LBB741:
 1028              	.LBB737:
 246:../../libdaisy/src/dev/oled_ssd130x.h ****     }
 1029              		.loc 15 246 13 view .LVU224
 1030 011a 03F8015C 		strb	r5, [r3, #-1]
 246:../../libdaisy/src/dev/oled_ssd130x.h ****     }
 1031              		.loc 15 246 13 view .LVU225
 1032              	.LBE737:
 1033              	.LBE741:
 1034              	.LBE746:
 1035              	.LBE751:
 1036              	.LBE759:
 416:../../libdaisy/src/hid/disp/display.h ****             {
 1037              		.loc 6 416 13 is_stmt 1 view .LVU226
 1038              	.LVL66:
 416:../../libdaisy/src/hid/disp/display.h ****             {
 1039              		.loc 6 416 26 view .LVU227
 1040 011e EAD1     		bne	.L47
 1041              	.LVL67:
 1042              	.L46:
 413:../../libdaisy/src/hid/disp/display.h ****         {
 1043              		.loc 6 413 9 view .LVU228
 413:../../libdaisy/src/hid/disp/display.h ****         {
 1044              		.loc 6 413 22 view .LVU229
 1045 0120 5E45     		cmp	r6, fp
 1046 0122 01F10101 		add	r1, r1, #1
 1047 0126 C3D1     		bne	.L41
 1048 0128 BA46     		mov	r10, r7
 1049              	.LVL68:
 413:../../libdaisy/src/hid/disp/display.h ****         {
 1050              		.loc 6 413 22 is_stmt 0 view .LVU230
 1051 012a 029D     		ldr	r5, [sp, #8]
 1052 012c 7746     		mov	r7, lr
 1053 012e DDF80CB0 		ldr	fp, [sp, #12]
 1054              	.L40:
 1055              	.LBB760:
 1056              	.LBB761:
 173:../../libdaisy/src/hid/disp/display.h ****         currentY_ = (y >= Height()) ? Height() - 1 : y;
 1057              		.loc 6 173 33 view .LVU231
 1058 0132 D8F80020 		ldr	r2, [r8]
 1059              	.LBE761:
 1060              	.LBE760:
 434:../../libdaisy/src/hid/disp/display.h **** 
 1061              		.loc 6 434 18 view .LVU232
 1062 0136 5744     		add	r7, r7, r10
 1063 0138 2749     		ldr	r1, .L76
 1064              	.LBB765:
 1065              	.LBB762:
 173:../../libdaisy/src/hid/disp/display.h ****         currentY_ = (y >= Height()) ? Height() - 1 : y;
 1066              		.loc 6 173 33 view .LVU233
ARM GAS  /tmp/ccpr9r5K.s 			page 48


 1067 013a D368     		ldr	r3, [r2, #12]
 1068              	.LBE762:
 1069              	.LBE765:
 434:../../libdaisy/src/hid/disp/display.h **** 
 1070              		.loc 6 434 18 view .LVU234
 1071 013c BFB2     		uxth	r7, r7
 1072              	.LVL69:
 1073              	.LBB766:
 1074              	.LBI760:
 171:../../libdaisy/src/hid/disp/display.h ****     {
 1075              		.loc 6 171 10 is_stmt 1 view .LVU235
 1076              	.LBB763:
 173:../../libdaisy/src/hid/disp/display.h ****         currentY_ = (y >= Height()) ? Height() - 1 : y;
 1077              		.loc 6 173 9 view .LVU236
 1078 013e 8B42     		cmp	r3, r1
 1079 0140 34D1     		bne	.L72
 173:../../libdaisy/src/hid/disp/display.h ****         currentY_ = (y >= Height()) ? Height() - 1 : y;
 1080              		.loc 6 173 33 is_stmt 0 view .LVU237
 1081 0142 8020     		movs	r0, #128
 1082              	.L48:
 173:../../libdaisy/src/hid/disp/display.h ****         currentY_ = (y >= Height()) ? Height() - 1 : y;
 1083              		.loc 6 173 19 view .LVU238
 1084 0144 8742     		cmp	r7, r0
 1085 0146 04D3     		bcc	.L49
 173:../../libdaisy/src/hid/disp/display.h ****         currentY_ = (y >= Height()) ? Height() - 1 : y;
 1086              		.loc 6 173 44 view .LVU239
 1087 0148 D368     		ldr	r3, [r2, #12]
 1088 014a 2349     		ldr	r1, .L76
 1089 014c 8B42     		cmp	r3, r1
 1090 014e 3BD1     		bne	.L73
 1091 0150 7F27     		movs	r7, #127
 1092              	.LVL70:
 1093              	.L49:
 174:../../libdaisy/src/hid/disp/display.h ****     }
 1094              		.loc 6 174 34 view .LVU240
 1095 0152 9368     		ldr	r3, [r2, #8]
 1096 0154 214A     		ldr	r2, .L76+4
 173:../../libdaisy/src/hid/disp/display.h ****         currentY_ = (y >= Height()) ? Height() - 1 : y;
 1097              		.loc 6 173 19 view .LVU241
 1098 0156 A8F80470 		strh	r7, [r8, #4]	@ movhi
 174:../../libdaisy/src/hid/disp/display.h ****     }
 1099              		.loc 6 174 9 is_stmt 1 view .LVU242
 1100 015a 9342     		cmp	r3, r2
 1101 015c 23D1     		bne	.L74
 174:../../libdaisy/src/hid/disp/display.h ****     }
 1102              		.loc 6 174 34 is_stmt 0 view .LVU243
 1103 015e 4020     		movs	r0, #64
 1104              	.L51:
 174:../../libdaisy/src/hid/disp/display.h ****     }
 1105              		.loc 6 174 19 view .LVU244
 1106 0160 009B     		ldr	r3, [sp]
 1107 0162 8342     		cmp	r3, r0
 1108 0164 07D3     		bcc	.L52
 174:../../libdaisy/src/hid/disp/display.h ****     }
 1109              		.loc 6 174 46 view .LVU245
 1110 0166 D8F80030 		ldr	r3, [r8]
 1111 016a 1C4A     		ldr	r2, .L76+4
ARM GAS  /tmp/ccpr9r5K.s 			page 49


 1112 016c 9B68     		ldr	r3, [r3, #8]
 1113 016e 9342     		cmp	r3, r2
 1114 0170 24D1     		bne	.L75
 1115 0172 3F23     		movs	r3, #63
 1116 0174 0093     		str	r3, [sp]
 1117              	.LVL71:
 1118              	.L52:
 174:../../libdaisy/src/hid/disp/display.h ****     }
 1119              		.loc 6 174 19 view .LVU246
 1120 0176 009B     		ldr	r3, [sp]
 1121 0178 A8F80630 		strh	r3, [r8, #6]	@ movhi
 1122              	.LVL72:
 1123              	.L34:
 174:../../libdaisy/src/hid/disp/display.h ****     }
 1124              		.loc 6 174 19 view .LVU247
 1125              	.LBE763:
 1126              	.LBE766:
 1127              	.LBE729:
 1128              	.LBE728:
 444:../../libdaisy/src/hid/disp/display.h ****         {
 445:../../libdaisy/src/hid/disp/display.h ****             if(((ChildType*)(this))->ChildType::WriteChar(*str, font, on)
 446:../../libdaisy/src/hid/disp/display.h ****                != *str)
 1129              		.loc 6 446 16 view .LVU248
 1130 017c 9BF80000 		ldrb	r0, [fp]	@ zero_extendqisi2
 445:../../libdaisy/src/hid/disp/display.h ****                != *str)
 1131              		.loc 6 445 13 view .LVU249
 1132 0180 A842     		cmp	r0, r5
 1133 0182 05D1     		bne	.L32
 1134              	.LVL73:
 443:../../libdaisy/src/hid/disp/display.h ****         {
 1135              		.loc 6 443 9 is_stmt 1 view .LVU250
 1136 0184 1BF8015F 		ldrb	r5, [fp, #1]!	@ zero_extendqisi2
 1137              	.LVL74:
 443:../../libdaisy/src/hid/disp/display.h ****         {
 1138              		.loc 6 443 9 is_stmt 0 view .LVU251
 1139 0188 002D     		cmp	r5, #0
 1140 018a 7FF452AF 		bne	.L55
 1141              	.LVL75:
 1142              	.L54:
 1143              	.LBB770:
 1144              	.LBB768:
 402:../../libdaisy/src/hid/disp/display.h **** 
 1145              		.loc 6 402 20 view .LVU252
 1146 018e 0020     		movs	r0, #0
 1147              	.LVL76:
 1148              	.L32:
 402:../../libdaisy/src/hid/disp/display.h **** 
 1149              		.loc 6 402 20 view .LVU253
 1150              	.LBE768:
 1151              	.LBE770:
 447:../../libdaisy/src/hid/disp/display.h ****             {
 448:../../libdaisy/src/hid/disp/display.h ****                 // Char could not be written
 449:../../libdaisy/src/hid/disp/display.h ****                 return *str;
 450:../../libdaisy/src/hid/disp/display.h ****             }
 451:../../libdaisy/src/hid/disp/display.h **** 
 452:../../libdaisy/src/hid/disp/display.h ****             // Next char
 453:../../libdaisy/src/hid/disp/display.h ****             str++;
ARM GAS  /tmp/ccpr9r5K.s 			page 50


 454:../../libdaisy/src/hid/disp/display.h ****         }
 455:../../libdaisy/src/hid/disp/display.h **** 
 456:../../libdaisy/src/hid/disp/display.h ****         // Everything ok
 457:../../libdaisy/src/hid/disp/display.h ****         return *str;
 458:../../libdaisy/src/hid/disp/display.h ****     }
 1152              		.loc 6 458 5 view .LVU254
 1153 0190 09B0     		add	sp, sp, #36
 1154              		.cfi_remember_state
 1155              		.cfi_def_cfa_offset 36
 1156              		@ sp needed
 1157 0192 BDE8F08F 		pop	{r4, r5, r6, r7, r8, r9, r10, fp, pc}
 1158              	.LVL77:
 1159              	.L36:
 1160              		.cfi_restore_state
 1161              	.LBB771:
 1162              	.LBB769:
 402:../../libdaisy/src/hid/disp/display.h **** 
 1163              		.loc 6 402 20 view .LVU255
 1164 0196 0025     		movs	r5, #0
 1165              	.LVL78:
 402:../../libdaisy/src/hid/disp/display.h **** 
 1166              		.loc 6 402 20 view .LVU256
 1167 0198 F0E7     		b	.L34
 1168              	.LVL79:
 1169              	.L69:
 405:../../libdaisy/src/hid/disp/display.h ****            || Height() < (currentY_ + font.FontHeight))
 1170              		.loc 6 405 17 view .LVU257
 1171 019a 4046     		mov	r0, r8
 1172 019c 9847     		blx	r3
 1173              	.LVL80:
 1174 019e 56E7     		b	.L35
 1175              	.L70:
 406:../../libdaisy/src/hid/disp/display.h ****         {
 1176              		.loc 6 406 21 view .LVU258
 1177 01a0 4046     		mov	r0, r8
 1178 01a2 9847     		blx	r3
 1179              	.LVL81:
 1180 01a4 61E7     		b	.L37
 1181              	.LVL82:
 1182              	.L74:
 1183              	.LBB767:
 1184              	.LBB764:
 174:../../libdaisy/src/hid/disp/display.h ****     }
 1185              		.loc 6 174 33 view .LVU259
 1186 01a6 4046     		mov	r0, r8
 1187 01a8 9847     		blx	r3
 1188              	.LVL83:
 1189 01aa D9E7     		b	.L51
 1190              	.LVL84:
 1191              	.L72:
 173:../../libdaisy/src/hid/disp/display.h ****         currentY_ = (y >= Height()) ? Height() - 1 : y;
 1192              		.loc 6 173 32 view .LVU260
 1193 01ac 4046     		mov	r0, r8
 1194 01ae 9847     		blx	r3
 1195              	.LVL85:
 1196 01b0 D8F80020 		ldr	r2, [r8]
 1197 01b4 C6E7     		b	.L48
ARM GAS  /tmp/ccpr9r5K.s 			page 51


 1198              	.LVL86:
 1199              	.L38:
 173:../../libdaisy/src/hid/disp/display.h ****         currentY_ = (y >= Height()) ? Height() - 1 : y;
 1200              		.loc 6 173 32 view .LVU261
 1201 01b6 B8F80470 		ldrh	r7, [r8, #4]
 1202 01ba BAE7     		b	.L40
 1203              	.LVL87:
 1204              	.L75:
 174:../../libdaisy/src/hid/disp/display.h ****     }
 1205              		.loc 6 174 45 view .LVU262
 1206 01bc 4046     		mov	r0, r8
 1207 01be 9847     		blx	r3
 1208              	.LVL88:
 1209 01c0 0138     		subs	r0, r0, #1
 1210 01c2 83B2     		uxth	r3, r0
 1211 01c4 0093     		str	r3, [sp]
 1212              	.LVL89:
 174:../../libdaisy/src/hid/disp/display.h ****     }
 1213              		.loc 6 174 45 view .LVU263
 1214 01c6 D6E7     		b	.L52
 1215              	.LVL90:
 1216              	.L73:
 173:../../libdaisy/src/hid/disp/display.h ****         currentY_ = (y >= Height()) ? Height() - 1 : y;
 1217              		.loc 6 173 43 view .LVU264
 1218 01c8 4046     		mov	r0, r8
 1219 01ca 9847     		blx	r3
 1220              	.LVL91:
 1221 01cc 0138     		subs	r0, r0, #1
 1222 01ce D8F80020 		ldr	r2, [r8]
 1223 01d2 87B2     		uxth	r7, r0
 1224              	.LVL92:
 173:../../libdaisy/src/hid/disp/display.h ****         currentY_ = (y >= Height()) ? Height() - 1 : y;
 1225              		.loc 6 173 43 view .LVU265
 1226 01d4 BDE7     		b	.L49
 1227              	.L77:
 1228 01d6 00BF     		.align	2
 1229              	.L76:
 1230 01d8 00000000 		.word	_ZNK5daisy11OledDisplayINS_13SSD130xDriverILj128ELj64ENS_24SSD130x4WireSpiTransportEEEE5Widt
 1231 01dc 00000000 		.word	_ZNK5daisy11OledDisplayINS_13SSD130xDriverILj128ELj64ENS_24SSD130x4WireSpiTransportEEEE6Heig
 1232              	.LBE764:
 1233              	.LBE767:
 1234              	.LBE769:
 1235              	.LBE771:
 1236              		.cfi_endproc
 1237              	.LFE4553:
 1239              		.section	.text._ZN5daisy25OneBitGraphicsDisplayImplINS_11OledDisplayINS_13SSD130xDriverILj128ELj64
 1240              		.align	1
 1241              		.p2align 2,,3
 1242              		.weak	_ZN5daisy25OneBitGraphicsDisplayImplINS_11OledDisplayINS_13SSD130xDriverILj128ELj64ENS_24SSD
 1243              		.syntax unified
 1244              		.thumb
 1245              		.thumb_func
 1246              		.fpu fpv5-d16
 1248              	_ZN5daisy25OneBitGraphicsDisplayImplINS_11OledDisplayINS_13SSD130xDriverILj128ELj64ENS_24SSD130x4Wi
 1249              	.LVL93:
 1250              	.LFB4680:
 396:../../libdaisy/src/hid/disp/display.h ****     {
ARM GAS  /tmp/ccpr9r5K.s 			page 52


 1251              		.loc 6 396 10 is_stmt 1 view -0
 1252              		.cfi_startproc
 1253              		@ args = 4, pretend = 0, frame = 16
 1254              		@ frame_needed = 0, uses_anonymous_args = 0
 396:../../libdaisy/src/hid/disp/display.h ****     {
 1255              		.loc 6 396 10 is_stmt 0 view .LVU267
 1256 0000 2DE9F04F 		push	{r4, r5, r6, r7, r8, r9, r10, fp, lr}
 1257              		.cfi_def_cfa_offset 36
 1258              		.cfi_offset 4, -36
 1259              		.cfi_offset 5, -32
 1260              		.cfi_offset 6, -28
 1261              		.cfi_offset 7, -24
 1262              		.cfi_offset 8, -20
 1263              		.cfi_offset 9, -16
 1264              		.cfi_offset 10, -12
 1265              		.cfi_offset 11, -8
 1266              		.cfi_offset 14, -4
 1267 0004 85B0     		sub	sp, sp, #20
 1268              		.cfi_def_cfa_offset 56
 1269              	.LVL94:
 401:../../libdaisy/src/hid/disp/display.h ****             return 0;
 1270              		.loc 6 401 20 view .LVU268
 1271 0006 A1F12004 		sub	r4, r1, #32
 396:../../libdaisy/src/hid/disp/display.h ****     {
 1272              		.loc 6 396 10 view .LVU269
 1273 000a 0091     		str	r1, [sp]
 1274 000c 04A9     		add	r1, sp, #16
 1275              	.LVL95:
 396:../../libdaisy/src/hid/disp/display.h ****     {
 1276              		.loc 6 396 10 view .LVU270
 1277 000e 9DF83880 		ldrb	r8, [sp, #56]	@ zero_extendqisi2
 1278 0012 01E90C00 		stmdb	r1, {r2, r3}
 1279              	.LVL96:
 401:../../libdaisy/src/hid/disp/display.h ****             return 0;
 1280              		.loc 6 401 9 view .LVU271
 1281 0016 E3B2     		uxtb	r3, r4
 1282 0018 5E2B     		cmp	r3, #94
 1283 001a 00F29480 		bhi	.L82
 405:../../libdaisy/src/hid/disp/display.h ****            || Height() < (currentY_ + font.FontHeight))
 1284              		.loc 6 405 17 view .LVU272
 1285 001e 0368     		ldr	r3, [r0]
 1286 0020 8146     		mov	r9, r0
 1287 0022 5E4A     		ldr	r2, .L118
 1288 0024 DB68     		ldr	r3, [r3, #12]
 1289 0026 9DF80860 		ldrb	r6, [sp, #8]	@ zero_extendqisi2
 1290 002a 9342     		cmp	r3, r2
 1291 002c 9DF80950 		ldrb	r5, [sp, #9]	@ zero_extendqisi2
 1292 0030 40F09380 		bne	.L109
 1293 0034 8022     		movs	r2, #128
 1294              	.LVL97:
 1295              	.L81:
 405:../../libdaisy/src/hid/disp/display.h ****            || Height() < (currentY_ + font.FontHeight))
 1296              		.loc 6 405 23 view .LVU273
 1297 0036 B9F80430 		ldrh	r3, [r9, #4]
 405:../../libdaisy/src/hid/disp/display.h ****            || Height() < (currentY_ + font.FontHeight))
 1298              		.loc 6 405 33 view .LVU274
 1299 003a 3344     		add	r3, r3, r6
ARM GAS  /tmp/ccpr9r5K.s 			page 53


 406:../../libdaisy/src/hid/disp/display.h ****         {
 1300              		.loc 6 406 12 view .LVU275
 1301 003c 9342     		cmp	r3, r2
 1302 003e 00F38280 		bgt	.L82
 406:../../libdaisy/src/hid/disp/display.h ****         {
 1303              		.loc 6 406 21 discriminator 2 view .LVU276
 1304 0042 D9F80030 		ldr	r3, [r9]
 1305 0046 564A     		ldr	r2, .L118+4
 1306 0048 9B68     		ldr	r3, [r3, #8]
 1307 004a 9342     		cmp	r3, r2
 1308 004c 40F08980 		bne	.L110
 406:../../libdaisy/src/hid/disp/display.h ****         {
 1309              		.loc 6 406 21 view .LVU277
 1310 0050 4023     		movs	r3, #64
 1311              	.L83:
 406:../../libdaisy/src/hid/disp/display.h ****         {
 1312              		.loc 6 406 27 discriminator 2 view .LVU278
 1313 0052 B9F80610 		ldrh	r1, [r9, #6]
 406:../../libdaisy/src/hid/disp/display.h ****         {
 1314              		.loc 6 406 37 discriminator 2 view .LVU279
 1315 0056 4A19     		adds	r2, r1, r5
 406:../../libdaisy/src/hid/disp/display.h ****         {
 1316              		.loc 6 406 27 discriminator 2 view .LVU280
 1317 0058 0191     		str	r1, [sp, #4]
 406:../../libdaisy/src/hid/disp/display.h ****         {
 1318              		.loc 6 406 12 discriminator 2 view .LVU281
 1319 005a 9A42     		cmp	r2, r3
 1320 005c 73DC     		bgt	.L82
 1321              	.LVL98:
 413:../../libdaisy/src/hid/disp/display.h ****         {
 1322              		.loc 6 413 22 is_stmt 1 view .LVU282
 1323 005e 002D     		cmp	r5, #0
 1324 0060 00F08C80 		beq	.L84
 415:../../libdaisy/src/hid/disp/display.h ****             for(j = 0; j < font.FontWidth; j++)
 1325              		.loc 6 415 37 is_stmt 0 view .LVU283
 1326 0064 05FB04F4 		mul	r4, r5, r4
 415:../../libdaisy/src/hid/disp/display.h ****             for(j = 0; j < font.FontWidth; j++)
 1327              		.loc 6 415 22 view .LVU284
 1328 0068 039A     		ldr	r2, [sp, #12]
 1329 006a 6FF00043 		mvn	r3, #-2147483648
 1330 006e B9F804A0 		ldrh	r10, [r9, #4]
 1331 0072 2544     		add	r5, r5, r4
 1332 0074 A2F1020B 		sub	fp, r2, #2
 1333 0078 2344     		add	r3, r3, r4
 1334 007a 0BEB450B 		add	fp, fp, r5, lsl #1
 1335 007e 0D46     		mov	r5, r1
 1336 0080 02EB430E 		add	lr, r2, r3, lsl #1
 1337              	.LVL99:
 1338              	.L87:
 415:../../libdaisy/src/hid/disp/display.h ****             for(j = 0; j < font.FontWidth; j++)
 1339              		.loc 6 415 13 view .LVU285
 1340 0084 3EF8024F 		ldrh	r4, [lr, #2]!
 1341              	.LVL100:
 416:../../libdaisy/src/hid/disp/display.h ****             {
 1342              		.loc 6 416 26 is_stmt 1 view .LVU286
 1343 0088 A6B3     		cbz	r6, .L92
 1344              	.LBB802:
ARM GAS  /tmp/ccpr9r5K.s 			page 54


 1345              	.LBB803:
 1346              	.LBB804:
 1347              	.LBB805:
 1348              	.LBB806:
 246:../../libdaisy/src/dev/oled_ssd130x.h ****     }
 1349              		.loc 15 246 55 is_stmt 0 view .LVU287
 1350 008a 05F00703 		and	r3, r5, #7
 246:../../libdaisy/src/dev/oled_ssd130x.h ****     }
 1351              		.loc 15 246 49 view .LVU288
 1352 008e 0127     		movs	r7, #1
 246:../../libdaisy/src/dev/oled_ssd130x.h ****     }
 1353              		.loc 15 246 28 view .LVU289
 1354 0090 E808     		lsrs	r0, r5, #3
 246:../../libdaisy/src/dev/oled_ssd130x.h ****     }
 1355              		.loc 15 246 42 view .LVU290
 1356 0092 4146     		mov	r1, r8
 246:../../libdaisy/src/dev/oled_ssd130x.h ****     }
 1357              		.loc 15 246 49 view .LVU291
 1358 0094 9F40     		lsls	r7, r7, r3
 1359              	.LBE806:
 1360              	.LBE805:
 1361              	.LBE804:
 1362              	.LBE803:
 1363              	.LBE802:
 416:../../libdaisy/src/hid/disp/display.h ****             {
 1364              		.loc 6 416 19 view .LVU292
 1365 0096 0022     		movs	r2, #0
 1366 0098 0AEBC013 		add	r3, r10, r0, lsl #7
 1367              	.LBB824:
 1368              	.LBB819:
 1369              	.LBB814:
 1370              	.LBB810:
 1371              	.LBB807:
 246:../../libdaisy/src/dev/oled_ssd130x.h ****     }
 1372              		.loc 15 246 42 view .LVU293
 1373 009c 7FB2     		sxtb	r7, r7
 1374 009e 4B44     		add	r3, r3, r9
 1375 00a0 09EBC010 		add	r0, r9, r0, lsl #7
 1376 00a4 6FEA070C 		mvn	ip, r7
 1377 00a8 B846     		mov	r8, r7
 1378 00aa 0F46     		mov	r7, r1
 1379 00ac 0CE0     		b	.L93
 1380              	.LVL101:
 1381              	.L112:
 246:../../libdaisy/src/dev/oled_ssd130x.h ****     }
 1382              		.loc 15 246 42 view .LVU294
 1383              	.LBE807:
 1384              	.LBE810:
 1385              	.LBE814:
 1386              	.LBE819:
 1387              	.LBE824:
 1388              	.LBB825:
 1389              	.LBI825:
  41:../../libdaisy/src/hid/disp/oled_display.h ****     {
 1390              		.loc 5 41 10 is_stmt 1 view .LVU295
 1391              	.LBB826:
 1392              	.LBI826:
ARM GAS  /tmp/ccpr9r5K.s 			page 55


 239:../../libdaisy/src/dev/oled_ssd130x.h ****     {
 1393              		.loc 15 239 10 view .LVU296
 1394              	.LBB827:
 241:../../libdaisy/src/dev/oled_ssd130x.h ****             return;
 1395              		.loc 15 241 9 is_stmt 0 view .LVU297
 1396 00ae 7F29     		cmp	r1, #127
 1397 00b0 06D8     		bhi	.L89
 1398 00b2 3F2D     		cmp	r5, #63
 1399 00b4 04D8     		bhi	.L89
 244:../../libdaisy/src/dev/oled_ssd130x.h ****         else
 1400              		.loc 15 244 42 view .LVU298
 1401 00b6 197D     		ldrb	r1, [r3, #20]	@ zero_extendqisi2
 243:../../libdaisy/src/dev/oled_ssd130x.h ****             buffer_[x + (y / 8) * width] |= (1 << (y % 8));
 1402              		.loc 15 243 9 view .LVU299
 1403 00b8 A7B1     		cbz	r7, .L91
 1404              	.L108:
 243:../../libdaisy/src/dev/oled_ssd130x.h ****             buffer_[x + (y / 8) * width] |= (1 << (y % 8));
 1405              		.loc 15 243 9 view .LVU300
 1406              	.LBE827:
 1407              	.LBE826:
 1408              	.LBE825:
 1409              	.LBB830:
 1410              	.LBB820:
 1411              	.LBB815:
 244:../../libdaisy/src/dev/oled_ssd130x.h ****         else
 1412              		.loc 15 244 42 view .LVU301
 1413 00ba 48EA0101 		orr	r1, r8, r1
 244:../../libdaisy/src/dev/oled_ssd130x.h ****         else
 1414              		.loc 15 244 13 view .LVU302
 1415 00be 1975     		strb	r1, [r3, #20]
 1416              	.L89:
 1417              	.LBE815:
 1418              	.LBE820:
 1419              	.LBE830:
 416:../../libdaisy/src/hid/disp/display.h ****             {
 1420              		.loc 6 416 13 is_stmt 1 discriminator 2 view .LVU303
 1421 00c0 0132     		adds	r2, r2, #1
 1422              	.LVL102:
 416:../../libdaisy/src/hid/disp/display.h ****             {
 1423              		.loc 6 416 26 discriminator 2 view .LVU304
 1424 00c2 0133     		adds	r3, r3, #1
 1425 00c4 9642     		cmp	r6, r2
 1426 00c6 14D0     		beq	.L111
 1427              	.LVL103:
 1428              	.L93:
 418:../../libdaisy/src/hid/disp/display.h ****                 {
 1429              		.loc 6 418 23 is_stmt 0 view .LVU305
 1430 00c8 04FA02F1 		lsl	r1, r4, r2
 418:../../libdaisy/src/hid/disp/display.h ****                 {
 1431              		.loc 6 418 17 view .LVU306
 1432 00cc 11F4004F 		tst	r1, #32768
 1433              	.LBB831:
 1434              	.LBB829:
 1435              	.LBB828:
 241:../../libdaisy/src/dev/oled_ssd130x.h ****             return;
 1436              		.loc 15 241 14 view .LVU307
 1437 00d0 A3EB0001 		sub	r1, r3, r0
ARM GAS  /tmp/ccpr9r5K.s 			page 56


 1438              	.LBE828:
 1439              	.LBE829:
 1440              	.LBE831:
 418:../../libdaisy/src/hid/disp/display.h ****                 {
 1441              		.loc 6 418 17 view .LVU308
 1442 00d4 EBD1     		bne	.L112
 1443              	.LVL104:
 1444              	.LBB832:
 1445              	.LBI802:
  41:../../libdaisy/src/hid/disp/oled_display.h ****     {
 1446              		.loc 5 41 10 is_stmt 1 view .LVU309
 1447              	.LBB821:
 1448              	.LBI803:
 239:../../libdaisy/src/dev/oled_ssd130x.h ****     {
 1449              		.loc 15 239 10 view .LVU310
 1450              	.LBB816:
 241:../../libdaisy/src/dev/oled_ssd130x.h ****             return;
 1451              		.loc 15 241 9 is_stmt 0 view .LVU311
 1452 00d6 7F29     		cmp	r1, #127
 1453 00d8 F2D8     		bhi	.L89
 1454 00da 3F2D     		cmp	r5, #63
 1455 00dc F0D8     		bhi	.L89
 244:../../libdaisy/src/dev/oled_ssd130x.h ****         else
 1456              		.loc 15 244 42 view .LVU312
 1457 00de 197D     		ldrb	r1, [r3, #20]	@ zero_extendqisi2
 243:../../libdaisy/src/dev/oled_ssd130x.h ****             buffer_[x + (y / 8) * width] |= (1 << (y % 8));
 1458              		.loc 15 243 9 view .LVU313
 1459 00e0 002F     		cmp	r7, #0
 1460 00e2 EAD0     		beq	.L108
 1461              	.L91:
 1462              	.LVL105:
 1463              	.LBB811:
 1464              	.LBI805:
 239:../../libdaisy/src/dev/oled_ssd130x.h ****     {
 1465              		.loc 15 239 10 is_stmt 1 view .LVU314
 239:../../libdaisy/src/dev/oled_ssd130x.h ****     {
 1466              		.loc 15 239 10 is_stmt 0 view .LVU315
 1467              	.LBE811:
 1468              	.LBE816:
 1469              	.LBE821:
 1470              	.LBE832:
 416:../../libdaisy/src/hid/disp/display.h ****             {
 1471              		.loc 6 416 13 view .LVU316
 1472 00e4 0132     		adds	r2, r2, #1
 1473              	.LVL106:
 1474              	.LBB833:
 1475              	.LBB822:
 1476              	.LBB817:
 1477              	.LBB812:
 1478              	.LBB808:
 246:../../libdaisy/src/dev/oled_ssd130x.h ****     }
 1479              		.loc 15 246 42 view .LVU317
 1480 00e6 0CEA0101 		and	r1, ip, r1
 1481 00ea 0133     		adds	r3, r3, #1
 1482              	.LBE808:
 1483              	.LBE812:
 1484              	.LBE817:
ARM GAS  /tmp/ccpr9r5K.s 			page 57


 1485              	.LBE822:
 1486              	.LBE833:
 416:../../libdaisy/src/hid/disp/display.h ****             {
 1487              		.loc 6 416 26 view .LVU318
 1488 00ec 9642     		cmp	r6, r2
 1489              	.LBB834:
 1490              	.LBB823:
 1491              	.LBB818:
 1492              	.LBB813:
 1493              	.LBB809:
 246:../../libdaisy/src/dev/oled_ssd130x.h ****     }
 1494              		.loc 15 246 13 view .LVU319
 1495 00ee D974     		strb	r1, [r3, #19]
 246:../../libdaisy/src/dev/oled_ssd130x.h ****     }
 1496              		.loc 15 246 13 view .LVU320
 1497              	.LBE809:
 1498              	.LBE813:
 1499              	.LBE818:
 1500              	.LBE823:
 1501              	.LBE834:
 416:../../libdaisy/src/hid/disp/display.h ****             {
 1502              		.loc 6 416 13 is_stmt 1 view .LVU321
 1503              	.LVL107:
 416:../../libdaisy/src/hid/disp/display.h ****             {
 1504              		.loc 6 416 26 view .LVU322
 1505 00f0 EAD1     		bne	.L93
 1506              	.L111:
 416:../../libdaisy/src/hid/disp/display.h ****             {
 1507              		.loc 6 416 26 is_stmt 0 view .LVU323
 1508 00f2 B846     		mov	r8, r7
 1509              	.LVL108:
 1510              	.L92:
 413:../../libdaisy/src/hid/disp/display.h ****         {
 1511              		.loc 6 413 9 is_stmt 1 view .LVU324
 413:../../libdaisy/src/hid/disp/display.h ****         {
 1512              		.loc 6 413 22 view .LVU325
 1513 00f4 F345     		cmp	fp, lr
 1514 00f6 05F10105 		add	r5, r5, #1
 1515 00fa C3D1     		bne	.L87
 1516              	.LVL109:
 1517              	.L86:
 1518              	.LBB835:
 1519              	.LBB836:
 173:../../libdaisy/src/hid/disp/display.h ****         currentY_ = (y >= Height()) ? Height() - 1 : y;
 1520              		.loc 6 173 33 is_stmt 0 view .LVU326
 1521 00fc D9F80030 		ldr	r3, [r9]
 1522              	.LBE836:
 1523              	.LBE835:
 434:../../libdaisy/src/hid/disp/display.h **** 
 1524              		.loc 6 434 18 view .LVU327
 1525 0100 0AEB0604 		add	r4, r10, r6
 1526 0104 2549     		ldr	r1, .L118
 1527              	.LBB841:
 1528              	.LBB837:
 173:../../libdaisy/src/hid/disp/display.h ****         currentY_ = (y >= Height()) ? Height() - 1 : y;
 1529              		.loc 6 173 33 view .LVU328
 1530 0106 DA68     		ldr	r2, [r3, #12]
ARM GAS  /tmp/ccpr9r5K.s 			page 58


 1531              	.LBE837:
 1532              	.LBE841:
 434:../../libdaisy/src/hid/disp/display.h **** 
 1533              		.loc 6 434 18 view .LVU329
 1534 0108 A4B2     		uxth	r4, r4
 1535              	.LVL110:
 1536              	.LBB842:
 1537              	.LBI835:
 171:../../libdaisy/src/hid/disp/display.h ****     {
 1538              		.loc 6 171 10 is_stmt 1 view .LVU330
 1539              	.LBB838:
 173:../../libdaisy/src/hid/disp/display.h ****         currentY_ = (y >= Height()) ? Height() - 1 : y;
 1540              		.loc 6 173 9 view .LVU331
 1541 010a 8A42     		cmp	r2, r1
 1542 010c 31D1     		bne	.L113
 173:../../libdaisy/src/hid/disp/display.h ****         currentY_ = (y >= Height()) ? Height() - 1 : y;
 1543              		.loc 6 173 33 is_stmt 0 view .LVU332
 1544 010e 8020     		movs	r0, #128
 1545              	.L94:
 173:../../libdaisy/src/hid/disp/display.h ****         currentY_ = (y >= Height()) ? Height() - 1 : y;
 1546              		.loc 6 173 19 view .LVU333
 1547 0110 8442     		cmp	r4, r0
 1548 0112 1CD2     		bcs	.L114
 1549              	.LVL111:
 1550              	.L95:
 174:../../libdaisy/src/hid/disp/display.h ****     }
 1551              		.loc 6 174 34 view .LVU334
 1552 0114 9B68     		ldr	r3, [r3, #8]
 1553 0116 224A     		ldr	r2, .L118+4
 173:../../libdaisy/src/hid/disp/display.h ****         currentY_ = (y >= Height()) ? Height() - 1 : y;
 1554              		.loc 6 173 19 view .LVU335
 1555 0118 A9F80440 		strh	r4, [r9, #4]	@ movhi
 174:../../libdaisy/src/hid/disp/display.h ****     }
 1556              		.loc 6 174 9 is_stmt 1 view .LVU336
 1557 011c 9342     		cmp	r3, r2
 1558 011e 25D1     		bne	.L115
 174:../../libdaisy/src/hid/disp/display.h ****     }
 1559              		.loc 6 174 34 is_stmt 0 view .LVU337
 1560 0120 4020     		movs	r0, #64
 1561              	.L97:
 174:../../libdaisy/src/hid/disp/display.h ****     }
 1562              		.loc 6 174 19 view .LVU338
 1563 0122 019B     		ldr	r3, [sp, #4]
 1564 0124 8342     		cmp	r3, r0
 1565 0126 07D3     		bcc	.L98
 174:../../libdaisy/src/hid/disp/display.h ****     }
 1566              		.loc 6 174 46 view .LVU339
 1567 0128 D9F80030 		ldr	r3, [r9]
 1568 012c 1C4A     		ldr	r2, .L118+4
 1569 012e 9B68     		ldr	r3, [r3, #8]
 1570 0130 9342     		cmp	r3, r2
 1571 0132 2DD1     		bne	.L116
 1572 0134 3F23     		movs	r3, #63
 1573 0136 0193     		str	r3, [sp, #4]
 1574              	.LVL112:
 1575              	.L98:
 174:../../libdaisy/src/hid/disp/display.h ****     }
ARM GAS  /tmp/ccpr9r5K.s 			page 59


 1576              		.loc 6 174 19 view .LVU340
 1577 0138 DDE90003 		ldrd	r0, r3, [sp]
 1578 013c A9F80630 		strh	r3, [r9, #6]	@ movhi
 1579              	.LVL113:
 174:../../libdaisy/src/hid/disp/display.h ****     }
 1580              		.loc 6 174 19 view .LVU341
 1581              	.LBE838:
 1582              	.LBE842:
 438:../../libdaisy/src/hid/disp/display.h **** 
 1583              		.loc 6 438 5 view .LVU342
 1584 0140 05B0     		add	sp, sp, #20
 1585              		.cfi_remember_state
 1586              		.cfi_def_cfa_offset 36
 1587              		@ sp needed
 1588 0142 BDE8F08F 		pop	{r4, r5, r6, r7, r8, r9, r10, fp, pc}
 1589              	.LVL114:
 1590              	.L82:
 1591              		.cfi_restore_state
 402:../../libdaisy/src/hid/disp/display.h **** 
 1592              		.loc 6 402 20 view .LVU343
 1593 0146 0020     		movs	r0, #0
 438:../../libdaisy/src/hid/disp/display.h **** 
 1594              		.loc 6 438 5 view .LVU344
 1595 0148 05B0     		add	sp, sp, #20
 1596              		.cfi_remember_state
 1597              		.cfi_def_cfa_offset 36
 1598              		@ sp needed
 1599 014a BDE8F08F 		pop	{r4, r5, r6, r7, r8, r9, r10, fp, pc}
 1600              	.LVL115:
 1601              	.L114:
 1602              		.cfi_restore_state
 1603              	.LBB843:
 1604              	.LBB839:
 173:../../libdaisy/src/hid/disp/display.h ****         currentY_ = (y >= Height()) ? Height() - 1 : y;
 1605              		.loc 6 173 44 view .LVU345
 1606 014e DA68     		ldr	r2, [r3, #12]
 1607 0150 1249     		ldr	r1, .L118
 1608 0152 8A42     		cmp	r2, r1
 1609 0154 15D1     		bne	.L117
 1610 0156 7F24     		movs	r4, #127
 1611              	.LVL116:
 173:../../libdaisy/src/hid/disp/display.h ****         currentY_ = (y >= Height()) ? Height() - 1 : y;
 1612              		.loc 6 173 44 view .LVU346
 1613 0158 DCE7     		b	.L95
 1614              	.LVL117:
 1615              	.L109:
 173:../../libdaisy/src/hid/disp/display.h ****         currentY_ = (y >= Height()) ? Height() - 1 : y;
 1616              		.loc 6 173 44 view .LVU347
 1617              	.LBE839:
 1618              	.LBE843:
 405:../../libdaisy/src/hid/disp/display.h ****            || Height() < (currentY_ + font.FontHeight))
 1619              		.loc 6 405 17 view .LVU348
 1620 015a 9847     		blx	r3
 1621              	.LVL118:
 405:../../libdaisy/src/hid/disp/display.h ****            || Height() < (currentY_ + font.FontHeight))
 1622              		.loc 6 405 17 view .LVU349
 1623 015c 0246     		mov	r2, r0
ARM GAS  /tmp/ccpr9r5K.s 			page 60


 1624 015e 0190     		str	r0, [sp, #4]
 1625 0160 69E7     		b	.L81
 1626              	.L110:
 406:../../libdaisy/src/hid/disp/display.h ****         {
 1627              		.loc 6 406 21 discriminator 2 view .LVU350
 1628 0162 4846     		mov	r0, r9
 1629 0164 9847     		blx	r3
 1630              	.LVL119:
 1631 0166 0346     		mov	r3, r0
 1632 0168 0190     		str	r0, [sp, #4]
 1633 016a 72E7     		b	.L83
 1634              	.LVL120:
 1635              	.L115:
 1636              	.LBB844:
 1637              	.LBB840:
 174:../../libdaisy/src/hid/disp/display.h ****     }
 1638              		.loc 6 174 33 view .LVU351
 1639 016c 4846     		mov	r0, r9
 1640 016e 9847     		blx	r3
 1641              	.LVL121:
 1642 0170 D7E7     		b	.L97
 1643              	.LVL122:
 1644              	.L113:
 173:../../libdaisy/src/hid/disp/display.h ****         currentY_ = (y >= Height()) ? Height() - 1 : y;
 1645              		.loc 6 173 32 view .LVU352
 1646 0172 4846     		mov	r0, r9
 1647 0174 9047     		blx	r2
 1648              	.LVL123:
 1649 0176 D9F80030 		ldr	r3, [r9]
 1650 017a C9E7     		b	.L94
 1651              	.LVL124:
 1652              	.L84:
 173:../../libdaisy/src/hid/disp/display.h ****         currentY_ = (y >= Height()) ? Height() - 1 : y;
 1653              		.loc 6 173 32 view .LVU353
 1654 017c B9F804A0 		ldrh	r10, [r9, #4]
 1655 0180 BCE7     		b	.L86
 1656              	.LVL125:
 1657              	.L117:
 173:../../libdaisy/src/hid/disp/display.h ****         currentY_ = (y >= Height()) ? Height() - 1 : y;
 1658              		.loc 6 173 43 view .LVU354
 1659 0182 4846     		mov	r0, r9
 1660 0184 9047     		blx	r2
 1661              	.LVL126:
 1662 0186 0138     		subs	r0, r0, #1
 1663 0188 D9F80030 		ldr	r3, [r9]
 1664 018c 84B2     		uxth	r4, r0
 1665              	.LVL127:
 173:../../libdaisy/src/hid/disp/display.h ****         currentY_ = (y >= Height()) ? Height() - 1 : y;
 1666              		.loc 6 173 43 view .LVU355
 1667 018e C1E7     		b	.L95
 1668              	.L116:
 174:../../libdaisy/src/hid/disp/display.h ****     }
 1669              		.loc 6 174 45 view .LVU356
 1670 0190 4846     		mov	r0, r9
 1671 0192 9847     		blx	r3
 1672              	.LVL128:
 1673 0194 0138     		subs	r0, r0, #1
ARM GAS  /tmp/ccpr9r5K.s 			page 61


 1674 0196 83B2     		uxth	r3, r0
 1675 0198 0193     		str	r3, [sp, #4]
 1676              	.LVL129:
 174:../../libdaisy/src/hid/disp/display.h ****     }
 1677              		.loc 6 174 45 view .LVU357
 1678 019a CDE7     		b	.L98
 1679              	.L119:
 1680              		.align	2
 1681              	.L118:
 1682 019c 00000000 		.word	_ZNK5daisy11OledDisplayINS_13SSD130xDriverILj128ELj64ENS_24SSD130x4WireSpiTransportEEEE5Widt
 1683 01a0 00000000 		.word	_ZNK5daisy11OledDisplayINS_13SSD130xDriverILj128ELj64ENS_24SSD130x4WireSpiTransportEEEE6Heig
 1684              	.LBE840:
 1685              	.LBE844:
 1686              		.cfi_endproc
 1687              	.LFE4680:
 1689              		.section	.text._ZN5daisy25OneBitGraphicsDisplayImplINS_11OledDisplayINS_13SSD130xDriverILj128ELj64
 1690              		.align	1
 1691              		.p2align 2,,3
 1692              		.weak	_ZN5daisy25OneBitGraphicsDisplayImplINS_11OledDisplayINS_13SSD130xDriverILj128ELj64ENS_24SSD
 1693              		.syntax unified
 1694              		.thumb
 1695              		.thumb_func
 1696              		.fpu fpv5-d16
 1698              	_ZN5daisy25OneBitGraphicsDisplayImplINS_11OledDisplayINS_13SSD130xDriverILj128ELj64ENS_24SSD130x4Wi
 1699              	.LVL130:
 1700              	.LFB4825:
 459:../../libdaisy/src/hid/disp/display.h **** 
 460:../../libdaisy/src/hid/disp/display.h ****     Rectangle WriteStringAligned(const char*    str,
 1701              		.loc 6 460 15 is_stmt 1 view -0
 1702              		.cfi_startproc
 1703              		@ args = 12, pretend = 0, frame = 40
 1704              		@ frame_needed = 0, uses_anonymous_args = 0
 1705              		.loc 6 460 15 is_stmt 0 view .LVU359
 1706 0000 2DE9F04F 		push	{r4, r5, r6, r7, r8, r9, r10, fp, lr}
 1707              		.cfi_def_cfa_offset 36
 1708              		.cfi_offset 4, -36
 1709              		.cfi_offset 5, -32
 1710              		.cfi_offset 6, -28
 1711              		.cfi_offset 7, -24
 1712              		.cfi_offset 8, -20
 1713              		.cfi_offset 9, -16
 1714              		.cfi_offset 10, -12
 1715              		.cfi_offset 11, -8
 1716              		.cfi_offset 14, -4
 1717 0004 0C46     		mov	r4, r1
 1718 0006 8BB0     		sub	sp, sp, #44
 1719              		.cfi_def_cfa_offset 80
 1720              	.LBB979:
 1721              	.LBB980:
 1722              	.LBB981:
 1723              	.LBB982:
 461:../../libdaisy/src/hid/disp/display.h ****                                  const FontDef& font,
 462:../../libdaisy/src/hid/disp/display.h ****                                  Rectangle      boundingBox,
 463:../../libdaisy/src/hid/disp/display.h ****                                  Alignment      alignment,
 464:../../libdaisy/src/hid/disp/display.h ****                                  bool           on) override
 465:../../libdaisy/src/hid/disp/display.h ****     {
 466:../../libdaisy/src/hid/disp/display.h ****         const auto alignedRect
ARM GAS  /tmp/ccpr9r5K.s 			page 62


 467:../../libdaisy/src/hid/disp/display.h ****             = GetTextRect(str, font).AlignedWithin(boundingBox, alignment);
 468:../../libdaisy/src/hid/disp/display.h ****         SetCursor(alignedRect.GetX(), alignedRect.GetY());
 469:../../libdaisy/src/hid/disp/display.h ****         ((ChildType*)(this))->ChildType::WriteString(str, font, on);
 470:../../libdaisy/src/hid/disp/display.h ****         return alignedRect;
 471:../../libdaisy/src/hid/disp/display.h ****     }
 472:../../libdaisy/src/hid/disp/display.h **** 
 473:../../libdaisy/src/hid/disp/display.h ****   private:
 474:../../libdaisy/src/hid/disp/display.h ****     uint32_t strlen(const char* string)
 475:../../libdaisy/src/hid/disp/display.h ****     {
 476:../../libdaisy/src/hid/disp/display.h ****         uint32_t result = 0;
 477:../../libdaisy/src/hid/disp/display.h ****         while(*string++ != '\0')
 1724              		.loc 6 477 25 view .LVU360
 1725 0008 1146     		mov	r1, r2
 1726              	.LVL131:
 1727              		.loc 6 477 25 view .LVU361
 1728              	.LBE982:
 1729              	.LBE981:
 1730              	.LBE980:
 1731              	.LBE979:
 460:../../libdaisy/src/hid/disp/display.h ****                                  const FontDef& font,
 1732              		.loc 6 460 15 view .LVU362
 1733 000a 9046     		mov	r8, r2
 1734 000c 0990     		str	r0, [sp, #36]
 1735 000e 1D46     		mov	r5, r3
 1736              	.LVL132:
 1737              	.LBB997:
 1738              	.LBI979:
 478:../../libdaisy/src/hid/disp/display.h ****             result++;
 479:../../libdaisy/src/hid/disp/display.h ****         return result;
 480:../../libdaisy/src/hid/disp/display.h ****     }
 481:../../libdaisy/src/hid/disp/display.h **** 
 482:../../libdaisy/src/hid/disp/display.h ****     Rectangle GetTextRect(const char* text, const FontDef& font)
 1739              		.loc 6 482 15 is_stmt 1 view .LVU363
 1740              	.LBB993:
 1741              	.LBB986:
 1742              	.LBB983:
 477:../../libdaisy/src/hid/disp/display.h ****             result++;
 1743              		.loc 6 477 25 view .LVU364
 477:../../libdaisy/src/hid/disp/display.h ****             result++;
 1744              		.loc 6 477 25 is_stmt 0 view .LVU365
 1745              	.LBE983:
 1746              	.LBE986:
 1747              	.LBE993:
 1748              	.LBE997:
 460:../../libdaisy/src/hid/disp/display.h ****                                  const FontDef& font,
 1749              		.loc 6 460 15 view .LVU366
 1750 0010 9DF85800 		ldrb	r0, [sp, #88]	@ zero_extendqisi2
 1751              	.LVL133:
 1752              	.LBB998:
 1753              	.LBB994:
 1754              	.LBB987:
 1755              	.LBB984:
 477:../../libdaisy/src/hid/disp/display.h ****             result++;
 1756              		.loc 6 477 25 view .LVU367
 1757 0014 11F8012B 		ldrb	r2, [r1], #1	@ zero_extendqisi2
 1758              	.LVL134:
 477:../../libdaisy/src/hid/disp/display.h ****             result++;
ARM GAS  /tmp/ccpr9r5K.s 			page 63


 1759              		.loc 6 477 25 view .LVU368
 1760              	.LBE984:
 1761              	.LBE987:
 1762              	.LBE994:
 1763              	.LBE998:
 460:../../libdaisy/src/hid/disp/display.h ****                                  const FontDef& font,
 1764              		.loc 6 460 15 view .LVU369
 1765 0018 0890     		str	r0, [sp, #32]
 1766 001a DDE91463 		ldrd	r6, r3, [sp, #80]
 1767              	.LVL135:
 1768              	.LBB999:
 1769              	.LBB995:
 1770              	.LBB988:
 1771              	.LBB985:
 477:../../libdaisy/src/hid/disp/display.h ****             result++;
 1772              		.loc 6 477 25 view .LVU370
 1773 001e 32B1     		cbz	r2, .L121
 476:../../libdaisy/src/hid/disp/display.h ****         while(*string++ != '\0')
 1774              		.loc 6 476 18 view .LVU371
 1775 0020 0022     		movs	r2, #0
 1776              	.LVL136:
 1777              	.L122:
 477:../../libdaisy/src/hid/disp/display.h ****             result++;
 1778              		.loc 6 477 25 view .LVU372
 1779 0022 11F8010B 		ldrb	r0, [r1], #1	@ zero_extendqisi2
 1780              	.LVL137:
 478:../../libdaisy/src/hid/disp/display.h ****             result++;
 1781              		.loc 6 478 13 view .LVU373
 1782 0026 0132     		adds	r2, r2, #1
 1783              	.LVL138:
 477:../../libdaisy/src/hid/disp/display.h ****             result++;
 1784              		.loc 6 477 25 is_stmt 1 view .LVU374
 1785 0028 0028     		cmp	r0, #0
 1786 002a FAD1     		bne	.L122
 1787 002c 92B2     		uxth	r2, r2
 1788              	.LVL139:
 1789              	.L121:
 477:../../libdaisy/src/hid/disp/display.h ****             result++;
 1790              		.loc 6 477 25 is_stmt 0 view .LVU375
 1791              	.LBE985:
 1792              	.LBE988:
 483:../../libdaisy/src/hid/disp/display.h ****     {
 484:../../libdaisy/src/hid/disp/display.h ****         const auto numChars = strlen(text);
 485:../../libdaisy/src/hid/disp/display.h ****         return {int16_t(numChars * font.FontWidth), font.FontHeight};
 1793              		.loc 6 485 68 view .LVU376
 1794 002e 2978     		ldrb	r1, [r5]	@ zero_extendqisi2
 1795              		.loc 6 485 58 view .LVU377
 1796 0030 6878     		ldrb	r0, [r5, #1]	@ zero_extendqisi2
 1797              		.loc 6 485 68 view .LVU378
 1798 0032 11FB02F2 		smulbb	r2, r1, r2
 1799 0036 01B2     		sxth	r1, r0
 1800              	.LVL140:
 1801              	.LBB989:
 1802              	.LBI989:
 1803              		.file 18 "../../libdaisy/src/hid/disp/graphics_common.h"
   1:../../libdaisy/src/hid/disp/graphics_common.h **** #pragma once
   2:../../libdaisy/src/hid/disp/graphics_common.h **** 
ARM GAS  /tmp/ccpr9r5K.s 			page 64


   3:../../libdaisy/src/hid/disp/graphics_common.h **** #include <cstdint>
   4:../../libdaisy/src/hid/disp/graphics_common.h **** 
   5:../../libdaisy/src/hid/disp/graphics_common.h **** namespace daisy
   6:../../libdaisy/src/hid/disp/graphics_common.h **** {
   7:../../libdaisy/src/hid/disp/graphics_common.h **** /** Justifications */
   8:../../libdaisy/src/hid/disp/graphics_common.h **** enum class Alignment
   9:../../libdaisy/src/hid/disp/graphics_common.h **** {
  10:../../libdaisy/src/hid/disp/graphics_common.h ****     centered,
  11:../../libdaisy/src/hid/disp/graphics_common.h ****     topLeft,
  12:../../libdaisy/src/hid/disp/graphics_common.h ****     topCentered,
  13:../../libdaisy/src/hid/disp/graphics_common.h ****     topRight,
  14:../../libdaisy/src/hid/disp/graphics_common.h ****     bottomLeft,
  15:../../libdaisy/src/hid/disp/graphics_common.h ****     bottomCentered,
  16:../../libdaisy/src/hid/disp/graphics_common.h ****     bottomRight,
  17:../../libdaisy/src/hid/disp/graphics_common.h ****     centeredLeft,
  18:../../libdaisy/src/hid/disp/graphics_common.h ****     centeredRight
  19:../../libdaisy/src/hid/disp/graphics_common.h **** };
  20:../../libdaisy/src/hid/disp/graphics_common.h **** 
  21:../../libdaisy/src/hid/disp/graphics_common.h **** class Rectangle
  22:../../libdaisy/src/hid/disp/graphics_common.h **** {
  23:../../libdaisy/src/hid/disp/graphics_common.h ****   public:
  24:../../libdaisy/src/hid/disp/graphics_common.h ****     Rectangle() : x_(0), y_(0), width_(0), height_(0) {}
  25:../../libdaisy/src/hid/disp/graphics_common.h **** 
  26:../../libdaisy/src/hid/disp/graphics_common.h ****     Rectangle(int16_t width, int16_t height)
 1804              		.loc 18 26 5 is_stmt 1 view .LVU379
 1805              	.LBB990:
 1806              	.LBI990:
  27:../../libdaisy/src/hid/disp/graphics_common.h ****     : x_(0), y_(0), width_(max(0, width)), height_(max(0, height))
  28:../../libdaisy/src/hid/disp/graphics_common.h ****     {
  29:../../libdaisy/src/hid/disp/graphics_common.h ****     }
  30:../../libdaisy/src/hid/disp/graphics_common.h **** 
  31:../../libdaisy/src/hid/disp/graphics_common.h ****     Rectangle(int16_t x, int16_t y, int16_t width, int16_t height)
  32:../../libdaisy/src/hid/disp/graphics_common.h ****     : x_(x), y_(y), width_(max(0, width)), height_(max(0, height))
  33:../../libdaisy/src/hid/disp/graphics_common.h ****     {
  34:../../libdaisy/src/hid/disp/graphics_common.h ****     }
  35:../../libdaisy/src/hid/disp/graphics_common.h **** 
  36:../../libdaisy/src/hid/disp/graphics_common.h ****     Rectangle(const Rectangle& other) { *this = other; }
  37:../../libdaisy/src/hid/disp/graphics_common.h **** 
  38:../../libdaisy/src/hid/disp/graphics_common.h ****     Rectangle& operator=(const Rectangle& other)
  39:../../libdaisy/src/hid/disp/graphics_common.h ****     {
  40:../../libdaisy/src/hid/disp/graphics_common.h ****         x_      = other.x_;
  41:../../libdaisy/src/hid/disp/graphics_common.h ****         y_      = other.y_;
  42:../../libdaisy/src/hid/disp/graphics_common.h ****         width_  = other.width_;
  43:../../libdaisy/src/hid/disp/graphics_common.h ****         height_ = other.height_;
  44:../../libdaisy/src/hid/disp/graphics_common.h ****         return *this;
  45:../../libdaisy/src/hid/disp/graphics_common.h ****     }
  46:../../libdaisy/src/hid/disp/graphics_common.h **** 
  47:../../libdaisy/src/hid/disp/graphics_common.h ****     bool operator==(const Rectangle& other) const
  48:../../libdaisy/src/hid/disp/graphics_common.h ****     {
  49:../../libdaisy/src/hid/disp/graphics_common.h ****         return (x_ == other.x_) && (y_ == other.y_) && (width_ == other.width_)
  50:../../libdaisy/src/hid/disp/graphics_common.h ****                && (height_ == other.height_);
  51:../../libdaisy/src/hid/disp/graphics_common.h ****     }
  52:../../libdaisy/src/hid/disp/graphics_common.h ****     bool operator!=(const Rectangle& other) const { return !(*this == other); }
  53:../../libdaisy/src/hid/disp/graphics_common.h **** 
  54:../../libdaisy/src/hid/disp/graphics_common.h ****     bool IsEmpty() const { return (width_ <= 0) || (height_ <= 0); }
  55:../../libdaisy/src/hid/disp/graphics_common.h **** 
  56:../../libdaisy/src/hid/disp/graphics_common.h ****     int16_t GetX() const { return x_; }
ARM GAS  /tmp/ccpr9r5K.s 			page 65


  57:../../libdaisy/src/hid/disp/graphics_common.h ****     int16_t GetY() const { return y_; }
  58:../../libdaisy/src/hid/disp/graphics_common.h ****     int16_t GetWidth() const { return width_; }
  59:../../libdaisy/src/hid/disp/graphics_common.h ****     int16_t GetHeight() const { return height_; }
  60:../../libdaisy/src/hid/disp/graphics_common.h ****     int16_t GetRight() const { return x_ + width_; }
  61:../../libdaisy/src/hid/disp/graphics_common.h ****     int16_t GetBottom() const { return y_ + height_; }
  62:../../libdaisy/src/hid/disp/graphics_common.h ****     int16_t GetCenterX() const { return x_ + width_ / 2; }
  63:../../libdaisy/src/hid/disp/graphics_common.h ****     int16_t GetCenterY() const { return y_ + height_ / 2; }
  64:../../libdaisy/src/hid/disp/graphics_common.h **** 
  65:../../libdaisy/src/hid/disp/graphics_common.h ****     Rectangle WithX(int16_t x) const { return {x, y_, width_, height_}; }
  66:../../libdaisy/src/hid/disp/graphics_common.h ****     Rectangle WithY(int16_t y) const { return {x_, y, width_, height_}; }
  67:../../libdaisy/src/hid/disp/graphics_common.h ****     Rectangle WithWidth(int16_t width) const
  68:../../libdaisy/src/hid/disp/graphics_common.h ****     {
  69:../../libdaisy/src/hid/disp/graphics_common.h ****         return {x_, y_, width, height_};
  70:../../libdaisy/src/hid/disp/graphics_common.h ****     }
  71:../../libdaisy/src/hid/disp/graphics_common.h ****     Rectangle WithHeight(int16_t height) const
  72:../../libdaisy/src/hid/disp/graphics_common.h ****     {
  73:../../libdaisy/src/hid/disp/graphics_common.h ****         return {x_, y_, width_, height};
  74:../../libdaisy/src/hid/disp/graphics_common.h ****     }
  75:../../libdaisy/src/hid/disp/graphics_common.h ****     Rectangle WithSize(int16_t width, int16_t height) const
  76:../../libdaisy/src/hid/disp/graphics_common.h ****     {
  77:../../libdaisy/src/hid/disp/graphics_common.h ****         return {x_, y_, width, height};
  78:../../libdaisy/src/hid/disp/graphics_common.h ****     }
  79:../../libdaisy/src/hid/disp/graphics_common.h ****     Rectangle WithWidthKeepingCenter(int16_t width) const
  80:../../libdaisy/src/hid/disp/graphics_common.h ****     {
  81:../../libdaisy/src/hid/disp/graphics_common.h ****         return Rectangle(x_, y_, width, height_)
  82:../../libdaisy/src/hid/disp/graphics_common.h ****             .WithCenter(GetCenterX(), GetCenterY());
  83:../../libdaisy/src/hid/disp/graphics_common.h ****     }
  84:../../libdaisy/src/hid/disp/graphics_common.h ****     Rectangle WithHeightKeepingCenter(int16_t height) const
  85:../../libdaisy/src/hid/disp/graphics_common.h ****     {
  86:../../libdaisy/src/hid/disp/graphics_common.h ****         return Rectangle(x_, y_, width_, height)
  87:../../libdaisy/src/hid/disp/graphics_common.h ****             .WithCenter(GetCenterX(), GetCenterY());
  88:../../libdaisy/src/hid/disp/graphics_common.h ****     }
  89:../../libdaisy/src/hid/disp/graphics_common.h ****     Rectangle WithSizeKeepingCenter(int16_t width, int16_t height) const
  90:../../libdaisy/src/hid/disp/graphics_common.h ****     {
  91:../../libdaisy/src/hid/disp/graphics_common.h ****         return Rectangle(x_, y_, width, height)
  92:../../libdaisy/src/hid/disp/graphics_common.h ****             .WithCenter(GetCenterX(), GetCenterY());
  93:../../libdaisy/src/hid/disp/graphics_common.h ****     }
  94:../../libdaisy/src/hid/disp/graphics_common.h **** 
  95:../../libdaisy/src/hid/disp/graphics_common.h ****     Rectangle Reduced(int16_t sizeToReduce) const
  96:../../libdaisy/src/hid/disp/graphics_common.h ****     {
  97:../../libdaisy/src/hid/disp/graphics_common.h ****         return {int16_t(x_ + sizeToReduce),
  98:../../libdaisy/src/hid/disp/graphics_common.h ****                 int16_t(y_ + sizeToReduce),
  99:../../libdaisy/src/hid/disp/graphics_common.h ****                 int16_t(width_ - 2 * sizeToReduce),
 100:../../libdaisy/src/hid/disp/graphics_common.h ****                 int16_t(height_ - 2 * sizeToReduce)};
 101:../../libdaisy/src/hid/disp/graphics_common.h ****     }
 102:../../libdaisy/src/hid/disp/graphics_common.h ****     Rectangle Reduced(int16_t xToReduce, int16_t yToReduce) const
 103:../../libdaisy/src/hid/disp/graphics_common.h ****     {
 104:../../libdaisy/src/hid/disp/graphics_common.h ****         return {int16_t(x_ + xToReduce),
 105:../../libdaisy/src/hid/disp/graphics_common.h ****                 int16_t(y_ + yToReduce),
 106:../../libdaisy/src/hid/disp/graphics_common.h ****                 int16_t(width_ - 2 * xToReduce),
 107:../../libdaisy/src/hid/disp/graphics_common.h ****                 int16_t(height_ - 2 * yToReduce)};
 108:../../libdaisy/src/hid/disp/graphics_common.h ****     }
 109:../../libdaisy/src/hid/disp/graphics_common.h **** 
 110:../../libdaisy/src/hid/disp/graphics_common.h ****     Rectangle Translated(int16_t x, int16_t y) const
 111:../../libdaisy/src/hid/disp/graphics_common.h ****     {
 112:../../libdaisy/src/hid/disp/graphics_common.h ****         return {int16_t(x_ + x), int16_t(y_ + y), width_, height_};
 113:../../libdaisy/src/hid/disp/graphics_common.h ****     }
ARM GAS  /tmp/ccpr9r5K.s 			page 66


 114:../../libdaisy/src/hid/disp/graphics_common.h **** 
 115:../../libdaisy/src/hid/disp/graphics_common.h ****     Rectangle WithLeft(int16_t left) const
 116:../../libdaisy/src/hid/disp/graphics_common.h ****     {
 117:../../libdaisy/src/hid/disp/graphics_common.h ****         const auto newWidth = int16_t((x_ - left) + width_);
 118:../../libdaisy/src/hid/disp/graphics_common.h ****         return {left, y_, newWidth, height_};
 119:../../libdaisy/src/hid/disp/graphics_common.h ****     }
 120:../../libdaisy/src/hid/disp/graphics_common.h **** 
 121:../../libdaisy/src/hid/disp/graphics_common.h ****     Rectangle WithRight(int16_t right) const
 122:../../libdaisy/src/hid/disp/graphics_common.h ****     {
 123:../../libdaisy/src/hid/disp/graphics_common.h ****         const auto newWidth = int16_t(right - x_);
 124:../../libdaisy/src/hid/disp/graphics_common.h ****         return {x_, y_, newWidth, height_};
 125:../../libdaisy/src/hid/disp/graphics_common.h ****     }
 126:../../libdaisy/src/hid/disp/graphics_common.h **** 
 127:../../libdaisy/src/hid/disp/graphics_common.h ****     Rectangle WithTop(int16_t top) const
 128:../../libdaisy/src/hid/disp/graphics_common.h ****     {
 129:../../libdaisy/src/hid/disp/graphics_common.h ****         const auto newHeight = int16_t((y_ - top) + height_);
 130:../../libdaisy/src/hid/disp/graphics_common.h ****         return {x_, top, width_, newHeight};
 131:../../libdaisy/src/hid/disp/graphics_common.h ****     }
 132:../../libdaisy/src/hid/disp/graphics_common.h **** 
 133:../../libdaisy/src/hid/disp/graphics_common.h ****     Rectangle WithBottom(int16_t bottom) const
 134:../../libdaisy/src/hid/disp/graphics_common.h ****     {
 135:../../libdaisy/src/hid/disp/graphics_common.h ****         const auto newHeight = int16_t(bottom - y_);
 136:../../libdaisy/src/hid/disp/graphics_common.h ****         return {x_, y_, width_, newHeight};
 137:../../libdaisy/src/hid/disp/graphics_common.h ****     }
 138:../../libdaisy/src/hid/disp/graphics_common.h **** 
 139:../../libdaisy/src/hid/disp/graphics_common.h ****     Rectangle WithTrimmedLeft(int16_t pxToTrim) const
 140:../../libdaisy/src/hid/disp/graphics_common.h ****     {
 141:../../libdaisy/src/hid/disp/graphics_common.h ****         return {
 142:../../libdaisy/src/hid/disp/graphics_common.h ****             int16_t(x_ + pxToTrim), y_, int16_t(width_ - pxToTrim), height_};
 143:../../libdaisy/src/hid/disp/graphics_common.h ****     }
 144:../../libdaisy/src/hid/disp/graphics_common.h **** 
 145:../../libdaisy/src/hid/disp/graphics_common.h ****     Rectangle WithTrimmedRight(int16_t pxToTrim) const
 146:../../libdaisy/src/hid/disp/graphics_common.h ****     {
 147:../../libdaisy/src/hid/disp/graphics_common.h ****         return {x_, y_, int16_t(width_ - pxToTrim), height_};
 148:../../libdaisy/src/hid/disp/graphics_common.h ****     }
 149:../../libdaisy/src/hid/disp/graphics_common.h **** 
 150:../../libdaisy/src/hid/disp/graphics_common.h ****     Rectangle WithTrimmedTop(int16_t pxToTrim) const
 151:../../libdaisy/src/hid/disp/graphics_common.h ****     {
 152:../../libdaisy/src/hid/disp/graphics_common.h ****         return {
 153:../../libdaisy/src/hid/disp/graphics_common.h ****             x_, int16_t(y_ + pxToTrim), width_, int16_t(height_ - pxToTrim)};
 154:../../libdaisy/src/hid/disp/graphics_common.h ****     }
 155:../../libdaisy/src/hid/disp/graphics_common.h **** 
 156:../../libdaisy/src/hid/disp/graphics_common.h ****     Rectangle WithTrimmedBottom(int16_t pxToTrim) const
 157:../../libdaisy/src/hid/disp/graphics_common.h ****     {
 158:../../libdaisy/src/hid/disp/graphics_common.h ****         return {x_, y_, width_, int16_t(height_ - pxToTrim)};
 159:../../libdaisy/src/hid/disp/graphics_common.h ****     }
 160:../../libdaisy/src/hid/disp/graphics_common.h **** 
 161:../../libdaisy/src/hid/disp/graphics_common.h ****     Rectangle WithCenterX(int16_t centerX) const
 162:../../libdaisy/src/hid/disp/graphics_common.h ****     {
 163:../../libdaisy/src/hid/disp/graphics_common.h ****         return {int16_t(x_ + centerX - GetCenterX()), y_, width_, height_};
 164:../../libdaisy/src/hid/disp/graphics_common.h ****     }
 165:../../libdaisy/src/hid/disp/graphics_common.h **** 
 166:../../libdaisy/src/hid/disp/graphics_common.h ****     Rectangle WithCenterY(int16_t centerY) const
 167:../../libdaisy/src/hid/disp/graphics_common.h ****     {
 168:../../libdaisy/src/hid/disp/graphics_common.h ****         return {x_, int16_t(y_ + centerY - GetCenterY()), width_, height_};
 169:../../libdaisy/src/hid/disp/graphics_common.h ****     }
 170:../../libdaisy/src/hid/disp/graphics_common.h **** 
ARM GAS  /tmp/ccpr9r5K.s 			page 67


 171:../../libdaisy/src/hid/disp/graphics_common.h ****     Rectangle WithCenter(int16_t centerX, int16_t centerY) const
 172:../../libdaisy/src/hid/disp/graphics_common.h ****     {
 173:../../libdaisy/src/hid/disp/graphics_common.h ****         return {int16_t(x_ + centerX - GetCenterX()),
 174:../../libdaisy/src/hid/disp/graphics_common.h ****                 int16_t(y_ + centerY - GetCenterY()),
 175:../../libdaisy/src/hid/disp/graphics_common.h ****                 width_,
 176:../../libdaisy/src/hid/disp/graphics_common.h ****                 height_};
 177:../../libdaisy/src/hid/disp/graphics_common.h ****     }
 178:../../libdaisy/src/hid/disp/graphics_common.h **** 
 179:../../libdaisy/src/hid/disp/graphics_common.h ****     Rectangle RemoveFromLeft(int16_t pxToRemove)
 180:../../libdaisy/src/hid/disp/graphics_common.h ****     {
 181:../../libdaisy/src/hid/disp/graphics_common.h ****         const auto result = this->WithWidth(min(pxToRemove, width_));
 182:../../libdaisy/src/hid/disp/graphics_common.h ****         x_ += min(pxToRemove, width_);
 183:../../libdaisy/src/hid/disp/graphics_common.h ****         width_ = max(int16_t(width_ - pxToRemove), 0);
 184:../../libdaisy/src/hid/disp/graphics_common.h ****         return result;
 185:../../libdaisy/src/hid/disp/graphics_common.h ****     }
 186:../../libdaisy/src/hid/disp/graphics_common.h **** 
 187:../../libdaisy/src/hid/disp/graphics_common.h ****     Rectangle RemoveFromRight(int16_t pxToRemove)
 188:../../libdaisy/src/hid/disp/graphics_common.h ****     {
 189:../../libdaisy/src/hid/disp/graphics_common.h ****         const auto canRemove = min(pxToRemove, width_);
 190:../../libdaisy/src/hid/disp/graphics_common.h ****         width_ -= canRemove;
 191:../../libdaisy/src/hid/disp/graphics_common.h ****         return {int16_t(x_ + width_), y_, canRemove, height_};
 192:../../libdaisy/src/hid/disp/graphics_common.h ****     }
 193:../../libdaisy/src/hid/disp/graphics_common.h **** 
 194:../../libdaisy/src/hid/disp/graphics_common.h ****     Rectangle RemoveFromTop(int16_t pxToRemove)
 195:../../libdaisy/src/hid/disp/graphics_common.h ****     {
 196:../../libdaisy/src/hid/disp/graphics_common.h ****         const auto result = this->WithHeight(min(pxToRemove, height_));
 197:../../libdaisy/src/hid/disp/graphics_common.h ****         y_ += min(pxToRemove, height_);
 198:../../libdaisy/src/hid/disp/graphics_common.h ****         height_ = max(height_ - pxToRemove, 0);
 199:../../libdaisy/src/hid/disp/graphics_common.h ****         return result;
 200:../../libdaisy/src/hid/disp/graphics_common.h ****     }
 201:../../libdaisy/src/hid/disp/graphics_common.h **** 
 202:../../libdaisy/src/hid/disp/graphics_common.h ****     Rectangle RemoveFromBottom(int16_t pxToRemove)
 203:../../libdaisy/src/hid/disp/graphics_common.h ****     {
 204:../../libdaisy/src/hid/disp/graphics_common.h ****         const auto canRemove = min(pxToRemove, height_);
 205:../../libdaisy/src/hid/disp/graphics_common.h ****         height_ -= canRemove;
 206:../../libdaisy/src/hid/disp/graphics_common.h ****         return {x_, int16_t(y_ + height_), width_, canRemove};
 207:../../libdaisy/src/hid/disp/graphics_common.h ****     }
 208:../../libdaisy/src/hid/disp/graphics_common.h **** 
 209:../../libdaisy/src/hid/disp/graphics_common.h ****     Rectangle AlignedWithin(const Rectangle& other, Alignment alignment) const
 210:../../libdaisy/src/hid/disp/graphics_common.h ****     {
 211:../../libdaisy/src/hid/disp/graphics_common.h ****         switch(alignment)
 212:../../libdaisy/src/hid/disp/graphics_common.h ****         {
 213:../../libdaisy/src/hid/disp/graphics_common.h ****             case Alignment::topLeft:
 214:../../libdaisy/src/hid/disp/graphics_common.h ****                 return {other.x_, other.y_, width_, height_};
 215:../../libdaisy/src/hid/disp/graphics_common.h ****             case Alignment::topRight:
 216:../../libdaisy/src/hid/disp/graphics_common.h ****                 return {int16_t(other.GetRight() - width_),
 217:../../libdaisy/src/hid/disp/graphics_common.h ****                         other.y_,
 218:../../libdaisy/src/hid/disp/graphics_common.h ****                         width_,
 219:../../libdaisy/src/hid/disp/graphics_common.h ****                         height_};
 220:../../libdaisy/src/hid/disp/graphics_common.h ****             case Alignment::topCentered:
 221:../../libdaisy/src/hid/disp/graphics_common.h ****                 return {int16_t(x_ + (other.GetCenterX() - GetCenterX())),
 222:../../libdaisy/src/hid/disp/graphics_common.h ****                         other.y_,
 223:../../libdaisy/src/hid/disp/graphics_common.h ****                         width_,
 224:../../libdaisy/src/hid/disp/graphics_common.h ****                         height_};
 225:../../libdaisy/src/hid/disp/graphics_common.h ****             case Alignment::bottomLeft:
 226:../../libdaisy/src/hid/disp/graphics_common.h ****                 return {other.x_,
 227:../../libdaisy/src/hid/disp/graphics_common.h ****                         int16_t(other.GetBottom() - height_),
ARM GAS  /tmp/ccpr9r5K.s 			page 68


 228:../../libdaisy/src/hid/disp/graphics_common.h ****                         width_,
 229:../../libdaisy/src/hid/disp/graphics_common.h ****                         height_};
 230:../../libdaisy/src/hid/disp/graphics_common.h ****             case Alignment::bottomRight:
 231:../../libdaisy/src/hid/disp/graphics_common.h ****                 return {int16_t(other.GetRight() - width_),
 232:../../libdaisy/src/hid/disp/graphics_common.h ****                         int16_t(other.GetBottom() - height_),
 233:../../libdaisy/src/hid/disp/graphics_common.h ****                         width_,
 234:../../libdaisy/src/hid/disp/graphics_common.h ****                         height_};
 235:../../libdaisy/src/hid/disp/graphics_common.h ****             case Alignment::bottomCentered:
 236:../../libdaisy/src/hid/disp/graphics_common.h ****                 return {int16_t(x_ + (other.GetCenterX() - GetCenterX())),
 237:../../libdaisy/src/hid/disp/graphics_common.h ****                         int16_t(other.GetBottom() - height_),
 238:../../libdaisy/src/hid/disp/graphics_common.h ****                         width_,
 239:../../libdaisy/src/hid/disp/graphics_common.h ****                         height_};
 240:../../libdaisy/src/hid/disp/graphics_common.h ****             case Alignment::centeredLeft:
 241:../../libdaisy/src/hid/disp/graphics_common.h ****                 return {other.x_,
 242:../../libdaisy/src/hid/disp/graphics_common.h ****                         int16_t(y_ + (other.GetCenterY() - GetCenterY())),
 243:../../libdaisy/src/hid/disp/graphics_common.h ****                         width_,
 244:../../libdaisy/src/hid/disp/graphics_common.h ****                         height_};
 245:../../libdaisy/src/hid/disp/graphics_common.h ****             case Alignment::centeredRight:
 246:../../libdaisy/src/hid/disp/graphics_common.h ****                 return {int16_t(other.GetRight() - width_),
 247:../../libdaisy/src/hid/disp/graphics_common.h ****                         int16_t(y_ + (other.GetCenterY() - GetCenterY())),
 248:../../libdaisy/src/hid/disp/graphics_common.h ****                         width_,
 249:../../libdaisy/src/hid/disp/graphics_common.h ****                         height_};
 250:../../libdaisy/src/hid/disp/graphics_common.h ****             case Alignment::centered:
 251:../../libdaisy/src/hid/disp/graphics_common.h ****                 return {int16_t(x_ + (other.GetCenterX() - GetCenterX())),
 252:../../libdaisy/src/hid/disp/graphics_common.h ****                         int16_t(y_ + (other.GetCenterY() - GetCenterY())),
 253:../../libdaisy/src/hid/disp/graphics_common.h ****                         width_,
 254:../../libdaisy/src/hid/disp/graphics_common.h ****                         height_};
 255:../../libdaisy/src/hid/disp/graphics_common.h ****             default: return {};
 256:../../libdaisy/src/hid/disp/graphics_common.h ****         }
 257:../../libdaisy/src/hid/disp/graphics_common.h ****     }
 258:../../libdaisy/src/hid/disp/graphics_common.h **** 
 259:../../libdaisy/src/hid/disp/graphics_common.h ****   private:
 260:../../libdaisy/src/hid/disp/graphics_common.h ****     int16_t x_, y_, width_, height_;
 261:../../libdaisy/src/hid/disp/graphics_common.h ****     int16_t max(int16_t a, int16_t b) { return (a > b) ? a : b; }
 1807              		.loc 18 261 13 view .LVU380
 1808              		.loc 18 261 13 is_stmt 0 view .LVU381
 1809              	.LBE990:
 1810              	.LBE989:
 1811              	.LBE995:
 1812              	.LBE999:
 1813              		.loc 18 261 41 is_stmt 1 view .LVU382
 1814 0038 12B2     		sxth	r2, r2
 1815 003a 22EAE272 		bic	r2, r2, r2, asr #31
 1816              	.LVL141:
 1817              	.LBB1000:
 1818              	.LBB996:
 1819              	.LBB992:
 1820              	.LBB991:
 1821              	.LBI991:
 1822              		.loc 18 261 13 view .LVU383
 1823              		.loc 18 261 13 is_stmt 0 view .LVU384
 1824              	.LBE991:
 1825              	.LBE992:
 1826              	.LBE996:
 1827              	.LBE1000:
 1828              		.loc 18 261 41 is_stmt 1 view .LVU385
 1829              	.LBB1001:
ARM GAS  /tmp/ccpr9r5K.s 			page 69


 1830              	.LBI1001:
 209:../../libdaisy/src/hid/disp/graphics_common.h ****     {
 1831              		.loc 18 209 15 view .LVU386
 1832              	.LBB1002:
 211:../../libdaisy/src/hid/disp/graphics_common.h ****         {
 1833              		.loc 18 211 9 view .LVU387
 1834 003e 082B     		cmp	r3, #8
 1835 0040 00F2AD81 		bhi	.L123
 1836 0044 DFE813F0 		tbh	[pc, r3, lsl #1]
 1837              	.L125:
 1838 0048 0001     		.2byte	(.L133-.L125)/2
 1839 004a 1201     		.2byte	(.L132-.L125)/2
 1840 004c 1E01     		.2byte	(.L131-.L125)/2
 1841 004e 3201     		.2byte	(.L130-.L125)/2
 1842 0050 4001     		.2byte	(.L129-.L125)/2
 1843 0052 5001     		.2byte	(.L128-.L125)/2
 1844 0054 6B01     		.2byte	(.L127-.L125)/2
 1845 0056 7801     		.2byte	(.L126-.L125)/2
 1846 0058 0900     		.2byte	(.L124-.L125)/2
 1847              		.p2align 1
 1848              	.L124:
 245:../../libdaisy/src/hid/disp/graphics_common.h ****                 return {int16_t(other.GetRight() - width_),
 1849              		.loc 18 245 13 view .LVU388
 246:../../libdaisy/src/hid/disp/graphics_common.h ****                         int16_t(y_ + (other.GetCenterY() - GetCenterY())),
 1850              		.loc 18 246 17 view .LVU389
 1851              	.LBB1003:
 1852              	.LBI1003:
  60:../../libdaisy/src/hid/disp/graphics_common.h ****     int16_t GetBottom() const { return y_ + height_; }
 1853              		.loc 18 60 13 view .LVU390
 1854              	.LVL142:
 1855              	.LBB1004:
  60:../../libdaisy/src/hid/disp/graphics_common.h ****     int16_t GetBottom() const { return y_ + height_; }
 1856              		.loc 18 60 32 view .LVU391
  60:../../libdaisy/src/hid/disp/graphics_common.h ****     int16_t GetBottom() const { return y_ + height_; }
 1857              		.loc 18 60 42 is_stmt 0 view .LVU392
 1858 005a 3788     		ldrh	r7, [r6]
 1859 005c B088     		ldrh	r0, [r6, #4]
 1860              	.LBE1004:
 1861              	.LBE1003:
 1862              	.LBB1006:
 1863              	.LBB1007:
  63:../../libdaisy/src/hid/disp/graphics_common.h **** 
 1864              		.loc 18 63 54 view .LVU393
 1865 005e B6F90630 		ldrsh	r3, [r6, #6]
 1866              	.LVL143:
  63:../../libdaisy/src/hid/disp/graphics_common.h **** 
 1867              		.loc 18 63 54 view .LVU394
 1868              	.LBE1007:
 1869              	.LBE1006:
 1870              	.LBB1011:
 1871              	.LBB1005:
  60:../../libdaisy/src/hid/disp/graphics_common.h ****     int16_t GetBottom() const { return y_ + height_; }
 1872              		.loc 18 60 42 view .LVU395
 1873 0062 0744     		add	r7, r7, r0
 1874              	.LBE1005:
 1875              	.LBE1011:
 1876              	.LBB1012:
ARM GAS  /tmp/ccpr9r5K.s 			page 70


 1877              	.LBB1008:
  63:../../libdaisy/src/hid/disp/graphics_common.h **** 
 1878              		.loc 18 63 54 view .LVU396
 1879 0064 002B     		cmp	r3, #0
 1880              	.LBE1008:
 1881              	.LBE1012:
 246:../../libdaisy/src/hid/disp/graphics_common.h ****                         int16_t(y_ + (other.GetCenterY() - GetCenterY())),
 1882              		.loc 18 246 50 view .LVU397
 1883 0066 A7EB0207 		sub	r7, r7, r2
 1884 006a BFB2     		uxth	r7, r7
 1885              	.LBB1013:
 1886              	.LBI1006:
  63:../../libdaisy/src/hid/disp/graphics_common.h **** 
 1887              		.loc 18 63 13 is_stmt 1 view .LVU398
 1888              	.LVL144:
 1889              	.LBB1009:
  63:../../libdaisy/src/hid/disp/graphics_common.h **** 
 1890              		.loc 18 63 34 view .LVU399
  63:../../libdaisy/src/hid/disp/graphics_common.h **** 
 1891              		.loc 18 63 34 is_stmt 0 view .LVU400
 1892              	.LBE1009:
 1893              	.LBE1013:
 1894              	.LBB1014:
 1895              	.LBI1014:
  63:../../libdaisy/src/hid/disp/graphics_common.h **** 
 1896              		.loc 18 63 13 is_stmt 1 view .LVU401
 1897              	.LBB1015:
  63:../../libdaisy/src/hid/disp/graphics_common.h **** 
 1898              		.loc 18 63 34 view .LVU402
 1899              	.LBE1015:
 1900              	.LBE1014:
 1901              	.LBB1016:
 1902              	.LBB1010:
  63:../../libdaisy/src/hid/disp/graphics_common.h **** 
 1903              		.loc 18 63 54 is_stmt 0 view .LVU403
 1904 006c C0F2FC80 		blt	.L197
 1905              	.LVL145:
 1906              	.L140:
  63:../../libdaisy/src/hid/disp/graphics_common.h **** 
 1907              		.loc 18 63 54 view .LVU404
 1908              	.LBE1010:
 1909              	.LBE1016:
 1910              	.LBB1017:
 1911              	.LBB1018:
  63:../../libdaisy/src/hid/disp/graphics_common.h **** 
 1912              		.loc 18 63 44 view .LVU405
 1913 0070 B6F802C0 		ldrh	ip, [r6, #2]
 1914              	.LBE1018:
 1915              	.LBE1017:
 1916              	.LBB1024:
 1917              	.LBB1025:
 1918              	.LBB1026:
  32:../../libdaisy/src/hid/disp/graphics_common.h ****     {
 1919              		.loc 18 32 66 view .LVU406
 1920 0074 0998     		ldr	r0, [sp, #36]
 1921              	.LBE1026:
 1922              	.LBE1025:
ARM GAS  /tmp/ccpr9r5K.s 			page 71


 1923              	.LBE1024:
 1924              	.LBB1035:
 1925              	.LBB1019:
  63:../../libdaisy/src/hid/disp/graphics_common.h **** 
 1926              		.loc 18 63 44 view .LVU407
 1927 0076 0CEB6306 		add	r6, ip, r3, asr #1
 1928              	.LVL146:
  63:../../libdaisy/src/hid/disp/graphics_common.h **** 
 1929              		.loc 18 63 44 view .LVU408
 1930              	.LBE1019:
 1931              	.LBE1035:
 1932              	.LBB1036:
 1933              	.LBB1032:
 1934              	.LBB1029:
  32:../../libdaisy/src/hid/disp/graphics_common.h ****     {
 1935              		.loc 18 32 66 view .LVU409
 1936 007a 0346     		mov	r3, r0
 1937 007c 0780     		strh	r7, [r0]	@ movhi
 1938              	.L195:
  32:../../libdaisy/src/hid/disp/graphics_common.h ****     {
 1939              		.loc 18 32 66 view .LVU410
 1940 007e 8280     		strh	r2, [r0, #4]	@ movhi
 1941 0080 D980     		strh	r1, [r3, #6]	@ movhi
 1942              	.LBE1029:
 1943              	.LBE1032:
 1944              	.LBE1036:
 252:../../libdaisy/src/hid/disp/graphics_common.h ****                         width_,
 1945              		.loc 18 252 58 view .LVU411
 1946 0082 A6EB5101 		sub	r1, r6, r1, lsr #1
 1947 0086 8EB2     		uxth	r6, r1
 1948              	.LVL147:
 1949              	.LBB1037:
 1950              	.LBI1024:
  31:../../libdaisy/src/hid/disp/graphics_common.h ****     : x_(x), y_(y), width_(max(0, width)), height_(max(0, height))
 1951              		.loc 18 31 5 is_stmt 1 view .LVU412
 1952              	.LBB1033:
 1953              	.LBB1030:
  32:../../libdaisy/src/hid/disp/graphics_common.h ****     {
 1954              		.loc 18 32 66 is_stmt 0 view .LVU413
 1955 0088 5E80     		strh	r6, [r3, #2]	@ movhi
 1956              	.LVL148:
 1957              	.LBB1027:
 1958              	.LBI1027:
 1959              		.loc 18 261 13 is_stmt 1 view .LVU414
 1960              		.loc 18 261 13 is_stmt 0 view .LVU415
 1961              	.LBE1027:
 1962              	.LBE1030:
 1963              	.LBE1033:
 1964              	.LBE1037:
 1965              	.LBE1002:
 1966              	.LBE1001:
 1967              		.loc 18 261 41 is_stmt 1 view .LVU416
 1968              	.LBB1222:
 1969              	.LBB1207:
 1970              	.LBB1038:
 1971              	.LBB1034:
 1972              	.LBB1031:
ARM GAS  /tmp/ccpr9r5K.s 			page 72


 1973              	.LBB1028:
 1974              	.LBI1028:
 1975              		.loc 18 261 13 view .LVU417
 1976              		.loc 18 261 13 is_stmt 0 view .LVU418
 1977              	.LBE1028:
 1978              	.LBE1031:
 1979              	.LBE1034:
 1980              	.LBE1038:
 1981              	.LBE1207:
 1982              	.LBE1222:
 1983              		.loc 18 261 41 is_stmt 1 view .LVU419
 1984              	.L134:
  56:../../libdaisy/src/hid/disp/graphics_common.h ****     int16_t GetY() const { return y_; }
 1985              		.loc 18 56 28 view .LVU420
  57:../../libdaisy/src/hid/disp/graphics_common.h ****     int16_t GetWidth() const { return width_; }
 1986              		.loc 18 57 28 view .LVU421
 1987              	.LBB1223:
 1988              	.LBI1223:
 171:../../libdaisy/src/hid/disp/display.h ****     {
 1989              		.loc 6 171 10 view .LVU422
 1990              	.LBB1224:
 173:../../libdaisy/src/hid/disp/display.h ****         currentY_ = (y >= Height()) ? Height() - 1 : y;
 1991              		.loc 6 173 9 view .LVU423
 1992 008a B64A     		ldr	r2, .L207
 173:../../libdaisy/src/hid/disp/display.h ****         currentY_ = (y >= Height()) ? Height() - 1 : y;
 1993              		.loc 6 173 33 is_stmt 0 view .LVU424
 1994 008c 2368     		ldr	r3, [r4]
 1995 008e 1146     		mov	r1, r2
 1996 0090 0192     		str	r2, [sp, #4]
 1997 0092 DA68     		ldr	r2, [r3, #12]
 1998 0094 8A42     		cmp	r2, r1
 1999 0096 40F08F81 		bne	.L142
 2000 009a 8020     		movs	r0, #128
 2001              	.LVL149:
 2002              	.L143:
 173:../../libdaisy/src/hid/disp/display.h ****         currentY_ = (y >= Height()) ? Height() - 1 : y;
 2003              		.loc 6 173 19 view .LVU425
 2004 009c B842     		cmp	r0, r7
 2005 009e 05D8     		bhi	.L144
 173:../../libdaisy/src/hid/disp/display.h ****         currentY_ = (y >= Height()) ? Height() - 1 : y;
 2006              		.loc 6 173 44 view .LVU426
 2007 00a0 DA68     		ldr	r2, [r3, #12]
 2008 00a2 0199     		ldr	r1, [sp, #4]
 2009 00a4 8A42     		cmp	r2, r1
 2010 00a6 40F09A81 		bne	.L198
 2011 00aa 7F27     		movs	r7, #127
 2012              	.L144:
 174:../../libdaisy/src/hid/disp/display.h ****     }
 2013              		.loc 6 174 34 view .LVU427
 2014 00ac 9B68     		ldr	r3, [r3, #8]
 2015 00ae AE4A     		ldr	r2, .L207+4
 173:../../libdaisy/src/hid/disp/display.h ****         currentY_ = (y >= Height()) ? Height() - 1 : y;
 2016              		.loc 6 173 19 view .LVU428
 2017 00b0 A780     		strh	r7, [r4, #4]	@ movhi
 174:../../libdaisy/src/hid/disp/display.h ****     }
 2018              		.loc 6 174 9 is_stmt 1 view .LVU429
 2019 00b2 9342     		cmp	r3, r2
ARM GAS  /tmp/ccpr9r5K.s 			page 73


 2020 00b4 0392     		str	r2, [sp, #12]
 2021 00b6 40F08A81 		bne	.L174
 174:../../libdaisy/src/hid/disp/display.h ****     }
 2022              		.loc 6 174 34 is_stmt 0 view .LVU430
 2023 00ba 4020     		movs	r0, #64
 2024              	.L146:
 174:../../libdaisy/src/hid/disp/display.h ****     }
 2025              		.loc 6 174 19 view .LVU431
 2026 00bc B042     		cmp	r0, r6
 2027 00be 06D8     		bhi	.L148
 174:../../libdaisy/src/hid/disp/display.h ****     }
 2028              		.loc 6 174 46 view .LVU432
 2029 00c0 2368     		ldr	r3, [r4]
 2030 00c2 039A     		ldr	r2, [sp, #12]
 2031 00c4 9B68     		ldr	r3, [r3, #8]
 2032 00c6 9342     		cmp	r3, r2
 2033 00c8 40F08481 		bne	.L199
 2034 00cc 3F26     		movs	r6, #63
 2035              	.L148:
 174:../../libdaisy/src/hid/disp/display.h ****     }
 2036              		.loc 6 174 46 view .LVU433
 2037 00ce 6B78     		ldrb	r3, [r5, #1]	@ zero_extendqisi2
 174:../../libdaisy/src/hid/disp/display.h ****     }
 2038              		.loc 6 174 19 view .LVU434
 2039 00d0 E680     		strh	r6, [r4, #6]	@ movhi
 2040              	.LVL150:
 174:../../libdaisy/src/hid/disp/display.h ****     }
 2041              		.loc 6 174 19 view .LVU435
 2042 00d2 0493     		str	r3, [sp, #16]
 2043              	.LBE1224:
 2044              	.LBE1223:
 2045              	.LBB1228:
 2046              	.LBB1229:
 443:../../libdaisy/src/hid/disp/display.h ****         {
 2047              		.loc 6 443 9 view .LVU436
 2048 00d4 98F80060 		ldrb	r6, [r8]	@ zero_extendqisi2
 2049 00d8 6B68     		ldr	r3, [r5, #4]
 2050 00da 95F800B0 		ldrb	fp, [r5]	@ zero_extendqisi2
 2051              	.LVL151:
 443:../../libdaisy/src/hid/disp/display.h ****         {
 2052              		.loc 6 443 9 view .LVU437
 2053 00de 0793     		str	r3, [sp, #28]
 2054              	.LVL152:
 443:../../libdaisy/src/hid/disp/display.h ****         {
 2055              		.loc 6 443 9 view .LVU438
 2056              	.LBE1229:
 2057              	.LBI1228:
 440:../../libdaisy/src/hid/disp/display.h ****     {
 2058              		.loc 6 440 10 is_stmt 1 view .LVU439
 2059              	.LBB1272:
 443:../../libdaisy/src/hid/disp/display.h ****         {
 2060              		.loc 6 443 9 view .LVU440
 2061 00e0 002E     		cmp	r6, #0
 2062 00e2 00F0AD80 		beq	.L120
 2063              	.LVL153:
 2064              	.L150:
 2065              	.LBB1230:
ARM GAS  /tmp/ccpr9r5K.s 			page 74


 2066              	.LBI1230:
 396:../../libdaisy/src/hid/disp/display.h ****     {
 2067              		.loc 6 396 10 view .LVU441
 2068              	.LBB1231:
 401:../../libdaisy/src/hid/disp/display.h ****             return 0;
 2069              		.loc 6 401 20 is_stmt 0 view .LVU442
 2070 00e6 A6F12005 		sub	r5, r6, #32
 401:../../libdaisy/src/hid/disp/display.h ****             return 0;
 2071              		.loc 6 401 9 view .LVU443
 2072 00ea EBB2     		uxtb	r3, r5
 2073 00ec 5E2B     		cmp	r3, #94
 2074 00ee 00F23481 		bhi	.L154
 405:../../libdaisy/src/hid/disp/display.h ****            || Height() < (currentY_ + font.FontHeight))
 2075              		.loc 6 405 17 view .LVU444
 2076 00f2 2368     		ldr	r3, [r4]
 2077 00f4 019A     		ldr	r2, [sp, #4]
 2078 00f6 DB68     		ldr	r3, [r3, #12]
 2079 00f8 9342     		cmp	r3, r2
 2080 00fa 40F03081 		bne	.L200
 2081 00fe 8020     		movs	r0, #128
 2082              	.L153:
 405:../../libdaisy/src/hid/disp/display.h ****            || Height() < (currentY_ + font.FontHeight))
 2083              		.loc 6 405 23 view .LVU445
 2084 0100 A388     		ldrh	r3, [r4, #4]
 405:../../libdaisy/src/hid/disp/display.h ****            || Height() < (currentY_ + font.FontHeight))
 2085              		.loc 6 405 33 view .LVU446
 2086 0102 5B44     		add	r3, r3, fp
 406:../../libdaisy/src/hid/disp/display.h ****         {
 2087              		.loc 6 406 12 view .LVU447
 2088 0104 9842     		cmp	r0, r3
 2089 0106 C0F22881 		blt	.L154
 406:../../libdaisy/src/hid/disp/display.h ****         {
 2090              		.loc 6 406 21 view .LVU448
 2091 010a 2368     		ldr	r3, [r4]
 2092 010c 039A     		ldr	r2, [sp, #12]
 2093 010e 9B68     		ldr	r3, [r3, #8]
 2094 0110 9342     		cmp	r3, r2
 2095 0112 40F02B81 		bne	.L201
 2096 0116 4020     		movs	r0, #64
 2097              	.L155:
 406:../../libdaisy/src/hid/disp/display.h ****         {
 2098              		.loc 6 406 27 view .LVU449
 2099 0118 E188     		ldrh	r1, [r4, #6]
 406:../../libdaisy/src/hid/disp/display.h ****         {
 2100              		.loc 6 406 37 view .LVU450
 2101 011a 049A     		ldr	r2, [sp, #16]
 406:../../libdaisy/src/hid/disp/display.h ****         {
 2102              		.loc 6 406 27 view .LVU451
 2103 011c 0291     		str	r1, [sp, #8]
 406:../../libdaisy/src/hid/disp/display.h ****         {
 2104              		.loc 6 406 37 view .LVU452
 2105 011e 8B18     		adds	r3, r1, r2
 406:../../libdaisy/src/hid/disp/display.h ****         {
 2106              		.loc 6 406 12 view .LVU453
 2107 0120 9842     		cmp	r0, r3
 2108 0122 C0F21A81 		blt	.L154
 2109              	.LVL154:
ARM GAS  /tmp/ccpr9r5K.s 			page 75


 413:../../libdaisy/src/hid/disp/display.h ****         {
 2110              		.loc 6 413 22 is_stmt 1 view .LVU454
 2111 0126 1046     		mov	r0, r2
 2112 0128 002A     		cmp	r2, #0
 2113 012a 00F02981 		beq	.L156
 415:../../libdaisy/src/hid/disp/display.h ****             for(j = 0; j < font.FontWidth; j++)
 2114              		.loc 6 415 37 is_stmt 0 view .LVU455
 2115 012e 1346     		mov	r3, r2
 2116 0130 6FF00047 		mvn	r7, #-2147483648
 2117 0134 B4F804C0 		ldrh	ip, [r4, #4]
 2118 0138 03FB05F3 		mul	r3, r3, r5
 2119 013c 079D     		ldr	r5, [sp, #28]
 2120 013e CDF81880 		str	r8, [sp, #24]
 2121 0142 AA1E     		subs	r2, r5, #2
 2122 0144 1F44     		add	r7, r7, r3
 2123 0146 0344     		add	r3, r3, r0
 2124 0148 DDF82090 		ldr	r9, [sp, #32]
 2125 014c 05EB4707 		add	r7, r5, r7, lsl #1
 2126 0150 0596     		str	r6, [sp, #20]
 2127 0152 02EB4303 		add	r3, r2, r3, lsl #1
 2128 0156 2246     		mov	r2, r4
 2129 0158 5C46     		mov	r4, fp
 2130              	.LVL155:
 415:../../libdaisy/src/hid/disp/display.h ****             for(j = 0; j < font.FontWidth; j++)
 2131              		.loc 6 415 37 view .LVU456
 2132 015a 9846     		mov	r8, r3
 2133              	.LVL156:
 415:../../libdaisy/src/hid/disp/display.h ****             for(j = 0; j < font.FontWidth; j++)
 2134              		.loc 6 415 37 view .LVU457
 2135 015c 9346     		mov	fp, r2
 2136              	.LVL157:
 2137              	.L159:
 415:../../libdaisy/src/hid/disp/display.h ****             for(j = 0; j < font.FontWidth; j++)
 2138              		.loc 6 415 13 view .LVU458
 2139 015e 37F802AF 		ldrh	r10, [r7, #2]!
 2140              	.LVL158:
 416:../../libdaisy/src/hid/disp/display.h ****             {
 2141              		.loc 6 416 26 is_stmt 1 view .LVU459
 2142 0162 A4B3     		cbz	r4, .L164
 2143              	.LBB1232:
 2144              	.LBB1233:
 2145              	.LBB1234:
 2146              	.LBB1235:
 2147              	.LBB1236:
 246:../../libdaisy/src/dev/oled_ssd130x.h ****     }
 2148              		.loc 15 246 49 is_stmt 0 view .LVU460
 2149 0164 0125     		movs	r5, #1
 246:../../libdaisy/src/dev/oled_ssd130x.h ****     }
 2150              		.loc 15 246 55 view .LVU461
 2151 0166 01F00702 		and	r2, r1, #7
 246:../../libdaisy/src/dev/oled_ssd130x.h ****     }
 2152              		.loc 15 246 28 view .LVU462
 2153 016a C808     		lsrs	r0, r1, #3
 2154 016c 0CF11403 		add	r3, ip, #20
 246:../../libdaisy/src/dev/oled_ssd130x.h ****     }
 2155              		.loc 15 246 49 view .LVU463
 2156 0170 05FA02F2 		lsl	r2, r5, r2
ARM GAS  /tmp/ccpr9r5K.s 			page 76


 2157 0174 6546     		mov	r5, ip
 2158 0176 03EBC013 		add	r3, r3, r0, lsl #7
 2159              	.LBE1236:
 2160              	.LBE1235:
 2161              	.LBE1234:
 2162              	.LBE1233:
 2163              	.LBE1232:
 416:../../libdaisy/src/hid/disp/display.h ****             {
 2164              		.loc 6 416 19 view .LVU464
 2165 017a 0020     		movs	r0, #0
 2166              	.LBB1254:
 2167              	.LBB1249:
 2168              	.LBB1244:
 2169              	.LBB1240:
 2170              	.LBB1237:
 246:../../libdaisy/src/dev/oled_ssd130x.h ****     }
 2171              		.loc 15 246 42 view .LVU465
 2172 017c 52B2     		sxtb	r2, r2
 2173 017e 5B44     		add	r3, r3, fp
 2174 0180 6FEA020E 		mvn	lr, r2
 2175 0184 0EE0     		b	.L165
 2176              	.LVL159:
 2177              	.L202:
 246:../../libdaisy/src/dev/oled_ssd130x.h ****     }
 2178              		.loc 15 246 42 view .LVU466
 2179              	.LBE1237:
 2180              	.LBE1240:
 2181              	.LBE1244:
 2182              	.LBE1249:
 2183              	.LBE1254:
 2184              	.LBB1255:
 2185              	.LBI1255:
  41:../../libdaisy/src/hid/disp/oled_display.h ****     {
 2186              		.loc 5 41 10 is_stmt 1 view .LVU467
 2187              	.LBB1256:
 2188              	.LBI1256:
 239:../../libdaisy/src/dev/oled_ssd130x.h ****     {
 2189              		.loc 15 239 10 view .LVU468
 2190              	.LBB1257:
 241:../../libdaisy/src/dev/oled_ssd130x.h ****             return;
 2191              		.loc 15 241 9 is_stmt 0 view .LVU469
 2192 0186 7F2D     		cmp	r5, #127
 2193 0188 07D8     		bhi	.L161
 2194 018a 3F29     		cmp	r1, #63
 2195 018c 05D8     		bhi	.L161
 244:../../libdaisy/src/dev/oled_ssd130x.h ****         else
 2196              		.loc 15 244 42 view .LVU470
 2197 018e 1E78     		ldrb	r6, [r3]	@ zero_extendqisi2
 243:../../libdaisy/src/dev/oled_ssd130x.h ****             buffer_[x + (y / 8) * width] |= (1 << (y % 8));
 2198              		.loc 15 243 9 view .LVU471
 2199 0190 B9F1000F 		cmp	r9, #0
 2200 0194 12D0     		beq	.L163
 2201              	.L196:
 243:../../libdaisy/src/dev/oled_ssd130x.h ****             buffer_[x + (y / 8) * width] |= (1 << (y % 8));
 2202              		.loc 15 243 9 view .LVU472
 2203              	.LBE1257:
 2204              	.LBE1256:
ARM GAS  /tmp/ccpr9r5K.s 			page 77


 2205              	.LBE1255:
 2206              	.LBB1258:
 2207              	.LBB1250:
 2208              	.LBB1245:
 244:../../libdaisy/src/dev/oled_ssd130x.h ****         else
 2209              		.loc 15 244 42 view .LVU473
 2210 0196 1643     		orrs	r6, r6, r2
 244:../../libdaisy/src/dev/oled_ssd130x.h ****         else
 2211              		.loc 15 244 13 view .LVU474
 2212 0198 1E70     		strb	r6, [r3]
 2213              	.L161:
 2214              	.LBE1245:
 2215              	.LBE1250:
 2216              	.LBE1258:
 416:../../libdaisy/src/hid/disp/display.h ****             {
 2217              		.loc 6 416 13 is_stmt 1 view .LVU475
 2218 019a 0130     		adds	r0, r0, #1
 2219              	.LVL160:
 416:../../libdaisy/src/hid/disp/display.h ****             {
 2220              		.loc 6 416 26 view .LVU476
 2221 019c 0133     		adds	r3, r3, #1
 2222 019e 0135     		adds	r5, r5, #1
 2223 01a0 8442     		cmp	r4, r0
 2224 01a2 14D0     		beq	.L164
 2225              	.LVL161:
 2226              	.L165:
 418:../../libdaisy/src/hid/disp/display.h ****                 {
 2227              		.loc 6 418 23 is_stmt 0 view .LVU477
 2228 01a4 0AFA00F6 		lsl	r6, r10, r0
 418:../../libdaisy/src/hid/disp/display.h ****                 {
 2229              		.loc 6 418 17 view .LVU478
 2230 01a8 3604     		lsls	r6, r6, #16
 2231 01aa ECD4     		bmi	.L202
 2232              	.LVL162:
 2233              	.LBB1259:
 2234              	.LBI1232:
  41:../../libdaisy/src/hid/disp/oled_display.h ****     {
 2235              		.loc 5 41 10 is_stmt 1 view .LVU479
 2236              	.LBB1251:
 2237              	.LBI1233:
 239:../../libdaisy/src/dev/oled_ssd130x.h ****     {
 2238              		.loc 15 239 10 view .LVU480
 2239              	.LBB1246:
 241:../../libdaisy/src/dev/oled_ssd130x.h ****             return;
 2240              		.loc 15 241 9 is_stmt 0 view .LVU481
 2241 01ac 7F2D     		cmp	r5, #127
 2242 01ae F4D8     		bhi	.L161
 2243 01b0 3F29     		cmp	r1, #63
 2244 01b2 F2D8     		bhi	.L161
 244:../../libdaisy/src/dev/oled_ssd130x.h ****         else
 2245              		.loc 15 244 42 view .LVU482
 2246 01b4 1E78     		ldrb	r6, [r3]	@ zero_extendqisi2
 243:../../libdaisy/src/dev/oled_ssd130x.h ****             buffer_[x + (y / 8) * width] |= (1 << (y % 8));
 2247              		.loc 15 243 9 view .LVU483
 2248 01b6 B9F1000F 		cmp	r9, #0
 2249 01ba ECD0     		beq	.L196
 2250              	.L163:
ARM GAS  /tmp/ccpr9r5K.s 			page 78


 2251              	.LVL163:
 2252              	.LBB1241:
 2253              	.LBI1235:
 239:../../libdaisy/src/dev/oled_ssd130x.h ****     {
 2254              		.loc 15 239 10 is_stmt 1 view .LVU484
 239:../../libdaisy/src/dev/oled_ssd130x.h ****     {
 2255              		.loc 15 239 10 is_stmt 0 view .LVU485
 2256              	.LBE1241:
 2257              	.LBE1246:
 2258              	.LBE1251:
 2259              	.LBE1259:
 416:../../libdaisy/src/hid/disp/display.h ****             {
 2260              		.loc 6 416 13 view .LVU486
 2261 01bc 0130     		adds	r0, r0, #1
 2262              	.LVL164:
 2263              	.LBB1260:
 2264              	.LBB1252:
 2265              	.LBB1247:
 2266              	.LBB1242:
 2267              	.LBB1238:
 246:../../libdaisy/src/dev/oled_ssd130x.h ****     }
 2268              		.loc 15 246 42 view .LVU487
 2269 01be 0EEA0606 		and	r6, lr, r6
