ARM GAS  /tmp/ccOYje0u.s 			page 1


   1              		.cpu cortex-m7
   2              		.eabi_attribute 28, 1
   3              		.eabi_attribute 20, 1
   4              		.eabi_attribute 21, 1
   5              		.eabi_attribute 23, 3
   6              		.eabi_attribute 24, 1
   7              		.eabi_attribute 25, 1
   8              		.eabi_attribute 26, 1
   9              		.eabi_attribute 30, 2
  10              		.eabi_attribute 34, 1
  11              		.eabi_attribute 18, 4
  12              		.file	"arm_fir_f32.c"
  13              		.text
  14              	.Ltext0:
  15              		.cfi_sections	.debug_frame
  16              		.section	.text.arm_fir_f32,"ax",%progbits
  17              		.align	1
  18              		.p2align 2,,3
  19              		.global	arm_fir_f32
  20              		.arch armv7e-m
  21              		.syntax unified
  22              		.thumb
  23              		.thumb_func
  24              		.fpu fpv5-d16
  26              	arm_fir_f32:
  27              	.LVL0:
  28              	.LFB353:
  29              		.file 1 "../../libdaisy/Drivers/CMSIS/DSP/Source/FilteringFunctions/arm_fir_f32.c"
   1:../../libdaisy/Drivers/CMSIS/DSP/Source/FilteringFunctions/arm_fir_f32.c **** /* ----------------------------------------------------------------------
   2:../../libdaisy/Drivers/CMSIS/DSP/Source/FilteringFunctions/arm_fir_f32.c ****  * Project:      CMSIS DSP Library
   3:../../libdaisy/Drivers/CMSIS/DSP/Source/FilteringFunctions/arm_fir_f32.c ****  * Title:        arm_fir_f32.c
   4:../../libdaisy/Drivers/CMSIS/DSP/Source/FilteringFunctions/arm_fir_f32.c ****  * Description:  Floating-point FIR filter processing function
   5:../../libdaisy/Drivers/CMSIS/DSP/Source/FilteringFunctions/arm_fir_f32.c ****  *
   6:../../libdaisy/Drivers/CMSIS/DSP/Source/FilteringFunctions/arm_fir_f32.c ****  * $Date:        27. January 2017
   7:../../libdaisy/Drivers/CMSIS/DSP/Source/FilteringFunctions/arm_fir_f32.c ****  * $Revision:    V.1.5.1
   8:../../libdaisy/Drivers/CMSIS/DSP/Source/FilteringFunctions/arm_fir_f32.c ****  *
   9:../../libdaisy/Drivers/CMSIS/DSP/Source/FilteringFunctions/arm_fir_f32.c ****  * Target Processor: Cortex-M cores
  10:../../libdaisy/Drivers/CMSIS/DSP/Source/FilteringFunctions/arm_fir_f32.c ****  * -------------------------------------------------------------------- */
  11:../../libdaisy/Drivers/CMSIS/DSP/Source/FilteringFunctions/arm_fir_f32.c **** /*
  12:../../libdaisy/Drivers/CMSIS/DSP/Source/FilteringFunctions/arm_fir_f32.c ****  * Copyright (C) 2010-2017 ARM Limited or its affiliates. All rights reserved.
  13:../../libdaisy/Drivers/CMSIS/DSP/Source/FilteringFunctions/arm_fir_f32.c ****  *
  14:../../libdaisy/Drivers/CMSIS/DSP/Source/FilteringFunctions/arm_fir_f32.c ****  * SPDX-License-Identifier: Apache-2.0
  15:../../libdaisy/Drivers/CMSIS/DSP/Source/FilteringFunctions/arm_fir_f32.c ****  *
  16:../../libdaisy/Drivers/CMSIS/DSP/Source/FilteringFunctions/arm_fir_f32.c ****  * Licensed under the Apache License, Version 2.0 (the License); you may
  17:../../libdaisy/Drivers/CMSIS/DSP/Source/FilteringFunctions/arm_fir_f32.c ****  * not use this file except in compliance with the License.
  18:../../libdaisy/Drivers/CMSIS/DSP/Source/FilteringFunctions/arm_fir_f32.c ****  * You may obtain a copy of the License at
  19:../../libdaisy/Drivers/CMSIS/DSP/Source/FilteringFunctions/arm_fir_f32.c ****  *
  20:../../libdaisy/Drivers/CMSIS/DSP/Source/FilteringFunctions/arm_fir_f32.c ****  * www.apache.org/licenses/LICENSE-2.0
  21:../../libdaisy/Drivers/CMSIS/DSP/Source/FilteringFunctions/arm_fir_f32.c ****  *
  22:../../libdaisy/Drivers/CMSIS/DSP/Source/FilteringFunctions/arm_fir_f32.c ****  * Unless required by applicable law or agreed to in writing, software
  23:../../libdaisy/Drivers/CMSIS/DSP/Source/FilteringFunctions/arm_fir_f32.c ****  * distributed under the License is distributed on an AS IS BASIS, WITHOUT
  24:../../libdaisy/Drivers/CMSIS/DSP/Source/FilteringFunctions/arm_fir_f32.c ****  * WARRANTIES OR CONDITIONS OF ANY KIND, either express or implied.
  25:../../libdaisy/Drivers/CMSIS/DSP/Source/FilteringFunctions/arm_fir_f32.c ****  * See the License for the specific language governing permissions and
  26:../../libdaisy/Drivers/CMSIS/DSP/Source/FilteringFunctions/arm_fir_f32.c ****  * limitations under the License.
  27:../../libdaisy/Drivers/CMSIS/DSP/Source/FilteringFunctions/arm_fir_f32.c ****  */
  28:../../libdaisy/Drivers/CMSIS/DSP/Source/FilteringFunctions/arm_fir_f32.c **** 
  29:../../libdaisy/Drivers/CMSIS/DSP/Source/FilteringFunctions/arm_fir_f32.c **** #include "arm_math.h"
ARM GAS  /tmp/ccOYje0u.s 			page 2


  30:../../libdaisy/Drivers/CMSIS/DSP/Source/FilteringFunctions/arm_fir_f32.c **** 
  31:../../libdaisy/Drivers/CMSIS/DSP/Source/FilteringFunctions/arm_fir_f32.c **** /**
  32:../../libdaisy/Drivers/CMSIS/DSP/Source/FilteringFunctions/arm_fir_f32.c **** * @ingroup groupFilters
  33:../../libdaisy/Drivers/CMSIS/DSP/Source/FilteringFunctions/arm_fir_f32.c **** */
  34:../../libdaisy/Drivers/CMSIS/DSP/Source/FilteringFunctions/arm_fir_f32.c **** 
  35:../../libdaisy/Drivers/CMSIS/DSP/Source/FilteringFunctions/arm_fir_f32.c **** /**
  36:../../libdaisy/Drivers/CMSIS/DSP/Source/FilteringFunctions/arm_fir_f32.c **** * @defgroup FIR Finite Impulse Response (FIR) Filters
  37:../../libdaisy/Drivers/CMSIS/DSP/Source/FilteringFunctions/arm_fir_f32.c **** *
  38:../../libdaisy/Drivers/CMSIS/DSP/Source/FilteringFunctions/arm_fir_f32.c **** * This set of functions implements Finite Impulse Response (FIR) filters
  39:../../libdaisy/Drivers/CMSIS/DSP/Source/FilteringFunctions/arm_fir_f32.c **** * for Q7, Q15, Q31, and floating-point data types.  Fast versions of Q15 and Q31 are also provided.
  40:../../libdaisy/Drivers/CMSIS/DSP/Source/FilteringFunctions/arm_fir_f32.c **** * The functions operate on blocks of input and output data and each call to the function processes
  41:../../libdaisy/Drivers/CMSIS/DSP/Source/FilteringFunctions/arm_fir_f32.c **** * <code>blockSize</code> samples through the filter.  <code>pSrc</code> and
  42:../../libdaisy/Drivers/CMSIS/DSP/Source/FilteringFunctions/arm_fir_f32.c **** * <code>pDst</code> points to input and output arrays containing <code>blockSize</code> values.
  43:../../libdaisy/Drivers/CMSIS/DSP/Source/FilteringFunctions/arm_fir_f32.c **** *
  44:../../libdaisy/Drivers/CMSIS/DSP/Source/FilteringFunctions/arm_fir_f32.c **** * \par Algorithm:
  45:../../libdaisy/Drivers/CMSIS/DSP/Source/FilteringFunctions/arm_fir_f32.c **** * The FIR filter algorithm is based upon a sequence of multiply-accumulate (MAC) operations.
  46:../../libdaisy/Drivers/CMSIS/DSP/Source/FilteringFunctions/arm_fir_f32.c **** * Each filter coefficient <code>b[n]</code> is multiplied by a state variable which equals a previo
  47:../../libdaisy/Drivers/CMSIS/DSP/Source/FilteringFunctions/arm_fir_f32.c **** * <pre>
  48:../../libdaisy/Drivers/CMSIS/DSP/Source/FilteringFunctions/arm_fir_f32.c **** *    y[n] = b[0] * x[n] + b[1] * x[n-1] + b[2] * x[n-2] + ...+ b[numTaps-1] * x[n-numTaps+1]
  49:../../libdaisy/Drivers/CMSIS/DSP/Source/FilteringFunctions/arm_fir_f32.c **** * </pre>
  50:../../libdaisy/Drivers/CMSIS/DSP/Source/FilteringFunctions/arm_fir_f32.c **** * \par
  51:../../libdaisy/Drivers/CMSIS/DSP/Source/FilteringFunctions/arm_fir_f32.c **** * \image html FIR.gif "Finite Impulse Response filter"
  52:../../libdaisy/Drivers/CMSIS/DSP/Source/FilteringFunctions/arm_fir_f32.c **** * \par
  53:../../libdaisy/Drivers/CMSIS/DSP/Source/FilteringFunctions/arm_fir_f32.c **** * <code>pCoeffs</code> points to a coefficient array of size <code>numTaps</code>.
  54:../../libdaisy/Drivers/CMSIS/DSP/Source/FilteringFunctions/arm_fir_f32.c **** * Coefficients are stored in time reversed order.
  55:../../libdaisy/Drivers/CMSIS/DSP/Source/FilteringFunctions/arm_fir_f32.c **** * \par
  56:../../libdaisy/Drivers/CMSIS/DSP/Source/FilteringFunctions/arm_fir_f32.c **** * <pre>
  57:../../libdaisy/Drivers/CMSIS/DSP/Source/FilteringFunctions/arm_fir_f32.c **** *    {b[numTaps-1], b[numTaps-2], b[N-2], ..., b[1], b[0]}
  58:../../libdaisy/Drivers/CMSIS/DSP/Source/FilteringFunctions/arm_fir_f32.c **** * </pre>
  59:../../libdaisy/Drivers/CMSIS/DSP/Source/FilteringFunctions/arm_fir_f32.c **** * \par
  60:../../libdaisy/Drivers/CMSIS/DSP/Source/FilteringFunctions/arm_fir_f32.c **** * <code>pState</code> points to a state array of size <code>numTaps + blockSize - 1</code>.
  61:../../libdaisy/Drivers/CMSIS/DSP/Source/FilteringFunctions/arm_fir_f32.c **** * Samples in the state buffer are stored in the following order.
  62:../../libdaisy/Drivers/CMSIS/DSP/Source/FilteringFunctions/arm_fir_f32.c **** * \par
  63:../../libdaisy/Drivers/CMSIS/DSP/Source/FilteringFunctions/arm_fir_f32.c **** * <pre>
  64:../../libdaisy/Drivers/CMSIS/DSP/Source/FilteringFunctions/arm_fir_f32.c **** *    {x[n-numTaps+1], x[n-numTaps], x[n-numTaps-1], x[n-numTaps-2]....x[0], x[1], ..., x[blockSize-
  65:../../libdaisy/Drivers/CMSIS/DSP/Source/FilteringFunctions/arm_fir_f32.c **** * </pre>
  66:../../libdaisy/Drivers/CMSIS/DSP/Source/FilteringFunctions/arm_fir_f32.c **** * \par
  67:../../libdaisy/Drivers/CMSIS/DSP/Source/FilteringFunctions/arm_fir_f32.c **** * Note that the length of the state buffer exceeds the length of the coefficient array by <code>blo
  68:../../libdaisy/Drivers/CMSIS/DSP/Source/FilteringFunctions/arm_fir_f32.c **** * The increased state buffer length allows circular addressing, which is traditionally used in the 
  69:../../libdaisy/Drivers/CMSIS/DSP/Source/FilteringFunctions/arm_fir_f32.c **** * to be avoided and yields a significant speed improvement.
  70:../../libdaisy/Drivers/CMSIS/DSP/Source/FilteringFunctions/arm_fir_f32.c **** * The state variables are updated after each block of data is processed; the coefficients are untou
  71:../../libdaisy/Drivers/CMSIS/DSP/Source/FilteringFunctions/arm_fir_f32.c **** * \par Instance Structure
  72:../../libdaisy/Drivers/CMSIS/DSP/Source/FilteringFunctions/arm_fir_f32.c **** * The coefficients and state variables for a filter are stored together in an instance data structu
  73:../../libdaisy/Drivers/CMSIS/DSP/Source/FilteringFunctions/arm_fir_f32.c **** * A separate instance structure must be defined for each filter.
  74:../../libdaisy/Drivers/CMSIS/DSP/Source/FilteringFunctions/arm_fir_f32.c **** * Coefficient arrays may be shared among several instances while state variable arrays cannot be sh
  75:../../libdaisy/Drivers/CMSIS/DSP/Source/FilteringFunctions/arm_fir_f32.c **** * There are separate instance structure declarations for each of the 4 supported data types.
  76:../../libdaisy/Drivers/CMSIS/DSP/Source/FilteringFunctions/arm_fir_f32.c **** *
  77:../../libdaisy/Drivers/CMSIS/DSP/Source/FilteringFunctions/arm_fir_f32.c **** * \par Initialization Functions
  78:../../libdaisy/Drivers/CMSIS/DSP/Source/FilteringFunctions/arm_fir_f32.c **** * There is also an associated initialization function for each data type.
  79:../../libdaisy/Drivers/CMSIS/DSP/Source/FilteringFunctions/arm_fir_f32.c **** * The initialization function performs the following operations:
  80:../../libdaisy/Drivers/CMSIS/DSP/Source/FilteringFunctions/arm_fir_f32.c **** * - Sets the values of the internal structure fields.
  81:../../libdaisy/Drivers/CMSIS/DSP/Source/FilteringFunctions/arm_fir_f32.c **** * - Zeros out the values in the state buffer.
  82:../../libdaisy/Drivers/CMSIS/DSP/Source/FilteringFunctions/arm_fir_f32.c **** * To do this manually without calling the init function, assign the follow subfields of the instanc
  83:../../libdaisy/Drivers/CMSIS/DSP/Source/FilteringFunctions/arm_fir_f32.c **** * numTaps, pCoeffs, pState. Also set all of the values in pState to zero.
  84:../../libdaisy/Drivers/CMSIS/DSP/Source/FilteringFunctions/arm_fir_f32.c **** *
  85:../../libdaisy/Drivers/CMSIS/DSP/Source/FilteringFunctions/arm_fir_f32.c **** * \par
  86:../../libdaisy/Drivers/CMSIS/DSP/Source/FilteringFunctions/arm_fir_f32.c **** * Use of the initialization function is optional.
ARM GAS  /tmp/ccOYje0u.s 			page 3


  87:../../libdaisy/Drivers/CMSIS/DSP/Source/FilteringFunctions/arm_fir_f32.c **** * However, if the initialization function is used, then the instance structure cannot be placed int
  88:../../libdaisy/Drivers/CMSIS/DSP/Source/FilteringFunctions/arm_fir_f32.c **** * To place an instance structure into a const data section, the instance structure must be manually
  89:../../libdaisy/Drivers/CMSIS/DSP/Source/FilteringFunctions/arm_fir_f32.c **** * Set the values in the state buffer to zeros before static initialization.
  90:../../libdaisy/Drivers/CMSIS/DSP/Source/FilteringFunctions/arm_fir_f32.c **** * The code below statically initializes each of the 4 different data type filter instance structure
  91:../../libdaisy/Drivers/CMSIS/DSP/Source/FilteringFunctions/arm_fir_f32.c **** * <pre>
  92:../../libdaisy/Drivers/CMSIS/DSP/Source/FilteringFunctions/arm_fir_f32.c **** *arm_fir_instance_f32 S = {numTaps, pState, pCoeffs};
  93:../../libdaisy/Drivers/CMSIS/DSP/Source/FilteringFunctions/arm_fir_f32.c **** *arm_fir_instance_q31 S = {numTaps, pState, pCoeffs};
  94:../../libdaisy/Drivers/CMSIS/DSP/Source/FilteringFunctions/arm_fir_f32.c **** *arm_fir_instance_q15 S = {numTaps, pState, pCoeffs};
  95:../../libdaisy/Drivers/CMSIS/DSP/Source/FilteringFunctions/arm_fir_f32.c **** *arm_fir_instance_q7 S =  {numTaps, pState, pCoeffs};
  96:../../libdaisy/Drivers/CMSIS/DSP/Source/FilteringFunctions/arm_fir_f32.c **** * </pre>
  97:../../libdaisy/Drivers/CMSIS/DSP/Source/FilteringFunctions/arm_fir_f32.c **** *
  98:../../libdaisy/Drivers/CMSIS/DSP/Source/FilteringFunctions/arm_fir_f32.c **** * where <code>numTaps</code> is the number of filter coefficients in the filter; <code>pState</code
  99:../../libdaisy/Drivers/CMSIS/DSP/Source/FilteringFunctions/arm_fir_f32.c **** * <code>pCoeffs</code> is the address of the coefficient buffer.
 100:../../libdaisy/Drivers/CMSIS/DSP/Source/FilteringFunctions/arm_fir_f32.c **** *
 101:../../libdaisy/Drivers/CMSIS/DSP/Source/FilteringFunctions/arm_fir_f32.c **** * \par Fixed-Point Behavior
 102:../../libdaisy/Drivers/CMSIS/DSP/Source/FilteringFunctions/arm_fir_f32.c **** * Care must be taken when using the fixed-point versions of the FIR filter functions.
 103:../../libdaisy/Drivers/CMSIS/DSP/Source/FilteringFunctions/arm_fir_f32.c **** * In particular, the overflow and saturation behavior of the accumulator used in each function must
 104:../../libdaisy/Drivers/CMSIS/DSP/Source/FilteringFunctions/arm_fir_f32.c **** * Refer to the function specific documentation below for usage guidelines.
 105:../../libdaisy/Drivers/CMSIS/DSP/Source/FilteringFunctions/arm_fir_f32.c **** */
 106:../../libdaisy/Drivers/CMSIS/DSP/Source/FilteringFunctions/arm_fir_f32.c **** 
 107:../../libdaisy/Drivers/CMSIS/DSP/Source/FilteringFunctions/arm_fir_f32.c **** /**
 108:../../libdaisy/Drivers/CMSIS/DSP/Source/FilteringFunctions/arm_fir_f32.c **** * @addtogroup FIR
 109:../../libdaisy/Drivers/CMSIS/DSP/Source/FilteringFunctions/arm_fir_f32.c **** * @{
 110:../../libdaisy/Drivers/CMSIS/DSP/Source/FilteringFunctions/arm_fir_f32.c **** */
 111:../../libdaisy/Drivers/CMSIS/DSP/Source/FilteringFunctions/arm_fir_f32.c **** 
 112:../../libdaisy/Drivers/CMSIS/DSP/Source/FilteringFunctions/arm_fir_f32.c **** /**
 113:../../libdaisy/Drivers/CMSIS/DSP/Source/FilteringFunctions/arm_fir_f32.c **** *
 114:../../libdaisy/Drivers/CMSIS/DSP/Source/FilteringFunctions/arm_fir_f32.c **** * @param[in]  *S points to an instance of the floating-point FIR filter structure.
 115:../../libdaisy/Drivers/CMSIS/DSP/Source/FilteringFunctions/arm_fir_f32.c **** * @param[in]  *pSrc points to the block of input data.
 116:../../libdaisy/Drivers/CMSIS/DSP/Source/FilteringFunctions/arm_fir_f32.c **** * @param[out] *pDst points to the block of output data.
 117:../../libdaisy/Drivers/CMSIS/DSP/Source/FilteringFunctions/arm_fir_f32.c **** * @param[in]  blockSize number of samples to process per call.
 118:../../libdaisy/Drivers/CMSIS/DSP/Source/FilteringFunctions/arm_fir_f32.c **** * @return     none.
 119:../../libdaisy/Drivers/CMSIS/DSP/Source/FilteringFunctions/arm_fir_f32.c **** *
 120:../../libdaisy/Drivers/CMSIS/DSP/Source/FilteringFunctions/arm_fir_f32.c **** */
 121:../../libdaisy/Drivers/CMSIS/DSP/Source/FilteringFunctions/arm_fir_f32.c **** 
 122:../../libdaisy/Drivers/CMSIS/DSP/Source/FilteringFunctions/arm_fir_f32.c **** #if defined(ARM_MATH_CM7)
 123:../../libdaisy/Drivers/CMSIS/DSP/Source/FilteringFunctions/arm_fir_f32.c **** 
 124:../../libdaisy/Drivers/CMSIS/DSP/Source/FilteringFunctions/arm_fir_f32.c **** void arm_fir_f32(
 125:../../libdaisy/Drivers/CMSIS/DSP/Source/FilteringFunctions/arm_fir_f32.c **** const arm_fir_instance_f32 * S,
 126:../../libdaisy/Drivers/CMSIS/DSP/Source/FilteringFunctions/arm_fir_f32.c **** float32_t * pSrc,
 127:../../libdaisy/Drivers/CMSIS/DSP/Source/FilteringFunctions/arm_fir_f32.c **** float32_t * pDst,
 128:../../libdaisy/Drivers/CMSIS/DSP/Source/FilteringFunctions/arm_fir_f32.c **** uint32_t blockSize)
 129:../../libdaisy/Drivers/CMSIS/DSP/Source/FilteringFunctions/arm_fir_f32.c **** {
  30              		.loc 1 129 1 view -0
  31              		.cfi_startproc
  32              		@ args = 0, pretend = 0, frame = 40
  33              		@ frame_needed = 0, uses_anonymous_args = 0
 130:../../libdaisy/Drivers/CMSIS/DSP/Source/FilteringFunctions/arm_fir_f32.c ****    float32_t *pState = S->pState;                 /* State pointer */
  34              		.loc 1 130 4 view .LVU1
 129:../../libdaisy/Drivers/CMSIS/DSP/Source/FilteringFunctions/arm_fir_f32.c ****    float32_t *pState = S->pState;                 /* State pointer */
  35              		.loc 1 129 1 is_stmt 0 view .LVU2
  36 0000 2DE9F04F 		push	{r4, r5, r6, r7, r8, r9, r10, fp, lr}
  37              		.cfi_def_cfa_offset 36
  38              		.cfi_offset 4, -36
  39              		.cfi_offset 5, -32
  40              		.cfi_offset 6, -28
  41              		.cfi_offset 7, -24
ARM GAS  /tmp/ccOYje0u.s 			page 4


  42              		.cfi_offset 8, -20
  43              		.cfi_offset 9, -16
  44              		.cfi_offset 10, -12
  45              		.cfi_offset 11, -8
  46              		.cfi_offset 14, -4
 131:../../libdaisy/Drivers/CMSIS/DSP/Source/FilteringFunctions/arm_fir_f32.c ****    float32_t *pCoeffs = S->pCoeffs;               /* Coefficient pointer */
 132:../../libdaisy/Drivers/CMSIS/DSP/Source/FilteringFunctions/arm_fir_f32.c ****    float32_t *pStateCurnt;                        /* Points to the current sample of the state */
 133:../../libdaisy/Drivers/CMSIS/DSP/Source/FilteringFunctions/arm_fir_f32.c ****    float32_t *px, *pb;                            /* Temporary pointers for state and coefficient b
 134:../../libdaisy/Drivers/CMSIS/DSP/Source/FilteringFunctions/arm_fir_f32.c ****    float32_t acc0, acc1, acc2, acc3, acc4, acc5, acc6, acc7;     /* Accumulators */
 135:../../libdaisy/Drivers/CMSIS/DSP/Source/FilteringFunctions/arm_fir_f32.c ****    float32_t x0, x1, x2, x3, x4, x5, x6, x7, c0;  /* Temporary variables to hold state and coeffici
 136:../../libdaisy/Drivers/CMSIS/DSP/Source/FilteringFunctions/arm_fir_f32.c ****    uint32_t numTaps = S->numTaps;                 /* Number of filter coefficients in the filter */
 137:../../libdaisy/Drivers/CMSIS/DSP/Source/FilteringFunctions/arm_fir_f32.c ****    uint32_t i, tapCnt, blkCnt;                    /* Loop counters */
 138:../../libdaisy/Drivers/CMSIS/DSP/Source/FilteringFunctions/arm_fir_f32.c **** 
 139:../../libdaisy/Drivers/CMSIS/DSP/Source/FilteringFunctions/arm_fir_f32.c ****    /* S->pState points to state array which contains previous frame (numTaps - 1) samples */
 140:../../libdaisy/Drivers/CMSIS/DSP/Source/FilteringFunctions/arm_fir_f32.c ****    /* pStateCurnt points to the location where the new input data should be written */
 141:../../libdaisy/Drivers/CMSIS/DSP/Source/FilteringFunctions/arm_fir_f32.c ****    pStateCurnt = &(S->pState[(numTaps - 1u)]);
  47              		.loc 1 141 29 view .LVU3
  48 0004 6FF04044 		mvn	r4, #-1073741824
  49              	.LVL1:
 131:../../libdaisy/Drivers/CMSIS/DSP/Source/FilteringFunctions/arm_fir_f32.c ****    float32_t *pCoeffs = S->pCoeffs;               /* Coefficient pointer */
  50              		.loc 1 131 4 is_stmt 1 view .LVU4
 136:../../libdaisy/Drivers/CMSIS/DSP/Source/FilteringFunctions/arm_fir_f32.c ****    uint32_t i, tapCnt, blkCnt;                    /* Loop counters */
  51              		.loc 1 136 24 is_stmt 0 view .LVU5
  52 0008 B0F80080 		ldrh	r8, [r0]
 130:../../libdaisy/Drivers/CMSIS/DSP/Source/FilteringFunctions/arm_fir_f32.c ****    float32_t *pCoeffs = S->pCoeffs;               /* Coefficient pointer */
  53              		.loc 1 130 15 view .LVU6
  54 000c 4568     		ldr	r5, [r0, #4]
  55              		.loc 1 141 29 view .LVU7
  56 000e 4444     		add	r4, r4, r8
 131:../../libdaisy/Drivers/CMSIS/DSP/Source/FilteringFunctions/arm_fir_f32.c ****    float32_t *pCoeffs = S->pCoeffs;               /* Coefficient pointer */
  57              		.loc 1 131 15 view .LVU8
  58 0010 D0F808A0 		ldr	r10, [r0, #8]
  59              	.LVL2:
 132:../../libdaisy/Drivers/CMSIS/DSP/Source/FilteringFunctions/arm_fir_f32.c ****    float32_t *px, *pb;                            /* Temporary pointers for state and coefficient b
  60              		.loc 1 132 4 is_stmt 1 view .LVU9
 133:../../libdaisy/Drivers/CMSIS/DSP/Source/FilteringFunctions/arm_fir_f32.c ****    float32_t acc0, acc1, acc2, acc3, acc4, acc5, acc6, acc7;     /* Accumulators */
  61              		.loc 1 133 4 view .LVU10
 134:../../libdaisy/Drivers/CMSIS/DSP/Source/FilteringFunctions/arm_fir_f32.c ****    float32_t x0, x1, x2, x3, x4, x5, x6, x7, c0;  /* Temporary variables to hold state and coeffici
  62              		.loc 1 134 4 view .LVU11
 135:../../libdaisy/Drivers/CMSIS/DSP/Source/FilteringFunctions/arm_fir_f32.c ****    uint32_t numTaps = S->numTaps;                 /* Number of filter coefficients in the filter */
  63              		.loc 1 135 4 view .LVU12
 136:../../libdaisy/Drivers/CMSIS/DSP/Source/FilteringFunctions/arm_fir_f32.c ****    uint32_t i, tapCnt, blkCnt;                    /* Loop counters */
  64              		.loc 1 136 4 view .LVU13
 137:../../libdaisy/Drivers/CMSIS/DSP/Source/FilteringFunctions/arm_fir_f32.c **** 
  65              		.loc 1 137 4 view .LVU14
  66              		.loc 1 141 4 view .LVU15
 129:../../libdaisy/Drivers/CMSIS/DSP/Source/FilteringFunctions/arm_fir_f32.c ****    float32_t *pState = S->pState;                 /* State pointer */
  67              		.loc 1 129 1 is_stmt 0 view .LVU16
  68 0014 2DED088B 		vpush.64	{d8, d9, d10, d11}
  69              		.cfi_def_cfa_offset 68
  70              		.cfi_offset 80, -68
  71              		.cfi_offset 81, -64
  72              		.cfi_offset 82, -60
  73              		.cfi_offset 83, -56
  74              		.cfi_offset 84, -52
  75              		.cfi_offset 85, -48
  76              		.cfi_offset 86, -44
ARM GAS  /tmp/ccOYje0u.s 			page 5


  77              		.cfi_offset 87, -40
  78 0018 8BB0     		sub	sp, sp, #44
  79              		.cfi_def_cfa_offset 112
  80              		.loc 1 141 16 view .LVU17
  81 001a 05EB8404 		add	r4, r5, r4, lsl #2
 129:../../libdaisy/Drivers/CMSIS/DSP/Source/FilteringFunctions/arm_fir_f32.c ****    float32_t *pState = S->pState;                 /* State pointer */
  82              		.loc 1 129 1 view .LVU18
  83 001e 0593     		str	r3, [sp, #20]
 142:../../libdaisy/Drivers/CMSIS/DSP/Source/FilteringFunctions/arm_fir_f32.c **** 
 143:../../libdaisy/Drivers/CMSIS/DSP/Source/FilteringFunctions/arm_fir_f32.c ****    /* Apply loop unrolling and compute 8 output values simultaneously.
 144:../../libdaisy/Drivers/CMSIS/DSP/Source/FilteringFunctions/arm_fir_f32.c ****     * The variables acc0 ... acc7 hold output values that are being computed:
 145:../../libdaisy/Drivers/CMSIS/DSP/Source/FilteringFunctions/arm_fir_f32.c ****     *
 146:../../libdaisy/Drivers/CMSIS/DSP/Source/FilteringFunctions/arm_fir_f32.c ****     *    acc0 =  b[numTaps-1] * x[n-numTaps-1] + b[numTaps-2] * x[n-numTaps-2] + b[numTaps-3] * x[n
 147:../../libdaisy/Drivers/CMSIS/DSP/Source/FilteringFunctions/arm_fir_f32.c ****     *    acc1 =  b[numTaps-1] * x[n-numTaps] +   b[numTaps-2] * x[n-numTaps-1] + b[numTaps-3] * x[n
 148:../../libdaisy/Drivers/CMSIS/DSP/Source/FilteringFunctions/arm_fir_f32.c ****     *    acc2 =  b[numTaps-1] * x[n-numTaps+1] + b[numTaps-2] * x[n-numTaps] +   b[numTaps-3] * x[n
 149:../../libdaisy/Drivers/CMSIS/DSP/Source/FilteringFunctions/arm_fir_f32.c ****     *    acc3 =  b[numTaps-1] * x[n-numTaps+2] + b[numTaps-2] * x[n-numTaps+1] + b[numTaps-3] * x[n
 150:../../libdaisy/Drivers/CMSIS/DSP/Source/FilteringFunctions/arm_fir_f32.c ****     */
 151:../../libdaisy/Drivers/CMSIS/DSP/Source/FilteringFunctions/arm_fir_f32.c ****    blkCnt = blockSize >> 3;
 152:../../libdaisy/Drivers/CMSIS/DSP/Source/FilteringFunctions/arm_fir_f32.c **** 
 153:../../libdaisy/Drivers/CMSIS/DSP/Source/FilteringFunctions/arm_fir_f32.c ****    /* First part of the processing with loop unrolling.  Compute 8 outputs at a time.
 154:../../libdaisy/Drivers/CMSIS/DSP/Source/FilteringFunctions/arm_fir_f32.c ****    ** a second loop below computes the remaining 1 to 7 samples. */
 155:../../libdaisy/Drivers/CMSIS/DSP/Source/FilteringFunctions/arm_fir_f32.c ****    while (blkCnt > 0u)
  84              		.loc 1 155 10 view .LVU19
  85 0020 DB08     		lsrs	r3, r3, #3
  86              	.LVL3:
 141:../../libdaisy/Drivers/CMSIS/DSP/Source/FilteringFunctions/arm_fir_f32.c **** 
  87              		.loc 1 141 16 view .LVU20
  88 0022 0195     		str	r5, [sp, #4]
  89 0024 0294     		str	r4, [sp, #8]
  90              	.LVL4:
 151:../../libdaisy/Drivers/CMSIS/DSP/Source/FilteringFunctions/arm_fir_f32.c **** 
  91              		.loc 1 151 4 is_stmt 1 view .LVU21
  92              		.loc 1 155 4 view .LVU22
  93              		.loc 1 155 10 view .LVU23
  94 0026 0393     		str	r3, [sp, #12]
  95 0028 00F0FD81 		beq	.L16
 156:../../libdaisy/Drivers/CMSIS/DSP/Source/FilteringFunctions/arm_fir_f32.c ****    {
 157:../../libdaisy/Drivers/CMSIS/DSP/Source/FilteringFunctions/arm_fir_f32.c ****       /* Copy four new input samples into the state buffer */
 158:../../libdaisy/Drivers/CMSIS/DSP/Source/FilteringFunctions/arm_fir_f32.c ****       *pStateCurnt++ = *pSrc++;
 159:../../libdaisy/Drivers/CMSIS/DSP/Source/FilteringFunctions/arm_fir_f32.c ****       *pStateCurnt++ = *pSrc++;
 160:../../libdaisy/Drivers/CMSIS/DSP/Source/FilteringFunctions/arm_fir_f32.c ****       *pStateCurnt++ = *pSrc++;
 161:../../libdaisy/Drivers/CMSIS/DSP/Source/FilteringFunctions/arm_fir_f32.c ****       *pStateCurnt++ = *pSrc++;
 162:../../libdaisy/Drivers/CMSIS/DSP/Source/FilteringFunctions/arm_fir_f32.c **** 
 163:../../libdaisy/Drivers/CMSIS/DSP/Source/FilteringFunctions/arm_fir_f32.c ****       /* Set all accumulators to zero */
 164:../../libdaisy/Drivers/CMSIS/DSP/Source/FilteringFunctions/arm_fir_f32.c ****       acc0 = 0.0f;
 165:../../libdaisy/Drivers/CMSIS/DSP/Source/FilteringFunctions/arm_fir_f32.c ****       acc1 = 0.0f;
 166:../../libdaisy/Drivers/CMSIS/DSP/Source/FilteringFunctions/arm_fir_f32.c ****       acc2 = 0.0f;
 167:../../libdaisy/Drivers/CMSIS/DSP/Source/FilteringFunctions/arm_fir_f32.c ****       acc3 = 0.0f;
 168:../../libdaisy/Drivers/CMSIS/DSP/Source/FilteringFunctions/arm_fir_f32.c ****       acc4 = 0.0f;
 169:../../libdaisy/Drivers/CMSIS/DSP/Source/FilteringFunctions/arm_fir_f32.c ****       acc5 = 0.0f;
 170:../../libdaisy/Drivers/CMSIS/DSP/Source/FilteringFunctions/arm_fir_f32.c ****       acc6 = 0.0f;
 171:../../libdaisy/Drivers/CMSIS/DSP/Source/FilteringFunctions/arm_fir_f32.c ****       acc7 = 0.0f;
 172:../../libdaisy/Drivers/CMSIS/DSP/Source/FilteringFunctions/arm_fir_f32.c **** 
 173:../../libdaisy/Drivers/CMSIS/DSP/Source/FilteringFunctions/arm_fir_f32.c ****       /* Initialize state pointer */
 174:../../libdaisy/Drivers/CMSIS/DSP/Source/FilteringFunctions/arm_fir_f32.c ****       px = pState;
 175:../../libdaisy/Drivers/CMSIS/DSP/Source/FilteringFunctions/arm_fir_f32.c **** 
 176:../../libdaisy/Drivers/CMSIS/DSP/Source/FilteringFunctions/arm_fir_f32.c ****       /* Initialize coeff pointer */
ARM GAS  /tmp/ccOYje0u.s 			page 6


 177:../../libdaisy/Drivers/CMSIS/DSP/Source/FilteringFunctions/arm_fir_f32.c ****       pb = (pCoeffs);
 178:../../libdaisy/Drivers/CMSIS/DSP/Source/FilteringFunctions/arm_fir_f32.c **** 
 179:../../libdaisy/Drivers/CMSIS/DSP/Source/FilteringFunctions/arm_fir_f32.c ****       /* This is separated from the others to avoid
 180:../../libdaisy/Drivers/CMSIS/DSP/Source/FilteringFunctions/arm_fir_f32.c ****        * a call to __aeabi_memmove which would be slower
 181:../../libdaisy/Drivers/CMSIS/DSP/Source/FilteringFunctions/arm_fir_f32.c ****        */
 182:../../libdaisy/Drivers/CMSIS/DSP/Source/FilteringFunctions/arm_fir_f32.c ****       *pStateCurnt++ = *pSrc++;
 183:../../libdaisy/Drivers/CMSIS/DSP/Source/FilteringFunctions/arm_fir_f32.c ****       *pStateCurnt++ = *pSrc++;
 184:../../libdaisy/Drivers/CMSIS/DSP/Source/FilteringFunctions/arm_fir_f32.c ****       *pStateCurnt++ = *pSrc++;
 185:../../libdaisy/Drivers/CMSIS/DSP/Source/FilteringFunctions/arm_fir_f32.c ****       *pStateCurnt++ = *pSrc++;
 186:../../libdaisy/Drivers/CMSIS/DSP/Source/FilteringFunctions/arm_fir_f32.c **** 
 187:../../libdaisy/Drivers/CMSIS/DSP/Source/FilteringFunctions/arm_fir_f32.c ****       /* Read the first seven samples from the state buffer:  x[n-numTaps], x[n-numTaps-1], x[n-num
 188:../../libdaisy/Drivers/CMSIS/DSP/Source/FilteringFunctions/arm_fir_f32.c ****       x0 = *px++;
 189:../../libdaisy/Drivers/CMSIS/DSP/Source/FilteringFunctions/arm_fir_f32.c ****       x1 = *px++;
 190:../../libdaisy/Drivers/CMSIS/DSP/Source/FilteringFunctions/arm_fir_f32.c ****       x2 = *px++;
 191:../../libdaisy/Drivers/CMSIS/DSP/Source/FilteringFunctions/arm_fir_f32.c ****       x3 = *px++;
 192:../../libdaisy/Drivers/CMSIS/DSP/Source/FilteringFunctions/arm_fir_f32.c ****       x4 = *px++;
 193:../../libdaisy/Drivers/CMSIS/DSP/Source/FilteringFunctions/arm_fir_f32.c ****       x5 = *px++;
 194:../../libdaisy/Drivers/CMSIS/DSP/Source/FilteringFunctions/arm_fir_f32.c ****       x6 = *px++;
 195:../../libdaisy/Drivers/CMSIS/DSP/Source/FilteringFunctions/arm_fir_f32.c **** 
 196:../../libdaisy/Drivers/CMSIS/DSP/Source/FilteringFunctions/arm_fir_f32.c ****       /* Loop unrolling.  Process 8 taps at a time. */
 197:../../libdaisy/Drivers/CMSIS/DSP/Source/FilteringFunctions/arm_fir_f32.c ****       tapCnt = numTaps >> 3u;
  96              		.loc 1 197 14 is_stmt 0 view .LVU24
  97 002c 4FEAD803 		lsr	r3, r8, #3
  98 0030 0AF12007 		add	r7, r10, #32
  99 0034 08F00709 		and	r9, r8, #7
 100 0038 0198     		ldr	r0, [sp, #4]
 101              	.LVL5:
 102              		.loc 1 197 14 view .LVU25
 103 003a 0AEB431E 		add	lr, r10, r3, lsl #5
 104 003e 0897     		str	r7, [sp, #32]
 105 0040 5D01     		lsls	r5, r3, #5
 106 0042 CDF810A0 		str	r10, [sp, #16]
 107 0046 CDF81CE0 		str	lr, [sp, #28]
 108 004a 01F12006 		add	r6, r1, #32
 109 004e 0695     		str	r5, [sp, #24]
 110 0050 07EB4317 		add	r7, r7, r3, lsl #5
 111 0054 04F12005 		add	r5, r4, #32
 112 0058 DDF80CC0 		ldr	ip, [sp, #12]
 113 005c 02F12004 		add	r4, r2, #32
 114              	.LVL6:
 115              		.loc 1 197 14 view .LVU26
 116 0060 9E46     		mov	lr, r3
 117 0062 DDF820A0 		ldr	r10, [sp, #32]
 118              	.LVL7:
 119              		.loc 1 197 14 view .LVU27
 120 0066 00F11C0B 		add	fp, r0, #28
 121 006a CDF82480 		str	r8, [sp, #36]
 122 006e 4846     		mov	r0, r9
 123              	.LVL8:
 124              		.loc 1 197 14 view .LVU28
 125 0070 DDF81880 		ldr	r8, [sp, #24]
 126              	.LVL9:
 127              		.loc 1 197 14 view .LVU29
 128 0074 DDF81C90 		ldr	r9, [sp, #28]
 129 0078 CDE90612 		strd	r1, r2, [sp, #24]
 130              	.LVL10:
 131              	.L7:
ARM GAS  /tmp/ccOYje0u.s 			page 7


 158:../../libdaisy/Drivers/CMSIS/DSP/Source/FilteringFunctions/arm_fir_f32.c ****       *pStateCurnt++ = *pSrc++;
 132              		.loc 1 158 7 is_stmt 1 view .LVU30
 158:../../libdaisy/Drivers/CMSIS/DSP/Source/FilteringFunctions/arm_fir_f32.c ****       *pStateCurnt++ = *pSrc++;
 133              		.loc 1 158 24 is_stmt 0 view .LVU31
 134 007c 56F8203C 		ldr	r3, [r6, #-32]	@ float
 135 0080 5A46     		mov	r2, fp
 158:../../libdaisy/Drivers/CMSIS/DSP/Source/FilteringFunctions/arm_fir_f32.c ****       *pStateCurnt++ = *pSrc++;
 136              		.loc 1 158 22 view .LVU32
 137 0082 45F8203C 		str	r3, [r5, #-32]	@ float
 159:../../libdaisy/Drivers/CMSIS/DSP/Source/FilteringFunctions/arm_fir_f32.c ****       *pStateCurnt++ = *pSrc++;
 138              		.loc 1 159 7 is_stmt 1 view .LVU33
 139              	.LVL11:
 159:../../libdaisy/Drivers/CMSIS/DSP/Source/FilteringFunctions/arm_fir_f32.c ****       *pStateCurnt++ = *pSrc++;
 140              		.loc 1 159 24 is_stmt 0 view .LVU34
 141 0086 56F81C3C 		ldr	r3, [r6, #-28]	@ float
 159:../../libdaisy/Drivers/CMSIS/DSP/Source/FilteringFunctions/arm_fir_f32.c ****       *pStateCurnt++ = *pSrc++;
 142              		.loc 1 159 22 view .LVU35
 143 008a 45F81C3C 		str	r3, [r5, #-28]	@ float
 160:../../libdaisy/Drivers/CMSIS/DSP/Source/FilteringFunctions/arm_fir_f32.c ****       *pStateCurnt++ = *pSrc++;
 144              		.loc 1 160 7 is_stmt 1 view .LVU36
 145              	.LVL12:
 160:../../libdaisy/Drivers/CMSIS/DSP/Source/FilteringFunctions/arm_fir_f32.c ****       *pStateCurnt++ = *pSrc++;
 146              		.loc 1 160 24 is_stmt 0 view .LVU37
 147 008e 56F8183C 		ldr	r3, [r6, #-24]	@ float
 160:../../libdaisy/Drivers/CMSIS/DSP/Source/FilteringFunctions/arm_fir_f32.c ****       *pStateCurnt++ = *pSrc++;
 148              		.loc 1 160 22 view .LVU38
 149 0092 45F8183C 		str	r3, [r5, #-24]	@ float
 161:../../libdaisy/Drivers/CMSIS/DSP/Source/FilteringFunctions/arm_fir_f32.c **** 
 150              		.loc 1 161 7 is_stmt 1 view .LVU39
 151              	.LVL13:
 161:../../libdaisy/Drivers/CMSIS/DSP/Source/FilteringFunctions/arm_fir_f32.c **** 
 152              		.loc 1 161 24 is_stmt 0 view .LVU40
 153 0096 56F8143C 		ldr	r3, [r6, #-20]	@ float
 161:../../libdaisy/Drivers/CMSIS/DSP/Source/FilteringFunctions/arm_fir_f32.c **** 
 154              		.loc 1 161 22 view .LVU41
 155 009a 45F8143C 		str	r3, [r5, #-20]	@ float
 164:../../libdaisy/Drivers/CMSIS/DSP/Source/FilteringFunctions/arm_fir_f32.c ****       acc1 = 0.0f;
 156              		.loc 1 164 7 is_stmt 1 view .LVU42
 157              	.LVL14:
 165:../../libdaisy/Drivers/CMSIS/DSP/Source/FilteringFunctions/arm_fir_f32.c ****       acc2 = 0.0f;
 158              		.loc 1 165 7 view .LVU43
 166:../../libdaisy/Drivers/CMSIS/DSP/Source/FilteringFunctions/arm_fir_f32.c ****       acc3 = 0.0f;
 159              		.loc 1 166 7 view .LVU44
 167:../../libdaisy/Drivers/CMSIS/DSP/Source/FilteringFunctions/arm_fir_f32.c ****       acc4 = 0.0f;
 160              		.loc 1 167 7 view .LVU45
 168:../../libdaisy/Drivers/CMSIS/DSP/Source/FilteringFunctions/arm_fir_f32.c ****       acc5 = 0.0f;
 161              		.loc 1 168 7 view .LVU46
 169:../../libdaisy/Drivers/CMSIS/DSP/Source/FilteringFunctions/arm_fir_f32.c ****       acc6 = 0.0f;
 162              		.loc 1 169 7 view .LVU47
 170:../../libdaisy/Drivers/CMSIS/DSP/Source/FilteringFunctions/arm_fir_f32.c ****       acc7 = 0.0f;
 163              		.loc 1 170 7 view .LVU48
 171:../../libdaisy/Drivers/CMSIS/DSP/Source/FilteringFunctions/arm_fir_f32.c **** 
 164              		.loc 1 171 7 view .LVU49
 174:../../libdaisy/Drivers/CMSIS/DSP/Source/FilteringFunctions/arm_fir_f32.c **** 
 165              		.loc 1 174 7 view .LVU50
 177:../../libdaisy/Drivers/CMSIS/DSP/Source/FilteringFunctions/arm_fir_f32.c **** 
 166              		.loc 1 177 7 view .LVU51
ARM GAS  /tmp/ccOYje0u.s 			page 8


 182:../../libdaisy/Drivers/CMSIS/DSP/Source/FilteringFunctions/arm_fir_f32.c ****       *pStateCurnt++ = *pSrc++;
 167              		.loc 1 182 7 view .LVU52
 182:../../libdaisy/Drivers/CMSIS/DSP/Source/FilteringFunctions/arm_fir_f32.c ****       *pStateCurnt++ = *pSrc++;
 168              		.loc 1 182 24 is_stmt 0 view .LVU53
 169 009e 56F8103C 		ldr	r3, [r6, #-16]	@ float
 182:../../libdaisy/Drivers/CMSIS/DSP/Source/FilteringFunctions/arm_fir_f32.c ****       *pStateCurnt++ = *pSrc++;
 170              		.loc 1 182 22 view .LVU54
 171 00a2 45F8103C 		str	r3, [r5, #-16]	@ float
 183:../../libdaisy/Drivers/CMSIS/DSP/Source/FilteringFunctions/arm_fir_f32.c ****       *pStateCurnt++ = *pSrc++;
 172              		.loc 1 183 7 is_stmt 1 view .LVU55
 173              	.LVL15:
 183:../../libdaisy/Drivers/CMSIS/DSP/Source/FilteringFunctions/arm_fir_f32.c ****       *pStateCurnt++ = *pSrc++;
 174              		.loc 1 183 24 is_stmt 0 view .LVU56
 175 00a6 56F80C3C 		ldr	r3, [r6, #-12]	@ float
 183:../../libdaisy/Drivers/CMSIS/DSP/Source/FilteringFunctions/arm_fir_f32.c ****       *pStateCurnt++ = *pSrc++;
 176              		.loc 1 183 22 view .LVU57
 177 00aa 45F80C3C 		str	r3, [r5, #-12]	@ float
 184:../../libdaisy/Drivers/CMSIS/DSP/Source/FilteringFunctions/arm_fir_f32.c ****       *pStateCurnt++ = *pSrc++;
 178              		.loc 1 184 7 is_stmt 1 view .LVU58
 179              	.LVL16:
 184:../../libdaisy/Drivers/CMSIS/DSP/Source/FilteringFunctions/arm_fir_f32.c ****       *pStateCurnt++ = *pSrc++;
 180              		.loc 1 184 24 is_stmt 0 view .LVU59
 181 00ae 56F8083C 		ldr	r3, [r6, #-8]	@ float
 184:../../libdaisy/Drivers/CMSIS/DSP/Source/FilteringFunctions/arm_fir_f32.c ****       *pStateCurnt++ = *pSrc++;
 182              		.loc 1 184 22 view .LVU60
 183 00b2 45F8083C 		str	r3, [r5, #-8]	@ float
 185:../../libdaisy/Drivers/CMSIS/DSP/Source/FilteringFunctions/arm_fir_f32.c **** 
 184              		.loc 1 185 7 is_stmt 1 view .LVU61
 185              	.LVL17:
 185:../../libdaisy/Drivers/CMSIS/DSP/Source/FilteringFunctions/arm_fir_f32.c **** 
 186              		.loc 1 185 24 is_stmt 0 view .LVU62
 187 00b6 56F8043C 		ldr	r3, [r6, #-4]	@ float
 185:../../libdaisy/Drivers/CMSIS/DSP/Source/FilteringFunctions/arm_fir_f32.c **** 
 188              		.loc 1 185 22 view .LVU63
 189 00ba 45F8043C 		str	r3, [r5, #-4]	@ float
 188:../../libdaisy/Drivers/CMSIS/DSP/Source/FilteringFunctions/arm_fir_f32.c ****       x1 = *px++;
 190              		.loc 1 188 7 is_stmt 1 view .LVU64
 188:../../libdaisy/Drivers/CMSIS/DSP/Source/FilteringFunctions/arm_fir_f32.c ****       x1 = *px++;
 191              		.loc 1 188 10 is_stmt 0 view .LVU65
 192 00be 1BED073A 		vldr.32	s6, [fp, #-28]
 193              	.LVL18:
 189:../../libdaisy/Drivers/CMSIS/DSP/Source/FilteringFunctions/arm_fir_f32.c ****       x2 = *px++;
 194              		.loc 1 189 7 is_stmt 1 view .LVU66
 189:../../libdaisy/Drivers/CMSIS/DSP/Source/FilteringFunctions/arm_fir_f32.c ****       x2 = *px++;
 195              		.loc 1 189 10 is_stmt 0 view .LVU67
 196 00c2 5BED064A 		vldr.32	s9, [fp, #-24]
 197              	.LVL19:
 190:../../libdaisy/Drivers/CMSIS/DSP/Source/FilteringFunctions/arm_fir_f32.c ****       x3 = *px++;
 198              		.loc 1 190 7 is_stmt 1 view .LVU68
 190:../../libdaisy/Drivers/CMSIS/DSP/Source/FilteringFunctions/arm_fir_f32.c ****       x3 = *px++;
 199              		.loc 1 190 10 is_stmt 0 view .LVU69
 200 00c6 1BED054A 		vldr.32	s8, [fp, #-20]
 201              	.LVL20:
 191:../../libdaisy/Drivers/CMSIS/DSP/Source/FilteringFunctions/arm_fir_f32.c ****       x4 = *px++;
 202              		.loc 1 191 7 is_stmt 1 view .LVU70
 191:../../libdaisy/Drivers/CMSIS/DSP/Source/FilteringFunctions/arm_fir_f32.c ****       x4 = *px++;
 203              		.loc 1 191 10 is_stmt 0 view .LVU71
ARM GAS  /tmp/ccOYje0u.s 			page 9


 204 00ca 5BED043A 		vldr.32	s7, [fp, #-16]
 205              	.LVL21:
 192:../../libdaisy/Drivers/CMSIS/DSP/Source/FilteringFunctions/arm_fir_f32.c ****       x5 = *px++;
 206              		.loc 1 192 7 is_stmt 1 view .LVU72
 192:../../libdaisy/Drivers/CMSIS/DSP/Source/FilteringFunctions/arm_fir_f32.c ****       x5 = *px++;
 207              		.loc 1 192 10 is_stmt 0 view .LVU73
 208 00ce 1BED035A 		vldr.32	s10, [fp, #-12]
 209              	.LVL22:
 193:../../libdaisy/Drivers/CMSIS/DSP/Source/FilteringFunctions/arm_fir_f32.c ****       x6 = *px++;
 210              		.loc 1 193 7 is_stmt 1 view .LVU74
 193:../../libdaisy/Drivers/CMSIS/DSP/Source/FilteringFunctions/arm_fir_f32.c ****       x6 = *px++;
 211              		.loc 1 193 10 is_stmt 0 view .LVU75
 212 00d2 5BED025A 		vldr.32	s11, [fp, #-8]
 213              	.LVL23:
 194:../../libdaisy/Drivers/CMSIS/DSP/Source/FilteringFunctions/arm_fir_f32.c **** 
 214              		.loc 1 194 7 is_stmt 1 view .LVU76
 194:../../libdaisy/Drivers/CMSIS/DSP/Source/FilteringFunctions/arm_fir_f32.c **** 
 215              		.loc 1 194 10 is_stmt 0 view .LVU77
 216 00d6 1BED016A 		vldr.32	s12, [fp, #-4]
 217              	.LVL24:
 218              		.loc 1 197 7 is_stmt 1 view .LVU78
 198:../../libdaisy/Drivers/CMSIS/DSP/Source/FilteringFunctions/arm_fir_f32.c **** 
 199:../../libdaisy/Drivers/CMSIS/DSP/Source/FilteringFunctions/arm_fir_f32.c ****       /* Loop over the number of taps.  Unroll by a factor of 8.
 200:../../libdaisy/Drivers/CMSIS/DSP/Source/FilteringFunctions/arm_fir_f32.c ****        ** Repeat until we've computed numTaps-8 coefficients. */
 201:../../libdaisy/Drivers/CMSIS/DSP/Source/FilteringFunctions/arm_fir_f32.c ****       while (tapCnt > 0u)
 219              		.loc 1 201 7 view .LVU79
 220              		.loc 1 201 13 view .LVU80
 221 00da BEF1000F 		cmp	lr, #0
 222 00de 00F08D81 		beq	.L17
 171:../../libdaisy/Drivers/CMSIS/DSP/Source/FilteringFunctions/arm_fir_f32.c **** 
 223              		.loc 1 171 12 is_stmt 0 view .LVU81
 224 00e2 DFEDD27A 		vldr.32	s15, .L36
 225 00e6 0BF12001 		add	r1, fp, #32
 226 00ea 5346     		mov	r3, r10
 170:../../libdaisy/Drivers/CMSIS/DSP/Source/FilteringFunctions/arm_fir_f32.c ****       acc7 = 0.0f;
 227              		.loc 1 170 12 view .LVU82
 228 00ec B0EE677A 		vmov.f32	s14, s15
 229 00f0 0A46     		mov	r2, r1
 230              	.LVL25:
 169:../../libdaisy/Drivers/CMSIS/DSP/Source/FilteringFunctions/arm_fir_f32.c ****       acc6 = 0.0f;
 231              		.loc 1 169 12 view .LVU83
 232 00f2 F0EE676A 		vmov.f32	s13, s15
 168:../../libdaisy/Drivers/CMSIS/DSP/Source/FilteringFunctions/arm_fir_f32.c ****       acc5 = 0.0f;
 233              		.loc 1 168 12 view .LVU84
 234 00f6 F0EE671A 		vmov.f32	s3, s15
 167:../../libdaisy/Drivers/CMSIS/DSP/Source/FilteringFunctions/arm_fir_f32.c ****       acc4 = 0.0f;
 235              		.loc 1 167 12 view .LVU85
 236 00fa B0EE671A 		vmov.f32	s2, s15
 166:../../libdaisy/Drivers/CMSIS/DSP/Source/FilteringFunctions/arm_fir_f32.c ****       acc3 = 0.0f;
 237              		.loc 1 166 12 view .LVU86
 238 00fe B0EE670A 		vmov.f32	s0, s15
 165:../../libdaisy/Drivers/CMSIS/DSP/Source/FilteringFunctions/arm_fir_f32.c ****       acc2 = 0.0f;
 239              		.loc 1 165 12 view .LVU87
 240 0102 F0EE678A 		vmov.f32	s17, s15
 164:../../libdaisy/Drivers/CMSIS/DSP/Source/FilteringFunctions/arm_fir_f32.c ****       acc1 = 0.0f;
 241              		.loc 1 164 12 view .LVU88
 242 0106 F0EE679A 		vmov.f32	s19, s15
ARM GAS  /tmp/ccOYje0u.s 			page 10


 243              	.LVL26:
 244              	.L4:
 202:../../libdaisy/Drivers/CMSIS/DSP/Source/FilteringFunctions/arm_fir_f32.c ****       {
 203:../../libdaisy/Drivers/CMSIS/DSP/Source/FilteringFunctions/arm_fir_f32.c ****          /* Read the b[numTaps-1] coefficient */
 204:../../libdaisy/Drivers/CMSIS/DSP/Source/FilteringFunctions/arm_fir_f32.c ****          c0 = *(pb++);
 245              		.loc 1 204 10 is_stmt 1 view .LVU89
 246              		.loc 1 204 13 is_stmt 0 view .LVU90
 247 010a 13ED082A 		vldr.32	s4, [r3, #-32]
 248              	.LVL27:
 205:../../libdaisy/Drivers/CMSIS/DSP/Source/FilteringFunctions/arm_fir_f32.c **** 
 206:../../libdaisy/Drivers/CMSIS/DSP/Source/FilteringFunctions/arm_fir_f32.c ****          /* Read x[n-numTaps-3] sample */
 207:../../libdaisy/Drivers/CMSIS/DSP/Source/FilteringFunctions/arm_fir_f32.c ****          x7 = *(px++);
 249              		.loc 1 207 10 is_stmt 1 view .LVU91
 250              		.loc 1 207 10 is_stmt 0 view .LVU92
 251 010e 2033     		adds	r3, r3, #32
 252              	.LVL28:
 208:../../libdaisy/Drivers/CMSIS/DSP/Source/FilteringFunctions/arm_fir_f32.c **** 
 209:../../libdaisy/Drivers/CMSIS/DSP/Source/FilteringFunctions/arm_fir_f32.c ****          /* acc0 +=  b[numTaps-1] * x[n-numTaps] */
 210:../../libdaisy/Drivers/CMSIS/DSP/Source/FilteringFunctions/arm_fir_f32.c ****          acc0 += x0 * c0;
 211:../../libdaisy/Drivers/CMSIS/DSP/Source/FilteringFunctions/arm_fir_f32.c **** 
 212:../../libdaisy/Drivers/CMSIS/DSP/Source/FilteringFunctions/arm_fir_f32.c ****          /* acc1 +=  b[numTaps-1] * x[n-numTaps-1] */
 213:../../libdaisy/Drivers/CMSIS/DSP/Source/FilteringFunctions/arm_fir_f32.c ****          acc1 += x1 * c0;
 214:../../libdaisy/Drivers/CMSIS/DSP/Source/FilteringFunctions/arm_fir_f32.c **** 
 215:../../libdaisy/Drivers/CMSIS/DSP/Source/FilteringFunctions/arm_fir_f32.c ****          /* acc2 +=  b[numTaps-1] * x[n-numTaps-2] */
 216:../../libdaisy/Drivers/CMSIS/DSP/Source/FilteringFunctions/arm_fir_f32.c ****          acc2 += x2 * c0;
 217:../../libdaisy/Drivers/CMSIS/DSP/Source/FilteringFunctions/arm_fir_f32.c **** 
 218:../../libdaisy/Drivers/CMSIS/DSP/Source/FilteringFunctions/arm_fir_f32.c ****          /* acc3 +=  b[numTaps-1] * x[n-numTaps-3] */
 219:../../libdaisy/Drivers/CMSIS/DSP/Source/FilteringFunctions/arm_fir_f32.c ****          acc3 += x3 * c0;
 220:../../libdaisy/Drivers/CMSIS/DSP/Source/FilteringFunctions/arm_fir_f32.c **** 
 221:../../libdaisy/Drivers/CMSIS/DSP/Source/FilteringFunctions/arm_fir_f32.c ****          /* acc4 +=  b[numTaps-1] * x[n-numTaps-4] */
 222:../../libdaisy/Drivers/CMSIS/DSP/Source/FilteringFunctions/arm_fir_f32.c ****          acc4 += x4 * c0;
 223:../../libdaisy/Drivers/CMSIS/DSP/Source/FilteringFunctions/arm_fir_f32.c **** 
 224:../../libdaisy/Drivers/CMSIS/DSP/Source/FilteringFunctions/arm_fir_f32.c ****          /* acc1 +=  b[numTaps-1] * x[n-numTaps-5] */
 225:../../libdaisy/Drivers/CMSIS/DSP/Source/FilteringFunctions/arm_fir_f32.c ****          acc5 += x5 * c0;
 226:../../libdaisy/Drivers/CMSIS/DSP/Source/FilteringFunctions/arm_fir_f32.c **** 
 227:../../libdaisy/Drivers/CMSIS/DSP/Source/FilteringFunctions/arm_fir_f32.c ****          /* acc2 +=  b[numTaps-1] * x[n-numTaps-6] */
 228:../../libdaisy/Drivers/CMSIS/DSP/Source/FilteringFunctions/arm_fir_f32.c ****          acc6 += x6 * c0;
 229:../../libdaisy/Drivers/CMSIS/DSP/Source/FilteringFunctions/arm_fir_f32.c **** 
 230:../../libdaisy/Drivers/CMSIS/DSP/Source/FilteringFunctions/arm_fir_f32.c ****          /* acc3 +=  b[numTaps-1] * x[n-numTaps-7] */
 231:../../libdaisy/Drivers/CMSIS/DSP/Source/FilteringFunctions/arm_fir_f32.c ****          acc7 += x7 * c0;
 232:../../libdaisy/Drivers/CMSIS/DSP/Source/FilteringFunctions/arm_fir_f32.c **** 
 233:../../libdaisy/Drivers/CMSIS/DSP/Source/FilteringFunctions/arm_fir_f32.c ****          /* Read the b[numTaps-2] coefficient */
 234:../../libdaisy/Drivers/CMSIS/DSP/Source/FilteringFunctions/arm_fir_f32.c ****          c0 = *(pb++);
 253              		.loc 1 234 13 view .LVU93
 254 0110 13ED0FAA 		vldr.32	s20, [r3, #-60]
 255 0114 2032     		adds	r2, r2, #32
 210:../../libdaisy/Drivers/CMSIS/DSP/Source/FilteringFunctions/arm_fir_f32.c **** 
 256              		.loc 1 210 15 view .LVU94
 257 0116 E2EE039A 		vfma.f32	s19, s4, s6
 258              	.LVL29:
 207:../../libdaisy/Drivers/CMSIS/DSP/Source/FilteringFunctions/arm_fir_f32.c **** 
 259              		.loc 1 207 13 view .LVU95
 260 011a 52ED102A 		vldr.32	s5, [r2, #-64]
 261              	.LVL30:
 210:../../libdaisy/Drivers/CMSIS/DSP/Source/FilteringFunctions/arm_fir_f32.c **** 
 262              		.loc 1 210 10 is_stmt 1 view .LVU96
 213:../../libdaisy/Drivers/CMSIS/DSP/Source/FilteringFunctions/arm_fir_f32.c **** 
ARM GAS  /tmp/ccOYje0u.s 			page 11


 263              		.loc 1 213 15 is_stmt 0 view .LVU97
 264 011e E2EE248A 		vfma.f32	s17, s4, s9
 265              	.LVL31:
 235:../../libdaisy/Drivers/CMSIS/DSP/Source/FilteringFunctions/arm_fir_f32.c **** 
 236:../../libdaisy/Drivers/CMSIS/DSP/Source/FilteringFunctions/arm_fir_f32.c ****          /* Read x[n-numTaps-4] sample */
 237:../../libdaisy/Drivers/CMSIS/DSP/Source/FilteringFunctions/arm_fir_f32.c ****          x0 = *(px++);
 238:../../libdaisy/Drivers/CMSIS/DSP/Source/FilteringFunctions/arm_fir_f32.c **** 
 239:../../libdaisy/Drivers/CMSIS/DSP/Source/FilteringFunctions/arm_fir_f32.c ****          /* Perform the multiply-accumulate */
 240:../../libdaisy/Drivers/CMSIS/DSP/Source/FilteringFunctions/arm_fir_f32.c ****          acc0 += x1 * c0;
 241:../../libdaisy/Drivers/CMSIS/DSP/Source/FilteringFunctions/arm_fir_f32.c ****          acc1 += x2 * c0;
 242:../../libdaisy/Drivers/CMSIS/DSP/Source/FilteringFunctions/arm_fir_f32.c ****          acc2 += x3 * c0;
 243:../../libdaisy/Drivers/CMSIS/DSP/Source/FilteringFunctions/arm_fir_f32.c ****          acc3 += x4 * c0;
 244:../../libdaisy/Drivers/CMSIS/DSP/Source/FilteringFunctions/arm_fir_f32.c ****          acc4 += x5 * c0;
 245:../../libdaisy/Drivers/CMSIS/DSP/Source/FilteringFunctions/arm_fir_f32.c ****          acc5 += x6 * c0;
 246:../../libdaisy/Drivers/CMSIS/DSP/Source/FilteringFunctions/arm_fir_f32.c ****          acc6 += x7 * c0;
 247:../../libdaisy/Drivers/CMSIS/DSP/Source/FilteringFunctions/arm_fir_f32.c ****          acc7 += x0 * c0;
 248:../../libdaisy/Drivers/CMSIS/DSP/Source/FilteringFunctions/arm_fir_f32.c **** 
 249:../../libdaisy/Drivers/CMSIS/DSP/Source/FilteringFunctions/arm_fir_f32.c ****          /* Read the b[numTaps-3] coefficient */
 250:../../libdaisy/Drivers/CMSIS/DSP/Source/FilteringFunctions/arm_fir_f32.c ****          c0 = *(pb++);
 266              		.loc 1 250 13 view .LVU98
 267 0122 13ED0E9A 		vldr.32	s18, [r3, #-56]
 216:../../libdaisy/Drivers/CMSIS/DSP/Source/FilteringFunctions/arm_fir_f32.c **** 
 268              		.loc 1 216 15 view .LVU99
 269 0126 A2EE040A 		vfma.f32	s0, s4, s8
 270              	.LVL32:
 237:../../libdaisy/Drivers/CMSIS/DSP/Source/FilteringFunctions/arm_fir_f32.c **** 
 271              		.loc 1 237 13 view .LVU100
 272 012a 12ED0F3A 		vldr.32	s6, [r2, #-60]
 273              	.LVL33:
 219:../../libdaisy/Drivers/CMSIS/DSP/Source/FilteringFunctions/arm_fir_f32.c **** 
 274              		.loc 1 219 15 view .LVU101
 275 012e A2EE231A 		vfma.f32	s2, s4, s7
 276              	.LVL34:
 251:../../libdaisy/Drivers/CMSIS/DSP/Source/FilteringFunctions/arm_fir_f32.c **** 
 252:../../libdaisy/Drivers/CMSIS/DSP/Source/FilteringFunctions/arm_fir_f32.c ****          /* Read x[n-numTaps-5] sample */
 253:../../libdaisy/Drivers/CMSIS/DSP/Source/FilteringFunctions/arm_fir_f32.c ****          x1 = *(px++);
 254:../../libdaisy/Drivers/CMSIS/DSP/Source/FilteringFunctions/arm_fir_f32.c **** 
 255:../../libdaisy/Drivers/CMSIS/DSP/Source/FilteringFunctions/arm_fir_f32.c ****          /* Perform the multiply-accumulates */
 256:../../libdaisy/Drivers/CMSIS/DSP/Source/FilteringFunctions/arm_fir_f32.c ****          acc0 += x2 * c0;
 257:../../libdaisy/Drivers/CMSIS/DSP/Source/FilteringFunctions/arm_fir_f32.c ****          acc1 += x3 * c0;
 258:../../libdaisy/Drivers/CMSIS/DSP/Source/FilteringFunctions/arm_fir_f32.c ****          acc2 += x4 * c0;
 259:../../libdaisy/Drivers/CMSIS/DSP/Source/FilteringFunctions/arm_fir_f32.c ****          acc3 += x5 * c0;
 260:../../libdaisy/Drivers/CMSIS/DSP/Source/FilteringFunctions/arm_fir_f32.c ****          acc4 += x6 * c0;
 261:../../libdaisy/Drivers/CMSIS/DSP/Source/FilteringFunctions/arm_fir_f32.c ****          acc5 += x7 * c0;
 262:../../libdaisy/Drivers/CMSIS/DSP/Source/FilteringFunctions/arm_fir_f32.c ****          acc6 += x0 * c0;
 263:../../libdaisy/Drivers/CMSIS/DSP/Source/FilteringFunctions/arm_fir_f32.c ****          acc7 += x1 * c0;
 264:../../libdaisy/Drivers/CMSIS/DSP/Source/FilteringFunctions/arm_fir_f32.c **** 
 265:../../libdaisy/Drivers/CMSIS/DSP/Source/FilteringFunctions/arm_fir_f32.c ****          /* Read the b[numTaps-4] coefficient */
 266:../../libdaisy/Drivers/CMSIS/DSP/Source/FilteringFunctions/arm_fir_f32.c ****          c0 = *(pb++);
 267:../../libdaisy/Drivers/CMSIS/DSP/Source/FilteringFunctions/arm_fir_f32.c **** 
 268:../../libdaisy/Drivers/CMSIS/DSP/Source/FilteringFunctions/arm_fir_f32.c ****          /* Read x[n-numTaps-6] sample */
 269:../../libdaisy/Drivers/CMSIS/DSP/Source/FilteringFunctions/arm_fir_f32.c ****          x2 = *(px++);
 270:../../libdaisy/Drivers/CMSIS/DSP/Source/FilteringFunctions/arm_fir_f32.c **** 
 271:../../libdaisy/Drivers/CMSIS/DSP/Source/FilteringFunctions/arm_fir_f32.c ****          /* Perform the multiply-accumulates */
 272:../../libdaisy/Drivers/CMSIS/DSP/Source/FilteringFunctions/arm_fir_f32.c ****          acc0 += x3 * c0;
 273:../../libdaisy/Drivers/CMSIS/DSP/Source/FilteringFunctions/arm_fir_f32.c ****          acc1 += x4 * c0;
 274:../../libdaisy/Drivers/CMSIS/DSP/Source/FilteringFunctions/arm_fir_f32.c ****          acc2 += x5 * c0;
ARM GAS  /tmp/ccOYje0u.s 			page 12


 275:../../libdaisy/Drivers/CMSIS/DSP/Source/FilteringFunctions/arm_fir_f32.c ****          acc3 += x6 * c0;
 276:../../libdaisy/Drivers/CMSIS/DSP/Source/FilteringFunctions/arm_fir_f32.c ****          acc4 += x7 * c0;
 277:../../libdaisy/Drivers/CMSIS/DSP/Source/FilteringFunctions/arm_fir_f32.c ****          acc5 += x0 * c0;
 278:../../libdaisy/Drivers/CMSIS/DSP/Source/FilteringFunctions/arm_fir_f32.c ****          acc6 += x1 * c0;
 279:../../libdaisy/Drivers/CMSIS/DSP/Source/FilteringFunctions/arm_fir_f32.c ****          acc7 += x2 * c0;
 280:../../libdaisy/Drivers/CMSIS/DSP/Source/FilteringFunctions/arm_fir_f32.c **** 
 281:../../libdaisy/Drivers/CMSIS/DSP/Source/FilteringFunctions/arm_fir_f32.c ****          /* Read the b[numTaps-4] coefficient */
 282:../../libdaisy/Drivers/CMSIS/DSP/Source/FilteringFunctions/arm_fir_f32.c ****          c0 = *(pb++);
 283:../../libdaisy/Drivers/CMSIS/DSP/Source/FilteringFunctions/arm_fir_f32.c **** 
 284:../../libdaisy/Drivers/CMSIS/DSP/Source/FilteringFunctions/arm_fir_f32.c ****          /* Read x[n-numTaps-6] sample */
 285:../../libdaisy/Drivers/CMSIS/DSP/Source/FilteringFunctions/arm_fir_f32.c ****          x3 = *(px++);
 286:../../libdaisy/Drivers/CMSIS/DSP/Source/FilteringFunctions/arm_fir_f32.c ****          /* Perform the multiply-accumulates */
 287:../../libdaisy/Drivers/CMSIS/DSP/Source/FilteringFunctions/arm_fir_f32.c ****          acc0 += x4 * c0;
 288:../../libdaisy/Drivers/CMSIS/DSP/Source/FilteringFunctions/arm_fir_f32.c ****          acc1 += x5 * c0;
 289:../../libdaisy/Drivers/CMSIS/DSP/Source/FilteringFunctions/arm_fir_f32.c ****          acc2 += x6 * c0;
 290:../../libdaisy/Drivers/CMSIS/DSP/Source/FilteringFunctions/arm_fir_f32.c ****          acc3 += x7 * c0;
 291:../../libdaisy/Drivers/CMSIS/DSP/Source/FilteringFunctions/arm_fir_f32.c ****          acc4 += x0 * c0;
 292:../../libdaisy/Drivers/CMSIS/DSP/Source/FilteringFunctions/arm_fir_f32.c ****          acc5 += x1 * c0;
 293:../../libdaisy/Drivers/CMSIS/DSP/Source/FilteringFunctions/arm_fir_f32.c ****          acc6 += x2 * c0;
 294:../../libdaisy/Drivers/CMSIS/DSP/Source/FilteringFunctions/arm_fir_f32.c ****          acc7 += x3 * c0;
 295:../../libdaisy/Drivers/CMSIS/DSP/Source/FilteringFunctions/arm_fir_f32.c **** 
 296:../../libdaisy/Drivers/CMSIS/DSP/Source/FilteringFunctions/arm_fir_f32.c ****          /* Read the b[numTaps-4] coefficient */
 297:../../libdaisy/Drivers/CMSIS/DSP/Source/FilteringFunctions/arm_fir_f32.c ****          c0 = *(pb++);
 277              		.loc 1 297 13 view .LVU102
 278 0132 53ED0B0A 		vldr.32	s1, [r3, #-44]
 222:../../libdaisy/Drivers/CMSIS/DSP/Source/FilteringFunctions/arm_fir_f32.c **** 
 279              		.loc 1 222 15 view .LVU103
 280 0136 E2EE051A 		vfma.f32	s3, s4, s10
 281              	.LVL35:
 225:../../libdaisy/Drivers/CMSIS/DSP/Source/FilteringFunctions/arm_fir_f32.c **** 
 282              		.loc 1 225 15 view .LVU104
 283 013a E2EE256A 		vfma.f32	s13, s4, s11
 284              	.LVL36:
 210:../../libdaisy/Drivers/CMSIS/DSP/Source/FilteringFunctions/arm_fir_f32.c **** 
 285              		.loc 1 210 15 view .LVU105
 286 013e B0EE69BA 		vmov.f32	s22, s19
 287              	.LVL37:
 213:../../libdaisy/Drivers/CMSIS/DSP/Source/FilteringFunctions/arm_fir_f32.c **** 
 288              		.loc 1 213 10 is_stmt 1 view .LVU106
 213:../../libdaisy/Drivers/CMSIS/DSP/Source/FilteringFunctions/arm_fir_f32.c **** 
 289              		.loc 1 213 15 is_stmt 0 view .LVU107
 290 0142 F0EE68AA 		vmov.f32	s21, s17
 291              	.LVL38:
 216:../../libdaisy/Drivers/CMSIS/DSP/Source/FilteringFunctions/arm_fir_f32.c **** 
 292              		.loc 1 216 10 is_stmt 1 view .LVU108
 266:../../libdaisy/Drivers/CMSIS/DSP/Source/FilteringFunctions/arm_fir_f32.c **** 
 293              		.loc 1 266 13 is_stmt 0 view .LVU109
 294 0146 53ED0D8A 		vldr.32	s17, [r3, #-52]
 295              	.LVL39:
 216:../../libdaisy/Drivers/CMSIS/DSP/Source/FilteringFunctions/arm_fir_f32.c **** 
 296              		.loc 1 216 15 view .LVU110
 297 014a F0EE409A 		vmov.f32	s19, s0
 298              	.LVL40:
 219:../../libdaisy/Drivers/CMSIS/DSP/Source/FilteringFunctions/arm_fir_f32.c **** 
 299              		.loc 1 219 10 is_stmt 1 view .LVU111
 282:../../libdaisy/Drivers/CMSIS/DSP/Source/FilteringFunctions/arm_fir_f32.c **** 
 300              		.loc 1 282 13 is_stmt 0 view .LVU112
ARM GAS  /tmp/ccOYje0u.s 			page 13


 301 014e 13ED0C0A 		vldr.32	s0, [r3, #-48]
 302              	.LVL41:
 228:../../libdaisy/Drivers/CMSIS/DSP/Source/FilteringFunctions/arm_fir_f32.c **** 
 303              		.loc 1 228 15 view .LVU113
 304 0152 A2EE067A 		vfma.f32	s14, s4, s12
 305              	.LVL42:
 241:../../libdaisy/Drivers/CMSIS/DSP/Source/FilteringFunctions/arm_fir_f32.c ****          acc2 += x3 * c0;
 306              		.loc 1 241 15 view .LVU114
 307 0156 EAEE04AA 		vfma.f32	s21, s20, s8
 308              	.LVL43:
 242:../../libdaisy/Drivers/CMSIS/DSP/Source/FilteringFunctions/arm_fir_f32.c ****          acc3 += x4 * c0;
 309              		.loc 1 242 15 view .LVU115
 310 015a EAEE239A 		vfma.f32	s19, s20, s7
 311              	.LVL44:
 231:../../libdaisy/Drivers/CMSIS/DSP/Source/FilteringFunctions/arm_fir_f32.c **** 
 312              		.loc 1 231 15 view .LVU116
 313 015e E2EE227A 		vfma.f32	s15, s4, s5
 314              	.LVL45:
 298:../../libdaisy/Drivers/CMSIS/DSP/Source/FilteringFunctions/arm_fir_f32.c **** 
 299:../../libdaisy/Drivers/CMSIS/DSP/Source/FilteringFunctions/arm_fir_f32.c ****          /* Read x[n-numTaps-6] sample */
 300:../../libdaisy/Drivers/CMSIS/DSP/Source/FilteringFunctions/arm_fir_f32.c ****          x4 = *(px++);
 301:../../libdaisy/Drivers/CMSIS/DSP/Source/FilteringFunctions/arm_fir_f32.c **** 
 302:../../libdaisy/Drivers/CMSIS/DSP/Source/FilteringFunctions/arm_fir_f32.c ****          /* Perform the multiply-accumulates */
 303:../../libdaisy/Drivers/CMSIS/DSP/Source/FilteringFunctions/arm_fir_f32.c ****          acc0 += x5 * c0;
 304:../../libdaisy/Drivers/CMSIS/DSP/Source/FilteringFunctions/arm_fir_f32.c ****          acc1 += x6 * c0;
 305:../../libdaisy/Drivers/CMSIS/DSP/Source/FilteringFunctions/arm_fir_f32.c ****          acc2 += x7 * c0;
 306:../../libdaisy/Drivers/CMSIS/DSP/Source/FilteringFunctions/arm_fir_f32.c ****          acc3 += x0 * c0;
 307:../../libdaisy/Drivers/CMSIS/DSP/Source/FilteringFunctions/arm_fir_f32.c ****          acc4 += x1 * c0;
 308:../../libdaisy/Drivers/CMSIS/DSP/Source/FilteringFunctions/arm_fir_f32.c ****          acc5 += x2 * c0;
 309:../../libdaisy/Drivers/CMSIS/DSP/Source/FilteringFunctions/arm_fir_f32.c ****          acc6 += x3 * c0;
 310:../../libdaisy/Drivers/CMSIS/DSP/Source/FilteringFunctions/arm_fir_f32.c ****          acc7 += x4 * c0;
 311:../../libdaisy/Drivers/CMSIS/DSP/Source/FilteringFunctions/arm_fir_f32.c **** 
 312:../../libdaisy/Drivers/CMSIS/DSP/Source/FilteringFunctions/arm_fir_f32.c ****          /* Read the b[numTaps-4] coefficient */
 313:../../libdaisy/Drivers/CMSIS/DSP/Source/FilteringFunctions/arm_fir_f32.c ****          c0 = *(pb++);
 314:../../libdaisy/Drivers/CMSIS/DSP/Source/FilteringFunctions/arm_fir_f32.c **** 
 315:../../libdaisy/Drivers/CMSIS/DSP/Source/FilteringFunctions/arm_fir_f32.c ****          /* Read x[n-numTaps-6] sample */
 316:../../libdaisy/Drivers/CMSIS/DSP/Source/FilteringFunctions/arm_fir_f32.c ****          x5 = *(px++);
 317:../../libdaisy/Drivers/CMSIS/DSP/Source/FilteringFunctions/arm_fir_f32.c **** 
 318:../../libdaisy/Drivers/CMSIS/DSP/Source/FilteringFunctions/arm_fir_f32.c ****          /* Perform the multiply-accumulates */
 319:../../libdaisy/Drivers/CMSIS/DSP/Source/FilteringFunctions/arm_fir_f32.c ****          acc0 += x6 * c0;
 320:../../libdaisy/Drivers/CMSIS/DSP/Source/FilteringFunctions/arm_fir_f32.c ****          acc1 += x7 * c0;
 321:../../libdaisy/Drivers/CMSIS/DSP/Source/FilteringFunctions/arm_fir_f32.c ****          acc2 += x0 * c0;
 322:../../libdaisy/Drivers/CMSIS/DSP/Source/FilteringFunctions/arm_fir_f32.c ****          acc3 += x1 * c0;
 323:../../libdaisy/Drivers/CMSIS/DSP/Source/FilteringFunctions/arm_fir_f32.c ****          acc4 += x2 * c0;
 324:../../libdaisy/Drivers/CMSIS/DSP/Source/FilteringFunctions/arm_fir_f32.c ****          acc5 += x3 * c0;
 325:../../libdaisy/Drivers/CMSIS/DSP/Source/FilteringFunctions/arm_fir_f32.c ****          acc6 += x4 * c0;
 326:../../libdaisy/Drivers/CMSIS/DSP/Source/FilteringFunctions/arm_fir_f32.c ****          acc7 += x5 * c0;
 327:../../libdaisy/Drivers/CMSIS/DSP/Source/FilteringFunctions/arm_fir_f32.c **** 
 328:../../libdaisy/Drivers/CMSIS/DSP/Source/FilteringFunctions/arm_fir_f32.c ****          /* Read the b[numTaps-4] coefficient */
 329:../../libdaisy/Drivers/CMSIS/DSP/Source/FilteringFunctions/arm_fir_f32.c ****          c0 = *(pb++);
 315              		.loc 1 329 13 view .LVU117
 316 0162 13ED092A 		vldr.32	s4, [r3, #-36]
 317              	.LVL46:
 219:../../libdaisy/Drivers/CMSIS/DSP/Source/FilteringFunctions/arm_fir_f32.c **** 
 318              		.loc 1 219 15 view .LVU118
 319 0166 B0EE418A 		vmov.f32	s16, s2
 320              	.LVL47:
ARM GAS  /tmp/ccOYje0u.s 			page 14


 222:../../libdaisy/Drivers/CMSIS/DSP/Source/FilteringFunctions/arm_fir_f32.c **** 
 321              		.loc 1 222 10 is_stmt 1 view .LVU119
 225:../../libdaisy/Drivers/CMSIS/DSP/Source/FilteringFunctions/arm_fir_f32.c **** 
 322              		.loc 1 225 10 view .LVU120
 228:../../libdaisy/Drivers/CMSIS/DSP/Source/FilteringFunctions/arm_fir_f32.c **** 
 323              		.loc 1 228 10 view .LVU121
 231:../../libdaisy/Drivers/CMSIS/DSP/Source/FilteringFunctions/arm_fir_f32.c **** 
 324              		.loc 1 231 10 view .LVU122
 234:../../libdaisy/Drivers/CMSIS/DSP/Source/FilteringFunctions/arm_fir_f32.c **** 
 325              		.loc 1 234 10 view .LVU123
 237:../../libdaisy/Drivers/CMSIS/DSP/Source/FilteringFunctions/arm_fir_f32.c **** 
 326              		.loc 1 237 10 view .LVU124
 240:../../libdaisy/Drivers/CMSIS/DSP/Source/FilteringFunctions/arm_fir_f32.c ****          acc1 += x2 * c0;
 327              		.loc 1 240 10 view .LVU125
 313:../../libdaisy/Drivers/CMSIS/DSP/Source/FilteringFunctions/arm_fir_f32.c **** 
 328              		.loc 1 313 13 is_stmt 0 view .LVU126
 329 016a 13ED0A1A 		vldr.32	s2, [r3, #-40]
 330              	.LVL48:
 240:../../libdaisy/Drivers/CMSIS/DSP/Source/FilteringFunctions/arm_fir_f32.c ****          acc1 += x2 * c0;
 331              		.loc 1 240 15 view .LVU127
 332 016e AAEE24BA 		vfma.f32	s22, s20, s9
 333              	.LVL49:
 241:../../libdaisy/Drivers/CMSIS/DSP/Source/FilteringFunctions/arm_fir_f32.c ****          acc2 += x3 * c0;
 334              		.loc 1 241 10 is_stmt 1 view .LVU128
 242:../../libdaisy/Drivers/CMSIS/DSP/Source/FilteringFunctions/arm_fir_f32.c ****          acc3 += x4 * c0;
 335              		.loc 1 242 10 view .LVU129
 243:../../libdaisy/Drivers/CMSIS/DSP/Source/FilteringFunctions/arm_fir_f32.c ****          acc4 += x5 * c0;
 336              		.loc 1 243 10 view .LVU130
 253:../../libdaisy/Drivers/CMSIS/DSP/Source/FilteringFunctions/arm_fir_f32.c **** 
 337              		.loc 1 253 13 is_stmt 0 view .LVU131
 338 0172 52ED0E4A 		vldr.32	s9, [r2, #-56]
 339              	.LVL50:
 244:../../libdaisy/Drivers/CMSIS/DSP/Source/FilteringFunctions/arm_fir_f32.c ****          acc5 += x6 * c0;
 340              		.loc 1 244 15 view .LVU132
 341 0176 EAEE251A 		vfma.f32	s3, s20, s11
 342              	.LVL51:
 201:../../libdaisy/Drivers/CMSIS/DSP/Source/FilteringFunctions/arm_fir_f32.c ****       {
 343              		.loc 1 201 13 view .LVU133
 344 017a 9F42     		cmp	r7, r3
 243:../../libdaisy/Drivers/CMSIS/DSP/Source/FilteringFunctions/arm_fir_f32.c ****          acc4 += x5 * c0;
 345              		.loc 1 243 15 view .LVU134
 346 017c AAEE058A 		vfma.f32	s16, s20, s10
 347              	.LVL52:
 244:../../libdaisy/Drivers/CMSIS/DSP/Source/FilteringFunctions/arm_fir_f32.c ****          acc5 += x6 * c0;
 348              		.loc 1 244 10 is_stmt 1 view .LVU135
 245:../../libdaisy/Drivers/CMSIS/DSP/Source/FilteringFunctions/arm_fir_f32.c ****          acc6 += x7 * c0;
 349              		.loc 1 245 10 view .LVU136
 245:../../libdaisy/Drivers/CMSIS/DSP/Source/FilteringFunctions/arm_fir_f32.c ****          acc6 += x7 * c0;
 350              		.loc 1 245 15 is_stmt 0 view .LVU137
 351 0180 EAEE066A 		vfma.f32	s13, s20, s12
 352              	.LVL53:
 246:../../libdaisy/Drivers/CMSIS/DSP/Source/FilteringFunctions/arm_fir_f32.c ****          acc7 += x0 * c0;
 353              		.loc 1 246 10 is_stmt 1 view .LVU138
 258:../../libdaisy/Drivers/CMSIS/DSP/Source/FilteringFunctions/arm_fir_f32.c ****          acc3 += x5 * c0;
 354              		.loc 1 258 15 is_stmt 0 view .LVU139
 355 0184 E9EE059A 		vfma.f32	s19, s18, s10
 356              	.LVL54:
ARM GAS  /tmp/ccOYje0u.s 			page 15


 246:../../libdaisy/Drivers/CMSIS/DSP/Source/FilteringFunctions/arm_fir_f32.c ****          acc7 += x0 * c0;
 357              		.loc 1 246 15 view .LVU140
 358 0188 A2EE8A7A 		vfma.f32	s14, s5, s20
 359              	.LVL55:
 247:../../libdaisy/Drivers/CMSIS/DSP/Source/FilteringFunctions/arm_fir_f32.c **** 
 360              		.loc 1 247 10 is_stmt 1 view .LVU141
 247:../../libdaisy/Drivers/CMSIS/DSP/Source/FilteringFunctions/arm_fir_f32.c **** 
 361              		.loc 1 247 15 is_stmt 0 view .LVU142
 362 018c EAEE037A 		vfma.f32	s15, s20, s6
 363              	.LVL56:
 250:../../libdaisy/Drivers/CMSIS/DSP/Source/FilteringFunctions/arm_fir_f32.c **** 
 364              		.loc 1 250 10 is_stmt 1 view .LVU143
 253:../../libdaisy/Drivers/CMSIS/DSP/Source/FilteringFunctions/arm_fir_f32.c **** 
 365              		.loc 1 253 10 view .LVU144
 256:../../libdaisy/Drivers/CMSIS/DSP/Source/FilteringFunctions/arm_fir_f32.c ****          acc1 += x3 * c0;
 366              		.loc 1 256 10 view .LVU145
 257:../../libdaisy/Drivers/CMSIS/DSP/Source/FilteringFunctions/arm_fir_f32.c ****          acc2 += x4 * c0;
 367              		.loc 1 257 15 is_stmt 0 view .LVU146
 368 0190 B0EE6AAA 		vmov.f32	s20, s21
 256:../../libdaisy/Drivers/CMSIS/DSP/Source/FilteringFunctions/arm_fir_f32.c ****          acc1 += x3 * c0;
 369              		.loc 1 256 15 view .LVU147
 370 0194 A9EE04BA 		vfma.f32	s22, s18, s8
 371              	.LVL57:
 257:../../libdaisy/Drivers/CMSIS/DSP/Source/FilteringFunctions/arm_fir_f32.c ****          acc2 += x4 * c0;
 372              		.loc 1 257 10 is_stmt 1 view .LVU148
 269:../../libdaisy/Drivers/CMSIS/DSP/Source/FilteringFunctions/arm_fir_f32.c **** 
 373              		.loc 1 269 13 is_stmt 0 view .LVU149
 374 0198 12ED0D4A 		vldr.32	s8, [r2, #-52]
 375              	.LVL58:
 259:../../libdaisy/Drivers/CMSIS/DSP/Source/FilteringFunctions/arm_fir_f32.c ****          acc4 += x6 * c0;
 376              		.loc 1 259 15 view .LVU150
 377 019c A9EE258A 		vfma.f32	s16, s18, s11
 378              	.LVL59:
 257:../../libdaisy/Drivers/CMSIS/DSP/Source/FilteringFunctions/arm_fir_f32.c ****          acc2 += x4 * c0;
 379              		.loc 1 257 15 view .LVU151
 380 01a0 A9EE23AA 		vfma.f32	s20, s18, s7
 381              	.LVL60:
 258:../../libdaisy/Drivers/CMSIS/DSP/Source/FilteringFunctions/arm_fir_f32.c ****          acc3 += x5 * c0;
 382              		.loc 1 258 10 is_stmt 1 view .LVU152
 259:../../libdaisy/Drivers/CMSIS/DSP/Source/FilteringFunctions/arm_fir_f32.c ****          acc4 += x6 * c0;
 383              		.loc 1 259 10 view .LVU153
 260:../../libdaisy/Drivers/CMSIS/DSP/Source/FilteringFunctions/arm_fir_f32.c ****          acc5 += x7 * c0;
 384              		.loc 1 260 10 view .LVU154
 260:../../libdaisy/Drivers/CMSIS/DSP/Source/FilteringFunctions/arm_fir_f32.c ****          acc5 += x7 * c0;
 385              		.loc 1 260 15 is_stmt 0 view .LVU155
 386 01a4 E9EE061A 		vfma.f32	s3, s18, s12
 387              	.LVL61:
 261:../../libdaisy/Drivers/CMSIS/DSP/Source/FilteringFunctions/arm_fir_f32.c ****          acc6 += x0 * c0;
 388              		.loc 1 261 10 is_stmt 1 view .LVU156
 261:../../libdaisy/Drivers/CMSIS/DSP/Source/FilteringFunctions/arm_fir_f32.c ****          acc6 += x0 * c0;
 389              		.loc 1 261 15 is_stmt 0 view .LVU157
 390 01a8 E2EE896A 		vfma.f32	s13, s5, s18
 391              	.LVL62:
 262:../../libdaisy/Drivers/CMSIS/DSP/Source/FilteringFunctions/arm_fir_f32.c ****          acc7 += x1 * c0;
 392              		.loc 1 262 10 is_stmt 1 view .LVU158
 262:../../libdaisy/Drivers/CMSIS/DSP/Source/FilteringFunctions/arm_fir_f32.c ****          acc7 += x1 * c0;
 393              		.loc 1 262 15 is_stmt 0 view .LVU159
ARM GAS  /tmp/ccOYje0u.s 			page 16


 394 01ac A3EE097A 		vfma.f32	s14, s6, s18
 395              	.LVL63:
 263:../../libdaisy/Drivers/CMSIS/DSP/Source/FilteringFunctions/arm_fir_f32.c **** 
 396              		.loc 1 263 10 is_stmt 1 view .LVU160
 263:../../libdaisy/Drivers/CMSIS/DSP/Source/FilteringFunctions/arm_fir_f32.c **** 
 397              		.loc 1 263 15 is_stmt 0 view .LVU161
 398 01b0 E9EE247A 		vfma.f32	s15, s18, s9
 399              	.LVL64:
 266:../../libdaisy/Drivers/CMSIS/DSP/Source/FilteringFunctions/arm_fir_f32.c **** 
 400              		.loc 1 266 10 is_stmt 1 view .LVU162
 269:../../libdaisy/Drivers/CMSIS/DSP/Source/FilteringFunctions/arm_fir_f32.c **** 
 401              		.loc 1 269 10 view .LVU163
 272:../../libdaisy/Drivers/CMSIS/DSP/Source/FilteringFunctions/arm_fir_f32.c ****          acc1 += x4 * c0;
 402              		.loc 1 272 10 view .LVU164
 274:../../libdaisy/Drivers/CMSIS/DSP/Source/FilteringFunctions/arm_fir_f32.c ****          acc3 += x6 * c0;
 403              		.loc 1 274 15 is_stmt 0 view .LVU165
 404 01b4 B0EE699A 		vmov.f32	s18, s19
 273:../../libdaisy/Drivers/CMSIS/DSP/Source/FilteringFunctions/arm_fir_f32.c ****          acc2 += x5 * c0;
 405              		.loc 1 273 15 view .LVU166
 406 01b8 A8EE85AA 		vfma.f32	s20, s17, s10
 407              	.LVL65:
 275:../../libdaisy/Drivers/CMSIS/DSP/Source/FilteringFunctions/arm_fir_f32.c ****          acc4 += x7 * c0;
 408              		.loc 1 275 15 view .LVU167
 409 01bc A8EE868A 		vfma.f32	s16, s17, s12
 410              	.LVL66:
 274:../../libdaisy/Drivers/CMSIS/DSP/Source/FilteringFunctions/arm_fir_f32.c ****          acc3 += x6 * c0;
 411              		.loc 1 274 15 view .LVU168
 412 01c0 A8EEA59A 		vfma.f32	s18, s17, s11
 272:../../libdaisy/Drivers/CMSIS/DSP/Source/FilteringFunctions/arm_fir_f32.c ****          acc1 += x4 * c0;
 413              		.loc 1 272 15 view .LVU169
 414 01c4 F0EE4BAA 		vmov.f32	s21, s22
 415              	.LVL67:
 276:../../libdaisy/Drivers/CMSIS/DSP/Source/FilteringFunctions/arm_fir_f32.c ****          acc5 += x0 * c0;
 416              		.loc 1 276 15 view .LVU170
 417 01c8 E2EEA81A 		vfma.f32	s3, s5, s17
 418              	.LVL68:
 277:../../libdaisy/Drivers/CMSIS/DSP/Source/FilteringFunctions/arm_fir_f32.c ****          acc6 += x1 * c0;
 419              		.loc 1 277 15 view .LVU171
 420 01cc E3EE286A 		vfma.f32	s13, s6, s17
 421              	.LVL69:
 272:../../libdaisy/Drivers/CMSIS/DSP/Source/FilteringFunctions/arm_fir_f32.c ****          acc1 += x4 * c0;
 422              		.loc 1 272 15 view .LVU172
 423 01d0 E8EEA3AA 		vfma.f32	s21, s17, s7
 424              	.LVL70:
 273:../../libdaisy/Drivers/CMSIS/DSP/Source/FilteringFunctions/arm_fir_f32.c ****          acc2 += x5 * c0;
 425              		.loc 1 273 10 is_stmt 1 view .LVU173
 274:../../libdaisy/Drivers/CMSIS/DSP/Source/FilteringFunctions/arm_fir_f32.c ****          acc3 += x6 * c0;
 426              		.loc 1 274 10 view .LVU174
 275:../../libdaisy/Drivers/CMSIS/DSP/Source/FilteringFunctions/arm_fir_f32.c ****          acc4 += x7 * c0;
 427              		.loc 1 275 10 view .LVU175
 276:../../libdaisy/Drivers/CMSIS/DSP/Source/FilteringFunctions/arm_fir_f32.c ****          acc5 += x0 * c0;
 428              		.loc 1 276 10 view .LVU176
 277:../../libdaisy/Drivers/CMSIS/DSP/Source/FilteringFunctions/arm_fir_f32.c ****          acc6 += x1 * c0;
 429              		.loc 1 277 10 view .LVU177
 278:../../libdaisy/Drivers/CMSIS/DSP/Source/FilteringFunctions/arm_fir_f32.c ****          acc7 += x2 * c0;
 430              		.loc 1 278 10 view .LVU178
 285:../../libdaisy/Drivers/CMSIS/DSP/Source/FilteringFunctions/arm_fir_f32.c ****          /* Perform the multiply-accumulates */
ARM GAS  /tmp/ccOYje0u.s 			page 17


 431              		.loc 1 285 13 is_stmt 0 view .LVU179
 432 01d4 52ED0C3A 		vldr.32	s7, [r2, #-48]
 433              	.LVL71:
 278:../../libdaisy/Drivers/CMSIS/DSP/Source/FilteringFunctions/arm_fir_f32.c ****          acc7 += x2 * c0;
 434              		.loc 1 278 15 view .LVU180
 435 01d8 A4EEA87A 		vfma.f32	s14, s9, s17
 436              	.LVL72:
 279:../../libdaisy/Drivers/CMSIS/DSP/Source/FilteringFunctions/arm_fir_f32.c **** 
 437              		.loc 1 279 10 is_stmt 1 view .LVU181
 279:../../libdaisy/Drivers/CMSIS/DSP/Source/FilteringFunctions/arm_fir_f32.c **** 
 438              		.loc 1 279 15 is_stmt 0 view .LVU182
 439 01dc E8EE847A 		vfma.f32	s15, s17, s8
 440              	.LVL73:
 282:../../libdaisy/Drivers/CMSIS/DSP/Source/FilteringFunctions/arm_fir_f32.c **** 
 441              		.loc 1 282 10 is_stmt 1 view .LVU183
 285:../../libdaisy/Drivers/CMSIS/DSP/Source/FilteringFunctions/arm_fir_f32.c ****          /* Perform the multiply-accumulates */
 442              		.loc 1 285 10 view .LVU184
 287:../../libdaisy/Drivers/CMSIS/DSP/Source/FilteringFunctions/arm_fir_f32.c ****          acc1 += x5 * c0;
 443              		.loc 1 287 10 view .LVU185
 290:../../libdaisy/Drivers/CMSIS/DSP/Source/FilteringFunctions/arm_fir_f32.c ****          acc4 += x0 * c0;
 444              		.loc 1 290 15 is_stmt 0 view .LVU186
 445 01e0 A2EE808A 		vfma.f32	s16, s5, s0
 446              	.LVL74:
 288:../../libdaisy/Drivers/CMSIS/DSP/Source/FilteringFunctions/arm_fir_f32.c ****          acc2 += x6 * c0;
 447              		.loc 1 288 15 view .LVU187
 448 01e4 F0EE4A9A 		vmov.f32	s19, s20
 289:../../libdaisy/Drivers/CMSIS/DSP/Source/FilteringFunctions/arm_fir_f32.c ****          acc3 += x7 * c0;
 449              		.loc 1 289 15 view .LVU188
 450 01e8 F0EE498A 		vmov.f32	s17, s18
 287:../../libdaisy/Drivers/CMSIS/DSP/Source/FilteringFunctions/arm_fir_f32.c ****          acc1 += x5 * c0;
 451              		.loc 1 287 15 view .LVU189
 452 01ec E0EE05AA 		vfma.f32	s21, s0, s10
 453              	.LVL75:
 288:../../libdaisy/Drivers/CMSIS/DSP/Source/FilteringFunctions/arm_fir_f32.c ****          acc2 += x6 * c0;
 454              		.loc 1 288 10 is_stmt 1 view .LVU190
 300:../../libdaisy/Drivers/CMSIS/DSP/Source/FilteringFunctions/arm_fir_f32.c **** 
 455              		.loc 1 300 13 is_stmt 0 view .LVU191
 456 01f0 12ED0B5A 		vldr.32	s10, [r2, #-44]
 457              	.LVL76:
 288:../../libdaisy/Drivers/CMSIS/DSP/Source/FilteringFunctions/arm_fir_f32.c ****          acc2 += x6 * c0;
 458              		.loc 1 288 15 view .LVU192
 459 01f4 E0EE259A 		vfma.f32	s19, s0, s11
 460              	.LVL77:
 289:../../libdaisy/Drivers/CMSIS/DSP/Source/FilteringFunctions/arm_fir_f32.c ****          acc3 += x7 * c0;
 461              		.loc 1 289 10 is_stmt 1 view .LVU193
 289:../../libdaisy/Drivers/CMSIS/DSP/Source/FilteringFunctions/arm_fir_f32.c ****          acc3 += x7 * c0;
 462              		.loc 1 289 15 is_stmt 0 view .LVU194
 463 01f8 E0EE068A 		vfma.f32	s17, s0, s12
 464              	.LVL78:
 290:../../libdaisy/Drivers/CMSIS/DSP/Source/FilteringFunctions/arm_fir_f32.c ****          acc4 += x0 * c0;
 465              		.loc 1 290 10 is_stmt 1 view .LVU195
 291:../../libdaisy/Drivers/CMSIS/DSP/Source/FilteringFunctions/arm_fir_f32.c ****          acc5 += x1 * c0;
 466              		.loc 1 291 10 view .LVU196
 291:../../libdaisy/Drivers/CMSIS/DSP/Source/FilteringFunctions/arm_fir_f32.c ****          acc5 += x1 * c0;
 467              		.loc 1 291 15 is_stmt 0 view .LVU197
 468 01fc E3EE001A 		vfma.f32	s3, s6, s0
 469              	.LVL79:
ARM GAS  /tmp/ccOYje0u.s 			page 18


 292:../../libdaisy/Drivers/CMSIS/DSP/Source/FilteringFunctions/arm_fir_f32.c ****          acc6 += x2 * c0;
 470              		.loc 1 292 10 is_stmt 1 view .LVU198
 292:../../libdaisy/Drivers/CMSIS/DSP/Source/FilteringFunctions/arm_fir_f32.c ****          acc6 += x2 * c0;
 471              		.loc 1 292 15 is_stmt 0 view .LVU199
 472 0200 E4EE806A 		vfma.f32	s13, s9, s0
 473              	.LVL80:
 293:../../libdaisy/Drivers/CMSIS/DSP/Source/FilteringFunctions/arm_fir_f32.c ****          acc7 += x3 * c0;
 474              		.loc 1 293 10 is_stmt 1 view .LVU200
 293:../../libdaisy/Drivers/CMSIS/DSP/Source/FilteringFunctions/arm_fir_f32.c ****          acc7 += x3 * c0;
 475              		.loc 1 293 15 is_stmt 0 view .LVU201
 476 0204 A4EE007A 		vfma.f32	s14, s8, s0
 477              	.LVL81:
 294:../../libdaisy/Drivers/CMSIS/DSP/Source/FilteringFunctions/arm_fir_f32.c **** 
 478              		.loc 1 294 10 is_stmt 1 view .LVU202
 294:../../libdaisy/Drivers/CMSIS/DSP/Source/FilteringFunctions/arm_fir_f32.c **** 
 479              		.loc 1 294 15 is_stmt 0 view .LVU203
 480 0208 E0EE237A 		vfma.f32	s15, s0, s7
 481              	.LVL82:
 297:../../libdaisy/Drivers/CMSIS/DSP/Source/FilteringFunctions/arm_fir_f32.c **** 
 482              		.loc 1 297 10 is_stmt 1 view .LVU204
 300:../../libdaisy/Drivers/CMSIS/DSP/Source/FilteringFunctions/arm_fir_f32.c **** 
 483              		.loc 1 300 10 view .LVU205
 303:../../libdaisy/Drivers/CMSIS/DSP/Source/FilteringFunctions/arm_fir_f32.c ****          acc1 += x6 * c0;
 484              		.loc 1 303 10 view .LVU206
 306:../../libdaisy/Drivers/CMSIS/DSP/Source/FilteringFunctions/arm_fir_f32.c ****          acc4 += x1 * c0;
 485              		.loc 1 306 15 is_stmt 0 view .LVU207
 486 020c B0EE480A 		vmov.f32	s0, s16
 305:../../libdaisy/Drivers/CMSIS/DSP/Source/FilteringFunctions/arm_fir_f32.c ****          acc3 += x0 * c0;
 487              		.loc 1 305 15 view .LVU208
 488 0210 E2EEA08A 		vfma.f32	s17, s5, s1
 489              	.LVL83:
 304:../../libdaisy/Drivers/CMSIS/DSP/Source/FilteringFunctions/arm_fir_f32.c ****          acc2 += x7 * c0;
 490              		.loc 1 304 15 view .LVU209
 491 0214 B0EE699A 		vmov.f32	s18, s19
 492              	.LVL84:
 306:../../libdaisy/Drivers/CMSIS/DSP/Source/FilteringFunctions/arm_fir_f32.c ****          acc4 += x1 * c0;
 493              		.loc 1 306 15 view .LVU210
 494 0218 A3EE200A 		vfma.f32	s0, s6, s1
 303:../../libdaisy/Drivers/CMSIS/DSP/Source/FilteringFunctions/arm_fir_f32.c ****          acc1 += x6 * c0;
 495              		.loc 1 303 15 view .LVU211
 496 021c B0EE6AAA 		vmov.f32	s20, s21
 304:../../libdaisy/Drivers/CMSIS/DSP/Source/FilteringFunctions/arm_fir_f32.c ****          acc2 += x7 * c0;
 497              		.loc 1 304 15 view .LVU212
 498 0220 A0EE869A 		vfma.f32	s18, s1, s12
 307:../../libdaisy/Drivers/CMSIS/DSP/Source/FilteringFunctions/arm_fir_f32.c ****          acc5 += x2 * c0;
 499              		.loc 1 307 15 view .LVU213
 500 0224 E4EEA01A 		vfma.f32	s3, s9, s1
 501              	.LVL85:
 303:../../libdaisy/Drivers/CMSIS/DSP/Source/FilteringFunctions/arm_fir_f32.c ****          acc1 += x6 * c0;
 502              		.loc 1 303 15 view .LVU214
 503 0228 A0EEA5AA 		vfma.f32	s20, s1, s11
 504              	.LVL86:
 304:../../libdaisy/Drivers/CMSIS/DSP/Source/FilteringFunctions/arm_fir_f32.c ****          acc2 += x7 * c0;
 505              		.loc 1 304 10 is_stmt 1 view .LVU215
 305:../../libdaisy/Drivers/CMSIS/DSP/Source/FilteringFunctions/arm_fir_f32.c ****          acc3 += x0 * c0;
 506              		.loc 1 305 10 view .LVU216
 306:../../libdaisy/Drivers/CMSIS/DSP/Source/FilteringFunctions/arm_fir_f32.c ****          acc4 += x1 * c0;
ARM GAS  /tmp/ccOYje0u.s 			page 19


 507              		.loc 1 306 10 view .LVU217
 307:../../libdaisy/Drivers/CMSIS/DSP/Source/FilteringFunctions/arm_fir_f32.c ****          acc5 += x2 * c0;
 508              		.loc 1 307 10 view .LVU218
 308:../../libdaisy/Drivers/CMSIS/DSP/Source/FilteringFunctions/arm_fir_f32.c ****          acc6 += x3 * c0;
 509              		.loc 1 308 10 view .LVU219
 316:../../libdaisy/Drivers/CMSIS/DSP/Source/FilteringFunctions/arm_fir_f32.c **** 
 510              		.loc 1 316 13 is_stmt 0 view .LVU220
 511 022c 52ED0A5A 		vldr.32	s11, [r2, #-40]
 512              	.LVL87:
 308:../../libdaisy/Drivers/CMSIS/DSP/Source/FilteringFunctions/arm_fir_f32.c ****          acc6 += x3 * c0;
 513              		.loc 1 308 15 view .LVU221
 514 0230 E4EE206A 		vfma.f32	s13, s8, s1
 515              	.LVL88:
 309:../../libdaisy/Drivers/CMSIS/DSP/Source/FilteringFunctions/arm_fir_f32.c ****          acc7 += x4 * c0;
 516              		.loc 1 309 10 is_stmt 1 view .LVU222
 309:../../libdaisy/Drivers/CMSIS/DSP/Source/FilteringFunctions/arm_fir_f32.c ****          acc7 += x4 * c0;
 517              		.loc 1 309 15 is_stmt 0 view .LVU223
 518 0234 A3EEA07A 		vfma.f32	s14, s7, s1
 519              	.LVL89:
 310:../../libdaisy/Drivers/CMSIS/DSP/Source/FilteringFunctions/arm_fir_f32.c **** 
 520              		.loc 1 310 10 is_stmt 1 view .LVU224
 310:../../libdaisy/Drivers/CMSIS/DSP/Source/FilteringFunctions/arm_fir_f32.c **** 
 521              		.loc 1 310 15 is_stmt 0 view .LVU225
 522 0238 E0EE857A 		vfma.f32	s15, s1, s10
 523              	.LVL90:
 313:../../libdaisy/Drivers/CMSIS/DSP/Source/FilteringFunctions/arm_fir_f32.c **** 
 524              		.loc 1 313 10 is_stmt 1 view .LVU226
 316:../../libdaisy/Drivers/CMSIS/DSP/Source/FilteringFunctions/arm_fir_f32.c **** 
 525              		.loc 1 316 10 view .LVU227
 319:../../libdaisy/Drivers/CMSIS/DSP/Source/FilteringFunctions/arm_fir_f32.c ****          acc1 += x7 * c0;
 526              		.loc 1 319 10 view .LVU228
 321:../../libdaisy/Drivers/CMSIS/DSP/Source/FilteringFunctions/arm_fir_f32.c ****          acc3 += x1 * c0;
 527              		.loc 1 321 15 is_stmt 0 view .LVU229
 528 023c B0EE688A 		vmov.f32	s16, s17
 322:../../libdaisy/Drivers/CMSIS/DSP/Source/FilteringFunctions/arm_fir_f32.c ****          acc4 += x2 * c0;
 529              		.loc 1 322 15 view .LVU230
 530 0240 F0EE400A 		vmov.f32	s1, s0
 320:../../libdaisy/Drivers/CMSIS/DSP/Source/FilteringFunctions/arm_fir_f32.c ****          acc2 += x0 * c0;
 531              		.loc 1 320 15 view .LVU231
 532 0244 A2EE819A 		vfma.f32	s18, s5, s2
 533              	.LVL91:
 321:../../libdaisy/Drivers/CMSIS/DSP/Source/FilteringFunctions/arm_fir_f32.c ****          acc3 += x1 * c0;
 534              		.loc 1 321 15 view .LVU232
 535 0248 A3EE018A 		vfma.f32	s16, s6, s2
 322:../../libdaisy/Drivers/CMSIS/DSP/Source/FilteringFunctions/arm_fir_f32.c ****          acc4 += x2 * c0;
 536              		.loc 1 322 15 view .LVU233
 537 024c E4EE810A 		vfma.f32	s1, s9, s2
 319:../../libdaisy/Drivers/CMSIS/DSP/Source/FilteringFunctions/arm_fir_f32.c ****          acc1 += x7 * c0;
 538              		.loc 1 319 15 view .LVU234
 539 0250 F0EE4A9A 		vmov.f32	s19, s20
 540              	.LVL92:
 323:../../libdaisy/Drivers/CMSIS/DSP/Source/FilteringFunctions/arm_fir_f32.c ****          acc5 += x3 * c0;
 541              		.loc 1 323 15 view .LVU235
 542 0254 E4EE011A 		vfma.f32	s3, s8, s2
 543              	.LVL93:
 324:../../libdaisy/Drivers/CMSIS/DSP/Source/FilteringFunctions/arm_fir_f32.c ****          acc6 += x4 * c0;
 544              		.loc 1 324 15 view .LVU236
ARM GAS  /tmp/ccOYje0u.s 			page 20


 545 0258 E3EE816A 		vfma.f32	s13, s7, s2
 546              	.LVL94:
 319:../../libdaisy/Drivers/CMSIS/DSP/Source/FilteringFunctions/arm_fir_f32.c ****          acc1 += x7 * c0;
 547              		.loc 1 319 15 view .LVU237
 548 025c E1EE069A 		vfma.f32	s19, s2, s12
 549              	.LVL95:
 320:../../libdaisy/Drivers/CMSIS/DSP/Source/FilteringFunctions/arm_fir_f32.c ****          acc2 += x0 * c0;
 550              		.loc 1 320 10 is_stmt 1 view .LVU238
 321:../../libdaisy/Drivers/CMSIS/DSP/Source/FilteringFunctions/arm_fir_f32.c ****          acc3 += x1 * c0;
 551              		.loc 1 321 10 view .LVU239
 322:../../libdaisy/Drivers/CMSIS/DSP/Source/FilteringFunctions/arm_fir_f32.c ****          acc4 += x2 * c0;
 552              		.loc 1 322 10 view .LVU240
 323:../../libdaisy/Drivers/CMSIS/DSP/Source/FilteringFunctions/arm_fir_f32.c ****          acc5 += x3 * c0;
 553              		.loc 1 323 10 view .LVU241
 324:../../libdaisy/Drivers/CMSIS/DSP/Source/FilteringFunctions/arm_fir_f32.c ****          acc6 += x4 * c0;
 554              		.loc 1 324 10 view .LVU242
 325:../../libdaisy/Drivers/CMSIS/DSP/Source/FilteringFunctions/arm_fir_f32.c ****          acc7 += x5 * c0;
 555              		.loc 1 325 10 view .LVU243
 330:../../libdaisy/Drivers/CMSIS/DSP/Source/FilteringFunctions/arm_fir_f32.c **** 
 331:../../libdaisy/Drivers/CMSIS/DSP/Source/FilteringFunctions/arm_fir_f32.c ****          /* Read x[n-numTaps-6] sample */
 332:../../libdaisy/Drivers/CMSIS/DSP/Source/FilteringFunctions/arm_fir_f32.c ****          x6 = *(px++);
 556              		.loc 1 332 13 is_stmt 0 view .LVU244
 557 0260 12ED096A 		vldr.32	s12, [r2, #-36]
 558              	.LVL96:
 325:../../libdaisy/Drivers/CMSIS/DSP/Source/FilteringFunctions/arm_fir_f32.c ****          acc7 += x5 * c0;
 559              		.loc 1 325 15 view .LVU245
 560 0264 A5EE017A 		vfma.f32	s14, s10, s2
 561              	.LVL97:
 326:../../libdaisy/Drivers/CMSIS/DSP/Source/FilteringFunctions/arm_fir_f32.c **** 
 562              		.loc 1 326 10 is_stmt 1 view .LVU246
 326:../../libdaisy/Drivers/CMSIS/DSP/Source/FilteringFunctions/arm_fir_f32.c **** 
 563              		.loc 1 326 15 is_stmt 0 view .LVU247
 564 0268 E1EE257A 		vfma.f32	s15, s2, s11
 565              	.LVL98:
 329:../../libdaisy/Drivers/CMSIS/DSP/Source/FilteringFunctions/arm_fir_f32.c **** 
 566              		.loc 1 329 10 is_stmt 1 view .LVU248
 567              		.loc 1 332 10 view .LVU249
 333:../../libdaisy/Drivers/CMSIS/DSP/Source/FilteringFunctions/arm_fir_f32.c **** 
 334:../../libdaisy/Drivers/CMSIS/DSP/Source/FilteringFunctions/arm_fir_f32.c ****          /* Perform the multiply-accumulates */
 335:../../libdaisy/Drivers/CMSIS/DSP/Source/FilteringFunctions/arm_fir_f32.c ****          acc0 += x7 * c0;
 568              		.loc 1 335 10 view .LVU250
 336:../../libdaisy/Drivers/CMSIS/DSP/Source/FilteringFunctions/arm_fir_f32.c ****          acc1 += x0 * c0;
 569              		.loc 1 336 15 is_stmt 0 view .LVU251
 570 026c F0EE498A 		vmov.f32	s17, s18
 337:../../libdaisy/Drivers/CMSIS/DSP/Source/FilteringFunctions/arm_fir_f32.c ****          acc2 += x1 * c0;
 571              		.loc 1 337 15 view .LVU252
 572 0270 B0EE480A 		vmov.f32	s0, s16
 338:../../libdaisy/Drivers/CMSIS/DSP/Source/FilteringFunctions/arm_fir_f32.c ****          acc3 += x2 * c0;
 573              		.loc 1 338 15 view .LVU253
 574 0274 B0EE601A 		vmov.f32	s2, s1
 335:../../libdaisy/Drivers/CMSIS/DSP/Source/FilteringFunctions/arm_fir_f32.c ****          acc1 += x0 * c0;
 575              		.loc 1 335 15 view .LVU254
 576 0278 E2EE829A 		vfma.f32	s19, s5, s4
 577              	.LVL99:
 336:../../libdaisy/Drivers/CMSIS/DSP/Source/FilteringFunctions/arm_fir_f32.c ****          acc2 += x1 * c0;
 578              		.loc 1 336 10 is_stmt 1 view .LVU255
 336:../../libdaisy/Drivers/CMSIS/DSP/Source/FilteringFunctions/arm_fir_f32.c ****          acc2 += x1 * c0;
ARM GAS  /tmp/ccOYje0u.s 			page 21


 579              		.loc 1 336 15 is_stmt 0 view .LVU256
 580 027c E3EE028A 		vfma.f32	s17, s6, s4
 581              	.LVL100:
 337:../../libdaisy/Drivers/CMSIS/DSP/Source/FilteringFunctions/arm_fir_f32.c ****          acc3 += x2 * c0;
 582              		.loc 1 337 10 is_stmt 1 view .LVU257
 337:../../libdaisy/Drivers/CMSIS/DSP/Source/FilteringFunctions/arm_fir_f32.c ****          acc3 += x2 * c0;
 583              		.loc 1 337 15 is_stmt 0 view .LVU258
 584 0280 A4EE820A 		vfma.f32	s0, s9, s4
 585              	.LVL101:
 586              		.loc 1 338 10 is_stmt 1 view .LVU259
 587              		.loc 1 338 15 is_stmt 0 view .LVU260
 588 0284 A4EE021A 		vfma.f32	s2, s8, s4
 589              	.LVL102:
 339:../../libdaisy/Drivers/CMSIS/DSP/Source/FilteringFunctions/arm_fir_f32.c ****          acc4 += x3 * c0;
 590              		.loc 1 339 10 is_stmt 1 view .LVU261
 591              		.loc 1 339 15 is_stmt 0 view .LVU262
 592 0288 E3EE821A 		vfma.f32	s3, s7, s4
 593              	.LVL103:
 340:../../libdaisy/Drivers/CMSIS/DSP/Source/FilteringFunctions/arm_fir_f32.c ****          acc5 += x4 * c0;
 594              		.loc 1 340 10 is_stmt 1 view .LVU263
 595              		.loc 1 340 15 is_stmt 0 view .LVU264
 596 028c E5EE026A 		vfma.f32	s13, s10, s4
 597              	.LVL104:
 341:../../libdaisy/Drivers/CMSIS/DSP/Source/FilteringFunctions/arm_fir_f32.c ****          acc6 += x5 * c0;
 598              		.loc 1 341 10 is_stmt 1 view .LVU265
 599              		.loc 1 341 15 is_stmt 0 view .LVU266
 600 0290 A5EE827A 		vfma.f32	s14, s11, s4
 601              	.LVL105:
 342:../../libdaisy/Drivers/CMSIS/DSP/Source/FilteringFunctions/arm_fir_f32.c ****          acc7 += x6 * c0;
 602              		.loc 1 342 10 is_stmt 1 view .LVU267
 603              		.loc 1 342 15 is_stmt 0 view .LVU268
 604 0294 E2EE067A 		vfma.f32	s15, s4, s12
 605              	.LVL106:
 343:../../libdaisy/Drivers/CMSIS/DSP/Source/FilteringFunctions/arm_fir_f32.c **** 
 344:../../libdaisy/Drivers/CMSIS/DSP/Source/FilteringFunctions/arm_fir_f32.c ****          tapCnt--;
 606              		.loc 1 344 10 is_stmt 1 view .LVU269
 201:../../libdaisy/Drivers/CMSIS/DSP/Source/FilteringFunctions/arm_fir_f32.c ****       {
 607              		.loc 1 201 13 view .LVU270
 608 0298 7FF437AF 		bne	.L4
 609 029c 0BEB0802 		add	r2, fp, r8
 329:../../libdaisy/Drivers/CMSIS/DSP/Source/FilteringFunctions/arm_fir_f32.c **** 
 610              		.loc 1 329 19 is_stmt 0 view .LVU271
 611 02a0 CB46     		mov	fp, r9
 612              	.LVL107:
 613              	.L3:
 345:../../libdaisy/Drivers/CMSIS/DSP/Source/FilteringFunctions/arm_fir_f32.c ****       }
 346:../../libdaisy/Drivers/CMSIS/DSP/Source/FilteringFunctions/arm_fir_f32.c **** 
 347:../../libdaisy/Drivers/CMSIS/DSP/Source/FilteringFunctions/arm_fir_f32.c ****       /* If the filter length is not a multiple of 8, compute the remaining filter taps */
 348:../../libdaisy/Drivers/CMSIS/DSP/Source/FilteringFunctions/arm_fir_f32.c ****       tapCnt = numTaps % 0x8u;
 614              		.loc 1 348 7 is_stmt 1 view .LVU272
 349:../../libdaisy/Drivers/CMSIS/DSP/Source/FilteringFunctions/arm_fir_f32.c **** 
 350:../../libdaisy/Drivers/CMSIS/DSP/Source/FilteringFunctions/arm_fir_f32.c ****       while (tapCnt > 0u)
 615              		.loc 1 350 7 view .LVU273
 616              		.loc 1 350 13 view .LVU274
 617 02a2 20B3     		cbz	r0, .L5
 618              		.loc 1 350 13 is_stmt 0 view .LVU275
 619 02a4 0346     		mov	r3, r0
ARM GAS  /tmp/ccOYje0u.s 			page 22


 620              	.LVL108:
 621              	.L6:
 351:../../libdaisy/Drivers/CMSIS/DSP/Source/FilteringFunctions/arm_fir_f32.c ****       {
 352:../../libdaisy/Drivers/CMSIS/DSP/Source/FilteringFunctions/arm_fir_f32.c ****          /* Read coefficients */
 353:../../libdaisy/Drivers/CMSIS/DSP/Source/FilteringFunctions/arm_fir_f32.c ****          c0 = *(pb++);
 622              		.loc 1 353 10 is_stmt 1 view .LVU276
 623              		.loc 1 353 13 is_stmt 0 view .LVU277
 624 02a6 FBEC012A 		vldmia.32	fp!, {s5}
 625              	.LVL109:
 354:../../libdaisy/Drivers/CMSIS/DSP/Source/FilteringFunctions/arm_fir_f32.c **** 
 355:../../libdaisy/Drivers/CMSIS/DSP/Source/FilteringFunctions/arm_fir_f32.c ****          /* Fetch 1 state variable */
 356:../../libdaisy/Drivers/CMSIS/DSP/Source/FilteringFunctions/arm_fir_f32.c ****          x7 = *(px++);
 626              		.loc 1 356 10 is_stmt 1 view .LVU278
 350:../../libdaisy/Drivers/CMSIS/DSP/Source/FilteringFunctions/arm_fir_f32.c ****       {
 627              		.loc 1 350 13 is_stmt 0 view .LVU279
 628 02aa 013B     		subs	r3, r3, #1
 629              	.LVL110:
 630              		.loc 1 356 13 view .LVU280
 631 02ac B2EC012A 		vldmia.32	r2!, {s4}
 632              	.LVL111:
 357:../../libdaisy/Drivers/CMSIS/DSP/Source/FilteringFunctions/arm_fir_f32.c **** 
 358:../../libdaisy/Drivers/CMSIS/DSP/Source/FilteringFunctions/arm_fir_f32.c ****          /* Perform the multiply-accumulates */
 359:../../libdaisy/Drivers/CMSIS/DSP/Source/FilteringFunctions/arm_fir_f32.c ****          acc0 += x0 * c0;
 633              		.loc 1 359 10 is_stmt 1 view .LVU281
 634              		.loc 1 359 15 is_stmt 0 view .LVU282
 635 02b0 E2EE839A 		vfma.f32	s19, s5, s6
 636              	.LVL112:
 360:../../libdaisy/Drivers/CMSIS/DSP/Source/FilteringFunctions/arm_fir_f32.c ****          acc1 += x1 * c0;
 637              		.loc 1 360 10 is_stmt 1 view .LVU283
 638              		.loc 1 360 15 is_stmt 0 view .LVU284
 639 02b4 E2EEA48A 		vfma.f32	s17, s5, s9
 640              	.LVL113:
 361:../../libdaisy/Drivers/CMSIS/DSP/Source/FilteringFunctions/arm_fir_f32.c ****          acc2 += x2 * c0;
 641              		.loc 1 361 10 is_stmt 1 view .LVU285
 642              		.loc 1 361 15 is_stmt 0 view .LVU286
 643 02b8 A2EE840A 		vfma.f32	s0, s5, s8
 644              	.LVL114:
 362:../../libdaisy/Drivers/CMSIS/DSP/Source/FilteringFunctions/arm_fir_f32.c ****          acc3 += x3 * c0;
 645              		.loc 1 362 10 is_stmt 1 view .LVU287
 646              		.loc 1 362 15 is_stmt 0 view .LVU288
 647 02bc A2EEA31A 		vfma.f32	s2, s5, s7
 648              	.LVL115:
 363:../../libdaisy/Drivers/CMSIS/DSP/Source/FilteringFunctions/arm_fir_f32.c ****          acc4 += x4 * c0;
 649              		.loc 1 363 10 is_stmt 1 view .LVU289
 650              		.loc 1 363 15 is_stmt 0 view .LVU290
 651 02c0 E2EE851A 		vfma.f32	s3, s5, s10
 652              	.LVL116:
 364:../../libdaisy/Drivers/CMSIS/DSP/Source/FilteringFunctions/arm_fir_f32.c ****          acc5 += x5 * c0;
 653              		.loc 1 364 10 is_stmt 1 view .LVU291
 654              		.loc 1 364 15 is_stmt 0 view .LVU292
 655 02c4 E2EEA56A 		vfma.f32	s13, s5, s11
 656              	.LVL117:
 365:../../libdaisy/Drivers/CMSIS/DSP/Source/FilteringFunctions/arm_fir_f32.c ****          acc6 += x6 * c0;
 657              		.loc 1 365 10 is_stmt 1 view .LVU293
 658              		.loc 1 365 15 is_stmt 0 view .LVU294
 659 02c8 A2EE867A 		vfma.f32	s14, s5, s12
 660              	.LVL118:
ARM GAS  /tmp/ccOYje0u.s 			page 23


 366:../../libdaisy/Drivers/CMSIS/DSP/Source/FilteringFunctions/arm_fir_f32.c ****          acc7 += x7 * c0;
 661              		.loc 1 366 10 is_stmt 1 view .LVU295
 662 02cc B0EE643A 		vmov.f32	s6, s9
 663              	.LVL119:
 664              		.loc 1 366 15 is_stmt 0 view .LVU296
 665 02d0 E2EE827A 		vfma.f32	s15, s5, s4
 666              	.LVL120:
 667              		.loc 1 366 15 view .LVU297
 668 02d4 F0EE444A 		vmov.f32	s9, s8
 669              	.LVL121:
 670              		.loc 1 366 15 view .LVU298
 671 02d8 B0EE634A 		vmov.f32	s8, s7
 672              	.LVL122:
 673              		.loc 1 366 15 view .LVU299
 674 02dc F0EE453A 		vmov.f32	s7, s10
 675              	.LVL123:
 676              		.loc 1 366 15 view .LVU300
 677 02e0 B0EE655A 		vmov.f32	s10, s11
 678              	.LVL124:
 679              		.loc 1 366 15 view .LVU301
 680 02e4 F0EE465A 		vmov.f32	s11, s12
 681              	.LVL125:
 367:../../libdaisy/Drivers/CMSIS/DSP/Source/FilteringFunctions/arm_fir_f32.c **** 
 368:../../libdaisy/Drivers/CMSIS/DSP/Source/FilteringFunctions/arm_fir_f32.c ****          /* Reuse the present sample states for next sample */
 369:../../libdaisy/Drivers/CMSIS/DSP/Source/FilteringFunctions/arm_fir_f32.c ****          x0 = x1;
 370:../../libdaisy/Drivers/CMSIS/DSP/Source/FilteringFunctions/arm_fir_f32.c ****          x1 = x2;
 371:../../libdaisy/Drivers/CMSIS/DSP/Source/FilteringFunctions/arm_fir_f32.c ****          x2 = x3;
 372:../../libdaisy/Drivers/CMSIS/DSP/Source/FilteringFunctions/arm_fir_f32.c ****          x3 = x4;
 373:../../libdaisy/Drivers/CMSIS/DSP/Source/FilteringFunctions/arm_fir_f32.c ****          x4 = x5;
 374:../../libdaisy/Drivers/CMSIS/DSP/Source/FilteringFunctions/arm_fir_f32.c ****          x5 = x6;
 375:../../libdaisy/Drivers/CMSIS/DSP/Source/FilteringFunctions/arm_fir_f32.c ****          x6 = x7;
 682              		.loc 1 375 13 view .LVU302
 683 02e8 B0EE426A 		vmov.f32	s12, s4
 684              	.LVL126:
 369:../../libdaisy/Drivers/CMSIS/DSP/Source/FilteringFunctions/arm_fir_f32.c ****          x1 = x2;
 685              		.loc 1 369 10 is_stmt 1 view .LVU303
 370:../../libdaisy/Drivers/CMSIS/DSP/Source/FilteringFunctions/arm_fir_f32.c ****          x2 = x3;
 686              		.loc 1 370 10 view .LVU304
 371:../../libdaisy/Drivers/CMSIS/DSP/Source/FilteringFunctions/arm_fir_f32.c ****          x3 = x4;
 687              		.loc 1 371 10 view .LVU305
 372:../../libdaisy/Drivers/CMSIS/DSP/Source/FilteringFunctions/arm_fir_f32.c ****          x4 = x5;
 688              		.loc 1 372 10 view .LVU306
 373:../../libdaisy/Drivers/CMSIS/DSP/Source/FilteringFunctions/arm_fir_f32.c ****          x5 = x6;
 689              		.loc 1 373 10 view .LVU307
 374:../../libdaisy/Drivers/CMSIS/DSP/Source/FilteringFunctions/arm_fir_f32.c ****          x6 = x7;
 690              		.loc 1 374 10 view .LVU308
 691              		.loc 1 375 10 view .LVU309
 376:../../libdaisy/Drivers/CMSIS/DSP/Source/FilteringFunctions/arm_fir_f32.c **** 
 377:../../libdaisy/Drivers/CMSIS/DSP/Source/FilteringFunctions/arm_fir_f32.c ****          /* Decrement the loop counter */
 378:../../libdaisy/Drivers/CMSIS/DSP/Source/FilteringFunctions/arm_fir_f32.c ****          tapCnt--;
 692              		.loc 1 378 10 view .LVU310
 350:../../libdaisy/Drivers/CMSIS/DSP/Source/FilteringFunctions/arm_fir_f32.c ****       {
 693              		.loc 1 350 13 view .LVU311
 694 02ec DBD1     		bne	.L6
 695              	.LVL127:
 696              	.L5:
 379:../../libdaisy/Drivers/CMSIS/DSP/Source/FilteringFunctions/arm_fir_f32.c ****       }
ARM GAS  /tmp/ccOYje0u.s 			page 24


 380:../../libdaisy/Drivers/CMSIS/DSP/Source/FilteringFunctions/arm_fir_f32.c **** 
 381:../../libdaisy/Drivers/CMSIS/DSP/Source/FilteringFunctions/arm_fir_f32.c ****       /* Advance the state pointer by 8 to process the next group of 8 samples */
 382:../../libdaisy/Drivers/CMSIS/DSP/Source/FilteringFunctions/arm_fir_f32.c ****       pState = pState + 8;
 697              		.loc 1 382 7 view .LVU312
 383:../../libdaisy/Drivers/CMSIS/DSP/Source/FilteringFunctions/arm_fir_f32.c **** 
 384:../../libdaisy/Drivers/CMSIS/DSP/Source/FilteringFunctions/arm_fir_f32.c ****       /* The results in the 8 accumulators, store in the destination buffer. */
 385:../../libdaisy/Drivers/CMSIS/DSP/Source/FilteringFunctions/arm_fir_f32.c ****       *pDst++ = acc0;
 698              		.loc 1 385 7 view .LVU313
 155:../../libdaisy/Drivers/CMSIS/DSP/Source/FilteringFunctions/arm_fir_f32.c ****    {
 699              		.loc 1 155 10 is_stmt 0 view .LVU314
 700 02ee BCF1010C 		subs	ip, ip, #1
 701              	.LVL128:
 702              		.loc 1 385 15 view .LVU315
 703 02f2 44ED089A 		vstr.32	s19, [r4, #-32]
 386:../../libdaisy/Drivers/CMSIS/DSP/Source/FilteringFunctions/arm_fir_f32.c ****       *pDst++ = acc1;
 704              		.loc 1 386 7 is_stmt 1 view .LVU316
 705              		.loc 1 386 15 is_stmt 0 view .LVU317
 706 02f6 44ED078A 		vstr.32	s17, [r4, #-28]
 387:../../libdaisy/Drivers/CMSIS/DSP/Source/FilteringFunctions/arm_fir_f32.c ****       *pDst++ = acc2;
 707              		.loc 1 387 7 is_stmt 1 view .LVU318
 708              		.loc 1 387 7 is_stmt 0 view .LVU319
 709 02fa 06F12006 		add	r6, r6, #32
 710              	.LVL129:
 711              		.loc 1 387 15 view .LVU320
 712 02fe 04ED060A 		vstr.32	s0, [r4, #-24]
 388:../../libdaisy/Drivers/CMSIS/DSP/Source/FilteringFunctions/arm_fir_f32.c ****       *pDst++ = acc3;
 713              		.loc 1 388 7 is_stmt 1 view .LVU321
 714              		.loc 1 388 7 is_stmt 0 view .LVU322
 715 0302 05F12005 		add	r5, r5, #32
 716              		.loc 1 388 15 view .LVU323
 717 0306 04ED051A 		vstr.32	s2, [r4, #-20]
 389:../../libdaisy/Drivers/CMSIS/DSP/Source/FilteringFunctions/arm_fir_f32.c ****       *pDst++ = acc4;
 718              		.loc 1 389 7 is_stmt 1 view .LVU324
 719              		.loc 1 389 7 is_stmt 0 view .LVU325
 720 030a 8B46     		mov	fp, r1
 721              	.LVL130:
 722              		.loc 1 389 15 view .LVU326
 723 030c 44ED041A 		vstr.32	s3, [r4, #-16]
 390:../../libdaisy/Drivers/CMSIS/DSP/Source/FilteringFunctions/arm_fir_f32.c ****       *pDst++ = acc5;
 724              		.loc 1 390 7 is_stmt 1 view .LVU327
 725              		.loc 1 390 7 is_stmt 0 view .LVU328
 726 0310 04F12004 		add	r4, r4, #32
 727              		.loc 1 390 15 view .LVU329
 728 0314 44ED0B6A 		vstr.32	s13, [r4, #-44]
 391:../../libdaisy/Drivers/CMSIS/DSP/Source/FilteringFunctions/arm_fir_f32.c ****       *pDst++ = acc6;
 729              		.loc 1 391 7 is_stmt 1 view .LVU330
 730              		.loc 1 391 15 is_stmt 0 view .LVU331
 731 0318 04ED0A7A 		vstr.32	s14, [r4, #-40]
 392:../../libdaisy/Drivers/CMSIS/DSP/Source/FilteringFunctions/arm_fir_f32.c ****       *pDst++ = acc7;
 732              		.loc 1 392 7 is_stmt 1 view .LVU332
 733              		.loc 1 392 15 is_stmt 0 view .LVU333
 734 031c 44ED097A 		vstr.32	s15, [r4, #-36]
 393:../../libdaisy/Drivers/CMSIS/DSP/Source/FilteringFunctions/arm_fir_f32.c **** 
 394:../../libdaisy/Drivers/CMSIS/DSP/Source/FilteringFunctions/arm_fir_f32.c ****       blkCnt--;
 735              		.loc 1 394 7 is_stmt 1 view .LVU334
 736              	.LVL131:
 155:../../libdaisy/Drivers/CMSIS/DSP/Source/FilteringFunctions/arm_fir_f32.c ****    {
ARM GAS  /tmp/ccOYje0u.s 			page 25


 737              		.loc 1 155 10 view .LVU335
 738 0320 7FF4ACAE 		bne	.L7
 155:../../libdaisy/Drivers/CMSIS/DSP/Source/FilteringFunctions/arm_fir_f32.c ****    {
 739              		.loc 1 155 10 is_stmt 0 view .LVU336
 740 0324 039B     		ldr	r3, [sp, #12]
 741 0326 0298     		ldr	r0, [sp, #8]
 742 0328 DDF810A0 		ldr	r10, [sp, #16]
 743 032c 00EB4310 		add	r0, r0, r3, lsl #5
 744 0330 DDF82480 		ldr	r8, [sp, #36]
 745 0334 DDE90612 		ldrd	r1, r2, [sp, #24]
 746              	.LVL132:
 155:../../libdaisy/Drivers/CMSIS/DSP/Source/FilteringFunctions/arm_fir_f32.c ****    {
 747              		.loc 1 155 10 view .LVU337
 748 0338 0290     		str	r0, [sp, #8]
 749 033a 0198     		ldr	r0, [sp, #4]
 750 033c 01EB4311 		add	r1, r1, r3, lsl #5
 751 0340 02EB4312 		add	r2, r2, r3, lsl #5
 752 0344 00EB4315 		add	r5, r0, r3, lsl #5
 753              	.LVL133:
 754              	.L2:
 395:../../libdaisy/Drivers/CMSIS/DSP/Source/FilteringFunctions/arm_fir_f32.c ****    }
 396:../../libdaisy/Drivers/CMSIS/DSP/Source/FilteringFunctions/arm_fir_f32.c **** 
 397:../../libdaisy/Drivers/CMSIS/DSP/Source/FilteringFunctions/arm_fir_f32.c ****    /* If the blockSize is not a multiple of 8, compute any remaining output samples here.
 398:../../libdaisy/Drivers/CMSIS/DSP/Source/FilteringFunctions/arm_fir_f32.c ****    ** No loop unrolling is used. */
 399:../../libdaisy/Drivers/CMSIS/DSP/Source/FilteringFunctions/arm_fir_f32.c ****    blkCnt = blockSize % 0x8u;
 755              		.loc 1 399 4 is_stmt 1 view .LVU338
 400:../../libdaisy/Drivers/CMSIS/DSP/Source/FilteringFunctions/arm_fir_f32.c **** 
 401:../../libdaisy/Drivers/CMSIS/DSP/Source/FilteringFunctions/arm_fir_f32.c ****    while (blkCnt > 0u)
 756              		.loc 1 401 4 view .LVU339
 757              		.loc 1 401 10 view .LVU340
 758 0348 059B     		ldr	r3, [sp, #20]
 759 034a 13F00707 		ands	r7, r3, #7
 760              	.LVL134:
 761              		.loc 1 401 10 is_stmt 0 view .LVU341
 762 034e 1ED0     		beq	.L8
 763 0350 4FEA870E 		lsl	lr, r7, #2
 764 0354 DDF808C0 		ldr	ip, [sp, #8]
 765 0358 01EB8707 		add	r7, r1, r7, lsl #2
 766              	.LVL135:
 767              		.loc 1 401 10 view .LVU342
 768 035c 2E46     		mov	r6, r5
 769              	.LVL136:
 770              	.L10:
 402:../../libdaisy/Drivers/CMSIS/DSP/Source/FilteringFunctions/arm_fir_f32.c ****    {
 403:../../libdaisy/Drivers/CMSIS/DSP/Source/FilteringFunctions/arm_fir_f32.c ****       /* Copy one sample at a time into state buffer */
 404:../../libdaisy/Drivers/CMSIS/DSP/Source/FilteringFunctions/arm_fir_f32.c ****       *pStateCurnt++ = *pSrc++;
 771              		.loc 1 404 7 is_stmt 1 view .LVU343
 772              		.loc 1 404 24 is_stmt 0 view .LVU344
 773 035e 51F8049B 		ldr	r9, [r1], #4	@ float
 774              	.LVL137:
 136:../../libdaisy/Drivers/CMSIS/DSP/Source/FilteringFunctions/arm_fir_f32.c ****    uint32_t i, tapCnt, blkCnt;                    /* Loop counters */
 775              		.loc 1 136 13 view .LVU345
 776 0362 4346     		mov	r3, r8
 405:../../libdaisy/Drivers/CMSIS/DSP/Source/FilteringFunctions/arm_fir_f32.c **** 
 406:../../libdaisy/Drivers/CMSIS/DSP/Source/FilteringFunctions/arm_fir_f32.c ****       /* Set the accumulator to zero */
 407:../../libdaisy/Drivers/CMSIS/DSP/Source/FilteringFunctions/arm_fir_f32.c ****       acc0 = 0.0f;
 408:../../libdaisy/Drivers/CMSIS/DSP/Source/FilteringFunctions/arm_fir_f32.c **** 
ARM GAS  /tmp/ccOYje0u.s 			page 26


 409:../../libdaisy/Drivers/CMSIS/DSP/Source/FilteringFunctions/arm_fir_f32.c ****       /* Initialize state pointer */
 410:../../libdaisy/Drivers/CMSIS/DSP/Source/FilteringFunctions/arm_fir_f32.c ****       px = pState;
 411:../../libdaisy/Drivers/CMSIS/DSP/Source/FilteringFunctions/arm_fir_f32.c **** 
 412:../../libdaisy/Drivers/CMSIS/DSP/Source/FilteringFunctions/arm_fir_f32.c ****       /* Initialize Coefficient pointer */
 413:../../libdaisy/Drivers/CMSIS/DSP/Source/FilteringFunctions/arm_fir_f32.c ****       pb = (pCoeffs);
 777              		.loc 1 413 10 view .LVU346
 778 0364 5446     		mov	r4, r10
 407:../../libdaisy/Drivers/CMSIS/DSP/Source/FilteringFunctions/arm_fir_f32.c **** 
 779              		.loc 1 407 12 view .LVU347
 780 0366 DFED317A 		vldr.32	s15, .L36
 404:../../libdaisy/Drivers/CMSIS/DSP/Source/FilteringFunctions/arm_fir_f32.c **** 
 781              		.loc 1 404 22 view .LVU348
 782 036a 3046     		mov	r0, r6
 783 036c 4CF8049B 		str	r9, [ip], #4	@ float
 407:../../libdaisy/Drivers/CMSIS/DSP/Source/FilteringFunctions/arm_fir_f32.c **** 
 784              		.loc 1 407 7 is_stmt 1 view .LVU349
 785              	.LVL138:
 410:../../libdaisy/Drivers/CMSIS/DSP/Source/FilteringFunctions/arm_fir_f32.c **** 
 786              		.loc 1 410 7 view .LVU350
 787              		.loc 1 413 7 view .LVU351
 414:../../libdaisy/Drivers/CMSIS/DSP/Source/FilteringFunctions/arm_fir_f32.c **** 
 415:../../libdaisy/Drivers/CMSIS/DSP/Source/FilteringFunctions/arm_fir_f32.c ****       i = numTaps;
 788              		.loc 1 415 7 view .LVU352
 789              	.L9:
 416:../../libdaisy/Drivers/CMSIS/DSP/Source/FilteringFunctions/arm_fir_f32.c **** 
 417:../../libdaisy/Drivers/CMSIS/DSP/Source/FilteringFunctions/arm_fir_f32.c ****       /* Perform the multiply-accumulates */
 418:../../libdaisy/Drivers/CMSIS/DSP/Source/FilteringFunctions/arm_fir_f32.c ****       do
 790              		.loc 1 418 7 discriminator 1 view .LVU353
 419:../../libdaisy/Drivers/CMSIS/DSP/Source/FilteringFunctions/arm_fir_f32.c ****       {
 420:../../libdaisy/Drivers/CMSIS/DSP/Source/FilteringFunctions/arm_fir_f32.c ****          acc0 += *px++ * *pb++;
 791              		.loc 1 420 10 discriminator 1 view .LVU354
 792              		.loc 1 420 15 is_stmt 0 discriminator 1 view .LVU355
 793 0370 F0EC016A 		vldmia.32	r0!, {s13}
 794              	.LVL139:
 421:../../libdaisy/Drivers/CMSIS/DSP/Source/FilteringFunctions/arm_fir_f32.c ****          i--;
 422:../../libdaisy/Drivers/CMSIS/DSP/Source/FilteringFunctions/arm_fir_f32.c **** 
 423:../../libdaisy/Drivers/CMSIS/DSP/Source/FilteringFunctions/arm_fir_f32.c ****       } while (i > 0u);
 795              		.loc 1 423 7 discriminator 1 view .LVU356
 796 0374 013B     		subs	r3, r3, #1
 797              	.LVL140:
 420:../../libdaisy/Drivers/CMSIS/DSP/Source/FilteringFunctions/arm_fir_f32.c ****          i--;
 798              		.loc 1 420 15 discriminator 1 view .LVU357
 799 0376 B4EC017A 		vldmia.32	r4!, {s14}
 800              	.LVL141:
 420:../../libdaisy/Drivers/CMSIS/DSP/Source/FilteringFunctions/arm_fir_f32.c ****          i--;
 801              		.loc 1 420 15 discriminator 1 view .LVU358
 802 037a E6EE877A 		vfma.f32	s15, s13, s14
 803              	.LVL142:
 421:../../libdaisy/Drivers/CMSIS/DSP/Source/FilteringFunctions/arm_fir_f32.c ****          i--;
 804              		.loc 1 421 10 is_stmt 1 discriminator 1 view .LVU359
 805              		.loc 1 423 15 discriminator 1 view .LVU360
 806              		.loc 1 423 7 is_stmt 0 discriminator 1 view .LVU361
 807 037e F7D1     		bne	.L9
 424:../../libdaisy/Drivers/CMSIS/DSP/Source/FilteringFunctions/arm_fir_f32.c **** 
 425:../../libdaisy/Drivers/CMSIS/DSP/Source/FilteringFunctions/arm_fir_f32.c ****       /* The result is store in the destination buffer. */
 426:../../libdaisy/Drivers/CMSIS/DSP/Source/FilteringFunctions/arm_fir_f32.c ****       *pDst++ = acc0;
 808              		.loc 1 426 7 is_stmt 1 view .LVU362
ARM GAS  /tmp/ccOYje0u.s 			page 27


 809              	.LVL143:
 401:../../libdaisy/Drivers/CMSIS/DSP/Source/FilteringFunctions/arm_fir_f32.c ****    {
 810              		.loc 1 401 10 is_stmt 0 view .LVU363
 811 0380 B942     		cmp	r1, r7
 427:../../libdaisy/Drivers/CMSIS/DSP/Source/FilteringFunctions/arm_fir_f32.c **** 
 428:../../libdaisy/Drivers/CMSIS/DSP/Source/FilteringFunctions/arm_fir_f32.c ****       /* Advance state pointer by 1 for the next sample */
 429:../../libdaisy/Drivers/CMSIS/DSP/Source/FilteringFunctions/arm_fir_f32.c ****       pState = pState + 1;
 812              		.loc 1 429 14 view .LVU364
 813 0382 06F10406 		add	r6, r6, #4
 814              	.LVL144:
 426:../../libdaisy/Drivers/CMSIS/DSP/Source/FilteringFunctions/arm_fir_f32.c **** 
 815              		.loc 1 426 15 view .LVU365
 816 0386 E2EC017A 		vstmia.32	r2!, {s15}
 817              	.LVL145:
 818              		.loc 1 429 7 is_stmt 1 view .LVU366
 430:../../libdaisy/Drivers/CMSIS/DSP/Source/FilteringFunctions/arm_fir_f32.c **** 
 431:../../libdaisy/Drivers/CMSIS/DSP/Source/FilteringFunctions/arm_fir_f32.c ****       blkCnt--;
 819              		.loc 1 431 7 view .LVU367
 401:../../libdaisy/Drivers/CMSIS/DSP/Source/FilteringFunctions/arm_fir_f32.c ****    {
 820              		.loc 1 401 10 view .LVU368
 821 038a E8D1     		bne	.L10
 822 038c 7544     		add	r5, r5, lr
 823              	.LVL146:
 824              	.L8:
 432:../../libdaisy/Drivers/CMSIS/DSP/Source/FilteringFunctions/arm_fir_f32.c ****    }
 433:../../libdaisy/Drivers/CMSIS/DSP/Source/FilteringFunctions/arm_fir_f32.c **** 
 434:../../libdaisy/Drivers/CMSIS/DSP/Source/FilteringFunctions/arm_fir_f32.c ****    /* Processing is complete.
 435:../../libdaisy/Drivers/CMSIS/DSP/Source/FilteringFunctions/arm_fir_f32.c ****    ** Now copy the last numTaps - 1 samples to the start of the state buffer.
 436:../../libdaisy/Drivers/CMSIS/DSP/Source/FilteringFunctions/arm_fir_f32.c ****    ** This prepares the state buffer for the next function call. */
 437:../../libdaisy/Drivers/CMSIS/DSP/Source/FilteringFunctions/arm_fir_f32.c **** 
 438:../../libdaisy/Drivers/CMSIS/DSP/Source/FilteringFunctions/arm_fir_f32.c ****    /* Points to the start of the state buffer */
 439:../../libdaisy/Drivers/CMSIS/DSP/Source/FilteringFunctions/arm_fir_f32.c ****    pStateCurnt = S->pState;
 825              		.loc 1 439 4 view .LVU369
 440:../../libdaisy/Drivers/CMSIS/DSP/Source/FilteringFunctions/arm_fir_f32.c **** 
 441:../../libdaisy/Drivers/CMSIS/DSP/Source/FilteringFunctions/arm_fir_f32.c ****    tapCnt = (numTaps - 1u) >> 2u;
 826              		.loc 1 441 4 view .LVU370
 827              		.loc 1 441 22 is_stmt 0 view .LVU371
 828 038e 08F1FF38 		add	r8, r8, #-1
 829              	.LVL147:
 442:../../libdaisy/Drivers/CMSIS/DSP/Source/FilteringFunctions/arm_fir_f32.c **** 
 443:../../libdaisy/Drivers/CMSIS/DSP/Source/FilteringFunctions/arm_fir_f32.c ****    /* copy data */
 444:../../libdaisy/Drivers/CMSIS/DSP/Source/FilteringFunctions/arm_fir_f32.c ****    while (tapCnt > 0u)
 830              		.loc 1 444 4 is_stmt 1 view .LVU372
 831              		.loc 1 444 10 view .LVU373
 832 0392 5FEA9804 		lsrs	r4, r8, #2
 833              	.LVL148:
 834              		.loc 1 444 10 is_stmt 0 view .LVU374
 835 0396 20D0     		beq	.L11
 836 0398 019B     		ldr	r3, [sp, #4]
 837 039a 05F11002 		add	r2, r5, #16
 838              	.LVL149:
 839              		.loc 1 444 10 view .LVU375
 840 039e 2146     		mov	r1, r4
 841              	.LVL150:
 842              		.loc 1 444 10 view .LVU376
 843 03a0 1033     		adds	r3, r3, #16
 844              	.LVL151:
ARM GAS  /tmp/ccOYje0u.s 			page 28


 845              	.L12:
 445:../../libdaisy/Drivers/CMSIS/DSP/Source/FilteringFunctions/arm_fir_f32.c ****    {
 446:../../libdaisy/Drivers/CMSIS/DSP/Source/FilteringFunctions/arm_fir_f32.c ****       *pStateCurnt++ = *pState++;
 846              		.loc 1 446 7 is_stmt 1 view .LVU377
 847              		.loc 1 446 24 is_stmt 0 view .LVU378
 848 03a2 52F8100C 		ldr	r0, [r2, #-16]	@ float
 444:../../libdaisy/Drivers/CMSIS/DSP/Source/FilteringFunctions/arm_fir_f32.c ****    {
 849              		.loc 1 444 10 view .LVU379
 850 03a6 0139     		subs	r1, r1, #1
 851              	.LVL152:
 444:../../libdaisy/Drivers/CMSIS/DSP/Source/FilteringFunctions/arm_fir_f32.c ****    {
 852              		.loc 1 444 10 view .LVU380
 853 03a8 02F11002 		add	r2, r2, #16
 854              	.LVL153:
 444:../../libdaisy/Drivers/CMSIS/DSP/Source/FilteringFunctions/arm_fir_f32.c ****    {
 855              		.loc 1 444 10 view .LVU381
 856 03ac 03F11003 		add	r3, r3, #16
 857              		.loc 1 446 22 view .LVU382
 858 03b0 43F8200C 		str	r0, [r3, #-32]	@ float
 447:../../libdaisy/Drivers/CMSIS/DSP/Source/FilteringFunctions/arm_fir_f32.c ****       *pStateCurnt++ = *pState++;
 859              		.loc 1 447 7 is_stmt 1 view .LVU383
 860              	.LVL154:
 861              		.loc 1 447 24 is_stmt 0 view .LVU384
 862 03b4 52F81C0C 		ldr	r0, [r2, #-28]	@ float
 863              		.loc 1 447 22 view .LVU385
 864 03b8 43F81C0C 		str	r0, [r3, #-28]	@ float
 448:../../libdaisy/Drivers/CMSIS/DSP/Source/FilteringFunctions/arm_fir_f32.c ****       *pStateCurnt++ = *pState++;
 865              		.loc 1 448 7 is_stmt 1 view .LVU386
 866              	.LVL155:
 867              		.loc 1 448 24 is_stmt 0 view .LVU387
 868 03bc 52F8180C 		ldr	r0, [r2, #-24]	@ float
 869              		.loc 1 448 22 view .LVU388
 870 03c0 43F8180C 		str	r0, [r3, #-24]	@ float
 449:../../libdaisy/Drivers/CMSIS/DSP/Source/FilteringFunctions/arm_fir_f32.c ****       *pStateCurnt++ = *pState++;
 871              		.loc 1 449 7 is_stmt 1 view .LVU389
 872              	.LVL156:
 873              		.loc 1 449 24 is_stmt 0 view .LVU390
 874 03c4 52F8140C 		ldr	r0, [r2, #-20]	@ float
 875              		.loc 1 449 22 view .LVU391
 876 03c8 43F8140C 		str	r0, [r3, #-20]	@ float
 450:../../libdaisy/Drivers/CMSIS/DSP/Source/FilteringFunctions/arm_fir_f32.c **** 
 451:../../libdaisy/Drivers/CMSIS/DSP/Source/FilteringFunctions/arm_fir_f32.c ****       /* Decrement the loop counter */
 452:../../libdaisy/Drivers/CMSIS/DSP/Source/FilteringFunctions/arm_fir_f32.c ****       tapCnt--;
 877              		.loc 1 452 7 is_stmt 1 view .LVU392
 878              	.LVL157:
 444:../../libdaisy/Drivers/CMSIS/DSP/Source/FilteringFunctions/arm_fir_f32.c ****    {
 879              		.loc 1 444 10 view .LVU393
 880 03cc E9D1     		bne	.L12
 881 03ce 019B     		ldr	r3, [sp, #4]
 882 03d0 05EB0415 		add	r5, r5, r4, lsl #4
 883 03d4 03EB0413 		add	r3, r3, r4, lsl #4
 884 03d8 0193     		str	r3, [sp, #4]
 885              	.L11:
 453:../../libdaisy/Drivers/CMSIS/DSP/Source/FilteringFunctions/arm_fir_f32.c ****    }
 454:../../libdaisy/Drivers/CMSIS/DSP/Source/FilteringFunctions/arm_fir_f32.c **** 
 455:../../libdaisy/Drivers/CMSIS/DSP/Source/FilteringFunctions/arm_fir_f32.c ****    /* Calculate remaining number of copies */
 456:../../libdaisy/Drivers/CMSIS/DSP/Source/FilteringFunctions/arm_fir_f32.c ****    tapCnt = (numTaps - 1u) % 0x4u;
ARM GAS  /tmp/ccOYje0u.s 			page 29


 886              		.loc 1 456 4 view .LVU394
 887              	.LVL158:
 457:../../libdaisy/Drivers/CMSIS/DSP/Source/FilteringFunctions/arm_fir_f32.c **** 
 458:../../libdaisy/Drivers/CMSIS/DSP/Source/FilteringFunctions/arm_fir_f32.c ****    /* Copy the remaining q31_t data */
 459:../../libdaisy/Drivers/CMSIS/DSP/Source/FilteringFunctions/arm_fir_f32.c ****    while (tapCnt > 0u)
 888              		.loc 1 459 4 view .LVU395
 889              		.loc 1 459 10 view .LVU396
 890 03da 18F00308 		ands	r8, r8, #3
 891              	.LVL159:
 892              		.loc 1 459 10 is_stmt 0 view .LVU397
 893 03de 08D0     		beq	.L1
 894 03e0 019A     		ldr	r2, [sp, #4]
 895 03e2 05EB8803 		add	r3, r5, r8, lsl #2
 896              	.LVL160:
 897              	.L14:
 460:../../libdaisy/Drivers/CMSIS/DSP/Source/FilteringFunctions/arm_fir_f32.c ****    {
 461:../../libdaisy/Drivers/CMSIS/DSP/Source/FilteringFunctions/arm_fir_f32.c ****       *pStateCurnt++ = *pState++;
 898              		.loc 1 461 7 is_stmt 1 view .LVU398
 899              		.loc 1 461 24 is_stmt 0 view .LVU399
 900 03e6 55F8041B 		ldr	r1, [r5], #4	@ float
 901              	.LVL161:
 459:../../libdaisy/Drivers/CMSIS/DSP/Source/FilteringFunctions/arm_fir_f32.c ****    {
 902              		.loc 1 459 10 view .LVU400
 903 03ea 9D42     		cmp	r5, r3
 904              		.loc 1 461 22 view .LVU401
 905 03ec 42F8041B 		str	r1, [r2], #4	@ float
 462:../../libdaisy/Drivers/CMSIS/DSP/Source/FilteringFunctions/arm_fir_f32.c **** 
 463:../../libdaisy/Drivers/CMSIS/DSP/Source/FilteringFunctions/arm_fir_f32.c ****       /* Decrement the loop counter */
 464:../../libdaisy/Drivers/CMSIS/DSP/Source/FilteringFunctions/arm_fir_f32.c ****       tapCnt--;
 906              		.loc 1 464 7 is_stmt 1 view .LVU402
 459:../../libdaisy/Drivers/CMSIS/DSP/Source/FilteringFunctions/arm_fir_f32.c ****    {
 907              		.loc 1 459 10 view .LVU403
 908 03f0 F9D1     		bne	.L14
 909              	.LVL162:
 910              	.L1:
 465:../../libdaisy/Drivers/CMSIS/DSP/Source/FilteringFunctions/arm_fir_f32.c ****    }
 466:../../libdaisy/Drivers/CMSIS/DSP/Source/FilteringFunctions/arm_fir_f32.c **** }
 911              		.loc 1 466 1 is_stmt 0 view .LVU404
 912 03f2 0BB0     		add	sp, sp, #44
 913              		.cfi_remember_state
 914              		.cfi_def_cfa_offset 68
 915              		@ sp needed
 916 03f4 BDEC088B 		vldm	sp!, {d8-d11}
 917              		.cfi_restore 86
 918              		.cfi_restore 87
 919              		.cfi_restore 84
 920              		.cfi_restore 85
 921              		.cfi_restore 82
 922              		.cfi_restore 83
 923              		.cfi_restore 80
 924              		.cfi_restore 81
 925              		.cfi_def_cfa_offset 36
 926 03f8 BDE8F08F 		pop	{r4, r5, r6, r7, r8, r9, r10, fp, pc}
 927              	.LVL163:
 928              	.L17:
 929              		.cfi_restore_state
 171:../../libdaisy/Drivers/CMSIS/DSP/Source/FilteringFunctions/arm_fir_f32.c **** 
ARM GAS  /tmp/ccOYje0u.s 			page 30


 930              		.loc 1 171 12 view .LVU405
 931 03fc DFED0B7A 		vldr.32	s15, .L36
 932 0400 02F12001 		add	r1, r2, #32
 177:../../libdaisy/Drivers/CMSIS/DSP/Source/FilteringFunctions/arm_fir_f32.c **** 
 933              		.loc 1 177 10 view .LVU406
 934 0404 DDF810B0 		ldr	fp, [sp, #16]
 170:../../libdaisy/Drivers/CMSIS/DSP/Source/FilteringFunctions/arm_fir_f32.c ****       acc7 = 0.0f;
 935              		.loc 1 170 12 view .LVU407
 936 0408 B0EE677A 		vmov.f32	s14, s15
 169:../../libdaisy/Drivers/CMSIS/DSP/Source/FilteringFunctions/arm_fir_f32.c ****       acc6 = 0.0f;
 937              		.loc 1 169 12 view .LVU408
 938 040c F0EE676A 		vmov.f32	s13, s15
 168:../../libdaisy/Drivers/CMSIS/DSP/Source/FilteringFunctions/arm_fir_f32.c ****       acc5 = 0.0f;
 939              		.loc 1 168 12 view .LVU409
 940 0410 F0EE671A 		vmov.f32	s3, s15
 167:../../libdaisy/Drivers/CMSIS/DSP/Source/FilteringFunctions/arm_fir_f32.c ****       acc4 = 0.0f;
 941              		.loc 1 167 12 view .LVU410
 942 0414 B0EE671A 		vmov.f32	s2, s15
 166:../../libdaisy/Drivers/CMSIS/DSP/Source/FilteringFunctions/arm_fir_f32.c ****       acc3 = 0.0f;
 943              		.loc 1 166 12 view .LVU411
 944 0418 B0EE670A 		vmov.f32	s0, s15
 165:../../libdaisy/Drivers/CMSIS/DSP/Source/FilteringFunctions/arm_fir_f32.c ****       acc2 = 0.0f;
 945              		.loc 1 165 12 view .LVU412
 946 041c F0EE678A 		vmov.f32	s17, s15
 164:../../libdaisy/Drivers/CMSIS/DSP/Source/FilteringFunctions/arm_fir_f32.c ****       acc1 = 0.0f;
 947              		.loc 1 164 12 view .LVU413
 948 0420 F0EE679A 		vmov.f32	s19, s15
 949 0424 3DE7     		b	.L3
 950              	.LVL164:
 951              	.L16:
 130:../../libdaisy/Drivers/CMSIS/DSP/Source/FilteringFunctions/arm_fir_f32.c ****    float32_t *pCoeffs = S->pCoeffs;               /* Coefficient pointer */
 952              		.loc 1 130 15 view .LVU414
 953 0426 019D     		ldr	r5, [sp, #4]
 954              	.LVL165:
 130:../../libdaisy/Drivers/CMSIS/DSP/Source/FilteringFunctions/arm_fir_f32.c ****    float32_t *pCoeffs = S->pCoeffs;               /* Coefficient pointer */
 955              		.loc 1 130 15 view .LVU415
 956 0428 8EE7     		b	.L2
 957              	.L37:
 958 042a 00BF     		.align	2
 959              	.L36:
 960 042c 00000000 		.word	0
 961              		.cfi_endproc
 962              	.LFE353:
 964              		.text
 965              	.Letext0:
 966              		.file 2 "/usr/lib/gcc/arm-none-eabi/9.2.1/include/stdint.h"
 967              		.file 3 "../../libdaisy/Drivers/CMSIS/Include/core_cm7.h"
 968              		.file 4 "../../libdaisy/Drivers/CMSIS/Device/ST/STM32H7xx/Include/system_stm32h7xx.h"
 969              		.file 5 "/usr/lib/gcc/arm-none-eabi/9.2.1/include/stddef.h"
 970              		.file 6 "/usr/include/newlib/sys/_types.h"
 971              		.file 7 "/usr/include/newlib/sys/reent.h"
 972              		.file 8 "/usr/include/newlib/sys/lock.h"
 973              		.file 9 "/usr/include/newlib/math.h"
 974              		.file 10 "../../libdaisy/Drivers/STM32H7xx_HAL_Driver/Inc/stm32h7xx_hal_def.h"
 975              		.file 11 "../../libdaisy/Drivers/STM32H7xx_HAL_Driver/Inc/stm32h7xx_hal_flash.h"
 976              		.file 12 "../../libdaisy/Drivers/CMSIS/DSP/Include/arm_math.h"
ARM GAS  /tmp/ccOYje0u.s 			page 31

